ARM GAS  /var/folders/lp/x54gwt890xv47sdkqj1k04q40000gn/T//ccbcdcFX.s 			page 1


   1              		.cpu cortex-m4
   2              		.arch armv7e-m
   3              		.fpu fpv4-sp-d16
   4              		.eabi_attribute 27, 1
   5              		.eabi_attribute 28, 1
   6              		.eabi_attribute 20, 1
   7              		.eabi_attribute 21, 1
   8              		.eabi_attribute 23, 3
   9              		.eabi_attribute 24, 1
  10              		.eabi_attribute 25, 1
  11              		.eabi_attribute 26, 1
  12              		.eabi_attribute 30, 1
  13              		.eabi_attribute 34, 1
  14              		.eabi_attribute 18, 4
  15              		.file	"audio.c"
  16              		.text
  17              	.Ltext0:
  18              		.cfi_sections	.debug_frame
  19              		.file 1 "Core/Src/audio.c"
  20              		.section	.text.AUDIO_Init,"ax",%progbits
  21              		.align	1
  22              		.global	AUDIO_Init
  23              		.syntax unified
  24              		.thumb
  25              		.thumb_func
  27              	AUDIO_Init:
  28              	.LFB239:
   1:Core/Src/audio.c **** /**
   2:Core/Src/audio.c ****  * @file audio.c
   3:Core/Src/audio.c ****  * @author johannes regnier
   4:Core/Src/audio.c ****  * @brief Functions to make sound and main audio block function 
   5:Core/Src/audio.c ****  * @note  Essential initialization functions from Tom Erbe:	
   6:Core/Src/audio.c ****  * @note  http://synthnotes.ucsd.edu/wp4/index.php/2019/09/24/setting-up-the-stmf4-to-connect-to-th
   7:Core/Src/audio.c ****  * @version 0.1
   8:Core/Src/audio.c ****  * @date 2023-12-12
   9:Core/Src/audio.c ****  * 
  10:Core/Src/audio.c ****  * @copyright Copyright (c) 2023
  11:Core/Src/audio.c ****  * 
  12:Core/Src/audio.c ****  */
  13:Core/Src/audio.c **** 
  14:Core/Src/audio.c **** 
  15:Core/Src/audio.c **** #include <stdint.h>
  16:Core/Src/audio.c **** #include "audio.h"
  17:Core/Src/audio.c **** #include "oscillators.h"
  18:Core/Src/audio.c **** #include "ADSR_envelope.h"
  19:Core/Src/audio.c **** #include "ladder_filter.h"
  20:Core/Src/audio.c **** #include "bitcrusher.h"
  21:Core/Src/audio.c **** #include "flanger.h"
  22:Core/Src/audio.c **** #include "stereo_delay.h"
  23:Core/Src/audio.c **** #include "MIDI_lut.h"
  24:Core/Src/audio.c **** #include <stdint.h>
  25:Core/Src/audio.c **** #include "helper_functions.h"
  26:Core/Src/audio.c **** #include "stdlib.h"
  27:Core/Src/audio.c **** 
  28:Core/Src/audio.c **** // test
  29:Core/Src/audio.c **** 
  30:Core/Src/audio.c **** 
ARM GAS  /var/folders/lp/x54gwt890xv47sdkqj1k04q40000gn/T//ccbcdcFX.s 			page 2


  31:Core/Src/audio.c **** 
  32:Core/Src/audio.c **** /**
  33:Core/Src/audio.c ****  * @brief Audio Buffer - x samples X 2 channels = 2 * x samples
  34:Core/Src/audio.c ****  * @note Channels are interleaved - LRLRLRLRLRLRLRLRLRLRLR - audioBuffer[frame << 1] audioBuffer[(f
  35:Core/Src/audio.c ****  */
  36:Core/Src/audio.c **** int16_t audioBuffer[BUFFER_SIZE]; 
  37:Core/Src/audio.c **** 
  38:Core/Src/audio.c **** 
  39:Core/Src/audio.c **** extern uint8_t currentPitch;
  40:Core/Src/audio.c **** extern uint8_t velocity, noteOn_velocity;
  41:Core/Src/audio.c **** extern ADSR_t adsr_amp, adsr_filt;
  42:Core/Src/audio.c **** extern ADSR_t adsr_index;
  43:Core/Src/audio.c **** extern ZDFLadder_t Moog_filter;
  44:Core/Src/audio.c **** extern oscillator_t osc1, osc2, osc3, osc4, sub_osc;
  45:Core/Src/audio.c **** extern float pot1_norm, pot2_norm, pot3_norm;
  46:Core/Src/audio.c **** extern uint16_t current_count;
  47:Core/Src/audio.c **** extern float delay_wet, feedback;
  48:Core/Src/audio.c **** 
  49:Core/Src/audio.c **** static float f0, f1;		// frequency of oscillators 1, 2, 3 and 4
  50:Core/Src/audio.c **** static float f_sub ;		// frequency of sub oscillator (osc 5)
  51:Core/Src/audio.c **** static float amp_env ;		// amplitude envelope
  52:Core/Src/audio.c **** static float filt_env ;		// filter envelope
  53:Core/Src/audio.c **** static float index_env ;	// FM index envelope
  54:Core/Src/audio.c **** 
  55:Core/Src/audio.c **** float delayLOut = 0 ;		// left output of ping pong delay
  56:Core/Src/audio.c **** float delayROut = 0;		// right output of ping pong delay
  57:Core/Src/audio.c **** 
  58:Core/Src/audio.c **** 
  59:Core/Src/audio.c **** 
  60:Core/Src/audio.c **** 
  61:Core/Src/audio.c **** /**
  62:Core/Src/audio.c ****  * @brief Initialize audio
  63:Core/Src/audio.c ****  * 
  64:Core/Src/audio.c ****  */
  65:Core/Src/audio.c **** void AUDIO_Init()
  66:Core/Src/audio.c **** {
  29              		.loc 1 66 1 view -0
  30              		.cfi_startproc
  31              		@ args = 0, pretend = 0, frame = 0
  32              		@ frame_needed = 0, uses_anonymous_args = 0
  33 0000 08B5     		push	{r3, lr}
  34              		.cfi_def_cfa_offset 8
  35              		.cfi_offset 3, -8
  36              		.cfi_offset 14, -4
  37 0002 2DED048B 		vpush.64	{d8, d9}
  38              		.cfi_def_cfa_offset 24
  39              		.cfi_offset 80, -24
  40              		.cfi_offset 81, -20
  41              		.cfi_offset 82, -16
  42              		.cfi_offset 83, -12
  67:Core/Src/audio.c ****     BSP_AUDIO_OUT_Init(OUTPUT_DEVICE_HEADPHONE, INITIAL_VOLUME, FS);
  43              		.loc 1 67 5 view .LVU1
  44 0006 4AF64442 		movw	r2, #44100
  45 000a 5A21     		movs	r1, #90
  46 000c 0220     		movs	r0, #2
  47 000e FFF7FEFF 		bl	BSP_AUDIO_OUT_Init
  48              	.LVL0:
ARM GAS  /var/folders/lp/x54gwt890xv47sdkqj1k04q40000gn/T//ccbcdcFX.s 			page 3


  68:Core/Src/audio.c **** 
  69:Core/Src/audio.c **** 	/**
  70:Core/Src/audio.c **** 	 * @brief Ping pong buffer
  71:Core/Src/audio.c **** 	 * @note While one audiobuffer is transmitted via DMA, another one is computed
  72:Core/Src/audio.c **** 	 * @note Hence size = 2 * (audiobuffer size)
  73:Core/Src/audio.c **** 	 */
  74:Core/Src/audio.c **** 	BSP_AUDIO_OUT_Play((uint16_t *)&audioBuffer[0], 2*BUFFER_SIZE); 
  49              		.loc 1 74 2 view .LVU2
  50 0012 4FF40071 		mov	r1, #512
  51 0016 2D48     		ldr	r0, .L3
  52 0018 FFF7FEFF 		bl	BSP_AUDIO_OUT_Play
  53              	.LVL1:
  75:Core/Src/audio.c **** 
  76:Core/Src/audio.c **** 	
  77:Core/Src/audio.c **** 	
  78:Core/Src/audio.c **** 	osc_init(&osc1, 0.5, 1000, 0, 0, 0.5);
  54              		.loc 1 78 2 view .LVU3
  55 001c 9FED2C8A 		vldr.32	s16, .L3+4
  56 0020 9FED2C9A 		vldr.32	s18, .L3+8
  57 0024 B6EE002A 		vmov.f32	s4, #5.0e-1
  58 0028 F0EE481A 		vmov.f32	s3, s16
  59 002c B0EE481A 		vmov.f32	s2, s16
  60 0030 F0EE490A 		vmov.f32	s1, s18
  61 0034 B0EE420A 		vmov.f32	s0, s4
  62 0038 2748     		ldr	r0, .L3+12
  63 003a FFF7FEFF 		bl	osc_init
  64              	.LVL2:
  79:Core/Src/audio.c **** 	osc_init(&osc2, 0.5, 440, 0, 1.414, 0.5);
  65              		.loc 1 79 2 view .LVU4
  66 003e DFED278A 		vldr.32	s17, .L3+16
  67 0042 B6EE002A 		vmov.f32	s4, #5.0e-1
  68 0046 DFED261A 		vldr.32	s3, .L3+20
  69 004a B0EE481A 		vmov.f32	s2, s16
  70 004e F0EE680A 		vmov.f32	s1, s17
  71 0052 B0EE420A 		vmov.f32	s0, s4
  72 0056 2348     		ldr	r0, .L3+24
  73 0058 FFF7FEFF 		bl	osc_init
  74              	.LVL3:
  80:Core/Src/audio.c **** 	osc_init(&osc3, 0.5, 1000, 0, 0, 0.5);
  75              		.loc 1 80 2 view .LVU5
  76 005c B6EE002A 		vmov.f32	s4, #5.0e-1
  77 0060 F0EE481A 		vmov.f32	s3, s16
  78 0064 B0EE481A 		vmov.f32	s2, s16
  79 0068 F0EE490A 		vmov.f32	s1, s18
  80 006c B0EE420A 		vmov.f32	s0, s4
  81 0070 1D48     		ldr	r0, .L3+28
  82 0072 FFF7FEFF 		bl	osc_init
  83              	.LVL4:
  81:Core/Src/audio.c **** 	osc_init(&osc4, 0.5, 440, 0, 0, 0.5);
  84              		.loc 1 81 2 view .LVU6
  85 0076 B6EE002A 		vmov.f32	s4, #5.0e-1
  86 007a F0EE481A 		vmov.f32	s3, s16
  87 007e B0EE481A 		vmov.f32	s2, s16
  88 0082 F0EE680A 		vmov.f32	s1, s17
  89 0086 B0EE420A 		vmov.f32	s0, s4
  90 008a 1848     		ldr	r0, .L3+32
  91 008c FFF7FEFF 		bl	osc_init
ARM GAS  /var/folders/lp/x54gwt890xv47sdkqj1k04q40000gn/T//ccbcdcFX.s 			page 4


  92              	.LVL5:
  82:Core/Src/audio.c **** 	osc_init(&sub_osc, 0.5, 440, 0, 0, 0.5);
  93              		.loc 1 82 2 view .LVU7
  94 0090 B6EE002A 		vmov.f32	s4, #5.0e-1
  95 0094 F0EE481A 		vmov.f32	s3, s16
  96 0098 B0EE481A 		vmov.f32	s2, s16
  97 009c F0EE680A 		vmov.f32	s1, s17
  98 00a0 B0EE420A 		vmov.f32	s0, s4
  99 00a4 1248     		ldr	r0, .L3+36
 100 00a6 FFF7FEFF 		bl	osc_init
 101              	.LVL6:
  83:Core/Src/audio.c **** 
  84:Core/Src/audio.c **** 
  85:Core/Src/audio.c **** 	ADSR_init(&adsr_amp);
 102              		.loc 1 85 2 view .LVU8
 103 00aa 1248     		ldr	r0, .L3+40
 104 00ac FFF7FEFF 		bl	ADSR_init
 105              	.LVL7:
  86:Core/Src/audio.c **** 	ADSR_init(&adsr_filt);
 106              		.loc 1 86 2 view .LVU9
 107 00b0 1148     		ldr	r0, .L3+44
 108 00b2 FFF7FEFF 		bl	ADSR_init
 109              	.LVL8:
  87:Core/Src/audio.c **** 	ADSR_init(&adsr_index);
 110              		.loc 1 87 2 view .LVU10
 111 00b6 1148     		ldr	r0, .L3+48
 112 00b8 FFF7FEFF 		bl	ADSR_init
 113              	.LVL9:
  88:Core/Src/audio.c **** 	MoogLP_init(&Moog_filter);
 114              		.loc 1 88 2 view .LVU11
 115 00bc 1048     		ldr	r0, .L3+52
 116 00be FFF7FEFF 		bl	MoogLP_init
 117              	.LVL10:
  89:Core/Src/audio.c **** 	// flanger_init();
  90:Core/Src/audio.c **** 	Delay_init();
 118              		.loc 1 90 2 view .LVU12
 119 00c2 FFF7FEFF 		bl	Delay_init
 120              	.LVL11:
  91:Core/Src/audio.c **** }
 121              		.loc 1 91 1 is_stmt 0 view .LVU13
 122 00c6 BDEC048B 		vldm	sp!, {d8-d9}
 123              		.cfi_restore 82
 124              		.cfi_restore 83
 125              		.cfi_restore 80
 126              		.cfi_restore 81
 127              		.cfi_def_cfa_offset 8
 128 00ca 08BD     		pop	{r3, pc}
 129              	.L4:
 130              		.align	2
 131              	.L3:
 132 00cc 00000000 		.word	audioBuffer
 133 00d0 00000000 		.word	0
 134 00d4 00007A44 		.word	1148846080
 135 00d8 00000000 		.word	osc1
 136 00dc 0000DC43 		.word	1138491392
 137 00e0 F4FDB43F 		.word	1068826100
 138 00e4 00000000 		.word	osc2
ARM GAS  /var/folders/lp/x54gwt890xv47sdkqj1k04q40000gn/T//ccbcdcFX.s 			page 5


 139 00e8 00000000 		.word	osc3
 140 00ec 00000000 		.word	osc4
 141 00f0 00000000 		.word	sub_osc
 142 00f4 00000000 		.word	adsr_amp
 143 00f8 00000000 		.word	adsr_filt
 144 00fc 00000000 		.word	adsr_index
 145 0100 00000000 		.word	Moog_filter
 146              		.cfi_endproc
 147              	.LFE239:
 149              		.section	.text.OpSetFreq,"ax",%progbits
 150              		.align	1
 151              		.global	OpSetFreq
 152              		.syntax unified
 153              		.thumb
 154              		.thumb_func
 156              	OpSetFreq:
 157              	.LVL12:
 158              	.LFB240:
  92:Core/Src/audio.c **** 
  93:Core/Src/audio.c **** void OpSetFreq(oscillator_t * op, float f)
  94:Core/Src/audio.c **** {
 159              		.loc 1 94 1 is_stmt 1 view -0
 160              		.cfi_startproc
 161              		@ args = 0, pretend = 0, frame = 0
 162              		@ frame_needed = 0, uses_anonymous_args = 0
 163              		@ link register save eliminated.
  95:Core/Src/audio.c **** 	op->freq = A0 * f;
 164              		.loc 1 95 2 view .LVU15
 165              		.loc 1 95 16 is_stmt 0 view .LVU16
 166 0000 DFED037A 		vldr.32	s15, .L6
 167 0004 20EE270A 		vmul.f32	s0, s0, s15
 168              	.LVL13:
 169              		.loc 1 95 11 view .LVU17
 170 0008 80ED010A 		vstr.32	s0, [r0, #4]
  96:Core/Src/audio.c **** }
 171              		.loc 1 96 1 view .LVU18
 172 000c 7047     		bx	lr
 173              	.L7:
 174 000e 00BF     		.align	2
 175              	.L6:
 176 0010 8D3B803F 		.word	1065368461
 177              		.cfi_endproc
 178              	.LFE240:
 180              		.global	__aeabi_f2d
 181              		.global	__aeabi_dadd
 182              		.global	__aeabi_dmul
 183              		.global	__aeabi_d2f
 184              		.section	.text.audioBlock,"ax",%progbits
 185              		.align	1
 186              		.global	audioBlock
 187              		.syntax unified
 188              		.thumb
 189              		.thumb_func
 191              	audioBlock:
 192              	.LVL14:
 193              	.LFB241:
  97:Core/Src/audio.c **** 
ARM GAS  /var/folders/lp/x54gwt890xv47sdkqj1k04q40000gn/T//ccbcdcFX.s 			page 6


  98:Core/Src/audio.c **** 
  99:Core/Src/audio.c **** 
 100:Core/Src/audio.c **** /**
 101:Core/Src/audio.c ****  * @brief Main audio function. This is where the audio samples are computed, then the audio buffer 
 102:Core/Src/audio.c ****  * 
 103:Core/Src/audio.c ****  * @param buffer 
 104:Core/Src/audio.c ****  * @param samples 
 105:Core/Src/audio.c ****  */
 106:Core/Src/audio.c **** void audioBlock(int16_t *buffer, uint16_t samples)
 107:Core/Src/audio.c **** {
 194              		.loc 1 107 1 is_stmt 1 view -0
 195              		.cfi_startproc
 196              		@ args = 0, pretend = 0, frame = 0
 197              		@ frame_needed = 0, uses_anonymous_args = 0
 198              		.loc 1 107 1 is_stmt 0 view .LVU20
 199 0000 2DE9F843 		push	{r3, r4, r5, r6, r7, r8, r9, lr}
 200              		.cfi_def_cfa_offset 32
 201              		.cfi_offset 3, -32
 202              		.cfi_offset 4, -28
 203              		.cfi_offset 5, -24
 204              		.cfi_offset 6, -20
 205              		.cfi_offset 7, -16
 206              		.cfi_offset 8, -12
 207              		.cfi_offset 9, -8
 208              		.cfi_offset 14, -4
 209 0004 2DED048B 		vpush.64	{d8, d9}
 210              		.cfi_def_cfa_offset 48
 211              		.cfi_offset 80, -48
 212              		.cfi_offset 81, -44
 213              		.cfi_offset 82, -40
 214              		.cfi_offset 83, -36
 215 0008 0546     		mov	r5, r0
 216 000a 0F46     		mov	r7, r1
 108:Core/Src/audio.c **** 	int i;
 217              		.loc 1 108 2 is_stmt 1 view .LVU21
 109:Core/Src/audio.c **** 	int16_t *output;
 218              		.loc 1 109 2 view .LVU22
 110:Core/Src/audio.c **** 	output = buffer;
 219              		.loc 1 110 2 view .LVU23
 220              	.LVL15:
 111:Core/Src/audio.c **** 	float sample, sampleL, sampleR;
 221              		.loc 1 111 2 view .LVU24
 112:Core/Src/audio.c **** 	uint16_t valueL, valueR;
 222              		.loc 1 112 2 view .LVU25
 113:Core/Src/audio.c **** 	uint8_t select_osc = current_count % 2;
 223              		.loc 1 113 2 view .LVU26
 224              		.loc 1 113 37 is_stmt 0 view .LVU27
 225 000c 9C4B     		ldr	r3, .L18+16
 226 000e 1E78     		ldrb	r6, [r3]	@ zero_extendqisi2
 227              		.loc 1 113 10 view .LVU28
 228 0010 06F00106 		and	r6, r6, #1
 229              	.LVL16:
 114:Core/Src/audio.c **** 	// uint8_t select_osc = clip(current_count, 0, 1);
 115:Core/Src/audio.c **** 
 116:Core/Src/audio.c **** 
 117:Core/Src/audio.c **** 	adsr_filt.dcy_time = 10*(0.008+pot2_norm*pot2_norm*pot2_norm*pot2_norm);
 230              		.loc 1 117 2 is_stmt 1 view .LVU29
ARM GAS  /var/folders/lp/x54gwt890xv47sdkqj1k04q40000gn/T//ccbcdcFX.s 			page 7


 231              		.loc 1 117 42 is_stmt 0 view .LVU30
 232 0014 9B4B     		ldr	r3, .L18+20
 233 0016 D3ED007A 		vldr.32	s15, [r3]
 234 001a 27EEA77A 		vmul.f32	s14, s15, s15
 235              		.loc 1 117 52 view .LVU31
 236 001e 27EE877A 		vmul.f32	s14, s15, s14
 237              		.loc 1 117 62 view .LVU32
 238 0022 67EE877A 		vmul.f32	s15, s15, s14
 239 0026 17EE900A 		vmov	r0, s15
 240              	.LVL17:
 241              		.loc 1 117 62 view .LVU33
 242 002a FFF7FEFF 		bl	__aeabi_f2d
 243              	.LVL18:
 244              		.loc 1 117 32 view .LVU34
 245 002e 90A3     		adr	r3, .L18
 246 0030 D3E90023 		ldrd	r2, [r3]
 247 0034 FFF7FEFF 		bl	__aeabi_dadd
 248              	.LVL19:
 249              		.loc 1 117 25 view .LVU35
 250 0038 0022     		movs	r2, #0
 251 003a 934B     		ldr	r3, .L18+24
 252 003c FFF7FEFF 		bl	__aeabi_dmul
 253              	.LVL20:
 254 0040 FFF7FEFF 		bl	__aeabi_d2f
 255              	.LVL21:
 256 0044 01EE100A 		vmov	s2, r0
 257              		.loc 1 117 21 view .LVU36
 258 0048 DFF86482 		ldr	r8, .L18+64
 259 004c C8F81000 		str	r0, [r8, #16]	@ float
 118:Core/Src/audio.c **** 	adsr_index.dcy_time = 10*(0.008+pot2_norm*pot2_norm*pot2_norm*pot2_norm);
 260              		.loc 1 118 2 is_stmt 1 view .LVU37
 261              		.loc 1 118 22 is_stmt 0 view .LVU38
 262 0050 8E4C     		ldr	r4, .L18+28
 263 0052 2061     		str	r0, [r4, #16]	@ float
 119:Core/Src/audio.c **** 	adsr_filt.dcy_mult = ADSR_calculateMultiplier(1, adsr_filt.sust_level, adsr_filt.dcy_time); 
 264              		.loc 1 119 2 is_stmt 1 view .LVU39
 265              		.loc 1 119 23 is_stmt 0 view .LVU40
 266 0054 D8ED050A 		vldr.32	s1, [r8, #20]
 267 0058 B7EE000A 		vmov.f32	s0, #1.0e+0
 268 005c FFF7FEFF 		bl	ADSR_calculateMultiplier
 269              	.LVL22:
 270              		.loc 1 119 21 discriminator 1 view .LVU41
 271 0060 88ED080A 		vstr.32	s0, [r8, #32]
 120:Core/Src/audio.c **** 	adsr_index.dcy_mult = ADSR_calculateMultiplier(1, adsr_index.sust_level, adsr_index.dcy_time); 
 272              		.loc 1 120 2 is_stmt 1 view .LVU42
 273              		.loc 1 120 24 is_stmt 0 view .LVU43
 274 0064 94ED041A 		vldr.32	s2, [r4, #16]
 275 0068 D4ED050A 		vldr.32	s1, [r4, #20]
 276 006c B7EE000A 		vmov.f32	s0, #1.0e+0
 277 0070 FFF7FEFF 		bl	ADSR_calculateMultiplier
 278              	.LVL23:
 279              		.loc 1 120 22 discriminator 1 view .LVU44
 280 0074 84ED080A 		vstr.32	s0, [r4, #32]
 121:Core/Src/audio.c **** 
 122:Core/Src/audio.c **** 	for (i = 0; i < samples; i++)
 281              		.loc 1 122 2 is_stmt 1 view .LVU45
 282              	.LVL24:
ARM GAS  /var/folders/lp/x54gwt890xv47sdkqj1k04q40000gn/T//ccbcdcFX.s 			page 8


 283              		.loc 1 122 9 is_stmt 0 view .LVU46
 284 0078 0024     		movs	r4, #0
 285              		.loc 1 122 2 view .LVU47
 286 007a 94E0     		b	.L9
 287              	.LVL25:
 288              	.L10:
 123:Core/Src/audio.c **** 	{
 124:Core/Src/audio.c **** 		/* convert MIDI pitch into frequency using mtof lookup table */
 125:Core/Src/audio.c **** 		f0 = mtof[currentPitch];
 126:Core/Src/audio.c **** 		f1 = mtof[currentPitch + 7];
 127:Core/Src/audio.c **** 		
 128:Core/Src/audio.c **** 		/* set oscillator frequencies, with light detuning*/
 129:Core/Src/audio.c **** 		/* oscillator 4 is a fifth over the others ... just for demonstration */
 130:Core/Src/audio.c **** 		OpSetFreq(&osc1, f0);
 131:Core/Src/audio.c **** 		OpSetFreq(&osc2, f0+1);
 132:Core/Src/audio.c **** 		OpSetFreq(&osc3, f0-1);
 133:Core/Src/audio.c **** 		OpSetFreq(&osc4, f1);
 134:Core/Src/audio.c **** 		OpSetFreq(&sub_osc, f_sub);
 135:Core/Src/audio.c **** 		
 136:Core/Src/audio.c **** 
 137:Core/Src/audio.c **** 		/*********** choose oscillator type with encoder *************/
 138:Core/Src/audio.c **** 		switch(select_osc){
 139:Core/Src/audio.c **** 			case 0:
 140:Core/Src/audio.c **** 			// analog waveforms
 141:Core/Src/audio.c **** 				f_sub = mtof[max(currentPitch - 12, 0)];
 289              		.loc 1 141 5 is_stmt 1 view .LVU48
 290              		.loc 1 141 18 is_stmt 0 view .LVU49
 291 007c 844B     		ldr	r3, .L18+32
 292 007e 1B78     		ldrb	r3, [r3]	@ zero_extendqisi2
 293 0080 0C2B     		cmp	r3, #12
 294 0082 01D9     		bls	.L15
 295              		.loc 1 141 18 discriminator 1 view .LVU50
 296 0084 0C3B     		subs	r3, r3, #12
 297 0086 00E0     		b	.L13
 298              	.L15:
 299              		.loc 1 141 18 discriminator 2 view .LVU51
 300 0088 0023     		movs	r3, #0
 301              	.L13:
 302              		.loc 1 141 17 discriminator 4 view .LVU52
 303 008a 824A     		ldr	r2, .L18+36
 304 008c 02EB8303 		add	r3, r2, r3, lsl #2
 305 0090 1A68     		ldr	r2, [r3]	@ float
 306              		.loc 1 141 11 discriminator 4 view .LVU53
 307 0092 814B     		ldr	r3, .L18+40
 308 0094 1A60     		str	r2, [r3]	@ float
 142:Core/Src/audio.c **** 				
 143:Core/Src/audio.c **** 				sample = 0.25*(osc_polyblepSaw(&osc1) + osc_polyblepSaw(&osc2) + osc_polyblepSaw(&osc3) + osc_p
 309              		.loc 1 143 5 is_stmt 1 view .LVU54
 310              		.loc 1 143 20 is_stmt 0 view .LVU55
 311 0096 8148     		ldr	r0, .L18+44
 312 0098 FFF7FEFF 		bl	osc_polyblepSaw
 313              	.LVL26:
 314 009c B0EE408A 		vmov.f32	s16, s0
 315              	.LVL27:
 316              		.loc 1 143 45 discriminator 1 view .LVU56
 317 00a0 7F48     		ldr	r0, .L18+48
 318 00a2 FFF7FEFF 		bl	osc_polyblepSaw
ARM GAS  /var/folders/lp/x54gwt890xv47sdkqj1k04q40000gn/T//ccbcdcFX.s 			page 9


 319              	.LVL28:
 320              		.loc 1 143 43 discriminator 2 view .LVU57
 321 00a6 38EE008A 		vadd.f32	s16, s16, s0
 322              		.loc 1 143 70 discriminator 2 view .LVU58
 323 00aa 7E48     		ldr	r0, .L18+52
 324 00ac FFF7FEFF 		bl	osc_polyblepSaw
 325              	.LVL29:
 326              		.loc 1 143 68 discriminator 3 view .LVU59
 327 00b0 38EE008A 		vadd.f32	s16, s16, s0
 328              		.loc 1 143 95 discriminator 3 view .LVU60
 329 00b4 7C48     		ldr	r0, .L18+56
 330 00b6 FFF7FEFF 		bl	osc_polyblepSaw
 331              	.LVL30:
 332              		.loc 1 143 93 discriminator 4 view .LVU61
 333 00ba 38EE008A 		vadd.f32	s16, s16, s0
 334              		.loc 1 143 119 discriminator 4 view .LVU62
 335 00be 7B48     		ldr	r0, .L18+60
 336 00c0 FFF7FEFF 		bl	osc_polyblepRect
 337              	.LVL31:
 338              		.loc 1 143 117 discriminator 5 view .LVU63
 339 00c4 38EE008A 		vadd.f32	s16, s16, s0
 340 00c8 F5EE007A 		vmov.f32	s15, #2.5e-1
 341 00cc 28EE278A 		vmul.f32	s16, s16, s15
 342              	.LVL32:
 144:Core/Src/audio.c **** 		       
 145:Core/Src/audio.c ****         		break;
 343              		.loc 1 145 11 is_stmt 1 view .LVU64
 344              	.L12:
 146:Core/Src/audio.c **** 
 147:Core/Src/audio.c ****     		case 1:
 148:Core/Src/audio.c **** 			// FM
 149:Core/Src/audio.c **** 				index_env = ADSR_compute(&adsr_index);
 150:Core/Src/audio.c **** 				osc1.FM_index = pot1_norm * pot1_norm * pot1_norm * pot1_norm * index_env;	
 151:Core/Src/audio.c **** 				sample = 0.8 * osc_FM2OP(f0);
 152:Core/Src/audio.c **** 				break;
 153:Core/Src/audio.c **** 		}
 154:Core/Src/audio.c **** 
 155:Core/Src/audio.c **** 				
 156:Core/Src/audio.c **** 		// sample = osc_Sine(&osc1);
 157:Core/Src/audio.c **** 
 158:Core/Src/audio.c **** 	
 159:Core/Src/audio.c **** 		
 160:Core/Src/audio.c **** 		/****************** Apply filter ***********************/
 161:Core/Src/audio.c **** 		filt_env = ADSR_compute(&adsr_filt);
 345              		.loc 1 161 3 view .LVU65
 346              		.loc 1 161 14 is_stmt 0 view .LVU66
 347 00d0 7748     		ldr	r0, .L18+64
 348 00d2 FFF7FEFF 		bl	ADSR_compute
 349              	.LVL33:
 350              		.loc 1 161 12 discriminator 1 view .LVU67
 351 00d6 774B     		ldr	r3, .L18+68
 352 00d8 83ED000A 		vstr.32	s0, [r3]
 162:Core/Src/audio.c **** 		Moog_filter.cutoff =clip(7000.f * filt_env + NYQUIST * pot1_norm * pot1_norm * pot1_norm * pot1_n
 353              		.loc 1 162 3 is_stmt 1 view .LVU68
 354              		.loc 1 162 35 is_stmt 0 view .LVU69
 355 00dc DFED767A 		vldr.32	s15, .L18+72
 356 00e0 20EE270A 		vmul.f32	s0, s0, s15
ARM GAS  /var/folders/lp/x54gwt890xv47sdkqj1k04q40000gn/T//ccbcdcFX.s 			page 10


 357              		.loc 1 162 56 view .LVU70
 358 00e4 754B     		ldr	r3, .L18+76
 359 00e6 D3ED007A 		vldr.32	s15, [r3]
 360 00ea 9FED751A 		vldr.32	s2, .L18+80
 361 00ee 27EE817A 		vmul.f32	s14, s15, s2
 362              		.loc 1 162 68 view .LVU71
 363 00f2 27EE877A 		vmul.f32	s14, s15, s14
 364              		.loc 1 162 80 view .LVU72
 365 00f6 27EE877A 		vmul.f32	s14, s15, s14
 366              		.loc 1 162 92 view .LVU73
 367 00fa 67EE877A 		vmul.f32	s15, s15, s14
 368              		.loc 1 162 23 view .LVU74
 369 00fe F3EE040A 		vmov.f32	s1, #2.0e+1
 370 0102 30EE270A 		vadd.f32	s0, s0, s15
 371 0106 FFF7FEFF 		bl	clip
 372              	.LVL34:
 373              		.loc 1 162 22 discriminator 1 view .LVU75
 374 010a 6E48     		ldr	r0, .L18+84
 375 010c 80ED000A 		vstr.32	s0, [r0]
 163:Core/Src/audio.c **** 		// Moog_filter.k = 4.5f * pot2_norm;
 164:Core/Src/audio.c **** 
 165:Core/Src/audio.c **** 		sample = MoogLP_compute(&Moog_filter, sample);
 376              		.loc 1 165 3 is_stmt 1 view .LVU76
 377              		.loc 1 165 12 is_stmt 0 view .LVU77
 378 0110 B0EE480A 		vmov.f32	s0, s16
 379 0114 FFF7FEFF 		bl	MoogLP_compute
 380              	.LVL35:
 381 0118 B0EE408A 		vmov.f32	s16, s0
 382              	.LVL36:
 166:Core/Src/audio.c **** 
 167:Core/Src/audio.c **** 		/************** Apply amplitude envelope ****************/
 168:Core/Src/audio.c **** 		amp_env = ADSR_compute(&adsr_amp);
 383              		.loc 1 168 3 is_stmt 1 view .LVU78
 384              		.loc 1 168 13 is_stmt 0 view .LVU79
 385 011c 6A48     		ldr	r0, .L18+88
 386 011e FFF7FEFF 		bl	ADSR_compute
 387              	.LVL37:
 388              		.loc 1 168 11 discriminator 1 view .LVU80
 389 0122 6A4B     		ldr	r3, .L18+92
 390 0124 83ED000A 		vstr.32	s0, [r3]
 169:Core/Src/audio.c **** 		sample *= amp_env;
 391              		.loc 1 169 3 is_stmt 1 view .LVU81
 392              		.loc 1 169 10 is_stmt 0 view .LVU82
 393 0128 20EE088A 		vmul.f32	s16, s0, s16
 394              	.LVL38:
 170:Core/Src/audio.c **** 
 171:Core/Src/audio.c **** 		
 172:Core/Src/audio.c **** 		/************** Apply bitcrushing effect ***************/
 173:Core/Src/audio.c **** 		// uncomment to activate
 174:Core/Src/audio.c **** 		// sample = decimator(sample, 0.2, 16);
 175:Core/Src/audio.c **** 
 176:Core/Src/audio.c **** 		/************** Apply flanging effect ***************/
 177:Core/Src/audio.c **** 		// TODO ...
 178:Core/Src/audio.c **** 		// sample = flanger_compute(sample); 
 179:Core/Src/audio.c **** 
 180:Core/Src/audio.c **** 		/************** Apply delay effect ****************/
 181:Core/Src/audio.c **** 		delay_wet = pot3_norm;	// delay send value from pot #3
ARM GAS  /var/folders/lp/x54gwt890xv47sdkqj1k04q40000gn/T//ccbcdcFX.s 			page 11


 395              		.loc 1 181 3 is_stmt 1 view .LVU83
 396              		.loc 1 181 13 is_stmt 0 view .LVU84
 397 012c 684B     		ldr	r3, .L18+96
 398 012e D3ED007A 		vldr.32	s15, [r3]
 399 0132 684B     		ldr	r3, .L18+100
 400 0134 C3ED007A 		vstr.32	s15, [r3]
 182:Core/Src/audio.c **** 		feedback = clip(pot3_norm + 0.25, 0, 1.1); // also increase feedback 
 401              		.loc 1 182 3 is_stmt 1 view .LVU85
 402              		.loc 1 182 14 is_stmt 0 view .LVU86
 403 0138 9FED671A 		vldr.32	s2, .L18+104
 404 013c DFED670A 		vldr.32	s1, .L18+108
 405 0140 B5EE000A 		vmov.f32	s0, #2.5e-1
 406 0144 37EE800A 		vadd.f32	s0, s15, s0
 407 0148 FFF7FEFF 		bl	clip
 408              	.LVL39:
 409              		.loc 1 182 12 discriminator 1 view .LVU87
 410 014c 644B     		ldr	r3, .L18+112
 411 014e 83ED000A 		vstr.32	s0, [r3]
 183:Core/Src/audio.c **** 
 184:Core/Src/audio.c **** 		pingpongDelay_compute(sample, &delayLOut, &delayROut);
 412              		.loc 1 184 3 is_stmt 1 view .LVU88
 413 0152 DFF89C91 		ldr	r9, .L18+128
 414 0156 DFF89C81 		ldr	r8, .L18+132
 415 015a 4946     		mov	r1, r9
 416 015c 4046     		mov	r0, r8
 417 015e B0EE480A 		vmov.f32	s0, s16
 418 0162 FFF7FEFF 		bl	pingpongDelay_compute
 419              	.LVL40:
 185:Core/Src/audio.c **** 		sampleL = delayLOut;
 420              		.loc 1 185 3 view .LVU89
 186:Core/Src/audio.c **** 		sampleR = delayROut;
 421              		.loc 1 186 3 view .LVU90
 422              		.loc 1 186 11 is_stmt 0 view .LVU91
 423 0166 99ED009A 		vldr.32	s18, [r9]
 424              	.LVL41:
 187:Core/Src/audio.c **** 		
 188:Core/Src/audio.c **** 		/****************** softclip outputs ********************/
 189:Core/Src/audio.c **** 		sampleL = SoftClip(sampleL);
 425              		.loc 1 189 3 is_stmt 1 view .LVU92
 426              		.loc 1 189 13 is_stmt 0 view .LVU93
 427 016a 98ED000A 		vldr.32	s0, [r8]
 428 016e FFF7FEFF 		bl	SoftClip
 429              	.LVL42:
 430              		.loc 1 189 13 view .LVU94
 431 0172 F0EE408A 		vmov.f32	s17, s0
 432              	.LVL43:
 190:Core/Src/audio.c **** 		sampleR = SoftClip(sampleR);
 433              		.loc 1 190 3 is_stmt 1 view .LVU95
 434              		.loc 1 190 13 is_stmt 0 view .LVU96
 435 0176 B0EE490A 		vmov.f32	s0, s18
 436              	.LVL44:
 437              		.loc 1 190 13 view .LVU97
 438 017a FFF7FEFF 		bl	SoftClip
 439              	.LVL45:
 191:Core/Src/audio.c **** 
 192:Core/Src/audio.c **** 		/*************** Convert to 16 bits int *****************/
 193:Core/Src/audio.c **** 		valueL = ((int16_t) ((32767.0f) * sampleL)); 
ARM GAS  /var/folders/lp/x54gwt890xv47sdkqj1k04q40000gn/T//ccbcdcFX.s 			page 12


 440              		.loc 1 193 3 is_stmt 1 view .LVU98
 441              		.loc 1 193 35 is_stmt 0 view .LVU99
 442 017e DFED597A 		vldr.32	s15, .L18+116
 443 0182 68EEA78A 		vmul.f32	s17, s17, s15
 444              	.LVL46:
 445              		.loc 1 193 13 view .LVU100
 446 0186 FDEEE88A 		vcvt.s32.f32	s17, s17
 447              	.LVL47:
 194:Core/Src/audio.c **** 		valueR = ((int16_t) ((32767.0f) * sampleR));
 448              		.loc 1 194 3 is_stmt 1 view .LVU101
 449              		.loc 1 194 35 is_stmt 0 view .LVU102
 450 018a 20EE270A 		vmul.f32	s0, s0, s15
 451              	.LVL48:
 452              		.loc 1 194 13 view .LVU103
 453 018e BDEEC00A 		vcvt.s32.f32	s0, s0
 454              	.LVL49:
 195:Core/Src/audio.c **** 
 196:Core/Src/audio.c **** 		/*************** Output to audio buffer *****************/
 197:Core/Src/audio.c **** 		output[i<<1] = valueL ;			// LEFT channel
 455              		.loc 1 197 3 is_stmt 1 view .LVU104
 456              		.loc 1 197 9 is_stmt 0 view .LVU105
 457 0192 A300     		lsls	r3, r4, #2
 458              		.loc 1 197 16 view .LVU106
 459 0194 18EE902A 		vmov	r2, s17	@ int
 460 0198 25F82420 		strh	r2, [r5, r4, lsl #2]	@ movhi
 198:Core/Src/audio.c **** 	    output[(i<<1) + 1] = valueR;	// RIGHT channel
 461              		.loc 1 198 6 is_stmt 1 view .LVU107
 462              		.loc 1 198 12 is_stmt 0 view .LVU108
 463 019c 0233     		adds	r3, r3, #2
 464              		.loc 1 198 25 view .LVU109
 465 019e 10EE102A 		vmov	r2, s0	@ int
 466 01a2 EA52     		strh	r2, [r5, r3]	@ movhi
 122:Core/Src/audio.c **** 	{
 467              		.loc 1 122 28 is_stmt 1 discriminator 2 view .LVU110
 468 01a4 0134     		adds	r4, r4, #1
 469              	.LVL50:
 470              	.L9:
 122:Core/Src/audio.c **** 	{
 471              		.loc 1 122 16 discriminator 1 view .LVU111
 472 01a6 A742     		cmp	r7, r4
 473 01a8 5DDD     		ble	.L17
 125:Core/Src/audio.c **** 		f1 = mtof[currentPitch + 7];
 474              		.loc 1 125 3 view .LVU112
 125:Core/Src/audio.c **** 		f1 = mtof[currentPitch + 7];
 475              		.loc 1 125 12 is_stmt 0 view .LVU113
 476 01aa 394B     		ldr	r3, .L18+32
 477 01ac 1A78     		ldrb	r2, [r3]	@ zero_extendqisi2
 478 01ae 394B     		ldr	r3, .L18+36
 479 01b0 03EB8201 		add	r1, r3, r2, lsl #2
 480 01b4 91ED000A 		vldr.32	s0, [r1]
 125:Core/Src/audio.c **** 		f1 = mtof[currentPitch + 7];
 481              		.loc 1 125 6 view .LVU114
 482 01b8 DFF83081 		ldr	r8, .L18+124
 483 01bc 88ED000A 		vstr.32	s0, [r8]
 126:Core/Src/audio.c **** 		
 484              		.loc 1 126 3 is_stmt 1 view .LVU115
 126:Core/Src/audio.c **** 		
ARM GAS  /var/folders/lp/x54gwt890xv47sdkqj1k04q40000gn/T//ccbcdcFX.s 			page 13


 485              		.loc 1 126 26 is_stmt 0 view .LVU116
 486 01c0 0732     		adds	r2, r2, #7
 126:Core/Src/audio.c **** 		
 487              		.loc 1 126 12 view .LVU117
 488 01c2 03EB8203 		add	r3, r3, r2, lsl #2
 489 01c6 1B68     		ldr	r3, [r3]	@ float
 126:Core/Src/audio.c **** 		
 490              		.loc 1 126 6 view .LVU118
 491 01c8 DFF82C91 		ldr	r9, .L18+136
 492 01cc C9F80030 		str	r3, [r9]	@ float
 130:Core/Src/audio.c **** 		OpSetFreq(&osc2, f0+1);
 493              		.loc 1 130 3 is_stmt 1 view .LVU119
 494 01d0 3248     		ldr	r0, .L18+44
 495 01d2 FFF7FEFF 		bl	OpSetFreq
 496              	.LVL51:
 131:Core/Src/audio.c **** 		OpSetFreq(&osc3, f0-1);
 497              		.loc 1 131 3 view .LVU120
 498 01d6 98ED000A 		vldr.32	s0, [r8]
 499 01da F7EE008A 		vmov.f32	s17, #1.0e+0
 500 01de 30EE280A 		vadd.f32	s0, s0, s17
 501 01e2 2F48     		ldr	r0, .L18+48
 502 01e4 FFF7FEFF 		bl	OpSetFreq
 503              	.LVL52:
 132:Core/Src/audio.c **** 		OpSetFreq(&osc4, f1);
 504              		.loc 1 132 3 view .LVU121
 505 01e8 98ED000A 		vldr.32	s0, [r8]
 506 01ec 30EE680A 		vsub.f32	s0, s0, s17
 507 01f0 2C48     		ldr	r0, .L18+52
 508 01f2 FFF7FEFF 		bl	OpSetFreq
 509              	.LVL53:
 133:Core/Src/audio.c **** 		OpSetFreq(&sub_osc, f_sub);
 510              		.loc 1 133 3 view .LVU122
 511 01f6 99ED000A 		vldr.32	s0, [r9]
 512 01fa 2B48     		ldr	r0, .L18+56
 513 01fc FFF7FEFF 		bl	OpSetFreq
 514              	.LVL54:
 134:Core/Src/audio.c **** 		
 515              		.loc 1 134 3 view .LVU123
 516 0200 254B     		ldr	r3, .L18+40
 517 0202 93ED000A 		vldr.32	s0, [r3]
 518 0206 2948     		ldr	r0, .L18+60
 519 0208 FFF7FEFF 		bl	OpSetFreq
 520              	.LVL55:
 138:Core/Src/audio.c **** 			case 0:
 521              		.loc 1 138 3 view .LVU124
 522 020c 002E     		cmp	r6, #0
 523 020e 3FF435AF 		beq	.L10
 524 0212 002E     		cmp	r6, #0
 525 0214 3FF45CAF 		beq	.L12
 149:Core/Src/audio.c **** 				osc1.FM_index = pot1_norm * pot1_norm * pot1_norm * pot1_norm * index_env;	
 526              		.loc 1 149 5 view .LVU125
 149:Core/Src/audio.c **** 				osc1.FM_index = pot1_norm * pot1_norm * pot1_norm * pot1_norm * index_env;	
 527              		.loc 1 149 17 is_stmt 0 view .LVU126
 528 0218 1C48     		ldr	r0, .L18+28
 529 021a FFF7FEFF 		bl	ADSR_compute
 530              	.LVL56:
 149:Core/Src/audio.c **** 				osc1.FM_index = pot1_norm * pot1_norm * pot1_norm * pot1_norm * index_env;	
ARM GAS  /var/folders/lp/x54gwt890xv47sdkqj1k04q40000gn/T//ccbcdcFX.s 			page 14


 531              		.loc 1 149 15 discriminator 1 view .LVU127
 532 021e 324B     		ldr	r3, .L18+120
 533 0220 83ED000A 		vstr.32	s0, [r3]
 150:Core/Src/audio.c **** 				sample = 0.8 * osc_FM2OP(f0);
 534              		.loc 1 150 5 is_stmt 1 view .LVU128
 150:Core/Src/audio.c **** 				sample = 0.8 * osc_FM2OP(f0);
 535              		.loc 1 150 31 is_stmt 0 view .LVU129
 536 0224 254B     		ldr	r3, .L18+76
 537 0226 D3ED007A 		vldr.32	s15, [r3]
 538 022a 27EEA77A 		vmul.f32	s14, s15, s15
 150:Core/Src/audio.c **** 				sample = 0.8 * osc_FM2OP(f0);
 539              		.loc 1 150 43 view .LVU130
 540 022e 27EE877A 		vmul.f32	s14, s15, s14
 150:Core/Src/audio.c **** 				sample = 0.8 * osc_FM2OP(f0);
 541              		.loc 1 150 55 view .LVU131
 542 0232 67EE877A 		vmul.f32	s15, s15, s14
 150:Core/Src/audio.c **** 				sample = 0.8 * osc_FM2OP(f0);
 543              		.loc 1 150 67 view .LVU132
 544 0236 20EE270A 		vmul.f32	s0, s0, s15
 150:Core/Src/audio.c **** 				sample = 0.8 * osc_FM2OP(f0);
 545              		.loc 1 150 19 view .LVU133
 546 023a 184B     		ldr	r3, .L18+44
 547 023c 83ED030A 		vstr.32	s0, [r3, #12]
 151:Core/Src/audio.c **** 				break;
 548              		.loc 1 151 5 is_stmt 1 view .LVU134
 151:Core/Src/audio.c **** 				break;
 549              		.loc 1 151 20 is_stmt 0 view .LVU135
 550 0240 2A4B     		ldr	r3, .L18+124
 551 0242 93ED000A 		vldr.32	s0, [r3]
 552 0246 FFF7FEFF 		bl	osc_FM2OP
 553              	.LVL57:
 554 024a 10EE100A 		vmov	r0, s0
 151:Core/Src/audio.c **** 				break;
 555              		.loc 1 151 20 discriminator 1 view .LVU136
 556 024e FFF7FEFF 		bl	__aeabi_f2d
 557              	.LVL58:
 151:Core/Src/audio.c **** 				break;
 558              		.loc 1 151 18 discriminator 1 view .LVU137
 559 0252 09A3     		adr	r3, .L18+8
 560 0254 D3E90023 		ldrd	r2, [r3]
 561 0258 FFF7FEFF 		bl	__aeabi_dmul
 562              	.LVL59:
 151:Core/Src/audio.c **** 				break;
 563              		.loc 1 151 12 discriminator 1 view .LVU138
 564 025c FFF7FEFF 		bl	__aeabi_d2f
 565              	.LVL60:
 566 0260 08EE100A 		vmov	s16, r0
 567              	.LVL61:
 152:Core/Src/audio.c **** 		}
 568              		.loc 1 152 5 is_stmt 1 view .LVU139
 569 0264 34E7     		b	.L12
 570              	.LVL62:
 571              	.L17:
 199:Core/Src/audio.c **** 	}
 200:Core/Src/audio.c **** }
 572              		.loc 1 200 1 is_stmt 0 view .LVU140
 573 0266 BDEC048B 		vldm	sp!, {d8-d9}
ARM GAS  /var/folders/lp/x54gwt890xv47sdkqj1k04q40000gn/T//ccbcdcFX.s 			page 15


 574              		.cfi_restore 82
 575              		.cfi_restore 83
 576              		.cfi_restore 80
 577              		.cfi_restore 81
 578              		.cfi_def_cfa_offset 32
 579              	.LVL63:
 580              		.loc 1 200 1 view .LVU141
 581 026a BDE8F883 		pop	{r3, r4, r5, r6, r7, r8, r9, pc}
 582              	.LVL64:
 583              	.L19:
 584              		.loc 1 200 1 view .LVU142
 585 026e 00BF     		.align	3
 586              	.L18:
 587 0270 FCA9F1D2 		.word	-755914244
 588 0274 4D62803F 		.word	1065378381
 589 0278 9A999999 		.word	-1717986918
 590 027c 9999E93F 		.word	1072273817
 591 0280 00000000 		.word	current_count
 592 0284 00000000 		.word	pot2_norm
 593 0288 00002440 		.word	1076101120
 594 028c 00000000 		.word	adsr_index
 595 0290 00000000 		.word	currentPitch
 596 0294 00000000 		.word	mtof
 597 0298 00000000 		.word	f_sub
 598 029c 00000000 		.word	osc1
 599 02a0 00000000 		.word	osc2
 600 02a4 00000000 		.word	osc3
 601 02a8 00000000 		.word	osc4
 602 02ac 00000000 		.word	sub_osc
 603 02b0 00000000 		.word	adsr_filt
 604 02b4 00000000 		.word	filt_env
 605 02b8 00C0DA45 		.word	1171963904
 606 02bc 00000000 		.word	pot1_norm
 607 02c0 0044AC46 		.word	1185694720
 608 02c4 00000000 		.word	Moog_filter
 609 02c8 00000000 		.word	adsr_amp
 610 02cc 00000000 		.word	amp_env
 611 02d0 00000000 		.word	pot3_norm
 612 02d4 00000000 		.word	delay_wet
 613 02d8 CDCC8C3F 		.word	1066192077
 614 02dc 00000000 		.word	0
 615 02e0 00000000 		.word	feedback
 616 02e4 00FEFF46 		.word	1191181824
 617 02e8 00000000 		.word	index_env
 618 02ec 00000000 		.word	f0
 619 02f0 00000000 		.word	delayROut
 620 02f4 00000000 		.word	delayLOut
 621 02f8 00000000 		.word	f1
 622              		.cfi_endproc
 623              	.LFE241:
 625              		.section	.text.BSP_AUDIO_OUT_HalfTransfer_CallBack,"ax",%progbits
 626              		.align	1
 627              		.global	BSP_AUDIO_OUT_HalfTransfer_CallBack
 628              		.syntax unified
 629              		.thumb
 630              		.thumb_func
 632              	BSP_AUDIO_OUT_HalfTransfer_CallBack:
ARM GAS  /var/folders/lp/x54gwt890xv47sdkqj1k04q40000gn/T//ccbcdcFX.s 			page 16


 633              	.LFB242:
 201:Core/Src/audio.c **** 
 202:Core/Src/audio.c **** 
 203:Core/Src/audio.c **** 
 204:Core/Src/audio.c **** void BSP_AUDIO_OUT_HalfTransfer_CallBack(void)
 205:Core/Src/audio.c **** {
 634              		.loc 1 205 1 is_stmt 1 view -0
 635              		.cfi_startproc
 636              		@ args = 0, pretend = 0, frame = 0
 637              		@ frame_needed = 0, uses_anonymous_args = 0
 638 0000 08B5     		push	{r3, lr}
 639              		.cfi_def_cfa_offset 8
 640              		.cfi_offset 3, -8
 641              		.cfi_offset 14, -4
 206:Core/Src/audio.c **** 	audioBlock((int16_t *)audioBuffer, BUFFER_SIZE_DIV_4);
 642              		.loc 1 206 2 view .LVU144
 643 0002 4021     		movs	r1, #64
 644 0004 0148     		ldr	r0, .L22
 645 0006 FFF7FEFF 		bl	audioBlock
 646              	.LVL65:
 207:Core/Src/audio.c **** }
 647              		.loc 1 207 1 is_stmt 0 view .LVU145
 648 000a 08BD     		pop	{r3, pc}
 649              	.L23:
 650              		.align	2
 651              	.L22:
 652 000c 00000000 		.word	audioBuffer
 653              		.cfi_endproc
 654              	.LFE242:
 656              		.section	.text.BSP_AUDIO_OUT_TransferComplete_CallBack,"ax",%progbits
 657              		.align	1
 658              		.global	BSP_AUDIO_OUT_TransferComplete_CallBack
 659              		.syntax unified
 660              		.thumb
 661              		.thumb_func
 663              	BSP_AUDIO_OUT_TransferComplete_CallBack:
 664              	.LFB243:
 208:Core/Src/audio.c **** 
 209:Core/Src/audio.c **** void BSP_AUDIO_OUT_TransferComplete_CallBack(void)
 210:Core/Src/audio.c **** {
 665              		.loc 1 210 1 is_stmt 1 view -0
 666              		.cfi_startproc
 667              		@ args = 0, pretend = 0, frame = 0
 668              		@ frame_needed = 0, uses_anonymous_args = 0
 669 0000 08B5     		push	{r3, lr}
 670              		.cfi_def_cfa_offset 8
 671              		.cfi_offset 3, -8
 672              		.cfi_offset 14, -4
 211:Core/Src/audio.c **** 	audioBlock((int16_t *)(audioBuffer + BUFFER_SIZE_DIV_2), BUFFER_SIZE_DIV_4);
 673              		.loc 1 211 2 view .LVU147
 674 0002 4021     		movs	r1, #64
 675 0004 0148     		ldr	r0, .L26
 676 0006 FFF7FEFF 		bl	audioBlock
 677              	.LVL66:
 212:Core/Src/audio.c **** }
 678              		.loc 1 212 1 is_stmt 0 view .LVU148
 679 000a 08BD     		pop	{r3, pc}
ARM GAS  /var/folders/lp/x54gwt890xv47sdkqj1k04q40000gn/T//ccbcdcFX.s 			page 17


 680              	.L27:
 681              		.align	2
 682              	.L26:
 683 000c 00010000 		.word	audioBuffer+256
 684              		.cfi_endproc
 685              	.LFE243:
 687              		.section	.text.BSP_AUDIO_OUT_Error_CallBack,"ax",%progbits
 688              		.align	1
 689              		.global	BSP_AUDIO_OUT_Error_CallBack
 690              		.syntax unified
 691              		.thumb
 692              		.thumb_func
 694              	BSP_AUDIO_OUT_Error_CallBack:
 695              	.LFB244:
 213:Core/Src/audio.c **** 
 214:Core/Src/audio.c **** void BSP_AUDIO_OUT_Error_CallBack(void)
 215:Core/Src/audio.c **** {
 696              		.loc 1 215 1 is_stmt 1 view -0
 697              		.cfi_startproc
 698              		@ Volatile: function does not return.
 699              		@ args = 0, pretend = 0, frame = 0
 700              		@ frame_needed = 0, uses_anonymous_args = 0
 701              		@ link register save eliminated.
 702              	.L29:
 216:Core/Src/audio.c **** 	/* Stop the program with an infinite loop */
 217:Core/Src/audio.c **** 	while (1)
 703              		.loc 1 217 2 view .LVU150
 218:Core/Src/audio.c **** 	{
 219:Core/Src/audio.c **** 	}
 704              		.loc 1 219 2 view .LVU151
 217:Core/Src/audio.c **** 	{
 705              		.loc 1 217 8 view .LVU152
 706 0000 FEE7     		b	.L29
 707              		.cfi_endproc
 708              	.LFE244:
 710              		.section	.text.DMA1_Stream7_IRQHandler,"ax",%progbits
 711              		.align	1
 712              		.global	DMA1_Stream7_IRQHandler
 713              		.syntax unified
 714              		.thumb
 715              		.thumb_func
 717              	DMA1_Stream7_IRQHandler:
 718              	.LFB245:
 220:Core/Src/audio.c **** }
 221:Core/Src/audio.c **** 
 222:Core/Src/audio.c **** 
 223:Core/Src/audio.c **** void I2S3_IRQHandler(void)
 224:Core/Src/audio.c **** {
 719              		.loc 1 224 1 view -0
 720              		.cfi_startproc
 721              		@ args = 0, pretend = 0, frame = 0
 722              		@ frame_needed = 0, uses_anonymous_args = 0
 723 0000 08B5     		push	{r3, lr}
 724              		.cfi_def_cfa_offset 8
 725              		.cfi_offset 3, -8
 726              		.cfi_offset 14, -4
 225:Core/Src/audio.c **** 	HAL_DMA_IRQHandler(hAudioOutI2s.hdmatx);
ARM GAS  /var/folders/lp/x54gwt890xv47sdkqj1k04q40000gn/T//ccbcdcFX.s 			page 18


 727              		.loc 1 225 2 view .LVU154
 728 0002 024B     		ldr	r3, .L32
 729 0004 986B     		ldr	r0, [r3, #56]
 730 0006 FFF7FEFF 		bl	HAL_DMA_IRQHandler
 731              	.LVL67:
 226:Core/Src/audio.c **** }
 732              		.loc 1 226 1 is_stmt 0 view .LVU155
 733 000a 08BD     		pop	{r3, pc}
 734              	.L33:
 735              		.align	2
 736              	.L32:
 737 000c 00000000 		.word	hAudioOutI2s
 738              		.cfi_endproc
 739              	.LFE245:
 741              		.section	.text.DMA1_Stream3_IRQHandler,"ax",%progbits
 742              		.align	1
 743              		.global	DMA1_Stream3_IRQHandler
 744              		.syntax unified
 745              		.thumb
 746              		.thumb_func
 748              	DMA1_Stream3_IRQHandler:
 749              	.LFB246:
 227:Core/Src/audio.c **** void I2S2_IRQHandler(void)
 228:Core/Src/audio.c **** {
 750              		.loc 1 228 1 is_stmt 1 view -0
 751              		.cfi_startproc
 752              		@ args = 0, pretend = 0, frame = 0
 753              		@ frame_needed = 0, uses_anonymous_args = 0
 754 0000 08B5     		push	{r3, lr}
 755              		.cfi_def_cfa_offset 8
 756              		.cfi_offset 3, -8
 757              		.cfi_offset 14, -4
 229:Core/Src/audio.c **** 	HAL_DMA_IRQHandler(hAudioInI2s.hdmarx);
 758              		.loc 1 229 2 view .LVU157
 759 0002 024B     		ldr	r3, .L36
 760 0004 D86B     		ldr	r0, [r3, #60]
 761 0006 FFF7FEFF 		bl	HAL_DMA_IRQHandler
 762              	.LVL68:
 230:Core/Src/audio.c **** }...
 763              		.loc 1 230 1 is_stmt 0 view .LVU158
 764 000a 08BD     		pop	{r3, pc}
 765              	.L37:
 766              		.align	2
 767              	.L36:
 768 000c 00000000 		.word	hAudioInI2s
 769              		.cfi_endproc
 770              	.LFE246:
 772              		.global	delayROut
 773              		.section	.bss.delayROut,"aw",%nobits
 774              		.align	2
 777              	delayROut:
 778 0000 00000000 		.space	4
 779              		.global	delayLOut
 780              		.section	.bss.delayLOut,"aw",%nobits
 781              		.align	2
 784              	delayLOut:
 785 0000 00000000 		.space	4
ARM GAS  /var/folders/lp/x54gwt890xv47sdkqj1k04q40000gn/T//ccbcdcFX.s 			page 19


 786              		.section	.bss.index_env,"aw",%nobits
 787              		.align	2
 790              	index_env:
 791 0000 00000000 		.space	4
 792              		.section	.bss.filt_env,"aw",%nobits
 793              		.align	2
 796              	filt_env:
 797 0000 00000000 		.space	4
 798              		.section	.bss.amp_env,"aw",%nobits
 799              		.align	2
 802              	amp_env:
 803 0000 00000000 		.space	4
 804              		.section	.bss.f_sub,"aw",%nobits
 805              		.align	2
 808              	f_sub:
 809 0000 00000000 		.space	4
 810              		.section	.bss.f1,"aw",%nobits
 811              		.align	2
 814              	f1:
 815 0000 00000000 		.space	4
 816              		.section	.bss.f0,"aw",%nobits
 817              		.align	2
 820              	f0:
 821 0000 00000000 		.space	4
 822              		.global	audioBuffer
 823              		.section	.bss.audioBuffer,"aw",%nobits
 824              		.align	2
 827              	audioBuffer:
 828 0000 00000000 		.space	512
 828      00000000 
 828      00000000 
 828      00000000 
 828      00000000 
 829              		.global	pbend
 830              		.section	.rodata.pbend,"a"
 831              		.align	2
 834              	pbend:
 835 0000 0000003F 		.word	1056964608
 836 0004 5E2C003F 		.word	1056975966
 837 0008 DE58003F 		.word	1056987358
 838 000c 5E85003F 		.word	1056998750
 839 0010 EEB1003F 		.word	1057010158
 840 0014 8FDE003F 		.word	1057021583
 841 0018 410B013F 		.word	1057033025
 842 001c 0438013F 		.word	1057044484
 843 0020 D864013F 		.word	1057055960
 844 0024 AC91013F 		.word	1057067436
 845 0028 A1BE013F 		.word	1057078945
 846 002c A7EB013F 		.word	1057090471
 847 0030 AD18023F 		.word	1057101997
 848 0034 D445023F 		.word	1057113556
 849 0038 FC72023F 		.word	1057125116
 850 003c 34A0023F 		.word	1057136692
 851 0040 8ECD023F 		.word	1057148302
 852 0044 E8FA023F 		.word	1057159912
 853 0048 5228033F 		.word	1057171538
 854 004c CE55033F 		.word	1057183182
ARM GAS  /var/folders/lp/x54gwt890xv47sdkqj1k04q40000gn/T//ccbcdcFX.s 			page 20


 855 0050 5A83033F 		.word	1057194842
 856 0054 F7B0033F 		.word	1057206519
 857 0058 A4DE033F 		.word	1057218212
 858 005c 630C043F 		.word	1057229923
 859 0060 213A043F 		.word	1057241633
 860 0064 0168043F 		.word	1057253377
 861 0068 F295043F 		.word	1057265138
 862 006c E3C3043F 		.word	1057276899
 863 0070 F5F1043F 		.word	1057288693
 864 0074 1920053F 		.word	1057300505
 865 0078 3C4E053F 		.word	1057312316
 866 007c 707C053F 		.word	1057324144
 867 0080 C5AA053F 		.word	1057336005
 868 0084 1BD9053F 		.word	1057347867
 869 0088 9207063F 		.word	1057359762
 870 008c 0936063F 		.word	1057371657
 871 0090 9164063F 		.word	1057383569
 872 0094 2993063F 		.word	1057395497
 873 0098 D3C1063F 		.word	1057407443
 874 009c 9EF0063F 		.word	1057419422
 875 00a0 681F073F 		.word	1057431400
 876 00a4 444E073F 		.word	1057443396
 877 00a8 317D073F 		.word	1057455409
 878 00ac 2EAC073F 		.word	1057467438
 879 00b0 3CDB073F 		.word	1057479484
 880 00b4 5B0A083F 		.word	1057491547
 881 00b8 7A39083F 		.word	1057503610
 882 00bc BA68083F 		.word	1057515706
 883 00c0 0B98083F 		.word	1057527819
 884 00c4 6DC7083F 		.word	1057539949
 885 00c8 E0F6083F 		.word	1057552096
 886 00cc 6326093F 		.word	1057564259
 887 00d0 E755093F 		.word	1057576423
 888 00d4 8C85093F 		.word	1057588620
 889 00d8 42B5093F 		.word	1057600834
 890 00dc 08E5093F 		.word	1057613064
 891 00e0 CF140A3F 		.word	1057625295
 892 00e4 B7440A3F 		.word	1057637559
 893 00e8 B0740A3F 		.word	1057649840
 894 00ec A9A40A3F 		.word	1057662121
 895 00f0 C3D40A3F 		.word	1057674435
 896 00f4 EE040B3F 		.word	1057686766
 897 00f8 2B350B3F 		.word	1057699115
 898 00fc 67650B3F 		.word	1057711463
 899 0100 C4950B3F 		.word	1057723844
 900 0104 32C60B3F 		.word	1057736242
 901 0108 A1F60B3F 		.word	1057748641
 902 010c 31270C3F 		.word	1057761073
 903 0110 D1570C3F 		.word	1057773521
 904 0114 72880C3F 		.word	1057785970
 905 0118 34B90C3F 		.word	1057798452
 906 011c 07EA0C3F 		.word	1057810951
 907 0120 DA1A0D3F 		.word	1057823450
 908 0124 CF4B0D3F 		.word	1057835983
 909 0128 D47C0D3F 		.word	1057848532
 910 012c DAAD0D3F 		.word	1057861082
 911 0130 01DF0D3F 		.word	1057873665
ARM GAS  /var/folders/lp/x54gwt890xv47sdkqj1k04q40000gn/T//ccbcdcFX.s 			page 21


 912 0134 38100E3F 		.word	1057886264
 913 0138 81410E3F 		.word	1057898881
 914 013c DA720E3F 		.word	1057911514
 915 0140 33A40E3F 		.word	1057924147
 916 0144 AED50E3F 		.word	1057936814
 917 0148 3A070F3F 		.word	1057949498
 918 014c D6380F3F 		.word	1057962198
 919 0150 836A0F3F 		.word	1057974915
 920 0154 419C0F3F 		.word	1057987649
 921 0158 10CE0F3F 		.word	1058000400
 922 015c EFFF0F3F 		.word	1058013167
 923 0160 DF31103F 		.word	1058025951
 924 0164 E063103F 		.word	1058038752
 925 0168 F295103F 		.word	1058051570
 926 016c 15C8103F 		.word	1058064405
 927 0170 48FA103F 		.word	1058077256
 928 0174 8C2C113F 		.word	1058090124
 929 0178 F25E113F 		.word	1058103026
 930 017c 5891113F 		.word	1058115928
 931 0180 CEC3113F 		.word	1058128846
 932 0184 66F6113F 		.word	1058141798
 933 0188 FE28123F 		.word	1058154750
 934 018c B85B123F 		.word	1058167736
 935 0190 718E123F 		.word	1058180721
 936 0194 4CC1123F 		.word	1058193740
 937 0198 28F4123F 		.word	1058206760
 938 019c 2427133F 		.word	1058219812
 939 01a0 325A133F 		.word	1058232882
 940 01a4 3F8D133F 		.word	1058245951
 941 01a8 6EC0133F 		.word	1058259054
 942 01ac AEF3133F 		.word	1058272174
 943 01b0 FE26143F 		.word	1058285310
 944 01b4 605A143F 		.word	1058298464
 945 01b8 D28D143F 		.word	1058311634
 946 01bc 55C1143F 		.word	1058324821
 947 01c0 E8F4143F 		.word	1058338024
 948 01c4 9E28153F 		.word	1058351262
 949 01c8 535C153F 		.word	1058364499
 950 01cc 1990153F 		.word	1058377753
 951 01d0 00C4153F 		.word	1058391040
 952 01d4 E8F7153F 		.word	1058404328
 953 01d8 F12B163F 		.word	1058417649
 954 01dc 0B60163F 		.word	1058430987
 955 01e0 2594163F 		.word	1058444325
 956 01e4 60C8163F 		.word	1058457696
 957 01e8 ADFC163F 		.word	1058471085
 958 01ec 0A31173F 		.word	1058484490
 959 01f0 7765173F 		.word	1058497911
 960 01f4 079A173F 		.word	1058511367
 961 01f8 96CE173F 		.word	1058524822
 962 01fc 3603183F 		.word	1058538294
 963 0200 F837183F 		.word	1058551800
 964 0204 B96C183F 		.word	1058565305
 965 0208 9DA1183F 		.word	1058578845
 966 020c 80D6183F 		.word	1058592384
 967 0210 850B193F 		.word	1058605957
 968 0214 9A40193F 		.word	1058619546
ARM GAS  /var/folders/lp/x54gwt890xv47sdkqj1k04q40000gn/T//ccbcdcFX.s 			page 22


 969 0218 C075193F 		.word	1058633152
 970 021c F8AA193F 		.word	1058646776
 971 0220 3FE0193F 		.word	1058660415
 972 0224 A9151A3F 		.word	1058674089
 973 0228 124B1A3F 		.word	1058687762
 974 022c 9D801A3F 		.word	1058701469
 975 0230 28B61A3F 		.word	1058715176
 976 0234 D5EB1A3F 		.word	1058728917
 977 0238 92211B3F 		.word	1058742674
 978 023c 60571B3F 		.word	1058756448
 979 0240 3F8D1B3F 		.word	1058770239
 980 0244 2FC31B3F 		.word	1058784047
 981 0248 2FF91B3F 		.word	1058797871
 982 024c 512F1C3F 		.word	1058811729
 983 0250 73651C3F 		.word	1058825587
 984 0254 B79B1C3F 		.word	1058839479
 985 0258 FAD11C3F 		.word	1058853370
 986 025c 5F081D3F 		.word	1058867295
 987 0260 D53E1D3F 		.word	1058881237
 988 0264 5C751D3F 		.word	1058895196
 989 0268 04AC1D3F 		.word	1058909188
 990 026c ACE21D3F 		.word	1058923180
 991 0270 76191E3F 		.word	1058937206
 992 0274 40501E3F 		.word	1058951232
 993 0278 2B871E3F 		.word	1058965291
 994 027c 27BE1E3F 		.word	1058979367
 995 0280 34F51E3F 		.word	1058993460
 996 0284 522C1F3F 		.word	1059007570
 997 0288 80631F3F 		.word	1059021696
 998 028c D09A1F3F 		.word	1059035856
 999 0290 20D21F3F 		.word	1059050016
 1000 0294 9109203F 		.word	1059064209
 1001 0298 1441203F 		.word	1059078420
 1002 029c A778203F 		.word	1059092647
 1003 02a0 4BB0203F 		.word	1059106891
 1004 02a4 10E8203F 		.word	1059121168
 1005 02a8 D61F213F 		.word	1059135446
 1006 02ac BC57213F 		.word	1059149756
 1007 02b0 B48F213F 		.word	1059164084
 1008 02b4 BDC7213F 		.word	1059178429
 1009 02b8 D6FF213F 		.word	1059192790
 1010 02bc 0038223F 		.word	1059207168
 1011 02c0 3B70223F 		.word	1059221563
 1012 02c4 97A8223F 		.word	1059235991
 1013 02c8 05E1223F 		.word	1059250437
 1014 02cc 8319233F 		.word	1059264899
 1015 02d0 1152233F 		.word	1059279377
 1016 02d4 B18A233F 		.word	1059293873
 1017 02d8 72C3233F 		.word	1059308402
 1018 02dc 33FC233F 		.word	1059322931
 1019 02e0 1635243F 		.word	1059337494
 1020 02e4 096E243F 		.word	1059352073
 1021 02e8 0DA7243F 		.word	1059366669
 1022 02ec 22E0243F 		.word	1059381282
 1023 02f0 5919253F 		.word	1059395929
 1024 02f4 A052253F 		.word	1059410592
 1025 02f8 E78B253F 		.word	1059425255
ARM GAS  /var/folders/lp/x54gwt890xv47sdkqj1k04q40000gn/T//ccbcdcFX.s 			page 23


 1026 02fc 61C5253F 		.word	1059439969
 1027 0300 DAFE253F 		.word	1059454682
 1028 0304 6538263F 		.word	1059469413
 1029 0308 1172263F 		.word	1059484177
 1030 030c CDAB263F 		.word	1059498957
 1031 0310 9BE5263F 		.word	1059513755
 1032 0314 791F273F 		.word	1059528569
 1033 0318 6859273F 		.word	1059543400
 1034 031c 7993273F 		.word	1059558265
 1035 0320 9ACD273F 		.word	1059573146
 1036 0324 CC07283F 		.word	1059588044
 1037 0328 0F42283F 		.word	1059602959
 1038 032c 637C283F 		.word	1059617891
 1039 0330 D8B6283F 		.word	1059632856
 1040 0334 5EF1283F 		.word	1059647838
 1041 0338 F52B293F 		.word	1059662837
 1042 033c 9D66293F 		.word	1059677853
 1043 0340 55A1293F 		.word	1059692885
 1044 0344 2FDC293F 		.word	1059707951
 1045 0348 1A172A3F 		.word	1059723034
 1046 034c 15522A3F 		.word	1059738133
 1047 0350 228D2A3F 		.word	1059753250
 1048 0354 50C82A3F 		.word	1059768400
 1049 0358 8E032B3F 		.word	1059783566
 1050 035c DE3E2B3F 		.word	1059798750
 1051 0360 3E7A2B3F 		.word	1059813950
 1052 0364 AFB52B3F 		.word	1059829167
 1053 0368 41F12B3F 		.word	1059844417
 1054 036c E42C2C3F 		.word	1059859684
 1055 0370 98682C3F 		.word	1059874968
 1056 0374 5DA42C3F 		.word	1059890269
 1057 0378 44E02C3F 		.word	1059905604
 1058 037c 3B1C2D3F 		.word	1059920955
 1059 0380 43582D3F 		.word	1059936323
 1060 0384 5B942D3F 		.word	1059951707
 1061 0388 96D02D3F 		.word	1059967126
 1062 038c D00C2E3F 		.word	1059982544
 1063 0390 3D492E3F 		.word	1059998013
 1064 0394 A9852E3F 		.word	1060013481
 1065 0398 27C22E3F 		.word	1060028967
 1066 039c C5FE2E3F 		.word	1060044485
 1067 03a0 753B2F3F 		.word	1060060021
 1068 03a4 46782F3F 		.word	1060075590
 1069 03a8 18B52F3F 		.word	1060091160
 1070 03ac 0AF22F3F 		.word	1060106762
 1071 03b0 0E2F303F 		.word	1060122382
 1072 03b4 226C303F 		.word	1060138018
 1073 03b8 58A9303F 		.word	1060153688
 1074 03bc 9FE6303F 		.word	1060169375
 1075 03c0 F623313F 		.word	1060185078
 1076 03c4 5F61313F 		.word	1060200799
 1077 03c8 E99E313F 		.word	1060216553
 1078 03cc 83DC313F 		.word	1060232323
 1079 03d0 2E1A323F 		.word	1060248110
 1080 03d4 FB57323F 		.word	1060263931
 1081 03d8 C895323F 		.word	1060279752
 1082 03dc C8D3323F 		.word	1060295624
ARM GAS  /var/folders/lp/x54gwt890xv47sdkqj1k04q40000gn/T//ccbcdcFX.s 			page 24


 1083 03e0 C711333F 		.word	1060311495
 1084 03e4 D74F333F 		.word	1060327383
 1085 03e8 088E333F 		.word	1060343304
 1086 03ec 5CCC333F 		.word	1060359260
 1087 03f0 AF0A343F 		.word	1060375215
 1088 03f4 2349343F 		.word	1060391203
 1089 03f8 A987343F 		.word	1060407209
 1090 03fc 3FC6343F 		.word	1060423231
 1091 0400 F704353F 		.word	1060439287
 1092 0404 BF43353F 		.word	1060455359
 1093 0408 9982353F 		.word	1060471449
 1094 040c 83C1353F 		.word	1060487555
 1095 0410 8F00363F 		.word	1060503695
 1096 0414 AB3F363F 		.word	1060519851
 1097 0418 E97E363F 		.word	1060536041
 1098 041c 38BE363F 		.word	1060552248
 1099 0420 97FD363F 		.word	1060568471
 1100 0424 083D373F 		.word	1060584712
 1101 0428 9A7C373F 		.word	1060600986
 1102 042c 3CBC373F 		.word	1060617276
 1103 0430 F0FB373F 		.word	1060633584
 1104 0434 C53B383F 		.word	1060649925
 1105 0438 AB7B383F 		.word	1060666283
 1106 043c A1BB383F 		.word	1060682657
 1107 0440 A9FB383F 		.word	1060699049
 1108 0444 D13B393F 		.word	1060715473
 1109 0448 1C7C393F 		.word	1060731932
 1110 044c 66BC393F 		.word	1060748390
 1111 0450 D2FC393F 		.word	1060764882
 1112 0454 4F3D3A3F 		.word	1060781391
 1113 0458 ED7D3A3F 		.word	1060797933
 1114 045c 9DBE3A3F 		.word	1060814493
 1115 0460 5CFF3A3F 		.word	1060831068
 1116 0464 2D403B3F 		.word	1060847661
 1117 0468 1F813B3F 		.word	1060864287
 1118 046c 33C23B3F 		.word	1060880947
 1119 0470 47033C3F 		.word	1060897607
 1120 0474 7C443C3F 		.word	1060914300
 1121 0478 C2853C3F 		.word	1060931010
 1122 047c 2AC73C3F 		.word	1060947754
 1123 0480 A2083D3F 		.word	1060964514
 1124 0484 2C4A3D3F 		.word	1060981292
 1125 0488 D68B3D3F 		.word	1060998102
 1126 048c 92CD3D3F 		.word	1061014930
 1127 0490 6F0F3E3F 		.word	1061031791
 1128 0494 4C513E3F 		.word	1061048652
 1129 0498 4B933E3F 		.word	1061065547
 1130 049c 6BD53E3F 		.word	1061082475
 1131 04a0 9C173F3F 		.word	1061099420
 1132 04a4 DE593F3F 		.word	1061116382
 1133 04a8 419C3F3F 		.word	1061133377
 1134 04ac B5DE3F3F 		.word	1061150389
 1135 04b0 3A21403F 		.word	1061167418
 1136 04b4 E063403F 		.word	1061184480
 1137 04b8 98A6403F 		.word	1061201560
 1138 04bc 60E9403F 		.word	1061218656
 1139 04c0 492C413F 		.word	1061235785
ARM GAS  /var/folders/lp/x54gwt890xv47sdkqj1k04q40000gn/T//ccbcdcFX.s 			page 25


 1140 04c4 446F413F 		.word	1061252932
 1141 04c8 5FB2413F 		.word	1061270111
 1142 04cc 8CF5413F 		.word	1061287308
 1143 04d0 DA38423F 		.word	1061304538
 1144 04d4 287C423F 		.word	1061321768
 1145 04d8 A9BF423F 		.word	1061339049
 1146 04dc 2A03433F 		.word	1061356330
 1147 04e0 CC46433F 		.word	1061373644
 1148 04e4 7E8A433F 		.word	1061390974
 1149 04e8 53CE433F 		.word	1061408339
 1150 04ec 3812443F 		.word	1061425720
 1151 04f0 3F56443F 		.word	1061443135
 1152 04f4 569A443F 		.word	1061460566
 1153 04f8 7FDE443F 		.word	1061478015
 1154 04fc C922453F 		.word	1061495497
 1155 0500 2367453F 		.word	1061512995
 1156 0504 9FAB453F 		.word	1061530527
 1157 0508 2CF0453F 		.word	1061548076
 1158 050c DB34463F 		.word	1061565659
 1159 0510 8979463F 		.word	1061583241
 1160 0514 6ABE463F 		.word	1061600874
 1161 0518 4B03473F 		.word	1061618507
 1162 051c 5E48473F 		.word	1061636190
 1163 0520 718D473F 		.word	1061653873
 1164 0524 A6D2473F 		.word	1061671590
 1165 0528 FC17483F 		.word	1061689340
 1166 052c 645D483F 		.word	1061707108
 1167 0530 DBA2483F 		.word	1061724891
 1168 0534 75E8483F 		.word	1061742709
 1169 0538 1F2E493F 		.word	1061760543
 1170 053c DA73493F 		.word	1061778394
 1171 0540 B6B9493F 		.word	1061796278
 1172 0544 B5FF493F 		.word	1061814197
 1173 0548 C3454A3F 		.word	1061832131
 1174 054c E38B4A3F 		.word	1061850083
 1175 0550 24D24A3F 		.word	1061868068
 1176 0554 76184B3F 		.word	1061886070
 1177 0558 EA5E4B3F 		.word	1061904106
 1178 055c 6EA54B3F 		.word	1061922158
 1179 0560 14EC4B3F 		.word	1061940244
 1180 0564 CA324C3F 		.word	1061958346
 1181 0568 A3794C3F 		.word	1061976483
 1182 056c 8BC04C3F 		.word	1061994635
 1183 0570 85074D3F 		.word	1062012805
 1184 0574 A04E4D3F 		.word	1062031008
 1185 0578 DD954D3F 		.word	1062049245
 1186 057c 2BDD4D3F 		.word	1062067499
 1187 0580 89244E3F 		.word	1062085769
 1188 0584 096C4E3F 		.word	1062104073
 1189 0588 9AB34E3F 		.word	1062122394
 1190 058c 4CFB4E3F 		.word	1062140748
 1191 0590 20434F3F 		.word	1062159136
 1192 0594 F48A4F3F 		.word	1062177524
 1193 0598 FAD24F3F 		.word	1062195962
 1194 059c 001B503F 		.word	1062214400
 1195 05a0 3963503F 		.word	1062232889
 1196 05a4 71AB503F 		.word	1062251377
ARM GAS  /var/folders/lp/x54gwt890xv47sdkqj1k04q40000gn/T//ccbcdcFX.s 			page 26


 1197 05a8 DCF3503F 		.word	1062269916
 1198 05ac 473C513F 		.word	1062288455
 1199 05b0 E484513F 		.word	1062307044
 1200 05b4 81CD513F 		.word	1062325633
 1201 05b8 5116523F 		.word	1062344273
 1202 05bc 205F523F 		.word	1062362912
 1203 05c0 22A8523F 		.word	1062381602
 1204 05c4 35F1523F 		.word	1062400309
 1205 05c8 583A533F 		.word	1062419032
 1206 05cc 9D83533F 		.word	1062437789
 1207 05d0 F3CC533F 		.word	1062456563
 1208 05d4 6A16543F 		.word	1062475370
 1209 05d8 F25F543F 		.word	1062494194
 1210 05dc 9BA9543F 		.word	1062513051
 1211 05e0 56F3543F 		.word	1062531926
 1212 05e4 323D553F 		.word	1062550834
 1213 05e8 2F87553F 		.word	1062569775
 1214 05ec 3DD1553F 		.word	1062588733
 1215 05f0 5C1B563F 		.word	1062607708
 1216 05f4 9D65563F 		.word	1062626717
 1217 05f8 FFAF563F 		.word	1062645759
 1218 05fc 72FA563F 		.word	1062664818
 1219 0600 F644573F 		.word	1062683894
 1220 0604 AC8F573F 		.word	1062703020
 1221 0608 62DA573F 		.word	1062722146
 1222 060c 4A25583F 		.word	1062741322
 1223 0610 3370583F 		.word	1062760499
 1224 0614 4DBB583F 		.word	1062779725
 1225 0618 7906593F 		.word	1062798969
 1226 061c B551593F 		.word	1062818229
 1227 0620 139D593F 		.word	1062837523
 1228 0624 92E8593F 		.word	1062856850
 1229 0628 22345A3F 		.word	1062876194
 1230 062c D47F5A3F 		.word	1062895572
 1231 0630 96CB5A3F 		.word	1062914966
 1232 0634 7A175B3F 		.word	1062934394
 1233 0638 6F635B3F 		.word	1062953839
 1234 063c 86AF5B3F 		.word	1062973318
 1235 0640 BDFB5B3F 		.word	1062992829
 1236 0644 06485C3F 		.word	1063012358
 1237 0648 60945C3F 		.word	1063031904
 1238 064c EBE05C3F 		.word	1063051499
 1239 0650 882D5D3F 		.word	1063071112
 1240 0654 357A5D3F 		.word	1063090741
 1241 0658 04C75D3F 		.word	1063110404
 1242 065c F5135E3F 		.word	1063130101
 1243 0660 F6605E3F 		.word	1063149814
 1244 0664 19AE5E3F 		.word	1063169561
 1245 0668 4CFB5E3F 		.word	1063189324
 1246 066c A1485F3F 		.word	1063209121
 1247 0670 18965F3F 		.word	1063228952
 1248 0674 9FE35F3F 		.word	1063248799
 1249 0678 4831603F 		.word	1063268680
 1250 067c 027F603F 		.word	1063288578
 1251 0680 DECC603F 		.word	1063308510
 1252 0684 DA1A613F 		.word	1063328474
 1253 0688 E868613F 		.word	1063348456
ARM GAS  /var/folders/lp/x54gwt890xv47sdkqj1k04q40000gn/T//ccbcdcFX.s 			page 27


 1254 068c 17B7613F 		.word	1063368471
 1255 0690 5705623F 		.word	1063388503
 1256 0694 B953623F 		.word	1063408569
 1257 0698 3CA2623F 		.word	1063428668
 1258 069c D0F0623F 		.word	1063448784
 1259 06a0 853F633F 		.word	1063468933
 1260 06a4 5C8E633F 		.word	1063489116
 1261 06a8 44DD633F 		.word	1063509316
 1262 06ac 4D2C643F 		.word	1063529549
 1263 06b0 677B643F 		.word	1063549799
 1264 06b4 A3CA643F 		.word	1063570083
 1265 06b8 001A653F 		.word	1063590400
 1266 06bc 7F69653F 		.word	1063610751
 1267 06c0 0FB9653F 		.word	1063631119
 1268 06c4 AF08663F 		.word	1063651503
 1269 06c8 8258663F 		.word	1063671938
 1270 06cc 54A8663F 		.word	1063692372
 1271 06d0 59F8663F 		.word	1063712857
 1272 06d4 6F48673F 		.word	1063733359
 1273 06d8 A698673F 		.word	1063753894
 1274 06dc FFE8673F 		.word	1063774463
 1275 06e0 6939683F 		.word	1063795049
 1276 06e4 F489683F 		.word	1063815668
 1277 06e8 A1DA683F 		.word	1063836321
 1278 06ec 5E2B693F 		.word	1063856990
 1279 06f0 3D7C693F 		.word	1063877693
 1280 06f4 2DCD693F 		.word	1063898413
 1281 06f8 4F1E6A3F 		.word	1063919183
 1282 06fc 726F6A3F 		.word	1063939954
 1283 0700 C6C06A3F 		.word	1063960774
 1284 0704 2B126B3F 		.word	1063981611
 1285 0708 B2636B3F 		.word	1064002482
 1286 070c 5BB56B3F 		.word	1064023387
 1287 0710 14076C3F 		.word	1064044308
 1288 0714 EF586C3F 		.word	1064065263
 1289 0718 EBAA6C3F 		.word	1064086251
 1290 071c F8FC6C3F 		.word	1064107256
 1291 0720 374F6D3F 		.word	1064128311
 1292 0724 77A16D3F 		.word	1064149367
 1293 0728 E9F36D3F 		.word	1064170473
 1294 072c 6B466E3F 		.word	1064191595
 1295 0730 0F996E3F 		.word	1064212751
 1296 0734 D5EB6E3F 		.word	1064233941
 1297 0738 AB3E6F3F 		.word	1064255147
 1298 073c A3916F3F 		.word	1064276387
 1299 0740 BDE46F3F 		.word	1064297661
 1300 0744 E737703F 		.word	1064318951
 1301 0748 448B703F 		.word	1064340292
 1302 074c A0DE703F 		.word	1064361632
 1303 0750 2F32713F 		.word	1064383023
 1304 0754 CF85713F 		.word	1064404431
 1305 0758 A1D9713F 		.word	1064425889
 1306 075c 732D723F 		.word	1064447347
 1307 0760 7781723F 		.word	1064468855
 1308 0764 8DD5723F 		.word	1064490381
 1309 0768 C329733F 		.word	1064511939
 1310 076c 1C7E733F 		.word	1064533532
ARM GAS  /var/folders/lp/x54gwt890xv47sdkqj1k04q40000gn/T//ccbcdcFX.s 			page 28


 1311 0770 95D2733F 		.word	1064555157
 1312 0774 2027743F 		.word	1064576800
 1313 0778 CC7B743F 		.word	1064598476
 1314 077c 9AD0743F 		.word	1064620186
 1315 0780 7825753F 		.word	1064641912
 1316 0784 897A753F 		.word	1064663689
 1317 0788 ABCF753F 		.word	1064685483
 1318 078c DD24763F 		.word	1064707293
 1319 0790 427A763F 		.word	1064729154
 1320 0794 B7CF763F 		.word	1064751031
 1321 0798 4E25773F 		.word	1064772942
 1322 079c 077B773F 		.word	1064794887
 1323 07a0 E1D0773F 		.word	1064816865
 1324 07a4 CC26783F 		.word	1064838860
 1325 07a8 D97C783F 		.word	1064860889
 1326 07ac 07D3783F 		.word	1064882951
 1327 07b0 5629793F 		.word	1064905046
 1328 07b4 C77F793F 		.word	1064927175
 1329 07b8 49D6793F 		.word	1064949321
 1330 07bc ED2C7A3F 		.word	1064971501
 1331 07c0 B2837A3F 		.word	1064993714
 1332 07c4 98DA7A3F 		.word	1065015960
 1333 07c8 90317B3F 		.word	1065038224
 1334 07cc B9887B3F 		.word	1065060537
 1335 07d0 F4DF7B3F 		.word	1065082868
 1336 07d4 50377C3F 		.word	1065105232
 1337 07d8 BD8E7C3F 		.word	1065127613
 1338 07dc 5CE67C3F 		.word	1065150044
 1339 07e0 0C3E7D3F 		.word	1065172492
 1340 07e4 DD957D3F 		.word	1065194973
 1341 07e8 D0ED7D3F 		.word	1065217488
 1342 07ec E5457E3F 		.word	1065240037
 1343 07f0 0A9E7E3F 		.word	1065262602
 1344 07f4 62F67E3F 		.word	1065285218
 1345 07f8 CA4E7F3F 		.word	1065307850
 1346 07fc 54A77F3F 		.word	1065330516
 1347 0800 0000803F 		.word	1065353216
 1348 0804 772C803F 		.word	1065364599
 1349 0808 0859803F 		.word	1065376008
 1350 080c A185803F 		.word	1065387425
 1351 0810 4AB2803F 		.word	1065398858
 1352 0814 FCDE803F 		.word	1065410300
 1353 0818 C80B813F 		.word	1065421768
 1354 081c 9B38813F 		.word	1065433243
 1355 0820 8865813F 		.word	1065444744
 1356 0824 7D92813F 		.word	1065456253
 1357 0828 83BF813F 		.word	1065467779
 1358 082c 9AEC813F 		.word	1065479322
 1359 0830 C119823F 		.word	1065490881
 1360 0834 F146823F 		.word	1065502449
 1361 0838 3A74823F 		.word	1065514042
 1362 083c 8CA1823F 		.word	1065525644
 1363 0840 EECE823F 		.word	1065537262
 1364 0844 69FC823F 		.word	1065548905
 1365 0848 ED29833F 		.word	1065560557
 1366 084c 8257833F 		.word	1065572226
 1367 0850 1F85833F 		.word	1065583903
ARM GAS  /var/folders/lp/x54gwt890xv47sdkqj1k04q40000gn/T//ccbcdcFX.s 			page 29


 1368 0854 D5B2833F 		.word	1065595605
 1369 0858 9CE0833F 		.word	1065607324
 1370 085c 6B0E843F 		.word	1065619051
 1371 0860 533C843F 		.word	1065630803
 1372 0864 446A843F 		.word	1065642564
 1373 0868 4698843F 		.word	1065654342
 1374 086c 58C6843F 		.word	1065666136
 1375 0870 7BF4843F 		.word	1065677947
 1376 0874 AF22853F 		.word	1065689775
 1377 0878 F450853F 		.word	1065701620
 1378 087c 4A7F853F 		.word	1065713482
 1379 0880 A7AD853F 		.word	1065725351
 1380 0884 1EDC853F 		.word	1065737246
 1381 0888 9E0A863F 		.word	1065749150
 1382 088c 3739863F 		.word	1065761079
 1383 0890 D767863F 		.word	1065773015
 1384 0894 9296863F 		.word	1065784978
 1385 0898 54C5863F 		.word	1065796948
 1386 089c 28F4863F 		.word	1065808936
 1387 08a0 0C23873F 		.word	1065820940
 1388 08a4 0052873F 		.word	1065832960
 1389 08a8 0681873F 		.word	1065844998
 1390 08ac 1DB0873F 		.word	1065857053
 1391 08b0 44DF873F 		.word	1065869124
 1392 08b4 7C0E883F 		.word	1065881212
 1393 08b8 C53D883F 		.word	1065893317
 1394 08bc 166D883F 		.word	1065905430
 1395 08c0 809C883F 		.word	1065917568
 1396 08c4 FBCB883F 		.word	1065929723
 1397 08c8 7FFB883F 		.word	1065941887
 1398 08cc 1B2B893F 		.word	1065954075
 1399 08d0 C95A893F 		.word	1065966281
 1400 08d4 7E8A893F 		.word	1065978494
 1401 08d8 4DBA893F 		.word	1065990733
 1402 08dc 25EA893F 		.word	1066002981
 1403 08e0 151A8A3F 		.word	1066015253
 1404 08e4 0E4A8A3F 		.word	1066027534
 1405 08e8 207A8A3F 		.word	1066039840
 1406 08ec 3BAA8A3F 		.word	1066052155
 1407 08f0 6EDA8A3F 		.word	1066064494
 1408 08f4 AA0A8B3F 		.word	1066076842
 1409 08f8 003B8B3F 		.word	1066089216
 1410 08fc 5D6B8B3F 		.word	1066101597
 1411 0900 D49B8B3F 		.word	1066114004
 1412 0904 53CC8B3F 		.word	1066126419
 1413 0908 EBFC8B3F 		.word	1066138859
 1414 090c 8C2D8C3F 		.word	1066151308
 1415 0910 465E8C3F 		.word	1066163782
 1416 0914 088F8C3F 		.word	1066176264
 1417 0918 E4BF8C3F 		.word	1066188772
 1418 091c C7F08C3F 		.word	1066201287
 1419 0920 C4218D3F 		.word	1066213828
 1420 0924 D2528D3F 		.word	1066226386
 1421 0928 E8838D3F 		.word	1066238952
 1422 092c 18B58D3F 		.word	1066251544
 1423 0930 58E68D3F 		.word	1066264152
 1424 0934 A0178E3F 		.word	1066276768
ARM GAS  /var/folders/lp/x54gwt890xv47sdkqj1k04q40000gn/T//ccbcdcFX.s 			page 30


 1425 0938 02498E3F 		.word	1066289410
 1426 093c 747A8E3F 		.word	1066302068
 1427 0940 F7AB8E3F 		.word	1066314743
 1428 0944 8BDD8E3F 		.word	1066327435
 1429 0948 300F8F3F 		.word	1066340144
 1430 094c E6408F3F 		.word	1066352870
 1431 0950 AC728F3F 		.word	1066365612
 1432 0954 83A48F3F 		.word	1066378371
 1433 0958 73D68F3F 		.word	1066391155
 1434 095c 6C08903F 		.word	1066403948
 1435 0960 753A903F 		.word	1066416757
 1436 0964 986C903F 		.word	1066429592
 1437 0968 C39E903F 		.word	1066442435
 1438 096c 07D1903F 		.word	1066455303
 1439 0970 5C03913F 		.word	1066468188
 1440 0974 B935913F 		.word	1066481081
 1441 0978 3068913F 		.word	1066494000
 1442 097c B79A913F 		.word	1066506935
 1443 0980 4FCD913F 		.word	1066519887
 1444 0984 F8FF913F 		.word	1066532856
 1445 0988 BA32923F 		.word	1066545850
 1446 098c 8465923F 		.word	1066558852
 1447 0990 6798923F 		.word	1066571879
 1448 0994 53CB923F 		.word	1066584915
 1449 0998 58FE923F 		.word	1066597976
 1450 099c 6E31933F 		.word	1066611054
 1451 09a0 8C64933F 		.word	1066624140
 1452 09a4 C497933F 		.word	1066637252
 1453 09a8 14CB933F 		.word	1066650388
 1454 09ac 6DFE933F 		.word	1066663533
 1455 09b0 D731943F 		.word	1066676695
 1456 09b4 5A65943F 		.word	1066689882
 1457 09b8 E598943F 		.word	1066703077
 1458 09bc 8ACC943F 		.word	1066716298
 1459 09c0 3F00953F 		.word	1066729535
 1460 09c4 0534953F 		.word	1066742789
 1461 09c8 E467953F 		.word	1066756068
 1462 09cc CC9B953F 		.word	1066769356
 1463 09d0 C4CF953F 		.word	1066782660
 1464 09d4 D503963F 		.word	1066795989
 1465 09d8 F837963F 		.word	1066809336
 1466 09dc 2B6C963F 		.word	1066822699
 1467 09e0 6FA0963F 		.word	1066836079
 1468 09e4 C3D4963F 		.word	1066849475
 1469 09e8 3109973F 		.word	1066862897
 1470 09ec B03D973F 		.word	1066876336
 1471 09f0 3672973F 		.word	1066889782
 1472 09f4 D7A6973F 		.word	1066903255
 1473 09f8 90DB973F 		.word	1066916752
 1474 09fc 5210983F 		.word	1066930258
 1475 0a00 2445983F 		.word	1066943780
 1476 0a04 107A983F 		.word	1066957328
 1477 0a08 0CAF983F 		.word	1066970892
 1478 0a0c 19E4983F 		.word	1066984473
 1479 0a10 3F19993F 		.word	1066998079
 1480 0a14 6E4E993F 		.word	1067011694
 1481 0a18 B683993F 		.word	1067025334
ARM GAS  /var/folders/lp/x54gwt890xv47sdkqj1k04q40000gn/T//ccbcdcFX.s 			page 31


 1482 0a1c 0FB9993F 		.word	1067038991
 1483 0a20 78EE993F 		.word	1067052664
 1484 0a24 F2239A3F 		.word	1067066354
 1485 0a28 86599A3F 		.word	1067080070
 1486 0a2c 2A8F9A3F 		.word	1067093802
 1487 0a30 DFC49A3F 		.word	1067107551
 1488 0a34 A4FA9A3F 		.word	1067121316
 1489 0a38 7B309B3F 		.word	1067135099
 1490 0a3c 6B669B3F 		.word	1067148907
 1491 0a40 6B9C9B3F 		.word	1067162731
 1492 0a44 7CD29B3F 		.word	1067176572
 1493 0a48 A7089C3F 		.word	1067190439
 1494 0a4c D93E9C3F 		.word	1067204313
 1495 0a50 25759C3F 		.word	1067218213
 1496 0a54 82AB9C3F 		.word	1067232130
 1497 0a58 F8E19C3F 		.word	1067246072
 1498 0a5c 76189D3F 		.word	1067260022
 1499 0a60 0E4F9D3F 		.word	1067273998
 1500 0a64 BE859D3F 		.word	1067287998
 1501 0a68 77BC9D3F 		.word	1067302007
 1502 0a6c 49F39D3F 		.word	1067316041
 1503 0a70 2C2A9E3F 		.word	1067330092
 1504 0a74 20619E3F 		.word	1067344160
 1505 0a78 24989E3F 		.word	1067358244
 1506 0a7c 42CF9E3F 		.word	1067372354
 1507 0a80 70069F3F 		.word	1067386480
 1508 0a84 B83D9F3F 		.word	1067400632
 1509 0a88 08759F3F 		.word	1067414792
 1510 0a8c 71AC9F3F 		.word	1067428977
 1511 0a90 F3E39F3F 		.word	1067443187
 1512 0a94 7E1BA03F 		.word	1067457406
 1513 0a98 2253A03F 		.word	1067471650
 1514 0a9c D78AA03F 		.word	1067485911
 1515 0aa0 A4C2A03F 		.word	1067500196
 1516 0aa4 7BFAA03F 		.word	1067514491
 1517 0aa8 7232A13F 		.word	1067528818
 1518 0aac 726AA13F 		.word	1067543154
 1519 0ab0 8CA2A13F 		.word	1067557516
 1520 0ab4 B6DAA13F 		.word	1067571894
 1521 0ab8 F112A23F 		.word	1067586289
 1522 0abc 454BA23F 		.word	1067600709
 1523 0ac0 A983A23F 		.word	1067615145
 1524 0ac4 1FBCA23F 		.word	1067629599
 1525 0ac8 AEF4A23F 		.word	1067644078
 1526 0acc 4D2DA33F 		.word	1067658573
 1527 0ad0 FE65A33F 		.word	1067673086
 1528 0ad4 C79EA33F 		.word	1067687623
 1529 0ad8 A1D7A33F 		.word	1067702177
 1530 0adc 9510A43F 		.word	1067716757
 1531 0ae0 9949A43F 		.word	1067731353
 1532 0ae4 AE82A43F 		.word	1067745966
 1533 0ae8 D4BBA43F 		.word	1067760596
 1534 0aec 12F5A43F 		.word	1067775250
 1535 0af0 622EA53F 		.word	1067789922
 1536 0af4 CB67A53F 		.word	1067804619
 1537 0af8 45A1A53F 		.word	1067819333
 1538 0afc D7DAA53F 		.word	1067834071
ARM GAS  /var/folders/lp/x54gwt890xv47sdkqj1k04q40000gn/T//ccbcdcFX.s 			page 32


 1539 0b00 7214A63F 		.word	1067848818
 1540 0b04 2F4EA63F 		.word	1067863599
 1541 0b08 F487A63F 		.word	1067878388
 1542 0b0c D3C1A63F 		.word	1067893203
 1543 0b10 CAFBA63F 		.word	1067908042
 1544 0b14 CA35A73F 		.word	1067922890
 1545 0b18 E36FA73F 		.word	1067937763
 1546 0b1c 15AAA73F 		.word	1067952661
 1547 0b20 58E4A73F 		.word	1067967576
 1548 0b24 AC1EA83F 		.word	1067982508
 1549 0b28 1959A83F 		.word	1067997465
 1550 0b2c 9693A83F 		.word	1068012438
 1551 0b30 2DCEA83F 		.word	1068027437
 1552 0b34 D508A93F 		.word	1068042453
 1553 0b38 9643A93F 		.word	1068057494
 1554 0b3c 677EA93F 		.word	1068072551
 1555 0b40 49B9A93F 		.word	1068087625
 1556 0b44 45F4A93F 		.word	1068102725
 1557 0b48 512FAA3F 		.word	1068117841
 1558 0b4c 776AAA3F 		.word	1068132983
 1559 0b50 ADA5AA3F 		.word	1068148141
 1560 0b54 FCE0AA3F 		.word	1068163324
 1561 0b58 5C1CAB3F 		.word	1068178524
 1562 0b5c CD57AB3F 		.word	1068193741
 1563 0b60 5793AB3F 		.word	1068208983
 1564 0b64 FBCEAB3F 		.word	1068224251
 1565 0b68 AF0AAC3F 		.word	1068239535
 1566 0b6c 7446AC3F 		.word	1068254836
 1567 0b70 5182AC3F 		.word	1068270161
 1568 0b74 40BEAC3F 		.word	1068285504
 1569 0b78 48FAAC3F 		.word	1068300872
 1570 0b7c 6936AD3F 		.word	1068316265
 1571 0b80 9372AD3F 		.word	1068331667
 1572 0b84 DEAEAD3F 		.word	1068347102
 1573 0b88 3AEBAD3F 		.word	1068362554
 1574 0b8c A627AE3F 		.word	1068378022
 1575 0b90 2C64AE3F 		.word	1068393516
 1576 0b94 C3A0AE3F 		.word	1068409027
 1577 0b98 72DDAE3F 		.word	1068424562
 1578 0b9c 331AAF3F 		.word	1068440115
 1579 0ba0 0C57AF3F 		.word	1068455692
 1580 0ba4 FF93AF3F 		.word	1068471295
 1581 0ba8 FAD0AF3F 		.word	1068486906
 1582 0bac 170EB03F 		.word	1068502551
 1583 0bb0 454BB03F 		.word	1068518213
 1584 0bb4 8388B03F 		.word	1068533891
 1585 0bb8 DAC5B03F 		.word	1068549594
 1586 0bbc 4B03B13F 		.word	1068565323
 1587 0bc0 CC40B13F 		.word	1068581068
 1588 0bc4 677EB13F 		.word	1068596839
 1589 0bc8 12BCB13F 		.word	1068612626
 1590 0bcc D7F9B13F 		.word	1068628439
 1591 0bd0 AC37B23F 		.word	1068644268
 1592 0bd4 9B75B23F 		.word	1068660123
 1593 0bd8 A2B3B23F 		.word	1068676002
 1594 0bdc BBF1B23F 		.word	1068691899
 1595 0be0 E42FB33F 		.word	1068707812
ARM GAS  /var/folders/lp/x54gwt890xv47sdkqj1k04q40000gn/T//ccbcdcFX.s 			page 33


 1596 0be4 266EB33F 		.word	1068723750
 1597 0be8 82ACB33F 		.word	1068739714
 1598 0bec EEEAB33F 		.word	1068755694
 1599 0bf0 7429B43F 		.word	1068771700
 1600 0bf4 1268B43F 		.word	1068787730
 1601 0bf8 C2A6B43F 		.word	1068803778
 1602 0bfc 8AE5B43F 		.word	1068819850
 1603 0c00 6424B53F 		.word	1068835940
 1604 0c04 5663B53F 		.word	1068852054
 1605 0c08 59A2B53F 		.word	1068868185
 1606 0c0c 7EE1B53F 		.word	1068884350
 1607 0c10 AB20B63F 		.word	1068900523
 1608 0c14 FA5FB63F 		.word	1068916730
 1609 0c18 5A9FB63F 		.word	1068932954
 1610 0c1c CADEB63F 		.word	1068949194
 1611 0c20 5C1EB73F 		.word	1068965468
 1612 0c24 F65DB73F 		.word	1068981750
 1613 0c28 B29DB73F 		.word	1068998066
 1614 0c2c 7FDDB73F 		.word	1069014399
 1615 0c30 651DB83F 		.word	1069030757
 1616 0c34 5B5DB83F 		.word	1069047131
 1617 0c38 6B9DB83F 		.word	1069063531
 1618 0c3c 94DDB83F 		.word	1069079956
 1619 0c40 D61DB93F 		.word	1069096406
 1620 0c44 295EB93F 		.word	1069112873
 1621 0c48 8C9EB93F 		.word	1069129356
 1622 0c4c 11DFB93F 		.word	1069145873
 1623 0c50 A71FBA3F 		.word	1069162407
 1624 0c54 5760BA3F 		.word	1069178967
 1625 0c58 16A1BA3F 		.word	1069195542
 1626 0c5c EFE1BA3F 		.word	1069212143
 1627 0c60 E222BB3F 		.word	1069228770
 1628 0c64 E563BB3F 		.word	1069245413
 1629 0c68 09A5BB3F 		.word	1069262089
 1630 0c6c 36E6BB3F 		.word	1069278774
 1631 0c70 8527BC3F 		.word	1069295493
 1632 0c74 E468BC3F 		.word	1069312228
 1633 0c78 5CAABC3F 		.word	1069328988
 1634 0c7c EEEBBC3F 		.word	1069345774
 1635 0c80 902DBD3F 		.word	1069362576
 1636 0c84 546FBD3F 		.word	1069379412
 1637 0c88 21B1BD3F 		.word	1069396257
 1638 0c8c 0EF3BD3F 		.word	1069413134
 1639 0c90 0D35BE3F 		.word	1069430029
 1640 0c94 2577BE3F 		.word	1069446949
 1641 0c98 56B9BE3F 		.word	1069463894
 1642 0c9c A0FBBE3F 		.word	1069480864
 1643 0ca0 FB3DBF3F 		.word	1069497851
 1644 0ca4 6F80BF3F 		.word	1069514863
 1645 0ca8 FCC2BF3F 		.word	1069531900
 1646 0cac 9A05C03F 		.word	1069548954
 1647 0cb0 5A48C03F 		.word	1069566042
 1648 0cb4 2A8BC03F 		.word	1069583146
 1649 0cb8 0CCEC03F 		.word	1069600268
 1650 0cbc 0E11C13F 		.word	1069617422
 1651 0cc0 2254C13F 		.word	1069634594
 1652 0cc4 5797C13F 		.word	1069651799
ARM GAS  /var/folders/lp/x54gwt890xv47sdkqj1k04q40000gn/T//ccbcdcFX.s 			page 34


 1653 0cc8 94DAC13F 		.word	1069669012
 1654 0ccc F31DC23F 		.word	1069686259
 1655 0cd0 6B61C23F 		.word	1069703531
 1656 0cd4 F4A4C23F 		.word	1069720820
 1657 0cd8 96E8C23F 		.word	1069738134
 1658 0cdc 522CC33F 		.word	1069755474
 1659 0ce0 2670C33F 		.word	1069772838
 1660 0ce4 0BB4C33F 		.word	1069790219
 1661 0ce8 12F8C33F 		.word	1069807634
 1662 0cec 293CC43F 		.word	1069825065
 1663 0cf0 5A80C43F 		.word	1069842522
 1664 0cf4 9CC4C43F 		.word	1069859996
 1665 0cf8 FF08C53F 		.word	1069877503
 1666 0cfc 7B4DC53F 		.word	1069895035
 1667 0d00 0892C53F 		.word	1069912584
 1668 0d04 AED6C53F 		.word	1069930158
 1669 0d08 6D1BC63F 		.word	1069947757
 1670 0d0c 4660C63F 		.word	1069965382
 1671 0d10 2FA5C63F 		.word	1069983023
 1672 0d14 3AEAC63F 		.word	1070000698
 1673 0d18 552FC73F 		.word	1070018389
 1674 0d1c 9274C73F 		.word	1070036114
 1675 0d20 E0B9C73F 		.word	1070053856
 1676 0d24 47FFC73F 		.word	1070071623
 1677 0d28 C844C83F 		.word	1070089416
 1678 0d2c 598AC83F 		.word	1070107225
 1679 0d30 0BD0C83F 		.word	1070125067
 1680 0d34 CF15C93F 		.word	1070142927
 1681 0d38 B45BC93F 		.word	1070160820
 1682 0d3c A9A1C93F 		.word	1070178729
 1683 0d40 B8E7C93F 		.word	1070196664
 1684 0d44 E02DCA3F 		.word	1070214624
 1685 0d48 2174CA3F 		.word	1070232609
 1686 0d4c 7CBACA3F 		.word	1070250620
 1687 0d50 EF00CB3F 		.word	1070268655
 1688 0d54 7C47CB3F 		.word	1070286716
 1689 0d58 228ECB3F 		.word	1070304802
 1690 0d5c D8D4CB3F 		.word	1070322904
 1691 0d60 B01BCC3F 		.word	1070341040
 1692 0d64 9962CC3F 		.word	1070359193
 1693 0d68 A4A9CC3F 		.word	1070377380
 1694 0d6c BFF0CC3F 		.word	1070395583
 1695 0d70 F437CD3F 		.word	1070413812
 1696 0d74 417FCD3F 		.word	1070432065
 1697 0d78 B0C6CD3F 		.word	1070450352
 1698 0d7c 300ECE3F 		.word	1070468656
 1699 0d80 C955CE3F 		.word	1070486985
 1700 0d84 7C9DCE3F 		.word	1070505340
 1701 0d88 47E5CE3F 		.word	1070523719
 1702 0d8c 2C2DCF3F 		.word	1070542124
 1703 0d90 2975CF3F 		.word	1070560553
 1704 0d94 40BDCF3F 		.word	1070579008
 1705 0d98 7105D03F 		.word	1070597489
 1706 0d9c BA4DD03F 		.word	1070615994
 1707 0da0 1C96D03F 		.word	1070634524
 1708 0da4 98DED03F 		.word	1070653080
 1709 0da8 2D27D13F 		.word	1070671661
ARM GAS  /var/folders/lp/x54gwt890xv47sdkqj1k04q40000gn/T//ccbcdcFX.s 			page 35


 1710 0dac DB6FD13F 		.word	1070690267
 1711 0db0 A2B8D13F 		.word	1070708898
 1712 0db4 8201D23F 		.word	1070727554
 1713 0db8 7B4AD23F 		.word	1070746235
 1714 0dbc 8E93D23F 		.word	1070764942
 1715 0dc0 BADCD23F 		.word	1070783674
 1716 0dc4 FF25D33F 		.word	1070802431
 1717 0dc8 5D6FD33F 		.word	1070821213
 1718 0dcc D4B8D33F 		.word	1070840020
 1719 0dd0 6402D43F 		.word	1070858852
 1720 0dd4 164CD43F 		.word	1070877718
 1721 0dd8 D995D43F 		.word	1070896601
 1722 0ddc B5DFD43F 		.word	1070915509
 1723 0de0 B329D53F 		.word	1070934451
 1724 0de4 C173D53F 		.word	1070953409
 1725 0de8 F1BDD53F 		.word	1070972401
 1726 0dec 3108D63F 		.word	1070991409
 1727 0df0 9352D63F 		.word	1071010451
 1728 0df4 0F9DD63F 		.word	1071029519
 1729 0df8 A3E7D63F 		.word	1071048611
 1730 0dfc 5132D73F 		.word	1071067729
 1731 0e00 187DD73F 		.word	1071086872
 1732 0e04 F7C7D73F 		.word	1071106039
 1733 0e08 F112D83F 		.word	1071125233
 1734 0e0c 035ED83F 		.word	1071144451
 1735 0e10 37A9D83F 		.word	1071163703
 1736 0e14 7BF4D83F 		.word	1071182971
 1737 0e18 E23FD93F 		.word	1071202274
 1738 0e1c 618BD93F 		.word	1071221601
 1739 0e20 F9D6D93F 		.word	1071240953
 1740 0e24 AB22DA3F 		.word	1071260331
 1741 0e28 766EDA3F 		.word	1071279734
 1742 0e2c 62BADA3F 		.word	1071299170
 1743 0e30 6006DB3F 		.word	1071318624
 1744 0e34 7E52DB3F 		.word	1071338110
 1745 0e38 AE9EDB3F 		.word	1071357614
 1746 0e3c FFEADB3F 		.word	1071377151
 1747 0e40 7237DC3F 		.word	1071396722
 1748 0e44 F583DC3F 		.word	1071416309
 1749 0e48 91D0DC3F 		.word	1071435921
 1750 0e4c 501DDD3F 		.word	1071455568
 1751 0e50 276ADD3F 		.word	1071475239
 1752 0e54 17B7DD3F 		.word	1071494935
 1753 0e58 2104DE3F 		.word	1071514657
 1754 0e5c 4451DE3F 		.word	1071534404
 1755 0e60 889EDE3F 		.word	1071554184
 1756 0e64 E6EBDE3F 		.word	1071573990
 1757 0e68 5439DF3F 		.word	1071593812
 1758 0e6c EC86DF3F 		.word	1071613676
 1759 0e70 95D4DF3F 		.word	1071633557
 1760 0e74 6022E03F 		.word	1071653472
 1761 0e78 3B70E03F 		.word	1071673403
 1762 0e7c 40BEE03F 		.word	1071693376
 1763 0e80 560CE13F 		.word	1071713366
 1764 0e84 865AE13F 		.word	1071733382
 1765 0e88 D6A8E13F 		.word	1071753430
 1766 0e8c 40F7E13F 		.word	1071773504
ARM GAS  /var/folders/lp/x54gwt890xv47sdkqj1k04q40000gn/T//ccbcdcFX.s 			page 36


 1767 0e90 C345E23F 		.word	1071793603
 1768 0e94 6894E23F 		.word	1071813736
 1769 0e98 26E3E23F 		.word	1071833894
 1770 0e9c FD31E33F 		.word	1071854077
 1771 0ea0 ED80E33F 		.word	1071874285
 1772 0ea4 F6CFE33F 		.word	1071894518
 1773 0ea8 211FE43F 		.word	1071914785
 1774 0eac 656EE43F 		.word	1071935077
 1775 0eb0 CBBDE43F 		.word	1071955403
 1776 0eb4 410DE53F 		.word	1071975745
 1777 0eb8 D95CE53F 		.word	1071996121
 1778 0ebc 93ACE53F 		.word	1072016531
 1779 0ec0 5DFCE53F 		.word	1072036957
 1780 0ec4 494CE63F 		.word	1072057417
 1781 0ec8 4E9CE63F 		.word	1072077902
 1782 0ecc 74ECE63F 		.word	1072098420
 1783 0ed0 B43CE73F 		.word	1072118964
 1784 0ed4 0D8DE73F 		.word	1072139533
 1785 0ed8 7FDDE73F 		.word	1072160127
 1786 0edc 122EE83F 		.word	1072180754
 1787 0ee0 BF7EE83F 		.word	1072201407
 1788 0ee4 8DCFE83F 		.word	1072222093
 1789 0ee8 7520E93F 		.word	1072242805
 1790 0eec 7671E93F 		.word	1072263542
 1791 0ef0 8FC2E93F 		.word	1072284303
 1792 0ef4 CB13EA3F 		.word	1072305099
 1793 0ef8 2865EA3F 		.word	1072325928
 1794 0efc 95B6EA3F 		.word	1072346773
 1795 0f00 2508EB3F 		.word	1072367653
 1796 0f04 D559EB3F 		.word	1072388565
 1797 0f08 97ABEB3F 		.word	1072409495
 1798 0f0c 7AFDEB3F 		.word	1072430458
 1799 0f10 7F4FEC3F 		.word	1072451455
 1800 0f14 9DA1EC3F 		.word	1072472477
 1801 0f18 D4F3EC3F 		.word	1072493524
 1802 0f1c 2C46ED3F 		.word	1072514604
 1803 0f20 9E98ED3F 		.word	1072535710
 1804 0f24 31EBED3F 		.word	1072556849
 1805 0f28 DE3DEE3F 		.word	1072578014
 1806 0f2c A390EE3F 		.word	1072599203
 1807 0f30 8AE3EE3F 		.word	1072620426
 1808 0f34 8B36EF3F 		.word	1072641675
 1809 0f38 AD89EF3F 		.word	1072662957
 1810 0f3c E8DCEF3F 		.word	1072684264
 1811 0f40 4430F03F 		.word	1072705604
 1812 0f44 BA83F03F 		.word	1072726970
 1813 0f48 52D7F03F 		.word	1072748370
 1814 0f4c 022BF13F 		.word	1072769794
 1815 0f50 CC7EF13F 		.word	1072791244
 1816 0f54 B7D2F13F 		.word	1072812727
 1817 0f58 BB26F23F 		.word	1072834235
 1818 0f5c E17AF23F 		.word	1072855777
 1819 0f60 29CFF23F 		.word	1072877353
 1820 0f64 8123F33F 		.word	1072898945
 1821 0f68 0378F33F 		.word	1072920579
 1822 0f6c 9FCCF33F 		.word	1072942239
 1823 0f70 5321F43F 		.word	1072963923
ARM GAS  /var/folders/lp/x54gwt890xv47sdkqj1k04q40000gn/T//ccbcdcFX.s 			page 37


 1824 0f74 2976F43F 		.word	1072985641
 1825 0f78 19CBF43F 		.word	1073007385
 1826 0f7c 2920F53F 		.word	1073029161
 1827 0f80 5C75F53F 		.word	1073050972
 1828 0f84 A7CAF53F 		.word	1073072807
 1829 0f88 0C20F63F 		.word	1073094668
 1830 0f8c 9275F63F 		.word	1073116562
 1831 0f90 3ACBF63F 		.word	1073138490
 1832 0f94 FB20F73F 		.word	1073160443
 1833 0f98 D576F73F 		.word	1073182421
 1834 0f9c D9CCF73F 		.word	1073204441
 1835 0fa0 EE22F83F 		.word	1073226478
 1836 0fa4 2D79F83F 		.word	1073248557
 1837 0fa8 85CFF83F 		.word	1073270661
 1838 0fac F625F93F 		.word	1073292790
 1839 0fb0 897CF93F 		.word	1073314953
 1840 0fb4 3DD3F93F 		.word	1073337149
 1841 0fb8 0B2AFA3F 		.word	1073359371
 1842 0fbc FA80FA3F 		.word	1073381626
 1843 0fc0 0AD8FA3F 		.word	1073403914
 1844 0fc4 342FFB3F 		.word	1073426228
 1845 0fc8 7786FB3F 		.word	1073448567
 1846 0fcc E3DDFB3F 		.word	1073470947
 1847 0fd0 6935FC3F 		.word	1073493353
 1848 0fd4 098DFC3F 		.word	1073515785
 1849 0fd8 C9E4FC3F 		.word	1073538249
 1850 0fdc AC3CFD3F 		.word	1073560748
 1851 0fe0 AF94FD3F 		.word	1073583279
 1852 0fe4 CCECFD3F 		.word	1073605836
 1853 0fe8 0245FE3F 		.word	1073628418
 1854 0fec 629DFE3F 		.word	1073651042
 1855 0ff0 DCF5FE3F 		.word	1073673692
 1856 0ff4 774EFF3F 		.word	1073696375
 1857 0ff8 2AA7FF3F 		.word	1073719082
 1858 0ffc 00000040 		.word	1073741824
 1859              		.global	mtof
 1860              		.section	.rodata.mtof,"a"
 1861              		.align	2
 1864              	mtof:
 1865 0000 13D00241 		.word	1090703379
 1866 0004 60970A41 		.word	1091213152
 1867 0008 17D51241 		.word	1091753239
 1868 000c 41901B41 		.word	1092325441
 1869 0010 54D02441 		.word	1092931668
 1870 0014 369D2E41 		.word	1093573942
 1871 0018 4AFF3841 		.word	1094254410
 1872 001c 6AFF4341 		.word	1094975338
 1873 0020 01A74F41 		.word	1095739137
 1874 0024 00005C41 		.word	1096548352
 1875 0028 F7146941 		.word	1097405687
 1876 002c 10F17641 		.word	1098314000
 1877 0030 13D08241 		.word	1099091987
 1878 0034 60978A41 		.word	1099601760
 1879 0038 17D59241 		.word	1100141847
 1880 003c 41909B41 		.word	1100714049
 1881 0040 54D0A441 		.word	1101320276
 1882 0044 369DAE41 		.word	1101962550
ARM GAS  /var/folders/lp/x54gwt890xv47sdkqj1k04q40000gn/T//ccbcdcFX.s 			page 38


 1883 0048 49FFB841 		.word	1102643017
 1884 004c 6BFFC341 		.word	1103363947
 1885 0050 01A7CF41 		.word	1104127745
 1886 0054 0000DC41 		.word	1104936960
 1887 0058 F614E941 		.word	1105794294
 1888 005c 10F1F641 		.word	1106702608
 1889 0060 13D00242 		.word	1107480595
 1890 0064 60970A42 		.word	1107990368
 1891 0068 17D51242 		.word	1108530455
 1892 006c 41901B42 		.word	1109102657
 1893 0070 54D02442 		.word	1109708884
 1894 0074 379D2E42 		.word	1110351159
 1895 0078 49FF3842 		.word	1111031625
 1896 007c 6AFF4342 		.word	1111752554
 1897 0080 00A74F42 		.word	1112516352
 1898 0084 00005C42 		.word	1113325568
 1899 0088 F6146942 		.word	1114182902
 1900 008c 10F17642 		.word	1115091216
 1901 0090 12D08242 		.word	1115869202
 1902 0094 60978A42 		.word	1116378976
 1903 0098 17D59242 		.word	1116919063
 1904 009c 41909B42 		.word	1117491265
 1905 00a0 54D0A442 		.word	1118097492
 1906 00a4 379DAE42 		.word	1118739767
 1907 00a8 49FFB842 		.word	1119420233
 1908 00ac 6AFFC342 		.word	1120141162
 1909 00b0 00A7CF42 		.word	1120904960
 1910 00b4 0000DC42 		.word	1121714176
 1911 00b8 F614E942 		.word	1122571510
 1912 00bc 10F1F642 		.word	1123479824
 1913 00c0 13D00243 		.word	1124257811
 1914 00c4 60970A43 		.word	1124767584
 1915 00c8 17D51243 		.word	1125307671
 1916 00cc 41901B43 		.word	1125879873
 1917 00d0 54D02443 		.word	1126486100
 1918 00d4 379D2E43 		.word	1127128375
 1919 00d8 49FF3843 		.word	1127808841
 1920 00dc 6AFF4343 		.word	1128529770
 1921 00e0 00A74F43 		.word	1129293568
 1922 00e4 00005C43 		.word	1130102784
 1923 00e8 F6146943 		.word	1130960118
 1924 00ec 10F17643 		.word	1131868432
 1925 00f0 13D08243 		.word	1132646419
 1926 00f4 60978A43 		.word	1133156192
 1927 00f8 17D59243 		.word	1133696279
 1928 00fc 41909B43 		.word	1134268481
 1929 0100 54D0A443 		.word	1134874708
 1930 0104 379DAE43 		.word	1135516983
 1931 0108 49FFB843 		.word	1136197449
 1932 010c 6AFFC343 		.word	1136918378
 1933 0110 00A7CF43 		.word	1137682176
 1934 0114 0000DC43 		.word	1138491392
 1935 0118 F614E943 		.word	1139348726
 1936 011c 10F1F643 		.word	1140257040
 1937 0120 13D00244 		.word	1141035027
 1938 0124 60970A44 		.word	1141544800
 1939 0128 17D51244 		.word	1142084887
ARM GAS  /var/folders/lp/x54gwt890xv47sdkqj1k04q40000gn/T//ccbcdcFX.s 			page 39


 1940 012c 41901B44 		.word	1142657089
 1941 0130 54D02444 		.word	1143263316
 1942 0134 379D2E44 		.word	1143905591
 1943 0138 49FF3844 		.word	1144586057
 1944 013c 6AFF4344 		.word	1145306986
 1945 0140 00A74F44 		.word	1146070784
 1946 0144 00005C44 		.word	1146880000
 1947 0148 F6146944 		.word	1147737334
 1948 014c 10F17644 		.word	1148645648
 1949 0150 13D08244 		.word	1149423635
 1950 0154 60978A44 		.word	1149933408
 1951 0158 17D59244 		.word	1150473495
 1952 015c 41909B44 		.word	1151045697
 1953 0160 54D0A444 		.word	1151651924
 1954 0164 379DAE44 		.word	1152294199
 1955 0168 49FFB844 		.word	1152974665
 1956 016c 6AFFC344 		.word	1153695594
 1957 0170 00A7CF44 		.word	1154459392
 1958 0174 0000DC44 		.word	1155268608
 1959 0178 F614E944 		.word	1156125942
 1960 017c 10F1F644 		.word	1157034256
 1961 0180 13D00245 		.word	1157812243
 1962 0184 60970A45 		.word	1158322016
 1963 0188 17D51245 		.word	1158862103
 1964 018c 41901B45 		.word	1159434305
 1965 0190 54D02445 		.word	1160040532
 1966 0194 379D2E45 		.word	1160682807
 1967 0198 49FF3845 		.word	1161363273
 1968 019c 6AFF4345 		.word	1162084202
 1969 01a0 00A74F45 		.word	1162848000
 1970 01a4 00005C45 		.word	1163657216
 1971 01a8 F6146945 		.word	1164514550
 1972 01ac 10F17645 		.word	1165422864
 1973 01b0 13D08245 		.word	1166200851
 1974 01b4 60978A45 		.word	1166710624
 1975 01b8 17D59245 		.word	1167250711
 1976 01bc 41909B45 		.word	1167822913
 1977 01c0 54D0A445 		.word	1168429140
 1978 01c4 379DAE45 		.word	1169071415
 1979 01c8 49FFB845 		.word	1169751881
 1980 01cc 6AFFC345 		.word	1170472810
 1981 01d0 00A7CF45 		.word	1171236608
 1982 01d4 0000DC45 		.word	1172045824
 1983 01d8 F614E945 		.word	1172903158
 1984 01dc 10F1F645 		.word	1173811472
 1985 01e0 13D00246 		.word	1174589459
 1986 01e4 60970A46 		.word	1175099232
 1987 01e8 17D51246 		.word	1175639319
 1988 01ec 41901B46 		.word	1176211521
 1989 01f0 54D02446 		.word	1176817748
 1990 01f4 379D2E46 		.word	1177460023
 1991 01f8 49FF3846 		.word	1178140489
 1992 01fc 6AFF4346 		.word	1178861418
 1993              		.text
 1994              	.Letext0:
 1995              		.file 2 "/Users/jr/Library/Application Support/Code/User/globalStorage/bmd.stm32-for-vscode/@xpack
 1996              		.file 3 "/Users/jr/Library/Application Support/Code/User/globalStorage/bmd.stm32-for-vscode/@xpack
ARM GAS  /var/folders/lp/x54gwt890xv47sdkqj1k04q40000gn/T//ccbcdcFX.s 			page 40


 1997              		.file 4 "Drivers/CMSIS/Device/ST/STM32F4xx/Include/stm32f407xx.h"
 1998              		.file 5 "Drivers/STM32F4xx_HAL_Driver/Inc/stm32f4xx_hal_def.h"
 1999              		.file 6 "Drivers/STM32F4xx_HAL_Driver/Inc/stm32f4xx_hal_dma.h"
 2000              		.file 7 "Drivers/STM32F4xx_HAL_Driver/Inc/stm32f4xx_hal_i2s.h"
 2001              		.file 8 "Core/Inc/audio.h"
 2002              		.file 9 "Core/Inc/oscillators.h"
 2003              		.file 10 "Core/Inc/ADSR_envelope.h"
 2004              		.file 11 "Core/Inc/ladder_filter.h"
 2005              		.file 12 "Core/Inc/MIDI_lut.h"
 2006              		.file 13 "Core/Inc/stereo_delay.h"
 2007              		.file 14 "Core/Inc/helper_functions.h"
 2008              		.file 15 "Core/Inc/../../Drivers/BSP/STM32F4-Discovery/stm32f4_discovery_audio.h"
ARM GAS  /var/folders/lp/x54gwt890xv47sdkqj1k04q40000gn/T//ccbcdcFX.s 			page 41


DEFINED SYMBOLS
                            *ABS*:00000000 audio.c
/var/folders/lp/x54gwt890xv47sdkqj1k04q40000gn/T//ccbcdcFX.s:21     .text.AUDIO_Init:00000000 $t
/var/folders/lp/x54gwt890xv47sdkqj1k04q40000gn/T//ccbcdcFX.s:27     .text.AUDIO_Init:00000000 AUDIO_Init
/var/folders/lp/x54gwt890xv47sdkqj1k04q40000gn/T//ccbcdcFX.s:132    .text.AUDIO_Init:000000cc $d
/var/folders/lp/x54gwt890xv47sdkqj1k04q40000gn/T//ccbcdcFX.s:827    .bss.audioBuffer:00000000 audioBuffer
/var/folders/lp/x54gwt890xv47sdkqj1k04q40000gn/T//ccbcdcFX.s:150    .text.OpSetFreq:00000000 $t
/var/folders/lp/x54gwt890xv47sdkqj1k04q40000gn/T//ccbcdcFX.s:156    .text.OpSetFreq:00000000 OpSetFreq
/var/folders/lp/x54gwt890xv47sdkqj1k04q40000gn/T//ccbcdcFX.s:176    .text.OpSetFreq:00000010 $d
/var/folders/lp/x54gwt890xv47sdkqj1k04q40000gn/T//ccbcdcFX.s:185    .text.audioBlock:00000000 $t
/var/folders/lp/x54gwt890xv47sdkqj1k04q40000gn/T//ccbcdcFX.s:191    .text.audioBlock:00000000 audioBlock
/var/folders/lp/x54gwt890xv47sdkqj1k04q40000gn/T//ccbcdcFX.s:587    .text.audioBlock:00000270 $d
/var/folders/lp/x54gwt890xv47sdkqj1k04q40000gn/T//ccbcdcFX.s:1864   .rodata.mtof:00000000 mtof
/var/folders/lp/x54gwt890xv47sdkqj1k04q40000gn/T//ccbcdcFX.s:808    .bss.f_sub:00000000 f_sub
/var/folders/lp/x54gwt890xv47sdkqj1k04q40000gn/T//ccbcdcFX.s:796    .bss.filt_env:00000000 filt_env
/var/folders/lp/x54gwt890xv47sdkqj1k04q40000gn/T//ccbcdcFX.s:802    .bss.amp_env:00000000 amp_env
/var/folders/lp/x54gwt890xv47sdkqj1k04q40000gn/T//ccbcdcFX.s:790    .bss.index_env:00000000 index_env
/var/folders/lp/x54gwt890xv47sdkqj1k04q40000gn/T//ccbcdcFX.s:820    .bss.f0:00000000 f0
/var/folders/lp/x54gwt890xv47sdkqj1k04q40000gn/T//ccbcdcFX.s:777    .bss.delayROut:00000000 delayROut
/var/folders/lp/x54gwt890xv47sdkqj1k04q40000gn/T//ccbcdcFX.s:784    .bss.delayLOut:00000000 delayLOut
/var/folders/lp/x54gwt890xv47sdkqj1k04q40000gn/T//ccbcdcFX.s:814    .bss.f1:00000000 f1
/var/folders/lp/x54gwt890xv47sdkqj1k04q40000gn/T//ccbcdcFX.s:626    .text.BSP_AUDIO_OUT_HalfTransfer_CallBack:00000000 $t
/var/folders/lp/x54gwt890xv47sdkqj1k04q40000gn/T//ccbcdcFX.s:632    .text.BSP_AUDIO_OUT_HalfTransfer_CallBack:00000000 BSP_AUDIO_OUT_HalfTransfer_CallBack
/var/folders/lp/x54gwt890xv47sdkqj1k04q40000gn/T//ccbcdcFX.s:652    .text.BSP_AUDIO_OUT_HalfTransfer_CallBack:0000000c $d
/var/folders/lp/x54gwt890xv47sdkqj1k04q40000gn/T//ccbcdcFX.s:657    .text.BSP_AUDIO_OUT_TransferComplete_CallBack:00000000 $t
/var/folders/lp/x54gwt890xv47sdkqj1k04q40000gn/T//ccbcdcFX.s:663    .text.BSP_AUDIO_OUT_TransferComplete_CallBack:00000000 BSP_AUDIO_OUT_TransferComplete_CallBack
/var/folders/lp/x54gwt890xv47sdkqj1k04q40000gn/T//ccbcdcFX.s:683    .text.BSP_AUDIO_OUT_TransferComplete_CallBack:0000000c $d
/var/folders/lp/x54gwt890xv47sdkqj1k04q40000gn/T//ccbcdcFX.s:688    .text.BSP_AUDIO_OUT_Error_CallBack:00000000 $t
/var/folders/lp/x54gwt890xv47sdkqj1k04q40000gn/T//ccbcdcFX.s:694    .text.BSP_AUDIO_OUT_Error_CallBack:00000000 BSP_AUDIO_OUT_Error_CallBack
/var/folders/lp/x54gwt890xv47sdkqj1k04q40000gn/T//ccbcdcFX.s:711    .text.DMA1_Stream7_IRQHandler:00000000 $t
/var/folders/lp/x54gwt890xv47sdkqj1k04q40000gn/T//ccbcdcFX.s:717    .text.DMA1_Stream7_IRQHandler:00000000 DMA1_Stream7_IRQHandler
/var/folders/lp/x54gwt890xv47sdkqj1k04q40000gn/T//ccbcdcFX.s:737    .text.DMA1_Stream7_IRQHandler:0000000c $d
/var/folders/lp/x54gwt890xv47sdkqj1k04q40000gn/T//ccbcdcFX.s:742    .text.DMA1_Stream3_IRQHandler:00000000 $t
/var/folders/lp/x54gwt890xv47sdkqj1k04q40000gn/T//ccbcdcFX.s:748    .text.DMA1_Stream3_IRQHandler:00000000 DMA1_Stream3_IRQHandler
/var/folders/lp/x54gwt890xv47sdkqj1k04q40000gn/T//ccbcdcFX.s:768    .text.DMA1_Stream3_IRQHandler:0000000c $d
/var/folders/lp/x54gwt890xv47sdkqj1k04q40000gn/T//ccbcdcFX.s:774    .bss.delayROut:00000000 $d
/var/folders/lp/x54gwt890xv47sdkqj1k04q40000gn/T//ccbcdcFX.s:781    .bss.delayLOut:00000000 $d
/var/folders/lp/x54gwt890xv47sdkqj1k04q40000gn/T//ccbcdcFX.s:787    .bss.index_env:00000000 $d
/var/folders/lp/x54gwt890xv47sdkqj1k04q40000gn/T//ccbcdcFX.s:793    .bss.filt_env:00000000 $d
/var/folders/lp/x54gwt890xv47sdkqj1k04q40000gn/T//ccbcdcFX.s:799    .bss.amp_env:00000000 $d
/var/folders/lp/x54gwt890xv47sdkqj1k04q40000gn/T//ccbcdcFX.s:805    .bss.f_sub:00000000 $d
/var/folders/lp/x54gwt890xv47sdkqj1k04q40000gn/T//ccbcdcFX.s:811    .bss.f1:00000000 $d
/var/folders/lp/x54gwt890xv47sdkqj1k04q40000gn/T//ccbcdcFX.s:817    .bss.f0:00000000 $d
/var/folders/lp/x54gwt890xv47sdkqj1k04q40000gn/T//ccbcdcFX.s:824    .bss.audioBuffer:00000000 $d
/var/folders/lp/x54gwt890xv47sdkqj1k04q40000gn/T//ccbcdcFX.s:834    .rodata.pbend:00000000 pbend
/var/folders/lp/x54gwt890xv47sdkqj1k04q40000gn/T//ccbcdcFX.s:831    .rodata.pbend:00000000 $d
/var/folders/lp/x54gwt890xv47sdkqj1k04q40000gn/T//ccbcdcFX.s:1861   .rodata.mtof:00000000 $d

UNDEFINED SYMBOLS
BSP_AUDIO_OUT_Init
BSP_AUDIO_OUT_Play
osc_init
ADSR_init
MoogLP_init
Delay_init
osc1
osc2
ARM GAS  /var/folders/lp/x54gwt890xv47sdkqj1k04q40000gn/T//ccbcdcFX.s 			page 42


osc3
osc4
sub_osc
adsr_amp
adsr_filt
adsr_index
Moog_filter
__aeabi_f2d
__aeabi_dadd
__aeabi_dmul
__aeabi_d2f
ADSR_calculateMultiplier
osc_polyblepSaw
osc_polyblepRect
ADSR_compute
clip
MoogLP_compute
pingpongDelay_compute
SoftClip
osc_FM2OP
current_count
pot2_norm
currentPitch
pot1_norm
pot3_norm
delay_wet
feedback
HAL_DMA_IRQHandler
hAudioOutI2s
hAudioInI2s
