ARM GAS  /var/folders/lp/x54gwt890xv47sdkqj1k04q40000gn/T//cc5wdPvT.s 			page 1


   1              		.cpu cortex-m4
   2              		.arch armv7e-m
   3              		.fpu fpv4-sp-d16
   4              		.eabi_attribute 27, 1
   5              		.eabi_attribute 28, 1
   6              		.eabi_attribute 20, 1
   7              		.eabi_attribute 21, 1
   8              		.eabi_attribute 23, 3
   9              		.eabi_attribute 24, 1
  10              		.eabi_attribute 25, 1
  11              		.eabi_attribute 26, 1
  12              		.eabi_attribute 30, 1
  13              		.eabi_attribute 34, 1
  14              		.eabi_attribute 18, 4
  15              		.file	"cs43l22.c"
  16              		.text
  17              	.Ltext0:
  18              		.cfi_sections	.debug_frame
  19              		.file 1 "Drivers/BSP/Components/cs43l22/cs43l22.c"
  20              		.section	.text.cs43l22_SetFrequency,"ax",%progbits
  21              		.align	1
  22              		.global	cs43l22_SetFrequency
  23              		.syntax unified
  24              		.thumb
  25              		.thumb_func
  27              	cs43l22_SetFrequency:
  28              	.LVL0:
  29              	.LFB8:
   1:Drivers/BSP/Components/cs43l22/cs43l22.c **** /**
   2:Drivers/BSP/Components/cs43l22/cs43l22.c ****   ******************************************************************************
   3:Drivers/BSP/Components/cs43l22/cs43l22.c ****   * @file    cs43l22.c
   4:Drivers/BSP/Components/cs43l22/cs43l22.c ****   * @author  MCD Application Team
   5:Drivers/BSP/Components/cs43l22/cs43l22.c ****   * @brief   This file provides the CS43L22 Audio Codec driver.   
   6:Drivers/BSP/Components/cs43l22/cs43l22.c ****   ******************************************************************************
   7:Drivers/BSP/Components/cs43l22/cs43l22.c ****   * @attention
   8:Drivers/BSP/Components/cs43l22/cs43l22.c ****   *
   9:Drivers/BSP/Components/cs43l22/cs43l22.c ****   * <h2><center>&copy; COPYRIGHT(c) 2015 STMicroelectronics</center></h2>
  10:Drivers/BSP/Components/cs43l22/cs43l22.c ****   *
  11:Drivers/BSP/Components/cs43l22/cs43l22.c ****   * Redistribution and use in source and binary forms, with or without modification,
  12:Drivers/BSP/Components/cs43l22/cs43l22.c ****   * are permitted provided that the following conditions are met:
  13:Drivers/BSP/Components/cs43l22/cs43l22.c ****   *   1. Redistributions of source code must retain the above copyright notice,
  14:Drivers/BSP/Components/cs43l22/cs43l22.c ****   *      this list of conditions and the following disclaimer.
  15:Drivers/BSP/Components/cs43l22/cs43l22.c ****   *   2. Redistributions in binary form must reproduce the above copyright notice,
  16:Drivers/BSP/Components/cs43l22/cs43l22.c ****   *      this list of conditions and the following disclaimer in the documentation
  17:Drivers/BSP/Components/cs43l22/cs43l22.c ****   *      and/or other materials provided with the distribution.
  18:Drivers/BSP/Components/cs43l22/cs43l22.c ****   *   3. Neither the name of STMicroelectronics nor the names of its contributors
  19:Drivers/BSP/Components/cs43l22/cs43l22.c ****   *      may be used to endorse or promote products derived from this software
  20:Drivers/BSP/Components/cs43l22/cs43l22.c ****   *      without specific prior written permission.
  21:Drivers/BSP/Components/cs43l22/cs43l22.c ****   *
  22:Drivers/BSP/Components/cs43l22/cs43l22.c ****   * THIS SOFTWARE IS PROVIDED BY THE COPYRIGHT HOLDERS AND CONTRIBUTORS "AS IS"
  23:Drivers/BSP/Components/cs43l22/cs43l22.c ****   * AND ANY EXPRESS OR IMPLIED WARRANTIES, INCLUDING, BUT NOT LIMITED TO, THE
  24:Drivers/BSP/Components/cs43l22/cs43l22.c ****   * IMPLIED WARRANTIES OF MERCHANTABILITY AND FITNESS FOR A PARTICULAR PURPOSE ARE
  25:Drivers/BSP/Components/cs43l22/cs43l22.c ****   * DISCLAIMED. IN NO EVENT SHALL THE COPYRIGHT HOLDER OR CONTRIBUTORS BE LIABLE
  26:Drivers/BSP/Components/cs43l22/cs43l22.c ****   * FOR ANY DIRECT, INDIRECT, INCIDENTAL, SPECIAL, EXEMPLARY, OR CONSEQUENTIAL
  27:Drivers/BSP/Components/cs43l22/cs43l22.c ****   * DAMAGES (INCLUDING, BUT NOT LIMITED TO, PROCUREMENT OF SUBSTITUTE GOODS OR
  28:Drivers/BSP/Components/cs43l22/cs43l22.c ****   * SERVICES; LOSS OF USE, DATA, OR PROFITS; OR BUSINESS INTERRUPTION) HOWEVER
  29:Drivers/BSP/Components/cs43l22/cs43l22.c ****   * CAUSED AND ON ANY THEORY OF LIABILITY, WHETHER IN CONTRACT, STRICT LIABILITY,
ARM GAS  /var/folders/lp/x54gwt890xv47sdkqj1k04q40000gn/T//cc5wdPvT.s 			page 2


  30:Drivers/BSP/Components/cs43l22/cs43l22.c ****   * OR TORT (INCLUDING NEGLIGENCE OR OTHERWISE) ARISING IN ANY WAY OUT OF THE USE
  31:Drivers/BSP/Components/cs43l22/cs43l22.c ****   * OF THIS SOFTWARE, EVEN IF ADVISED OF THE POSSIBILITY OF SUCH DAMAGE.
  32:Drivers/BSP/Components/cs43l22/cs43l22.c ****   *
  33:Drivers/BSP/Components/cs43l22/cs43l22.c ****   ******************************************************************************
  34:Drivers/BSP/Components/cs43l22/cs43l22.c ****   */
  35:Drivers/BSP/Components/cs43l22/cs43l22.c **** 
  36:Drivers/BSP/Components/cs43l22/cs43l22.c **** /* Includes ------------------------------------------------------------------*/
  37:Drivers/BSP/Components/cs43l22/cs43l22.c **** #include "cs43l22.h"
  38:Drivers/BSP/Components/cs43l22/cs43l22.c **** 
  39:Drivers/BSP/Components/cs43l22/cs43l22.c **** /** @addtogroup BSP
  40:Drivers/BSP/Components/cs43l22/cs43l22.c ****   * @{
  41:Drivers/BSP/Components/cs43l22/cs43l22.c ****   */
  42:Drivers/BSP/Components/cs43l22/cs43l22.c ****   
  43:Drivers/BSP/Components/cs43l22/cs43l22.c **** /** @addtogroup Components
  44:Drivers/BSP/Components/cs43l22/cs43l22.c ****   * @{
  45:Drivers/BSP/Components/cs43l22/cs43l22.c ****   */ 
  46:Drivers/BSP/Components/cs43l22/cs43l22.c **** 
  47:Drivers/BSP/Components/cs43l22/cs43l22.c **** /** @addtogroup CS43L22
  48:Drivers/BSP/Components/cs43l22/cs43l22.c ****   * @brief     This file provides a set of functions needed to drive the 
  49:Drivers/BSP/Components/cs43l22/cs43l22.c ****   *            CS43L22 audio codec.
  50:Drivers/BSP/Components/cs43l22/cs43l22.c ****   * @{
  51:Drivers/BSP/Components/cs43l22/cs43l22.c ****   */
  52:Drivers/BSP/Components/cs43l22/cs43l22.c **** 
  53:Drivers/BSP/Components/cs43l22/cs43l22.c **** /** @defgroup CS43L22_Private_Types
  54:Drivers/BSP/Components/cs43l22/cs43l22.c ****   * @{
  55:Drivers/BSP/Components/cs43l22/cs43l22.c ****   */
  56:Drivers/BSP/Components/cs43l22/cs43l22.c **** 
  57:Drivers/BSP/Components/cs43l22/cs43l22.c **** /**
  58:Drivers/BSP/Components/cs43l22/cs43l22.c ****   * @}
  59:Drivers/BSP/Components/cs43l22/cs43l22.c ****   */ 
  60:Drivers/BSP/Components/cs43l22/cs43l22.c ****   
  61:Drivers/BSP/Components/cs43l22/cs43l22.c **** /** @defgroup CS43L22_Private_Defines
  62:Drivers/BSP/Components/cs43l22/cs43l22.c ****   * @{
  63:Drivers/BSP/Components/cs43l22/cs43l22.c ****   */
  64:Drivers/BSP/Components/cs43l22/cs43l22.c **** #define VOLUME_CONVERT(Volume)    (((Volume) > 100)? 255:((uint8_t)(((Volume) * 255) / 100)))  
  65:Drivers/BSP/Components/cs43l22/cs43l22.c **** /* Uncomment this line to enable verifying data sent to codec after each write 
  66:Drivers/BSP/Components/cs43l22/cs43l22.c ****    operation (for debug purpose) */
  67:Drivers/BSP/Components/cs43l22/cs43l22.c **** #if !defined (VERIFY_WRITTENDATA)  
  68:Drivers/BSP/Components/cs43l22/cs43l22.c **** /* #define VERIFY_WRITTENDATA */
  69:Drivers/BSP/Components/cs43l22/cs43l22.c **** #endif /* VERIFY_WRITTENDATA */
  70:Drivers/BSP/Components/cs43l22/cs43l22.c **** /**
  71:Drivers/BSP/Components/cs43l22/cs43l22.c ****   * @}
  72:Drivers/BSP/Components/cs43l22/cs43l22.c ****   */ 
  73:Drivers/BSP/Components/cs43l22/cs43l22.c **** 
  74:Drivers/BSP/Components/cs43l22/cs43l22.c **** /** @defgroup CS43L22_Private_Macros
  75:Drivers/BSP/Components/cs43l22/cs43l22.c ****   * @{
  76:Drivers/BSP/Components/cs43l22/cs43l22.c ****   */
  77:Drivers/BSP/Components/cs43l22/cs43l22.c **** 
  78:Drivers/BSP/Components/cs43l22/cs43l22.c **** /**
  79:Drivers/BSP/Components/cs43l22/cs43l22.c ****   * @}
  80:Drivers/BSP/Components/cs43l22/cs43l22.c ****   */ 
  81:Drivers/BSP/Components/cs43l22/cs43l22.c ****   
  82:Drivers/BSP/Components/cs43l22/cs43l22.c **** /** @defgroup CS43L22_Private_Variables
  83:Drivers/BSP/Components/cs43l22/cs43l22.c ****   * @{
  84:Drivers/BSP/Components/cs43l22/cs43l22.c ****   */
  85:Drivers/BSP/Components/cs43l22/cs43l22.c **** 
  86:Drivers/BSP/Components/cs43l22/cs43l22.c **** /* Audio codec driver structure initialization */  
ARM GAS  /var/folders/lp/x54gwt890xv47sdkqj1k04q40000gn/T//cc5wdPvT.s 			page 3


  87:Drivers/BSP/Components/cs43l22/cs43l22.c **** AUDIO_DrvTypeDef cs43l22_drv = 
  88:Drivers/BSP/Components/cs43l22/cs43l22.c **** {
  89:Drivers/BSP/Components/cs43l22/cs43l22.c ****   cs43l22_Init,
  90:Drivers/BSP/Components/cs43l22/cs43l22.c ****   cs43l22_DeInit,
  91:Drivers/BSP/Components/cs43l22/cs43l22.c ****   cs43l22_ReadID,
  92:Drivers/BSP/Components/cs43l22/cs43l22.c **** 
  93:Drivers/BSP/Components/cs43l22/cs43l22.c ****   cs43l22_Play,
  94:Drivers/BSP/Components/cs43l22/cs43l22.c ****   cs43l22_Pause,
  95:Drivers/BSP/Components/cs43l22/cs43l22.c ****   cs43l22_Resume,
  96:Drivers/BSP/Components/cs43l22/cs43l22.c ****   cs43l22_Stop,  
  97:Drivers/BSP/Components/cs43l22/cs43l22.c ****   
  98:Drivers/BSP/Components/cs43l22/cs43l22.c ****   cs43l22_SetFrequency,  
  99:Drivers/BSP/Components/cs43l22/cs43l22.c ****   cs43l22_SetVolume,
 100:Drivers/BSP/Components/cs43l22/cs43l22.c ****   cs43l22_SetMute,  
 101:Drivers/BSP/Components/cs43l22/cs43l22.c ****   cs43l22_SetOutputMode,
 102:Drivers/BSP/Components/cs43l22/cs43l22.c ****   cs43l22_Reset,
 103:Drivers/BSP/Components/cs43l22/cs43l22.c **** };
 104:Drivers/BSP/Components/cs43l22/cs43l22.c **** 
 105:Drivers/BSP/Components/cs43l22/cs43l22.c **** static uint8_t Is_cs43l22_Stop = 1;
 106:Drivers/BSP/Components/cs43l22/cs43l22.c **** 
 107:Drivers/BSP/Components/cs43l22/cs43l22.c **** volatile uint8_t OutputDev = 0;
 108:Drivers/BSP/Components/cs43l22/cs43l22.c **** 
 109:Drivers/BSP/Components/cs43l22/cs43l22.c **** /**
 110:Drivers/BSP/Components/cs43l22/cs43l22.c ****   * @}
 111:Drivers/BSP/Components/cs43l22/cs43l22.c ****   */ 
 112:Drivers/BSP/Components/cs43l22/cs43l22.c **** 
 113:Drivers/BSP/Components/cs43l22/cs43l22.c **** /** @defgroup CS43L22_Function_Prototypes
 114:Drivers/BSP/Components/cs43l22/cs43l22.c ****   * @{
 115:Drivers/BSP/Components/cs43l22/cs43l22.c ****   */
 116:Drivers/BSP/Components/cs43l22/cs43l22.c **** static uint8_t CODEC_IO_Write(uint8_t Addr, uint8_t Reg, uint8_t Value);
 117:Drivers/BSP/Components/cs43l22/cs43l22.c **** /**
 118:Drivers/BSP/Components/cs43l22/cs43l22.c ****   * @}
 119:Drivers/BSP/Components/cs43l22/cs43l22.c ****   */ 
 120:Drivers/BSP/Components/cs43l22/cs43l22.c **** 
 121:Drivers/BSP/Components/cs43l22/cs43l22.c **** /** @defgroup CS43L22_Private_Functions
 122:Drivers/BSP/Components/cs43l22/cs43l22.c ****   * @{
 123:Drivers/BSP/Components/cs43l22/cs43l22.c ****   */ 
 124:Drivers/BSP/Components/cs43l22/cs43l22.c **** 
 125:Drivers/BSP/Components/cs43l22/cs43l22.c **** /**
 126:Drivers/BSP/Components/cs43l22/cs43l22.c ****   * @brief Initializes the audio codec and the control interface.
 127:Drivers/BSP/Components/cs43l22/cs43l22.c ****   * @param DeviceAddr: Device address on communication Bus.   
 128:Drivers/BSP/Components/cs43l22/cs43l22.c ****   * @param OutputDevice: can be OUTPUT_DEVICE_SPEAKER, OUTPUT_DEVICE_HEADPHONE,
 129:Drivers/BSP/Components/cs43l22/cs43l22.c ****   *                       OUTPUT_DEVICE_BOTH or OUTPUT_DEVICE_AUTO .
 130:Drivers/BSP/Components/cs43l22/cs43l22.c ****   * @param Volume: Initial volume level (from 0 (Mute) to 100 (Max))
 131:Drivers/BSP/Components/cs43l22/cs43l22.c ****   * @retval 0 if correct communication, else wrong communication
 132:Drivers/BSP/Components/cs43l22/cs43l22.c ****   */
 133:Drivers/BSP/Components/cs43l22/cs43l22.c **** uint32_t cs43l22_Init(uint16_t DeviceAddr, uint16_t OutputDevice, uint8_t Volume, uint32_t AudioFre
 134:Drivers/BSP/Components/cs43l22/cs43l22.c **** {
 135:Drivers/BSP/Components/cs43l22/cs43l22.c ****   uint32_t counter = 0;
 136:Drivers/BSP/Components/cs43l22/cs43l22.c ****   
 137:Drivers/BSP/Components/cs43l22/cs43l22.c ****   /* Initialize the Control interface of the Audio Codec */
 138:Drivers/BSP/Components/cs43l22/cs43l22.c ****   AUDIO_IO_Init();     
 139:Drivers/BSP/Components/cs43l22/cs43l22.c ****     
 140:Drivers/BSP/Components/cs43l22/cs43l22.c ****   /* Keep Codec powered OFF */
 141:Drivers/BSP/Components/cs43l22/cs43l22.c ****   counter += CODEC_IO_Write(DeviceAddr, CS43L22_REG_POWER_CTL1, 0x01);  
 142:Drivers/BSP/Components/cs43l22/cs43l22.c ****   
 143:Drivers/BSP/Components/cs43l22/cs43l22.c ****   /*Save Output device for mute ON/OFF procedure*/
ARM GAS  /var/folders/lp/x54gwt890xv47sdkqj1k04q40000gn/T//cc5wdPvT.s 			page 4


 144:Drivers/BSP/Components/cs43l22/cs43l22.c ****   switch (OutputDevice)
 145:Drivers/BSP/Components/cs43l22/cs43l22.c ****   {
 146:Drivers/BSP/Components/cs43l22/cs43l22.c ****   case OUTPUT_DEVICE_SPEAKER:
 147:Drivers/BSP/Components/cs43l22/cs43l22.c ****     OutputDev = 0xFA;
 148:Drivers/BSP/Components/cs43l22/cs43l22.c ****     break;
 149:Drivers/BSP/Components/cs43l22/cs43l22.c ****     
 150:Drivers/BSP/Components/cs43l22/cs43l22.c ****   case OUTPUT_DEVICE_HEADPHONE:
 151:Drivers/BSP/Components/cs43l22/cs43l22.c ****     OutputDev = 0xAF;
 152:Drivers/BSP/Components/cs43l22/cs43l22.c ****     break;
 153:Drivers/BSP/Components/cs43l22/cs43l22.c ****     
 154:Drivers/BSP/Components/cs43l22/cs43l22.c ****   case OUTPUT_DEVICE_BOTH:
 155:Drivers/BSP/Components/cs43l22/cs43l22.c ****     OutputDev = 0xAA;
 156:Drivers/BSP/Components/cs43l22/cs43l22.c ****     break;
 157:Drivers/BSP/Components/cs43l22/cs43l22.c ****     
 158:Drivers/BSP/Components/cs43l22/cs43l22.c ****   case OUTPUT_DEVICE_AUTO:
 159:Drivers/BSP/Components/cs43l22/cs43l22.c ****     OutputDev = 0x05;
 160:Drivers/BSP/Components/cs43l22/cs43l22.c ****     break;    
 161:Drivers/BSP/Components/cs43l22/cs43l22.c ****     
 162:Drivers/BSP/Components/cs43l22/cs43l22.c ****   default:
 163:Drivers/BSP/Components/cs43l22/cs43l22.c ****     OutputDev = 0x05;
 164:Drivers/BSP/Components/cs43l22/cs43l22.c ****     break;    
 165:Drivers/BSP/Components/cs43l22/cs43l22.c ****   }
 166:Drivers/BSP/Components/cs43l22/cs43l22.c ****   
 167:Drivers/BSP/Components/cs43l22/cs43l22.c ****   counter += CODEC_IO_Write(DeviceAddr, CS43L22_REG_POWER_CTL2, OutputDev);
 168:Drivers/BSP/Components/cs43l22/cs43l22.c ****   
 169:Drivers/BSP/Components/cs43l22/cs43l22.c ****   /* Clock configuration: Auto detection */  
 170:Drivers/BSP/Components/cs43l22/cs43l22.c ****   counter += CODEC_IO_Write(DeviceAddr, CS43L22_REG_CLOCKING_CTL, 0x81);
 171:Drivers/BSP/Components/cs43l22/cs43l22.c ****   
 172:Drivers/BSP/Components/cs43l22/cs43l22.c ****   /* Set the Slave Mode and the audio Standard */  
 173:Drivers/BSP/Components/cs43l22/cs43l22.c ****   counter += CODEC_IO_Write(DeviceAddr, CS43L22_REG_INTERFACE_CTL1, CODEC_STANDARD);
 174:Drivers/BSP/Components/cs43l22/cs43l22.c ****   
 175:Drivers/BSP/Components/cs43l22/cs43l22.c ****   /* Set the Master volume */
 176:Drivers/BSP/Components/cs43l22/cs43l22.c ****   counter += cs43l22_SetVolume(DeviceAddr, Volume);
 177:Drivers/BSP/Components/cs43l22/cs43l22.c ****   
 178:Drivers/BSP/Components/cs43l22/cs43l22.c ****   /* If the Speaker is enabled, set the Mono mode and volume attenuation level */
 179:Drivers/BSP/Components/cs43l22/cs43l22.c ****   if(OutputDevice != OUTPUT_DEVICE_HEADPHONE)
 180:Drivers/BSP/Components/cs43l22/cs43l22.c ****   {
 181:Drivers/BSP/Components/cs43l22/cs43l22.c ****     /* Set the Speaker Mono mode */  
 182:Drivers/BSP/Components/cs43l22/cs43l22.c ****     counter += CODEC_IO_Write(DeviceAddr, CS43L22_REG_PLAYBACK_CTL2, 0x06);
 183:Drivers/BSP/Components/cs43l22/cs43l22.c ****     
 184:Drivers/BSP/Components/cs43l22/cs43l22.c ****     /* Set the Speaker attenuation level */  
 185:Drivers/BSP/Components/cs43l22/cs43l22.c ****     counter += CODEC_IO_Write(DeviceAddr, CS43L22_REG_SPEAKER_A_VOL, 0x00);
 186:Drivers/BSP/Components/cs43l22/cs43l22.c ****     counter += CODEC_IO_Write(DeviceAddr, CS43L22_REG_SPEAKER_B_VOL, 0x00);
 187:Drivers/BSP/Components/cs43l22/cs43l22.c ****   }
 188:Drivers/BSP/Components/cs43l22/cs43l22.c ****   
 189:Drivers/BSP/Components/cs43l22/cs43l22.c ****   /* Additional configuration for the CODEC. These configurations are done to reduce
 190:Drivers/BSP/Components/cs43l22/cs43l22.c ****   the time needed for the Codec to power off. If these configurations are removed, 
 191:Drivers/BSP/Components/cs43l22/cs43l22.c ****   then a long delay should be added between powering off the Codec and switching 
 192:Drivers/BSP/Components/cs43l22/cs43l22.c ****   off the I2S peripheral MCLK clock (which is the operating clock for Codec).
 193:Drivers/BSP/Components/cs43l22/cs43l22.c ****   If this delay is not inserted, then the codec will not shut down properly and
 194:Drivers/BSP/Components/cs43l22/cs43l22.c ****   it results in high noise after shut down. */
 195:Drivers/BSP/Components/cs43l22/cs43l22.c ****   
 196:Drivers/BSP/Components/cs43l22/cs43l22.c ****   /* Disable the analog soft ramp */
 197:Drivers/BSP/Components/cs43l22/cs43l22.c ****   counter += CODEC_IO_Write(DeviceAddr, CS43L22_REG_ANALOG_ZC_SR_SETT, 0x00);
 198:Drivers/BSP/Components/cs43l22/cs43l22.c ****   /* Disable the digital soft ramp */
 199:Drivers/BSP/Components/cs43l22/cs43l22.c ****   counter += CODEC_IO_Write(DeviceAddr, CS43L22_REG_MISC_CTL, 0x04);
 200:Drivers/BSP/Components/cs43l22/cs43l22.c ****   /* Disable the limiter attack level */
ARM GAS  /var/folders/lp/x54gwt890xv47sdkqj1k04q40000gn/T//cc5wdPvT.s 			page 5


 201:Drivers/BSP/Components/cs43l22/cs43l22.c ****   counter += CODEC_IO_Write(DeviceAddr, CS43L22_REG_LIMIT_CTL1, 0x00);
 202:Drivers/BSP/Components/cs43l22/cs43l22.c ****   /* Adjust Bass and Treble levels */
 203:Drivers/BSP/Components/cs43l22/cs43l22.c ****   counter += CODEC_IO_Write(DeviceAddr, CS43L22_REG_TONE_CTL, 0x0F);
 204:Drivers/BSP/Components/cs43l22/cs43l22.c ****   /* Adjust PCM volume level */
 205:Drivers/BSP/Components/cs43l22/cs43l22.c ****   counter += CODEC_IO_Write(DeviceAddr, CS43L22_REG_PCMA_VOL, 0x0A);
 206:Drivers/BSP/Components/cs43l22/cs43l22.c ****   counter += CODEC_IO_Write(DeviceAddr, CS43L22_REG_PCMB_VOL, 0x0A);
 207:Drivers/BSP/Components/cs43l22/cs43l22.c ****   
 208:Drivers/BSP/Components/cs43l22/cs43l22.c ****   /* Return communication control value */
 209:Drivers/BSP/Components/cs43l22/cs43l22.c ****   return counter;  
 210:Drivers/BSP/Components/cs43l22/cs43l22.c **** }
 211:Drivers/BSP/Components/cs43l22/cs43l22.c **** 
 212:Drivers/BSP/Components/cs43l22/cs43l22.c **** /**
 213:Drivers/BSP/Components/cs43l22/cs43l22.c ****   * @brief  Deinitializes the audio codec.
 214:Drivers/BSP/Components/cs43l22/cs43l22.c ****   * @param  None
 215:Drivers/BSP/Components/cs43l22/cs43l22.c ****   * @retval  None
 216:Drivers/BSP/Components/cs43l22/cs43l22.c ****   */
 217:Drivers/BSP/Components/cs43l22/cs43l22.c **** void cs43l22_DeInit(void)
 218:Drivers/BSP/Components/cs43l22/cs43l22.c **** {
 219:Drivers/BSP/Components/cs43l22/cs43l22.c ****   /* Deinitialize Audio Codec interface */
 220:Drivers/BSP/Components/cs43l22/cs43l22.c ****   AUDIO_IO_DeInit();
 221:Drivers/BSP/Components/cs43l22/cs43l22.c **** }
 222:Drivers/BSP/Components/cs43l22/cs43l22.c **** 
 223:Drivers/BSP/Components/cs43l22/cs43l22.c **** /**
 224:Drivers/BSP/Components/cs43l22/cs43l22.c ****   * @brief  Get the CS43L22 ID.
 225:Drivers/BSP/Components/cs43l22/cs43l22.c ****   * @param DeviceAddr: Device address on communication Bus.   
 226:Drivers/BSP/Components/cs43l22/cs43l22.c ****   * @retval The CS43L22 ID 
 227:Drivers/BSP/Components/cs43l22/cs43l22.c ****   */
 228:Drivers/BSP/Components/cs43l22/cs43l22.c **** uint32_t cs43l22_ReadID(uint16_t DeviceAddr)
 229:Drivers/BSP/Components/cs43l22/cs43l22.c **** {
 230:Drivers/BSP/Components/cs43l22/cs43l22.c ****   uint8_t Value;
 231:Drivers/BSP/Components/cs43l22/cs43l22.c ****   /* Initialize the Control interface of the Audio Codec */
 232:Drivers/BSP/Components/cs43l22/cs43l22.c ****   AUDIO_IO_Init(); 
 233:Drivers/BSP/Components/cs43l22/cs43l22.c ****   
 234:Drivers/BSP/Components/cs43l22/cs43l22.c ****   Value = AUDIO_IO_Read(DeviceAddr, CS43L22_CHIPID_ADDR);
 235:Drivers/BSP/Components/cs43l22/cs43l22.c ****   Value = (Value & CS43L22_ID_MASK);
 236:Drivers/BSP/Components/cs43l22/cs43l22.c ****   
 237:Drivers/BSP/Components/cs43l22/cs43l22.c ****   return((uint32_t) Value);
 238:Drivers/BSP/Components/cs43l22/cs43l22.c **** }
 239:Drivers/BSP/Components/cs43l22/cs43l22.c **** 
 240:Drivers/BSP/Components/cs43l22/cs43l22.c **** /**
 241:Drivers/BSP/Components/cs43l22/cs43l22.c ****   * @brief Start the audio Codec play feature.
 242:Drivers/BSP/Components/cs43l22/cs43l22.c ****   * @note For this codec no Play options are required.
 243:Drivers/BSP/Components/cs43l22/cs43l22.c ****   * @param DeviceAddr: Device address on communication Bus.   
 244:Drivers/BSP/Components/cs43l22/cs43l22.c ****   * @retval 0 if correct communication, else wrong communication
 245:Drivers/BSP/Components/cs43l22/cs43l22.c ****   */
 246:Drivers/BSP/Components/cs43l22/cs43l22.c **** uint32_t cs43l22_Play(uint16_t DeviceAddr, uint16_t* pBuffer, uint16_t Size)
 247:Drivers/BSP/Components/cs43l22/cs43l22.c **** {
 248:Drivers/BSP/Components/cs43l22/cs43l22.c ****   uint32_t counter = 0;
 249:Drivers/BSP/Components/cs43l22/cs43l22.c ****   
 250:Drivers/BSP/Components/cs43l22/cs43l22.c ****   if(Is_cs43l22_Stop == 1)
 251:Drivers/BSP/Components/cs43l22/cs43l22.c ****   {
 252:Drivers/BSP/Components/cs43l22/cs43l22.c ****     /* Enable the digital soft ramp */
 253:Drivers/BSP/Components/cs43l22/cs43l22.c ****     counter += CODEC_IO_Write(DeviceAddr, CS43L22_REG_MISC_CTL, 0x06);
 254:Drivers/BSP/Components/cs43l22/cs43l22.c ****   
 255:Drivers/BSP/Components/cs43l22/cs43l22.c ****     /* Enable Output device */  
 256:Drivers/BSP/Components/cs43l22/cs43l22.c ****     counter += cs43l22_SetMute(DeviceAddr, AUDIO_MUTE_OFF);
 257:Drivers/BSP/Components/cs43l22/cs43l22.c ****     
ARM GAS  /var/folders/lp/x54gwt890xv47sdkqj1k04q40000gn/T//cc5wdPvT.s 			page 6


 258:Drivers/BSP/Components/cs43l22/cs43l22.c ****     /* Power on the Codec */
 259:Drivers/BSP/Components/cs43l22/cs43l22.c ****     counter += CODEC_IO_Write(DeviceAddr, CS43L22_REG_POWER_CTL1, 0x9E);  
 260:Drivers/BSP/Components/cs43l22/cs43l22.c ****     Is_cs43l22_Stop = 0;
 261:Drivers/BSP/Components/cs43l22/cs43l22.c ****   }
 262:Drivers/BSP/Components/cs43l22/cs43l22.c ****   
 263:Drivers/BSP/Components/cs43l22/cs43l22.c ****   /* Return communication control value */
 264:Drivers/BSP/Components/cs43l22/cs43l22.c ****   return counter;  
 265:Drivers/BSP/Components/cs43l22/cs43l22.c **** }
 266:Drivers/BSP/Components/cs43l22/cs43l22.c **** 
 267:Drivers/BSP/Components/cs43l22/cs43l22.c **** /**
 268:Drivers/BSP/Components/cs43l22/cs43l22.c ****   * @brief Pauses playing on the audio codec.
 269:Drivers/BSP/Components/cs43l22/cs43l22.c ****   * @param DeviceAddr: Device address on communication Bus. 
 270:Drivers/BSP/Components/cs43l22/cs43l22.c ****   * @retval 0 if correct communication, else wrong communication
 271:Drivers/BSP/Components/cs43l22/cs43l22.c ****   */
 272:Drivers/BSP/Components/cs43l22/cs43l22.c **** uint32_t cs43l22_Pause(uint16_t DeviceAddr)
 273:Drivers/BSP/Components/cs43l22/cs43l22.c **** {  
 274:Drivers/BSP/Components/cs43l22/cs43l22.c ****   uint32_t counter = 0;
 275:Drivers/BSP/Components/cs43l22/cs43l22.c ****  
 276:Drivers/BSP/Components/cs43l22/cs43l22.c ****   /* Pause the audio file playing */
 277:Drivers/BSP/Components/cs43l22/cs43l22.c ****   /* Mute the output first */
 278:Drivers/BSP/Components/cs43l22/cs43l22.c ****   counter += cs43l22_SetMute(DeviceAddr, AUDIO_MUTE_ON);
 279:Drivers/BSP/Components/cs43l22/cs43l22.c ****   
 280:Drivers/BSP/Components/cs43l22/cs43l22.c ****   /* Put the Codec in Power save mode */    
 281:Drivers/BSP/Components/cs43l22/cs43l22.c ****   counter += CODEC_IO_Write(DeviceAddr, CS43L22_REG_POWER_CTL1, 0x01);
 282:Drivers/BSP/Components/cs43l22/cs43l22.c ****  
 283:Drivers/BSP/Components/cs43l22/cs43l22.c ****   return counter;
 284:Drivers/BSP/Components/cs43l22/cs43l22.c **** }
 285:Drivers/BSP/Components/cs43l22/cs43l22.c **** 
 286:Drivers/BSP/Components/cs43l22/cs43l22.c **** /**
 287:Drivers/BSP/Components/cs43l22/cs43l22.c ****   * @brief Resumes playing on the audio codec.
 288:Drivers/BSP/Components/cs43l22/cs43l22.c ****   * @param DeviceAddr: Device address on communication Bus. 
 289:Drivers/BSP/Components/cs43l22/cs43l22.c ****   * @retval 0 if correct communication, else wrong communication
 290:Drivers/BSP/Components/cs43l22/cs43l22.c ****   */
 291:Drivers/BSP/Components/cs43l22/cs43l22.c **** uint32_t cs43l22_Resume(uint16_t DeviceAddr)
 292:Drivers/BSP/Components/cs43l22/cs43l22.c **** {
 293:Drivers/BSP/Components/cs43l22/cs43l22.c ****   uint32_t counter = 0;
 294:Drivers/BSP/Components/cs43l22/cs43l22.c ****   volatile uint32_t index = 0x00;
 295:Drivers/BSP/Components/cs43l22/cs43l22.c ****   /* Resumes the audio file playing */  
 296:Drivers/BSP/Components/cs43l22/cs43l22.c ****   /* Unmute the output first */
 297:Drivers/BSP/Components/cs43l22/cs43l22.c ****   counter += cs43l22_SetMute(DeviceAddr, AUDIO_MUTE_OFF);
 298:Drivers/BSP/Components/cs43l22/cs43l22.c **** 
 299:Drivers/BSP/Components/cs43l22/cs43l22.c ****   for(index = 0x00; index < 0xFF; index++);
 300:Drivers/BSP/Components/cs43l22/cs43l22.c ****   
 301:Drivers/BSP/Components/cs43l22/cs43l22.c ****   counter += CODEC_IO_Write(DeviceAddr, CS43L22_REG_POWER_CTL2, OutputDev);
 302:Drivers/BSP/Components/cs43l22/cs43l22.c **** 
 303:Drivers/BSP/Components/cs43l22/cs43l22.c ****   /* Exit the Power save mode */
 304:Drivers/BSP/Components/cs43l22/cs43l22.c ****   counter += CODEC_IO_Write(DeviceAddr, CS43L22_REG_POWER_CTL1, 0x9E); 
 305:Drivers/BSP/Components/cs43l22/cs43l22.c ****   
 306:Drivers/BSP/Components/cs43l22/cs43l22.c ****   return counter;
 307:Drivers/BSP/Components/cs43l22/cs43l22.c **** }
 308:Drivers/BSP/Components/cs43l22/cs43l22.c **** 
 309:Drivers/BSP/Components/cs43l22/cs43l22.c **** /**
 310:Drivers/BSP/Components/cs43l22/cs43l22.c ****   * @brief Stops audio Codec playing. It powers down the codec.
 311:Drivers/BSP/Components/cs43l22/cs43l22.c ****   * @param DeviceAddr: Device address on communication Bus. 
 312:Drivers/BSP/Components/cs43l22/cs43l22.c ****   * @param CodecPdwnMode: selects the  power down mode.
 313:Drivers/BSP/Components/cs43l22/cs43l22.c ****   *          - CODEC_PDWN_HW: Physically power down the codec. When resuming from this
 314:Drivers/BSP/Components/cs43l22/cs43l22.c ****   *                           mode, the codec is set to default configuration 
ARM GAS  /var/folders/lp/x54gwt890xv47sdkqj1k04q40000gn/T//cc5wdPvT.s 			page 7


 315:Drivers/BSP/Components/cs43l22/cs43l22.c ****   *                           (user should re-Initialize the codec in order to 
 316:Drivers/BSP/Components/cs43l22/cs43l22.c ****   *                            play again the audio stream).
 317:Drivers/BSP/Components/cs43l22/cs43l22.c ****   * @retval 0 if correct communication, else wrong communication
 318:Drivers/BSP/Components/cs43l22/cs43l22.c ****   */
 319:Drivers/BSP/Components/cs43l22/cs43l22.c **** uint32_t cs43l22_Stop(uint16_t DeviceAddr, uint32_t CodecPdwnMode)
 320:Drivers/BSP/Components/cs43l22/cs43l22.c **** {
 321:Drivers/BSP/Components/cs43l22/cs43l22.c ****   uint32_t counter = 0;
 322:Drivers/BSP/Components/cs43l22/cs43l22.c ****   
 323:Drivers/BSP/Components/cs43l22/cs43l22.c ****   /* Mute the output first */
 324:Drivers/BSP/Components/cs43l22/cs43l22.c ****   counter += cs43l22_SetMute(DeviceAddr, AUDIO_MUTE_ON);
 325:Drivers/BSP/Components/cs43l22/cs43l22.c **** 
 326:Drivers/BSP/Components/cs43l22/cs43l22.c ****   /* Disable the digital soft ramp */
 327:Drivers/BSP/Components/cs43l22/cs43l22.c ****   counter += CODEC_IO_Write(DeviceAddr, CS43L22_REG_MISC_CTL, 0x04);
 328:Drivers/BSP/Components/cs43l22/cs43l22.c ****   
 329:Drivers/BSP/Components/cs43l22/cs43l22.c ****   /* Power down the DAC and the speaker (PMDAC and PMSPK bits)*/
 330:Drivers/BSP/Components/cs43l22/cs43l22.c ****   counter += CODEC_IO_Write(DeviceAddr, CS43L22_REG_POWER_CTL1, 0x9F);
 331:Drivers/BSP/Components/cs43l22/cs43l22.c ****   
 332:Drivers/BSP/Components/cs43l22/cs43l22.c ****   Is_cs43l22_Stop = 1;
 333:Drivers/BSP/Components/cs43l22/cs43l22.c ****   return counter;    
 334:Drivers/BSP/Components/cs43l22/cs43l22.c **** }
 335:Drivers/BSP/Components/cs43l22/cs43l22.c **** 
 336:Drivers/BSP/Components/cs43l22/cs43l22.c **** /**
 337:Drivers/BSP/Components/cs43l22/cs43l22.c ****   * @brief Sets higher or lower the codec volume level.
 338:Drivers/BSP/Components/cs43l22/cs43l22.c ****   * @param DeviceAddr: Device address on communication Bus.   
 339:Drivers/BSP/Components/cs43l22/cs43l22.c ****   * @param Volume: a byte value from 0 to 255 (refer to codec registers 
 340:Drivers/BSP/Components/cs43l22/cs43l22.c ****   *                description for more details).
 341:Drivers/BSP/Components/cs43l22/cs43l22.c ****   *         
 342:Drivers/BSP/Components/cs43l22/cs43l22.c ****   * @retval 0 if correct communication, else wrong communication
 343:Drivers/BSP/Components/cs43l22/cs43l22.c ****   */
 344:Drivers/BSP/Components/cs43l22/cs43l22.c **** uint32_t cs43l22_SetVolume(uint16_t DeviceAddr, uint8_t Volume)
 345:Drivers/BSP/Components/cs43l22/cs43l22.c **** {
 346:Drivers/BSP/Components/cs43l22/cs43l22.c ****   uint32_t counter = 0;
 347:Drivers/BSP/Components/cs43l22/cs43l22.c ****   uint8_t convertedvol = VOLUME_CONVERT(Volume);
 348:Drivers/BSP/Components/cs43l22/cs43l22.c **** 
 349:Drivers/BSP/Components/cs43l22/cs43l22.c ****   if(convertedvol > 0xE6)
 350:Drivers/BSP/Components/cs43l22/cs43l22.c ****   {
 351:Drivers/BSP/Components/cs43l22/cs43l22.c ****     /* Set the Master volume */
 352:Drivers/BSP/Components/cs43l22/cs43l22.c ****     counter += CODEC_IO_Write(DeviceAddr, CS43L22_REG_MASTER_A_VOL, convertedvol - 0xE7); 
 353:Drivers/BSP/Components/cs43l22/cs43l22.c ****     counter += CODEC_IO_Write(DeviceAddr, CS43L22_REG_MASTER_B_VOL, convertedvol - 0xE7);     
 354:Drivers/BSP/Components/cs43l22/cs43l22.c ****   }
 355:Drivers/BSP/Components/cs43l22/cs43l22.c ****   else
 356:Drivers/BSP/Components/cs43l22/cs43l22.c ****   {
 357:Drivers/BSP/Components/cs43l22/cs43l22.c ****     /* Set the Master volume */
 358:Drivers/BSP/Components/cs43l22/cs43l22.c ****     counter += CODEC_IO_Write(DeviceAddr, CS43L22_REG_MASTER_A_VOL, convertedvol + 0x19); 
 359:Drivers/BSP/Components/cs43l22/cs43l22.c ****     counter += CODEC_IO_Write(DeviceAddr, CS43L22_REG_MASTER_B_VOL, convertedvol + 0x19); 
 360:Drivers/BSP/Components/cs43l22/cs43l22.c ****   }
 361:Drivers/BSP/Components/cs43l22/cs43l22.c **** 
 362:Drivers/BSP/Components/cs43l22/cs43l22.c ****   return counter;
 363:Drivers/BSP/Components/cs43l22/cs43l22.c **** }
 364:Drivers/BSP/Components/cs43l22/cs43l22.c **** 
 365:Drivers/BSP/Components/cs43l22/cs43l22.c **** /**
 366:Drivers/BSP/Components/cs43l22/cs43l22.c ****   * @brief Sets new frequency.
 367:Drivers/BSP/Components/cs43l22/cs43l22.c ****   * @param DeviceAddr: Device address on communication Bus.   
 368:Drivers/BSP/Components/cs43l22/cs43l22.c ****   * @param AudioFreq: Audio frequency used to play the audio stream.
 369:Drivers/BSP/Components/cs43l22/cs43l22.c ****   * @retval 0 if correct communication, else wrong communication
 370:Drivers/BSP/Components/cs43l22/cs43l22.c ****   */
 371:Drivers/BSP/Components/cs43l22/cs43l22.c **** uint32_t cs43l22_SetFrequency(uint16_t DeviceAddr, uint32_t AudioFreq)
ARM GAS  /var/folders/lp/x54gwt890xv47sdkqj1k04q40000gn/T//cc5wdPvT.s 			page 8


 372:Drivers/BSP/Components/cs43l22/cs43l22.c **** {
  30              		.loc 1 372 1 view -0
  31              		.cfi_startproc
  32              		@ args = 0, pretend = 0, frame = 0
  33              		@ frame_needed = 0, uses_anonymous_args = 0
  34              		@ link register save eliminated.
 373:Drivers/BSP/Components/cs43l22/cs43l22.c ****   return 0;
  35              		.loc 1 373 3 view .LVU1
 374:Drivers/BSP/Components/cs43l22/cs43l22.c **** }
  36              		.loc 1 374 1 is_stmt 0 view .LVU2
  37 0000 0020     		movs	r0, #0
  38              	.LVL1:
  39              		.loc 1 374 1 view .LVU3
  40 0002 7047     		bx	lr
  41              		.cfi_endproc
  42              	.LFE8:
  44              		.section	.text.cs43l22_Reset,"ax",%progbits
  45              		.align	1
  46              		.global	cs43l22_Reset
  47              		.syntax unified
  48              		.thumb
  49              		.thumb_func
  51              	cs43l22_Reset:
  52              	.LVL2:
  53              	.LFB11:
 375:Drivers/BSP/Components/cs43l22/cs43l22.c **** 
 376:Drivers/BSP/Components/cs43l22/cs43l22.c **** /**
 377:Drivers/BSP/Components/cs43l22/cs43l22.c ****   * @brief Enables or disables the mute feature on the audio codec.
 378:Drivers/BSP/Components/cs43l22/cs43l22.c ****   * @param DeviceAddr: Device address on communication Bus.   
 379:Drivers/BSP/Components/cs43l22/cs43l22.c ****   * @param Cmd: AUDIO_MUTE_ON to enable the mute or AUDIO_MUTE_OFF to disable the
 380:Drivers/BSP/Components/cs43l22/cs43l22.c ****   *             mute mode.
 381:Drivers/BSP/Components/cs43l22/cs43l22.c ****   * @retval 0 if correct communication, else wrong communication
 382:Drivers/BSP/Components/cs43l22/cs43l22.c ****   */
 383:Drivers/BSP/Components/cs43l22/cs43l22.c **** uint32_t cs43l22_SetMute(uint16_t DeviceAddr, uint32_t Cmd)
 384:Drivers/BSP/Components/cs43l22/cs43l22.c **** {
 385:Drivers/BSP/Components/cs43l22/cs43l22.c ****   uint32_t counter = 0;
 386:Drivers/BSP/Components/cs43l22/cs43l22.c ****   
 387:Drivers/BSP/Components/cs43l22/cs43l22.c ****   /* Set the Mute mode */
 388:Drivers/BSP/Components/cs43l22/cs43l22.c ****   if(Cmd == AUDIO_MUTE_ON)
 389:Drivers/BSP/Components/cs43l22/cs43l22.c ****   {
 390:Drivers/BSP/Components/cs43l22/cs43l22.c ****     counter += CODEC_IO_Write(DeviceAddr, CS43L22_REG_POWER_CTL2, 0xFF);
 391:Drivers/BSP/Components/cs43l22/cs43l22.c ****     counter += CODEC_IO_Write(DeviceAddr, CS43L22_REG_HEADPHONE_A_VOL, 0x01);
 392:Drivers/BSP/Components/cs43l22/cs43l22.c ****     counter += CODEC_IO_Write(DeviceAddr, CS43L22_REG_HEADPHONE_B_VOL, 0x01);
 393:Drivers/BSP/Components/cs43l22/cs43l22.c ****   }
 394:Drivers/BSP/Components/cs43l22/cs43l22.c ****   else /* AUDIO_MUTE_OFF Disable the Mute */
 395:Drivers/BSP/Components/cs43l22/cs43l22.c ****   {
 396:Drivers/BSP/Components/cs43l22/cs43l22.c ****     counter += CODEC_IO_Write(DeviceAddr, CS43L22_REG_HEADPHONE_A_VOL, 0x00);
 397:Drivers/BSP/Components/cs43l22/cs43l22.c ****     counter += CODEC_IO_Write(DeviceAddr, CS43L22_REG_HEADPHONE_B_VOL, 0x00);
 398:Drivers/BSP/Components/cs43l22/cs43l22.c ****     counter += CODEC_IO_Write(DeviceAddr, CS43L22_REG_POWER_CTL2, OutputDev);
 399:Drivers/BSP/Components/cs43l22/cs43l22.c ****   }
 400:Drivers/BSP/Components/cs43l22/cs43l22.c ****   return counter;
 401:Drivers/BSP/Components/cs43l22/cs43l22.c **** }
 402:Drivers/BSP/Components/cs43l22/cs43l22.c **** 
 403:Drivers/BSP/Components/cs43l22/cs43l22.c **** /**
 404:Drivers/BSP/Components/cs43l22/cs43l22.c ****   * @brief Switch dynamically (while audio file is played) the output target 
 405:Drivers/BSP/Components/cs43l22/cs43l22.c ****   *         (speaker or headphone).
 406:Drivers/BSP/Components/cs43l22/cs43l22.c ****   * @note This function modifies a global variable of the audio codec driver: OutputDev.
ARM GAS  /var/folders/lp/x54gwt890xv47sdkqj1k04q40000gn/T//cc5wdPvT.s 			page 9


 407:Drivers/BSP/Components/cs43l22/cs43l22.c ****   * @param DeviceAddr: Device address on communication Bus.
 408:Drivers/BSP/Components/cs43l22/cs43l22.c ****   * @param Output: specifies the audio output target: OUTPUT_DEVICE_SPEAKER,
 409:Drivers/BSP/Components/cs43l22/cs43l22.c ****   *         OUTPUT_DEVICE_HEADPHONE, OUTPUT_DEVICE_BOTH or OUTPUT_DEVICE_AUTO 
 410:Drivers/BSP/Components/cs43l22/cs43l22.c ****   * @retval 0 if correct communication, else wrong communication
 411:Drivers/BSP/Components/cs43l22/cs43l22.c ****   */
 412:Drivers/BSP/Components/cs43l22/cs43l22.c **** uint32_t cs43l22_SetOutputMode(uint16_t DeviceAddr, uint8_t Output)
 413:Drivers/BSP/Components/cs43l22/cs43l22.c **** {
 414:Drivers/BSP/Components/cs43l22/cs43l22.c ****   uint32_t counter = 0; 
 415:Drivers/BSP/Components/cs43l22/cs43l22.c ****   
 416:Drivers/BSP/Components/cs43l22/cs43l22.c ****   switch (Output) 
 417:Drivers/BSP/Components/cs43l22/cs43l22.c ****   {
 418:Drivers/BSP/Components/cs43l22/cs43l22.c ****     case OUTPUT_DEVICE_SPEAKER:
 419:Drivers/BSP/Components/cs43l22/cs43l22.c ****       counter += CODEC_IO_Write(DeviceAddr, CS43L22_REG_POWER_CTL2, 0xFA); /* SPK always ON & HP al
 420:Drivers/BSP/Components/cs43l22/cs43l22.c ****       OutputDev = 0xFA;
 421:Drivers/BSP/Components/cs43l22/cs43l22.c ****       break;
 422:Drivers/BSP/Components/cs43l22/cs43l22.c ****       
 423:Drivers/BSP/Components/cs43l22/cs43l22.c ****     case OUTPUT_DEVICE_HEADPHONE:
 424:Drivers/BSP/Components/cs43l22/cs43l22.c ****       counter += CODEC_IO_Write(DeviceAddr, CS43L22_REG_POWER_CTL2, 0xAF); /* SPK always OFF & HP a
 425:Drivers/BSP/Components/cs43l22/cs43l22.c ****       OutputDev = 0xAF;
 426:Drivers/BSP/Components/cs43l22/cs43l22.c ****       break;
 427:Drivers/BSP/Components/cs43l22/cs43l22.c ****       
 428:Drivers/BSP/Components/cs43l22/cs43l22.c ****     case OUTPUT_DEVICE_BOTH:
 429:Drivers/BSP/Components/cs43l22/cs43l22.c ****       counter += CODEC_IO_Write(DeviceAddr, CS43L22_REG_POWER_CTL2, 0xAA); /* SPK always ON & HP al
 430:Drivers/BSP/Components/cs43l22/cs43l22.c ****       OutputDev = 0xAA;
 431:Drivers/BSP/Components/cs43l22/cs43l22.c ****       break;
 432:Drivers/BSP/Components/cs43l22/cs43l22.c ****       
 433:Drivers/BSP/Components/cs43l22/cs43l22.c ****     case OUTPUT_DEVICE_AUTO:
 434:Drivers/BSP/Components/cs43l22/cs43l22.c ****       counter += CODEC_IO_Write(DeviceAddr, CS43L22_REG_POWER_CTL2, 0x05); /* Detect the HP or the 
 435:Drivers/BSP/Components/cs43l22/cs43l22.c ****       OutputDev = 0x05;
 436:Drivers/BSP/Components/cs43l22/cs43l22.c ****       break;    
 437:Drivers/BSP/Components/cs43l22/cs43l22.c ****       
 438:Drivers/BSP/Components/cs43l22/cs43l22.c ****     default:
 439:Drivers/BSP/Components/cs43l22/cs43l22.c ****       counter += CODEC_IO_Write(DeviceAddr, CS43L22_REG_POWER_CTL2, 0x05); /* Detect the HP or the 
 440:Drivers/BSP/Components/cs43l22/cs43l22.c ****       OutputDev = 0x05;
 441:Drivers/BSP/Components/cs43l22/cs43l22.c ****       break;
 442:Drivers/BSP/Components/cs43l22/cs43l22.c ****   }  
 443:Drivers/BSP/Components/cs43l22/cs43l22.c ****   return counter;
 444:Drivers/BSP/Components/cs43l22/cs43l22.c **** }
 445:Drivers/BSP/Components/cs43l22/cs43l22.c **** 
 446:Drivers/BSP/Components/cs43l22/cs43l22.c **** /**
 447:Drivers/BSP/Components/cs43l22/cs43l22.c ****   * @brief Resets cs43l22 registers.
 448:Drivers/BSP/Components/cs43l22/cs43l22.c ****   * @param DeviceAddr: Device address on communication Bus. 
 449:Drivers/BSP/Components/cs43l22/cs43l22.c ****   * @retval 0 if correct communication, else wrong communication
 450:Drivers/BSP/Components/cs43l22/cs43l22.c ****   */
 451:Drivers/BSP/Components/cs43l22/cs43l22.c **** uint32_t cs43l22_Reset(uint16_t DeviceAddr)
 452:Drivers/BSP/Components/cs43l22/cs43l22.c **** {
  54              		.loc 1 452 1 is_stmt 1 view -0
  55              		.cfi_startproc
  56              		@ args = 0, pretend = 0, frame = 0
  57              		@ frame_needed = 0, uses_anonymous_args = 0
  58              		@ link register save eliminated.
 453:Drivers/BSP/Components/cs43l22/cs43l22.c ****   return 0;
  59              		.loc 1 453 3 view .LVU5
 454:Drivers/BSP/Components/cs43l22/cs43l22.c **** }
  60              		.loc 1 454 1 is_stmt 0 view .LVU6
  61 0000 0020     		movs	r0, #0
  62              	.LVL3:
ARM GAS  /var/folders/lp/x54gwt890xv47sdkqj1k04q40000gn/T//cc5wdPvT.s 			page 10


  63              		.loc 1 454 1 view .LVU7
  64 0002 7047     		bx	lr
  65              		.cfi_endproc
  66              	.LFE11:
  68              		.section	.text.CODEC_IO_Write,"ax",%progbits
  69              		.align	1
  70              		.syntax unified
  71              		.thumb
  72              		.thumb_func
  74              	CODEC_IO_Write:
  75              	.LVL4:
  76              	.LFB12:
 455:Drivers/BSP/Components/cs43l22/cs43l22.c **** 
 456:Drivers/BSP/Components/cs43l22/cs43l22.c **** /**
 457:Drivers/BSP/Components/cs43l22/cs43l22.c ****   * @brief  Writes/Read a single data.
 458:Drivers/BSP/Components/cs43l22/cs43l22.c ****   * @param  Addr: I2C address
 459:Drivers/BSP/Components/cs43l22/cs43l22.c ****   * @param  Reg: Reg address 
 460:Drivers/BSP/Components/cs43l22/cs43l22.c ****   * @param  Value: Data to be written
 461:Drivers/BSP/Components/cs43l22/cs43l22.c ****   * @retval None
 462:Drivers/BSP/Components/cs43l22/cs43l22.c ****   */
 463:Drivers/BSP/Components/cs43l22/cs43l22.c **** static uint8_t CODEC_IO_Write(uint8_t Addr, uint8_t Reg, uint8_t Value)
 464:Drivers/BSP/Components/cs43l22/cs43l22.c **** {
  77              		.loc 1 464 1 is_stmt 1 view -0
  78              		.cfi_startproc
  79              		@ args = 0, pretend = 0, frame = 0
  80              		@ frame_needed = 0, uses_anonymous_args = 0
  81              		.loc 1 464 1 is_stmt 0 view .LVU9
  82 0000 08B5     		push	{r3, lr}
  83              		.cfi_def_cfa_offset 8
  84              		.cfi_offset 3, -8
  85              		.cfi_offset 14, -4
 465:Drivers/BSP/Components/cs43l22/cs43l22.c ****   uint32_t result = 0;
  86              		.loc 1 465 3 is_stmt 1 view .LVU10
  87              	.LVL5:
 466:Drivers/BSP/Components/cs43l22/cs43l22.c ****   
 467:Drivers/BSP/Components/cs43l22/cs43l22.c ****   AUDIO_IO_Write(Addr, Reg, Value);
  88              		.loc 1 467 3 view .LVU11
  89 0002 FFF7FEFF 		bl	AUDIO_IO_Write
  90              	.LVL6:
 468:Drivers/BSP/Components/cs43l22/cs43l22.c ****   
 469:Drivers/BSP/Components/cs43l22/cs43l22.c **** #ifdef VERIFY_WRITTENDATA
 470:Drivers/BSP/Components/cs43l22/cs43l22.c ****   /* Verify that the data has been correctly written */  
 471:Drivers/BSP/Components/cs43l22/cs43l22.c ****   result = (AUDIO_IO_Read(Addr, Reg) == Value)? 0:1;
 472:Drivers/BSP/Components/cs43l22/cs43l22.c **** #endif /* VERIFY_WRITTENDATA */
 473:Drivers/BSP/Components/cs43l22/cs43l22.c ****   
 474:Drivers/BSP/Components/cs43l22/cs43l22.c ****   return result;
  91              		.loc 1 474 3 view .LVU12
 475:Drivers/BSP/Components/cs43l22/cs43l22.c **** }
  92              		.loc 1 475 1 is_stmt 0 view .LVU13
  93 0006 0020     		movs	r0, #0
  94 0008 08BD     		pop	{r3, pc}
  95              		.cfi_endproc
  96              	.LFE12:
  98              		.section	.text.cs43l22_SetVolume,"ax",%progbits
  99              		.align	1
 100              		.global	cs43l22_SetVolume
 101              		.syntax unified
ARM GAS  /var/folders/lp/x54gwt890xv47sdkqj1k04q40000gn/T//cc5wdPvT.s 			page 11


 102              		.thumb
 103              		.thumb_func
 105              	cs43l22_SetVolume:
 106              	.LVL7:
 107              	.LFB7:
 345:Drivers/BSP/Components/cs43l22/cs43l22.c ****   uint32_t counter = 0;
 108              		.loc 1 345 1 is_stmt 1 view -0
 109              		.cfi_startproc
 110              		@ args = 0, pretend = 0, frame = 0
 111              		@ frame_needed = 0, uses_anonymous_args = 0
 345:Drivers/BSP/Components/cs43l22/cs43l22.c ****   uint32_t counter = 0;
 112              		.loc 1 345 1 is_stmt 0 view .LVU15
 113 0000 70B5     		push	{r4, r5, r6, lr}
 114              		.cfi_def_cfa_offset 16
 115              		.cfi_offset 4, -16
 116              		.cfi_offset 5, -12
 117              		.cfi_offset 6, -8
 118              		.cfi_offset 14, -4
 346:Drivers/BSP/Components/cs43l22/cs43l22.c ****   uint8_t convertedvol = VOLUME_CONVERT(Volume);
 119              		.loc 1 346 3 is_stmt 1 view .LVU16
 120              	.LVL8:
 347:Drivers/BSP/Components/cs43l22/cs43l22.c **** 
 121              		.loc 1 347 3 view .LVU17
 347:Drivers/BSP/Components/cs43l22/cs43l22.c **** 
 122              		.loc 1 347 11 is_stmt 0 view .LVU18
 123 0002 6429     		cmp	r1, #100
 124 0004 1AD8     		bhi	.L9
 347:Drivers/BSP/Components/cs43l22/cs43l22.c **** 
 125              		.loc 1 347 26 discriminator 1 view .LVU19
 126 0006 C1EB0121 		rsb	r1, r1, r1, lsl #8
 127              	.LVL9:
 347:Drivers/BSP/Components/cs43l22/cs43l22.c **** 
 128              		.loc 1 347 26 discriminator 1 view .LVU20
 129 000a 154B     		ldr	r3, .L12
 130 000c 83FB0123 		smull	r2, r3, r3, r1
 131 0010 C917     		asrs	r1, r1, #31
 132 0012 C1EB6312 		rsb	r2, r1, r3, asr #5
 347:Drivers/BSP/Components/cs43l22/cs43l22.c **** 
 133              		.loc 1 347 11 discriminator 1 view .LVU21
 134 0016 D2B2     		uxtb	r2, r2
 135              	.LVL10:
 349:Drivers/BSP/Components/cs43l22/cs43l22.c ****   {
 136              		.loc 1 349 3 is_stmt 1 view .LVU22
 349:Drivers/BSP/Components/cs43l22/cs43l22.c ****   {
 137              		.loc 1 349 5 is_stmt 0 view .LVU23
 138 0018 E62A     		cmp	r2, #230
 139 001a 11D9     		bls	.L11
 140              	.LVL11:
 141              	.L6:
 352:Drivers/BSP/Components/cs43l22/cs43l22.c ****     counter += CODEC_IO_Write(DeviceAddr, CS43L22_REG_MASTER_B_VOL, convertedvol - 0xE7);     
 142              		.loc 1 352 5 is_stmt 1 view .LVU24
 352:Drivers/BSP/Components/cs43l22/cs43l22.c ****     counter += CODEC_IO_Write(DeviceAddr, CS43L22_REG_MASTER_B_VOL, convertedvol - 0xE7);     
 143              		.loc 1 352 16 is_stmt 0 view .LVU25
 144 001c C5B2     		uxtb	r5, r0
 145 001e 1932     		adds	r2, r2, #25
 146 0020 D4B2     		uxtb	r4, r2
 147 0022 2246     		mov	r2, r4
ARM GAS  /var/folders/lp/x54gwt890xv47sdkqj1k04q40000gn/T//cc5wdPvT.s 			page 12


 148 0024 2021     		movs	r1, #32
 149 0026 2846     		mov	r0, r5
 150              	.LVL12:
 352:Drivers/BSP/Components/cs43l22/cs43l22.c ****     counter += CODEC_IO_Write(DeviceAddr, CS43L22_REG_MASTER_B_VOL, convertedvol - 0xE7);     
 151              		.loc 1 352 16 view .LVU26
 152 0028 FFF7FEFF 		bl	CODEC_IO_Write
 153              	.LVL13:
 154 002c 0646     		mov	r6, r0
 155              	.LVL14:
 353:Drivers/BSP/Components/cs43l22/cs43l22.c ****   }
 156              		.loc 1 353 5 is_stmt 1 view .LVU27
 353:Drivers/BSP/Components/cs43l22/cs43l22.c ****   }
 157              		.loc 1 353 16 is_stmt 0 view .LVU28
 158 002e 2246     		mov	r2, r4
 159 0030 2121     		movs	r1, #33
 160 0032 2846     		mov	r0, r5
 161              	.LVL15:
 353:Drivers/BSP/Components/cs43l22/cs43l22.c ****   }
 162              		.loc 1 353 16 view .LVU29
 163 0034 FFF7FEFF 		bl	CODEC_IO_Write
 164              	.LVL16:
 353:Drivers/BSP/Components/cs43l22/cs43l22.c ****   }
 165              		.loc 1 353 13 discriminator 1 view .LVU30
 166 0038 3044     		add	r0, r0, r6
 167              	.LVL17:
 168              	.L5:
 363:Drivers/BSP/Components/cs43l22/cs43l22.c **** 
 169              		.loc 1 363 1 view .LVU31
 170 003a 70BD     		pop	{r4, r5, r6, pc}
 171              	.LVL18:
 172              	.L9:
 347:Drivers/BSP/Components/cs43l22/cs43l22.c **** 
 173              		.loc 1 347 11 discriminator 2 view .LVU32
 174 003c FF22     		movs	r2, #255
 175 003e EDE7     		b	.L6
 176              	.LVL19:
 177              	.L11:
 358:Drivers/BSP/Components/cs43l22/cs43l22.c ****     counter += CODEC_IO_Write(DeviceAddr, CS43L22_REG_MASTER_B_VOL, convertedvol + 0x19); 
 178              		.loc 1 358 5 is_stmt 1 view .LVU33
 358:Drivers/BSP/Components/cs43l22/cs43l22.c ****     counter += CODEC_IO_Write(DeviceAddr, CS43L22_REG_MASTER_B_VOL, convertedvol + 0x19); 
 179              		.loc 1 358 16 is_stmt 0 view .LVU34
 180 0040 C5B2     		uxtb	r5, r0
 181 0042 1932     		adds	r2, r2, #25
 182              	.LVL20:
 358:Drivers/BSP/Components/cs43l22/cs43l22.c ****     counter += CODEC_IO_Write(DeviceAddr, CS43L22_REG_MASTER_B_VOL, convertedvol + 0x19); 
 183              		.loc 1 358 16 view .LVU35
 184 0044 D4B2     		uxtb	r4, r2
 185 0046 2246     		mov	r2, r4
 186              	.LVL21:
 358:Drivers/BSP/Components/cs43l22/cs43l22.c ****     counter += CODEC_IO_Write(DeviceAddr, CS43L22_REG_MASTER_B_VOL, convertedvol + 0x19); 
 187              		.loc 1 358 16 view .LVU36
 188 0048 2021     		movs	r1, #32
 189              	.LVL22:
 358:Drivers/BSP/Components/cs43l22/cs43l22.c ****     counter += CODEC_IO_Write(DeviceAddr, CS43L22_REG_MASTER_B_VOL, convertedvol + 0x19); 
 190              		.loc 1 358 16 view .LVU37
 191 004a 2846     		mov	r0, r5
 192              	.LVL23:
ARM GAS  /var/folders/lp/x54gwt890xv47sdkqj1k04q40000gn/T//cc5wdPvT.s 			page 13


 358:Drivers/BSP/Components/cs43l22/cs43l22.c ****     counter += CODEC_IO_Write(DeviceAddr, CS43L22_REG_MASTER_B_VOL, convertedvol + 0x19); 
 193              		.loc 1 358 16 view .LVU38
 194 004c FFF7FEFF 		bl	CODEC_IO_Write
 195              	.LVL24:
 358:Drivers/BSP/Components/cs43l22/cs43l22.c ****     counter += CODEC_IO_Write(DeviceAddr, CS43L22_REG_MASTER_B_VOL, convertedvol + 0x19); 
 196              		.loc 1 358 16 view .LVU39
 197 0050 0646     		mov	r6, r0
 198              	.LVL25:
 359:Drivers/BSP/Components/cs43l22/cs43l22.c ****   }
 199              		.loc 1 359 5 is_stmt 1 view .LVU40
 359:Drivers/BSP/Components/cs43l22/cs43l22.c ****   }
 200              		.loc 1 359 16 is_stmt 0 view .LVU41
 201 0052 2246     		mov	r2, r4
 202 0054 2121     		movs	r1, #33
 203 0056 2846     		mov	r0, r5
 204              	.LVL26:
 359:Drivers/BSP/Components/cs43l22/cs43l22.c ****   }
 205              		.loc 1 359 16 view .LVU42
 206 0058 FFF7FEFF 		bl	CODEC_IO_Write
 207              	.LVL27:
 359:Drivers/BSP/Components/cs43l22/cs43l22.c ****   }
 208              		.loc 1 359 13 discriminator 1 view .LVU43
 209 005c 3044     		add	r0, r0, r6
 210              	.LVL28:
 362:Drivers/BSP/Components/cs43l22/cs43l22.c **** }
 211              		.loc 1 362 3 is_stmt 1 view .LVU44
 362:Drivers/BSP/Components/cs43l22/cs43l22.c **** }
 212              		.loc 1 362 10 is_stmt 0 view .LVU45
 213 005e ECE7     		b	.L5
 214              	.L13:
 215              		.align	2
 216              	.L12:
 217 0060 1F85EB51 		.word	1374389535
 218              		.cfi_endproc
 219              	.LFE7:
 221              		.section	.text.cs43l22_Init,"ax",%progbits
 222              		.align	1
 223              		.global	cs43l22_Init
 224              		.syntax unified
 225              		.thumb
 226              		.thumb_func
 228              	cs43l22_Init:
 229              	.LVL29:
 230              	.LFB0:
 134:Drivers/BSP/Components/cs43l22/cs43l22.c ****   uint32_t counter = 0;
 231              		.loc 1 134 1 is_stmt 1 view -0
 232              		.cfi_startproc
 233              		@ args = 0, pretend = 0, frame = 0
 234              		@ frame_needed = 0, uses_anonymous_args = 0
 134:Drivers/BSP/Components/cs43l22/cs43l22.c ****   uint32_t counter = 0;
 235              		.loc 1 134 1 is_stmt 0 view .LVU47
 236 0000 2DE9F041 		push	{r4, r5, r6, r7, r8, lr}
 237              		.cfi_def_cfa_offset 24
 238              		.cfi_offset 4, -24
 239              		.cfi_offset 5, -20
 240              		.cfi_offset 6, -16
 241              		.cfi_offset 7, -12
ARM GAS  /var/folders/lp/x54gwt890xv47sdkqj1k04q40000gn/T//cc5wdPvT.s 			page 14


 242              		.cfi_offset 8, -8
 243              		.cfi_offset 14, -4
 244 0004 0746     		mov	r7, r0
 245 0006 0E46     		mov	r6, r1
 246 0008 9046     		mov	r8, r2
 135:Drivers/BSP/Components/cs43l22/cs43l22.c ****   
 247              		.loc 1 135 3 is_stmt 1 view .LVU48
 248              	.LVL30:
 138:Drivers/BSP/Components/cs43l22/cs43l22.c ****     
 249              		.loc 1 138 3 view .LVU49
 250 000a FFF7FEFF 		bl	AUDIO_IO_Init
 251              	.LVL31:
 141:Drivers/BSP/Components/cs43l22/cs43l22.c ****   
 252              		.loc 1 141 3 view .LVU50
 141:Drivers/BSP/Components/cs43l22/cs43l22.c ****   
 253              		.loc 1 141 14 is_stmt 0 view .LVU51
 254 000e FCB2     		uxtb	r4, r7
 255 0010 0122     		movs	r2, #1
 256 0012 0221     		movs	r1, #2
 257 0014 2046     		mov	r0, r4
 258 0016 FFF7FEFF 		bl	CODEC_IO_Write
 259              	.LVL32:
 260 001a 0546     		mov	r5, r0
 261              	.LVL33:
 144:Drivers/BSP/Components/cs43l22/cs43l22.c ****   {
 262              		.loc 1 144 3 is_stmt 1 view .LVU52
 263 001c 731E     		subs	r3, r6, #1
 264 001e 032B     		cmp	r3, #3
 265 0020 52D8     		bhi	.L15
 266 0022 DFE803F0 		tbb	[pc, r3]
 267              	.L17:
 268 0026 02       		.byte	(.L20-.L17)/2
 269 0027 45       		.byte	(.L19-.L17)/2
 270 0028 49       		.byte	(.L18-.L17)/2
 271 0029 4D       		.byte	(.L16-.L17)/2
 272              		.p2align 1
 273              	.L20:
 147:Drivers/BSP/Components/cs43l22/cs43l22.c ****     break;
 274              		.loc 1 147 5 view .LVU53
 147:Drivers/BSP/Components/cs43l22/cs43l22.c ****     break;
 275              		.loc 1 147 15 is_stmt 0 view .LVU54
 276 002a 334B     		ldr	r3, .L25
 277 002c FA22     		movs	r2, #250
 278 002e 1A70     		strb	r2, [r3]
 148:Drivers/BSP/Components/cs43l22/cs43l22.c ****     
 279              		.loc 1 148 5 is_stmt 1 view .LVU55
 280              	.L21:
 167:Drivers/BSP/Components/cs43l22/cs43l22.c ****   
 281              		.loc 1 167 3 view .LVU56
 167:Drivers/BSP/Components/cs43l22/cs43l22.c ****   
 282              		.loc 1 167 14 is_stmt 0 view .LVU57
 283 0030 314B     		ldr	r3, .L25
 284 0032 1A78     		ldrb	r2, [r3]	@ zero_extendqisi2
 285 0034 0421     		movs	r1, #4
 286 0036 2046     		mov	r0, r4
 287              	.LVL34:
 167:Drivers/BSP/Components/cs43l22/cs43l22.c ****   
ARM GAS  /var/folders/lp/x54gwt890xv47sdkqj1k04q40000gn/T//cc5wdPvT.s 			page 15


 288              		.loc 1 167 14 view .LVU58
 289 0038 FFF7FEFF 		bl	CODEC_IO_Write
 290              	.LVL35:
 167:Drivers/BSP/Components/cs43l22/cs43l22.c ****   
 291              		.loc 1 167 11 discriminator 1 view .LVU59
 292 003c 0544     		add	r5, r5, r0
 293              	.LVL36:
 170:Drivers/BSP/Components/cs43l22/cs43l22.c ****   
 294              		.loc 1 170 3 is_stmt 1 view .LVU60
 170:Drivers/BSP/Components/cs43l22/cs43l22.c ****   
 295              		.loc 1 170 14 is_stmt 0 view .LVU61
 296 003e 8122     		movs	r2, #129
 297 0040 0521     		movs	r1, #5
 298 0042 2046     		mov	r0, r4
 299 0044 FFF7FEFF 		bl	CODEC_IO_Write
 300              	.LVL37:
 170:Drivers/BSP/Components/cs43l22/cs43l22.c ****   
 301              		.loc 1 170 11 discriminator 1 view .LVU62
 302 0048 0544     		add	r5, r5, r0
 303              	.LVL38:
 173:Drivers/BSP/Components/cs43l22/cs43l22.c ****   
 304              		.loc 1 173 3 is_stmt 1 view .LVU63
 173:Drivers/BSP/Components/cs43l22/cs43l22.c ****   
 305              		.loc 1 173 14 is_stmt 0 view .LVU64
 306 004a 0422     		movs	r2, #4
 307 004c 0621     		movs	r1, #6
 308 004e 2046     		mov	r0, r4
 309 0050 FFF7FEFF 		bl	CODEC_IO_Write
 310              	.LVL39:
 173:Drivers/BSP/Components/cs43l22/cs43l22.c ****   
 311              		.loc 1 173 11 discriminator 1 view .LVU65
 312 0054 0544     		add	r5, r5, r0
 313              	.LVL40:
 176:Drivers/BSP/Components/cs43l22/cs43l22.c ****   
 314              		.loc 1 176 3 is_stmt 1 view .LVU66
 176:Drivers/BSP/Components/cs43l22/cs43l22.c ****   
 315              		.loc 1 176 14 is_stmt 0 view .LVU67
 316 0056 4146     		mov	r1, r8
 317 0058 3846     		mov	r0, r7
 318 005a FFF7FEFF 		bl	cs43l22_SetVolume
 319              	.LVL41:
 176:Drivers/BSP/Components/cs43l22/cs43l22.c ****   
 320              		.loc 1 176 11 discriminator 1 view .LVU68
 321 005e 0544     		add	r5, r5, r0
 322              	.LVL42:
 179:Drivers/BSP/Components/cs43l22/cs43l22.c ****   {
 323              		.loc 1 179 3 is_stmt 1 view .LVU69
 179:Drivers/BSP/Components/cs43l22/cs43l22.c ****   {
 324              		.loc 1 179 5 is_stmt 0 view .LVU70
 325 0060 022E     		cmp	r6, #2
 326 0062 35D1     		bne	.L24
 327              	.L22:
 197:Drivers/BSP/Components/cs43l22/cs43l22.c ****   /* Disable the digital soft ramp */
 328              		.loc 1 197 3 is_stmt 1 view .LVU71
 197:Drivers/BSP/Components/cs43l22/cs43l22.c ****   /* Disable the digital soft ramp */
 329              		.loc 1 197 14 is_stmt 0 view .LVU72
 330 0064 0022     		movs	r2, #0
ARM GAS  /var/folders/lp/x54gwt890xv47sdkqj1k04q40000gn/T//cc5wdPvT.s 			page 16


 331 0066 0A21     		movs	r1, #10
 332 0068 2046     		mov	r0, r4
 333 006a FFF7FEFF 		bl	CODEC_IO_Write
 334              	.LVL43:
 197:Drivers/BSP/Components/cs43l22/cs43l22.c ****   /* Disable the digital soft ramp */
 335              		.loc 1 197 11 discriminator 1 view .LVU73
 336 006e 0544     		add	r5, r5, r0
 337              	.LVL44:
 199:Drivers/BSP/Components/cs43l22/cs43l22.c ****   /* Disable the limiter attack level */
 338              		.loc 1 199 3 is_stmt 1 view .LVU74
 199:Drivers/BSP/Components/cs43l22/cs43l22.c ****   /* Disable the limiter attack level */
 339              		.loc 1 199 14 is_stmt 0 view .LVU75
 340 0070 0422     		movs	r2, #4
 341 0072 0E21     		movs	r1, #14
 342 0074 2046     		mov	r0, r4
 343 0076 FFF7FEFF 		bl	CODEC_IO_Write
 344              	.LVL45:
 199:Drivers/BSP/Components/cs43l22/cs43l22.c ****   /* Disable the limiter attack level */
 345              		.loc 1 199 11 discriminator 1 view .LVU76
 346 007a 0544     		add	r5, r5, r0
 347              	.LVL46:
 201:Drivers/BSP/Components/cs43l22/cs43l22.c ****   /* Adjust Bass and Treble levels */
 348              		.loc 1 201 3 is_stmt 1 view .LVU77
 201:Drivers/BSP/Components/cs43l22/cs43l22.c ****   /* Adjust Bass and Treble levels */
 349              		.loc 1 201 14 is_stmt 0 view .LVU78
 350 007c 0022     		movs	r2, #0
 351 007e 2721     		movs	r1, #39
 352 0080 2046     		mov	r0, r4
 353 0082 FFF7FEFF 		bl	CODEC_IO_Write
 354              	.LVL47:
 201:Drivers/BSP/Components/cs43l22/cs43l22.c ****   /* Adjust Bass and Treble levels */
 355              		.loc 1 201 11 discriminator 1 view .LVU79
 356 0086 0544     		add	r5, r5, r0
 357              	.LVL48:
 203:Drivers/BSP/Components/cs43l22/cs43l22.c ****   /* Adjust PCM volume level */
 358              		.loc 1 203 3 is_stmt 1 view .LVU80
 203:Drivers/BSP/Components/cs43l22/cs43l22.c ****   /* Adjust PCM volume level */
 359              		.loc 1 203 14 is_stmt 0 view .LVU81
 360 0088 0F22     		movs	r2, #15
 361 008a 1F21     		movs	r1, #31
 362 008c 2046     		mov	r0, r4
 363 008e FFF7FEFF 		bl	CODEC_IO_Write
 364              	.LVL49:
 203:Drivers/BSP/Components/cs43l22/cs43l22.c ****   /* Adjust PCM volume level */
 365              		.loc 1 203 11 discriminator 1 view .LVU82
 366 0092 0544     		add	r5, r5, r0
 367              	.LVL50:
 205:Drivers/BSP/Components/cs43l22/cs43l22.c ****   counter += CODEC_IO_Write(DeviceAddr, CS43L22_REG_PCMB_VOL, 0x0A);
 368              		.loc 1 205 3 is_stmt 1 view .LVU83
 205:Drivers/BSP/Components/cs43l22/cs43l22.c ****   counter += CODEC_IO_Write(DeviceAddr, CS43L22_REG_PCMB_VOL, 0x0A);
 369              		.loc 1 205 14 is_stmt 0 view .LVU84
 370 0094 0A22     		movs	r2, #10
 371 0096 1A21     		movs	r1, #26
 372 0098 2046     		mov	r0, r4
 373 009a FFF7FEFF 		bl	CODEC_IO_Write
 374              	.LVL51:
 205:Drivers/BSP/Components/cs43l22/cs43l22.c ****   counter += CODEC_IO_Write(DeviceAddr, CS43L22_REG_PCMB_VOL, 0x0A);
ARM GAS  /var/folders/lp/x54gwt890xv47sdkqj1k04q40000gn/T//cc5wdPvT.s 			page 17


 375              		.loc 1 205 11 discriminator 1 view .LVU85
 376 009e 0544     		add	r5, r5, r0
 377              	.LVL52:
 206:Drivers/BSP/Components/cs43l22/cs43l22.c ****   
 378              		.loc 1 206 3 is_stmt 1 view .LVU86
 206:Drivers/BSP/Components/cs43l22/cs43l22.c ****   
 379              		.loc 1 206 14 is_stmt 0 view .LVU87
 380 00a0 0A22     		movs	r2, #10
 381 00a2 1B21     		movs	r1, #27
 382 00a4 2046     		mov	r0, r4
 383 00a6 FFF7FEFF 		bl	CODEC_IO_Write
 384              	.LVL53:
 209:Drivers/BSP/Components/cs43l22/cs43l22.c **** }
 385              		.loc 1 209 3 is_stmt 1 view .LVU88
 210:Drivers/BSP/Components/cs43l22/cs43l22.c **** 
 386              		.loc 1 210 1 is_stmt 0 view .LVU89
 387 00aa 2844     		add	r0, r0, r5
 388              	.LVL54:
 210:Drivers/BSP/Components/cs43l22/cs43l22.c **** 
 389              		.loc 1 210 1 view .LVU90
 390 00ac BDE8F081 		pop	{r4, r5, r6, r7, r8, pc}
 391              	.LVL55:
 392              	.L19:
 151:Drivers/BSP/Components/cs43l22/cs43l22.c ****     break;
 393              		.loc 1 151 5 is_stmt 1 view .LVU91
 151:Drivers/BSP/Components/cs43l22/cs43l22.c ****     break;
 394              		.loc 1 151 15 is_stmt 0 view .LVU92
 395 00b0 114B     		ldr	r3, .L25
 396 00b2 AF22     		movs	r2, #175
 397 00b4 1A70     		strb	r2, [r3]
 152:Drivers/BSP/Components/cs43l22/cs43l22.c ****     
 398              		.loc 1 152 5 is_stmt 1 view .LVU93
 399 00b6 BBE7     		b	.L21
 400              	.L18:
 155:Drivers/BSP/Components/cs43l22/cs43l22.c ****     break;
 401              		.loc 1 155 5 view .LVU94
 155:Drivers/BSP/Components/cs43l22/cs43l22.c ****     break;
 402              		.loc 1 155 15 is_stmt 0 view .LVU95
 403 00b8 0F4B     		ldr	r3, .L25
 404 00ba AA22     		movs	r2, #170
 405 00bc 1A70     		strb	r2, [r3]
 156:Drivers/BSP/Components/cs43l22/cs43l22.c ****     
 406              		.loc 1 156 5 is_stmt 1 view .LVU96
 407 00be B7E7     		b	.L21
 408              	.L16:
 159:Drivers/BSP/Components/cs43l22/cs43l22.c ****     break;    
 409              		.loc 1 159 5 view .LVU97
 159:Drivers/BSP/Components/cs43l22/cs43l22.c ****     break;    
 410              		.loc 1 159 15 is_stmt 0 view .LVU98
 411 00c0 0D4B     		ldr	r3, .L25
 412 00c2 0522     		movs	r2, #5
 413 00c4 1A70     		strb	r2, [r3]
 160:Drivers/BSP/Components/cs43l22/cs43l22.c ****     
 414              		.loc 1 160 5 is_stmt 1 view .LVU99
 415 00c6 B3E7     		b	.L21
 416              	.L15:
 163:Drivers/BSP/Components/cs43l22/cs43l22.c ****     break;    
ARM GAS  /var/folders/lp/x54gwt890xv47sdkqj1k04q40000gn/T//cc5wdPvT.s 			page 18


 417              		.loc 1 163 5 view .LVU100
 163:Drivers/BSP/Components/cs43l22/cs43l22.c ****     break;    
 418              		.loc 1 163 15 is_stmt 0 view .LVU101
 419 00c8 0B4B     		ldr	r3, .L25
 420 00ca 0522     		movs	r2, #5
 421 00cc 1A70     		strb	r2, [r3]
 164:Drivers/BSP/Components/cs43l22/cs43l22.c ****   }
 422              		.loc 1 164 5 is_stmt 1 view .LVU102
 423 00ce AFE7     		b	.L21
 424              	.LVL56:
 425              	.L24:
 182:Drivers/BSP/Components/cs43l22/cs43l22.c ****     
 426              		.loc 1 182 5 view .LVU103
 182:Drivers/BSP/Components/cs43l22/cs43l22.c ****     
 427              		.loc 1 182 16 is_stmt 0 view .LVU104
 428 00d0 0622     		movs	r2, #6
 429 00d2 0F21     		movs	r1, #15
 430 00d4 2046     		mov	r0, r4
 431 00d6 FFF7FEFF 		bl	CODEC_IO_Write
 432              	.LVL57:
 182:Drivers/BSP/Components/cs43l22/cs43l22.c ****     
 433              		.loc 1 182 13 discriminator 1 view .LVU105
 434 00da 0544     		add	r5, r5, r0
 435              	.LVL58:
 185:Drivers/BSP/Components/cs43l22/cs43l22.c ****     counter += CODEC_IO_Write(DeviceAddr, CS43L22_REG_SPEAKER_B_VOL, 0x00);
 436              		.loc 1 185 5 is_stmt 1 view .LVU106
 185:Drivers/BSP/Components/cs43l22/cs43l22.c ****     counter += CODEC_IO_Write(DeviceAddr, CS43L22_REG_SPEAKER_B_VOL, 0x00);
 437              		.loc 1 185 16 is_stmt 0 view .LVU107
 438 00dc 0022     		movs	r2, #0
 439 00de 2421     		movs	r1, #36
 440 00e0 2046     		mov	r0, r4
 441 00e2 FFF7FEFF 		bl	CODEC_IO_Write
 442              	.LVL59:
 185:Drivers/BSP/Components/cs43l22/cs43l22.c ****     counter += CODEC_IO_Write(DeviceAddr, CS43L22_REG_SPEAKER_B_VOL, 0x00);
 443              		.loc 1 185 13 discriminator 1 view .LVU108
 444 00e6 0544     		add	r5, r5, r0
 445              	.LVL60:
 186:Drivers/BSP/Components/cs43l22/cs43l22.c ****   }
 446              		.loc 1 186 5 is_stmt 1 view .LVU109
 186:Drivers/BSP/Components/cs43l22/cs43l22.c ****   }
 447              		.loc 1 186 16 is_stmt 0 view .LVU110
 448 00e8 0022     		movs	r2, #0
 449 00ea 2521     		movs	r1, #37
 450 00ec 2046     		mov	r0, r4
 451 00ee FFF7FEFF 		bl	CODEC_IO_Write
 452              	.LVL61:
 186:Drivers/BSP/Components/cs43l22/cs43l22.c ****   }
 453              		.loc 1 186 13 discriminator 1 view .LVU111
 454 00f2 0544     		add	r5, r5, r0
 455              	.LVL62:
 186:Drivers/BSP/Components/cs43l22/cs43l22.c ****   }
 456              		.loc 1 186 13 discriminator 1 view .LVU112
 457 00f4 B6E7     		b	.L22
 458              	.L26:
 459 00f6 00BF     		.align	2
 460              	.L25:
 461 00f8 00000000 		.word	OutputDev
ARM GAS  /var/folders/lp/x54gwt890xv47sdkqj1k04q40000gn/T//cc5wdPvT.s 			page 19


 462              		.cfi_endproc
 463              	.LFE0:
 465              		.section	.text.cs43l22_SetMute,"ax",%progbits
 466              		.align	1
 467              		.global	cs43l22_SetMute
 468              		.syntax unified
 469              		.thumb
 470              		.thumb_func
 472              	cs43l22_SetMute:
 473              	.LVL63:
 474              	.LFB9:
 384:Drivers/BSP/Components/cs43l22/cs43l22.c ****   uint32_t counter = 0;
 475              		.loc 1 384 1 is_stmt 1 view -0
 476              		.cfi_startproc
 477              		@ args = 0, pretend = 0, frame = 0
 478              		@ frame_needed = 0, uses_anonymous_args = 0
 384:Drivers/BSP/Components/cs43l22/cs43l22.c ****   uint32_t counter = 0;
 479              		.loc 1 384 1 is_stmt 0 view .LVU114
 480 0000 38B5     		push	{r3, r4, r5, lr}
 481              		.cfi_def_cfa_offset 16
 482              		.cfi_offset 3, -16
 483              		.cfi_offset 4, -12
 484              		.cfi_offset 5, -8
 485              		.cfi_offset 14, -4
 385:Drivers/BSP/Components/cs43l22/cs43l22.c ****   
 486              		.loc 1 385 3 is_stmt 1 view .LVU115
 487              	.LVL64:
 388:Drivers/BSP/Components/cs43l22/cs43l22.c ****   {
 488              		.loc 1 388 3 view .LVU116
 388:Drivers/BSP/Components/cs43l22/cs43l22.c ****   {
 489              		.loc 1 388 5 is_stmt 0 view .LVU117
 490 0002 0129     		cmp	r1, #1
 491 0004 14D0     		beq	.L31
 396:Drivers/BSP/Components/cs43l22/cs43l22.c ****     counter += CODEC_IO_Write(DeviceAddr, CS43L22_REG_HEADPHONE_B_VOL, 0x00);
 492              		.loc 1 396 5 is_stmt 1 view .LVU118
 396:Drivers/BSP/Components/cs43l22/cs43l22.c ****     counter += CODEC_IO_Write(DeviceAddr, CS43L22_REG_HEADPHONE_B_VOL, 0x00);
 493              		.loc 1 396 16 is_stmt 0 view .LVU119
 494 0006 C4B2     		uxtb	r4, r0
 495 0008 0022     		movs	r2, #0
 496 000a 2221     		movs	r1, #34
 497              	.LVL65:
 396:Drivers/BSP/Components/cs43l22/cs43l22.c ****     counter += CODEC_IO_Write(DeviceAddr, CS43L22_REG_HEADPHONE_B_VOL, 0x00);
 498              		.loc 1 396 16 view .LVU120
 499 000c 2046     		mov	r0, r4
 500              	.LVL66:
 396:Drivers/BSP/Components/cs43l22/cs43l22.c ****     counter += CODEC_IO_Write(DeviceAddr, CS43L22_REG_HEADPHONE_B_VOL, 0x00);
 501              		.loc 1 396 16 view .LVU121
 502 000e FFF7FEFF 		bl	CODEC_IO_Write
 503              	.LVL67:
 504 0012 0546     		mov	r5, r0
 505              	.LVL68:
 397:Drivers/BSP/Components/cs43l22/cs43l22.c ****     counter += CODEC_IO_Write(DeviceAddr, CS43L22_REG_POWER_CTL2, OutputDev);
 506              		.loc 1 397 5 is_stmt 1 view .LVU122
 397:Drivers/BSP/Components/cs43l22/cs43l22.c ****     counter += CODEC_IO_Write(DeviceAddr, CS43L22_REG_POWER_CTL2, OutputDev);
 507              		.loc 1 397 16 is_stmt 0 view .LVU123
 508 0014 0022     		movs	r2, #0
 509 0016 2321     		movs	r1, #35
ARM GAS  /var/folders/lp/x54gwt890xv47sdkqj1k04q40000gn/T//cc5wdPvT.s 			page 20


 510 0018 2046     		mov	r0, r4
 511              	.LVL69:
 397:Drivers/BSP/Components/cs43l22/cs43l22.c ****     counter += CODEC_IO_Write(DeviceAddr, CS43L22_REG_POWER_CTL2, OutputDev);
 512              		.loc 1 397 16 view .LVU124
 513 001a FFF7FEFF 		bl	CODEC_IO_Write
 514              	.LVL70:
 397:Drivers/BSP/Components/cs43l22/cs43l22.c ****     counter += CODEC_IO_Write(DeviceAddr, CS43L22_REG_POWER_CTL2, OutputDev);
 515              		.loc 1 397 13 discriminator 1 view .LVU125
 516 001e 0544     		add	r5, r5, r0
 517              	.LVL71:
 398:Drivers/BSP/Components/cs43l22/cs43l22.c ****   }
 518              		.loc 1 398 5 is_stmt 1 view .LVU126
 398:Drivers/BSP/Components/cs43l22/cs43l22.c ****   }
 519              		.loc 1 398 16 is_stmt 0 view .LVU127
 520 0020 0D4B     		ldr	r3, .L32
 521 0022 1A78     		ldrb	r2, [r3]	@ zero_extendqisi2
 522 0024 0421     		movs	r1, #4
 523 0026 2046     		mov	r0, r4
 524 0028 FFF7FEFF 		bl	CODEC_IO_Write
 525              	.LVL72:
 398:Drivers/BSP/Components/cs43l22/cs43l22.c ****   }
 526              		.loc 1 398 13 discriminator 1 view .LVU128
 527 002c 2844     		add	r0, r0, r5
 528              	.LVL73:
 400:Drivers/BSP/Components/cs43l22/cs43l22.c **** }
 529              		.loc 1 400 3 is_stmt 1 view .LVU129
 530              	.L27:
 401:Drivers/BSP/Components/cs43l22/cs43l22.c **** 
 531              		.loc 1 401 1 is_stmt 0 view .LVU130
 532 002e 38BD     		pop	{r3, r4, r5, pc}
 533              	.LVL74:
 534              	.L31:
 390:Drivers/BSP/Components/cs43l22/cs43l22.c ****     counter += CODEC_IO_Write(DeviceAddr, CS43L22_REG_HEADPHONE_A_VOL, 0x01);
 535              		.loc 1 390 5 is_stmt 1 view .LVU131
 390:Drivers/BSP/Components/cs43l22/cs43l22.c ****     counter += CODEC_IO_Write(DeviceAddr, CS43L22_REG_HEADPHONE_A_VOL, 0x01);
 536              		.loc 1 390 16 is_stmt 0 view .LVU132
 537 0030 C4B2     		uxtb	r4, r0
 538 0032 FF22     		movs	r2, #255
 539 0034 0421     		movs	r1, #4
 540              	.LVL75:
 390:Drivers/BSP/Components/cs43l22/cs43l22.c ****     counter += CODEC_IO_Write(DeviceAddr, CS43L22_REG_HEADPHONE_A_VOL, 0x01);
 541              		.loc 1 390 16 view .LVU133
 542 0036 2046     		mov	r0, r4
 543              	.LVL76:
 390:Drivers/BSP/Components/cs43l22/cs43l22.c ****     counter += CODEC_IO_Write(DeviceAddr, CS43L22_REG_HEADPHONE_A_VOL, 0x01);
 544              		.loc 1 390 16 view .LVU134
 545 0038 FFF7FEFF 		bl	CODEC_IO_Write
 546              	.LVL77:
 547 003c 0546     		mov	r5, r0
 548              	.LVL78:
 391:Drivers/BSP/Components/cs43l22/cs43l22.c ****     counter += CODEC_IO_Write(DeviceAddr, CS43L22_REG_HEADPHONE_B_VOL, 0x01);
 549              		.loc 1 391 5 is_stmt 1 view .LVU135
 391:Drivers/BSP/Components/cs43l22/cs43l22.c ****     counter += CODEC_IO_Write(DeviceAddr, CS43L22_REG_HEADPHONE_B_VOL, 0x01);
 550              		.loc 1 391 16 is_stmt 0 view .LVU136
 551 003e 0122     		movs	r2, #1
 552 0040 2221     		movs	r1, #34
 553 0042 2046     		mov	r0, r4
ARM GAS  /var/folders/lp/x54gwt890xv47sdkqj1k04q40000gn/T//cc5wdPvT.s 			page 21


 554              	.LVL79:
 391:Drivers/BSP/Components/cs43l22/cs43l22.c ****     counter += CODEC_IO_Write(DeviceAddr, CS43L22_REG_HEADPHONE_B_VOL, 0x01);
 555              		.loc 1 391 16 view .LVU137
 556 0044 FFF7FEFF 		bl	CODEC_IO_Write
 557              	.LVL80:
 391:Drivers/BSP/Components/cs43l22/cs43l22.c ****     counter += CODEC_IO_Write(DeviceAddr, CS43L22_REG_HEADPHONE_B_VOL, 0x01);
 558              		.loc 1 391 13 discriminator 1 view .LVU138
 559 0048 0544     		add	r5, r5, r0
 560              	.LVL81:
 392:Drivers/BSP/Components/cs43l22/cs43l22.c ****   }
 561              		.loc 1 392 5 is_stmt 1 view .LVU139
 392:Drivers/BSP/Components/cs43l22/cs43l22.c ****   }
 562              		.loc 1 392 16 is_stmt 0 view .LVU140
 563 004a 0122     		movs	r2, #1
 564 004c 2321     		movs	r1, #35
 565 004e 2046     		mov	r0, r4
 566 0050 FFF7FEFF 		bl	CODEC_IO_Write
 567              	.LVL82:
 392:Drivers/BSP/Components/cs43l22/cs43l22.c ****   }
 568              		.loc 1 392 13 discriminator 1 view .LVU141
 569 0054 2844     		add	r0, r0, r5
 570              	.LVL83:
 392:Drivers/BSP/Components/cs43l22/cs43l22.c ****   }
 571              		.loc 1 392 13 discriminator 1 view .LVU142
 572 0056 EAE7     		b	.L27
 573              	.L33:
 574              		.align	2
 575              	.L32:
 576 0058 00000000 		.word	OutputDev
 577              		.cfi_endproc
 578              	.LFE9:
 580              		.section	.text.cs43l22_Play,"ax",%progbits
 581              		.align	1
 582              		.global	cs43l22_Play
 583              		.syntax unified
 584              		.thumb
 585              		.thumb_func
 587              	cs43l22_Play:
 588              	.LVL84:
 589              	.LFB3:
 247:Drivers/BSP/Components/cs43l22/cs43l22.c ****   uint32_t counter = 0;
 590              		.loc 1 247 1 is_stmt 1 view -0
 591              		.cfi_startproc
 592              		@ args = 0, pretend = 0, frame = 0
 593              		@ frame_needed = 0, uses_anonymous_args = 0
 248:Drivers/BSP/Components/cs43l22/cs43l22.c ****   
 594              		.loc 1 248 3 view .LVU144
 250:Drivers/BSP/Components/cs43l22/cs43l22.c ****   {
 595              		.loc 1 250 3 view .LVU145
 250:Drivers/BSP/Components/cs43l22/cs43l22.c ****   {
 596              		.loc 1 250 22 is_stmt 0 view .LVU146
 597 0000 0E4B     		ldr	r3, .L42
 598 0002 1B78     		ldrb	r3, [r3]	@ zero_extendqisi2
 250:Drivers/BSP/Components/cs43l22/cs43l22.c ****   {
 599              		.loc 1 250 5 view .LVU147
 600 0004 012B     		cmp	r3, #1
 601 0006 01D0     		beq	.L41
ARM GAS  /var/folders/lp/x54gwt890xv47sdkqj1k04q40000gn/T//cc5wdPvT.s 			page 22


 248:Drivers/BSP/Components/cs43l22/cs43l22.c ****   
 602              		.loc 1 248 12 view .LVU148
 603 0008 0020     		movs	r0, #0
 604              	.LVL85:
 264:Drivers/BSP/Components/cs43l22/cs43l22.c **** }
 605              		.loc 1 264 3 is_stmt 1 view .LVU149
 265:Drivers/BSP/Components/cs43l22/cs43l22.c **** 
 606              		.loc 1 265 1 is_stmt 0 view .LVU150
 607 000a 7047     		bx	lr
 608              	.LVL86:
 609              	.L41:
 247:Drivers/BSP/Components/cs43l22/cs43l22.c ****   uint32_t counter = 0;
 610              		.loc 1 247 1 view .LVU151
 611 000c 70B5     		push	{r4, r5, r6, lr}
 612              		.cfi_def_cfa_offset 16
 613              		.cfi_offset 4, -16
 614              		.cfi_offset 5, -12
 615              		.cfi_offset 6, -8
 616              		.cfi_offset 14, -4
 617 000e 0446     		mov	r4, r0
 253:Drivers/BSP/Components/cs43l22/cs43l22.c ****   
 618              		.loc 1 253 5 is_stmt 1 view .LVU152
 253:Drivers/BSP/Components/cs43l22/cs43l22.c ****   
 619              		.loc 1 253 16 is_stmt 0 view .LVU153
 620 0010 C6B2     		uxtb	r6, r0
 621 0012 0622     		movs	r2, #6
 622              	.LVL87:
 253:Drivers/BSP/Components/cs43l22/cs43l22.c ****   
 623              		.loc 1 253 16 view .LVU154
 624 0014 0E21     		movs	r1, #14
 625              	.LVL88:
 253:Drivers/BSP/Components/cs43l22/cs43l22.c ****   
 626              		.loc 1 253 16 view .LVU155
 627 0016 3046     		mov	r0, r6
 628              	.LVL89:
 253:Drivers/BSP/Components/cs43l22/cs43l22.c ****   
 629              		.loc 1 253 16 view .LVU156
 630 0018 FFF7FEFF 		bl	CODEC_IO_Write
 631              	.LVL90:
 632 001c 0546     		mov	r5, r0
 633              	.LVL91:
 256:Drivers/BSP/Components/cs43l22/cs43l22.c ****     
 634              		.loc 1 256 5 is_stmt 1 view .LVU157
 256:Drivers/BSP/Components/cs43l22/cs43l22.c ****     
 635              		.loc 1 256 16 is_stmt 0 view .LVU158
 636 001e 0021     		movs	r1, #0
 637 0020 2046     		mov	r0, r4
 638              	.LVL92:
 256:Drivers/BSP/Components/cs43l22/cs43l22.c ****     
 639              		.loc 1 256 16 view .LVU159
 640 0022 FFF7FEFF 		bl	cs43l22_SetMute
 641              	.LVL93:
 256:Drivers/BSP/Components/cs43l22/cs43l22.c ****     
 642              		.loc 1 256 13 discriminator 1 view .LVU160
 643 0026 0544     		add	r5, r5, r0
 644              	.LVL94:
 259:Drivers/BSP/Components/cs43l22/cs43l22.c ****     Is_cs43l22_Stop = 0;
ARM GAS  /var/folders/lp/x54gwt890xv47sdkqj1k04q40000gn/T//cc5wdPvT.s 			page 23


 645              		.loc 1 259 5 is_stmt 1 view .LVU161
 259:Drivers/BSP/Components/cs43l22/cs43l22.c ****     Is_cs43l22_Stop = 0;
 646              		.loc 1 259 16 is_stmt 0 view .LVU162
 647 0028 9E22     		movs	r2, #158
 648 002a 0221     		movs	r1, #2
 649 002c 3046     		mov	r0, r6
 650 002e FFF7FEFF 		bl	CODEC_IO_Write
 651              	.LVL95:
 259:Drivers/BSP/Components/cs43l22/cs43l22.c ****     Is_cs43l22_Stop = 0;
 652              		.loc 1 259 13 discriminator 1 view .LVU163
 653 0032 2844     		add	r0, r0, r5
 654              	.LVL96:
 260:Drivers/BSP/Components/cs43l22/cs43l22.c ****   }
 655              		.loc 1 260 5 is_stmt 1 view .LVU164
 260:Drivers/BSP/Components/cs43l22/cs43l22.c ****   }
 656              		.loc 1 260 21 is_stmt 0 view .LVU165
 657 0034 014B     		ldr	r3, .L42
 658 0036 0022     		movs	r2, #0
 659 0038 1A70     		strb	r2, [r3]
 265:Drivers/BSP/Components/cs43l22/cs43l22.c **** 
 660              		.loc 1 265 1 view .LVU166
 661 003a 70BD     		pop	{r4, r5, r6, pc}
 662              	.L43:
 663              		.align	2
 664              	.L42:
 665 003c 00000000 		.word	Is_cs43l22_Stop
 666              		.cfi_endproc
 667              	.LFE3:
 669              		.section	.text.cs43l22_Pause,"ax",%progbits
 670              		.align	1
 671              		.global	cs43l22_Pause
 672              		.syntax unified
 673              		.thumb
 674              		.thumb_func
 676              	cs43l22_Pause:
 677              	.LVL97:
 678              	.LFB4:
 273:Drivers/BSP/Components/cs43l22/cs43l22.c ****   uint32_t counter = 0;
 679              		.loc 1 273 1 is_stmt 1 view -0
 680              		.cfi_startproc
 681              		@ args = 0, pretend = 0, frame = 0
 682              		@ frame_needed = 0, uses_anonymous_args = 0
 273:Drivers/BSP/Components/cs43l22/cs43l22.c ****   uint32_t counter = 0;
 683              		.loc 1 273 1 is_stmt 0 view .LVU168
 684 0000 38B5     		push	{r3, r4, r5, lr}
 685              		.cfi_def_cfa_offset 16
 686              		.cfi_offset 3, -16
 687              		.cfi_offset 4, -12
 688              		.cfi_offset 5, -8
 689              		.cfi_offset 14, -4
 690 0002 0546     		mov	r5, r0
 274:Drivers/BSP/Components/cs43l22/cs43l22.c ****  
 691              		.loc 1 274 3 is_stmt 1 view .LVU169
 692              	.LVL98:
 278:Drivers/BSP/Components/cs43l22/cs43l22.c ****   
 693              		.loc 1 278 3 view .LVU170
 278:Drivers/BSP/Components/cs43l22/cs43l22.c ****   
ARM GAS  /var/folders/lp/x54gwt890xv47sdkqj1k04q40000gn/T//cc5wdPvT.s 			page 24


 694              		.loc 1 278 14 is_stmt 0 view .LVU171
 695 0004 0121     		movs	r1, #1
 696 0006 FFF7FEFF 		bl	cs43l22_SetMute
 697              	.LVL99:
 278:Drivers/BSP/Components/cs43l22/cs43l22.c ****   
 698              		.loc 1 278 14 view .LVU172
 699 000a 0446     		mov	r4, r0
 700              	.LVL100:
 281:Drivers/BSP/Components/cs43l22/cs43l22.c ****  
 701              		.loc 1 281 3 is_stmt 1 view .LVU173
 281:Drivers/BSP/Components/cs43l22/cs43l22.c ****  
 702              		.loc 1 281 14 is_stmt 0 view .LVU174
 703 000c 0122     		movs	r2, #1
 704 000e 0221     		movs	r1, #2
 705 0010 E8B2     		uxtb	r0, r5
 706              	.LVL101:
 281:Drivers/BSP/Components/cs43l22/cs43l22.c ****  
 707              		.loc 1 281 14 view .LVU175
 708 0012 FFF7FEFF 		bl	CODEC_IO_Write
 709              	.LVL102:
 283:Drivers/BSP/Components/cs43l22/cs43l22.c **** }
 710              		.loc 1 283 3 is_stmt 1 view .LVU176
 284:Drivers/BSP/Components/cs43l22/cs43l22.c **** 
 711              		.loc 1 284 1 is_stmt 0 view .LVU177
 712 0016 2044     		add	r0, r0, r4
 713              	.LVL103:
 284:Drivers/BSP/Components/cs43l22/cs43l22.c **** 
 714              		.loc 1 284 1 view .LVU178
 715 0018 38BD     		pop	{r3, r4, r5, pc}
 284:Drivers/BSP/Components/cs43l22/cs43l22.c **** 
 716              		.loc 1 284 1 view .LVU179
 717              		.cfi_endproc
 718              	.LFE4:
 720              		.section	.text.cs43l22_Resume,"ax",%progbits
 721              		.align	1
 722              		.global	cs43l22_Resume
 723              		.syntax unified
 724              		.thumb
 725              		.thumb_func
 727              	cs43l22_Resume:
 728              	.LVL104:
 729              	.LFB5:
 292:Drivers/BSP/Components/cs43l22/cs43l22.c ****   uint32_t counter = 0;
 730              		.loc 1 292 1 is_stmt 1 view -0
 731              		.cfi_startproc
 732              		@ args = 0, pretend = 0, frame = 8
 733              		@ frame_needed = 0, uses_anonymous_args = 0
 292:Drivers/BSP/Components/cs43l22/cs43l22.c ****   uint32_t counter = 0;
 734              		.loc 1 292 1 is_stmt 0 view .LVU181
 735 0000 70B5     		push	{r4, r5, r6, lr}
 736              		.cfi_def_cfa_offset 16
 737              		.cfi_offset 4, -16
 738              		.cfi_offset 5, -12
 739              		.cfi_offset 6, -8
 740              		.cfi_offset 14, -4
 741 0002 82B0     		sub	sp, sp, #8
 742              		.cfi_def_cfa_offset 24
ARM GAS  /var/folders/lp/x54gwt890xv47sdkqj1k04q40000gn/T//cc5wdPvT.s 			page 25


 743 0004 0446     		mov	r4, r0
 293:Drivers/BSP/Components/cs43l22/cs43l22.c ****   volatile uint32_t index = 0x00;
 744              		.loc 1 293 3 is_stmt 1 view .LVU182
 745              	.LVL105:
 294:Drivers/BSP/Components/cs43l22/cs43l22.c ****   /* Resumes the audio file playing */  
 746              		.loc 1 294 3 view .LVU183
 294:Drivers/BSP/Components/cs43l22/cs43l22.c ****   /* Resumes the audio file playing */  
 747              		.loc 1 294 21 is_stmt 0 view .LVU184
 748 0006 0026     		movs	r6, #0
 749 0008 0196     		str	r6, [sp, #4]
 297:Drivers/BSP/Components/cs43l22/cs43l22.c **** 
 750              		.loc 1 297 3 is_stmt 1 view .LVU185
 297:Drivers/BSP/Components/cs43l22/cs43l22.c **** 
 751              		.loc 1 297 14 is_stmt 0 view .LVU186
 752 000a 3146     		mov	r1, r6
 753 000c FFF7FEFF 		bl	cs43l22_SetMute
 754              	.LVL106:
 297:Drivers/BSP/Components/cs43l22/cs43l22.c **** 
 755              		.loc 1 297 14 view .LVU187
 756 0010 0546     		mov	r5, r0
 757              	.LVL107:
 299:Drivers/BSP/Components/cs43l22/cs43l22.c ****   
 758              		.loc 1 299 3 is_stmt 1 view .LVU188
 299:Drivers/BSP/Components/cs43l22/cs43l22.c ****   
 759              		.loc 1 299 13 is_stmt 0 view .LVU189
 760 0012 0196     		str	r6, [sp, #4]
 299:Drivers/BSP/Components/cs43l22/cs43l22.c ****   
 761              		.loc 1 299 3 view .LVU190
 762 0014 02E0     		b	.L47
 763              	.L48:
 299:Drivers/BSP/Components/cs43l22/cs43l22.c ****   
 764              		.loc 1 299 40 is_stmt 1 discriminator 3 view .LVU191
 765 0016 019B     		ldr	r3, [sp, #4]
 766 0018 0133     		adds	r3, r3, #1
 767 001a 0193     		str	r3, [sp, #4]
 768              	.L47:
 299:Drivers/BSP/Components/cs43l22/cs43l22.c ****   
 769              		.loc 1 299 27 discriminator 1 view .LVU192
 770 001c 019B     		ldr	r3, [sp, #4]
 771 001e FE2B     		cmp	r3, #254
 772 0020 F9D9     		bls	.L48
 301:Drivers/BSP/Components/cs43l22/cs43l22.c **** 
 773              		.loc 1 301 3 view .LVU193
 301:Drivers/BSP/Components/cs43l22/cs43l22.c **** 
 774              		.loc 1 301 14 is_stmt 0 view .LVU194
 775 0022 E4B2     		uxtb	r4, r4
 776              	.LVL108:
 301:Drivers/BSP/Components/cs43l22/cs43l22.c **** 
 777              		.loc 1 301 14 view .LVU195
 778 0024 074B     		ldr	r3, .L50
 779 0026 1A78     		ldrb	r2, [r3]	@ zero_extendqisi2
 780 0028 0421     		movs	r1, #4
 781 002a 2046     		mov	r0, r4
 782              	.LVL109:
 301:Drivers/BSP/Components/cs43l22/cs43l22.c **** 
 783              		.loc 1 301 14 view .LVU196
 784 002c FFF7FEFF 		bl	CODEC_IO_Write
ARM GAS  /var/folders/lp/x54gwt890xv47sdkqj1k04q40000gn/T//cc5wdPvT.s 			page 26


 785              	.LVL110:
 301:Drivers/BSP/Components/cs43l22/cs43l22.c **** 
 786              		.loc 1 301 11 discriminator 1 view .LVU197
 787 0030 0544     		add	r5, r5, r0
 788              	.LVL111:
 304:Drivers/BSP/Components/cs43l22/cs43l22.c ****   
 789              		.loc 1 304 3 is_stmt 1 view .LVU198
 304:Drivers/BSP/Components/cs43l22/cs43l22.c ****   
 790              		.loc 1 304 14 is_stmt 0 view .LVU199
 791 0032 9E22     		movs	r2, #158
 792 0034 0221     		movs	r1, #2
 793 0036 2046     		mov	r0, r4
 794 0038 FFF7FEFF 		bl	CODEC_IO_Write
 795              	.LVL112:
 306:Drivers/BSP/Components/cs43l22/cs43l22.c **** }
 796              		.loc 1 306 3 is_stmt 1 view .LVU200
 307:Drivers/BSP/Components/cs43l22/cs43l22.c **** 
 797              		.loc 1 307 1 is_stmt 0 view .LVU201
 798 003c 2844     		add	r0, r0, r5
 799              	.LVL113:
 307:Drivers/BSP/Components/cs43l22/cs43l22.c **** 
 800              		.loc 1 307 1 view .LVU202
 801 003e 02B0     		add	sp, sp, #8
 802              		.cfi_def_cfa_offset 16
 803              		@ sp needed
 804 0040 70BD     		pop	{r4, r5, r6, pc}
 805              	.L51:
 806 0042 00BF     		.align	2
 807              	.L50:
 808 0044 00000000 		.word	OutputDev
 809              		.cfi_endproc
 810              	.LFE5:
 812              		.section	.text.cs43l22_Stop,"ax",%progbits
 813              		.align	1
 814              		.global	cs43l22_Stop
 815              		.syntax unified
 816              		.thumb
 817              		.thumb_func
 819              	cs43l22_Stop:
 820              	.LVL114:
 821              	.LFB6:
 320:Drivers/BSP/Components/cs43l22/cs43l22.c ****   uint32_t counter = 0;
 822              		.loc 1 320 1 is_stmt 1 view -0
 823              		.cfi_startproc
 824              		@ args = 0, pretend = 0, frame = 0
 825              		@ frame_needed = 0, uses_anonymous_args = 0
 320:Drivers/BSP/Components/cs43l22/cs43l22.c ****   uint32_t counter = 0;
 826              		.loc 1 320 1 is_stmt 0 view .LVU204
 827 0000 38B5     		push	{r3, r4, r5, lr}
 828              		.cfi_def_cfa_offset 16
 829              		.cfi_offset 3, -16
 830              		.cfi_offset 4, -12
 831              		.cfi_offset 5, -8
 832              		.cfi_offset 14, -4
 833 0002 0446     		mov	r4, r0
 321:Drivers/BSP/Components/cs43l22/cs43l22.c ****   
 834              		.loc 1 321 3 is_stmt 1 view .LVU205
ARM GAS  /var/folders/lp/x54gwt890xv47sdkqj1k04q40000gn/T//cc5wdPvT.s 			page 27


 835              	.LVL115:
 324:Drivers/BSP/Components/cs43l22/cs43l22.c **** 
 836              		.loc 1 324 3 view .LVU206
 324:Drivers/BSP/Components/cs43l22/cs43l22.c **** 
 837              		.loc 1 324 14 is_stmt 0 view .LVU207
 838 0004 0121     		movs	r1, #1
 839              	.LVL116:
 324:Drivers/BSP/Components/cs43l22/cs43l22.c **** 
 840              		.loc 1 324 14 view .LVU208
 841 0006 FFF7FEFF 		bl	cs43l22_SetMute
 842              	.LVL117:
 324:Drivers/BSP/Components/cs43l22/cs43l22.c **** 
 843              		.loc 1 324 14 view .LVU209
 844 000a 0546     		mov	r5, r0
 845              	.LVL118:
 327:Drivers/BSP/Components/cs43l22/cs43l22.c ****   
 846              		.loc 1 327 3 is_stmt 1 view .LVU210
 327:Drivers/BSP/Components/cs43l22/cs43l22.c ****   
 847              		.loc 1 327 14 is_stmt 0 view .LVU211
 848 000c E4B2     		uxtb	r4, r4
 849              	.LVL119:
 327:Drivers/BSP/Components/cs43l22/cs43l22.c ****   
 850              		.loc 1 327 14 view .LVU212
 851 000e 0422     		movs	r2, #4
 852 0010 0E21     		movs	r1, #14
 853 0012 2046     		mov	r0, r4
 854              	.LVL120:
 327:Drivers/BSP/Components/cs43l22/cs43l22.c ****   
 855              		.loc 1 327 14 view .LVU213
 856 0014 FFF7FEFF 		bl	CODEC_IO_Write
 857              	.LVL121:
 327:Drivers/BSP/Components/cs43l22/cs43l22.c ****   
 858              		.loc 1 327 11 discriminator 1 view .LVU214
 859 0018 0544     		add	r5, r5, r0
 860              	.LVL122:
 330:Drivers/BSP/Components/cs43l22/cs43l22.c ****   
 861              		.loc 1 330 3 is_stmt 1 view .LVU215
 330:Drivers/BSP/Components/cs43l22/cs43l22.c ****   
 862              		.loc 1 330 14 is_stmt 0 view .LVU216
 863 001a 9F22     		movs	r2, #159
 864 001c 0221     		movs	r1, #2
 865 001e 2046     		mov	r0, r4
 866 0020 FFF7FEFF 		bl	CODEC_IO_Write
 867              	.LVL123:
 332:Drivers/BSP/Components/cs43l22/cs43l22.c ****   return counter;    
 868              		.loc 1 332 3 is_stmt 1 view .LVU217
 332:Drivers/BSP/Components/cs43l22/cs43l22.c ****   return counter;    
 869              		.loc 1 332 19 is_stmt 0 view .LVU218
 870 0024 024B     		ldr	r3, .L54
 871 0026 0122     		movs	r2, #1
 872 0028 1A70     		strb	r2, [r3]
 333:Drivers/BSP/Components/cs43l22/cs43l22.c **** }
 873              		.loc 1 333 3 is_stmt 1 view .LVU219
 334:Drivers/BSP/Components/cs43l22/cs43l22.c **** 
 874              		.loc 1 334 1 is_stmt 0 view .LVU220
 875 002a 2844     		add	r0, r0, r5
 876              	.LVL124:
ARM GAS  /var/folders/lp/x54gwt890xv47sdkqj1k04q40000gn/T//cc5wdPvT.s 			page 28


 334:Drivers/BSP/Components/cs43l22/cs43l22.c **** 
 877              		.loc 1 334 1 view .LVU221
 878 002c 38BD     		pop	{r3, r4, r5, pc}
 879              	.L55:
 880 002e 00BF     		.align	2
 881              	.L54:
 882 0030 00000000 		.word	Is_cs43l22_Stop
 883              		.cfi_endproc
 884              	.LFE6:
 886              		.section	.text.cs43l22_SetOutputMode,"ax",%progbits
 887              		.align	1
 888              		.global	cs43l22_SetOutputMode
 889              		.syntax unified
 890              		.thumb
 891              		.thumb_func
 893              	cs43l22_SetOutputMode:
 894              	.LVL125:
 895              	.LFB10:
 413:Drivers/BSP/Components/cs43l22/cs43l22.c ****   uint32_t counter = 0; 
 896              		.loc 1 413 1 is_stmt 1 view -0
 897              		.cfi_startproc
 898              		@ args = 0, pretend = 0, frame = 0
 899              		@ frame_needed = 0, uses_anonymous_args = 0
 413:Drivers/BSP/Components/cs43l22/cs43l22.c ****   uint32_t counter = 0; 
 900              		.loc 1 413 1 is_stmt 0 view .LVU223
 901 0000 08B5     		push	{r3, lr}
 902              		.cfi_def_cfa_offset 8
 903              		.cfi_offset 3, -8
 904              		.cfi_offset 14, -4
 414:Drivers/BSP/Components/cs43l22/cs43l22.c ****   
 905              		.loc 1 414 3 is_stmt 1 view .LVU224
 906              	.LVL126:
 416:Drivers/BSP/Components/cs43l22/cs43l22.c ****   {
 907              		.loc 1 416 3 view .LVU225
 908 0002 0139     		subs	r1, r1, #1
 909              	.LVL127:
 416:Drivers/BSP/Components/cs43l22/cs43l22.c ****   {
 910              		.loc 1 416 3 is_stmt 0 view .LVU226
 911 0004 0329     		cmp	r1, #3
 912 0006 27D8     		bhi	.L57
 913 0008 DFE801F0 		tbb	[pc, r1]
 914              	.L59:
 915 000c 02       		.byte	(.L62-.L59)/2
 916 000d 0B       		.byte	(.L61-.L59)/2
 917 000e 14       		.byte	(.L60-.L59)/2
 918 000f 1D       		.byte	(.L58-.L59)/2
 919              		.p2align 1
 920              	.L62:
 419:Drivers/BSP/Components/cs43l22/cs43l22.c ****       OutputDev = 0xFA;
 921              		.loc 1 419 7 is_stmt 1 view .LVU227
 419:Drivers/BSP/Components/cs43l22/cs43l22.c ****       OutputDev = 0xFA;
 922              		.loc 1 419 18 is_stmt 0 view .LVU228
 923 0010 FA22     		movs	r2, #250
 924 0012 0421     		movs	r1, #4
 925              	.LVL128:
 419:Drivers/BSP/Components/cs43l22/cs43l22.c ****       OutputDev = 0xFA;
 926              		.loc 1 419 18 view .LVU229
ARM GAS  /var/folders/lp/x54gwt890xv47sdkqj1k04q40000gn/T//cc5wdPvT.s 			page 29


 927 0014 C0B2     		uxtb	r0, r0
 928              	.LVL129:
 419:Drivers/BSP/Components/cs43l22/cs43l22.c ****       OutputDev = 0xFA;
 929              		.loc 1 419 18 view .LVU230
 930 0016 FFF7FEFF 		bl	CODEC_IO_Write
 931              	.LVL130:
 420:Drivers/BSP/Components/cs43l22/cs43l22.c ****       break;
 932              		.loc 1 420 7 is_stmt 1 view .LVU231
 420:Drivers/BSP/Components/cs43l22/cs43l22.c ****       break;
 933              		.loc 1 420 17 is_stmt 0 view .LVU232
 934 001a 144B     		ldr	r3, .L65
 935 001c FA22     		movs	r2, #250
 936 001e 1A70     		strb	r2, [r3]
 421:Drivers/BSP/Components/cs43l22/cs43l22.c ****       
 937              		.loc 1 421 7 is_stmt 1 view .LVU233
 938              	.LVL131:
 939              	.L56:
 444:Drivers/BSP/Components/cs43l22/cs43l22.c **** 
 940              		.loc 1 444 1 is_stmt 0 view .LVU234
 941 0020 08BD     		pop	{r3, pc}
 942              	.LVL132:
 943              	.L61:
 424:Drivers/BSP/Components/cs43l22/cs43l22.c ****       OutputDev = 0xAF;
 944              		.loc 1 424 7 is_stmt 1 view .LVU235
 424:Drivers/BSP/Components/cs43l22/cs43l22.c ****       OutputDev = 0xAF;
 945              		.loc 1 424 18 is_stmt 0 view .LVU236
 946 0022 AF22     		movs	r2, #175
 947 0024 0421     		movs	r1, #4
 948 0026 C0B2     		uxtb	r0, r0
 949              	.LVL133:
 424:Drivers/BSP/Components/cs43l22/cs43l22.c ****       OutputDev = 0xAF;
 950              		.loc 1 424 18 view .LVU237
 951 0028 FFF7FEFF 		bl	CODEC_IO_Write
 952              	.LVL134:
 425:Drivers/BSP/Components/cs43l22/cs43l22.c ****       break;
 953              		.loc 1 425 7 is_stmt 1 view .LVU238
 425:Drivers/BSP/Components/cs43l22/cs43l22.c ****       break;
 954              		.loc 1 425 17 is_stmt 0 view .LVU239
 955 002c 0F4B     		ldr	r3, .L65
 956 002e AF22     		movs	r2, #175
 957 0030 1A70     		strb	r2, [r3]
 426:Drivers/BSP/Components/cs43l22/cs43l22.c ****       
 958              		.loc 1 426 7 is_stmt 1 view .LVU240
 959 0032 F5E7     		b	.L56
 960              	.LVL135:
 961              	.L60:
 429:Drivers/BSP/Components/cs43l22/cs43l22.c ****       OutputDev = 0xAA;
 962              		.loc 1 429 7 view .LVU241
 429:Drivers/BSP/Components/cs43l22/cs43l22.c ****       OutputDev = 0xAA;
 963              		.loc 1 429 18 is_stmt 0 view .LVU242
 964 0034 AA22     		movs	r2, #170
 965 0036 0421     		movs	r1, #4
 966 0038 C0B2     		uxtb	r0, r0
 967              	.LVL136:
 429:Drivers/BSP/Components/cs43l22/cs43l22.c ****       OutputDev = 0xAA;
 968              		.loc 1 429 18 view .LVU243
 969 003a FFF7FEFF 		bl	CODEC_IO_Write
ARM GAS  /var/folders/lp/x54gwt890xv47sdkqj1k04q40000gn/T//cc5wdPvT.s 			page 30


 970              	.LVL137:
 430:Drivers/BSP/Components/cs43l22/cs43l22.c ****       break;
 971              		.loc 1 430 7 is_stmt 1 view .LVU244
 430:Drivers/BSP/Components/cs43l22/cs43l22.c ****       break;
 972              		.loc 1 430 17 is_stmt 0 view .LVU245
 973 003e 0B4B     		ldr	r3, .L65
 974 0040 AA22     		movs	r2, #170
 975 0042 1A70     		strb	r2, [r3]
 431:Drivers/BSP/Components/cs43l22/cs43l22.c ****       
 976              		.loc 1 431 7 is_stmt 1 view .LVU246
 977 0044 ECE7     		b	.L56
 978              	.LVL138:
 979              	.L58:
 434:Drivers/BSP/Components/cs43l22/cs43l22.c ****       OutputDev = 0x05;
 980              		.loc 1 434 7 view .LVU247
 434:Drivers/BSP/Components/cs43l22/cs43l22.c ****       OutputDev = 0x05;
 981              		.loc 1 434 18 is_stmt 0 view .LVU248
 982 0046 0522     		movs	r2, #5
 983 0048 0421     		movs	r1, #4
 984 004a C0B2     		uxtb	r0, r0
 985              	.LVL139:
 434:Drivers/BSP/Components/cs43l22/cs43l22.c ****       OutputDev = 0x05;
 986              		.loc 1 434 18 view .LVU249
 987 004c FFF7FEFF 		bl	CODEC_IO_Write
 988              	.LVL140:
 435:Drivers/BSP/Components/cs43l22/cs43l22.c ****       break;    
 989              		.loc 1 435 7 is_stmt 1 view .LVU250
 435:Drivers/BSP/Components/cs43l22/cs43l22.c ****       break;    
 990              		.loc 1 435 17 is_stmt 0 view .LVU251
 991 0050 064B     		ldr	r3, .L65
 992 0052 0522     		movs	r2, #5
 993 0054 1A70     		strb	r2, [r3]
 436:Drivers/BSP/Components/cs43l22/cs43l22.c ****       
 994              		.loc 1 436 7 is_stmt 1 view .LVU252
 995 0056 E3E7     		b	.L56
 996              	.LVL141:
 997              	.L57:
 439:Drivers/BSP/Components/cs43l22/cs43l22.c ****       OutputDev = 0x05;
 998              		.loc 1 439 7 view .LVU253
 439:Drivers/BSP/Components/cs43l22/cs43l22.c ****       OutputDev = 0x05;
 999              		.loc 1 439 18 is_stmt 0 view .LVU254
 1000 0058 0522     		movs	r2, #5
 1001 005a 0421     		movs	r1, #4
 1002 005c C0B2     		uxtb	r0, r0
 1003              	.LVL142:
 439:Drivers/BSP/Components/cs43l22/cs43l22.c ****       OutputDev = 0x05;
 1004              		.loc 1 439 18 view .LVU255
 1005 005e FFF7FEFF 		bl	CODEC_IO_Write
 1006              	.LVL143:
 440:Drivers/BSP/Components/cs43l22/cs43l22.c ****       break;
 1007              		.loc 1 440 7 is_stmt 1 view .LVU256
 440:Drivers/BSP/Components/cs43l22/cs43l22.c ****       break;
 1008              		.loc 1 440 17 is_stmt 0 view .LVU257
 1009 0062 024B     		ldr	r3, .L65
 1010 0064 0522     		movs	r2, #5
 1011 0066 1A70     		strb	r2, [r3]
 441:Drivers/BSP/Components/cs43l22/cs43l22.c ****   }  
ARM GAS  /var/folders/lp/x54gwt890xv47sdkqj1k04q40000gn/T//cc5wdPvT.s 			page 31


 1012              		.loc 1 441 7 is_stmt 1 view .LVU258
 443:Drivers/BSP/Components/cs43l22/cs43l22.c **** }
 1013              		.loc 1 443 3 view .LVU259
 443:Drivers/BSP/Components/cs43l22/cs43l22.c **** }
 1014              		.loc 1 443 10 is_stmt 0 view .LVU260
 1015 0068 DAE7     		b	.L56
 1016              	.L66:
 1017 006a 00BF     		.align	2
 1018              	.L65:
 1019 006c 00000000 		.word	OutputDev
 1020              		.cfi_endproc
 1021              	.LFE10:
 1023              		.section	.text.cs43l22_DeInit,"ax",%progbits
 1024              		.align	1
 1025              		.global	cs43l22_DeInit
 1026              		.syntax unified
 1027              		.thumb
 1028              		.thumb_func
 1030              	cs43l22_DeInit:
 1031              	.LFB1:
 218:Drivers/BSP/Components/cs43l22/cs43l22.c ****   /* Deinitialize Audio Codec interface */
 1032              		.loc 1 218 1 is_stmt 1 view -0
 1033              		.cfi_startproc
 1034              		@ args = 0, pretend = 0, frame = 0
 1035              		@ frame_needed = 0, uses_anonymous_args = 0
 1036 0000 08B5     		push	{r3, lr}
 1037              		.cfi_def_cfa_offset 8
 1038              		.cfi_offset 3, -8
 1039              		.cfi_offset 14, -4
 220:Drivers/BSP/Components/cs43l22/cs43l22.c **** }
 1040              		.loc 1 220 3 view .LVU262
 1041 0002 FFF7FEFF 		bl	AUDIO_IO_DeInit
 1042              	.LVL144:
 221:Drivers/BSP/Components/cs43l22/cs43l22.c **** 
 1043              		.loc 1 221 1 is_stmt 0 view .LVU263
 1044 0006 08BD     		pop	{r3, pc}
 1045              		.cfi_endproc
 1046              	.LFE1:
 1048              		.section	.text.cs43l22_ReadID,"ax",%progbits
 1049              		.align	1
 1050              		.global	cs43l22_ReadID
 1051              		.syntax unified
 1052              		.thumb
 1053              		.thumb_func
 1055              	cs43l22_ReadID:
 1056              	.LVL145:
 1057              	.LFB2:
 229:Drivers/BSP/Components/cs43l22/cs43l22.c ****   uint8_t Value;
 1058              		.loc 1 229 1 is_stmt 1 view -0
 1059              		.cfi_startproc
 1060              		@ args = 0, pretend = 0, frame = 0
 1061              		@ frame_needed = 0, uses_anonymous_args = 0
 229:Drivers/BSP/Components/cs43l22/cs43l22.c ****   uint8_t Value;
 1062              		.loc 1 229 1 is_stmt 0 view .LVU265
 1063 0000 10B5     		push	{r4, lr}
 1064              		.cfi_def_cfa_offset 8
 1065              		.cfi_offset 4, -8
ARM GAS  /var/folders/lp/x54gwt890xv47sdkqj1k04q40000gn/T//cc5wdPvT.s 			page 32


 1066              		.cfi_offset 14, -4
 1067 0002 0446     		mov	r4, r0
 230:Drivers/BSP/Components/cs43l22/cs43l22.c ****   /* Initialize the Control interface of the Audio Codec */
 1068              		.loc 1 230 3 is_stmt 1 view .LVU266
 232:Drivers/BSP/Components/cs43l22/cs43l22.c ****   
 1069              		.loc 1 232 3 view .LVU267
 1070 0004 FFF7FEFF 		bl	AUDIO_IO_Init
 1071              	.LVL146:
 234:Drivers/BSP/Components/cs43l22/cs43l22.c ****   Value = (Value & CS43L22_ID_MASK);
 1072              		.loc 1 234 3 view .LVU268
 234:Drivers/BSP/Components/cs43l22/cs43l22.c ****   Value = (Value & CS43L22_ID_MASK);
 1073              		.loc 1 234 11 is_stmt 0 view .LVU269
 1074 0008 0121     		movs	r1, #1
 1075 000a E0B2     		uxtb	r0, r4
 1076 000c FFF7FEFF 		bl	AUDIO_IO_Read
 1077              	.LVL147:
 235:Drivers/BSP/Components/cs43l22/cs43l22.c ****   
 1078              		.loc 1 235 3 is_stmt 1 view .LVU270
 237:Drivers/BSP/Components/cs43l22/cs43l22.c **** }
 1079              		.loc 1 237 3 view .LVU271
 238:Drivers/BSP/Components/cs43l22/cs43l22.c **** 
 1080              		.loc 1 238 1 is_stmt 0 view .LVU272
 1081 0010 00F0F800 		and	r0, r0, #248
 1082              	.LVL148:
 238:Drivers/BSP/Components/cs43l22/cs43l22.c **** 
 1083              		.loc 1 238 1 view .LVU273
 1084 0014 10BD     		pop	{r4, pc}
 238:Drivers/BSP/Components/cs43l22/cs43l22.c **** 
 1085              		.loc 1 238 1 view .LVU274
 1086              		.cfi_endproc
 1087              	.LFE2:
 1089              		.global	OutputDev
 1090              		.section	.bss.OutputDev,"aw",%nobits
 1093              	OutputDev:
 1094 0000 00       		.space	1
 1095              		.section	.data.Is_cs43l22_Stop,"aw"
 1098              	Is_cs43l22_Stop:
 1099 0000 01       		.byte	1
 1100              		.global	cs43l22_drv
 1101              		.section	.data.cs43l22_drv,"aw"
 1102              		.align	2
 1105              	cs43l22_drv:
 1106 0000 00000000 		.word	cs43l22_Init
 1107 0004 00000000 		.word	cs43l22_DeInit
 1108 0008 00000000 		.word	cs43l22_ReadID
 1109 000c 00000000 		.word	cs43l22_Play
 1110 0010 00000000 		.word	cs43l22_Pause
 1111 0014 00000000 		.word	cs43l22_Resume
 1112 0018 00000000 		.word	cs43l22_Stop
 1113 001c 00000000 		.word	cs43l22_SetFrequency
 1114 0020 00000000 		.word	cs43l22_SetVolume
 1115 0024 00000000 		.word	cs43l22_SetMute
 1116 0028 00000000 		.word	cs43l22_SetOutputMode
 1117 002c 00000000 		.word	cs43l22_Reset
 1118              		.text
 1119              	.Letext0:
 1120              		.file 2 "/Users/jr/Library/Application Support/Code/User/globalStorage/bmd.stm32-for-vscode/@xpack
ARM GAS  /var/folders/lp/x54gwt890xv47sdkqj1k04q40000gn/T//cc5wdPvT.s 			page 33


 1121              		.file 3 "/Users/jr/Library/Application Support/Code/User/globalStorage/bmd.stm32-for-vscode/@xpack
 1122              		.file 4 "Drivers/BSP/Components/cs43l22/../Common/audio.h"
 1123              		.file 5 "Drivers/BSP/Components/cs43l22/cs43l22.h"
ARM GAS  /var/folders/lp/x54gwt890xv47sdkqj1k04q40000gn/T//cc5wdPvT.s 			page 34

