ARM GAS  /var/folders/lp/x54gwt890xv47sdkqj1k04q40000gn/T//cckMI9OH.s 			page 1


   1              		.cpu cortex-m4
   2              		.arch armv7e-m
   3              		.fpu fpv4-sp-d16
   4              		.eabi_attribute 27, 1
   5              		.eabi_attribute 28, 1
   6              		.eabi_attribute 20, 1
   7              		.eabi_attribute 21, 1
   8              		.eabi_attribute 23, 3
   9              		.eabi_attribute 24, 1
  10              		.eabi_attribute 25, 1
  11              		.eabi_attribute 26, 1
  12              		.eabi_attribute 30, 1
  13              		.eabi_attribute 34, 1
  14              		.eabi_attribute 18, 4
  15              		.file	"lv_calendar_header_arrow.c"
  16              		.text
  17              	.Ltext0:
  18              		.cfi_sections	.debug_frame
  19              		.file 1 "Drivers/lvgl/src/extra/widgets/calendar/lv_calendar_header_arrow.c"
  20              		.section	.rodata.my_constructor.str1.4,"aMS",%progbits,1
  21              		.align	2
  22              	.LC0:
  23 0000 EF819300 		.ascii	"\357\201\223\000"
  24              		.align	2
  25              	.LC1:
  26 0004 EF819400 		.ascii	"\357\201\224\000"
  27              		.section	.text.my_constructor,"ax",%progbits
  28              		.align	1
  29              		.syntax unified
  30              		.thumb
  31              		.thumb_func
  33              	my_constructor:
  34              	.LVL0:
  35              	.LFB167:
   1:Drivers/lvgl/src/extra/widgets/calendar/lv_calendar_header_arrow.c **** /**
   2:Drivers/lvgl/src/extra/widgets/calendar/lv_calendar_header_arrow.c ****  * @file lv_calendar_header_arrow.c
   3:Drivers/lvgl/src/extra/widgets/calendar/lv_calendar_header_arrow.c ****  *
   4:Drivers/lvgl/src/extra/widgets/calendar/lv_calendar_header_arrow.c ****  */
   5:Drivers/lvgl/src/extra/widgets/calendar/lv_calendar_header_arrow.c **** 
   6:Drivers/lvgl/src/extra/widgets/calendar/lv_calendar_header_arrow.c **** /*********************
   7:Drivers/lvgl/src/extra/widgets/calendar/lv_calendar_header_arrow.c ****  *      INCLUDES
   8:Drivers/lvgl/src/extra/widgets/calendar/lv_calendar_header_arrow.c ****  *********************/
   9:Drivers/lvgl/src/extra/widgets/calendar/lv_calendar_header_arrow.c **** #include "lv_calendar_header_arrow.h"
  10:Drivers/lvgl/src/extra/widgets/calendar/lv_calendar_header_arrow.c **** #if LV_USE_CALENDAR_HEADER_ARROW
  11:Drivers/lvgl/src/extra/widgets/calendar/lv_calendar_header_arrow.c **** 
  12:Drivers/lvgl/src/extra/widgets/calendar/lv_calendar_header_arrow.c **** #include "lv_calendar.h"
  13:Drivers/lvgl/src/extra/widgets/calendar/lv_calendar_header_arrow.c **** #include "../../../widgets/lv_btn.h"
  14:Drivers/lvgl/src/extra/widgets/calendar/lv_calendar_header_arrow.c **** #include "../../../widgets/lv_label.h"
  15:Drivers/lvgl/src/extra/widgets/calendar/lv_calendar_header_arrow.c **** #include "../../layouts/flex/lv_flex.h"
  16:Drivers/lvgl/src/extra/widgets/calendar/lv_calendar_header_arrow.c **** 
  17:Drivers/lvgl/src/extra/widgets/calendar/lv_calendar_header_arrow.c **** /*********************
  18:Drivers/lvgl/src/extra/widgets/calendar/lv_calendar_header_arrow.c ****  *      DEFINES
  19:Drivers/lvgl/src/extra/widgets/calendar/lv_calendar_header_arrow.c ****  *********************/
  20:Drivers/lvgl/src/extra/widgets/calendar/lv_calendar_header_arrow.c **** 
  21:Drivers/lvgl/src/extra/widgets/calendar/lv_calendar_header_arrow.c **** /**********************
  22:Drivers/lvgl/src/extra/widgets/calendar/lv_calendar_header_arrow.c ****  *      TYPEDEFS
  23:Drivers/lvgl/src/extra/widgets/calendar/lv_calendar_header_arrow.c ****  **********************/
ARM GAS  /var/folders/lp/x54gwt890xv47sdkqj1k04q40000gn/T//cckMI9OH.s 			page 2


  24:Drivers/lvgl/src/extra/widgets/calendar/lv_calendar_header_arrow.c **** 
  25:Drivers/lvgl/src/extra/widgets/calendar/lv_calendar_header_arrow.c **** /**********************
  26:Drivers/lvgl/src/extra/widgets/calendar/lv_calendar_header_arrow.c ****  *  STATIC PROTOTYPES
  27:Drivers/lvgl/src/extra/widgets/calendar/lv_calendar_header_arrow.c ****  **********************/
  28:Drivers/lvgl/src/extra/widgets/calendar/lv_calendar_header_arrow.c **** static void my_constructor(const lv_obj_class_t * class_p, lv_obj_t * obj);
  29:Drivers/lvgl/src/extra/widgets/calendar/lv_calendar_header_arrow.c **** static void month_event_cb(lv_event_t * e);
  30:Drivers/lvgl/src/extra/widgets/calendar/lv_calendar_header_arrow.c **** static void value_changed_event_cb(lv_event_t * e);
  31:Drivers/lvgl/src/extra/widgets/calendar/lv_calendar_header_arrow.c **** 
  32:Drivers/lvgl/src/extra/widgets/calendar/lv_calendar_header_arrow.c **** /**********************
  33:Drivers/lvgl/src/extra/widgets/calendar/lv_calendar_header_arrow.c ****  *  STATIC VARIABLES
  34:Drivers/lvgl/src/extra/widgets/calendar/lv_calendar_header_arrow.c ****  **********************/
  35:Drivers/lvgl/src/extra/widgets/calendar/lv_calendar_header_arrow.c **** const lv_obj_class_t lv_calendar_header_arrow_class = {
  36:Drivers/lvgl/src/extra/widgets/calendar/lv_calendar_header_arrow.c ****     .base_class = &lv_obj_class,
  37:Drivers/lvgl/src/extra/widgets/calendar/lv_calendar_header_arrow.c ****     .constructor_cb = my_constructor,
  38:Drivers/lvgl/src/extra/widgets/calendar/lv_calendar_header_arrow.c ****     .width_def = LV_PCT(100),
  39:Drivers/lvgl/src/extra/widgets/calendar/lv_calendar_header_arrow.c ****     .height_def = LV_DPI_DEF / 3
  40:Drivers/lvgl/src/extra/widgets/calendar/lv_calendar_header_arrow.c **** };
  41:Drivers/lvgl/src/extra/widgets/calendar/lv_calendar_header_arrow.c **** 
  42:Drivers/lvgl/src/extra/widgets/calendar/lv_calendar_header_arrow.c **** static const char * month_names_def[12] = LV_CALENDAR_DEFAULT_MONTH_NAMES;
  43:Drivers/lvgl/src/extra/widgets/calendar/lv_calendar_header_arrow.c **** 
  44:Drivers/lvgl/src/extra/widgets/calendar/lv_calendar_header_arrow.c **** /**********************
  45:Drivers/lvgl/src/extra/widgets/calendar/lv_calendar_header_arrow.c ****  *      MACROS
  46:Drivers/lvgl/src/extra/widgets/calendar/lv_calendar_header_arrow.c ****  **********************/
  47:Drivers/lvgl/src/extra/widgets/calendar/lv_calendar_header_arrow.c **** 
  48:Drivers/lvgl/src/extra/widgets/calendar/lv_calendar_header_arrow.c **** /**********************
  49:Drivers/lvgl/src/extra/widgets/calendar/lv_calendar_header_arrow.c ****  *   GLOBAL FUNCTIONS
  50:Drivers/lvgl/src/extra/widgets/calendar/lv_calendar_header_arrow.c ****  **********************/
  51:Drivers/lvgl/src/extra/widgets/calendar/lv_calendar_header_arrow.c **** 
  52:Drivers/lvgl/src/extra/widgets/calendar/lv_calendar_header_arrow.c **** lv_obj_t * lv_calendar_header_arrow_create(lv_obj_t * parent)
  53:Drivers/lvgl/src/extra/widgets/calendar/lv_calendar_header_arrow.c **** {
  54:Drivers/lvgl/src/extra/widgets/calendar/lv_calendar_header_arrow.c ****     lv_obj_t * obj = lv_obj_class_create_obj(&lv_calendar_header_arrow_class, parent);
  55:Drivers/lvgl/src/extra/widgets/calendar/lv_calendar_header_arrow.c ****     lv_obj_class_init_obj(obj);
  56:Drivers/lvgl/src/extra/widgets/calendar/lv_calendar_header_arrow.c ****     return obj;
  57:Drivers/lvgl/src/extra/widgets/calendar/lv_calendar_header_arrow.c **** }
  58:Drivers/lvgl/src/extra/widgets/calendar/lv_calendar_header_arrow.c **** 
  59:Drivers/lvgl/src/extra/widgets/calendar/lv_calendar_header_arrow.c **** /**********************
  60:Drivers/lvgl/src/extra/widgets/calendar/lv_calendar_header_arrow.c ****  *  STATIC FUNCTIONS
  61:Drivers/lvgl/src/extra/widgets/calendar/lv_calendar_header_arrow.c ****  **********************/
  62:Drivers/lvgl/src/extra/widgets/calendar/lv_calendar_header_arrow.c **** 
  63:Drivers/lvgl/src/extra/widgets/calendar/lv_calendar_header_arrow.c **** static void my_constructor(const lv_obj_class_t * class_p, lv_obj_t * obj)
  64:Drivers/lvgl/src/extra/widgets/calendar/lv_calendar_header_arrow.c **** {
  36              		.loc 1 64 1 view -0
  37              		.cfi_startproc
  38              		@ args = 0, pretend = 0, frame = 0
  39              		@ frame_needed = 0, uses_anonymous_args = 0
  40              		.loc 1 64 1 is_stmt 0 view .LVU1
  41 0000 F8B5     		push	{r3, r4, r5, r6, r7, lr}
  42              		.cfi_def_cfa_offset 24
  43              		.cfi_offset 3, -24
  44              		.cfi_offset 4, -20
  45              		.cfi_offset 5, -16
  46              		.cfi_offset 6, -12
  47              		.cfi_offset 7, -8
  48              		.cfi_offset 14, -4
  49 0002 0C46     		mov	r4, r1
  65:Drivers/lvgl/src/extra/widgets/calendar/lv_calendar_header_arrow.c ****     LV_TRACE_OBJ_CREATE("begin");
  50              		.loc 1 65 33 is_stmt 1 view .LVU2
ARM GAS  /var/folders/lp/x54gwt890xv47sdkqj1k04q40000gn/T//cckMI9OH.s 			page 3


  66:Drivers/lvgl/src/extra/widgets/calendar/lv_calendar_header_arrow.c **** 
  67:Drivers/lvgl/src/extra/widgets/calendar/lv_calendar_header_arrow.c ****     LV_UNUSED(class_p);
  51              		.loc 1 67 5 view .LVU3
  68:Drivers/lvgl/src/extra/widgets/calendar/lv_calendar_header_arrow.c **** 
  69:Drivers/lvgl/src/extra/widgets/calendar/lv_calendar_header_arrow.c ****     lv_obj_move_to_index(obj, 0);
  52              		.loc 1 69 5 view .LVU4
  53 0004 0021     		movs	r1, #0
  54              	.LVL1:
  55              		.loc 1 69 5 is_stmt 0 view .LVU5
  56 0006 2046     		mov	r0, r4
  57              	.LVL2:
  58              		.loc 1 69 5 view .LVU6
  59 0008 FFF7FEFF 		bl	lv_obj_move_to_index
  60              	.LVL3:
  70:Drivers/lvgl/src/extra/widgets/calendar/lv_calendar_header_arrow.c **** 
  71:Drivers/lvgl/src/extra/widgets/calendar/lv_calendar_header_arrow.c ****     lv_obj_set_flex_flow(obj, LV_FLEX_FLOW_ROW);
  61              		.loc 1 71 5 is_stmt 1 view .LVU7
  62 000c 0021     		movs	r1, #0
  63 000e 2046     		mov	r0, r4
  64 0010 FFF7FEFF 		bl	lv_obj_set_flex_flow
  65              	.LVL4:
  72:Drivers/lvgl/src/extra/widgets/calendar/lv_calendar_header_arrow.c ****     lv_obj_set_flex_align(obj, LV_FLEX_ALIGN_START, LV_FLEX_ALIGN_CENTER, LV_FLEX_ALIGN_START);
  66              		.loc 1 72 5 view .LVU8
  67 0014 0023     		movs	r3, #0
  68 0016 0222     		movs	r2, #2
  69 0018 1946     		mov	r1, r3
  70 001a 2046     		mov	r0, r4
  71 001c FFF7FEFF 		bl	lv_obj_set_flex_align
  72              	.LVL5:
  73:Drivers/lvgl/src/extra/widgets/calendar/lv_calendar_header_arrow.c **** 
  74:Drivers/lvgl/src/extra/widgets/calendar/lv_calendar_header_arrow.c ****     lv_obj_t * mo_prev = lv_btn_create(obj);
  73              		.loc 1 74 5 view .LVU9
  74              		.loc 1 74 26 is_stmt 0 view .LVU10
  75 0020 2046     		mov	r0, r4
  76 0022 FFF7FEFF 		bl	lv_btn_create
  77              	.LVL6:
  78 0026 0546     		mov	r5, r0
  79              	.LVL7:
  75:Drivers/lvgl/src/extra/widgets/calendar/lv_calendar_header_arrow.c ****     lv_obj_set_style_bg_img_src(mo_prev, LV_SYMBOL_LEFT, 0);
  80              		.loc 1 75 5 is_stmt 1 view .LVU11
  81 0028 0022     		movs	r2, #0
  82 002a 2849     		ldr	r1, .L3
  83 002c FFF7FEFF 		bl	lv_obj_set_style_bg_img_src
  84              	.LVL8:
  76:Drivers/lvgl/src/extra/widgets/calendar/lv_calendar_header_arrow.c ****     lv_obj_set_height(mo_prev, lv_pct(100));
  85              		.loc 1 76 5 view .LVU12
  86              		.loc 1 76 5 is_stmt 0 discriminator 1 view .LVU13
  87 0030 42F26401 		movw	r1, #8292
  88 0034 2846     		mov	r0, r5
  89 0036 FFF7FEFF 		bl	lv_obj_set_height
  90              	.LVL9:
  77:Drivers/lvgl/src/extra/widgets/calendar/lv_calendar_header_arrow.c ****     lv_obj_update_layout(mo_prev);
  91              		.loc 1 77 5 is_stmt 1 view .LVU14
  92 003a 2846     		mov	r0, r5
  93 003c FFF7FEFF 		bl	lv_obj_update_layout
  94              	.LVL10:
  78:Drivers/lvgl/src/extra/widgets/calendar/lv_calendar_header_arrow.c ****     lv_coord_t btn_size = lv_obj_get_height(mo_prev);
ARM GAS  /var/folders/lp/x54gwt890xv47sdkqj1k04q40000gn/T//cckMI9OH.s 			page 4


  95              		.loc 1 78 5 view .LVU15
  96              		.loc 1 78 27 is_stmt 0 view .LVU16
  97 0040 2846     		mov	r0, r5
  98 0042 FFF7FEFF 		bl	lv_obj_get_height
  99              	.LVL11:
 100 0046 0646     		mov	r6, r0
 101              	.LVL12:
  79:Drivers/lvgl/src/extra/widgets/calendar/lv_calendar_header_arrow.c ****     lv_obj_set_width(mo_prev, btn_size);
 102              		.loc 1 79 5 is_stmt 1 view .LVU17
 103 0048 0146     		mov	r1, r0
 104 004a 2846     		mov	r0, r5
 105              	.LVL13:
 106              		.loc 1 79 5 is_stmt 0 view .LVU18
 107 004c FFF7FEFF 		bl	lv_obj_set_width
 108              	.LVL14:
  80:Drivers/lvgl/src/extra/widgets/calendar/lv_calendar_header_arrow.c **** 
  81:Drivers/lvgl/src/extra/widgets/calendar/lv_calendar_header_arrow.c ****     lv_obj_add_event_cb(mo_prev, month_event_cb, LV_EVENT_CLICKED, NULL);
 109              		.loc 1 81 5 is_stmt 1 view .LVU19
 110 0050 1F4F     		ldr	r7, .L3+4
 111 0052 0023     		movs	r3, #0
 112 0054 0722     		movs	r2, #7
 113 0056 3946     		mov	r1, r7
 114 0058 2846     		mov	r0, r5
 115 005a FFF7FEFF 		bl	lv_obj_add_event_cb
 116              	.LVL15:
  82:Drivers/lvgl/src/extra/widgets/calendar/lv_calendar_header_arrow.c ****     lv_obj_clear_flag(mo_prev, LV_OBJ_FLAG_CLICK_FOCUSABLE);
 117              		.loc 1 82 5 view .LVU20
 118 005e 0421     		movs	r1, #4
 119 0060 2846     		mov	r0, r5
 120 0062 FFF7FEFF 		bl	lv_obj_clear_flag
 121              	.LVL16:
  83:Drivers/lvgl/src/extra/widgets/calendar/lv_calendar_header_arrow.c **** 
  84:Drivers/lvgl/src/extra/widgets/calendar/lv_calendar_header_arrow.c ****     lv_obj_t * label = lv_label_create(obj);
 122              		.loc 1 84 5 view .LVU21
 123              		.loc 1 84 24 is_stmt 0 view .LVU22
 124 0066 2046     		mov	r0, r4
 125 0068 FFF7FEFF 		bl	lv_label_create
 126              	.LVL17:
 127 006c 0546     		mov	r5, r0
 128              	.LVL18:
  85:Drivers/lvgl/src/extra/widgets/calendar/lv_calendar_header_arrow.c ****     lv_label_set_long_mode(label, LV_LABEL_LONG_SCROLL_CIRCULAR);
 129              		.loc 1 85 5 is_stmt 1 view .LVU23
 130 006e 0321     		movs	r1, #3
 131 0070 FFF7FEFF 		bl	lv_label_set_long_mode
 132              	.LVL19:
  86:Drivers/lvgl/src/extra/widgets/calendar/lv_calendar_header_arrow.c ****     lv_obj_set_style_text_align(label, LV_TEXT_ALIGN_CENTER, 0);
 133              		.loc 1 86 5 view .LVU24
 134 0074 0022     		movs	r2, #0
 135 0076 0221     		movs	r1, #2
 136 0078 2846     		mov	r0, r5
 137 007a FFF7FEFF 		bl	lv_obj_set_style_text_align
 138              	.LVL20:
  87:Drivers/lvgl/src/extra/widgets/calendar/lv_calendar_header_arrow.c ****     lv_obj_set_flex_grow(label, 1);
 139              		.loc 1 87 5 view .LVU25
 140 007e 0121     		movs	r1, #1
 141 0080 2846     		mov	r0, r5
 142 0082 FFF7FEFF 		bl	lv_obj_set_flex_grow
ARM GAS  /var/folders/lp/x54gwt890xv47sdkqj1k04q40000gn/T//cckMI9OH.s 			page 5


 143              	.LVL21:
  88:Drivers/lvgl/src/extra/widgets/calendar/lv_calendar_header_arrow.c **** 
  89:Drivers/lvgl/src/extra/widgets/calendar/lv_calendar_header_arrow.c ****     lv_obj_t * mo_next = lv_btn_create(obj);
 144              		.loc 1 89 5 view .LVU26
 145              		.loc 1 89 26 is_stmt 0 view .LVU27
 146 0086 2046     		mov	r0, r4
 147 0088 FFF7FEFF 		bl	lv_btn_create
 148              	.LVL22:
 149 008c 0546     		mov	r5, r0
 150              	.LVL23:
  90:Drivers/lvgl/src/extra/widgets/calendar/lv_calendar_header_arrow.c ****     lv_obj_set_style_bg_img_src(mo_next, LV_SYMBOL_RIGHT, 0);
 151              		.loc 1 90 5 is_stmt 1 view .LVU28
 152 008e 0022     		movs	r2, #0
 153 0090 1049     		ldr	r1, .L3+8
 154 0092 FFF7FEFF 		bl	lv_obj_set_style_bg_img_src
 155              	.LVL24:
  91:Drivers/lvgl/src/extra/widgets/calendar/lv_calendar_header_arrow.c ****     lv_obj_set_size(mo_next, btn_size, btn_size);
 156              		.loc 1 91 5 view .LVU29
 157 0096 3246     		mov	r2, r6
 158 0098 3146     		mov	r1, r6
 159 009a 2846     		mov	r0, r5
 160 009c FFF7FEFF 		bl	lv_obj_set_size
 161              	.LVL25:
  92:Drivers/lvgl/src/extra/widgets/calendar/lv_calendar_header_arrow.c **** 
  93:Drivers/lvgl/src/extra/widgets/calendar/lv_calendar_header_arrow.c ****     lv_obj_add_event_cb(mo_next, month_event_cb, LV_EVENT_CLICKED, NULL);
 162              		.loc 1 93 5 view .LVU30
 163 00a0 0023     		movs	r3, #0
 164 00a2 0722     		movs	r2, #7
 165 00a4 3946     		mov	r1, r7
 166 00a6 2846     		mov	r0, r5
 167 00a8 FFF7FEFF 		bl	lv_obj_add_event_cb
 168              	.LVL26:
  94:Drivers/lvgl/src/extra/widgets/calendar/lv_calendar_header_arrow.c ****     lv_obj_clear_flag(mo_next, LV_OBJ_FLAG_CLICK_FOCUSABLE);
 169              		.loc 1 94 5 view .LVU31
 170 00ac 0421     		movs	r1, #4
 171 00ae 2846     		mov	r0, r5
 172 00b0 FFF7FEFF 		bl	lv_obj_clear_flag
 173              	.LVL27:
  95:Drivers/lvgl/src/extra/widgets/calendar/lv_calendar_header_arrow.c **** 
  96:Drivers/lvgl/src/extra/widgets/calendar/lv_calendar_header_arrow.c ****     lv_obj_add_event_cb(obj, value_changed_event_cb, LV_EVENT_VALUE_CHANGED, NULL);
 174              		.loc 1 96 5 view .LVU32
 175 00b4 0023     		movs	r3, #0
 176 00b6 1C22     		movs	r2, #28
 177 00b8 0749     		ldr	r1, .L3+12
 178 00ba 2046     		mov	r0, r4
 179 00bc FFF7FEFF 		bl	lv_obj_add_event_cb
 180              	.LVL28:
  97:Drivers/lvgl/src/extra/widgets/calendar/lv_calendar_header_arrow.c ****     /*Refresh the drop downs*/
  98:Drivers/lvgl/src/extra/widgets/calendar/lv_calendar_header_arrow.c ****     lv_event_send(obj, LV_EVENT_VALUE_CHANGED, NULL);
 181              		.loc 1 98 5 view .LVU33
 182 00c0 0022     		movs	r2, #0
 183 00c2 1C21     		movs	r1, #28
 184 00c4 2046     		mov	r0, r4
 185 00c6 FFF7FEFF 		bl	lv_event_send
 186              	.LVL29:
  99:Drivers/lvgl/src/extra/widgets/calendar/lv_calendar_header_arrow.c **** }
 187              		.loc 1 99 1 is_stmt 0 view .LVU34
ARM GAS  /var/folders/lp/x54gwt890xv47sdkqj1k04q40000gn/T//cckMI9OH.s 			page 6


 188 00ca F8BD     		pop	{r3, r4, r5, r6, r7, pc}
 189              	.LVL30:
 190              	.L4:
 191              		.loc 1 99 1 view .LVU35
 192              		.align	2
 193              	.L3:
 194 00cc 00000000 		.word	.LC0
 195 00d0 00000000 		.word	month_event_cb
 196 00d4 04000000 		.word	.LC1
 197 00d8 00000000 		.word	value_changed_event_cb
 198              		.cfi_endproc
 199              	.LFE167:
 201              		.section	.rodata.value_changed_event_cb.str1.4,"aMS",%progbits,1
 202              		.align	2
 203              	.LC2:
 204 0000 25642025 		.ascii	"%d %s\000"
 204      7300
 205              		.section	.text.value_changed_event_cb,"ax",%progbits
 206              		.align	1
 207              		.syntax unified
 208              		.thumb
 209              		.thumb_func
 211              	value_changed_event_cb:
 212              	.LVL31:
 213              	.LFB169:
 100:Drivers/lvgl/src/extra/widgets/calendar/lv_calendar_header_arrow.c **** 
 101:Drivers/lvgl/src/extra/widgets/calendar/lv_calendar_header_arrow.c **** static void month_event_cb(lv_event_t * e)
 102:Drivers/lvgl/src/extra/widgets/calendar/lv_calendar_header_arrow.c **** {
 103:Drivers/lvgl/src/extra/widgets/calendar/lv_calendar_header_arrow.c ****     lv_obj_t * btn = lv_event_get_target(e);
 104:Drivers/lvgl/src/extra/widgets/calendar/lv_calendar_header_arrow.c **** 
 105:Drivers/lvgl/src/extra/widgets/calendar/lv_calendar_header_arrow.c ****     lv_obj_t * header = lv_obj_get_parent(btn);
 106:Drivers/lvgl/src/extra/widgets/calendar/lv_calendar_header_arrow.c ****     lv_obj_t * calendar = lv_obj_get_parent(header);
 107:Drivers/lvgl/src/extra/widgets/calendar/lv_calendar_header_arrow.c **** 
 108:Drivers/lvgl/src/extra/widgets/calendar/lv_calendar_header_arrow.c ****     const lv_calendar_date_t * d;
 109:Drivers/lvgl/src/extra/widgets/calendar/lv_calendar_header_arrow.c ****     d = lv_calendar_get_showed_date(calendar);
 110:Drivers/lvgl/src/extra/widgets/calendar/lv_calendar_header_arrow.c ****     lv_calendar_date_t newd = *d;
 111:Drivers/lvgl/src/extra/widgets/calendar/lv_calendar_header_arrow.c **** 
 112:Drivers/lvgl/src/extra/widgets/calendar/lv_calendar_header_arrow.c ****     /*The last child is the right button*/
 113:Drivers/lvgl/src/extra/widgets/calendar/lv_calendar_header_arrow.c ****     if(lv_obj_get_child(header, 0) == btn) {
 114:Drivers/lvgl/src/extra/widgets/calendar/lv_calendar_header_arrow.c ****         if(newd.month == 1) {
 115:Drivers/lvgl/src/extra/widgets/calendar/lv_calendar_header_arrow.c ****             newd.month = 12;
 116:Drivers/lvgl/src/extra/widgets/calendar/lv_calendar_header_arrow.c ****             newd.year --;
 117:Drivers/lvgl/src/extra/widgets/calendar/lv_calendar_header_arrow.c ****         }
 118:Drivers/lvgl/src/extra/widgets/calendar/lv_calendar_header_arrow.c ****         else {
 119:Drivers/lvgl/src/extra/widgets/calendar/lv_calendar_header_arrow.c ****             newd.month --;
 120:Drivers/lvgl/src/extra/widgets/calendar/lv_calendar_header_arrow.c ****         }
 121:Drivers/lvgl/src/extra/widgets/calendar/lv_calendar_header_arrow.c ****     }
 122:Drivers/lvgl/src/extra/widgets/calendar/lv_calendar_header_arrow.c ****     else {
 123:Drivers/lvgl/src/extra/widgets/calendar/lv_calendar_header_arrow.c ****         if(newd.month == 12) {
 124:Drivers/lvgl/src/extra/widgets/calendar/lv_calendar_header_arrow.c ****             newd.month = 1;
 125:Drivers/lvgl/src/extra/widgets/calendar/lv_calendar_header_arrow.c ****             newd.year ++;
 126:Drivers/lvgl/src/extra/widgets/calendar/lv_calendar_header_arrow.c ****         }
 127:Drivers/lvgl/src/extra/widgets/calendar/lv_calendar_header_arrow.c ****         else {
 128:Drivers/lvgl/src/extra/widgets/calendar/lv_calendar_header_arrow.c ****             newd.month ++;
 129:Drivers/lvgl/src/extra/widgets/calendar/lv_calendar_header_arrow.c ****         }
 130:Drivers/lvgl/src/extra/widgets/calendar/lv_calendar_header_arrow.c ****     }
 131:Drivers/lvgl/src/extra/widgets/calendar/lv_calendar_header_arrow.c **** 
ARM GAS  /var/folders/lp/x54gwt890xv47sdkqj1k04q40000gn/T//cckMI9OH.s 			page 7


 132:Drivers/lvgl/src/extra/widgets/calendar/lv_calendar_header_arrow.c ****     lv_calendar_set_showed_date(calendar, newd.year, newd.month);
 133:Drivers/lvgl/src/extra/widgets/calendar/lv_calendar_header_arrow.c **** 
 134:Drivers/lvgl/src/extra/widgets/calendar/lv_calendar_header_arrow.c ****     lv_obj_t * label = lv_obj_get_child(header, 1);
 135:Drivers/lvgl/src/extra/widgets/calendar/lv_calendar_header_arrow.c ****     lv_label_set_text_fmt(label, "%d %s", newd.year, month_names_def[newd.month - 1]);
 136:Drivers/lvgl/src/extra/widgets/calendar/lv_calendar_header_arrow.c **** }
 137:Drivers/lvgl/src/extra/widgets/calendar/lv_calendar_header_arrow.c **** 
 138:Drivers/lvgl/src/extra/widgets/calendar/lv_calendar_header_arrow.c **** static void value_changed_event_cb(lv_event_t * e)
 139:Drivers/lvgl/src/extra/widgets/calendar/lv_calendar_header_arrow.c **** {
 214              		.loc 1 139 1 is_stmt 1 view -0
 215              		.cfi_startproc
 216              		@ args = 0, pretend = 0, frame = 0
 217              		@ frame_needed = 0, uses_anonymous_args = 0
 218              		.loc 1 139 1 is_stmt 0 view .LVU37
 219 0000 38B5     		push	{r3, r4, r5, lr}
 220              		.cfi_def_cfa_offset 16
 221              		.cfi_offset 3, -16
 222              		.cfi_offset 4, -12
 223              		.cfi_offset 5, -8
 224              		.cfi_offset 14, -4
 140:Drivers/lvgl/src/extra/widgets/calendar/lv_calendar_header_arrow.c ****     lv_obj_t * header = lv_event_get_target(e);
 225              		.loc 1 140 5 is_stmt 1 view .LVU38
 226              		.loc 1 140 25 is_stmt 0 view .LVU39
 227 0002 FFF7FEFF 		bl	lv_event_get_target
 228              	.LVL32:
 229              		.loc 1 140 25 view .LVU40
 230 0006 0546     		mov	r5, r0
 231              	.LVL33:
 141:Drivers/lvgl/src/extra/widgets/calendar/lv_calendar_header_arrow.c ****     lv_obj_t * calendar = lv_obj_get_parent(header);
 232              		.loc 1 141 5 is_stmt 1 view .LVU41
 233              		.loc 1 141 27 is_stmt 0 view .LVU42
 234 0008 FFF7FEFF 		bl	lv_obj_get_parent
 235              	.LVL34:
 142:Drivers/lvgl/src/extra/widgets/calendar/lv_calendar_header_arrow.c **** 
 143:Drivers/lvgl/src/extra/widgets/calendar/lv_calendar_header_arrow.c ****     const lv_calendar_date_t * cur_date = lv_calendar_get_showed_date(calendar);
 236              		.loc 1 143 5 is_stmt 1 view .LVU43
 237              		.loc 1 143 43 is_stmt 0 view .LVU44
 238 000c FFF7FEFF 		bl	lv_calendar_get_showed_date
 239              	.LVL35:
 240              		.loc 1 143 43 view .LVU45
 241 0010 0446     		mov	r4, r0
 242              	.LVL36:
 144:Drivers/lvgl/src/extra/widgets/calendar/lv_calendar_header_arrow.c ****     lv_obj_t * label = lv_obj_get_child(header, 1);
 243              		.loc 1 144 5 is_stmt 1 view .LVU46
 244              		.loc 1 144 24 is_stmt 0 view .LVU47
 245 0012 0121     		movs	r1, #1
 246 0014 2846     		mov	r0, r5
 247              	.LVL37:
 248              		.loc 1 144 24 view .LVU48
 249 0016 FFF7FEFF 		bl	lv_obj_get_child
 250              	.LVL38:
 145:Drivers/lvgl/src/extra/widgets/calendar/lv_calendar_header_arrow.c ****     lv_label_set_text_fmt(label, "%d %s", cur_date->year, month_names_def[cur_date->month - 1]);
 251              		.loc 1 145 5 is_stmt 1 view .LVU49
 252              		.loc 1 145 83 is_stmt 0 view .LVU50
 253 001a 94F90230 		ldrsb	r3, [r4, #2]
 254              		.loc 1 145 91 view .LVU51
 255 001e 013B     		subs	r3, r3, #1
 256              		.loc 1 145 5 view .LVU52
ARM GAS  /var/folders/lp/x54gwt890xv47sdkqj1k04q40000gn/T//cckMI9OH.s 			page 8


 257 0020 034A     		ldr	r2, .L7
 258 0022 52F82330 		ldr	r3, [r2, r3, lsl #2]
 259 0026 2288     		ldrh	r2, [r4]
 260 0028 0249     		ldr	r1, .L7+4
 261 002a FFF7FEFF 		bl	lv_label_set_text_fmt
 262              	.LVL39:
 146:Drivers/lvgl/src/extra/widgets/calendar/lv_calendar_header_arrow.c **** }
 263              		.loc 1 146 1 view .LVU53
 264 002e 38BD     		pop	{r3, r4, r5, pc}
 265              	.LVL40:
 266              	.L8:
 267              		.loc 1 146 1 view .LVU54
 268              		.align	2
 269              	.L7:
 270 0030 00000000 		.word	month_names_def
 271 0034 00000000 		.word	.LC2
 272              		.cfi_endproc
 273              	.LFE169:
 275              		.section	.text.month_event_cb,"ax",%progbits
 276              		.align	1
 277              		.syntax unified
 278              		.thumb
 279              		.thumb_func
 281              	month_event_cb:
 282              	.LVL41:
 283              	.LFB168:
 102:Drivers/lvgl/src/extra/widgets/calendar/lv_calendar_header_arrow.c ****     lv_obj_t * btn = lv_event_get_target(e);
 284              		.loc 1 102 1 is_stmt 1 view -0
 285              		.cfi_startproc
 286              		@ args = 0, pretend = 0, frame = 8
 287              		@ frame_needed = 0, uses_anonymous_args = 0
 102:Drivers/lvgl/src/extra/widgets/calendar/lv_calendar_header_arrow.c ****     lv_obj_t * btn = lv_event_get_target(e);
 288              		.loc 1 102 1 is_stmt 0 view .LVU56
 289 0000 F0B5     		push	{r4, r5, r6, r7, lr}
 290              		.cfi_def_cfa_offset 20
 291              		.cfi_offset 4, -20
 292              		.cfi_offset 5, -16
 293              		.cfi_offset 6, -12
 294              		.cfi_offset 7, -8
 295              		.cfi_offset 14, -4
 296 0002 83B0     		sub	sp, sp, #12
 297              		.cfi_def_cfa_offset 32
 103:Drivers/lvgl/src/extra/widgets/calendar/lv_calendar_header_arrow.c **** 
 298              		.loc 1 103 5 is_stmt 1 view .LVU57
 103:Drivers/lvgl/src/extra/widgets/calendar/lv_calendar_header_arrow.c **** 
 299              		.loc 1 103 22 is_stmt 0 view .LVU58
 300 0004 FFF7FEFF 		bl	lv_event_get_target
 301              	.LVL42:
 103:Drivers/lvgl/src/extra/widgets/calendar/lv_calendar_header_arrow.c **** 
 302              		.loc 1 103 22 view .LVU59
 303 0008 0446     		mov	r4, r0
 304              	.LVL43:
 105:Drivers/lvgl/src/extra/widgets/calendar/lv_calendar_header_arrow.c ****     lv_obj_t * calendar = lv_obj_get_parent(header);
 305              		.loc 1 105 5 is_stmt 1 view .LVU60
 105:Drivers/lvgl/src/extra/widgets/calendar/lv_calendar_header_arrow.c ****     lv_obj_t * calendar = lv_obj_get_parent(header);
 306              		.loc 1 105 25 is_stmt 0 view .LVU61
 307 000a FFF7FEFF 		bl	lv_obj_get_parent
ARM GAS  /var/folders/lp/x54gwt890xv47sdkqj1k04q40000gn/T//cckMI9OH.s 			page 9


 308              	.LVL44:
 105:Drivers/lvgl/src/extra/widgets/calendar/lv_calendar_header_arrow.c ****     lv_obj_t * calendar = lv_obj_get_parent(header);
 309              		.loc 1 105 25 view .LVU62
 310 000e 0546     		mov	r5, r0
 311              	.LVL45:
 106:Drivers/lvgl/src/extra/widgets/calendar/lv_calendar_header_arrow.c **** 
 312              		.loc 1 106 5 is_stmt 1 view .LVU63
 106:Drivers/lvgl/src/extra/widgets/calendar/lv_calendar_header_arrow.c **** 
 313              		.loc 1 106 27 is_stmt 0 view .LVU64
 314 0010 FFF7FEFF 		bl	lv_obj_get_parent
 315              	.LVL46:
 106:Drivers/lvgl/src/extra/widgets/calendar/lv_calendar_header_arrow.c **** 
 316              		.loc 1 106 27 view .LVU65
 317 0014 0646     		mov	r6, r0
 318              	.LVL47:
 108:Drivers/lvgl/src/extra/widgets/calendar/lv_calendar_header_arrow.c ****     d = lv_calendar_get_showed_date(calendar);
 319              		.loc 1 108 5 is_stmt 1 view .LVU66
 109:Drivers/lvgl/src/extra/widgets/calendar/lv_calendar_header_arrow.c ****     lv_calendar_date_t newd = *d;
 320              		.loc 1 109 5 view .LVU67
 109:Drivers/lvgl/src/extra/widgets/calendar/lv_calendar_header_arrow.c ****     lv_calendar_date_t newd = *d;
 321              		.loc 1 109 9 is_stmt 0 view .LVU68
 322 0016 FFF7FEFF 		bl	lv_calendar_get_showed_date
 323              	.LVL48:
 110:Drivers/lvgl/src/extra/widgets/calendar/lv_calendar_header_arrow.c **** 
 324              		.loc 1 110 5 is_stmt 1 view .LVU69
 110:Drivers/lvgl/src/extra/widgets/calendar/lv_calendar_header_arrow.c **** 
 325              		.loc 1 110 24 is_stmt 0 view .LVU70
 326 001a 0068     		ldr	r0, [r0]	@ unaligned
 327              	.LVL49:
 110:Drivers/lvgl/src/extra/widgets/calendar/lv_calendar_header_arrow.c **** 
 328              		.loc 1 110 24 view .LVU71
 329 001c 0190     		str	r0, [sp, #4]
 113:Drivers/lvgl/src/extra/widgets/calendar/lv_calendar_header_arrow.c ****         if(newd.month == 1) {
 330              		.loc 1 113 5 is_stmt 1 view .LVU72
 113:Drivers/lvgl/src/extra/widgets/calendar/lv_calendar_header_arrow.c ****         if(newd.month == 1) {
 331              		.loc 1 113 8 is_stmt 0 view .LVU73
 332 001e 0021     		movs	r1, #0
 333 0020 2846     		mov	r0, r5
 334 0022 FFF7FEFF 		bl	lv_obj_get_child
 335              	.LVL50:
 113:Drivers/lvgl/src/extra/widgets/calendar/lv_calendar_header_arrow.c ****         if(newd.month == 1) {
 336              		.loc 1 113 7 discriminator 1 view .LVU74
 337 0026 8442     		cmp	r4, r0
 338 0028 1DD0     		beq	.L15
 123:Drivers/lvgl/src/extra/widgets/calendar/lv_calendar_header_arrow.c ****             newd.month = 1;
 339              		.loc 1 123 9 is_stmt 1 view .LVU75
 123:Drivers/lvgl/src/extra/widgets/calendar/lv_calendar_header_arrow.c ****             newd.month = 1;
 340              		.loc 1 123 16 is_stmt 0 view .LVU76
 341 002a 9DF90630 		ldrsb	r3, [sp, #6]
 123:Drivers/lvgl/src/extra/widgets/calendar/lv_calendar_header_arrow.c ****             newd.month = 1;
 342              		.loc 1 123 11 view .LVU77
 343 002e 0C2B     		cmp	r3, #12
 344 0030 2AD0     		beq	.L16
 128:Drivers/lvgl/src/extra/widgets/calendar/lv_calendar_header_arrow.c ****         }
 345              		.loc 1 128 13 is_stmt 1 view .LVU78
 128:Drivers/lvgl/src/extra/widgets/calendar/lv_calendar_header_arrow.c ****         }
 346              		.loc 1 128 24 is_stmt 0 view .LVU79
ARM GAS  /var/folders/lp/x54gwt890xv47sdkqj1k04q40000gn/T//cckMI9OH.s 			page 10


 347 0032 0133     		adds	r3, r3, #1
 348 0034 8DF80630 		strb	r3, [sp, #6]
 349              	.L12:
 132:Drivers/lvgl/src/extra/widgets/calendar/lv_calendar_header_arrow.c **** 
 350              		.loc 1 132 5 is_stmt 1 view .LVU80
 132:Drivers/lvgl/src/extra/widgets/calendar/lv_calendar_header_arrow.c **** 
 351              		.loc 1 132 47 is_stmt 0 view .LVU81
 352 0038 BDF80470 		ldrh	r7, [sp, #4]
 132:Drivers/lvgl/src/extra/widgets/calendar/lv_calendar_header_arrow.c **** 
 353              		.loc 1 132 58 view .LVU82
 354 003c 9DF90640 		ldrsb	r4, [sp, #6]
 355              	.LVL51:
 132:Drivers/lvgl/src/extra/widgets/calendar/lv_calendar_header_arrow.c **** 
 356              		.loc 1 132 5 view .LVU83
 357 0040 2246     		mov	r2, r4
 358 0042 3946     		mov	r1, r7
 359 0044 3046     		mov	r0, r6
 360 0046 FFF7FEFF 		bl	lv_calendar_set_showed_date
 361              	.LVL52:
 134:Drivers/lvgl/src/extra/widgets/calendar/lv_calendar_header_arrow.c ****     lv_label_set_text_fmt(label, "%d %s", newd.year, month_names_def[newd.month - 1]);
 362              		.loc 1 134 5 is_stmt 1 view .LVU84
 134:Drivers/lvgl/src/extra/widgets/calendar/lv_calendar_header_arrow.c ****     lv_label_set_text_fmt(label, "%d %s", newd.year, month_names_def[newd.month - 1]);
 363              		.loc 1 134 24 is_stmt 0 view .LVU85
 364 004a 0121     		movs	r1, #1
 365 004c 2846     		mov	r0, r5
 366 004e FFF7FEFF 		bl	lv_obj_get_child
 367              	.LVL53:
 135:Drivers/lvgl/src/extra/widgets/calendar/lv_calendar_header_arrow.c **** }
 368              		.loc 1 135 5 is_stmt 1 view .LVU86
 135:Drivers/lvgl/src/extra/widgets/calendar/lv_calendar_header_arrow.c **** }
 369              		.loc 1 135 81 is_stmt 0 view .LVU87
 370 0052 013C     		subs	r4, r4, #1
 135:Drivers/lvgl/src/extra/widgets/calendar/lv_calendar_header_arrow.c **** }
 371              		.loc 1 135 5 view .LVU88
 372 0054 114B     		ldr	r3, .L18
 373 0056 53F82430 		ldr	r3, [r3, r4, lsl #2]
 374 005a 3A46     		mov	r2, r7
 375 005c 1049     		ldr	r1, .L18+4
 376 005e FFF7FEFF 		bl	lv_label_set_text_fmt
 377              	.LVL54:
 136:Drivers/lvgl/src/extra/widgets/calendar/lv_calendar_header_arrow.c **** 
 378              		.loc 1 136 1 view .LVU89
 379 0062 03B0     		add	sp, sp, #12
 380              		.cfi_remember_state
 381              		.cfi_def_cfa_offset 20
 382              		@ sp needed
 383 0064 F0BD     		pop	{r4, r5, r6, r7, pc}
 384              	.LVL55:
 385              	.L15:
 386              		.cfi_restore_state
 114:Drivers/lvgl/src/extra/widgets/calendar/lv_calendar_header_arrow.c ****             newd.month = 12;
 387              		.loc 1 114 9 is_stmt 1 view .LVU90
 114:Drivers/lvgl/src/extra/widgets/calendar/lv_calendar_header_arrow.c ****             newd.month = 12;
 388              		.loc 1 114 16 is_stmt 0 view .LVU91
 389 0066 9DF90630 		ldrsb	r3, [sp, #6]
 114:Drivers/lvgl/src/extra/widgets/calendar/lv_calendar_header_arrow.c ****             newd.month = 12;
 390              		.loc 1 114 11 view .LVU92
ARM GAS  /var/folders/lp/x54gwt890xv47sdkqj1k04q40000gn/T//cckMI9OH.s 			page 11


 391 006a 012B     		cmp	r3, #1
 392 006c 03D0     		beq	.L17
 119:Drivers/lvgl/src/extra/widgets/calendar/lv_calendar_header_arrow.c ****         }
 393              		.loc 1 119 13 is_stmt 1 view .LVU93
 119:Drivers/lvgl/src/extra/widgets/calendar/lv_calendar_header_arrow.c ****         }
 394              		.loc 1 119 24 is_stmt 0 view .LVU94
 395 006e 013B     		subs	r3, r3, #1
 396 0070 8DF80630 		strb	r3, [sp, #6]
 397 0074 E0E7     		b	.L12
 398              	.L17:
 115:Drivers/lvgl/src/extra/widgets/calendar/lv_calendar_header_arrow.c ****             newd.year --;
 399              		.loc 1 115 13 is_stmt 1 view .LVU95
 115:Drivers/lvgl/src/extra/widgets/calendar/lv_calendar_header_arrow.c ****             newd.year --;
 400              		.loc 1 115 24 is_stmt 0 view .LVU96
 401 0076 0C23     		movs	r3, #12
 402 0078 8DF80630 		strb	r3, [sp, #6]
 116:Drivers/lvgl/src/extra/widgets/calendar/lv_calendar_header_arrow.c ****         }
 403              		.loc 1 116 13 is_stmt 1 view .LVU97
 116:Drivers/lvgl/src/extra/widgets/calendar/lv_calendar_header_arrow.c ****         }
 404              		.loc 1 116 17 is_stmt 0 view .LVU98
 405 007c BDF80430 		ldrh	r3, [sp, #4]
 116:Drivers/lvgl/src/extra/widgets/calendar/lv_calendar_header_arrow.c ****         }
 406              		.loc 1 116 23 view .LVU99
 407 0080 013B     		subs	r3, r3, #1
 408 0082 ADF80430 		strh	r3, [sp, #4]	@ movhi
 409 0086 D7E7     		b	.L12
 410              	.L16:
 124:Drivers/lvgl/src/extra/widgets/calendar/lv_calendar_header_arrow.c ****             newd.year ++;
 411              		.loc 1 124 13 is_stmt 1 view .LVU100
 124:Drivers/lvgl/src/extra/widgets/calendar/lv_calendar_header_arrow.c ****             newd.year ++;
 412              		.loc 1 124 24 is_stmt 0 view .LVU101
 413 0088 0123     		movs	r3, #1
 414 008a 8DF80630 		strb	r3, [sp, #6]
 125:Drivers/lvgl/src/extra/widgets/calendar/lv_calendar_header_arrow.c ****         }
 415              		.loc 1 125 13 is_stmt 1 view .LVU102
 125:Drivers/lvgl/src/extra/widgets/calendar/lv_calendar_header_arrow.c ****         }
 416              		.loc 1 125 17 is_stmt 0 view .LVU103
 417 008e BDF80430 		ldrh	r3, [sp, #4]
 125:Drivers/lvgl/src/extra/widgets/calendar/lv_calendar_header_arrow.c ****         }
 418              		.loc 1 125 23 view .LVU104
 419 0092 0133     		adds	r3, r3, #1
 420 0094 ADF80430 		strh	r3, [sp, #4]	@ movhi
 421 0098 CEE7     		b	.L12
 422              	.L19:
 423 009a 00BF     		.align	2
 424              	.L18:
 425 009c 00000000 		.word	month_names_def
 426 00a0 00000000 		.word	.LC2
 427              		.cfi_endproc
 428              	.LFE168:
 430              		.section	.text.lv_calendar_header_arrow_create,"ax",%progbits
 431              		.align	1
 432              		.global	lv_calendar_header_arrow_create
 433              		.syntax unified
 434              		.thumb
 435              		.thumb_func
 437              	lv_calendar_header_arrow_create:
ARM GAS  /var/folders/lp/x54gwt890xv47sdkqj1k04q40000gn/T//cckMI9OH.s 			page 12


 438              	.LVL56:
 439              	.LFB166:
  53:Drivers/lvgl/src/extra/widgets/calendar/lv_calendar_header_arrow.c ****     lv_obj_t * obj = lv_obj_class_create_obj(&lv_calendar_header_arrow_class, parent);
 440              		.loc 1 53 1 is_stmt 1 view -0
 441              		.cfi_startproc
 442              		@ args = 0, pretend = 0, frame = 0
 443              		@ frame_needed = 0, uses_anonymous_args = 0
  53:Drivers/lvgl/src/extra/widgets/calendar/lv_calendar_header_arrow.c ****     lv_obj_t * obj = lv_obj_class_create_obj(&lv_calendar_header_arrow_class, parent);
 444              		.loc 1 53 1 is_stmt 0 view .LVU106
 445 0000 10B5     		push	{r4, lr}
 446              		.cfi_def_cfa_offset 8
 447              		.cfi_offset 4, -8
 448              		.cfi_offset 14, -4
 449 0002 0146     		mov	r1, r0
  54:Drivers/lvgl/src/extra/widgets/calendar/lv_calendar_header_arrow.c ****     lv_obj_class_init_obj(obj);
 450              		.loc 1 54 5 is_stmt 1 view .LVU107
  54:Drivers/lvgl/src/extra/widgets/calendar/lv_calendar_header_arrow.c ****     lv_obj_class_init_obj(obj);
 451              		.loc 1 54 22 is_stmt 0 view .LVU108
 452 0004 0348     		ldr	r0, .L22
 453              	.LVL57:
  54:Drivers/lvgl/src/extra/widgets/calendar/lv_calendar_header_arrow.c ****     lv_obj_class_init_obj(obj);
 454              		.loc 1 54 22 view .LVU109
 455 0006 FFF7FEFF 		bl	lv_obj_class_create_obj
 456              	.LVL58:
  54:Drivers/lvgl/src/extra/widgets/calendar/lv_calendar_header_arrow.c ****     lv_obj_class_init_obj(obj);
 457              		.loc 1 54 22 view .LVU110
 458 000a 0446     		mov	r4, r0
 459              	.LVL59:
  55:Drivers/lvgl/src/extra/widgets/calendar/lv_calendar_header_arrow.c ****     return obj;
 460              		.loc 1 55 5 is_stmt 1 view .LVU111
 461 000c FFF7FEFF 		bl	lv_obj_class_init_obj
 462              	.LVL60:
  56:Drivers/lvgl/src/extra/widgets/calendar/lv_calendar_header_arrow.c **** }
 463              		.loc 1 56 5 view .LVU112
  57:Drivers/lvgl/src/extra/widgets/calendar/lv_calendar_header_arrow.c **** 
 464              		.loc 1 57 1 is_stmt 0 view .LVU113
 465 0010 2046     		mov	r0, r4
 466 0012 10BD     		pop	{r4, pc}
 467              	.LVL61:
 468              	.L23:
  57:Drivers/lvgl/src/extra/widgets/calendar/lv_calendar_header_arrow.c **** 
 469              		.loc 1 57 1 view .LVU114
 470              		.align	2
 471              	.L22:
 472 0014 00000000 		.word	lv_calendar_header_arrow_class
 473              		.cfi_endproc
 474              	.LFE166:
 476              		.section	.rodata.str1.4,"aMS",%progbits,1
 477              		.align	2
 478              	.LC3:
 479 0000 4A616E75 		.ascii	"January\000"
 479      61727900 
 480              		.align	2
 481              	.LC4:
 482 0008 46656272 		.ascii	"February\000"
 482      75617279 
 482      00
ARM GAS  /var/folders/lp/x54gwt890xv47sdkqj1k04q40000gn/T//cckMI9OH.s 			page 13


 483 0011 000000   		.align	2
 484              	.LC5:
 485 0014 4D617263 		.ascii	"March\000"
 485      6800
 486 001a 0000     		.align	2
 487              	.LC6:
 488 001c 41707269 		.ascii	"April\000"
 488      6C00
 489 0022 0000     		.align	2
 490              	.LC7:
 491 0024 4D617900 		.ascii	"May\000"
 492              		.align	2
 493              	.LC8:
 494 0028 4A756E65 		.ascii	"June\000"
 494      00
 495 002d 000000   		.align	2
 496              	.LC9:
 497 0030 4A756C79 		.ascii	"July\000"
 497      00
 498 0035 000000   		.align	2
 499              	.LC10:
 500 0038 41756775 		.ascii	"August\000"
 500      737400
 501 003f 00       		.align	2
 502              	.LC11:
 503 0040 53657074 		.ascii	"September\000"
 503      656D6265 
 503      7200
 504 004a 0000     		.align	2
 505              	.LC12:
 506 004c 4F63746F 		.ascii	"October\000"
 506      62657200 
 507              		.align	2
 508              	.LC13:
 509 0054 4E6F7665 		.ascii	"November\000"
 509      6D626572 
 509      00
 510 005d 000000   		.align	2
 511              	.LC14:
 512 0060 44656365 		.ascii	"December\000"
 512      6D626572 
 512      00
 513              		.section	.rodata.month_names_def,"a"
 514              		.align	2
 517              	month_names_def:
 518 0000 00000000 		.word	.LC3
 519 0004 08000000 		.word	.LC4
 520 0008 14000000 		.word	.LC5
 521 000c 1C000000 		.word	.LC6
 522 0010 24000000 		.word	.LC7
 523 0014 28000000 		.word	.LC8
 524 0018 30000000 		.word	.LC9
 525 001c 38000000 		.word	.LC10
 526 0020 40000000 		.word	.LC11
 527 0024 4C000000 		.word	.LC12
 528 0028 54000000 		.word	.LC13
 529 002c 60000000 		.word	.LC14
ARM GAS  /var/folders/lp/x54gwt890xv47sdkqj1k04q40000gn/T//cckMI9OH.s 			page 14


 530              		.global	lv_calendar_header_arrow_class
 531              		.section	.rodata.lv_calendar_header_arrow_class,"a"
 532              		.align	2
 535              	lv_calendar_header_arrow_class:
 536 0000 00000000 		.word	lv_obj_class
 537 0004 00000000 		.word	my_constructor
 538 0008 00000000 		.space	12
 538      00000000 
 538      00000000 
 539 0014 6420     		.short	8292
 540 0016 2B00     		.short	43
 541 0018 00000000 		.space	4
 542              		.text
 543              	.Letext0:
 544              		.file 2 "/Users/jr/Library/Application Support/Code/User/globalStorage/bmd.stm32-for-vscode/@xpack
 545              		.file 3 "/Users/jr/Library/Application Support/Code/User/globalStorage/bmd.stm32-for-vscode/@xpack
 546              		.file 4 "Drivers/lvgl/src/extra/widgets/calendar/../../../core/../misc/../font/../misc/lv_area.h"
 547              		.file 5 "Drivers/lvgl/src/extra/widgets/calendar/../../../core/../misc/lv_types.h"
 548              		.file 6 "Drivers/lvgl/src/extra/widgets/calendar/../../../core/../misc/lv_color.h"
 549              		.file 7 "Drivers/lvgl/src/extra/widgets/calendar/../../../core/../misc/lv_txt.h"
 550              		.file 8 "Drivers/lvgl/src/extra/widgets/calendar/../../../core/../misc/lv_style.h"
 551              		.file 9 "Drivers/lvgl/src/extra/widgets/calendar/../../../core/lv_obj.h"
 552              		.file 10 "Drivers/lvgl/src/extra/widgets/calendar/../../../core/../hal/../misc/lv_ll.h"
 553              		.file 11 "Drivers/lvgl/src/extra/widgets/calendar/../../../core/lv_group.h"
 554              		.file 12 "Drivers/lvgl/src/extra/widgets/calendar/../../../core/lv_obj_scroll.h"
 555              		.file 13 "Drivers/lvgl/src/extra/widgets/calendar/../../../core/lv_obj_style.h"
 556              		.file 14 "Drivers/lvgl/src/extra/widgets/calendar/../../../core/lv_obj_class.h"
 557              		.file 15 "Drivers/lvgl/src/extra/widgets/calendar/../../../core/lv_event.h"
 558              		.file 16 "Drivers/lvgl/src/extra/widgets/calendar/lv_calendar_header_arrow.h"
 559              		.file 17 "Drivers/lvgl/src/extra/widgets/calendar/lv_calendar.h"
 560              		.file 18 "Drivers/lvgl/src/extra/widgets/calendar/../../../widgets/lv_label.h"
 561              		.file 19 "Drivers/lvgl/src/extra/widgets/calendar/../../layouts/flex/lv_flex.h"
 562              		.file 20 "Drivers/lvgl/src/extra/widgets/calendar/../../../core/lv_obj_tree.h"
 563              		.file 21 "Drivers/lvgl/src/extra/widgets/calendar/../../../core/../hal/../draw/sw/../../core/lv_ob
 564              		.file 22 "Drivers/lvgl/src/extra/widgets/calendar/../../../core/lv_obj_style_gen.h"
 565              		.file 23 "Drivers/lvgl/src/extra/widgets/calendar/../../../widgets/lv_btn.h"
ARM GAS  /var/folders/lp/x54gwt890xv47sdkqj1k04q40000gn/T//cckMI9OH.s 			page 15

