ARM GAS  /var/folders/lp/x54gwt890xv47sdkqj1k04q40000gn/T//cc3OsGHO.s 			page 1


   1              		.cpu cortex-m4
   2              		.arch armv7e-m
   3              		.fpu fpv4-sp-d16
   4              		.eabi_attribute 27, 1
   5              		.eabi_attribute 28, 1
   6              		.eabi_attribute 20, 1
   7              		.eabi_attribute 21, 1
   8              		.eabi_attribute 23, 3
   9              		.eabi_attribute 24, 1
  10              		.eabi_attribute 25, 1
  11              		.eabi_attribute 26, 1
  12              		.eabi_attribute 30, 1
  13              		.eabi_attribute 34, 1
  14              		.eabi_attribute 18, 4
  15              		.file	"lv_calendar_header_dropdown.c"
  16              		.text
  17              	.Ltext0:
  18              		.cfi_sections	.debug_frame
  19              		.file 1 "Drivers/lvgl/src/extra/widgets/calendar/lv_calendar_header_dropdown.c"
  20              		.section	.rodata.my_constructor.str1.4,"aMS",%progbits,1
  21              		.align	2
  22              	.LC0:
  23 0000 32303233 		.ascii	"2023\0122022\0122021\0122020\0122019\0122018\012201"
  23      0A323032 
  23      320A3230 
  23      32310A32 
  23      3032300A 
  24 0021 370A3230 		.ascii	"7\0122016\0122015\0122014\0122013\0122012\0122011\012"
  24      31360A32 
  24      3031350A 
  24      32303134 
  24      0A323031 
  25 0041 32303130 		.ascii	"2010\0122009\0122008\0122007\0122006\0122005\012200"
  25      0A323030 
  25      390A3230 
  25      30380A32 
  25      3030370A 
  26 0062 340A3230 		.ascii	"4\0122003\0122002\0122001\0122000\0121999\0121998\012"
  26      30330A32 
  26      3030320A 
  26      32303031 
  26      0A323030 
  27 0082 31393937 		.ascii	"1997\0121996\0121995\0121994\0121993\0121992\012199"
  27      0A313939 
  27      360A3139 
  27      39350A31 
  27      3939340A 
  28 00a3 310A3139 		.ascii	"1\0121990\0121989\0121988\0121987\0121986\0121985\012"
  28      39300A31 
  28      3938390A 
  28      31393838 
  28      0A313938 
  29 00c3 31393834 		.ascii	"1984\0121983\0121982\0121981\0121980\0121979\012197"
  29      0A313938 
  29      330A3139 
  29      38320A31 
  29      3938310A 
ARM GAS  /var/folders/lp/x54gwt890xv47sdkqj1k04q40000gn/T//cc3OsGHO.s 			page 2


  30 00e4 380A3139 		.ascii	"8\0121977\0121976\0121975\0121974\0121973\0121972\012"
  30      37370A31 
  30      3937360A 
  30      31393735 
  30      0A313937 
  31 0104 31393731 		.ascii	"1971\0121970\0121969\0121968\0121967\0121966\012196"
  31      0A313937 
  31      300A3139 
  31      36390A31 
  31      3936380A 
  32 0125 350A3139 		.ascii	"5\0121964\0121963\0121962\0121961\0121960\0121959\012"
  32      36340A31 
  32      3936330A 
  32      31393632 
  32      0A313936 
  33 0145 31393538 		.ascii	"1958\0121957\0121956\0121955\0121954\0121953\012195"
  33      0A313935 
  33      370A3139 
  33      35360A31 
  33      3935350A 
  34 0166 320A3139 		.ascii	"2\0121951\0121950\0121949\0121948\0121947\0121946\012"
  34      35310A31 
  34      3935300A 
  34      31393439 
  34      0A313934 
  35 0186 31393435 		.ascii	"1945\0121944\0121943\0121942\0121941\0121940\012193"
  35      0A313934 
  35      340A3139 
  35      34330A31 
  35      3934320A 
  36 01a7 390A3139 		.ascii	"9\0121938\0121937\0121936\0121935\0121934\0121933\012"
  36      33380A31 
  36      3933370A 
  36      31393336 
  36      0A313933 
  37 01c7 31393332 		.ascii	"1932\0121931\0121930\0121929\0121928\0121927\012192"
  37      0A313933 
  37      310A3139 
  37      33300A31 
  37      3932390A 
  38 01e8 360A3139 		.ascii	"6\0121925\0121924\0121923\0121922\0121921\0121920\012"
  38      32350A31 
  38      3932340A 
  38      31393233 
  38      0A313932 
  39 0208 31393139 		.ascii	"1919\0121918\0121917\0121916\0121915\0121914\012191"
  39      0A313931 
  39      380A3139 
  39      31370A31 
  39      3931360A 
  40 0229 330A3139 		.ascii	"3\0121912\0121911\0121910\0121909\0121908\0121907\012"
  40      31320A31 
  40      3931310A 
  40      31393130 
  40      0A313930 
  41 0249 31393036 		.ascii	"1906\0121905\0121904\0121903\0121902\0121901\000"
  41      0A313930 
ARM GAS  /var/folders/lp/x54gwt890xv47sdkqj1k04q40000gn/T//cc3OsGHO.s 			page 3


  41      350A3139 
  41      30340A31 
  41      3930330A 
  42 0267 00       		.align	2
  43              	.LC1:
  44 0268 30310A30 		.ascii	"01\01202\01203\01204\01205\01206\01207\01208\01209\012"
  44      320A3033 
  44      0A30340A 
  44      30350A30 
  44      360A3037 
  45 0283 31300A31 		.ascii	"10\01211\01212\000"
  45      310A3132 
  45      00
  46              		.section	.text.my_constructor,"ax",%progbits
  47              		.align	1
  48              		.syntax unified
  49              		.thumb
  50              		.thumb_func
  52              	my_constructor:
  53              	.LVL0:
  54              	.LFB167:
   1:Drivers/lvgl/src/extra/widgets/calendar/lv_calendar_header_dropdown.c **** /**
   2:Drivers/lvgl/src/extra/widgets/calendar/lv_calendar_header_dropdown.c ****  * @file lv_calendar_obj_dropdown.c
   3:Drivers/lvgl/src/extra/widgets/calendar/lv_calendar_header_dropdown.c ****  *
   4:Drivers/lvgl/src/extra/widgets/calendar/lv_calendar_header_dropdown.c ****  */
   5:Drivers/lvgl/src/extra/widgets/calendar/lv_calendar_header_dropdown.c **** 
   6:Drivers/lvgl/src/extra/widgets/calendar/lv_calendar_header_dropdown.c **** /*********************
   7:Drivers/lvgl/src/extra/widgets/calendar/lv_calendar_header_dropdown.c ****  *      INCLUDES
   8:Drivers/lvgl/src/extra/widgets/calendar/lv_calendar_header_dropdown.c ****  *********************/
   9:Drivers/lvgl/src/extra/widgets/calendar/lv_calendar_header_dropdown.c **** #include "lv_calendar_header_dropdown.h"
  10:Drivers/lvgl/src/extra/widgets/calendar/lv_calendar_header_dropdown.c **** #if LV_USE_CALENDAR_HEADER_DROPDOWN
  11:Drivers/lvgl/src/extra/widgets/calendar/lv_calendar_header_dropdown.c **** 
  12:Drivers/lvgl/src/extra/widgets/calendar/lv_calendar_header_dropdown.c **** #include "lv_calendar.h"
  13:Drivers/lvgl/src/extra/widgets/calendar/lv_calendar_header_dropdown.c **** #include "../../../widgets/lv_dropdown.h"
  14:Drivers/lvgl/src/extra/widgets/calendar/lv_calendar_header_dropdown.c **** #include "../../layouts/flex/lv_flex.h"
  15:Drivers/lvgl/src/extra/widgets/calendar/lv_calendar_header_dropdown.c **** 
  16:Drivers/lvgl/src/extra/widgets/calendar/lv_calendar_header_dropdown.c **** /*********************
  17:Drivers/lvgl/src/extra/widgets/calendar/lv_calendar_header_dropdown.c ****  *      DEFINES
  18:Drivers/lvgl/src/extra/widgets/calendar/lv_calendar_header_dropdown.c ****  *********************/
  19:Drivers/lvgl/src/extra/widgets/calendar/lv_calendar_header_dropdown.c **** 
  20:Drivers/lvgl/src/extra/widgets/calendar/lv_calendar_header_dropdown.c **** /**********************
  21:Drivers/lvgl/src/extra/widgets/calendar/lv_calendar_header_dropdown.c ****  *      TYPEDEFS
  22:Drivers/lvgl/src/extra/widgets/calendar/lv_calendar_header_dropdown.c ****  **********************/
  23:Drivers/lvgl/src/extra/widgets/calendar/lv_calendar_header_dropdown.c **** 
  24:Drivers/lvgl/src/extra/widgets/calendar/lv_calendar_header_dropdown.c **** /**********************
  25:Drivers/lvgl/src/extra/widgets/calendar/lv_calendar_header_dropdown.c ****  *  STATIC PROTOTYPES
  26:Drivers/lvgl/src/extra/widgets/calendar/lv_calendar_header_dropdown.c ****  **********************/
  27:Drivers/lvgl/src/extra/widgets/calendar/lv_calendar_header_dropdown.c **** static void my_constructor(const lv_obj_class_t * class_p, lv_obj_t * obj);
  28:Drivers/lvgl/src/extra/widgets/calendar/lv_calendar_header_dropdown.c **** static void year_event_cb(lv_event_t * e);
  29:Drivers/lvgl/src/extra/widgets/calendar/lv_calendar_header_dropdown.c **** static void month_event_cb(lv_event_t * e);
  30:Drivers/lvgl/src/extra/widgets/calendar/lv_calendar_header_dropdown.c **** static void value_changed_event_cb(lv_event_t * e);
  31:Drivers/lvgl/src/extra/widgets/calendar/lv_calendar_header_dropdown.c **** 
  32:Drivers/lvgl/src/extra/widgets/calendar/lv_calendar_header_dropdown.c **** /**********************
  33:Drivers/lvgl/src/extra/widgets/calendar/lv_calendar_header_dropdown.c ****  *  STATIC VARIABLES
  34:Drivers/lvgl/src/extra/widgets/calendar/lv_calendar_header_dropdown.c ****  **********************/
  35:Drivers/lvgl/src/extra/widgets/calendar/lv_calendar_header_dropdown.c **** const lv_obj_class_t lv_calendar_header_dropdown_class = {
  36:Drivers/lvgl/src/extra/widgets/calendar/lv_calendar_header_dropdown.c ****     .base_class = &lv_obj_class,
ARM GAS  /var/folders/lp/x54gwt890xv47sdkqj1k04q40000gn/T//cc3OsGHO.s 			page 4


  37:Drivers/lvgl/src/extra/widgets/calendar/lv_calendar_header_dropdown.c ****     .width_def = LV_PCT(100),
  38:Drivers/lvgl/src/extra/widgets/calendar/lv_calendar_header_dropdown.c ****     .height_def = LV_SIZE_CONTENT,
  39:Drivers/lvgl/src/extra/widgets/calendar/lv_calendar_header_dropdown.c ****     .constructor_cb = my_constructor
  40:Drivers/lvgl/src/extra/widgets/calendar/lv_calendar_header_dropdown.c **** };
  41:Drivers/lvgl/src/extra/widgets/calendar/lv_calendar_header_dropdown.c **** 
  42:Drivers/lvgl/src/extra/widgets/calendar/lv_calendar_header_dropdown.c **** static const char * month_list = "01\n02\n03\n04\n05\n06\n07\n08\n09\n10\n11\n12";
  43:Drivers/lvgl/src/extra/widgets/calendar/lv_calendar_header_dropdown.c **** static const char * year_list = {
  44:Drivers/lvgl/src/extra/widgets/calendar/lv_calendar_header_dropdown.c ****     "2023\n2022\n2021\n"
  45:Drivers/lvgl/src/extra/widgets/calendar/lv_calendar_header_dropdown.c ****     "2020\n2019\n2018\n2017\n2016\n2015\n2014\n2013\n2012\n2011\n2010\n2009\n2008\n2007\n2006\n2005
  46:Drivers/lvgl/src/extra/widgets/calendar/lv_calendar_header_dropdown.c ****     "2000\n1999\n1998\n1997\n1996\n1995\n1994\n1993\n1992\n1991\n1990\n1989\n1988\n1987\n1986\n1985
  47:Drivers/lvgl/src/extra/widgets/calendar/lv_calendar_header_dropdown.c ****     "1980\n1979\n1978\n1977\n1976\n1975\n1974\n1973\n1972\n1971\n1970\n1969\n1968\n1967\n1966\n1965
  48:Drivers/lvgl/src/extra/widgets/calendar/lv_calendar_header_dropdown.c ****     "1960\n1959\n1958\n1957\n1956\n1955\n1954\n1953\n1952\n1951\n1950\n1949\n1948\n1947\n1946\n1945
  49:Drivers/lvgl/src/extra/widgets/calendar/lv_calendar_header_dropdown.c ****     "1940\n1939\n1938\n1937\n1936\n1935\n1934\n1933\n1932\n1931\n1930\n1929\n1928\n1927\n1926\n1925
  50:Drivers/lvgl/src/extra/widgets/calendar/lv_calendar_header_dropdown.c ****     "1920\n1919\n1918\n1917\n1916\n1915\n1914\n1913\n1912\n1911\n1910\n1909\n1908\n1907\n1906\n1905
  51:Drivers/lvgl/src/extra/widgets/calendar/lv_calendar_header_dropdown.c **** };
  52:Drivers/lvgl/src/extra/widgets/calendar/lv_calendar_header_dropdown.c **** 
  53:Drivers/lvgl/src/extra/widgets/calendar/lv_calendar_header_dropdown.c **** /**********************
  54:Drivers/lvgl/src/extra/widgets/calendar/lv_calendar_header_dropdown.c ****  *      MACROS
  55:Drivers/lvgl/src/extra/widgets/calendar/lv_calendar_header_dropdown.c ****  **********************/
  56:Drivers/lvgl/src/extra/widgets/calendar/lv_calendar_header_dropdown.c **** 
  57:Drivers/lvgl/src/extra/widgets/calendar/lv_calendar_header_dropdown.c **** /**********************
  58:Drivers/lvgl/src/extra/widgets/calendar/lv_calendar_header_dropdown.c ****  *   GLOBAL FUNCTIONS
  59:Drivers/lvgl/src/extra/widgets/calendar/lv_calendar_header_dropdown.c ****  **********************/
  60:Drivers/lvgl/src/extra/widgets/calendar/lv_calendar_header_dropdown.c **** 
  61:Drivers/lvgl/src/extra/widgets/calendar/lv_calendar_header_dropdown.c **** lv_obj_t * lv_calendar_header_dropdown_create(lv_obj_t * parent)
  62:Drivers/lvgl/src/extra/widgets/calendar/lv_calendar_header_dropdown.c **** {
  63:Drivers/lvgl/src/extra/widgets/calendar/lv_calendar_header_dropdown.c ****     lv_obj_t * obj = lv_obj_class_create_obj(&lv_calendar_header_dropdown_class, parent);
  64:Drivers/lvgl/src/extra/widgets/calendar/lv_calendar_header_dropdown.c ****     lv_obj_class_init_obj(obj);
  65:Drivers/lvgl/src/extra/widgets/calendar/lv_calendar_header_dropdown.c **** 
  66:Drivers/lvgl/src/extra/widgets/calendar/lv_calendar_header_dropdown.c ****     return obj;
  67:Drivers/lvgl/src/extra/widgets/calendar/lv_calendar_header_dropdown.c **** }
  68:Drivers/lvgl/src/extra/widgets/calendar/lv_calendar_header_dropdown.c **** 
  69:Drivers/lvgl/src/extra/widgets/calendar/lv_calendar_header_dropdown.c **** /**********************
  70:Drivers/lvgl/src/extra/widgets/calendar/lv_calendar_header_dropdown.c ****  *  STATIC FUNCTIONS
  71:Drivers/lvgl/src/extra/widgets/calendar/lv_calendar_header_dropdown.c ****  **********************/
  72:Drivers/lvgl/src/extra/widgets/calendar/lv_calendar_header_dropdown.c **** 
  73:Drivers/lvgl/src/extra/widgets/calendar/lv_calendar_header_dropdown.c **** static void my_constructor(const lv_obj_class_t * class_p, lv_obj_t * obj)
  74:Drivers/lvgl/src/extra/widgets/calendar/lv_calendar_header_dropdown.c **** {
  55              		.loc 1 74 1 view -0
  56              		.cfi_startproc
  57              		@ args = 0, pretend = 0, frame = 0
  58              		@ frame_needed = 0, uses_anonymous_args = 0
  59              		.loc 1 74 1 is_stmt 0 view .LVU1
  60 0000 70B5     		push	{r4, r5, r6, lr}
  61              		.cfi_def_cfa_offset 16
  62              		.cfi_offset 4, -16
  63              		.cfi_offset 5, -12
  64              		.cfi_offset 6, -8
  65              		.cfi_offset 14, -4
  66 0002 0C46     		mov	r4, r1
  75:Drivers/lvgl/src/extra/widgets/calendar/lv_calendar_header_dropdown.c ****     LV_TRACE_OBJ_CREATE("begin");
  67              		.loc 1 75 33 is_stmt 1 view .LVU2
  76:Drivers/lvgl/src/extra/widgets/calendar/lv_calendar_header_dropdown.c **** 
  77:Drivers/lvgl/src/extra/widgets/calendar/lv_calendar_header_dropdown.c ****     LV_UNUSED(class_p);
  68              		.loc 1 77 5 view .LVU3
  78:Drivers/lvgl/src/extra/widgets/calendar/lv_calendar_header_dropdown.c **** 
  79:Drivers/lvgl/src/extra/widgets/calendar/lv_calendar_header_dropdown.c ****     lv_obj_t * calendar = lv_obj_get_parent(obj);
ARM GAS  /var/folders/lp/x54gwt890xv47sdkqj1k04q40000gn/T//cc3OsGHO.s 			page 5


  69              		.loc 1 79 5 view .LVU4
  70              		.loc 1 79 27 is_stmt 0 view .LVU5
  71 0004 0846     		mov	r0, r1
  72              	.LVL1:
  73              		.loc 1 79 27 view .LVU6
  74 0006 FFF7FEFF 		bl	lv_obj_get_parent
  75              	.LVL2:
  76              		.loc 1 79 27 view .LVU7
  77 000a 0646     		mov	r6, r0
  78              	.LVL3:
  80:Drivers/lvgl/src/extra/widgets/calendar/lv_calendar_header_dropdown.c ****     lv_obj_move_to_index(obj, 0);
  79              		.loc 1 80 5 is_stmt 1 view .LVU8
  80 000c 0021     		movs	r1, #0
  81 000e 2046     		mov	r0, r4
  82              	.LVL4:
  83              		.loc 1 80 5 is_stmt 0 view .LVU9
  84 0010 FFF7FEFF 		bl	lv_obj_move_to_index
  85              	.LVL5:
  81:Drivers/lvgl/src/extra/widgets/calendar/lv_calendar_header_dropdown.c ****     lv_obj_set_flex_flow(obj, LV_FLEX_FLOW_ROW);
  86              		.loc 1 81 5 is_stmt 1 view .LVU10
  87 0014 0021     		movs	r1, #0
  88 0016 2046     		mov	r0, r4
  89 0018 FFF7FEFF 		bl	lv_obj_set_flex_flow
  90              	.LVL6:
  82:Drivers/lvgl/src/extra/widgets/calendar/lv_calendar_header_dropdown.c **** 
  83:Drivers/lvgl/src/extra/widgets/calendar/lv_calendar_header_dropdown.c ****     lv_obj_t * year_dd = lv_dropdown_create(obj);
  91              		.loc 1 83 5 view .LVU11
  92              		.loc 1 83 26 is_stmt 0 view .LVU12
  93 001c 2046     		mov	r0, r4
  94 001e FFF7FEFF 		bl	lv_dropdown_create
  95              	.LVL7:
  96 0022 0546     		mov	r5, r0
  97              	.LVL8:
  84:Drivers/lvgl/src/extra/widgets/calendar/lv_calendar_header_dropdown.c ****     lv_dropdown_set_options(year_dd, year_list);
  98              		.loc 1 84 5 is_stmt 1 view .LVU13
  99 0024 1449     		ldr	r1, .L3
 100 0026 FFF7FEFF 		bl	lv_dropdown_set_options
 101              	.LVL9:
  85:Drivers/lvgl/src/extra/widgets/calendar/lv_calendar_header_dropdown.c ****     lv_obj_add_event_cb(year_dd, year_event_cb, LV_EVENT_VALUE_CHANGED, calendar);
 102              		.loc 1 85 5 view .LVU14
 103 002a 3346     		mov	r3, r6
 104 002c 1C22     		movs	r2, #28
 105 002e 1349     		ldr	r1, .L3+4
 106 0030 2846     		mov	r0, r5
 107 0032 FFF7FEFF 		bl	lv_obj_add_event_cb
 108              	.LVL10:
  86:Drivers/lvgl/src/extra/widgets/calendar/lv_calendar_header_dropdown.c ****     lv_obj_set_flex_grow(year_dd, 1);
 109              		.loc 1 86 5 view .LVU15
 110 0036 0121     		movs	r1, #1
 111 0038 2846     		mov	r0, r5
 112 003a FFF7FEFF 		bl	lv_obj_set_flex_grow
 113              	.LVL11:
  87:Drivers/lvgl/src/extra/widgets/calendar/lv_calendar_header_dropdown.c **** 
  88:Drivers/lvgl/src/extra/widgets/calendar/lv_calendar_header_dropdown.c ****     lv_obj_t * month_dd = lv_dropdown_create(obj);
 114              		.loc 1 88 5 view .LVU16
 115              		.loc 1 88 27 is_stmt 0 view .LVU17
 116 003e 2046     		mov	r0, r4
ARM GAS  /var/folders/lp/x54gwt890xv47sdkqj1k04q40000gn/T//cc3OsGHO.s 			page 6


 117 0040 FFF7FEFF 		bl	lv_dropdown_create
 118              	.LVL12:
 119 0044 0546     		mov	r5, r0
 120              	.LVL13:
  89:Drivers/lvgl/src/extra/widgets/calendar/lv_calendar_header_dropdown.c ****     lv_dropdown_set_options(month_dd, month_list);
 121              		.loc 1 89 5 is_stmt 1 view .LVU18
 122 0046 0E49     		ldr	r1, .L3+8
 123 0048 FFF7FEFF 		bl	lv_dropdown_set_options
 124              	.LVL14:
  90:Drivers/lvgl/src/extra/widgets/calendar/lv_calendar_header_dropdown.c ****     lv_obj_add_event_cb(month_dd, month_event_cb, LV_EVENT_VALUE_CHANGED, calendar);
 125              		.loc 1 90 5 view .LVU19
 126 004c 3346     		mov	r3, r6
 127 004e 1C22     		movs	r2, #28
 128 0050 0C49     		ldr	r1, .L3+12
 129 0052 2846     		mov	r0, r5
 130 0054 FFF7FEFF 		bl	lv_obj_add_event_cb
 131              	.LVL15:
  91:Drivers/lvgl/src/extra/widgets/calendar/lv_calendar_header_dropdown.c ****     lv_obj_set_flex_grow(month_dd, 1);
 132              		.loc 1 91 5 view .LVU20
 133 0058 0121     		movs	r1, #1
 134 005a 2846     		mov	r0, r5
 135 005c FFF7FEFF 		bl	lv_obj_set_flex_grow
 136              	.LVL16:
  92:Drivers/lvgl/src/extra/widgets/calendar/lv_calendar_header_dropdown.c **** 
  93:Drivers/lvgl/src/extra/widgets/calendar/lv_calendar_header_dropdown.c ****     lv_obj_add_event_cb(obj, value_changed_event_cb, LV_EVENT_VALUE_CHANGED, NULL);
 137              		.loc 1 93 5 view .LVU21
 138 0060 0023     		movs	r3, #0
 139 0062 1C22     		movs	r2, #28
 140 0064 0849     		ldr	r1, .L3+16
 141 0066 2046     		mov	r0, r4
 142 0068 FFF7FEFF 		bl	lv_obj_add_event_cb
 143              	.LVL17:
  94:Drivers/lvgl/src/extra/widgets/calendar/lv_calendar_header_dropdown.c ****     /*Refresh the drop downs*/
  95:Drivers/lvgl/src/extra/widgets/calendar/lv_calendar_header_dropdown.c ****     lv_event_send(obj, LV_EVENT_VALUE_CHANGED, NULL);
 144              		.loc 1 95 5 view .LVU22
 145 006c 0022     		movs	r2, #0
 146 006e 1C21     		movs	r1, #28
 147 0070 2046     		mov	r0, r4
 148 0072 FFF7FEFF 		bl	lv_event_send
 149              	.LVL18:
  96:Drivers/lvgl/src/extra/widgets/calendar/lv_calendar_header_dropdown.c **** }
 150              		.loc 1 96 1 is_stmt 0 view .LVU23
 151 0076 70BD     		pop	{r4, r5, r6, pc}
 152              	.LVL19:
 153              	.L4:
 154              		.loc 1 96 1 view .LVU24
 155              		.align	2
 156              	.L3:
 157 0078 00000000 		.word	.LC0
 158 007c 00000000 		.word	year_event_cb
 159 0080 68020000 		.word	.LC1
 160 0084 00000000 		.word	month_event_cb
 161 0088 00000000 		.word	value_changed_event_cb
 162              		.cfi_endproc
 163              	.LFE167:
 165              		.section	.text.value_changed_event_cb,"ax",%progbits
 166              		.align	1
ARM GAS  /var/folders/lp/x54gwt890xv47sdkqj1k04q40000gn/T//cc3OsGHO.s 			page 7


 167              		.syntax unified
 168              		.thumb
 169              		.thumb_func
 171              	value_changed_event_cb:
 172              	.LVL20:
 173              	.LFB170:
  97:Drivers/lvgl/src/extra/widgets/calendar/lv_calendar_header_dropdown.c **** 
  98:Drivers/lvgl/src/extra/widgets/calendar/lv_calendar_header_dropdown.c **** static void month_event_cb(lv_event_t * e)
  99:Drivers/lvgl/src/extra/widgets/calendar/lv_calendar_header_dropdown.c **** {
 100:Drivers/lvgl/src/extra/widgets/calendar/lv_calendar_header_dropdown.c ****     lv_obj_t * dropdown = lv_event_get_target(e);
 101:Drivers/lvgl/src/extra/widgets/calendar/lv_calendar_header_dropdown.c ****     lv_obj_t * calendar = lv_event_get_user_data(e);
 102:Drivers/lvgl/src/extra/widgets/calendar/lv_calendar_header_dropdown.c **** 
 103:Drivers/lvgl/src/extra/widgets/calendar/lv_calendar_header_dropdown.c ****     uint16_t sel = lv_dropdown_get_selected(dropdown);
 104:Drivers/lvgl/src/extra/widgets/calendar/lv_calendar_header_dropdown.c **** 
 105:Drivers/lvgl/src/extra/widgets/calendar/lv_calendar_header_dropdown.c ****     const lv_calendar_date_t * d;
 106:Drivers/lvgl/src/extra/widgets/calendar/lv_calendar_header_dropdown.c ****     d = lv_calendar_get_showed_date(calendar);
 107:Drivers/lvgl/src/extra/widgets/calendar/lv_calendar_header_dropdown.c ****     lv_calendar_date_t newd = *d;
 108:Drivers/lvgl/src/extra/widgets/calendar/lv_calendar_header_dropdown.c ****     newd.month = sel + 1;
 109:Drivers/lvgl/src/extra/widgets/calendar/lv_calendar_header_dropdown.c **** 
 110:Drivers/lvgl/src/extra/widgets/calendar/lv_calendar_header_dropdown.c ****     lv_calendar_set_showed_date(calendar, newd.year, newd.month);
 111:Drivers/lvgl/src/extra/widgets/calendar/lv_calendar_header_dropdown.c **** }
 112:Drivers/lvgl/src/extra/widgets/calendar/lv_calendar_header_dropdown.c **** 
 113:Drivers/lvgl/src/extra/widgets/calendar/lv_calendar_header_dropdown.c **** static void year_event_cb(lv_event_t * e)
 114:Drivers/lvgl/src/extra/widgets/calendar/lv_calendar_header_dropdown.c **** {
 115:Drivers/lvgl/src/extra/widgets/calendar/lv_calendar_header_dropdown.c ****     lv_obj_t * dropdown = lv_event_get_target(e);
 116:Drivers/lvgl/src/extra/widgets/calendar/lv_calendar_header_dropdown.c ****     lv_obj_t * calendar = lv_event_get_user_data(e);
 117:Drivers/lvgl/src/extra/widgets/calendar/lv_calendar_header_dropdown.c **** 
 118:Drivers/lvgl/src/extra/widgets/calendar/lv_calendar_header_dropdown.c ****     uint16_t sel = lv_dropdown_get_selected(dropdown);
 119:Drivers/lvgl/src/extra/widgets/calendar/lv_calendar_header_dropdown.c **** 
 120:Drivers/lvgl/src/extra/widgets/calendar/lv_calendar_header_dropdown.c ****     const lv_calendar_date_t * d;
 121:Drivers/lvgl/src/extra/widgets/calendar/lv_calendar_header_dropdown.c ****     d = lv_calendar_get_showed_date(calendar);
 122:Drivers/lvgl/src/extra/widgets/calendar/lv_calendar_header_dropdown.c ****     lv_calendar_date_t newd = *d;
 123:Drivers/lvgl/src/extra/widgets/calendar/lv_calendar_header_dropdown.c ****     newd.year = 2023 - sel;
 124:Drivers/lvgl/src/extra/widgets/calendar/lv_calendar_header_dropdown.c **** 
 125:Drivers/lvgl/src/extra/widgets/calendar/lv_calendar_header_dropdown.c ****     lv_calendar_set_showed_date(calendar, newd.year, newd.month);
 126:Drivers/lvgl/src/extra/widgets/calendar/lv_calendar_header_dropdown.c **** }
 127:Drivers/lvgl/src/extra/widgets/calendar/lv_calendar_header_dropdown.c **** 
 128:Drivers/lvgl/src/extra/widgets/calendar/lv_calendar_header_dropdown.c **** static void value_changed_event_cb(lv_event_t * e)
 129:Drivers/lvgl/src/extra/widgets/calendar/lv_calendar_header_dropdown.c **** {
 174              		.loc 1 129 1 is_stmt 1 view -0
 175              		.cfi_startproc
 176              		@ args = 0, pretend = 0, frame = 0
 177              		@ frame_needed = 0, uses_anonymous_args = 0
 178              		.loc 1 129 1 is_stmt 0 view .LVU26
 179 0000 38B5     		push	{r3, r4, r5, lr}
 180              		.cfi_def_cfa_offset 16
 181              		.cfi_offset 3, -16
 182              		.cfi_offset 4, -12
 183              		.cfi_offset 5, -8
 184              		.cfi_offset 14, -4
 130:Drivers/lvgl/src/extra/widgets/calendar/lv_calendar_header_dropdown.c ****     lv_obj_t * header = lv_event_get_target(e);
 185              		.loc 1 130 5 is_stmt 1 view .LVU27
 186              		.loc 1 130 25 is_stmt 0 view .LVU28
 187 0002 FFF7FEFF 		bl	lv_event_get_target
 188              	.LVL21:
 189              		.loc 1 130 25 view .LVU29
 190 0006 0546     		mov	r5, r0
ARM GAS  /var/folders/lp/x54gwt890xv47sdkqj1k04q40000gn/T//cc3OsGHO.s 			page 8


 191              	.LVL22:
 131:Drivers/lvgl/src/extra/widgets/calendar/lv_calendar_header_dropdown.c ****     lv_obj_t * calendar = lv_obj_get_parent(header);
 192              		.loc 1 131 5 is_stmt 1 view .LVU30
 193              		.loc 1 131 27 is_stmt 0 view .LVU31
 194 0008 FFF7FEFF 		bl	lv_obj_get_parent
 195              	.LVL23:
 132:Drivers/lvgl/src/extra/widgets/calendar/lv_calendar_header_dropdown.c ****     const lv_calendar_date_t * cur_date = lv_calendar_get_showed_date(calendar);
 196              		.loc 1 132 5 is_stmt 1 view .LVU32
 197              		.loc 1 132 43 is_stmt 0 view .LVU33
 198 000c FFF7FEFF 		bl	lv_calendar_get_showed_date
 199              	.LVL24:
 200              		.loc 1 132 43 view .LVU34
 201 0010 0446     		mov	r4, r0
 202              	.LVL25:
 133:Drivers/lvgl/src/extra/widgets/calendar/lv_calendar_header_dropdown.c **** 
 134:Drivers/lvgl/src/extra/widgets/calendar/lv_calendar_header_dropdown.c ****     lv_obj_t * year_dd = lv_obj_get_child(header, 0);
 203              		.loc 1 134 5 is_stmt 1 view .LVU35
 204              		.loc 1 134 26 is_stmt 0 view .LVU36
 205 0012 0021     		movs	r1, #0
 206 0014 2846     		mov	r0, r5
 207              	.LVL26:
 208              		.loc 1 134 26 view .LVU37
 209 0016 FFF7FEFF 		bl	lv_obj_get_child
 210              	.LVL27:
 135:Drivers/lvgl/src/extra/widgets/calendar/lv_calendar_header_dropdown.c ****     lv_dropdown_set_selected(year_dd, 2023 - cur_date->year);
 211              		.loc 1 135 5 is_stmt 1 view .LVU38
 212              		.loc 1 135 54 is_stmt 0 view .LVU39
 213 001a 2188     		ldrh	r1, [r4]
 214              		.loc 1 135 5 view .LVU40
 215 001c C1F5FC61 		rsb	r1, r1, #2016
 216 0020 0731     		adds	r1, r1, #7
 217 0022 89B2     		uxth	r1, r1
 218 0024 FFF7FEFF 		bl	lv_dropdown_set_selected
 219              	.LVL28:
 136:Drivers/lvgl/src/extra/widgets/calendar/lv_calendar_header_dropdown.c **** 
 137:Drivers/lvgl/src/extra/widgets/calendar/lv_calendar_header_dropdown.c ****     lv_obj_t * month_dd = lv_obj_get_child(header, 1);
 220              		.loc 1 137 5 is_stmt 1 view .LVU41
 221              		.loc 1 137 27 is_stmt 0 view .LVU42
 222 0028 0121     		movs	r1, #1
 223 002a 2846     		mov	r0, r5
 224 002c FFF7FEFF 		bl	lv_obj_get_child
 225              	.LVL29:
 138:Drivers/lvgl/src/extra/widgets/calendar/lv_calendar_header_dropdown.c ****     lv_dropdown_set_selected(month_dd, cur_date->month - 1);
 226              		.loc 1 138 5 is_stmt 1 view .LVU43
 227              		.loc 1 138 48 is_stmt 0 view .LVU44
 228 0030 94F90210 		ldrsb	r1, [r4, #2]
 229 0034 89B2     		uxth	r1, r1
 230              		.loc 1 138 5 view .LVU45
 231 0036 0139     		subs	r1, r1, #1
 232 0038 89B2     		uxth	r1, r1
 233 003a FFF7FEFF 		bl	lv_dropdown_set_selected
 234              	.LVL30:
 139:Drivers/lvgl/src/extra/widgets/calendar/lv_calendar_header_dropdown.c **** }
 235              		.loc 1 139 1 view .LVU46
 236 003e 38BD     		pop	{r3, r4, r5, pc}
 237              		.loc 1 139 1 view .LVU47
 238              		.cfi_endproc
ARM GAS  /var/folders/lp/x54gwt890xv47sdkqj1k04q40000gn/T//cc3OsGHO.s 			page 9


 239              	.LFE170:
 241              		.section	.text.month_event_cb,"ax",%progbits
 242              		.align	1
 243              		.syntax unified
 244              		.thumb
 245              		.thumb_func
 247              	month_event_cb:
 248              	.LVL31:
 249              	.LFB168:
  99:Drivers/lvgl/src/extra/widgets/calendar/lv_calendar_header_dropdown.c ****     lv_obj_t * dropdown = lv_event_get_target(e);
 250              		.loc 1 99 1 is_stmt 1 view -0
 251              		.cfi_startproc
 252              		@ args = 0, pretend = 0, frame = 8
 253              		@ frame_needed = 0, uses_anonymous_args = 0
  99:Drivers/lvgl/src/extra/widgets/calendar/lv_calendar_header_dropdown.c ****     lv_obj_t * dropdown = lv_event_get_target(e);
 254              		.loc 1 99 1 is_stmt 0 view .LVU49
 255 0000 30B5     		push	{r4, r5, lr}
 256              		.cfi_def_cfa_offset 12
 257              		.cfi_offset 4, -12
 258              		.cfi_offset 5, -8
 259              		.cfi_offset 14, -4
 260 0002 83B0     		sub	sp, sp, #12
 261              		.cfi_def_cfa_offset 24
 262 0004 0546     		mov	r5, r0
 100:Drivers/lvgl/src/extra/widgets/calendar/lv_calendar_header_dropdown.c ****     lv_obj_t * calendar = lv_event_get_user_data(e);
 263              		.loc 1 100 5 is_stmt 1 view .LVU50
 100:Drivers/lvgl/src/extra/widgets/calendar/lv_calendar_header_dropdown.c ****     lv_obj_t * calendar = lv_event_get_user_data(e);
 264              		.loc 1 100 27 is_stmt 0 view .LVU51
 265 0006 FFF7FEFF 		bl	lv_event_get_target
 266              	.LVL32:
 100:Drivers/lvgl/src/extra/widgets/calendar/lv_calendar_header_dropdown.c ****     lv_obj_t * calendar = lv_event_get_user_data(e);
 267              		.loc 1 100 27 view .LVU52
 268 000a 0446     		mov	r4, r0
 269              	.LVL33:
 101:Drivers/lvgl/src/extra/widgets/calendar/lv_calendar_header_dropdown.c **** 
 270              		.loc 1 101 5 is_stmt 1 view .LVU53
 101:Drivers/lvgl/src/extra/widgets/calendar/lv_calendar_header_dropdown.c **** 
 271              		.loc 1 101 27 is_stmt 0 view .LVU54
 272 000c 2846     		mov	r0, r5
 273              	.LVL34:
 101:Drivers/lvgl/src/extra/widgets/calendar/lv_calendar_header_dropdown.c **** 
 274              		.loc 1 101 27 view .LVU55
 275 000e FFF7FEFF 		bl	lv_event_get_user_data
 276              	.LVL35:
 277 0012 0546     		mov	r5, r0
 278              	.LVL36:
 103:Drivers/lvgl/src/extra/widgets/calendar/lv_calendar_header_dropdown.c **** 
 279              		.loc 1 103 5 is_stmt 1 view .LVU56
 103:Drivers/lvgl/src/extra/widgets/calendar/lv_calendar_header_dropdown.c **** 
 280              		.loc 1 103 20 is_stmt 0 view .LVU57
 281 0014 2046     		mov	r0, r4
 282              	.LVL37:
 103:Drivers/lvgl/src/extra/widgets/calendar/lv_calendar_header_dropdown.c **** 
 283              		.loc 1 103 20 view .LVU58
 284 0016 FFF7FEFF 		bl	lv_dropdown_get_selected
 285              	.LVL38:
 286 001a 0446     		mov	r4, r0
ARM GAS  /var/folders/lp/x54gwt890xv47sdkqj1k04q40000gn/T//cc3OsGHO.s 			page 10


 287              	.LVL39:
 105:Drivers/lvgl/src/extra/widgets/calendar/lv_calendar_header_dropdown.c ****     d = lv_calendar_get_showed_date(calendar);
 288              		.loc 1 105 5 is_stmt 1 view .LVU59
 106:Drivers/lvgl/src/extra/widgets/calendar/lv_calendar_header_dropdown.c ****     lv_calendar_date_t newd = *d;
 289              		.loc 1 106 5 view .LVU60
 106:Drivers/lvgl/src/extra/widgets/calendar/lv_calendar_header_dropdown.c ****     lv_calendar_date_t newd = *d;
 290              		.loc 1 106 9 is_stmt 0 view .LVU61
 291 001c 2846     		mov	r0, r5
 292 001e FFF7FEFF 		bl	lv_calendar_get_showed_date
 293              	.LVL40:
 107:Drivers/lvgl/src/extra/widgets/calendar/lv_calendar_header_dropdown.c ****     newd.month = sel + 1;
 294              		.loc 1 107 5 is_stmt 1 view .LVU62
 107:Drivers/lvgl/src/extra/widgets/calendar/lv_calendar_header_dropdown.c ****     newd.month = sel + 1;
 295              		.loc 1 107 24 is_stmt 0 view .LVU63
 296 0022 0068     		ldr	r0, [r0]	@ unaligned
 297              	.LVL41:
 107:Drivers/lvgl/src/extra/widgets/calendar/lv_calendar_header_dropdown.c ****     newd.month = sel + 1;
 298              		.loc 1 107 24 view .LVU64
 299 0024 0190     		str	r0, [sp, #4]
 108:Drivers/lvgl/src/extra/widgets/calendar/lv_calendar_header_dropdown.c **** 
 300              		.loc 1 108 5 is_stmt 1 view .LVU65
 108:Drivers/lvgl/src/extra/widgets/calendar/lv_calendar_header_dropdown.c **** 
 301              		.loc 1 108 22 is_stmt 0 view .LVU66
 302 0026 621C     		adds	r2, r4, #1
 303 0028 52B2     		sxtb	r2, r2
 108:Drivers/lvgl/src/extra/widgets/calendar/lv_calendar_header_dropdown.c **** 
 304              		.loc 1 108 16 view .LVU67
 305 002a 8DF80620 		strb	r2, [sp, #6]
 110:Drivers/lvgl/src/extra/widgets/calendar/lv_calendar_header_dropdown.c **** }
 306              		.loc 1 110 5 is_stmt 1 view .LVU68
 307 002e BDF80410 		ldrh	r1, [sp, #4]
 308 0032 2846     		mov	r0, r5
 309 0034 FFF7FEFF 		bl	lv_calendar_set_showed_date
 310              	.LVL42:
 111:Drivers/lvgl/src/extra/widgets/calendar/lv_calendar_header_dropdown.c **** 
 311              		.loc 1 111 1 is_stmt 0 view .LVU69
 312 0038 03B0     		add	sp, sp, #12
 313              		.cfi_def_cfa_offset 12
 314              		@ sp needed
 315 003a 30BD     		pop	{r4, r5, pc}
 111:Drivers/lvgl/src/extra/widgets/calendar/lv_calendar_header_dropdown.c **** 
 316              		.loc 1 111 1 view .LVU70
 317              		.cfi_endproc
 318              	.LFE168:
 320              		.section	.text.year_event_cb,"ax",%progbits
 321              		.align	1
 322              		.syntax unified
 323              		.thumb
 324              		.thumb_func
 326              	year_event_cb:
 327              	.LVL43:
 328              	.LFB169:
 114:Drivers/lvgl/src/extra/widgets/calendar/lv_calendar_header_dropdown.c ****     lv_obj_t * dropdown = lv_event_get_target(e);
 329              		.loc 1 114 1 is_stmt 1 view -0
 330              		.cfi_startproc
 331              		@ args = 0, pretend = 0, frame = 8
 332              		@ frame_needed = 0, uses_anonymous_args = 0
ARM GAS  /var/folders/lp/x54gwt890xv47sdkqj1k04q40000gn/T//cc3OsGHO.s 			page 11


 114:Drivers/lvgl/src/extra/widgets/calendar/lv_calendar_header_dropdown.c ****     lv_obj_t * dropdown = lv_event_get_target(e);
 333              		.loc 1 114 1 is_stmt 0 view .LVU72
 334 0000 30B5     		push	{r4, r5, lr}
 335              		.cfi_def_cfa_offset 12
 336              		.cfi_offset 4, -12
 337              		.cfi_offset 5, -8
 338              		.cfi_offset 14, -4
 339 0002 83B0     		sub	sp, sp, #12
 340              		.cfi_def_cfa_offset 24
 341 0004 0546     		mov	r5, r0
 115:Drivers/lvgl/src/extra/widgets/calendar/lv_calendar_header_dropdown.c ****     lv_obj_t * calendar = lv_event_get_user_data(e);
 342              		.loc 1 115 5 is_stmt 1 view .LVU73
 115:Drivers/lvgl/src/extra/widgets/calendar/lv_calendar_header_dropdown.c ****     lv_obj_t * calendar = lv_event_get_user_data(e);
 343              		.loc 1 115 27 is_stmt 0 view .LVU74
 344 0006 FFF7FEFF 		bl	lv_event_get_target
 345              	.LVL44:
 115:Drivers/lvgl/src/extra/widgets/calendar/lv_calendar_header_dropdown.c ****     lv_obj_t * calendar = lv_event_get_user_data(e);
 346              		.loc 1 115 27 view .LVU75
 347 000a 0446     		mov	r4, r0
 348              	.LVL45:
 116:Drivers/lvgl/src/extra/widgets/calendar/lv_calendar_header_dropdown.c **** 
 349              		.loc 1 116 5 is_stmt 1 view .LVU76
 116:Drivers/lvgl/src/extra/widgets/calendar/lv_calendar_header_dropdown.c **** 
 350              		.loc 1 116 27 is_stmt 0 view .LVU77
 351 000c 2846     		mov	r0, r5
 352              	.LVL46:
 116:Drivers/lvgl/src/extra/widgets/calendar/lv_calendar_header_dropdown.c **** 
 353              		.loc 1 116 27 view .LVU78
 354 000e FFF7FEFF 		bl	lv_event_get_user_data
 355              	.LVL47:
 356 0012 0546     		mov	r5, r0
 357              	.LVL48:
 118:Drivers/lvgl/src/extra/widgets/calendar/lv_calendar_header_dropdown.c **** 
 358              		.loc 1 118 5 is_stmt 1 view .LVU79
 118:Drivers/lvgl/src/extra/widgets/calendar/lv_calendar_header_dropdown.c **** 
 359              		.loc 1 118 20 is_stmt 0 view .LVU80
 360 0014 2046     		mov	r0, r4
 361              	.LVL49:
 118:Drivers/lvgl/src/extra/widgets/calendar/lv_calendar_header_dropdown.c **** 
 362              		.loc 1 118 20 view .LVU81
 363 0016 FFF7FEFF 		bl	lv_dropdown_get_selected
 364              	.LVL50:
 365 001a 0446     		mov	r4, r0
 366              	.LVL51:
 120:Drivers/lvgl/src/extra/widgets/calendar/lv_calendar_header_dropdown.c ****     d = lv_calendar_get_showed_date(calendar);
 367              		.loc 1 120 5 is_stmt 1 view .LVU82
 121:Drivers/lvgl/src/extra/widgets/calendar/lv_calendar_header_dropdown.c ****     lv_calendar_date_t newd = *d;
 368              		.loc 1 121 5 view .LVU83
 121:Drivers/lvgl/src/extra/widgets/calendar/lv_calendar_header_dropdown.c ****     lv_calendar_date_t newd = *d;
 369              		.loc 1 121 9 is_stmt 0 view .LVU84
 370 001c 2846     		mov	r0, r5
 371 001e FFF7FEFF 		bl	lv_calendar_get_showed_date
 372              	.LVL52:
 122:Drivers/lvgl/src/extra/widgets/calendar/lv_calendar_header_dropdown.c ****     newd.year = 2023 - sel;
 373              		.loc 1 122 5 is_stmt 1 view .LVU85
 122:Drivers/lvgl/src/extra/widgets/calendar/lv_calendar_header_dropdown.c ****     newd.year = 2023 - sel;
 374              		.loc 1 122 24 is_stmt 0 view .LVU86
ARM GAS  /var/folders/lp/x54gwt890xv47sdkqj1k04q40000gn/T//cc3OsGHO.s 			page 12


 375 0022 0068     		ldr	r0, [r0]	@ unaligned
 376              	.LVL53:
 122:Drivers/lvgl/src/extra/widgets/calendar/lv_calendar_header_dropdown.c ****     newd.year = 2023 - sel;
 377              		.loc 1 122 24 view .LVU87
 378 0024 0190     		str	r0, [sp, #4]
 123:Drivers/lvgl/src/extra/widgets/calendar/lv_calendar_header_dropdown.c **** 
 379              		.loc 1 123 5 is_stmt 1 view .LVU88
 123:Drivers/lvgl/src/extra/widgets/calendar/lv_calendar_header_dropdown.c **** 
 380              		.loc 1 123 22 is_stmt 0 view .LVU89
 381 0026 C4F5FC61 		rsb	r1, r4, #2016
 382 002a 0731     		adds	r1, r1, #7
 383 002c 89B2     		uxth	r1, r1
 123:Drivers/lvgl/src/extra/widgets/calendar/lv_calendar_header_dropdown.c **** 
 384              		.loc 1 123 15 view .LVU90
 385 002e ADF80410 		strh	r1, [sp, #4]	@ movhi
 125:Drivers/lvgl/src/extra/widgets/calendar/lv_calendar_header_dropdown.c **** }
 386              		.loc 1 125 5 is_stmt 1 view .LVU91
 387 0032 9DF90620 		ldrsb	r2, [sp, #6]
 388 0036 2846     		mov	r0, r5
 389 0038 FFF7FEFF 		bl	lv_calendar_set_showed_date
 390              	.LVL54:
 126:Drivers/lvgl/src/extra/widgets/calendar/lv_calendar_header_dropdown.c **** 
 391              		.loc 1 126 1 is_stmt 0 view .LVU92
 392 003c 03B0     		add	sp, sp, #12
 393              		.cfi_def_cfa_offset 12
 394              		@ sp needed
 395 003e 30BD     		pop	{r4, r5, pc}
 126:Drivers/lvgl/src/extra/widgets/calendar/lv_calendar_header_dropdown.c **** 
 396              		.loc 1 126 1 view .LVU93
 397              		.cfi_endproc
 398              	.LFE169:
 400              		.section	.text.lv_calendar_header_dropdown_create,"ax",%progbits
 401              		.align	1
 402              		.global	lv_calendar_header_dropdown_create
 403              		.syntax unified
 404              		.thumb
 405              		.thumb_func
 407              	lv_calendar_header_dropdown_create:
 408              	.LVL55:
 409              	.LFB166:
  62:Drivers/lvgl/src/extra/widgets/calendar/lv_calendar_header_dropdown.c ****     lv_obj_t * obj = lv_obj_class_create_obj(&lv_calendar_header_dropdown_class, parent);
 410              		.loc 1 62 1 is_stmt 1 view -0
 411              		.cfi_startproc
 412              		@ args = 0, pretend = 0, frame = 0
 413              		@ frame_needed = 0, uses_anonymous_args = 0
  62:Drivers/lvgl/src/extra/widgets/calendar/lv_calendar_header_dropdown.c ****     lv_obj_t * obj = lv_obj_class_create_obj(&lv_calendar_header_dropdown_class, parent);
 414              		.loc 1 62 1 is_stmt 0 view .LVU95
 415 0000 10B5     		push	{r4, lr}
 416              		.cfi_def_cfa_offset 8
 417              		.cfi_offset 4, -8
 418              		.cfi_offset 14, -4
 419 0002 0146     		mov	r1, r0
  63:Drivers/lvgl/src/extra/widgets/calendar/lv_calendar_header_dropdown.c ****     lv_obj_class_init_obj(obj);
 420              		.loc 1 63 5 is_stmt 1 view .LVU96
  63:Drivers/lvgl/src/extra/widgets/calendar/lv_calendar_header_dropdown.c ****     lv_obj_class_init_obj(obj);
 421              		.loc 1 63 22 is_stmt 0 view .LVU97
 422 0004 0348     		ldr	r0, .L13
ARM GAS  /var/folders/lp/x54gwt890xv47sdkqj1k04q40000gn/T//cc3OsGHO.s 			page 13


 423              	.LVL56:
  63:Drivers/lvgl/src/extra/widgets/calendar/lv_calendar_header_dropdown.c ****     lv_obj_class_init_obj(obj);
 424              		.loc 1 63 22 view .LVU98
 425 0006 FFF7FEFF 		bl	lv_obj_class_create_obj
 426              	.LVL57:
  63:Drivers/lvgl/src/extra/widgets/calendar/lv_calendar_header_dropdown.c ****     lv_obj_class_init_obj(obj);
 427              		.loc 1 63 22 view .LVU99
 428 000a 0446     		mov	r4, r0
 429              	.LVL58:
  64:Drivers/lvgl/src/extra/widgets/calendar/lv_calendar_header_dropdown.c **** 
 430              		.loc 1 64 5 is_stmt 1 view .LVU100
 431 000c FFF7FEFF 		bl	lv_obj_class_init_obj
 432              	.LVL59:
  66:Drivers/lvgl/src/extra/widgets/calendar/lv_calendar_header_dropdown.c **** }
 433              		.loc 1 66 5 view .LVU101
  67:Drivers/lvgl/src/extra/widgets/calendar/lv_calendar_header_dropdown.c **** 
 434              		.loc 1 67 1 is_stmt 0 view .LVU102
 435 0010 2046     		mov	r0, r4
 436 0012 10BD     		pop	{r4, pc}
 437              	.LVL60:
 438              	.L14:
  67:Drivers/lvgl/src/extra/widgets/calendar/lv_calendar_header_dropdown.c **** 
 439              		.loc 1 67 1 view .LVU103
 440              		.align	2
 441              	.L13:
 442 0014 00000000 		.word	lv_calendar_header_dropdown_class
 443              		.cfi_endproc
 444              	.LFE166:
 446              		.global	lv_calendar_header_dropdown_class
 447              		.section	.rodata.lv_calendar_header_dropdown_class,"a"
 448              		.align	2
 451              	lv_calendar_header_dropdown_class:
 452 0000 00000000 		.word	lv_obj_class
 453 0004 00000000 		.word	my_constructor
 454 0008 00000000 		.space	12
 454      00000000 
 454      00000000 
 455 0014 6420     		.short	8292
 456 0016 D127     		.short	10193
 457 0018 00000000 		.space	4
 458              		.text
 459              	.Letext0:
 460              		.file 2 "/Users/jr/Library/Application Support/Code/User/globalStorage/bmd.stm32-for-vscode/@xpack
 461              		.file 3 "/Users/jr/Library/Application Support/Code/User/globalStorage/bmd.stm32-for-vscode/@xpack
 462              		.file 4 "Drivers/lvgl/src/extra/widgets/calendar/../../../core/../misc/../font/../misc/lv_area.h"
 463              		.file 5 "Drivers/lvgl/src/extra/widgets/calendar/../../../core/../misc/lv_types.h"
 464              		.file 6 "Drivers/lvgl/src/extra/widgets/calendar/../../../core/../misc/lv_color.h"
 465              		.file 7 "Drivers/lvgl/src/extra/widgets/calendar/../../../core/../misc/lv_style.h"
 466              		.file 8 "Drivers/lvgl/src/extra/widgets/calendar/../../../core/lv_obj.h"
 467              		.file 9 "Drivers/lvgl/src/extra/widgets/calendar/../../../core/../hal/../misc/lv_ll.h"
 468              		.file 10 "Drivers/lvgl/src/extra/widgets/calendar/../../../core/lv_group.h"
 469              		.file 11 "Drivers/lvgl/src/extra/widgets/calendar/../../../core/lv_obj_scroll.h"
 470              		.file 12 "Drivers/lvgl/src/extra/widgets/calendar/../../../core/lv_obj_style.h"
 471              		.file 13 "Drivers/lvgl/src/extra/widgets/calendar/../../../core/lv_obj_class.h"
 472              		.file 14 "Drivers/lvgl/src/extra/widgets/calendar/../../../core/lv_event.h"
 473              		.file 15 "Drivers/lvgl/src/extra/widgets/calendar/lv_calendar_header_dropdown.h"
 474              		.file 16 "Drivers/lvgl/src/extra/widgets/calendar/lv_calendar.h"
ARM GAS  /var/folders/lp/x54gwt890xv47sdkqj1k04q40000gn/T//cc3OsGHO.s 			page 14


 475              		.file 17 "Drivers/lvgl/src/extra/widgets/calendar/../../layouts/flex/lv_flex.h"
 476              		.file 18 "Drivers/lvgl/src/extra/widgets/calendar/../../../widgets/lv_dropdown.h"
 477              		.file 19 "Drivers/lvgl/src/extra/widgets/calendar/../../../core/lv_obj_tree.h"
ARM GAS  /var/folders/lp/x54gwt890xv47sdkqj1k04q40000gn/T//cc3OsGHO.s 			page 15

