ARM GAS  /var/folders/lp/x54gwt890xv47sdkqj1k04q40000gn/T//ccBldNkr.s 			page 1


   1              		.cpu cortex-m4
   2              		.arch armv7e-m
   3              		.fpu fpv4-sp-d16
   4              		.eabi_attribute 27, 1
   5              		.eabi_attribute 28, 1
   6              		.eabi_attribute 20, 1
   7              		.eabi_attribute 21, 1
   8              		.eabi_attribute 23, 3
   9              		.eabi_attribute 24, 1
  10              		.eabi_attribute 25, 1
  11              		.eabi_attribute 26, 1
  12              		.eabi_attribute 30, 1
  13              		.eabi_attribute 34, 1
  14              		.eabi_attribute 18, 4
  15              		.file	"lv_draw_line.c"
  16              		.text
  17              	.Ltext0:
  18              		.cfi_sections	.debug_frame
  19              		.file 1 "Drivers/lvgl/src/draw/lv_draw_line.c"
  20              		.section	.text.lv_draw_line_dsc_init,"ax",%progbits
  21              		.align	1
  22              		.global	lv_draw_line_dsc_init
  23              		.syntax unified
  24              		.thumb
  25              		.thumb_func
  27              	lv_draw_line_dsc_init:
  28              	.LVL0:
  29              	.LFB161:
   1:Drivers/lvgl/src/draw/lv_draw_line.c **** /**
   2:Drivers/lvgl/src/draw/lv_draw_line.c ****  * @file lv_draw_line.c
   3:Drivers/lvgl/src/draw/lv_draw_line.c ****  *
   4:Drivers/lvgl/src/draw/lv_draw_line.c ****  */
   5:Drivers/lvgl/src/draw/lv_draw_line.c **** 
   6:Drivers/lvgl/src/draw/lv_draw_line.c **** /*********************
   7:Drivers/lvgl/src/draw/lv_draw_line.c ****  *      INCLUDES
   8:Drivers/lvgl/src/draw/lv_draw_line.c ****  *********************/
   9:Drivers/lvgl/src/draw/lv_draw_line.c **** #include <stdbool.h>
  10:Drivers/lvgl/src/draw/lv_draw_line.c **** #include "../core/lv_refr.h"
  11:Drivers/lvgl/src/draw/lv_draw_line.c **** #include "../misc/lv_math.h"
  12:Drivers/lvgl/src/draw/lv_draw_line.c **** 
  13:Drivers/lvgl/src/draw/lv_draw_line.c **** /*********************
  14:Drivers/lvgl/src/draw/lv_draw_line.c ****  *      DEFINES
  15:Drivers/lvgl/src/draw/lv_draw_line.c ****  *********************/
  16:Drivers/lvgl/src/draw/lv_draw_line.c **** 
  17:Drivers/lvgl/src/draw/lv_draw_line.c **** /**********************
  18:Drivers/lvgl/src/draw/lv_draw_line.c ****  *      TYPEDEFS
  19:Drivers/lvgl/src/draw/lv_draw_line.c ****  **********************/
  20:Drivers/lvgl/src/draw/lv_draw_line.c **** 
  21:Drivers/lvgl/src/draw/lv_draw_line.c **** /**********************
  22:Drivers/lvgl/src/draw/lv_draw_line.c ****  *  STATIC PROTOTYPES
  23:Drivers/lvgl/src/draw/lv_draw_line.c ****  **********************/
  24:Drivers/lvgl/src/draw/lv_draw_line.c **** 
  25:Drivers/lvgl/src/draw/lv_draw_line.c **** /**********************
  26:Drivers/lvgl/src/draw/lv_draw_line.c ****  *  STATIC VARIABLES
  27:Drivers/lvgl/src/draw/lv_draw_line.c ****  **********************/
  28:Drivers/lvgl/src/draw/lv_draw_line.c **** 
  29:Drivers/lvgl/src/draw/lv_draw_line.c **** /**********************
ARM GAS  /var/folders/lp/x54gwt890xv47sdkqj1k04q40000gn/T//ccBldNkr.s 			page 2


  30:Drivers/lvgl/src/draw/lv_draw_line.c ****  *      MACROS
  31:Drivers/lvgl/src/draw/lv_draw_line.c ****  **********************/
  32:Drivers/lvgl/src/draw/lv_draw_line.c **** 
  33:Drivers/lvgl/src/draw/lv_draw_line.c **** /**********************
  34:Drivers/lvgl/src/draw/lv_draw_line.c ****  *   GLOBAL FUNCTIONS
  35:Drivers/lvgl/src/draw/lv_draw_line.c ****  **********************/
  36:Drivers/lvgl/src/draw/lv_draw_line.c **** 
  37:Drivers/lvgl/src/draw/lv_draw_line.c **** void LV_ATTRIBUTE_FAST_MEM lv_draw_line_dsc_init(lv_draw_line_dsc_t * dsc)
  38:Drivers/lvgl/src/draw/lv_draw_line.c **** {
  30              		.loc 1 38 1 view -0
  31              		.cfi_startproc
  32              		@ args = 0, pretend = 0, frame = 0
  33              		@ frame_needed = 0, uses_anonymous_args = 0
  34              		.loc 1 38 1 is_stmt 0 view .LVU1
  35 0000 10B5     		push	{r4, lr}
  36              		.cfi_def_cfa_offset 8
  37              		.cfi_offset 4, -8
  38              		.cfi_offset 14, -4
  39 0002 0446     		mov	r4, r0
  39:Drivers/lvgl/src/draw/lv_draw_line.c ****     lv_memset_00(dsc, sizeof(lv_draw_line_dsc_t));
  40              		.loc 1 39 5 is_stmt 1 view .LVU2
  41 0004 0A21     		movs	r1, #10
  42 0006 FFF7FEFF 		bl	lv_memset_00
  43              	.LVL1:
  40:Drivers/lvgl/src/draw/lv_draw_line.c ****     dsc->width = 1;
  44              		.loc 1 40 5 view .LVU3
  45              		.loc 1 40 16 is_stmt 0 view .LVU4
  46 000a 0123     		movs	r3, #1
  47 000c 6380     		strh	r3, [r4, #2]	@ movhi
  41:Drivers/lvgl/src/draw/lv_draw_line.c ****     dsc->opa = LV_OPA_COVER;
  48              		.loc 1 41 5 is_stmt 1 view .LVU5
  49              		.loc 1 41 14 is_stmt 0 view .LVU6
  50 000e FF23     		movs	r3, #255
  51 0010 2372     		strb	r3, [r4, #8]
  42:Drivers/lvgl/src/draw/lv_draw_line.c ****     dsc->color = lv_color_black();
  52              		.loc 1 42 5 is_stmt 1 view .LVU7
  53              	.LBB8:
  54              	.LBI8:
  55              		.file 2 "Drivers/lvgl/src/draw/../core/../misc/lv_color.h"
   1:Drivers/lvgl/src/draw/../core/../misc/lv_color.h **** /**
   2:Drivers/lvgl/src/draw/../core/../misc/lv_color.h ****  * @file lv_color.h
   3:Drivers/lvgl/src/draw/../core/../misc/lv_color.h ****  *
   4:Drivers/lvgl/src/draw/../core/../misc/lv_color.h ****  */
   5:Drivers/lvgl/src/draw/../core/../misc/lv_color.h **** 
   6:Drivers/lvgl/src/draw/../core/../misc/lv_color.h **** #ifndef LV_COLOR_H
   7:Drivers/lvgl/src/draw/../core/../misc/lv_color.h **** #define LV_COLOR_H
   8:Drivers/lvgl/src/draw/../core/../misc/lv_color.h **** 
   9:Drivers/lvgl/src/draw/../core/../misc/lv_color.h **** #ifdef __cplusplus
  10:Drivers/lvgl/src/draw/../core/../misc/lv_color.h **** extern "C" {
  11:Drivers/lvgl/src/draw/../core/../misc/lv_color.h **** #endif
  12:Drivers/lvgl/src/draw/../core/../misc/lv_color.h **** 
  13:Drivers/lvgl/src/draw/../core/../misc/lv_color.h **** /*********************
  14:Drivers/lvgl/src/draw/../core/../misc/lv_color.h ****  *      INCLUDES
  15:Drivers/lvgl/src/draw/../core/../misc/lv_color.h ****  *********************/
  16:Drivers/lvgl/src/draw/../core/../misc/lv_color.h **** #include "../lv_conf_internal.h"
  17:Drivers/lvgl/src/draw/../core/../misc/lv_color.h **** #include "lv_assert.h"
  18:Drivers/lvgl/src/draw/../core/../misc/lv_color.h **** #include "lv_math.h"
ARM GAS  /var/folders/lp/x54gwt890xv47sdkqj1k04q40000gn/T//ccBldNkr.s 			page 3


  19:Drivers/lvgl/src/draw/../core/../misc/lv_color.h **** #include "lv_types.h"
  20:Drivers/lvgl/src/draw/../core/../misc/lv_color.h **** 
  21:Drivers/lvgl/src/draw/../core/../misc/lv_color.h **** /*Error checking*/
  22:Drivers/lvgl/src/draw/../core/../misc/lv_color.h **** #if LV_COLOR_DEPTH == 24
  23:Drivers/lvgl/src/draw/../core/../misc/lv_color.h **** #error "LV_COLOR_DEPTH 24 is deprecated. Use LV_COLOR_DEPTH 32 instead (lv_conf.h)"
  24:Drivers/lvgl/src/draw/../core/../misc/lv_color.h **** #endif
  25:Drivers/lvgl/src/draw/../core/../misc/lv_color.h **** 
  26:Drivers/lvgl/src/draw/../core/../misc/lv_color.h **** #if LV_COLOR_DEPTH != 16 && LV_COLOR_16_SWAP != 0
  27:Drivers/lvgl/src/draw/../core/../misc/lv_color.h **** #error "LV_COLOR_16_SWAP requires LV_COLOR_DEPTH == 16. Set it in lv_conf.h"
  28:Drivers/lvgl/src/draw/../core/../misc/lv_color.h **** #endif
  29:Drivers/lvgl/src/draw/../core/../misc/lv_color.h **** 
  30:Drivers/lvgl/src/draw/../core/../misc/lv_color.h **** #include <stdint.h>
  31:Drivers/lvgl/src/draw/../core/../misc/lv_color.h **** 
  32:Drivers/lvgl/src/draw/../core/../misc/lv_color.h **** /*********************
  33:Drivers/lvgl/src/draw/../core/../misc/lv_color.h ****  *      DEFINES
  34:Drivers/lvgl/src/draw/../core/../misc/lv_color.h ****  *********************/
  35:Drivers/lvgl/src/draw/../core/../misc/lv_color.h **** LV_EXPORT_CONST_INT(LV_COLOR_DEPTH);
  36:Drivers/lvgl/src/draw/../core/../misc/lv_color.h **** LV_EXPORT_CONST_INT(LV_COLOR_16_SWAP);
  37:Drivers/lvgl/src/draw/../core/../misc/lv_color.h **** 
  38:Drivers/lvgl/src/draw/../core/../misc/lv_color.h **** /**
  39:Drivers/lvgl/src/draw/../core/../misc/lv_color.h ****  * Opacity percentages.
  40:Drivers/lvgl/src/draw/../core/../misc/lv_color.h ****  */
  41:Drivers/lvgl/src/draw/../core/../misc/lv_color.h **** enum {
  42:Drivers/lvgl/src/draw/../core/../misc/lv_color.h ****     LV_OPA_TRANSP = 0,
  43:Drivers/lvgl/src/draw/../core/../misc/lv_color.h ****     LV_OPA_0      = 0,
  44:Drivers/lvgl/src/draw/../core/../misc/lv_color.h ****     LV_OPA_10     = 25,
  45:Drivers/lvgl/src/draw/../core/../misc/lv_color.h ****     LV_OPA_20     = 51,
  46:Drivers/lvgl/src/draw/../core/../misc/lv_color.h ****     LV_OPA_30     = 76,
  47:Drivers/lvgl/src/draw/../core/../misc/lv_color.h ****     LV_OPA_40     = 102,
  48:Drivers/lvgl/src/draw/../core/../misc/lv_color.h ****     LV_OPA_50     = 127,
  49:Drivers/lvgl/src/draw/../core/../misc/lv_color.h ****     LV_OPA_60     = 153,
  50:Drivers/lvgl/src/draw/../core/../misc/lv_color.h ****     LV_OPA_70     = 178,
  51:Drivers/lvgl/src/draw/../core/../misc/lv_color.h ****     LV_OPA_80     = 204,
  52:Drivers/lvgl/src/draw/../core/../misc/lv_color.h ****     LV_OPA_90     = 229,
  53:Drivers/lvgl/src/draw/../core/../misc/lv_color.h ****     LV_OPA_100    = 255,
  54:Drivers/lvgl/src/draw/../core/../misc/lv_color.h ****     LV_OPA_COVER  = 255,
  55:Drivers/lvgl/src/draw/../core/../misc/lv_color.h **** };
  56:Drivers/lvgl/src/draw/../core/../misc/lv_color.h **** 
  57:Drivers/lvgl/src/draw/../core/../misc/lv_color.h **** #define LV_OPA_MIN 2    /*Opacities below this will be transparent*/
  58:Drivers/lvgl/src/draw/../core/../misc/lv_color.h **** #define LV_OPA_MAX 253  /*Opacities above this will fully cover*/
  59:Drivers/lvgl/src/draw/../core/../misc/lv_color.h **** 
  60:Drivers/lvgl/src/draw/../core/../misc/lv_color.h **** #if LV_COLOR_DEPTH == 1
  61:Drivers/lvgl/src/draw/../core/../misc/lv_color.h **** #define LV_COLOR_SIZE 8
  62:Drivers/lvgl/src/draw/../core/../misc/lv_color.h **** #elif LV_COLOR_DEPTH == 8
  63:Drivers/lvgl/src/draw/../core/../misc/lv_color.h **** #define LV_COLOR_SIZE 8
  64:Drivers/lvgl/src/draw/../core/../misc/lv_color.h **** #elif LV_COLOR_DEPTH == 16
  65:Drivers/lvgl/src/draw/../core/../misc/lv_color.h **** #define LV_COLOR_SIZE 16
  66:Drivers/lvgl/src/draw/../core/../misc/lv_color.h **** #elif LV_COLOR_DEPTH == 32
  67:Drivers/lvgl/src/draw/../core/../misc/lv_color.h **** #define LV_COLOR_SIZE 32
  68:Drivers/lvgl/src/draw/../core/../misc/lv_color.h **** #else
  69:Drivers/lvgl/src/draw/../core/../misc/lv_color.h **** #error "Invalid LV_COLOR_DEPTH in lv_conf.h! Set it to 1, 8, 16 or 32!"
  70:Drivers/lvgl/src/draw/../core/../misc/lv_color.h **** #endif
  71:Drivers/lvgl/src/draw/../core/../misc/lv_color.h **** 
  72:Drivers/lvgl/src/draw/../core/../misc/lv_color.h **** #if defined(__cplusplus) && !defined(_LV_COLOR_HAS_MODERN_CPP)
  73:Drivers/lvgl/src/draw/../core/../misc/lv_color.h **** /**
  74:Drivers/lvgl/src/draw/../core/../misc/lv_color.h **** * MSVC compiler's definition of the __cplusplus indicating 199711L regardless to C++ standard versi
  75:Drivers/lvgl/src/draw/../core/../misc/lv_color.h **** * see https://devblogs.microsoft.com/cppblog/msvc-now-correctly-reports-cplusplus
ARM GAS  /var/folders/lp/x54gwt890xv47sdkqj1k04q40000gn/T//ccBldNkr.s 			page 4


  76:Drivers/lvgl/src/draw/../core/../misc/lv_color.h **** * so we use _MSC_VER macro instead of __cplusplus
  77:Drivers/lvgl/src/draw/../core/../misc/lv_color.h **** */
  78:Drivers/lvgl/src/draw/../core/../misc/lv_color.h **** #ifdef _MSC_VER
  79:Drivers/lvgl/src/draw/../core/../misc/lv_color.h **** #if _MSC_VER >= 1900 /*Visual Studio 2015*/
  80:Drivers/lvgl/src/draw/../core/../misc/lv_color.h **** #define _LV_COLOR_HAS_MODERN_CPP 1
  81:Drivers/lvgl/src/draw/../core/../misc/lv_color.h **** #endif
  82:Drivers/lvgl/src/draw/../core/../misc/lv_color.h **** #else
  83:Drivers/lvgl/src/draw/../core/../misc/lv_color.h **** #if __cplusplus >= 201103L
  84:Drivers/lvgl/src/draw/../core/../misc/lv_color.h **** #define _LV_COLOR_HAS_MODERN_CPP 1
  85:Drivers/lvgl/src/draw/../core/../misc/lv_color.h **** #endif
  86:Drivers/lvgl/src/draw/../core/../misc/lv_color.h **** #endif
  87:Drivers/lvgl/src/draw/../core/../misc/lv_color.h **** #endif /*__cplusplus*/
  88:Drivers/lvgl/src/draw/../core/../misc/lv_color.h **** 
  89:Drivers/lvgl/src/draw/../core/../misc/lv_color.h **** #ifndef _LV_COLOR_HAS_MODERN_CPP
  90:Drivers/lvgl/src/draw/../core/../misc/lv_color.h **** #define _LV_COLOR_HAS_MODERN_CPP 0
  91:Drivers/lvgl/src/draw/../core/../misc/lv_color.h **** #endif
  92:Drivers/lvgl/src/draw/../core/../misc/lv_color.h **** 
  93:Drivers/lvgl/src/draw/../core/../misc/lv_color.h **** #if _LV_COLOR_HAS_MODERN_CPP
  94:Drivers/lvgl/src/draw/../core/../misc/lv_color.h **** /*Fix msvc compiler error C4576 inside C++ code*/
  95:Drivers/lvgl/src/draw/../core/../misc/lv_color.h **** #define _LV_COLOR_MAKE_TYPE_HELPER lv_color_t
  96:Drivers/lvgl/src/draw/../core/../misc/lv_color.h **** #else
  97:Drivers/lvgl/src/draw/../core/../misc/lv_color.h **** #define _LV_COLOR_MAKE_TYPE_HELPER (lv_color_t)
  98:Drivers/lvgl/src/draw/../core/../misc/lv_color.h **** #endif
  99:Drivers/lvgl/src/draw/../core/../misc/lv_color.h **** 
 100:Drivers/lvgl/src/draw/../core/../misc/lv_color.h **** /*---------------------------------------
 101:Drivers/lvgl/src/draw/../core/../misc/lv_color.h ****  * Macros for all existing color depths
 102:Drivers/lvgl/src/draw/../core/../misc/lv_color.h ****  * to set/get values of the color channels
 103:Drivers/lvgl/src/draw/../core/../misc/lv_color.h ****  *------------------------------------------*/
 104:Drivers/lvgl/src/draw/../core/../misc/lv_color.h **** # define LV_COLOR_SET_R1(c, v) (c).ch.red = (uint8_t)((v) & 0x1)
 105:Drivers/lvgl/src/draw/../core/../misc/lv_color.h **** # define LV_COLOR_SET_G1(c, v) (c).ch.green = (uint8_t)((v) & 0x1)
 106:Drivers/lvgl/src/draw/../core/../misc/lv_color.h **** # define LV_COLOR_SET_B1(c, v) (c).ch.blue = (uint8_t)((v) & 0x1)
 107:Drivers/lvgl/src/draw/../core/../misc/lv_color.h **** # define LV_COLOR_SET_A1(c, v) do {} while(0)
 108:Drivers/lvgl/src/draw/../core/../misc/lv_color.h **** 
 109:Drivers/lvgl/src/draw/../core/../misc/lv_color.h **** # define LV_COLOR_GET_R1(c) (c).ch.red
 110:Drivers/lvgl/src/draw/../core/../misc/lv_color.h **** # define LV_COLOR_GET_G1(c) (c).ch.green
 111:Drivers/lvgl/src/draw/../core/../misc/lv_color.h **** # define LV_COLOR_GET_B1(c) (c).ch.blue
 112:Drivers/lvgl/src/draw/../core/../misc/lv_color.h **** # define LV_COLOR_GET_A1(c) 0xFF
 113:Drivers/lvgl/src/draw/../core/../misc/lv_color.h **** 
 114:Drivers/lvgl/src/draw/../core/../misc/lv_color.h **** # define _LV_COLOR_ZERO_INITIALIZER1 {0x00}
 115:Drivers/lvgl/src/draw/../core/../misc/lv_color.h **** # define LV_COLOR_MAKE1(r8, g8, b8)  {(uint8_t)((b8 >> 7) | (g8 >> 7) | (r8 >> 7))}
 116:Drivers/lvgl/src/draw/../core/../misc/lv_color.h **** 
 117:Drivers/lvgl/src/draw/../core/../misc/lv_color.h **** # define LV_COLOR_SET_R8(c, v) (c).ch.red = (uint8_t)((v) & 0x7U)
 118:Drivers/lvgl/src/draw/../core/../misc/lv_color.h **** # define LV_COLOR_SET_G8(c, v) (c).ch.green = (uint8_t)((v) & 0x7U)
 119:Drivers/lvgl/src/draw/../core/../misc/lv_color.h **** # define LV_COLOR_SET_B8(c, v) (c).ch.blue = (uint8_t)((v) & 0x3U)
 120:Drivers/lvgl/src/draw/../core/../misc/lv_color.h **** # define LV_COLOR_SET_A8(c, v) do {} while(0)
 121:Drivers/lvgl/src/draw/../core/../misc/lv_color.h **** 
 122:Drivers/lvgl/src/draw/../core/../misc/lv_color.h **** # define LV_COLOR_GET_R8(c) (c).ch.red
 123:Drivers/lvgl/src/draw/../core/../misc/lv_color.h **** # define LV_COLOR_GET_G8(c) (c).ch.green
 124:Drivers/lvgl/src/draw/../core/../misc/lv_color.h **** # define LV_COLOR_GET_B8(c) (c).ch.blue
 125:Drivers/lvgl/src/draw/../core/../misc/lv_color.h **** # define LV_COLOR_GET_A8(c) 0xFF
 126:Drivers/lvgl/src/draw/../core/../misc/lv_color.h **** 
 127:Drivers/lvgl/src/draw/../core/../misc/lv_color.h **** # define _LV_COLOR_ZERO_INITIALIZER8 {{0x00, 0x00, 0x00}}
 128:Drivers/lvgl/src/draw/../core/../misc/lv_color.h **** # define LV_COLOR_MAKE8(r8, g8, b8) {{(uint8_t)((b8 >> 6) & 0x3U), (uint8_t)((g8 >> 5) & 0x7U), (ui
 129:Drivers/lvgl/src/draw/../core/../misc/lv_color.h **** 
 130:Drivers/lvgl/src/draw/../core/../misc/lv_color.h **** # define LV_COLOR_SET_R16(c, v) (c).ch.red = (uint8_t)((v) & 0x1FU)
 131:Drivers/lvgl/src/draw/../core/../misc/lv_color.h **** #if LV_COLOR_16_SWAP == 0
 132:Drivers/lvgl/src/draw/../core/../misc/lv_color.h **** # define LV_COLOR_SET_G16(c, v) (c).ch.green = (uint8_t)((v) & 0x3FU)
ARM GAS  /var/folders/lp/x54gwt890xv47sdkqj1k04q40000gn/T//ccBldNkr.s 			page 5


 133:Drivers/lvgl/src/draw/../core/../misc/lv_color.h **** #else
 134:Drivers/lvgl/src/draw/../core/../misc/lv_color.h **** # define LV_COLOR_SET_G16(c, v) {(c).ch.green_h = (uint8_t)(((v) >> 3) & 0x7); (c).ch.green_l = (ui
 135:Drivers/lvgl/src/draw/../core/../misc/lv_color.h **** #endif
 136:Drivers/lvgl/src/draw/../core/../misc/lv_color.h **** # define LV_COLOR_SET_B16(c, v) (c).ch.blue = (uint8_t)((v) & 0x1FU)
 137:Drivers/lvgl/src/draw/../core/../misc/lv_color.h **** # define LV_COLOR_SET_A16(c, v) do {} while(0)
 138:Drivers/lvgl/src/draw/../core/../misc/lv_color.h **** 
 139:Drivers/lvgl/src/draw/../core/../misc/lv_color.h **** # define LV_COLOR_GET_R16(c) (c).ch.red
 140:Drivers/lvgl/src/draw/../core/../misc/lv_color.h **** #if LV_COLOR_16_SWAP == 0
 141:Drivers/lvgl/src/draw/../core/../misc/lv_color.h **** # define LV_COLOR_GET_G16(c) (c).ch.green
 142:Drivers/lvgl/src/draw/../core/../misc/lv_color.h **** #else
 143:Drivers/lvgl/src/draw/../core/../misc/lv_color.h **** # define LV_COLOR_GET_G16(c) (((c).ch.green_h << 3) + (c).ch.green_l)
 144:Drivers/lvgl/src/draw/../core/../misc/lv_color.h **** #endif
 145:Drivers/lvgl/src/draw/../core/../misc/lv_color.h **** # define LV_COLOR_GET_B16(c) (c).ch.blue
 146:Drivers/lvgl/src/draw/../core/../misc/lv_color.h **** # define LV_COLOR_GET_A16(c) 0xFF
 147:Drivers/lvgl/src/draw/../core/../misc/lv_color.h **** 
 148:Drivers/lvgl/src/draw/../core/../misc/lv_color.h **** #if LV_COLOR_16_SWAP == 0
 149:Drivers/lvgl/src/draw/../core/../misc/lv_color.h **** # define _LV_COLOR_ZERO_INITIALIZER16  {{0x00, 0x00, 0x00}}
 150:Drivers/lvgl/src/draw/../core/../misc/lv_color.h **** # define LV_COLOR_MAKE16(r8, g8, b8) {{(uint8_t)((b8 >> 3) & 0x1FU), (uint8_t)((g8 >> 2) & 0x3FU), 
 151:Drivers/lvgl/src/draw/../core/../misc/lv_color.h **** #else
 152:Drivers/lvgl/src/draw/../core/../misc/lv_color.h **** # define _LV_COLOR_ZERO_INITIALIZER16 {{0x00, 0x00, 0x00, 0x00}}
 153:Drivers/lvgl/src/draw/../core/../misc/lv_color.h **** # define LV_COLOR_MAKE16(r8, g8, b8) {{(uint8_t)((g8 >> 5) & 0x7U), (uint8_t)((r8 >> 3) & 0x1FU), (
 154:Drivers/lvgl/src/draw/../core/../misc/lv_color.h **** #endif
 155:Drivers/lvgl/src/draw/../core/../misc/lv_color.h **** 
 156:Drivers/lvgl/src/draw/../core/../misc/lv_color.h **** # define LV_COLOR_SET_R32(c, v) (c).ch.red = (uint8_t)((v) & 0xFF)
 157:Drivers/lvgl/src/draw/../core/../misc/lv_color.h **** # define LV_COLOR_SET_G32(c, v) (c).ch.green = (uint8_t)((v) & 0xFF)
 158:Drivers/lvgl/src/draw/../core/../misc/lv_color.h **** # define LV_COLOR_SET_B32(c, v) (c).ch.blue = (uint8_t)((v) & 0xFF)
 159:Drivers/lvgl/src/draw/../core/../misc/lv_color.h **** # define LV_COLOR_SET_A32(c, v) (c).ch.alpha = (uint8_t)((v) & 0xFF)
 160:Drivers/lvgl/src/draw/../core/../misc/lv_color.h **** 
 161:Drivers/lvgl/src/draw/../core/../misc/lv_color.h **** # define LV_COLOR_GET_R32(c) (c).ch.red
 162:Drivers/lvgl/src/draw/../core/../misc/lv_color.h **** # define LV_COLOR_GET_G32(c) (c).ch.green
 163:Drivers/lvgl/src/draw/../core/../misc/lv_color.h **** # define LV_COLOR_GET_B32(c) (c).ch.blue
 164:Drivers/lvgl/src/draw/../core/../misc/lv_color.h **** # define LV_COLOR_GET_A32(c) (c).ch.alpha
 165:Drivers/lvgl/src/draw/../core/../misc/lv_color.h **** 
 166:Drivers/lvgl/src/draw/../core/../misc/lv_color.h **** # define _LV_COLOR_ZERO_INITIALIZER32  {{0x00, 0x00, 0x00, 0x00}}
 167:Drivers/lvgl/src/draw/../core/../misc/lv_color.h **** # define LV_COLOR_MAKE32(r8, g8, b8) {{b8, g8, r8, 0xff}} /*Fix 0xff alpha*/
 168:Drivers/lvgl/src/draw/../core/../misc/lv_color.h **** 
 169:Drivers/lvgl/src/draw/../core/../misc/lv_color.h **** /*---------------------------------------
 170:Drivers/lvgl/src/draw/../core/../misc/lv_color.h ****  * Macros for the current color depth
 171:Drivers/lvgl/src/draw/../core/../misc/lv_color.h ****  * to set/get values of the color channels
 172:Drivers/lvgl/src/draw/../core/../misc/lv_color.h ****  *------------------------------------------*/
 173:Drivers/lvgl/src/draw/../core/../misc/lv_color.h **** #define LV_COLOR_SET_R(c, v) LV_CONCAT(LV_COLOR_SET_R, LV_COLOR_DEPTH)(c, v)
 174:Drivers/lvgl/src/draw/../core/../misc/lv_color.h **** #define LV_COLOR_SET_G(c, v) LV_CONCAT(LV_COLOR_SET_G, LV_COLOR_DEPTH)(c, v)
 175:Drivers/lvgl/src/draw/../core/../misc/lv_color.h **** #define LV_COLOR_SET_B(c, v) LV_CONCAT(LV_COLOR_SET_B, LV_COLOR_DEPTH)(c, v)
 176:Drivers/lvgl/src/draw/../core/../misc/lv_color.h **** #define LV_COLOR_SET_A(c, v) LV_CONCAT(LV_COLOR_SET_A, LV_COLOR_DEPTH)(c, v)
 177:Drivers/lvgl/src/draw/../core/../misc/lv_color.h **** 
 178:Drivers/lvgl/src/draw/../core/../misc/lv_color.h **** #define LV_COLOR_GET_R(c) LV_CONCAT(LV_COLOR_GET_R, LV_COLOR_DEPTH)(c)
 179:Drivers/lvgl/src/draw/../core/../misc/lv_color.h **** #define LV_COLOR_GET_G(c) LV_CONCAT(LV_COLOR_GET_G, LV_COLOR_DEPTH)(c)
 180:Drivers/lvgl/src/draw/../core/../misc/lv_color.h **** #define LV_COLOR_GET_B(c) LV_CONCAT(LV_COLOR_GET_B, LV_COLOR_DEPTH)(c)
 181:Drivers/lvgl/src/draw/../core/../misc/lv_color.h **** #define LV_COLOR_GET_A(c) LV_CONCAT(LV_COLOR_GET_A, LV_COLOR_DEPTH)(c)
 182:Drivers/lvgl/src/draw/../core/../misc/lv_color.h **** 
 183:Drivers/lvgl/src/draw/../core/../misc/lv_color.h **** #define _LV_COLOR_ZERO_INITIALIZER LV_CONCAT(_LV_COLOR_ZERO_INITIALIZER, LV_COLOR_DEPTH)
 184:Drivers/lvgl/src/draw/../core/../misc/lv_color.h **** #define LV_COLOR_MAKE(r8, g8, b8) LV_CONCAT(LV_COLOR_MAKE, LV_COLOR_DEPTH)(r8, g8, b8)
 185:Drivers/lvgl/src/draw/../core/../misc/lv_color.h **** 
 186:Drivers/lvgl/src/draw/../core/../misc/lv_color.h **** /**********************
 187:Drivers/lvgl/src/draw/../core/../misc/lv_color.h ****  *      TYPEDEFS
 188:Drivers/lvgl/src/draw/../core/../misc/lv_color.h ****  **********************/
 189:Drivers/lvgl/src/draw/../core/../misc/lv_color.h **** 
ARM GAS  /var/folders/lp/x54gwt890xv47sdkqj1k04q40000gn/T//ccBldNkr.s 			page 6


 190:Drivers/lvgl/src/draw/../core/../misc/lv_color.h **** typedef union {
 191:Drivers/lvgl/src/draw/../core/../misc/lv_color.h ****     uint8_t full; /*must be declared first to set all bits of byte via initializer list*/
 192:Drivers/lvgl/src/draw/../core/../misc/lv_color.h ****     union {
 193:Drivers/lvgl/src/draw/../core/../misc/lv_color.h ****         uint8_t blue : 1;
 194:Drivers/lvgl/src/draw/../core/../misc/lv_color.h ****         uint8_t green : 1;
 195:Drivers/lvgl/src/draw/../core/../misc/lv_color.h ****         uint8_t red : 1;
 196:Drivers/lvgl/src/draw/../core/../misc/lv_color.h ****     } ch;
 197:Drivers/lvgl/src/draw/../core/../misc/lv_color.h **** } lv_color1_t;
 198:Drivers/lvgl/src/draw/../core/../misc/lv_color.h **** 
 199:Drivers/lvgl/src/draw/../core/../misc/lv_color.h **** typedef union {
 200:Drivers/lvgl/src/draw/../core/../misc/lv_color.h ****     struct {
 201:Drivers/lvgl/src/draw/../core/../misc/lv_color.h ****         uint8_t blue : 2;
 202:Drivers/lvgl/src/draw/../core/../misc/lv_color.h ****         uint8_t green : 3;
 203:Drivers/lvgl/src/draw/../core/../misc/lv_color.h ****         uint8_t red : 3;
 204:Drivers/lvgl/src/draw/../core/../misc/lv_color.h ****     } ch;
 205:Drivers/lvgl/src/draw/../core/../misc/lv_color.h ****     uint8_t full;
 206:Drivers/lvgl/src/draw/../core/../misc/lv_color.h **** } lv_color8_t;
 207:Drivers/lvgl/src/draw/../core/../misc/lv_color.h **** 
 208:Drivers/lvgl/src/draw/../core/../misc/lv_color.h **** typedef union {
 209:Drivers/lvgl/src/draw/../core/../misc/lv_color.h ****     struct {
 210:Drivers/lvgl/src/draw/../core/../misc/lv_color.h **** #if LV_COLOR_16_SWAP == 0
 211:Drivers/lvgl/src/draw/../core/../misc/lv_color.h ****         uint16_t blue : 5;
 212:Drivers/lvgl/src/draw/../core/../misc/lv_color.h ****         uint16_t green : 6;
 213:Drivers/lvgl/src/draw/../core/../misc/lv_color.h ****         uint16_t red : 5;
 214:Drivers/lvgl/src/draw/../core/../misc/lv_color.h **** #else
 215:Drivers/lvgl/src/draw/../core/../misc/lv_color.h ****         uint16_t green_h : 3;
 216:Drivers/lvgl/src/draw/../core/../misc/lv_color.h ****         uint16_t red : 5;
 217:Drivers/lvgl/src/draw/../core/../misc/lv_color.h ****         uint16_t blue : 5;
 218:Drivers/lvgl/src/draw/../core/../misc/lv_color.h ****         uint16_t green_l : 3;
 219:Drivers/lvgl/src/draw/../core/../misc/lv_color.h **** #endif
 220:Drivers/lvgl/src/draw/../core/../misc/lv_color.h ****     } ch;
 221:Drivers/lvgl/src/draw/../core/../misc/lv_color.h ****     uint16_t full;
 222:Drivers/lvgl/src/draw/../core/../misc/lv_color.h **** } lv_color16_t;
 223:Drivers/lvgl/src/draw/../core/../misc/lv_color.h **** 
 224:Drivers/lvgl/src/draw/../core/../misc/lv_color.h **** typedef union {
 225:Drivers/lvgl/src/draw/../core/../misc/lv_color.h ****     struct {
 226:Drivers/lvgl/src/draw/../core/../misc/lv_color.h ****         uint8_t blue;
 227:Drivers/lvgl/src/draw/../core/../misc/lv_color.h ****         uint8_t green;
 228:Drivers/lvgl/src/draw/../core/../misc/lv_color.h ****         uint8_t red;
 229:Drivers/lvgl/src/draw/../core/../misc/lv_color.h ****         uint8_t alpha;
 230:Drivers/lvgl/src/draw/../core/../misc/lv_color.h ****     } ch;
 231:Drivers/lvgl/src/draw/../core/../misc/lv_color.h ****     uint32_t full;
 232:Drivers/lvgl/src/draw/../core/../misc/lv_color.h **** } lv_color32_t;
 233:Drivers/lvgl/src/draw/../core/../misc/lv_color.h **** 
 234:Drivers/lvgl/src/draw/../core/../misc/lv_color.h **** typedef LV_CONCAT3(uint, LV_COLOR_SIZE, _t) lv_color_int_t;
 235:Drivers/lvgl/src/draw/../core/../misc/lv_color.h **** typedef LV_CONCAT3(lv_color, LV_COLOR_DEPTH, _t) lv_color_t;
 236:Drivers/lvgl/src/draw/../core/../misc/lv_color.h **** 
 237:Drivers/lvgl/src/draw/../core/../misc/lv_color.h **** typedef struct {
 238:Drivers/lvgl/src/draw/../core/../misc/lv_color.h ****     uint16_t h;
 239:Drivers/lvgl/src/draw/../core/../misc/lv_color.h ****     uint8_t s;
 240:Drivers/lvgl/src/draw/../core/../misc/lv_color.h ****     uint8_t v;
 241:Drivers/lvgl/src/draw/../core/../misc/lv_color.h **** } lv_color_hsv_t;
 242:Drivers/lvgl/src/draw/../core/../misc/lv_color.h **** 
 243:Drivers/lvgl/src/draw/../core/../misc/lv_color.h **** //! @cond Doxygen_Suppress
 244:Drivers/lvgl/src/draw/../core/../misc/lv_color.h **** /*No idea where the guard is required but else throws warnings in the docs*/
 245:Drivers/lvgl/src/draw/../core/../misc/lv_color.h **** typedef uint8_t lv_opa_t;
 246:Drivers/lvgl/src/draw/../core/../misc/lv_color.h **** //! @endcond
ARM GAS  /var/folders/lp/x54gwt890xv47sdkqj1k04q40000gn/T//ccBldNkr.s 			page 7


 247:Drivers/lvgl/src/draw/../core/../misc/lv_color.h **** 
 248:Drivers/lvgl/src/draw/../core/../misc/lv_color.h **** struct _lv_color_filter_dsc_t;
 249:Drivers/lvgl/src/draw/../core/../misc/lv_color.h **** 
 250:Drivers/lvgl/src/draw/../core/../misc/lv_color.h **** typedef lv_color_t (*lv_color_filter_cb_t)(const struct _lv_color_filter_dsc_t *, lv_color_t, lv_op
 251:Drivers/lvgl/src/draw/../core/../misc/lv_color.h **** 
 252:Drivers/lvgl/src/draw/../core/../misc/lv_color.h **** typedef struct _lv_color_filter_dsc_t {
 253:Drivers/lvgl/src/draw/../core/../misc/lv_color.h ****     lv_color_filter_cb_t filter_cb;
 254:Drivers/lvgl/src/draw/../core/../misc/lv_color.h ****     void * user_data;
 255:Drivers/lvgl/src/draw/../core/../misc/lv_color.h **** } lv_color_filter_dsc_t;
 256:Drivers/lvgl/src/draw/../core/../misc/lv_color.h **** 
 257:Drivers/lvgl/src/draw/../core/../misc/lv_color.h **** 
 258:Drivers/lvgl/src/draw/../core/../misc/lv_color.h **** typedef enum {
 259:Drivers/lvgl/src/draw/../core/../misc/lv_color.h ****     LV_PALETTE_RED,
 260:Drivers/lvgl/src/draw/../core/../misc/lv_color.h ****     LV_PALETTE_PINK,
 261:Drivers/lvgl/src/draw/../core/../misc/lv_color.h ****     LV_PALETTE_PURPLE,
 262:Drivers/lvgl/src/draw/../core/../misc/lv_color.h ****     LV_PALETTE_DEEP_PURPLE,
 263:Drivers/lvgl/src/draw/../core/../misc/lv_color.h ****     LV_PALETTE_INDIGO,
 264:Drivers/lvgl/src/draw/../core/../misc/lv_color.h ****     LV_PALETTE_BLUE,
 265:Drivers/lvgl/src/draw/../core/../misc/lv_color.h ****     LV_PALETTE_LIGHT_BLUE,
 266:Drivers/lvgl/src/draw/../core/../misc/lv_color.h ****     LV_PALETTE_CYAN,
 267:Drivers/lvgl/src/draw/../core/../misc/lv_color.h ****     LV_PALETTE_TEAL,
 268:Drivers/lvgl/src/draw/../core/../misc/lv_color.h ****     LV_PALETTE_GREEN,
 269:Drivers/lvgl/src/draw/../core/../misc/lv_color.h ****     LV_PALETTE_LIGHT_GREEN,
 270:Drivers/lvgl/src/draw/../core/../misc/lv_color.h ****     LV_PALETTE_LIME,
 271:Drivers/lvgl/src/draw/../core/../misc/lv_color.h ****     LV_PALETTE_YELLOW,
 272:Drivers/lvgl/src/draw/../core/../misc/lv_color.h ****     LV_PALETTE_AMBER,
 273:Drivers/lvgl/src/draw/../core/../misc/lv_color.h ****     LV_PALETTE_ORANGE,
 274:Drivers/lvgl/src/draw/../core/../misc/lv_color.h ****     LV_PALETTE_DEEP_ORANGE,
 275:Drivers/lvgl/src/draw/../core/../misc/lv_color.h ****     LV_PALETTE_BROWN,
 276:Drivers/lvgl/src/draw/../core/../misc/lv_color.h ****     LV_PALETTE_BLUE_GREY,
 277:Drivers/lvgl/src/draw/../core/../misc/lv_color.h ****     LV_PALETTE_GREY,
 278:Drivers/lvgl/src/draw/../core/../misc/lv_color.h ****     _LV_PALETTE_LAST,
 279:Drivers/lvgl/src/draw/../core/../misc/lv_color.h ****     LV_PALETTE_NONE = 0xff,
 280:Drivers/lvgl/src/draw/../core/../misc/lv_color.h **** } lv_palette_t;
 281:Drivers/lvgl/src/draw/../core/../misc/lv_color.h **** 
 282:Drivers/lvgl/src/draw/../core/../misc/lv_color.h **** /**********************
 283:Drivers/lvgl/src/draw/../core/../misc/lv_color.h ****  * GLOBAL PROTOTYPES
 284:Drivers/lvgl/src/draw/../core/../misc/lv_color.h ****  **********************/
 285:Drivers/lvgl/src/draw/../core/../misc/lv_color.h **** 
 286:Drivers/lvgl/src/draw/../core/../misc/lv_color.h **** /*In color conversations:
 287:Drivers/lvgl/src/draw/../core/../misc/lv_color.h ****  * - When converting to bigger color type the LSB weight of 1 LSB is calculated
 288:Drivers/lvgl/src/draw/../core/../misc/lv_color.h ****  *   E.g. 16 bit Red has 5 bits
 289:Drivers/lvgl/src/draw/../core/../misc/lv_color.h ****  *         8 bit Red has 3 bits
 290:Drivers/lvgl/src/draw/../core/../misc/lv_color.h ****  *        ----------------------
 291:Drivers/lvgl/src/draw/../core/../misc/lv_color.h ****  *        8 bit red LSB = (2^5 - 1) / (2^3 - 1) = 31 / 7 = 4
 292:Drivers/lvgl/src/draw/../core/../misc/lv_color.h ****  *
 293:Drivers/lvgl/src/draw/../core/../misc/lv_color.h ****  * - When calculating to smaller color type simply shift out the LSBs
 294:Drivers/lvgl/src/draw/../core/../misc/lv_color.h ****  *   E.g.  8 bit Red has 3 bits
 295:Drivers/lvgl/src/draw/../core/../misc/lv_color.h ****  *        16 bit Red has 5 bits
 296:Drivers/lvgl/src/draw/../core/../misc/lv_color.h ****  *        ----------------------
 297:Drivers/lvgl/src/draw/../core/../misc/lv_color.h ****  *         Shift right with 5 - 3 = 2
 298:Drivers/lvgl/src/draw/../core/../misc/lv_color.h ****  */
 299:Drivers/lvgl/src/draw/../core/../misc/lv_color.h **** static inline uint8_t lv_color_to1(lv_color_t color)
 300:Drivers/lvgl/src/draw/../core/../misc/lv_color.h **** {
 301:Drivers/lvgl/src/draw/../core/../misc/lv_color.h **** #if LV_COLOR_DEPTH == 1
 302:Drivers/lvgl/src/draw/../core/../misc/lv_color.h ****     return color.full;
 303:Drivers/lvgl/src/draw/../core/../misc/lv_color.h **** #elif LV_COLOR_DEPTH == 8
ARM GAS  /var/folders/lp/x54gwt890xv47sdkqj1k04q40000gn/T//ccBldNkr.s 			page 8


 304:Drivers/lvgl/src/draw/../core/../misc/lv_color.h ****     if((LV_COLOR_GET_R(color) & 0x4) || (LV_COLOR_GET_G(color) & 0x4) || (LV_COLOR_GET_B(color) & 0
 305:Drivers/lvgl/src/draw/../core/../misc/lv_color.h ****         return 1;
 306:Drivers/lvgl/src/draw/../core/../misc/lv_color.h ****     }
 307:Drivers/lvgl/src/draw/../core/../misc/lv_color.h ****     else {
 308:Drivers/lvgl/src/draw/../core/../misc/lv_color.h ****         return 0;
 309:Drivers/lvgl/src/draw/../core/../misc/lv_color.h ****     }
 310:Drivers/lvgl/src/draw/../core/../misc/lv_color.h **** #elif LV_COLOR_DEPTH == 16
 311:Drivers/lvgl/src/draw/../core/../misc/lv_color.h ****     if((LV_COLOR_GET_R(color) & 0x10) || (LV_COLOR_GET_G(color) & 0x20) || (LV_COLOR_GET_B(color) &
 312:Drivers/lvgl/src/draw/../core/../misc/lv_color.h ****         return 1;
 313:Drivers/lvgl/src/draw/../core/../misc/lv_color.h ****     }
 314:Drivers/lvgl/src/draw/../core/../misc/lv_color.h ****     else {
 315:Drivers/lvgl/src/draw/../core/../misc/lv_color.h ****         return 0;
 316:Drivers/lvgl/src/draw/../core/../misc/lv_color.h ****     }
 317:Drivers/lvgl/src/draw/../core/../misc/lv_color.h **** #elif LV_COLOR_DEPTH == 32
 318:Drivers/lvgl/src/draw/../core/../misc/lv_color.h ****     if((LV_COLOR_GET_R(color) & 0x80) || (LV_COLOR_GET_G(color) & 0x80) || (LV_COLOR_GET_B(color) &
 319:Drivers/lvgl/src/draw/../core/../misc/lv_color.h ****         return 1;
 320:Drivers/lvgl/src/draw/../core/../misc/lv_color.h ****     }
 321:Drivers/lvgl/src/draw/../core/../misc/lv_color.h ****     else {
 322:Drivers/lvgl/src/draw/../core/../misc/lv_color.h ****         return 0;
 323:Drivers/lvgl/src/draw/../core/../misc/lv_color.h ****     }
 324:Drivers/lvgl/src/draw/../core/../misc/lv_color.h **** #endif
 325:Drivers/lvgl/src/draw/../core/../misc/lv_color.h **** }
 326:Drivers/lvgl/src/draw/../core/../misc/lv_color.h **** 
 327:Drivers/lvgl/src/draw/../core/../misc/lv_color.h **** static inline uint8_t lv_color_to8(lv_color_t color)
 328:Drivers/lvgl/src/draw/../core/../misc/lv_color.h **** {
 329:Drivers/lvgl/src/draw/../core/../misc/lv_color.h **** #if LV_COLOR_DEPTH == 1
 330:Drivers/lvgl/src/draw/../core/../misc/lv_color.h ****     if(color.full == 0)
 331:Drivers/lvgl/src/draw/../core/../misc/lv_color.h ****         return 0;
 332:Drivers/lvgl/src/draw/../core/../misc/lv_color.h ****     else
 333:Drivers/lvgl/src/draw/../core/../misc/lv_color.h ****         return 0xFF;
 334:Drivers/lvgl/src/draw/../core/../misc/lv_color.h **** #elif LV_COLOR_DEPTH == 8
 335:Drivers/lvgl/src/draw/../core/../misc/lv_color.h ****     return color.full;
 336:Drivers/lvgl/src/draw/../core/../misc/lv_color.h **** #elif LV_COLOR_DEPTH == 16
 337:Drivers/lvgl/src/draw/../core/../misc/lv_color.h ****     lv_color8_t ret;
 338:Drivers/lvgl/src/draw/../core/../misc/lv_color.h ****     LV_COLOR_SET_R8(ret, LV_COLOR_GET_R(color) >> 2); /*5 - 3  = 2*/
 339:Drivers/lvgl/src/draw/../core/../misc/lv_color.h ****     LV_COLOR_SET_G8(ret, LV_COLOR_GET_G(color) >> 3); /*6 - 3  = 3*/
 340:Drivers/lvgl/src/draw/../core/../misc/lv_color.h ****     LV_COLOR_SET_B8(ret, LV_COLOR_GET_B(color) >> 3); /*5 - 2  = 3*/
 341:Drivers/lvgl/src/draw/../core/../misc/lv_color.h ****     return ret.full;
 342:Drivers/lvgl/src/draw/../core/../misc/lv_color.h **** #elif LV_COLOR_DEPTH == 32
 343:Drivers/lvgl/src/draw/../core/../misc/lv_color.h ****     lv_color8_t ret;
 344:Drivers/lvgl/src/draw/../core/../misc/lv_color.h ****     LV_COLOR_SET_R8(ret, LV_COLOR_GET_R(color) >> 5); /*8 - 3  = 5*/
 345:Drivers/lvgl/src/draw/../core/../misc/lv_color.h ****     LV_COLOR_SET_G8(ret, LV_COLOR_GET_G(color) >> 5); /*8 - 3  = 5*/
 346:Drivers/lvgl/src/draw/../core/../misc/lv_color.h ****     LV_COLOR_SET_B8(ret, LV_COLOR_GET_B(color) >> 6); /*8 - 2  = 6*/
 347:Drivers/lvgl/src/draw/../core/../misc/lv_color.h ****     return ret.full;
 348:Drivers/lvgl/src/draw/../core/../misc/lv_color.h **** #endif
 349:Drivers/lvgl/src/draw/../core/../misc/lv_color.h **** }
 350:Drivers/lvgl/src/draw/../core/../misc/lv_color.h **** 
 351:Drivers/lvgl/src/draw/../core/../misc/lv_color.h **** static inline uint16_t lv_color_to16(lv_color_t color)
 352:Drivers/lvgl/src/draw/../core/../misc/lv_color.h **** {
 353:Drivers/lvgl/src/draw/../core/../misc/lv_color.h **** #if LV_COLOR_DEPTH == 1
 354:Drivers/lvgl/src/draw/../core/../misc/lv_color.h ****     if(color.full == 0)
 355:Drivers/lvgl/src/draw/../core/../misc/lv_color.h ****         return 0;
 356:Drivers/lvgl/src/draw/../core/../misc/lv_color.h ****     else
 357:Drivers/lvgl/src/draw/../core/../misc/lv_color.h ****         return 0xFFFF;
 358:Drivers/lvgl/src/draw/../core/../misc/lv_color.h **** #elif LV_COLOR_DEPTH == 8
 359:Drivers/lvgl/src/draw/../core/../misc/lv_color.h ****     lv_color16_t ret;
 360:Drivers/lvgl/src/draw/../core/../misc/lv_color.h ****     LV_COLOR_SET_R16(ret, LV_COLOR_GET_R(color) * 4);  /*(2^5 - 1)/(2^3 - 1) = 31/7 = 4*/
ARM GAS  /var/folders/lp/x54gwt890xv47sdkqj1k04q40000gn/T//ccBldNkr.s 			page 9


 361:Drivers/lvgl/src/draw/../core/../misc/lv_color.h ****     LV_COLOR_SET_G16(ret, LV_COLOR_GET_G(color) * 9);  /*(2^6 - 1)/(2^3 - 1) = 63/7 = 9*/
 362:Drivers/lvgl/src/draw/../core/../misc/lv_color.h ****     LV_COLOR_SET_B16(ret, LV_COLOR_GET_B(color) * 10); /*(2^5 - 1)/(2^2 - 1) = 31/3 = 10*/
 363:Drivers/lvgl/src/draw/../core/../misc/lv_color.h ****     return ret.full;
 364:Drivers/lvgl/src/draw/../core/../misc/lv_color.h **** #elif LV_COLOR_DEPTH == 16
 365:Drivers/lvgl/src/draw/../core/../misc/lv_color.h ****     return color.full;
 366:Drivers/lvgl/src/draw/../core/../misc/lv_color.h **** #elif LV_COLOR_DEPTH == 32
 367:Drivers/lvgl/src/draw/../core/../misc/lv_color.h ****     lv_color16_t ret;
 368:Drivers/lvgl/src/draw/../core/../misc/lv_color.h ****     LV_COLOR_SET_R16(ret, LV_COLOR_GET_R(color) >> 3); /*8 - 5  = 3*/
 369:Drivers/lvgl/src/draw/../core/../misc/lv_color.h ****     LV_COLOR_SET_G16(ret, LV_COLOR_GET_G(color) >> 2); /*8 - 6  = 2*/
 370:Drivers/lvgl/src/draw/../core/../misc/lv_color.h ****     LV_COLOR_SET_B16(ret, LV_COLOR_GET_B(color) >> 3); /*8 - 5  = 3*/
 371:Drivers/lvgl/src/draw/../core/../misc/lv_color.h ****     return ret.full;
 372:Drivers/lvgl/src/draw/../core/../misc/lv_color.h **** #endif
 373:Drivers/lvgl/src/draw/../core/../misc/lv_color.h **** }
 374:Drivers/lvgl/src/draw/../core/../misc/lv_color.h **** 
 375:Drivers/lvgl/src/draw/../core/../misc/lv_color.h **** static inline uint32_t lv_color_to32(lv_color_t color)
 376:Drivers/lvgl/src/draw/../core/../misc/lv_color.h **** {
 377:Drivers/lvgl/src/draw/../core/../misc/lv_color.h **** #if LV_COLOR_DEPTH == 1
 378:Drivers/lvgl/src/draw/../core/../misc/lv_color.h ****     if(color.full == 0)
 379:Drivers/lvgl/src/draw/../core/../misc/lv_color.h ****         return 0xFF000000;
 380:Drivers/lvgl/src/draw/../core/../misc/lv_color.h ****     else
 381:Drivers/lvgl/src/draw/../core/../misc/lv_color.h ****         return 0xFFFFFFFF;
 382:Drivers/lvgl/src/draw/../core/../misc/lv_color.h **** #elif LV_COLOR_DEPTH == 8
 383:Drivers/lvgl/src/draw/../core/../misc/lv_color.h ****     lv_color32_t ret;
 384:Drivers/lvgl/src/draw/../core/../misc/lv_color.h ****     LV_COLOR_SET_R32(ret, LV_COLOR_GET_R(color) * 36); /*(2^8 - 1)/(2^3 - 1) = 255/7 = 36*/
 385:Drivers/lvgl/src/draw/../core/../misc/lv_color.h ****     LV_COLOR_SET_G32(ret, LV_COLOR_GET_G(color) * 36); /*(2^8 - 1)/(2^3 - 1) = 255/7 = 36*/
 386:Drivers/lvgl/src/draw/../core/../misc/lv_color.h ****     LV_COLOR_SET_B32(ret, LV_COLOR_GET_B(color) * 85); /*(2^8 - 1)/(2^2 - 1) = 255/3 = 85*/
 387:Drivers/lvgl/src/draw/../core/../misc/lv_color.h ****     LV_COLOR_SET_A32(ret, 0xFF);
 388:Drivers/lvgl/src/draw/../core/../misc/lv_color.h ****     return ret.full;
 389:Drivers/lvgl/src/draw/../core/../misc/lv_color.h **** #elif LV_COLOR_DEPTH == 16
 390:Drivers/lvgl/src/draw/../core/../misc/lv_color.h ****     /**
 391:Drivers/lvgl/src/draw/../core/../misc/lv_color.h ****      * The floating point math for conversion is:
 392:Drivers/lvgl/src/draw/../core/../misc/lv_color.h ****      *  valueto = valuefrom * ( (2^bitsto - 1) / (float)(2^bitsfrom - 1) )
 393:Drivers/lvgl/src/draw/../core/../misc/lv_color.h ****      * The faster integer math for conversion is:
 394:Drivers/lvgl/src/draw/../core/../misc/lv_color.h ****      *  valueto = ( valuefrom * multiplier + adder ) >> divisor
 395:Drivers/lvgl/src/draw/../core/../misc/lv_color.h ****      *   multiplier = FLOOR( ( (2^bitsto - 1) << divisor ) / (float)(2^bitsfrom - 1) )
 396:Drivers/lvgl/src/draw/../core/../misc/lv_color.h ****      *
 397:Drivers/lvgl/src/draw/../core/../misc/lv_color.h ****      * Find the first divisor where ( adder >> divisor ) <= 0
 398:Drivers/lvgl/src/draw/../core/../misc/lv_color.h ****      *
 399:Drivers/lvgl/src/draw/../core/../misc/lv_color.h ****      * 5-bit to 8-bit: ( 31 * multiplier + adder ) >> divisor = 255
 400:Drivers/lvgl/src/draw/../core/../misc/lv_color.h ****      * divisor  multiplier  adder  min (0)  max (31)
 401:Drivers/lvgl/src/draw/../core/../misc/lv_color.h ****      *       0           8      7        7       255
 402:Drivers/lvgl/src/draw/../core/../misc/lv_color.h ****      *       1          16     14        7       255
 403:Drivers/lvgl/src/draw/../core/../misc/lv_color.h ****      *       2          32     28        7       255
 404:Drivers/lvgl/src/draw/../core/../misc/lv_color.h ****      *       3          65     25        3       255
 405:Drivers/lvgl/src/draw/../core/../misc/lv_color.h ****      *       4         131     19        1       255
 406:Drivers/lvgl/src/draw/../core/../misc/lv_color.h ****      *       5         263      7        0       255
 407:Drivers/lvgl/src/draw/../core/../misc/lv_color.h ****      *
 408:Drivers/lvgl/src/draw/../core/../misc/lv_color.h ****      * 6-bit to 8-bit: 255 = ( 63 * multiplier + adder ) >> divisor
 409:Drivers/lvgl/src/draw/../core/../misc/lv_color.h ****      * divisor  multiplier  adder  min (0)  max (63)
 410:Drivers/lvgl/src/draw/../core/../misc/lv_color.h ****      *       0           4      3        3       255
 411:Drivers/lvgl/src/draw/../core/../misc/lv_color.h ****      *       1           8      6        3       255
 412:Drivers/lvgl/src/draw/../core/../misc/lv_color.h ****      *       2          16     12        3       255
 413:Drivers/lvgl/src/draw/../core/../misc/lv_color.h ****      *       3          32     24        3       255
 414:Drivers/lvgl/src/draw/../core/../misc/lv_color.h ****      *       4          64     48        3       255
 415:Drivers/lvgl/src/draw/../core/../misc/lv_color.h ****      *       5         129     33        1       255
 416:Drivers/lvgl/src/draw/../core/../misc/lv_color.h ****      *       6         259      3        0       255
 417:Drivers/lvgl/src/draw/../core/../misc/lv_color.h ****      */
ARM GAS  /var/folders/lp/x54gwt890xv47sdkqj1k04q40000gn/T//ccBldNkr.s 			page 10


 418:Drivers/lvgl/src/draw/../core/../misc/lv_color.h **** 
 419:Drivers/lvgl/src/draw/../core/../misc/lv_color.h ****     lv_color32_t ret;
 420:Drivers/lvgl/src/draw/../core/../misc/lv_color.h ****     LV_COLOR_SET_R32(ret, (LV_COLOR_GET_R(color) * 263 + 7) >> 5);
 421:Drivers/lvgl/src/draw/../core/../misc/lv_color.h ****     LV_COLOR_SET_G32(ret, (LV_COLOR_GET_G(color) * 259 + 3) >> 6);
 422:Drivers/lvgl/src/draw/../core/../misc/lv_color.h ****     LV_COLOR_SET_B32(ret, (LV_COLOR_GET_B(color) * 263 + 7) >> 5);
 423:Drivers/lvgl/src/draw/../core/../misc/lv_color.h ****     LV_COLOR_SET_A32(ret, 0xFF);
 424:Drivers/lvgl/src/draw/../core/../misc/lv_color.h ****     return ret.full;
 425:Drivers/lvgl/src/draw/../core/../misc/lv_color.h **** #elif LV_COLOR_DEPTH == 32
 426:Drivers/lvgl/src/draw/../core/../misc/lv_color.h ****     return color.full;
 427:Drivers/lvgl/src/draw/../core/../misc/lv_color.h **** #endif
 428:Drivers/lvgl/src/draw/../core/../misc/lv_color.h **** }
 429:Drivers/lvgl/src/draw/../core/../misc/lv_color.h **** 
 430:Drivers/lvgl/src/draw/../core/../misc/lv_color.h **** //! @cond Doxygen_Suppress
 431:Drivers/lvgl/src/draw/../core/../misc/lv_color.h **** 
 432:Drivers/lvgl/src/draw/../core/../misc/lv_color.h **** /**
 433:Drivers/lvgl/src/draw/../core/../misc/lv_color.h ****  * Mix two colors with a given ratio.
 434:Drivers/lvgl/src/draw/../core/../misc/lv_color.h ****  * @param c1 the first color to mix (usually the foreground)
 435:Drivers/lvgl/src/draw/../core/../misc/lv_color.h ****  * @param c2 the second color to mix (usually the background)
 436:Drivers/lvgl/src/draw/../core/../misc/lv_color.h ****  * @param mix The ratio of the colors. 0: full `c2`, 255: full `c1`, 127: half `c1` and half`c2`
 437:Drivers/lvgl/src/draw/../core/../misc/lv_color.h ****  * @return the mixed color
 438:Drivers/lvgl/src/draw/../core/../misc/lv_color.h ****  */
 439:Drivers/lvgl/src/draw/../core/../misc/lv_color.h **** static inline lv_color_t LV_ATTRIBUTE_FAST_MEM lv_color_mix(lv_color_t c1, lv_color_t c2, uint8_t m
 440:Drivers/lvgl/src/draw/../core/../misc/lv_color.h **** {
 441:Drivers/lvgl/src/draw/../core/../misc/lv_color.h ****     lv_color_t ret;
 442:Drivers/lvgl/src/draw/../core/../misc/lv_color.h **** 
 443:Drivers/lvgl/src/draw/../core/../misc/lv_color.h **** #if LV_COLOR_DEPTH == 16 && LV_COLOR_MIX_ROUND_OFS == 0
 444:Drivers/lvgl/src/draw/../core/../misc/lv_color.h **** #if LV_COLOR_16_SWAP == 1
 445:Drivers/lvgl/src/draw/../core/../misc/lv_color.h ****     c1.full = c1.full << 8 | c1.full >> 8;
 446:Drivers/lvgl/src/draw/../core/../misc/lv_color.h ****     c2.full = c2.full << 8 | c2.full >> 8;
 447:Drivers/lvgl/src/draw/../core/../misc/lv_color.h **** #endif
 448:Drivers/lvgl/src/draw/../core/../misc/lv_color.h ****     /*Source: https://stackoverflow.com/a/50012418/1999969*/
 449:Drivers/lvgl/src/draw/../core/../misc/lv_color.h ****     mix = (uint32_t)((uint32_t)mix + 4) >> 3;
 450:Drivers/lvgl/src/draw/../core/../misc/lv_color.h ****     uint32_t bg = (uint32_t)((uint32_t)c2.full | ((uint32_t)c2.full << 16)) &
 451:Drivers/lvgl/src/draw/../core/../misc/lv_color.h ****                   0x7E0F81F; /*0b00000111111000001111100000011111*/
 452:Drivers/lvgl/src/draw/../core/../misc/lv_color.h ****     uint32_t fg = (uint32_t)((uint32_t)c1.full | ((uint32_t)c1.full << 16)) & 0x7E0F81F;
 453:Drivers/lvgl/src/draw/../core/../misc/lv_color.h ****     uint32_t result = ((((fg - bg) * mix) >> 5) + bg) & 0x7E0F81F;
 454:Drivers/lvgl/src/draw/../core/../misc/lv_color.h ****     ret.full = (uint16_t)((result >> 16) | result);
 455:Drivers/lvgl/src/draw/../core/../misc/lv_color.h **** #if LV_COLOR_16_SWAP == 1
 456:Drivers/lvgl/src/draw/../core/../misc/lv_color.h ****     ret.full = ret.full << 8 | ret.full >> 8;
 457:Drivers/lvgl/src/draw/../core/../misc/lv_color.h **** #endif
 458:Drivers/lvgl/src/draw/../core/../misc/lv_color.h **** #elif LV_COLOR_DEPTH != 1
 459:Drivers/lvgl/src/draw/../core/../misc/lv_color.h ****     /*LV_COLOR_DEPTH == 8, 16 or 32*/
 460:Drivers/lvgl/src/draw/../core/../misc/lv_color.h ****     LV_COLOR_SET_R(ret, LV_UDIV255((uint16_t)LV_COLOR_GET_R(c1) * mix + LV_COLOR_GET_R(c2) *
 461:Drivers/lvgl/src/draw/../core/../misc/lv_color.h ****                                    (255 - mix) + LV_COLOR_MIX_ROUND_OFS));
 462:Drivers/lvgl/src/draw/../core/../misc/lv_color.h ****     LV_COLOR_SET_G(ret, LV_UDIV255((uint16_t)LV_COLOR_GET_G(c1) * mix + LV_COLOR_GET_G(c2) *
 463:Drivers/lvgl/src/draw/../core/../misc/lv_color.h ****                                    (255 - mix) + LV_COLOR_MIX_ROUND_OFS));
 464:Drivers/lvgl/src/draw/../core/../misc/lv_color.h ****     LV_COLOR_SET_B(ret, LV_UDIV255((uint16_t)LV_COLOR_GET_B(c1) * mix + LV_COLOR_GET_B(c2) *
 465:Drivers/lvgl/src/draw/../core/../misc/lv_color.h ****                                    (255 - mix) + LV_COLOR_MIX_ROUND_OFS));
 466:Drivers/lvgl/src/draw/../core/../misc/lv_color.h ****     LV_COLOR_SET_A(ret, 0xFF);
 467:Drivers/lvgl/src/draw/../core/../misc/lv_color.h **** #else
 468:Drivers/lvgl/src/draw/../core/../misc/lv_color.h ****     /*LV_COLOR_DEPTH == 1*/
 469:Drivers/lvgl/src/draw/../core/../misc/lv_color.h ****     ret.full = mix > LV_OPA_50 ? c1.full : c2.full;
 470:Drivers/lvgl/src/draw/../core/../misc/lv_color.h **** #endif
 471:Drivers/lvgl/src/draw/../core/../misc/lv_color.h **** 
 472:Drivers/lvgl/src/draw/../core/../misc/lv_color.h ****     return ret;
 473:Drivers/lvgl/src/draw/../core/../misc/lv_color.h **** }
 474:Drivers/lvgl/src/draw/../core/../misc/lv_color.h **** 
ARM GAS  /var/folders/lp/x54gwt890xv47sdkqj1k04q40000gn/T//ccBldNkr.s 			page 11


 475:Drivers/lvgl/src/draw/../core/../misc/lv_color.h **** static inline void LV_ATTRIBUTE_FAST_MEM lv_color_premult(lv_color_t c, uint8_t mix, uint16_t * out
 476:Drivers/lvgl/src/draw/../core/../misc/lv_color.h **** {
 477:Drivers/lvgl/src/draw/../core/../misc/lv_color.h **** #if LV_COLOR_DEPTH != 1
 478:Drivers/lvgl/src/draw/../core/../misc/lv_color.h ****     out[0] = (uint16_t)LV_COLOR_GET_R(c) * mix;
 479:Drivers/lvgl/src/draw/../core/../misc/lv_color.h ****     out[1] = (uint16_t)LV_COLOR_GET_G(c) * mix;
 480:Drivers/lvgl/src/draw/../core/../misc/lv_color.h ****     out[2] = (uint16_t)LV_COLOR_GET_B(c) * mix;
 481:Drivers/lvgl/src/draw/../core/../misc/lv_color.h **** #else
 482:Drivers/lvgl/src/draw/../core/../misc/lv_color.h ****     (void) mix;
 483:Drivers/lvgl/src/draw/../core/../misc/lv_color.h ****     /*Pre-multiplication can't be used with 1 bpp*/
 484:Drivers/lvgl/src/draw/../core/../misc/lv_color.h ****     out[0] = LV_COLOR_GET_R(c);
 485:Drivers/lvgl/src/draw/../core/../misc/lv_color.h ****     out[1] = LV_COLOR_GET_G(c);
 486:Drivers/lvgl/src/draw/../core/../misc/lv_color.h ****     out[2] = LV_COLOR_GET_B(c);
 487:Drivers/lvgl/src/draw/../core/../misc/lv_color.h **** #endif
 488:Drivers/lvgl/src/draw/../core/../misc/lv_color.h **** 
 489:Drivers/lvgl/src/draw/../core/../misc/lv_color.h **** }
 490:Drivers/lvgl/src/draw/../core/../misc/lv_color.h **** 
 491:Drivers/lvgl/src/draw/../core/../misc/lv_color.h **** /**
 492:Drivers/lvgl/src/draw/../core/../misc/lv_color.h ****  * Mix two colors with a given ratio. It runs faster then `lv_color_mix` but requires some pre comp
 493:Drivers/lvgl/src/draw/../core/../misc/lv_color.h ****  * @param premult_c1 The first color. Should be preprocessed with `lv_color_premult(c1)`
 494:Drivers/lvgl/src/draw/../core/../misc/lv_color.h ****  * @param c2 The second color. As it is no pre computation required on it
 495:Drivers/lvgl/src/draw/../core/../misc/lv_color.h ****  * @param mix The ratio of the colors. 0: full `c1`, 255: full `c2`, 127: half `c1` and half `c2`.
 496:Drivers/lvgl/src/draw/../core/../misc/lv_color.h ****  *            Should be modified like mix = `255 - mix`
 497:Drivers/lvgl/src/draw/../core/../misc/lv_color.h ****  * @return the mixed color
 498:Drivers/lvgl/src/draw/../core/../misc/lv_color.h ****  * @note 255 won't give clearly `c1`.
 499:Drivers/lvgl/src/draw/../core/../misc/lv_color.h ****  */
 500:Drivers/lvgl/src/draw/../core/../misc/lv_color.h **** static inline lv_color_t LV_ATTRIBUTE_FAST_MEM lv_color_mix_premult(uint16_t * premult_c1, lv_color
 501:Drivers/lvgl/src/draw/../core/../misc/lv_color.h **** {
 502:Drivers/lvgl/src/draw/../core/../misc/lv_color.h ****     lv_color_t ret;
 503:Drivers/lvgl/src/draw/../core/../misc/lv_color.h **** #if LV_COLOR_DEPTH != 1
 504:Drivers/lvgl/src/draw/../core/../misc/lv_color.h ****     /*LV_COLOR_DEPTH == 8 or 32*/
 505:Drivers/lvgl/src/draw/../core/../misc/lv_color.h ****     LV_COLOR_SET_R(ret, LV_UDIV255(premult_c1[0] + LV_COLOR_GET_R(c2) * mix + LV_COLOR_MIX_ROUND_OF
 506:Drivers/lvgl/src/draw/../core/../misc/lv_color.h ****     LV_COLOR_SET_G(ret, LV_UDIV255(premult_c1[1] + LV_COLOR_GET_G(c2) * mix + LV_COLOR_MIX_ROUND_OF
 507:Drivers/lvgl/src/draw/../core/../misc/lv_color.h ****     LV_COLOR_SET_B(ret, LV_UDIV255(premult_c1[2] + LV_COLOR_GET_B(c2) * mix + LV_COLOR_MIX_ROUND_OF
 508:Drivers/lvgl/src/draw/../core/../misc/lv_color.h ****     LV_COLOR_SET_A(ret, 0xFF);
 509:Drivers/lvgl/src/draw/../core/../misc/lv_color.h **** #else
 510:Drivers/lvgl/src/draw/../core/../misc/lv_color.h ****     /*LV_COLOR_DEPTH == 1*/
 511:Drivers/lvgl/src/draw/../core/../misc/lv_color.h ****     /*Restore color1*/
 512:Drivers/lvgl/src/draw/../core/../misc/lv_color.h ****     lv_color_t c1;
 513:Drivers/lvgl/src/draw/../core/../misc/lv_color.h ****     LV_COLOR_SET_R(c1, premult_c1[0]);
 514:Drivers/lvgl/src/draw/../core/../misc/lv_color.h ****     LV_COLOR_SET_G(c1, premult_c1[1]);
 515:Drivers/lvgl/src/draw/../core/../misc/lv_color.h ****     LV_COLOR_SET_B(c1, premult_c1[2]);
 516:Drivers/lvgl/src/draw/../core/../misc/lv_color.h ****     ret.full = mix > LV_OPA_50 ? c2.full : c1.full;
 517:Drivers/lvgl/src/draw/../core/../misc/lv_color.h **** #endif
 518:Drivers/lvgl/src/draw/../core/../misc/lv_color.h **** 
 519:Drivers/lvgl/src/draw/../core/../misc/lv_color.h ****     return ret;
 520:Drivers/lvgl/src/draw/../core/../misc/lv_color.h **** }
 521:Drivers/lvgl/src/draw/../core/../misc/lv_color.h **** 
 522:Drivers/lvgl/src/draw/../core/../misc/lv_color.h **** /**
 523:Drivers/lvgl/src/draw/../core/../misc/lv_color.h ****  * Mix two colors. Both color can have alpha value.
 524:Drivers/lvgl/src/draw/../core/../misc/lv_color.h ****  * @param bg_color background color
 525:Drivers/lvgl/src/draw/../core/../misc/lv_color.h ****  * @param bg_opa alpha of the background color
 526:Drivers/lvgl/src/draw/../core/../misc/lv_color.h ****  * @param fg_color foreground color
 527:Drivers/lvgl/src/draw/../core/../misc/lv_color.h ****  * @param fg_opa alpha of the foreground color
 528:Drivers/lvgl/src/draw/../core/../misc/lv_color.h ****  * @param res_color the result color
 529:Drivers/lvgl/src/draw/../core/../misc/lv_color.h ****  * @param res_opa the result opacity
 530:Drivers/lvgl/src/draw/../core/../misc/lv_color.h ****  */
 531:Drivers/lvgl/src/draw/../core/../misc/lv_color.h **** static inline void LV_ATTRIBUTE_FAST_MEM lv_color_mix_with_alpha(lv_color_t bg_color, lv_opa_t bg_o
ARM GAS  /var/folders/lp/x54gwt890xv47sdkqj1k04q40000gn/T//ccBldNkr.s 			page 12


 532:Drivers/lvgl/src/draw/../core/../misc/lv_color.h ****                                                                  lv_color_t fg_color, lv_opa_t fg_o
 533:Drivers/lvgl/src/draw/../core/../misc/lv_color.h ****                                                                  lv_color_t * res_color, lv_opa_t *
 534:Drivers/lvgl/src/draw/../core/../misc/lv_color.h **** {
 535:Drivers/lvgl/src/draw/../core/../misc/lv_color.h ****     /*Pick the foreground if it's fully opaque or the Background is fully transparent*/
 536:Drivers/lvgl/src/draw/../core/../misc/lv_color.h ****     if(fg_opa >= LV_OPA_MAX || bg_opa <= LV_OPA_MIN) {
 537:Drivers/lvgl/src/draw/../core/../misc/lv_color.h ****         res_color->full = fg_color.full;
 538:Drivers/lvgl/src/draw/../core/../misc/lv_color.h ****         *res_opa = fg_opa;
 539:Drivers/lvgl/src/draw/../core/../misc/lv_color.h ****     }
 540:Drivers/lvgl/src/draw/../core/../misc/lv_color.h ****     /*Transparent foreground: use the Background*/
 541:Drivers/lvgl/src/draw/../core/../misc/lv_color.h ****     else if(fg_opa <= LV_OPA_MIN) {
 542:Drivers/lvgl/src/draw/../core/../misc/lv_color.h ****         res_color->full = bg_color.full;
 543:Drivers/lvgl/src/draw/../core/../misc/lv_color.h ****         *res_opa = bg_opa;
 544:Drivers/lvgl/src/draw/../core/../misc/lv_color.h ****     }
 545:Drivers/lvgl/src/draw/../core/../misc/lv_color.h ****     /*Opaque background: use simple mix*/
 546:Drivers/lvgl/src/draw/../core/../misc/lv_color.h ****     else if(bg_opa >= LV_OPA_MAX) {
 547:Drivers/lvgl/src/draw/../core/../misc/lv_color.h ****         *res_color = lv_color_mix(fg_color, bg_color, fg_opa);
 548:Drivers/lvgl/src/draw/../core/../misc/lv_color.h ****         *res_opa = LV_OPA_COVER;
 549:Drivers/lvgl/src/draw/../core/../misc/lv_color.h ****     }
 550:Drivers/lvgl/src/draw/../core/../misc/lv_color.h ****     /*Both colors have alpha. Expensive calculation need to be applied*/
 551:Drivers/lvgl/src/draw/../core/../misc/lv_color.h ****     else {
 552:Drivers/lvgl/src/draw/../core/../misc/lv_color.h ****         /*Save the parameters and the result. If they will be asked again don't compute again*/
 553:Drivers/lvgl/src/draw/../core/../misc/lv_color.h ****         static lv_opa_t fg_opa_save     = 0;
 554:Drivers/lvgl/src/draw/../core/../misc/lv_color.h ****         static lv_opa_t bg_opa_save     = 0;
 555:Drivers/lvgl/src/draw/../core/../misc/lv_color.h ****         static lv_color_t fg_color_save = _LV_COLOR_ZERO_INITIALIZER;
 556:Drivers/lvgl/src/draw/../core/../misc/lv_color.h ****         static lv_color_t bg_color_save = _LV_COLOR_ZERO_INITIALIZER;
 557:Drivers/lvgl/src/draw/../core/../misc/lv_color.h ****         static lv_color_t res_color_saved = _LV_COLOR_ZERO_INITIALIZER;
 558:Drivers/lvgl/src/draw/../core/../misc/lv_color.h ****         static lv_opa_t res_opa_saved = 0;
 559:Drivers/lvgl/src/draw/../core/../misc/lv_color.h **** 
 560:Drivers/lvgl/src/draw/../core/../misc/lv_color.h ****         if(fg_opa != fg_opa_save || bg_opa != bg_opa_save || fg_color.full != fg_color_save.full ||
 561:Drivers/lvgl/src/draw/../core/../misc/lv_color.h ****            bg_color.full != bg_color_save.full) {
 562:Drivers/lvgl/src/draw/../core/../misc/lv_color.h ****             fg_opa_save        = fg_opa;
 563:Drivers/lvgl/src/draw/../core/../misc/lv_color.h ****             bg_opa_save        = bg_opa;
 564:Drivers/lvgl/src/draw/../core/../misc/lv_color.h ****             fg_color_save.full = fg_color.full;
 565:Drivers/lvgl/src/draw/../core/../misc/lv_color.h ****             bg_color_save.full = bg_color.full;
 566:Drivers/lvgl/src/draw/../core/../misc/lv_color.h ****             /*Info:
 567:Drivers/lvgl/src/draw/../core/../misc/lv_color.h ****              * https://en.wikipedia.org/wiki/Alpha_compositing#Analytical_derivation_of_the_over_op
 568:Drivers/lvgl/src/draw/../core/../misc/lv_color.h ****             res_opa_saved = 255 - ((uint16_t)((uint16_t)(255 - fg_opa) * (255 - bg_opa)) >> 8);
 569:Drivers/lvgl/src/draw/../core/../misc/lv_color.h ****             LV_ASSERT(res_opa_saved != 0);
 570:Drivers/lvgl/src/draw/../core/../misc/lv_color.h ****             lv_opa_t ratio = (uint16_t)((uint16_t)fg_opa * 255) / res_opa_saved;
 571:Drivers/lvgl/src/draw/../core/../misc/lv_color.h ****             res_color_saved = lv_color_mix(fg_color, bg_color, ratio);
 572:Drivers/lvgl/src/draw/../core/../misc/lv_color.h **** 
 573:Drivers/lvgl/src/draw/../core/../misc/lv_color.h ****         }
 574:Drivers/lvgl/src/draw/../core/../misc/lv_color.h **** 
 575:Drivers/lvgl/src/draw/../core/../misc/lv_color.h ****         res_color->full = res_color_saved.full;
 576:Drivers/lvgl/src/draw/../core/../misc/lv_color.h ****         *res_opa = res_opa_saved;
 577:Drivers/lvgl/src/draw/../core/../misc/lv_color.h ****     }
 578:Drivers/lvgl/src/draw/../core/../misc/lv_color.h **** }
 579:Drivers/lvgl/src/draw/../core/../misc/lv_color.h **** 
 580:Drivers/lvgl/src/draw/../core/../misc/lv_color.h **** //! @endcond
 581:Drivers/lvgl/src/draw/../core/../misc/lv_color.h **** 
 582:Drivers/lvgl/src/draw/../core/../misc/lv_color.h **** /**
 583:Drivers/lvgl/src/draw/../core/../misc/lv_color.h ****  * Get the brightness of a color
 584:Drivers/lvgl/src/draw/../core/../misc/lv_color.h ****  * @param color a color
 585:Drivers/lvgl/src/draw/../core/../misc/lv_color.h ****  * @return the brightness [0..255]
 586:Drivers/lvgl/src/draw/../core/../misc/lv_color.h ****  */
 587:Drivers/lvgl/src/draw/../core/../misc/lv_color.h **** static inline uint8_t lv_color_brightness(lv_color_t color)
 588:Drivers/lvgl/src/draw/../core/../misc/lv_color.h **** {
ARM GAS  /var/folders/lp/x54gwt890xv47sdkqj1k04q40000gn/T//ccBldNkr.s 			page 13


 589:Drivers/lvgl/src/draw/../core/../misc/lv_color.h ****     lv_color32_t c32;
 590:Drivers/lvgl/src/draw/../core/../misc/lv_color.h ****     c32.full        = lv_color_to32(color);
 591:Drivers/lvgl/src/draw/../core/../misc/lv_color.h ****     uint16_t bright = (uint16_t)(3u * LV_COLOR_GET_R32(c32) + LV_COLOR_GET_B32(c32) + 4u * LV_COLOR
 592:Drivers/lvgl/src/draw/../core/../misc/lv_color.h ****     return (uint8_t)(bright >> 3);
 593:Drivers/lvgl/src/draw/../core/../misc/lv_color.h **** }
 594:Drivers/lvgl/src/draw/../core/../misc/lv_color.h **** 
 595:Drivers/lvgl/src/draw/../core/../misc/lv_color.h **** static inline lv_color_t lv_color_make(uint8_t r, uint8_t g, uint8_t b)
 596:Drivers/lvgl/src/draw/../core/../misc/lv_color.h **** {
 597:Drivers/lvgl/src/draw/../core/../misc/lv_color.h ****     return _LV_COLOR_MAKE_TYPE_HELPER LV_COLOR_MAKE(r, g, b);
 598:Drivers/lvgl/src/draw/../core/../misc/lv_color.h **** }
 599:Drivers/lvgl/src/draw/../core/../misc/lv_color.h **** 
 600:Drivers/lvgl/src/draw/../core/../misc/lv_color.h **** static inline lv_color_t lv_color_hex(uint32_t c)
 601:Drivers/lvgl/src/draw/../core/../misc/lv_color.h **** {
 602:Drivers/lvgl/src/draw/../core/../misc/lv_color.h **** #if LV_COLOR_DEPTH == 16
 603:Drivers/lvgl/src/draw/../core/../misc/lv_color.h ****     lv_color_t r;
 604:Drivers/lvgl/src/draw/../core/../misc/lv_color.h **** #if LV_COLOR_16_SWAP == 0
 605:Drivers/lvgl/src/draw/../core/../misc/lv_color.h ****     /* Convert a 4 bytes per pixel in format ARGB32 to R5G6B5 format
 606:Drivers/lvgl/src/draw/../core/../misc/lv_color.h ****         naive way (by calling lv_color_make with components):
 607:Drivers/lvgl/src/draw/../core/../misc/lv_color.h ****                     r = ((c & 0xFF0000) >> 19)
 608:Drivers/lvgl/src/draw/../core/../misc/lv_color.h ****                     g = ((c & 0xFF00) >> 10)
 609:Drivers/lvgl/src/draw/../core/../misc/lv_color.h ****                     b = ((c & 0xFF) >> 3)
 610:Drivers/lvgl/src/draw/../core/../misc/lv_color.h ****                     rgb565 = (r << 11) | (g << 5) | b
 611:Drivers/lvgl/src/draw/../core/../misc/lv_color.h ****         That's 3 mask, 5 bitshift and 2 or operations
 612:Drivers/lvgl/src/draw/../core/../misc/lv_color.h **** 
 613:Drivers/lvgl/src/draw/../core/../misc/lv_color.h ****         A bit better:
 614:Drivers/lvgl/src/draw/../core/../misc/lv_color.h ****                     r = ((c & 0xF80000) >> 8)
 615:Drivers/lvgl/src/draw/../core/../misc/lv_color.h ****                     g = ((c & 0xFC00) >> 5)
 616:Drivers/lvgl/src/draw/../core/../misc/lv_color.h ****                     b = ((c & 0xFF) >> 3)
 617:Drivers/lvgl/src/draw/../core/../misc/lv_color.h ****                     rgb565 = r | g | b
 618:Drivers/lvgl/src/draw/../core/../misc/lv_color.h ****         That's 3 mask, 3 bitshifts and 2 or operations */
 619:Drivers/lvgl/src/draw/../core/../misc/lv_color.h ****     r.full = (uint16_t)(((c & 0xF80000) >> 8) | ((c & 0xFC00) >> 5) | ((c & 0xFF) >> 3));
 620:Drivers/lvgl/src/draw/../core/../misc/lv_color.h **** #else
 621:Drivers/lvgl/src/draw/../core/../misc/lv_color.h ****     /* We want: rrrr rrrr GGGg gggg bbbb bbbb => gggb bbbb rrrr rGGG */
 622:Drivers/lvgl/src/draw/../core/../misc/lv_color.h ****     r.full = (uint16_t)(((c & 0xF80000) >> 16) | ((c & 0xFC00) >> 13) | ((c & 0x1C00) << 3) | ((c &
 623:Drivers/lvgl/src/draw/../core/../misc/lv_color.h **** #endif
 624:Drivers/lvgl/src/draw/../core/../misc/lv_color.h ****     return r;
 625:Drivers/lvgl/src/draw/../core/../misc/lv_color.h **** #elif LV_COLOR_DEPTH == 32
 626:Drivers/lvgl/src/draw/../core/../misc/lv_color.h ****     lv_color_t r;
 627:Drivers/lvgl/src/draw/../core/../misc/lv_color.h ****     r.full = c | 0xFF000000;
 628:Drivers/lvgl/src/draw/../core/../misc/lv_color.h ****     return r;
 629:Drivers/lvgl/src/draw/../core/../misc/lv_color.h **** #else /*LV_COLOR_DEPTH == 8*/
 630:Drivers/lvgl/src/draw/../core/../misc/lv_color.h ****     return lv_color_make((uint8_t)((c >> 16) & 0xFF), (uint8_t)((c >> 8) & 0xFF), (uint8_t)(c & 0xF
 631:Drivers/lvgl/src/draw/../core/../misc/lv_color.h **** #endif
 632:Drivers/lvgl/src/draw/../core/../misc/lv_color.h **** }
 633:Drivers/lvgl/src/draw/../core/../misc/lv_color.h **** 
 634:Drivers/lvgl/src/draw/../core/../misc/lv_color.h **** static inline lv_color_t lv_color_hex3(uint32_t c)
 635:Drivers/lvgl/src/draw/../core/../misc/lv_color.h **** {
 636:Drivers/lvgl/src/draw/../core/../misc/lv_color.h ****     return lv_color_make((uint8_t)(((c >> 4) & 0xF0) | ((c >> 8) & 0xF)), (uint8_t)((c & 0xF0) | ((
 637:Drivers/lvgl/src/draw/../core/../misc/lv_color.h ****                          (uint8_t)((c & 0xF) | ((c & 0xF) << 4)));
 638:Drivers/lvgl/src/draw/../core/../misc/lv_color.h **** }
 639:Drivers/lvgl/src/draw/../core/../misc/lv_color.h **** 
 640:Drivers/lvgl/src/draw/../core/../misc/lv_color.h **** static inline void lv_color_filter_dsc_init(lv_color_filter_dsc_t * dsc, lv_color_filter_cb_t cb)
 641:Drivers/lvgl/src/draw/../core/../misc/lv_color.h **** {
 642:Drivers/lvgl/src/draw/../core/../misc/lv_color.h ****     dsc->filter_cb = cb;
 643:Drivers/lvgl/src/draw/../core/../misc/lv_color.h **** }
 644:Drivers/lvgl/src/draw/../core/../misc/lv_color.h **** 
 645:Drivers/lvgl/src/draw/../core/../misc/lv_color.h **** //! @cond Doxygen_Suppress
ARM GAS  /var/folders/lp/x54gwt890xv47sdkqj1k04q40000gn/T//ccBldNkr.s 			page 14


 646:Drivers/lvgl/src/draw/../core/../misc/lv_color.h **** //!
 647:Drivers/lvgl/src/draw/../core/../misc/lv_color.h **** void /* LV_ATTRIBUTE_FAST_MEM */ lv_color_fill(lv_color_t * buf, lv_color_t color, uint32_t px_num)
 648:Drivers/lvgl/src/draw/../core/../misc/lv_color.h **** 
 649:Drivers/lvgl/src/draw/../core/../misc/lv_color.h **** //! @endcond
 650:Drivers/lvgl/src/draw/../core/../misc/lv_color.h **** lv_color_t lv_color_lighten(lv_color_t c, lv_opa_t lvl);
 651:Drivers/lvgl/src/draw/../core/../misc/lv_color.h **** 
 652:Drivers/lvgl/src/draw/../core/../misc/lv_color.h **** lv_color_t lv_color_darken(lv_color_t c, lv_opa_t lvl);
 653:Drivers/lvgl/src/draw/../core/../misc/lv_color.h **** 
 654:Drivers/lvgl/src/draw/../core/../misc/lv_color.h **** lv_color_t lv_color_change_lightness(lv_color_t c, lv_opa_t lvl);
 655:Drivers/lvgl/src/draw/../core/../misc/lv_color.h **** 
 656:Drivers/lvgl/src/draw/../core/../misc/lv_color.h **** /**
 657:Drivers/lvgl/src/draw/../core/../misc/lv_color.h ****  * Convert a HSV color to RGB
 658:Drivers/lvgl/src/draw/../core/../misc/lv_color.h ****  * @param h hue [0..359]
 659:Drivers/lvgl/src/draw/../core/../misc/lv_color.h ****  * @param s saturation [0..100]
 660:Drivers/lvgl/src/draw/../core/../misc/lv_color.h ****  * @param v value [0..100]
 661:Drivers/lvgl/src/draw/../core/../misc/lv_color.h ****  * @return the given RGB color in RGB (with LV_COLOR_DEPTH depth)
 662:Drivers/lvgl/src/draw/../core/../misc/lv_color.h ****  */
 663:Drivers/lvgl/src/draw/../core/../misc/lv_color.h **** lv_color_t lv_color_hsv_to_rgb(uint16_t h, uint8_t s, uint8_t v);
 664:Drivers/lvgl/src/draw/../core/../misc/lv_color.h **** 
 665:Drivers/lvgl/src/draw/../core/../misc/lv_color.h **** /**
 666:Drivers/lvgl/src/draw/../core/../misc/lv_color.h ****  * Convert a 32-bit RGB color to HSV
 667:Drivers/lvgl/src/draw/../core/../misc/lv_color.h ****  * @param r8 8-bit red
 668:Drivers/lvgl/src/draw/../core/../misc/lv_color.h ****  * @param g8 8-bit green
 669:Drivers/lvgl/src/draw/../core/../misc/lv_color.h ****  * @param b8 8-bit blue
 670:Drivers/lvgl/src/draw/../core/../misc/lv_color.h ****  * @return the given RGB color in HSV
 671:Drivers/lvgl/src/draw/../core/../misc/lv_color.h ****  */
 672:Drivers/lvgl/src/draw/../core/../misc/lv_color.h **** lv_color_hsv_t lv_color_rgb_to_hsv(uint8_t r8, uint8_t g8, uint8_t b8);
 673:Drivers/lvgl/src/draw/../core/../misc/lv_color.h **** 
 674:Drivers/lvgl/src/draw/../core/../misc/lv_color.h **** /**
 675:Drivers/lvgl/src/draw/../core/../misc/lv_color.h ****  * Convert a color to HSV
 676:Drivers/lvgl/src/draw/../core/../misc/lv_color.h ****  * @param color color
 677:Drivers/lvgl/src/draw/../core/../misc/lv_color.h ****  * @return the given color in HSV
 678:Drivers/lvgl/src/draw/../core/../misc/lv_color.h ****  */
 679:Drivers/lvgl/src/draw/../core/../misc/lv_color.h **** lv_color_hsv_t lv_color_to_hsv(lv_color_t color);
 680:Drivers/lvgl/src/draw/../core/../misc/lv_color.h **** 
 681:Drivers/lvgl/src/draw/../core/../misc/lv_color.h **** /**
 682:Drivers/lvgl/src/draw/../core/../misc/lv_color.h ****  * Just a wrapper around LV_COLOR_CHROMA_KEY because it might be more convenient to use a function 
 683:Drivers/lvgl/src/draw/../core/../misc/lv_color.h ****  * @return LV_COLOR_CHROMA_KEY
 684:Drivers/lvgl/src/draw/../core/../misc/lv_color.h ****  */
 685:Drivers/lvgl/src/draw/../core/../misc/lv_color.h **** static inline lv_color_t lv_color_chroma_key(void)
 686:Drivers/lvgl/src/draw/../core/../misc/lv_color.h **** {
 687:Drivers/lvgl/src/draw/../core/../misc/lv_color.h ****     return LV_COLOR_CHROMA_KEY;
 688:Drivers/lvgl/src/draw/../core/../misc/lv_color.h **** }
 689:Drivers/lvgl/src/draw/../core/../misc/lv_color.h **** 
 690:Drivers/lvgl/src/draw/../core/../misc/lv_color.h **** /**********************
 691:Drivers/lvgl/src/draw/../core/../misc/lv_color.h ****  *  PREDEFINED COLORS
 692:Drivers/lvgl/src/draw/../core/../misc/lv_color.h ****  **********************/
 693:Drivers/lvgl/src/draw/../core/../misc/lv_color.h **** /*Source: https://vuetifyjs.com/en/styles/colors/#material-colors*/
 694:Drivers/lvgl/src/draw/../core/../misc/lv_color.h **** 
 695:Drivers/lvgl/src/draw/../core/../misc/lv_color.h **** lv_color_t lv_palette_main(lv_palette_t p);
 696:Drivers/lvgl/src/draw/../core/../misc/lv_color.h **** static inline lv_color_t lv_color_white(void)
 697:Drivers/lvgl/src/draw/../core/../misc/lv_color.h **** {
 698:Drivers/lvgl/src/draw/../core/../misc/lv_color.h ****     return lv_color_make(0xff, 0xff, 0xff);
 699:Drivers/lvgl/src/draw/../core/../misc/lv_color.h **** }
 700:Drivers/lvgl/src/draw/../core/../misc/lv_color.h **** static inline lv_color_t lv_color_black(void)
  56              		.loc 2 700 26 view .LVU8
 701:Drivers/lvgl/src/draw/../core/../misc/lv_color.h **** {
ARM GAS  /var/folders/lp/x54gwt890xv47sdkqj1k04q40000gn/T//ccBldNkr.s 			page 15


 702:Drivers/lvgl/src/draw/../core/../misc/lv_color.h ****     return lv_color_make(0x00, 0x0, 0x00);
  57              		.loc 2 702 5 view .LVU9
  58              	.LVL2:
  59              	.LBB9:
  60              	.LBI9:
 595:Drivers/lvgl/src/draw/../core/../misc/lv_color.h **** {
  61              		.loc 2 595 26 view .LVU10
  62              	.LBB10:
 597:Drivers/lvgl/src/draw/../core/../misc/lv_color.h **** }
  63              		.loc 2 597 5 view .LVU11
 597:Drivers/lvgl/src/draw/../core/../misc/lv_color.h **** }
  64              		.loc 2 597 12 is_stmt 0 view .LVU12
  65 0012 4FF00003 		mov	r3, #0	@ movhi
  66 0016 23F00703 		bic	r3, r3, #7
  67 001a 23F0F803 		bic	r3, r3, #248
  68 001e 23F4F853 		bic	r3, r3, #7936
  69 0022 23F46043 		bic	r3, r3, #57344
  70              	.LVL3:
 597:Drivers/lvgl/src/draw/../core/../misc/lv_color.h **** }
  71              		.loc 2 597 12 view .LVU13
  72              	.LBE10:
  73              	.LBE9:
  74              	.LBE8:
  75              		.loc 1 42 18 view .LVU14
  76 0026 2380     		strh	r3, [r4]	@ movhi
  43:Drivers/lvgl/src/draw/lv_draw_line.c **** }
  77              		.loc 1 43 1 view .LVU15
  78 0028 10BD     		pop	{r4, pc}
  79              		.loc 1 43 1 view .LVU16
  80              		.cfi_endproc
  81              	.LFE161:
  83              		.section	.text.lv_draw_line,"ax",%progbits
  84              		.align	1
  85              		.global	lv_draw_line
  86              		.syntax unified
  87              		.thumb
  88              		.thumb_func
  90              	lv_draw_line:
  91              	.LVL4:
  92              	.LFB162:
  44:Drivers/lvgl/src/draw/lv_draw_line.c **** 
  45:Drivers/lvgl/src/draw/lv_draw_line.c **** void LV_ATTRIBUTE_FAST_MEM lv_draw_line(struct _lv_draw_ctx_t * draw_ctx, const lv_draw_line_dsc_t 
  46:Drivers/lvgl/src/draw/lv_draw_line.c ****                                         const lv_point_t * point1, const lv_point_t * point2)
  47:Drivers/lvgl/src/draw/lv_draw_line.c **** {
  93              		.loc 1 47 1 is_stmt 1 view -0
  94              		.cfi_startproc
  95              		@ args = 0, pretend = 0, frame = 0
  96              		@ frame_needed = 0, uses_anonymous_args = 0
  97              		.loc 1 47 1 is_stmt 0 view .LVU18
  98 0000 10B5     		push	{r4, lr}
  99              		.cfi_def_cfa_offset 8
 100              		.cfi_offset 4, -8
 101              		.cfi_offset 14, -4
  48:Drivers/lvgl/src/draw/lv_draw_line.c ****     if(dsc->width == 0) return;
 102              		.loc 1 48 5 is_stmt 1 view .LVU19
 103              		.loc 1 48 11 is_stmt 0 view .LVU20
 104 0002 B1F90240 		ldrsh	r4, [r1, #2]
ARM GAS  /var/folders/lp/x54gwt890xv47sdkqj1k04q40000gn/T//ccBldNkr.s 			page 16


 105              		.loc 1 48 7 view .LVU21
 106 0006 24B1     		cbz	r4, .L3
  49:Drivers/lvgl/src/draw/lv_draw_line.c ****     if(dsc->opa <= LV_OPA_MIN) return;
 107              		.loc 1 49 5 is_stmt 1 view .LVU22
 108              		.loc 1 49 11 is_stmt 0 view .LVU23
 109 0008 0C7A     		ldrb	r4, [r1, #8]	@ zero_extendqisi2
 110              		.loc 1 49 7 view .LVU24
 111 000a 022C     		cmp	r4, #2
 112 000c 01D9     		bls	.L3
  50:Drivers/lvgl/src/draw/lv_draw_line.c **** 
  51:Drivers/lvgl/src/draw/lv_draw_line.c ****     draw_ctx->draw_line(draw_ctx, dsc, point1, point2);
 113              		.loc 1 51 5 is_stmt 1 view .LVU25
 114              		.loc 1 51 13 is_stmt 0 view .LVU26
 115 000e 446A     		ldr	r4, [r0, #36]
 116              		.loc 1 51 5 view .LVU27
 117 0010 A047     		blx	r4
 118              	.LVL5:
 119              	.L3:
  52:Drivers/lvgl/src/draw/lv_draw_line.c **** }
 120              		.loc 1 52 1 view .LVU28
 121 0012 10BD     		pop	{r4, pc}
 122              		.cfi_endproc
 123              	.LFE162:
 125              		.text
 126              	.Letext0:
 127              		.file 3 "/Users/jr/Library/Application Support/Code/User/globalStorage/bmd.stm32-for-vscode/@xpack
 128              		.file 4 "/Users/jr/Library/Application Support/Code/User/globalStorage/bmd.stm32-for-vscode/@xpack
 129              		.file 5 "/Users/jr/Library/Application Support/Code/User/globalStorage/bmd.stm32-for-vscode/@xpack
 130              		.file 6 "Drivers/lvgl/src/draw/../core/../misc/../font/../misc/lv_area.h"
 131              		.file 7 "Drivers/lvgl/src/draw/../core/../misc/../font/lv_font.h"
 132              		.file 8 "Drivers/lvgl/src/draw/../core/../misc/lv_types.h"
 133              		.file 9 "Drivers/lvgl/src/draw/../core/../misc/lv_txt.h"
 134              		.file 10 "Drivers/lvgl/src/draw/../core/../misc/lv_bidi.h"
 135              		.file 11 "Drivers/lvgl/src/draw/../core/../misc/lv_style.h"
 136              		.file 12 "Drivers/lvgl/src/draw/../core/../hal/../draw/lv_img_buf.h"
 137              		.file 13 "Drivers/lvgl/src/draw/../core/../hal/../draw/lv_draw_rect.h"
 138              		.file 14 "Drivers/lvgl/src/draw/../core/../hal/../draw/lv_draw_label.h"
 139              		.file 15 "Drivers/lvgl/src/draw/../core/../hal/../draw/lv_draw_img.h"
 140              		.file 16 "Drivers/lvgl/src/draw/../core/../hal/../draw/lv_draw_line.h"
 141              		.file 17 "Drivers/lvgl/src/draw/../core/../hal/../draw/lv_draw_arc.h"
 142              		.file 18 "Drivers/lvgl/src/draw/../core/../hal/../draw/lv_draw_layer.h"
 143              		.file 19 "Drivers/lvgl/src/draw/../core/../hal/../draw/lv_draw.h"
 144              		.file 20 "Drivers/lvgl/src/draw/../core/../misc/lv_mem.h"
ARM GAS  /var/folders/lp/x54gwt890xv47sdkqj1k04q40000gn/T//ccBldNkr.s 			page 17

