ARM GAS  /var/folders/lp/x54gwt890xv47sdkqj1k04q40000gn/T//cczFasrC.s 			page 1


   1              		.cpu cortex-m4
   2              		.arch armv7e-m
   3              		.fpu fpv4-sp-d16
   4              		.eabi_attribute 27, 1
   5              		.eabi_attribute 28, 1
   6              		.eabi_attribute 20, 1
   7              		.eabi_attribute 21, 1
   8              		.eabi_attribute 23, 3
   9              		.eabi_attribute 24, 1
  10              		.eabi_attribute 25, 1
  11              		.eabi_attribute 26, 1
  12              		.eabi_attribute 30, 1
  13              		.eabi_attribute 34, 1
  14              		.eabi_attribute 18, 4
  15              		.file	"lv_dropdown.c"
  16              		.text
  17              	.Ltext0:
  18              		.cfi_sections	.debug_frame
  19              		.file 1 "Drivers/lvgl/src/widgets/lv_dropdown.c"
  20              		.section	.text.lv_dropdownlist_destructor,"ax",%progbits
  21              		.align	1
  22              		.syntax unified
  23              		.thumb
  24              		.thumb_func
  26              	lv_dropdownlist_destructor:
  27              	.LVL0:
  28              	.LFB194:
   1:Drivers/lvgl/src/widgets/lv_dropdown.c **** /**
   2:Drivers/lvgl/src/widgets/lv_dropdown.c ****  * @file lv_dropdown.c
   3:Drivers/lvgl/src/widgets/lv_dropdown.c ****  *
   4:Drivers/lvgl/src/widgets/lv_dropdown.c ****  */
   5:Drivers/lvgl/src/widgets/lv_dropdown.c **** 
   6:Drivers/lvgl/src/widgets/lv_dropdown.c **** /*********************
   7:Drivers/lvgl/src/widgets/lv_dropdown.c ****  *      INCLUDES
   8:Drivers/lvgl/src/widgets/lv_dropdown.c ****  *********************/
   9:Drivers/lvgl/src/widgets/lv_dropdown.c **** #include "../core/lv_obj.h"
  10:Drivers/lvgl/src/widgets/lv_dropdown.c **** #include "lv_dropdown.h"
  11:Drivers/lvgl/src/widgets/lv_dropdown.c **** #if LV_USE_DROPDOWN != 0
  12:Drivers/lvgl/src/widgets/lv_dropdown.c **** 
  13:Drivers/lvgl/src/widgets/lv_dropdown.c **** #include "../misc/lv_assert.h"
  14:Drivers/lvgl/src/widgets/lv_dropdown.c **** #include "../draw/lv_draw.h"
  15:Drivers/lvgl/src/widgets/lv_dropdown.c **** #include "../core/lv_group.h"
  16:Drivers/lvgl/src/widgets/lv_dropdown.c **** #include "../core/lv_indev.h"
  17:Drivers/lvgl/src/widgets/lv_dropdown.c **** #include "../core/lv_disp.h"
  18:Drivers/lvgl/src/widgets/lv_dropdown.c **** #include "../font/lv_symbol_def.h"
  19:Drivers/lvgl/src/widgets/lv_dropdown.c **** #include "../misc/lv_anim.h"
  20:Drivers/lvgl/src/widgets/lv_dropdown.c **** #include "../misc/lv_math.h"
  21:Drivers/lvgl/src/widgets/lv_dropdown.c **** #include "../misc/lv_txt_ap.h"
  22:Drivers/lvgl/src/widgets/lv_dropdown.c **** #include <string.h>
  23:Drivers/lvgl/src/widgets/lv_dropdown.c **** 
  24:Drivers/lvgl/src/widgets/lv_dropdown.c **** /*********************
  25:Drivers/lvgl/src/widgets/lv_dropdown.c ****  *      DEFINES
  26:Drivers/lvgl/src/widgets/lv_dropdown.c ****  *********************/
  27:Drivers/lvgl/src/widgets/lv_dropdown.c **** #define MY_CLASS &lv_dropdown_class
  28:Drivers/lvgl/src/widgets/lv_dropdown.c **** #define MY_CLASS_LIST &lv_dropdownlist_class
  29:Drivers/lvgl/src/widgets/lv_dropdown.c **** 
  30:Drivers/lvgl/src/widgets/lv_dropdown.c **** #define LV_DROPDOWN_PR_NONE 0xFFFF
ARM GAS  /var/folders/lp/x54gwt890xv47sdkqj1k04q40000gn/T//cczFasrC.s 			page 2


  31:Drivers/lvgl/src/widgets/lv_dropdown.c **** 
  32:Drivers/lvgl/src/widgets/lv_dropdown.c **** /**********************
  33:Drivers/lvgl/src/widgets/lv_dropdown.c ****  *      TYPEDEFS
  34:Drivers/lvgl/src/widgets/lv_dropdown.c ****  **********************/
  35:Drivers/lvgl/src/widgets/lv_dropdown.c **** 
  36:Drivers/lvgl/src/widgets/lv_dropdown.c **** /**********************
  37:Drivers/lvgl/src/widgets/lv_dropdown.c ****  *  STATIC PROTOTYPES
  38:Drivers/lvgl/src/widgets/lv_dropdown.c ****  **********************/
  39:Drivers/lvgl/src/widgets/lv_dropdown.c **** static lv_obj_t * lv_dropdown_list_create(lv_obj_t * parent);
  40:Drivers/lvgl/src/widgets/lv_dropdown.c **** static void lv_dropdown_constructor(const lv_obj_class_t * class_p, lv_obj_t * obj);
  41:Drivers/lvgl/src/widgets/lv_dropdown.c **** static void lv_dropdown_destructor(const lv_obj_class_t * class_p, lv_obj_t * obj);
  42:Drivers/lvgl/src/widgets/lv_dropdown.c **** static void lv_dropdown_event(const lv_obj_class_t * class_p, lv_event_t * e);
  43:Drivers/lvgl/src/widgets/lv_dropdown.c **** static void draw_main(lv_event_t * e);
  44:Drivers/lvgl/src/widgets/lv_dropdown.c **** 
  45:Drivers/lvgl/src/widgets/lv_dropdown.c **** static void lv_dropdownlist_constructor(const lv_obj_class_t * class_p, lv_obj_t * obj);
  46:Drivers/lvgl/src/widgets/lv_dropdown.c **** static void lv_dropdownlist_destructor(const lv_obj_class_t * class_p, lv_obj_t * list_obj);
  47:Drivers/lvgl/src/widgets/lv_dropdown.c **** static void lv_dropdown_list_event(const lv_obj_class_t * class_p, lv_event_t * e);
  48:Drivers/lvgl/src/widgets/lv_dropdown.c **** static void draw_list(lv_event_t * e);
  49:Drivers/lvgl/src/widgets/lv_dropdown.c **** 
  50:Drivers/lvgl/src/widgets/lv_dropdown.c **** static void draw_box(lv_obj_t * dropdown_obj, lv_draw_ctx_t * draw_ctx, uint16_t id, lv_state_t sta
  51:Drivers/lvgl/src/widgets/lv_dropdown.c **** static void draw_box_label(lv_obj_t * dropdown_obj, lv_draw_ctx_t * draw_ctx, uint16_t id, lv_state
  52:Drivers/lvgl/src/widgets/lv_dropdown.c **** static lv_res_t btn_release_handler(lv_obj_t * obj);
  53:Drivers/lvgl/src/widgets/lv_dropdown.c **** static lv_res_t list_release_handler(lv_obj_t * list_obj);
  54:Drivers/lvgl/src/widgets/lv_dropdown.c **** static void list_press_handler(lv_obj_t * page);
  55:Drivers/lvgl/src/widgets/lv_dropdown.c **** static uint16_t get_id_on_point(lv_obj_t * dropdown_obj, lv_coord_t y);
  56:Drivers/lvgl/src/widgets/lv_dropdown.c **** static void position_to_selected(lv_obj_t * obj);
  57:Drivers/lvgl/src/widgets/lv_dropdown.c **** static lv_obj_t * get_label(const lv_obj_t * obj);
  58:Drivers/lvgl/src/widgets/lv_dropdown.c **** 
  59:Drivers/lvgl/src/widgets/lv_dropdown.c **** /**********************
  60:Drivers/lvgl/src/widgets/lv_dropdown.c ****  *  STATIC VARIABLES
  61:Drivers/lvgl/src/widgets/lv_dropdown.c ****  **********************/
  62:Drivers/lvgl/src/widgets/lv_dropdown.c **** const lv_obj_class_t lv_dropdown_class = {
  63:Drivers/lvgl/src/widgets/lv_dropdown.c ****     .constructor_cb = lv_dropdown_constructor,
  64:Drivers/lvgl/src/widgets/lv_dropdown.c ****     .destructor_cb = lv_dropdown_destructor,
  65:Drivers/lvgl/src/widgets/lv_dropdown.c ****     .event_cb = lv_dropdown_event,
  66:Drivers/lvgl/src/widgets/lv_dropdown.c ****     .width_def = LV_DPI_DEF,
  67:Drivers/lvgl/src/widgets/lv_dropdown.c ****     .height_def = LV_SIZE_CONTENT,
  68:Drivers/lvgl/src/widgets/lv_dropdown.c ****     .instance_size = sizeof(lv_dropdown_t),
  69:Drivers/lvgl/src/widgets/lv_dropdown.c ****     .editable = LV_OBJ_CLASS_EDITABLE_TRUE,
  70:Drivers/lvgl/src/widgets/lv_dropdown.c ****     .group_def = LV_OBJ_CLASS_GROUP_DEF_TRUE,
  71:Drivers/lvgl/src/widgets/lv_dropdown.c ****     .base_class = &lv_obj_class
  72:Drivers/lvgl/src/widgets/lv_dropdown.c **** };
  73:Drivers/lvgl/src/widgets/lv_dropdown.c **** 
  74:Drivers/lvgl/src/widgets/lv_dropdown.c **** const lv_obj_class_t lv_dropdownlist_class = {
  75:Drivers/lvgl/src/widgets/lv_dropdown.c ****     .constructor_cb = lv_dropdownlist_constructor,
  76:Drivers/lvgl/src/widgets/lv_dropdown.c ****     .destructor_cb = lv_dropdownlist_destructor,
  77:Drivers/lvgl/src/widgets/lv_dropdown.c ****     .event_cb = lv_dropdown_list_event,
  78:Drivers/lvgl/src/widgets/lv_dropdown.c ****     .instance_size = sizeof(lv_dropdown_list_t),
  79:Drivers/lvgl/src/widgets/lv_dropdown.c ****     .base_class = &lv_obj_class
  80:Drivers/lvgl/src/widgets/lv_dropdown.c **** };
  81:Drivers/lvgl/src/widgets/lv_dropdown.c **** 
  82:Drivers/lvgl/src/widgets/lv_dropdown.c **** 
  83:Drivers/lvgl/src/widgets/lv_dropdown.c **** /**********************
  84:Drivers/lvgl/src/widgets/lv_dropdown.c ****  *      MACROS
  85:Drivers/lvgl/src/widgets/lv_dropdown.c ****  **********************/
  86:Drivers/lvgl/src/widgets/lv_dropdown.c **** 
  87:Drivers/lvgl/src/widgets/lv_dropdown.c **** /**********************
ARM GAS  /var/folders/lp/x54gwt890xv47sdkqj1k04q40000gn/T//cczFasrC.s 			page 3


  88:Drivers/lvgl/src/widgets/lv_dropdown.c ****  *   GLOBAL FUNCTIONS
  89:Drivers/lvgl/src/widgets/lv_dropdown.c ****  **********************/
  90:Drivers/lvgl/src/widgets/lv_dropdown.c **** 
  91:Drivers/lvgl/src/widgets/lv_dropdown.c **** lv_obj_t * lv_dropdown_create(lv_obj_t * parent)
  92:Drivers/lvgl/src/widgets/lv_dropdown.c **** {
  93:Drivers/lvgl/src/widgets/lv_dropdown.c ****     LV_LOG_INFO("begin");
  94:Drivers/lvgl/src/widgets/lv_dropdown.c ****     lv_obj_t * obj = lv_obj_class_create_obj(&lv_dropdown_class, parent);
  95:Drivers/lvgl/src/widgets/lv_dropdown.c ****     lv_obj_class_init_obj(obj);
  96:Drivers/lvgl/src/widgets/lv_dropdown.c ****     return obj;
  97:Drivers/lvgl/src/widgets/lv_dropdown.c **** }
  98:Drivers/lvgl/src/widgets/lv_dropdown.c **** 
  99:Drivers/lvgl/src/widgets/lv_dropdown.c **** /*=====================
 100:Drivers/lvgl/src/widgets/lv_dropdown.c ****  * Setter functions
 101:Drivers/lvgl/src/widgets/lv_dropdown.c ****  *====================*/
 102:Drivers/lvgl/src/widgets/lv_dropdown.c **** 
 103:Drivers/lvgl/src/widgets/lv_dropdown.c **** void lv_dropdown_set_text(lv_obj_t * obj, const char * txt)
 104:Drivers/lvgl/src/widgets/lv_dropdown.c **** {
 105:Drivers/lvgl/src/widgets/lv_dropdown.c ****     LV_ASSERT_OBJ(obj, MY_CLASS);
 106:Drivers/lvgl/src/widgets/lv_dropdown.c ****     lv_dropdown_t * dropdown = (lv_dropdown_t *)obj;
 107:Drivers/lvgl/src/widgets/lv_dropdown.c ****     if(dropdown->text == txt) return;
 108:Drivers/lvgl/src/widgets/lv_dropdown.c **** 
 109:Drivers/lvgl/src/widgets/lv_dropdown.c ****     dropdown->text = txt;
 110:Drivers/lvgl/src/widgets/lv_dropdown.c **** 
 111:Drivers/lvgl/src/widgets/lv_dropdown.c ****     lv_obj_invalidate(obj);
 112:Drivers/lvgl/src/widgets/lv_dropdown.c **** }
 113:Drivers/lvgl/src/widgets/lv_dropdown.c **** 
 114:Drivers/lvgl/src/widgets/lv_dropdown.c **** void lv_dropdown_set_options(lv_obj_t * obj, const char * options)
 115:Drivers/lvgl/src/widgets/lv_dropdown.c **** {
 116:Drivers/lvgl/src/widgets/lv_dropdown.c ****     LV_ASSERT_OBJ(obj, MY_CLASS);
 117:Drivers/lvgl/src/widgets/lv_dropdown.c ****     LV_ASSERT_NULL(options);
 118:Drivers/lvgl/src/widgets/lv_dropdown.c **** 
 119:Drivers/lvgl/src/widgets/lv_dropdown.c ****     lv_dropdown_t * dropdown = (lv_dropdown_t *)obj;
 120:Drivers/lvgl/src/widgets/lv_dropdown.c **** 
 121:Drivers/lvgl/src/widgets/lv_dropdown.c ****     /*Count the '\n'-s to determine the number of options*/
 122:Drivers/lvgl/src/widgets/lv_dropdown.c ****     dropdown->option_cnt = 0;
 123:Drivers/lvgl/src/widgets/lv_dropdown.c ****     uint32_t i;
 124:Drivers/lvgl/src/widgets/lv_dropdown.c ****     for(i = 0; options[i] != '\0'; i++) {
 125:Drivers/lvgl/src/widgets/lv_dropdown.c ****         if(options[i] == '\n') dropdown->option_cnt++;
 126:Drivers/lvgl/src/widgets/lv_dropdown.c ****     }
 127:Drivers/lvgl/src/widgets/lv_dropdown.c ****     dropdown->option_cnt++;   /*Last option has no `\n`*/
 128:Drivers/lvgl/src/widgets/lv_dropdown.c ****     dropdown->sel_opt_id      = 0;
 129:Drivers/lvgl/src/widgets/lv_dropdown.c ****     dropdown->sel_opt_id_orig = 0;
 130:Drivers/lvgl/src/widgets/lv_dropdown.c **** 
 131:Drivers/lvgl/src/widgets/lv_dropdown.c ****     /*Allocate space for the new text*/
 132:Drivers/lvgl/src/widgets/lv_dropdown.c **** #if LV_USE_ARABIC_PERSIAN_CHARS == 0
 133:Drivers/lvgl/src/widgets/lv_dropdown.c ****     size_t len = strlen(options) + 1;
 134:Drivers/lvgl/src/widgets/lv_dropdown.c **** #else
 135:Drivers/lvgl/src/widgets/lv_dropdown.c ****     size_t len = _lv_txt_ap_calc_bytes_cnt(options) + 1;
 136:Drivers/lvgl/src/widgets/lv_dropdown.c **** #endif
 137:Drivers/lvgl/src/widgets/lv_dropdown.c **** 
 138:Drivers/lvgl/src/widgets/lv_dropdown.c ****     if(dropdown->options != NULL && dropdown->static_txt == 0) {
 139:Drivers/lvgl/src/widgets/lv_dropdown.c ****         lv_mem_free(dropdown->options);
 140:Drivers/lvgl/src/widgets/lv_dropdown.c ****         dropdown->options = NULL;
 141:Drivers/lvgl/src/widgets/lv_dropdown.c ****     }
 142:Drivers/lvgl/src/widgets/lv_dropdown.c **** 
 143:Drivers/lvgl/src/widgets/lv_dropdown.c ****     dropdown->options = lv_mem_alloc(len);
 144:Drivers/lvgl/src/widgets/lv_dropdown.c **** 
ARM GAS  /var/folders/lp/x54gwt890xv47sdkqj1k04q40000gn/T//cczFasrC.s 			page 4


 145:Drivers/lvgl/src/widgets/lv_dropdown.c ****     LV_ASSERT_MALLOC(dropdown->options);
 146:Drivers/lvgl/src/widgets/lv_dropdown.c ****     if(dropdown->options == NULL) return;
 147:Drivers/lvgl/src/widgets/lv_dropdown.c **** 
 148:Drivers/lvgl/src/widgets/lv_dropdown.c **** #if LV_USE_ARABIC_PERSIAN_CHARS == 0
 149:Drivers/lvgl/src/widgets/lv_dropdown.c ****     strcpy(dropdown->options, options);
 150:Drivers/lvgl/src/widgets/lv_dropdown.c **** #else
 151:Drivers/lvgl/src/widgets/lv_dropdown.c ****     _lv_txt_ap_proc(options, dropdown->options);
 152:Drivers/lvgl/src/widgets/lv_dropdown.c **** #endif
 153:Drivers/lvgl/src/widgets/lv_dropdown.c **** 
 154:Drivers/lvgl/src/widgets/lv_dropdown.c ****     /*Now the text is dynamically allocated*/
 155:Drivers/lvgl/src/widgets/lv_dropdown.c ****     dropdown->static_txt = 0;
 156:Drivers/lvgl/src/widgets/lv_dropdown.c **** 
 157:Drivers/lvgl/src/widgets/lv_dropdown.c ****     lv_obj_invalidate(obj);
 158:Drivers/lvgl/src/widgets/lv_dropdown.c ****     if(dropdown->list) lv_obj_invalidate(dropdown->list);
 159:Drivers/lvgl/src/widgets/lv_dropdown.c **** }
 160:Drivers/lvgl/src/widgets/lv_dropdown.c **** 
 161:Drivers/lvgl/src/widgets/lv_dropdown.c **** void lv_dropdown_set_options_static(lv_obj_t * obj, const char * options)
 162:Drivers/lvgl/src/widgets/lv_dropdown.c **** {
 163:Drivers/lvgl/src/widgets/lv_dropdown.c ****     LV_ASSERT_OBJ(obj, MY_CLASS);
 164:Drivers/lvgl/src/widgets/lv_dropdown.c ****     LV_ASSERT_NULL(options);
 165:Drivers/lvgl/src/widgets/lv_dropdown.c **** 
 166:Drivers/lvgl/src/widgets/lv_dropdown.c ****     lv_dropdown_t * dropdown = (lv_dropdown_t *)obj;
 167:Drivers/lvgl/src/widgets/lv_dropdown.c **** 
 168:Drivers/lvgl/src/widgets/lv_dropdown.c ****     /*Count the '\n'-s to determine the number of options*/
 169:Drivers/lvgl/src/widgets/lv_dropdown.c ****     dropdown->option_cnt = 0;
 170:Drivers/lvgl/src/widgets/lv_dropdown.c ****     uint32_t i;
 171:Drivers/lvgl/src/widgets/lv_dropdown.c ****     for(i = 0; options[i] != '\0'; i++) {
 172:Drivers/lvgl/src/widgets/lv_dropdown.c ****         if(options[i] == '\n') dropdown->option_cnt++;
 173:Drivers/lvgl/src/widgets/lv_dropdown.c ****     }
 174:Drivers/lvgl/src/widgets/lv_dropdown.c ****     dropdown->option_cnt++;   /*Last option has no `\n`*/
 175:Drivers/lvgl/src/widgets/lv_dropdown.c ****     dropdown->sel_opt_id      = 0;
 176:Drivers/lvgl/src/widgets/lv_dropdown.c ****     dropdown->sel_opt_id_orig = 0;
 177:Drivers/lvgl/src/widgets/lv_dropdown.c **** 
 178:Drivers/lvgl/src/widgets/lv_dropdown.c ****     if(dropdown->static_txt == 0 && dropdown->options != NULL) {
 179:Drivers/lvgl/src/widgets/lv_dropdown.c ****         lv_mem_free(dropdown->options);
 180:Drivers/lvgl/src/widgets/lv_dropdown.c ****         dropdown->options = NULL;
 181:Drivers/lvgl/src/widgets/lv_dropdown.c ****     }
 182:Drivers/lvgl/src/widgets/lv_dropdown.c **** 
 183:Drivers/lvgl/src/widgets/lv_dropdown.c ****     dropdown->static_txt = 1;
 184:Drivers/lvgl/src/widgets/lv_dropdown.c ****     dropdown->options = (char *)options;
 185:Drivers/lvgl/src/widgets/lv_dropdown.c **** 
 186:Drivers/lvgl/src/widgets/lv_dropdown.c ****     lv_obj_invalidate(obj);
 187:Drivers/lvgl/src/widgets/lv_dropdown.c ****     if(dropdown->list) lv_obj_invalidate(dropdown->list);
 188:Drivers/lvgl/src/widgets/lv_dropdown.c **** }
 189:Drivers/lvgl/src/widgets/lv_dropdown.c **** 
 190:Drivers/lvgl/src/widgets/lv_dropdown.c **** void lv_dropdown_add_option(lv_obj_t * obj, const char * option, uint32_t pos)
 191:Drivers/lvgl/src/widgets/lv_dropdown.c **** {
 192:Drivers/lvgl/src/widgets/lv_dropdown.c ****     LV_ASSERT_OBJ(obj, MY_CLASS);
 193:Drivers/lvgl/src/widgets/lv_dropdown.c ****     LV_ASSERT_NULL(option);
 194:Drivers/lvgl/src/widgets/lv_dropdown.c **** 
 195:Drivers/lvgl/src/widgets/lv_dropdown.c ****     lv_dropdown_t * dropdown = (lv_dropdown_t *)obj;
 196:Drivers/lvgl/src/widgets/lv_dropdown.c **** 
 197:Drivers/lvgl/src/widgets/lv_dropdown.c ****     /*Convert static options to dynamic*/
 198:Drivers/lvgl/src/widgets/lv_dropdown.c ****     if(dropdown->static_txt != 0) {
 199:Drivers/lvgl/src/widgets/lv_dropdown.c ****         char * static_options = dropdown->options;
 200:Drivers/lvgl/src/widgets/lv_dropdown.c ****         size_t len = strlen(static_options) + 1;
 201:Drivers/lvgl/src/widgets/lv_dropdown.c **** 
ARM GAS  /var/folders/lp/x54gwt890xv47sdkqj1k04q40000gn/T//cczFasrC.s 			page 5


 202:Drivers/lvgl/src/widgets/lv_dropdown.c ****         dropdown->options = lv_mem_alloc(len);
 203:Drivers/lvgl/src/widgets/lv_dropdown.c ****         LV_ASSERT_MALLOC(dropdown->options);
 204:Drivers/lvgl/src/widgets/lv_dropdown.c ****         if(dropdown->options == NULL) return;
 205:Drivers/lvgl/src/widgets/lv_dropdown.c **** 
 206:Drivers/lvgl/src/widgets/lv_dropdown.c ****         strcpy(dropdown->options, static_options);
 207:Drivers/lvgl/src/widgets/lv_dropdown.c ****         dropdown->static_txt = 0;
 208:Drivers/lvgl/src/widgets/lv_dropdown.c ****     }
 209:Drivers/lvgl/src/widgets/lv_dropdown.c **** 
 210:Drivers/lvgl/src/widgets/lv_dropdown.c ****     /*Allocate space for the new option*/
 211:Drivers/lvgl/src/widgets/lv_dropdown.c ****     size_t old_len = (dropdown->options == NULL) ? 0 : strlen(dropdown->options);
 212:Drivers/lvgl/src/widgets/lv_dropdown.c **** #if LV_USE_ARABIC_PERSIAN_CHARS == 0
 213:Drivers/lvgl/src/widgets/lv_dropdown.c ****     size_t ins_len = strlen(option) + 1;
 214:Drivers/lvgl/src/widgets/lv_dropdown.c **** #else
 215:Drivers/lvgl/src/widgets/lv_dropdown.c ****     size_t ins_len = _lv_txt_ap_calc_bytes_cnt(option) + 1;
 216:Drivers/lvgl/src/widgets/lv_dropdown.c **** #endif
 217:Drivers/lvgl/src/widgets/lv_dropdown.c **** 
 218:Drivers/lvgl/src/widgets/lv_dropdown.c ****     size_t new_len = ins_len + old_len + 2; /*+2 for terminating NULL and possible \n*/
 219:Drivers/lvgl/src/widgets/lv_dropdown.c ****     dropdown->options        = lv_mem_realloc(dropdown->options, new_len + 1);
 220:Drivers/lvgl/src/widgets/lv_dropdown.c ****     LV_ASSERT_MALLOC(dropdown->options);
 221:Drivers/lvgl/src/widgets/lv_dropdown.c ****     if(dropdown->options == NULL) return;
 222:Drivers/lvgl/src/widgets/lv_dropdown.c **** 
 223:Drivers/lvgl/src/widgets/lv_dropdown.c ****     dropdown->options[old_len] = '\0';
 224:Drivers/lvgl/src/widgets/lv_dropdown.c **** 
 225:Drivers/lvgl/src/widgets/lv_dropdown.c ****     /*Find the insert character position*/
 226:Drivers/lvgl/src/widgets/lv_dropdown.c ****     uint32_t insert_pos = old_len;
 227:Drivers/lvgl/src/widgets/lv_dropdown.c ****     if(pos != LV_DROPDOWN_POS_LAST) {
 228:Drivers/lvgl/src/widgets/lv_dropdown.c ****         uint32_t opcnt = 0;
 229:Drivers/lvgl/src/widgets/lv_dropdown.c ****         for(insert_pos = 0; dropdown->options[insert_pos] != 0; insert_pos++) {
 230:Drivers/lvgl/src/widgets/lv_dropdown.c ****             if(opcnt == pos)
 231:Drivers/lvgl/src/widgets/lv_dropdown.c ****                 break;
 232:Drivers/lvgl/src/widgets/lv_dropdown.c ****             if(dropdown->options[insert_pos] == '\n')
 233:Drivers/lvgl/src/widgets/lv_dropdown.c ****                 opcnt++;
 234:Drivers/lvgl/src/widgets/lv_dropdown.c ****         }
 235:Drivers/lvgl/src/widgets/lv_dropdown.c ****     }
 236:Drivers/lvgl/src/widgets/lv_dropdown.c **** 
 237:Drivers/lvgl/src/widgets/lv_dropdown.c ****     /*Add delimiter to existing options*/
 238:Drivers/lvgl/src/widgets/lv_dropdown.c ****     if((insert_pos > 0) && (pos >= dropdown->option_cnt))
 239:Drivers/lvgl/src/widgets/lv_dropdown.c ****         _lv_txt_ins(dropdown->options, _lv_txt_encoded_get_char_id(dropdown->options, insert_pos++)
 240:Drivers/lvgl/src/widgets/lv_dropdown.c **** 
 241:Drivers/lvgl/src/widgets/lv_dropdown.c ****     /*Insert the new option, adding \n if necessary*/
 242:Drivers/lvgl/src/widgets/lv_dropdown.c ****     char * ins_buf = lv_mem_buf_get(ins_len + 2); /*+ 2 for terminating NULL and possible \n*/
 243:Drivers/lvgl/src/widgets/lv_dropdown.c ****     LV_ASSERT_MALLOC(ins_buf);
 244:Drivers/lvgl/src/widgets/lv_dropdown.c ****     if(ins_buf == NULL) return;
 245:Drivers/lvgl/src/widgets/lv_dropdown.c **** #if LV_USE_ARABIC_PERSIAN_CHARS == 0
 246:Drivers/lvgl/src/widgets/lv_dropdown.c ****     strcpy(ins_buf, option);
 247:Drivers/lvgl/src/widgets/lv_dropdown.c **** #else
 248:Drivers/lvgl/src/widgets/lv_dropdown.c ****     _lv_txt_ap_proc(option, ins_buf);
 249:Drivers/lvgl/src/widgets/lv_dropdown.c **** #endif
 250:Drivers/lvgl/src/widgets/lv_dropdown.c ****     if(pos < dropdown->option_cnt) strcat(ins_buf, "\n");
 251:Drivers/lvgl/src/widgets/lv_dropdown.c **** 
 252:Drivers/lvgl/src/widgets/lv_dropdown.c ****     _lv_txt_ins(dropdown->options, _lv_txt_encoded_get_char_id(dropdown->options, insert_pos), ins_
 253:Drivers/lvgl/src/widgets/lv_dropdown.c ****     lv_mem_buf_release(ins_buf);
 254:Drivers/lvgl/src/widgets/lv_dropdown.c **** 
 255:Drivers/lvgl/src/widgets/lv_dropdown.c ****     dropdown->option_cnt++;
 256:Drivers/lvgl/src/widgets/lv_dropdown.c **** 
 257:Drivers/lvgl/src/widgets/lv_dropdown.c ****     lv_obj_invalidate(obj);
 258:Drivers/lvgl/src/widgets/lv_dropdown.c ****     if(dropdown->list) lv_obj_invalidate(dropdown->list);
ARM GAS  /var/folders/lp/x54gwt890xv47sdkqj1k04q40000gn/T//cczFasrC.s 			page 6


 259:Drivers/lvgl/src/widgets/lv_dropdown.c **** }
 260:Drivers/lvgl/src/widgets/lv_dropdown.c **** 
 261:Drivers/lvgl/src/widgets/lv_dropdown.c **** void lv_dropdown_clear_options(lv_obj_t * obj)
 262:Drivers/lvgl/src/widgets/lv_dropdown.c **** {
 263:Drivers/lvgl/src/widgets/lv_dropdown.c ****     LV_ASSERT_OBJ(obj, MY_CLASS);
 264:Drivers/lvgl/src/widgets/lv_dropdown.c ****     lv_dropdown_t * dropdown = (lv_dropdown_t *)obj;
 265:Drivers/lvgl/src/widgets/lv_dropdown.c ****     if(dropdown->options == NULL) return;
 266:Drivers/lvgl/src/widgets/lv_dropdown.c **** 
 267:Drivers/lvgl/src/widgets/lv_dropdown.c ****     if(dropdown->static_txt == 0)
 268:Drivers/lvgl/src/widgets/lv_dropdown.c ****         lv_mem_free(dropdown->options);
 269:Drivers/lvgl/src/widgets/lv_dropdown.c **** 
 270:Drivers/lvgl/src/widgets/lv_dropdown.c ****     dropdown->options = NULL;
 271:Drivers/lvgl/src/widgets/lv_dropdown.c ****     dropdown->static_txt = 0;
 272:Drivers/lvgl/src/widgets/lv_dropdown.c ****     dropdown->option_cnt = 0;
 273:Drivers/lvgl/src/widgets/lv_dropdown.c **** 
 274:Drivers/lvgl/src/widgets/lv_dropdown.c ****     lv_obj_invalidate(obj);
 275:Drivers/lvgl/src/widgets/lv_dropdown.c ****     if(dropdown->list) lv_obj_invalidate(dropdown->list);
 276:Drivers/lvgl/src/widgets/lv_dropdown.c **** }
 277:Drivers/lvgl/src/widgets/lv_dropdown.c **** 
 278:Drivers/lvgl/src/widgets/lv_dropdown.c **** void lv_dropdown_set_selected(lv_obj_t * obj, uint16_t sel_opt)
 279:Drivers/lvgl/src/widgets/lv_dropdown.c **** {
 280:Drivers/lvgl/src/widgets/lv_dropdown.c ****     LV_ASSERT_OBJ(obj, MY_CLASS);
 281:Drivers/lvgl/src/widgets/lv_dropdown.c **** 
 282:Drivers/lvgl/src/widgets/lv_dropdown.c ****     lv_dropdown_t * dropdown = (lv_dropdown_t *)obj;
 283:Drivers/lvgl/src/widgets/lv_dropdown.c ****     if(dropdown->sel_opt_id == sel_opt) return;
 284:Drivers/lvgl/src/widgets/lv_dropdown.c **** 
 285:Drivers/lvgl/src/widgets/lv_dropdown.c ****     dropdown->sel_opt_id      = sel_opt < dropdown->option_cnt ? sel_opt : dropdown->option_cnt - 1
 286:Drivers/lvgl/src/widgets/lv_dropdown.c ****     dropdown->sel_opt_id_orig = dropdown->sel_opt_id;
 287:Drivers/lvgl/src/widgets/lv_dropdown.c **** 
 288:Drivers/lvgl/src/widgets/lv_dropdown.c ****     if(dropdown->list) {
 289:Drivers/lvgl/src/widgets/lv_dropdown.c ****         position_to_selected(obj);
 290:Drivers/lvgl/src/widgets/lv_dropdown.c ****     }
 291:Drivers/lvgl/src/widgets/lv_dropdown.c **** 
 292:Drivers/lvgl/src/widgets/lv_dropdown.c ****     lv_obj_invalidate(obj);
 293:Drivers/lvgl/src/widgets/lv_dropdown.c **** }
 294:Drivers/lvgl/src/widgets/lv_dropdown.c **** 
 295:Drivers/lvgl/src/widgets/lv_dropdown.c **** void lv_dropdown_set_dir(lv_obj_t * obj, lv_dir_t dir)
 296:Drivers/lvgl/src/widgets/lv_dropdown.c **** {
 297:Drivers/lvgl/src/widgets/lv_dropdown.c ****     LV_ASSERT_OBJ(obj, MY_CLASS);
 298:Drivers/lvgl/src/widgets/lv_dropdown.c **** 
 299:Drivers/lvgl/src/widgets/lv_dropdown.c ****     lv_dropdown_t * dropdown = (lv_dropdown_t *)obj;
 300:Drivers/lvgl/src/widgets/lv_dropdown.c ****     if(dropdown->dir == dir) return;
 301:Drivers/lvgl/src/widgets/lv_dropdown.c **** 
 302:Drivers/lvgl/src/widgets/lv_dropdown.c ****     dropdown->dir = dir;
 303:Drivers/lvgl/src/widgets/lv_dropdown.c **** 
 304:Drivers/lvgl/src/widgets/lv_dropdown.c ****     lv_obj_invalidate(obj);
 305:Drivers/lvgl/src/widgets/lv_dropdown.c **** }
 306:Drivers/lvgl/src/widgets/lv_dropdown.c **** 
 307:Drivers/lvgl/src/widgets/lv_dropdown.c **** void lv_dropdown_set_symbol(lv_obj_t * obj, const void * symbol)
 308:Drivers/lvgl/src/widgets/lv_dropdown.c **** {
 309:Drivers/lvgl/src/widgets/lv_dropdown.c ****     LV_ASSERT_OBJ(obj, MY_CLASS);
 310:Drivers/lvgl/src/widgets/lv_dropdown.c **** 
 311:Drivers/lvgl/src/widgets/lv_dropdown.c ****     lv_dropdown_t * dropdown = (lv_dropdown_t *)obj;
 312:Drivers/lvgl/src/widgets/lv_dropdown.c ****     dropdown->symbol = symbol;
 313:Drivers/lvgl/src/widgets/lv_dropdown.c ****     lv_obj_invalidate(obj);
 314:Drivers/lvgl/src/widgets/lv_dropdown.c **** }
 315:Drivers/lvgl/src/widgets/lv_dropdown.c **** 
ARM GAS  /var/folders/lp/x54gwt890xv47sdkqj1k04q40000gn/T//cczFasrC.s 			page 7


 316:Drivers/lvgl/src/widgets/lv_dropdown.c **** void lv_dropdown_set_selected_highlight(lv_obj_t * obj, bool en)
 317:Drivers/lvgl/src/widgets/lv_dropdown.c **** {
 318:Drivers/lvgl/src/widgets/lv_dropdown.c ****     LV_ASSERT_OBJ(obj, MY_CLASS);
 319:Drivers/lvgl/src/widgets/lv_dropdown.c **** 
 320:Drivers/lvgl/src/widgets/lv_dropdown.c ****     lv_dropdown_t * dropdown = (lv_dropdown_t *)obj;
 321:Drivers/lvgl/src/widgets/lv_dropdown.c ****     dropdown->selected_highlight = en;
 322:Drivers/lvgl/src/widgets/lv_dropdown.c ****     if(dropdown->list) lv_obj_invalidate(dropdown->list);
 323:Drivers/lvgl/src/widgets/lv_dropdown.c **** }
 324:Drivers/lvgl/src/widgets/lv_dropdown.c **** 
 325:Drivers/lvgl/src/widgets/lv_dropdown.c **** /*=====================
 326:Drivers/lvgl/src/widgets/lv_dropdown.c ****  * Getter functions
 327:Drivers/lvgl/src/widgets/lv_dropdown.c ****  *====================*/
 328:Drivers/lvgl/src/widgets/lv_dropdown.c **** 
 329:Drivers/lvgl/src/widgets/lv_dropdown.c **** lv_obj_t * lv_dropdown_get_list(lv_obj_t * obj)
 330:Drivers/lvgl/src/widgets/lv_dropdown.c **** {
 331:Drivers/lvgl/src/widgets/lv_dropdown.c ****     LV_ASSERT_OBJ(obj, MY_CLASS);
 332:Drivers/lvgl/src/widgets/lv_dropdown.c ****     lv_dropdown_t * dropdown = (lv_dropdown_t *)obj;
 333:Drivers/lvgl/src/widgets/lv_dropdown.c **** 
 334:Drivers/lvgl/src/widgets/lv_dropdown.c ****     return dropdown->list;
 335:Drivers/lvgl/src/widgets/lv_dropdown.c **** }
 336:Drivers/lvgl/src/widgets/lv_dropdown.c **** 
 337:Drivers/lvgl/src/widgets/lv_dropdown.c **** const char * lv_dropdown_get_text(lv_obj_t * obj)
 338:Drivers/lvgl/src/widgets/lv_dropdown.c **** {
 339:Drivers/lvgl/src/widgets/lv_dropdown.c ****     LV_ASSERT_OBJ(obj, MY_CLASS);
 340:Drivers/lvgl/src/widgets/lv_dropdown.c ****     lv_dropdown_t * dropdown = (lv_dropdown_t *)obj;
 341:Drivers/lvgl/src/widgets/lv_dropdown.c **** 
 342:Drivers/lvgl/src/widgets/lv_dropdown.c ****     return dropdown->text;
 343:Drivers/lvgl/src/widgets/lv_dropdown.c **** }
 344:Drivers/lvgl/src/widgets/lv_dropdown.c **** 
 345:Drivers/lvgl/src/widgets/lv_dropdown.c **** const char * lv_dropdown_get_options(const lv_obj_t * obj)
 346:Drivers/lvgl/src/widgets/lv_dropdown.c **** {
 347:Drivers/lvgl/src/widgets/lv_dropdown.c ****     LV_ASSERT_OBJ(obj, MY_CLASS);
 348:Drivers/lvgl/src/widgets/lv_dropdown.c **** 
 349:Drivers/lvgl/src/widgets/lv_dropdown.c ****     lv_dropdown_t * dropdown = (lv_dropdown_t *)obj;
 350:Drivers/lvgl/src/widgets/lv_dropdown.c ****     return dropdown->options == NULL ? "" : dropdown->options;
 351:Drivers/lvgl/src/widgets/lv_dropdown.c **** }
 352:Drivers/lvgl/src/widgets/lv_dropdown.c **** 
 353:Drivers/lvgl/src/widgets/lv_dropdown.c **** uint16_t lv_dropdown_get_selected(const lv_obj_t * obj)
 354:Drivers/lvgl/src/widgets/lv_dropdown.c **** {
 355:Drivers/lvgl/src/widgets/lv_dropdown.c ****     LV_ASSERT_OBJ(obj, MY_CLASS);
 356:Drivers/lvgl/src/widgets/lv_dropdown.c **** 
 357:Drivers/lvgl/src/widgets/lv_dropdown.c ****     lv_dropdown_t * dropdown = (lv_dropdown_t *)obj;
 358:Drivers/lvgl/src/widgets/lv_dropdown.c **** 
 359:Drivers/lvgl/src/widgets/lv_dropdown.c ****     return dropdown->sel_opt_id;
 360:Drivers/lvgl/src/widgets/lv_dropdown.c **** }
 361:Drivers/lvgl/src/widgets/lv_dropdown.c **** 
 362:Drivers/lvgl/src/widgets/lv_dropdown.c **** uint16_t lv_dropdown_get_option_cnt(const lv_obj_t * obj)
 363:Drivers/lvgl/src/widgets/lv_dropdown.c **** {
 364:Drivers/lvgl/src/widgets/lv_dropdown.c ****     LV_ASSERT_OBJ(obj, MY_CLASS);
 365:Drivers/lvgl/src/widgets/lv_dropdown.c **** 
 366:Drivers/lvgl/src/widgets/lv_dropdown.c ****     lv_dropdown_t * dropdown = (lv_dropdown_t *)obj;
 367:Drivers/lvgl/src/widgets/lv_dropdown.c **** 
 368:Drivers/lvgl/src/widgets/lv_dropdown.c ****     return dropdown->option_cnt;
 369:Drivers/lvgl/src/widgets/lv_dropdown.c **** }
 370:Drivers/lvgl/src/widgets/lv_dropdown.c **** 
 371:Drivers/lvgl/src/widgets/lv_dropdown.c **** void lv_dropdown_get_selected_str(const lv_obj_t * obj, char * buf, uint32_t buf_size)
 372:Drivers/lvgl/src/widgets/lv_dropdown.c **** {
ARM GAS  /var/folders/lp/x54gwt890xv47sdkqj1k04q40000gn/T//cczFasrC.s 			page 8


 373:Drivers/lvgl/src/widgets/lv_dropdown.c ****     LV_ASSERT_OBJ(obj, MY_CLASS);
 374:Drivers/lvgl/src/widgets/lv_dropdown.c **** 
 375:Drivers/lvgl/src/widgets/lv_dropdown.c ****     lv_dropdown_t * dropdown = (lv_dropdown_t *)obj;
 376:Drivers/lvgl/src/widgets/lv_dropdown.c **** 
 377:Drivers/lvgl/src/widgets/lv_dropdown.c ****     uint32_t i;
 378:Drivers/lvgl/src/widgets/lv_dropdown.c ****     uint32_t line        = 0;
 379:Drivers/lvgl/src/widgets/lv_dropdown.c ****     size_t txt_len;
 380:Drivers/lvgl/src/widgets/lv_dropdown.c **** 
 381:Drivers/lvgl/src/widgets/lv_dropdown.c ****     if(dropdown->options)  {
 382:Drivers/lvgl/src/widgets/lv_dropdown.c ****         txt_len     = strlen(dropdown->options);
 383:Drivers/lvgl/src/widgets/lv_dropdown.c ****     }
 384:Drivers/lvgl/src/widgets/lv_dropdown.c ****     else {
 385:Drivers/lvgl/src/widgets/lv_dropdown.c ****         buf[0] = '\0';
 386:Drivers/lvgl/src/widgets/lv_dropdown.c ****         return;
 387:Drivers/lvgl/src/widgets/lv_dropdown.c ****     }
 388:Drivers/lvgl/src/widgets/lv_dropdown.c **** 
 389:Drivers/lvgl/src/widgets/lv_dropdown.c ****     for(i = 0; i < txt_len && line != dropdown->sel_opt_id_orig; i++) {
 390:Drivers/lvgl/src/widgets/lv_dropdown.c ****         if(dropdown->options[i] == '\n') line++;
 391:Drivers/lvgl/src/widgets/lv_dropdown.c ****     }
 392:Drivers/lvgl/src/widgets/lv_dropdown.c **** 
 393:Drivers/lvgl/src/widgets/lv_dropdown.c ****     uint32_t c;
 394:Drivers/lvgl/src/widgets/lv_dropdown.c ****     for(c = 0; i < txt_len && dropdown->options[i] != '\n'; c++, i++) {
 395:Drivers/lvgl/src/widgets/lv_dropdown.c ****         if(buf_size && c >= buf_size - 1) {
 396:Drivers/lvgl/src/widgets/lv_dropdown.c ****             LV_LOG_WARN("lv_dropdown_get_selected_str: the buffer was too small");
 397:Drivers/lvgl/src/widgets/lv_dropdown.c ****             break;
 398:Drivers/lvgl/src/widgets/lv_dropdown.c ****         }
 399:Drivers/lvgl/src/widgets/lv_dropdown.c ****         buf[c] = dropdown->options[i];
 400:Drivers/lvgl/src/widgets/lv_dropdown.c ****     }
 401:Drivers/lvgl/src/widgets/lv_dropdown.c **** 
 402:Drivers/lvgl/src/widgets/lv_dropdown.c ****     buf[c] = '\0';
 403:Drivers/lvgl/src/widgets/lv_dropdown.c **** }
 404:Drivers/lvgl/src/widgets/lv_dropdown.c **** 
 405:Drivers/lvgl/src/widgets/lv_dropdown.c **** int32_t lv_dropdown_get_option_index(lv_obj_t * obj, const char * option)
 406:Drivers/lvgl/src/widgets/lv_dropdown.c **** {
 407:Drivers/lvgl/src/widgets/lv_dropdown.c ****     const char * opts = lv_dropdown_get_options(obj);
 408:Drivers/lvgl/src/widgets/lv_dropdown.c ****     uint32_t char_i = 0;
 409:Drivers/lvgl/src/widgets/lv_dropdown.c ****     uint32_t opt_i = 0;
 410:Drivers/lvgl/src/widgets/lv_dropdown.c ****     uint32_t option_len = strlen(option);
 411:Drivers/lvgl/src/widgets/lv_dropdown.c ****     const char * start = opts;
 412:Drivers/lvgl/src/widgets/lv_dropdown.c **** 
 413:Drivers/lvgl/src/widgets/lv_dropdown.c ****     while(start[char_i] != '\0') {
 414:Drivers/lvgl/src/widgets/lv_dropdown.c ****         for(char_i = 0; (start[char_i] != '\n') && (start[char_i] != '\0'); char_i++);
 415:Drivers/lvgl/src/widgets/lv_dropdown.c **** 
 416:Drivers/lvgl/src/widgets/lv_dropdown.c ****         if(option_len == char_i && memcmp(start, option, LV_MIN(option_len, char_i)) == 0) {
 417:Drivers/lvgl/src/widgets/lv_dropdown.c ****             return opt_i;
 418:Drivers/lvgl/src/widgets/lv_dropdown.c ****         }
 419:Drivers/lvgl/src/widgets/lv_dropdown.c **** 
 420:Drivers/lvgl/src/widgets/lv_dropdown.c ****         start = &start[char_i];
 421:Drivers/lvgl/src/widgets/lv_dropdown.c ****         if(start[0] == '\n') start++;
 422:Drivers/lvgl/src/widgets/lv_dropdown.c ****         char_i = 0;
 423:Drivers/lvgl/src/widgets/lv_dropdown.c ****         opt_i++;
 424:Drivers/lvgl/src/widgets/lv_dropdown.c ****     }
 425:Drivers/lvgl/src/widgets/lv_dropdown.c **** 
 426:Drivers/lvgl/src/widgets/lv_dropdown.c ****     return -1;
 427:Drivers/lvgl/src/widgets/lv_dropdown.c **** }
 428:Drivers/lvgl/src/widgets/lv_dropdown.c **** 
 429:Drivers/lvgl/src/widgets/lv_dropdown.c **** 
ARM GAS  /var/folders/lp/x54gwt890xv47sdkqj1k04q40000gn/T//cczFasrC.s 			page 9


 430:Drivers/lvgl/src/widgets/lv_dropdown.c **** const char * lv_dropdown_get_symbol(lv_obj_t * obj)
 431:Drivers/lvgl/src/widgets/lv_dropdown.c **** {
 432:Drivers/lvgl/src/widgets/lv_dropdown.c ****     LV_ASSERT_OBJ(obj, MY_CLASS);
 433:Drivers/lvgl/src/widgets/lv_dropdown.c ****     lv_dropdown_t * dropdown = (lv_dropdown_t *)obj;
 434:Drivers/lvgl/src/widgets/lv_dropdown.c ****     return dropdown->symbol;
 435:Drivers/lvgl/src/widgets/lv_dropdown.c **** }
 436:Drivers/lvgl/src/widgets/lv_dropdown.c **** 
 437:Drivers/lvgl/src/widgets/lv_dropdown.c **** bool lv_dropdown_get_selected_highlight(lv_obj_t * obj)
 438:Drivers/lvgl/src/widgets/lv_dropdown.c **** {
 439:Drivers/lvgl/src/widgets/lv_dropdown.c ****     LV_ASSERT_OBJ(obj, MY_CLASS);
 440:Drivers/lvgl/src/widgets/lv_dropdown.c ****     lv_dropdown_t * dropdown = (lv_dropdown_t *)obj;
 441:Drivers/lvgl/src/widgets/lv_dropdown.c ****     return dropdown->selected_highlight;
 442:Drivers/lvgl/src/widgets/lv_dropdown.c **** }
 443:Drivers/lvgl/src/widgets/lv_dropdown.c **** 
 444:Drivers/lvgl/src/widgets/lv_dropdown.c **** lv_dir_t lv_dropdown_get_dir(const lv_obj_t * obj)
 445:Drivers/lvgl/src/widgets/lv_dropdown.c **** {
 446:Drivers/lvgl/src/widgets/lv_dropdown.c ****     LV_ASSERT_OBJ(obj, MY_CLASS);
 447:Drivers/lvgl/src/widgets/lv_dropdown.c ****     lv_dropdown_t * dropdown = (lv_dropdown_t *)obj;
 448:Drivers/lvgl/src/widgets/lv_dropdown.c ****     return dropdown->dir;
 449:Drivers/lvgl/src/widgets/lv_dropdown.c **** }
 450:Drivers/lvgl/src/widgets/lv_dropdown.c **** 
 451:Drivers/lvgl/src/widgets/lv_dropdown.c **** /*=====================
 452:Drivers/lvgl/src/widgets/lv_dropdown.c ****  * Other functions
 453:Drivers/lvgl/src/widgets/lv_dropdown.c ****  *====================*/
 454:Drivers/lvgl/src/widgets/lv_dropdown.c **** 
 455:Drivers/lvgl/src/widgets/lv_dropdown.c **** void lv_dropdown_open(lv_obj_t * dropdown_obj)
 456:Drivers/lvgl/src/widgets/lv_dropdown.c **** {
 457:Drivers/lvgl/src/widgets/lv_dropdown.c ****     LV_ASSERT_OBJ(dropdown_obj, MY_CLASS);
 458:Drivers/lvgl/src/widgets/lv_dropdown.c **** 
 459:Drivers/lvgl/src/widgets/lv_dropdown.c ****     lv_dropdown_t * dropdown = (lv_dropdown_t *)dropdown_obj;
 460:Drivers/lvgl/src/widgets/lv_dropdown.c **** 
 461:Drivers/lvgl/src/widgets/lv_dropdown.c ****     lv_obj_add_state(dropdown_obj, LV_STATE_CHECKED);
 462:Drivers/lvgl/src/widgets/lv_dropdown.c ****     lv_obj_set_parent(dropdown->list, lv_obj_get_screen(dropdown_obj));
 463:Drivers/lvgl/src/widgets/lv_dropdown.c ****     lv_obj_move_to_index(dropdown->list, -1);
 464:Drivers/lvgl/src/widgets/lv_dropdown.c ****     lv_obj_clear_flag(dropdown->list, LV_OBJ_FLAG_HIDDEN);
 465:Drivers/lvgl/src/widgets/lv_dropdown.c **** 
 466:Drivers/lvgl/src/widgets/lv_dropdown.c ****     /*To allow styling the list*/
 467:Drivers/lvgl/src/widgets/lv_dropdown.c ****     lv_event_send(dropdown_obj, LV_EVENT_READY, NULL);
 468:Drivers/lvgl/src/widgets/lv_dropdown.c **** 
 469:Drivers/lvgl/src/widgets/lv_dropdown.c ****     lv_obj_t * label = get_label(dropdown_obj);
 470:Drivers/lvgl/src/widgets/lv_dropdown.c ****     lv_label_set_text_static(label, dropdown->options);
 471:Drivers/lvgl/src/widgets/lv_dropdown.c ****     lv_obj_set_width(dropdown->list, LV_SIZE_CONTENT);
 472:Drivers/lvgl/src/widgets/lv_dropdown.c **** 
 473:Drivers/lvgl/src/widgets/lv_dropdown.c ****     lv_obj_update_layout(label);
 474:Drivers/lvgl/src/widgets/lv_dropdown.c ****     /*Set smaller width to the width of the button*/
 475:Drivers/lvgl/src/widgets/lv_dropdown.c ****     if(lv_obj_get_width(dropdown->list) <= lv_obj_get_width(dropdown_obj) &&
 476:Drivers/lvgl/src/widgets/lv_dropdown.c ****        (dropdown->dir == LV_DIR_TOP || dropdown->dir == LV_DIR_BOTTOM)) {
 477:Drivers/lvgl/src/widgets/lv_dropdown.c ****         lv_obj_set_width(dropdown->list, lv_obj_get_width(dropdown_obj));
 478:Drivers/lvgl/src/widgets/lv_dropdown.c ****     }
 479:Drivers/lvgl/src/widgets/lv_dropdown.c **** 
 480:Drivers/lvgl/src/widgets/lv_dropdown.c ****     lv_coord_t label_h = lv_obj_get_height(label);
 481:Drivers/lvgl/src/widgets/lv_dropdown.c ****     lv_coord_t border_width = lv_obj_get_style_border_width(dropdown->list, LV_PART_MAIN);
 482:Drivers/lvgl/src/widgets/lv_dropdown.c ****     lv_coord_t top = lv_obj_get_style_pad_top(dropdown->list, LV_PART_MAIN) + border_width;
 483:Drivers/lvgl/src/widgets/lv_dropdown.c ****     lv_coord_t bottom = lv_obj_get_style_pad_bottom(dropdown->list, LV_PART_MAIN) + border_width;
 484:Drivers/lvgl/src/widgets/lv_dropdown.c **** 
 485:Drivers/lvgl/src/widgets/lv_dropdown.c ****     lv_coord_t list_fit_h = label_h + top + bottom;
 486:Drivers/lvgl/src/widgets/lv_dropdown.c ****     lv_coord_t list_h = list_fit_h;
ARM GAS  /var/folders/lp/x54gwt890xv47sdkqj1k04q40000gn/T//cczFasrC.s 			page 10


 487:Drivers/lvgl/src/widgets/lv_dropdown.c **** 
 488:Drivers/lvgl/src/widgets/lv_dropdown.c ****     lv_dir_t dir = dropdown->dir;
 489:Drivers/lvgl/src/widgets/lv_dropdown.c ****     /*No space on the bottom? See if top is better.*/
 490:Drivers/lvgl/src/widgets/lv_dropdown.c ****     if(dropdown->dir == LV_DIR_BOTTOM) {
 491:Drivers/lvgl/src/widgets/lv_dropdown.c ****         if(dropdown_obj->coords.y2 + list_h > LV_VER_RES) {
 492:Drivers/lvgl/src/widgets/lv_dropdown.c ****             if(dropdown_obj->coords.y1 > LV_VER_RES - dropdown_obj->coords.y2) {
 493:Drivers/lvgl/src/widgets/lv_dropdown.c ****                 /*There is more space on the top, so make it drop up*/
 494:Drivers/lvgl/src/widgets/lv_dropdown.c ****                 dir = LV_DIR_TOP;
 495:Drivers/lvgl/src/widgets/lv_dropdown.c ****                 list_h = dropdown_obj->coords.y1 - 1;
 496:Drivers/lvgl/src/widgets/lv_dropdown.c ****             }
 497:Drivers/lvgl/src/widgets/lv_dropdown.c ****             else {
 498:Drivers/lvgl/src/widgets/lv_dropdown.c ****                 list_h = LV_VER_RES - dropdown_obj->coords.y2 - 1 ;
 499:Drivers/lvgl/src/widgets/lv_dropdown.c ****             }
 500:Drivers/lvgl/src/widgets/lv_dropdown.c ****         }
 501:Drivers/lvgl/src/widgets/lv_dropdown.c ****     }
 502:Drivers/lvgl/src/widgets/lv_dropdown.c ****     /*No space on the top? See if bottom is better.*/
 503:Drivers/lvgl/src/widgets/lv_dropdown.c ****     else if(dropdown->dir == LV_DIR_TOP) {
 504:Drivers/lvgl/src/widgets/lv_dropdown.c ****         if(dropdown_obj->coords.y1 - list_h < 0) {
 505:Drivers/lvgl/src/widgets/lv_dropdown.c ****             if(dropdown_obj->coords.y1 < LV_VER_RES - dropdown_obj->coords.y2) {
 506:Drivers/lvgl/src/widgets/lv_dropdown.c ****                 /*There is more space on the top, so make it drop up*/
 507:Drivers/lvgl/src/widgets/lv_dropdown.c ****                 dir = LV_DIR_BOTTOM;
 508:Drivers/lvgl/src/widgets/lv_dropdown.c ****                 list_h = LV_VER_RES - dropdown_obj->coords.y2;
 509:Drivers/lvgl/src/widgets/lv_dropdown.c ****             }
 510:Drivers/lvgl/src/widgets/lv_dropdown.c ****             else {
 511:Drivers/lvgl/src/widgets/lv_dropdown.c ****                 list_h = dropdown_obj->coords.y1;
 512:Drivers/lvgl/src/widgets/lv_dropdown.c ****             }
 513:Drivers/lvgl/src/widgets/lv_dropdown.c ****         }
 514:Drivers/lvgl/src/widgets/lv_dropdown.c ****     }
 515:Drivers/lvgl/src/widgets/lv_dropdown.c **** 
 516:Drivers/lvgl/src/widgets/lv_dropdown.c ****     if(list_h > list_fit_h) list_h = list_fit_h;
 517:Drivers/lvgl/src/widgets/lv_dropdown.c ****     lv_obj_set_height(dropdown->list, list_h);
 518:Drivers/lvgl/src/widgets/lv_dropdown.c **** 
 519:Drivers/lvgl/src/widgets/lv_dropdown.c ****     position_to_selected(dropdown_obj);
 520:Drivers/lvgl/src/widgets/lv_dropdown.c **** 
 521:Drivers/lvgl/src/widgets/lv_dropdown.c ****     if(dir == LV_DIR_BOTTOM)     lv_obj_align_to(dropdown->list, dropdown_obj, LV_ALIGN_OUT_BOTTOM_
 522:Drivers/lvgl/src/widgets/lv_dropdown.c ****     else if(dir == LV_DIR_TOP)   lv_obj_align_to(dropdown->list, dropdown_obj, LV_ALIGN_OUT_TOP_LEF
 523:Drivers/lvgl/src/widgets/lv_dropdown.c ****     else if(dir == LV_DIR_LEFT)  lv_obj_align_to(dropdown->list, dropdown_obj, LV_ALIGN_OUT_LEFT_TO
 524:Drivers/lvgl/src/widgets/lv_dropdown.c ****     else if(dir == LV_DIR_RIGHT) lv_obj_align_to(dropdown->list, dropdown_obj, LV_ALIGN_OUT_RIGHT_T
 525:Drivers/lvgl/src/widgets/lv_dropdown.c **** 
 526:Drivers/lvgl/src/widgets/lv_dropdown.c ****     lv_obj_update_layout(dropdown->list);
 527:Drivers/lvgl/src/widgets/lv_dropdown.c **** 
 528:Drivers/lvgl/src/widgets/lv_dropdown.c ****     if(dropdown->dir == LV_DIR_LEFT || dropdown->dir == LV_DIR_RIGHT) {
 529:Drivers/lvgl/src/widgets/lv_dropdown.c ****         lv_coord_t y1 = lv_obj_get_y(dropdown->list);
 530:Drivers/lvgl/src/widgets/lv_dropdown.c ****         lv_coord_t y2 = lv_obj_get_y2(dropdown->list);
 531:Drivers/lvgl/src/widgets/lv_dropdown.c ****         if(y2 >= LV_VER_RES) {
 532:Drivers/lvgl/src/widgets/lv_dropdown.c ****             lv_obj_set_y(dropdown->list, y1 - (y2 - LV_VER_RES) - 1);
 533:Drivers/lvgl/src/widgets/lv_dropdown.c ****         }
 534:Drivers/lvgl/src/widgets/lv_dropdown.c ****     }
 535:Drivers/lvgl/src/widgets/lv_dropdown.c **** 
 536:Drivers/lvgl/src/widgets/lv_dropdown.c ****     lv_text_align_t align = lv_obj_calculate_style_text_align(label, LV_PART_MAIN, dropdown->option
 537:Drivers/lvgl/src/widgets/lv_dropdown.c **** 
 538:Drivers/lvgl/src/widgets/lv_dropdown.c ****     switch(align) {
 539:Drivers/lvgl/src/widgets/lv_dropdown.c ****         default:
 540:Drivers/lvgl/src/widgets/lv_dropdown.c ****         case LV_TEXT_ALIGN_LEFT:
 541:Drivers/lvgl/src/widgets/lv_dropdown.c ****             lv_obj_align(label, LV_ALIGN_TOP_LEFT, 0, 0);
 542:Drivers/lvgl/src/widgets/lv_dropdown.c ****             break;
 543:Drivers/lvgl/src/widgets/lv_dropdown.c ****         case LV_TEXT_ALIGN_RIGHT:
ARM GAS  /var/folders/lp/x54gwt890xv47sdkqj1k04q40000gn/T//cczFasrC.s 			page 11


 544:Drivers/lvgl/src/widgets/lv_dropdown.c ****             lv_obj_align(label, LV_ALIGN_TOP_RIGHT, 0, 0);
 545:Drivers/lvgl/src/widgets/lv_dropdown.c ****             break;
 546:Drivers/lvgl/src/widgets/lv_dropdown.c ****         case LV_TEXT_ALIGN_CENTER:
 547:Drivers/lvgl/src/widgets/lv_dropdown.c ****             lv_obj_align(label, LV_ALIGN_TOP_MID, 0, 0);
 548:Drivers/lvgl/src/widgets/lv_dropdown.c ****             break;
 549:Drivers/lvgl/src/widgets/lv_dropdown.c **** 
 550:Drivers/lvgl/src/widgets/lv_dropdown.c ****     }
 551:Drivers/lvgl/src/widgets/lv_dropdown.c **** }
 552:Drivers/lvgl/src/widgets/lv_dropdown.c **** 
 553:Drivers/lvgl/src/widgets/lv_dropdown.c **** void lv_dropdown_close(lv_obj_t * obj)
 554:Drivers/lvgl/src/widgets/lv_dropdown.c **** {
 555:Drivers/lvgl/src/widgets/lv_dropdown.c ****     LV_ASSERT_OBJ(obj, MY_CLASS);
 556:Drivers/lvgl/src/widgets/lv_dropdown.c **** 
 557:Drivers/lvgl/src/widgets/lv_dropdown.c ****     lv_obj_clear_state(obj, LV_STATE_CHECKED);
 558:Drivers/lvgl/src/widgets/lv_dropdown.c ****     lv_dropdown_t * dropdown = (lv_dropdown_t *)obj;
 559:Drivers/lvgl/src/widgets/lv_dropdown.c **** 
 560:Drivers/lvgl/src/widgets/lv_dropdown.c ****     dropdown->pr_opt_id = LV_DROPDOWN_PR_NONE;
 561:Drivers/lvgl/src/widgets/lv_dropdown.c ****     lv_obj_add_flag(dropdown->list, LV_OBJ_FLAG_HIDDEN);
 562:Drivers/lvgl/src/widgets/lv_dropdown.c **** 
 563:Drivers/lvgl/src/widgets/lv_dropdown.c ****     lv_event_send(obj, LV_EVENT_CANCEL, NULL);
 564:Drivers/lvgl/src/widgets/lv_dropdown.c **** }
 565:Drivers/lvgl/src/widgets/lv_dropdown.c **** 
 566:Drivers/lvgl/src/widgets/lv_dropdown.c **** bool lv_dropdown_is_open(lv_obj_t * obj)
 567:Drivers/lvgl/src/widgets/lv_dropdown.c **** {
 568:Drivers/lvgl/src/widgets/lv_dropdown.c ****     LV_ASSERT_OBJ(obj, MY_CLASS);
 569:Drivers/lvgl/src/widgets/lv_dropdown.c ****     lv_dropdown_t * dropdown = (lv_dropdown_t *)obj;
 570:Drivers/lvgl/src/widgets/lv_dropdown.c **** 
 571:Drivers/lvgl/src/widgets/lv_dropdown.c ****     return lv_obj_has_flag(dropdown->list, LV_OBJ_FLAG_HIDDEN) ? false : true;
 572:Drivers/lvgl/src/widgets/lv_dropdown.c **** }
 573:Drivers/lvgl/src/widgets/lv_dropdown.c **** 
 574:Drivers/lvgl/src/widgets/lv_dropdown.c **** /**********************
 575:Drivers/lvgl/src/widgets/lv_dropdown.c ****  *   STATIC FUNCTIONS
 576:Drivers/lvgl/src/widgets/lv_dropdown.c ****  **********************/
 577:Drivers/lvgl/src/widgets/lv_dropdown.c **** 
 578:Drivers/lvgl/src/widgets/lv_dropdown.c **** static lv_obj_t * lv_dropdown_list_create(lv_obj_t * parent)
 579:Drivers/lvgl/src/widgets/lv_dropdown.c **** {
 580:Drivers/lvgl/src/widgets/lv_dropdown.c ****     LV_LOG_INFO("begin");
 581:Drivers/lvgl/src/widgets/lv_dropdown.c ****     lv_obj_t * obj = lv_obj_class_create_obj(&lv_dropdownlist_class, parent);
 582:Drivers/lvgl/src/widgets/lv_dropdown.c ****     lv_obj_class_init_obj(obj);
 583:Drivers/lvgl/src/widgets/lv_dropdown.c ****     return obj;
 584:Drivers/lvgl/src/widgets/lv_dropdown.c **** }
 585:Drivers/lvgl/src/widgets/lv_dropdown.c **** 
 586:Drivers/lvgl/src/widgets/lv_dropdown.c **** static void lv_dropdown_constructor(const lv_obj_class_t * class_p, lv_obj_t * obj)
 587:Drivers/lvgl/src/widgets/lv_dropdown.c **** {
 588:Drivers/lvgl/src/widgets/lv_dropdown.c ****     LV_UNUSED(class_p);
 589:Drivers/lvgl/src/widgets/lv_dropdown.c ****     LV_TRACE_OBJ_CREATE("begin");
 590:Drivers/lvgl/src/widgets/lv_dropdown.c **** 
 591:Drivers/lvgl/src/widgets/lv_dropdown.c ****     lv_dropdown_t * dropdown = (lv_dropdown_t *)obj;
 592:Drivers/lvgl/src/widgets/lv_dropdown.c **** 
 593:Drivers/lvgl/src/widgets/lv_dropdown.c ****     /*Initialize the allocated 'ext'*/
 594:Drivers/lvgl/src/widgets/lv_dropdown.c ****     dropdown->list          = NULL;
 595:Drivers/lvgl/src/widgets/lv_dropdown.c ****     dropdown->options     = NULL;
 596:Drivers/lvgl/src/widgets/lv_dropdown.c ****     dropdown->symbol         = LV_SYMBOL_DOWN;
 597:Drivers/lvgl/src/widgets/lv_dropdown.c ****     dropdown->text         = NULL;
 598:Drivers/lvgl/src/widgets/lv_dropdown.c ****     dropdown->static_txt = 1;
 599:Drivers/lvgl/src/widgets/lv_dropdown.c ****     dropdown->selected_highlight = 1;
 600:Drivers/lvgl/src/widgets/lv_dropdown.c ****     dropdown->sel_opt_id      = 0;
ARM GAS  /var/folders/lp/x54gwt890xv47sdkqj1k04q40000gn/T//cczFasrC.s 			page 12


 601:Drivers/lvgl/src/widgets/lv_dropdown.c ****     dropdown->sel_opt_id_orig = 0;
 602:Drivers/lvgl/src/widgets/lv_dropdown.c ****     dropdown->pr_opt_id = LV_DROPDOWN_PR_NONE;
 603:Drivers/lvgl/src/widgets/lv_dropdown.c ****     dropdown->option_cnt      = 0;
 604:Drivers/lvgl/src/widgets/lv_dropdown.c ****     dropdown->dir = LV_DIR_BOTTOM;
 605:Drivers/lvgl/src/widgets/lv_dropdown.c **** 
 606:Drivers/lvgl/src/widgets/lv_dropdown.c ****     lv_obj_add_flag(obj, LV_OBJ_FLAG_SCROLL_ON_FOCUS);
 607:Drivers/lvgl/src/widgets/lv_dropdown.c ****     lv_dropdown_set_options_static(obj, "Option 1\nOption 2\nOption 3");
 608:Drivers/lvgl/src/widgets/lv_dropdown.c **** 
 609:Drivers/lvgl/src/widgets/lv_dropdown.c ****     dropdown->list = lv_dropdown_list_create(lv_obj_get_screen(obj));
 610:Drivers/lvgl/src/widgets/lv_dropdown.c ****     lv_dropdown_list_t * list = (lv_dropdown_list_t *)dropdown->list;
 611:Drivers/lvgl/src/widgets/lv_dropdown.c ****     list->dropdown = obj;
 612:Drivers/lvgl/src/widgets/lv_dropdown.c **** 
 613:Drivers/lvgl/src/widgets/lv_dropdown.c ****     LV_TRACE_OBJ_CREATE("finished");
 614:Drivers/lvgl/src/widgets/lv_dropdown.c **** }
 615:Drivers/lvgl/src/widgets/lv_dropdown.c **** 
 616:Drivers/lvgl/src/widgets/lv_dropdown.c **** static void lv_dropdown_destructor(const lv_obj_class_t * class_p, lv_obj_t * obj)
 617:Drivers/lvgl/src/widgets/lv_dropdown.c **** {
 618:Drivers/lvgl/src/widgets/lv_dropdown.c ****     LV_UNUSED(class_p);
 619:Drivers/lvgl/src/widgets/lv_dropdown.c ****     lv_dropdown_t * dropdown = (lv_dropdown_t *)obj;
 620:Drivers/lvgl/src/widgets/lv_dropdown.c **** 
 621:Drivers/lvgl/src/widgets/lv_dropdown.c ****     if(dropdown->list) {
 622:Drivers/lvgl/src/widgets/lv_dropdown.c ****         lv_obj_del(dropdown->list);
 623:Drivers/lvgl/src/widgets/lv_dropdown.c ****         dropdown->list = NULL;
 624:Drivers/lvgl/src/widgets/lv_dropdown.c ****     }
 625:Drivers/lvgl/src/widgets/lv_dropdown.c **** 
 626:Drivers/lvgl/src/widgets/lv_dropdown.c ****     if(!dropdown->static_txt) {
 627:Drivers/lvgl/src/widgets/lv_dropdown.c ****         lv_mem_free(dropdown->options);
 628:Drivers/lvgl/src/widgets/lv_dropdown.c ****         dropdown->options = NULL;
 629:Drivers/lvgl/src/widgets/lv_dropdown.c ****     }
 630:Drivers/lvgl/src/widgets/lv_dropdown.c **** }
 631:Drivers/lvgl/src/widgets/lv_dropdown.c **** 
 632:Drivers/lvgl/src/widgets/lv_dropdown.c **** static void lv_dropdownlist_constructor(const lv_obj_class_t * class_p, lv_obj_t * obj)
 633:Drivers/lvgl/src/widgets/lv_dropdown.c **** {
 634:Drivers/lvgl/src/widgets/lv_dropdown.c ****     LV_UNUSED(class_p);
 635:Drivers/lvgl/src/widgets/lv_dropdown.c ****     LV_TRACE_OBJ_CREATE("begin");
 636:Drivers/lvgl/src/widgets/lv_dropdown.c **** 
 637:Drivers/lvgl/src/widgets/lv_dropdown.c ****     lv_obj_clear_flag(obj, LV_OBJ_FLAG_SCROLL_ON_FOCUS);
 638:Drivers/lvgl/src/widgets/lv_dropdown.c ****     lv_obj_clear_flag(obj, LV_OBJ_FLAG_CLICK_FOCUSABLE);
 639:Drivers/lvgl/src/widgets/lv_dropdown.c ****     lv_obj_add_flag(obj, LV_OBJ_FLAG_IGNORE_LAYOUT);
 640:Drivers/lvgl/src/widgets/lv_dropdown.c ****     lv_obj_add_flag(obj, LV_OBJ_FLAG_HIDDEN);
 641:Drivers/lvgl/src/widgets/lv_dropdown.c **** 
 642:Drivers/lvgl/src/widgets/lv_dropdown.c ****     lv_label_create(obj);
 643:Drivers/lvgl/src/widgets/lv_dropdown.c **** 
 644:Drivers/lvgl/src/widgets/lv_dropdown.c ****     LV_TRACE_OBJ_CREATE("finished");
 645:Drivers/lvgl/src/widgets/lv_dropdown.c **** }
 646:Drivers/lvgl/src/widgets/lv_dropdown.c **** 
 647:Drivers/lvgl/src/widgets/lv_dropdown.c **** static void lv_dropdownlist_destructor(const lv_obj_class_t * class_p, lv_obj_t * list_obj)
 648:Drivers/lvgl/src/widgets/lv_dropdown.c **** {
  29              		.loc 1 648 1 view -0
  30              		.cfi_startproc
  31              		@ args = 0, pretend = 0, frame = 0
  32              		@ frame_needed = 0, uses_anonymous_args = 0
  33              		@ link register save eliminated.
 649:Drivers/lvgl/src/widgets/lv_dropdown.c ****     LV_UNUSED(class_p);
  34              		.loc 1 649 5 view .LVU1
 650:Drivers/lvgl/src/widgets/lv_dropdown.c ****     lv_dropdown_list_t * list = (lv_dropdown_list_t *)list_obj;
  35              		.loc 1 650 5 view .LVU2
ARM GAS  /var/folders/lp/x54gwt890xv47sdkqj1k04q40000gn/T//cczFasrC.s 			page 13


 651:Drivers/lvgl/src/widgets/lv_dropdown.c ****     lv_obj_t * dropdown_obj = list->dropdown;
  36              		.loc 1 651 5 view .LVU3
  37              		.loc 1 651 16 is_stmt 0 view .LVU4
  38 0000 4B6A     		ldr	r3, [r1, #36]
  39              	.LVL1:
 652:Drivers/lvgl/src/widgets/lv_dropdown.c ****     lv_dropdown_t * dropdown = (lv_dropdown_t *)dropdown_obj;
  40              		.loc 1 652 5 is_stmt 1 view .LVU5
 653:Drivers/lvgl/src/widgets/lv_dropdown.c ****     dropdown->list = NULL;
  41              		.loc 1 653 5 view .LVU6
  42              		.loc 1 653 20 is_stmt 0 view .LVU7
  43 0002 0022     		movs	r2, #0
  44 0004 5A62     		str	r2, [r3, #36]
 654:Drivers/lvgl/src/widgets/lv_dropdown.c **** }
  45              		.loc 1 654 1 view .LVU8
  46 0006 7047     		bx	lr
  47              		.cfi_endproc
  48              	.LFE194:
  50              		.section	.text.get_label,"ax",%progbits
  51              		.align	1
  52              		.syntax unified
  53              		.thumb
  54              		.thumb_func
  56              	get_label:
  57              	.LVL2:
  58              	.LFB206:
 655:Drivers/lvgl/src/widgets/lv_dropdown.c **** 
 656:Drivers/lvgl/src/widgets/lv_dropdown.c **** static void lv_dropdown_event(const lv_obj_class_t * class_p, lv_event_t * e)
 657:Drivers/lvgl/src/widgets/lv_dropdown.c **** {
 658:Drivers/lvgl/src/widgets/lv_dropdown.c ****     LV_UNUSED(class_p);
 659:Drivers/lvgl/src/widgets/lv_dropdown.c **** 
 660:Drivers/lvgl/src/widgets/lv_dropdown.c ****     lv_res_t res;
 661:Drivers/lvgl/src/widgets/lv_dropdown.c **** 
 662:Drivers/lvgl/src/widgets/lv_dropdown.c ****     /*Call the ancestor's event handler*/
 663:Drivers/lvgl/src/widgets/lv_dropdown.c ****     res = lv_obj_event_base(MY_CLASS, e);
 664:Drivers/lvgl/src/widgets/lv_dropdown.c ****     if(res != LV_RES_OK) return;
 665:Drivers/lvgl/src/widgets/lv_dropdown.c **** 
 666:Drivers/lvgl/src/widgets/lv_dropdown.c ****     lv_event_code_t code = lv_event_get_code(e);
 667:Drivers/lvgl/src/widgets/lv_dropdown.c ****     lv_obj_t * obj = lv_event_get_target(e);
 668:Drivers/lvgl/src/widgets/lv_dropdown.c ****     lv_dropdown_t * dropdown = (lv_dropdown_t *)obj;
 669:Drivers/lvgl/src/widgets/lv_dropdown.c **** 
 670:Drivers/lvgl/src/widgets/lv_dropdown.c ****     if(code == LV_EVENT_FOCUSED) {
 671:Drivers/lvgl/src/widgets/lv_dropdown.c ****         lv_group_t * g             = lv_obj_get_group(obj);
 672:Drivers/lvgl/src/widgets/lv_dropdown.c ****         bool editing               = lv_group_get_editing(g);
 673:Drivers/lvgl/src/widgets/lv_dropdown.c ****         lv_indev_type_t indev_type = lv_indev_get_type(lv_indev_get_act());
 674:Drivers/lvgl/src/widgets/lv_dropdown.c **** 
 675:Drivers/lvgl/src/widgets/lv_dropdown.c ****         /*Encoders need special handling*/
 676:Drivers/lvgl/src/widgets/lv_dropdown.c ****         if(indev_type == LV_INDEV_TYPE_ENCODER) {
 677:Drivers/lvgl/src/widgets/lv_dropdown.c ****             /*Open the list if editing*/
 678:Drivers/lvgl/src/widgets/lv_dropdown.c ****             if(editing) {
 679:Drivers/lvgl/src/widgets/lv_dropdown.c ****                 lv_dropdown_open(obj);
 680:Drivers/lvgl/src/widgets/lv_dropdown.c ****             }
 681:Drivers/lvgl/src/widgets/lv_dropdown.c ****             /*Close the list if navigating*/
 682:Drivers/lvgl/src/widgets/lv_dropdown.c ****             else {
 683:Drivers/lvgl/src/widgets/lv_dropdown.c ****                 dropdown->sel_opt_id = dropdown->sel_opt_id_orig;
 684:Drivers/lvgl/src/widgets/lv_dropdown.c ****                 lv_dropdown_close(obj);
 685:Drivers/lvgl/src/widgets/lv_dropdown.c ****             }
 686:Drivers/lvgl/src/widgets/lv_dropdown.c ****         }
ARM GAS  /var/folders/lp/x54gwt890xv47sdkqj1k04q40000gn/T//cczFasrC.s 			page 14


 687:Drivers/lvgl/src/widgets/lv_dropdown.c ****     }
 688:Drivers/lvgl/src/widgets/lv_dropdown.c ****     else if(code == LV_EVENT_DEFOCUSED || code == LV_EVENT_LEAVE) {
 689:Drivers/lvgl/src/widgets/lv_dropdown.c ****         lv_dropdown_close(obj);
 690:Drivers/lvgl/src/widgets/lv_dropdown.c ****     }
 691:Drivers/lvgl/src/widgets/lv_dropdown.c ****     else if(code == LV_EVENT_RELEASED) {
 692:Drivers/lvgl/src/widgets/lv_dropdown.c ****         res = btn_release_handler(obj);
 693:Drivers/lvgl/src/widgets/lv_dropdown.c ****         if(res != LV_RES_OK) return;
 694:Drivers/lvgl/src/widgets/lv_dropdown.c ****     }
 695:Drivers/lvgl/src/widgets/lv_dropdown.c ****     else if(code == LV_EVENT_STYLE_CHANGED) {
 696:Drivers/lvgl/src/widgets/lv_dropdown.c ****         lv_obj_refresh_self_size(obj);
 697:Drivers/lvgl/src/widgets/lv_dropdown.c ****     }
 698:Drivers/lvgl/src/widgets/lv_dropdown.c ****     else if(code == LV_EVENT_SIZE_CHANGED) {
 699:Drivers/lvgl/src/widgets/lv_dropdown.c ****         lv_obj_refresh_self_size(obj);
 700:Drivers/lvgl/src/widgets/lv_dropdown.c ****     }
 701:Drivers/lvgl/src/widgets/lv_dropdown.c ****     else if(code == LV_EVENT_GET_SELF_SIZE) {
 702:Drivers/lvgl/src/widgets/lv_dropdown.c ****         lv_point_t * p = lv_event_get_param(e);
 703:Drivers/lvgl/src/widgets/lv_dropdown.c ****         const lv_font_t * font = lv_obj_get_style_text_font(obj, LV_PART_MAIN);
 704:Drivers/lvgl/src/widgets/lv_dropdown.c ****         p->y = lv_font_get_line_height(font);
 705:Drivers/lvgl/src/widgets/lv_dropdown.c ****     }
 706:Drivers/lvgl/src/widgets/lv_dropdown.c ****     else if(code == LV_EVENT_KEY) {
 707:Drivers/lvgl/src/widgets/lv_dropdown.c ****         char c = *((char *)lv_event_get_param(e));
 708:Drivers/lvgl/src/widgets/lv_dropdown.c ****         if(c == LV_KEY_RIGHT || c == LV_KEY_DOWN) {
 709:Drivers/lvgl/src/widgets/lv_dropdown.c ****             if(!lv_dropdown_is_open(obj)) {
 710:Drivers/lvgl/src/widgets/lv_dropdown.c ****                 lv_dropdown_open(obj);
 711:Drivers/lvgl/src/widgets/lv_dropdown.c ****             }
 712:Drivers/lvgl/src/widgets/lv_dropdown.c ****             else if(dropdown->sel_opt_id + 1 < dropdown->option_cnt) {
 713:Drivers/lvgl/src/widgets/lv_dropdown.c ****                 dropdown->sel_opt_id++;
 714:Drivers/lvgl/src/widgets/lv_dropdown.c ****                 position_to_selected(obj);
 715:Drivers/lvgl/src/widgets/lv_dropdown.c ****             }
 716:Drivers/lvgl/src/widgets/lv_dropdown.c ****         }
 717:Drivers/lvgl/src/widgets/lv_dropdown.c ****         else if(c == LV_KEY_LEFT || c == LV_KEY_UP) {
 718:Drivers/lvgl/src/widgets/lv_dropdown.c **** 
 719:Drivers/lvgl/src/widgets/lv_dropdown.c ****             if(!lv_dropdown_is_open(obj)) {
 720:Drivers/lvgl/src/widgets/lv_dropdown.c ****                 lv_dropdown_open(obj);
 721:Drivers/lvgl/src/widgets/lv_dropdown.c ****             }
 722:Drivers/lvgl/src/widgets/lv_dropdown.c ****             else if(dropdown->sel_opt_id > 0) {
 723:Drivers/lvgl/src/widgets/lv_dropdown.c ****                 dropdown->sel_opt_id--;
 724:Drivers/lvgl/src/widgets/lv_dropdown.c ****                 position_to_selected(obj);
 725:Drivers/lvgl/src/widgets/lv_dropdown.c ****             }
 726:Drivers/lvgl/src/widgets/lv_dropdown.c ****         }
 727:Drivers/lvgl/src/widgets/lv_dropdown.c ****         else if(c == LV_KEY_ESC) {
 728:Drivers/lvgl/src/widgets/lv_dropdown.c ****             dropdown->sel_opt_id = dropdown->sel_opt_id_orig;
 729:Drivers/lvgl/src/widgets/lv_dropdown.c ****             lv_dropdown_close(obj);
 730:Drivers/lvgl/src/widgets/lv_dropdown.c ****         }
 731:Drivers/lvgl/src/widgets/lv_dropdown.c ****         else if(c == LV_KEY_ENTER) {
 732:Drivers/lvgl/src/widgets/lv_dropdown.c ****             /* Handle the ENTER key only if it was send by an other object.
 733:Drivers/lvgl/src/widgets/lv_dropdown.c ****              * Do no process it if ENTER is sent by the dropdown because it's handled in LV_EVENT_R
 734:Drivers/lvgl/src/widgets/lv_dropdown.c ****             lv_obj_t * indev_obj = lv_indev_get_obj_act();
 735:Drivers/lvgl/src/widgets/lv_dropdown.c ****             if(indev_obj != obj) {
 736:Drivers/lvgl/src/widgets/lv_dropdown.c ****                 res = btn_release_handler(obj);
 737:Drivers/lvgl/src/widgets/lv_dropdown.c ****                 if(res != LV_RES_OK) return;
 738:Drivers/lvgl/src/widgets/lv_dropdown.c ****             }
 739:Drivers/lvgl/src/widgets/lv_dropdown.c ****         }
 740:Drivers/lvgl/src/widgets/lv_dropdown.c ****     }
 741:Drivers/lvgl/src/widgets/lv_dropdown.c ****     else if(code == LV_EVENT_DRAW_MAIN) {
 742:Drivers/lvgl/src/widgets/lv_dropdown.c ****         draw_main(e);
 743:Drivers/lvgl/src/widgets/lv_dropdown.c ****     }
ARM GAS  /var/folders/lp/x54gwt890xv47sdkqj1k04q40000gn/T//cczFasrC.s 			page 15


 744:Drivers/lvgl/src/widgets/lv_dropdown.c **** }
 745:Drivers/lvgl/src/widgets/lv_dropdown.c **** 
 746:Drivers/lvgl/src/widgets/lv_dropdown.c **** static void lv_dropdown_list_event(const lv_obj_class_t * class_p, lv_event_t * e)
 747:Drivers/lvgl/src/widgets/lv_dropdown.c **** {
 748:Drivers/lvgl/src/widgets/lv_dropdown.c ****     LV_UNUSED(class_p);
 749:Drivers/lvgl/src/widgets/lv_dropdown.c **** 
 750:Drivers/lvgl/src/widgets/lv_dropdown.c ****     lv_res_t res;
 751:Drivers/lvgl/src/widgets/lv_dropdown.c **** 
 752:Drivers/lvgl/src/widgets/lv_dropdown.c ****     /*Call the ancestor's event handler*/
 753:Drivers/lvgl/src/widgets/lv_dropdown.c ****     lv_event_code_t code = lv_event_get_code(e);
 754:Drivers/lvgl/src/widgets/lv_dropdown.c ****     if(code != LV_EVENT_DRAW_POST) {
 755:Drivers/lvgl/src/widgets/lv_dropdown.c ****         res = lv_obj_event_base(MY_CLASS_LIST, e);
 756:Drivers/lvgl/src/widgets/lv_dropdown.c ****         if(res != LV_RES_OK) return;
 757:Drivers/lvgl/src/widgets/lv_dropdown.c ****     }
 758:Drivers/lvgl/src/widgets/lv_dropdown.c ****     lv_obj_t * list = lv_event_get_target(e);
 759:Drivers/lvgl/src/widgets/lv_dropdown.c ****     lv_obj_t * dropdown_obj = ((lv_dropdown_list_t *)list)->dropdown;
 760:Drivers/lvgl/src/widgets/lv_dropdown.c ****     lv_dropdown_t * dropdown = (lv_dropdown_t *)dropdown_obj;
 761:Drivers/lvgl/src/widgets/lv_dropdown.c **** 
 762:Drivers/lvgl/src/widgets/lv_dropdown.c ****     if(code == LV_EVENT_RELEASED) {
 763:Drivers/lvgl/src/widgets/lv_dropdown.c ****         if(lv_indev_get_scroll_obj(lv_indev_get_act()) == NULL) {
 764:Drivers/lvgl/src/widgets/lv_dropdown.c ****             list_release_handler(list);
 765:Drivers/lvgl/src/widgets/lv_dropdown.c ****         }
 766:Drivers/lvgl/src/widgets/lv_dropdown.c ****     }
 767:Drivers/lvgl/src/widgets/lv_dropdown.c ****     else if(code == LV_EVENT_PRESSED) {
 768:Drivers/lvgl/src/widgets/lv_dropdown.c ****         list_press_handler(list);
 769:Drivers/lvgl/src/widgets/lv_dropdown.c ****     }
 770:Drivers/lvgl/src/widgets/lv_dropdown.c ****     else if(code == LV_EVENT_SCROLL_BEGIN) {
 771:Drivers/lvgl/src/widgets/lv_dropdown.c ****         dropdown->pr_opt_id = LV_DROPDOWN_PR_NONE;
 772:Drivers/lvgl/src/widgets/lv_dropdown.c ****         lv_obj_invalidate(list);
 773:Drivers/lvgl/src/widgets/lv_dropdown.c ****     }
 774:Drivers/lvgl/src/widgets/lv_dropdown.c ****     else if(code == LV_EVENT_DRAW_POST) {
 775:Drivers/lvgl/src/widgets/lv_dropdown.c ****         draw_list(e);
 776:Drivers/lvgl/src/widgets/lv_dropdown.c ****         res = lv_obj_event_base(MY_CLASS_LIST, e);
 777:Drivers/lvgl/src/widgets/lv_dropdown.c ****         if(res != LV_RES_OK) return;
 778:Drivers/lvgl/src/widgets/lv_dropdown.c ****     }
 779:Drivers/lvgl/src/widgets/lv_dropdown.c **** }
 780:Drivers/lvgl/src/widgets/lv_dropdown.c **** 
 781:Drivers/lvgl/src/widgets/lv_dropdown.c **** 
 782:Drivers/lvgl/src/widgets/lv_dropdown.c **** static void draw_main(lv_event_t * e)
 783:Drivers/lvgl/src/widgets/lv_dropdown.c **** {
 784:Drivers/lvgl/src/widgets/lv_dropdown.c ****     lv_obj_t * obj = lv_event_get_target(e);
 785:Drivers/lvgl/src/widgets/lv_dropdown.c ****     lv_dropdown_t * dropdown = (lv_dropdown_t *)obj;
 786:Drivers/lvgl/src/widgets/lv_dropdown.c ****     lv_draw_ctx_t * draw_ctx = lv_event_get_draw_ctx(e);
 787:Drivers/lvgl/src/widgets/lv_dropdown.c **** 
 788:Drivers/lvgl/src/widgets/lv_dropdown.c ****     lv_coord_t border_width = lv_obj_get_style_border_width(obj, LV_PART_MAIN);
 789:Drivers/lvgl/src/widgets/lv_dropdown.c ****     lv_coord_t left = lv_obj_get_style_pad_left(obj, LV_PART_MAIN) + border_width;
 790:Drivers/lvgl/src/widgets/lv_dropdown.c ****     lv_coord_t right = lv_obj_get_style_pad_right(obj, LV_PART_MAIN) + border_width;
 791:Drivers/lvgl/src/widgets/lv_dropdown.c ****     lv_coord_t top = lv_obj_get_style_pad_top(obj, LV_PART_MAIN) + border_width;
 792:Drivers/lvgl/src/widgets/lv_dropdown.c **** 
 793:Drivers/lvgl/src/widgets/lv_dropdown.c ****     lv_draw_label_dsc_t symbol_dsc;
 794:Drivers/lvgl/src/widgets/lv_dropdown.c ****     lv_draw_label_dsc_init(&symbol_dsc);
 795:Drivers/lvgl/src/widgets/lv_dropdown.c ****     lv_obj_init_draw_label_dsc(obj, LV_PART_INDICATOR, &symbol_dsc);
 796:Drivers/lvgl/src/widgets/lv_dropdown.c **** 
 797:Drivers/lvgl/src/widgets/lv_dropdown.c ****     /*If no text specified use the selected option*/
 798:Drivers/lvgl/src/widgets/lv_dropdown.c ****     const char * opt_txt;
 799:Drivers/lvgl/src/widgets/lv_dropdown.c ****     if(dropdown->text) opt_txt = dropdown->text;
 800:Drivers/lvgl/src/widgets/lv_dropdown.c ****     else {
ARM GAS  /var/folders/lp/x54gwt890xv47sdkqj1k04q40000gn/T//cczFasrC.s 			page 16


 801:Drivers/lvgl/src/widgets/lv_dropdown.c ****         char * buf = lv_mem_buf_get(128);
 802:Drivers/lvgl/src/widgets/lv_dropdown.c ****         lv_dropdown_get_selected_str(obj, buf, 128);
 803:Drivers/lvgl/src/widgets/lv_dropdown.c ****         opt_txt = buf;
 804:Drivers/lvgl/src/widgets/lv_dropdown.c ****     }
 805:Drivers/lvgl/src/widgets/lv_dropdown.c **** 
 806:Drivers/lvgl/src/widgets/lv_dropdown.c ****     bool symbol_to_left = false;
 807:Drivers/lvgl/src/widgets/lv_dropdown.c ****     if(dropdown->dir == LV_DIR_LEFT) symbol_to_left = true;
 808:Drivers/lvgl/src/widgets/lv_dropdown.c ****     if(lv_obj_get_style_base_dir(obj, LV_PART_MAIN) == LV_BASE_DIR_RTL) symbol_to_left = true;
 809:Drivers/lvgl/src/widgets/lv_dropdown.c **** 
 810:Drivers/lvgl/src/widgets/lv_dropdown.c ****     if(dropdown->symbol) {
 811:Drivers/lvgl/src/widgets/lv_dropdown.c ****         lv_img_src_t symbol_type = lv_img_src_get_type(dropdown->symbol);
 812:Drivers/lvgl/src/widgets/lv_dropdown.c ****         lv_coord_t symbol_w;
 813:Drivers/lvgl/src/widgets/lv_dropdown.c ****         lv_coord_t symbol_h;
 814:Drivers/lvgl/src/widgets/lv_dropdown.c ****         if(symbol_type == LV_IMG_SRC_SYMBOL) {
 815:Drivers/lvgl/src/widgets/lv_dropdown.c ****             lv_point_t size;
 816:Drivers/lvgl/src/widgets/lv_dropdown.c ****             lv_txt_get_size(&size, dropdown->symbol, symbol_dsc.font, symbol_dsc.letter_space, symb
 817:Drivers/lvgl/src/widgets/lv_dropdown.c ****                             symbol_dsc.flag);
 818:Drivers/lvgl/src/widgets/lv_dropdown.c ****             symbol_w = size.x;
 819:Drivers/lvgl/src/widgets/lv_dropdown.c ****             symbol_h = size.y;
 820:Drivers/lvgl/src/widgets/lv_dropdown.c ****         }
 821:Drivers/lvgl/src/widgets/lv_dropdown.c ****         else {
 822:Drivers/lvgl/src/widgets/lv_dropdown.c ****             lv_img_header_t header;
 823:Drivers/lvgl/src/widgets/lv_dropdown.c ****             lv_res_t res = lv_img_decoder_get_info(dropdown->symbol, &header);
 824:Drivers/lvgl/src/widgets/lv_dropdown.c ****             if(res == LV_RES_OK) {
 825:Drivers/lvgl/src/widgets/lv_dropdown.c ****                 symbol_w = header.w;
 826:Drivers/lvgl/src/widgets/lv_dropdown.c ****                 symbol_h = header.h;
 827:Drivers/lvgl/src/widgets/lv_dropdown.c ****             }
 828:Drivers/lvgl/src/widgets/lv_dropdown.c ****             else {
 829:Drivers/lvgl/src/widgets/lv_dropdown.c ****                 symbol_w = -1;
 830:Drivers/lvgl/src/widgets/lv_dropdown.c ****                 symbol_h = -1;
 831:Drivers/lvgl/src/widgets/lv_dropdown.c ****             }
 832:Drivers/lvgl/src/widgets/lv_dropdown.c ****         }
 833:Drivers/lvgl/src/widgets/lv_dropdown.c **** 
 834:Drivers/lvgl/src/widgets/lv_dropdown.c ****         lv_area_t symbol_area;
 835:Drivers/lvgl/src/widgets/lv_dropdown.c ****         if(symbol_to_left) {
 836:Drivers/lvgl/src/widgets/lv_dropdown.c ****             symbol_area.x1 = obj->coords.x1 + left;
 837:Drivers/lvgl/src/widgets/lv_dropdown.c ****             symbol_area.x2 = symbol_area.x1 + symbol_w - 1;
 838:Drivers/lvgl/src/widgets/lv_dropdown.c ****         }
 839:Drivers/lvgl/src/widgets/lv_dropdown.c ****         else {
 840:Drivers/lvgl/src/widgets/lv_dropdown.c ****             symbol_area.x1 = obj->coords.x2 - right - symbol_w;
 841:Drivers/lvgl/src/widgets/lv_dropdown.c ****             symbol_area.x2 = symbol_area.x1 + symbol_w - 1;
 842:Drivers/lvgl/src/widgets/lv_dropdown.c ****         }
 843:Drivers/lvgl/src/widgets/lv_dropdown.c **** 
 844:Drivers/lvgl/src/widgets/lv_dropdown.c ****         if(symbol_type == LV_IMG_SRC_SYMBOL) {
 845:Drivers/lvgl/src/widgets/lv_dropdown.c ****             symbol_area.y1 = obj->coords.y1 + top;
 846:Drivers/lvgl/src/widgets/lv_dropdown.c ****             symbol_area.y2 = symbol_area.y1 + symbol_h - 1;
 847:Drivers/lvgl/src/widgets/lv_dropdown.c ****             lv_draw_label(draw_ctx, &symbol_dsc, &symbol_area, dropdown->symbol, NULL);
 848:Drivers/lvgl/src/widgets/lv_dropdown.c ****         }
 849:Drivers/lvgl/src/widgets/lv_dropdown.c ****         else {
 850:Drivers/lvgl/src/widgets/lv_dropdown.c ****             symbol_area.y1 = obj->coords.y1 + (lv_obj_get_height(obj) - symbol_h) / 2;
 851:Drivers/lvgl/src/widgets/lv_dropdown.c ****             symbol_area.y2 = symbol_area.y1 + symbol_h - 1;
 852:Drivers/lvgl/src/widgets/lv_dropdown.c ****             lv_draw_img_dsc_t img_dsc;
 853:Drivers/lvgl/src/widgets/lv_dropdown.c ****             lv_draw_img_dsc_init(&img_dsc);
 854:Drivers/lvgl/src/widgets/lv_dropdown.c ****             lv_obj_init_draw_img_dsc(obj, LV_PART_INDICATOR, &img_dsc);
 855:Drivers/lvgl/src/widgets/lv_dropdown.c ****             img_dsc.pivot.x = symbol_w / 2;
 856:Drivers/lvgl/src/widgets/lv_dropdown.c ****             img_dsc.pivot.y = symbol_h / 2;
 857:Drivers/lvgl/src/widgets/lv_dropdown.c ****             img_dsc.angle = lv_obj_get_style_transform_angle(obj, LV_PART_INDICATOR);
ARM GAS  /var/folders/lp/x54gwt890xv47sdkqj1k04q40000gn/T//cczFasrC.s 			page 17


 858:Drivers/lvgl/src/widgets/lv_dropdown.c ****             lv_draw_img(draw_ctx, &img_dsc, &symbol_area, dropdown->symbol);
 859:Drivers/lvgl/src/widgets/lv_dropdown.c ****         }
 860:Drivers/lvgl/src/widgets/lv_dropdown.c ****     }
 861:Drivers/lvgl/src/widgets/lv_dropdown.c **** 
 862:Drivers/lvgl/src/widgets/lv_dropdown.c ****     lv_draw_label_dsc_t label_dsc;
 863:Drivers/lvgl/src/widgets/lv_dropdown.c ****     lv_draw_label_dsc_init(&label_dsc);
 864:Drivers/lvgl/src/widgets/lv_dropdown.c ****     lv_obj_init_draw_label_dsc(obj, LV_PART_MAIN, &label_dsc);
 865:Drivers/lvgl/src/widgets/lv_dropdown.c **** 
 866:Drivers/lvgl/src/widgets/lv_dropdown.c ****     lv_point_t size;
 867:Drivers/lvgl/src/widgets/lv_dropdown.c ****     lv_txt_get_size(&size, opt_txt, label_dsc.font, label_dsc.letter_space, label_dsc.line_space, L
 868:Drivers/lvgl/src/widgets/lv_dropdown.c ****                     label_dsc.flag);
 869:Drivers/lvgl/src/widgets/lv_dropdown.c **** 
 870:Drivers/lvgl/src/widgets/lv_dropdown.c ****     lv_area_t txt_area;
 871:Drivers/lvgl/src/widgets/lv_dropdown.c ****     txt_area.y1 = obj->coords.y1 + top;
 872:Drivers/lvgl/src/widgets/lv_dropdown.c ****     txt_area.y2 = txt_area.y1 + size.y;
 873:Drivers/lvgl/src/widgets/lv_dropdown.c ****     /*Center align the text if no symbol*/
 874:Drivers/lvgl/src/widgets/lv_dropdown.c ****     if(dropdown->symbol == NULL) {
 875:Drivers/lvgl/src/widgets/lv_dropdown.c ****         txt_area.x1 = obj->coords.x1 + (lv_obj_get_width(obj) - size.x) / 2;
 876:Drivers/lvgl/src/widgets/lv_dropdown.c ****         txt_area.x2 = txt_area.x1 + size.x;
 877:Drivers/lvgl/src/widgets/lv_dropdown.c ****     }
 878:Drivers/lvgl/src/widgets/lv_dropdown.c ****     else {
 879:Drivers/lvgl/src/widgets/lv_dropdown.c ****         /*Text to the right*/
 880:Drivers/lvgl/src/widgets/lv_dropdown.c ****         if(symbol_to_left) {
 881:Drivers/lvgl/src/widgets/lv_dropdown.c ****             txt_area.x1 = obj->coords.x2 - right - size.x;
 882:Drivers/lvgl/src/widgets/lv_dropdown.c ****             txt_area.x2 = txt_area.x1 + size.x;
 883:Drivers/lvgl/src/widgets/lv_dropdown.c ****         }
 884:Drivers/lvgl/src/widgets/lv_dropdown.c ****         else {
 885:Drivers/lvgl/src/widgets/lv_dropdown.c ****             txt_area.x1 = obj->coords.x1 + left;
 886:Drivers/lvgl/src/widgets/lv_dropdown.c ****             txt_area.x2 = txt_area.x1 + size.x;
 887:Drivers/lvgl/src/widgets/lv_dropdown.c ****         }
 888:Drivers/lvgl/src/widgets/lv_dropdown.c ****     }
 889:Drivers/lvgl/src/widgets/lv_dropdown.c ****     lv_draw_label(draw_ctx, &label_dsc, &txt_area, opt_txt, NULL);
 890:Drivers/lvgl/src/widgets/lv_dropdown.c **** 
 891:Drivers/lvgl/src/widgets/lv_dropdown.c ****     if(dropdown->text == NULL) {
 892:Drivers/lvgl/src/widgets/lv_dropdown.c ****         lv_mem_buf_release((char *)opt_txt);
 893:Drivers/lvgl/src/widgets/lv_dropdown.c ****     }
 894:Drivers/lvgl/src/widgets/lv_dropdown.c **** }
 895:Drivers/lvgl/src/widgets/lv_dropdown.c **** 
 896:Drivers/lvgl/src/widgets/lv_dropdown.c **** static void draw_list(lv_event_t * e)
 897:Drivers/lvgl/src/widgets/lv_dropdown.c **** {
 898:Drivers/lvgl/src/widgets/lv_dropdown.c ****     lv_obj_t * list_obj = lv_event_get_target(e);
 899:Drivers/lvgl/src/widgets/lv_dropdown.c ****     lv_dropdown_list_t * list = (lv_dropdown_list_t *)list_obj;
 900:Drivers/lvgl/src/widgets/lv_dropdown.c ****     lv_obj_t * dropdown_obj = list->dropdown;
 901:Drivers/lvgl/src/widgets/lv_dropdown.c ****     lv_dropdown_t * dropdown = (lv_dropdown_t *)dropdown_obj;
 902:Drivers/lvgl/src/widgets/lv_dropdown.c ****     lv_draw_ctx_t * draw_ctx = lv_event_get_draw_ctx(e);
 903:Drivers/lvgl/src/widgets/lv_dropdown.c **** 
 904:Drivers/lvgl/src/widgets/lv_dropdown.c ****     /* Clip area might be too large too to shadow but
 905:Drivers/lvgl/src/widgets/lv_dropdown.c ****      * the selected option can be drawn on only the background*/
 906:Drivers/lvgl/src/widgets/lv_dropdown.c ****     lv_area_t clip_area_core;
 907:Drivers/lvgl/src/widgets/lv_dropdown.c ****     bool has_common;
 908:Drivers/lvgl/src/widgets/lv_dropdown.c ****     has_common = _lv_area_intersect(&clip_area_core, draw_ctx->clip_area, &dropdown->list->coords);
 909:Drivers/lvgl/src/widgets/lv_dropdown.c ****     if(has_common) {
 910:Drivers/lvgl/src/widgets/lv_dropdown.c ****         const lv_area_t * clip_area_ori = draw_ctx->clip_area;
 911:Drivers/lvgl/src/widgets/lv_dropdown.c ****         draw_ctx->clip_area = &clip_area_core;
 912:Drivers/lvgl/src/widgets/lv_dropdown.c ****         if(dropdown->selected_highlight) {
 913:Drivers/lvgl/src/widgets/lv_dropdown.c ****             if(dropdown->pr_opt_id == dropdown->sel_opt_id) {
 914:Drivers/lvgl/src/widgets/lv_dropdown.c ****                 draw_box(dropdown_obj, draw_ctx, dropdown->pr_opt_id, LV_STATE_CHECKED | LV_STATE_P
ARM GAS  /var/folders/lp/x54gwt890xv47sdkqj1k04q40000gn/T//cczFasrC.s 			page 18


 915:Drivers/lvgl/src/widgets/lv_dropdown.c ****                 draw_box_label(dropdown_obj, draw_ctx, dropdown->pr_opt_id, LV_STATE_CHECKED | LV_S
 916:Drivers/lvgl/src/widgets/lv_dropdown.c ****             }
 917:Drivers/lvgl/src/widgets/lv_dropdown.c ****             else {
 918:Drivers/lvgl/src/widgets/lv_dropdown.c ****                 draw_box(dropdown_obj, draw_ctx, dropdown->pr_opt_id, LV_STATE_PRESSED);
 919:Drivers/lvgl/src/widgets/lv_dropdown.c ****                 draw_box_label(dropdown_obj, draw_ctx, dropdown->pr_opt_id, LV_STATE_PRESSED);
 920:Drivers/lvgl/src/widgets/lv_dropdown.c ****                 draw_box(dropdown_obj, draw_ctx, dropdown->sel_opt_id, LV_STATE_CHECKED);
 921:Drivers/lvgl/src/widgets/lv_dropdown.c ****                 draw_box_label(dropdown_obj, draw_ctx, dropdown->sel_opt_id, LV_STATE_CHECKED);
 922:Drivers/lvgl/src/widgets/lv_dropdown.c ****             }
 923:Drivers/lvgl/src/widgets/lv_dropdown.c ****         }
 924:Drivers/lvgl/src/widgets/lv_dropdown.c ****         else {
 925:Drivers/lvgl/src/widgets/lv_dropdown.c ****             draw_box(dropdown_obj, draw_ctx, dropdown->pr_opt_id, LV_STATE_PRESSED);
 926:Drivers/lvgl/src/widgets/lv_dropdown.c ****             draw_box_label(dropdown_obj, draw_ctx, dropdown->pr_opt_id, LV_STATE_PRESSED);
 927:Drivers/lvgl/src/widgets/lv_dropdown.c ****         }
 928:Drivers/lvgl/src/widgets/lv_dropdown.c ****         draw_ctx->clip_area = clip_area_ori;
 929:Drivers/lvgl/src/widgets/lv_dropdown.c ****     }
 930:Drivers/lvgl/src/widgets/lv_dropdown.c **** }
 931:Drivers/lvgl/src/widgets/lv_dropdown.c **** 
 932:Drivers/lvgl/src/widgets/lv_dropdown.c **** static void draw_box(lv_obj_t * dropdown_obj, lv_draw_ctx_t * draw_ctx, uint16_t id, lv_state_t sta
 933:Drivers/lvgl/src/widgets/lv_dropdown.c **** {
 934:Drivers/lvgl/src/widgets/lv_dropdown.c ****     if(id == LV_DROPDOWN_PR_NONE) return;
 935:Drivers/lvgl/src/widgets/lv_dropdown.c **** 
 936:Drivers/lvgl/src/widgets/lv_dropdown.c ****     lv_dropdown_t * dropdown = (lv_dropdown_t *)dropdown_obj;
 937:Drivers/lvgl/src/widgets/lv_dropdown.c ****     lv_obj_t * list_obj = dropdown->list;
 938:Drivers/lvgl/src/widgets/lv_dropdown.c ****     lv_state_t state_ori = list_obj->state;
 939:Drivers/lvgl/src/widgets/lv_dropdown.c **** 
 940:Drivers/lvgl/src/widgets/lv_dropdown.c ****     if(state != list_obj->state) {
 941:Drivers/lvgl/src/widgets/lv_dropdown.c ****         list_obj->state = state;
 942:Drivers/lvgl/src/widgets/lv_dropdown.c ****         list_obj->skip_trans = 1;
 943:Drivers/lvgl/src/widgets/lv_dropdown.c ****     }
 944:Drivers/lvgl/src/widgets/lv_dropdown.c **** 
 945:Drivers/lvgl/src/widgets/lv_dropdown.c ****     /*Draw a rectangle under the selected item*/
 946:Drivers/lvgl/src/widgets/lv_dropdown.c ****     const lv_font_t * font    = lv_obj_get_style_text_font(list_obj, LV_PART_SELECTED);
 947:Drivers/lvgl/src/widgets/lv_dropdown.c ****     lv_coord_t line_space = lv_obj_get_style_text_line_space(list_obj,  LV_PART_SELECTED);
 948:Drivers/lvgl/src/widgets/lv_dropdown.c ****     lv_coord_t font_h         = lv_font_get_line_height(font);
 949:Drivers/lvgl/src/widgets/lv_dropdown.c **** 
 950:Drivers/lvgl/src/widgets/lv_dropdown.c ****     /*Draw the selected*/
 951:Drivers/lvgl/src/widgets/lv_dropdown.c ****     lv_obj_t * label = get_label(dropdown_obj);
 952:Drivers/lvgl/src/widgets/lv_dropdown.c ****     lv_area_t rect_area;
 953:Drivers/lvgl/src/widgets/lv_dropdown.c ****     rect_area.y1 = label->coords.y1;
 954:Drivers/lvgl/src/widgets/lv_dropdown.c ****     rect_area.y1 += id * (font_h + line_space);
 955:Drivers/lvgl/src/widgets/lv_dropdown.c ****     rect_area.y1 -= line_space / 2;
 956:Drivers/lvgl/src/widgets/lv_dropdown.c **** 
 957:Drivers/lvgl/src/widgets/lv_dropdown.c ****     rect_area.y2 = rect_area.y1 + font_h + line_space - 1;
 958:Drivers/lvgl/src/widgets/lv_dropdown.c ****     rect_area.x1 = dropdown->list->coords.x1;
 959:Drivers/lvgl/src/widgets/lv_dropdown.c ****     rect_area.x2 = dropdown->list->coords.x2;
 960:Drivers/lvgl/src/widgets/lv_dropdown.c **** 
 961:Drivers/lvgl/src/widgets/lv_dropdown.c ****     lv_draw_rect_dsc_t sel_rect;
 962:Drivers/lvgl/src/widgets/lv_dropdown.c ****     lv_draw_rect_dsc_init(&sel_rect);
 963:Drivers/lvgl/src/widgets/lv_dropdown.c ****     lv_obj_init_draw_rect_dsc(list_obj,  LV_PART_SELECTED, &sel_rect);
 964:Drivers/lvgl/src/widgets/lv_dropdown.c ****     lv_draw_rect(draw_ctx, &sel_rect, &rect_area);
 965:Drivers/lvgl/src/widgets/lv_dropdown.c **** 
 966:Drivers/lvgl/src/widgets/lv_dropdown.c ****     list_obj->state = state_ori;
 967:Drivers/lvgl/src/widgets/lv_dropdown.c ****     list_obj->skip_trans = 0;
 968:Drivers/lvgl/src/widgets/lv_dropdown.c **** }
 969:Drivers/lvgl/src/widgets/lv_dropdown.c **** 
 970:Drivers/lvgl/src/widgets/lv_dropdown.c **** static void draw_box_label(lv_obj_t * dropdown_obj, lv_draw_ctx_t * draw_ctx, uint16_t id, lv_state
 971:Drivers/lvgl/src/widgets/lv_dropdown.c **** {
ARM GAS  /var/folders/lp/x54gwt890xv47sdkqj1k04q40000gn/T//cczFasrC.s 			page 19


 972:Drivers/lvgl/src/widgets/lv_dropdown.c ****     if(id == LV_DROPDOWN_PR_NONE) return;
 973:Drivers/lvgl/src/widgets/lv_dropdown.c **** 
 974:Drivers/lvgl/src/widgets/lv_dropdown.c ****     lv_dropdown_t * dropdown = (lv_dropdown_t *)dropdown_obj;
 975:Drivers/lvgl/src/widgets/lv_dropdown.c ****     lv_obj_t * list_obj = dropdown->list;
 976:Drivers/lvgl/src/widgets/lv_dropdown.c ****     lv_state_t state_orig = list_obj->state;
 977:Drivers/lvgl/src/widgets/lv_dropdown.c **** 
 978:Drivers/lvgl/src/widgets/lv_dropdown.c ****     if(state != list_obj->state) {
 979:Drivers/lvgl/src/widgets/lv_dropdown.c ****         list_obj->state = state;
 980:Drivers/lvgl/src/widgets/lv_dropdown.c ****         list_obj->skip_trans = 1;
 981:Drivers/lvgl/src/widgets/lv_dropdown.c ****     }
 982:Drivers/lvgl/src/widgets/lv_dropdown.c **** 
 983:Drivers/lvgl/src/widgets/lv_dropdown.c ****     lv_draw_label_dsc_t label_dsc;
 984:Drivers/lvgl/src/widgets/lv_dropdown.c ****     lv_draw_label_dsc_init(&label_dsc);
 985:Drivers/lvgl/src/widgets/lv_dropdown.c ****     lv_obj_init_draw_label_dsc(list_obj, LV_PART_SELECTED, &label_dsc);
 986:Drivers/lvgl/src/widgets/lv_dropdown.c **** 
 987:Drivers/lvgl/src/widgets/lv_dropdown.c ****     label_dsc.line_space = lv_obj_get_style_text_line_space(list_obj,
 988:Drivers/lvgl/src/widgets/lv_dropdown.c ****                                                             LV_PART_SELECTED);  /*Line space should
 989:Drivers/lvgl/src/widgets/lv_dropdown.c **** 
 990:Drivers/lvgl/src/widgets/lv_dropdown.c ****     lv_obj_t * label = get_label(dropdown_obj);
 991:Drivers/lvgl/src/widgets/lv_dropdown.c ****     if(label == NULL) return;
 992:Drivers/lvgl/src/widgets/lv_dropdown.c **** 
 993:Drivers/lvgl/src/widgets/lv_dropdown.c ****     lv_coord_t font_h        = lv_font_get_line_height(label_dsc.font);
 994:Drivers/lvgl/src/widgets/lv_dropdown.c **** 
 995:Drivers/lvgl/src/widgets/lv_dropdown.c ****     lv_area_t area_sel;
 996:Drivers/lvgl/src/widgets/lv_dropdown.c ****     area_sel.y1 = label->coords.y1;
 997:Drivers/lvgl/src/widgets/lv_dropdown.c ****     area_sel.y1 += id * (font_h + label_dsc.line_space);
 998:Drivers/lvgl/src/widgets/lv_dropdown.c ****     area_sel.y1 -= label_dsc.line_space / 2;
 999:Drivers/lvgl/src/widgets/lv_dropdown.c **** 
1000:Drivers/lvgl/src/widgets/lv_dropdown.c ****     area_sel.y2 = area_sel.y1 + font_h + label_dsc.line_space - 1;
1001:Drivers/lvgl/src/widgets/lv_dropdown.c ****     area_sel.x1 = list_obj->coords.x1;
1002:Drivers/lvgl/src/widgets/lv_dropdown.c ****     area_sel.x2 = list_obj->coords.x2;
1003:Drivers/lvgl/src/widgets/lv_dropdown.c ****     lv_area_t mask_sel;
1004:Drivers/lvgl/src/widgets/lv_dropdown.c ****     bool area_ok;
1005:Drivers/lvgl/src/widgets/lv_dropdown.c ****     area_ok = _lv_area_intersect(&mask_sel, draw_ctx->clip_area, &area_sel);
1006:Drivers/lvgl/src/widgets/lv_dropdown.c ****     if(area_ok) {
1007:Drivers/lvgl/src/widgets/lv_dropdown.c ****         const lv_area_t * clip_area_ori = draw_ctx->clip_area;
1008:Drivers/lvgl/src/widgets/lv_dropdown.c ****         draw_ctx->clip_area = &mask_sel;
1009:Drivers/lvgl/src/widgets/lv_dropdown.c ****         lv_draw_label(draw_ctx, &label_dsc, &label->coords, lv_label_get_text(label), NULL);
1010:Drivers/lvgl/src/widgets/lv_dropdown.c ****         draw_ctx->clip_area = clip_area_ori;
1011:Drivers/lvgl/src/widgets/lv_dropdown.c ****     }
1012:Drivers/lvgl/src/widgets/lv_dropdown.c ****     list_obj->state = state_orig;
1013:Drivers/lvgl/src/widgets/lv_dropdown.c ****     list_obj->skip_trans = 0;
1014:Drivers/lvgl/src/widgets/lv_dropdown.c **** }
1015:Drivers/lvgl/src/widgets/lv_dropdown.c **** 
1016:Drivers/lvgl/src/widgets/lv_dropdown.c **** 
1017:Drivers/lvgl/src/widgets/lv_dropdown.c **** static lv_res_t btn_release_handler(lv_obj_t * obj)
1018:Drivers/lvgl/src/widgets/lv_dropdown.c **** {
1019:Drivers/lvgl/src/widgets/lv_dropdown.c ****     lv_dropdown_t * dropdown = (lv_dropdown_t *)obj;
1020:Drivers/lvgl/src/widgets/lv_dropdown.c ****     lv_indev_t * indev = lv_indev_get_act();
1021:Drivers/lvgl/src/widgets/lv_dropdown.c ****     if(lv_indev_get_scroll_obj(indev) == NULL) {
1022:Drivers/lvgl/src/widgets/lv_dropdown.c ****         if(lv_dropdown_is_open(obj)) {
1023:Drivers/lvgl/src/widgets/lv_dropdown.c ****             lv_dropdown_close(obj);
1024:Drivers/lvgl/src/widgets/lv_dropdown.c ****             if(dropdown->sel_opt_id_orig != dropdown->sel_opt_id) {
1025:Drivers/lvgl/src/widgets/lv_dropdown.c ****                 dropdown->sel_opt_id_orig = dropdown->sel_opt_id;
1026:Drivers/lvgl/src/widgets/lv_dropdown.c ****                 lv_res_t res;
1027:Drivers/lvgl/src/widgets/lv_dropdown.c ****                 uint32_t id  = dropdown->sel_opt_id; /*Just to use uint32_t in event data*/
1028:Drivers/lvgl/src/widgets/lv_dropdown.c ****                 res = lv_event_send(obj, LV_EVENT_VALUE_CHANGED, &id);
ARM GAS  /var/folders/lp/x54gwt890xv47sdkqj1k04q40000gn/T//cczFasrC.s 			page 20


1029:Drivers/lvgl/src/widgets/lv_dropdown.c ****                 if(res != LV_RES_OK) return res;
1030:Drivers/lvgl/src/widgets/lv_dropdown.c ****                 lv_obj_invalidate(obj);
1031:Drivers/lvgl/src/widgets/lv_dropdown.c ****             }
1032:Drivers/lvgl/src/widgets/lv_dropdown.c ****             lv_indev_type_t indev_type = lv_indev_get_type(indev);
1033:Drivers/lvgl/src/widgets/lv_dropdown.c ****             if(indev_type == LV_INDEV_TYPE_ENCODER) {
1034:Drivers/lvgl/src/widgets/lv_dropdown.c ****                 lv_group_set_editing(lv_obj_get_group(obj), false);
1035:Drivers/lvgl/src/widgets/lv_dropdown.c ****             }
1036:Drivers/lvgl/src/widgets/lv_dropdown.c ****         }
1037:Drivers/lvgl/src/widgets/lv_dropdown.c ****         else {
1038:Drivers/lvgl/src/widgets/lv_dropdown.c ****             lv_dropdown_open(obj);
1039:Drivers/lvgl/src/widgets/lv_dropdown.c ****         }
1040:Drivers/lvgl/src/widgets/lv_dropdown.c ****     }
1041:Drivers/lvgl/src/widgets/lv_dropdown.c ****     else {
1042:Drivers/lvgl/src/widgets/lv_dropdown.c ****         dropdown->sel_opt_id = dropdown->sel_opt_id_orig;
1043:Drivers/lvgl/src/widgets/lv_dropdown.c ****         lv_obj_invalidate(obj);
1044:Drivers/lvgl/src/widgets/lv_dropdown.c ****     }
1045:Drivers/lvgl/src/widgets/lv_dropdown.c ****     return LV_RES_OK;
1046:Drivers/lvgl/src/widgets/lv_dropdown.c **** }
1047:Drivers/lvgl/src/widgets/lv_dropdown.c **** 
1048:Drivers/lvgl/src/widgets/lv_dropdown.c **** /**
1049:Drivers/lvgl/src/widgets/lv_dropdown.c ****  * Called when a drop down list is released to open it or set new option
1050:Drivers/lvgl/src/widgets/lv_dropdown.c ****  * @param list pointer to the drop down list's list
1051:Drivers/lvgl/src/widgets/lv_dropdown.c ****  * @return LV_RES_INV if the list is not being deleted in the user callback. Else LV_RES_OK
1052:Drivers/lvgl/src/widgets/lv_dropdown.c ****  */
1053:Drivers/lvgl/src/widgets/lv_dropdown.c **** static lv_res_t list_release_handler(lv_obj_t * list_obj)
1054:Drivers/lvgl/src/widgets/lv_dropdown.c **** {
1055:Drivers/lvgl/src/widgets/lv_dropdown.c ****     lv_dropdown_list_t * list = (lv_dropdown_list_t *) list_obj;
1056:Drivers/lvgl/src/widgets/lv_dropdown.c ****     lv_obj_t * dropdown_obj = list->dropdown;
1057:Drivers/lvgl/src/widgets/lv_dropdown.c ****     lv_dropdown_t * dropdown = (lv_dropdown_t *)dropdown_obj;
1058:Drivers/lvgl/src/widgets/lv_dropdown.c **** 
1059:Drivers/lvgl/src/widgets/lv_dropdown.c ****     lv_indev_t * indev = lv_indev_get_act();
1060:Drivers/lvgl/src/widgets/lv_dropdown.c ****     /*Leave edit mode once a new item is selected*/
1061:Drivers/lvgl/src/widgets/lv_dropdown.c ****     if(lv_indev_get_type(indev) == LV_INDEV_TYPE_ENCODER) {
1062:Drivers/lvgl/src/widgets/lv_dropdown.c ****         dropdown->sel_opt_id_orig = dropdown->sel_opt_id;
1063:Drivers/lvgl/src/widgets/lv_dropdown.c ****         lv_group_t * g      = lv_obj_get_group(dropdown_obj);
1064:Drivers/lvgl/src/widgets/lv_dropdown.c ****         if(lv_group_get_editing(g)) {
1065:Drivers/lvgl/src/widgets/lv_dropdown.c ****             lv_group_set_editing(g, false);
1066:Drivers/lvgl/src/widgets/lv_dropdown.c ****         }
1067:Drivers/lvgl/src/widgets/lv_dropdown.c ****     }
1068:Drivers/lvgl/src/widgets/lv_dropdown.c **** 
1069:Drivers/lvgl/src/widgets/lv_dropdown.c ****     /*Search the clicked option (For KEYPAD and ENCODER the new value should be already set)*/
1070:Drivers/lvgl/src/widgets/lv_dropdown.c ****     if(lv_indev_get_type(indev) == LV_INDEV_TYPE_POINTER || lv_indev_get_type(indev) == LV_INDEV_TY
1071:Drivers/lvgl/src/widgets/lv_dropdown.c ****         lv_point_t p;
1072:Drivers/lvgl/src/widgets/lv_dropdown.c ****         lv_indev_get_point(indev, &p);
1073:Drivers/lvgl/src/widgets/lv_dropdown.c ****         dropdown->sel_opt_id     = get_id_on_point(dropdown_obj, p.y);
1074:Drivers/lvgl/src/widgets/lv_dropdown.c ****         dropdown->sel_opt_id_orig = dropdown->sel_opt_id;
1075:Drivers/lvgl/src/widgets/lv_dropdown.c ****     }
1076:Drivers/lvgl/src/widgets/lv_dropdown.c **** 
1077:Drivers/lvgl/src/widgets/lv_dropdown.c ****     lv_dropdown_close(dropdown_obj);
1078:Drivers/lvgl/src/widgets/lv_dropdown.c **** 
1079:Drivers/lvgl/src/widgets/lv_dropdown.c ****     /*Invalidate to refresh the text*/
1080:Drivers/lvgl/src/widgets/lv_dropdown.c ****     if(dropdown->text == NULL) lv_obj_invalidate(dropdown_obj);
1081:Drivers/lvgl/src/widgets/lv_dropdown.c **** 
1082:Drivers/lvgl/src/widgets/lv_dropdown.c ****     uint32_t id  = dropdown->sel_opt_id; /*Just to use uint32_t in event data*/
1083:Drivers/lvgl/src/widgets/lv_dropdown.c ****     lv_res_t res = lv_event_send(dropdown_obj, LV_EVENT_VALUE_CHANGED, &id);
1084:Drivers/lvgl/src/widgets/lv_dropdown.c ****     if(res != LV_RES_OK) return res;
1085:Drivers/lvgl/src/widgets/lv_dropdown.c **** 
ARM GAS  /var/folders/lp/x54gwt890xv47sdkqj1k04q40000gn/T//cczFasrC.s 			page 21


1086:Drivers/lvgl/src/widgets/lv_dropdown.c ****     return LV_RES_OK;
1087:Drivers/lvgl/src/widgets/lv_dropdown.c **** }
1088:Drivers/lvgl/src/widgets/lv_dropdown.c **** 
1089:Drivers/lvgl/src/widgets/lv_dropdown.c **** static void list_press_handler(lv_obj_t * list_obj)
1090:Drivers/lvgl/src/widgets/lv_dropdown.c **** {
1091:Drivers/lvgl/src/widgets/lv_dropdown.c ****     lv_dropdown_list_t * list = (lv_dropdown_list_t *) list_obj;
1092:Drivers/lvgl/src/widgets/lv_dropdown.c ****     lv_obj_t * dropdown_obj = list->dropdown;
1093:Drivers/lvgl/src/widgets/lv_dropdown.c ****     lv_dropdown_t * dropdown = (lv_dropdown_t *)dropdown_obj;
1094:Drivers/lvgl/src/widgets/lv_dropdown.c **** 
1095:Drivers/lvgl/src/widgets/lv_dropdown.c ****     lv_indev_t * indev = lv_indev_get_act();
1096:Drivers/lvgl/src/widgets/lv_dropdown.c ****     if(indev && (lv_indev_get_type(indev) == LV_INDEV_TYPE_POINTER || lv_indev_get_type(indev) == L
1097:Drivers/lvgl/src/widgets/lv_dropdown.c ****         lv_point_t p;
1098:Drivers/lvgl/src/widgets/lv_dropdown.c ****         lv_indev_get_point(indev, &p);
1099:Drivers/lvgl/src/widgets/lv_dropdown.c ****         dropdown->pr_opt_id = get_id_on_point(dropdown_obj, p.y);
1100:Drivers/lvgl/src/widgets/lv_dropdown.c ****         lv_obj_invalidate(list_obj);
1101:Drivers/lvgl/src/widgets/lv_dropdown.c ****     }
1102:Drivers/lvgl/src/widgets/lv_dropdown.c **** }
1103:Drivers/lvgl/src/widgets/lv_dropdown.c **** 
1104:Drivers/lvgl/src/widgets/lv_dropdown.c **** static uint16_t get_id_on_point(lv_obj_t * dropdown_obj, lv_coord_t y)
1105:Drivers/lvgl/src/widgets/lv_dropdown.c **** {
1106:Drivers/lvgl/src/widgets/lv_dropdown.c ****     lv_dropdown_t * dropdown = (lv_dropdown_t *)dropdown_obj;
1107:Drivers/lvgl/src/widgets/lv_dropdown.c ****     lv_obj_t * label = get_label(dropdown_obj);
1108:Drivers/lvgl/src/widgets/lv_dropdown.c ****     if(label == NULL) return 0;
1109:Drivers/lvgl/src/widgets/lv_dropdown.c ****     y -= label->coords.y1;
1110:Drivers/lvgl/src/widgets/lv_dropdown.c **** 
1111:Drivers/lvgl/src/widgets/lv_dropdown.c ****     const lv_font_t * font         = lv_obj_get_style_text_font(label, LV_PART_MAIN);
1112:Drivers/lvgl/src/widgets/lv_dropdown.c ****     lv_coord_t font_h              = lv_font_get_line_height(font);
1113:Drivers/lvgl/src/widgets/lv_dropdown.c ****     lv_coord_t line_space = lv_obj_get_style_text_line_space(label, LV_PART_MAIN);
1114:Drivers/lvgl/src/widgets/lv_dropdown.c **** 
1115:Drivers/lvgl/src/widgets/lv_dropdown.c ****     y += line_space / 2;
1116:Drivers/lvgl/src/widgets/lv_dropdown.c ****     lv_coord_t h = font_h + line_space;
1117:Drivers/lvgl/src/widgets/lv_dropdown.c **** 
1118:Drivers/lvgl/src/widgets/lv_dropdown.c ****     uint16_t opt = y / h;
1119:Drivers/lvgl/src/widgets/lv_dropdown.c **** 
1120:Drivers/lvgl/src/widgets/lv_dropdown.c ****     if(opt >= dropdown->option_cnt) opt = dropdown->option_cnt - 1;
1121:Drivers/lvgl/src/widgets/lv_dropdown.c ****     return opt;
1122:Drivers/lvgl/src/widgets/lv_dropdown.c **** }
1123:Drivers/lvgl/src/widgets/lv_dropdown.c **** 
1124:Drivers/lvgl/src/widgets/lv_dropdown.c **** /**
1125:Drivers/lvgl/src/widgets/lv_dropdown.c ****  * Set the position of list when it is closed to show the selected item
1126:Drivers/lvgl/src/widgets/lv_dropdown.c ****  * @param ddlist pointer to a drop down list
1127:Drivers/lvgl/src/widgets/lv_dropdown.c ****  */
1128:Drivers/lvgl/src/widgets/lv_dropdown.c **** static void position_to_selected(lv_obj_t * dropdown_obj)
1129:Drivers/lvgl/src/widgets/lv_dropdown.c **** {
1130:Drivers/lvgl/src/widgets/lv_dropdown.c ****     lv_dropdown_t * dropdown = (lv_dropdown_t *)dropdown_obj;
1131:Drivers/lvgl/src/widgets/lv_dropdown.c **** 
1132:Drivers/lvgl/src/widgets/lv_dropdown.c ****     lv_obj_t * label = get_label(dropdown_obj);
1133:Drivers/lvgl/src/widgets/lv_dropdown.c ****     if(label == NULL) return;
1134:Drivers/lvgl/src/widgets/lv_dropdown.c **** 
1135:Drivers/lvgl/src/widgets/lv_dropdown.c ****     if(lv_obj_get_height(label) <= lv_obj_get_content_height(dropdown_obj)) return;
1136:Drivers/lvgl/src/widgets/lv_dropdown.c **** 
1137:Drivers/lvgl/src/widgets/lv_dropdown.c ****     const lv_font_t * font         = lv_obj_get_style_text_font(label, LV_PART_MAIN);
1138:Drivers/lvgl/src/widgets/lv_dropdown.c ****     lv_coord_t font_h              = lv_font_get_line_height(font);
1139:Drivers/lvgl/src/widgets/lv_dropdown.c ****     lv_coord_t line_space = lv_obj_get_style_text_line_space(label, LV_PART_MAIN);
1140:Drivers/lvgl/src/widgets/lv_dropdown.c ****     lv_coord_t unit_h = font_h + line_space;
1141:Drivers/lvgl/src/widgets/lv_dropdown.c ****     lv_coord_t line_y1 = dropdown->sel_opt_id * unit_h;
1142:Drivers/lvgl/src/widgets/lv_dropdown.c **** 
ARM GAS  /var/folders/lp/x54gwt890xv47sdkqj1k04q40000gn/T//cczFasrC.s 			page 22


1143:Drivers/lvgl/src/widgets/lv_dropdown.c ****     /*Scroll to the selected option*/
1144:Drivers/lvgl/src/widgets/lv_dropdown.c ****     lv_obj_scroll_to_y(dropdown->list, line_y1, LV_ANIM_OFF);
1145:Drivers/lvgl/src/widgets/lv_dropdown.c ****     lv_obj_invalidate(dropdown->list);
1146:Drivers/lvgl/src/widgets/lv_dropdown.c **** }
1147:Drivers/lvgl/src/widgets/lv_dropdown.c **** 
1148:Drivers/lvgl/src/widgets/lv_dropdown.c **** static lv_obj_t * get_label(const lv_obj_t * obj)
1149:Drivers/lvgl/src/widgets/lv_dropdown.c **** {
  59              		.loc 1 1149 1 is_stmt 1 view -0
  60              		.cfi_startproc
  61              		@ args = 0, pretend = 0, frame = 0
  62              		@ frame_needed = 0, uses_anonymous_args = 0
1150:Drivers/lvgl/src/widgets/lv_dropdown.c ****     lv_dropdown_t * dropdown = (lv_dropdown_t *)obj;
  63              		.loc 1 1150 5 view .LVU10
1151:Drivers/lvgl/src/widgets/lv_dropdown.c ****     if(dropdown->list == NULL) return NULL;
  64              		.loc 1 1151 5 view .LVU11
  65              		.loc 1 1151 16 is_stmt 0 view .LVU12
  66 0000 406A     		ldr	r0, [r0, #36]
  67              	.LVL3:
  68              		.loc 1 1151 7 view .LVU13
  69 0002 20B1     		cbz	r0, .L5
1149:Drivers/lvgl/src/widgets/lv_dropdown.c ****     lv_dropdown_t * dropdown = (lv_dropdown_t *)obj;
  70              		.loc 1 1149 1 view .LVU14
  71 0004 08B5     		push	{r3, lr}
  72              		.cfi_def_cfa_offset 8
  73              		.cfi_offset 3, -8
  74              		.cfi_offset 14, -4
1152:Drivers/lvgl/src/widgets/lv_dropdown.c **** 
1153:Drivers/lvgl/src/widgets/lv_dropdown.c ****     return lv_obj_get_child(dropdown->list, 0);
  75              		.loc 1 1153 5 is_stmt 1 view .LVU15
  76              		.loc 1 1153 12 is_stmt 0 view .LVU16
  77 0006 0021     		movs	r1, #0
  78 0008 FFF7FEFF 		bl	lv_obj_get_child
  79              	.LVL4:
1154:Drivers/lvgl/src/widgets/lv_dropdown.c **** }
  80              		.loc 1 1154 1 view .LVU17
  81 000c 08BD     		pop	{r3, pc}
  82              	.L5:
  83              		.cfi_def_cfa_offset 0
  84              		.cfi_restore 3
  85              		.cfi_restore 14
  86 000e 7047     		bx	lr
  87              		.cfi_endproc
  88              	.LFE206:
  90              		.section	.text.position_to_selected,"ax",%progbits
  91              		.align	1
  92              		.syntax unified
  93              		.thumb
  94              		.thumb_func
  96              	position_to_selected:
  97              	.LVL5:
  98              	.LFB205:
1129:Drivers/lvgl/src/widgets/lv_dropdown.c ****     lv_dropdown_t * dropdown = (lv_dropdown_t *)dropdown_obj;
  99              		.loc 1 1129 1 is_stmt 1 view -0
 100              		.cfi_startproc
 101              		@ args = 0, pretend = 0, frame = 0
 102              		@ frame_needed = 0, uses_anonymous_args = 0
1129:Drivers/lvgl/src/widgets/lv_dropdown.c ****     lv_dropdown_t * dropdown = (lv_dropdown_t *)dropdown_obj;
ARM GAS  /var/folders/lp/x54gwt890xv47sdkqj1k04q40000gn/T//cczFasrC.s 			page 23


 103              		.loc 1 1129 1 is_stmt 0 view .LVU19
 104 0000 70B5     		push	{r4, r5, r6, lr}
 105              		.cfi_def_cfa_offset 16
 106              		.cfi_offset 4, -16
 107              		.cfi_offset 5, -12
 108              		.cfi_offset 6, -8
 109              		.cfi_offset 14, -4
 110 0002 0446     		mov	r4, r0
1130:Drivers/lvgl/src/widgets/lv_dropdown.c **** 
 111              		.loc 1 1130 5 is_stmt 1 view .LVU20
 112              	.LVL6:
1132:Drivers/lvgl/src/widgets/lv_dropdown.c ****     if(label == NULL) return;
 113              		.loc 1 1132 5 view .LVU21
1132:Drivers/lvgl/src/widgets/lv_dropdown.c ****     if(label == NULL) return;
 114              		.loc 1 1132 24 is_stmt 0 view .LVU22
 115 0004 FFF7FEFF 		bl	get_label
 116              	.LVL7:
1133:Drivers/lvgl/src/widgets/lv_dropdown.c **** 
 117              		.loc 1 1133 5 is_stmt 1 view .LVU23
1133:Drivers/lvgl/src/widgets/lv_dropdown.c **** 
 118              		.loc 1 1133 7 is_stmt 0 view .LVU24
 119 0008 40B1     		cbz	r0, .L8
 120 000a 0646     		mov	r6, r0
1135:Drivers/lvgl/src/widgets/lv_dropdown.c **** 
 121              		.loc 1 1135 5 is_stmt 1 view .LVU25
1135:Drivers/lvgl/src/widgets/lv_dropdown.c **** 
 122              		.loc 1 1135 8 is_stmt 0 view .LVU26
 123 000c FFF7FEFF 		bl	lv_obj_get_height
 124              	.LVL8:
1135:Drivers/lvgl/src/widgets/lv_dropdown.c **** 
 125              		.loc 1 1135 8 view .LVU27
 126 0010 0546     		mov	r5, r0
1135:Drivers/lvgl/src/widgets/lv_dropdown.c **** 
 127              		.loc 1 1135 36 discriminator 1 view .LVU28
 128 0012 2046     		mov	r0, r4
 129 0014 FFF7FEFF 		bl	lv_obj_get_content_height
 130              	.LVL9:
1135:Drivers/lvgl/src/widgets/lv_dropdown.c **** 
 131              		.loc 1 1135 7 discriminator 2 view .LVU29
 132 0018 8542     		cmp	r5, r0
 133 001a 00DC     		bgt	.L11
 134              	.LVL10:
 135              	.L8:
1146:Drivers/lvgl/src/widgets/lv_dropdown.c **** 
 136              		.loc 1 1146 1 view .LVU30
 137 001c 70BD     		pop	{r4, r5, r6, pc}
 138              	.LVL11:
 139              	.L11:
1137:Drivers/lvgl/src/widgets/lv_dropdown.c ****     lv_coord_t font_h              = lv_font_get_line_height(font);
 140              		.loc 1 1137 5 is_stmt 1 view .LVU31
 141              	.LBB57:
 142              	.LBI57:
 143              		.file 2 "Drivers/lvgl/src/widgets/../core/lv_obj_style_gen.h"
   1:Drivers/lvgl/src/widgets/../core/lv_obj_style_gen.h **** static inline lv_coord_t lv_obj_get_style_width(const struct _lv_obj_t * obj, uint32_t part)
   2:Drivers/lvgl/src/widgets/../core/lv_obj_style_gen.h **** {
   3:Drivers/lvgl/src/widgets/../core/lv_obj_style_gen.h ****     lv_style_value_t v = lv_obj_get_style_prop(obj, part, LV_STYLE_WIDTH);
   4:Drivers/lvgl/src/widgets/../core/lv_obj_style_gen.h ****     return (lv_coord_t)v.num;
ARM GAS  /var/folders/lp/x54gwt890xv47sdkqj1k04q40000gn/T//cczFasrC.s 			page 24


   5:Drivers/lvgl/src/widgets/../core/lv_obj_style_gen.h **** }
   6:Drivers/lvgl/src/widgets/../core/lv_obj_style_gen.h **** 
   7:Drivers/lvgl/src/widgets/../core/lv_obj_style_gen.h **** static inline lv_coord_t lv_obj_get_style_min_width(const struct _lv_obj_t * obj, uint32_t part)
   8:Drivers/lvgl/src/widgets/../core/lv_obj_style_gen.h **** {
   9:Drivers/lvgl/src/widgets/../core/lv_obj_style_gen.h ****     lv_style_value_t v = lv_obj_get_style_prop(obj, part, LV_STYLE_MIN_WIDTH);
  10:Drivers/lvgl/src/widgets/../core/lv_obj_style_gen.h ****     return (lv_coord_t)v.num;
  11:Drivers/lvgl/src/widgets/../core/lv_obj_style_gen.h **** }
  12:Drivers/lvgl/src/widgets/../core/lv_obj_style_gen.h **** 
  13:Drivers/lvgl/src/widgets/../core/lv_obj_style_gen.h **** static inline lv_coord_t lv_obj_get_style_max_width(const struct _lv_obj_t * obj, uint32_t part)
  14:Drivers/lvgl/src/widgets/../core/lv_obj_style_gen.h **** {
  15:Drivers/lvgl/src/widgets/../core/lv_obj_style_gen.h ****     lv_style_value_t v = lv_obj_get_style_prop(obj, part, LV_STYLE_MAX_WIDTH);
  16:Drivers/lvgl/src/widgets/../core/lv_obj_style_gen.h ****     return (lv_coord_t)v.num;
  17:Drivers/lvgl/src/widgets/../core/lv_obj_style_gen.h **** }
  18:Drivers/lvgl/src/widgets/../core/lv_obj_style_gen.h **** 
  19:Drivers/lvgl/src/widgets/../core/lv_obj_style_gen.h **** static inline lv_coord_t lv_obj_get_style_height(const struct _lv_obj_t * obj, uint32_t part)
  20:Drivers/lvgl/src/widgets/../core/lv_obj_style_gen.h **** {
  21:Drivers/lvgl/src/widgets/../core/lv_obj_style_gen.h ****     lv_style_value_t v = lv_obj_get_style_prop(obj, part, LV_STYLE_HEIGHT);
  22:Drivers/lvgl/src/widgets/../core/lv_obj_style_gen.h ****     return (lv_coord_t)v.num;
  23:Drivers/lvgl/src/widgets/../core/lv_obj_style_gen.h **** }
  24:Drivers/lvgl/src/widgets/../core/lv_obj_style_gen.h **** 
  25:Drivers/lvgl/src/widgets/../core/lv_obj_style_gen.h **** static inline lv_coord_t lv_obj_get_style_min_height(const struct _lv_obj_t * obj, uint32_t part)
  26:Drivers/lvgl/src/widgets/../core/lv_obj_style_gen.h **** {
  27:Drivers/lvgl/src/widgets/../core/lv_obj_style_gen.h ****     lv_style_value_t v = lv_obj_get_style_prop(obj, part, LV_STYLE_MIN_HEIGHT);
  28:Drivers/lvgl/src/widgets/../core/lv_obj_style_gen.h ****     return (lv_coord_t)v.num;
  29:Drivers/lvgl/src/widgets/../core/lv_obj_style_gen.h **** }
  30:Drivers/lvgl/src/widgets/../core/lv_obj_style_gen.h **** 
  31:Drivers/lvgl/src/widgets/../core/lv_obj_style_gen.h **** static inline lv_coord_t lv_obj_get_style_max_height(const struct _lv_obj_t * obj, uint32_t part)
  32:Drivers/lvgl/src/widgets/../core/lv_obj_style_gen.h **** {
  33:Drivers/lvgl/src/widgets/../core/lv_obj_style_gen.h ****     lv_style_value_t v = lv_obj_get_style_prop(obj, part, LV_STYLE_MAX_HEIGHT);
  34:Drivers/lvgl/src/widgets/../core/lv_obj_style_gen.h ****     return (lv_coord_t)v.num;
  35:Drivers/lvgl/src/widgets/../core/lv_obj_style_gen.h **** }
  36:Drivers/lvgl/src/widgets/../core/lv_obj_style_gen.h **** 
  37:Drivers/lvgl/src/widgets/../core/lv_obj_style_gen.h **** static inline lv_coord_t lv_obj_get_style_x(const struct _lv_obj_t * obj, uint32_t part)
  38:Drivers/lvgl/src/widgets/../core/lv_obj_style_gen.h **** {
  39:Drivers/lvgl/src/widgets/../core/lv_obj_style_gen.h ****     lv_style_value_t v = lv_obj_get_style_prop(obj, part, LV_STYLE_X);
  40:Drivers/lvgl/src/widgets/../core/lv_obj_style_gen.h ****     return (lv_coord_t)v.num;
  41:Drivers/lvgl/src/widgets/../core/lv_obj_style_gen.h **** }
  42:Drivers/lvgl/src/widgets/../core/lv_obj_style_gen.h **** 
  43:Drivers/lvgl/src/widgets/../core/lv_obj_style_gen.h **** static inline lv_coord_t lv_obj_get_style_y(const struct _lv_obj_t * obj, uint32_t part)
  44:Drivers/lvgl/src/widgets/../core/lv_obj_style_gen.h **** {
  45:Drivers/lvgl/src/widgets/../core/lv_obj_style_gen.h ****     lv_style_value_t v = lv_obj_get_style_prop(obj, part, LV_STYLE_Y);
  46:Drivers/lvgl/src/widgets/../core/lv_obj_style_gen.h ****     return (lv_coord_t)v.num;
  47:Drivers/lvgl/src/widgets/../core/lv_obj_style_gen.h **** }
  48:Drivers/lvgl/src/widgets/../core/lv_obj_style_gen.h **** 
  49:Drivers/lvgl/src/widgets/../core/lv_obj_style_gen.h **** static inline lv_align_t lv_obj_get_style_align(const struct _lv_obj_t * obj, uint32_t part)
  50:Drivers/lvgl/src/widgets/../core/lv_obj_style_gen.h **** {
  51:Drivers/lvgl/src/widgets/../core/lv_obj_style_gen.h ****     lv_style_value_t v = lv_obj_get_style_prop(obj, part, LV_STYLE_ALIGN);
  52:Drivers/lvgl/src/widgets/../core/lv_obj_style_gen.h ****     return (lv_align_t)v.num;
  53:Drivers/lvgl/src/widgets/../core/lv_obj_style_gen.h **** }
  54:Drivers/lvgl/src/widgets/../core/lv_obj_style_gen.h **** 
  55:Drivers/lvgl/src/widgets/../core/lv_obj_style_gen.h **** static inline lv_coord_t lv_obj_get_style_transform_width(const struct _lv_obj_t * obj, uint32_t pa
  56:Drivers/lvgl/src/widgets/../core/lv_obj_style_gen.h **** {
  57:Drivers/lvgl/src/widgets/../core/lv_obj_style_gen.h ****     lv_style_value_t v = lv_obj_get_style_prop(obj, part, LV_STYLE_TRANSFORM_WIDTH);
  58:Drivers/lvgl/src/widgets/../core/lv_obj_style_gen.h ****     return (lv_coord_t)v.num;
  59:Drivers/lvgl/src/widgets/../core/lv_obj_style_gen.h **** }
  60:Drivers/lvgl/src/widgets/../core/lv_obj_style_gen.h **** 
  61:Drivers/lvgl/src/widgets/../core/lv_obj_style_gen.h **** static inline lv_coord_t lv_obj_get_style_transform_height(const struct _lv_obj_t * obj, uint32_t p
ARM GAS  /var/folders/lp/x54gwt890xv47sdkqj1k04q40000gn/T//cczFasrC.s 			page 25


  62:Drivers/lvgl/src/widgets/../core/lv_obj_style_gen.h **** {
  63:Drivers/lvgl/src/widgets/../core/lv_obj_style_gen.h ****     lv_style_value_t v = lv_obj_get_style_prop(obj, part, LV_STYLE_TRANSFORM_HEIGHT);
  64:Drivers/lvgl/src/widgets/../core/lv_obj_style_gen.h ****     return (lv_coord_t)v.num;
  65:Drivers/lvgl/src/widgets/../core/lv_obj_style_gen.h **** }
  66:Drivers/lvgl/src/widgets/../core/lv_obj_style_gen.h **** 
  67:Drivers/lvgl/src/widgets/../core/lv_obj_style_gen.h **** static inline lv_coord_t lv_obj_get_style_translate_x(const struct _lv_obj_t * obj, uint32_t part)
  68:Drivers/lvgl/src/widgets/../core/lv_obj_style_gen.h **** {
  69:Drivers/lvgl/src/widgets/../core/lv_obj_style_gen.h ****     lv_style_value_t v = lv_obj_get_style_prop(obj, part, LV_STYLE_TRANSLATE_X);
  70:Drivers/lvgl/src/widgets/../core/lv_obj_style_gen.h ****     return (lv_coord_t)v.num;
  71:Drivers/lvgl/src/widgets/../core/lv_obj_style_gen.h **** }
  72:Drivers/lvgl/src/widgets/../core/lv_obj_style_gen.h **** 
  73:Drivers/lvgl/src/widgets/../core/lv_obj_style_gen.h **** static inline lv_coord_t lv_obj_get_style_translate_y(const struct _lv_obj_t * obj, uint32_t part)
  74:Drivers/lvgl/src/widgets/../core/lv_obj_style_gen.h **** {
  75:Drivers/lvgl/src/widgets/../core/lv_obj_style_gen.h ****     lv_style_value_t v = lv_obj_get_style_prop(obj, part, LV_STYLE_TRANSLATE_Y);
  76:Drivers/lvgl/src/widgets/../core/lv_obj_style_gen.h ****     return (lv_coord_t)v.num;
  77:Drivers/lvgl/src/widgets/../core/lv_obj_style_gen.h **** }
  78:Drivers/lvgl/src/widgets/../core/lv_obj_style_gen.h **** 
  79:Drivers/lvgl/src/widgets/../core/lv_obj_style_gen.h **** static inline lv_coord_t lv_obj_get_style_transform_zoom(const struct _lv_obj_t * obj, uint32_t par
  80:Drivers/lvgl/src/widgets/../core/lv_obj_style_gen.h **** {
  81:Drivers/lvgl/src/widgets/../core/lv_obj_style_gen.h ****     lv_style_value_t v = lv_obj_get_style_prop(obj, part, LV_STYLE_TRANSFORM_ZOOM);
  82:Drivers/lvgl/src/widgets/../core/lv_obj_style_gen.h ****     return (lv_coord_t)v.num;
  83:Drivers/lvgl/src/widgets/../core/lv_obj_style_gen.h **** }
  84:Drivers/lvgl/src/widgets/../core/lv_obj_style_gen.h **** 
  85:Drivers/lvgl/src/widgets/../core/lv_obj_style_gen.h **** static inline lv_coord_t lv_obj_get_style_transform_angle(const struct _lv_obj_t * obj, uint32_t pa
  86:Drivers/lvgl/src/widgets/../core/lv_obj_style_gen.h **** {
  87:Drivers/lvgl/src/widgets/../core/lv_obj_style_gen.h ****     lv_style_value_t v = lv_obj_get_style_prop(obj, part, LV_STYLE_TRANSFORM_ANGLE);
  88:Drivers/lvgl/src/widgets/../core/lv_obj_style_gen.h ****     return (lv_coord_t)v.num;
  89:Drivers/lvgl/src/widgets/../core/lv_obj_style_gen.h **** }
  90:Drivers/lvgl/src/widgets/../core/lv_obj_style_gen.h **** 
  91:Drivers/lvgl/src/widgets/../core/lv_obj_style_gen.h **** static inline lv_coord_t lv_obj_get_style_transform_pivot_x(const struct _lv_obj_t * obj, uint32_t 
  92:Drivers/lvgl/src/widgets/../core/lv_obj_style_gen.h **** {
  93:Drivers/lvgl/src/widgets/../core/lv_obj_style_gen.h ****     lv_style_value_t v = lv_obj_get_style_prop(obj, part, LV_STYLE_TRANSFORM_PIVOT_X);
  94:Drivers/lvgl/src/widgets/../core/lv_obj_style_gen.h ****     return (lv_coord_t)v.num;
  95:Drivers/lvgl/src/widgets/../core/lv_obj_style_gen.h **** }
  96:Drivers/lvgl/src/widgets/../core/lv_obj_style_gen.h **** 
  97:Drivers/lvgl/src/widgets/../core/lv_obj_style_gen.h **** static inline lv_coord_t lv_obj_get_style_transform_pivot_y(const struct _lv_obj_t * obj, uint32_t 
  98:Drivers/lvgl/src/widgets/../core/lv_obj_style_gen.h **** {
  99:Drivers/lvgl/src/widgets/../core/lv_obj_style_gen.h ****     lv_style_value_t v = lv_obj_get_style_prop(obj, part, LV_STYLE_TRANSFORM_PIVOT_Y);
 100:Drivers/lvgl/src/widgets/../core/lv_obj_style_gen.h ****     return (lv_coord_t)v.num;
 101:Drivers/lvgl/src/widgets/../core/lv_obj_style_gen.h **** }
 102:Drivers/lvgl/src/widgets/../core/lv_obj_style_gen.h **** 
 103:Drivers/lvgl/src/widgets/../core/lv_obj_style_gen.h **** static inline lv_coord_t lv_obj_get_style_pad_top(const struct _lv_obj_t * obj, uint32_t part)
 104:Drivers/lvgl/src/widgets/../core/lv_obj_style_gen.h **** {
 105:Drivers/lvgl/src/widgets/../core/lv_obj_style_gen.h ****     lv_style_value_t v = lv_obj_get_style_prop(obj, part, LV_STYLE_PAD_TOP);
 106:Drivers/lvgl/src/widgets/../core/lv_obj_style_gen.h ****     return (lv_coord_t)v.num;
 107:Drivers/lvgl/src/widgets/../core/lv_obj_style_gen.h **** }
 108:Drivers/lvgl/src/widgets/../core/lv_obj_style_gen.h **** 
 109:Drivers/lvgl/src/widgets/../core/lv_obj_style_gen.h **** static inline lv_coord_t lv_obj_get_style_pad_bottom(const struct _lv_obj_t * obj, uint32_t part)
 110:Drivers/lvgl/src/widgets/../core/lv_obj_style_gen.h **** {
 111:Drivers/lvgl/src/widgets/../core/lv_obj_style_gen.h ****     lv_style_value_t v = lv_obj_get_style_prop(obj, part, LV_STYLE_PAD_BOTTOM);
 112:Drivers/lvgl/src/widgets/../core/lv_obj_style_gen.h ****     return (lv_coord_t)v.num;
 113:Drivers/lvgl/src/widgets/../core/lv_obj_style_gen.h **** }
 114:Drivers/lvgl/src/widgets/../core/lv_obj_style_gen.h **** 
 115:Drivers/lvgl/src/widgets/../core/lv_obj_style_gen.h **** static inline lv_coord_t lv_obj_get_style_pad_left(const struct _lv_obj_t * obj, uint32_t part)
 116:Drivers/lvgl/src/widgets/../core/lv_obj_style_gen.h **** {
 117:Drivers/lvgl/src/widgets/../core/lv_obj_style_gen.h ****     lv_style_value_t v = lv_obj_get_style_prop(obj, part, LV_STYLE_PAD_LEFT);
 118:Drivers/lvgl/src/widgets/../core/lv_obj_style_gen.h ****     return (lv_coord_t)v.num;
ARM GAS  /var/folders/lp/x54gwt890xv47sdkqj1k04q40000gn/T//cczFasrC.s 			page 26


 119:Drivers/lvgl/src/widgets/../core/lv_obj_style_gen.h **** }
 120:Drivers/lvgl/src/widgets/../core/lv_obj_style_gen.h **** 
 121:Drivers/lvgl/src/widgets/../core/lv_obj_style_gen.h **** static inline lv_coord_t lv_obj_get_style_pad_right(const struct _lv_obj_t * obj, uint32_t part)
 122:Drivers/lvgl/src/widgets/../core/lv_obj_style_gen.h **** {
 123:Drivers/lvgl/src/widgets/../core/lv_obj_style_gen.h ****     lv_style_value_t v = lv_obj_get_style_prop(obj, part, LV_STYLE_PAD_RIGHT);
 124:Drivers/lvgl/src/widgets/../core/lv_obj_style_gen.h ****     return (lv_coord_t)v.num;
 125:Drivers/lvgl/src/widgets/../core/lv_obj_style_gen.h **** }
 126:Drivers/lvgl/src/widgets/../core/lv_obj_style_gen.h **** 
 127:Drivers/lvgl/src/widgets/../core/lv_obj_style_gen.h **** static inline lv_coord_t lv_obj_get_style_pad_row(const struct _lv_obj_t * obj, uint32_t part)
 128:Drivers/lvgl/src/widgets/../core/lv_obj_style_gen.h **** {
 129:Drivers/lvgl/src/widgets/../core/lv_obj_style_gen.h ****     lv_style_value_t v = lv_obj_get_style_prop(obj, part, LV_STYLE_PAD_ROW);
 130:Drivers/lvgl/src/widgets/../core/lv_obj_style_gen.h ****     return (lv_coord_t)v.num;
 131:Drivers/lvgl/src/widgets/../core/lv_obj_style_gen.h **** }
 132:Drivers/lvgl/src/widgets/../core/lv_obj_style_gen.h **** 
 133:Drivers/lvgl/src/widgets/../core/lv_obj_style_gen.h **** static inline lv_coord_t lv_obj_get_style_pad_column(const struct _lv_obj_t * obj, uint32_t part)
 134:Drivers/lvgl/src/widgets/../core/lv_obj_style_gen.h **** {
 135:Drivers/lvgl/src/widgets/../core/lv_obj_style_gen.h ****     lv_style_value_t v = lv_obj_get_style_prop(obj, part, LV_STYLE_PAD_COLUMN);
 136:Drivers/lvgl/src/widgets/../core/lv_obj_style_gen.h ****     return (lv_coord_t)v.num;
 137:Drivers/lvgl/src/widgets/../core/lv_obj_style_gen.h **** }
 138:Drivers/lvgl/src/widgets/../core/lv_obj_style_gen.h **** 
 139:Drivers/lvgl/src/widgets/../core/lv_obj_style_gen.h **** static inline lv_color_t lv_obj_get_style_bg_color(const struct _lv_obj_t * obj, uint32_t part)
 140:Drivers/lvgl/src/widgets/../core/lv_obj_style_gen.h **** {
 141:Drivers/lvgl/src/widgets/../core/lv_obj_style_gen.h ****     lv_style_value_t v = lv_obj_get_style_prop(obj, part, LV_STYLE_BG_COLOR);
 142:Drivers/lvgl/src/widgets/../core/lv_obj_style_gen.h ****     return v.color;
 143:Drivers/lvgl/src/widgets/../core/lv_obj_style_gen.h **** }
 144:Drivers/lvgl/src/widgets/../core/lv_obj_style_gen.h **** 
 145:Drivers/lvgl/src/widgets/../core/lv_obj_style_gen.h **** static inline lv_color_t lv_obj_get_style_bg_color_filtered(const struct _lv_obj_t * obj, uint32_t 
 146:Drivers/lvgl/src/widgets/../core/lv_obj_style_gen.h **** {
 147:Drivers/lvgl/src/widgets/../core/lv_obj_style_gen.h ****     lv_style_value_t v = _lv_obj_style_apply_color_filter(obj, part, lv_obj_get_style_prop(obj, par
 148:Drivers/lvgl/src/widgets/../core/lv_obj_style_gen.h ****     return v.color;
 149:Drivers/lvgl/src/widgets/../core/lv_obj_style_gen.h **** }
 150:Drivers/lvgl/src/widgets/../core/lv_obj_style_gen.h **** 
 151:Drivers/lvgl/src/widgets/../core/lv_obj_style_gen.h **** static inline lv_opa_t lv_obj_get_style_bg_opa(const struct _lv_obj_t * obj, uint32_t part)
 152:Drivers/lvgl/src/widgets/../core/lv_obj_style_gen.h **** {
 153:Drivers/lvgl/src/widgets/../core/lv_obj_style_gen.h ****     lv_style_value_t v = lv_obj_get_style_prop(obj, part, LV_STYLE_BG_OPA);
 154:Drivers/lvgl/src/widgets/../core/lv_obj_style_gen.h ****     return (lv_opa_t)v.num;
 155:Drivers/lvgl/src/widgets/../core/lv_obj_style_gen.h **** }
 156:Drivers/lvgl/src/widgets/../core/lv_obj_style_gen.h **** 
 157:Drivers/lvgl/src/widgets/../core/lv_obj_style_gen.h **** static inline lv_color_t lv_obj_get_style_bg_grad_color(const struct _lv_obj_t * obj, uint32_t part
 158:Drivers/lvgl/src/widgets/../core/lv_obj_style_gen.h **** {
 159:Drivers/lvgl/src/widgets/../core/lv_obj_style_gen.h ****     lv_style_value_t v = lv_obj_get_style_prop(obj, part, LV_STYLE_BG_GRAD_COLOR);
 160:Drivers/lvgl/src/widgets/../core/lv_obj_style_gen.h ****     return v.color;
 161:Drivers/lvgl/src/widgets/../core/lv_obj_style_gen.h **** }
 162:Drivers/lvgl/src/widgets/../core/lv_obj_style_gen.h **** 
 163:Drivers/lvgl/src/widgets/../core/lv_obj_style_gen.h **** static inline lv_color_t lv_obj_get_style_bg_grad_color_filtered(const struct _lv_obj_t * obj, uint
 164:Drivers/lvgl/src/widgets/../core/lv_obj_style_gen.h **** {
 165:Drivers/lvgl/src/widgets/../core/lv_obj_style_gen.h ****     lv_style_value_t v = _lv_obj_style_apply_color_filter(obj, part, lv_obj_get_style_prop(obj, par
 166:Drivers/lvgl/src/widgets/../core/lv_obj_style_gen.h ****     return v.color;
 167:Drivers/lvgl/src/widgets/../core/lv_obj_style_gen.h **** }
 168:Drivers/lvgl/src/widgets/../core/lv_obj_style_gen.h **** 
 169:Drivers/lvgl/src/widgets/../core/lv_obj_style_gen.h **** static inline lv_grad_dir_t lv_obj_get_style_bg_grad_dir(const struct _lv_obj_t * obj, uint32_t par
 170:Drivers/lvgl/src/widgets/../core/lv_obj_style_gen.h **** {
 171:Drivers/lvgl/src/widgets/../core/lv_obj_style_gen.h ****     lv_style_value_t v = lv_obj_get_style_prop(obj, part, LV_STYLE_BG_GRAD_DIR);
 172:Drivers/lvgl/src/widgets/../core/lv_obj_style_gen.h ****     return (lv_grad_dir_t)v.num;
 173:Drivers/lvgl/src/widgets/../core/lv_obj_style_gen.h **** }
 174:Drivers/lvgl/src/widgets/../core/lv_obj_style_gen.h **** 
 175:Drivers/lvgl/src/widgets/../core/lv_obj_style_gen.h **** static inline lv_coord_t lv_obj_get_style_bg_main_stop(const struct _lv_obj_t * obj, uint32_t part)
ARM GAS  /var/folders/lp/x54gwt890xv47sdkqj1k04q40000gn/T//cczFasrC.s 			page 27


 176:Drivers/lvgl/src/widgets/../core/lv_obj_style_gen.h **** {
 177:Drivers/lvgl/src/widgets/../core/lv_obj_style_gen.h ****     lv_style_value_t v = lv_obj_get_style_prop(obj, part, LV_STYLE_BG_MAIN_STOP);
 178:Drivers/lvgl/src/widgets/../core/lv_obj_style_gen.h ****     return (lv_coord_t)v.num;
 179:Drivers/lvgl/src/widgets/../core/lv_obj_style_gen.h **** }
 180:Drivers/lvgl/src/widgets/../core/lv_obj_style_gen.h **** 
 181:Drivers/lvgl/src/widgets/../core/lv_obj_style_gen.h **** static inline lv_coord_t lv_obj_get_style_bg_grad_stop(const struct _lv_obj_t * obj, uint32_t part)
 182:Drivers/lvgl/src/widgets/../core/lv_obj_style_gen.h **** {
 183:Drivers/lvgl/src/widgets/../core/lv_obj_style_gen.h ****     lv_style_value_t v = lv_obj_get_style_prop(obj, part, LV_STYLE_BG_GRAD_STOP);
 184:Drivers/lvgl/src/widgets/../core/lv_obj_style_gen.h ****     return (lv_coord_t)v.num;
 185:Drivers/lvgl/src/widgets/../core/lv_obj_style_gen.h **** }
 186:Drivers/lvgl/src/widgets/../core/lv_obj_style_gen.h **** 
 187:Drivers/lvgl/src/widgets/../core/lv_obj_style_gen.h **** static inline const lv_grad_dsc_t * lv_obj_get_style_bg_grad(const struct _lv_obj_t * obj, uint32_t
 188:Drivers/lvgl/src/widgets/../core/lv_obj_style_gen.h **** {
 189:Drivers/lvgl/src/widgets/../core/lv_obj_style_gen.h ****     lv_style_value_t v = lv_obj_get_style_prop(obj, part, LV_STYLE_BG_GRAD);
 190:Drivers/lvgl/src/widgets/../core/lv_obj_style_gen.h ****     return (const lv_grad_dsc_t *)v.ptr;
 191:Drivers/lvgl/src/widgets/../core/lv_obj_style_gen.h **** }
 192:Drivers/lvgl/src/widgets/../core/lv_obj_style_gen.h **** 
 193:Drivers/lvgl/src/widgets/../core/lv_obj_style_gen.h **** static inline lv_dither_mode_t lv_obj_get_style_bg_dither_mode(const struct _lv_obj_t * obj, uint32
 194:Drivers/lvgl/src/widgets/../core/lv_obj_style_gen.h **** {
 195:Drivers/lvgl/src/widgets/../core/lv_obj_style_gen.h ****     lv_style_value_t v = lv_obj_get_style_prop(obj, part, LV_STYLE_BG_DITHER_MODE);
 196:Drivers/lvgl/src/widgets/../core/lv_obj_style_gen.h ****     return (lv_dither_mode_t)v.num;
 197:Drivers/lvgl/src/widgets/../core/lv_obj_style_gen.h **** }
 198:Drivers/lvgl/src/widgets/../core/lv_obj_style_gen.h **** 
 199:Drivers/lvgl/src/widgets/../core/lv_obj_style_gen.h **** static inline const void * lv_obj_get_style_bg_img_src(const struct _lv_obj_t * obj, uint32_t part)
 200:Drivers/lvgl/src/widgets/../core/lv_obj_style_gen.h **** {
 201:Drivers/lvgl/src/widgets/../core/lv_obj_style_gen.h ****     lv_style_value_t v = lv_obj_get_style_prop(obj, part, LV_STYLE_BG_IMG_SRC);
 202:Drivers/lvgl/src/widgets/../core/lv_obj_style_gen.h ****     return (const void *)v.ptr;
 203:Drivers/lvgl/src/widgets/../core/lv_obj_style_gen.h **** }
 204:Drivers/lvgl/src/widgets/../core/lv_obj_style_gen.h **** 
 205:Drivers/lvgl/src/widgets/../core/lv_obj_style_gen.h **** static inline lv_opa_t lv_obj_get_style_bg_img_opa(const struct _lv_obj_t * obj, uint32_t part)
 206:Drivers/lvgl/src/widgets/../core/lv_obj_style_gen.h **** {
 207:Drivers/lvgl/src/widgets/../core/lv_obj_style_gen.h ****     lv_style_value_t v = lv_obj_get_style_prop(obj, part, LV_STYLE_BG_IMG_OPA);
 208:Drivers/lvgl/src/widgets/../core/lv_obj_style_gen.h ****     return (lv_opa_t)v.num;
 209:Drivers/lvgl/src/widgets/../core/lv_obj_style_gen.h **** }
 210:Drivers/lvgl/src/widgets/../core/lv_obj_style_gen.h **** 
 211:Drivers/lvgl/src/widgets/../core/lv_obj_style_gen.h **** static inline lv_color_t lv_obj_get_style_bg_img_recolor(const struct _lv_obj_t * obj, uint32_t par
 212:Drivers/lvgl/src/widgets/../core/lv_obj_style_gen.h **** {
 213:Drivers/lvgl/src/widgets/../core/lv_obj_style_gen.h ****     lv_style_value_t v = lv_obj_get_style_prop(obj, part, LV_STYLE_BG_IMG_RECOLOR);
 214:Drivers/lvgl/src/widgets/../core/lv_obj_style_gen.h ****     return v.color;
 215:Drivers/lvgl/src/widgets/../core/lv_obj_style_gen.h **** }
 216:Drivers/lvgl/src/widgets/../core/lv_obj_style_gen.h **** 
 217:Drivers/lvgl/src/widgets/../core/lv_obj_style_gen.h **** static inline lv_color_t lv_obj_get_style_bg_img_recolor_filtered(const struct _lv_obj_t * obj, uin
 218:Drivers/lvgl/src/widgets/../core/lv_obj_style_gen.h **** {
 219:Drivers/lvgl/src/widgets/../core/lv_obj_style_gen.h ****     lv_style_value_t v = _lv_obj_style_apply_color_filter(obj, part, lv_obj_get_style_prop(obj, par
 220:Drivers/lvgl/src/widgets/../core/lv_obj_style_gen.h ****     return v.color;
 221:Drivers/lvgl/src/widgets/../core/lv_obj_style_gen.h **** }
 222:Drivers/lvgl/src/widgets/../core/lv_obj_style_gen.h **** 
 223:Drivers/lvgl/src/widgets/../core/lv_obj_style_gen.h **** static inline lv_opa_t lv_obj_get_style_bg_img_recolor_opa(const struct _lv_obj_t * obj, uint32_t p
 224:Drivers/lvgl/src/widgets/../core/lv_obj_style_gen.h **** {
 225:Drivers/lvgl/src/widgets/../core/lv_obj_style_gen.h ****     lv_style_value_t v = lv_obj_get_style_prop(obj, part, LV_STYLE_BG_IMG_RECOLOR_OPA);
 226:Drivers/lvgl/src/widgets/../core/lv_obj_style_gen.h ****     return (lv_opa_t)v.num;
 227:Drivers/lvgl/src/widgets/../core/lv_obj_style_gen.h **** }
 228:Drivers/lvgl/src/widgets/../core/lv_obj_style_gen.h **** 
 229:Drivers/lvgl/src/widgets/../core/lv_obj_style_gen.h **** static inline bool lv_obj_get_style_bg_img_tiled(const struct _lv_obj_t * obj, uint32_t part)
 230:Drivers/lvgl/src/widgets/../core/lv_obj_style_gen.h **** {
 231:Drivers/lvgl/src/widgets/../core/lv_obj_style_gen.h ****     lv_style_value_t v = lv_obj_get_style_prop(obj, part, LV_STYLE_BG_IMG_TILED);
 232:Drivers/lvgl/src/widgets/../core/lv_obj_style_gen.h ****     return (bool)v.num;
ARM GAS  /var/folders/lp/x54gwt890xv47sdkqj1k04q40000gn/T//cczFasrC.s 			page 28


 233:Drivers/lvgl/src/widgets/../core/lv_obj_style_gen.h **** }
 234:Drivers/lvgl/src/widgets/../core/lv_obj_style_gen.h **** 
 235:Drivers/lvgl/src/widgets/../core/lv_obj_style_gen.h **** static inline lv_color_t lv_obj_get_style_border_color(const struct _lv_obj_t * obj, uint32_t part)
 236:Drivers/lvgl/src/widgets/../core/lv_obj_style_gen.h **** {
 237:Drivers/lvgl/src/widgets/../core/lv_obj_style_gen.h ****     lv_style_value_t v = lv_obj_get_style_prop(obj, part, LV_STYLE_BORDER_COLOR);
 238:Drivers/lvgl/src/widgets/../core/lv_obj_style_gen.h ****     return v.color;
 239:Drivers/lvgl/src/widgets/../core/lv_obj_style_gen.h **** }
 240:Drivers/lvgl/src/widgets/../core/lv_obj_style_gen.h **** 
 241:Drivers/lvgl/src/widgets/../core/lv_obj_style_gen.h **** static inline lv_color_t lv_obj_get_style_border_color_filtered(const struct _lv_obj_t * obj, uint3
 242:Drivers/lvgl/src/widgets/../core/lv_obj_style_gen.h **** {
 243:Drivers/lvgl/src/widgets/../core/lv_obj_style_gen.h ****     lv_style_value_t v = _lv_obj_style_apply_color_filter(obj, part, lv_obj_get_style_prop(obj, par
 244:Drivers/lvgl/src/widgets/../core/lv_obj_style_gen.h ****     return v.color;
 245:Drivers/lvgl/src/widgets/../core/lv_obj_style_gen.h **** }
 246:Drivers/lvgl/src/widgets/../core/lv_obj_style_gen.h **** 
 247:Drivers/lvgl/src/widgets/../core/lv_obj_style_gen.h **** static inline lv_opa_t lv_obj_get_style_border_opa(const struct _lv_obj_t * obj, uint32_t part)
 248:Drivers/lvgl/src/widgets/../core/lv_obj_style_gen.h **** {
 249:Drivers/lvgl/src/widgets/../core/lv_obj_style_gen.h ****     lv_style_value_t v = lv_obj_get_style_prop(obj, part, LV_STYLE_BORDER_OPA);
 250:Drivers/lvgl/src/widgets/../core/lv_obj_style_gen.h ****     return (lv_opa_t)v.num;
 251:Drivers/lvgl/src/widgets/../core/lv_obj_style_gen.h **** }
 252:Drivers/lvgl/src/widgets/../core/lv_obj_style_gen.h **** 
 253:Drivers/lvgl/src/widgets/../core/lv_obj_style_gen.h **** static inline lv_coord_t lv_obj_get_style_border_width(const struct _lv_obj_t * obj, uint32_t part)
 254:Drivers/lvgl/src/widgets/../core/lv_obj_style_gen.h **** {
 255:Drivers/lvgl/src/widgets/../core/lv_obj_style_gen.h ****     lv_style_value_t v = lv_obj_get_style_prop(obj, part, LV_STYLE_BORDER_WIDTH);
 256:Drivers/lvgl/src/widgets/../core/lv_obj_style_gen.h ****     return (lv_coord_t)v.num;
 257:Drivers/lvgl/src/widgets/../core/lv_obj_style_gen.h **** }
 258:Drivers/lvgl/src/widgets/../core/lv_obj_style_gen.h **** 
 259:Drivers/lvgl/src/widgets/../core/lv_obj_style_gen.h **** static inline lv_border_side_t lv_obj_get_style_border_side(const struct _lv_obj_t * obj, uint32_t 
 260:Drivers/lvgl/src/widgets/../core/lv_obj_style_gen.h **** {
 261:Drivers/lvgl/src/widgets/../core/lv_obj_style_gen.h ****     lv_style_value_t v = lv_obj_get_style_prop(obj, part, LV_STYLE_BORDER_SIDE);
 262:Drivers/lvgl/src/widgets/../core/lv_obj_style_gen.h ****     return (lv_border_side_t)v.num;
 263:Drivers/lvgl/src/widgets/../core/lv_obj_style_gen.h **** }
 264:Drivers/lvgl/src/widgets/../core/lv_obj_style_gen.h **** 
 265:Drivers/lvgl/src/widgets/../core/lv_obj_style_gen.h **** static inline bool lv_obj_get_style_border_post(const struct _lv_obj_t * obj, uint32_t part)
 266:Drivers/lvgl/src/widgets/../core/lv_obj_style_gen.h **** {
 267:Drivers/lvgl/src/widgets/../core/lv_obj_style_gen.h ****     lv_style_value_t v = lv_obj_get_style_prop(obj, part, LV_STYLE_BORDER_POST);
 268:Drivers/lvgl/src/widgets/../core/lv_obj_style_gen.h ****     return (bool)v.num;
 269:Drivers/lvgl/src/widgets/../core/lv_obj_style_gen.h **** }
 270:Drivers/lvgl/src/widgets/../core/lv_obj_style_gen.h **** 
 271:Drivers/lvgl/src/widgets/../core/lv_obj_style_gen.h **** static inline lv_coord_t lv_obj_get_style_outline_width(const struct _lv_obj_t * obj, uint32_t part
 272:Drivers/lvgl/src/widgets/../core/lv_obj_style_gen.h **** {
 273:Drivers/lvgl/src/widgets/../core/lv_obj_style_gen.h ****     lv_style_value_t v = lv_obj_get_style_prop(obj, part, LV_STYLE_OUTLINE_WIDTH);
 274:Drivers/lvgl/src/widgets/../core/lv_obj_style_gen.h ****     return (lv_coord_t)v.num;
 275:Drivers/lvgl/src/widgets/../core/lv_obj_style_gen.h **** }
 276:Drivers/lvgl/src/widgets/../core/lv_obj_style_gen.h **** 
 277:Drivers/lvgl/src/widgets/../core/lv_obj_style_gen.h **** static inline lv_color_t lv_obj_get_style_outline_color(const struct _lv_obj_t * obj, uint32_t part
 278:Drivers/lvgl/src/widgets/../core/lv_obj_style_gen.h **** {
 279:Drivers/lvgl/src/widgets/../core/lv_obj_style_gen.h ****     lv_style_value_t v = lv_obj_get_style_prop(obj, part, LV_STYLE_OUTLINE_COLOR);
 280:Drivers/lvgl/src/widgets/../core/lv_obj_style_gen.h ****     return v.color;
 281:Drivers/lvgl/src/widgets/../core/lv_obj_style_gen.h **** }
 282:Drivers/lvgl/src/widgets/../core/lv_obj_style_gen.h **** 
 283:Drivers/lvgl/src/widgets/../core/lv_obj_style_gen.h **** static inline lv_color_t lv_obj_get_style_outline_color_filtered(const struct _lv_obj_t * obj, uint
 284:Drivers/lvgl/src/widgets/../core/lv_obj_style_gen.h **** {
 285:Drivers/lvgl/src/widgets/../core/lv_obj_style_gen.h ****     lv_style_value_t v = _lv_obj_style_apply_color_filter(obj, part, lv_obj_get_style_prop(obj, par
 286:Drivers/lvgl/src/widgets/../core/lv_obj_style_gen.h ****     return v.color;
 287:Drivers/lvgl/src/widgets/../core/lv_obj_style_gen.h **** }
 288:Drivers/lvgl/src/widgets/../core/lv_obj_style_gen.h **** 
 289:Drivers/lvgl/src/widgets/../core/lv_obj_style_gen.h **** static inline lv_opa_t lv_obj_get_style_outline_opa(const struct _lv_obj_t * obj, uint32_t part)
ARM GAS  /var/folders/lp/x54gwt890xv47sdkqj1k04q40000gn/T//cczFasrC.s 			page 29


 290:Drivers/lvgl/src/widgets/../core/lv_obj_style_gen.h **** {
 291:Drivers/lvgl/src/widgets/../core/lv_obj_style_gen.h ****     lv_style_value_t v = lv_obj_get_style_prop(obj, part, LV_STYLE_OUTLINE_OPA);
 292:Drivers/lvgl/src/widgets/../core/lv_obj_style_gen.h ****     return (lv_opa_t)v.num;
 293:Drivers/lvgl/src/widgets/../core/lv_obj_style_gen.h **** }
 294:Drivers/lvgl/src/widgets/../core/lv_obj_style_gen.h **** 
 295:Drivers/lvgl/src/widgets/../core/lv_obj_style_gen.h **** static inline lv_coord_t lv_obj_get_style_outline_pad(const struct _lv_obj_t * obj, uint32_t part)
 296:Drivers/lvgl/src/widgets/../core/lv_obj_style_gen.h **** {
 297:Drivers/lvgl/src/widgets/../core/lv_obj_style_gen.h ****     lv_style_value_t v = lv_obj_get_style_prop(obj, part, LV_STYLE_OUTLINE_PAD);
 298:Drivers/lvgl/src/widgets/../core/lv_obj_style_gen.h ****     return (lv_coord_t)v.num;
 299:Drivers/lvgl/src/widgets/../core/lv_obj_style_gen.h **** }
 300:Drivers/lvgl/src/widgets/../core/lv_obj_style_gen.h **** 
 301:Drivers/lvgl/src/widgets/../core/lv_obj_style_gen.h **** static inline lv_coord_t lv_obj_get_style_shadow_width(const struct _lv_obj_t * obj, uint32_t part)
 302:Drivers/lvgl/src/widgets/../core/lv_obj_style_gen.h **** {
 303:Drivers/lvgl/src/widgets/../core/lv_obj_style_gen.h ****     lv_style_value_t v = lv_obj_get_style_prop(obj, part, LV_STYLE_SHADOW_WIDTH);
 304:Drivers/lvgl/src/widgets/../core/lv_obj_style_gen.h ****     return (lv_coord_t)v.num;
 305:Drivers/lvgl/src/widgets/../core/lv_obj_style_gen.h **** }
 306:Drivers/lvgl/src/widgets/../core/lv_obj_style_gen.h **** 
 307:Drivers/lvgl/src/widgets/../core/lv_obj_style_gen.h **** static inline lv_coord_t lv_obj_get_style_shadow_ofs_x(const struct _lv_obj_t * obj, uint32_t part)
 308:Drivers/lvgl/src/widgets/../core/lv_obj_style_gen.h **** {
 309:Drivers/lvgl/src/widgets/../core/lv_obj_style_gen.h ****     lv_style_value_t v = lv_obj_get_style_prop(obj, part, LV_STYLE_SHADOW_OFS_X);
 310:Drivers/lvgl/src/widgets/../core/lv_obj_style_gen.h ****     return (lv_coord_t)v.num;
 311:Drivers/lvgl/src/widgets/../core/lv_obj_style_gen.h **** }
 312:Drivers/lvgl/src/widgets/../core/lv_obj_style_gen.h **** 
 313:Drivers/lvgl/src/widgets/../core/lv_obj_style_gen.h **** static inline lv_coord_t lv_obj_get_style_shadow_ofs_y(const struct _lv_obj_t * obj, uint32_t part)
 314:Drivers/lvgl/src/widgets/../core/lv_obj_style_gen.h **** {
 315:Drivers/lvgl/src/widgets/../core/lv_obj_style_gen.h ****     lv_style_value_t v = lv_obj_get_style_prop(obj, part, LV_STYLE_SHADOW_OFS_Y);
 316:Drivers/lvgl/src/widgets/../core/lv_obj_style_gen.h ****     return (lv_coord_t)v.num;
 317:Drivers/lvgl/src/widgets/../core/lv_obj_style_gen.h **** }
 318:Drivers/lvgl/src/widgets/../core/lv_obj_style_gen.h **** 
 319:Drivers/lvgl/src/widgets/../core/lv_obj_style_gen.h **** static inline lv_coord_t lv_obj_get_style_shadow_spread(const struct _lv_obj_t * obj, uint32_t part
 320:Drivers/lvgl/src/widgets/../core/lv_obj_style_gen.h **** {
 321:Drivers/lvgl/src/widgets/../core/lv_obj_style_gen.h ****     lv_style_value_t v = lv_obj_get_style_prop(obj, part, LV_STYLE_SHADOW_SPREAD);
 322:Drivers/lvgl/src/widgets/../core/lv_obj_style_gen.h ****     return (lv_coord_t)v.num;
 323:Drivers/lvgl/src/widgets/../core/lv_obj_style_gen.h **** }
 324:Drivers/lvgl/src/widgets/../core/lv_obj_style_gen.h **** 
 325:Drivers/lvgl/src/widgets/../core/lv_obj_style_gen.h **** static inline lv_color_t lv_obj_get_style_shadow_color(const struct _lv_obj_t * obj, uint32_t part)
 326:Drivers/lvgl/src/widgets/../core/lv_obj_style_gen.h **** {
 327:Drivers/lvgl/src/widgets/../core/lv_obj_style_gen.h ****     lv_style_value_t v = lv_obj_get_style_prop(obj, part, LV_STYLE_SHADOW_COLOR);
 328:Drivers/lvgl/src/widgets/../core/lv_obj_style_gen.h ****     return v.color;
 329:Drivers/lvgl/src/widgets/../core/lv_obj_style_gen.h **** }
 330:Drivers/lvgl/src/widgets/../core/lv_obj_style_gen.h **** 
 331:Drivers/lvgl/src/widgets/../core/lv_obj_style_gen.h **** static inline lv_color_t lv_obj_get_style_shadow_color_filtered(const struct _lv_obj_t * obj, uint3
 332:Drivers/lvgl/src/widgets/../core/lv_obj_style_gen.h **** {
 333:Drivers/lvgl/src/widgets/../core/lv_obj_style_gen.h ****     lv_style_value_t v = _lv_obj_style_apply_color_filter(obj, part, lv_obj_get_style_prop(obj, par
 334:Drivers/lvgl/src/widgets/../core/lv_obj_style_gen.h ****     return v.color;
 335:Drivers/lvgl/src/widgets/../core/lv_obj_style_gen.h **** }
 336:Drivers/lvgl/src/widgets/../core/lv_obj_style_gen.h **** 
 337:Drivers/lvgl/src/widgets/../core/lv_obj_style_gen.h **** static inline lv_opa_t lv_obj_get_style_shadow_opa(const struct _lv_obj_t * obj, uint32_t part)
 338:Drivers/lvgl/src/widgets/../core/lv_obj_style_gen.h **** {
 339:Drivers/lvgl/src/widgets/../core/lv_obj_style_gen.h ****     lv_style_value_t v = lv_obj_get_style_prop(obj, part, LV_STYLE_SHADOW_OPA);
 340:Drivers/lvgl/src/widgets/../core/lv_obj_style_gen.h ****     return (lv_opa_t)v.num;
 341:Drivers/lvgl/src/widgets/../core/lv_obj_style_gen.h **** }
 342:Drivers/lvgl/src/widgets/../core/lv_obj_style_gen.h **** 
 343:Drivers/lvgl/src/widgets/../core/lv_obj_style_gen.h **** static inline lv_opa_t lv_obj_get_style_img_opa(const struct _lv_obj_t * obj, uint32_t part)
 344:Drivers/lvgl/src/widgets/../core/lv_obj_style_gen.h **** {
 345:Drivers/lvgl/src/widgets/../core/lv_obj_style_gen.h ****     lv_style_value_t v = lv_obj_get_style_prop(obj, part, LV_STYLE_IMG_OPA);
 346:Drivers/lvgl/src/widgets/../core/lv_obj_style_gen.h ****     return (lv_opa_t)v.num;
ARM GAS  /var/folders/lp/x54gwt890xv47sdkqj1k04q40000gn/T//cczFasrC.s 			page 30


 347:Drivers/lvgl/src/widgets/../core/lv_obj_style_gen.h **** }
 348:Drivers/lvgl/src/widgets/../core/lv_obj_style_gen.h **** 
 349:Drivers/lvgl/src/widgets/../core/lv_obj_style_gen.h **** static inline lv_color_t lv_obj_get_style_img_recolor(const struct _lv_obj_t * obj, uint32_t part)
 350:Drivers/lvgl/src/widgets/../core/lv_obj_style_gen.h **** {
 351:Drivers/lvgl/src/widgets/../core/lv_obj_style_gen.h ****     lv_style_value_t v = lv_obj_get_style_prop(obj, part, LV_STYLE_IMG_RECOLOR);
 352:Drivers/lvgl/src/widgets/../core/lv_obj_style_gen.h ****     return v.color;
 353:Drivers/lvgl/src/widgets/../core/lv_obj_style_gen.h **** }
 354:Drivers/lvgl/src/widgets/../core/lv_obj_style_gen.h **** 
 355:Drivers/lvgl/src/widgets/../core/lv_obj_style_gen.h **** static inline lv_color_t lv_obj_get_style_img_recolor_filtered(const struct _lv_obj_t * obj, uint32
 356:Drivers/lvgl/src/widgets/../core/lv_obj_style_gen.h **** {
 357:Drivers/lvgl/src/widgets/../core/lv_obj_style_gen.h ****     lv_style_value_t v = _lv_obj_style_apply_color_filter(obj, part, lv_obj_get_style_prop(obj, par
 358:Drivers/lvgl/src/widgets/../core/lv_obj_style_gen.h ****     return v.color;
 359:Drivers/lvgl/src/widgets/../core/lv_obj_style_gen.h **** }
 360:Drivers/lvgl/src/widgets/../core/lv_obj_style_gen.h **** 
 361:Drivers/lvgl/src/widgets/../core/lv_obj_style_gen.h **** static inline lv_opa_t lv_obj_get_style_img_recolor_opa(const struct _lv_obj_t * obj, uint32_t part
 362:Drivers/lvgl/src/widgets/../core/lv_obj_style_gen.h **** {
 363:Drivers/lvgl/src/widgets/../core/lv_obj_style_gen.h ****     lv_style_value_t v = lv_obj_get_style_prop(obj, part, LV_STYLE_IMG_RECOLOR_OPA);
 364:Drivers/lvgl/src/widgets/../core/lv_obj_style_gen.h ****     return (lv_opa_t)v.num;
 365:Drivers/lvgl/src/widgets/../core/lv_obj_style_gen.h **** }
 366:Drivers/lvgl/src/widgets/../core/lv_obj_style_gen.h **** 
 367:Drivers/lvgl/src/widgets/../core/lv_obj_style_gen.h **** static inline lv_coord_t lv_obj_get_style_line_width(const struct _lv_obj_t * obj, uint32_t part)
 368:Drivers/lvgl/src/widgets/../core/lv_obj_style_gen.h **** {
 369:Drivers/lvgl/src/widgets/../core/lv_obj_style_gen.h ****     lv_style_value_t v = lv_obj_get_style_prop(obj, part, LV_STYLE_LINE_WIDTH);
 370:Drivers/lvgl/src/widgets/../core/lv_obj_style_gen.h ****     return (lv_coord_t)v.num;
 371:Drivers/lvgl/src/widgets/../core/lv_obj_style_gen.h **** }
 372:Drivers/lvgl/src/widgets/../core/lv_obj_style_gen.h **** 
 373:Drivers/lvgl/src/widgets/../core/lv_obj_style_gen.h **** static inline lv_coord_t lv_obj_get_style_line_dash_width(const struct _lv_obj_t * obj, uint32_t pa
 374:Drivers/lvgl/src/widgets/../core/lv_obj_style_gen.h **** {
 375:Drivers/lvgl/src/widgets/../core/lv_obj_style_gen.h ****     lv_style_value_t v = lv_obj_get_style_prop(obj, part, LV_STYLE_LINE_DASH_WIDTH);
 376:Drivers/lvgl/src/widgets/../core/lv_obj_style_gen.h ****     return (lv_coord_t)v.num;
 377:Drivers/lvgl/src/widgets/../core/lv_obj_style_gen.h **** }
 378:Drivers/lvgl/src/widgets/../core/lv_obj_style_gen.h **** 
 379:Drivers/lvgl/src/widgets/../core/lv_obj_style_gen.h **** static inline lv_coord_t lv_obj_get_style_line_dash_gap(const struct _lv_obj_t * obj, uint32_t part
 380:Drivers/lvgl/src/widgets/../core/lv_obj_style_gen.h **** {
 381:Drivers/lvgl/src/widgets/../core/lv_obj_style_gen.h ****     lv_style_value_t v = lv_obj_get_style_prop(obj, part, LV_STYLE_LINE_DASH_GAP);
 382:Drivers/lvgl/src/widgets/../core/lv_obj_style_gen.h ****     return (lv_coord_t)v.num;
 383:Drivers/lvgl/src/widgets/../core/lv_obj_style_gen.h **** }
 384:Drivers/lvgl/src/widgets/../core/lv_obj_style_gen.h **** 
 385:Drivers/lvgl/src/widgets/../core/lv_obj_style_gen.h **** static inline bool lv_obj_get_style_line_rounded(const struct _lv_obj_t * obj, uint32_t part)
 386:Drivers/lvgl/src/widgets/../core/lv_obj_style_gen.h **** {
 387:Drivers/lvgl/src/widgets/../core/lv_obj_style_gen.h ****     lv_style_value_t v = lv_obj_get_style_prop(obj, part, LV_STYLE_LINE_ROUNDED);
 388:Drivers/lvgl/src/widgets/../core/lv_obj_style_gen.h ****     return (bool)v.num;
 389:Drivers/lvgl/src/widgets/../core/lv_obj_style_gen.h **** }
 390:Drivers/lvgl/src/widgets/../core/lv_obj_style_gen.h **** 
 391:Drivers/lvgl/src/widgets/../core/lv_obj_style_gen.h **** static inline lv_color_t lv_obj_get_style_line_color(const struct _lv_obj_t * obj, uint32_t part)
 392:Drivers/lvgl/src/widgets/../core/lv_obj_style_gen.h **** {
 393:Drivers/lvgl/src/widgets/../core/lv_obj_style_gen.h ****     lv_style_value_t v = lv_obj_get_style_prop(obj, part, LV_STYLE_LINE_COLOR);
 394:Drivers/lvgl/src/widgets/../core/lv_obj_style_gen.h ****     return v.color;
 395:Drivers/lvgl/src/widgets/../core/lv_obj_style_gen.h **** }
 396:Drivers/lvgl/src/widgets/../core/lv_obj_style_gen.h **** 
 397:Drivers/lvgl/src/widgets/../core/lv_obj_style_gen.h **** static inline lv_color_t lv_obj_get_style_line_color_filtered(const struct _lv_obj_t * obj, uint32_
 398:Drivers/lvgl/src/widgets/../core/lv_obj_style_gen.h **** {
 399:Drivers/lvgl/src/widgets/../core/lv_obj_style_gen.h ****     lv_style_value_t v = _lv_obj_style_apply_color_filter(obj, part, lv_obj_get_style_prop(obj, par
 400:Drivers/lvgl/src/widgets/../core/lv_obj_style_gen.h ****     return v.color;
 401:Drivers/lvgl/src/widgets/../core/lv_obj_style_gen.h **** }
 402:Drivers/lvgl/src/widgets/../core/lv_obj_style_gen.h **** 
 403:Drivers/lvgl/src/widgets/../core/lv_obj_style_gen.h **** static inline lv_opa_t lv_obj_get_style_line_opa(const struct _lv_obj_t * obj, uint32_t part)
ARM GAS  /var/folders/lp/x54gwt890xv47sdkqj1k04q40000gn/T//cczFasrC.s 			page 31


 404:Drivers/lvgl/src/widgets/../core/lv_obj_style_gen.h **** {
 405:Drivers/lvgl/src/widgets/../core/lv_obj_style_gen.h ****     lv_style_value_t v = lv_obj_get_style_prop(obj, part, LV_STYLE_LINE_OPA);
 406:Drivers/lvgl/src/widgets/../core/lv_obj_style_gen.h ****     return (lv_opa_t)v.num;
 407:Drivers/lvgl/src/widgets/../core/lv_obj_style_gen.h **** }
 408:Drivers/lvgl/src/widgets/../core/lv_obj_style_gen.h **** 
 409:Drivers/lvgl/src/widgets/../core/lv_obj_style_gen.h **** static inline lv_coord_t lv_obj_get_style_arc_width(const struct _lv_obj_t * obj, uint32_t part)
 410:Drivers/lvgl/src/widgets/../core/lv_obj_style_gen.h **** {
 411:Drivers/lvgl/src/widgets/../core/lv_obj_style_gen.h ****     lv_style_value_t v = lv_obj_get_style_prop(obj, part, LV_STYLE_ARC_WIDTH);
 412:Drivers/lvgl/src/widgets/../core/lv_obj_style_gen.h ****     return (lv_coord_t)v.num;
 413:Drivers/lvgl/src/widgets/../core/lv_obj_style_gen.h **** }
 414:Drivers/lvgl/src/widgets/../core/lv_obj_style_gen.h **** 
 415:Drivers/lvgl/src/widgets/../core/lv_obj_style_gen.h **** static inline bool lv_obj_get_style_arc_rounded(const struct _lv_obj_t * obj, uint32_t part)
 416:Drivers/lvgl/src/widgets/../core/lv_obj_style_gen.h **** {
 417:Drivers/lvgl/src/widgets/../core/lv_obj_style_gen.h ****     lv_style_value_t v = lv_obj_get_style_prop(obj, part, LV_STYLE_ARC_ROUNDED);
 418:Drivers/lvgl/src/widgets/../core/lv_obj_style_gen.h ****     return (bool)v.num;
 419:Drivers/lvgl/src/widgets/../core/lv_obj_style_gen.h **** }
 420:Drivers/lvgl/src/widgets/../core/lv_obj_style_gen.h **** 
 421:Drivers/lvgl/src/widgets/../core/lv_obj_style_gen.h **** static inline lv_color_t lv_obj_get_style_arc_color(const struct _lv_obj_t * obj, uint32_t part)
 422:Drivers/lvgl/src/widgets/../core/lv_obj_style_gen.h **** {
 423:Drivers/lvgl/src/widgets/../core/lv_obj_style_gen.h ****     lv_style_value_t v = lv_obj_get_style_prop(obj, part, LV_STYLE_ARC_COLOR);
 424:Drivers/lvgl/src/widgets/../core/lv_obj_style_gen.h ****     return v.color;
 425:Drivers/lvgl/src/widgets/../core/lv_obj_style_gen.h **** }
 426:Drivers/lvgl/src/widgets/../core/lv_obj_style_gen.h **** 
 427:Drivers/lvgl/src/widgets/../core/lv_obj_style_gen.h **** static inline lv_color_t lv_obj_get_style_arc_color_filtered(const struct _lv_obj_t * obj, uint32_t
 428:Drivers/lvgl/src/widgets/../core/lv_obj_style_gen.h **** {
 429:Drivers/lvgl/src/widgets/../core/lv_obj_style_gen.h ****     lv_style_value_t v = _lv_obj_style_apply_color_filter(obj, part, lv_obj_get_style_prop(obj, par
 430:Drivers/lvgl/src/widgets/../core/lv_obj_style_gen.h ****     return v.color;
 431:Drivers/lvgl/src/widgets/../core/lv_obj_style_gen.h **** }
 432:Drivers/lvgl/src/widgets/../core/lv_obj_style_gen.h **** 
 433:Drivers/lvgl/src/widgets/../core/lv_obj_style_gen.h **** static inline lv_opa_t lv_obj_get_style_arc_opa(const struct _lv_obj_t * obj, uint32_t part)
 434:Drivers/lvgl/src/widgets/../core/lv_obj_style_gen.h **** {
 435:Drivers/lvgl/src/widgets/../core/lv_obj_style_gen.h ****     lv_style_value_t v = lv_obj_get_style_prop(obj, part, LV_STYLE_ARC_OPA);
 436:Drivers/lvgl/src/widgets/../core/lv_obj_style_gen.h ****     return (lv_opa_t)v.num;
 437:Drivers/lvgl/src/widgets/../core/lv_obj_style_gen.h **** }
 438:Drivers/lvgl/src/widgets/../core/lv_obj_style_gen.h **** 
 439:Drivers/lvgl/src/widgets/../core/lv_obj_style_gen.h **** static inline const void * lv_obj_get_style_arc_img_src(const struct _lv_obj_t * obj, uint32_t part
 440:Drivers/lvgl/src/widgets/../core/lv_obj_style_gen.h **** {
 441:Drivers/lvgl/src/widgets/../core/lv_obj_style_gen.h ****     lv_style_value_t v = lv_obj_get_style_prop(obj, part, LV_STYLE_ARC_IMG_SRC);
 442:Drivers/lvgl/src/widgets/../core/lv_obj_style_gen.h ****     return (const void *)v.ptr;
 443:Drivers/lvgl/src/widgets/../core/lv_obj_style_gen.h **** }
 444:Drivers/lvgl/src/widgets/../core/lv_obj_style_gen.h **** 
 445:Drivers/lvgl/src/widgets/../core/lv_obj_style_gen.h **** static inline lv_color_t lv_obj_get_style_text_color(const struct _lv_obj_t * obj, uint32_t part)
 446:Drivers/lvgl/src/widgets/../core/lv_obj_style_gen.h **** {
 447:Drivers/lvgl/src/widgets/../core/lv_obj_style_gen.h ****     lv_style_value_t v = lv_obj_get_style_prop(obj, part, LV_STYLE_TEXT_COLOR);
 448:Drivers/lvgl/src/widgets/../core/lv_obj_style_gen.h ****     return v.color;
 449:Drivers/lvgl/src/widgets/../core/lv_obj_style_gen.h **** }
 450:Drivers/lvgl/src/widgets/../core/lv_obj_style_gen.h **** 
 451:Drivers/lvgl/src/widgets/../core/lv_obj_style_gen.h **** static inline lv_color_t lv_obj_get_style_text_color_filtered(const struct _lv_obj_t * obj, uint32_
 452:Drivers/lvgl/src/widgets/../core/lv_obj_style_gen.h **** {
 453:Drivers/lvgl/src/widgets/../core/lv_obj_style_gen.h ****     lv_style_value_t v = _lv_obj_style_apply_color_filter(obj, part, lv_obj_get_style_prop(obj, par
 454:Drivers/lvgl/src/widgets/../core/lv_obj_style_gen.h ****     return v.color;
 455:Drivers/lvgl/src/widgets/../core/lv_obj_style_gen.h **** }
 456:Drivers/lvgl/src/widgets/../core/lv_obj_style_gen.h **** 
 457:Drivers/lvgl/src/widgets/../core/lv_obj_style_gen.h **** static inline lv_opa_t lv_obj_get_style_text_opa(const struct _lv_obj_t * obj, uint32_t part)
 458:Drivers/lvgl/src/widgets/../core/lv_obj_style_gen.h **** {
 459:Drivers/lvgl/src/widgets/../core/lv_obj_style_gen.h ****     lv_style_value_t v = lv_obj_get_style_prop(obj, part, LV_STYLE_TEXT_OPA);
 460:Drivers/lvgl/src/widgets/../core/lv_obj_style_gen.h ****     return (lv_opa_t)v.num;
ARM GAS  /var/folders/lp/x54gwt890xv47sdkqj1k04q40000gn/T//cczFasrC.s 			page 32


 461:Drivers/lvgl/src/widgets/../core/lv_obj_style_gen.h **** }
 462:Drivers/lvgl/src/widgets/../core/lv_obj_style_gen.h **** 
 463:Drivers/lvgl/src/widgets/../core/lv_obj_style_gen.h **** static inline const lv_font_t * lv_obj_get_style_text_font(const struct _lv_obj_t * obj, uint32_t p
 144              		.loc 2 463 33 view .LVU32
 145              	.LBB58:
 464:Drivers/lvgl/src/widgets/../core/lv_obj_style_gen.h **** {
 465:Drivers/lvgl/src/widgets/../core/lv_obj_style_gen.h ****     lv_style_value_t v = lv_obj_get_style_prop(obj, part, LV_STYLE_TEXT_FONT);
 146              		.loc 2 465 5 view .LVU33
 147              		.loc 2 465 26 is_stmt 0 view .LVU34
 148 001e 5722     		movs	r2, #87
 149 0020 0021     		movs	r1, #0
 150 0022 3046     		mov	r0, r6
 151 0024 FFF7FEFF 		bl	lv_obj_get_style_prop
 152              	.LVL12:
 466:Drivers/lvgl/src/widgets/../core/lv_obj_style_gen.h ****     return (const lv_font_t *)v.ptr;
 153              		.loc 2 466 5 is_stmt 1 view .LVU35
 154              		.loc 2 466 5 is_stmt 0 view .LVU36
 155              	.LBE58:
 156              	.LBE57:
1138:Drivers/lvgl/src/widgets/lv_dropdown.c ****     lv_coord_t line_space = lv_obj_get_style_text_line_space(label, LV_PART_MAIN);
 157              		.loc 1 1138 5 is_stmt 1 view .LVU37
 158              	.LBB59:
 159              	.LBI59:
 160              		.file 3 "Drivers/lvgl/src/widgets/../core/../misc/../font/lv_font.h"
   1:Drivers/lvgl/src/widgets/../core/../misc/../font/lv_font.h **** /**
   2:Drivers/lvgl/src/widgets/../core/../misc/../font/lv_font.h ****  * @file lv_font.h
   3:Drivers/lvgl/src/widgets/../core/../misc/../font/lv_font.h ****  *
   4:Drivers/lvgl/src/widgets/../core/../misc/../font/lv_font.h ****  */
   5:Drivers/lvgl/src/widgets/../core/../misc/../font/lv_font.h **** 
   6:Drivers/lvgl/src/widgets/../core/../misc/../font/lv_font.h **** #ifndef LV_FONT_H
   7:Drivers/lvgl/src/widgets/../core/../misc/../font/lv_font.h **** #define LV_FONT_H
   8:Drivers/lvgl/src/widgets/../core/../misc/../font/lv_font.h **** 
   9:Drivers/lvgl/src/widgets/../core/../misc/../font/lv_font.h **** #ifdef __cplusplus
  10:Drivers/lvgl/src/widgets/../core/../misc/../font/lv_font.h **** extern "C" {
  11:Drivers/lvgl/src/widgets/../core/../misc/../font/lv_font.h **** #endif
  12:Drivers/lvgl/src/widgets/../core/../misc/../font/lv_font.h **** 
  13:Drivers/lvgl/src/widgets/../core/../misc/../font/lv_font.h **** /*********************
  14:Drivers/lvgl/src/widgets/../core/../misc/../font/lv_font.h ****  *      INCLUDES
  15:Drivers/lvgl/src/widgets/../core/../misc/../font/lv_font.h ****  *********************/
  16:Drivers/lvgl/src/widgets/../core/../misc/../font/lv_font.h **** #include "../lv_conf_internal.h"
  17:Drivers/lvgl/src/widgets/../core/../misc/../font/lv_font.h **** #include <stdint.h>
  18:Drivers/lvgl/src/widgets/../core/../misc/../font/lv_font.h **** #include <stddef.h>
  19:Drivers/lvgl/src/widgets/../core/../misc/../font/lv_font.h **** #include <stdbool.h>
  20:Drivers/lvgl/src/widgets/../core/../misc/../font/lv_font.h **** 
  21:Drivers/lvgl/src/widgets/../core/../misc/../font/lv_font.h **** #include "lv_symbol_def.h"
  22:Drivers/lvgl/src/widgets/../core/../misc/../font/lv_font.h **** #include "../misc/lv_area.h"
  23:Drivers/lvgl/src/widgets/../core/../misc/../font/lv_font.h **** 
  24:Drivers/lvgl/src/widgets/../core/../misc/../font/lv_font.h **** /*********************
  25:Drivers/lvgl/src/widgets/../core/../misc/../font/lv_font.h ****  *      DEFINES
  26:Drivers/lvgl/src/widgets/../core/../misc/../font/lv_font.h ****  *********************/
  27:Drivers/lvgl/src/widgets/../core/../misc/../font/lv_font.h **** 
  28:Drivers/lvgl/src/widgets/../core/../misc/../font/lv_font.h **** /* imgfont identifier */
  29:Drivers/lvgl/src/widgets/../core/../misc/../font/lv_font.h **** #define LV_IMGFONT_BPP 9
  30:Drivers/lvgl/src/widgets/../core/../misc/../font/lv_font.h **** 
  31:Drivers/lvgl/src/widgets/../core/../misc/../font/lv_font.h **** /**********************
  32:Drivers/lvgl/src/widgets/../core/../misc/../font/lv_font.h ****  *      TYPEDEFS
  33:Drivers/lvgl/src/widgets/../core/../misc/../font/lv_font.h ****  **********************/
ARM GAS  /var/folders/lp/x54gwt890xv47sdkqj1k04q40000gn/T//cczFasrC.s 			page 33


  34:Drivers/lvgl/src/widgets/../core/../misc/../font/lv_font.h **** 
  35:Drivers/lvgl/src/widgets/../core/../misc/../font/lv_font.h **** /*------------------
  36:Drivers/lvgl/src/widgets/../core/../misc/../font/lv_font.h ****  * General types
  37:Drivers/lvgl/src/widgets/../core/../misc/../font/lv_font.h ****  *-----------------*/
  38:Drivers/lvgl/src/widgets/../core/../misc/../font/lv_font.h **** 
  39:Drivers/lvgl/src/widgets/../core/../misc/../font/lv_font.h **** struct _lv_font_t;
  40:Drivers/lvgl/src/widgets/../core/../misc/../font/lv_font.h **** /** Describes the properties of a glyph.*/
  41:Drivers/lvgl/src/widgets/../core/../misc/../font/lv_font.h **** typedef struct {
  42:Drivers/lvgl/src/widgets/../core/../misc/../font/lv_font.h ****     const struct _lv_font_t *
  43:Drivers/lvgl/src/widgets/../core/../misc/../font/lv_font.h ****         resolved_font; /**< Pointer to a font where the glyph was actually found after handling fal
  44:Drivers/lvgl/src/widgets/../core/../misc/../font/lv_font.h ****     uint16_t adv_w; /**< The glyph needs this space. Draw the next glyph after this width.*/
  45:Drivers/lvgl/src/widgets/../core/../misc/../font/lv_font.h ****     uint16_t box_w; /**< Width of the glyph's bounding box*/
  46:Drivers/lvgl/src/widgets/../core/../misc/../font/lv_font.h ****     uint16_t box_h; /**< Height of the glyph's bounding box*/
  47:Drivers/lvgl/src/widgets/../core/../misc/../font/lv_font.h ****     int16_t ofs_x;  /**< x offset of the bounding box*/
  48:Drivers/lvgl/src/widgets/../core/../misc/../font/lv_font.h ****     int16_t ofs_y;  /**< y offset of the bounding box*/
  49:Drivers/lvgl/src/widgets/../core/../misc/../font/lv_font.h ****     uint8_t bpp: 4;  /**< Bit-per-pixel: 1, 2, 4, 8*/
  50:Drivers/lvgl/src/widgets/../core/../misc/../font/lv_font.h ****     uint8_t is_placeholder: 1; /** Glyph is missing. But placeholder will still be displayed */
  51:Drivers/lvgl/src/widgets/../core/../misc/../font/lv_font.h **** } lv_font_glyph_dsc_t;
  52:Drivers/lvgl/src/widgets/../core/../misc/../font/lv_font.h **** 
  53:Drivers/lvgl/src/widgets/../core/../misc/../font/lv_font.h **** /** The bitmaps might be upscaled by 3 to achieve subpixel rendering.*/
  54:Drivers/lvgl/src/widgets/../core/../misc/../font/lv_font.h **** enum {
  55:Drivers/lvgl/src/widgets/../core/../misc/../font/lv_font.h ****     LV_FONT_SUBPX_NONE,
  56:Drivers/lvgl/src/widgets/../core/../misc/../font/lv_font.h ****     LV_FONT_SUBPX_HOR,
  57:Drivers/lvgl/src/widgets/../core/../misc/../font/lv_font.h ****     LV_FONT_SUBPX_VER,
  58:Drivers/lvgl/src/widgets/../core/../misc/../font/lv_font.h ****     LV_FONT_SUBPX_BOTH,
  59:Drivers/lvgl/src/widgets/../core/../misc/../font/lv_font.h **** };
  60:Drivers/lvgl/src/widgets/../core/../misc/../font/lv_font.h **** 
  61:Drivers/lvgl/src/widgets/../core/../misc/../font/lv_font.h **** typedef uint8_t lv_font_subpx_t;
  62:Drivers/lvgl/src/widgets/../core/../misc/../font/lv_font.h **** 
  63:Drivers/lvgl/src/widgets/../core/../misc/../font/lv_font.h **** /** Describe the properties of a font*/
  64:Drivers/lvgl/src/widgets/../core/../misc/../font/lv_font.h **** typedef struct _lv_font_t {
  65:Drivers/lvgl/src/widgets/../core/../misc/../font/lv_font.h ****     /** Get a glyph's descriptor from a font*/
  66:Drivers/lvgl/src/widgets/../core/../misc/../font/lv_font.h ****     bool (*get_glyph_dsc)(const struct _lv_font_t *, lv_font_glyph_dsc_t *, uint32_t letter, uint32
  67:Drivers/lvgl/src/widgets/../core/../misc/../font/lv_font.h **** 
  68:Drivers/lvgl/src/widgets/../core/../misc/../font/lv_font.h ****     /** Get a glyph's bitmap from a font*/
  69:Drivers/lvgl/src/widgets/../core/../misc/../font/lv_font.h ****     const uint8_t * (*get_glyph_bitmap)(const struct _lv_font_t *, uint32_t);
  70:Drivers/lvgl/src/widgets/../core/../misc/../font/lv_font.h **** 
  71:Drivers/lvgl/src/widgets/../core/../misc/../font/lv_font.h ****     /*Pointer to the font in a font pack (must have the same line height)*/
  72:Drivers/lvgl/src/widgets/../core/../misc/../font/lv_font.h ****     lv_coord_t line_height;         /**< The real line height where any text fits*/
  73:Drivers/lvgl/src/widgets/../core/../misc/../font/lv_font.h ****     lv_coord_t base_line;           /**< Base line measured from the top of the line_height*/
  74:Drivers/lvgl/src/widgets/../core/../misc/../font/lv_font.h ****     uint8_t subpx  : 2;             /**< An element of `lv_font_subpx_t`*/
  75:Drivers/lvgl/src/widgets/../core/../misc/../font/lv_font.h **** 
  76:Drivers/lvgl/src/widgets/../core/../misc/../font/lv_font.h ****     int8_t underline_position;      /**< Distance between the top of the underline and base line (<
  77:Drivers/lvgl/src/widgets/../core/../misc/../font/lv_font.h ****     int8_t underline_thickness;     /**< Thickness of the underline*/
  78:Drivers/lvgl/src/widgets/../core/../misc/../font/lv_font.h **** 
  79:Drivers/lvgl/src/widgets/../core/../misc/../font/lv_font.h ****     const void * dsc;               /**< Store implementation specific or run_time data or caching 
  80:Drivers/lvgl/src/widgets/../core/../misc/../font/lv_font.h ****     const struct _lv_font_t * fallback;   /**< Fallback font for missing glyph. Resolved recursivel
  81:Drivers/lvgl/src/widgets/../core/../misc/../font/lv_font.h **** #if LV_USE_USER_DATA
  82:Drivers/lvgl/src/widgets/../core/../misc/../font/lv_font.h ****     void * user_data;               /**< Custom user data for font.*/
  83:Drivers/lvgl/src/widgets/../core/../misc/../font/lv_font.h **** #endif
  84:Drivers/lvgl/src/widgets/../core/../misc/../font/lv_font.h **** } lv_font_t;
  85:Drivers/lvgl/src/widgets/../core/../misc/../font/lv_font.h **** 
  86:Drivers/lvgl/src/widgets/../core/../misc/../font/lv_font.h **** /**********************
  87:Drivers/lvgl/src/widgets/../core/../misc/../font/lv_font.h ****  * GLOBAL PROTOTYPES
  88:Drivers/lvgl/src/widgets/../core/../misc/../font/lv_font.h ****  **********************/
  89:Drivers/lvgl/src/widgets/../core/../misc/../font/lv_font.h **** 
  90:Drivers/lvgl/src/widgets/../core/../misc/../font/lv_font.h **** /**
ARM GAS  /var/folders/lp/x54gwt890xv47sdkqj1k04q40000gn/T//cczFasrC.s 			page 34


  91:Drivers/lvgl/src/widgets/../core/../misc/../font/lv_font.h ****  * Return with the bitmap of a font.
  92:Drivers/lvgl/src/widgets/../core/../misc/../font/lv_font.h ****  * @param font_p pointer to a font
  93:Drivers/lvgl/src/widgets/../core/../misc/../font/lv_font.h ****  * @param letter a UNICODE character code
  94:Drivers/lvgl/src/widgets/../core/../misc/../font/lv_font.h ****  * @return pointer to the bitmap of the letter
  95:Drivers/lvgl/src/widgets/../core/../misc/../font/lv_font.h ****  */
  96:Drivers/lvgl/src/widgets/../core/../misc/../font/lv_font.h **** const uint8_t * lv_font_get_glyph_bitmap(const lv_font_t * font_p, uint32_t letter);
  97:Drivers/lvgl/src/widgets/../core/../misc/../font/lv_font.h **** 
  98:Drivers/lvgl/src/widgets/../core/../misc/../font/lv_font.h **** /**
  99:Drivers/lvgl/src/widgets/../core/../misc/../font/lv_font.h ****  * Get the descriptor of a glyph
 100:Drivers/lvgl/src/widgets/../core/../misc/../font/lv_font.h ****  * @param font_p pointer to font
 101:Drivers/lvgl/src/widgets/../core/../misc/../font/lv_font.h ****  * @param dsc_out store the result descriptor here
 102:Drivers/lvgl/src/widgets/../core/../misc/../font/lv_font.h ****  * @param letter a UNICODE letter code
 103:Drivers/lvgl/src/widgets/../core/../misc/../font/lv_font.h ****  * @param letter_next the next letter after `letter`. Used for kerning
 104:Drivers/lvgl/src/widgets/../core/../misc/../font/lv_font.h ****  * @return true: descriptor is successfully loaded into `dsc_out`.
 105:Drivers/lvgl/src/widgets/../core/../misc/../font/lv_font.h ****  *         false: the letter was not found, no data is loaded to `dsc_out`
 106:Drivers/lvgl/src/widgets/../core/../misc/../font/lv_font.h ****  */
 107:Drivers/lvgl/src/widgets/../core/../misc/../font/lv_font.h **** bool lv_font_get_glyph_dsc(const lv_font_t * font_p, lv_font_glyph_dsc_t * dsc_out, uint32_t letter
 108:Drivers/lvgl/src/widgets/../core/../misc/../font/lv_font.h ****                            uint32_t letter_next);
 109:Drivers/lvgl/src/widgets/../core/../misc/../font/lv_font.h **** 
 110:Drivers/lvgl/src/widgets/../core/../misc/../font/lv_font.h **** /**
 111:Drivers/lvgl/src/widgets/../core/../misc/../font/lv_font.h ****  * Get the width of a glyph with kerning
 112:Drivers/lvgl/src/widgets/../core/../misc/../font/lv_font.h ****  * @param font pointer to a font
 113:Drivers/lvgl/src/widgets/../core/../misc/../font/lv_font.h ****  * @param letter a UNICODE letter
 114:Drivers/lvgl/src/widgets/../core/../misc/../font/lv_font.h ****  * @param letter_next the next letter after `letter`. Used for kerning
 115:Drivers/lvgl/src/widgets/../core/../misc/../font/lv_font.h ****  * @return the width of the glyph
 116:Drivers/lvgl/src/widgets/../core/../misc/../font/lv_font.h ****  */
 117:Drivers/lvgl/src/widgets/../core/../misc/../font/lv_font.h **** uint16_t lv_font_get_glyph_width(const lv_font_t * font, uint32_t letter, uint32_t letter_next);
 118:Drivers/lvgl/src/widgets/../core/../misc/../font/lv_font.h **** 
 119:Drivers/lvgl/src/widgets/../core/../misc/../font/lv_font.h **** /**
 120:Drivers/lvgl/src/widgets/../core/../misc/../font/lv_font.h ****  * Get the line height of a font. All characters fit into this height
 121:Drivers/lvgl/src/widgets/../core/../misc/../font/lv_font.h ****  * @param font_p pointer to a font
 122:Drivers/lvgl/src/widgets/../core/../misc/../font/lv_font.h ****  * @return the height of a font
 123:Drivers/lvgl/src/widgets/../core/../misc/../font/lv_font.h ****  */
 124:Drivers/lvgl/src/widgets/../core/../misc/../font/lv_font.h **** static inline lv_coord_t lv_font_get_line_height(const lv_font_t * font_p)
 161              		.loc 3 124 26 view .LVU38
 162              	.LBB60:
 125:Drivers/lvgl/src/widgets/../core/../misc/../font/lv_font.h **** {
 126:Drivers/lvgl/src/widgets/../core/../misc/../font/lv_font.h ****     return font_p->line_height;
 163              		.loc 3 126 5 view .LVU39
 164              		.loc 3 126 18 is_stmt 0 view .LVU40
 165 0028 B0F90850 		ldrsh	r5, [r0, #8]
 166              	.LVL13:
 167              		.loc 3 126 18 view .LVU41
 168              	.LBE60:
 169              	.LBE59:
1139:Drivers/lvgl/src/widgets/lv_dropdown.c ****     lv_coord_t unit_h = font_h + line_space;
 170              		.loc 1 1139 5 is_stmt 1 view .LVU42
 171              	.LBB61:
 172              	.LBI61:
 467:Drivers/lvgl/src/widgets/../core/lv_obj_style_gen.h **** }
 468:Drivers/lvgl/src/widgets/../core/lv_obj_style_gen.h **** 
 469:Drivers/lvgl/src/widgets/../core/lv_obj_style_gen.h **** static inline lv_coord_t lv_obj_get_style_text_letter_space(const struct _lv_obj_t * obj, uint32_t 
 470:Drivers/lvgl/src/widgets/../core/lv_obj_style_gen.h **** {
 471:Drivers/lvgl/src/widgets/../core/lv_obj_style_gen.h ****     lv_style_value_t v = lv_obj_get_style_prop(obj, part, LV_STYLE_TEXT_LETTER_SPACE);
 472:Drivers/lvgl/src/widgets/../core/lv_obj_style_gen.h ****     return (lv_coord_t)v.num;
 473:Drivers/lvgl/src/widgets/../core/lv_obj_style_gen.h **** }
 474:Drivers/lvgl/src/widgets/../core/lv_obj_style_gen.h **** 
ARM GAS  /var/folders/lp/x54gwt890xv47sdkqj1k04q40000gn/T//cczFasrC.s 			page 35


 475:Drivers/lvgl/src/widgets/../core/lv_obj_style_gen.h **** static inline lv_coord_t lv_obj_get_style_text_line_space(const struct _lv_obj_t * obj, uint32_t pa
 173              		.loc 2 475 26 view .LVU43
 174              	.LBB62:
 476:Drivers/lvgl/src/widgets/../core/lv_obj_style_gen.h **** {
 477:Drivers/lvgl/src/widgets/../core/lv_obj_style_gen.h ****     lv_style_value_t v = lv_obj_get_style_prop(obj, part, LV_STYLE_TEXT_LINE_SPACE);
 175              		.loc 2 477 5 view .LVU44
 176              		.loc 2 477 26 is_stmt 0 view .LVU45
 177 002c 5922     		movs	r2, #89
 178 002e 0021     		movs	r1, #0
 179 0030 3046     		mov	r0, r6
 180              	.LVL14:
 181              		.loc 2 477 26 view .LVU46
 182 0032 FFF7FEFF 		bl	lv_obj_get_style_prop
 183              	.LVL15:
 478:Drivers/lvgl/src/widgets/../core/lv_obj_style_gen.h ****     return (lv_coord_t)v.num;
 184              		.loc 2 478 5 is_stmt 1 view .LVU47
 185              		.loc 2 478 5 is_stmt 0 view .LVU48
 186              	.LBE62:
 187              	.LBE61:
1140:Drivers/lvgl/src/widgets/lv_dropdown.c ****     lv_coord_t line_y1 = dropdown->sel_opt_id * unit_h;
 188              		.loc 1 1140 5 is_stmt 1 view .LVU49
1140:Drivers/lvgl/src/widgets/lv_dropdown.c ****     lv_coord_t line_y1 = dropdown->sel_opt_id * unit_h;
 189              		.loc 1 1140 32 is_stmt 0 view .LVU50
 190 0036 2918     		adds	r1, r5, r0
 191              	.LVL16:
1141:Drivers/lvgl/src/widgets/lv_dropdown.c **** 
 192              		.loc 1 1141 5 is_stmt 1 view .LVU51
1141:Drivers/lvgl/src/widgets/lv_dropdown.c **** 
 193              		.loc 1 1141 34 is_stmt 0 view .LVU52
 194 0038 E38E     		ldrh	r3, [r4, #54]
1141:Drivers/lvgl/src/widgets/lv_dropdown.c **** 
 195              		.loc 1 1141 16 view .LVU53
 196 003a 11FB03F1 		smulbb	r1, r1, r3
 197              	.LVL17:
1144:Drivers/lvgl/src/widgets/lv_dropdown.c ****     lv_obj_invalidate(dropdown->list);
 198              		.loc 1 1144 5 is_stmt 1 view .LVU54
 199 003e 0022     		movs	r2, #0
 200 0040 09B2     		sxth	r1, r1
1144:Drivers/lvgl/src/widgets/lv_dropdown.c ****     lv_obj_invalidate(dropdown->list);
 201              		.loc 1 1144 5 is_stmt 0 view .LVU55
 202 0042 606A     		ldr	r0, [r4, #36]
 203              	.LVL18:
1144:Drivers/lvgl/src/widgets/lv_dropdown.c ****     lv_obj_invalidate(dropdown->list);
 204              		.loc 1 1144 5 view .LVU56
 205 0044 FFF7FEFF 		bl	lv_obj_scroll_to_y
 206              	.LVL19:
1145:Drivers/lvgl/src/widgets/lv_dropdown.c **** }
 207              		.loc 1 1145 5 is_stmt 1 view .LVU57
 208 0048 606A     		ldr	r0, [r4, #36]
 209 004a FFF7FEFF 		bl	lv_obj_invalidate
 210              	.LVL20:
 211 004e E5E7     		b	.L8
 212              		.cfi_endproc
 213              	.LFE205:
 215              		.section	.text.get_id_on_point,"ax",%progbits
 216              		.align	1
 217              		.syntax unified
ARM GAS  /var/folders/lp/x54gwt890xv47sdkqj1k04q40000gn/T//cczFasrC.s 			page 36


 218              		.thumb
 219              		.thumb_func
 221              	get_id_on_point:
 222              	.LVL21:
 223              	.LFB204:
1105:Drivers/lvgl/src/widgets/lv_dropdown.c ****     lv_dropdown_t * dropdown = (lv_dropdown_t *)dropdown_obj;
 224              		.loc 1 1105 1 view -0
 225              		.cfi_startproc
 226              		@ args = 0, pretend = 0, frame = 0
 227              		@ frame_needed = 0, uses_anonymous_args = 0
1105:Drivers/lvgl/src/widgets/lv_dropdown.c ****     lv_dropdown_t * dropdown = (lv_dropdown_t *)dropdown_obj;
 228              		.loc 1 1105 1 is_stmt 0 view .LVU59
 229 0000 F8B5     		push	{r3, r4, r5, r6, r7, lr}
 230              		.cfi_def_cfa_offset 24
 231              		.cfi_offset 3, -24
 232              		.cfi_offset 4, -20
 233              		.cfi_offset 5, -16
 234              		.cfi_offset 6, -12
 235              		.cfi_offset 7, -8
 236              		.cfi_offset 14, -4
 237 0002 0546     		mov	r5, r0
 238 0004 0C46     		mov	r4, r1
1106:Drivers/lvgl/src/widgets/lv_dropdown.c ****     lv_obj_t * label = get_label(dropdown_obj);
 239              		.loc 1 1106 5 is_stmt 1 view .LVU60
 240              	.LVL22:
1107:Drivers/lvgl/src/widgets/lv_dropdown.c ****     if(label == NULL) return 0;
 241              		.loc 1 1107 5 view .LVU61
1107:Drivers/lvgl/src/widgets/lv_dropdown.c ****     if(label == NULL) return 0;
 242              		.loc 1 1107 24 is_stmt 0 view .LVU62
 243 0006 FFF7FEFF 		bl	get_label
 244              	.LVL23:
1108:Drivers/lvgl/src/widgets/lv_dropdown.c ****     y -= label->coords.y1;
 245              		.loc 1 1108 5 is_stmt 1 view .LVU63
1108:Drivers/lvgl/src/widgets/lv_dropdown.c ****     y -= label->coords.y1;
 246              		.loc 1 1108 7 is_stmt 0 view .LVU64
 247 000a 00B3     		cbz	r0, .L14
 248 000c 0746     		mov	r7, r0
1109:Drivers/lvgl/src/widgets/lv_dropdown.c **** 
 249              		.loc 1 1109 5 is_stmt 1 view .LVU65
1109:Drivers/lvgl/src/widgets/lv_dropdown.c **** 
 250              		.loc 1 1109 23 is_stmt 0 view .LVU66
 251 000e C38A     		ldrh	r3, [r0, #22]
1109:Drivers/lvgl/src/widgets/lv_dropdown.c **** 
 252              		.loc 1 1109 7 view .LVU67
 253 0010 E41A     		subs	r4, r4, r3
 254              	.LVL24:
1109:Drivers/lvgl/src/widgets/lv_dropdown.c **** 
 255              		.loc 1 1109 7 view .LVU68
 256 0012 A4B2     		uxth	r4, r4
 257              	.LVL25:
1111:Drivers/lvgl/src/widgets/lv_dropdown.c ****     lv_coord_t font_h              = lv_font_get_line_height(font);
 258              		.loc 1 1111 5 is_stmt 1 view .LVU69
 259              	.LBB63:
 260              	.LBI63:
 463:Drivers/lvgl/src/widgets/../core/lv_obj_style_gen.h **** {
 261              		.loc 2 463 33 view .LVU70
 262              	.LBB64:
ARM GAS  /var/folders/lp/x54gwt890xv47sdkqj1k04q40000gn/T//cczFasrC.s 			page 37


 465:Drivers/lvgl/src/widgets/../core/lv_obj_style_gen.h ****     return (const lv_font_t *)v.ptr;
 263              		.loc 2 465 5 view .LVU71
 465:Drivers/lvgl/src/widgets/../core/lv_obj_style_gen.h ****     return (const lv_font_t *)v.ptr;
 264              		.loc 2 465 26 is_stmt 0 view .LVU72
 265 0014 5722     		movs	r2, #87
 266 0016 0021     		movs	r1, #0
 267 0018 FFF7FEFF 		bl	lv_obj_get_style_prop
 268              	.LVL26:
 466:Drivers/lvgl/src/widgets/../core/lv_obj_style_gen.h **** }
 269              		.loc 2 466 5 is_stmt 1 view .LVU73
 466:Drivers/lvgl/src/widgets/../core/lv_obj_style_gen.h **** }
 270              		.loc 2 466 5 is_stmt 0 view .LVU74
 271              	.LBE64:
 272              	.LBE63:
1112:Drivers/lvgl/src/widgets/lv_dropdown.c ****     lv_coord_t line_space = lv_obj_get_style_text_line_space(label, LV_PART_MAIN);
 273              		.loc 1 1112 5 is_stmt 1 view .LVU75
 274              	.LBB65:
 275              	.LBI65:
 124:Drivers/lvgl/src/widgets/../core/../misc/../font/lv_font.h **** {
 276              		.loc 3 124 26 view .LVU76
 277              	.LBB66:
 278              		.loc 3 126 5 view .LVU77
 279              		.loc 3 126 18 is_stmt 0 view .LVU78
 280 001c B0F90860 		ldrsh	r6, [r0, #8]
 281              	.LVL27:
 282              		.loc 3 126 18 view .LVU79
 283              	.LBE66:
 284              	.LBE65:
1113:Drivers/lvgl/src/widgets/lv_dropdown.c **** 
 285              		.loc 1 1113 5 is_stmt 1 view .LVU80
 286              	.LBB67:
 287              	.LBI67:
 475:Drivers/lvgl/src/widgets/../core/lv_obj_style_gen.h **** {
 288              		.loc 2 475 26 view .LVU81
 289              	.LBB68:
 477:Drivers/lvgl/src/widgets/../core/lv_obj_style_gen.h ****     return (lv_coord_t)v.num;
 290              		.loc 2 477 5 view .LVU82
 477:Drivers/lvgl/src/widgets/../core/lv_obj_style_gen.h ****     return (lv_coord_t)v.num;
 291              		.loc 2 477 26 is_stmt 0 view .LVU83
 292 0020 5922     		movs	r2, #89
 293 0022 0021     		movs	r1, #0
 294 0024 3846     		mov	r0, r7
 295              	.LVL28:
 477:Drivers/lvgl/src/widgets/../core/lv_obj_style_gen.h ****     return (lv_coord_t)v.num;
 296              		.loc 2 477 26 view .LVU84
 297 0026 FFF7FEFF 		bl	lv_obj_get_style_prop
 298              	.LVL29:
 299              		.loc 2 478 5 is_stmt 1 view .LVU85
 300              		.loc 2 478 5 is_stmt 0 view .LVU86
 301              	.LBE68:
 302              	.LBE67:
1115:Drivers/lvgl/src/widgets/lv_dropdown.c ****     lv_coord_t h = font_h + line_space;
 303              		.loc 1 1115 5 is_stmt 1 view .LVU87
1115:Drivers/lvgl/src/widgets/lv_dropdown.c ****     lv_coord_t h = font_h + line_space;
 304              		.loc 1 1115 7 is_stmt 0 view .LVU88
 305 002a C0F3C033 		ubfx	r3, r0, #15, #1
 306 002e 03FA80F3 		sxtah	r3, r3, r0
ARM GAS  /var/folders/lp/x54gwt890xv47sdkqj1k04q40000gn/T//cczFasrC.s 			page 38


 307 0032 04EB6303 		add	r3, r4, r3, asr #1
 308 0036 1BB2     		sxth	r3, r3
 309              	.LVL30:
1116:Drivers/lvgl/src/widgets/lv_dropdown.c **** 
 310              		.loc 1 1116 5 is_stmt 1 view .LVU89
1116:Drivers/lvgl/src/widgets/lv_dropdown.c **** 
 311              		.loc 1 1116 27 is_stmt 0 view .LVU90
 312 0038 0644     		add	r6, r6, r0
1116:Drivers/lvgl/src/widgets/lv_dropdown.c **** 
 313              		.loc 1 1116 16 view .LVU91
 314 003a 36B2     		sxth	r6, r6
 315              	.LVL31:
1118:Drivers/lvgl/src/widgets/lv_dropdown.c **** 
 316              		.loc 1 1118 5 is_stmt 1 view .LVU92
1118:Drivers/lvgl/src/widgets/lv_dropdown.c **** 
 317              		.loc 1 1118 22 is_stmt 0 view .LVU93
 318 003c 93FBF6F3 		sdiv	r3, r3, r6
 319              	.LVL32:
1118:Drivers/lvgl/src/widgets/lv_dropdown.c **** 
 320              		.loc 1 1118 14 view .LVU94
 321 0040 98B2     		uxth	r0, r3
 322              	.LVL33:
1120:Drivers/lvgl/src/widgets/lv_dropdown.c ****     return opt;
 323              		.loc 1 1120 5 is_stmt 1 view .LVU95
1120:Drivers/lvgl/src/widgets/lv_dropdown.c ****     return opt;
 324              		.loc 1 1120 23 is_stmt 0 view .LVU96
 325 0042 AB8E     		ldrh	r3, [r5, #52]
1120:Drivers/lvgl/src/widgets/lv_dropdown.c ****     return opt;
 326              		.loc 1 1120 7 view .LVU97
 327 0044 8342     		cmp	r3, r0
 328 0046 01D8     		bhi	.L13
1120:Drivers/lvgl/src/widgets/lv_dropdown.c ****     return opt;
 329              		.loc 1 1120 37 is_stmt 1 discriminator 1 view .LVU98
1120:Drivers/lvgl/src/widgets/lv_dropdown.c ****     return opt;
 330              		.loc 1 1120 41 is_stmt 0 discriminator 1 view .LVU99
 331 0048 013B     		subs	r3, r3, #1
 332 004a 98B2     		uxth	r0, r3
 333              	.LVL34:
 334              	.L13:
1122:Drivers/lvgl/src/widgets/lv_dropdown.c **** 
 335              		.loc 1 1122 1 view .LVU100
 336 004c F8BD     		pop	{r3, r4, r5, r6, r7, pc}
 337              	.LVL35:
 338              	.L14:
1108:Drivers/lvgl/src/widgets/lv_dropdown.c ****     y -= label->coords.y1;
 339              		.loc 1 1108 30 discriminator 1 view .LVU101
 340 004e 0020     		movs	r0, #0
 341              	.LVL36:
1108:Drivers/lvgl/src/widgets/lv_dropdown.c ****     y -= label->coords.y1;
 342              		.loc 1 1108 30 discriminator 1 view .LVU102
 343 0050 FCE7     		b	.L13
 344              		.cfi_endproc
 345              	.LFE204:
 347              		.section	.text.lv_dropdown_destructor,"ax",%progbits
 348              		.align	1
 349              		.syntax unified
 350              		.thumb
ARM GAS  /var/folders/lp/x54gwt890xv47sdkqj1k04q40000gn/T//cczFasrC.s 			page 39


 351              		.thumb_func
 353              	lv_dropdown_destructor:
 354              	.LVL37:
 355              	.LFB192:
 617:Drivers/lvgl/src/widgets/lv_dropdown.c ****     LV_UNUSED(class_p);
 356              		.loc 1 617 1 is_stmt 1 view -0
 357              		.cfi_startproc
 358              		@ args = 0, pretend = 0, frame = 0
 359              		@ frame_needed = 0, uses_anonymous_args = 0
 617:Drivers/lvgl/src/widgets/lv_dropdown.c ****     LV_UNUSED(class_p);
 360              		.loc 1 617 1 is_stmt 0 view .LVU104
 361 0000 10B5     		push	{r4, lr}
 362              		.cfi_def_cfa_offset 8
 363              		.cfi_offset 4, -8
 364              		.cfi_offset 14, -4
 365 0002 0C46     		mov	r4, r1
 618:Drivers/lvgl/src/widgets/lv_dropdown.c ****     lv_dropdown_t * dropdown = (lv_dropdown_t *)obj;
 366              		.loc 1 618 5 is_stmt 1 view .LVU105
 619:Drivers/lvgl/src/widgets/lv_dropdown.c **** 
 367              		.loc 1 619 5 view .LVU106
 368              	.LVL38:
 621:Drivers/lvgl/src/widgets/lv_dropdown.c ****         lv_obj_del(dropdown->list);
 369              		.loc 1 621 5 view .LVU107
 621:Drivers/lvgl/src/widgets/lv_dropdown.c ****         lv_obj_del(dropdown->list);
 370              		.loc 1 621 16 is_stmt 0 view .LVU108
 371 0004 486A     		ldr	r0, [r1, #36]
 372              	.LVL39:
 621:Drivers/lvgl/src/widgets/lv_dropdown.c ****         lv_obj_del(dropdown->list);
 373              		.loc 1 621 7 view .LVU109
 374 0006 18B1     		cbz	r0, .L17
 622:Drivers/lvgl/src/widgets/lv_dropdown.c ****         dropdown->list = NULL;
 375              		.loc 1 622 9 is_stmt 1 view .LVU110
 376 0008 FFF7FEFF 		bl	lv_obj_del
 377              	.LVL40:
 623:Drivers/lvgl/src/widgets/lv_dropdown.c ****     }
 378              		.loc 1 623 9 view .LVU111
 623:Drivers/lvgl/src/widgets/lv_dropdown.c ****     }
 379              		.loc 1 623 24 is_stmt 0 view .LVU112
 380 000c 0023     		movs	r3, #0
 381 000e 6362     		str	r3, [r4, #36]
 382              	.L17:
 626:Drivers/lvgl/src/widgets/lv_dropdown.c ****         lv_mem_free(dropdown->options);
 383              		.loc 1 626 5 is_stmt 1 view .LVU113
 626:Drivers/lvgl/src/widgets/lv_dropdown.c ****         lv_mem_free(dropdown->options);
 384              		.loc 1 626 8 is_stmt 0 view .LVU114
 385 0010 94F83C30 		ldrb	r3, [r4, #60]	@ zero_extendqisi2
 626:Drivers/lvgl/src/widgets/lv_dropdown.c ****         lv_mem_free(dropdown->options);
 386              		.loc 1 626 7 view .LVU115
 387 0014 13F0100F 		tst	r3, #16
 388 0018 00D0     		beq	.L20
 389              	.L16:
 630:Drivers/lvgl/src/widgets/lv_dropdown.c **** 
 390              		.loc 1 630 1 view .LVU116
 391 001a 10BD     		pop	{r4, pc}
 392              	.LVL41:
 393              	.L20:
 627:Drivers/lvgl/src/widgets/lv_dropdown.c ****         dropdown->options = NULL;
ARM GAS  /var/folders/lp/x54gwt890xv47sdkqj1k04q40000gn/T//cczFasrC.s 			page 40


 394              		.loc 1 627 9 is_stmt 1 view .LVU117
 395 001c 206B     		ldr	r0, [r4, #48]
 396 001e FFF7FEFF 		bl	lv_mem_free
 397              	.LVL42:
 628:Drivers/lvgl/src/widgets/lv_dropdown.c ****     }
 398              		.loc 1 628 9 view .LVU118
 628:Drivers/lvgl/src/widgets/lv_dropdown.c ****     }
 399              		.loc 1 628 27 is_stmt 0 view .LVU119
 400 0022 0023     		movs	r3, #0
 401 0024 2363     		str	r3, [r4, #48]
 630:Drivers/lvgl/src/widgets/lv_dropdown.c **** 
 402              		.loc 1 630 1 view .LVU120
 403 0026 F8E7     		b	.L16
 404              		.cfi_endproc
 405              	.LFE192:
 407              		.section	.text.lv_dropdown_list_create,"ax",%progbits
 408              		.align	1
 409              		.syntax unified
 410              		.thumb
 411              		.thumb_func
 413              	lv_dropdown_list_create:
 414              	.LVL43:
 415              	.LFB190:
 579:Drivers/lvgl/src/widgets/lv_dropdown.c ****     LV_LOG_INFO("begin");
 416              		.loc 1 579 1 is_stmt 1 view -0
 417              		.cfi_startproc
 418              		@ args = 0, pretend = 0, frame = 0
 419              		@ frame_needed = 0, uses_anonymous_args = 0
 579:Drivers/lvgl/src/widgets/lv_dropdown.c ****     LV_LOG_INFO("begin");
 420              		.loc 1 579 1 is_stmt 0 view .LVU122
 421 0000 10B5     		push	{r4, lr}
 422              		.cfi_def_cfa_offset 8
 423              		.cfi_offset 4, -8
 424              		.cfi_offset 14, -4
 425 0002 0146     		mov	r1, r0
 580:Drivers/lvgl/src/widgets/lv_dropdown.c ****     lv_obj_t * obj = lv_obj_class_create_obj(&lv_dropdownlist_class, parent);
 426              		.loc 1 580 5 is_stmt 1 view .LVU123
 580:Drivers/lvgl/src/widgets/lv_dropdown.c ****     lv_obj_t * obj = lv_obj_class_create_obj(&lv_dropdownlist_class, parent);
 427              		.loc 1 580 5 view .LVU124
 580:Drivers/lvgl/src/widgets/lv_dropdown.c ****     lv_obj_t * obj = lv_obj_class_create_obj(&lv_dropdownlist_class, parent);
 428              		.loc 1 580 5 view .LVU125
 581:Drivers/lvgl/src/widgets/lv_dropdown.c ****     lv_obj_class_init_obj(obj);
 429              		.loc 1 581 5 view .LVU126
 581:Drivers/lvgl/src/widgets/lv_dropdown.c ****     lv_obj_class_init_obj(obj);
 430              		.loc 1 581 22 is_stmt 0 view .LVU127
 431 0004 0348     		ldr	r0, .L23
 432              	.LVL44:
 581:Drivers/lvgl/src/widgets/lv_dropdown.c ****     lv_obj_class_init_obj(obj);
 433              		.loc 1 581 22 view .LVU128
 434 0006 FFF7FEFF 		bl	lv_obj_class_create_obj
 435              	.LVL45:
 581:Drivers/lvgl/src/widgets/lv_dropdown.c ****     lv_obj_class_init_obj(obj);
 436              		.loc 1 581 22 view .LVU129
 437 000a 0446     		mov	r4, r0
 438              	.LVL46:
 582:Drivers/lvgl/src/widgets/lv_dropdown.c ****     return obj;
 439              		.loc 1 582 5 is_stmt 1 view .LVU130
ARM GAS  /var/folders/lp/x54gwt890xv47sdkqj1k04q40000gn/T//cczFasrC.s 			page 41


 440 000c FFF7FEFF 		bl	lv_obj_class_init_obj
 441              	.LVL47:
 583:Drivers/lvgl/src/widgets/lv_dropdown.c **** }
 442              		.loc 1 583 5 view .LVU131
 584:Drivers/lvgl/src/widgets/lv_dropdown.c **** 
 443              		.loc 1 584 1 is_stmt 0 view .LVU132
 444 0010 2046     		mov	r0, r4
 445 0012 10BD     		pop	{r4, pc}
 446              	.LVL48:
 447              	.L24:
 584:Drivers/lvgl/src/widgets/lv_dropdown.c **** 
 448              		.loc 1 584 1 view .LVU133
 449              		.align	2
 450              	.L23:
 451 0014 00000000 		.word	lv_dropdownlist_class
 452              		.cfi_endproc
 453              	.LFE190:
 455              		.section	.text.list_press_handler,"ax",%progbits
 456              		.align	1
 457              		.syntax unified
 458              		.thumb
 459              		.thumb_func
 461              	list_press_handler:
 462              	.LVL49:
 463              	.LFB203:
1090:Drivers/lvgl/src/widgets/lv_dropdown.c ****     lv_dropdown_list_t * list = (lv_dropdown_list_t *) list_obj;
 464              		.loc 1 1090 1 is_stmt 1 view -0
 465              		.cfi_startproc
 466              		@ args = 0, pretend = 0, frame = 8
 467              		@ frame_needed = 0, uses_anonymous_args = 0
1090:Drivers/lvgl/src/widgets/lv_dropdown.c ****     lv_dropdown_list_t * list = (lv_dropdown_list_t *) list_obj;
 468              		.loc 1 1090 1 is_stmt 0 view .LVU135
 469 0000 70B5     		push	{r4, r5, r6, lr}
 470              		.cfi_def_cfa_offset 16
 471              		.cfi_offset 4, -16
 472              		.cfi_offset 5, -12
 473              		.cfi_offset 6, -8
 474              		.cfi_offset 14, -4
 475 0002 82B0     		sub	sp, sp, #8
 476              		.cfi_def_cfa_offset 24
 477 0004 0446     		mov	r4, r0
1091:Drivers/lvgl/src/widgets/lv_dropdown.c ****     lv_obj_t * dropdown_obj = list->dropdown;
 478              		.loc 1 1091 5 is_stmt 1 view .LVU136
 479              	.LVL50:
1092:Drivers/lvgl/src/widgets/lv_dropdown.c ****     lv_dropdown_t * dropdown = (lv_dropdown_t *)dropdown_obj;
 480              		.loc 1 1092 5 view .LVU137
1092:Drivers/lvgl/src/widgets/lv_dropdown.c ****     lv_dropdown_t * dropdown = (lv_dropdown_t *)dropdown_obj;
 481              		.loc 1 1092 16 is_stmt 0 view .LVU138
 482 0006 466A     		ldr	r6, [r0, #36]
 483              	.LVL51:
1093:Drivers/lvgl/src/widgets/lv_dropdown.c **** 
 484              		.loc 1 1093 5 is_stmt 1 view .LVU139
1095:Drivers/lvgl/src/widgets/lv_dropdown.c ****     if(indev && (lv_indev_get_type(indev) == LV_INDEV_TYPE_POINTER || lv_indev_get_type(indev) == L
 485              		.loc 1 1095 5 view .LVU140
1095:Drivers/lvgl/src/widgets/lv_dropdown.c ****     if(indev && (lv_indev_get_type(indev) == LV_INDEV_TYPE_POINTER || lv_indev_get_type(indev) == L
 486              		.loc 1 1095 26 is_stmt 0 view .LVU141
 487 0008 FFF7FEFF 		bl	lv_indev_get_act
ARM GAS  /var/folders/lp/x54gwt890xv47sdkqj1k04q40000gn/T//cczFasrC.s 			page 42


 488              	.LVL52:
1096:Drivers/lvgl/src/widgets/lv_dropdown.c ****         lv_point_t p;
 489              		.loc 1 1096 5 is_stmt 1 view .LVU142
1096:Drivers/lvgl/src/widgets/lv_dropdown.c ****         lv_point_t p;
 490              		.loc 1 1096 7 is_stmt 0 view .LVU143
 491 000c B0B1     		cbz	r0, .L25
 492 000e 0546     		mov	r5, r0
1096:Drivers/lvgl/src/widgets/lv_dropdown.c ****         lv_point_t p;
 493              		.loc 1 1096 18 discriminator 1 view .LVU144
 494 0010 FFF7FEFF 		bl	lv_indev_get_type
 495              	.LVL53:
1096:Drivers/lvgl/src/widgets/lv_dropdown.c ****         lv_point_t p;
 496              		.loc 1 1096 14 discriminator 1 view .LVU145
 497 0014 0128     		cmp	r0, #1
 498 0016 04D0     		beq	.L27
1096:Drivers/lvgl/src/widgets/lv_dropdown.c ****         lv_point_t p;
 499              		.loc 1 1096 71 discriminator 2 view .LVU146
 500 0018 2846     		mov	r0, r5
 501 001a FFF7FEFF 		bl	lv_indev_get_type
 502              	.LVL54:
1096:Drivers/lvgl/src/widgets/lv_dropdown.c ****         lv_point_t p;
 503              		.loc 1 1096 68 discriminator 1 view .LVU147
 504 001e 0328     		cmp	r0, #3
 505 0020 0CD1     		bne	.L25
 506              	.L27:
 507              	.LBB69:
1097:Drivers/lvgl/src/widgets/lv_dropdown.c ****         lv_indev_get_point(indev, &p);
 508              		.loc 1 1097 9 is_stmt 1 view .LVU148
1098:Drivers/lvgl/src/widgets/lv_dropdown.c ****         dropdown->pr_opt_id = get_id_on_point(dropdown_obj, p.y);
 509              		.loc 1 1098 9 view .LVU149
 510 0022 01A9     		add	r1, sp, #4
 511 0024 2846     		mov	r0, r5
 512 0026 FFF7FEFF 		bl	lv_indev_get_point
 513              	.LVL55:
1099:Drivers/lvgl/src/widgets/lv_dropdown.c ****         lv_obj_invalidate(list_obj);
 514              		.loc 1 1099 9 view .LVU150
1099:Drivers/lvgl/src/widgets/lv_dropdown.c ****         lv_obj_invalidate(list_obj);
 515              		.loc 1 1099 31 is_stmt 0 view .LVU151
 516 002a BDF90610 		ldrsh	r1, [sp, #6]
 517 002e 3046     		mov	r0, r6
 518 0030 FFF7FEFF 		bl	get_id_on_point
 519              	.LVL56:
1099:Drivers/lvgl/src/widgets/lv_dropdown.c ****         lv_obj_invalidate(list_obj);
 520              		.loc 1 1099 29 discriminator 1 view .LVU152
 521 0034 7087     		strh	r0, [r6, #58]	@ movhi
1100:Drivers/lvgl/src/widgets/lv_dropdown.c ****     }
 522              		.loc 1 1100 9 is_stmt 1 view .LVU153
 523 0036 2046     		mov	r0, r4
 524 0038 FFF7FEFF 		bl	lv_obj_invalidate
 525              	.LVL57:
 526              	.L25:
1100:Drivers/lvgl/src/widgets/lv_dropdown.c ****     }
 527              		.loc 1 1100 9 is_stmt 0 view .LVU154
 528              	.LBE69:
1102:Drivers/lvgl/src/widgets/lv_dropdown.c **** 
 529              		.loc 1 1102 1 view .LVU155
 530 003c 02B0     		add	sp, sp, #8
ARM GAS  /var/folders/lp/x54gwt890xv47sdkqj1k04q40000gn/T//cczFasrC.s 			page 43


 531              		.cfi_def_cfa_offset 16
 532              		@ sp needed
 533 003e 70BD     		pop	{r4, r5, r6, pc}
1102:Drivers/lvgl/src/widgets/lv_dropdown.c **** 
 534              		.loc 1 1102 1 view .LVU156
 535              		.cfi_endproc
 536              	.LFE203:
 538              		.section	.text.draw_box,"ax",%progbits
 539              		.align	1
 540              		.syntax unified
 541              		.thumb
 542              		.thumb_func
 544              	draw_box:
 545              	.LVL58:
 546              	.LFB199:
 933:Drivers/lvgl/src/widgets/lv_dropdown.c ****     if(id == LV_DROPDOWN_PR_NONE) return;
 547              		.loc 1 933 1 is_stmt 1 view -0
 548              		.cfi_startproc
 549              		@ args = 0, pretend = 0, frame = 64
 550              		@ frame_needed = 0, uses_anonymous_args = 0
 933:Drivers/lvgl/src/widgets/lv_dropdown.c ****     if(id == LV_DROPDOWN_PR_NONE) return;
 551              		.loc 1 933 1 is_stmt 0 view .LVU158
 552 0000 2DE9F04F 		push	{r4, r5, r6, r7, r8, r9, r10, fp, lr}
 553              		.cfi_def_cfa_offset 36
 554              		.cfi_offset 4, -36
 555              		.cfi_offset 5, -32
 556              		.cfi_offset 6, -28
 557              		.cfi_offset 7, -24
 558              		.cfi_offset 8, -20
 559              		.cfi_offset 9, -16
 560              		.cfi_offset 10, -12
 561              		.cfi_offset 11, -8
 562              		.cfi_offset 14, -4
 563 0004 91B0     		sub	sp, sp, #68
 564              		.cfi_def_cfa_offset 104
 565 0006 9346     		mov	fp, r2
 934:Drivers/lvgl/src/widgets/lv_dropdown.c **** 
 566              		.loc 1 934 5 is_stmt 1 view .LVU159
 934:Drivers/lvgl/src/widgets/lv_dropdown.c **** 
 567              		.loc 1 934 7 is_stmt 0 view .LVU160
 568 0008 4FF6FF72 		movw	r2, #65535
 569              	.LVL59:
 934:Drivers/lvgl/src/widgets/lv_dropdown.c **** 
 570              		.loc 1 934 7 view .LVU161
 571 000c 9345     		cmp	fp, r2
 572 000e 5CD0     		beq	.L29
 573 0010 0546     		mov	r5, r0
 574 0012 0F46     		mov	r7, r1
 936:Drivers/lvgl/src/widgets/lv_dropdown.c ****     lv_obj_t * list_obj = dropdown->list;
 575              		.loc 1 936 5 is_stmt 1 view .LVU162
 576              	.LVL60:
 937:Drivers/lvgl/src/widgets/lv_dropdown.c ****     lv_state_t state_ori = list_obj->state;
 577              		.loc 1 937 5 view .LVU163
 937:Drivers/lvgl/src/widgets/lv_dropdown.c ****     lv_state_t state_ori = list_obj->state;
 578              		.loc 1 937 16 is_stmt 0 view .LVU164
 579 0014 446A     		ldr	r4, [r0, #36]
 580              	.LVL61:
ARM GAS  /var/folders/lp/x54gwt890xv47sdkqj1k04q40000gn/T//cczFasrC.s 			page 44


 938:Drivers/lvgl/src/widgets/lv_dropdown.c **** 
 581              		.loc 1 938 5 is_stmt 1 view .LVU165
 938:Drivers/lvgl/src/widgets/lv_dropdown.c **** 
 582              		.loc 1 938 16 is_stmt 0 view .LVU166
 583 0016 B4F82080 		ldrh	r8, [r4, #32]
 584              	.LVL62:
 940:Drivers/lvgl/src/widgets/lv_dropdown.c ****         list_obj->state = state;
 585              		.loc 1 940 5 is_stmt 1 view .LVU167
 940:Drivers/lvgl/src/widgets/lv_dropdown.c ****         list_obj->state = state;
 586              		.loc 1 940 7 is_stmt 0 view .LVU168
 587 001a 9845     		cmp	r8, r3
 588 001c 06D0     		beq	.L32
 941:Drivers/lvgl/src/widgets/lv_dropdown.c ****         list_obj->skip_trans = 1;
 589              		.loc 1 941 9 is_stmt 1 view .LVU169
 941:Drivers/lvgl/src/widgets/lv_dropdown.c ****         list_obj->skip_trans = 1;
 590              		.loc 1 941 25 is_stmt 0 view .LVU170
 591 001e 2384     		strh	r3, [r4, #32]	@ movhi
 942:Drivers/lvgl/src/widgets/lv_dropdown.c ****     }
 592              		.loc 1 942 9 is_stmt 1 view .LVU171
 942:Drivers/lvgl/src/widgets/lv_dropdown.c ****     }
 593              		.loc 1 942 30 is_stmt 0 view .LVU172
 594 0020 94F82230 		ldrb	r3, [r4, #34]	@ zero_extendqisi2
 595              	.LVL63:
 942:Drivers/lvgl/src/widgets/lv_dropdown.c ****     }
 596              		.loc 1 942 30 view .LVU173
 597 0024 43F00803 		orr	r3, r3, #8
 598 0028 84F82230 		strb	r3, [r4, #34]
 599              	.LVL64:
 600              	.L32:
 946:Drivers/lvgl/src/widgets/lv_dropdown.c ****     lv_coord_t line_space = lv_obj_get_style_text_line_space(list_obj,  LV_PART_SELECTED);
 601              		.loc 1 946 5 is_stmt 1 view .LVU174
 602              	.LBB70:
 603              	.LBI70:
 463:Drivers/lvgl/src/widgets/../core/lv_obj_style_gen.h **** {
 604              		.loc 2 463 33 view .LVU175
 605              	.LBB71:
 465:Drivers/lvgl/src/widgets/../core/lv_obj_style_gen.h ****     return (const lv_font_t *)v.ptr;
 606              		.loc 2 465 5 view .LVU176
 465:Drivers/lvgl/src/widgets/../core/lv_obj_style_gen.h ****     return (const lv_font_t *)v.ptr;
 607              		.loc 2 465 26 is_stmt 0 view .LVU177
 608 002c 5722     		movs	r2, #87
 609 002e 4FF48021 		mov	r1, #262144
 610              	.LVL65:
 465:Drivers/lvgl/src/widgets/../core/lv_obj_style_gen.h ****     return (const lv_font_t *)v.ptr;
 611              		.loc 2 465 26 view .LVU178
 612 0032 2046     		mov	r0, r4
 613              	.LVL66:
 465:Drivers/lvgl/src/widgets/../core/lv_obj_style_gen.h ****     return (const lv_font_t *)v.ptr;
 614              		.loc 2 465 26 view .LVU179
 615 0034 FFF7FEFF 		bl	lv_obj_get_style_prop
 616              	.LVL67:
 617 0038 8146     		mov	r9, r0
 618              	.LVL68:
 466:Drivers/lvgl/src/widgets/../core/lv_obj_style_gen.h **** }
 619              		.loc 2 466 5 is_stmt 1 view .LVU180
 466:Drivers/lvgl/src/widgets/../core/lv_obj_style_gen.h **** }
 620              		.loc 2 466 5 is_stmt 0 view .LVU181
ARM GAS  /var/folders/lp/x54gwt890xv47sdkqj1k04q40000gn/T//cczFasrC.s 			page 45


 621              	.LBE71:
 622              	.LBE70:
 947:Drivers/lvgl/src/widgets/lv_dropdown.c ****     lv_coord_t font_h         = lv_font_get_line_height(font);
 623              		.loc 1 947 5 is_stmt 1 view .LVU182
 624              	.LBB72:
 625              	.LBI72:
 475:Drivers/lvgl/src/widgets/../core/lv_obj_style_gen.h **** {
 626              		.loc 2 475 26 view .LVU183
 627              	.LBB73:
 477:Drivers/lvgl/src/widgets/../core/lv_obj_style_gen.h ****     return (lv_coord_t)v.num;
 628              		.loc 2 477 5 view .LVU184
 477:Drivers/lvgl/src/widgets/../core/lv_obj_style_gen.h ****     return (lv_coord_t)v.num;
 629              		.loc 2 477 26 is_stmt 0 view .LVU185
 630 003a 5922     		movs	r2, #89
 631 003c 4FF48021 		mov	r1, #262144
 632 0040 2046     		mov	r0, r4
 633              	.LVL69:
 477:Drivers/lvgl/src/widgets/../core/lv_obj_style_gen.h ****     return (lv_coord_t)v.num;
 634              		.loc 2 477 26 view .LVU186
 635 0042 FFF7FEFF 		bl	lv_obj_get_style_prop
 636              	.LVL70:
 637 0046 0646     		mov	r6, r0
 638              	.LVL71:
 639              		.loc 2 478 5 is_stmt 1 view .LVU187
 640              		.loc 2 478 12 is_stmt 0 view .LVU188
 641 0048 0FFA80FA 		sxth	r10, r0
 642              	.LVL72:
 643              		.loc 2 478 12 view .LVU189
 644              	.LBE73:
 645              	.LBE72:
 948:Drivers/lvgl/src/widgets/lv_dropdown.c **** 
 646              		.loc 1 948 5 is_stmt 1 view .LVU190
 647              	.LBB74:
 648              	.LBI74:
 124:Drivers/lvgl/src/widgets/../core/../misc/../font/lv_font.h **** {
 649              		.loc 3 124 26 view .LVU191
 650              	.LBB75:
 651              		.loc 3 126 5 view .LVU192
 652              		.loc 3 126 18 is_stmt 0 view .LVU193
 653 004c B9F90890 		ldrsh	r9, [r9, #8]
 654              	.LVL73:
 655              		.loc 3 126 18 view .LVU194
 656              	.LBE75:
 657              	.LBE74:
 951:Drivers/lvgl/src/widgets/lv_dropdown.c ****     lv_area_t rect_area;
 658              		.loc 1 951 5 is_stmt 1 view .LVU195
 951:Drivers/lvgl/src/widgets/lv_dropdown.c ****     lv_area_t rect_area;
 659              		.loc 1 951 24 is_stmt 0 view .LVU196
 660 0050 2846     		mov	r0, r5
 951:Drivers/lvgl/src/widgets/lv_dropdown.c ****     lv_area_t rect_area;
 661              		.loc 1 951 24 view .LVU197
 662 0052 FFF7FEFF 		bl	get_label
 663              	.LVL74:
 952:Drivers/lvgl/src/widgets/lv_dropdown.c ****     rect_area.y1 = label->coords.y1;
 664              		.loc 1 952 5 is_stmt 1 view .LVU198
 953:Drivers/lvgl/src/widgets/lv_dropdown.c ****     rect_area.y1 += id * (font_h + line_space);
 665              		.loc 1 953 5 view .LVU199
ARM GAS  /var/folders/lp/x54gwt890xv47sdkqj1k04q40000gn/T//cczFasrC.s 			page 46


 953:Drivers/lvgl/src/widgets/lv_dropdown.c ****     rect_area.y1 += id * (font_h + line_space);
 666              		.loc 1 953 33 is_stmt 0 view .LVU200
 667 0056 B0F91630 		ldrsh	r3, [r0, #22]
 953:Drivers/lvgl/src/widgets/lv_dropdown.c ****     rect_area.y1 += id * (font_h + line_space);
 668              		.loc 1 953 18 view .LVU201
 669 005a ADF83A30 		strh	r3, [sp, #58]	@ movhi
 954:Drivers/lvgl/src/widgets/lv_dropdown.c ****     rect_area.y1 -= line_space / 2;
 670              		.loc 1 954 5 is_stmt 1 view .LVU202
 954:Drivers/lvgl/src/widgets/lv_dropdown.c ****     rect_area.y1 -= line_space / 2;
 671              		.loc 1 954 34 is_stmt 0 view .LVU203
 672 005e 09EB0A02 		add	r2, r9, r10
 954:Drivers/lvgl/src/widgets/lv_dropdown.c ****     rect_area.y1 -= line_space / 2;
 673              		.loc 1 954 18 view .LVU204
 674 0062 12FB0BF2 		smulbb	r2, r2, fp
 675 0066 12FA83F3 		uxtah	r3, r2, r3
 676 006a 9BB2     		uxth	r3, r3
 677 006c ADF83A30 		strh	r3, [sp, #58]	@ movhi
 955:Drivers/lvgl/src/widgets/lv_dropdown.c **** 
 678              		.loc 1 955 5 is_stmt 1 view .LVU205
 955:Drivers/lvgl/src/widgets/lv_dropdown.c **** 
 679              		.loc 1 955 18 is_stmt 0 view .LVU206
 680 0070 0AEBDA7A 		add	r10, r10, r10, lsr #31
 681              	.LVL75:
 955:Drivers/lvgl/src/widgets/lv_dropdown.c **** 
 682              		.loc 1 955 18 view .LVU207
 683 0074 A3EB6A03 		sub	r3, r3, r10, asr #1
 684 0078 9BB2     		uxth	r3, r3
 685 007a ADF83A30 		strh	r3, [sp, #58]	@ movhi
 957:Drivers/lvgl/src/widgets/lv_dropdown.c ****     rect_area.x1 = dropdown->list->coords.x1;
 686              		.loc 1 957 5 is_stmt 1 view .LVU208
 957:Drivers/lvgl/src/widgets/lv_dropdown.c ****     rect_area.x1 = dropdown->list->coords.x1;
 687              		.loc 1 957 33 is_stmt 0 view .LVU209
 688 007e 4B44     		add	r3, r3, r9
 689              	.LVL76:
 957:Drivers/lvgl/src/widgets/lv_dropdown.c ****     rect_area.x1 = dropdown->list->coords.x1;
 690              		.loc 1 957 42 view .LVU210
 691 0080 16FA83F3 		uxtah	r3, r6, r3
 692 0084 9BB2     		uxth	r3, r3
 957:Drivers/lvgl/src/widgets/lv_dropdown.c ****     rect_area.x1 = dropdown->list->coords.x1;
 693              		.loc 1 957 55 view .LVU211
 694 0086 013B     		subs	r3, r3, #1
 957:Drivers/lvgl/src/widgets/lv_dropdown.c ****     rect_area.x1 = dropdown->list->coords.x1;
 695              		.loc 1 957 18 view .LVU212
 696 0088 ADF83E30 		strh	r3, [sp, #62]	@ movhi
 958:Drivers/lvgl/src/widgets/lv_dropdown.c ****     rect_area.x2 = dropdown->list->coords.x2;
 697              		.loc 1 958 5 is_stmt 1 view .LVU213
 958:Drivers/lvgl/src/widgets/lv_dropdown.c ****     rect_area.x2 = dropdown->list->coords.x2;
 698              		.loc 1 958 28 is_stmt 0 view .LVU214
 699 008c 6B6A     		ldr	r3, [r5, #36]
 958:Drivers/lvgl/src/widgets/lv_dropdown.c ****     rect_area.x2 = dropdown->list->coords.x2;
 700              		.loc 1 958 42 view .LVU215
 701 008e B3F91420 		ldrsh	r2, [r3, #20]
 958:Drivers/lvgl/src/widgets/lv_dropdown.c ****     rect_area.x2 = dropdown->list->coords.x2;
 702              		.loc 1 958 18 view .LVU216
 703 0092 ADF83820 		strh	r2, [sp, #56]	@ movhi
 959:Drivers/lvgl/src/widgets/lv_dropdown.c **** 
 704              		.loc 1 959 5 is_stmt 1 view .LVU217
ARM GAS  /var/folders/lp/x54gwt890xv47sdkqj1k04q40000gn/T//cczFasrC.s 			page 47


 959:Drivers/lvgl/src/widgets/lv_dropdown.c **** 
 705              		.loc 1 959 42 is_stmt 0 view .LVU218
 706 0096 B3F91830 		ldrsh	r3, [r3, #24]
 959:Drivers/lvgl/src/widgets/lv_dropdown.c **** 
 707              		.loc 1 959 18 view .LVU219
 708 009a ADF83C30 		strh	r3, [sp, #60]	@ movhi
 961:Drivers/lvgl/src/widgets/lv_dropdown.c ****     lv_draw_rect_dsc_init(&sel_rect);
 709              		.loc 1 961 5 is_stmt 1 view .LVU220
 962:Drivers/lvgl/src/widgets/lv_dropdown.c ****     lv_obj_init_draw_rect_dsc(list_obj,  LV_PART_SELECTED, &sel_rect);
 710              		.loc 1 962 5 view .LVU221
 711 009e 6846     		mov	r0, sp
 712              	.LVL77:
 962:Drivers/lvgl/src/widgets/lv_dropdown.c ****     lv_obj_init_draw_rect_dsc(list_obj,  LV_PART_SELECTED, &sel_rect);
 713              		.loc 1 962 5 is_stmt 0 view .LVU222
 714 00a0 FFF7FEFF 		bl	lv_draw_rect_dsc_init
 715              	.LVL78:
 963:Drivers/lvgl/src/widgets/lv_dropdown.c ****     lv_draw_rect(draw_ctx, &sel_rect, &rect_area);
 716              		.loc 1 963 5 is_stmt 1 view .LVU223
 717 00a4 6A46     		mov	r2, sp
 718 00a6 4FF48021 		mov	r1, #262144
 719 00aa 2046     		mov	r0, r4
 720 00ac FFF7FEFF 		bl	lv_obj_init_draw_rect_dsc
 721              	.LVL79:
 964:Drivers/lvgl/src/widgets/lv_dropdown.c **** 
 722              		.loc 1 964 5 view .LVU224
 723 00b0 0EAA     		add	r2, sp, #56
 724 00b2 6946     		mov	r1, sp
 725 00b4 3846     		mov	r0, r7
 726 00b6 FFF7FEFF 		bl	lv_draw_rect
 727              	.LVL80:
 966:Drivers/lvgl/src/widgets/lv_dropdown.c ****     list_obj->skip_trans = 0;
 728              		.loc 1 966 5 view .LVU225
 966:Drivers/lvgl/src/widgets/lv_dropdown.c ****     list_obj->skip_trans = 0;
 729              		.loc 1 966 21 is_stmt 0 view .LVU226
 730 00ba A4F82080 		strh	r8, [r4, #32]	@ movhi
 967:Drivers/lvgl/src/widgets/lv_dropdown.c **** }
 731              		.loc 1 967 5 is_stmt 1 view .LVU227
 967:Drivers/lvgl/src/widgets/lv_dropdown.c **** }
 732              		.loc 1 967 26 is_stmt 0 view .LVU228
 733 00be 94F82230 		ldrb	r3, [r4, #34]	@ zero_extendqisi2
 734 00c2 23F00803 		bic	r3, r3, #8
 735 00c6 84F82230 		strb	r3, [r4, #34]
 736              	.LVL81:
 737              	.L29:
 968:Drivers/lvgl/src/widgets/lv_dropdown.c **** 
 738              		.loc 1 968 1 view .LVU229
 739 00ca 11B0     		add	sp, sp, #68
 740              		.cfi_def_cfa_offset 36
 741              		@ sp needed
 742 00cc BDE8F08F 		pop	{r4, r5, r6, r7, r8, r9, r10, fp, pc}
 968:Drivers/lvgl/src/widgets/lv_dropdown.c **** 
 743              		.loc 1 968 1 view .LVU230
 744              		.cfi_endproc
 745              	.LFE199:
 747              		.section	.text.draw_box_label,"ax",%progbits
 748              		.align	1
 749              		.syntax unified
ARM GAS  /var/folders/lp/x54gwt890xv47sdkqj1k04q40000gn/T//cczFasrC.s 			page 48


 750              		.thumb
 751              		.thumb_func
 753              	draw_box_label:
 754              	.LVL82:
 755              	.LFB200:
 971:Drivers/lvgl/src/widgets/lv_dropdown.c ****     if(id == LV_DROPDOWN_PR_NONE) return;
 756              		.loc 1 971 1 is_stmt 1 view -0
 757              		.cfi_startproc
 758              		@ args = 0, pretend = 0, frame = 48
 759              		@ frame_needed = 0, uses_anonymous_args = 0
 971:Drivers/lvgl/src/widgets/lv_dropdown.c ****     if(id == LV_DROPDOWN_PR_NONE) return;
 760              		.loc 1 971 1 is_stmt 0 view .LVU232
 761 0000 2DE9F043 		push	{r4, r5, r6, r7, r8, r9, lr}
 762              		.cfi_def_cfa_offset 28
 763              		.cfi_offset 4, -28
 764              		.cfi_offset 5, -24
 765              		.cfi_offset 6, -20
 766              		.cfi_offset 7, -16
 767              		.cfi_offset 8, -12
 768              		.cfi_offset 9, -8
 769              		.cfi_offset 14, -4
 770 0004 8FB0     		sub	sp, sp, #60
 771              		.cfi_def_cfa_offset 88
 772 0006 9046     		mov	r8, r2
 972:Drivers/lvgl/src/widgets/lv_dropdown.c **** 
 773              		.loc 1 972 5 is_stmt 1 view .LVU233
 972:Drivers/lvgl/src/widgets/lv_dropdown.c **** 
 774              		.loc 1 972 7 is_stmt 0 view .LVU234
 775 0008 4FF6FF72 		movw	r2, #65535
 776              	.LVL83:
 972:Drivers/lvgl/src/widgets/lv_dropdown.c **** 
 777              		.loc 1 972 7 view .LVU235
 778 000c 9045     		cmp	r8, r2
 779 000e 57D0     		beq	.L34
 780 0010 0746     		mov	r7, r0
 781 0012 0D46     		mov	r5, r1
 974:Drivers/lvgl/src/widgets/lv_dropdown.c ****     lv_obj_t * list_obj = dropdown->list;
 782              		.loc 1 974 5 is_stmt 1 view .LVU236
 783              	.LVL84:
 975:Drivers/lvgl/src/widgets/lv_dropdown.c ****     lv_state_t state_orig = list_obj->state;
 784              		.loc 1 975 5 view .LVU237
 975:Drivers/lvgl/src/widgets/lv_dropdown.c ****     lv_state_t state_orig = list_obj->state;
 785              		.loc 1 975 16 is_stmt 0 view .LVU238
 786 0014 446A     		ldr	r4, [r0, #36]
 787              	.LVL85:
 976:Drivers/lvgl/src/widgets/lv_dropdown.c **** 
 788              		.loc 1 976 5 is_stmt 1 view .LVU239
 976:Drivers/lvgl/src/widgets/lv_dropdown.c **** 
 789              		.loc 1 976 16 is_stmt 0 view .LVU240
 790 0016 268C     		ldrh	r6, [r4, #32]
 791              	.LVL86:
 978:Drivers/lvgl/src/widgets/lv_dropdown.c ****         list_obj->state = state;
 792              		.loc 1 978 5 is_stmt 1 view .LVU241
 978:Drivers/lvgl/src/widgets/lv_dropdown.c ****         list_obj->state = state;
 793              		.loc 1 978 7 is_stmt 0 view .LVU242
 794 0018 9E42     		cmp	r6, r3
 795 001a 06D0     		beq	.L36
ARM GAS  /var/folders/lp/x54gwt890xv47sdkqj1k04q40000gn/T//cczFasrC.s 			page 49


 979:Drivers/lvgl/src/widgets/lv_dropdown.c ****         list_obj->skip_trans = 1;
 796              		.loc 1 979 9 is_stmt 1 view .LVU243
 979:Drivers/lvgl/src/widgets/lv_dropdown.c ****         list_obj->skip_trans = 1;
 797              		.loc 1 979 25 is_stmt 0 view .LVU244
 798 001c 2384     		strh	r3, [r4, #32]	@ movhi
 980:Drivers/lvgl/src/widgets/lv_dropdown.c ****     }
 799              		.loc 1 980 9 is_stmt 1 view .LVU245
 980:Drivers/lvgl/src/widgets/lv_dropdown.c ****     }
 800              		.loc 1 980 30 is_stmt 0 view .LVU246
 801 001e 94F82230 		ldrb	r3, [r4, #34]	@ zero_extendqisi2
 802              	.LVL87:
 980:Drivers/lvgl/src/widgets/lv_dropdown.c ****     }
 803              		.loc 1 980 30 view .LVU247
 804 0022 43F00803 		orr	r3, r3, #8
 805 0026 84F82230 		strb	r3, [r4, #34]
 806              	.LVL88:
 807              	.L36:
 983:Drivers/lvgl/src/widgets/lv_dropdown.c ****     lv_draw_label_dsc_init(&label_dsc);
 808              		.loc 1 983 5 is_stmt 1 view .LVU248
 984:Drivers/lvgl/src/widgets/lv_dropdown.c ****     lv_obj_init_draw_label_dsc(list_obj, LV_PART_SELECTED, &label_dsc);
 809              		.loc 1 984 5 view .LVU249
 810 002a 06A8     		add	r0, sp, #24
 811              	.LVL89:
 984:Drivers/lvgl/src/widgets/lv_dropdown.c ****     lv_obj_init_draw_label_dsc(list_obj, LV_PART_SELECTED, &label_dsc);
 812              		.loc 1 984 5 is_stmt 0 view .LVU250
 813 002c FFF7FEFF 		bl	lv_draw_label_dsc_init
 814              	.LVL90:
 985:Drivers/lvgl/src/widgets/lv_dropdown.c **** 
 815              		.loc 1 985 5 is_stmt 1 view .LVU251
 816 0030 06AA     		add	r2, sp, #24
 817 0032 4FF48021 		mov	r1, #262144
 818 0036 2046     		mov	r0, r4
 819 0038 FFF7FEFF 		bl	lv_obj_init_draw_label_dsc
 820              	.LVL91:
 987:Drivers/lvgl/src/widgets/lv_dropdown.c ****                                                             LV_PART_SELECTED);  /*Line space should
 821              		.loc 1 987 5 view .LVU252
 822              	.LBB76:
 823              	.LBI76:
 475:Drivers/lvgl/src/widgets/../core/lv_obj_style_gen.h **** {
 824              		.loc 2 475 26 view .LVU253
 825              	.LBB77:
 477:Drivers/lvgl/src/widgets/../core/lv_obj_style_gen.h ****     return (lv_coord_t)v.num;
 826              		.loc 2 477 5 view .LVU254
 477:Drivers/lvgl/src/widgets/../core/lv_obj_style_gen.h ****     return (lv_coord_t)v.num;
 827              		.loc 2 477 26 is_stmt 0 view .LVU255
 828 003c 5922     		movs	r2, #89
 829 003e 4FF48021 		mov	r1, #262144
 830 0042 2046     		mov	r0, r4
 831 0044 FFF7FEFF 		bl	lv_obj_get_style_prop
 832              	.LVL92:
 833              		.loc 2 478 5 is_stmt 1 view .LVU256
 834              		.loc 2 478 5 is_stmt 0 view .LVU257
 835              	.LBE77:
 836              	.LBE76:
 987:Drivers/lvgl/src/widgets/lv_dropdown.c ****                                                             LV_PART_SELECTED);  /*Line space should
 837              		.loc 1 987 26 discriminator 1 view .LVU258
 838 0048 ADF82A00 		strh	r0, [sp, #42]	@ movhi
ARM GAS  /var/folders/lp/x54gwt890xv47sdkqj1k04q40000gn/T//cczFasrC.s 			page 50


 990:Drivers/lvgl/src/widgets/lv_dropdown.c ****     if(label == NULL) return;
 839              		.loc 1 990 5 is_stmt 1 view .LVU259
 990:Drivers/lvgl/src/widgets/lv_dropdown.c ****     if(label == NULL) return;
 840              		.loc 1 990 24 is_stmt 0 view .LVU260
 841 004c 3846     		mov	r0, r7
 842 004e FFF7FEFF 		bl	get_label
 843              	.LVL93:
 991:Drivers/lvgl/src/widgets/lv_dropdown.c **** 
 844              		.loc 1 991 5 is_stmt 1 view .LVU261
 991:Drivers/lvgl/src/widgets/lv_dropdown.c **** 
 845              		.loc 1 991 7 is_stmt 0 view .LVU262
 846 0052 0746     		mov	r7, r0
 847              	.LVL94:
 991:Drivers/lvgl/src/widgets/lv_dropdown.c **** 
 848              		.loc 1 991 7 view .LVU263
 849 0054 A0B3     		cbz	r0, .L34
 993:Drivers/lvgl/src/widgets/lv_dropdown.c **** 
 850              		.loc 1 993 5 is_stmt 1 view .LVU264
 993:Drivers/lvgl/src/widgets/lv_dropdown.c **** 
 851              		.loc 1 993 32 is_stmt 0 view .LVU265
 852 0056 069B     		ldr	r3, [sp, #24]
 853              	.LVL95:
 854              	.LBB78:
 855              	.LBI78:
 124:Drivers/lvgl/src/widgets/../core/../misc/../font/lv_font.h **** {
 856              		.loc 3 124 26 is_stmt 1 view .LVU266
 857              	.LBB79:
 858              		.loc 3 126 5 view .LVU267
 859              		.loc 3 126 18 is_stmt 0 view .LVU268
 860 0058 B3F90800 		ldrsh	r0, [r3, #8]
 861              	.LVL96:
 862              		.loc 3 126 18 view .LVU269
 863              	.LBE79:
 864              	.LBE78:
 995:Drivers/lvgl/src/widgets/lv_dropdown.c ****     area_sel.y1 = label->coords.y1;
 865              		.loc 1 995 5 is_stmt 1 view .LVU270
 996:Drivers/lvgl/src/widgets/lv_dropdown.c ****     area_sel.y1 += id * (font_h + label_dsc.line_space);
 866              		.loc 1 996 5 view .LVU271
 996:Drivers/lvgl/src/widgets/lv_dropdown.c ****     area_sel.y1 += id * (font_h + label_dsc.line_space);
 867              		.loc 1 996 32 is_stmt 0 view .LVU272
 868 005c B7F91630 		ldrsh	r3, [r7, #22]
 996:Drivers/lvgl/src/widgets/lv_dropdown.c ****     area_sel.y1 += id * (font_h + label_dsc.line_space);
 869              		.loc 1 996 17 view .LVU273
 870 0060 ADF81230 		strh	r3, [sp, #18]	@ movhi
 997:Drivers/lvgl/src/widgets/lv_dropdown.c ****     area_sel.y1 -= label_dsc.line_space / 2;
 871              		.loc 1 997 5 is_stmt 1 view .LVU274
 997:Drivers/lvgl/src/widgets/lv_dropdown.c ****     area_sel.y1 -= label_dsc.line_space / 2;
 872              		.loc 1 997 44 is_stmt 0 view .LVU275
 873 0064 BDF92A20 		ldrsh	r2, [sp, #42]
 997:Drivers/lvgl/src/widgets/lv_dropdown.c ****     area_sel.y1 -= label_dsc.line_space / 2;
 874              		.loc 1 997 33 view .LVU276
 875 0068 8118     		adds	r1, r0, r2
 997:Drivers/lvgl/src/widgets/lv_dropdown.c ****     area_sel.y1 -= label_dsc.line_space / 2;
 876              		.loc 1 997 17 view .LVU277
 877 006a 11FB08F1 		smulbb	r1, r1, r8
 878 006e 11FA83F3 		uxtah	r3, r1, r3
 879 0072 9BB2     		uxth	r3, r3
ARM GAS  /var/folders/lp/x54gwt890xv47sdkqj1k04q40000gn/T//cczFasrC.s 			page 51


 880 0074 ADF81230 		strh	r3, [sp, #18]	@ movhi
 998:Drivers/lvgl/src/widgets/lv_dropdown.c **** 
 881              		.loc 1 998 5 is_stmt 1 view .LVU278
 998:Drivers/lvgl/src/widgets/lv_dropdown.c **** 
 882              		.loc 1 998 17 is_stmt 0 view .LVU279
 883 0078 02EBD271 		add	r1, r2, r2, lsr #31
 884 007c A3EB6103 		sub	r3, r3, r1, asr #1
 885 0080 9BB2     		uxth	r3, r3
 886 0082 ADF81230 		strh	r3, [sp, #18]	@ movhi
1000:Drivers/lvgl/src/widgets/lv_dropdown.c ****     area_sel.x1 = list_obj->coords.x1;
 887              		.loc 1 1000 5 is_stmt 1 view .LVU280
1000:Drivers/lvgl/src/widgets/lv_dropdown.c ****     area_sel.x1 = list_obj->coords.x1;
 888              		.loc 1 1000 31 is_stmt 0 view .LVU281
 889 0086 0344     		add	r3, r3, r0
1000:Drivers/lvgl/src/widgets/lv_dropdown.c ****     area_sel.x1 = list_obj->coords.x1;
 890              		.loc 1 1000 51 view .LVU282
 891 0088 92B2     		uxth	r2, r2
1000:Drivers/lvgl/src/widgets/lv_dropdown.c ****     area_sel.x1 = list_obj->coords.x1;
 892              		.loc 1 1000 40 view .LVU283
 893 008a 12FA83F3 		uxtah	r3, r2, r3
 894 008e 9BB2     		uxth	r3, r3
1000:Drivers/lvgl/src/widgets/lv_dropdown.c ****     area_sel.x1 = list_obj->coords.x1;
 895              		.loc 1 1000 63 view .LVU284
 896 0090 013B     		subs	r3, r3, #1
1000:Drivers/lvgl/src/widgets/lv_dropdown.c ****     area_sel.x1 = list_obj->coords.x1;
 897              		.loc 1 1000 17 view .LVU285
 898 0092 ADF81630 		strh	r3, [sp, #22]	@ movhi
1001:Drivers/lvgl/src/widgets/lv_dropdown.c ****     area_sel.x2 = list_obj->coords.x2;
 899              		.loc 1 1001 5 is_stmt 1 view .LVU286
1001:Drivers/lvgl/src/widgets/lv_dropdown.c ****     area_sel.x2 = list_obj->coords.x2;
 900              		.loc 1 1001 35 is_stmt 0 view .LVU287
 901 0096 B4F91430 		ldrsh	r3, [r4, #20]
1001:Drivers/lvgl/src/widgets/lv_dropdown.c ****     area_sel.x2 = list_obj->coords.x2;
 902              		.loc 1 1001 17 view .LVU288
 903 009a ADF81030 		strh	r3, [sp, #16]	@ movhi
1002:Drivers/lvgl/src/widgets/lv_dropdown.c ****     lv_area_t mask_sel;
 904              		.loc 1 1002 5 is_stmt 1 view .LVU289
1002:Drivers/lvgl/src/widgets/lv_dropdown.c ****     lv_area_t mask_sel;
 905              		.loc 1 1002 35 is_stmt 0 view .LVU290
 906 009e B4F91830 		ldrsh	r3, [r4, #24]
1002:Drivers/lvgl/src/widgets/lv_dropdown.c ****     lv_area_t mask_sel;
 907              		.loc 1 1002 17 view .LVU291
 908 00a2 ADF81430 		strh	r3, [sp, #20]	@ movhi
1003:Drivers/lvgl/src/widgets/lv_dropdown.c ****     bool area_ok;
 909              		.loc 1 1003 5 is_stmt 1 view .LVU292
1004:Drivers/lvgl/src/widgets/lv_dropdown.c ****     area_ok = _lv_area_intersect(&mask_sel, draw_ctx->clip_area, &area_sel);
 910              		.loc 1 1004 5 view .LVU293
1005:Drivers/lvgl/src/widgets/lv_dropdown.c ****     if(area_ok) {
 911              		.loc 1 1005 5 view .LVU294
1005:Drivers/lvgl/src/widgets/lv_dropdown.c ****     if(area_ok) {
 912              		.loc 1 1005 15 is_stmt 0 view .LVU295
 913 00a6 04AA     		add	r2, sp, #16
 914 00a8 A968     		ldr	r1, [r5, #8]
 915 00aa 02A8     		add	r0, sp, #8
 916              	.LVL97:
1005:Drivers/lvgl/src/widgets/lv_dropdown.c ****     if(area_ok) {
 917              		.loc 1 1005 15 view .LVU296
ARM GAS  /var/folders/lp/x54gwt890xv47sdkqj1k04q40000gn/T//cczFasrC.s 			page 52


 918 00ac FFF7FEFF 		bl	_lv_area_intersect
 919              	.LVL98:
1006:Drivers/lvgl/src/widgets/lv_dropdown.c ****         const lv_area_t * clip_area_ori = draw_ctx->clip_area;
 920              		.loc 1 1006 5 is_stmt 1 view .LVU297
1006:Drivers/lvgl/src/widgets/lv_dropdown.c ****         const lv_area_t * clip_area_ori = draw_ctx->clip_area;
 921              		.loc 1 1006 7 is_stmt 0 view .LVU298
 922 00b0 48B9     		cbnz	r0, .L40
 923              	.LVL99:
 924              	.L37:
1012:Drivers/lvgl/src/widgets/lv_dropdown.c ****     list_obj->skip_trans = 0;
 925              		.loc 1 1012 5 is_stmt 1 view .LVU299
1012:Drivers/lvgl/src/widgets/lv_dropdown.c ****     list_obj->skip_trans = 0;
 926              		.loc 1 1012 21 is_stmt 0 view .LVU300
 927 00b2 2684     		strh	r6, [r4, #32]	@ movhi
1013:Drivers/lvgl/src/widgets/lv_dropdown.c **** }
 928              		.loc 1 1013 5 is_stmt 1 view .LVU301
1013:Drivers/lvgl/src/widgets/lv_dropdown.c **** }
 929              		.loc 1 1013 26 is_stmt 0 view .LVU302
 930 00b4 94F82230 		ldrb	r3, [r4, #34]	@ zero_extendqisi2
 931 00b8 23F00803 		bic	r3, r3, #8
 932 00bc 84F82230 		strb	r3, [r4, #34]
 933              	.LVL100:
 934              	.L34:
1014:Drivers/lvgl/src/widgets/lv_dropdown.c **** 
 935              		.loc 1 1014 1 view .LVU303
 936 00c0 0FB0     		add	sp, sp, #60
 937              		.cfi_remember_state
 938              		.cfi_def_cfa_offset 28
 939              		@ sp needed
 940 00c2 BDE8F083 		pop	{r4, r5, r6, r7, r8, r9, pc}
 941              	.LVL101:
 942              	.L40:
 943              		.cfi_restore_state
 944              	.LBB80:
1007:Drivers/lvgl/src/widgets/lv_dropdown.c ****         draw_ctx->clip_area = &mask_sel;
 945              		.loc 1 1007 9 is_stmt 1 view .LVU304
1007:Drivers/lvgl/src/widgets/lv_dropdown.c ****         draw_ctx->clip_area = &mask_sel;
 946              		.loc 1 1007 27 is_stmt 0 view .LVU305
 947 00c6 D5F80880 		ldr	r8, [r5, #8]
 948              	.LVL102:
1008:Drivers/lvgl/src/widgets/lv_dropdown.c ****         lv_draw_label(draw_ctx, &label_dsc, &label->coords, lv_label_get_text(label), NULL);
 949              		.loc 1 1008 9 is_stmt 1 view .LVU306
1008:Drivers/lvgl/src/widgets/lv_dropdown.c ****         lv_draw_label(draw_ctx, &label_dsc, &label->coords, lv_label_get_text(label), NULL);
 950              		.loc 1 1008 29 is_stmt 0 view .LVU307
 951 00ca 02AB     		add	r3, sp, #8
 952 00cc AB60     		str	r3, [r5, #8]
1009:Drivers/lvgl/src/widgets/lv_dropdown.c ****         draw_ctx->clip_area = clip_area_ori;
 953              		.loc 1 1009 9 is_stmt 1 view .LVU308
1009:Drivers/lvgl/src/widgets/lv_dropdown.c ****         draw_ctx->clip_area = clip_area_ori;
 954              		.loc 1 1009 45 is_stmt 0 view .LVU309
 955 00ce 07F11409 		add	r9, r7, #20
1009:Drivers/lvgl/src/widgets/lv_dropdown.c ****         draw_ctx->clip_area = clip_area_ori;
 956              		.loc 1 1009 61 view .LVU310
 957 00d2 3846     		mov	r0, r7
 958              	.LVL103:
1009:Drivers/lvgl/src/widgets/lv_dropdown.c ****         draw_ctx->clip_area = clip_area_ori;
 959              		.loc 1 1009 61 view .LVU311
ARM GAS  /var/folders/lp/x54gwt890xv47sdkqj1k04q40000gn/T//cczFasrC.s 			page 53


 960 00d4 FFF7FEFF 		bl	lv_label_get_text
 961              	.LVL104:
 962 00d8 0346     		mov	r3, r0
1009:Drivers/lvgl/src/widgets/lv_dropdown.c ****         draw_ctx->clip_area = clip_area_ori;
 963              		.loc 1 1009 9 discriminator 1 view .LVU312
 964 00da 0022     		movs	r2, #0
 965 00dc 0092     		str	r2, [sp]
 966 00de 4A46     		mov	r2, r9
 967 00e0 06A9     		add	r1, sp, #24
 968 00e2 2846     		mov	r0, r5
 969 00e4 FFF7FEFF 		bl	lv_draw_label
 970              	.LVL105:
1010:Drivers/lvgl/src/widgets/lv_dropdown.c ****     }
 971              		.loc 1 1010 9 is_stmt 1 view .LVU313
1010:Drivers/lvgl/src/widgets/lv_dropdown.c ****     }
 972              		.loc 1 1010 29 is_stmt 0 view .LVU314
 973 00e8 C5F80880 		str	r8, [r5, #8]
 974 00ec E1E7     		b	.L37
 975              	.LBE80:
 976              		.cfi_endproc
 977              	.LFE200:
 979              		.section	.text.draw_list,"ax",%progbits
 980              		.align	1
 981              		.syntax unified
 982              		.thumb
 983              		.thumb_func
 985              	draw_list:
 986              	.LVL106:
 987              	.LFB198:
 897:Drivers/lvgl/src/widgets/lv_dropdown.c ****     lv_obj_t * list_obj = lv_event_get_target(e);
 988              		.loc 1 897 1 is_stmt 1 view -0
 989              		.cfi_startproc
 990              		@ args = 0, pretend = 0, frame = 8
 991              		@ frame_needed = 0, uses_anonymous_args = 0
 897:Drivers/lvgl/src/widgets/lv_dropdown.c ****     lv_obj_t * list_obj = lv_event_get_target(e);
 992              		.loc 1 897 1 is_stmt 0 view .LVU316
 993 0000 70B5     		push	{r4, r5, r6, lr}
 994              		.cfi_def_cfa_offset 16
 995              		.cfi_offset 4, -16
 996              		.cfi_offset 5, -12
 997              		.cfi_offset 6, -8
 998              		.cfi_offset 14, -4
 999 0002 82B0     		sub	sp, sp, #8
 1000              		.cfi_def_cfa_offset 24
 1001 0004 0446     		mov	r4, r0
 898:Drivers/lvgl/src/widgets/lv_dropdown.c ****     lv_dropdown_list_t * list = (lv_dropdown_list_t *)list_obj;
 1002              		.loc 1 898 5 is_stmt 1 view .LVU317
 898:Drivers/lvgl/src/widgets/lv_dropdown.c ****     lv_dropdown_list_t * list = (lv_dropdown_list_t *)list_obj;
 1003              		.loc 1 898 27 is_stmt 0 view .LVU318
 1004 0006 FFF7FEFF 		bl	lv_event_get_target
 1005              	.LVL107:
 899:Drivers/lvgl/src/widgets/lv_dropdown.c ****     lv_obj_t * dropdown_obj = list->dropdown;
 1006              		.loc 1 899 5 is_stmt 1 view .LVU319
 900:Drivers/lvgl/src/widgets/lv_dropdown.c ****     lv_dropdown_t * dropdown = (lv_dropdown_t *)dropdown_obj;
 1007              		.loc 1 900 5 view .LVU320
 900:Drivers/lvgl/src/widgets/lv_dropdown.c ****     lv_dropdown_t * dropdown = (lv_dropdown_t *)dropdown_obj;
 1008              		.loc 1 900 16 is_stmt 0 view .LVU321
ARM GAS  /var/folders/lp/x54gwt890xv47sdkqj1k04q40000gn/T//cczFasrC.s 			page 54


 1009 000a 456A     		ldr	r5, [r0, #36]
 1010              	.LVL108:
 901:Drivers/lvgl/src/widgets/lv_dropdown.c ****     lv_draw_ctx_t * draw_ctx = lv_event_get_draw_ctx(e);
 1011              		.loc 1 901 5 is_stmt 1 view .LVU322
 902:Drivers/lvgl/src/widgets/lv_dropdown.c **** 
 1012              		.loc 1 902 5 view .LVU323
 902:Drivers/lvgl/src/widgets/lv_dropdown.c **** 
 1013              		.loc 1 902 32 is_stmt 0 view .LVU324
 1014 000c 2046     		mov	r0, r4
 1015              	.LVL109:
 902:Drivers/lvgl/src/widgets/lv_dropdown.c **** 
 1016              		.loc 1 902 32 view .LVU325
 1017 000e FFF7FEFF 		bl	lv_event_get_draw_ctx
 1018              	.LVL110:
 1019 0012 0446     		mov	r4, r0
 1020              	.LVL111:
 906:Drivers/lvgl/src/widgets/lv_dropdown.c ****     bool has_common;
 1021              		.loc 1 906 5 is_stmt 1 view .LVU326
 907:Drivers/lvgl/src/widgets/lv_dropdown.c ****     has_common = _lv_area_intersect(&clip_area_core, draw_ctx->clip_area, &dropdown->list->coords);
 1022              		.loc 1 907 5 view .LVU327
 908:Drivers/lvgl/src/widgets/lv_dropdown.c ****     if(has_common) {
 1023              		.loc 1 908 5 view .LVU328
 908:Drivers/lvgl/src/widgets/lv_dropdown.c ****     if(has_common) {
 1024              		.loc 1 908 84 is_stmt 0 view .LVU329
 1025 0014 6A6A     		ldr	r2, [r5, #36]
 908:Drivers/lvgl/src/widgets/lv_dropdown.c ****     if(has_common) {
 1026              		.loc 1 908 18 view .LVU330
 1027 0016 1432     		adds	r2, r2, #20
 1028 0018 8168     		ldr	r1, [r0, #8]
 1029 001a 6846     		mov	r0, sp
 1030              	.LVL112:
 908:Drivers/lvgl/src/widgets/lv_dropdown.c ****     if(has_common) {
 1031              		.loc 1 908 18 view .LVU331
 1032 001c FFF7FEFF 		bl	_lv_area_intersect
 1033              	.LVL113:
 909:Drivers/lvgl/src/widgets/lv_dropdown.c ****         const lv_area_t * clip_area_ori = draw_ctx->clip_area;
 1034              		.loc 1 909 5 is_stmt 1 view .LVU332
 909:Drivers/lvgl/src/widgets/lv_dropdown.c ****         const lv_area_t * clip_area_ori = draw_ctx->clip_area;
 1035              		.loc 1 909 7 is_stmt 0 view .LVU333
 1036 0020 18B3     		cbz	r0, .L41
 1037              	.LBB81:
 910:Drivers/lvgl/src/widgets/lv_dropdown.c ****         draw_ctx->clip_area = &clip_area_core;
 1038              		.loc 1 910 9 is_stmt 1 view .LVU334
 910:Drivers/lvgl/src/widgets/lv_dropdown.c ****         draw_ctx->clip_area = &clip_area_core;
 1039              		.loc 1 910 27 is_stmt 0 view .LVU335
 1040 0022 A668     		ldr	r6, [r4, #8]
 1041              	.LVL114:
 911:Drivers/lvgl/src/widgets/lv_dropdown.c ****         if(dropdown->selected_highlight) {
 1042              		.loc 1 911 9 is_stmt 1 view .LVU336
 911:Drivers/lvgl/src/widgets/lv_dropdown.c ****         if(dropdown->selected_highlight) {
 1043              		.loc 1 911 29 is_stmt 0 view .LVU337
 1044 0024 C4F808D0 		str	sp, [r4, #8]
 912:Drivers/lvgl/src/widgets/lv_dropdown.c ****             if(dropdown->pr_opt_id == dropdown->sel_opt_id) {
 1045              		.loc 1 912 9 is_stmt 1 view .LVU338
 912:Drivers/lvgl/src/widgets/lv_dropdown.c ****             if(dropdown->pr_opt_id == dropdown->sel_opt_id) {
 1046              		.loc 1 912 12 is_stmt 0 view .LVU339
 1047 0028 95F83C30 		ldrb	r3, [r5, #60]	@ zero_extendqisi2
ARM GAS  /var/folders/lp/x54gwt890xv47sdkqj1k04q40000gn/T//cczFasrC.s 			page 55


 912:Drivers/lvgl/src/widgets/lv_dropdown.c ****             if(dropdown->pr_opt_id == dropdown->sel_opt_id) {
 1048              		.loc 1 912 11 view .LVU340
 1049 002c 13F0200F 		tst	r3, #32
 1050 0030 29D0     		beq	.L43
 913:Drivers/lvgl/src/widgets/lv_dropdown.c ****                 draw_box(dropdown_obj, draw_ctx, dropdown->pr_opt_id, LV_STATE_CHECKED | LV_STATE_P
 1051              		.loc 1 913 13 is_stmt 1 view .LVU341
 913:Drivers/lvgl/src/widgets/lv_dropdown.c ****                 draw_box(dropdown_obj, draw_ctx, dropdown->pr_opt_id, LV_STATE_CHECKED | LV_STATE_P
 1052              		.loc 1 913 24 is_stmt 0 view .LVU342
 1053 0032 6A8F     		ldrh	r2, [r5, #58]
 913:Drivers/lvgl/src/widgets/lv_dropdown.c ****                 draw_box(dropdown_obj, draw_ctx, dropdown->pr_opt_id, LV_STATE_CHECKED | LV_STATE_P
 1054              		.loc 1 913 47 view .LVU343
 1055 0034 EB8E     		ldrh	r3, [r5, #54]
 913:Drivers/lvgl/src/widgets/lv_dropdown.c ****                 draw_box(dropdown_obj, draw_ctx, dropdown->pr_opt_id, LV_STATE_CHECKED | LV_STATE_P
 1056              		.loc 1 913 15 view .LVU344
 1057 0036 9A42     		cmp	r2, r3
 1058 0038 19D0     		beq	.L47
 918:Drivers/lvgl/src/widgets/lv_dropdown.c ****                 draw_box_label(dropdown_obj, draw_ctx, dropdown->pr_opt_id, LV_STATE_PRESSED);
 1059              		.loc 1 918 17 is_stmt 1 view .LVU345
 1060 003a 2023     		movs	r3, #32
 1061 003c 2146     		mov	r1, r4
 1062 003e 2846     		mov	r0, r5
 1063              	.LVL115:
 918:Drivers/lvgl/src/widgets/lv_dropdown.c ****                 draw_box_label(dropdown_obj, draw_ctx, dropdown->pr_opt_id, LV_STATE_PRESSED);
 1064              		.loc 1 918 17 is_stmt 0 view .LVU346
 1065 0040 FFF7FEFF 		bl	draw_box
 1066              	.LVL116:
 919:Drivers/lvgl/src/widgets/lv_dropdown.c ****                 draw_box(dropdown_obj, draw_ctx, dropdown->sel_opt_id, LV_STATE_CHECKED);
 1067              		.loc 1 919 17 is_stmt 1 view .LVU347
 1068 0044 2023     		movs	r3, #32
 1069 0046 6A8F     		ldrh	r2, [r5, #58]
 1070 0048 2146     		mov	r1, r4
 1071 004a 2846     		mov	r0, r5
 1072 004c FFF7FEFF 		bl	draw_box_label
 1073              	.LVL117:
 920:Drivers/lvgl/src/widgets/lv_dropdown.c ****                 draw_box_label(dropdown_obj, draw_ctx, dropdown->sel_opt_id, LV_STATE_CHECKED);
 1074              		.loc 1 920 17 view .LVU348
 1075 0050 0123     		movs	r3, #1
 1076 0052 EA8E     		ldrh	r2, [r5, #54]
 1077 0054 2146     		mov	r1, r4
 1078 0056 2846     		mov	r0, r5
 1079 0058 FFF7FEFF 		bl	draw_box
 1080              	.LVL118:
 921:Drivers/lvgl/src/widgets/lv_dropdown.c ****             }
 1081              		.loc 1 921 17 view .LVU349
 1082 005c 0123     		movs	r3, #1
 1083 005e EA8E     		ldrh	r2, [r5, #54]
 1084 0060 2146     		mov	r1, r4
 1085 0062 2846     		mov	r0, r5
 1086 0064 FFF7FEFF 		bl	draw_box_label
 1087              	.LVL119:
 1088              	.L45:
 928:Drivers/lvgl/src/widgets/lv_dropdown.c ****     }
 1089              		.loc 1 928 9 view .LVU350
 928:Drivers/lvgl/src/widgets/lv_dropdown.c ****     }
 1090              		.loc 1 928 29 is_stmt 0 view .LVU351
 1091 0068 A660     		str	r6, [r4, #8]
 1092              	.LVL120:
ARM GAS  /var/folders/lp/x54gwt890xv47sdkqj1k04q40000gn/T//cczFasrC.s 			page 56


 1093              	.L41:
 928:Drivers/lvgl/src/widgets/lv_dropdown.c ****     }
 1094              		.loc 1 928 29 view .LVU352
 1095              	.LBE81:
 930:Drivers/lvgl/src/widgets/lv_dropdown.c **** 
 1096              		.loc 1 930 1 view .LVU353
 1097 006a 02B0     		add	sp, sp, #8
 1098              		.cfi_remember_state
 1099              		.cfi_def_cfa_offset 16
 1100              		@ sp needed
 1101 006c 70BD     		pop	{r4, r5, r6, pc}
 1102              	.LVL121:
 1103              	.L47:
 1104              		.cfi_restore_state
 1105              	.LBB82:
 914:Drivers/lvgl/src/widgets/lv_dropdown.c ****                 draw_box_label(dropdown_obj, draw_ctx, dropdown->pr_opt_id, LV_STATE_CHECKED | LV_S
 1106              		.loc 1 914 17 is_stmt 1 view .LVU354
 1107 006e 2123     		movs	r3, #33
 1108 0070 2146     		mov	r1, r4
 1109 0072 2846     		mov	r0, r5
 1110              	.LVL122:
 914:Drivers/lvgl/src/widgets/lv_dropdown.c ****                 draw_box_label(dropdown_obj, draw_ctx, dropdown->pr_opt_id, LV_STATE_CHECKED | LV_S
 1111              		.loc 1 914 17 is_stmt 0 view .LVU355
 1112 0074 FFF7FEFF 		bl	draw_box
 1113              	.LVL123:
 915:Drivers/lvgl/src/widgets/lv_dropdown.c ****             }
 1114              		.loc 1 915 17 is_stmt 1 view .LVU356
 1115 0078 2123     		movs	r3, #33
 1116 007a 6A8F     		ldrh	r2, [r5, #58]
 1117 007c 2146     		mov	r1, r4
 1118 007e 2846     		mov	r0, r5
 1119 0080 FFF7FEFF 		bl	draw_box_label
 1120              	.LVL124:
 1121 0084 F0E7     		b	.L45
 1122              	.LVL125:
 1123              	.L43:
 925:Drivers/lvgl/src/widgets/lv_dropdown.c ****             draw_box_label(dropdown_obj, draw_ctx, dropdown->pr_opt_id, LV_STATE_PRESSED);
 1124              		.loc 1 925 13 view .LVU357
 1125 0086 2023     		movs	r3, #32
 1126 0088 6A8F     		ldrh	r2, [r5, #58]
 1127 008a 2146     		mov	r1, r4
 1128 008c 2846     		mov	r0, r5
 1129              	.LVL126:
 925:Drivers/lvgl/src/widgets/lv_dropdown.c ****             draw_box_label(dropdown_obj, draw_ctx, dropdown->pr_opt_id, LV_STATE_PRESSED);
 1130              		.loc 1 925 13 is_stmt 0 view .LVU358
 1131 008e FFF7FEFF 		bl	draw_box
 1132              	.LVL127:
 926:Drivers/lvgl/src/widgets/lv_dropdown.c ****         }
 1133              		.loc 1 926 13 is_stmt 1 view .LVU359
 1134 0092 2023     		movs	r3, #32
 1135 0094 6A8F     		ldrh	r2, [r5, #58]
 1136 0096 2146     		mov	r1, r4
 1137 0098 2846     		mov	r0, r5
 1138 009a FFF7FEFF 		bl	draw_box_label
 1139              	.LVL128:
 1140 009e E3E7     		b	.L45
 1141              	.LBE82:
ARM GAS  /var/folders/lp/x54gwt890xv47sdkqj1k04q40000gn/T//cczFasrC.s 			page 57


 1142              		.cfi_endproc
 1143              	.LFE198:
 1145              		.section	.text.lv_dropdownlist_constructor,"ax",%progbits
 1146              		.align	1
 1147              		.syntax unified
 1148              		.thumb
 1149              		.thumb_func
 1151              	lv_dropdownlist_constructor:
 1152              	.LVL129:
 1153              	.LFB193:
 633:Drivers/lvgl/src/widgets/lv_dropdown.c ****     LV_UNUSED(class_p);
 1154              		.loc 1 633 1 view -0
 1155              		.cfi_startproc
 1156              		@ args = 0, pretend = 0, frame = 0
 1157              		@ frame_needed = 0, uses_anonymous_args = 0
 633:Drivers/lvgl/src/widgets/lv_dropdown.c ****     LV_UNUSED(class_p);
 1158              		.loc 1 633 1 is_stmt 0 view .LVU361
 1159 0000 10B5     		push	{r4, lr}
 1160              		.cfi_def_cfa_offset 8
 1161              		.cfi_offset 4, -8
 1162              		.cfi_offset 14, -4
 1163 0002 0C46     		mov	r4, r1
 634:Drivers/lvgl/src/widgets/lv_dropdown.c ****     LV_TRACE_OBJ_CREATE("begin");
 1164              		.loc 1 634 5 is_stmt 1 view .LVU362
 635:Drivers/lvgl/src/widgets/lv_dropdown.c **** 
 1165              		.loc 1 635 33 view .LVU363
 637:Drivers/lvgl/src/widgets/lv_dropdown.c ****     lv_obj_clear_flag(obj, LV_OBJ_FLAG_CLICK_FOCUSABLE);
 1166              		.loc 1 637 5 view .LVU364
 1167 0004 4FF48061 		mov	r1, #1024
 1168              	.LVL130:
 637:Drivers/lvgl/src/widgets/lv_dropdown.c ****     lv_obj_clear_flag(obj, LV_OBJ_FLAG_CLICK_FOCUSABLE);
 1169              		.loc 1 637 5 is_stmt 0 view .LVU365
 1170 0008 2046     		mov	r0, r4
 1171              	.LVL131:
 637:Drivers/lvgl/src/widgets/lv_dropdown.c ****     lv_obj_clear_flag(obj, LV_OBJ_FLAG_CLICK_FOCUSABLE);
 1172              		.loc 1 637 5 view .LVU366
 1173 000a FFF7FEFF 		bl	lv_obj_clear_flag
 1174              	.LVL132:
 638:Drivers/lvgl/src/widgets/lv_dropdown.c ****     lv_obj_add_flag(obj, LV_OBJ_FLAG_IGNORE_LAYOUT);
 1175              		.loc 1 638 5 is_stmt 1 view .LVU367
 1176 000e 0421     		movs	r1, #4
 1177 0010 2046     		mov	r0, r4
 1178 0012 FFF7FEFF 		bl	lv_obj_clear_flag
 1179              	.LVL133:
 639:Drivers/lvgl/src/widgets/lv_dropdown.c ****     lv_obj_add_flag(obj, LV_OBJ_FLAG_HIDDEN);
 1180              		.loc 1 639 5 view .LVU368
 1181 0016 4FF40031 		mov	r1, #131072
 1182 001a 2046     		mov	r0, r4
 1183 001c FFF7FEFF 		bl	lv_obj_add_flag
 1184              	.LVL134:
 640:Drivers/lvgl/src/widgets/lv_dropdown.c **** 
 1185              		.loc 1 640 5 view .LVU369
 1186 0020 0121     		movs	r1, #1
 1187 0022 2046     		mov	r0, r4
 1188 0024 FFF7FEFF 		bl	lv_obj_add_flag
 1189              	.LVL135:
 642:Drivers/lvgl/src/widgets/lv_dropdown.c **** 
ARM GAS  /var/folders/lp/x54gwt890xv47sdkqj1k04q40000gn/T//cczFasrC.s 			page 58


 1190              		.loc 1 642 5 view .LVU370
 1191 0028 2046     		mov	r0, r4
 1192 002a FFF7FEFF 		bl	lv_label_create
 1193              	.LVL136:
 644:Drivers/lvgl/src/widgets/lv_dropdown.c **** }
 1194              		.loc 1 644 36 view .LVU371
 645:Drivers/lvgl/src/widgets/lv_dropdown.c **** 
 1195              		.loc 1 645 1 is_stmt 0 view .LVU372
 1196 002e 10BD     		pop	{r4, pc}
 645:Drivers/lvgl/src/widgets/lv_dropdown.c **** 
 1197              		.loc 1 645 1 view .LVU373
 1198              		.cfi_endproc
 1199              	.LFE193:
 1201              		.section	.text.lv_dropdown_create,"ax",%progbits
 1202              		.align	1
 1203              		.global	lv_dropdown_create
 1204              		.syntax unified
 1205              		.thumb
 1206              		.thumb_func
 1208              	lv_dropdown_create:
 1209              	.LVL137:
 1210              	.LFB167:
  92:Drivers/lvgl/src/widgets/lv_dropdown.c ****     LV_LOG_INFO("begin");
 1211              		.loc 1 92 1 is_stmt 1 view -0
 1212              		.cfi_startproc
 1213              		@ args = 0, pretend = 0, frame = 0
 1214              		@ frame_needed = 0, uses_anonymous_args = 0
  92:Drivers/lvgl/src/widgets/lv_dropdown.c ****     LV_LOG_INFO("begin");
 1215              		.loc 1 92 1 is_stmt 0 view .LVU375
 1216 0000 10B5     		push	{r4, lr}
 1217              		.cfi_def_cfa_offset 8
 1218              		.cfi_offset 4, -8
 1219              		.cfi_offset 14, -4
 1220 0002 0146     		mov	r1, r0
  93:Drivers/lvgl/src/widgets/lv_dropdown.c ****     lv_obj_t * obj = lv_obj_class_create_obj(&lv_dropdown_class, parent);
 1221              		.loc 1 93 5 is_stmt 1 view .LVU376
  93:Drivers/lvgl/src/widgets/lv_dropdown.c ****     lv_obj_t * obj = lv_obj_class_create_obj(&lv_dropdown_class, parent);
 1222              		.loc 1 93 5 view .LVU377
  93:Drivers/lvgl/src/widgets/lv_dropdown.c ****     lv_obj_t * obj = lv_obj_class_create_obj(&lv_dropdown_class, parent);
 1223              		.loc 1 93 5 view .LVU378
  94:Drivers/lvgl/src/widgets/lv_dropdown.c ****     lv_obj_class_init_obj(obj);
 1224              		.loc 1 94 5 view .LVU379
  94:Drivers/lvgl/src/widgets/lv_dropdown.c ****     lv_obj_class_init_obj(obj);
 1225              		.loc 1 94 22 is_stmt 0 view .LVU380
 1226 0004 0348     		ldr	r0, .L52
 1227              	.LVL138:
  94:Drivers/lvgl/src/widgets/lv_dropdown.c ****     lv_obj_class_init_obj(obj);
 1228              		.loc 1 94 22 view .LVU381
 1229 0006 FFF7FEFF 		bl	lv_obj_class_create_obj
 1230              	.LVL139:
  94:Drivers/lvgl/src/widgets/lv_dropdown.c ****     lv_obj_class_init_obj(obj);
 1231              		.loc 1 94 22 view .LVU382
 1232 000a 0446     		mov	r4, r0
 1233              	.LVL140:
  95:Drivers/lvgl/src/widgets/lv_dropdown.c ****     return obj;
 1234              		.loc 1 95 5 is_stmt 1 view .LVU383
 1235 000c FFF7FEFF 		bl	lv_obj_class_init_obj
ARM GAS  /var/folders/lp/x54gwt890xv47sdkqj1k04q40000gn/T//cczFasrC.s 			page 59


 1236              	.LVL141:
  96:Drivers/lvgl/src/widgets/lv_dropdown.c **** }
 1237              		.loc 1 96 5 view .LVU384
  97:Drivers/lvgl/src/widgets/lv_dropdown.c **** 
 1238              		.loc 1 97 1 is_stmt 0 view .LVU385
 1239 0010 2046     		mov	r0, r4
 1240 0012 10BD     		pop	{r4, pc}
 1241              	.LVL142:
 1242              	.L53:
  97:Drivers/lvgl/src/widgets/lv_dropdown.c **** 
 1243              		.loc 1 97 1 view .LVU386
 1244              		.align	2
 1245              	.L52:
 1246 0014 00000000 		.word	lv_dropdown_class
 1247              		.cfi_endproc
 1248              	.LFE167:
 1250              		.section	.text.lv_dropdown_set_text,"ax",%progbits
 1251              		.align	1
 1252              		.global	lv_dropdown_set_text
 1253              		.syntax unified
 1254              		.thumb
 1255              		.thumb_func
 1257              	lv_dropdown_set_text:
 1258              	.LVL143:
 1259              	.LFB168:
 104:Drivers/lvgl/src/widgets/lv_dropdown.c ****     LV_ASSERT_OBJ(obj, MY_CLASS);
 1260              		.loc 1 104 1 is_stmt 1 view -0
 1261              		.cfi_startproc
 1262              		@ args = 0, pretend = 0, frame = 0
 1263              		@ frame_needed = 0, uses_anonymous_args = 0
 104:Drivers/lvgl/src/widgets/lv_dropdown.c ****     LV_ASSERT_OBJ(obj, MY_CLASS);
 1264              		.loc 1 104 1 is_stmt 0 view .LVU388
 1265 0000 08B5     		push	{r3, lr}
 1266              		.cfi_def_cfa_offset 8
 1267              		.cfi_offset 3, -8
 1268              		.cfi_offset 14, -4
 105:Drivers/lvgl/src/widgets/lv_dropdown.c ****     lv_dropdown_t * dropdown = (lv_dropdown_t *)obj;
 1269              		.loc 1 105 5 is_stmt 1 view .LVU389
 105:Drivers/lvgl/src/widgets/lv_dropdown.c ****     lv_dropdown_t * dropdown = (lv_dropdown_t *)obj;
 1270              		.loc 1 105 5 view .LVU390
 105:Drivers/lvgl/src/widgets/lv_dropdown.c ****     lv_dropdown_t * dropdown = (lv_dropdown_t *)obj;
 1271              		.loc 1 105 5 view .LVU391
 106:Drivers/lvgl/src/widgets/lv_dropdown.c ****     if(dropdown->text == txt) return;
 1272              		.loc 1 106 5 view .LVU392
 1273              	.LVL144:
 107:Drivers/lvgl/src/widgets/lv_dropdown.c **** 
 1274              		.loc 1 107 5 view .LVU393
 107:Drivers/lvgl/src/widgets/lv_dropdown.c **** 
 1275              		.loc 1 107 16 is_stmt 0 view .LVU394
 1276 0002 836A     		ldr	r3, [r0, #40]
 107:Drivers/lvgl/src/widgets/lv_dropdown.c **** 
 1277              		.loc 1 107 7 view .LVU395
 1278 0004 8B42     		cmp	r3, r1
 1279 0006 02D0     		beq	.L54
 109:Drivers/lvgl/src/widgets/lv_dropdown.c **** 
 1280              		.loc 1 109 5 is_stmt 1 view .LVU396
 109:Drivers/lvgl/src/widgets/lv_dropdown.c **** 
ARM GAS  /var/folders/lp/x54gwt890xv47sdkqj1k04q40000gn/T//cczFasrC.s 			page 60


 1281              		.loc 1 109 20 is_stmt 0 view .LVU397
 1282 0008 8162     		str	r1, [r0, #40]
 111:Drivers/lvgl/src/widgets/lv_dropdown.c **** }
 1283              		.loc 1 111 5 is_stmt 1 view .LVU398
 1284 000a FFF7FEFF 		bl	lv_obj_invalidate
 1285              	.LVL145:
 1286              	.L54:
 112:Drivers/lvgl/src/widgets/lv_dropdown.c **** 
 1287              		.loc 1 112 1 is_stmt 0 view .LVU399
 1288 000e 08BD     		pop	{r3, pc}
 1289              		.cfi_endproc
 1290              	.LFE168:
 1292              		.section	.text.lv_dropdown_set_options,"ax",%progbits
 1293              		.align	1
 1294              		.global	lv_dropdown_set_options
 1295              		.syntax unified
 1296              		.thumb
 1297              		.thumb_func
 1299              	lv_dropdown_set_options:
 1300              	.LVL146:
 1301              	.LFB169:
 115:Drivers/lvgl/src/widgets/lv_dropdown.c ****     LV_ASSERT_OBJ(obj, MY_CLASS);
 1302              		.loc 1 115 1 is_stmt 1 view -0
 1303              		.cfi_startproc
 1304              		@ args = 0, pretend = 0, frame = 0
 1305              		@ frame_needed = 0, uses_anonymous_args = 0
 116:Drivers/lvgl/src/widgets/lv_dropdown.c ****     LV_ASSERT_NULL(options);
 1306              		.loc 1 116 5 view .LVU401
 116:Drivers/lvgl/src/widgets/lv_dropdown.c ****     LV_ASSERT_NULL(options);
 1307              		.loc 1 116 5 view .LVU402
 116:Drivers/lvgl/src/widgets/lv_dropdown.c ****     LV_ASSERT_NULL(options);
 1308              		.loc 1 116 5 view .LVU403
 117:Drivers/lvgl/src/widgets/lv_dropdown.c **** 
 1309              		.loc 1 117 5 view .LVU404
 117:Drivers/lvgl/src/widgets/lv_dropdown.c **** 
 1310              		.loc 1 117 5 view .LVU405
 1311 0000 29B1     		cbz	r1, .L59
 115:Drivers/lvgl/src/widgets/lv_dropdown.c ****     LV_ASSERT_OBJ(obj, MY_CLASS);
 1312              		.loc 1 115 1 is_stmt 0 view .LVU406
 1313 0002 70B5     		push	{r4, r5, r6, lr}
 1314              		.cfi_def_cfa_offset 16
 1315              		.cfi_offset 4, -16
 1316              		.cfi_offset 5, -12
 1317              		.cfi_offset 6, -8
 1318              		.cfi_offset 14, -4
 1319 0004 0446     		mov	r4, r0
 1320 0006 0D46     		mov	r5, r1
 117:Drivers/lvgl/src/widgets/lv_dropdown.c **** 
 1321              		.loc 1 117 5 is_stmt 1 discriminator 2 view .LVU407
 117:Drivers/lvgl/src/widgets/lv_dropdown.c **** 
 1322              		.loc 1 117 28 discriminator 2 view .LVU408
 119:Drivers/lvgl/src/widgets/lv_dropdown.c **** 
 1323              		.loc 1 119 5 view .LVU409
 1324              	.LVL147:
 122:Drivers/lvgl/src/widgets/lv_dropdown.c ****     uint32_t i;
 1325              		.loc 1 122 5 view .LVU410
 122:Drivers/lvgl/src/widgets/lv_dropdown.c ****     uint32_t i;
ARM GAS  /var/folders/lp/x54gwt890xv47sdkqj1k04q40000gn/T//cczFasrC.s 			page 61


 1326              		.loc 1 122 26 is_stmt 0 view .LVU411
 1327 0008 0023     		movs	r3, #0
 1328 000a 8386     		strh	r3, [r0, #52]	@ movhi
 123:Drivers/lvgl/src/widgets/lv_dropdown.c ****     for(i = 0; options[i] != '\0'; i++) {
 1329              		.loc 1 123 5 is_stmt 1 view .LVU412
 124:Drivers/lvgl/src/widgets/lv_dropdown.c ****         if(options[i] == '\n') dropdown->option_cnt++;
 1330              		.loc 1 124 5 view .LVU413
 1331              	.LVL148:
 124:Drivers/lvgl/src/widgets/lv_dropdown.c ****         if(options[i] == '\n') dropdown->option_cnt++;
 1332              		.loc 1 124 5 is_stmt 0 view .LVU414
 1333 000c 01E0     		b	.L60
 1334              	.LVL149:
 1335              	.L59:
 1336              		.cfi_def_cfa_offset 0
 1337              		.cfi_restore 4
 1338              		.cfi_restore 5
 1339              		.cfi_restore 6
 1340              		.cfi_restore 14
 117:Drivers/lvgl/src/widgets/lv_dropdown.c **** 
 1341              		.loc 1 117 5 is_stmt 1 discriminator 1 view .LVU415
 117:Drivers/lvgl/src/widgets/lv_dropdown.c **** 
 1342              		.loc 1 117 5 discriminator 1 view .LVU416
 117:Drivers/lvgl/src/widgets/lv_dropdown.c **** 
 1343              		.loc 1 117 5 discriminator 1 view .LVU417
 117:Drivers/lvgl/src/widgets/lv_dropdown.c **** 
 1344              		.loc 1 117 5 discriminator 1 view .LVU418
 117:Drivers/lvgl/src/widgets/lv_dropdown.c **** 
 1345              		.loc 1 117 5 discriminator 1 view .LVU419
 1346 000e FEE7     		b	.L59
 1347              	.LVL150:
 1348              	.L61:
 1349              		.cfi_def_cfa_offset 16
 1350              		.cfi_offset 4, -16
 1351              		.cfi_offset 5, -12
 1352              		.cfi_offset 6, -8
 1353              		.cfi_offset 14, -4
 124:Drivers/lvgl/src/widgets/lv_dropdown.c ****         if(options[i] == '\n') dropdown->option_cnt++;
 1354              		.loc 1 124 37 discriminator 2 view .LVU420
 1355 0010 0133     		adds	r3, r3, #1
 1356              	.LVL151:
 1357              	.L60:
 124:Drivers/lvgl/src/widgets/lv_dropdown.c ****         if(options[i] == '\n') dropdown->option_cnt++;
 1358              		.loc 1 124 27 discriminator 1 view .LVU421
 124:Drivers/lvgl/src/widgets/lv_dropdown.c ****         if(options[i] == '\n') dropdown->option_cnt++;
 1359              		.loc 1 124 23 is_stmt 0 discriminator 1 view .LVU422
 1360 0012 EA5C     		ldrb	r2, [r5, r3]	@ zero_extendqisi2
 124:Drivers/lvgl/src/widgets/lv_dropdown.c ****         if(options[i] == '\n') dropdown->option_cnt++;
 1361              		.loc 1 124 27 discriminator 1 view .LVU423
 1362 0014 2AB1     		cbz	r2, .L69
 125:Drivers/lvgl/src/widgets/lv_dropdown.c ****     }
 1363              		.loc 1 125 9 is_stmt 1 view .LVU424
 125:Drivers/lvgl/src/widgets/lv_dropdown.c ****     }
 1364              		.loc 1 125 11 is_stmt 0 view .LVU425
 1365 0016 0A2A     		cmp	r2, #10
 1366 0018 FAD1     		bne	.L61
 125:Drivers/lvgl/src/widgets/lv_dropdown.c ****     }
 1367              		.loc 1 125 32 is_stmt 1 discriminator 1 view .LVU426
ARM GAS  /var/folders/lp/x54gwt890xv47sdkqj1k04q40000gn/T//cczFasrC.s 			page 62


 125:Drivers/lvgl/src/widgets/lv_dropdown.c ****     }
 1368              		.loc 1 125 40 is_stmt 0 discriminator 1 view .LVU427
 1369 001a A28E     		ldrh	r2, [r4, #52]
 125:Drivers/lvgl/src/widgets/lv_dropdown.c ****     }
 1370              		.loc 1 125 52 discriminator 1 view .LVU428
 1371 001c 0132     		adds	r2, r2, #1
 1372 001e A286     		strh	r2, [r4, #52]	@ movhi
 1373 0020 F6E7     		b	.L61
 1374              	.L69:
 127:Drivers/lvgl/src/widgets/lv_dropdown.c ****     dropdown->sel_opt_id      = 0;
 1375              		.loc 1 127 5 is_stmt 1 view .LVU429
 127:Drivers/lvgl/src/widgets/lv_dropdown.c ****     dropdown->sel_opt_id      = 0;
 1376              		.loc 1 127 13 is_stmt 0 view .LVU430
 1377 0022 A38E     		ldrh	r3, [r4, #52]
 1378              	.LVL152:
 127:Drivers/lvgl/src/widgets/lv_dropdown.c ****     dropdown->sel_opt_id      = 0;
 1379              		.loc 1 127 25 view .LVU431
 1380 0024 0133     		adds	r3, r3, #1
 1381 0026 A386     		strh	r3, [r4, #52]	@ movhi
 128:Drivers/lvgl/src/widgets/lv_dropdown.c ****     dropdown->sel_opt_id_orig = 0;
 1382              		.loc 1 128 5 is_stmt 1 view .LVU432
 128:Drivers/lvgl/src/widgets/lv_dropdown.c ****     dropdown->sel_opt_id_orig = 0;
 1383              		.loc 1 128 31 is_stmt 0 view .LVU433
 1384 0028 0023     		movs	r3, #0
 1385 002a E386     		strh	r3, [r4, #54]	@ movhi
 129:Drivers/lvgl/src/widgets/lv_dropdown.c **** 
 1386              		.loc 1 129 5 is_stmt 1 view .LVU434
 129:Drivers/lvgl/src/widgets/lv_dropdown.c **** 
 1387              		.loc 1 129 31 is_stmt 0 view .LVU435
 1388 002c 2387     		strh	r3, [r4, #56]	@ movhi
 133:Drivers/lvgl/src/widgets/lv_dropdown.c **** #else
 1389              		.loc 1 133 5 is_stmt 1 view .LVU436
 133:Drivers/lvgl/src/widgets/lv_dropdown.c **** #else
 1390              		.loc 1 133 18 is_stmt 0 view .LVU437
 1391 002e 2846     		mov	r0, r5
 1392              	.LVL153:
 133:Drivers/lvgl/src/widgets/lv_dropdown.c **** #else
 1393              		.loc 1 133 18 view .LVU438
 1394 0030 FFF7FEFF 		bl	strlen
 1395              	.LVL154:
 133:Drivers/lvgl/src/widgets/lv_dropdown.c **** #else
 1396              		.loc 1 133 12 discriminator 1 view .LVU439
 1397 0034 461C     		adds	r6, r0, #1
 1398              	.LVL155:
 138:Drivers/lvgl/src/widgets/lv_dropdown.c ****         lv_mem_free(dropdown->options);
 1399              		.loc 1 138 5 is_stmt 1 view .LVU440
 138:Drivers/lvgl/src/widgets/lv_dropdown.c ****         lv_mem_free(dropdown->options);
 1400              		.loc 1 138 16 is_stmt 0 view .LVU441
 1401 0036 206B     		ldr	r0, [r4, #48]
 138:Drivers/lvgl/src/widgets/lv_dropdown.c ****         lv_mem_free(dropdown->options);
 1402              		.loc 1 138 7 view .LVU442
 1403 0038 20B1     		cbz	r0, .L63
 138:Drivers/lvgl/src/widgets/lv_dropdown.c ****         lv_mem_free(dropdown->options);
 1404              		.loc 1 138 58 discriminator 1 view .LVU443
 1405 003a 94F83C30 		ldrb	r3, [r4, #60]	@ zero_extendqisi2
 138:Drivers/lvgl/src/widgets/lv_dropdown.c ****         lv_mem_free(dropdown->options);
 1406              		.loc 1 138 34 discriminator 1 view .LVU444
ARM GAS  /var/folders/lp/x54gwt890xv47sdkqj1k04q40000gn/T//cczFasrC.s 			page 63


 1407 003e 13F0100F 		tst	r3, #16
 1408 0042 15D0     		beq	.L70
 1409              	.L63:
 143:Drivers/lvgl/src/widgets/lv_dropdown.c **** 
 1410              		.loc 1 143 5 is_stmt 1 view .LVU445
 143:Drivers/lvgl/src/widgets/lv_dropdown.c **** 
 1411              		.loc 1 143 25 is_stmt 0 view .LVU446
 1412 0044 3046     		mov	r0, r6
 1413 0046 FFF7FEFF 		bl	lv_mem_alloc
 1414              	.LVL156:
 143:Drivers/lvgl/src/widgets/lv_dropdown.c **** 
 1415              		.loc 1 143 23 discriminator 1 view .LVU447
 1416 004a 2063     		str	r0, [r4, #48]
 145:Drivers/lvgl/src/widgets/lv_dropdown.c ****     if(dropdown->options == NULL) return;
 1417              		.loc 1 145 5 is_stmt 1 view .LVU448
 145:Drivers/lvgl/src/widgets/lv_dropdown.c ****     if(dropdown->options == NULL) return;
 1418              		.loc 1 145 5 view .LVU449
 1419 004c A8B1     		cbz	r0, .L65
 145:Drivers/lvgl/src/widgets/lv_dropdown.c ****     if(dropdown->options == NULL) return;
 1420              		.loc 1 145 5 discriminator 2 view .LVU450
 145:Drivers/lvgl/src/widgets/lv_dropdown.c ****     if(dropdown->options == NULL) return;
 1421              		.loc 1 145 40 discriminator 2 view .LVU451
 146:Drivers/lvgl/src/widgets/lv_dropdown.c **** 
 1422              		.loc 1 146 5 view .LVU452
 149:Drivers/lvgl/src/widgets/lv_dropdown.c **** #else
 1423              		.loc 1 149 5 view .LVU453
 1424 004e 2946     		mov	r1, r5
 1425 0050 FFF7FEFF 		bl	strcpy
 1426              	.LVL157:
 155:Drivers/lvgl/src/widgets/lv_dropdown.c **** 
 1427              		.loc 1 155 5 view .LVU454
 155:Drivers/lvgl/src/widgets/lv_dropdown.c **** 
 1428              		.loc 1 155 26 is_stmt 0 view .LVU455
 1429 0054 94F83C30 		ldrb	r3, [r4, #60]	@ zero_extendqisi2
 1430 0058 23F01003 		bic	r3, r3, #16
 1431 005c 84F83C30 		strb	r3, [r4, #60]
 157:Drivers/lvgl/src/widgets/lv_dropdown.c ****     if(dropdown->list) lv_obj_invalidate(dropdown->list);
 1432              		.loc 1 157 5 is_stmt 1 view .LVU456
 1433 0060 2046     		mov	r0, r4
 1434 0062 FFF7FEFF 		bl	lv_obj_invalidate
 1435              	.LVL158:
 158:Drivers/lvgl/src/widgets/lv_dropdown.c **** }
 1436              		.loc 1 158 5 view .LVU457
 158:Drivers/lvgl/src/widgets/lv_dropdown.c **** }
 1437              		.loc 1 158 16 is_stmt 0 view .LVU458
 1438 0066 606A     		ldr	r0, [r4, #36]
 158:Drivers/lvgl/src/widgets/lv_dropdown.c **** }
