ARM GAS  /var/folders/lp/x54gwt890xv47sdkqj1k04q40000gn/T//ccffuKib.s 			page 1


   1              		.cpu cortex-m4
   2              		.arch armv7e-m
   3              		.fpu fpv4-sp-d16
   4              		.eabi_attribute 27, 1
   5              		.eabi_attribute 28, 1
   6              		.eabi_attribute 20, 1
   7              		.eabi_attribute 21, 1
   8              		.eabi_attribute 23, 3
   9              		.eabi_attribute 24, 1
  10              		.eabi_attribute 25, 1
  11              		.eabi_attribute 26, 1
  12              		.eabi_attribute 30, 1
  13              		.eabi_attribute 34, 1
  14              		.eabi_attribute 18, 4
  15              		.file	"lv_draw_transform.c"
  16              		.text
  17              	.Ltext0:
  18              		.cfi_sections	.debug_frame
  19              		.file 1 "Drivers/lvgl/src/draw/lv_draw_transform.c"
  20              		.section	.text.lv_draw_transform,"ax",%progbits
  21              		.align	1
  22              		.global	lv_draw_transform
  23              		.syntax unified
  24              		.thumb
  25              		.thumb_func
  27              	lv_draw_transform:
  28              	.LVL0:
  29              	.LFB55:
   1:Drivers/lvgl/src/draw/lv_draw_transform.c **** /**
   2:Drivers/lvgl/src/draw/lv_draw_transform.c ****  * @file lv_draw_transform.c
   3:Drivers/lvgl/src/draw/lv_draw_transform.c ****  *
   4:Drivers/lvgl/src/draw/lv_draw_transform.c ****  */
   5:Drivers/lvgl/src/draw/lv_draw_transform.c **** 
   6:Drivers/lvgl/src/draw/lv_draw_transform.c **** /*********************
   7:Drivers/lvgl/src/draw/lv_draw_transform.c ****  *      INCLUDES
   8:Drivers/lvgl/src/draw/lv_draw_transform.c ****  *********************/
   9:Drivers/lvgl/src/draw/lv_draw_transform.c **** #include "lv_draw.h"
  10:Drivers/lvgl/src/draw/lv_draw_transform.c **** #include "lv_draw_transform.h"
  11:Drivers/lvgl/src/draw/lv_draw_transform.c **** #include "../misc/lv_assert.h"
  12:Drivers/lvgl/src/draw/lv_draw_transform.c **** #include "../misc/lv_area.h"
  13:Drivers/lvgl/src/draw/lv_draw_transform.c **** 
  14:Drivers/lvgl/src/draw/lv_draw_transform.c **** /*********************
  15:Drivers/lvgl/src/draw/lv_draw_transform.c ****  *      DEFINES
  16:Drivers/lvgl/src/draw/lv_draw_transform.c ****  *********************/
  17:Drivers/lvgl/src/draw/lv_draw_transform.c **** 
  18:Drivers/lvgl/src/draw/lv_draw_transform.c **** /**********************
  19:Drivers/lvgl/src/draw/lv_draw_transform.c ****  *      TYPEDEFS
  20:Drivers/lvgl/src/draw/lv_draw_transform.c ****  **********************/
  21:Drivers/lvgl/src/draw/lv_draw_transform.c **** 
  22:Drivers/lvgl/src/draw/lv_draw_transform.c **** /**********************
  23:Drivers/lvgl/src/draw/lv_draw_transform.c ****  *  STATIC PROTOTYPES
  24:Drivers/lvgl/src/draw/lv_draw_transform.c ****  **********************/
  25:Drivers/lvgl/src/draw/lv_draw_transform.c **** 
  26:Drivers/lvgl/src/draw/lv_draw_transform.c **** /**********************
  27:Drivers/lvgl/src/draw/lv_draw_transform.c ****  *  STATIC VARIABLES
  28:Drivers/lvgl/src/draw/lv_draw_transform.c ****  **********************/
  29:Drivers/lvgl/src/draw/lv_draw_transform.c **** 
ARM GAS  /var/folders/lp/x54gwt890xv47sdkqj1k04q40000gn/T//ccffuKib.s 			page 2


  30:Drivers/lvgl/src/draw/lv_draw_transform.c **** /**********************
  31:Drivers/lvgl/src/draw/lv_draw_transform.c ****  *      MACROS
  32:Drivers/lvgl/src/draw/lv_draw_transform.c ****  **********************/
  33:Drivers/lvgl/src/draw/lv_draw_transform.c **** 
  34:Drivers/lvgl/src/draw/lv_draw_transform.c **** /**********************
  35:Drivers/lvgl/src/draw/lv_draw_transform.c ****  *   GLOBAL FUNCTIONS
  36:Drivers/lvgl/src/draw/lv_draw_transform.c ****  **********************/
  37:Drivers/lvgl/src/draw/lv_draw_transform.c **** void lv_draw_transform(lv_draw_ctx_t * draw_ctx, const lv_area_t * dest_area, const void * src_buf,
  38:Drivers/lvgl/src/draw/lv_draw_transform.c ****                        lv_coord_t src_h,
  39:Drivers/lvgl/src/draw/lv_draw_transform.c ****                        lv_coord_t src_stride, const lv_draw_img_dsc_t * draw_dsc, lv_img_cf_t cf, l
  40:Drivers/lvgl/src/draw/lv_draw_transform.c **** {
  30              		.loc 1 40 1 view -0
  31              		.cfi_startproc
  32              		@ args = 24, pretend = 0, frame = 0
  33              		@ frame_needed = 0, uses_anonymous_args = 0
  41:Drivers/lvgl/src/draw/lv_draw_transform.c ****     LV_ASSERT_NULL(draw_ctx);
  34              		.loc 1 41 5 view .LVU1
  35              		.loc 1 41 5 view .LVU2
  36 0000 B8B1     		cbz	r0, .L3
  40:Drivers/lvgl/src/draw/lv_draw_transform.c ****     LV_ASSERT_NULL(draw_ctx);
  37              		.loc 1 40 1 is_stmt 0 view .LVU3
  38 0002 10B5     		push	{r4, lr}
  39              		.cfi_def_cfa_offset 8
  40              		.cfi_offset 4, -8
  41              		.cfi_offset 14, -4
  42 0004 86B0     		sub	sp, sp, #24
  43              		.cfi_def_cfa_offset 32
  44 0006 8446     		mov	ip, r0
  45              		.loc 1 41 5 is_stmt 1 discriminator 2 view .LVU4
  46              		.loc 1 41 29 discriminator 2 view .LVU5
  42:Drivers/lvgl/src/draw/lv_draw_transform.c ****     if(draw_ctx->draw_transform == NULL) {
  47              		.loc 1 42 5 view .LVU6
  48              		.loc 1 42 16 is_stmt 0 view .LVU7
  49 0008 C46A     		ldr	r4, [r0, #44]
  50              		.loc 1 42 7 view .LVU8
  51 000a 84B1     		cbz	r4, .L1
  43:Drivers/lvgl/src/draw/lv_draw_transform.c ****         LV_LOG_WARN("draw_ctx->draw_transform == NULL");
  44:Drivers/lvgl/src/draw/lv_draw_transform.c ****         return;
  45:Drivers/lvgl/src/draw/lv_draw_transform.c ****     }
  46:Drivers/lvgl/src/draw/lv_draw_transform.c **** 
  47:Drivers/lvgl/src/draw/lv_draw_transform.c ****     draw_ctx->draw_transform(draw_ctx, dest_area, src_buf, src_w, src_h, src_stride, draw_dsc, cf, 
  52              		.loc 1 47 5 is_stmt 1 view .LVU9
  53 000c 0D98     		ldr	r0, [sp, #52]
  54              	.LVL1:
  55              		.loc 1 47 5 is_stmt 0 view .LVU10
  56 000e 0590     		str	r0, [sp, #20]
  57 0010 0C98     		ldr	r0, [sp, #48]
  58 0012 0490     		str	r0, [sp, #16]
  59 0014 9DF82C00 		ldrb	r0, [sp, #44]	@ zero_extendqisi2
  60 0018 0390     		str	r0, [sp, #12]
  61 001a 0A98     		ldr	r0, [sp, #40]
  62 001c 0290     		str	r0, [sp, #8]
  63 001e BDF92400 		ldrsh	r0, [sp, #36]
  64 0022 0190     		str	r0, [sp, #4]
  65 0024 BDF92000 		ldrsh	r0, [sp, #32]
  66 0028 0090     		str	r0, [sp]
  67 002a 6046     		mov	r0, ip
ARM GAS  /var/folders/lp/x54gwt890xv47sdkqj1k04q40000gn/T//ccffuKib.s 			page 3


  68 002c A047     		blx	r4
  69              	.LVL2:
  70              	.L1:
  48:Drivers/lvgl/src/draw/lv_draw_transform.c **** 
  49:Drivers/lvgl/src/draw/lv_draw_transform.c **** }
  71              		.loc 1 49 1 view .LVU11
  72 002e 06B0     		add	sp, sp, #24
  73              		.cfi_def_cfa_offset 8
  74              		@ sp needed
  75 0030 10BD     		pop	{r4, pc}
  76              	.LVL3:
  77              	.L3:
  78              		.cfi_def_cfa_offset 0
  79              		.cfi_restore 4
  80              		.cfi_restore 14
  41:Drivers/lvgl/src/draw/lv_draw_transform.c ****     if(draw_ctx->draw_transform == NULL) {
  81              		.loc 1 41 5 is_stmt 1 discriminator 1 view .LVU12
  41:Drivers/lvgl/src/draw/lv_draw_transform.c ****     if(draw_ctx->draw_transform == NULL) {
  82              		.loc 1 41 5 discriminator 1 view .LVU13
  41:Drivers/lvgl/src/draw/lv_draw_transform.c ****     if(draw_ctx->draw_transform == NULL) {
  83              		.loc 1 41 5 discriminator 1 view .LVU14
  41:Drivers/lvgl/src/draw/lv_draw_transform.c ****     if(draw_ctx->draw_transform == NULL) {
  84              		.loc 1 41 5 discriminator 1 view .LVU15
  41:Drivers/lvgl/src/draw/lv_draw_transform.c ****     if(draw_ctx->draw_transform == NULL) {
  85              		.loc 1 41 5 discriminator 1 view .LVU16
  86 0032 FEE7     		b	.L3
  87              		.cfi_endproc
  88              	.LFE55:
  90              		.text
  91              	.Letext0:
  92              		.file 2 "/Users/jr/Library/Application Support/Code/User/globalStorage/bmd.stm32-for-vscode/@xpack
  93              		.file 3 "/Users/jr/Library/Application Support/Code/User/globalStorage/bmd.stm32-for-vscode/@xpack
  94              		.file 4 "/Users/jr/Library/Application Support/Code/User/globalStorage/bmd.stm32-for-vscode/@xpack
  95              		.file 5 "Drivers/lvgl/src/draw/../misc/../font/../misc/lv_area.h"
  96              		.file 6 "Drivers/lvgl/src/draw/../misc/../font/lv_font.h"
  97              		.file 7 "Drivers/lvgl/src/draw/../misc/lv_types.h"
  98              		.file 8 "Drivers/lvgl/src/draw/../misc/lv_color.h"
  99              		.file 9 "Drivers/lvgl/src/draw/../misc/lv_txt.h"
 100              		.file 10 "Drivers/lvgl/src/draw/../misc/lv_bidi.h"
 101              		.file 11 "Drivers/lvgl/src/draw/../misc/lv_style.h"
 102              		.file 12 "Drivers/lvgl/src/draw/lv_img_buf.h"
 103              		.file 13 "Drivers/lvgl/src/draw/lv_draw_rect.h"
 104              		.file 14 "Drivers/lvgl/src/draw/lv_draw_label.h"
 105              		.file 15 "Drivers/lvgl/src/draw/lv_draw_img.h"
 106              		.file 16 "Drivers/lvgl/src/draw/lv_draw_line.h"
 107              		.file 17 "Drivers/lvgl/src/draw/lv_draw_arc.h"
 108              		.file 18 "Drivers/lvgl/src/draw/lv_draw_layer.h"
 109              		.file 19 "Drivers/lvgl/src/draw/lv_draw.h"
ARM GAS  /var/folders/lp/x54gwt890xv47sdkqj1k04q40000gn/T//ccffuKib.s 			page 4

