ARM GAS  /var/folders/lp/x54gwt890xv47sdkqj1k04q40000gn/T//cc7xEjuw.s 			page 1


   1              		.cpu cortex-m4
   2              		.arch armv7e-m
   3              		.fpu fpv4-sp-d16
   4              		.eabi_attribute 27, 1
   5              		.eabi_attribute 28, 1
   6              		.eabi_attribute 20, 1
   7              		.eabi_attribute 21, 1
   8              		.eabi_attribute 23, 3
   9              		.eabi_attribute 24, 1
  10              		.eabi_attribute 25, 1
  11              		.eabi_attribute 26, 1
  12              		.eabi_attribute 30, 1
  13              		.eabi_attribute 34, 1
  14              		.eabi_attribute 18, 4
  15              		.file	"lv_draw_arc.c"
  16              		.text
  17              	.Ltext0:
  18              		.cfi_sections	.debug_frame
  19              		.file 1 "Drivers/lvgl/src/draw/lv_draw_arc.c"
  20              		.section	.text.lv_draw_arc_dsc_init,"ax",%progbits
  21              		.align	1
  22              		.global	lv_draw_arc_dsc_init
  23              		.syntax unified
  24              		.thumb
  25              		.thumb_func
  27              	lv_draw_arc_dsc_init:
  28              	.LVL0:
  29              	.LFB55:
   1:Drivers/lvgl/src/draw/lv_draw_arc.c **** /**
   2:Drivers/lvgl/src/draw/lv_draw_arc.c ****  * @file lv_draw_arc.c
   3:Drivers/lvgl/src/draw/lv_draw_arc.c ****  *
   4:Drivers/lvgl/src/draw/lv_draw_arc.c ****  */
   5:Drivers/lvgl/src/draw/lv_draw_arc.c **** 
   6:Drivers/lvgl/src/draw/lv_draw_arc.c **** /*********************
   7:Drivers/lvgl/src/draw/lv_draw_arc.c ****  *      INCLUDES
   8:Drivers/lvgl/src/draw/lv_draw_arc.c ****  *********************/
   9:Drivers/lvgl/src/draw/lv_draw_arc.c **** #include "lv_draw.h"
  10:Drivers/lvgl/src/draw/lv_draw_arc.c **** #include "lv_draw_arc.h"
  11:Drivers/lvgl/src/draw/lv_draw_arc.c **** 
  12:Drivers/lvgl/src/draw/lv_draw_arc.c **** /*********************
  13:Drivers/lvgl/src/draw/lv_draw_arc.c ****  *      DEFINES
  14:Drivers/lvgl/src/draw/lv_draw_arc.c ****  *********************/
  15:Drivers/lvgl/src/draw/lv_draw_arc.c **** 
  16:Drivers/lvgl/src/draw/lv_draw_arc.c **** /**********************
  17:Drivers/lvgl/src/draw/lv_draw_arc.c ****  *      TYPEDEFS
  18:Drivers/lvgl/src/draw/lv_draw_arc.c ****  **********************/
  19:Drivers/lvgl/src/draw/lv_draw_arc.c **** 
  20:Drivers/lvgl/src/draw/lv_draw_arc.c **** /**********************
  21:Drivers/lvgl/src/draw/lv_draw_arc.c ****  *  STATIC PROTOTYPES
  22:Drivers/lvgl/src/draw/lv_draw_arc.c ****  **********************/
  23:Drivers/lvgl/src/draw/lv_draw_arc.c **** 
  24:Drivers/lvgl/src/draw/lv_draw_arc.c **** /**********************
  25:Drivers/lvgl/src/draw/lv_draw_arc.c ****  *  STATIC VARIABLES
  26:Drivers/lvgl/src/draw/lv_draw_arc.c ****  **********************/
  27:Drivers/lvgl/src/draw/lv_draw_arc.c **** 
  28:Drivers/lvgl/src/draw/lv_draw_arc.c **** /**********************
  29:Drivers/lvgl/src/draw/lv_draw_arc.c ****  *      MACROS
ARM GAS  /var/folders/lp/x54gwt890xv47sdkqj1k04q40000gn/T//cc7xEjuw.s 			page 2


  30:Drivers/lvgl/src/draw/lv_draw_arc.c ****  **********************/
  31:Drivers/lvgl/src/draw/lv_draw_arc.c **** 
  32:Drivers/lvgl/src/draw/lv_draw_arc.c **** /**********************
  33:Drivers/lvgl/src/draw/lv_draw_arc.c ****  *   GLOBAL FUNCTIONS
  34:Drivers/lvgl/src/draw/lv_draw_arc.c ****  **********************/
  35:Drivers/lvgl/src/draw/lv_draw_arc.c **** 
  36:Drivers/lvgl/src/draw/lv_draw_arc.c **** void lv_draw_arc_dsc_init(lv_draw_arc_dsc_t * dsc)
  37:Drivers/lvgl/src/draw/lv_draw_arc.c **** {
  30              		.loc 1 37 1 view -0
  31              		.cfi_startproc
  32              		@ args = 0, pretend = 0, frame = 0
  33              		@ frame_needed = 0, uses_anonymous_args = 0
  34              		.loc 1 37 1 is_stmt 0 view .LVU1
  35 0000 10B5     		push	{r4, lr}
  36              		.cfi_def_cfa_offset 8
  37              		.cfi_offset 4, -8
  38              		.cfi_offset 14, -4
  39 0002 0446     		mov	r4, r0
  38:Drivers/lvgl/src/draw/lv_draw_arc.c ****     lv_memset_00(dsc, sizeof(lv_draw_arc_dsc_t));
  40              		.loc 1 38 5 is_stmt 1 view .LVU2
  41 0004 1021     		movs	r1, #16
  42 0006 FFF7FEFF 		bl	lv_memset_00
  43              	.LVL1:
  39:Drivers/lvgl/src/draw/lv_draw_arc.c ****     dsc->width = 1;
  44              		.loc 1 39 5 view .LVU3
  45              		.loc 1 39 16 is_stmt 0 view .LVU4
  46 000a 0123     		movs	r3, #1
  47 000c 6380     		strh	r3, [r4, #2]	@ movhi
  40:Drivers/lvgl/src/draw/lv_draw_arc.c ****     dsc->opa = LV_OPA_COVER;
  48              		.loc 1 40 5 is_stmt 1 view .LVU5
  49              		.loc 1 40 14 is_stmt 0 view .LVU6
  50 000e FF23     		movs	r3, #255
  51 0010 2373     		strb	r3, [r4, #12]
  41:Drivers/lvgl/src/draw/lv_draw_arc.c ****     dsc->color = lv_color_black();
  52              		.loc 1 41 5 is_stmt 1 view .LVU7
  53              	.LBB8:
  54              	.LBI8:
  55              		.file 2 "Drivers/lvgl/src/draw/../misc/lv_color.h"
   1:Drivers/lvgl/src/draw/../misc/lv_color.h **** /**
   2:Drivers/lvgl/src/draw/../misc/lv_color.h ****  * @file lv_color.h
   3:Drivers/lvgl/src/draw/../misc/lv_color.h ****  *
   4:Drivers/lvgl/src/draw/../misc/lv_color.h ****  */
   5:Drivers/lvgl/src/draw/../misc/lv_color.h **** 
   6:Drivers/lvgl/src/draw/../misc/lv_color.h **** #ifndef LV_COLOR_H
   7:Drivers/lvgl/src/draw/../misc/lv_color.h **** #define LV_COLOR_H
   8:Drivers/lvgl/src/draw/../misc/lv_color.h **** 
   9:Drivers/lvgl/src/draw/../misc/lv_color.h **** #ifdef __cplusplus
  10:Drivers/lvgl/src/draw/../misc/lv_color.h **** extern "C" {
  11:Drivers/lvgl/src/draw/../misc/lv_color.h **** #endif
  12:Drivers/lvgl/src/draw/../misc/lv_color.h **** 
  13:Drivers/lvgl/src/draw/../misc/lv_color.h **** /*********************
  14:Drivers/lvgl/src/draw/../misc/lv_color.h ****  *      INCLUDES
  15:Drivers/lvgl/src/draw/../misc/lv_color.h ****  *********************/
  16:Drivers/lvgl/src/draw/../misc/lv_color.h **** #include "../lv_conf_internal.h"
  17:Drivers/lvgl/src/draw/../misc/lv_color.h **** #include "lv_assert.h"
  18:Drivers/lvgl/src/draw/../misc/lv_color.h **** #include "lv_math.h"
  19:Drivers/lvgl/src/draw/../misc/lv_color.h **** #include "lv_types.h"
ARM GAS  /var/folders/lp/x54gwt890xv47sdkqj1k04q40000gn/T//cc7xEjuw.s 			page 3


  20:Drivers/lvgl/src/draw/../misc/lv_color.h **** 
  21:Drivers/lvgl/src/draw/../misc/lv_color.h **** /*Error checking*/
  22:Drivers/lvgl/src/draw/../misc/lv_color.h **** #if LV_COLOR_DEPTH == 24
  23:Drivers/lvgl/src/draw/../misc/lv_color.h **** #error "LV_COLOR_DEPTH 24 is deprecated. Use LV_COLOR_DEPTH 32 instead (lv_conf.h)"
  24:Drivers/lvgl/src/draw/../misc/lv_color.h **** #endif
  25:Drivers/lvgl/src/draw/../misc/lv_color.h **** 
  26:Drivers/lvgl/src/draw/../misc/lv_color.h **** #if LV_COLOR_DEPTH != 16 && LV_COLOR_16_SWAP != 0
  27:Drivers/lvgl/src/draw/../misc/lv_color.h **** #error "LV_COLOR_16_SWAP requires LV_COLOR_DEPTH == 16. Set it in lv_conf.h"
  28:Drivers/lvgl/src/draw/../misc/lv_color.h **** #endif
  29:Drivers/lvgl/src/draw/../misc/lv_color.h **** 
  30:Drivers/lvgl/src/draw/../misc/lv_color.h **** #include <stdint.h>
  31:Drivers/lvgl/src/draw/../misc/lv_color.h **** 
  32:Drivers/lvgl/src/draw/../misc/lv_color.h **** /*********************
  33:Drivers/lvgl/src/draw/../misc/lv_color.h ****  *      DEFINES
  34:Drivers/lvgl/src/draw/../misc/lv_color.h ****  *********************/
  35:Drivers/lvgl/src/draw/../misc/lv_color.h **** LV_EXPORT_CONST_INT(LV_COLOR_DEPTH);
  36:Drivers/lvgl/src/draw/../misc/lv_color.h **** LV_EXPORT_CONST_INT(LV_COLOR_16_SWAP);
  37:Drivers/lvgl/src/draw/../misc/lv_color.h **** 
  38:Drivers/lvgl/src/draw/../misc/lv_color.h **** /**
  39:Drivers/lvgl/src/draw/../misc/lv_color.h ****  * Opacity percentages.
  40:Drivers/lvgl/src/draw/../misc/lv_color.h ****  */
  41:Drivers/lvgl/src/draw/../misc/lv_color.h **** enum {
  42:Drivers/lvgl/src/draw/../misc/lv_color.h ****     LV_OPA_TRANSP = 0,
  43:Drivers/lvgl/src/draw/../misc/lv_color.h ****     LV_OPA_0      = 0,
  44:Drivers/lvgl/src/draw/../misc/lv_color.h ****     LV_OPA_10     = 25,
  45:Drivers/lvgl/src/draw/../misc/lv_color.h ****     LV_OPA_20     = 51,
  46:Drivers/lvgl/src/draw/../misc/lv_color.h ****     LV_OPA_30     = 76,
  47:Drivers/lvgl/src/draw/../misc/lv_color.h ****     LV_OPA_40     = 102,
  48:Drivers/lvgl/src/draw/../misc/lv_color.h ****     LV_OPA_50     = 127,
  49:Drivers/lvgl/src/draw/../misc/lv_color.h ****     LV_OPA_60     = 153,
  50:Drivers/lvgl/src/draw/../misc/lv_color.h ****     LV_OPA_70     = 178,
  51:Drivers/lvgl/src/draw/../misc/lv_color.h ****     LV_OPA_80     = 204,
  52:Drivers/lvgl/src/draw/../misc/lv_color.h ****     LV_OPA_90     = 229,
  53:Drivers/lvgl/src/draw/../misc/lv_color.h ****     LV_OPA_100    = 255,
  54:Drivers/lvgl/src/draw/../misc/lv_color.h ****     LV_OPA_COVER  = 255,
  55:Drivers/lvgl/src/draw/../misc/lv_color.h **** };
  56:Drivers/lvgl/src/draw/../misc/lv_color.h **** 
  57:Drivers/lvgl/src/draw/../misc/lv_color.h **** #define LV_OPA_MIN 2    /*Opacities below this will be transparent*/
  58:Drivers/lvgl/src/draw/../misc/lv_color.h **** #define LV_OPA_MAX 253  /*Opacities above this will fully cover*/
  59:Drivers/lvgl/src/draw/../misc/lv_color.h **** 
  60:Drivers/lvgl/src/draw/../misc/lv_color.h **** #if LV_COLOR_DEPTH == 1
  61:Drivers/lvgl/src/draw/../misc/lv_color.h **** #define LV_COLOR_SIZE 8
  62:Drivers/lvgl/src/draw/../misc/lv_color.h **** #elif LV_COLOR_DEPTH == 8
  63:Drivers/lvgl/src/draw/../misc/lv_color.h **** #define LV_COLOR_SIZE 8
  64:Drivers/lvgl/src/draw/../misc/lv_color.h **** #elif LV_COLOR_DEPTH == 16
  65:Drivers/lvgl/src/draw/../misc/lv_color.h **** #define LV_COLOR_SIZE 16
  66:Drivers/lvgl/src/draw/../misc/lv_color.h **** #elif LV_COLOR_DEPTH == 32
  67:Drivers/lvgl/src/draw/../misc/lv_color.h **** #define LV_COLOR_SIZE 32
  68:Drivers/lvgl/src/draw/../misc/lv_color.h **** #else
  69:Drivers/lvgl/src/draw/../misc/lv_color.h **** #error "Invalid LV_COLOR_DEPTH in lv_conf.h! Set it to 1, 8, 16 or 32!"
  70:Drivers/lvgl/src/draw/../misc/lv_color.h **** #endif
  71:Drivers/lvgl/src/draw/../misc/lv_color.h **** 
  72:Drivers/lvgl/src/draw/../misc/lv_color.h **** #if defined(__cplusplus) && !defined(_LV_COLOR_HAS_MODERN_CPP)
  73:Drivers/lvgl/src/draw/../misc/lv_color.h **** /**
  74:Drivers/lvgl/src/draw/../misc/lv_color.h **** * MSVC compiler's definition of the __cplusplus indicating 199711L regardless to C++ standard versi
  75:Drivers/lvgl/src/draw/../misc/lv_color.h **** * see https://devblogs.microsoft.com/cppblog/msvc-now-correctly-reports-cplusplus
  76:Drivers/lvgl/src/draw/../misc/lv_color.h **** * so we use _MSC_VER macro instead of __cplusplus
ARM GAS  /var/folders/lp/x54gwt890xv47sdkqj1k04q40000gn/T//cc7xEjuw.s 			page 4


  77:Drivers/lvgl/src/draw/../misc/lv_color.h **** */
  78:Drivers/lvgl/src/draw/../misc/lv_color.h **** #ifdef _MSC_VER
  79:Drivers/lvgl/src/draw/../misc/lv_color.h **** #if _MSC_VER >= 1900 /*Visual Studio 2015*/
  80:Drivers/lvgl/src/draw/../misc/lv_color.h **** #define _LV_COLOR_HAS_MODERN_CPP 1
  81:Drivers/lvgl/src/draw/../misc/lv_color.h **** #endif
  82:Drivers/lvgl/src/draw/../misc/lv_color.h **** #else
  83:Drivers/lvgl/src/draw/../misc/lv_color.h **** #if __cplusplus >= 201103L
  84:Drivers/lvgl/src/draw/../misc/lv_color.h **** #define _LV_COLOR_HAS_MODERN_CPP 1
  85:Drivers/lvgl/src/draw/../misc/lv_color.h **** #endif
  86:Drivers/lvgl/src/draw/../misc/lv_color.h **** #endif
  87:Drivers/lvgl/src/draw/../misc/lv_color.h **** #endif /*__cplusplus*/
  88:Drivers/lvgl/src/draw/../misc/lv_color.h **** 
  89:Drivers/lvgl/src/draw/../misc/lv_color.h **** #ifndef _LV_COLOR_HAS_MODERN_CPP
  90:Drivers/lvgl/src/draw/../misc/lv_color.h **** #define _LV_COLOR_HAS_MODERN_CPP 0
  91:Drivers/lvgl/src/draw/../misc/lv_color.h **** #endif
  92:Drivers/lvgl/src/draw/../misc/lv_color.h **** 
  93:Drivers/lvgl/src/draw/../misc/lv_color.h **** #if _LV_COLOR_HAS_MODERN_CPP
  94:Drivers/lvgl/src/draw/../misc/lv_color.h **** /*Fix msvc compiler error C4576 inside C++ code*/
  95:Drivers/lvgl/src/draw/../misc/lv_color.h **** #define _LV_COLOR_MAKE_TYPE_HELPER lv_color_t
  96:Drivers/lvgl/src/draw/../misc/lv_color.h **** #else
  97:Drivers/lvgl/src/draw/../misc/lv_color.h **** #define _LV_COLOR_MAKE_TYPE_HELPER (lv_color_t)
  98:Drivers/lvgl/src/draw/../misc/lv_color.h **** #endif
  99:Drivers/lvgl/src/draw/../misc/lv_color.h **** 
 100:Drivers/lvgl/src/draw/../misc/lv_color.h **** /*---------------------------------------
 101:Drivers/lvgl/src/draw/../misc/lv_color.h ****  * Macros for all existing color depths
 102:Drivers/lvgl/src/draw/../misc/lv_color.h ****  * to set/get values of the color channels
 103:Drivers/lvgl/src/draw/../misc/lv_color.h ****  *------------------------------------------*/
 104:Drivers/lvgl/src/draw/../misc/lv_color.h **** # define LV_COLOR_SET_R1(c, v) (c).ch.red = (uint8_t)((v) & 0x1)
 105:Drivers/lvgl/src/draw/../misc/lv_color.h **** # define LV_COLOR_SET_G1(c, v) (c).ch.green = (uint8_t)((v) & 0x1)
 106:Drivers/lvgl/src/draw/../misc/lv_color.h **** # define LV_COLOR_SET_B1(c, v) (c).ch.blue = (uint8_t)((v) & 0x1)
 107:Drivers/lvgl/src/draw/../misc/lv_color.h **** # define LV_COLOR_SET_A1(c, v) do {} while(0)
 108:Drivers/lvgl/src/draw/../misc/lv_color.h **** 
 109:Drivers/lvgl/src/draw/../misc/lv_color.h **** # define LV_COLOR_GET_R1(c) (c).ch.red
 110:Drivers/lvgl/src/draw/../misc/lv_color.h **** # define LV_COLOR_GET_G1(c) (c).ch.green
 111:Drivers/lvgl/src/draw/../misc/lv_color.h **** # define LV_COLOR_GET_B1(c) (c).ch.blue
 112:Drivers/lvgl/src/draw/../misc/lv_color.h **** # define LV_COLOR_GET_A1(c) 0xFF
 113:Drivers/lvgl/src/draw/../misc/lv_color.h **** 
 114:Drivers/lvgl/src/draw/../misc/lv_color.h **** # define _LV_COLOR_ZERO_INITIALIZER1 {0x00}
 115:Drivers/lvgl/src/draw/../misc/lv_color.h **** # define LV_COLOR_MAKE1(r8, g8, b8)  {(uint8_t)((b8 >> 7) | (g8 >> 7) | (r8 >> 7))}
 116:Drivers/lvgl/src/draw/../misc/lv_color.h **** 
 117:Drivers/lvgl/src/draw/../misc/lv_color.h **** # define LV_COLOR_SET_R8(c, v) (c).ch.red = (uint8_t)((v) & 0x7U)
 118:Drivers/lvgl/src/draw/../misc/lv_color.h **** # define LV_COLOR_SET_G8(c, v) (c).ch.green = (uint8_t)((v) & 0x7U)
 119:Drivers/lvgl/src/draw/../misc/lv_color.h **** # define LV_COLOR_SET_B8(c, v) (c).ch.blue = (uint8_t)((v) & 0x3U)
 120:Drivers/lvgl/src/draw/../misc/lv_color.h **** # define LV_COLOR_SET_A8(c, v) do {} while(0)
 121:Drivers/lvgl/src/draw/../misc/lv_color.h **** 
 122:Drivers/lvgl/src/draw/../misc/lv_color.h **** # define LV_COLOR_GET_R8(c) (c).ch.red
 123:Drivers/lvgl/src/draw/../misc/lv_color.h **** # define LV_COLOR_GET_G8(c) (c).ch.green
 124:Drivers/lvgl/src/draw/../misc/lv_color.h **** # define LV_COLOR_GET_B8(c) (c).ch.blue
 125:Drivers/lvgl/src/draw/../misc/lv_color.h **** # define LV_COLOR_GET_A8(c) 0xFF
 126:Drivers/lvgl/src/draw/../misc/lv_color.h **** 
 127:Drivers/lvgl/src/draw/../misc/lv_color.h **** # define _LV_COLOR_ZERO_INITIALIZER8 {{0x00, 0x00, 0x00}}
 128:Drivers/lvgl/src/draw/../misc/lv_color.h **** # define LV_COLOR_MAKE8(r8, g8, b8) {{(uint8_t)((b8 >> 6) & 0x3U), (uint8_t)((g8 >> 5) & 0x7U), (ui
 129:Drivers/lvgl/src/draw/../misc/lv_color.h **** 
 130:Drivers/lvgl/src/draw/../misc/lv_color.h **** # define LV_COLOR_SET_R16(c, v) (c).ch.red = (uint8_t)((v) & 0x1FU)
 131:Drivers/lvgl/src/draw/../misc/lv_color.h **** #if LV_COLOR_16_SWAP == 0
 132:Drivers/lvgl/src/draw/../misc/lv_color.h **** # define LV_COLOR_SET_G16(c, v) (c).ch.green = (uint8_t)((v) & 0x3FU)
 133:Drivers/lvgl/src/draw/../misc/lv_color.h **** #else
ARM GAS  /var/folders/lp/x54gwt890xv47sdkqj1k04q40000gn/T//cc7xEjuw.s 			page 5


 134:Drivers/lvgl/src/draw/../misc/lv_color.h **** # define LV_COLOR_SET_G16(c, v) {(c).ch.green_h = (uint8_t)(((v) >> 3) & 0x7); (c).ch.green_l = (ui
 135:Drivers/lvgl/src/draw/../misc/lv_color.h **** #endif
 136:Drivers/lvgl/src/draw/../misc/lv_color.h **** # define LV_COLOR_SET_B16(c, v) (c).ch.blue = (uint8_t)((v) & 0x1FU)
 137:Drivers/lvgl/src/draw/../misc/lv_color.h **** # define LV_COLOR_SET_A16(c, v) do {} while(0)
 138:Drivers/lvgl/src/draw/../misc/lv_color.h **** 
 139:Drivers/lvgl/src/draw/../misc/lv_color.h **** # define LV_COLOR_GET_R16(c) (c).ch.red
 140:Drivers/lvgl/src/draw/../misc/lv_color.h **** #if LV_COLOR_16_SWAP == 0
 141:Drivers/lvgl/src/draw/../misc/lv_color.h **** # define LV_COLOR_GET_G16(c) (c).ch.green
 142:Drivers/lvgl/src/draw/../misc/lv_color.h **** #else
 143:Drivers/lvgl/src/draw/../misc/lv_color.h **** # define LV_COLOR_GET_G16(c) (((c).ch.green_h << 3) + (c).ch.green_l)
 144:Drivers/lvgl/src/draw/../misc/lv_color.h **** #endif
 145:Drivers/lvgl/src/draw/../misc/lv_color.h **** # define LV_COLOR_GET_B16(c) (c).ch.blue
 146:Drivers/lvgl/src/draw/../misc/lv_color.h **** # define LV_COLOR_GET_A16(c) 0xFF
 147:Drivers/lvgl/src/draw/../misc/lv_color.h **** 
 148:Drivers/lvgl/src/draw/../misc/lv_color.h **** #if LV_COLOR_16_SWAP == 0
 149:Drivers/lvgl/src/draw/../misc/lv_color.h **** # define _LV_COLOR_ZERO_INITIALIZER16  {{0x00, 0x00, 0x00}}
 150:Drivers/lvgl/src/draw/../misc/lv_color.h **** # define LV_COLOR_MAKE16(r8, g8, b8) {{(uint8_t)((b8 >> 3) & 0x1FU), (uint8_t)((g8 >> 2) & 0x3FU), 
 151:Drivers/lvgl/src/draw/../misc/lv_color.h **** #else
 152:Drivers/lvgl/src/draw/../misc/lv_color.h **** # define _LV_COLOR_ZERO_INITIALIZER16 {{0x00, 0x00, 0x00, 0x00}}
 153:Drivers/lvgl/src/draw/../misc/lv_color.h **** # define LV_COLOR_MAKE16(r8, g8, b8) {{(uint8_t)((g8 >> 5) & 0x7U), (uint8_t)((r8 >> 3) & 0x1FU), (
 154:Drivers/lvgl/src/draw/../misc/lv_color.h **** #endif
 155:Drivers/lvgl/src/draw/../misc/lv_color.h **** 
 156:Drivers/lvgl/src/draw/../misc/lv_color.h **** # define LV_COLOR_SET_R32(c, v) (c).ch.red = (uint8_t)((v) & 0xFF)
 157:Drivers/lvgl/src/draw/../misc/lv_color.h **** # define LV_COLOR_SET_G32(c, v) (c).ch.green = (uint8_t)((v) & 0xFF)
 158:Drivers/lvgl/src/draw/../misc/lv_color.h **** # define LV_COLOR_SET_B32(c, v) (c).ch.blue = (uint8_t)((v) & 0xFF)
 159:Drivers/lvgl/src/draw/../misc/lv_color.h **** # define LV_COLOR_SET_A32(c, v) (c).ch.alpha = (uint8_t)((v) & 0xFF)
 160:Drivers/lvgl/src/draw/../misc/lv_color.h **** 
 161:Drivers/lvgl/src/draw/../misc/lv_color.h **** # define LV_COLOR_GET_R32(c) (c).ch.red
 162:Drivers/lvgl/src/draw/../misc/lv_color.h **** # define LV_COLOR_GET_G32(c) (c).ch.green
 163:Drivers/lvgl/src/draw/../misc/lv_color.h **** # define LV_COLOR_GET_B32(c) (c).ch.blue
 164:Drivers/lvgl/src/draw/../misc/lv_color.h **** # define LV_COLOR_GET_A32(c) (c).ch.alpha
 165:Drivers/lvgl/src/draw/../misc/lv_color.h **** 
 166:Drivers/lvgl/src/draw/../misc/lv_color.h **** # define _LV_COLOR_ZERO_INITIALIZER32  {{0x00, 0x00, 0x00, 0x00}}
 167:Drivers/lvgl/src/draw/../misc/lv_color.h **** # define LV_COLOR_MAKE32(r8, g8, b8) {{b8, g8, r8, 0xff}} /*Fix 0xff alpha*/
 168:Drivers/lvgl/src/draw/../misc/lv_color.h **** 
 169:Drivers/lvgl/src/draw/../misc/lv_color.h **** /*---------------------------------------
 170:Drivers/lvgl/src/draw/../misc/lv_color.h ****  * Macros for the current color depth
 171:Drivers/lvgl/src/draw/../misc/lv_color.h ****  * to set/get values of the color channels
 172:Drivers/lvgl/src/draw/../misc/lv_color.h ****  *------------------------------------------*/
 173:Drivers/lvgl/src/draw/../misc/lv_color.h **** #define LV_COLOR_SET_R(c, v) LV_CONCAT(LV_COLOR_SET_R, LV_COLOR_DEPTH)(c, v)
 174:Drivers/lvgl/src/draw/../misc/lv_color.h **** #define LV_COLOR_SET_G(c, v) LV_CONCAT(LV_COLOR_SET_G, LV_COLOR_DEPTH)(c, v)
 175:Drivers/lvgl/src/draw/../misc/lv_color.h **** #define LV_COLOR_SET_B(c, v) LV_CONCAT(LV_COLOR_SET_B, LV_COLOR_DEPTH)(c, v)
 176:Drivers/lvgl/src/draw/../misc/lv_color.h **** #define LV_COLOR_SET_A(c, v) LV_CONCAT(LV_COLOR_SET_A, LV_COLOR_DEPTH)(c, v)
 177:Drivers/lvgl/src/draw/../misc/lv_color.h **** 
 178:Drivers/lvgl/src/draw/../misc/lv_color.h **** #define LV_COLOR_GET_R(c) LV_CONCAT(LV_COLOR_GET_R, LV_COLOR_DEPTH)(c)
 179:Drivers/lvgl/src/draw/../misc/lv_color.h **** #define LV_COLOR_GET_G(c) LV_CONCAT(LV_COLOR_GET_G, LV_COLOR_DEPTH)(c)
 180:Drivers/lvgl/src/draw/../misc/lv_color.h **** #define LV_COLOR_GET_B(c) LV_CONCAT(LV_COLOR_GET_B, LV_COLOR_DEPTH)(c)
 181:Drivers/lvgl/src/draw/../misc/lv_color.h **** #define LV_COLOR_GET_A(c) LV_CONCAT(LV_COLOR_GET_A, LV_COLOR_DEPTH)(c)
 182:Drivers/lvgl/src/draw/../misc/lv_color.h **** 
 183:Drivers/lvgl/src/draw/../misc/lv_color.h **** #define _LV_COLOR_ZERO_INITIALIZER LV_CONCAT(_LV_COLOR_ZERO_INITIALIZER, LV_COLOR_DEPTH)
 184:Drivers/lvgl/src/draw/../misc/lv_color.h **** #define LV_COLOR_MAKE(r8, g8, b8) LV_CONCAT(LV_COLOR_MAKE, LV_COLOR_DEPTH)(r8, g8, b8)
 185:Drivers/lvgl/src/draw/../misc/lv_color.h **** 
 186:Drivers/lvgl/src/draw/../misc/lv_color.h **** /**********************
 187:Drivers/lvgl/src/draw/../misc/lv_color.h ****  *      TYPEDEFS
 188:Drivers/lvgl/src/draw/../misc/lv_color.h ****  **********************/
 189:Drivers/lvgl/src/draw/../misc/lv_color.h **** 
 190:Drivers/lvgl/src/draw/../misc/lv_color.h **** typedef union {
ARM GAS  /var/folders/lp/x54gwt890xv47sdkqj1k04q40000gn/T//cc7xEjuw.s 			page 6


 191:Drivers/lvgl/src/draw/../misc/lv_color.h ****     uint8_t full; /*must be declared first to set all bits of byte via initializer list*/
 192:Drivers/lvgl/src/draw/../misc/lv_color.h ****     union {
 193:Drivers/lvgl/src/draw/../misc/lv_color.h ****         uint8_t blue : 1;
 194:Drivers/lvgl/src/draw/../misc/lv_color.h ****         uint8_t green : 1;
 195:Drivers/lvgl/src/draw/../misc/lv_color.h ****         uint8_t red : 1;
 196:Drivers/lvgl/src/draw/../misc/lv_color.h ****     } ch;
 197:Drivers/lvgl/src/draw/../misc/lv_color.h **** } lv_color1_t;
 198:Drivers/lvgl/src/draw/../misc/lv_color.h **** 
 199:Drivers/lvgl/src/draw/../misc/lv_color.h **** typedef union {
 200:Drivers/lvgl/src/draw/../misc/lv_color.h ****     struct {
 201:Drivers/lvgl/src/draw/../misc/lv_color.h ****         uint8_t blue : 2;
 202:Drivers/lvgl/src/draw/../misc/lv_color.h ****         uint8_t green : 3;
 203:Drivers/lvgl/src/draw/../misc/lv_color.h ****         uint8_t red : 3;
 204:Drivers/lvgl/src/draw/../misc/lv_color.h ****     } ch;
 205:Drivers/lvgl/src/draw/../misc/lv_color.h ****     uint8_t full;
 206:Drivers/lvgl/src/draw/../misc/lv_color.h **** } lv_color8_t;
 207:Drivers/lvgl/src/draw/../misc/lv_color.h **** 
 208:Drivers/lvgl/src/draw/../misc/lv_color.h **** typedef union {
 209:Drivers/lvgl/src/draw/../misc/lv_color.h ****     struct {
 210:Drivers/lvgl/src/draw/../misc/lv_color.h **** #if LV_COLOR_16_SWAP == 0
 211:Drivers/lvgl/src/draw/../misc/lv_color.h ****         uint16_t blue : 5;
 212:Drivers/lvgl/src/draw/../misc/lv_color.h ****         uint16_t green : 6;
 213:Drivers/lvgl/src/draw/../misc/lv_color.h ****         uint16_t red : 5;
 214:Drivers/lvgl/src/draw/../misc/lv_color.h **** #else
 215:Drivers/lvgl/src/draw/../misc/lv_color.h ****         uint16_t green_h : 3;
 216:Drivers/lvgl/src/draw/../misc/lv_color.h ****         uint16_t red : 5;
 217:Drivers/lvgl/src/draw/../misc/lv_color.h ****         uint16_t blue : 5;
 218:Drivers/lvgl/src/draw/../misc/lv_color.h ****         uint16_t green_l : 3;
 219:Drivers/lvgl/src/draw/../misc/lv_color.h **** #endif
 220:Drivers/lvgl/src/draw/../misc/lv_color.h ****     } ch;
 221:Drivers/lvgl/src/draw/../misc/lv_color.h ****     uint16_t full;
 222:Drivers/lvgl/src/draw/../misc/lv_color.h **** } lv_color16_t;
 223:Drivers/lvgl/src/draw/../misc/lv_color.h **** 
 224:Drivers/lvgl/src/draw/../misc/lv_color.h **** typedef union {
 225:Drivers/lvgl/src/draw/../misc/lv_color.h ****     struct {
 226:Drivers/lvgl/src/draw/../misc/lv_color.h ****         uint8_t blue;
 227:Drivers/lvgl/src/draw/../misc/lv_color.h ****         uint8_t green;
 228:Drivers/lvgl/src/draw/../misc/lv_color.h ****         uint8_t red;
 229:Drivers/lvgl/src/draw/../misc/lv_color.h ****         uint8_t alpha;
 230:Drivers/lvgl/src/draw/../misc/lv_color.h ****     } ch;
 231:Drivers/lvgl/src/draw/../misc/lv_color.h ****     uint32_t full;
 232:Drivers/lvgl/src/draw/../misc/lv_color.h **** } lv_color32_t;
 233:Drivers/lvgl/src/draw/../misc/lv_color.h **** 
 234:Drivers/lvgl/src/draw/../misc/lv_color.h **** typedef LV_CONCAT3(uint, LV_COLOR_SIZE, _t) lv_color_int_t;
 235:Drivers/lvgl/src/draw/../misc/lv_color.h **** typedef LV_CONCAT3(lv_color, LV_COLOR_DEPTH, _t) lv_color_t;
 236:Drivers/lvgl/src/draw/../misc/lv_color.h **** 
 237:Drivers/lvgl/src/draw/../misc/lv_color.h **** typedef struct {
 238:Drivers/lvgl/src/draw/../misc/lv_color.h ****     uint16_t h;
 239:Drivers/lvgl/src/draw/../misc/lv_color.h ****     uint8_t s;
 240:Drivers/lvgl/src/draw/../misc/lv_color.h ****     uint8_t v;
 241:Drivers/lvgl/src/draw/../misc/lv_color.h **** } lv_color_hsv_t;
 242:Drivers/lvgl/src/draw/../misc/lv_color.h **** 
 243:Drivers/lvgl/src/draw/../misc/lv_color.h **** //! @cond Doxygen_Suppress
 244:Drivers/lvgl/src/draw/../misc/lv_color.h **** /*No idea where the guard is required but else throws warnings in the docs*/
 245:Drivers/lvgl/src/draw/../misc/lv_color.h **** typedef uint8_t lv_opa_t;
 246:Drivers/lvgl/src/draw/../misc/lv_color.h **** //! @endcond
 247:Drivers/lvgl/src/draw/../misc/lv_color.h **** 
ARM GAS  /var/folders/lp/x54gwt890xv47sdkqj1k04q40000gn/T//cc7xEjuw.s 			page 7


 248:Drivers/lvgl/src/draw/../misc/lv_color.h **** struct _lv_color_filter_dsc_t;
 249:Drivers/lvgl/src/draw/../misc/lv_color.h **** 
 250:Drivers/lvgl/src/draw/../misc/lv_color.h **** typedef lv_color_t (*lv_color_filter_cb_t)(const struct _lv_color_filter_dsc_t *, lv_color_t, lv_op
 251:Drivers/lvgl/src/draw/../misc/lv_color.h **** 
 252:Drivers/lvgl/src/draw/../misc/lv_color.h **** typedef struct _lv_color_filter_dsc_t {
 253:Drivers/lvgl/src/draw/../misc/lv_color.h ****     lv_color_filter_cb_t filter_cb;
 254:Drivers/lvgl/src/draw/../misc/lv_color.h ****     void * user_data;
 255:Drivers/lvgl/src/draw/../misc/lv_color.h **** } lv_color_filter_dsc_t;
 256:Drivers/lvgl/src/draw/../misc/lv_color.h **** 
 257:Drivers/lvgl/src/draw/../misc/lv_color.h **** 
 258:Drivers/lvgl/src/draw/../misc/lv_color.h **** typedef enum {
 259:Drivers/lvgl/src/draw/../misc/lv_color.h ****     LV_PALETTE_RED,
 260:Drivers/lvgl/src/draw/../misc/lv_color.h ****     LV_PALETTE_PINK,
 261:Drivers/lvgl/src/draw/../misc/lv_color.h ****     LV_PALETTE_PURPLE,
 262:Drivers/lvgl/src/draw/../misc/lv_color.h ****     LV_PALETTE_DEEP_PURPLE,
 263:Drivers/lvgl/src/draw/../misc/lv_color.h ****     LV_PALETTE_INDIGO,
 264:Drivers/lvgl/src/draw/../misc/lv_color.h ****     LV_PALETTE_BLUE,
 265:Drivers/lvgl/src/draw/../misc/lv_color.h ****     LV_PALETTE_LIGHT_BLUE,
 266:Drivers/lvgl/src/draw/../misc/lv_color.h ****     LV_PALETTE_CYAN,
 267:Drivers/lvgl/src/draw/../misc/lv_color.h ****     LV_PALETTE_TEAL,
 268:Drivers/lvgl/src/draw/../misc/lv_color.h ****     LV_PALETTE_GREEN,
 269:Drivers/lvgl/src/draw/../misc/lv_color.h ****     LV_PALETTE_LIGHT_GREEN,
 270:Drivers/lvgl/src/draw/../misc/lv_color.h ****     LV_PALETTE_LIME,
 271:Drivers/lvgl/src/draw/../misc/lv_color.h ****     LV_PALETTE_YELLOW,
 272:Drivers/lvgl/src/draw/../misc/lv_color.h ****     LV_PALETTE_AMBER,
 273:Drivers/lvgl/src/draw/../misc/lv_color.h ****     LV_PALETTE_ORANGE,
 274:Drivers/lvgl/src/draw/../misc/lv_color.h ****     LV_PALETTE_DEEP_ORANGE,
 275:Drivers/lvgl/src/draw/../misc/lv_color.h ****     LV_PALETTE_BROWN,
 276:Drivers/lvgl/src/draw/../misc/lv_color.h ****     LV_PALETTE_BLUE_GREY,
 277:Drivers/lvgl/src/draw/../misc/lv_color.h ****     LV_PALETTE_GREY,
 278:Drivers/lvgl/src/draw/../misc/lv_color.h ****     _LV_PALETTE_LAST,
 279:Drivers/lvgl/src/draw/../misc/lv_color.h ****     LV_PALETTE_NONE = 0xff,
 280:Drivers/lvgl/src/draw/../misc/lv_color.h **** } lv_palette_t;
 281:Drivers/lvgl/src/draw/../misc/lv_color.h **** 
 282:Drivers/lvgl/src/draw/../misc/lv_color.h **** /**********************
 283:Drivers/lvgl/src/draw/../misc/lv_color.h ****  * GLOBAL PROTOTYPES
 284:Drivers/lvgl/src/draw/../misc/lv_color.h ****  **********************/
 285:Drivers/lvgl/src/draw/../misc/lv_color.h **** 
 286:Drivers/lvgl/src/draw/../misc/lv_color.h **** /*In color conversations:
 287:Drivers/lvgl/src/draw/../misc/lv_color.h ****  * - When converting to bigger color type the LSB weight of 1 LSB is calculated
 288:Drivers/lvgl/src/draw/../misc/lv_color.h ****  *   E.g. 16 bit Red has 5 bits
 289:Drivers/lvgl/src/draw/../misc/lv_color.h ****  *         8 bit Red has 3 bits
 290:Drivers/lvgl/src/draw/../misc/lv_color.h ****  *        ----------------------
 291:Drivers/lvgl/src/draw/../misc/lv_color.h ****  *        8 bit red LSB = (2^5 - 1) / (2^3 - 1) = 31 / 7 = 4
 292:Drivers/lvgl/src/draw/../misc/lv_color.h ****  *
 293:Drivers/lvgl/src/draw/../misc/lv_color.h ****  * - When calculating to smaller color type simply shift out the LSBs
 294:Drivers/lvgl/src/draw/../misc/lv_color.h ****  *   E.g.  8 bit Red has 3 bits
 295:Drivers/lvgl/src/draw/../misc/lv_color.h ****  *        16 bit Red has 5 bits
 296:Drivers/lvgl/src/draw/../misc/lv_color.h ****  *        ----------------------
 297:Drivers/lvgl/src/draw/../misc/lv_color.h ****  *         Shift right with 5 - 3 = 2
 298:Drivers/lvgl/src/draw/../misc/lv_color.h ****  */
 299:Drivers/lvgl/src/draw/../misc/lv_color.h **** static inline uint8_t lv_color_to1(lv_color_t color)
 300:Drivers/lvgl/src/draw/../misc/lv_color.h **** {
 301:Drivers/lvgl/src/draw/../misc/lv_color.h **** #if LV_COLOR_DEPTH == 1
 302:Drivers/lvgl/src/draw/../misc/lv_color.h ****     return color.full;
 303:Drivers/lvgl/src/draw/../misc/lv_color.h **** #elif LV_COLOR_DEPTH == 8
 304:Drivers/lvgl/src/draw/../misc/lv_color.h ****     if((LV_COLOR_GET_R(color) & 0x4) || (LV_COLOR_GET_G(color) & 0x4) || (LV_COLOR_GET_B(color) & 0
ARM GAS  /var/folders/lp/x54gwt890xv47sdkqj1k04q40000gn/T//cc7xEjuw.s 			page 8


 305:Drivers/lvgl/src/draw/../misc/lv_color.h ****         return 1;
 306:Drivers/lvgl/src/draw/../misc/lv_color.h ****     }
 307:Drivers/lvgl/src/draw/../misc/lv_color.h ****     else {
 308:Drivers/lvgl/src/draw/../misc/lv_color.h ****         return 0;
 309:Drivers/lvgl/src/draw/../misc/lv_color.h ****     }
 310:Drivers/lvgl/src/draw/../misc/lv_color.h **** #elif LV_COLOR_DEPTH == 16
 311:Drivers/lvgl/src/draw/../misc/lv_color.h ****     if((LV_COLOR_GET_R(color) & 0x10) || (LV_COLOR_GET_G(color) & 0x20) || (LV_COLOR_GET_B(color) &
 312:Drivers/lvgl/src/draw/../misc/lv_color.h ****         return 1;
 313:Drivers/lvgl/src/draw/../misc/lv_color.h ****     }
 314:Drivers/lvgl/src/draw/../misc/lv_color.h ****     else {
 315:Drivers/lvgl/src/draw/../misc/lv_color.h ****         return 0;
 316:Drivers/lvgl/src/draw/../misc/lv_color.h ****     }
 317:Drivers/lvgl/src/draw/../misc/lv_color.h **** #elif LV_COLOR_DEPTH == 32
 318:Drivers/lvgl/src/draw/../misc/lv_color.h ****     if((LV_COLOR_GET_R(color) & 0x80) || (LV_COLOR_GET_G(color) & 0x80) || (LV_COLOR_GET_B(color) &
 319:Drivers/lvgl/src/draw/../misc/lv_color.h ****         return 1;
 320:Drivers/lvgl/src/draw/../misc/lv_color.h ****     }
 321:Drivers/lvgl/src/draw/../misc/lv_color.h ****     else {
 322:Drivers/lvgl/src/draw/../misc/lv_color.h ****         return 0;
 323:Drivers/lvgl/src/draw/../misc/lv_color.h ****     }
 324:Drivers/lvgl/src/draw/../misc/lv_color.h **** #endif
 325:Drivers/lvgl/src/draw/../misc/lv_color.h **** }
 326:Drivers/lvgl/src/draw/../misc/lv_color.h **** 
 327:Drivers/lvgl/src/draw/../misc/lv_color.h **** static inline uint8_t lv_color_to8(lv_color_t color)
 328:Drivers/lvgl/src/draw/../misc/lv_color.h **** {
 329:Drivers/lvgl/src/draw/../misc/lv_color.h **** #if LV_COLOR_DEPTH == 1
 330:Drivers/lvgl/src/draw/../misc/lv_color.h ****     if(color.full == 0)
 331:Drivers/lvgl/src/draw/../misc/lv_color.h ****         return 0;
 332:Drivers/lvgl/src/draw/../misc/lv_color.h ****     else
 333:Drivers/lvgl/src/draw/../misc/lv_color.h ****         return 0xFF;
 334:Drivers/lvgl/src/draw/../misc/lv_color.h **** #elif LV_COLOR_DEPTH == 8
 335:Drivers/lvgl/src/draw/../misc/lv_color.h ****     return color.full;
 336:Drivers/lvgl/src/draw/../misc/lv_color.h **** #elif LV_COLOR_DEPTH == 16
 337:Drivers/lvgl/src/draw/../misc/lv_color.h ****     lv_color8_t ret;
 338:Drivers/lvgl/src/draw/../misc/lv_color.h ****     LV_COLOR_SET_R8(ret, LV_COLOR_GET_R(color) >> 2); /*5 - 3  = 2*/
 339:Drivers/lvgl/src/draw/../misc/lv_color.h ****     LV_COLOR_SET_G8(ret, LV_COLOR_GET_G(color) >> 3); /*6 - 3  = 3*/
 340:Drivers/lvgl/src/draw/../misc/lv_color.h ****     LV_COLOR_SET_B8(ret, LV_COLOR_GET_B(color) >> 3); /*5 - 2  = 3*/
 341:Drivers/lvgl/src/draw/../misc/lv_color.h ****     return ret.full;
 342:Drivers/lvgl/src/draw/../misc/lv_color.h **** #elif LV_COLOR_DEPTH == 32
 343:Drivers/lvgl/src/draw/../misc/lv_color.h ****     lv_color8_t ret;
 344:Drivers/lvgl/src/draw/../misc/lv_color.h ****     LV_COLOR_SET_R8(ret, LV_COLOR_GET_R(color) >> 5); /*8 - 3  = 5*/
 345:Drivers/lvgl/src/draw/../misc/lv_color.h ****     LV_COLOR_SET_G8(ret, LV_COLOR_GET_G(color) >> 5); /*8 - 3  = 5*/
 346:Drivers/lvgl/src/draw/../misc/lv_color.h ****     LV_COLOR_SET_B8(ret, LV_COLOR_GET_B(color) >> 6); /*8 - 2  = 6*/
 347:Drivers/lvgl/src/draw/../misc/lv_color.h ****     return ret.full;
 348:Drivers/lvgl/src/draw/../misc/lv_color.h **** #endif
 349:Drivers/lvgl/src/draw/../misc/lv_color.h **** }
 350:Drivers/lvgl/src/draw/../misc/lv_color.h **** 
 351:Drivers/lvgl/src/draw/../misc/lv_color.h **** static inline uint16_t lv_color_to16(lv_color_t color)
 352:Drivers/lvgl/src/draw/../misc/lv_color.h **** {
 353:Drivers/lvgl/src/draw/../misc/lv_color.h **** #if LV_COLOR_DEPTH == 1
 354:Drivers/lvgl/src/draw/../misc/lv_color.h ****     if(color.full == 0)
 355:Drivers/lvgl/src/draw/../misc/lv_color.h ****         return 0;
 356:Drivers/lvgl/src/draw/../misc/lv_color.h ****     else
 357:Drivers/lvgl/src/draw/../misc/lv_color.h ****         return 0xFFFF;
 358:Drivers/lvgl/src/draw/../misc/lv_color.h **** #elif LV_COLOR_DEPTH == 8
 359:Drivers/lvgl/src/draw/../misc/lv_color.h ****     lv_color16_t ret;
 360:Drivers/lvgl/src/draw/../misc/lv_color.h ****     LV_COLOR_SET_R16(ret, LV_COLOR_GET_R(color) * 4);  /*(2^5 - 1)/(2^3 - 1) = 31/7 = 4*/
 361:Drivers/lvgl/src/draw/../misc/lv_color.h ****     LV_COLOR_SET_G16(ret, LV_COLOR_GET_G(color) * 9);  /*(2^6 - 1)/(2^3 - 1) = 63/7 = 9*/
ARM GAS  /var/folders/lp/x54gwt890xv47sdkqj1k04q40000gn/T//cc7xEjuw.s 			page 9


 362:Drivers/lvgl/src/draw/../misc/lv_color.h ****     LV_COLOR_SET_B16(ret, LV_COLOR_GET_B(color) * 10); /*(2^5 - 1)/(2^2 - 1) = 31/3 = 10*/
 363:Drivers/lvgl/src/draw/../misc/lv_color.h ****     return ret.full;
 364:Drivers/lvgl/src/draw/../misc/lv_color.h **** #elif LV_COLOR_DEPTH == 16
 365:Drivers/lvgl/src/draw/../misc/lv_color.h ****     return color.full;
 366:Drivers/lvgl/src/draw/../misc/lv_color.h **** #elif LV_COLOR_DEPTH == 32
 367:Drivers/lvgl/src/draw/../misc/lv_color.h ****     lv_color16_t ret;
 368:Drivers/lvgl/src/draw/../misc/lv_color.h ****     LV_COLOR_SET_R16(ret, LV_COLOR_GET_R(color) >> 3); /*8 - 5  = 3*/
 369:Drivers/lvgl/src/draw/../misc/lv_color.h ****     LV_COLOR_SET_G16(ret, LV_COLOR_GET_G(color) >> 2); /*8 - 6  = 2*/
 370:Drivers/lvgl/src/draw/../misc/lv_color.h ****     LV_COLOR_SET_B16(ret, LV_COLOR_GET_B(color) >> 3); /*8 - 5  = 3*/
 371:Drivers/lvgl/src/draw/../misc/lv_color.h ****     return ret.full;
 372:Drivers/lvgl/src/draw/../misc/lv_color.h **** #endif
 373:Drivers/lvgl/src/draw/../misc/lv_color.h **** }
 374:Drivers/lvgl/src/draw/../misc/lv_color.h **** 
 375:Drivers/lvgl/src/draw/../misc/lv_color.h **** static inline uint32_t lv_color_to32(lv_color_t color)
 376:Drivers/lvgl/src/draw/../misc/lv_color.h **** {
 377:Drivers/lvgl/src/draw/../misc/lv_color.h **** #if LV_COLOR_DEPTH == 1
 378:Drivers/lvgl/src/draw/../misc/lv_color.h ****     if(color.full == 0)
 379:Drivers/lvgl/src/draw/../misc/lv_color.h ****         return 0xFF000000;
 380:Drivers/lvgl/src/draw/../misc/lv_color.h ****     else
 381:Drivers/lvgl/src/draw/../misc/lv_color.h ****         return 0xFFFFFFFF;
 382:Drivers/lvgl/src/draw/../misc/lv_color.h **** #elif LV_COLOR_DEPTH == 8
 383:Drivers/lvgl/src/draw/../misc/lv_color.h ****     lv_color32_t ret;
 384:Drivers/lvgl/src/draw/../misc/lv_color.h ****     LV_COLOR_SET_R32(ret, LV_COLOR_GET_R(color) * 36); /*(2^8 - 1)/(2^3 - 1) = 255/7 = 36*/
 385:Drivers/lvgl/src/draw/../misc/lv_color.h ****     LV_COLOR_SET_G32(ret, LV_COLOR_GET_G(color) * 36); /*(2^8 - 1)/(2^3 - 1) = 255/7 = 36*/
 386:Drivers/lvgl/src/draw/../misc/lv_color.h ****     LV_COLOR_SET_B32(ret, LV_COLOR_GET_B(color) * 85); /*(2^8 - 1)/(2^2 - 1) = 255/3 = 85*/
 387:Drivers/lvgl/src/draw/../misc/lv_color.h ****     LV_COLOR_SET_A32(ret, 0xFF);
 388:Drivers/lvgl/src/draw/../misc/lv_color.h ****     return ret.full;
 389:Drivers/lvgl/src/draw/../misc/lv_color.h **** #elif LV_COLOR_DEPTH == 16
 390:Drivers/lvgl/src/draw/../misc/lv_color.h ****     /**
 391:Drivers/lvgl/src/draw/../misc/lv_color.h ****      * The floating point math for conversion is:
 392:Drivers/lvgl/src/draw/../misc/lv_color.h ****      *  valueto = valuefrom * ( (2^bitsto - 1) / (float)(2^bitsfrom - 1) )
 393:Drivers/lvgl/src/draw/../misc/lv_color.h ****      * The faster integer math for conversion is:
 394:Drivers/lvgl/src/draw/../misc/lv_color.h ****      *  valueto = ( valuefrom * multiplier + adder ) >> divisor
 395:Drivers/lvgl/src/draw/../misc/lv_color.h ****      *   multiplier = FLOOR( ( (2^bitsto - 1) << divisor ) / (float)(2^bitsfrom - 1) )
 396:Drivers/lvgl/src/draw/../misc/lv_color.h ****      *
 397:Drivers/lvgl/src/draw/../misc/lv_color.h ****      * Find the first divisor where ( adder >> divisor ) <= 0
 398:Drivers/lvgl/src/draw/../misc/lv_color.h ****      *
 399:Drivers/lvgl/src/draw/../misc/lv_color.h ****      * 5-bit to 8-bit: ( 31 * multiplier + adder ) >> divisor = 255
 400:Drivers/lvgl/src/draw/../misc/lv_color.h ****      * divisor  multiplier  adder  min (0)  max (31)
 401:Drivers/lvgl/src/draw/../misc/lv_color.h ****      *       0           8      7        7       255
 402:Drivers/lvgl/src/draw/../misc/lv_color.h ****      *       1          16     14        7       255
 403:Drivers/lvgl/src/draw/../misc/lv_color.h ****      *       2          32     28        7       255
 404:Drivers/lvgl/src/draw/../misc/lv_color.h ****      *       3          65     25        3       255
 405:Drivers/lvgl/src/draw/../misc/lv_color.h ****      *       4         131     19        1       255
 406:Drivers/lvgl/src/draw/../misc/lv_color.h ****      *       5         263      7        0       255
 407:Drivers/lvgl/src/draw/../misc/lv_color.h ****      *
 408:Drivers/lvgl/src/draw/../misc/lv_color.h ****      * 6-bit to 8-bit: 255 = ( 63 * multiplier + adder ) >> divisor
 409:Drivers/lvgl/src/draw/../misc/lv_color.h ****      * divisor  multiplier  adder  min (0)  max (63)
 410:Drivers/lvgl/src/draw/../misc/lv_color.h ****      *       0           4      3        3       255
 411:Drivers/lvgl/src/draw/../misc/lv_color.h ****      *       1           8      6        3       255
 412:Drivers/lvgl/src/draw/../misc/lv_color.h ****      *       2          16     12        3       255
 413:Drivers/lvgl/src/draw/../misc/lv_color.h ****      *       3          32     24        3       255
 414:Drivers/lvgl/src/draw/../misc/lv_color.h ****      *       4          64     48        3       255
 415:Drivers/lvgl/src/draw/../misc/lv_color.h ****      *       5         129     33        1       255
 416:Drivers/lvgl/src/draw/../misc/lv_color.h ****      *       6         259      3        0       255
 417:Drivers/lvgl/src/draw/../misc/lv_color.h ****      */
 418:Drivers/lvgl/src/draw/../misc/lv_color.h **** 
ARM GAS  /var/folders/lp/x54gwt890xv47sdkqj1k04q40000gn/T//cc7xEjuw.s 			page 10


 419:Drivers/lvgl/src/draw/../misc/lv_color.h ****     lv_color32_t ret;
 420:Drivers/lvgl/src/draw/../misc/lv_color.h ****     LV_COLOR_SET_R32(ret, (LV_COLOR_GET_R(color) * 263 + 7) >> 5);
 421:Drivers/lvgl/src/draw/../misc/lv_color.h ****     LV_COLOR_SET_G32(ret, (LV_COLOR_GET_G(color) * 259 + 3) >> 6);
 422:Drivers/lvgl/src/draw/../misc/lv_color.h ****     LV_COLOR_SET_B32(ret, (LV_COLOR_GET_B(color) * 263 + 7) >> 5);
 423:Drivers/lvgl/src/draw/../misc/lv_color.h ****     LV_COLOR_SET_A32(ret, 0xFF);
 424:Drivers/lvgl/src/draw/../misc/lv_color.h ****     return ret.full;
 425:Drivers/lvgl/src/draw/../misc/lv_color.h **** #elif LV_COLOR_DEPTH == 32
 426:Drivers/lvgl/src/draw/../misc/lv_color.h ****     return color.full;
 427:Drivers/lvgl/src/draw/../misc/lv_color.h **** #endif
 428:Drivers/lvgl/src/draw/../misc/lv_color.h **** }
 429:Drivers/lvgl/src/draw/../misc/lv_color.h **** 
 430:Drivers/lvgl/src/draw/../misc/lv_color.h **** //! @cond Doxygen_Suppress
 431:Drivers/lvgl/src/draw/../misc/lv_color.h **** 
 432:Drivers/lvgl/src/draw/../misc/lv_color.h **** /**
 433:Drivers/lvgl/src/draw/../misc/lv_color.h ****  * Mix two colors with a given ratio.
 434:Drivers/lvgl/src/draw/../misc/lv_color.h ****  * @param c1 the first color to mix (usually the foreground)
 435:Drivers/lvgl/src/draw/../misc/lv_color.h ****  * @param c2 the second color to mix (usually the background)
 436:Drivers/lvgl/src/draw/../misc/lv_color.h ****  * @param mix The ratio of the colors. 0: full `c2`, 255: full `c1`, 127: half `c1` and half`c2`
 437:Drivers/lvgl/src/draw/../misc/lv_color.h ****  * @return the mixed color
 438:Drivers/lvgl/src/draw/../misc/lv_color.h ****  */
 439:Drivers/lvgl/src/draw/../misc/lv_color.h **** static inline lv_color_t LV_ATTRIBUTE_FAST_MEM lv_color_mix(lv_color_t c1, lv_color_t c2, uint8_t m
 440:Drivers/lvgl/src/draw/../misc/lv_color.h **** {
 441:Drivers/lvgl/src/draw/../misc/lv_color.h ****     lv_color_t ret;
 442:Drivers/lvgl/src/draw/../misc/lv_color.h **** 
 443:Drivers/lvgl/src/draw/../misc/lv_color.h **** #if LV_COLOR_DEPTH == 16 && LV_COLOR_MIX_ROUND_OFS == 0
 444:Drivers/lvgl/src/draw/../misc/lv_color.h **** #if LV_COLOR_16_SWAP == 1
 445:Drivers/lvgl/src/draw/../misc/lv_color.h ****     c1.full = c1.full << 8 | c1.full >> 8;
 446:Drivers/lvgl/src/draw/../misc/lv_color.h ****     c2.full = c2.full << 8 | c2.full >> 8;
 447:Drivers/lvgl/src/draw/../misc/lv_color.h **** #endif
 448:Drivers/lvgl/src/draw/../misc/lv_color.h ****     /*Source: https://stackoverflow.com/a/50012418/1999969*/
 449:Drivers/lvgl/src/draw/../misc/lv_color.h ****     mix = (uint32_t)((uint32_t)mix + 4) >> 3;
 450:Drivers/lvgl/src/draw/../misc/lv_color.h ****     uint32_t bg = (uint32_t)((uint32_t)c2.full | ((uint32_t)c2.full << 16)) &
 451:Drivers/lvgl/src/draw/../misc/lv_color.h ****                   0x7E0F81F; /*0b00000111111000001111100000011111*/
 452:Drivers/lvgl/src/draw/../misc/lv_color.h ****     uint32_t fg = (uint32_t)((uint32_t)c1.full | ((uint32_t)c1.full << 16)) & 0x7E0F81F;
 453:Drivers/lvgl/src/draw/../misc/lv_color.h ****     uint32_t result = ((((fg - bg) * mix) >> 5) + bg) & 0x7E0F81F;
 454:Drivers/lvgl/src/draw/../misc/lv_color.h ****     ret.full = (uint16_t)((result >> 16) | result);
 455:Drivers/lvgl/src/draw/../misc/lv_color.h **** #if LV_COLOR_16_SWAP == 1
 456:Drivers/lvgl/src/draw/../misc/lv_color.h ****     ret.full = ret.full << 8 | ret.full >> 8;
 457:Drivers/lvgl/src/draw/../misc/lv_color.h **** #endif
 458:Drivers/lvgl/src/draw/../misc/lv_color.h **** #elif LV_COLOR_DEPTH != 1
 459:Drivers/lvgl/src/draw/../misc/lv_color.h ****     /*LV_COLOR_DEPTH == 8, 16 or 32*/
 460:Drivers/lvgl/src/draw/../misc/lv_color.h ****     LV_COLOR_SET_R(ret, LV_UDIV255((uint16_t)LV_COLOR_GET_R(c1) * mix + LV_COLOR_GET_R(c2) *
 461:Drivers/lvgl/src/draw/../misc/lv_color.h ****                                    (255 - mix) + LV_COLOR_MIX_ROUND_OFS));
 462:Drivers/lvgl/src/draw/../misc/lv_color.h ****     LV_COLOR_SET_G(ret, LV_UDIV255((uint16_t)LV_COLOR_GET_G(c1) * mix + LV_COLOR_GET_G(c2) *
 463:Drivers/lvgl/src/draw/../misc/lv_color.h ****                                    (255 - mix) + LV_COLOR_MIX_ROUND_OFS));
 464:Drivers/lvgl/src/draw/../misc/lv_color.h ****     LV_COLOR_SET_B(ret, LV_UDIV255((uint16_t)LV_COLOR_GET_B(c1) * mix + LV_COLOR_GET_B(c2) *
 465:Drivers/lvgl/src/draw/../misc/lv_color.h ****                                    (255 - mix) + LV_COLOR_MIX_ROUND_OFS));
 466:Drivers/lvgl/src/draw/../misc/lv_color.h ****     LV_COLOR_SET_A(ret, 0xFF);
 467:Drivers/lvgl/src/draw/../misc/lv_color.h **** #else
 468:Drivers/lvgl/src/draw/../misc/lv_color.h ****     /*LV_COLOR_DEPTH == 1*/
 469:Drivers/lvgl/src/draw/../misc/lv_color.h ****     ret.full = mix > LV_OPA_50 ? c1.full : c2.full;
 470:Drivers/lvgl/src/draw/../misc/lv_color.h **** #endif
 471:Drivers/lvgl/src/draw/../misc/lv_color.h **** 
 472:Drivers/lvgl/src/draw/../misc/lv_color.h ****     return ret;
 473:Drivers/lvgl/src/draw/../misc/lv_color.h **** }
 474:Drivers/lvgl/src/draw/../misc/lv_color.h **** 
 475:Drivers/lvgl/src/draw/../misc/lv_color.h **** static inline void LV_ATTRIBUTE_FAST_MEM lv_color_premult(lv_color_t c, uint8_t mix, uint16_t * out
ARM GAS  /var/folders/lp/x54gwt890xv47sdkqj1k04q40000gn/T//cc7xEjuw.s 			page 11


 476:Drivers/lvgl/src/draw/../misc/lv_color.h **** {
 477:Drivers/lvgl/src/draw/../misc/lv_color.h **** #if LV_COLOR_DEPTH != 1
 478:Drivers/lvgl/src/draw/../misc/lv_color.h ****     out[0] = (uint16_t)LV_COLOR_GET_R(c) * mix;
 479:Drivers/lvgl/src/draw/../misc/lv_color.h ****     out[1] = (uint16_t)LV_COLOR_GET_G(c) * mix;
 480:Drivers/lvgl/src/draw/../misc/lv_color.h ****     out[2] = (uint16_t)LV_COLOR_GET_B(c) * mix;
 481:Drivers/lvgl/src/draw/../misc/lv_color.h **** #else
 482:Drivers/lvgl/src/draw/../misc/lv_color.h ****     (void) mix;
 483:Drivers/lvgl/src/draw/../misc/lv_color.h ****     /*Pre-multiplication can't be used with 1 bpp*/
 484:Drivers/lvgl/src/draw/../misc/lv_color.h ****     out[0] = LV_COLOR_GET_R(c);
 485:Drivers/lvgl/src/draw/../misc/lv_color.h ****     out[1] = LV_COLOR_GET_G(c);
 486:Drivers/lvgl/src/draw/../misc/lv_color.h ****     out[2] = LV_COLOR_GET_B(c);
 487:Drivers/lvgl/src/draw/../misc/lv_color.h **** #endif
 488:Drivers/lvgl/src/draw/../misc/lv_color.h **** 
 489:Drivers/lvgl/src/draw/../misc/lv_color.h **** }
 490:Drivers/lvgl/src/draw/../misc/lv_color.h **** 
 491:Drivers/lvgl/src/draw/../misc/lv_color.h **** /**
 492:Drivers/lvgl/src/draw/../misc/lv_color.h ****  * Mix two colors with a given ratio. It runs faster then `lv_color_mix` but requires some pre comp
 493:Drivers/lvgl/src/draw/../misc/lv_color.h ****  * @param premult_c1 The first color. Should be preprocessed with `lv_color_premult(c1)`
 494:Drivers/lvgl/src/draw/../misc/lv_color.h ****  * @param c2 The second color. As it is no pre computation required on it
 495:Drivers/lvgl/src/draw/../misc/lv_color.h ****  * @param mix The ratio of the colors. 0: full `c1`, 255: full `c2`, 127: half `c1` and half `c2`.
 496:Drivers/lvgl/src/draw/../misc/lv_color.h ****  *            Should be modified like mix = `255 - mix`
 497:Drivers/lvgl/src/draw/../misc/lv_color.h ****  * @return the mixed color
 498:Drivers/lvgl/src/draw/../misc/lv_color.h ****  * @note 255 won't give clearly `c1`.
 499:Drivers/lvgl/src/draw/../misc/lv_color.h ****  */
 500:Drivers/lvgl/src/draw/../misc/lv_color.h **** static inline lv_color_t LV_ATTRIBUTE_FAST_MEM lv_color_mix_premult(uint16_t * premult_c1, lv_color
 501:Drivers/lvgl/src/draw/../misc/lv_color.h **** {
 502:Drivers/lvgl/src/draw/../misc/lv_color.h ****     lv_color_t ret;
 503:Drivers/lvgl/src/draw/../misc/lv_color.h **** #if LV_COLOR_DEPTH != 1
 504:Drivers/lvgl/src/draw/../misc/lv_color.h ****     /*LV_COLOR_DEPTH == 8 or 32*/
 505:Drivers/lvgl/src/draw/../misc/lv_color.h ****     LV_COLOR_SET_R(ret, LV_UDIV255(premult_c1[0] + LV_COLOR_GET_R(c2) * mix + LV_COLOR_MIX_ROUND_OF
 506:Drivers/lvgl/src/draw/../misc/lv_color.h ****     LV_COLOR_SET_G(ret, LV_UDIV255(premult_c1[1] + LV_COLOR_GET_G(c2) * mix + LV_COLOR_MIX_ROUND_OF
 507:Drivers/lvgl/src/draw/../misc/lv_color.h ****     LV_COLOR_SET_B(ret, LV_UDIV255(premult_c1[2] + LV_COLOR_GET_B(c2) * mix + LV_COLOR_MIX_ROUND_OF
 508:Drivers/lvgl/src/draw/../misc/lv_color.h ****     LV_COLOR_SET_A(ret, 0xFF);
 509:Drivers/lvgl/src/draw/../misc/lv_color.h **** #else
 510:Drivers/lvgl/src/draw/../misc/lv_color.h ****     /*LV_COLOR_DEPTH == 1*/
 511:Drivers/lvgl/src/draw/../misc/lv_color.h ****     /*Restore color1*/
 512:Drivers/lvgl/src/draw/../misc/lv_color.h ****     lv_color_t c1;
 513:Drivers/lvgl/src/draw/../misc/lv_color.h ****     LV_COLOR_SET_R(c1, premult_c1[0]);
 514:Drivers/lvgl/src/draw/../misc/lv_color.h ****     LV_COLOR_SET_G(c1, premult_c1[1]);
 515:Drivers/lvgl/src/draw/../misc/lv_color.h ****     LV_COLOR_SET_B(c1, premult_c1[2]);
 516:Drivers/lvgl/src/draw/../misc/lv_color.h ****     ret.full = mix > LV_OPA_50 ? c2.full : c1.full;
 517:Drivers/lvgl/src/draw/../misc/lv_color.h **** #endif
 518:Drivers/lvgl/src/draw/../misc/lv_color.h **** 
 519:Drivers/lvgl/src/draw/../misc/lv_color.h ****     return ret;
 520:Drivers/lvgl/src/draw/../misc/lv_color.h **** }
 521:Drivers/lvgl/src/draw/../misc/lv_color.h **** 
 522:Drivers/lvgl/src/draw/../misc/lv_color.h **** /**
 523:Drivers/lvgl/src/draw/../misc/lv_color.h ****  * Mix two colors. Both color can have alpha value.
 524:Drivers/lvgl/src/draw/../misc/lv_color.h ****  * @param bg_color background color
 525:Drivers/lvgl/src/draw/../misc/lv_color.h ****  * @param bg_opa alpha of the background color
 526:Drivers/lvgl/src/draw/../misc/lv_color.h ****  * @param fg_color foreground color
 527:Drivers/lvgl/src/draw/../misc/lv_color.h ****  * @param fg_opa alpha of the foreground color
 528:Drivers/lvgl/src/draw/../misc/lv_color.h ****  * @param res_color the result color
 529:Drivers/lvgl/src/draw/../misc/lv_color.h ****  * @param res_opa the result opacity
 530:Drivers/lvgl/src/draw/../misc/lv_color.h ****  */
 531:Drivers/lvgl/src/draw/../misc/lv_color.h **** static inline void LV_ATTRIBUTE_FAST_MEM lv_color_mix_with_alpha(lv_color_t bg_color, lv_opa_t bg_o
 532:Drivers/lvgl/src/draw/../misc/lv_color.h ****                                                                  lv_color_t fg_color, lv_opa_t fg_o
ARM GAS  /var/folders/lp/x54gwt890xv47sdkqj1k04q40000gn/T//cc7xEjuw.s 			page 12


 533:Drivers/lvgl/src/draw/../misc/lv_color.h ****                                                                  lv_color_t * res_color, lv_opa_t *
 534:Drivers/lvgl/src/draw/../misc/lv_color.h **** {
 535:Drivers/lvgl/src/draw/../misc/lv_color.h ****     /*Pick the foreground if it's fully opaque or the Background is fully transparent*/
 536:Drivers/lvgl/src/draw/../misc/lv_color.h ****     if(fg_opa >= LV_OPA_MAX || bg_opa <= LV_OPA_MIN) {
 537:Drivers/lvgl/src/draw/../misc/lv_color.h ****         res_color->full = fg_color.full;
 538:Drivers/lvgl/src/draw/../misc/lv_color.h ****         *res_opa = fg_opa;
 539:Drivers/lvgl/src/draw/../misc/lv_color.h ****     }
 540:Drivers/lvgl/src/draw/../misc/lv_color.h ****     /*Transparent foreground: use the Background*/
 541:Drivers/lvgl/src/draw/../misc/lv_color.h ****     else if(fg_opa <= LV_OPA_MIN) {
 542:Drivers/lvgl/src/draw/../misc/lv_color.h ****         res_color->full = bg_color.full;
 543:Drivers/lvgl/src/draw/../misc/lv_color.h ****         *res_opa = bg_opa;
 544:Drivers/lvgl/src/draw/../misc/lv_color.h ****     }
 545:Drivers/lvgl/src/draw/../misc/lv_color.h ****     /*Opaque background: use simple mix*/
 546:Drivers/lvgl/src/draw/../misc/lv_color.h ****     else if(bg_opa >= LV_OPA_MAX) {
 547:Drivers/lvgl/src/draw/../misc/lv_color.h ****         *res_color = lv_color_mix(fg_color, bg_color, fg_opa);
 548:Drivers/lvgl/src/draw/../misc/lv_color.h ****         *res_opa = LV_OPA_COVER;
 549:Drivers/lvgl/src/draw/../misc/lv_color.h ****     }
 550:Drivers/lvgl/src/draw/../misc/lv_color.h ****     /*Both colors have alpha. Expensive calculation need to be applied*/
 551:Drivers/lvgl/src/draw/../misc/lv_color.h ****     else {
 552:Drivers/lvgl/src/draw/../misc/lv_color.h ****         /*Save the parameters and the result. If they will be asked again don't compute again*/
 553:Drivers/lvgl/src/draw/../misc/lv_color.h ****         static lv_opa_t fg_opa_save     = 0;
 554:Drivers/lvgl/src/draw/../misc/lv_color.h ****         static lv_opa_t bg_opa_save     = 0;
 555:Drivers/lvgl/src/draw/../misc/lv_color.h ****         static lv_color_t fg_color_save = _LV_COLOR_ZERO_INITIALIZER;
 556:Drivers/lvgl/src/draw/../misc/lv_color.h ****         static lv_color_t bg_color_save = _LV_COLOR_ZERO_INITIALIZER;
 557:Drivers/lvgl/src/draw/../misc/lv_color.h ****         static lv_color_t res_color_saved = _LV_COLOR_ZERO_INITIALIZER;
 558:Drivers/lvgl/src/draw/../misc/lv_color.h ****         static lv_opa_t res_opa_saved = 0;
 559:Drivers/lvgl/src/draw/../misc/lv_color.h **** 
 560:Drivers/lvgl/src/draw/../misc/lv_color.h ****         if(fg_opa != fg_opa_save || bg_opa != bg_opa_save || fg_color.full != fg_color_save.full ||
 561:Drivers/lvgl/src/draw/../misc/lv_color.h ****            bg_color.full != bg_color_save.full) {
 562:Drivers/lvgl/src/draw/../misc/lv_color.h ****             fg_opa_save        = fg_opa;
 563:Drivers/lvgl/src/draw/../misc/lv_color.h ****             bg_opa_save        = bg_opa;
 564:Drivers/lvgl/src/draw/../misc/lv_color.h ****             fg_color_save.full = fg_color.full;
 565:Drivers/lvgl/src/draw/../misc/lv_color.h ****             bg_color_save.full = bg_color.full;
 566:Drivers/lvgl/src/draw/../misc/lv_color.h ****             /*Info:
 567:Drivers/lvgl/src/draw/../misc/lv_color.h ****              * https://en.wikipedia.org/wiki/Alpha_compositing#Analytical_derivation_of_the_over_op
 568:Drivers/lvgl/src/draw/../misc/lv_color.h ****             res_opa_saved = 255 - ((uint16_t)((uint16_t)(255 - fg_opa) * (255 - bg_opa)) >> 8);
 569:Drivers/lvgl/src/draw/../misc/lv_color.h ****             LV_ASSERT(res_opa_saved != 0);
 570:Drivers/lvgl/src/draw/../misc/lv_color.h ****             lv_opa_t ratio = (uint16_t)((uint16_t)fg_opa * 255) / res_opa_saved;
 571:Drivers/lvgl/src/draw/../misc/lv_color.h ****             res_color_saved = lv_color_mix(fg_color, bg_color, ratio);
 572:Drivers/lvgl/src/draw/../misc/lv_color.h **** 
 573:Drivers/lvgl/src/draw/../misc/lv_color.h ****         }
 574:Drivers/lvgl/src/draw/../misc/lv_color.h **** 
 575:Drivers/lvgl/src/draw/../misc/lv_color.h ****         res_color->full = res_color_saved.full;
 576:Drivers/lvgl/src/draw/../misc/lv_color.h ****         *res_opa = res_opa_saved;
 577:Drivers/lvgl/src/draw/../misc/lv_color.h ****     }
 578:Drivers/lvgl/src/draw/../misc/lv_color.h **** }
 579:Drivers/lvgl/src/draw/../misc/lv_color.h **** 
 580:Drivers/lvgl/src/draw/../misc/lv_color.h **** //! @endcond
 581:Drivers/lvgl/src/draw/../misc/lv_color.h **** 
 582:Drivers/lvgl/src/draw/../misc/lv_color.h **** /**
 583:Drivers/lvgl/src/draw/../misc/lv_color.h ****  * Get the brightness of a color
 584:Drivers/lvgl/src/draw/../misc/lv_color.h ****  * @param color a color
 585:Drivers/lvgl/src/draw/../misc/lv_color.h ****  * @return the brightness [0..255]
 586:Drivers/lvgl/src/draw/../misc/lv_color.h ****  */
 587:Drivers/lvgl/src/draw/../misc/lv_color.h **** static inline uint8_t lv_color_brightness(lv_color_t color)
 588:Drivers/lvgl/src/draw/../misc/lv_color.h **** {
 589:Drivers/lvgl/src/draw/../misc/lv_color.h ****     lv_color32_t c32;
ARM GAS  /var/folders/lp/x54gwt890xv47sdkqj1k04q40000gn/T//cc7xEjuw.s 			page 13


 590:Drivers/lvgl/src/draw/../misc/lv_color.h ****     c32.full        = lv_color_to32(color);
 591:Drivers/lvgl/src/draw/../misc/lv_color.h ****     uint16_t bright = (uint16_t)(3u * LV_COLOR_GET_R32(c32) + LV_COLOR_GET_B32(c32) + 4u * LV_COLOR
 592:Drivers/lvgl/src/draw/../misc/lv_color.h ****     return (uint8_t)(bright >> 3);
 593:Drivers/lvgl/src/draw/../misc/lv_color.h **** }
 594:Drivers/lvgl/src/draw/../misc/lv_color.h **** 
 595:Drivers/lvgl/src/draw/../misc/lv_color.h **** static inline lv_color_t lv_color_make(uint8_t r, uint8_t g, uint8_t b)
 596:Drivers/lvgl/src/draw/../misc/lv_color.h **** {
 597:Drivers/lvgl/src/draw/../misc/lv_color.h ****     return _LV_COLOR_MAKE_TYPE_HELPER LV_COLOR_MAKE(r, g, b);
 598:Drivers/lvgl/src/draw/../misc/lv_color.h **** }
 599:Drivers/lvgl/src/draw/../misc/lv_color.h **** 
 600:Drivers/lvgl/src/draw/../misc/lv_color.h **** static inline lv_color_t lv_color_hex(uint32_t c)
 601:Drivers/lvgl/src/draw/../misc/lv_color.h **** {
 602:Drivers/lvgl/src/draw/../misc/lv_color.h **** #if LV_COLOR_DEPTH == 16
 603:Drivers/lvgl/src/draw/../misc/lv_color.h ****     lv_color_t r;
 604:Drivers/lvgl/src/draw/../misc/lv_color.h **** #if LV_COLOR_16_SWAP == 0
 605:Drivers/lvgl/src/draw/../misc/lv_color.h ****     /* Convert a 4 bytes per pixel in format ARGB32 to R5G6B5 format
 606:Drivers/lvgl/src/draw/../misc/lv_color.h ****         naive way (by calling lv_color_make with components):
 607:Drivers/lvgl/src/draw/../misc/lv_color.h ****                     r = ((c & 0xFF0000) >> 19)
 608:Drivers/lvgl/src/draw/../misc/lv_color.h ****                     g = ((c & 0xFF00) >> 10)
 609:Drivers/lvgl/src/draw/../misc/lv_color.h ****                     b = ((c & 0xFF) >> 3)
 610:Drivers/lvgl/src/draw/../misc/lv_color.h ****                     rgb565 = (r << 11) | (g << 5) | b
 611:Drivers/lvgl/src/draw/../misc/lv_color.h ****         That's 3 mask, 5 bitshift and 2 or operations
 612:Drivers/lvgl/src/draw/../misc/lv_color.h **** 
 613:Drivers/lvgl/src/draw/../misc/lv_color.h ****         A bit better:
 614:Drivers/lvgl/src/draw/../misc/lv_color.h ****                     r = ((c & 0xF80000) >> 8)
 615:Drivers/lvgl/src/draw/../misc/lv_color.h ****                     g = ((c & 0xFC00) >> 5)
 616:Drivers/lvgl/src/draw/../misc/lv_color.h ****                     b = ((c & 0xFF) >> 3)
 617:Drivers/lvgl/src/draw/../misc/lv_color.h ****                     rgb565 = r | g | b
 618:Drivers/lvgl/src/draw/../misc/lv_color.h ****         That's 3 mask, 3 bitshifts and 2 or operations */
 619:Drivers/lvgl/src/draw/../misc/lv_color.h ****     r.full = (uint16_t)(((c & 0xF80000) >> 8) | ((c & 0xFC00) >> 5) | ((c & 0xFF) >> 3));
 620:Drivers/lvgl/src/draw/../misc/lv_color.h **** #else
 621:Drivers/lvgl/src/draw/../misc/lv_color.h ****     /* We want: rrrr rrrr GGGg gggg bbbb bbbb => gggb bbbb rrrr rGGG */
 622:Drivers/lvgl/src/draw/../misc/lv_color.h ****     r.full = (uint16_t)(((c & 0xF80000) >> 16) | ((c & 0xFC00) >> 13) | ((c & 0x1C00) << 3) | ((c &
 623:Drivers/lvgl/src/draw/../misc/lv_color.h **** #endif
 624:Drivers/lvgl/src/draw/../misc/lv_color.h ****     return r;
 625:Drivers/lvgl/src/draw/../misc/lv_color.h **** #elif LV_COLOR_DEPTH == 32
 626:Drivers/lvgl/src/draw/../misc/lv_color.h ****     lv_color_t r;
 627:Drivers/lvgl/src/draw/../misc/lv_color.h ****     r.full = c | 0xFF000000;
 628:Drivers/lvgl/src/draw/../misc/lv_color.h ****     return r;
 629:Drivers/lvgl/src/draw/../misc/lv_color.h **** #else /*LV_COLOR_DEPTH == 8*/
 630:Drivers/lvgl/src/draw/../misc/lv_color.h ****     return lv_color_make((uint8_t)((c >> 16) & 0xFF), (uint8_t)((c >> 8) & 0xFF), (uint8_t)(c & 0xF
 631:Drivers/lvgl/src/draw/../misc/lv_color.h **** #endif
 632:Drivers/lvgl/src/draw/../misc/lv_color.h **** }
 633:Drivers/lvgl/src/draw/../misc/lv_color.h **** 
 634:Drivers/lvgl/src/draw/../misc/lv_color.h **** static inline lv_color_t lv_color_hex3(uint32_t c)
 635:Drivers/lvgl/src/draw/../misc/lv_color.h **** {
 636:Drivers/lvgl/src/draw/../misc/lv_color.h ****     return lv_color_make((uint8_t)(((c >> 4) & 0xF0) | ((c >> 8) & 0xF)), (uint8_t)((c & 0xF0) | ((
 637:Drivers/lvgl/src/draw/../misc/lv_color.h ****                          (uint8_t)((c & 0xF) | ((c & 0xF) << 4)));
 638:Drivers/lvgl/src/draw/../misc/lv_color.h **** }
 639:Drivers/lvgl/src/draw/../misc/lv_color.h **** 
 640:Drivers/lvgl/src/draw/../misc/lv_color.h **** static inline void lv_color_filter_dsc_init(lv_color_filter_dsc_t * dsc, lv_color_filter_cb_t cb)
 641:Drivers/lvgl/src/draw/../misc/lv_color.h **** {
 642:Drivers/lvgl/src/draw/../misc/lv_color.h ****     dsc->filter_cb = cb;
 643:Drivers/lvgl/src/draw/../misc/lv_color.h **** }
 644:Drivers/lvgl/src/draw/../misc/lv_color.h **** 
 645:Drivers/lvgl/src/draw/../misc/lv_color.h **** //! @cond Doxygen_Suppress
 646:Drivers/lvgl/src/draw/../misc/lv_color.h **** //!
ARM GAS  /var/folders/lp/x54gwt890xv47sdkqj1k04q40000gn/T//cc7xEjuw.s 			page 14


 647:Drivers/lvgl/src/draw/../misc/lv_color.h **** void /* LV_ATTRIBUTE_FAST_MEM */ lv_color_fill(lv_color_t * buf, lv_color_t color, uint32_t px_num)
 648:Drivers/lvgl/src/draw/../misc/lv_color.h **** 
 649:Drivers/lvgl/src/draw/../misc/lv_color.h **** //! @endcond
 650:Drivers/lvgl/src/draw/../misc/lv_color.h **** lv_color_t lv_color_lighten(lv_color_t c, lv_opa_t lvl);
 651:Drivers/lvgl/src/draw/../misc/lv_color.h **** 
 652:Drivers/lvgl/src/draw/../misc/lv_color.h **** lv_color_t lv_color_darken(lv_color_t c, lv_opa_t lvl);
 653:Drivers/lvgl/src/draw/../misc/lv_color.h **** 
 654:Drivers/lvgl/src/draw/../misc/lv_color.h **** lv_color_t lv_color_change_lightness(lv_color_t c, lv_opa_t lvl);
 655:Drivers/lvgl/src/draw/../misc/lv_color.h **** 
 656:Drivers/lvgl/src/draw/../misc/lv_color.h **** /**
 657:Drivers/lvgl/src/draw/../misc/lv_color.h ****  * Convert a HSV color to RGB
 658:Drivers/lvgl/src/draw/../misc/lv_color.h ****  * @param h hue [0..359]
 659:Drivers/lvgl/src/draw/../misc/lv_color.h ****  * @param s saturation [0..100]
 660:Drivers/lvgl/src/draw/../misc/lv_color.h ****  * @param v value [0..100]
 661:Drivers/lvgl/src/draw/../misc/lv_color.h ****  * @return the given RGB color in RGB (with LV_COLOR_DEPTH depth)
 662:Drivers/lvgl/src/draw/../misc/lv_color.h ****  */
 663:Drivers/lvgl/src/draw/../misc/lv_color.h **** lv_color_t lv_color_hsv_to_rgb(uint16_t h, uint8_t s, uint8_t v);
 664:Drivers/lvgl/src/draw/../misc/lv_color.h **** 
 665:Drivers/lvgl/src/draw/../misc/lv_color.h **** /**
 666:Drivers/lvgl/src/draw/../misc/lv_color.h ****  * Convert a 32-bit RGB color to HSV
 667:Drivers/lvgl/src/draw/../misc/lv_color.h ****  * @param r8 8-bit red
 668:Drivers/lvgl/src/draw/../misc/lv_color.h ****  * @param g8 8-bit green
 669:Drivers/lvgl/src/draw/../misc/lv_color.h ****  * @param b8 8-bit blue
 670:Drivers/lvgl/src/draw/../misc/lv_color.h ****  * @return the given RGB color in HSV
 671:Drivers/lvgl/src/draw/../misc/lv_color.h ****  */
 672:Drivers/lvgl/src/draw/../misc/lv_color.h **** lv_color_hsv_t lv_color_rgb_to_hsv(uint8_t r8, uint8_t g8, uint8_t b8);
 673:Drivers/lvgl/src/draw/../misc/lv_color.h **** 
 674:Drivers/lvgl/src/draw/../misc/lv_color.h **** /**
 675:Drivers/lvgl/src/draw/../misc/lv_color.h ****  * Convert a color to HSV
 676:Drivers/lvgl/src/draw/../misc/lv_color.h ****  * @param color color
 677:Drivers/lvgl/src/draw/../misc/lv_color.h ****  * @return the given color in HSV
 678:Drivers/lvgl/src/draw/../misc/lv_color.h ****  */
 679:Drivers/lvgl/src/draw/../misc/lv_color.h **** lv_color_hsv_t lv_color_to_hsv(lv_color_t color);
 680:Drivers/lvgl/src/draw/../misc/lv_color.h **** 
 681:Drivers/lvgl/src/draw/../misc/lv_color.h **** /**
 682:Drivers/lvgl/src/draw/../misc/lv_color.h ****  * Just a wrapper around LV_COLOR_CHROMA_KEY because it might be more convenient to use a function 
 683:Drivers/lvgl/src/draw/../misc/lv_color.h ****  * @return LV_COLOR_CHROMA_KEY
 684:Drivers/lvgl/src/draw/../misc/lv_color.h ****  */
 685:Drivers/lvgl/src/draw/../misc/lv_color.h **** static inline lv_color_t lv_color_chroma_key(void)
 686:Drivers/lvgl/src/draw/../misc/lv_color.h **** {
 687:Drivers/lvgl/src/draw/../misc/lv_color.h ****     return LV_COLOR_CHROMA_KEY;
 688:Drivers/lvgl/src/draw/../misc/lv_color.h **** }
 689:Drivers/lvgl/src/draw/../misc/lv_color.h **** 
 690:Drivers/lvgl/src/draw/../misc/lv_color.h **** /**********************
 691:Drivers/lvgl/src/draw/../misc/lv_color.h ****  *  PREDEFINED COLORS
 692:Drivers/lvgl/src/draw/../misc/lv_color.h ****  **********************/
 693:Drivers/lvgl/src/draw/../misc/lv_color.h **** /*Source: https://vuetifyjs.com/en/styles/colors/#material-colors*/
 694:Drivers/lvgl/src/draw/../misc/lv_color.h **** 
 695:Drivers/lvgl/src/draw/../misc/lv_color.h **** lv_color_t lv_palette_main(lv_palette_t p);
 696:Drivers/lvgl/src/draw/../misc/lv_color.h **** static inline lv_color_t lv_color_white(void)
 697:Drivers/lvgl/src/draw/../misc/lv_color.h **** {
 698:Drivers/lvgl/src/draw/../misc/lv_color.h ****     return lv_color_make(0xff, 0xff, 0xff);
 699:Drivers/lvgl/src/draw/../misc/lv_color.h **** }
 700:Drivers/lvgl/src/draw/../misc/lv_color.h **** static inline lv_color_t lv_color_black(void)
  56              		.loc 2 700 26 view .LVU8
 701:Drivers/lvgl/src/draw/../misc/lv_color.h **** {
 702:Drivers/lvgl/src/draw/../misc/lv_color.h ****     return lv_color_make(0x00, 0x0, 0x00);
ARM GAS  /var/folders/lp/x54gwt890xv47sdkqj1k04q40000gn/T//cc7xEjuw.s 			page 15


  57              		.loc 2 702 5 view .LVU9
  58              	.LVL2:
  59              	.LBB9:
  60              	.LBI9:
 595:Drivers/lvgl/src/draw/../misc/lv_color.h **** {
  61              		.loc 2 595 26 view .LVU10
  62              	.LBB10:
 597:Drivers/lvgl/src/draw/../misc/lv_color.h **** }
  63              		.loc 2 597 5 view .LVU11
 597:Drivers/lvgl/src/draw/../misc/lv_color.h **** }
  64              		.loc 2 597 12 is_stmt 0 view .LVU12
  65 0012 4FF00003 		mov	r3, #0	@ movhi
  66 0016 23F00703 		bic	r3, r3, #7
  67 001a 23F0F803 		bic	r3, r3, #248
  68 001e 23F4F853 		bic	r3, r3, #7936
  69 0022 23F46043 		bic	r3, r3, #57344
  70              	.LVL3:
 597:Drivers/lvgl/src/draw/../misc/lv_color.h **** }
  71              		.loc 2 597 12 view .LVU13
  72              	.LBE10:
  73              	.LBE9:
  74              	.LBE8:
  75              		.loc 1 41 18 view .LVU14
  76 0026 2380     		strh	r3, [r4]	@ movhi
  42:Drivers/lvgl/src/draw/lv_draw_arc.c **** }
  77              		.loc 1 42 1 view .LVU15
  78 0028 10BD     		pop	{r4, pc}
  79              		.loc 1 42 1 view .LVU16
  80              		.cfi_endproc
  81              	.LFE55:
  83              		.section	.text.lv_draw_arc,"ax",%progbits
  84              		.align	1
  85              		.global	lv_draw_arc
  86              		.syntax unified
  87              		.thumb
  88              		.thumb_func
  90              	lv_draw_arc:
  91              	.LVL4:
  92              	.LFB56:
  43:Drivers/lvgl/src/draw/lv_draw_arc.c **** 
  44:Drivers/lvgl/src/draw/lv_draw_arc.c **** void lv_draw_arc(lv_draw_ctx_t * draw_ctx, const lv_draw_arc_dsc_t * dsc, const lv_point_t * center
  45:Drivers/lvgl/src/draw/lv_draw_arc.c ****                  uint16_t start_angle, uint16_t end_angle)
  46:Drivers/lvgl/src/draw/lv_draw_arc.c **** {
  93              		.loc 1 46 1 is_stmt 1 view -0
  94              		.cfi_startproc
  95              		@ args = 8, pretend = 0, frame = 0
  96              		@ frame_needed = 0, uses_anonymous_args = 0
  97              		.loc 1 46 1 is_stmt 0 view .LVU18
  98 0000 70B5     		push	{r4, r5, r6, lr}
  99              		.cfi_def_cfa_offset 16
 100              		.cfi_offset 4, -16
 101              		.cfi_offset 5, -12
 102              		.cfi_offset 6, -8
 103              		.cfi_offset 14, -4
 104 0002 82B0     		sub	sp, sp, #8
 105              		.cfi_def_cfa_offset 24
 106 0004 BDF81840 		ldrh	r4, [sp, #24]
ARM GAS  /var/folders/lp/x54gwt890xv47sdkqj1k04q40000gn/T//cc7xEjuw.s 			page 16


 107 0008 BDF81C50 		ldrh	r5, [sp, #28]
  47:Drivers/lvgl/src/draw/lv_draw_arc.c ****     if(dsc->opa <= LV_OPA_MIN) return;
 108              		.loc 1 47 5 is_stmt 1 view .LVU19
 109              		.loc 1 47 11 is_stmt 0 view .LVU20
 110 000c 91F80CC0 		ldrb	ip, [r1, #12]	@ zero_extendqisi2
 111              		.loc 1 47 7 view .LVU21
 112 0010 BCF1020F 		cmp	ip, #2
 113 0014 08D9     		bls	.L3
  48:Drivers/lvgl/src/draw/lv_draw_arc.c ****     if(dsc->width == 0) return;
 114              		.loc 1 48 5 is_stmt 1 view .LVU22
 115              		.loc 1 48 11 is_stmt 0 view .LVU23
 116 0016 B1F90260 		ldrsh	r6, [r1, #2]
 117              		.loc 1 48 7 view .LVU24
 118 001a 2EB1     		cbz	r6, .L3
  49:Drivers/lvgl/src/draw/lv_draw_arc.c ****     if(start_angle == end_angle) return;
 119              		.loc 1 49 5 is_stmt 1 view .LVU25
 120              		.loc 1 49 7 is_stmt 0 view .LVU26
 121 001c AC42     		cmp	r4, r5
 122 001e 03D0     		beq	.L3
  50:Drivers/lvgl/src/draw/lv_draw_arc.c **** 
  51:Drivers/lvgl/src/draw/lv_draw_arc.c ****     draw_ctx->draw_arc(draw_ctx, dsc, center, radius, start_angle, end_angle);
 123              		.loc 1 51 5 is_stmt 1 view .LVU27
 124              		.loc 1 51 13 is_stmt 0 view .LVU28
 125 0020 4669     		ldr	r6, [r0, #20]
 126              		.loc 1 51 5 view .LVU29
 127 0022 0195     		str	r5, [sp, #4]
 128 0024 0094     		str	r4, [sp]
 129 0026 B047     		blx	r6
 130              	.LVL5:
 131              	.L3:
  52:Drivers/lvgl/src/draw/lv_draw_arc.c **** 
  53:Drivers/lvgl/src/draw/lv_draw_arc.c ****     //    const lv_draw_backend_t * backend = lv_draw_backend_get();
  54:Drivers/lvgl/src/draw/lv_draw_arc.c ****     //    backend->draw_arc(center_x, center_y, radius, start_angle, end_angle, clip_area, dsc);
  55:Drivers/lvgl/src/draw/lv_draw_arc.c **** }
 132              		.loc 1 55 1 view .LVU30
 133 0028 02B0     		add	sp, sp, #8
 134              		.cfi_def_cfa_offset 16
 135              		@ sp needed
 136 002a 70BD     		pop	{r4, r5, r6, pc}
 137              		.loc 1 55 1 view .LVU31
 138              		.cfi_endproc
 139              	.LFE56:
 141              		.section	.text.lv_draw_arc_get_area,"ax",%progbits
 142              		.align	1
 143              		.global	lv_draw_arc_get_area
 144              		.syntax unified
 145              		.thumb
 146              		.thumb_func
 148              	lv_draw_arc_get_area:
 149              	.LVL6:
 150              	.LFB57:
  56:Drivers/lvgl/src/draw/lv_draw_arc.c **** 
  57:Drivers/lvgl/src/draw/lv_draw_arc.c **** void lv_draw_arc_get_area(lv_coord_t x, lv_coord_t y, uint16_t radius,  uint16_t start_angle, uint1
  58:Drivers/lvgl/src/draw/lv_draw_arc.c ****                           lv_coord_t w, bool rounded, lv_area_t * area)
  59:Drivers/lvgl/src/draw/lv_draw_arc.c **** {
 151              		.loc 1 59 1 is_stmt 1 view -0
 152              		.cfi_startproc
ARM GAS  /var/folders/lp/x54gwt890xv47sdkqj1k04q40000gn/T//cc7xEjuw.s 			page 17


 153              		@ args = 16, pretend = 0, frame = 16
 154              		@ frame_needed = 0, uses_anonymous_args = 0
 155              		.loc 1 59 1 is_stmt 0 view .LVU33
 156 0000 2DE9F04F 		push	{r4, r5, r6, r7, r8, r9, r10, fp, lr}
 157              		.cfi_def_cfa_offset 36
 158              		.cfi_offset 4, -36
 159              		.cfi_offset 5, -32
 160              		.cfi_offset 6, -28
 161              		.cfi_offset 7, -24
 162              		.cfi_offset 8, -20
 163              		.cfi_offset 9, -16
 164              		.cfi_offset 10, -12
 165              		.cfi_offset 11, -8
 166              		.cfi_offset 14, -4
 167 0004 85B0     		sub	sp, sp, #20
 168              		.cfi_def_cfa_offset 56
 169 0006 8346     		mov	fp, r0
 170 0008 0091     		str	r1, [sp]
 171 000a 1546     		mov	r5, r2
 172 000c 1C46     		mov	r4, r3
 173 000e BDF838A0 		ldrh	r10, [sp, #56]
 174 0012 BDF93C60 		ldrsh	r6, [sp, #60]
 175 0016 9DF84020 		ldrb	r2, [sp, #64]	@ zero_extendqisi2
 176              	.LVL7:
 177              		.loc 1 59 1 view .LVU34
 178 001a 119F     		ldr	r7, [sp, #68]
  60:Drivers/lvgl/src/draw/lv_draw_arc.c ****     lv_coord_t rout = radius;
 179              		.loc 1 60 5 is_stmt 1 view .LVU35
 180              	.LVL8:
  61:Drivers/lvgl/src/draw/lv_draw_arc.c **** 
  62:Drivers/lvgl/src/draw/lv_draw_arc.c ****     /*Special case: full arc invalidation */
  63:Drivers/lvgl/src/draw/lv_draw_arc.c ****     if(end_angle == start_angle + 360) {
 181              		.loc 1 63 5 view .LVU36
 182              		.loc 1 63 33 is_stmt 0 view .LVU37
 183 001c 03F5B473 		add	r3, r3, #360
 184              	.LVL9:
 185              		.loc 1 63 7 view .LVU38
 186 0020 9A45     		cmp	r10, r3
 187 0022 47D0     		beq	.L37
 188 0024 0FFA85F9 		sxth	r9, r5
  64:Drivers/lvgl/src/draw/lv_draw_arc.c ****         area->x1 = x - rout;
  65:Drivers/lvgl/src/draw/lv_draw_arc.c ****         area->y1 = y - rout;
  66:Drivers/lvgl/src/draw/lv_draw_arc.c ****         area->x2 = x + rout;
  67:Drivers/lvgl/src/draw/lv_draw_arc.c ****         area->y2 = y + rout;
  68:Drivers/lvgl/src/draw/lv_draw_arc.c ****         return;
  69:Drivers/lvgl/src/draw/lv_draw_arc.c ****     }
  70:Drivers/lvgl/src/draw/lv_draw_arc.c **** 
  71:Drivers/lvgl/src/draw/lv_draw_arc.c ****     if(start_angle > 360) start_angle -= 360;
 189              		.loc 1 71 5 is_stmt 1 view .LVU39
 190              		.loc 1 71 7 is_stmt 0 view .LVU40
 191 0028 B4F5B47F 		cmp	r4, #360
 192 002c 02D9     		bls	.L9
 193              		.loc 1 71 27 is_stmt 1 discriminator 1 view .LVU41
 194              		.loc 1 71 39 is_stmt 0 discriminator 1 view .LVU42
 195 002e A4F5B474 		sub	r4, r4, #360
 196              	.LVL10:
 197              		.loc 1 71 39 discriminator 1 view .LVU43
ARM GAS  /var/folders/lp/x54gwt890xv47sdkqj1k04q40000gn/T//cc7xEjuw.s 			page 18


 198 0032 A4B2     		uxth	r4, r4
 199              	.LVL11:
 200              	.L9:
  72:Drivers/lvgl/src/draw/lv_draw_arc.c ****     if(end_angle > 360) end_angle -= 360;
 201              		.loc 1 72 5 is_stmt 1 view .LVU44
 202              		.loc 1 72 7 is_stmt 0 view .LVU45
 203 0034 BAF5B47F 		cmp	r10, #360
 204 0038 03D9     		bls	.L10
 205              		.loc 1 72 25 is_stmt 1 discriminator 1 view .LVU46
 206              		.loc 1 72 35 is_stmt 0 discriminator 1 view .LVU47
 207 003a AAF5B47A 		sub	r10, r10, #360
 208 003e 1FFA8AFA 		uxth	r10, r10
 209              	.LVL12:
 210              	.L10:
  73:Drivers/lvgl/src/draw/lv_draw_arc.c **** 
  74:Drivers/lvgl/src/draw/lv_draw_arc.c ****     lv_coord_t rin = radius - w;
 211              		.loc 1 74 5 is_stmt 1 view .LVU48
 212              		.loc 1 74 29 is_stmt 0 view .LVU49
 213 0042 A5EB0608 		sub	r8, r5, r6
 214              		.loc 1 74 16 view .LVU50
 215 0046 0FFA88F8 		sxth	r8, r8
 216              	.LVL13:
  75:Drivers/lvgl/src/draw/lv_draw_arc.c ****     lv_coord_t extra_area = rounded ? w / 2 + 1 : 0;
 217              		.loc 1 75 5 is_stmt 1 view .LVU51
 218              		.loc 1 75 16 is_stmt 0 view .LVU52
 219 004a 002A     		cmp	r2, #0
 220 004c 3ED0     		beq	.L32
 221              		.loc 1 75 45 discriminator 1 view .LVU53
 222 004e 06EBD676 		add	r6, r6, r6, lsr #31
 223 0052 7610     		asrs	r6, r6, #1
 224 0054 0136     		adds	r6, r6, #1
 225              		.loc 1 75 16 discriminator 1 view .LVU54
 226 0056 36B2     		sxth	r6, r6
 227              	.L11:
 228              	.LVL14:
  76:Drivers/lvgl/src/draw/lv_draw_arc.c ****     uint8_t start_quarter = start_angle / 90;
 229              		.loc 1 76 5 is_stmt 1 view .LVU55
 230              		.loc 1 76 13 is_stmt 0 view .LVU56
 231 0058 6308     		lsrs	r3, r4, #1
 232 005a A949     		ldr	r1, .L45
 233              	.LVL15:
 234              		.loc 1 76 13 view .LVU57
 235 005c A1FB0323 		umull	r2, r3, r1, r3
 236 0060 C3F34713 		ubfx	r3, r3, #5, #8
 237              	.LVL16:
  77:Drivers/lvgl/src/draw/lv_draw_arc.c ****     uint8_t end_quarter = end_angle / 90;
 238              		.loc 1 77 5 is_stmt 1 view .LVU58
 239              		.loc 1 77 13 is_stmt 0 view .LVU59
 240 0064 4FEA5A02 		lsr	r2, r10, #1
 241 0068 A1FB0212 		umull	r1, r2, r1, r2
 242 006c C2F34712 		ubfx	r2, r2, #5, #8
 243              	.LVL17:
  78:Drivers/lvgl/src/draw/lv_draw_arc.c **** 
  79:Drivers/lvgl/src/draw/lv_draw_arc.c ****     /*360 deg still counts as quarter 3 (360 / 90 would be 4)*/
  80:Drivers/lvgl/src/draw/lv_draw_arc.c ****     if(start_quarter == 4) start_quarter = 3;
 244              		.loc 1 80 5 is_stmt 1 view .LVU60
 245              		.loc 1 80 7 is_stmt 0 view .LVU61
ARM GAS  /var/folders/lp/x54gwt890xv47sdkqj1k04q40000gn/T//cc7xEjuw.s 			page 19


 246 0070 042B     		cmp	r3, #4
 247 0072 2DD0     		beq	.L38
 248              	.LVL18:
 249              	.L12:
  81:Drivers/lvgl/src/draw/lv_draw_arc.c ****     if(end_quarter == 4) end_quarter = 3;
 250              		.loc 1 81 5 is_stmt 1 view .LVU62
 251              		.loc 1 81 7 is_stmt 0 view .LVU63
 252 0074 042A     		cmp	r2, #4
 253 0076 2DD0     		beq	.L39
 254              	.LVL19:
 255              	.L13:
  82:Drivers/lvgl/src/draw/lv_draw_arc.c **** 
  83:Drivers/lvgl/src/draw/lv_draw_arc.c ****     if(start_quarter == end_quarter && start_angle <= end_angle) {
 256              		.loc 1 83 5 is_stmt 1 view .LVU64
 257              		.loc 1 83 7 is_stmt 0 view .LVU65
 258 0078 9342     		cmp	r3, r2
 259 007a 2DD0     		beq	.L40
 260              	.L14:
  84:Drivers/lvgl/src/draw/lv_draw_arc.c ****         if(start_quarter == 0) {
  85:Drivers/lvgl/src/draw/lv_draw_arc.c ****             area->y1 = y + ((lv_trigo_sin(start_angle) * rin) >> LV_TRIGO_SHIFT) - extra_area;
  86:Drivers/lvgl/src/draw/lv_draw_arc.c ****             area->x2 = x + ((lv_trigo_sin(start_angle + 90) * rout) >> LV_TRIGO_SHIFT) + extra_area
  87:Drivers/lvgl/src/draw/lv_draw_arc.c **** 
  88:Drivers/lvgl/src/draw/lv_draw_arc.c ****             area->y2 = y + ((lv_trigo_sin(end_angle) * rout) >> LV_TRIGO_SHIFT) + extra_area;
  89:Drivers/lvgl/src/draw/lv_draw_arc.c ****             area->x1 = x + ((lv_trigo_sin(end_angle + 90) * rin) >> LV_TRIGO_SHIFT) - extra_area;
  90:Drivers/lvgl/src/draw/lv_draw_arc.c ****         }
  91:Drivers/lvgl/src/draw/lv_draw_arc.c ****         else if(start_quarter == 1) {
  92:Drivers/lvgl/src/draw/lv_draw_arc.c ****             area->y2 = y + ((lv_trigo_sin(start_angle) * rout) >> LV_TRIGO_SHIFT) + extra_area;
  93:Drivers/lvgl/src/draw/lv_draw_arc.c ****             area->x2 = x + ((lv_trigo_sin(start_angle + 90) * rin) >> LV_TRIGO_SHIFT) + extra_area;
  94:Drivers/lvgl/src/draw/lv_draw_arc.c **** 
  95:Drivers/lvgl/src/draw/lv_draw_arc.c ****             area->y1 = y + ((lv_trigo_sin(end_angle) * rin) >> LV_TRIGO_SHIFT) - extra_area;
  96:Drivers/lvgl/src/draw/lv_draw_arc.c ****             area->x1 = x + ((lv_trigo_sin(end_angle + 90) * rout) >> LV_TRIGO_SHIFT) - extra_area;
  97:Drivers/lvgl/src/draw/lv_draw_arc.c ****         }
  98:Drivers/lvgl/src/draw/lv_draw_arc.c ****         else if(start_quarter == 2) {
  99:Drivers/lvgl/src/draw/lv_draw_arc.c ****             area->x1 = x + ((lv_trigo_sin(start_angle + 90) * rout) >> LV_TRIGO_SHIFT) - extra_area
 100:Drivers/lvgl/src/draw/lv_draw_arc.c ****             area->y2 = y + ((lv_trigo_sin(start_angle) * rin) >> LV_TRIGO_SHIFT) + extra_area;
 101:Drivers/lvgl/src/draw/lv_draw_arc.c **** 
 102:Drivers/lvgl/src/draw/lv_draw_arc.c ****             area->y1 = y + ((lv_trigo_sin(end_angle) * rout) >> LV_TRIGO_SHIFT) - extra_area;
 103:Drivers/lvgl/src/draw/lv_draw_arc.c ****             area->x2 = x + ((lv_trigo_sin(end_angle + 90) * rin) >> LV_TRIGO_SHIFT) + extra_area;
 104:Drivers/lvgl/src/draw/lv_draw_arc.c ****         }
 105:Drivers/lvgl/src/draw/lv_draw_arc.c ****         else if(start_quarter == 3) {
 106:Drivers/lvgl/src/draw/lv_draw_arc.c ****             area->x1 = x + ((lv_trigo_sin(start_angle + 90) * rin) >> LV_TRIGO_SHIFT) - extra_area;
 107:Drivers/lvgl/src/draw/lv_draw_arc.c ****             area->y1 = y + ((lv_trigo_sin(start_angle) * rout) >> LV_TRIGO_SHIFT) - extra_area;
 108:Drivers/lvgl/src/draw/lv_draw_arc.c **** 
 109:Drivers/lvgl/src/draw/lv_draw_arc.c ****             area->x2 = x + ((lv_trigo_sin(end_angle + 90) * rout) >> LV_TRIGO_SHIFT) + extra_area;
 110:Drivers/lvgl/src/draw/lv_draw_arc.c ****             area->y2 = y + ((lv_trigo_sin(end_angle) * rin) >> LV_TRIGO_SHIFT) + extra_area;
 111:Drivers/lvgl/src/draw/lv_draw_arc.c ****         }
 112:Drivers/lvgl/src/draw/lv_draw_arc.c ****     }
 113:Drivers/lvgl/src/draw/lv_draw_arc.c ****     else if(start_quarter == 0 && end_quarter == 1) {
 261              		.loc 1 113 10 is_stmt 1 view .LVU66
 262              		.loc 1 113 12 is_stmt 0 view .LVU67
 263 007c 13B9     		cbnz	r3, .L20
 264              		.loc 1 113 32 discriminator 1 view .LVU68
 265 007e 012A     		cmp	r2, #1
 266 0080 00F0FE80 		beq	.L41
 267              	.L20:
 114:Drivers/lvgl/src/draw/lv_draw_arc.c ****         area->x1 = x + ((lv_trigo_sin(end_angle + 90) * rout) >> LV_TRIGO_SHIFT) - extra_area;
 115:Drivers/lvgl/src/draw/lv_draw_arc.c ****         area->y1 = y + ((LV_MIN(lv_trigo_sin(end_angle),
ARM GAS  /var/folders/lp/x54gwt890xv47sdkqj1k04q40000gn/T//cc7xEjuw.s 			page 20


 116:Drivers/lvgl/src/draw/lv_draw_arc.c ****                                 lv_trigo_sin(start_angle))  * rin) >> LV_TRIGO_SHIFT) - extra_area;
 117:Drivers/lvgl/src/draw/lv_draw_arc.c ****         area->x2 = x + ((lv_trigo_sin(start_angle + 90) * rout) >> LV_TRIGO_SHIFT) + extra_area;
 118:Drivers/lvgl/src/draw/lv_draw_arc.c ****         area->y2 = y + rout + extra_area;
 119:Drivers/lvgl/src/draw/lv_draw_arc.c ****     }
 120:Drivers/lvgl/src/draw/lv_draw_arc.c ****     else if(start_quarter == 1 && end_quarter == 2) {
 268              		.loc 1 120 10 is_stmt 1 view .LVU69
 269              		.loc 1 120 12 is_stmt 0 view .LVU70
 270 0084 012B     		cmp	r3, #1
 271 0086 00F03D81 		beq	.L42
 272              	.L23:
 121:Drivers/lvgl/src/draw/lv_draw_arc.c ****         area->x1 = x - rout - extra_area;
 122:Drivers/lvgl/src/draw/lv_draw_arc.c ****         area->y1 = y + ((lv_trigo_sin(end_angle) * rout) >> LV_TRIGO_SHIFT) - extra_area;
 123:Drivers/lvgl/src/draw/lv_draw_arc.c ****         area->x2 = x + ((LV_MAX(lv_trigo_sin(start_angle + 90),
 124:Drivers/lvgl/src/draw/lv_draw_arc.c ****                                 lv_trigo_sin(end_angle + 90)) * rin) >> LV_TRIGO_SHIFT) + extra_are
 125:Drivers/lvgl/src/draw/lv_draw_arc.c ****         area->y2 = y + ((lv_trigo_sin(start_angle) * rout) >> LV_TRIGO_SHIFT) + extra_area;
 126:Drivers/lvgl/src/draw/lv_draw_arc.c ****     }
 127:Drivers/lvgl/src/draw/lv_draw_arc.c ****     else if(start_quarter == 2 && end_quarter == 3) {
 273              		.loc 1 127 10 is_stmt 1 view .LVU71
 274              		.loc 1 127 12 is_stmt 0 view .LVU72
 275 008a 022B     		cmp	r3, #2
 276 008c 00F07E81 		beq	.L43
 277              	.L26:
 128:Drivers/lvgl/src/draw/lv_draw_arc.c ****         area->x1 = x + ((lv_trigo_sin(start_angle + 90) * rout) >> LV_TRIGO_SHIFT) - extra_area;
 129:Drivers/lvgl/src/draw/lv_draw_arc.c ****         area->y1 = y - rout - extra_area;
 130:Drivers/lvgl/src/draw/lv_draw_arc.c ****         area->x2 = x + ((lv_trigo_sin(end_angle + 90) * rout) >> LV_TRIGO_SHIFT) + extra_area;
 131:Drivers/lvgl/src/draw/lv_draw_arc.c ****         area->y2 = y + (LV_MAX(lv_trigo_sin(end_angle) * rin,
 132:Drivers/lvgl/src/draw/lv_draw_arc.c ****                                lv_trigo_sin(start_angle) * rin) >> LV_TRIGO_SHIFT) + extra_area;
 133:Drivers/lvgl/src/draw/lv_draw_arc.c ****     }
 134:Drivers/lvgl/src/draw/lv_draw_arc.c ****     else if(start_quarter == 3 && end_quarter == 0) {
 278              		.loc 1 134 10 is_stmt 1 view .LVU73
 279              		.loc 1 134 12 is_stmt 0 view .LVU74
 280 0090 032B     		cmp	r3, #3
 281 0092 00F0C581 		beq	.L44
 282              	.L29:
 135:Drivers/lvgl/src/draw/lv_draw_arc.c ****         area->x1 = x + ((LV_MIN(lv_trigo_sin(end_angle + 90),
 136:Drivers/lvgl/src/draw/lv_draw_arc.c ****                                 lv_trigo_sin(start_angle + 90)) * rin) >> LV_TRIGO_SHIFT) - extra_a
 137:Drivers/lvgl/src/draw/lv_draw_arc.c ****         area->y1 = y + ((lv_trigo_sin(start_angle) * rout) >> LV_TRIGO_SHIFT) - extra_area;
 138:Drivers/lvgl/src/draw/lv_draw_arc.c ****         area->x2 = x + rout + extra_area;
 139:Drivers/lvgl/src/draw/lv_draw_arc.c ****         area->y2 = y + ((lv_trigo_sin(end_angle) * rout) >> LV_TRIGO_SHIFT) + extra_area;
 140:Drivers/lvgl/src/draw/lv_draw_arc.c **** 
 141:Drivers/lvgl/src/draw/lv_draw_arc.c ****     }
 142:Drivers/lvgl/src/draw/lv_draw_arc.c ****     else {
 143:Drivers/lvgl/src/draw/lv_draw_arc.c ****         area->x1 = x - rout;
 283              		.loc 1 143 9 is_stmt 1 view .LVU75
 284              		.loc 1 143 22 is_stmt 0 view .LVU76
 285 0096 1FFA8BF2 		uxth	r2, fp
 286              	.LVL20:
 287              		.loc 1 143 22 view .LVU77
 288 009a 531B     		subs	r3, r2, r5
 289              	.LVL21:
 290              		.loc 1 143 18 view .LVU78
 291 009c 3B80     		strh	r3, [r7]	@ movhi
 144:Drivers/lvgl/src/draw/lv_draw_arc.c ****         area->y1 = y - rout;
 292              		.loc 1 144 9 is_stmt 1 view .LVU79
 293              		.loc 1 144 22 is_stmt 0 view .LVU80
 294 009e BDF80030 		ldrh	r3, [sp]
 295 00a2 591B     		subs	r1, r3, r5
ARM GAS  /var/folders/lp/x54gwt890xv47sdkqj1k04q40000gn/T//cc7xEjuw.s 			page 21


 296              		.loc 1 144 18 view .LVU81
 297 00a4 7980     		strh	r1, [r7, #2]	@ movhi
 145:Drivers/lvgl/src/draw/lv_draw_arc.c ****         area->x2 = x + rout;
 298              		.loc 1 145 9 is_stmt 1 view .LVU82
 299              		.loc 1 145 22 is_stmt 0 view .LVU83
 300 00a6 2A44     		add	r2, r2, r5
 301              		.loc 1 145 18 view .LVU84
 302 00a8 BA80     		strh	r2, [r7, #4]	@ movhi
 146:Drivers/lvgl/src/draw/lv_draw_arc.c ****         area->y2 = y + rout;
 303              		.loc 1 146 9 is_stmt 1 view .LVU85
 304              		.loc 1 146 22 is_stmt 0 view .LVU86
 305 00aa 2B44     		add	r3, r3, r5
 306              		.loc 1 146 18 view .LVU87
 307 00ac FB80     		strh	r3, [r7, #6]	@ movhi
 308              	.LVL22:
 309              	.L6:
 147:Drivers/lvgl/src/draw/lv_draw_arc.c ****     }
 148:Drivers/lvgl/src/draw/lv_draw_arc.c **** }
 310              		.loc 1 148 1 view .LVU88
 311 00ae 05B0     		add	sp, sp, #20
 312              		.cfi_remember_state
 313              		.cfi_def_cfa_offset 36
 314              		@ sp needed
 315 00b0 BDE8F08F 		pop	{r4, r5, r6, r7, r8, r9, r10, fp, pc}
 316              	.LVL23:
 317              	.L37:
 318              		.cfi_restore_state
  64:Drivers/lvgl/src/draw/lv_draw_arc.c ****         area->y1 = y - rout;
 319              		.loc 1 64 9 is_stmt 1 view .LVU89
  64:Drivers/lvgl/src/draw/lv_draw_arc.c ****         area->y1 = y - rout;
 320              		.loc 1 64 22 is_stmt 0 view .LVU90
 321 00b4 82B2     		uxth	r2, r0
 322 00b6 531B     		subs	r3, r2, r5
  64:Drivers/lvgl/src/draw/lv_draw_arc.c ****         area->y1 = y - rout;
 323              		.loc 1 64 18 view .LVU91
 324 00b8 3B80     		strh	r3, [r7]	@ movhi
  65:Drivers/lvgl/src/draw/lv_draw_arc.c ****         area->x2 = x + rout;
 325              		.loc 1 65 9 is_stmt 1 view .LVU92
  65:Drivers/lvgl/src/draw/lv_draw_arc.c ****         area->x2 = x + rout;
 326              		.loc 1 65 22 is_stmt 0 view .LVU93
 327 00ba BDF80030 		ldrh	r3, [sp]
 328 00be 591B     		subs	r1, r3, r5
 329              	.LVL24:
  65:Drivers/lvgl/src/draw/lv_draw_arc.c ****         area->x2 = x + rout;
 330              		.loc 1 65 18 view .LVU94
 331 00c0 7980     		strh	r1, [r7, #2]	@ movhi
  66:Drivers/lvgl/src/draw/lv_draw_arc.c ****         area->y2 = y + rout;
 332              		.loc 1 66 9 is_stmt 1 view .LVU95
  66:Drivers/lvgl/src/draw/lv_draw_arc.c ****         area->y2 = y + rout;
 333              		.loc 1 66 22 is_stmt 0 view .LVU96
 334 00c2 2A44     		add	r2, r2, r5
  66:Drivers/lvgl/src/draw/lv_draw_arc.c ****         area->y2 = y + rout;
 335              		.loc 1 66 18 view .LVU97
 336 00c4 BA80     		strh	r2, [r7, #4]	@ movhi
  67:Drivers/lvgl/src/draw/lv_draw_arc.c ****         return;
 337              		.loc 1 67 9 is_stmt 1 view .LVU98
  67:Drivers/lvgl/src/draw/lv_draw_arc.c ****         return;
ARM GAS  /var/folders/lp/x54gwt890xv47sdkqj1k04q40000gn/T//cc7xEjuw.s 			page 22


 338              		.loc 1 67 22 is_stmt 0 view .LVU99
 339 00c6 2B44     		add	r3, r3, r5
  67:Drivers/lvgl/src/draw/lv_draw_arc.c ****         return;
 340              		.loc 1 67 18 view .LVU100
 341 00c8 FB80     		strh	r3, [r7, #6]	@ movhi
  68:Drivers/lvgl/src/draw/lv_draw_arc.c ****     }
 342              		.loc 1 68 9 is_stmt 1 view .LVU101
 343 00ca F0E7     		b	.L6
 344              	.LVL25:
 345              	.L32:
  75:Drivers/lvgl/src/draw/lv_draw_arc.c ****     uint8_t start_quarter = start_angle / 90;
 346              		.loc 1 75 16 is_stmt 0 discriminator 2 view .LVU102
 347 00cc 0026     		movs	r6, #0
 348 00ce C3E7     		b	.L11
 349              	.LVL26:
 350              	.L38:
  80:Drivers/lvgl/src/draw/lv_draw_arc.c ****     if(end_quarter == 4) end_quarter = 3;
 351              		.loc 1 80 42 discriminator 1 view .LVU103
 352 00d0 0323     		movs	r3, #3
 353              	.LVL27:
  80:Drivers/lvgl/src/draw/lv_draw_arc.c ****     if(end_quarter == 4) end_quarter = 3;
 354              		.loc 1 80 42 discriminator 1 view .LVU104
 355 00d2 CFE7     		b	.L12
 356              	.LVL28:
 357              	.L39:
  81:Drivers/lvgl/src/draw/lv_draw_arc.c **** 
 358              		.loc 1 81 38 discriminator 1 view .LVU105
 359 00d4 0322     		movs	r2, #3
 360              	.LVL29:
  81:Drivers/lvgl/src/draw/lv_draw_arc.c **** 
 361              		.loc 1 81 38 discriminator 1 view .LVU106
 362 00d6 CFE7     		b	.L13
 363              	.LVL30:
 364              	.L40:
  83:Drivers/lvgl/src/draw/lv_draw_arc.c ****         if(start_quarter == 0) {
 365              		.loc 1 83 37 discriminator 1 view .LVU107
 366 00d8 5445     		cmp	r4, r10
 367 00da CFD8     		bhi	.L14
  84:Drivers/lvgl/src/draw/lv_draw_arc.c ****             area->y1 = y + ((lv_trigo_sin(start_angle) * rin) >> LV_TRIGO_SHIFT) - extra_area;
 368              		.loc 1 84 9 is_stmt 1 view .LVU108
 369 00dc 032B     		cmp	r3, #3
 370 00de E6D8     		bhi	.L6
 371 00e0 DFE803F0 		tbb	[pc, r3]
 372              	.LVL31:
 373              	.L16:
 374 00e4 02       		.byte	(.L19-.L16)/2
 375 00e5 35       		.byte	(.L18-.L16)/2
 376 00e6 68       		.byte	(.L17-.L16)/2
 377 00e7 9B       		.byte	(.L15-.L16)/2
 378              		.p2align 1
 379              	.L19:
  85:Drivers/lvgl/src/draw/lv_draw_arc.c ****             area->x2 = x + ((lv_trigo_sin(start_angle + 90) * rout) >> LV_TRIGO_SHIFT) + extra_area
 380              		.loc 1 85 13 view .LVU109
  85:Drivers/lvgl/src/draw/lv_draw_arc.c ****             area->x2 = x + ((lv_trigo_sin(start_angle + 90) * rout) >> LV_TRIGO_SHIFT) + extra_area
 381              		.loc 1 85 30 is_stmt 0 view .LVU110
 382 00e8 20B2     		sxth	r0, r4
 383              	.LVL32:
ARM GAS  /var/folders/lp/x54gwt890xv47sdkqj1k04q40000gn/T//cc7xEjuw.s 			page 23


  85:Drivers/lvgl/src/draw/lv_draw_arc.c ****             area->x2 = x + ((lv_trigo_sin(start_angle + 90) * rout) >> LV_TRIGO_SHIFT) + extra_area
 384              		.loc 1 85 30 view .LVU111
 385 00ea FFF7FEFF 		bl	lv_trigo_sin
 386              	.LVL33:
  85:Drivers/lvgl/src/draw/lv_draw_arc.c ****             area->x2 = x + ((lv_trigo_sin(start_angle + 90) * rout) >> LV_TRIGO_SHIFT) + extra_area
 387              		.loc 1 85 56 discriminator 1 view .LVU112
 388 00ee 08FB00F3 		mul	r3, r8, r0
  85:Drivers/lvgl/src/draw/lv_draw_arc.c ****             area->x2 = x + ((lv_trigo_sin(start_angle + 90) * rout) >> LV_TRIGO_SHIFT) + extra_area
 389              		.loc 1 85 26 discriminator 1 view .LVU113
 390 00f2 BDF80050 		ldrh	r5, [sp]
 391              	.LVL34:
  85:Drivers/lvgl/src/draw/lv_draw_arc.c ****             area->x2 = x + ((lv_trigo_sin(start_angle + 90) * rout) >> LV_TRIGO_SHIFT) + extra_area
 392              		.loc 1 85 26 discriminator 1 view .LVU114
 393 00f6 05EBE333 		add	r3, r5, r3, asr #15
 394 00fa 9BB2     		uxth	r3, r3
  85:Drivers/lvgl/src/draw/lv_draw_arc.c ****             area->x2 = x + ((lv_trigo_sin(start_angle + 90) * rout) >> LV_TRIGO_SHIFT) + extra_area
 395              		.loc 1 85 82 discriminator 1 view .LVU115
 396 00fc B6B2     		uxth	r6, r6
  85:Drivers/lvgl/src/draw/lv_draw_arc.c ****             area->x2 = x + ((lv_trigo_sin(start_angle + 90) * rout) >> LV_TRIGO_SHIFT) + extra_area
 397              		.loc 1 85 82 discriminator 1 view .LVU116
 398 00fe 9B1B     		subs	r3, r3, r6
  85:Drivers/lvgl/src/draw/lv_draw_arc.c ****             area->x2 = x + ((lv_trigo_sin(start_angle + 90) * rout) >> LV_TRIGO_SHIFT) + extra_area
 399              		.loc 1 85 22 discriminator 1 view .LVU117
 400 0100 7B80     		strh	r3, [r7, #2]	@ movhi
  86:Drivers/lvgl/src/draw/lv_draw_arc.c **** 
 401              		.loc 1 86 13 is_stmt 1 view .LVU118
  86:Drivers/lvgl/src/draw/lv_draw_arc.c **** 
 402              		.loc 1 86 55 is_stmt 0 view .LVU119
 403 0102 04F15A00 		add	r0, r4, #90
  86:Drivers/lvgl/src/draw/lv_draw_arc.c **** 
 404              		.loc 1 86 30 view .LVU120
 405 0106 00B2     		sxth	r0, r0
 406 0108 FFF7FEFF 		bl	lv_trigo_sin
 407              	.LVL35:
  86:Drivers/lvgl/src/draw/lv_draw_arc.c **** 
 408              		.loc 1 86 61 discriminator 1 view .LVU121
 409 010c 09FB00F3 		mul	r3, r9, r0
  86:Drivers/lvgl/src/draw/lv_draw_arc.c **** 
 410              		.loc 1 86 26 discriminator 1 view .LVU122
 411 0110 1FFA8BFB 		uxth	fp, fp
 412              	.LVL36:
  86:Drivers/lvgl/src/draw/lv_draw_arc.c **** 
 413              		.loc 1 86 26 discriminator 1 view .LVU123
 414 0114 0BEBE333 		add	r3, fp, r3, asr #15
  86:Drivers/lvgl/src/draw/lv_draw_arc.c **** 
 415              		.loc 1 86 88 discriminator 1 view .LVU124
 416 0118 16FA83F3 		uxtah	r3, r6, r3
  86:Drivers/lvgl/src/draw/lv_draw_arc.c **** 
 417              		.loc 1 86 22 discriminator 1 view .LVU125
 418 011c BB80     		strh	r3, [r7, #4]	@ movhi
  88:Drivers/lvgl/src/draw/lv_draw_arc.c ****             area->x1 = x + ((lv_trigo_sin(end_angle + 90) * rin) >> LV_TRIGO_SHIFT) - extra_area;
 419              		.loc 1 88 13 is_stmt 1 view .LVU126
  88:Drivers/lvgl/src/draw/lv_draw_arc.c ****             area->x1 = x + ((lv_trigo_sin(end_angle + 90) * rin) >> LV_TRIGO_SHIFT) - extra_area;
 420              		.loc 1 88 30 is_stmt 0 view .LVU127
 421 011e 0FFA8AF0 		sxth	r0, r10
 422 0122 FFF7FEFF 		bl	lv_trigo_sin
 423              	.LVL37:
ARM GAS  /var/folders/lp/x54gwt890xv47sdkqj1k04q40000gn/T//cc7xEjuw.s 			page 24


  88:Drivers/lvgl/src/draw/lv_draw_arc.c ****             area->x1 = x + ((lv_trigo_sin(end_angle + 90) * rin) >> LV_TRIGO_SHIFT) - extra_area;
 424              		.loc 1 88 54 discriminator 1 view .LVU128
 425 0126 00FB09F0 		mul	r0, r0, r9
  88:Drivers/lvgl/src/draw/lv_draw_arc.c ****             area->x1 = x + ((lv_trigo_sin(end_angle + 90) * rin) >> LV_TRIGO_SHIFT) - extra_area;
 426              		.loc 1 88 26 discriminator 1 view .LVU129
 427 012a 05EBE035 		add	r5, r5, r0, asr #15
  88:Drivers/lvgl/src/draw/lv_draw_arc.c ****             area->x1 = x + ((lv_trigo_sin(end_angle + 90) * rin) >> LV_TRIGO_SHIFT) - extra_area;
 428              		.loc 1 88 81 discriminator 1 view .LVU130
 429 012e 16FA85F5 		uxtah	r5, r6, r5
  88:Drivers/lvgl/src/draw/lv_draw_arc.c ****             area->x1 = x + ((lv_trigo_sin(end_angle + 90) * rin) >> LV_TRIGO_SHIFT) - extra_area;
 430              		.loc 1 88 22 discriminator 1 view .LVU131
 431 0132 FD80     		strh	r5, [r7, #6]	@ movhi
  89:Drivers/lvgl/src/draw/lv_draw_arc.c ****         }
 432              		.loc 1 89 13 is_stmt 1 view .LVU132
  89:Drivers/lvgl/src/draw/lv_draw_arc.c ****         }
 433              		.loc 1 89 53 is_stmt 0 view .LVU133
 434 0134 0AF15A00 		add	r0, r10, #90
  89:Drivers/lvgl/src/draw/lv_draw_arc.c ****         }
 435              		.loc 1 89 30 view .LVU134
 436 0138 00B2     		sxth	r0, r0
 437 013a FFF7FEFF 		bl	lv_trigo_sin
 438              	.LVL38:
  89:Drivers/lvgl/src/draw/lv_draw_arc.c ****         }
 439              		.loc 1 89 59 discriminator 1 view .LVU135
 440 013e 00FB08F0 		mul	r0, r0, r8
  89:Drivers/lvgl/src/draw/lv_draw_arc.c ****         }
 441              		.loc 1 89 26 discriminator 1 view .LVU136
 442 0142 0BEBE033 		add	r3, fp, r0, asr #15
 443 0146 9BB2     		uxth	r3, r3
  89:Drivers/lvgl/src/draw/lv_draw_arc.c ****         }
 444              		.loc 1 89 85 discriminator 1 view .LVU137
 445 0148 9B1B     		subs	r3, r3, r6
  89:Drivers/lvgl/src/draw/lv_draw_arc.c ****         }
 446              		.loc 1 89 22 discriminator 1 view .LVU138
 447 014a 3B80     		strh	r3, [r7]	@ movhi
 448 014c AFE7     		b	.L6
 449              	.LVL39:
 450              	.L18:
  92:Drivers/lvgl/src/draw/lv_draw_arc.c ****             area->x2 = x + ((lv_trigo_sin(start_angle + 90) * rin) >> LV_TRIGO_SHIFT) + extra_area;
 451              		.loc 1 92 13 is_stmt 1 view .LVU139
  92:Drivers/lvgl/src/draw/lv_draw_arc.c ****             area->x2 = x + ((lv_trigo_sin(start_angle + 90) * rin) >> LV_TRIGO_SHIFT) + extra_area;
 452              		.loc 1 92 30 is_stmt 0 view .LVU140
 453 014e 20B2     		sxth	r0, r4
 454              	.LVL40:
  92:Drivers/lvgl/src/draw/lv_draw_arc.c ****             area->x2 = x + ((lv_trigo_sin(start_angle + 90) * rin) >> LV_TRIGO_SHIFT) + extra_area;
 455              		.loc 1 92 30 view .LVU141
 456 0150 FFF7FEFF 		bl	lv_trigo_sin
 457              	.LVL41:
  92:Drivers/lvgl/src/draw/lv_draw_arc.c ****             area->x2 = x + ((lv_trigo_sin(start_angle + 90) * rin) >> LV_TRIGO_SHIFT) + extra_area;
 458              		.loc 1 92 56 discriminator 1 view .LVU142
 459 0154 09FB00F3 		mul	r3, r9, r0
  92:Drivers/lvgl/src/draw/lv_draw_arc.c ****             area->x2 = x + ((lv_trigo_sin(start_angle + 90) * rin) >> LV_TRIGO_SHIFT) + extra_area;
 460              		.loc 1 92 26 discriminator 1 view .LVU143
 461 0158 BDF80050 		ldrh	r5, [sp]
 462              	.LVL42:
  92:Drivers/lvgl/src/draw/lv_draw_arc.c ****             area->x2 = x + ((lv_trigo_sin(start_angle + 90) * rin) >> LV_TRIGO_SHIFT) + extra_area;
 463              		.loc 1 92 26 discriminator 1 view .LVU144
ARM GAS  /var/folders/lp/x54gwt890xv47sdkqj1k04q40000gn/T//cc7xEjuw.s 			page 25


 464 015c 05EBE333 		add	r3, r5, r3, asr #15
  92:Drivers/lvgl/src/draw/lv_draw_arc.c ****             area->x2 = x + ((lv_trigo_sin(start_angle + 90) * rin) >> LV_TRIGO_SHIFT) + extra_area;
 465              		.loc 1 92 83 discriminator 1 view .LVU145
 466 0160 B6B2     		uxth	r6, r6
  92:Drivers/lvgl/src/draw/lv_draw_arc.c ****             area->x2 = x + ((lv_trigo_sin(start_angle + 90) * rin) >> LV_TRIGO_SHIFT) + extra_area;
 467              		.loc 1 92 83 discriminator 1 view .LVU146
 468 0162 16FA83F3 		uxtah	r3, r6, r3
  92:Drivers/lvgl/src/draw/lv_draw_arc.c ****             area->x2 = x + ((lv_trigo_sin(start_angle + 90) * rin) >> LV_TRIGO_SHIFT) + extra_area;
 469              		.loc 1 92 22 discriminator 1 view .LVU147
 470 0166 FB80     		strh	r3, [r7, #6]	@ movhi
  93:Drivers/lvgl/src/draw/lv_draw_arc.c **** 
 471              		.loc 1 93 13 is_stmt 1 view .LVU148
  93:Drivers/lvgl/src/draw/lv_draw_arc.c **** 
 472              		.loc 1 93 55 is_stmt 0 view .LVU149
 473 0168 04F15A00 		add	r0, r4, #90
  93:Drivers/lvgl/src/draw/lv_draw_arc.c **** 
 474              		.loc 1 93 30 view .LVU150
 475 016c 00B2     		sxth	r0, r0
 476 016e FFF7FEFF 		bl	lv_trigo_sin
 477              	.LVL43:
  93:Drivers/lvgl/src/draw/lv_draw_arc.c **** 
 478              		.loc 1 93 61 discriminator 1 view .LVU151
 479 0172 08FB00F3 		mul	r3, r8, r0
  93:Drivers/lvgl/src/draw/lv_draw_arc.c **** 
 480              		.loc 1 93 26 discriminator 1 view .LVU152
 481 0176 1FFA8BFB 		uxth	fp, fp
 482              	.LVL44:
  93:Drivers/lvgl/src/draw/lv_draw_arc.c **** 
 483              		.loc 1 93 26 discriminator 1 view .LVU153
 484 017a 0BEBE333 		add	r3, fp, r3, asr #15
  93:Drivers/lvgl/src/draw/lv_draw_arc.c **** 
 485              		.loc 1 93 87 discriminator 1 view .LVU154
 486 017e 16FA83F3 		uxtah	r3, r6, r3
  93:Drivers/lvgl/src/draw/lv_draw_arc.c **** 
 487              		.loc 1 93 22 discriminator 1 view .LVU155
 488 0182 BB80     		strh	r3, [r7, #4]	@ movhi
  95:Drivers/lvgl/src/draw/lv_draw_arc.c ****             area->x1 = x + ((lv_trigo_sin(end_angle + 90) * rout) >> LV_TRIGO_SHIFT) - extra_area;
 489              		.loc 1 95 13 is_stmt 1 view .LVU156
  95:Drivers/lvgl/src/draw/lv_draw_arc.c ****             area->x1 = x + ((lv_trigo_sin(end_angle + 90) * rout) >> LV_TRIGO_SHIFT) - extra_area;
 490              		.loc 1 95 30 is_stmt 0 view .LVU157
 491 0184 0FFA8AF0 		sxth	r0, r10
 492 0188 FFF7FEFF 		bl	lv_trigo_sin
 493              	.LVL45:
  95:Drivers/lvgl/src/draw/lv_draw_arc.c ****             area->x1 = x + ((lv_trigo_sin(end_angle + 90) * rout) >> LV_TRIGO_SHIFT) - extra_area;
 494              		.loc 1 95 54 discriminator 1 view .LVU158
 495 018c 00FB08F0 		mul	r0, r0, r8
  95:Drivers/lvgl/src/draw/lv_draw_arc.c ****             area->x1 = x + ((lv_trigo_sin(end_angle + 90) * rout) >> LV_TRIGO_SHIFT) - extra_area;
 496              		.loc 1 95 26 discriminator 1 view .LVU159
 497 0190 05EBE033 		add	r3, r5, r0, asr #15
 498 0194 9BB2     		uxth	r3, r3
  95:Drivers/lvgl/src/draw/lv_draw_arc.c ****             area->x1 = x + ((lv_trigo_sin(end_angle + 90) * rout) >> LV_TRIGO_SHIFT) - extra_area;
 499              		.loc 1 95 80 discriminator 1 view .LVU160
 500 0196 9B1B     		subs	r3, r3, r6
  95:Drivers/lvgl/src/draw/lv_draw_arc.c ****             area->x1 = x + ((lv_trigo_sin(end_angle + 90) * rout) >> LV_TRIGO_SHIFT) - extra_area;
 501              		.loc 1 95 22 discriminator 1 view .LVU161
 502 0198 7B80     		strh	r3, [r7, #2]	@ movhi
  96:Drivers/lvgl/src/draw/lv_draw_arc.c ****         }
ARM GAS  /var/folders/lp/x54gwt890xv47sdkqj1k04q40000gn/T//cc7xEjuw.s 			page 26


 503              		.loc 1 96 13 is_stmt 1 view .LVU162
  96:Drivers/lvgl/src/draw/lv_draw_arc.c ****         }
 504              		.loc 1 96 53 is_stmt 0 view .LVU163
 505 019a 0AF15A00 		add	r0, r10, #90
  96:Drivers/lvgl/src/draw/lv_draw_arc.c ****         }
 506              		.loc 1 96 30 view .LVU164
 507 019e 00B2     		sxth	r0, r0
 508 01a0 FFF7FEFF 		bl	lv_trigo_sin
 509              	.LVL46:
  96:Drivers/lvgl/src/draw/lv_draw_arc.c ****         }
 510              		.loc 1 96 59 discriminator 1 view .LVU165
 511 01a4 00FB09F0 		mul	r0, r0, r9
  96:Drivers/lvgl/src/draw/lv_draw_arc.c ****         }
 512              		.loc 1 96 26 discriminator 1 view .LVU166
 513 01a8 0BEBE033 		add	r3, fp, r0, asr #15
 514 01ac 9BB2     		uxth	r3, r3
  96:Drivers/lvgl/src/draw/lv_draw_arc.c ****         }
 515              		.loc 1 96 86 discriminator 1 view .LVU167
 516 01ae 9B1B     		subs	r3, r3, r6
  96:Drivers/lvgl/src/draw/lv_draw_arc.c ****         }
 517              		.loc 1 96 22 discriminator 1 view .LVU168
 518 01b0 3B80     		strh	r3, [r7]	@ movhi
 519 01b2 7CE7     		b	.L6
 520              	.LVL47:
 521              	.L17:
  99:Drivers/lvgl/src/draw/lv_draw_arc.c ****             area->y2 = y + ((lv_trigo_sin(start_angle) * rin) >> LV_TRIGO_SHIFT) + extra_area;
 522              		.loc 1 99 13 is_stmt 1 view .LVU169
  99:Drivers/lvgl/src/draw/lv_draw_arc.c ****             area->y2 = y + ((lv_trigo_sin(start_angle) * rin) >> LV_TRIGO_SHIFT) + extra_area;
 523              		.loc 1 99 55 is_stmt 0 view .LVU170
 524 01b4 04F15A00 		add	r0, r4, #90
 525              	.LVL48:
  99:Drivers/lvgl/src/draw/lv_draw_arc.c ****             area->y2 = y + ((lv_trigo_sin(start_angle) * rin) >> LV_TRIGO_SHIFT) + extra_area;
 526              		.loc 1 99 30 view .LVU171
 527 01b8 00B2     		sxth	r0, r0
 528 01ba FFF7FEFF 		bl	lv_trigo_sin
 529              	.LVL49:
  99:Drivers/lvgl/src/draw/lv_draw_arc.c ****             area->y2 = y + ((lv_trigo_sin(start_angle) * rin) >> LV_TRIGO_SHIFT) + extra_area;
 530              		.loc 1 99 61 discriminator 1 view .LVU172
 531 01be 09FB00F3 		mul	r3, r9, r0
  99:Drivers/lvgl/src/draw/lv_draw_arc.c ****             area->y2 = y + ((lv_trigo_sin(start_angle) * rin) >> LV_TRIGO_SHIFT) + extra_area;
 532              		.loc 1 99 26 discriminator 1 view .LVU173
 533 01c2 1FFA8BF5 		uxth	r5, fp
 534              	.LVL50:
  99:Drivers/lvgl/src/draw/lv_draw_arc.c ****             area->y2 = y + ((lv_trigo_sin(start_angle) * rin) >> LV_TRIGO_SHIFT) + extra_area;
 535              		.loc 1 99 26 discriminator 1 view .LVU174
 536 01c6 05EBE333 		add	r3, r5, r3, asr #15
 537 01ca 9BB2     		uxth	r3, r3
  99:Drivers/lvgl/src/draw/lv_draw_arc.c ****             area->y2 = y + ((lv_trigo_sin(start_angle) * rin) >> LV_TRIGO_SHIFT) + extra_area;
 538              		.loc 1 99 88 discriminator 1 view .LVU175
 539 01cc B6B2     		uxth	r6, r6
  99:Drivers/lvgl/src/draw/lv_draw_arc.c ****             area->y2 = y + ((lv_trigo_sin(start_angle) * rin) >> LV_TRIGO_SHIFT) + extra_area;
 540              		.loc 1 99 88 discriminator 1 view .LVU176
 541 01ce 9B1B     		subs	r3, r3, r6
  99:Drivers/lvgl/src/draw/lv_draw_arc.c ****             area->y2 = y + ((lv_trigo_sin(start_angle) * rin) >> LV_TRIGO_SHIFT) + extra_area;
 542              		.loc 1 99 22 discriminator 1 view .LVU177
 543 01d0 3B80     		strh	r3, [r7]	@ movhi
 100:Drivers/lvgl/src/draw/lv_draw_arc.c **** 
ARM GAS  /var/folders/lp/x54gwt890xv47sdkqj1k04q40000gn/T//cc7xEjuw.s 			page 27


 544              		.loc 1 100 13 is_stmt 1 view .LVU178
 100:Drivers/lvgl/src/draw/lv_draw_arc.c **** 
 545              		.loc 1 100 30 is_stmt 0 view .LVU179
 546 01d2 20B2     		sxth	r0, r4
 547 01d4 FFF7FEFF 		bl	lv_trigo_sin
 548              	.LVL51:
 100:Drivers/lvgl/src/draw/lv_draw_arc.c **** 
 549              		.loc 1 100 56 discriminator 1 view .LVU180
 550 01d8 08FB00F3 		mul	r3, r8, r0
 100:Drivers/lvgl/src/draw/lv_draw_arc.c **** 
 551              		.loc 1 100 26 discriminator 1 view .LVU181
 552 01dc BDF80040 		ldrh	r4, [sp]
 553              	.LVL52:
 100:Drivers/lvgl/src/draw/lv_draw_arc.c **** 
 554              		.loc 1 100 26 discriminator 1 view .LVU182
 555 01e0 04EBE333 		add	r3, r4, r3, asr #15
 100:Drivers/lvgl/src/draw/lv_draw_arc.c **** 
 556              		.loc 1 100 82 discriminator 1 view .LVU183
 557 01e4 16FA83F3 		uxtah	r3, r6, r3
 100:Drivers/lvgl/src/draw/lv_draw_arc.c **** 
 558              		.loc 1 100 22 discriminator 1 view .LVU184
 559 01e8 FB80     		strh	r3, [r7, #6]	@ movhi
 102:Drivers/lvgl/src/draw/lv_draw_arc.c ****             area->x2 = x + ((lv_trigo_sin(end_angle + 90) * rin) >> LV_TRIGO_SHIFT) + extra_area;
 560              		.loc 1 102 13 is_stmt 1 view .LVU185
 102:Drivers/lvgl/src/draw/lv_draw_arc.c ****             area->x2 = x + ((lv_trigo_sin(end_angle + 90) * rin) >> LV_TRIGO_SHIFT) + extra_area;
 561              		.loc 1 102 30 is_stmt 0 view .LVU186
 562 01ea 0FFA8AF0 		sxth	r0, r10
 563 01ee FFF7FEFF 		bl	lv_trigo_sin
 564              	.LVL53:
 102:Drivers/lvgl/src/draw/lv_draw_arc.c ****             area->x2 = x + ((lv_trigo_sin(end_angle + 90) * rin) >> LV_TRIGO_SHIFT) + extra_area;
 565              		.loc 1 102 54 discriminator 1 view .LVU187
 566 01f2 00FB09F0 		mul	r0, r0, r9
 102:Drivers/lvgl/src/draw/lv_draw_arc.c ****             area->x2 = x + ((lv_trigo_sin(end_angle + 90) * rin) >> LV_TRIGO_SHIFT) + extra_area;
 567              		.loc 1 102 26 discriminator 1 view .LVU188
 568 01f6 04EBE033 		add	r3, r4, r0, asr #15
 569 01fa 9BB2     		uxth	r3, r3
 102:Drivers/lvgl/src/draw/lv_draw_arc.c ****             area->x2 = x + ((lv_trigo_sin(end_angle + 90) * rin) >> LV_TRIGO_SHIFT) + extra_area;
 570              		.loc 1 102 81 discriminator 1 view .LVU189
 571 01fc 9B1B     		subs	r3, r3, r6
 102:Drivers/lvgl/src/draw/lv_draw_arc.c ****             area->x2 = x + ((lv_trigo_sin(end_angle + 90) * rin) >> LV_TRIGO_SHIFT) + extra_area;
 572              		.loc 1 102 22 discriminator 1 view .LVU190
 573 01fe 7B80     		strh	r3, [r7, #2]	@ movhi
 103:Drivers/lvgl/src/draw/lv_draw_arc.c ****         }
 574              		.loc 1 103 13 is_stmt 1 view .LVU191
 103:Drivers/lvgl/src/draw/lv_draw_arc.c ****         }
 575              		.loc 1 103 53 is_stmt 0 view .LVU192
 576 0200 0AF15A00 		add	r0, r10, #90
 103:Drivers/lvgl/src/draw/lv_draw_arc.c ****         }
 577              		.loc 1 103 30 view .LVU193
 578 0204 00B2     		sxth	r0, r0
 579 0206 FFF7FEFF 		bl	lv_trigo_sin
 580              	.LVL54:
 103:Drivers/lvgl/src/draw/lv_draw_arc.c ****         }
 581              		.loc 1 103 59 discriminator 1 view .LVU194
 582 020a 00FB08F0 		mul	r0, r0, r8
 103:Drivers/lvgl/src/draw/lv_draw_arc.c ****         }
 583              		.loc 1 103 26 discriminator 1 view .LVU195
ARM GAS  /var/folders/lp/x54gwt890xv47sdkqj1k04q40000gn/T//cc7xEjuw.s 			page 28


 584 020e 05EBE035 		add	r5, r5, r0, asr #15
 103:Drivers/lvgl/src/draw/lv_draw_arc.c ****         }
 585              		.loc 1 103 85 discriminator 1 view .LVU196
 586 0212 16FA85F5 		uxtah	r5, r6, r5
 103:Drivers/lvgl/src/draw/lv_draw_arc.c ****         }
 587              		.loc 1 103 22 discriminator 1 view .LVU197
 588 0216 BD80     		strh	r5, [r7, #4]	@ movhi
 589 0218 49E7     		b	.L6
 590              	.LVL55:
 591              	.L15:
 106:Drivers/lvgl/src/draw/lv_draw_arc.c ****             area->y1 = y + ((lv_trigo_sin(start_angle) * rout) >> LV_TRIGO_SHIFT) - extra_area;
 592              		.loc 1 106 13 is_stmt 1 view .LVU198
 106:Drivers/lvgl/src/draw/lv_draw_arc.c ****             area->y1 = y + ((lv_trigo_sin(start_angle) * rout) >> LV_TRIGO_SHIFT) - extra_area;
 593              		.loc 1 106 55 is_stmt 0 view .LVU199
 594 021a 04F15A00 		add	r0, r4, #90
 595              	.LVL56:
 106:Drivers/lvgl/src/draw/lv_draw_arc.c ****             area->y1 = y + ((lv_trigo_sin(start_angle) * rout) >> LV_TRIGO_SHIFT) - extra_area;
 596              		.loc 1 106 30 view .LVU200
 597 021e 00B2     		sxth	r0, r0
 598 0220 FFF7FEFF 		bl	lv_trigo_sin
 599              	.LVL57:
 106:Drivers/lvgl/src/draw/lv_draw_arc.c ****             area->y1 = y + ((lv_trigo_sin(start_angle) * rout) >> LV_TRIGO_SHIFT) - extra_area;
 600              		.loc 1 106 61 discriminator 1 view .LVU201
 601 0224 08FB00F3 		mul	r3, r8, r0
 106:Drivers/lvgl/src/draw/lv_draw_arc.c ****             area->y1 = y + ((lv_trigo_sin(start_angle) * rout) >> LV_TRIGO_SHIFT) - extra_area;
 602              		.loc 1 106 26 discriminator 1 view .LVU202
 603 0228 1FFA8BF5 		uxth	r5, fp
 604              	.LVL58:
 106:Drivers/lvgl/src/draw/lv_draw_arc.c ****             area->y1 = y + ((lv_trigo_sin(start_angle) * rout) >> LV_TRIGO_SHIFT) - extra_area;
 605              		.loc 1 106 26 discriminator 1 view .LVU203
 606 022c 05EBE333 		add	r3, r5, r3, asr #15
 607 0230 9BB2     		uxth	r3, r3
 106:Drivers/lvgl/src/draw/lv_draw_arc.c ****             area->y1 = y + ((lv_trigo_sin(start_angle) * rout) >> LV_TRIGO_SHIFT) - extra_area;
 608              		.loc 1 106 87 discriminator 1 view .LVU204
 609 0232 B6B2     		uxth	r6, r6
 106:Drivers/lvgl/src/draw/lv_draw_arc.c ****             area->y1 = y + ((lv_trigo_sin(start_angle) * rout) >> LV_TRIGO_SHIFT) - extra_area;
 610              		.loc 1 106 87 discriminator 1 view .LVU205
 611 0234 9B1B     		subs	r3, r3, r6
 106:Drivers/lvgl/src/draw/lv_draw_arc.c ****             area->y1 = y + ((lv_trigo_sin(start_angle) * rout) >> LV_TRIGO_SHIFT) - extra_area;
 612              		.loc 1 106 22 discriminator 1 view .LVU206
 613 0236 3B80     		strh	r3, [r7]	@ movhi
 107:Drivers/lvgl/src/draw/lv_draw_arc.c **** 
 614              		.loc 1 107 13 is_stmt 1 view .LVU207
 107:Drivers/lvgl/src/draw/lv_draw_arc.c **** 
 615              		.loc 1 107 30 is_stmt 0 view .LVU208
 616 0238 20B2     		sxth	r0, r4
 617 023a FFF7FEFF 		bl	lv_trigo_sin
 618              	.LVL59:
 107:Drivers/lvgl/src/draw/lv_draw_arc.c **** 
 619              		.loc 1 107 56 discriminator 1 view .LVU209
 620 023e 09FB00F3 		mul	r3, r9, r0
 107:Drivers/lvgl/src/draw/lv_draw_arc.c **** 
 621              		.loc 1 107 26 discriminator 1 view .LVU210
 622 0242 BDF80040 		ldrh	r4, [sp]
 623              	.LVL60:
 107:Drivers/lvgl/src/draw/lv_draw_arc.c **** 
 624              		.loc 1 107 26 discriminator 1 view .LVU211
ARM GAS  /var/folders/lp/x54gwt890xv47sdkqj1k04q40000gn/T//cc7xEjuw.s 			page 29


 625 0246 04EBE333 		add	r3, r4, r3, asr #15
 626 024a 9BB2     		uxth	r3, r3
 107:Drivers/lvgl/src/draw/lv_draw_arc.c **** 
 627              		.loc 1 107 83 discriminator 1 view .LVU212
 628 024c 9B1B     		subs	r3, r3, r6
 107:Drivers/lvgl/src/draw/lv_draw_arc.c **** 
 629              		.loc 1 107 22 discriminator 1 view .LVU213
 630 024e 7B80     		strh	r3, [r7, #2]	@ movhi
 109:Drivers/lvgl/src/draw/lv_draw_arc.c ****             area->y2 = y + ((lv_trigo_sin(end_angle) * rin) >> LV_TRIGO_SHIFT) + extra_area;
 631              		.loc 1 109 13 is_stmt 1 view .LVU214
 109:Drivers/lvgl/src/draw/lv_draw_arc.c ****             area->y2 = y + ((lv_trigo_sin(end_angle) * rin) >> LV_TRIGO_SHIFT) + extra_area;
 632              		.loc 1 109 53 is_stmt 0 view .LVU215
 633 0250 0AF15A00 		add	r0, r10, #90
 109:Drivers/lvgl/src/draw/lv_draw_arc.c ****             area->y2 = y + ((lv_trigo_sin(end_angle) * rin) >> LV_TRIGO_SHIFT) + extra_area;
 634              		.loc 1 109 30 view .LVU216
 635 0254 00B2     		sxth	r0, r0
 636 0256 FFF7FEFF 		bl	lv_trigo_sin
 637              	.LVL61:
 109:Drivers/lvgl/src/draw/lv_draw_arc.c ****             area->y2 = y + ((lv_trigo_sin(end_angle) * rin) >> LV_TRIGO_SHIFT) + extra_area;
 638              		.loc 1 109 59 discriminator 1 view .LVU217
 639 025a 00FB09F0 		mul	r0, r0, r9
 109:Drivers/lvgl/src/draw/lv_draw_arc.c ****             area->y2 = y + ((lv_trigo_sin(end_angle) * rin) >> LV_TRIGO_SHIFT) + extra_area;
 640              		.loc 1 109 26 discriminator 1 view .LVU218
 641 025e 05EBE035 		add	r5, r5, r0, asr #15
 109:Drivers/lvgl/src/draw/lv_draw_arc.c ****             area->y2 = y + ((lv_trigo_sin(end_angle) * rin) >> LV_TRIGO_SHIFT) + extra_area;
 642              		.loc 1 109 86 discriminator 1 view .LVU219
 643 0262 16FA85F5 		uxtah	r5, r6, r5
 109:Drivers/lvgl/src/draw/lv_draw_arc.c ****             area->y2 = y + ((lv_trigo_sin(end_angle) * rin) >> LV_TRIGO_SHIFT) + extra_area;
 644              		.loc 1 109 22 discriminator 1 view .LVU220
 645 0266 BD80     		strh	r5, [r7, #4]	@ movhi
 110:Drivers/lvgl/src/draw/lv_draw_arc.c ****         }
 646              		.loc 1 110 13 is_stmt 1 view .LVU221
 110:Drivers/lvgl/src/draw/lv_draw_arc.c ****         }
 647              		.loc 1 110 30 is_stmt 0 view .LVU222
 648 0268 0FFA8AF0 		sxth	r0, r10
 649 026c FFF7FEFF 		bl	lv_trigo_sin
 650              	.LVL62:
 110:Drivers/lvgl/src/draw/lv_draw_arc.c ****         }
 651              		.loc 1 110 54 discriminator 1 view .LVU223
 652 0270 00FB08F0 		mul	r0, r0, r8
 110:Drivers/lvgl/src/draw/lv_draw_arc.c ****         }
 653              		.loc 1 110 26 discriminator 1 view .LVU224
 654 0274 04EBE034 		add	r4, r4, r0, asr #15
 110:Drivers/lvgl/src/draw/lv_draw_arc.c ****         }
 655              		.loc 1 110 80 discriminator 1 view .LVU225
 656 0278 16FA84F4 		uxtah	r4, r6, r4
 110:Drivers/lvgl/src/draw/lv_draw_arc.c ****         }
 657              		.loc 1 110 22 discriminator 1 view .LVU226
 658 027c FC80     		strh	r4, [r7, #6]	@ movhi
 659 027e 16E7     		b	.L6
 660              	.LVL63:
 661              	.L41:
 114:Drivers/lvgl/src/draw/lv_draw_arc.c ****         area->y1 = y + ((LV_MIN(lv_trigo_sin(end_angle),
 662              		.loc 1 114 9 is_stmt 1 view .LVU227
 114:Drivers/lvgl/src/draw/lv_draw_arc.c ****         area->y1 = y + ((LV_MIN(lv_trigo_sin(end_angle),
 663              		.loc 1 114 49 is_stmt 0 view .LVU228
 664 0280 0AF15A00 		add	r0, r10, #90
ARM GAS  /var/folders/lp/x54gwt890xv47sdkqj1k04q40000gn/T//cc7xEjuw.s 			page 30


 665              	.LVL64:
 114:Drivers/lvgl/src/draw/lv_draw_arc.c ****         area->y1 = y + ((LV_MIN(lv_trigo_sin(end_angle),
 666              		.loc 1 114 26 view .LVU229
 667 0284 00B2     		sxth	r0, r0
 668 0286 FFF7FEFF 		bl	lv_trigo_sin
 669              	.LVL65:
 114:Drivers/lvgl/src/draw/lv_draw_arc.c ****         area->y1 = y + ((LV_MIN(lv_trigo_sin(end_angle),
 670              		.loc 1 114 55 discriminator 1 view .LVU230
 671 028a 09FB00F3 		mul	r3, r9, r0
 114:Drivers/lvgl/src/draw/lv_draw_arc.c ****         area->y1 = y + ((LV_MIN(lv_trigo_sin(end_angle),
 672              		.loc 1 114 22 discriminator 1 view .LVU231
 673 028e 1FFA8BFB 		uxth	fp, fp
 674              	.LVL66:
 114:Drivers/lvgl/src/draw/lv_draw_arc.c ****         area->y1 = y + ((LV_MIN(lv_trigo_sin(end_angle),
 675              		.loc 1 114 22 discriminator 1 view .LVU232
 676 0292 0BEBE333 		add	r3, fp, r3, asr #15
 677 0296 9BB2     		uxth	r3, r3
 114:Drivers/lvgl/src/draw/lv_draw_arc.c ****         area->y1 = y + ((LV_MIN(lv_trigo_sin(end_angle),
 678              		.loc 1 114 82 discriminator 1 view .LVU233
 679 0298 B6B2     		uxth	r6, r6
 114:Drivers/lvgl/src/draw/lv_draw_arc.c ****         area->y1 = y + ((LV_MIN(lv_trigo_sin(end_angle),
 680              		.loc 1 114 82 discriminator 1 view .LVU234
 681 029a 9B1B     		subs	r3, r3, r6
 114:Drivers/lvgl/src/draw/lv_draw_arc.c ****         area->y1 = y + ((LV_MIN(lv_trigo_sin(end_angle),
 682              		.loc 1 114 18 discriminator 1 view .LVU235
 683 029c 3B80     		strh	r3, [r7]	@ movhi
 115:Drivers/lvgl/src/draw/lv_draw_arc.c ****                                 lv_trigo_sin(start_angle))  * rin) >> LV_TRIGO_SHIFT) - extra_area;
 684              		.loc 1 115 9 is_stmt 1 view .LVU236
 115:Drivers/lvgl/src/draw/lv_draw_arc.c ****                                 lv_trigo_sin(start_angle))  * rin) >> LV_TRIGO_SHIFT) - extra_area;
 685              		.loc 1 115 26 is_stmt 0 view .LVU237
 686 029e 0FFA8AFA 		sxth	r10, r10
 115:Drivers/lvgl/src/draw/lv_draw_arc.c ****                                 lv_trigo_sin(start_angle))  * rin) >> LV_TRIGO_SHIFT) - extra_area;
 687              		.loc 1 115 26 view .LVU238
 688 02a2 5046     		mov	r0, r10
 689 02a4 FFF7FEFF 		bl	lv_trigo_sin
 690              	.LVL67:
 691 02a8 0190     		str	r0, [sp, #4]
 115:Drivers/lvgl/src/draw/lv_draw_arc.c ****                                 lv_trigo_sin(start_angle))  * rin) >> LV_TRIGO_SHIFT) - extra_area;
 692              		.loc 1 115 26 discriminator 1 view .LVU239
 693 02aa 23B2     		sxth	r3, r4
 694 02ac 0293     		str	r3, [sp, #8]
 695 02ae 1846     		mov	r0, r3
 696 02b0 FFF7FEFF 		bl	lv_trigo_sin
 697              	.LVL68:
 115:Drivers/lvgl/src/draw/lv_draw_arc.c ****                                 lv_trigo_sin(start_angle))  * rin) >> LV_TRIGO_SHIFT) - extra_area;
 698              		.loc 1 115 26 discriminator 2 view .LVU240
 699 02b4 019B     		ldr	r3, [sp, #4]
 700 02b6 8342     		cmp	r3, r0
 701 02b8 1DDA     		bge	.L21
 115:Drivers/lvgl/src/draw/lv_draw_arc.c ****                                 lv_trigo_sin(start_angle))  * rin) >> LV_TRIGO_SHIFT) - extra_area;
 702              		.loc 1 115 26 discriminator 1 view .LVU241
 703 02ba 5046     		mov	r0, r10
 704 02bc FFF7FEFF 		bl	lv_trigo_sin
 705              	.LVL69:
 706              	.L22:
 116:Drivers/lvgl/src/draw/lv_draw_arc.c ****         area->x2 = x + ((lv_trigo_sin(start_angle + 90) * rout) >> LV_TRIGO_SHIFT) + extra_area;
 707              		.loc 1 116 61 view .LVU242
ARM GAS  /var/folders/lp/x54gwt890xv47sdkqj1k04q40000gn/T//cc7xEjuw.s 			page 31


 708 02c0 00FB08F3 		mul	r3, r0, r8
 115:Drivers/lvgl/src/draw/lv_draw_arc.c ****                                 lv_trigo_sin(start_angle))  * rin) >> LV_TRIGO_SHIFT) - extra_area;
 709              		.loc 1 115 22 view .LVU243
 710 02c4 BDF80080 		ldrh	r8, [sp]
 711              	.LVL70:
 115:Drivers/lvgl/src/draw/lv_draw_arc.c ****                                 lv_trigo_sin(start_angle))  * rin) >> LV_TRIGO_SHIFT) - extra_area;
 712              		.loc 1 115 22 view .LVU244
 713 02c8 08EBE333 		add	r3, r8, r3, asr #15
 714 02cc 9BB2     		uxth	r3, r3
 116:Drivers/lvgl/src/draw/lv_draw_arc.c ****         area->x2 = x + ((lv_trigo_sin(start_angle + 90) * rout) >> LV_TRIGO_SHIFT) + extra_area;
 715              		.loc 1 116 87 view .LVU245
 716 02ce 9B1B     		subs	r3, r3, r6
 115:Drivers/lvgl/src/draw/lv_draw_arc.c ****                                 lv_trigo_sin(start_angle))  * rin) >> LV_TRIGO_SHIFT) - extra_area;
 717              		.loc 1 115 18 view .LVU246
 718 02d0 7B80     		strh	r3, [r7, #2]	@ movhi
 117:Drivers/lvgl/src/draw/lv_draw_arc.c ****         area->y2 = y + rout + extra_area;
 719              		.loc 1 117 9 is_stmt 1 view .LVU247
 117:Drivers/lvgl/src/draw/lv_draw_arc.c ****         area->y2 = y + rout + extra_area;
 720              		.loc 1 117 51 is_stmt 0 view .LVU248
 721 02d2 04F15A00 		add	r0, r4, #90
 117:Drivers/lvgl/src/draw/lv_draw_arc.c ****         area->y2 = y + rout + extra_area;
 722              		.loc 1 117 26 view .LVU249
 723 02d6 00B2     		sxth	r0, r0
 724 02d8 FFF7FEFF 		bl	lv_trigo_sin
 725              	.LVL71:
 117:Drivers/lvgl/src/draw/lv_draw_arc.c ****         area->y2 = y + rout + extra_area;
 726              		.loc 1 117 57 discriminator 1 view .LVU250
 727 02dc 00FB09F0 		mul	r0, r0, r9
 117:Drivers/lvgl/src/draw/lv_draw_arc.c ****         area->y2 = y + rout + extra_area;
 728              		.loc 1 117 22 discriminator 1 view .LVU251
 729 02e0 0BEBE033 		add	r3, fp, r0, asr #15
 117:Drivers/lvgl/src/draw/lv_draw_arc.c ****         area->y2 = y + rout + extra_area;
 730              		.loc 1 117 84 discriminator 1 view .LVU252
 731 02e4 16FA83F3 		uxtah	r3, r6, r3
 117:Drivers/lvgl/src/draw/lv_draw_arc.c ****         area->y2 = y + rout + extra_area;
 732              		.loc 1 117 18 discriminator 1 view .LVU253
 733 02e8 BB80     		strh	r3, [r7, #4]	@ movhi
 118:Drivers/lvgl/src/draw/lv_draw_arc.c ****     }
 734              		.loc 1 118 9 is_stmt 1 view .LVU254
 118:Drivers/lvgl/src/draw/lv_draw_arc.c ****     }
 735              		.loc 1 118 22 is_stmt 0 view .LVU255
 736 02ea A844     		add	r8, r8, r5
 118:Drivers/lvgl/src/draw/lv_draw_arc.c ****     }
 737              		.loc 1 118 29 view .LVU256
 738 02ec 16FA88F8 		uxtah	r8, r6, r8
 118:Drivers/lvgl/src/draw/lv_draw_arc.c ****     }
 739              		.loc 1 118 18 view .LVU257
 740 02f0 A7F80680 		strh	r8, [r7, #6]	@ movhi
 741 02f4 DBE6     		b	.L6
 742              	.LVL72:
 743              	.L21:
 115:Drivers/lvgl/src/draw/lv_draw_arc.c ****                                 lv_trigo_sin(start_angle))  * rin) >> LV_TRIGO_SHIFT) - extra_area;
 744              		.loc 1 115 26 discriminator 2 view .LVU258
 745 02f6 0298     		ldr	r0, [sp, #8]
 746 02f8 FFF7FEFF 		bl	lv_trigo_sin
 747              	.LVL73:
 748 02fc E0E7     		b	.L22
ARM GAS  /var/folders/lp/x54gwt890xv47sdkqj1k04q40000gn/T//cc7xEjuw.s 			page 32


 749              	.L46:
 750 02fe 00BF     		.align	2
 751              	.L45:
 752 0300 B7600BB6 		.word	-1240768329
 753              	.LVL74:
 754              	.L42:
 120:Drivers/lvgl/src/draw/lv_draw_arc.c ****         area->x1 = x - rout - extra_area;
 755              		.loc 1 120 32 discriminator 1 view .LVU259
 756 0304 022A     		cmp	r2, #2
 757 0306 7FF4C0AE 		bne	.L23
 121:Drivers/lvgl/src/draw/lv_draw_arc.c ****         area->y1 = y + ((lv_trigo_sin(end_angle) * rout) >> LV_TRIGO_SHIFT) - extra_area;
 758              		.loc 1 121 9 is_stmt 1 view .LVU260
 121:Drivers/lvgl/src/draw/lv_draw_arc.c ****         area->y1 = y + ((lv_trigo_sin(end_angle) * rout) >> LV_TRIGO_SHIFT) - extra_area;
 759              		.loc 1 121 22 is_stmt 0 view .LVU261
 760 030a 1FFA8BFB 		uxth	fp, fp
 761 030e ABEB0503 		sub	r3, fp, r5
 762              	.LVL75:
 121:Drivers/lvgl/src/draw/lv_draw_arc.c ****         area->y1 = y + ((lv_trigo_sin(end_angle) * rout) >> LV_TRIGO_SHIFT) - extra_area;
 763              		.loc 1 121 22 view .LVU262
 764 0312 9BB2     		uxth	r3, r3
 121:Drivers/lvgl/src/draw/lv_draw_arc.c ****         area->y1 = y + ((lv_trigo_sin(end_angle) * rout) >> LV_TRIGO_SHIFT) - extra_area;
 765              		.loc 1 121 29 view .LVU263
 766 0314 B6B2     		uxth	r6, r6
 121:Drivers/lvgl/src/draw/lv_draw_arc.c ****         area->y1 = y + ((lv_trigo_sin(end_angle) * rout) >> LV_TRIGO_SHIFT) - extra_area;
 767              		.loc 1 121 29 view .LVU264
 768 0316 9B1B     		subs	r3, r3, r6
 121:Drivers/lvgl/src/draw/lv_draw_arc.c ****         area->y1 = y + ((lv_trigo_sin(end_angle) * rout) >> LV_TRIGO_SHIFT) - extra_area;
 769              		.loc 1 121 18 view .LVU265
 770 0318 3B80     		strh	r3, [r7]	@ movhi
 122:Drivers/lvgl/src/draw/lv_draw_arc.c ****         area->x2 = x + ((LV_MAX(lv_trigo_sin(start_angle + 90),
 771              		.loc 1 122 9 is_stmt 1 view .LVU266
 122:Drivers/lvgl/src/draw/lv_draw_arc.c ****         area->x2 = x + ((LV_MAX(lv_trigo_sin(start_angle + 90),
 772              		.loc 1 122 26 is_stmt 0 view .LVU267
 773 031a 0FFA8AF0 		sxth	r0, r10
 774              	.LVL76:
 122:Drivers/lvgl/src/draw/lv_draw_arc.c ****         area->x2 = x + ((LV_MAX(lv_trigo_sin(start_angle + 90),
 775              		.loc 1 122 26 view .LVU268
 776 031e FFF7FEFF 		bl	lv_trigo_sin
 777              	.LVL77:
 122:Drivers/lvgl/src/draw/lv_draw_arc.c ****         area->x2 = x + ((LV_MAX(lv_trigo_sin(start_angle + 90),
 778              		.loc 1 122 50 discriminator 1 view .LVU269
 779 0322 09FB00F3 		mul	r3, r9, r0
 122:Drivers/lvgl/src/draw/lv_draw_arc.c ****         area->x2 = x + ((LV_MAX(lv_trigo_sin(start_angle + 90),
 780              		.loc 1 122 22 discriminator 1 view .LVU270
 781 0326 BDF80050 		ldrh	r5, [sp]
 782              	.LVL78:
 122:Drivers/lvgl/src/draw/lv_draw_arc.c ****         area->x2 = x + ((LV_MAX(lv_trigo_sin(start_angle + 90),
 783              		.loc 1 122 22 discriminator 1 view .LVU271
 784 032a 05EBE333 		add	r3, r5, r3, asr #15
 785 032e 9BB2     		uxth	r3, r3
 122:Drivers/lvgl/src/draw/lv_draw_arc.c ****         area->x2 = x + ((LV_MAX(lv_trigo_sin(start_angle + 90),
 786              		.loc 1 122 77 discriminator 1 view .LVU272
 787 0330 9B1B     		subs	r3, r3, r6
 122:Drivers/lvgl/src/draw/lv_draw_arc.c ****         area->x2 = x + ((LV_MAX(lv_trigo_sin(start_angle + 90),
 788              		.loc 1 122 18 discriminator 1 view .LVU273
 789 0332 7B80     		strh	r3, [r7, #2]	@ movhi
 123:Drivers/lvgl/src/draw/lv_draw_arc.c ****                                 lv_trigo_sin(end_angle + 90)) * rin) >> LV_TRIGO_SHIFT) + extra_are
ARM GAS  /var/folders/lp/x54gwt890xv47sdkqj1k04q40000gn/T//cc7xEjuw.s 			page 33


 790              		.loc 1 123 9 is_stmt 1 view .LVU274
 123:Drivers/lvgl/src/draw/lv_draw_arc.c ****                                 lv_trigo_sin(end_angle + 90)) * rin) >> LV_TRIGO_SHIFT) + extra_are
 791              		.loc 1 123 26 is_stmt 0 view .LVU275
 792 0334 04F15A03 		add	r3, r4, #90
 793 0338 1BB2     		sxth	r3, r3
 794 033a 0193     		str	r3, [sp, #4]
 795 033c 1846     		mov	r0, r3
 796 033e FFF7FEFF 		bl	lv_trigo_sin
 797              	.LVL79:
 798 0342 0090     		str	r0, [sp]
 799              	.LVL80:
 123:Drivers/lvgl/src/draw/lv_draw_arc.c ****                                 lv_trigo_sin(end_angle + 90)) * rin) >> LV_TRIGO_SHIFT) + extra_are
 800              		.loc 1 123 26 discriminator 1 view .LVU276
 801 0344 0AF15A0A 		add	r10, r10, #90
 802              	.LVL81:
 123:Drivers/lvgl/src/draw/lv_draw_arc.c ****                                 lv_trigo_sin(end_angle + 90)) * rin) >> LV_TRIGO_SHIFT) + extra_are
 803              		.loc 1 123 26 discriminator 1 view .LVU277
 804 0348 0FFA8AFA 		sxth	r10, r10
 805              	.LVL82:
 123:Drivers/lvgl/src/draw/lv_draw_arc.c ****                                 lv_trigo_sin(end_angle + 90)) * rin) >> LV_TRIGO_SHIFT) + extra_are
 806              		.loc 1 123 26 discriminator 1 view .LVU278
 807 034c 5046     		mov	r0, r10
 808 034e FFF7FEFF 		bl	lv_trigo_sin
 809              	.LVL83:
 123:Drivers/lvgl/src/draw/lv_draw_arc.c ****                                 lv_trigo_sin(end_angle + 90)) * rin) >> LV_TRIGO_SHIFT) + extra_are
 810              		.loc 1 123 26 discriminator 2 view .LVU279
 811 0352 009A     		ldr	r2, [sp]
 812 0354 8242     		cmp	r2, r0
 813 0356 15DD     		ble	.L24
 123:Drivers/lvgl/src/draw/lv_draw_arc.c ****                                 lv_trigo_sin(end_angle + 90)) * rin) >> LV_TRIGO_SHIFT) + extra_are
 814              		.loc 1 123 26 discriminator 1 view .LVU280
 815 0358 0198     		ldr	r0, [sp, #4]
 816 035a FFF7FEFF 		bl	lv_trigo_sin
 817              	.LVL84:
 818              	.L25:
 124:Drivers/lvgl/src/draw/lv_draw_arc.c ****         area->y2 = y + ((lv_trigo_sin(start_angle) * rout) >> LV_TRIGO_SHIFT) + extra_area;
 819              		.loc 1 124 63 view .LVU281
 820 035e 00FB08F3 		mul	r3, r0, r8
 123:Drivers/lvgl/src/draw/lv_draw_arc.c ****                                 lv_trigo_sin(end_angle + 90)) * rin) >> LV_TRIGO_SHIFT) + extra_are
 821              		.loc 1 123 22 view .LVU282
 822 0362 0BEBE33B 		add	fp, fp, r3, asr #15
 124:Drivers/lvgl/src/draw/lv_draw_arc.c ****         area->y2 = y + ((lv_trigo_sin(start_angle) * rout) >> LV_TRIGO_SHIFT) + extra_area;
 823              		.loc 1 124 89 view .LVU283
 824 0366 16FA8BFB 		uxtah	fp, r6, fp
 123:Drivers/lvgl/src/draw/lv_draw_arc.c ****                                 lv_trigo_sin(end_angle + 90)) * rin) >> LV_TRIGO_SHIFT) + extra_are
 825              		.loc 1 123 18 view .LVU284
 826 036a A7F804B0 		strh	fp, [r7, #4]	@ movhi
 125:Drivers/lvgl/src/draw/lv_draw_arc.c ****     }
 827              		.loc 1 125 9 is_stmt 1 view .LVU285
 125:Drivers/lvgl/src/draw/lv_draw_arc.c ****     }
 828              		.loc 1 125 26 is_stmt 0 view .LVU286
 829 036e 20B2     		sxth	r0, r4
 830 0370 FFF7FEFF 		bl	lv_trigo_sin
 831              	.LVL85:
 125:Drivers/lvgl/src/draw/lv_draw_arc.c ****     }
 832              		.loc 1 125 52 discriminator 1 view .LVU287
 833 0374 00FB09F0 		mul	r0, r0, r9
ARM GAS  /var/folders/lp/x54gwt890xv47sdkqj1k04q40000gn/T//cc7xEjuw.s 			page 34


 125:Drivers/lvgl/src/draw/lv_draw_arc.c ****     }
 834              		.loc 1 125 22 discriminator 1 view .LVU288
 835 0378 05EBE035 		add	r5, r5, r0, asr #15
 125:Drivers/lvgl/src/draw/lv_draw_arc.c ****     }
 836              		.loc 1 125 79 discriminator 1 view .LVU289
 837 037c 16FA85F5 		uxtah	r5, r6, r5
 125:Drivers/lvgl/src/draw/lv_draw_arc.c ****     }
 838              		.loc 1 125 18 discriminator 1 view .LVU290
 839 0380 FD80     		strh	r5, [r7, #6]	@ movhi
 125:Drivers/lvgl/src/draw/lv_draw_arc.c ****     }
 840              		.loc 1 125 18 view .LVU291
 841 0382 94E6     		b	.L6
 842              	.L24:
 123:Drivers/lvgl/src/draw/lv_draw_arc.c ****                                 lv_trigo_sin(end_angle + 90)) * rin) >> LV_TRIGO_SHIFT) + extra_are
 843              		.loc 1 123 26 discriminator 2 view .LVU292
 844 0384 5046     		mov	r0, r10
 845 0386 FFF7FEFF 		bl	lv_trigo_sin
 846              	.LVL86:
 847 038a E8E7     		b	.L25
 848              	.LVL87:
 849              	.L43:
 127:Drivers/lvgl/src/draw/lv_draw_arc.c ****         area->x1 = x + ((lv_trigo_sin(start_angle + 90) * rout) >> LV_TRIGO_SHIFT) - extra_area;
 850              		.loc 1 127 32 discriminator 1 view .LVU293
 851 038c 032A     		cmp	r2, #3
 852 038e 7FF47FAE 		bne	.L26
 128:Drivers/lvgl/src/draw/lv_draw_arc.c ****         area->y1 = y - rout - extra_area;
 853              		.loc 1 128 9 is_stmt 1 view .LVU294
 128:Drivers/lvgl/src/draw/lv_draw_arc.c ****         area->y1 = y - rout - extra_area;
 854              		.loc 1 128 51 is_stmt 0 view .LVU295
 855 0392 04F15A00 		add	r0, r4, #90
 856              	.LVL88:
 128:Drivers/lvgl/src/draw/lv_draw_arc.c ****         area->y1 = y - rout - extra_area;
 857              		.loc 1 128 26 view .LVU296
 858 0396 00B2     		sxth	r0, r0
 859 0398 FFF7FEFF 		bl	lv_trigo_sin
 860              	.LVL89:
 128:Drivers/lvgl/src/draw/lv_draw_arc.c ****         area->y1 = y - rout - extra_area;
 861              		.loc 1 128 57 discriminator 1 view .LVU297
 862 039c 09FB00F3 		mul	r3, r9, r0
 128:Drivers/lvgl/src/draw/lv_draw_arc.c ****         area->y1 = y - rout - extra_area;
 863              		.loc 1 128 22 discriminator 1 view .LVU298
 864 03a0 1FFA8BFB 		uxth	fp, fp
 865              	.LVL90:
 128:Drivers/lvgl/src/draw/lv_draw_arc.c ****         area->y1 = y - rout - extra_area;
 866              		.loc 1 128 22 discriminator 1 view .LVU299
 867 03a4 0BEBE333 		add	r3, fp, r3, asr #15
 868 03a8 9BB2     		uxth	r3, r3
 128:Drivers/lvgl/src/draw/lv_draw_arc.c ****         area->y1 = y - rout - extra_area;
 869              		.loc 1 128 84 discriminator 1 view .LVU300
 870 03aa B6B2     		uxth	r6, r6
 128:Drivers/lvgl/src/draw/lv_draw_arc.c ****         area->y1 = y - rout - extra_area;
 871              		.loc 1 128 84 discriminator 1 view .LVU301
 872 03ac 9B1B     		subs	r3, r3, r6
 128:Drivers/lvgl/src/draw/lv_draw_arc.c ****         area->y1 = y - rout - extra_area;
 873              		.loc 1 128 18 discriminator 1 view .LVU302
 874 03ae 3B80     		strh	r3, [r7]	@ movhi
 129:Drivers/lvgl/src/draw/lv_draw_arc.c ****         area->x2 = x + ((lv_trigo_sin(end_angle + 90) * rout) >> LV_TRIGO_SHIFT) + extra_area;
ARM GAS  /var/folders/lp/x54gwt890xv47sdkqj1k04q40000gn/T//cc7xEjuw.s 			page 35


 875              		.loc 1 129 9 is_stmt 1 view .LVU303
 129:Drivers/lvgl/src/draw/lv_draw_arc.c ****         area->x2 = x + ((lv_trigo_sin(end_angle + 90) * rout) >> LV_TRIGO_SHIFT) + extra_area;
 876              		.loc 1 129 22 is_stmt 0 view .LVU304
 877 03b0 BDF80030 		ldrh	r3, [sp]
 878 03b4 0093     		str	r3, [sp]
 879 03b6 5B1B     		subs	r3, r3, r5
 880 03b8 9BB2     		uxth	r3, r3
 129:Drivers/lvgl/src/draw/lv_draw_arc.c ****         area->x2 = x + ((lv_trigo_sin(end_angle + 90) * rout) >> LV_TRIGO_SHIFT) + extra_area;
 881              		.loc 1 129 29 view .LVU305
 882 03ba 9B1B     		subs	r3, r3, r6
 129:Drivers/lvgl/src/draw/lv_draw_arc.c ****         area->x2 = x + ((lv_trigo_sin(end_angle + 90) * rout) >> LV_TRIGO_SHIFT) + extra_area;
 883              		.loc 1 129 18 view .LVU306
 884 03bc 7B80     		strh	r3, [r7, #2]	@ movhi
 130:Drivers/lvgl/src/draw/lv_draw_arc.c ****         area->y2 = y + (LV_MAX(lv_trigo_sin(end_angle) * rin,
 885              		.loc 1 130 9 is_stmt 1 view .LVU307
 130:Drivers/lvgl/src/draw/lv_draw_arc.c ****         area->y2 = y + (LV_MAX(lv_trigo_sin(end_angle) * rin,
 886              		.loc 1 130 49 is_stmt 0 view .LVU308
 887 03be 0AF15A00 		add	r0, r10, #90
 130:Drivers/lvgl/src/draw/lv_draw_arc.c ****         area->y2 = y + (LV_MAX(lv_trigo_sin(end_angle) * rin,
 888              		.loc 1 130 26 view .LVU309
 889 03c2 00B2     		sxth	r0, r0
 890 03c4 FFF7FEFF 		bl	lv_trigo_sin
 891              	.LVL91:
 130:Drivers/lvgl/src/draw/lv_draw_arc.c ****         area->y2 = y + (LV_MAX(lv_trigo_sin(end_angle) * rin,
 892              		.loc 1 130 55 discriminator 1 view .LVU310
 893 03c8 00FB09F0 		mul	r0, r0, r9
 130:Drivers/lvgl/src/draw/lv_draw_arc.c ****         area->y2 = y + (LV_MAX(lv_trigo_sin(end_angle) * rin,
 894              		.loc 1 130 22 discriminator 1 view .LVU311
 895 03cc 0BEBE03B 		add	fp, fp, r0, asr #15
 130:Drivers/lvgl/src/draw/lv_draw_arc.c ****         area->y2 = y + (LV_MAX(lv_trigo_sin(end_angle) * rin,
 896              		.loc 1 130 82 discriminator 1 view .LVU312
 897 03d0 16FA8BFB 		uxtah	fp, r6, fp
 130:Drivers/lvgl/src/draw/lv_draw_arc.c ****         area->y2 = y + (LV_MAX(lv_trigo_sin(end_angle) * rin,
 898              		.loc 1 130 18 discriminator 1 view .LVU313
 899 03d4 A7F804B0 		strh	fp, [r7, #4]	@ movhi
 131:Drivers/lvgl/src/draw/lv_draw_arc.c ****                                lv_trigo_sin(start_angle) * rin) >> LV_TRIGO_SHIFT) + extra_area;
 900              		.loc 1 131 9 is_stmt 1 view .LVU314
 131:Drivers/lvgl/src/draw/lv_draw_arc.c ****                                lv_trigo_sin(start_angle) * rin) >> LV_TRIGO_SHIFT) + extra_area;
 901              		.loc 1 131 25 is_stmt 0 view .LVU315
 902 03d8 0FFA8AFA 		sxth	r10, r10
 131:Drivers/lvgl/src/draw/lv_draw_arc.c ****                                lv_trigo_sin(start_angle) * rin) >> LV_TRIGO_SHIFT) + extra_area;
 903              		.loc 1 131 25 view .LVU316
 904 03dc 5046     		mov	r0, r10
 905 03de FFF7FEFF 		bl	lv_trigo_sin
 906              	.LVL92:
 131:Drivers/lvgl/src/draw/lv_draw_arc.c ****                                lv_trigo_sin(start_angle) * rin) >> LV_TRIGO_SHIFT) + extra_area;
 907              		.loc 1 131 25 discriminator 1 view .LVU317
 908 03e2 08FB00F5 		mul	r5, r8, r0
 909              	.LVL93:
 131:Drivers/lvgl/src/draw/lv_draw_arc.c ****                                lv_trigo_sin(start_angle) * rin) >> LV_TRIGO_SHIFT) + extra_area;
 910              		.loc 1 131 25 discriminator 1 view .LVU318
 911 03e6 24B2     		sxth	r4, r4
 131:Drivers/lvgl/src/draw/lv_draw_arc.c ****                                lv_trigo_sin(start_angle) * rin) >> LV_TRIGO_SHIFT) + extra_area;
 912              		.loc 1 131 25 discriminator 1 view .LVU319
 913 03e8 2046     		mov	r0, r4
 914 03ea FFF7FEFF 		bl	lv_trigo_sin
 915              	.LVL94:
ARM GAS  /var/folders/lp/x54gwt890xv47sdkqj1k04q40000gn/T//cc7xEjuw.s 			page 36


 131:Drivers/lvgl/src/draw/lv_draw_arc.c ****                                lv_trigo_sin(start_angle) * rin) >> LV_TRIGO_SHIFT) + extra_area;
 916              		.loc 1 131 25 discriminator 2 view .LVU320
 917 03ee 00FB08F0 		mul	r0, r0, r8
 131:Drivers/lvgl/src/draw/lv_draw_arc.c ****                                lv_trigo_sin(start_angle) * rin) >> LV_TRIGO_SHIFT) + extra_area;
 918              		.loc 1 131 22 discriminator 2 view .LVU321
 919 03f2 8542     		cmp	r5, r0
 920 03f4 0CDD     		ble	.L27
 131:Drivers/lvgl/src/draw/lv_draw_arc.c ****                                lv_trigo_sin(start_angle) * rin) >> LV_TRIGO_SHIFT) + extra_area;
 921              		.loc 1 131 25 discriminator 1 view .LVU322
 922 03f6 5046     		mov	r0, r10
 923 03f8 FFF7FEFF 		bl	lv_trigo_sin
 924              	.LVL95:
 925 03fc 00FB08F3 		mul	r3, r0, r8
 131:Drivers/lvgl/src/draw/lv_draw_arc.c ****                                lv_trigo_sin(start_angle) * rin) >> LV_TRIGO_SHIFT) + extra_area;
 926              		.loc 1 131 22 discriminator 1 view .LVU323
 927 0400 C3F3CF33 		ubfx	r3, r3, #15, #16
 928              	.L28:
 131:Drivers/lvgl/src/draw/lv_draw_arc.c ****                                lv_trigo_sin(start_angle) * rin) >> LV_TRIGO_SHIFT) + extra_area;
 929              		.loc 1 131 22 discriminator 4 view .LVU324
 930 0404 009A     		ldr	r2, [sp]
 931 0406 1A44     		add	r2, r2, r3
 132:Drivers/lvgl/src/draw/lv_draw_arc.c ****     }
 932              		.loc 1 132 84 view .LVU325
 933 0408 16FA82F3 		uxtah	r3, r6, r2
 131:Drivers/lvgl/src/draw/lv_draw_arc.c ****                                lv_trigo_sin(start_angle) * rin) >> LV_TRIGO_SHIFT) + extra_area;
 934              		.loc 1 131 18 discriminator 4 view .LVU326
 935 040c FB80     		strh	r3, [r7, #6]	@ movhi
 131:Drivers/lvgl/src/draw/lv_draw_arc.c ****                                lv_trigo_sin(start_angle) * rin) >> LV_TRIGO_SHIFT) + extra_area;
 936              		.loc 1 131 18 view .LVU327
 937 040e 4EE6     		b	.L6
 938              	.L27:
 131:Drivers/lvgl/src/draw/lv_draw_arc.c ****                                lv_trigo_sin(start_angle) * rin) >> LV_TRIGO_SHIFT) + extra_area;
 939              		.loc 1 131 25 discriminator 2 view .LVU328
 940 0410 2046     		mov	r0, r4
 941 0412 FFF7FEFF 		bl	lv_trigo_sin
 942              	.LVL96:
 131:Drivers/lvgl/src/draw/lv_draw_arc.c ****                                lv_trigo_sin(start_angle) * rin) >> LV_TRIGO_SHIFT) + extra_area;
 943              		.loc 1 131 25 discriminator 1 view .LVU329
 944 0416 00FB08F3 		mul	r3, r0, r8
 131:Drivers/lvgl/src/draw/lv_draw_arc.c ****                                lv_trigo_sin(start_angle) * rin) >> LV_TRIGO_SHIFT) + extra_area;
 945              		.loc 1 131 22 discriminator 2 view .LVU330
 946 041a C3F3CF33 		ubfx	r3, r3, #15, #16
 947 041e F1E7     		b	.L28
 948              	.LVL97:
 949              	.L44:
 134:Drivers/lvgl/src/draw/lv_draw_arc.c ****         area->x1 = x + ((LV_MIN(lv_trigo_sin(end_angle + 90),
 950              		.loc 1 134 32 discriminator 1 view .LVU331
 951 0420 002A     		cmp	r2, #0
 952 0422 7FF438AE 		bne	.L29
 135:Drivers/lvgl/src/draw/lv_draw_arc.c ****                                 lv_trigo_sin(start_angle + 90)) * rin) >> LV_TRIGO_SHIFT) - extra_a
 953              		.loc 1 135 9 is_stmt 1 view .LVU332
 135:Drivers/lvgl/src/draw/lv_draw_arc.c ****                                 lv_trigo_sin(start_angle + 90)) * rin) >> LV_TRIGO_SHIFT) - extra_a
 954              		.loc 1 135 26 is_stmt 0 view .LVU333
 955 0426 0AF15A03 		add	r3, r10, #90
 956              	.LVL98:
 135:Drivers/lvgl/src/draw/lv_draw_arc.c ****                                 lv_trigo_sin(start_angle + 90)) * rin) >> LV_TRIGO_SHIFT) - extra_a
 957              		.loc 1 135 26 view .LVU334
ARM GAS  /var/folders/lp/x54gwt890xv47sdkqj1k04q40000gn/T//cc7xEjuw.s 			page 37


 958 042a 1BB2     		sxth	r3, r3
 959 042c 0293     		str	r3, [sp, #8]
 960 042e 1846     		mov	r0, r3
 961              	.LVL99:
 135:Drivers/lvgl/src/draw/lv_draw_arc.c ****                                 lv_trigo_sin(start_angle + 90)) * rin) >> LV_TRIGO_SHIFT) - extra_a
 962              		.loc 1 135 26 view .LVU335
 963 0430 FFF7FEFF 		bl	lv_trigo_sin
 964              	.LVL100:
 135:Drivers/lvgl/src/draw/lv_draw_arc.c ****                                 lv_trigo_sin(start_angle + 90)) * rin) >> LV_TRIGO_SHIFT) - extra_a
 965              		.loc 1 135 26 view .LVU336
 966 0434 0190     		str	r0, [sp, #4]
 135:Drivers/lvgl/src/draw/lv_draw_arc.c ****                                 lv_trigo_sin(start_angle + 90)) * rin) >> LV_TRIGO_SHIFT) - extra_a
 967              		.loc 1 135 26 discriminator 1 view .LVU337
 968 0436 04F15A03 		add	r3, r4, #90
 969 043a 19B2     		sxth	r1, r3
 970 043c 0391     		str	r1, [sp, #12]
 971 043e 0846     		mov	r0, r1
 972 0440 FFF7FEFF 		bl	lv_trigo_sin
 973              	.LVL101:
 135:Drivers/lvgl/src/draw/lv_draw_arc.c ****                                 lv_trigo_sin(start_angle + 90)) * rin) >> LV_TRIGO_SHIFT) - extra_a
 974              		.loc 1 135 26 discriminator 2 view .LVU338
 975 0444 019A     		ldr	r2, [sp, #4]
 976 0446 8242     		cmp	r2, r0
 977 0448 29DA     		bge	.L30
 135:Drivers/lvgl/src/draw/lv_draw_arc.c ****                                 lv_trigo_sin(start_angle + 90)) * rin) >> LV_TRIGO_SHIFT) - extra_a
 978              		.loc 1 135 26 discriminator 1 view .LVU339
 979 044a 0298     		ldr	r0, [sp, #8]
 980 044c FFF7FEFF 		bl	lv_trigo_sin
 981              	.LVL102:
 982              	.L31:
 136:Drivers/lvgl/src/draw/lv_draw_arc.c ****         area->y1 = y + ((lv_trigo_sin(start_angle) * rout) >> LV_TRIGO_SHIFT) - extra_area;
 983              		.loc 1 136 65 view .LVU340
 984 0450 00FB08F3 		mul	r3, r0, r8
 135:Drivers/lvgl/src/draw/lv_draw_arc.c ****                                 lv_trigo_sin(start_angle + 90)) * rin) >> LV_TRIGO_SHIFT) - extra_a
 985              		.loc 1 135 22 view .LVU341
 986 0454 1FFA8BFB 		uxth	fp, fp
 987              	.LVL103:
 135:Drivers/lvgl/src/draw/lv_draw_arc.c ****                                 lv_trigo_sin(start_angle + 90)) * rin) >> LV_TRIGO_SHIFT) - extra_a
 988              		.loc 1 135 22 view .LVU342
 989 0458 0BEBE333 		add	r3, fp, r3, asr #15
 990 045c 9BB2     		uxth	r3, r3
 136:Drivers/lvgl/src/draw/lv_draw_arc.c ****         area->y1 = y + ((lv_trigo_sin(start_angle) * rout) >> LV_TRIGO_SHIFT) - extra_area;
 991              		.loc 1 136 91 view .LVU343
 992 045e B6B2     		uxth	r6, r6
 136:Drivers/lvgl/src/draw/lv_draw_arc.c ****         area->y1 = y + ((lv_trigo_sin(start_angle) * rout) >> LV_TRIGO_SHIFT) - extra_area;
 993              		.loc 1 136 91 view .LVU344
 994 0460 9B1B     		subs	r3, r3, r6
 135:Drivers/lvgl/src/draw/lv_draw_arc.c ****                                 lv_trigo_sin(start_angle + 90)) * rin) >> LV_TRIGO_SHIFT) - extra_a
 995              		.loc 1 135 18 view .LVU345
 996 0462 3B80     		strh	r3, [r7]	@ movhi
 137:Drivers/lvgl/src/draw/lv_draw_arc.c ****         area->x2 = x + rout + extra_area;
 997              		.loc 1 137 9 is_stmt 1 view .LVU346
 137:Drivers/lvgl/src/draw/lv_draw_arc.c ****         area->x2 = x + rout + extra_area;
 998              		.loc 1 137 26 is_stmt 0 view .LVU347
 999 0464 20B2     		sxth	r0, r4
 1000 0466 FFF7FEFF 		bl	lv_trigo_sin
 1001              	.LVL104:
ARM GAS  /var/folders/lp/x54gwt890xv47sdkqj1k04q40000gn/T//cc7xEjuw.s 			page 38


 137:Drivers/lvgl/src/draw/lv_draw_arc.c ****         area->x2 = x + rout + extra_area;
 1002              		.loc 1 137 52 discriminator 1 view .LVU348
 1003 046a 09FB00F3 		mul	r3, r9, r0
 137:Drivers/lvgl/src/draw/lv_draw_arc.c ****         area->x2 = x + rout + extra_area;
 1004              		.loc 1 137 22 discriminator 1 view .LVU349
 1005 046e BDF80040 		ldrh	r4, [sp]
 1006              	.LVL105:
 137:Drivers/lvgl/src/draw/lv_draw_arc.c ****         area->x2 = x + rout + extra_area;
 1007              		.loc 1 137 22 discriminator 1 view .LVU350
 1008 0472 04EBE333 		add	r3, r4, r3, asr #15
 1009 0476 9BB2     		uxth	r3, r3
 137:Drivers/lvgl/src/draw/lv_draw_arc.c ****         area->x2 = x + rout + extra_area;
 1010              		.loc 1 137 79 discriminator 1 view .LVU351
 1011 0478 9B1B     		subs	r3, r3, r6
 137:Drivers/lvgl/src/draw/lv_draw_arc.c ****         area->x2 = x + rout + extra_area;
 1012              		.loc 1 137 18 discriminator 1 view .LVU352
 1013 047a 7B80     		strh	r3, [r7, #2]	@ movhi
 138:Drivers/lvgl/src/draw/lv_draw_arc.c ****         area->y2 = y + ((lv_trigo_sin(end_angle) * rout) >> LV_TRIGO_SHIFT) + extra_area;
 1014              		.loc 1 138 9 is_stmt 1 view .LVU353
 138:Drivers/lvgl/src/draw/lv_draw_arc.c ****         area->y2 = y + ((lv_trigo_sin(end_angle) * rout) >> LV_TRIGO_SHIFT) + extra_area;
 1015              		.loc 1 138 22 is_stmt 0 view .LVU354
 1016 047c AB44     		add	fp, fp, r5
 138:Drivers/lvgl/src/draw/lv_draw_arc.c ****         area->y2 = y + ((lv_trigo_sin(end_angle) * rout) >> LV_TRIGO_SHIFT) + extra_area;
 1017              		.loc 1 138 29 view .LVU355
 1018 047e 16FA8BFB 		uxtah	fp, r6, fp
 138:Drivers/lvgl/src/draw/lv_draw_arc.c ****         area->y2 = y + ((lv_trigo_sin(end_angle) * rout) >> LV_TRIGO_SHIFT) + extra_area;
 1019              		.loc 1 138 18 view .LVU356
 1020 0482 A7F804B0 		strh	fp, [r7, #4]	@ movhi
 139:Drivers/lvgl/src/draw/lv_draw_arc.c **** 
 1021              		.loc 1 139 9 is_stmt 1 view .LVU357
 139:Drivers/lvgl/src/draw/lv_draw_arc.c **** 
 1022              		.loc 1 139 26 is_stmt 0 view .LVU358
 1023 0486 0FFA8AF0 		sxth	r0, r10
 1024 048a FFF7FEFF 		bl	lv_trigo_sin
 1025              	.LVL106:
 139:Drivers/lvgl/src/draw/lv_draw_arc.c **** 
 1026              		.loc 1 139 50 discriminator 1 view .LVU359
 1027 048e 00FB09F9 		mul	r9, r0, r9
 139:Drivers/lvgl/src/draw/lv_draw_arc.c **** 
 1028              		.loc 1 139 22 discriminator 1 view .LVU360
 1029 0492 04EBE934 		add	r4, r4, r9, asr #15
 139:Drivers/lvgl/src/draw/lv_draw_arc.c **** 
 1030              		.loc 1 139 77 discriminator 1 view .LVU361
 1031 0496 16FA84F4 		uxtah	r4, r6, r4
 139:Drivers/lvgl/src/draw/lv_draw_arc.c **** 
 1032              		.loc 1 139 18 discriminator 1 view .LVU362
 1033 049a FC80     		strh	r4, [r7, #6]	@ movhi
 139:Drivers/lvgl/src/draw/lv_draw_arc.c **** 
 1034              		.loc 1 139 18 view .LVU363
 1035 049c 07E6     		b	.L6
 1036              	.LVL107:
 1037              	.L30:
 135:Drivers/lvgl/src/draw/lv_draw_arc.c ****                                 lv_trigo_sin(start_angle + 90)) * rin) >> LV_TRIGO_SHIFT) - extra_a
 1038              		.loc 1 135 26 discriminator 2 view .LVU364
 1039 049e 0398     		ldr	r0, [sp, #12]
 1040 04a0 FFF7FEFF 		bl	lv_trigo_sin
 1041              	.LVL108:
ARM GAS  /var/folders/lp/x54gwt890xv47sdkqj1k04q40000gn/T//cc7xEjuw.s 			page 39


 1042 04a4 D4E7     		b	.L31
 1043              		.cfi_endproc
 1044              	.LFE57:
 1046 04a6 00BF     		.text
 1047              	.Letext0:
 1048              		.file 3 "/Users/jr/Library/Application Support/Code/User/globalStorage/bmd.stm32-for-vscode/@xpack
 1049              		.file 4 "/Users/jr/Library/Application Support/Code/User/globalStorage/bmd.stm32-for-vscode/@xpack
 1050              		.file 5 "/Users/jr/Library/Application Support/Code/User/globalStorage/bmd.stm32-for-vscode/@xpack
 1051              		.file 6 "Drivers/lvgl/src/draw/../misc/../font/../misc/lv_area.h"
 1052              		.file 7 "Drivers/lvgl/src/draw/../misc/../font/lv_font.h"
 1053              		.file 8 "Drivers/lvgl/src/draw/../misc/lv_types.h"
 1054              		.file 9 "Drivers/lvgl/src/draw/../misc/lv_txt.h"
 1055              		.file 10 "Drivers/lvgl/src/draw/../misc/lv_bidi.h"
 1056              		.file 11 "Drivers/lvgl/src/draw/../misc/lv_style.h"
 1057              		.file 12 "Drivers/lvgl/src/draw/lv_img_buf.h"
 1058              		.file 13 "Drivers/lvgl/src/draw/lv_draw_rect.h"
 1059              		.file 14 "Drivers/lvgl/src/draw/lv_draw_label.h"
 1060              		.file 15 "Drivers/lvgl/src/draw/lv_draw_img.h"
 1061              		.file 16 "Drivers/lvgl/src/draw/lv_draw_line.h"
 1062              		.file 17 "Drivers/lvgl/src/draw/lv_draw_arc.h"
 1063              		.file 18 "Drivers/lvgl/src/draw/lv_draw_layer.h"
 1064              		.file 19 "Drivers/lvgl/src/draw/lv_draw.h"
 1065              		.file 20 "Drivers/lvgl/src/draw/../misc/lv_math.h"
 1066              		.file 21 "Drivers/lvgl/src/draw/../misc/lv_mem.h"
ARM GAS  /var/folders/lp/x54gwt890xv47sdkqj1k04q40000gn/T//cc7xEjuw.s 			page 40

