ARM GAS  /var/folders/lp/x54gwt890xv47sdkqj1k04q40000gn/T//cceBhAPU.s 			page 1


   1              		.cpu cortex-m4
   2              		.arch armv7e-m
   3              		.fpu fpv4-sp-d16
   4              		.eabi_attribute 27, 1
   5              		.eabi_attribute 28, 1
   6              		.eabi_attribute 20, 1
   7              		.eabi_attribute 21, 1
   8              		.eabi_attribute 23, 3
   9              		.eabi_attribute 24, 1
  10              		.eabi_attribute 25, 1
  11              		.eabi_attribute 26, 1
  12              		.eabi_attribute 30, 1
  13              		.eabi_attribute 34, 1
  14              		.eabi_attribute 18, 4
  15              		.file	"lv_draw_sw.c"
  16              		.text
  17              	.Ltext0:
  18              		.cfi_sections	.debug_frame
  19              		.file 1 "Drivers/lvgl/src/draw/sw/lv_draw_sw.c"
  20              		.section	.text.lv_draw_sw_wait_for_finish,"ax",%progbits
  21              		.align	1
  22              		.global	lv_draw_sw_wait_for_finish
  23              		.syntax unified
  24              		.thumb
  25              		.thumb_func
  27              	lv_draw_sw_wait_for_finish:
  28              	.LVL0:
  29              	.LFB58:
   1:Drivers/lvgl/src/draw/sw/lv_draw_sw.c **** /**
   2:Drivers/lvgl/src/draw/sw/lv_draw_sw.c ****  * @file lv_draw_sw.c
   3:Drivers/lvgl/src/draw/sw/lv_draw_sw.c ****  *
   4:Drivers/lvgl/src/draw/sw/lv_draw_sw.c ****  */
   5:Drivers/lvgl/src/draw/sw/lv_draw_sw.c **** 
   6:Drivers/lvgl/src/draw/sw/lv_draw_sw.c **** /*********************
   7:Drivers/lvgl/src/draw/sw/lv_draw_sw.c ****  *      INCLUDES
   8:Drivers/lvgl/src/draw/sw/lv_draw_sw.c ****  *********************/
   9:Drivers/lvgl/src/draw/sw/lv_draw_sw.c **** #include "../lv_draw.h"
  10:Drivers/lvgl/src/draw/sw/lv_draw_sw.c **** #include "lv_draw_sw.h"
  11:Drivers/lvgl/src/draw/sw/lv_draw_sw.c **** 
  12:Drivers/lvgl/src/draw/sw/lv_draw_sw.c **** /*********************
  13:Drivers/lvgl/src/draw/sw/lv_draw_sw.c ****  *      DEFINES
  14:Drivers/lvgl/src/draw/sw/lv_draw_sw.c ****  *********************/
  15:Drivers/lvgl/src/draw/sw/lv_draw_sw.c **** 
  16:Drivers/lvgl/src/draw/sw/lv_draw_sw.c **** /**********************
  17:Drivers/lvgl/src/draw/sw/lv_draw_sw.c ****  *      TYPEDEFS
  18:Drivers/lvgl/src/draw/sw/lv_draw_sw.c ****  **********************/
  19:Drivers/lvgl/src/draw/sw/lv_draw_sw.c **** 
  20:Drivers/lvgl/src/draw/sw/lv_draw_sw.c **** /**********************
  21:Drivers/lvgl/src/draw/sw/lv_draw_sw.c ****  *  STATIC PROTOTYPES
  22:Drivers/lvgl/src/draw/sw/lv_draw_sw.c ****  **********************/
  23:Drivers/lvgl/src/draw/sw/lv_draw_sw.c **** 
  24:Drivers/lvgl/src/draw/sw/lv_draw_sw.c **** /**********************
  25:Drivers/lvgl/src/draw/sw/lv_draw_sw.c ****  *  GLOBAL PROTOTYPES
  26:Drivers/lvgl/src/draw/sw/lv_draw_sw.c ****  **********************/
  27:Drivers/lvgl/src/draw/sw/lv_draw_sw.c **** 
  28:Drivers/lvgl/src/draw/sw/lv_draw_sw.c **** /**********************
  29:Drivers/lvgl/src/draw/sw/lv_draw_sw.c ****  *  STATIC VARIABLES
ARM GAS  /var/folders/lp/x54gwt890xv47sdkqj1k04q40000gn/T//cceBhAPU.s 			page 2


  30:Drivers/lvgl/src/draw/sw/lv_draw_sw.c ****  **********************/
  31:Drivers/lvgl/src/draw/sw/lv_draw_sw.c **** 
  32:Drivers/lvgl/src/draw/sw/lv_draw_sw.c **** /**********************
  33:Drivers/lvgl/src/draw/sw/lv_draw_sw.c ****  *      MACROS
  34:Drivers/lvgl/src/draw/sw/lv_draw_sw.c ****  **********************/
  35:Drivers/lvgl/src/draw/sw/lv_draw_sw.c **** 
  36:Drivers/lvgl/src/draw/sw/lv_draw_sw.c **** /**********************
  37:Drivers/lvgl/src/draw/sw/lv_draw_sw.c ****  *   GLOBAL FUNCTIONS
  38:Drivers/lvgl/src/draw/sw/lv_draw_sw.c ****  **********************/
  39:Drivers/lvgl/src/draw/sw/lv_draw_sw.c **** 
  40:Drivers/lvgl/src/draw/sw/lv_draw_sw.c **** void lv_draw_sw_init_ctx(lv_disp_drv_t * drv, lv_draw_ctx_t * draw_ctx)
  41:Drivers/lvgl/src/draw/sw/lv_draw_sw.c **** {
  42:Drivers/lvgl/src/draw/sw/lv_draw_sw.c ****     LV_UNUSED(drv);
  43:Drivers/lvgl/src/draw/sw/lv_draw_sw.c **** 
  44:Drivers/lvgl/src/draw/sw/lv_draw_sw.c ****     lv_draw_sw_ctx_t * draw_sw_ctx = (lv_draw_sw_ctx_t *) draw_ctx;
  45:Drivers/lvgl/src/draw/sw/lv_draw_sw.c ****     lv_memset_00(draw_sw_ctx, sizeof(lv_draw_sw_ctx_t));
  46:Drivers/lvgl/src/draw/sw/lv_draw_sw.c **** 
  47:Drivers/lvgl/src/draw/sw/lv_draw_sw.c ****     draw_sw_ctx->base_draw.draw_arc = lv_draw_sw_arc;
  48:Drivers/lvgl/src/draw/sw/lv_draw_sw.c ****     draw_sw_ctx->base_draw.draw_rect = lv_draw_sw_rect;
  49:Drivers/lvgl/src/draw/sw/lv_draw_sw.c ****     draw_sw_ctx->base_draw.draw_bg = lv_draw_sw_bg;
  50:Drivers/lvgl/src/draw/sw/lv_draw_sw.c ****     draw_sw_ctx->base_draw.draw_letter = lv_draw_sw_letter;
  51:Drivers/lvgl/src/draw/sw/lv_draw_sw.c ****     draw_sw_ctx->base_draw.draw_img_decoded = lv_draw_sw_img_decoded;
  52:Drivers/lvgl/src/draw/sw/lv_draw_sw.c ****     draw_sw_ctx->base_draw.draw_line = lv_draw_sw_line;
  53:Drivers/lvgl/src/draw/sw/lv_draw_sw.c ****     draw_sw_ctx->base_draw.draw_polygon = lv_draw_sw_polygon;
  54:Drivers/lvgl/src/draw/sw/lv_draw_sw.c **** #if LV_DRAW_COMPLEX
  55:Drivers/lvgl/src/draw/sw/lv_draw_sw.c ****     draw_sw_ctx->base_draw.draw_transform = lv_draw_sw_transform;
  56:Drivers/lvgl/src/draw/sw/lv_draw_sw.c **** #endif
  57:Drivers/lvgl/src/draw/sw/lv_draw_sw.c ****     draw_sw_ctx->base_draw.wait_for_finish = lv_draw_sw_wait_for_finish;
  58:Drivers/lvgl/src/draw/sw/lv_draw_sw.c ****     draw_sw_ctx->base_draw.buffer_copy = lv_draw_sw_buffer_copy;
  59:Drivers/lvgl/src/draw/sw/lv_draw_sw.c ****     draw_sw_ctx->base_draw.layer_init = lv_draw_sw_layer_create;
  60:Drivers/lvgl/src/draw/sw/lv_draw_sw.c ****     draw_sw_ctx->base_draw.layer_adjust = lv_draw_sw_layer_adjust;
  61:Drivers/lvgl/src/draw/sw/lv_draw_sw.c ****     draw_sw_ctx->base_draw.layer_blend = lv_draw_sw_layer_blend;
  62:Drivers/lvgl/src/draw/sw/lv_draw_sw.c ****     draw_sw_ctx->base_draw.layer_destroy = lv_draw_sw_layer_destroy;
  63:Drivers/lvgl/src/draw/sw/lv_draw_sw.c ****     draw_sw_ctx->blend = lv_draw_sw_blend_basic;
  64:Drivers/lvgl/src/draw/sw/lv_draw_sw.c ****     draw_ctx->layer_instance_size = sizeof(lv_draw_sw_layer_ctx_t);
  65:Drivers/lvgl/src/draw/sw/lv_draw_sw.c **** }
  66:Drivers/lvgl/src/draw/sw/lv_draw_sw.c **** 
  67:Drivers/lvgl/src/draw/sw/lv_draw_sw.c **** void lv_draw_sw_deinit_ctx(lv_disp_drv_t * drv, lv_draw_ctx_t * draw_ctx)
  68:Drivers/lvgl/src/draw/sw/lv_draw_sw.c **** {
  69:Drivers/lvgl/src/draw/sw/lv_draw_sw.c ****     LV_UNUSED(drv);
  70:Drivers/lvgl/src/draw/sw/lv_draw_sw.c **** 
  71:Drivers/lvgl/src/draw/sw/lv_draw_sw.c ****     lv_draw_sw_ctx_t * draw_sw_ctx = (lv_draw_sw_ctx_t *) draw_ctx;
  72:Drivers/lvgl/src/draw/sw/lv_draw_sw.c ****     lv_memset_00(draw_sw_ctx, sizeof(lv_draw_sw_ctx_t));
  73:Drivers/lvgl/src/draw/sw/lv_draw_sw.c **** }
  74:Drivers/lvgl/src/draw/sw/lv_draw_sw.c **** 
  75:Drivers/lvgl/src/draw/sw/lv_draw_sw.c **** void lv_draw_sw_wait_for_finish(lv_draw_ctx_t * draw_ctx)
  76:Drivers/lvgl/src/draw/sw/lv_draw_sw.c **** {
  30              		.loc 1 76 1 view -0
  31              		.cfi_startproc
  32              		@ args = 0, pretend = 0, frame = 0
  33              		@ frame_needed = 0, uses_anonymous_args = 0
  34              		@ link register save eliminated.
  77:Drivers/lvgl/src/draw/sw/lv_draw_sw.c ****     LV_UNUSED(draw_ctx);
  35              		.loc 1 77 5 view .LVU1
  78:Drivers/lvgl/src/draw/sw/lv_draw_sw.c ****     /*Nothing to wait for*/
  79:Drivers/lvgl/src/draw/sw/lv_draw_sw.c **** }
  36              		.loc 1 79 1 is_stmt 0 view .LVU2
ARM GAS  /var/folders/lp/x54gwt890xv47sdkqj1k04q40000gn/T//cceBhAPU.s 			page 3


  37 0000 7047     		bx	lr
  38              		.cfi_endproc
  39              	.LFE58:
  41              		.section	.text.lv_draw_sw_buffer_copy,"ax",%progbits
  42              		.align	1
  43              		.global	lv_draw_sw_buffer_copy
  44              		.syntax unified
  45              		.thumb
  46              		.thumb_func
  48              	lv_draw_sw_buffer_copy:
  49              	.LVL1:
  50              	.LFB59:
  80:Drivers/lvgl/src/draw/sw/lv_draw_sw.c **** 
  81:Drivers/lvgl/src/draw/sw/lv_draw_sw.c **** void lv_draw_sw_buffer_copy(lv_draw_ctx_t * draw_ctx,
  82:Drivers/lvgl/src/draw/sw/lv_draw_sw.c ****                             void * dest_buf, lv_coord_t dest_stride, const lv_area_t * dest_area,
  83:Drivers/lvgl/src/draw/sw/lv_draw_sw.c ****                             void * src_buf, lv_coord_t src_stride, const lv_area_t * src_area)
  84:Drivers/lvgl/src/draw/sw/lv_draw_sw.c **** {
  51              		.loc 1 84 1 is_stmt 1 view -0
  52              		.cfi_startproc
  53              		@ args = 12, pretend = 0, frame = 0
  54              		@ frame_needed = 0, uses_anonymous_args = 0
  55              		.loc 1 84 1 is_stmt 0 view .LVU4
  56 0000 2DE9F047 		push	{r4, r5, r6, r7, r8, r9, r10, lr}
  57              		.cfi_def_cfa_offset 32
  58              		.cfi_offset 4, -32
  59              		.cfi_offset 5, -28
  60              		.cfi_offset 6, -24
  61              		.cfi_offset 7, -20
  62              		.cfi_offset 8, -16
  63              		.cfi_offset 9, -12
  64              		.cfi_offset 10, -8
  65              		.cfi_offset 14, -4
  66 0004 9146     		mov	r9, r2
  67 0006 9846     		mov	r8, r3
  68 0008 BDF924A0 		ldrsh	r10, [sp, #36]
  69 000c 0A9A     		ldr	r2, [sp, #40]
  70              	.LVL2:
  85:Drivers/lvgl/src/draw/sw/lv_draw_sw.c ****     LV_UNUSED(draw_ctx);
  71              		.loc 1 85 5 is_stmt 1 view .LVU5
  86:Drivers/lvgl/src/draw/sw/lv_draw_sw.c **** 
  87:Drivers/lvgl/src/draw/sw/lv_draw_sw.c ****     lv_color_t * dest_bufc =  dest_buf;
  72              		.loc 1 87 5 view .LVU6
  88:Drivers/lvgl/src/draw/sw/lv_draw_sw.c ****     lv_color_t * src_bufc =  src_buf;
  73              		.loc 1 88 5 view .LVU7
  89:Drivers/lvgl/src/draw/sw/lv_draw_sw.c **** 
  90:Drivers/lvgl/src/draw/sw/lv_draw_sw.c ****     /*Got the first pixel of each buffer*/
  91:Drivers/lvgl/src/draw/sw/lv_draw_sw.c ****     dest_bufc += dest_stride * dest_area->y1;
  74              		.loc 1 91 5 view .LVU8
  75              		.loc 1 91 41 is_stmt 0 view .LVU9
  76 000e B3F90240 		ldrsh	r4, [r3, #2]
  77              	.LVL3:
  92:Drivers/lvgl/src/draw/sw/lv_draw_sw.c ****     dest_bufc += dest_area->x1;
  78              		.loc 1 92 5 is_stmt 1 view .LVU10
  79              		.loc 1 92 27 is_stmt 0 view .LVU11
  80 0012 B3F90030 		ldrsh	r3, [r3]
  81              	.LVL4:
  82              		.loc 1 92 15 view .LVU12
ARM GAS  /var/folders/lp/x54gwt890xv47sdkqj1k04q40000gn/T//cceBhAPU.s 			page 4


  83 0016 04FB0930 		mla	r0, r4, r9, r3
  84              	.LVL5:
  85              		.loc 1 92 15 view .LVU13
  86 001a 01EB4006 		add	r6, r1, r0, lsl #1
  87              	.LVL6:
  93:Drivers/lvgl/src/draw/sw/lv_draw_sw.c **** 
  94:Drivers/lvgl/src/draw/sw/lv_draw_sw.c ****     src_bufc += src_stride * src_area->y1;
  88              		.loc 1 94 5 is_stmt 1 view .LVU14
  89              		.loc 1 94 38 is_stmt 0 view .LVU15
  90 001e B2F90210 		ldrsh	r1, [r2, #2]
  91              	.LVL7:
  95:Drivers/lvgl/src/draw/sw/lv_draw_sw.c ****     src_bufc += src_area->x1;
  92              		.loc 1 95 5 is_stmt 1 view .LVU16
  93              		.loc 1 95 25 is_stmt 0 view .LVU17
  94 0022 B2F90020 		ldrsh	r2, [r2]
  95              		.loc 1 95 14 view .LVU18
  96 0026 01FB0A22 		mla	r2, r1, r10, r2
  97 002a 089D     		ldr	r5, [sp, #32]
  98 002c 05EB4205 		add	r5, r5, r2, lsl #1
  99              	.LVL8:
  96:Drivers/lvgl/src/draw/sw/lv_draw_sw.c **** 
  97:Drivers/lvgl/src/draw/sw/lv_draw_sw.c ****     uint32_t line_length = lv_area_get_width(dest_area) * sizeof(lv_color_t);
 100              		.loc 1 97 5 is_stmt 1 view .LVU19
 101              	.LBB4:
 102              	.LBI4:
 103              		.file 2 "Drivers/lvgl/src/draw/sw/../../misc/../font/../misc/lv_area.h"
   1:Drivers/lvgl/src/draw/sw/../../misc/../font/../misc/lv_area.h **** /**
   2:Drivers/lvgl/src/draw/sw/../../misc/../font/../misc/lv_area.h ****  * @file lv_area.h
   3:Drivers/lvgl/src/draw/sw/../../misc/../font/../misc/lv_area.h ****  *
   4:Drivers/lvgl/src/draw/sw/../../misc/../font/../misc/lv_area.h ****  */
   5:Drivers/lvgl/src/draw/sw/../../misc/../font/../misc/lv_area.h **** 
   6:Drivers/lvgl/src/draw/sw/../../misc/../font/../misc/lv_area.h **** #ifndef LV_AREA_H
   7:Drivers/lvgl/src/draw/sw/../../misc/../font/../misc/lv_area.h **** #define LV_AREA_H
   8:Drivers/lvgl/src/draw/sw/../../misc/../font/../misc/lv_area.h **** 
   9:Drivers/lvgl/src/draw/sw/../../misc/../font/../misc/lv_area.h **** #ifdef __cplusplus
  10:Drivers/lvgl/src/draw/sw/../../misc/../font/../misc/lv_area.h **** extern "C" {
  11:Drivers/lvgl/src/draw/sw/../../misc/../font/../misc/lv_area.h **** #endif
  12:Drivers/lvgl/src/draw/sw/../../misc/../font/../misc/lv_area.h **** 
  13:Drivers/lvgl/src/draw/sw/../../misc/../font/../misc/lv_area.h **** /*********************
  14:Drivers/lvgl/src/draw/sw/../../misc/../font/../misc/lv_area.h ****  *      INCLUDES
  15:Drivers/lvgl/src/draw/sw/../../misc/../font/../misc/lv_area.h ****  *********************/
  16:Drivers/lvgl/src/draw/sw/../../misc/../font/../misc/lv_area.h **** #include "../lv_conf_internal.h"
  17:Drivers/lvgl/src/draw/sw/../../misc/../font/../misc/lv_area.h **** #include <stdbool.h>
  18:Drivers/lvgl/src/draw/sw/../../misc/../font/../misc/lv_area.h **** #include <stdint.h>
  19:Drivers/lvgl/src/draw/sw/../../misc/../font/../misc/lv_area.h **** 
  20:Drivers/lvgl/src/draw/sw/../../misc/../font/../misc/lv_area.h **** /*********************
  21:Drivers/lvgl/src/draw/sw/../../misc/../font/../misc/lv_area.h ****  *      DEFINES
  22:Drivers/lvgl/src/draw/sw/../../misc/../font/../misc/lv_area.h ****  *********************/
  23:Drivers/lvgl/src/draw/sw/../../misc/../font/../misc/lv_area.h **** 
  24:Drivers/lvgl/src/draw/sw/../../misc/../font/../misc/lv_area.h **** #if LV_USE_LARGE_COORD
  25:Drivers/lvgl/src/draw/sw/../../misc/../font/../misc/lv_area.h **** typedef int32_t lv_coord_t;
  26:Drivers/lvgl/src/draw/sw/../../misc/../font/../misc/lv_area.h **** #else
  27:Drivers/lvgl/src/draw/sw/../../misc/../font/../misc/lv_area.h **** typedef int16_t lv_coord_t;
  28:Drivers/lvgl/src/draw/sw/../../misc/../font/../misc/lv_area.h **** #endif
  29:Drivers/lvgl/src/draw/sw/../../misc/../font/../misc/lv_area.h **** 
  30:Drivers/lvgl/src/draw/sw/../../misc/../font/../misc/lv_area.h **** /**********************
  31:Drivers/lvgl/src/draw/sw/../../misc/../font/../misc/lv_area.h ****  *      TYPEDEFS
ARM GAS  /var/folders/lp/x54gwt890xv47sdkqj1k04q40000gn/T//cceBhAPU.s 			page 5


  32:Drivers/lvgl/src/draw/sw/../../misc/../font/../misc/lv_area.h ****  **********************/
  33:Drivers/lvgl/src/draw/sw/../../misc/../font/../misc/lv_area.h **** 
  34:Drivers/lvgl/src/draw/sw/../../misc/../font/../misc/lv_area.h **** /**
  35:Drivers/lvgl/src/draw/sw/../../misc/../font/../misc/lv_area.h ****  * Represents a point on the screen.
  36:Drivers/lvgl/src/draw/sw/../../misc/../font/../misc/lv_area.h ****  */
  37:Drivers/lvgl/src/draw/sw/../../misc/../font/../misc/lv_area.h **** typedef struct {
  38:Drivers/lvgl/src/draw/sw/../../misc/../font/../misc/lv_area.h ****     lv_coord_t x;
  39:Drivers/lvgl/src/draw/sw/../../misc/../font/../misc/lv_area.h ****     lv_coord_t y;
  40:Drivers/lvgl/src/draw/sw/../../misc/../font/../misc/lv_area.h **** } lv_point_t;
  41:Drivers/lvgl/src/draw/sw/../../misc/../font/../misc/lv_area.h **** 
  42:Drivers/lvgl/src/draw/sw/../../misc/../font/../misc/lv_area.h **** /** Represents an area of the screen.*/
  43:Drivers/lvgl/src/draw/sw/../../misc/../font/../misc/lv_area.h **** typedef struct {
  44:Drivers/lvgl/src/draw/sw/../../misc/../font/../misc/lv_area.h ****     lv_coord_t x1;
  45:Drivers/lvgl/src/draw/sw/../../misc/../font/../misc/lv_area.h ****     lv_coord_t y1;
  46:Drivers/lvgl/src/draw/sw/../../misc/../font/../misc/lv_area.h ****     lv_coord_t x2;
  47:Drivers/lvgl/src/draw/sw/../../misc/../font/../misc/lv_area.h ****     lv_coord_t y2;
  48:Drivers/lvgl/src/draw/sw/../../misc/../font/../misc/lv_area.h **** } lv_area_t;
  49:Drivers/lvgl/src/draw/sw/../../misc/../font/../misc/lv_area.h **** 
  50:Drivers/lvgl/src/draw/sw/../../misc/../font/../misc/lv_area.h **** /** Alignments*/
  51:Drivers/lvgl/src/draw/sw/../../misc/../font/../misc/lv_area.h **** enum {
  52:Drivers/lvgl/src/draw/sw/../../misc/../font/../misc/lv_area.h ****     LV_ALIGN_DEFAULT = 0,
  53:Drivers/lvgl/src/draw/sw/../../misc/../font/../misc/lv_area.h ****     LV_ALIGN_TOP_LEFT,
  54:Drivers/lvgl/src/draw/sw/../../misc/../font/../misc/lv_area.h ****     LV_ALIGN_TOP_MID,
  55:Drivers/lvgl/src/draw/sw/../../misc/../font/../misc/lv_area.h ****     LV_ALIGN_TOP_RIGHT,
  56:Drivers/lvgl/src/draw/sw/../../misc/../font/../misc/lv_area.h ****     LV_ALIGN_BOTTOM_LEFT,
  57:Drivers/lvgl/src/draw/sw/../../misc/../font/../misc/lv_area.h ****     LV_ALIGN_BOTTOM_MID,
  58:Drivers/lvgl/src/draw/sw/../../misc/../font/../misc/lv_area.h ****     LV_ALIGN_BOTTOM_RIGHT,
  59:Drivers/lvgl/src/draw/sw/../../misc/../font/../misc/lv_area.h ****     LV_ALIGN_LEFT_MID,
  60:Drivers/lvgl/src/draw/sw/../../misc/../font/../misc/lv_area.h ****     LV_ALIGN_RIGHT_MID,
  61:Drivers/lvgl/src/draw/sw/../../misc/../font/../misc/lv_area.h ****     LV_ALIGN_CENTER,
  62:Drivers/lvgl/src/draw/sw/../../misc/../font/../misc/lv_area.h **** 
  63:Drivers/lvgl/src/draw/sw/../../misc/../font/../misc/lv_area.h ****     LV_ALIGN_OUT_TOP_LEFT,
  64:Drivers/lvgl/src/draw/sw/../../misc/../font/../misc/lv_area.h ****     LV_ALIGN_OUT_TOP_MID,
  65:Drivers/lvgl/src/draw/sw/../../misc/../font/../misc/lv_area.h ****     LV_ALIGN_OUT_TOP_RIGHT,
  66:Drivers/lvgl/src/draw/sw/../../misc/../font/../misc/lv_area.h ****     LV_ALIGN_OUT_BOTTOM_LEFT,
  67:Drivers/lvgl/src/draw/sw/../../misc/../font/../misc/lv_area.h ****     LV_ALIGN_OUT_BOTTOM_MID,
  68:Drivers/lvgl/src/draw/sw/../../misc/../font/../misc/lv_area.h ****     LV_ALIGN_OUT_BOTTOM_RIGHT,
  69:Drivers/lvgl/src/draw/sw/../../misc/../font/../misc/lv_area.h ****     LV_ALIGN_OUT_LEFT_TOP,
  70:Drivers/lvgl/src/draw/sw/../../misc/../font/../misc/lv_area.h ****     LV_ALIGN_OUT_LEFT_MID,
  71:Drivers/lvgl/src/draw/sw/../../misc/../font/../misc/lv_area.h ****     LV_ALIGN_OUT_LEFT_BOTTOM,
  72:Drivers/lvgl/src/draw/sw/../../misc/../font/../misc/lv_area.h ****     LV_ALIGN_OUT_RIGHT_TOP,
  73:Drivers/lvgl/src/draw/sw/../../misc/../font/../misc/lv_area.h ****     LV_ALIGN_OUT_RIGHT_MID,
  74:Drivers/lvgl/src/draw/sw/../../misc/../font/../misc/lv_area.h ****     LV_ALIGN_OUT_RIGHT_BOTTOM,
  75:Drivers/lvgl/src/draw/sw/../../misc/../font/../misc/lv_area.h **** };
  76:Drivers/lvgl/src/draw/sw/../../misc/../font/../misc/lv_area.h **** typedef uint8_t lv_align_t;
  77:Drivers/lvgl/src/draw/sw/../../misc/../font/../misc/lv_area.h **** 
  78:Drivers/lvgl/src/draw/sw/../../misc/../font/../misc/lv_area.h **** enum {
  79:Drivers/lvgl/src/draw/sw/../../misc/../font/../misc/lv_area.h ****     LV_DIR_NONE     = 0x00,
  80:Drivers/lvgl/src/draw/sw/../../misc/../font/../misc/lv_area.h ****     LV_DIR_LEFT     = (1 << 0),
  81:Drivers/lvgl/src/draw/sw/../../misc/../font/../misc/lv_area.h ****     LV_DIR_RIGHT    = (1 << 1),
  82:Drivers/lvgl/src/draw/sw/../../misc/../font/../misc/lv_area.h ****     LV_DIR_TOP      = (1 << 2),
  83:Drivers/lvgl/src/draw/sw/../../misc/../font/../misc/lv_area.h ****     LV_DIR_BOTTOM   = (1 << 3),
  84:Drivers/lvgl/src/draw/sw/../../misc/../font/../misc/lv_area.h ****     LV_DIR_HOR      = LV_DIR_LEFT | LV_DIR_RIGHT,
  85:Drivers/lvgl/src/draw/sw/../../misc/../font/../misc/lv_area.h ****     LV_DIR_VER      = LV_DIR_TOP | LV_DIR_BOTTOM,
  86:Drivers/lvgl/src/draw/sw/../../misc/../font/../misc/lv_area.h ****     LV_DIR_ALL      = LV_DIR_HOR | LV_DIR_VER,
  87:Drivers/lvgl/src/draw/sw/../../misc/../font/../misc/lv_area.h **** };
  88:Drivers/lvgl/src/draw/sw/../../misc/../font/../misc/lv_area.h **** 
ARM GAS  /var/folders/lp/x54gwt890xv47sdkqj1k04q40000gn/T//cceBhAPU.s 			page 6


  89:Drivers/lvgl/src/draw/sw/../../misc/../font/../misc/lv_area.h **** typedef uint8_t lv_dir_t;
  90:Drivers/lvgl/src/draw/sw/../../misc/../font/../misc/lv_area.h **** 
  91:Drivers/lvgl/src/draw/sw/../../misc/../font/../misc/lv_area.h **** /**********************
  92:Drivers/lvgl/src/draw/sw/../../misc/../font/../misc/lv_area.h ****  * GLOBAL PROTOTYPES
  93:Drivers/lvgl/src/draw/sw/../../misc/../font/../misc/lv_area.h ****  **********************/
  94:Drivers/lvgl/src/draw/sw/../../misc/../font/../misc/lv_area.h **** 
  95:Drivers/lvgl/src/draw/sw/../../misc/../font/../misc/lv_area.h **** /**
  96:Drivers/lvgl/src/draw/sw/../../misc/../font/../misc/lv_area.h ****  * Initialize an area
  97:Drivers/lvgl/src/draw/sw/../../misc/../font/../misc/lv_area.h ****  * @param area_p pointer to an area
  98:Drivers/lvgl/src/draw/sw/../../misc/../font/../misc/lv_area.h ****  * @param x1 left coordinate of the area
  99:Drivers/lvgl/src/draw/sw/../../misc/../font/../misc/lv_area.h ****  * @param y1 top coordinate of the area
 100:Drivers/lvgl/src/draw/sw/../../misc/../font/../misc/lv_area.h ****  * @param x2 right coordinate of the area
 101:Drivers/lvgl/src/draw/sw/../../misc/../font/../misc/lv_area.h ****  * @param y2 bottom coordinate of the area
 102:Drivers/lvgl/src/draw/sw/../../misc/../font/../misc/lv_area.h ****  */
 103:Drivers/lvgl/src/draw/sw/../../misc/../font/../misc/lv_area.h **** void lv_area_set(lv_area_t * area_p, lv_coord_t x1, lv_coord_t y1, lv_coord_t x2, lv_coord_t y2);
 104:Drivers/lvgl/src/draw/sw/../../misc/../font/../misc/lv_area.h **** 
 105:Drivers/lvgl/src/draw/sw/../../misc/../font/../misc/lv_area.h **** /**
 106:Drivers/lvgl/src/draw/sw/../../misc/../font/../misc/lv_area.h ****  * Copy an area
 107:Drivers/lvgl/src/draw/sw/../../misc/../font/../misc/lv_area.h ****  * @param dest pointer to the destination area
 108:Drivers/lvgl/src/draw/sw/../../misc/../font/../misc/lv_area.h ****  * @param src pointer to the source area
 109:Drivers/lvgl/src/draw/sw/../../misc/../font/../misc/lv_area.h ****  */
 110:Drivers/lvgl/src/draw/sw/../../misc/../font/../misc/lv_area.h **** inline static void lv_area_copy(lv_area_t * dest, const lv_area_t * src)
 111:Drivers/lvgl/src/draw/sw/../../misc/../font/../misc/lv_area.h **** {
 112:Drivers/lvgl/src/draw/sw/../../misc/../font/../misc/lv_area.h ****     dest->x1 = src->x1;
 113:Drivers/lvgl/src/draw/sw/../../misc/../font/../misc/lv_area.h ****     dest->y1 = src->y1;
 114:Drivers/lvgl/src/draw/sw/../../misc/../font/../misc/lv_area.h ****     dest->x2 = src->x2;
 115:Drivers/lvgl/src/draw/sw/../../misc/../font/../misc/lv_area.h ****     dest->y2 = src->y2;
 116:Drivers/lvgl/src/draw/sw/../../misc/../font/../misc/lv_area.h **** }
 117:Drivers/lvgl/src/draw/sw/../../misc/../font/../misc/lv_area.h **** 
 118:Drivers/lvgl/src/draw/sw/../../misc/../font/../misc/lv_area.h **** /**
 119:Drivers/lvgl/src/draw/sw/../../misc/../font/../misc/lv_area.h ****  * Get the width of an area
 120:Drivers/lvgl/src/draw/sw/../../misc/../font/../misc/lv_area.h ****  * @param area_p pointer to an area
 121:Drivers/lvgl/src/draw/sw/../../misc/../font/../misc/lv_area.h ****  * @return the width of the area (if x1 == x2 -> width = 1)
 122:Drivers/lvgl/src/draw/sw/../../misc/../font/../misc/lv_area.h ****  */
 123:Drivers/lvgl/src/draw/sw/../../misc/../font/../misc/lv_area.h **** static inline lv_coord_t lv_area_get_width(const lv_area_t * area_p)
 104              		.loc 2 123 26 view .LVU20
 105              	.LBB5:
 124:Drivers/lvgl/src/draw/sw/../../misc/../font/../misc/lv_area.h **** {
 125:Drivers/lvgl/src/draw/sw/../../misc/../font/../misc/lv_area.h ****     return (lv_coord_t)(area_p->x2 - area_p->x1 + 1);
 106              		.loc 2 125 5 view .LVU21
 107              		.loc 2 125 31 is_stmt 0 view .LVU22
 108 0030 B8F80470 		ldrh	r7, [r8, #4]
 109              		.loc 2 125 44 view .LVU23
 110 0034 9BB2     		uxth	r3, r3
 111              		.loc 2 125 36 view .LVU24
 112 0036 FF1A     		subs	r7, r7, r3
 113 0038 BFB2     		uxth	r7, r7
 114              		.loc 2 125 49 view .LVU25
 115 003a 0137     		adds	r7, r7, #1
 116              		.loc 2 125 12 view .LVU26
 117 003c 3FB2     		sxth	r7, r7
 118              	.LVL9:
 119              		.loc 2 125 12 view .LVU27
 120              	.LBE5:
 121              	.LBE4:
 122              		.loc 1 97 14 discriminator 1 view .LVU28
 123 003e 7F00     		lsls	r7, r7, #1
ARM GAS  /var/folders/lp/x54gwt890xv47sdkqj1k04q40000gn/T//cceBhAPU.s 			page 7


 124              	.LVL10:
  98:Drivers/lvgl/src/draw/sw/lv_draw_sw.c ****     lv_coord_t y;
 125              		.loc 1 98 5 is_stmt 1 view .LVU29
  99:Drivers/lvgl/src/draw/sw/lv_draw_sw.c ****     for(y = dest_area->y1; y <= dest_area->y2; y++) {
 126              		.loc 1 99 5 view .LVU30
 127              		.loc 1 99 5 is_stmt 0 view .LVU31
 128 0040 0AE0     		b	.L3
 129              	.L4:
 100:Drivers/lvgl/src/draw/sw/lv_draw_sw.c ****         lv_memcpy(dest_bufc, src_bufc, line_length);
 130              		.loc 1 100 9 is_stmt 1 view .LVU32
 131 0042 3A46     		mov	r2, r7
 132 0044 2946     		mov	r1, r5
 133 0046 3046     		mov	r0, r6
 134 0048 FFF7FEFF 		bl	lv_memcpy
 135              	.LVL11:
 101:Drivers/lvgl/src/draw/sw/lv_draw_sw.c ****         dest_bufc += dest_stride;
 136              		.loc 1 101 9 view .LVU33
 137              		.loc 1 101 19 is_stmt 0 view .LVU34
 138 004c 06EB4906 		add	r6, r6, r9, lsl #1
 139              	.LVL12:
 102:Drivers/lvgl/src/draw/sw/lv_draw_sw.c ****         src_bufc += src_stride;
 140              		.loc 1 102 9 is_stmt 1 view .LVU35
 141              		.loc 1 102 18 is_stmt 0 view .LVU36
 142 0050 05EB4A05 		add	r5, r5, r10, lsl #1
 143              	.LVL13:
  99:Drivers/lvgl/src/draw/sw/lv_draw_sw.c ****         lv_memcpy(dest_bufc, src_bufc, line_length);
 144              		.loc 1 99 49 is_stmt 1 discriminator 3 view .LVU37
 145 0054 0134     		adds	r4, r4, #1
 146              	.LVL14:
  99:Drivers/lvgl/src/draw/sw/lv_draw_sw.c ****         lv_memcpy(dest_bufc, src_bufc, line_length);
 147              		.loc 1 99 49 is_stmt 0 discriminator 3 view .LVU38
 148 0056 24B2     		sxth	r4, r4
 149              	.LVL15:
 150              	.L3:
  99:Drivers/lvgl/src/draw/sw/lv_draw_sw.c ****         lv_memcpy(dest_bufc, src_bufc, line_length);
 151              		.loc 1 99 30 is_stmt 1 discriminator 1 view .LVU39
  99:Drivers/lvgl/src/draw/sw/lv_draw_sw.c ****         lv_memcpy(dest_bufc, src_bufc, line_length);
 152              		.loc 1 99 42 is_stmt 0 discriminator 1 view .LVU40
 153 0058 B8F90610 		ldrsh	r1, [r8, #6]
  99:Drivers/lvgl/src/draw/sw/lv_draw_sw.c ****         lv_memcpy(dest_bufc, src_bufc, line_length);
 154              		.loc 1 99 30 discriminator 1 view .LVU41
 155 005c A142     		cmp	r1, r4
 156 005e F0DA     		bge	.L4
 103:Drivers/lvgl/src/draw/sw/lv_draw_sw.c ****     }
 104:Drivers/lvgl/src/draw/sw/lv_draw_sw.c **** }
 157              		.loc 1 104 1 view .LVU42
 158 0060 BDE8F087 		pop	{r4, r5, r6, r7, r8, r9, r10, pc}
 159              		.loc 1 104 1 view .LVU43
 160              		.cfi_endproc
 161              	.LFE59:
 163              		.section	.text.lv_draw_sw_init_ctx,"ax",%progbits
 164              		.align	1
 165              		.global	lv_draw_sw_init_ctx
 166              		.syntax unified
 167              		.thumb
 168              		.thumb_func
 170              	lv_draw_sw_init_ctx:
ARM GAS  /var/folders/lp/x54gwt890xv47sdkqj1k04q40000gn/T//cceBhAPU.s 			page 8


 171              	.LVL16:
 172              	.LFB56:
  41:Drivers/lvgl/src/draw/sw/lv_draw_sw.c ****     LV_UNUSED(drv);
 173              		.loc 1 41 1 is_stmt 1 view -0
 174              		.cfi_startproc
 175              		@ args = 0, pretend = 0, frame = 0
 176              		@ frame_needed = 0, uses_anonymous_args = 0
  41:Drivers/lvgl/src/draw/sw/lv_draw_sw.c ****     LV_UNUSED(drv);
 177              		.loc 1 41 1 is_stmt 0 view .LVU45
 178 0000 10B5     		push	{r4, lr}
 179              		.cfi_def_cfa_offset 8
 180              		.cfi_offset 4, -8
 181              		.cfi_offset 14, -4
 182 0002 0C46     		mov	r4, r1
  42:Drivers/lvgl/src/draw/sw/lv_draw_sw.c **** 
 183              		.loc 1 42 5 is_stmt 1 view .LVU46
  44:Drivers/lvgl/src/draw/sw/lv_draw_sw.c ****     lv_memset_00(draw_sw_ctx, sizeof(lv_draw_sw_ctx_t));
 184              		.loc 1 44 5 view .LVU47
 185              	.LVL17:
  45:Drivers/lvgl/src/draw/sw/lv_draw_sw.c **** 
 186              		.loc 1 45 5 view .LVU48
 187 0004 5821     		movs	r1, #88
 188              	.LVL18:
  45:Drivers/lvgl/src/draw/sw/lv_draw_sw.c **** 
 189              		.loc 1 45 5 is_stmt 0 view .LVU49
 190 0006 2046     		mov	r0, r4
 191              	.LVL19:
  45:Drivers/lvgl/src/draw/sw/lv_draw_sw.c **** 
 192              		.loc 1 45 5 view .LVU50
 193 0008 FFF7FEFF 		bl	lv_memset_00
 194              	.LVL20:
  47:Drivers/lvgl/src/draw/sw/lv_draw_sw.c ****     draw_sw_ctx->base_draw.draw_rect = lv_draw_sw_rect;
 195              		.loc 1 47 5 is_stmt 1 view .LVU51
  47:Drivers/lvgl/src/draw/sw/lv_draw_sw.c ****     draw_sw_ctx->base_draw.draw_rect = lv_draw_sw_rect;
 196              		.loc 1 47 37 is_stmt 0 view .LVU52
 197 000c 104B     		ldr	r3, .L8
 198 000e 6361     		str	r3, [r4, #20]
  48:Drivers/lvgl/src/draw/sw/lv_draw_sw.c ****     draw_sw_ctx->base_draw.draw_bg = lv_draw_sw_bg;
 199              		.loc 1 48 5 is_stmt 1 view .LVU53
  48:Drivers/lvgl/src/draw/sw/lv_draw_sw.c ****     draw_sw_ctx->base_draw.draw_bg = lv_draw_sw_bg;
 200              		.loc 1 48 38 is_stmt 0 view .LVU54
 201 0010 104B     		ldr	r3, .L8+4
 202 0012 2361     		str	r3, [r4, #16]
  49:Drivers/lvgl/src/draw/sw/lv_draw_sw.c ****     draw_sw_ctx->base_draw.draw_letter = lv_draw_sw_letter;
 203              		.loc 1 49 5 is_stmt 1 view .LVU55
  49:Drivers/lvgl/src/draw/sw/lv_draw_sw.c ****     draw_sw_ctx->base_draw.draw_letter = lv_draw_sw_letter;
 204              		.loc 1 49 36 is_stmt 0 view .LVU56
 205 0014 104B     		ldr	r3, .L8+8
 206 0016 2363     		str	r3, [r4, #48]
  50:Drivers/lvgl/src/draw/sw/lv_draw_sw.c ****     draw_sw_ctx->base_draw.draw_img_decoded = lv_draw_sw_img_decoded;
 207              		.loc 1 50 5 is_stmt 1 view .LVU57
  50:Drivers/lvgl/src/draw/sw/lv_draw_sw.c ****     draw_sw_ctx->base_draw.draw_img_decoded = lv_draw_sw_img_decoded;
 208              		.loc 1 50 40 is_stmt 0 view .LVU58
 209 0018 104B     		ldr	r3, .L8+12
 210 001a 2362     		str	r3, [r4, #32]
  51:Drivers/lvgl/src/draw/sw/lv_draw_sw.c ****     draw_sw_ctx->base_draw.draw_line = lv_draw_sw_line;
 211              		.loc 1 51 5 is_stmt 1 view .LVU59
ARM GAS  /var/folders/lp/x54gwt890xv47sdkqj1k04q40000gn/T//cceBhAPU.s 			page 9


  51:Drivers/lvgl/src/draw/sw/lv_draw_sw.c ****     draw_sw_ctx->base_draw.draw_line = lv_draw_sw_line;
 212              		.loc 1 51 45 is_stmt 0 view .LVU60
 213 001c 104B     		ldr	r3, .L8+16
 214 001e A361     		str	r3, [r4, #24]
  52:Drivers/lvgl/src/draw/sw/lv_draw_sw.c ****     draw_sw_ctx->base_draw.draw_polygon = lv_draw_sw_polygon;
 215              		.loc 1 52 5 is_stmt 1 view .LVU61
  52:Drivers/lvgl/src/draw/sw/lv_draw_sw.c ****     draw_sw_ctx->base_draw.draw_polygon = lv_draw_sw_polygon;
 216              		.loc 1 52 38 is_stmt 0 view .LVU62
 217 0020 104B     		ldr	r3, .L8+20
 218 0022 6362     		str	r3, [r4, #36]
  53:Drivers/lvgl/src/draw/sw/lv_draw_sw.c **** #if LV_DRAW_COMPLEX
 219              		.loc 1 53 5 is_stmt 1 view .LVU63
  53:Drivers/lvgl/src/draw/sw/lv_draw_sw.c **** #if LV_DRAW_COMPLEX
 220              		.loc 1 53 41 is_stmt 0 view .LVU64
 221 0024 104B     		ldr	r3, .L8+24
 222 0026 A362     		str	r3, [r4, #40]
  55:Drivers/lvgl/src/draw/sw/lv_draw_sw.c **** #endif
 223              		.loc 1 55 5 is_stmt 1 view .LVU65
  55:Drivers/lvgl/src/draw/sw/lv_draw_sw.c **** #endif
 224              		.loc 1 55 43 is_stmt 0 view .LVU66
 225 0028 104B     		ldr	r3, .L8+28
 226 002a E362     		str	r3, [r4, #44]
  57:Drivers/lvgl/src/draw/sw/lv_draw_sw.c ****     draw_sw_ctx->base_draw.buffer_copy = lv_draw_sw_buffer_copy;
 227              		.loc 1 57 5 is_stmt 1 view .LVU67
  57:Drivers/lvgl/src/draw/sw/lv_draw_sw.c ****     draw_sw_ctx->base_draw.buffer_copy = lv_draw_sw_buffer_copy;
 228              		.loc 1 57 44 is_stmt 0 view .LVU68
 229 002c 104B     		ldr	r3, .L8+32
 230 002e 6363     		str	r3, [r4, #52]
  58:Drivers/lvgl/src/draw/sw/lv_draw_sw.c ****     draw_sw_ctx->base_draw.layer_init = lv_draw_sw_layer_create;
 231              		.loc 1 58 5 is_stmt 1 view .LVU69
  58:Drivers/lvgl/src/draw/sw/lv_draw_sw.c ****     draw_sw_ctx->base_draw.layer_init = lv_draw_sw_layer_create;
 232              		.loc 1 58 40 is_stmt 0 view .LVU70
 233 0030 104B     		ldr	r3, .L8+36
 234 0032 A363     		str	r3, [r4, #56]
  59:Drivers/lvgl/src/draw/sw/lv_draw_sw.c ****     draw_sw_ctx->base_draw.layer_adjust = lv_draw_sw_layer_adjust;
 235              		.loc 1 59 5 is_stmt 1 view .LVU71
  59:Drivers/lvgl/src/draw/sw/lv_draw_sw.c ****     draw_sw_ctx->base_draw.layer_adjust = lv_draw_sw_layer_adjust;
 236              		.loc 1 59 39 is_stmt 0 view .LVU72
 237 0034 104B     		ldr	r3, .L8+40
 238 0036 E363     		str	r3, [r4, #60]
  60:Drivers/lvgl/src/draw/sw/lv_draw_sw.c ****     draw_sw_ctx->base_draw.layer_blend = lv_draw_sw_layer_blend;
 239              		.loc 1 60 5 is_stmt 1 view .LVU73
  60:Drivers/lvgl/src/draw/sw/lv_draw_sw.c ****     draw_sw_ctx->base_draw.layer_blend = lv_draw_sw_layer_blend;
 240              		.loc 1 60 41 is_stmt 0 view .LVU74
 241 0038 104B     		ldr	r3, .L8+44
 242 003a 2364     		str	r3, [r4, #64]
  61:Drivers/lvgl/src/draw/sw/lv_draw_sw.c ****     draw_sw_ctx->base_draw.layer_destroy = lv_draw_sw_layer_destroy;
 243              		.loc 1 61 5 is_stmt 1 view .LVU75
  61:Drivers/lvgl/src/draw/sw/lv_draw_sw.c ****     draw_sw_ctx->base_draw.layer_destroy = lv_draw_sw_layer_destroy;
 244              		.loc 1 61 40 is_stmt 0 view .LVU76
 245 003c 104B     		ldr	r3, .L8+48
 246 003e 6364     		str	r3, [r4, #68]
  62:Drivers/lvgl/src/draw/sw/lv_draw_sw.c ****     draw_sw_ctx->blend = lv_draw_sw_blend_basic;
 247              		.loc 1 62 5 is_stmt 1 view .LVU77
  62:Drivers/lvgl/src/draw/sw/lv_draw_sw.c ****     draw_sw_ctx->blend = lv_draw_sw_blend_basic;
 248              		.loc 1 62 42 is_stmt 0 view .LVU78
 249 0040 104B     		ldr	r3, .L8+52
ARM GAS  /var/folders/lp/x54gwt890xv47sdkqj1k04q40000gn/T//cceBhAPU.s 			page 10


 250 0042 A364     		str	r3, [r4, #72]
  63:Drivers/lvgl/src/draw/sw/lv_draw_sw.c ****     draw_ctx->layer_instance_size = sizeof(lv_draw_sw_layer_ctx_t);
 251              		.loc 1 63 5 is_stmt 1 view .LVU79
  63:Drivers/lvgl/src/draw/sw/lv_draw_sw.c ****     draw_ctx->layer_instance_size = sizeof(lv_draw_sw_layer_ctx_t);
 252              		.loc 1 63 24 is_stmt 0 view .LVU80
 253 0044 104B     		ldr	r3, .L8+56
 254 0046 6365     		str	r3, [r4, #84]
  64:Drivers/lvgl/src/draw/sw/lv_draw_sw.c **** }
 255              		.loc 1 64 5 is_stmt 1 view .LVU81
  64:Drivers/lvgl/src/draw/sw/lv_draw_sw.c **** }
 256              		.loc 1 64 35 is_stmt 0 view .LVU82
 257 0048 2C23     		movs	r3, #44
 258 004a E364     		str	r3, [r4, #76]
  65:Drivers/lvgl/src/draw/sw/lv_draw_sw.c **** 
 259              		.loc 1 65 1 view .LVU83
 260 004c 10BD     		pop	{r4, pc}
 261              	.LVL21:
 262              	.L9:
  65:Drivers/lvgl/src/draw/sw/lv_draw_sw.c **** 
 263              		.loc 1 65 1 view .LVU84
 264 004e 00BF     		.align	2
 265              	.L8:
 266 0050 00000000 		.word	lv_draw_sw_arc
 267 0054 00000000 		.word	lv_draw_sw_rect
 268 0058 00000000 		.word	lv_draw_sw_bg
 269 005c 00000000 		.word	lv_draw_sw_letter
 270 0060 00000000 		.word	lv_draw_sw_img_decoded
 271 0064 00000000 		.word	lv_draw_sw_line
 272 0068 00000000 		.word	lv_draw_sw_polygon
 273 006c 00000000 		.word	lv_draw_sw_transform
 274 0070 00000000 		.word	lv_draw_sw_wait_for_finish
 275 0074 00000000 		.word	lv_draw_sw_buffer_copy
 276 0078 00000000 		.word	lv_draw_sw_layer_create
 277 007c 00000000 		.word	lv_draw_sw_layer_adjust
 278 0080 00000000 		.word	lv_draw_sw_layer_blend
 279 0084 00000000 		.word	lv_draw_sw_layer_destroy
 280 0088 00000000 		.word	lv_draw_sw_blend_basic
 281              		.cfi_endproc
 282              	.LFE56:
 284              		.section	.text.lv_draw_sw_deinit_ctx,"ax",%progbits
 285              		.align	1
 286              		.global	lv_draw_sw_deinit_ctx
 287              		.syntax unified
 288              		.thumb
 289              		.thumb_func
 291              	lv_draw_sw_deinit_ctx:
 292              	.LVL22:
 293              	.LFB57:
  68:Drivers/lvgl/src/draw/sw/lv_draw_sw.c ****     LV_UNUSED(drv);
 294              		.loc 1 68 1 is_stmt 1 view -0
 295              		.cfi_startproc
 296              		@ args = 0, pretend = 0, frame = 0
 297              		@ frame_needed = 0, uses_anonymous_args = 0
  68:Drivers/lvgl/src/draw/sw/lv_draw_sw.c ****     LV_UNUSED(drv);
 298              		.loc 1 68 1 is_stmt 0 view .LVU86
 299 0000 08B5     		push	{r3, lr}
 300              		.cfi_def_cfa_offset 8
ARM GAS  /var/folders/lp/x54gwt890xv47sdkqj1k04q40000gn/T//cceBhAPU.s 			page 11


 301              		.cfi_offset 3, -8
 302              		.cfi_offset 14, -4
 303 0002 0846     		mov	r0, r1
 304              	.LVL23:
  69:Drivers/lvgl/src/draw/sw/lv_draw_sw.c **** 
 305              		.loc 1 69 5 is_stmt 1 view .LVU87
  71:Drivers/lvgl/src/draw/sw/lv_draw_sw.c ****     lv_memset_00(draw_sw_ctx, sizeof(lv_draw_sw_ctx_t));
 306              		.loc 1 71 5 view .LVU88
  72:Drivers/lvgl/src/draw/sw/lv_draw_sw.c **** }
 307              		.loc 1 72 5 view .LVU89
 308 0004 5821     		movs	r1, #88
 309              	.LVL24:
  72:Drivers/lvgl/src/draw/sw/lv_draw_sw.c **** }
 310              		.loc 1 72 5 is_stmt 0 view .LVU90
 311 0006 FFF7FEFF 		bl	lv_memset_00
 312              	.LVL25:
  73:Drivers/lvgl/src/draw/sw/lv_draw_sw.c **** 
 313              		.loc 1 73 1 view .LVU91
 314 000a 08BD     		pop	{r3, pc}
 315              		.cfi_endproc
 316              	.LFE57:
 318              		.text
 319              	.Letext0:
 320              		.file 3 "/Users/jr/Library/Application Support/Code/User/globalStorage/bmd.stm32-for-vscode/@xpack
 321              		.file 4 "/Users/jr/Library/Application Support/Code/User/globalStorage/bmd.stm32-for-vscode/@xpack
 322              		.file 5 "/Users/jr/Library/Application Support/Code/User/globalStorage/bmd.stm32-for-vscode/@xpack
 323              		.file 6 "Drivers/lvgl/src/draw/sw/../../misc/../font/lv_font.h"
 324              		.file 7 "Drivers/lvgl/src/draw/sw/../../misc/lv_types.h"
 325              		.file 8 "Drivers/lvgl/src/draw/sw/../../misc/lv_color.h"
 326              		.file 9 "Drivers/lvgl/src/draw/sw/../../misc/lv_txt.h"
 327              		.file 10 "Drivers/lvgl/src/draw/sw/../../misc/lv_bidi.h"
 328              		.file 11 "Drivers/lvgl/src/draw/sw/../../misc/lv_style.h"
 329              		.file 12 "Drivers/lvgl/src/draw/sw/../lv_img_buf.h"
 330              		.file 13 "Drivers/lvgl/src/draw/sw/../lv_draw_rect.h"
 331              		.file 14 "Drivers/lvgl/src/draw/sw/../lv_draw_label.h"
 332              		.file 15 "Drivers/lvgl/src/draw/sw/../lv_draw_img.h"
 333              		.file 16 "Drivers/lvgl/src/draw/sw/../lv_draw_line.h"
 334              		.file 17 "Drivers/lvgl/src/draw/sw/../lv_draw_arc.h"
 335              		.file 18 "Drivers/lvgl/src/draw/sw/../lv_draw_mask.h"
 336              		.file 19 "Drivers/lvgl/src/draw/sw/../lv_draw_layer.h"
 337              		.file 20 "Drivers/lvgl/src/draw/sw/../lv_draw.h"
 338              		.file 21 "Drivers/lvgl/src/draw/sw/lv_draw_sw_blend.h"
 339              		.file 22 "Drivers/lvgl/src/draw/sw/../../hal/lv_hal_disp.h"
 340              		.file 23 "Drivers/lvgl/src/draw/sw/lv_draw_sw.h"
 341              		.file 24 "Drivers/lvgl/src/draw/sw/../../misc/lv_mem.h"
ARM GAS  /var/folders/lp/x54gwt890xv47sdkqj1k04q40000gn/T//cceBhAPU.s 			page 12

