ARM GAS  /var/folders/lp/x54gwt890xv47sdkqj1k04q40000gn/T//cc8BXUdH.s 			page 1


   1              		.cpu cortex-m4
   2              		.arch armv7e-m
   3              		.fpu fpv4-sp-d16
   4              		.eabi_attribute 27, 1
   5              		.eabi_attribute 28, 1
   6              		.eabi_attribute 20, 1
   7              		.eabi_attribute 21, 1
   8              		.eabi_attribute 23, 3
   9              		.eabi_attribute 24, 1
  10              		.eabi_attribute 25, 1
  11              		.eabi_attribute 26, 1
  12              		.eabi_attribute 30, 1
  13              		.eabi_attribute 34, 1
  14              		.eabi_attribute 18, 4
  15              		.file	"lv_draw_sw_arc.c"
  16              		.text
  17              	.Ltext0:
  18              		.cfi_sections	.debug_frame
  19              		.file 1 "Drivers/lvgl/src/draw/sw/lv_draw_sw_arc.c"
  20              		.section	.text.draw_quarter_0,"ax",%progbits
  21              		.align	1
  22              		.syntax unified
  23              		.thumb
  24              		.thumb_func
  26              	draw_quarter_0:
  27              	.LVL0:
  28              	.LFB57:
   1:Drivers/lvgl/src/draw/sw/lv_draw_sw_arc.c **** /**
   2:Drivers/lvgl/src/draw/sw/lv_draw_sw_arc.c ****  * @file lv_draw_arc.c
   3:Drivers/lvgl/src/draw/sw/lv_draw_sw_arc.c ****  *
   4:Drivers/lvgl/src/draw/sw/lv_draw_sw_arc.c ****  */
   5:Drivers/lvgl/src/draw/sw/lv_draw_sw_arc.c **** 
   6:Drivers/lvgl/src/draw/sw/lv_draw_sw_arc.c **** /*********************
   7:Drivers/lvgl/src/draw/sw/lv_draw_sw_arc.c ****  *      INCLUDES
   8:Drivers/lvgl/src/draw/sw/lv_draw_sw_arc.c ****  *********************/
   9:Drivers/lvgl/src/draw/sw/lv_draw_sw_arc.c **** #include "lv_draw_sw.h"
  10:Drivers/lvgl/src/draw/sw/lv_draw_sw_arc.c **** #include "../../misc/lv_math.h"
  11:Drivers/lvgl/src/draw/sw/lv_draw_sw_arc.c **** #include "../../misc/lv_log.h"
  12:Drivers/lvgl/src/draw/sw/lv_draw_sw_arc.c **** #include "../../misc/lv_mem.h"
  13:Drivers/lvgl/src/draw/sw/lv_draw_sw_arc.c **** #include "../lv_draw.h"
  14:Drivers/lvgl/src/draw/sw/lv_draw_sw_arc.c **** 
  15:Drivers/lvgl/src/draw/sw/lv_draw_sw_arc.c **** /*********************
  16:Drivers/lvgl/src/draw/sw/lv_draw_sw_arc.c ****  *      DEFINES
  17:Drivers/lvgl/src/draw/sw/lv_draw_sw_arc.c ****  *********************/
  18:Drivers/lvgl/src/draw/sw/lv_draw_sw_arc.c **** #define SPLIT_RADIUS_LIMIT 10  /*With radius greater than this the arc will drawn in quarters. A qu
  19:Drivers/lvgl/src/draw/sw/lv_draw_sw_arc.c **** #define SPLIT_ANGLE_GAP_LIMIT 60  /*With small gaps in the arc don't bother with splitting because 
  20:Drivers/lvgl/src/draw/sw/lv_draw_sw_arc.c **** 
  21:Drivers/lvgl/src/draw/sw/lv_draw_sw_arc.c **** /**********************
  22:Drivers/lvgl/src/draw/sw/lv_draw_sw_arc.c ****  *      TYPEDEFS
  23:Drivers/lvgl/src/draw/sw/lv_draw_sw_arc.c ****  **********************/
  24:Drivers/lvgl/src/draw/sw/lv_draw_sw_arc.c **** typedef struct {
  25:Drivers/lvgl/src/draw/sw/lv_draw_sw_arc.c ****     const lv_point_t * center;
  26:Drivers/lvgl/src/draw/sw/lv_draw_sw_arc.c ****     lv_coord_t radius;
  27:Drivers/lvgl/src/draw/sw/lv_draw_sw_arc.c ****     uint16_t start_angle;
  28:Drivers/lvgl/src/draw/sw/lv_draw_sw_arc.c ****     uint16_t end_angle;
  29:Drivers/lvgl/src/draw/sw/lv_draw_sw_arc.c ****     uint16_t start_quarter;
  30:Drivers/lvgl/src/draw/sw/lv_draw_sw_arc.c ****     uint16_t end_quarter;
ARM GAS  /var/folders/lp/x54gwt890xv47sdkqj1k04q40000gn/T//cc8BXUdH.s 			page 2


  31:Drivers/lvgl/src/draw/sw/lv_draw_sw_arc.c ****     lv_coord_t width;
  32:Drivers/lvgl/src/draw/sw/lv_draw_sw_arc.c ****     lv_draw_rect_dsc_t * draw_dsc;
  33:Drivers/lvgl/src/draw/sw/lv_draw_sw_arc.c ****     const lv_area_t * draw_area;
  34:Drivers/lvgl/src/draw/sw/lv_draw_sw_arc.c ****     lv_draw_ctx_t * draw_ctx;
  35:Drivers/lvgl/src/draw/sw/lv_draw_sw_arc.c **** } quarter_draw_dsc_t;
  36:Drivers/lvgl/src/draw/sw/lv_draw_sw_arc.c **** 
  37:Drivers/lvgl/src/draw/sw/lv_draw_sw_arc.c **** /**********************
  38:Drivers/lvgl/src/draw/sw/lv_draw_sw_arc.c ****  *  STATIC PROTOTYPES
  39:Drivers/lvgl/src/draw/sw/lv_draw_sw_arc.c ****  **********************/
  40:Drivers/lvgl/src/draw/sw/lv_draw_sw_arc.c **** #if LV_DRAW_COMPLEX
  41:Drivers/lvgl/src/draw/sw/lv_draw_sw_arc.c ****     static void draw_quarter_0(quarter_draw_dsc_t * q);
  42:Drivers/lvgl/src/draw/sw/lv_draw_sw_arc.c ****     static void draw_quarter_1(quarter_draw_dsc_t * q);
  43:Drivers/lvgl/src/draw/sw/lv_draw_sw_arc.c ****     static void draw_quarter_2(quarter_draw_dsc_t * q);
  44:Drivers/lvgl/src/draw/sw/lv_draw_sw_arc.c ****     static void draw_quarter_3(quarter_draw_dsc_t * q);
  45:Drivers/lvgl/src/draw/sw/lv_draw_sw_arc.c ****     static void get_rounded_area(int16_t angle, lv_coord_t radius, uint8_t thickness, lv_area_t * r
  46:Drivers/lvgl/src/draw/sw/lv_draw_sw_arc.c **** #endif /*LV_DRAW_COMPLEX*/
  47:Drivers/lvgl/src/draw/sw/lv_draw_sw_arc.c **** 
  48:Drivers/lvgl/src/draw/sw/lv_draw_sw_arc.c **** /**********************
  49:Drivers/lvgl/src/draw/sw/lv_draw_sw_arc.c ****  *  STATIC VARIABLES
  50:Drivers/lvgl/src/draw/sw/lv_draw_sw_arc.c ****  **********************/
  51:Drivers/lvgl/src/draw/sw/lv_draw_sw_arc.c **** 
  52:Drivers/lvgl/src/draw/sw/lv_draw_sw_arc.c **** /**********************
  53:Drivers/lvgl/src/draw/sw/lv_draw_sw_arc.c ****  *      MACROS
  54:Drivers/lvgl/src/draw/sw/lv_draw_sw_arc.c ****  **********************/
  55:Drivers/lvgl/src/draw/sw/lv_draw_sw_arc.c **** 
  56:Drivers/lvgl/src/draw/sw/lv_draw_sw_arc.c **** /**********************
  57:Drivers/lvgl/src/draw/sw/lv_draw_sw_arc.c ****  *   GLOBAL FUNCTIONS
  58:Drivers/lvgl/src/draw/sw/lv_draw_sw_arc.c ****  **********************/
  59:Drivers/lvgl/src/draw/sw/lv_draw_sw_arc.c **** 
  60:Drivers/lvgl/src/draw/sw/lv_draw_sw_arc.c **** void lv_draw_sw_arc(lv_draw_ctx_t * draw_ctx, const lv_draw_arc_dsc_t * dsc, const lv_point_t * cen
  61:Drivers/lvgl/src/draw/sw/lv_draw_sw_arc.c ****                     uint16_t start_angle, uint16_t end_angle)
  62:Drivers/lvgl/src/draw/sw/lv_draw_sw_arc.c **** {
  63:Drivers/lvgl/src/draw/sw/lv_draw_sw_arc.c **** #if LV_DRAW_COMPLEX
  64:Drivers/lvgl/src/draw/sw/lv_draw_sw_arc.c ****     if(dsc->opa <= LV_OPA_MIN) return;
  65:Drivers/lvgl/src/draw/sw/lv_draw_sw_arc.c ****     if(dsc->width == 0) return;
  66:Drivers/lvgl/src/draw/sw/lv_draw_sw_arc.c ****     if(start_angle == end_angle) return;
  67:Drivers/lvgl/src/draw/sw/lv_draw_sw_arc.c **** 
  68:Drivers/lvgl/src/draw/sw/lv_draw_sw_arc.c ****     lv_coord_t width = dsc->width;
  69:Drivers/lvgl/src/draw/sw/lv_draw_sw_arc.c ****     if(width > radius) width = radius;
  70:Drivers/lvgl/src/draw/sw/lv_draw_sw_arc.c **** 
  71:Drivers/lvgl/src/draw/sw/lv_draw_sw_arc.c ****     lv_draw_rect_dsc_t cir_dsc;
  72:Drivers/lvgl/src/draw/sw/lv_draw_sw_arc.c ****     lv_draw_rect_dsc_init(&cir_dsc);
  73:Drivers/lvgl/src/draw/sw/lv_draw_sw_arc.c ****     cir_dsc.blend_mode = dsc->blend_mode;
  74:Drivers/lvgl/src/draw/sw/lv_draw_sw_arc.c ****     if(dsc->img_src) {
  75:Drivers/lvgl/src/draw/sw/lv_draw_sw_arc.c ****         cir_dsc.bg_opa = LV_OPA_TRANSP;
  76:Drivers/lvgl/src/draw/sw/lv_draw_sw_arc.c ****         cir_dsc.bg_img_src = dsc->img_src;
  77:Drivers/lvgl/src/draw/sw/lv_draw_sw_arc.c ****         cir_dsc.bg_img_opa = dsc->opa;
  78:Drivers/lvgl/src/draw/sw/lv_draw_sw_arc.c ****     }
  79:Drivers/lvgl/src/draw/sw/lv_draw_sw_arc.c ****     else {
  80:Drivers/lvgl/src/draw/sw/lv_draw_sw_arc.c ****         cir_dsc.bg_opa = dsc->opa;
  81:Drivers/lvgl/src/draw/sw/lv_draw_sw_arc.c ****         cir_dsc.bg_color = dsc->color;
  82:Drivers/lvgl/src/draw/sw/lv_draw_sw_arc.c ****     }
  83:Drivers/lvgl/src/draw/sw/lv_draw_sw_arc.c **** 
  84:Drivers/lvgl/src/draw/sw/lv_draw_sw_arc.c ****     lv_area_t area_out;
  85:Drivers/lvgl/src/draw/sw/lv_draw_sw_arc.c ****     area_out.x1 = center->x - radius;
  86:Drivers/lvgl/src/draw/sw/lv_draw_sw_arc.c ****     area_out.y1 = center->y - radius;
  87:Drivers/lvgl/src/draw/sw/lv_draw_sw_arc.c ****     area_out.x2 = center->x + radius - 1;  /*-1 because the center already belongs to the left/bott
ARM GAS  /var/folders/lp/x54gwt890xv47sdkqj1k04q40000gn/T//cc8BXUdH.s 			page 3


  88:Drivers/lvgl/src/draw/sw/lv_draw_sw_arc.c ****     area_out.y2 = center->y + radius - 1;
  89:Drivers/lvgl/src/draw/sw/lv_draw_sw_arc.c **** 
  90:Drivers/lvgl/src/draw/sw/lv_draw_sw_arc.c ****     lv_area_t area_in;
  91:Drivers/lvgl/src/draw/sw/lv_draw_sw_arc.c ****     lv_area_copy(&area_in, &area_out);
  92:Drivers/lvgl/src/draw/sw/lv_draw_sw_arc.c ****     area_in.x1 += dsc->width;
  93:Drivers/lvgl/src/draw/sw/lv_draw_sw_arc.c ****     area_in.y1 += dsc->width;
  94:Drivers/lvgl/src/draw/sw/lv_draw_sw_arc.c ****     area_in.x2 -= dsc->width;
  95:Drivers/lvgl/src/draw/sw/lv_draw_sw_arc.c ****     area_in.y2 -= dsc->width;
  96:Drivers/lvgl/src/draw/sw/lv_draw_sw_arc.c **** 
  97:Drivers/lvgl/src/draw/sw/lv_draw_sw_arc.c ****     /*Create inner the mask*/
  98:Drivers/lvgl/src/draw/sw/lv_draw_sw_arc.c ****     int16_t mask_in_id = LV_MASK_ID_INV;
  99:Drivers/lvgl/src/draw/sw/lv_draw_sw_arc.c ****     lv_draw_mask_radius_param_t mask_in_param;
 100:Drivers/lvgl/src/draw/sw/lv_draw_sw_arc.c ****     bool mask_in_param_valid = false;
 101:Drivers/lvgl/src/draw/sw/lv_draw_sw_arc.c ****     if(lv_area_get_width(&area_in) > 0 && lv_area_get_height(&area_in) > 0) {
 102:Drivers/lvgl/src/draw/sw/lv_draw_sw_arc.c ****         lv_draw_mask_radius_init(&mask_in_param, &area_in, LV_RADIUS_CIRCLE, true);
 103:Drivers/lvgl/src/draw/sw/lv_draw_sw_arc.c ****         mask_in_param_valid = true;
 104:Drivers/lvgl/src/draw/sw/lv_draw_sw_arc.c ****         mask_in_id = lv_draw_mask_add(&mask_in_param, NULL);
 105:Drivers/lvgl/src/draw/sw/lv_draw_sw_arc.c ****     }
 106:Drivers/lvgl/src/draw/sw/lv_draw_sw_arc.c **** 
 107:Drivers/lvgl/src/draw/sw/lv_draw_sw_arc.c ****     lv_draw_mask_radius_param_t mask_out_param;
 108:Drivers/lvgl/src/draw/sw/lv_draw_sw_arc.c ****     lv_draw_mask_radius_init(&mask_out_param, &area_out, LV_RADIUS_CIRCLE, false);
 109:Drivers/lvgl/src/draw/sw/lv_draw_sw_arc.c ****     int16_t mask_out_id = lv_draw_mask_add(&mask_out_param, NULL);
 110:Drivers/lvgl/src/draw/sw/lv_draw_sw_arc.c **** 
 111:Drivers/lvgl/src/draw/sw/lv_draw_sw_arc.c ****     /*Draw a full ring*/
 112:Drivers/lvgl/src/draw/sw/lv_draw_sw_arc.c ****     if(start_angle + 360 == end_angle || start_angle == end_angle + 360) {
 113:Drivers/lvgl/src/draw/sw/lv_draw_sw_arc.c ****         cir_dsc.radius = LV_RADIUS_CIRCLE;
 114:Drivers/lvgl/src/draw/sw/lv_draw_sw_arc.c ****         lv_draw_rect(draw_ctx, &cir_dsc, &area_out);
 115:Drivers/lvgl/src/draw/sw/lv_draw_sw_arc.c **** 
 116:Drivers/lvgl/src/draw/sw/lv_draw_sw_arc.c ****         lv_draw_mask_remove_id(mask_out_id);
 117:Drivers/lvgl/src/draw/sw/lv_draw_sw_arc.c ****         if(mask_in_id != LV_MASK_ID_INV) lv_draw_mask_remove_id(mask_in_id);
 118:Drivers/lvgl/src/draw/sw/lv_draw_sw_arc.c **** 
 119:Drivers/lvgl/src/draw/sw/lv_draw_sw_arc.c ****         lv_draw_mask_free_param(&mask_out_param);
 120:Drivers/lvgl/src/draw/sw/lv_draw_sw_arc.c ****         if(mask_in_param_valid) {
 121:Drivers/lvgl/src/draw/sw/lv_draw_sw_arc.c ****             lv_draw_mask_free_param(&mask_in_param);
 122:Drivers/lvgl/src/draw/sw/lv_draw_sw_arc.c ****         }
 123:Drivers/lvgl/src/draw/sw/lv_draw_sw_arc.c **** 
 124:Drivers/lvgl/src/draw/sw/lv_draw_sw_arc.c ****         return;
 125:Drivers/lvgl/src/draw/sw/lv_draw_sw_arc.c ****     }
 126:Drivers/lvgl/src/draw/sw/lv_draw_sw_arc.c **** 
 127:Drivers/lvgl/src/draw/sw/lv_draw_sw_arc.c ****     while(start_angle >= 360) start_angle -= 360;
 128:Drivers/lvgl/src/draw/sw/lv_draw_sw_arc.c ****     while(end_angle >= 360) end_angle -= 360;
 129:Drivers/lvgl/src/draw/sw/lv_draw_sw_arc.c **** 
 130:Drivers/lvgl/src/draw/sw/lv_draw_sw_arc.c ****     lv_draw_mask_angle_param_t mask_angle_param;
 131:Drivers/lvgl/src/draw/sw/lv_draw_sw_arc.c ****     lv_draw_mask_angle_init(&mask_angle_param, center->x, center->y, start_angle, end_angle);
 132:Drivers/lvgl/src/draw/sw/lv_draw_sw_arc.c ****     int16_t mask_angle_id = lv_draw_mask_add(&mask_angle_param, NULL);
 133:Drivers/lvgl/src/draw/sw/lv_draw_sw_arc.c **** 
 134:Drivers/lvgl/src/draw/sw/lv_draw_sw_arc.c ****     int32_t angle_gap;
 135:Drivers/lvgl/src/draw/sw/lv_draw_sw_arc.c ****     if(end_angle > start_angle) {
 136:Drivers/lvgl/src/draw/sw/lv_draw_sw_arc.c ****         angle_gap = 360 - (end_angle - start_angle);
 137:Drivers/lvgl/src/draw/sw/lv_draw_sw_arc.c ****     }
 138:Drivers/lvgl/src/draw/sw/lv_draw_sw_arc.c ****     else {
 139:Drivers/lvgl/src/draw/sw/lv_draw_sw_arc.c ****         angle_gap = start_angle - end_angle;
 140:Drivers/lvgl/src/draw/sw/lv_draw_sw_arc.c ****     }
 141:Drivers/lvgl/src/draw/sw/lv_draw_sw_arc.c **** 
 142:Drivers/lvgl/src/draw/sw/lv_draw_sw_arc.c ****     const lv_area_t * clip_area_ori = draw_ctx->clip_area;
 143:Drivers/lvgl/src/draw/sw/lv_draw_sw_arc.c **** 
 144:Drivers/lvgl/src/draw/sw/lv_draw_sw_arc.c ****     if(angle_gap > SPLIT_ANGLE_GAP_LIMIT && radius > SPLIT_RADIUS_LIMIT) {
ARM GAS  /var/folders/lp/x54gwt890xv47sdkqj1k04q40000gn/T//cc8BXUdH.s 			page 4


 145:Drivers/lvgl/src/draw/sw/lv_draw_sw_arc.c ****         /*Handle each quarter individually and skip which is empty*/
 146:Drivers/lvgl/src/draw/sw/lv_draw_sw_arc.c ****         quarter_draw_dsc_t q_dsc;
 147:Drivers/lvgl/src/draw/sw/lv_draw_sw_arc.c ****         q_dsc.center = center;
 148:Drivers/lvgl/src/draw/sw/lv_draw_sw_arc.c ****         q_dsc.radius = radius;
 149:Drivers/lvgl/src/draw/sw/lv_draw_sw_arc.c ****         q_dsc.start_angle = start_angle;
 150:Drivers/lvgl/src/draw/sw/lv_draw_sw_arc.c ****         q_dsc.end_angle = end_angle;
 151:Drivers/lvgl/src/draw/sw/lv_draw_sw_arc.c ****         q_dsc.start_quarter = (start_angle / 90) & 0x3;
 152:Drivers/lvgl/src/draw/sw/lv_draw_sw_arc.c ****         q_dsc.end_quarter = (end_angle / 90) & 0x3;
 153:Drivers/lvgl/src/draw/sw/lv_draw_sw_arc.c ****         q_dsc.width = width;
 154:Drivers/lvgl/src/draw/sw/lv_draw_sw_arc.c ****         q_dsc.draw_dsc = &cir_dsc;
 155:Drivers/lvgl/src/draw/sw/lv_draw_sw_arc.c ****         q_dsc.draw_area = &area_out;
 156:Drivers/lvgl/src/draw/sw/lv_draw_sw_arc.c ****         q_dsc.draw_ctx = draw_ctx;
 157:Drivers/lvgl/src/draw/sw/lv_draw_sw_arc.c **** 
 158:Drivers/lvgl/src/draw/sw/lv_draw_sw_arc.c ****         draw_quarter_0(&q_dsc);
 159:Drivers/lvgl/src/draw/sw/lv_draw_sw_arc.c ****         draw_quarter_1(&q_dsc);
 160:Drivers/lvgl/src/draw/sw/lv_draw_sw_arc.c ****         draw_quarter_2(&q_dsc);
 161:Drivers/lvgl/src/draw/sw/lv_draw_sw_arc.c ****         draw_quarter_3(&q_dsc);
 162:Drivers/lvgl/src/draw/sw/lv_draw_sw_arc.c ****     }
 163:Drivers/lvgl/src/draw/sw/lv_draw_sw_arc.c ****     else {
 164:Drivers/lvgl/src/draw/sw/lv_draw_sw_arc.c ****         lv_draw_rect(draw_ctx, &cir_dsc, &area_out);
 165:Drivers/lvgl/src/draw/sw/lv_draw_sw_arc.c ****     }
 166:Drivers/lvgl/src/draw/sw/lv_draw_sw_arc.c **** 
 167:Drivers/lvgl/src/draw/sw/lv_draw_sw_arc.c ****     lv_draw_mask_free_param(&mask_angle_param);
 168:Drivers/lvgl/src/draw/sw/lv_draw_sw_arc.c ****     lv_draw_mask_free_param(&mask_out_param);
 169:Drivers/lvgl/src/draw/sw/lv_draw_sw_arc.c ****     if(mask_in_param_valid) {
 170:Drivers/lvgl/src/draw/sw/lv_draw_sw_arc.c ****         lv_draw_mask_free_param(&mask_in_param);
 171:Drivers/lvgl/src/draw/sw/lv_draw_sw_arc.c ****     }
 172:Drivers/lvgl/src/draw/sw/lv_draw_sw_arc.c **** 
 173:Drivers/lvgl/src/draw/sw/lv_draw_sw_arc.c ****     lv_draw_mask_remove_id(mask_angle_id);
 174:Drivers/lvgl/src/draw/sw/lv_draw_sw_arc.c ****     lv_draw_mask_remove_id(mask_out_id);
 175:Drivers/lvgl/src/draw/sw/lv_draw_sw_arc.c ****     if(mask_in_id != LV_MASK_ID_INV) lv_draw_mask_remove_id(mask_in_id);
 176:Drivers/lvgl/src/draw/sw/lv_draw_sw_arc.c **** 
 177:Drivers/lvgl/src/draw/sw/lv_draw_sw_arc.c ****     if(dsc->rounded) {
 178:Drivers/lvgl/src/draw/sw/lv_draw_sw_arc.c **** 
 179:Drivers/lvgl/src/draw/sw/lv_draw_sw_arc.c ****         lv_draw_mask_radius_param_t mask_end_param;
 180:Drivers/lvgl/src/draw/sw/lv_draw_sw_arc.c **** 
 181:Drivers/lvgl/src/draw/sw/lv_draw_sw_arc.c ****         lv_area_t round_area;
 182:Drivers/lvgl/src/draw/sw/lv_draw_sw_arc.c ****         get_rounded_area(start_angle, radius, width, &round_area);
 183:Drivers/lvgl/src/draw/sw/lv_draw_sw_arc.c ****         round_area.x1 += center->x;
 184:Drivers/lvgl/src/draw/sw/lv_draw_sw_arc.c ****         round_area.x2 += center->x;
 185:Drivers/lvgl/src/draw/sw/lv_draw_sw_arc.c ****         round_area.y1 += center->y;
 186:Drivers/lvgl/src/draw/sw/lv_draw_sw_arc.c ****         round_area.y2 += center->y;
 187:Drivers/lvgl/src/draw/sw/lv_draw_sw_arc.c ****         lv_area_t clip_area2;
 188:Drivers/lvgl/src/draw/sw/lv_draw_sw_arc.c ****         if(_lv_area_intersect(&clip_area2, clip_area_ori, &round_area)) {
 189:Drivers/lvgl/src/draw/sw/lv_draw_sw_arc.c ****             lv_draw_mask_radius_init(&mask_end_param, &round_area, LV_RADIUS_CIRCLE, false);
 190:Drivers/lvgl/src/draw/sw/lv_draw_sw_arc.c ****             int16_t mask_end_id = lv_draw_mask_add(&mask_end_param, NULL);
 191:Drivers/lvgl/src/draw/sw/lv_draw_sw_arc.c **** 
 192:Drivers/lvgl/src/draw/sw/lv_draw_sw_arc.c ****             draw_ctx->clip_area = &clip_area2;
 193:Drivers/lvgl/src/draw/sw/lv_draw_sw_arc.c ****             lv_draw_rect(draw_ctx, &cir_dsc, &area_out);
 194:Drivers/lvgl/src/draw/sw/lv_draw_sw_arc.c ****             lv_draw_mask_remove_id(mask_end_id);
 195:Drivers/lvgl/src/draw/sw/lv_draw_sw_arc.c ****             lv_draw_mask_free_param(&mask_end_param);
 196:Drivers/lvgl/src/draw/sw/lv_draw_sw_arc.c ****         }
 197:Drivers/lvgl/src/draw/sw/lv_draw_sw_arc.c **** 
 198:Drivers/lvgl/src/draw/sw/lv_draw_sw_arc.c ****         get_rounded_area(end_angle, radius, width, &round_area);
 199:Drivers/lvgl/src/draw/sw/lv_draw_sw_arc.c ****         round_area.x1 += center->x;
 200:Drivers/lvgl/src/draw/sw/lv_draw_sw_arc.c ****         round_area.x2 += center->x;
 201:Drivers/lvgl/src/draw/sw/lv_draw_sw_arc.c ****         round_area.y1 += center->y;
ARM GAS  /var/folders/lp/x54gwt890xv47sdkqj1k04q40000gn/T//cc8BXUdH.s 			page 5


 202:Drivers/lvgl/src/draw/sw/lv_draw_sw_arc.c ****         round_area.y2 += center->y;
 203:Drivers/lvgl/src/draw/sw/lv_draw_sw_arc.c ****         if(_lv_area_intersect(&clip_area2, clip_area_ori, &round_area)) {
 204:Drivers/lvgl/src/draw/sw/lv_draw_sw_arc.c ****             lv_draw_mask_radius_init(&mask_end_param, &round_area, LV_RADIUS_CIRCLE, false);
 205:Drivers/lvgl/src/draw/sw/lv_draw_sw_arc.c ****             int16_t mask_end_id = lv_draw_mask_add(&mask_end_param, NULL);
 206:Drivers/lvgl/src/draw/sw/lv_draw_sw_arc.c **** 
 207:Drivers/lvgl/src/draw/sw/lv_draw_sw_arc.c ****             draw_ctx->clip_area = &clip_area2;
 208:Drivers/lvgl/src/draw/sw/lv_draw_sw_arc.c ****             lv_draw_rect(draw_ctx, &cir_dsc, &area_out);
 209:Drivers/lvgl/src/draw/sw/lv_draw_sw_arc.c ****             lv_draw_mask_remove_id(mask_end_id);
 210:Drivers/lvgl/src/draw/sw/lv_draw_sw_arc.c ****             lv_draw_mask_free_param(&mask_end_param);
 211:Drivers/lvgl/src/draw/sw/lv_draw_sw_arc.c ****         }
 212:Drivers/lvgl/src/draw/sw/lv_draw_sw_arc.c ****         draw_ctx->clip_area = clip_area_ori;
 213:Drivers/lvgl/src/draw/sw/lv_draw_sw_arc.c ****     }
 214:Drivers/lvgl/src/draw/sw/lv_draw_sw_arc.c **** #else
 215:Drivers/lvgl/src/draw/sw/lv_draw_sw_arc.c ****     LV_LOG_WARN("Can't draw arc with LV_DRAW_COMPLEX == 0");
 216:Drivers/lvgl/src/draw/sw/lv_draw_sw_arc.c ****     LV_UNUSED(center);
 217:Drivers/lvgl/src/draw/sw/lv_draw_sw_arc.c ****     LV_UNUSED(radius);
 218:Drivers/lvgl/src/draw/sw/lv_draw_sw_arc.c ****     LV_UNUSED(start_angle);
 219:Drivers/lvgl/src/draw/sw/lv_draw_sw_arc.c ****     LV_UNUSED(end_angle);
 220:Drivers/lvgl/src/draw/sw/lv_draw_sw_arc.c ****     LV_UNUSED(draw_ctx);
 221:Drivers/lvgl/src/draw/sw/lv_draw_sw_arc.c ****     LV_UNUSED(dsc);
 222:Drivers/lvgl/src/draw/sw/lv_draw_sw_arc.c **** #endif /*LV_DRAW_COMPLEX*/
 223:Drivers/lvgl/src/draw/sw/lv_draw_sw_arc.c **** }
 224:Drivers/lvgl/src/draw/sw/lv_draw_sw_arc.c **** 
 225:Drivers/lvgl/src/draw/sw/lv_draw_sw_arc.c **** /**********************
 226:Drivers/lvgl/src/draw/sw/lv_draw_sw_arc.c ****  *   STATIC FUNCTIONS
 227:Drivers/lvgl/src/draw/sw/lv_draw_sw_arc.c ****  **********************/
 228:Drivers/lvgl/src/draw/sw/lv_draw_sw_arc.c **** 
 229:Drivers/lvgl/src/draw/sw/lv_draw_sw_arc.c **** #if LV_DRAW_COMPLEX
 230:Drivers/lvgl/src/draw/sw/lv_draw_sw_arc.c **** static void draw_quarter_0(quarter_draw_dsc_t * q)
 231:Drivers/lvgl/src/draw/sw/lv_draw_sw_arc.c **** {
  29              		.loc 1 231 1 view -0
  30              		.cfi_startproc
  31              		@ args = 0, pretend = 0, frame = 8
  32              		@ frame_needed = 0, uses_anonymous_args = 0
  33              		.loc 1 231 1 is_stmt 0 view .LVU1
  34 0000 70B5     		push	{r4, r5, r6, lr}
  35              		.cfi_def_cfa_offset 16
  36              		.cfi_offset 4, -16
  37              		.cfi_offset 5, -12
  38              		.cfi_offset 6, -8
  39              		.cfi_offset 14, -4
  40 0002 82B0     		sub	sp, sp, #8
  41              		.cfi_def_cfa_offset 24
  42 0004 0446     		mov	r4, r0
 232:Drivers/lvgl/src/draw/sw/lv_draw_sw_arc.c ****     const lv_area_t * clip_area_ori = q->draw_ctx->clip_area;
  43              		.loc 1 232 5 is_stmt 1 view .LVU2
  44              		.loc 1 232 40 is_stmt 0 view .LVU3
  45 0006 8369     		ldr	r3, [r0, #24]
  46              		.loc 1 232 23 view .LVU4
  47 0008 9D68     		ldr	r5, [r3, #8]
  48              	.LVL1:
 233:Drivers/lvgl/src/draw/sw/lv_draw_sw_arc.c ****     lv_area_t quarter_area;
  49              		.loc 1 233 5 is_stmt 1 view .LVU5
 234:Drivers/lvgl/src/draw/sw/lv_draw_sw_arc.c **** 
 235:Drivers/lvgl/src/draw/sw/lv_draw_sw_arc.c ****     if(q->start_quarter == 0 && q->end_quarter == 0 && q->start_angle < q->end_angle) {
  50              		.loc 1 235 5 view .LVU6
  51              		.loc 1 235 9 is_stmt 0 view .LVU7
ARM GAS  /var/folders/lp/x54gwt890xv47sdkqj1k04q40000gn/T//cc8BXUdH.s 			page 6


  52 000a 4389     		ldrh	r3, [r0, #10]
  53              		.loc 1 235 7 view .LVU8
  54 000c 2BB9     		cbnz	r3, .L2
  55              		.loc 1 235 34 discriminator 1 view .LVU9
  56 000e 8289     		ldrh	r2, [r0, #12]
  57              		.loc 1 235 30 discriminator 1 view .LVU10
  58 0010 1AB9     		cbnz	r2, .L2
  59              		.loc 1 235 57 discriminator 2 view .LVU11
  60 0012 C088     		ldrh	r0, [r0, #6]
  61              	.LVL2:
  62              		.loc 1 235 74 discriminator 2 view .LVU12
  63 0014 2289     		ldrh	r2, [r4, #8]
  64              		.loc 1 235 53 discriminator 2 view .LVU13
  65 0016 9042     		cmp	r0, r2
  66 0018 0ED3     		bcc	.L12
  67              	.L2:
 236:Drivers/lvgl/src/draw/sw/lv_draw_sw_arc.c ****         /*Small arc here*/
 237:Drivers/lvgl/src/draw/sw/lv_draw_sw_arc.c ****         quarter_area.y1 = q->center->y + ((lv_trigo_sin(q->start_angle) * (q->radius - q->width)) >
 238:Drivers/lvgl/src/draw/sw/lv_draw_sw_arc.c ****         quarter_area.x2 = q->center->x + ((lv_trigo_sin(q->start_angle + 90) * (q->radius)) >> LV_T
 239:Drivers/lvgl/src/draw/sw/lv_draw_sw_arc.c **** 
 240:Drivers/lvgl/src/draw/sw/lv_draw_sw_arc.c ****         quarter_area.y2 = q->center->y + ((lv_trigo_sin(q->end_angle) * q->radius) >> LV_TRIGO_SHIF
 241:Drivers/lvgl/src/draw/sw/lv_draw_sw_arc.c ****         quarter_area.x1 = q->center->x + ((lv_trigo_sin(q->end_angle + 90) * (q->radius - q->width)
 242:Drivers/lvgl/src/draw/sw/lv_draw_sw_arc.c **** 
 243:Drivers/lvgl/src/draw/sw/lv_draw_sw_arc.c ****         bool ok = _lv_area_intersect(&quarter_area, &quarter_area, clip_area_ori);
 244:Drivers/lvgl/src/draw/sw/lv_draw_sw_arc.c ****         if(ok) {
 245:Drivers/lvgl/src/draw/sw/lv_draw_sw_arc.c ****             q->draw_ctx->clip_area = &quarter_area;
 246:Drivers/lvgl/src/draw/sw/lv_draw_sw_arc.c ****             lv_draw_rect(q->draw_ctx, q->draw_dsc, q->draw_area);
 247:Drivers/lvgl/src/draw/sw/lv_draw_sw_arc.c ****         }
 248:Drivers/lvgl/src/draw/sw/lv_draw_sw_arc.c ****     }
 249:Drivers/lvgl/src/draw/sw/lv_draw_sw_arc.c ****     else if(q->start_quarter == 0 || q->end_quarter == 0) {
  68              		.loc 1 249 10 is_stmt 1 view .LVU14
  69              		.loc 1 249 12 is_stmt 0 view .LVU15
  70 001a 1BB1     		cbz	r3, .L4
  71              		.loc 1 249 39 discriminator 1 view .LVU16
  72 001c A289     		ldrh	r2, [r4, #12]
  73              		.loc 1 249 35 discriminator 1 view .LVU17
  74 001e 002A     		cmp	r2, #0
  75 0020 40F0CD80 		bne	.L5
  76              	.L4:
 250:Drivers/lvgl/src/draw/sw/lv_draw_sw_arc.c ****         /*Start and/or end arcs here*/
 251:Drivers/lvgl/src/draw/sw/lv_draw_sw_arc.c ****         if(q->start_quarter == 0) {
  77              		.loc 1 251 9 is_stmt 1 view .LVU18
  78              		.loc 1 251 11 is_stmt 0 view .LVU19
  79 0024 002B     		cmp	r3, #0
  80 0026 56D0     		beq	.L13
  81              	.L6:
 252:Drivers/lvgl/src/draw/sw/lv_draw_sw_arc.c ****             quarter_area.x1 = q->center->x;
 253:Drivers/lvgl/src/draw/sw/lv_draw_sw_arc.c ****             quarter_area.y2 = q->center->y + q->radius;
 254:Drivers/lvgl/src/draw/sw/lv_draw_sw_arc.c **** 
 255:Drivers/lvgl/src/draw/sw/lv_draw_sw_arc.c ****             quarter_area.y1 = q->center->y + ((lv_trigo_sin(q->start_angle) * (q->radius - q->width
 256:Drivers/lvgl/src/draw/sw/lv_draw_sw_arc.c ****             quarter_area.x2 = q->center->x + ((lv_trigo_sin(q->start_angle + 90) * (q->radius)) >> 
 257:Drivers/lvgl/src/draw/sw/lv_draw_sw_arc.c **** 
 258:Drivers/lvgl/src/draw/sw/lv_draw_sw_arc.c ****             bool ok = _lv_area_intersect(&quarter_area, &quarter_area, clip_area_ori);
 259:Drivers/lvgl/src/draw/sw/lv_draw_sw_arc.c ****             if(ok) {
 260:Drivers/lvgl/src/draw/sw/lv_draw_sw_arc.c ****                 q->draw_ctx->clip_area = &quarter_area;
 261:Drivers/lvgl/src/draw/sw/lv_draw_sw_arc.c ****                 lv_draw_rect(q->draw_ctx, q->draw_dsc, q->draw_area);
 262:Drivers/lvgl/src/draw/sw/lv_draw_sw_arc.c ****             }
ARM GAS  /var/folders/lp/x54gwt890xv47sdkqj1k04q40000gn/T//cc8BXUdH.s 			page 7


 263:Drivers/lvgl/src/draw/sw/lv_draw_sw_arc.c ****         }
 264:Drivers/lvgl/src/draw/sw/lv_draw_sw_arc.c ****         if(q->end_quarter == 0) {
  82              		.loc 1 264 9 is_stmt 1 view .LVU20
  83              		.loc 1 264 13 is_stmt 0 view .LVU21
  84 0028 A389     		ldrh	r3, [r4, #12]
  85              		.loc 1 264 11 view .LVU22
  86 002a 002B     		cmp	r3, #0
  87 002c 00F08D80 		beq	.L14
  88              	.L3:
 265:Drivers/lvgl/src/draw/sw/lv_draw_sw_arc.c ****             quarter_area.x2 = q->center->x + q->radius;
 266:Drivers/lvgl/src/draw/sw/lv_draw_sw_arc.c ****             quarter_area.y1 = q->center->y;
 267:Drivers/lvgl/src/draw/sw/lv_draw_sw_arc.c **** 
 268:Drivers/lvgl/src/draw/sw/lv_draw_sw_arc.c ****             quarter_area.y2 = q->center->y + ((lv_trigo_sin(q->end_angle) * q->radius) >> LV_TRIGO_
 269:Drivers/lvgl/src/draw/sw/lv_draw_sw_arc.c ****             quarter_area.x1 = q->center->x + ((lv_trigo_sin(q->end_angle + 90) * (q->radius - q->wi
 270:Drivers/lvgl/src/draw/sw/lv_draw_sw_arc.c **** 
 271:Drivers/lvgl/src/draw/sw/lv_draw_sw_arc.c ****             bool ok = _lv_area_intersect(&quarter_area, &quarter_area, clip_area_ori);
 272:Drivers/lvgl/src/draw/sw/lv_draw_sw_arc.c ****             if(ok) {
 273:Drivers/lvgl/src/draw/sw/lv_draw_sw_arc.c ****                 q->draw_ctx->clip_area = &quarter_area;
 274:Drivers/lvgl/src/draw/sw/lv_draw_sw_arc.c ****                 lv_draw_rect(q->draw_ctx, q->draw_dsc, q->draw_area);
 275:Drivers/lvgl/src/draw/sw/lv_draw_sw_arc.c ****             }
 276:Drivers/lvgl/src/draw/sw/lv_draw_sw_arc.c ****         }
 277:Drivers/lvgl/src/draw/sw/lv_draw_sw_arc.c ****     }
 278:Drivers/lvgl/src/draw/sw/lv_draw_sw_arc.c ****     else if((q->start_quarter == q->end_quarter && q->start_quarter != 0 && q->end_angle < q->start
 279:Drivers/lvgl/src/draw/sw/lv_draw_sw_arc.c ****             (q->start_quarter == 2 && q->end_quarter == 1) ||
 280:Drivers/lvgl/src/draw/sw/lv_draw_sw_arc.c ****             (q->start_quarter == 3 && q->end_quarter == 2) ||
 281:Drivers/lvgl/src/draw/sw/lv_draw_sw_arc.c ****             (q->start_quarter == 3 && q->end_quarter == 1)) {
 282:Drivers/lvgl/src/draw/sw/lv_draw_sw_arc.c ****         /*Arc crosses here*/
 283:Drivers/lvgl/src/draw/sw/lv_draw_sw_arc.c ****         quarter_area.x1 = q->center->x;
 284:Drivers/lvgl/src/draw/sw/lv_draw_sw_arc.c ****         quarter_area.y1 = q->center->y;
 285:Drivers/lvgl/src/draw/sw/lv_draw_sw_arc.c ****         quarter_area.x2 = q->center->x + q->radius;
 286:Drivers/lvgl/src/draw/sw/lv_draw_sw_arc.c ****         quarter_area.y2 = q->center->y + q->radius;
 287:Drivers/lvgl/src/draw/sw/lv_draw_sw_arc.c **** 
 288:Drivers/lvgl/src/draw/sw/lv_draw_sw_arc.c ****         bool ok = _lv_area_intersect(&quarter_area, &quarter_area, clip_area_ori);
 289:Drivers/lvgl/src/draw/sw/lv_draw_sw_arc.c ****         if(ok) {
 290:Drivers/lvgl/src/draw/sw/lv_draw_sw_arc.c ****             q->draw_ctx->clip_area = &quarter_area;
 291:Drivers/lvgl/src/draw/sw/lv_draw_sw_arc.c ****             lv_draw_rect(q->draw_ctx, q->draw_dsc, q->draw_area);
 292:Drivers/lvgl/src/draw/sw/lv_draw_sw_arc.c ****         }
 293:Drivers/lvgl/src/draw/sw/lv_draw_sw_arc.c ****     }
 294:Drivers/lvgl/src/draw/sw/lv_draw_sw_arc.c ****     q->draw_ctx->clip_area = clip_area_ori;
  89              		.loc 1 294 5 is_stmt 1 view .LVU23
  90              		.loc 1 294 6 is_stmt 0 view .LVU24
  91 0030 A369     		ldr	r3, [r4, #24]
  92              		.loc 1 294 28 view .LVU25
  93 0032 9D60     		str	r5, [r3, #8]
 295:Drivers/lvgl/src/draw/sw/lv_draw_sw_arc.c **** }
  94              		.loc 1 295 1 view .LVU26
  95 0034 02B0     		add	sp, sp, #8
  96              		.cfi_remember_state
  97              		.cfi_def_cfa_offset 16
  98              		@ sp needed
  99 0036 70BD     		pop	{r4, r5, r6, pc}
 100              	.LVL3:
 101              	.L12:
 102              		.cfi_restore_state
 103              	.LBB12:
 237:Drivers/lvgl/src/draw/sw/lv_draw_sw_arc.c ****         quarter_area.x2 = q->center->x + ((lv_trigo_sin(q->start_angle + 90) * (q->radius)) >> LV_T
 104              		.loc 1 237 9 is_stmt 1 view .LVU27
ARM GAS  /var/folders/lp/x54gwt890xv47sdkqj1k04q40000gn/T//cc8BXUdH.s 			page 8


 237:Drivers/lvgl/src/draw/sw/lv_draw_sw_arc.c ****         quarter_area.x2 = q->center->x + ((lv_trigo_sin(q->start_angle + 90) * (q->radius)) >> LV_T
 105              		.loc 1 237 28 is_stmt 0 view .LVU28
 106 0038 2368     		ldr	r3, [r4]
 237:Drivers/lvgl/src/draw/sw/lv_draw_sw_arc.c ****         quarter_area.x2 = q->center->x + ((lv_trigo_sin(q->start_angle + 90) * (q->radius)) >> LV_T
 107              		.loc 1 237 36 view .LVU29
 108 003a 5E88     		ldrh	r6, [r3, #2]
 237:Drivers/lvgl/src/draw/sw/lv_draw_sw_arc.c ****         quarter_area.x2 = q->center->x + ((lv_trigo_sin(q->start_angle + 90) * (q->radius)) >> LV_T
 109              		.loc 1 237 44 view .LVU30
 110 003c 00B2     		sxth	r0, r0
 111 003e FFF7FEFF 		bl	lv_trigo_sin
 112              	.LVL4:
 237:Drivers/lvgl/src/draw/sw/lv_draw_sw_arc.c ****         quarter_area.x2 = q->center->x + ((lv_trigo_sin(q->start_angle + 90) * (q->radius)) >> LV_T
 113              		.loc 1 237 77 discriminator 1 view .LVU31
 114 0042 B4F90430 		ldrsh	r3, [r4, #4]
 237:Drivers/lvgl/src/draw/sw/lv_draw_sw_arc.c ****         quarter_area.x2 = q->center->x + ((lv_trigo_sin(q->start_angle + 90) * (q->radius)) >> LV_T
 115              		.loc 1 237 89 discriminator 1 view .LVU32
 116 0046 B4F90E20 		ldrsh	r2, [r4, #14]
 237:Drivers/lvgl/src/draw/sw/lv_draw_sw_arc.c ****         quarter_area.x2 = q->center->x + ((lv_trigo_sin(q->start_angle + 90) * (q->radius)) >> LV_T
 117              		.loc 1 237 86 discriminator 1 view .LVU33
 118 004a 9B1A     		subs	r3, r3, r2
 237:Drivers/lvgl/src/draw/sw/lv_draw_sw_arc.c ****         quarter_area.x2 = q->center->x + ((lv_trigo_sin(q->start_angle + 90) * (q->radius)) >> LV_T
 119              		.loc 1 237 73 discriminator 1 view .LVU34
 120 004c 03FB00F0 		mul	r0, r3, r0
 237:Drivers/lvgl/src/draw/sw/lv_draw_sw_arc.c ****         quarter_area.x2 = q->center->x + ((lv_trigo_sin(q->start_angle + 90) * (q->radius)) >> LV_T
 121              		.loc 1 237 40 discriminator 1 view .LVU35
 122 0050 06EBE036 		add	r6, r6, r0, asr #15
 237:Drivers/lvgl/src/draw/sw/lv_draw_sw_arc.c ****         quarter_area.x2 = q->center->x + ((lv_trigo_sin(q->start_angle + 90) * (q->radius)) >> LV_T
 123              		.loc 1 237 25 discriminator 1 view .LVU36
 124 0054 ADF80260 		strh	r6, [sp, #2]	@ movhi
 238:Drivers/lvgl/src/draw/sw/lv_draw_sw_arc.c **** 
 125              		.loc 1 238 9 is_stmt 1 view .LVU37
 238:Drivers/lvgl/src/draw/sw/lv_draw_sw_arc.c **** 
 126              		.loc 1 238 28 is_stmt 0 view .LVU38
 127 0058 2368     		ldr	r3, [r4]
 238:Drivers/lvgl/src/draw/sw/lv_draw_sw_arc.c **** 
 128              		.loc 1 238 36 view .LVU39
 129 005a 1E88     		ldrh	r6, [r3]
 238:Drivers/lvgl/src/draw/sw/lv_draw_sw_arc.c **** 
 130              		.loc 1 238 58 view .LVU40
 131 005c E088     		ldrh	r0, [r4, #6]
 238:Drivers/lvgl/src/draw/sw/lv_draw_sw_arc.c **** 
 132              		.loc 1 238 72 view .LVU41
 133 005e 5A30     		adds	r0, r0, #90
 238:Drivers/lvgl/src/draw/sw/lv_draw_sw_arc.c **** 
 134              		.loc 1 238 44 view .LVU42
 135 0060 00B2     		sxth	r0, r0
 136 0062 FFF7FEFF 		bl	lv_trigo_sin
 137              	.LVL5:
 238:Drivers/lvgl/src/draw/sw/lv_draw_sw_arc.c **** 
 138              		.loc 1 238 82 discriminator 1 view .LVU43
 139 0066 B4F90430 		ldrsh	r3, [r4, #4]
 238:Drivers/lvgl/src/draw/sw/lv_draw_sw_arc.c **** 
 140              		.loc 1 238 78 discriminator 1 view .LVU44
 141 006a 03FB00F0 		mul	r0, r3, r0
 238:Drivers/lvgl/src/draw/sw/lv_draw_sw_arc.c **** 
 142              		.loc 1 238 40 discriminator 1 view .LVU45
 143 006e 06EBE036 		add	r6, r6, r0, asr #15
ARM GAS  /var/folders/lp/x54gwt890xv47sdkqj1k04q40000gn/T//cc8BXUdH.s 			page 9


 238:Drivers/lvgl/src/draw/sw/lv_draw_sw_arc.c **** 
 144              		.loc 1 238 25 discriminator 1 view .LVU46
 145 0072 ADF80460 		strh	r6, [sp, #4]	@ movhi
 240:Drivers/lvgl/src/draw/sw/lv_draw_sw_arc.c ****         quarter_area.x1 = q->center->x + ((lv_trigo_sin(q->end_angle + 90) * (q->radius - q->width)
 146              		.loc 1 240 9 is_stmt 1 view .LVU47
 240:Drivers/lvgl/src/draw/sw/lv_draw_sw_arc.c ****         quarter_area.x1 = q->center->x + ((lv_trigo_sin(q->end_angle + 90) * (q->radius - q->width)
 147              		.loc 1 240 28 is_stmt 0 view .LVU48
 148 0076 2368     		ldr	r3, [r4]
 240:Drivers/lvgl/src/draw/sw/lv_draw_sw_arc.c ****         quarter_area.x1 = q->center->x + ((lv_trigo_sin(q->end_angle + 90) * (q->radius - q->width)
 149              		.loc 1 240 36 view .LVU49
 150 0078 5E88     		ldrh	r6, [r3, #2]
 240:Drivers/lvgl/src/draw/sw/lv_draw_sw_arc.c ****         quarter_area.x1 = q->center->x + ((lv_trigo_sin(q->end_angle + 90) * (q->radius - q->width)
 151              		.loc 1 240 44 view .LVU50
 152 007a B4F90800 		ldrsh	r0, [r4, #8]
 153 007e FFF7FEFF 		bl	lv_trigo_sin
 154              	.LVL6:
 240:Drivers/lvgl/src/draw/sw/lv_draw_sw_arc.c ****         quarter_area.x1 = q->center->x + ((lv_trigo_sin(q->end_angle + 90) * (q->radius - q->width)
 155              		.loc 1 240 74 discriminator 1 view .LVU51
 156 0082 B4F90430 		ldrsh	r3, [r4, #4]
 240:Drivers/lvgl/src/draw/sw/lv_draw_sw_arc.c ****         quarter_area.x1 = q->center->x + ((lv_trigo_sin(q->end_angle + 90) * (q->radius - q->width)
 157              		.loc 1 240 71 discriminator 1 view .LVU52
 158 0086 03FB00F0 		mul	r0, r3, r0
 240:Drivers/lvgl/src/draw/sw/lv_draw_sw_arc.c ****         quarter_area.x1 = q->center->x + ((lv_trigo_sin(q->end_angle + 90) * (q->radius - q->width)
 159              		.loc 1 240 40 discriminator 1 view .LVU53
 160 008a 06EBE036 		add	r6, r6, r0, asr #15
 240:Drivers/lvgl/src/draw/sw/lv_draw_sw_arc.c ****         quarter_area.x1 = q->center->x + ((lv_trigo_sin(q->end_angle + 90) * (q->radius - q->width)
 161              		.loc 1 240 25 discriminator 1 view .LVU54
 162 008e ADF80660 		strh	r6, [sp, #6]	@ movhi
 241:Drivers/lvgl/src/draw/sw/lv_draw_sw_arc.c **** 
 163              		.loc 1 241 9 is_stmt 1 view .LVU55
 241:Drivers/lvgl/src/draw/sw/lv_draw_sw_arc.c **** 
 164              		.loc 1 241 28 is_stmt 0 view .LVU56
 165 0092 2368     		ldr	r3, [r4]
 241:Drivers/lvgl/src/draw/sw/lv_draw_sw_arc.c **** 
 166              		.loc 1 241 36 view .LVU57
 167 0094 1E88     		ldrh	r6, [r3]
 241:Drivers/lvgl/src/draw/sw/lv_draw_sw_arc.c **** 
 168              		.loc 1 241 58 view .LVU58
 169 0096 2089     		ldrh	r0, [r4, #8]
 241:Drivers/lvgl/src/draw/sw/lv_draw_sw_arc.c **** 
 170              		.loc 1 241 70 view .LVU59
 171 0098 5A30     		adds	r0, r0, #90
 241:Drivers/lvgl/src/draw/sw/lv_draw_sw_arc.c **** 
 172              		.loc 1 241 44 view .LVU60
 173 009a 00B2     		sxth	r0, r0
 174 009c FFF7FEFF 		bl	lv_trigo_sin
 175              	.LVL7:
 241:Drivers/lvgl/src/draw/sw/lv_draw_sw_arc.c **** 
 176              		.loc 1 241 80 discriminator 1 view .LVU61
 177 00a0 B4F90430 		ldrsh	r3, [r4, #4]
 241:Drivers/lvgl/src/draw/sw/lv_draw_sw_arc.c **** 
 178              		.loc 1 241 92 discriminator 1 view .LVU62
 179 00a4 B4F90E20 		ldrsh	r2, [r4, #14]
 241:Drivers/lvgl/src/draw/sw/lv_draw_sw_arc.c **** 
 180              		.loc 1 241 89 discriminator 1 view .LVU63
 181 00a8 9B1A     		subs	r3, r3, r2
 241:Drivers/lvgl/src/draw/sw/lv_draw_sw_arc.c **** 
ARM GAS  /var/folders/lp/x54gwt890xv47sdkqj1k04q40000gn/T//cc8BXUdH.s 			page 10


 182              		.loc 1 241 76 discriminator 1 view .LVU64
 183 00aa 03FB00F0 		mul	r0, r3, r0
 241:Drivers/lvgl/src/draw/sw/lv_draw_sw_arc.c **** 
 184              		.loc 1 241 40 discriminator 1 view .LVU65
 185 00ae 06EBE036 		add	r6, r6, r0, asr #15
 241:Drivers/lvgl/src/draw/sw/lv_draw_sw_arc.c **** 
 186              		.loc 1 241 25 discriminator 1 view .LVU66
 187 00b2 ADF80060 		strh	r6, [sp]	@ movhi
 243:Drivers/lvgl/src/draw/sw/lv_draw_sw_arc.c ****         if(ok) {
 188              		.loc 1 243 9 is_stmt 1 view .LVU67
 243:Drivers/lvgl/src/draw/sw/lv_draw_sw_arc.c ****         if(ok) {
 189              		.loc 1 243 19 is_stmt 0 view .LVU68
 190 00b6 2A46     		mov	r2, r5
 191 00b8 6946     		mov	r1, sp
 192 00ba 6846     		mov	r0, sp
 193 00bc FFF7FEFF 		bl	_lv_area_intersect
 194              	.LVL8:
 244:Drivers/lvgl/src/draw/sw/lv_draw_sw_arc.c ****             q->draw_ctx->clip_area = &quarter_area;
 195              		.loc 1 244 9 is_stmt 1 view .LVU69
 244:Drivers/lvgl/src/draw/sw/lv_draw_sw_arc.c ****             q->draw_ctx->clip_area = &quarter_area;
 196              		.loc 1 244 11 is_stmt 0 view .LVU70
 197 00c0 0028     		cmp	r0, #0
 198 00c2 B5D0     		beq	.L3
 245:Drivers/lvgl/src/draw/sw/lv_draw_sw_arc.c ****             lv_draw_rect(q->draw_ctx, q->draw_dsc, q->draw_area);
 199              		.loc 1 245 13 is_stmt 1 view .LVU71
 245:Drivers/lvgl/src/draw/sw/lv_draw_sw_arc.c ****             lv_draw_rect(q->draw_ctx, q->draw_dsc, q->draw_area);
 200              		.loc 1 245 14 is_stmt 0 view .LVU72
 201 00c4 A369     		ldr	r3, [r4, #24]
 245:Drivers/lvgl/src/draw/sw/lv_draw_sw_arc.c ****             lv_draw_rect(q->draw_ctx, q->draw_dsc, q->draw_area);
 202              		.loc 1 245 36 view .LVU73
 203 00c6 C3F808D0 		str	sp, [r3, #8]
 246:Drivers/lvgl/src/draw/sw/lv_draw_sw_arc.c ****         }
 204              		.loc 1 246 13 is_stmt 1 view .LVU74
 205 00ca 6269     		ldr	r2, [r4, #20]
 206 00cc 2169     		ldr	r1, [r4, #16]
 207 00ce A069     		ldr	r0, [r4, #24]
 208              	.LVL9:
 246:Drivers/lvgl/src/draw/sw/lv_draw_sw_arc.c ****         }
 209              		.loc 1 246 13 is_stmt 0 view .LVU75
 210 00d0 FFF7FEFF 		bl	lv_draw_rect
 211              	.LVL10:
 212 00d4 ACE7     		b	.L3
 213              	.LVL11:
 214              	.L13:
 246:Drivers/lvgl/src/draw/sw/lv_draw_sw_arc.c ****         }
 215              		.loc 1 246 13 view .LVU76
 216              	.LBE12:
 217              	.LBB13:
 252:Drivers/lvgl/src/draw/sw/lv_draw_sw_arc.c ****             quarter_area.y2 = q->center->y + q->radius;
 218              		.loc 1 252 13 is_stmt 1 view .LVU77
 252:Drivers/lvgl/src/draw/sw/lv_draw_sw_arc.c ****             quarter_area.y2 = q->center->y + q->radius;
 219              		.loc 1 252 32 is_stmt 0 view .LVU78
 220 00d6 2368     		ldr	r3, [r4]
 252:Drivers/lvgl/src/draw/sw/lv_draw_sw_arc.c ****             quarter_area.y2 = q->center->y + q->radius;
 221              		.loc 1 252 40 view .LVU79
 222 00d8 B3F90020 		ldrsh	r2, [r3]
 252:Drivers/lvgl/src/draw/sw/lv_draw_sw_arc.c ****             quarter_area.y2 = q->center->y + q->radius;
ARM GAS  /var/folders/lp/x54gwt890xv47sdkqj1k04q40000gn/T//cc8BXUdH.s 			page 11


 223              		.loc 1 252 29 view .LVU80
 224 00dc ADF80020 		strh	r2, [sp]	@ movhi
 253:Drivers/lvgl/src/draw/sw/lv_draw_sw_arc.c **** 
 225              		.loc 1 253 13 is_stmt 1 view .LVU81
 253:Drivers/lvgl/src/draw/sw/lv_draw_sw_arc.c **** 
 226              		.loc 1 253 40 is_stmt 0 view .LVU82
 227 00e0 5A88     		ldrh	r2, [r3, #2]
 253:Drivers/lvgl/src/draw/sw/lv_draw_sw_arc.c **** 
 228              		.loc 1 253 47 view .LVU83
 229 00e2 A188     		ldrh	r1, [r4, #4]
 253:Drivers/lvgl/src/draw/sw/lv_draw_sw_arc.c **** 
 230              		.loc 1 253 44 view .LVU84
 231 00e4 0A44     		add	r2, r2, r1
 253:Drivers/lvgl/src/draw/sw/lv_draw_sw_arc.c **** 
 232              		.loc 1 253 29 view .LVU85
 233 00e6 ADF80620 		strh	r2, [sp, #6]	@ movhi
 255:Drivers/lvgl/src/draw/sw/lv_draw_sw_arc.c ****             quarter_area.x2 = q->center->x + ((lv_trigo_sin(q->start_angle + 90) * (q->radius)) >> 
 234              		.loc 1 255 13 is_stmt 1 view .LVU86
 255:Drivers/lvgl/src/draw/sw/lv_draw_sw_arc.c ****             quarter_area.x2 = q->center->x + ((lv_trigo_sin(q->start_angle + 90) * (q->radius)) >> 
 235              		.loc 1 255 40 is_stmt 0 view .LVU87
 236 00ea 5E88     		ldrh	r6, [r3, #2]
 255:Drivers/lvgl/src/draw/sw/lv_draw_sw_arc.c ****             quarter_area.x2 = q->center->x + ((lv_trigo_sin(q->start_angle + 90) * (q->radius)) >> 
 237              		.loc 1 255 48 view .LVU88
 238 00ec B4F90600 		ldrsh	r0, [r4, #6]
 239 00f0 FFF7FEFF 		bl	lv_trigo_sin
 240              	.LVL12:
 255:Drivers/lvgl/src/draw/sw/lv_draw_sw_arc.c ****             quarter_area.x2 = q->center->x + ((lv_trigo_sin(q->start_angle + 90) * (q->radius)) >> 
 241              		.loc 1 255 81 discriminator 1 view .LVU89
 242 00f4 B4F90430 		ldrsh	r3, [r4, #4]
 255:Drivers/lvgl/src/draw/sw/lv_draw_sw_arc.c ****             quarter_area.x2 = q->center->x + ((lv_trigo_sin(q->start_angle + 90) * (q->radius)) >> 
 243              		.loc 1 255 93 discriminator 1 view .LVU90
 244 00f8 B4F90E20 		ldrsh	r2, [r4, #14]
 255:Drivers/lvgl/src/draw/sw/lv_draw_sw_arc.c ****             quarter_area.x2 = q->center->x + ((lv_trigo_sin(q->start_angle + 90) * (q->radius)) >> 
 245              		.loc 1 255 90 discriminator 1 view .LVU91
 246 00fc 9B1A     		subs	r3, r3, r2
 255:Drivers/lvgl/src/draw/sw/lv_draw_sw_arc.c ****             quarter_area.x2 = q->center->x + ((lv_trigo_sin(q->start_angle + 90) * (q->radius)) >> 
 247              		.loc 1 255 77 discriminator 1 view .LVU92
 248 00fe 03FB00F0 		mul	r0, r3, r0
 255:Drivers/lvgl/src/draw/sw/lv_draw_sw_arc.c ****             quarter_area.x2 = q->center->x + ((lv_trigo_sin(q->start_angle + 90) * (q->radius)) >> 
 249              		.loc 1 255 44 discriminator 1 view .LVU93
 250 0102 06EBE036 		add	r6, r6, r0, asr #15
 255:Drivers/lvgl/src/draw/sw/lv_draw_sw_arc.c ****             quarter_area.x2 = q->center->x + ((lv_trigo_sin(q->start_angle + 90) * (q->radius)) >> 
 251              		.loc 1 255 29 discriminator 1 view .LVU94
 252 0106 ADF80260 		strh	r6, [sp, #2]	@ movhi
 256:Drivers/lvgl/src/draw/sw/lv_draw_sw_arc.c **** 
 253              		.loc 1 256 13 is_stmt 1 view .LVU95
 256:Drivers/lvgl/src/draw/sw/lv_draw_sw_arc.c **** 
 254              		.loc 1 256 32 is_stmt 0 view .LVU96
 255 010a 2368     		ldr	r3, [r4]
 256:Drivers/lvgl/src/draw/sw/lv_draw_sw_arc.c **** 
 256              		.loc 1 256 40 view .LVU97
 257 010c 1E88     		ldrh	r6, [r3]
 256:Drivers/lvgl/src/draw/sw/lv_draw_sw_arc.c **** 
 258              		.loc 1 256 62 view .LVU98
 259 010e E088     		ldrh	r0, [r4, #6]
 256:Drivers/lvgl/src/draw/sw/lv_draw_sw_arc.c **** 
 260              		.loc 1 256 76 view .LVU99
ARM GAS  /var/folders/lp/x54gwt890xv47sdkqj1k04q40000gn/T//cc8BXUdH.s 			page 12


 261 0110 5A30     		adds	r0, r0, #90
 256:Drivers/lvgl/src/draw/sw/lv_draw_sw_arc.c **** 
 262              		.loc 1 256 48 view .LVU100
 263 0112 00B2     		sxth	r0, r0
 264 0114 FFF7FEFF 		bl	lv_trigo_sin
 265              	.LVL13:
 256:Drivers/lvgl/src/draw/sw/lv_draw_sw_arc.c **** 
 266              		.loc 1 256 86 discriminator 1 view .LVU101
 267 0118 B4F90430 		ldrsh	r3, [r4, #4]
 256:Drivers/lvgl/src/draw/sw/lv_draw_sw_arc.c **** 
 268              		.loc 1 256 82 discriminator 1 view .LVU102
 269 011c 03FB00F0 		mul	r0, r3, r0
 256:Drivers/lvgl/src/draw/sw/lv_draw_sw_arc.c **** 
 270              		.loc 1 256 44 discriminator 1 view .LVU103
 271 0120 06EBE036 		add	r6, r6, r0, asr #15
 256:Drivers/lvgl/src/draw/sw/lv_draw_sw_arc.c **** 
 272              		.loc 1 256 29 discriminator 1 view .LVU104
 273 0124 ADF80460 		strh	r6, [sp, #4]	@ movhi
 258:Drivers/lvgl/src/draw/sw/lv_draw_sw_arc.c ****             if(ok) {
 274              		.loc 1 258 13 is_stmt 1 view .LVU105
 258:Drivers/lvgl/src/draw/sw/lv_draw_sw_arc.c ****             if(ok) {
 275              		.loc 1 258 23 is_stmt 0 view .LVU106
 276 0128 2A46     		mov	r2, r5
 277 012a 6946     		mov	r1, sp
 278 012c 6846     		mov	r0, sp
 279 012e FFF7FEFF 		bl	_lv_area_intersect
 280              	.LVL14:
 259:Drivers/lvgl/src/draw/sw/lv_draw_sw_arc.c ****                 q->draw_ctx->clip_area = &quarter_area;
 281              		.loc 1 259 13 is_stmt 1 view .LVU107
 259:Drivers/lvgl/src/draw/sw/lv_draw_sw_arc.c ****                 q->draw_ctx->clip_area = &quarter_area;
 282              		.loc 1 259 15 is_stmt 0 view .LVU108
 283 0132 0028     		cmp	r0, #0
 284 0134 3FF478AF 		beq	.L6
 260:Drivers/lvgl/src/draw/sw/lv_draw_sw_arc.c ****                 lv_draw_rect(q->draw_ctx, q->draw_dsc, q->draw_area);
 285              		.loc 1 260 17 is_stmt 1 view .LVU109
 260:Drivers/lvgl/src/draw/sw/lv_draw_sw_arc.c ****                 lv_draw_rect(q->draw_ctx, q->draw_dsc, q->draw_area);
 286              		.loc 1 260 18 is_stmt 0 view .LVU110
 287 0138 A369     		ldr	r3, [r4, #24]
 260:Drivers/lvgl/src/draw/sw/lv_draw_sw_arc.c ****                 lv_draw_rect(q->draw_ctx, q->draw_dsc, q->draw_area);
 288              		.loc 1 260 40 view .LVU111
 289 013a C3F808D0 		str	sp, [r3, #8]
 261:Drivers/lvgl/src/draw/sw/lv_draw_sw_arc.c ****             }
 290              		.loc 1 261 17 is_stmt 1 view .LVU112
 291 013e 6269     		ldr	r2, [r4, #20]
 292 0140 2169     		ldr	r1, [r4, #16]
 293 0142 A069     		ldr	r0, [r4, #24]
 294              	.LVL15:
 261:Drivers/lvgl/src/draw/sw/lv_draw_sw_arc.c ****             }
 295              		.loc 1 261 17 is_stmt 0 view .LVU113
 296 0144 FFF7FEFF 		bl	lv_draw_rect
 297              	.LVL16:
 298 0148 6EE7     		b	.L6
 299              	.LVL17:
 300              	.L14:
 261:Drivers/lvgl/src/draw/sw/lv_draw_sw_arc.c ****             }
 301              		.loc 1 261 17 view .LVU114
 302              	.LBE13:
ARM GAS  /var/folders/lp/x54gwt890xv47sdkqj1k04q40000gn/T//cc8BXUdH.s 			page 13


 303              	.LBB14:
 265:Drivers/lvgl/src/draw/sw/lv_draw_sw_arc.c ****             quarter_area.y1 = q->center->y;
 304              		.loc 1 265 13 is_stmt 1 view .LVU115
 265:Drivers/lvgl/src/draw/sw/lv_draw_sw_arc.c ****             quarter_area.y1 = q->center->y;
 305              		.loc 1 265 32 is_stmt 0 view .LVU116
 306 014a 2368     		ldr	r3, [r4]
 265:Drivers/lvgl/src/draw/sw/lv_draw_sw_arc.c ****             quarter_area.y1 = q->center->y;
 307              		.loc 1 265 40 view .LVU117
 308 014c 1A88     		ldrh	r2, [r3]
 265:Drivers/lvgl/src/draw/sw/lv_draw_sw_arc.c ****             quarter_area.y1 = q->center->y;
 309              		.loc 1 265 47 view .LVU118
 310 014e A188     		ldrh	r1, [r4, #4]
 265:Drivers/lvgl/src/draw/sw/lv_draw_sw_arc.c ****             quarter_area.y1 = q->center->y;
 311              		.loc 1 265 44 view .LVU119
 312 0150 0A44     		add	r2, r2, r1
 265:Drivers/lvgl/src/draw/sw/lv_draw_sw_arc.c ****             quarter_area.y1 = q->center->y;
 313              		.loc 1 265 29 view .LVU120
 314 0152 ADF80420 		strh	r2, [sp, #4]	@ movhi
 266:Drivers/lvgl/src/draw/sw/lv_draw_sw_arc.c **** 
 315              		.loc 1 266 13 is_stmt 1 view .LVU121
 266:Drivers/lvgl/src/draw/sw/lv_draw_sw_arc.c **** 
 316              		.loc 1 266 40 is_stmt 0 view .LVU122
 317 0156 B3F90220 		ldrsh	r2, [r3, #2]
 266:Drivers/lvgl/src/draw/sw/lv_draw_sw_arc.c **** 
 318              		.loc 1 266 29 view .LVU123
 319 015a ADF80220 		strh	r2, [sp, #2]	@ movhi
 268:Drivers/lvgl/src/draw/sw/lv_draw_sw_arc.c ****             quarter_area.x1 = q->center->x + ((lv_trigo_sin(q->end_angle + 90) * (q->radius - q->wi
 320              		.loc 1 268 13 is_stmt 1 view .LVU124
 268:Drivers/lvgl/src/draw/sw/lv_draw_sw_arc.c ****             quarter_area.x1 = q->center->x + ((lv_trigo_sin(q->end_angle + 90) * (q->radius - q->wi
 321              		.loc 1 268 40 is_stmt 0 view .LVU125
 322 015e 5E88     		ldrh	r6, [r3, #2]
 268:Drivers/lvgl/src/draw/sw/lv_draw_sw_arc.c ****             quarter_area.x1 = q->center->x + ((lv_trigo_sin(q->end_angle + 90) * (q->radius - q->wi
 323              		.loc 1 268 48 view .LVU126
 324 0160 B4F90800 		ldrsh	r0, [r4, #8]
 325 0164 FFF7FEFF 		bl	lv_trigo_sin
 326              	.LVL18:
 268:Drivers/lvgl/src/draw/sw/lv_draw_sw_arc.c ****             quarter_area.x1 = q->center->x + ((lv_trigo_sin(q->end_angle + 90) * (q->radius - q->wi
 327              		.loc 1 268 78 discriminator 1 view .LVU127
 328 0168 B4F90430 		ldrsh	r3, [r4, #4]
 268:Drivers/lvgl/src/draw/sw/lv_draw_sw_arc.c ****             quarter_area.x1 = q->center->x + ((lv_trigo_sin(q->end_angle + 90) * (q->radius - q->wi
 329              		.loc 1 268 75 discriminator 1 view .LVU128
 330 016c 03FB00F0 		mul	r0, r3, r0
 268:Drivers/lvgl/src/draw/sw/lv_draw_sw_arc.c ****             quarter_area.x1 = q->center->x + ((lv_trigo_sin(q->end_angle + 90) * (q->radius - q->wi
 331              		.loc 1 268 44 discriminator 1 view .LVU129
 332 0170 06EBE036 		add	r6, r6, r0, asr #15
 268:Drivers/lvgl/src/draw/sw/lv_draw_sw_arc.c ****             quarter_area.x1 = q->center->x + ((lv_trigo_sin(q->end_angle + 90) * (q->radius - q->wi
 333              		.loc 1 268 29 discriminator 1 view .LVU130
 334 0174 ADF80660 		strh	r6, [sp, #6]	@ movhi
 269:Drivers/lvgl/src/draw/sw/lv_draw_sw_arc.c **** 
 335              		.loc 1 269 13 is_stmt 1 view .LVU131
 269:Drivers/lvgl/src/draw/sw/lv_draw_sw_arc.c **** 
 336              		.loc 1 269 32 is_stmt 0 view .LVU132
 337 0178 2368     		ldr	r3, [r4]
 269:Drivers/lvgl/src/draw/sw/lv_draw_sw_arc.c **** 
 338              		.loc 1 269 40 view .LVU133
 339 017a 1E88     		ldrh	r6, [r3]
 269:Drivers/lvgl/src/draw/sw/lv_draw_sw_arc.c **** 
ARM GAS  /var/folders/lp/x54gwt890xv47sdkqj1k04q40000gn/T//cc8BXUdH.s 			page 14


 340              		.loc 1 269 62 view .LVU134
 341 017c 2089     		ldrh	r0, [r4, #8]
 269:Drivers/lvgl/src/draw/sw/lv_draw_sw_arc.c **** 
 342              		.loc 1 269 74 view .LVU135
 343 017e 5A30     		adds	r0, r0, #90
 269:Drivers/lvgl/src/draw/sw/lv_draw_sw_arc.c **** 
 344              		.loc 1 269 48 view .LVU136
 345 0180 00B2     		sxth	r0, r0
 346 0182 FFF7FEFF 		bl	lv_trigo_sin
 347              	.LVL19:
 269:Drivers/lvgl/src/draw/sw/lv_draw_sw_arc.c **** 
 348              		.loc 1 269 84 discriminator 1 view .LVU137
 349 0186 B4F90430 		ldrsh	r3, [r4, #4]
 269:Drivers/lvgl/src/draw/sw/lv_draw_sw_arc.c **** 
 350              		.loc 1 269 96 discriminator 1 view .LVU138
 351 018a B4F90E20 		ldrsh	r2, [r4, #14]
 269:Drivers/lvgl/src/draw/sw/lv_draw_sw_arc.c **** 
 352              		.loc 1 269 93 discriminator 1 view .LVU139
 353 018e 9B1A     		subs	r3, r3, r2
 269:Drivers/lvgl/src/draw/sw/lv_draw_sw_arc.c **** 
 354              		.loc 1 269 80 discriminator 1 view .LVU140
 355 0190 03FB00F0 		mul	r0, r3, r0
 269:Drivers/lvgl/src/draw/sw/lv_draw_sw_arc.c **** 
 356              		.loc 1 269 44 discriminator 1 view .LVU141
 357 0194 06EBE036 		add	r6, r6, r0, asr #15
 269:Drivers/lvgl/src/draw/sw/lv_draw_sw_arc.c **** 
 358              		.loc 1 269 29 discriminator 1 view .LVU142
 359 0198 ADF80060 		strh	r6, [sp]	@ movhi
 271:Drivers/lvgl/src/draw/sw/lv_draw_sw_arc.c ****             if(ok) {
 360              		.loc 1 271 13 is_stmt 1 view .LVU143
 271:Drivers/lvgl/src/draw/sw/lv_draw_sw_arc.c ****             if(ok) {
 361              		.loc 1 271 23 is_stmt 0 view .LVU144
 362 019c 2A46     		mov	r2, r5
 363 019e 6946     		mov	r1, sp
 364 01a0 6846     		mov	r0, sp
 365 01a2 FFF7FEFF 		bl	_lv_area_intersect
 366              	.LVL20:
 272:Drivers/lvgl/src/draw/sw/lv_draw_sw_arc.c ****                 q->draw_ctx->clip_area = &quarter_area;
 367              		.loc 1 272 13 is_stmt 1 view .LVU145
 272:Drivers/lvgl/src/draw/sw/lv_draw_sw_arc.c ****                 q->draw_ctx->clip_area = &quarter_area;
 368              		.loc 1 272 15 is_stmt 0 view .LVU146
 369 01a6 0028     		cmp	r0, #0
 370 01a8 3FF442AF 		beq	.L3
 273:Drivers/lvgl/src/draw/sw/lv_draw_sw_arc.c ****                 lv_draw_rect(q->draw_ctx, q->draw_dsc, q->draw_area);
 371              		.loc 1 273 17 is_stmt 1 view .LVU147
 273:Drivers/lvgl/src/draw/sw/lv_draw_sw_arc.c ****                 lv_draw_rect(q->draw_ctx, q->draw_dsc, q->draw_area);
 372              		.loc 1 273 18 is_stmt 0 view .LVU148
 373 01ac A369     		ldr	r3, [r4, #24]
 273:Drivers/lvgl/src/draw/sw/lv_draw_sw_arc.c ****                 lv_draw_rect(q->draw_ctx, q->draw_dsc, q->draw_area);
 374              		.loc 1 273 40 view .LVU149
 375 01ae C3F808D0 		str	sp, [r3, #8]
 274:Drivers/lvgl/src/draw/sw/lv_draw_sw_arc.c ****             }
 376              		.loc 1 274 17 is_stmt 1 view .LVU150
 377 01b2 6269     		ldr	r2, [r4, #20]
 378 01b4 2169     		ldr	r1, [r4, #16]
 379 01b6 A069     		ldr	r0, [r4, #24]
 380              	.LVL21:
ARM GAS  /var/folders/lp/x54gwt890xv47sdkqj1k04q40000gn/T//cc8BXUdH.s 			page 15


 274:Drivers/lvgl/src/draw/sw/lv_draw_sw_arc.c ****             }
 381              		.loc 1 274 17 is_stmt 0 view .LVU151
 382 01b8 FFF7FEFF 		bl	lv_draw_rect
 383              	.LVL22:
 384 01bc 38E7     		b	.L3
 385              	.LVL23:
 386              	.L5:
 274:Drivers/lvgl/src/draw/sw/lv_draw_sw_arc.c ****             }
 387              		.loc 1 274 17 view .LVU152
 388              	.LBE14:
 278:Drivers/lvgl/src/draw/sw/lv_draw_sw_arc.c ****             (q->start_quarter == 2 && q->end_quarter == 1) ||
 389              		.loc 1 278 10 is_stmt 1 view .LVU153
 278:Drivers/lvgl/src/draw/sw/lv_draw_sw_arc.c ****             (q->start_quarter == 2 && q->end_quarter == 1) ||
 390              		.loc 1 278 12 is_stmt 0 view .LVU154
 391 01be 9342     		cmp	r3, r2
 392 01c0 0AD0     		beq	.L15
 393              	.L7:
 278:Drivers/lvgl/src/draw/sw/lv_draw_sw_arc.c ****             (q->start_quarter == 2 && q->end_quarter == 1) ||
 394              		.loc 1 278 108 discriminator 5 view .LVU155
 395 01c2 022B     		cmp	r3, #2
 396 01c4 2FD0     		beq	.L16
 397              	.L9:
 279:Drivers/lvgl/src/draw/sw/lv_draw_sw_arc.c ****             (q->start_quarter == 3 && q->end_quarter == 2) ||
 398              		.loc 1 279 60 discriminator 1 view .LVU156
 399 01c6 032B     		cmp	r3, #3
 400 01c8 30D0     		beq	.L17
 401              	.L10:
 280:Drivers/lvgl/src/draw/sw/lv_draw_sw_arc.c ****             (q->start_quarter == 3 && q->end_quarter == 1)) {
 402              		.loc 1 280 60 discriminator 1 view .LVU157
 403 01ca 032B     		cmp	r3, #3
 404 01cc 7FF430AF 		bne	.L3
 281:Drivers/lvgl/src/draw/sw/lv_draw_sw_arc.c ****         /*Arc crosses here*/
 405              		.loc 1 281 36 view .LVU158
 406 01d0 012A     		cmp	r2, #1
 407 01d2 7FF42DAF 		bne	.L3
 408 01d6 03E0     		b	.L8
 409              	.L15:
 278:Drivers/lvgl/src/draw/sw/lv_draw_sw_arc.c ****             (q->start_quarter == 2 && q->end_quarter == 1) ||
 410              		.loc 1 278 78 discriminator 3 view .LVU159
 411 01d8 2089     		ldrh	r0, [r4, #8]
 278:Drivers/lvgl/src/draw/sw/lv_draw_sw_arc.c ****             (q->start_quarter == 2 && q->end_quarter == 1) ||
 412              		.loc 1 278 93 discriminator 3 view .LVU160
 413 01da E188     		ldrh	r1, [r4, #6]
 278:Drivers/lvgl/src/draw/sw/lv_draw_sw_arc.c ****             (q->start_quarter == 2 && q->end_quarter == 1) ||
 414              		.loc 1 278 74 discriminator 3 view .LVU161
 415 01dc 8842     		cmp	r0, r1
 416 01de F0D2     		bcs	.L7
 417              	.L8:
 418              	.LBB15:
 283:Drivers/lvgl/src/draw/sw/lv_draw_sw_arc.c ****         quarter_area.y1 = q->center->y;
 419              		.loc 1 283 9 is_stmt 1 view .LVU162
 283:Drivers/lvgl/src/draw/sw/lv_draw_sw_arc.c ****         quarter_area.y1 = q->center->y;
 420              		.loc 1 283 28 is_stmt 0 view .LVU163
 421 01e0 2368     		ldr	r3, [r4]
 283:Drivers/lvgl/src/draw/sw/lv_draw_sw_arc.c ****         quarter_area.y1 = q->center->y;
 422              		.loc 1 283 36 view .LVU164
 423 01e2 B3F90020 		ldrsh	r2, [r3]
ARM GAS  /var/folders/lp/x54gwt890xv47sdkqj1k04q40000gn/T//cc8BXUdH.s 			page 16


 283:Drivers/lvgl/src/draw/sw/lv_draw_sw_arc.c ****         quarter_area.y1 = q->center->y;
 424              		.loc 1 283 25 view .LVU165
 425 01e6 ADF80020 		strh	r2, [sp]	@ movhi
 284:Drivers/lvgl/src/draw/sw/lv_draw_sw_arc.c ****         quarter_area.x2 = q->center->x + q->radius;
 426              		.loc 1 284 9 is_stmt 1 view .LVU166
 284:Drivers/lvgl/src/draw/sw/lv_draw_sw_arc.c ****         quarter_area.x2 = q->center->x + q->radius;
 427              		.loc 1 284 36 is_stmt 0 view .LVU167
 428 01ea B3F90220 		ldrsh	r2, [r3, #2]
 284:Drivers/lvgl/src/draw/sw/lv_draw_sw_arc.c ****         quarter_area.x2 = q->center->x + q->radius;
 429              		.loc 1 284 25 view .LVU168
 430 01ee ADF80220 		strh	r2, [sp, #2]	@ movhi
 285:Drivers/lvgl/src/draw/sw/lv_draw_sw_arc.c ****         quarter_area.y2 = q->center->y + q->radius;
 431              		.loc 1 285 9 is_stmt 1 view .LVU169
 285:Drivers/lvgl/src/draw/sw/lv_draw_sw_arc.c ****         quarter_area.y2 = q->center->y + q->radius;
 432              		.loc 1 285 36 is_stmt 0 view .LVU170
 433 01f2 1A88     		ldrh	r2, [r3]
 285:Drivers/lvgl/src/draw/sw/lv_draw_sw_arc.c ****         quarter_area.y2 = q->center->y + q->radius;
 434              		.loc 1 285 43 view .LVU171
 435 01f4 A188     		ldrh	r1, [r4, #4]
 285:Drivers/lvgl/src/draw/sw/lv_draw_sw_arc.c ****         quarter_area.y2 = q->center->y + q->radius;
 436              		.loc 1 285 40 view .LVU172
 437 01f6 0A44     		add	r2, r2, r1
 285:Drivers/lvgl/src/draw/sw/lv_draw_sw_arc.c ****         quarter_area.y2 = q->center->y + q->radius;
 438              		.loc 1 285 25 view .LVU173
 439 01f8 ADF80420 		strh	r2, [sp, #4]	@ movhi
 286:Drivers/lvgl/src/draw/sw/lv_draw_sw_arc.c **** 
 440              		.loc 1 286 9 is_stmt 1 view .LVU174
 286:Drivers/lvgl/src/draw/sw/lv_draw_sw_arc.c **** 
 441              		.loc 1 286 36 is_stmt 0 view .LVU175
 442 01fc 5B88     		ldrh	r3, [r3, #2]
 286:Drivers/lvgl/src/draw/sw/lv_draw_sw_arc.c **** 
 443              		.loc 1 286 40 view .LVU176
 444 01fe 0B44     		add	r3, r3, r1
 286:Drivers/lvgl/src/draw/sw/lv_draw_sw_arc.c **** 
 445              		.loc 1 286 25 view .LVU177
 446 0200 ADF80630 		strh	r3, [sp, #6]	@ movhi
 288:Drivers/lvgl/src/draw/sw/lv_draw_sw_arc.c ****         if(ok) {
 447              		.loc 1 288 9 is_stmt 1 view .LVU178
 288:Drivers/lvgl/src/draw/sw/lv_draw_sw_arc.c ****         if(ok) {
 448              		.loc 1 288 19 is_stmt 0 view .LVU179
 449 0204 2A46     		mov	r2, r5
 450 0206 6946     		mov	r1, sp
 451 0208 6846     		mov	r0, sp
 452 020a FFF7FEFF 		bl	_lv_area_intersect
 453              	.LVL24:
 289:Drivers/lvgl/src/draw/sw/lv_draw_sw_arc.c ****             q->draw_ctx->clip_area = &quarter_area;
 454              		.loc 1 289 9 is_stmt 1 view .LVU180
 289:Drivers/lvgl/src/draw/sw/lv_draw_sw_arc.c ****             q->draw_ctx->clip_area = &quarter_area;
 455              		.loc 1 289 11 is_stmt 0 view .LVU181
 456 020e 0028     		cmp	r0, #0
 457 0210 3FF40EAF 		beq	.L3
 290:Drivers/lvgl/src/draw/sw/lv_draw_sw_arc.c ****             lv_draw_rect(q->draw_ctx, q->draw_dsc, q->draw_area);
 458              		.loc 1 290 13 is_stmt 1 view .LVU182
 290:Drivers/lvgl/src/draw/sw/lv_draw_sw_arc.c ****             lv_draw_rect(q->draw_ctx, q->draw_dsc, q->draw_area);
 459              		.loc 1 290 14 is_stmt 0 view .LVU183
 460 0214 A369     		ldr	r3, [r4, #24]
 290:Drivers/lvgl/src/draw/sw/lv_draw_sw_arc.c ****             lv_draw_rect(q->draw_ctx, q->draw_dsc, q->draw_area);
ARM GAS  /var/folders/lp/x54gwt890xv47sdkqj1k04q40000gn/T//cc8BXUdH.s 			page 17


 461              		.loc 1 290 36 view .LVU184
 462 0216 C3F808D0 		str	sp, [r3, #8]
 291:Drivers/lvgl/src/draw/sw/lv_draw_sw_arc.c ****         }
 463              		.loc 1 291 13 is_stmt 1 view .LVU185
 464 021a 6269     		ldr	r2, [r4, #20]
 465 021c 2169     		ldr	r1, [r4, #16]
 466 021e A069     		ldr	r0, [r4, #24]
 467              	.LVL25:
 291:Drivers/lvgl/src/draw/sw/lv_draw_sw_arc.c ****         }
 468              		.loc 1 291 13 is_stmt 0 view .LVU186
 469 0220 FFF7FEFF 		bl	lv_draw_rect
 470              	.LVL26:
 471 0224 04E7     		b	.L3
 472              	.LVL27:
 473              	.L16:
 291:Drivers/lvgl/src/draw/sw/lv_draw_sw_arc.c ****         }
 474              		.loc 1 291 13 view .LVU187
 475              	.LBE15:
 279:Drivers/lvgl/src/draw/sw/lv_draw_sw_arc.c ****             (q->start_quarter == 3 && q->end_quarter == 2) ||
 476              		.loc 1 279 36 view .LVU188
 477 0226 012A     		cmp	r2, #1
 478 0228 CDD1     		bne	.L9
 479 022a D9E7     		b	.L8
 480              	.L17:
 280:Drivers/lvgl/src/draw/sw/lv_draw_sw_arc.c ****             (q->start_quarter == 3 && q->end_quarter == 1)) {
 481              		.loc 1 280 36 view .LVU189
 482 022c 022A     		cmp	r2, #2
 483 022e CCD1     		bne	.L10
 484 0230 D6E7     		b	.L8
 485              		.cfi_endproc
 486              	.LFE57:
 488              		.section	.text.draw_quarter_1,"ax",%progbits
 489              		.align	1
 490              		.syntax unified
 491              		.thumb
 492              		.thumb_func
 494              	draw_quarter_1:
 495              	.LVL28:
 496              	.LFB58:
 296:Drivers/lvgl/src/draw/sw/lv_draw_sw_arc.c **** 
 297:Drivers/lvgl/src/draw/sw/lv_draw_sw_arc.c **** static void draw_quarter_1(quarter_draw_dsc_t * q)
 298:Drivers/lvgl/src/draw/sw/lv_draw_sw_arc.c **** {
 497              		.loc 1 298 1 is_stmt 1 view -0
 498              		.cfi_startproc
 499              		@ args = 0, pretend = 0, frame = 8
 500              		@ frame_needed = 0, uses_anonymous_args = 0
 501              		.loc 1 298 1 is_stmt 0 view .LVU191
 502 0000 70B5     		push	{r4, r5, r6, lr}
 503              		.cfi_def_cfa_offset 16
 504              		.cfi_offset 4, -16
 505              		.cfi_offset 5, -12
 506              		.cfi_offset 6, -8
 507              		.cfi_offset 14, -4
 508 0002 82B0     		sub	sp, sp, #8
 509              		.cfi_def_cfa_offset 24
 510 0004 0446     		mov	r4, r0
 299:Drivers/lvgl/src/draw/sw/lv_draw_sw_arc.c ****     const lv_area_t * clip_area_ori = q->draw_ctx->clip_area;
ARM GAS  /var/folders/lp/x54gwt890xv47sdkqj1k04q40000gn/T//cc8BXUdH.s 			page 18


 511              		.loc 1 299 5 is_stmt 1 view .LVU192
 512              		.loc 1 299 40 is_stmt 0 view .LVU193
 513 0006 8369     		ldr	r3, [r0, #24]
 514              		.loc 1 299 23 view .LVU194
 515 0008 9D68     		ldr	r5, [r3, #8]
 516              	.LVL29:
 300:Drivers/lvgl/src/draw/sw/lv_draw_sw_arc.c ****     lv_area_t quarter_area;
 517              		.loc 1 300 5 is_stmt 1 view .LVU195
 301:Drivers/lvgl/src/draw/sw/lv_draw_sw_arc.c **** 
 302:Drivers/lvgl/src/draw/sw/lv_draw_sw_arc.c ****     if(q->start_quarter == 1 && q->end_quarter == 1 && q->start_angle < q->end_angle) {
 518              		.loc 1 302 5 view .LVU196
 519              		.loc 1 302 9 is_stmt 0 view .LVU197
 520 000a 4389     		ldrh	r3, [r0, #10]
 521              		.loc 1 302 7 view .LVU198
 522 000c 012B     		cmp	r3, #1
 523 000e 14D0     		beq	.L29
 524              	.LVL30:
 525              	.L19:
 303:Drivers/lvgl/src/draw/sw/lv_draw_sw_arc.c ****         /*Small arc here*/
 304:Drivers/lvgl/src/draw/sw/lv_draw_sw_arc.c ****         quarter_area.y2 = q->center->y + ((lv_trigo_sin(q->start_angle) * (q->radius)) >> LV_TRIGO_
 305:Drivers/lvgl/src/draw/sw/lv_draw_sw_arc.c ****         quarter_area.x2 = q->center->x + ((lv_trigo_sin(q->start_angle + 90) * (q->radius - q->widt
 306:Drivers/lvgl/src/draw/sw/lv_draw_sw_arc.c **** 
 307:Drivers/lvgl/src/draw/sw/lv_draw_sw_arc.c ****         quarter_area.y1 = q->center->y + ((lv_trigo_sin(q->end_angle) * (q->radius - q->width)) >> 
 308:Drivers/lvgl/src/draw/sw/lv_draw_sw_arc.c ****         quarter_area.x1 = q->center->x + ((lv_trigo_sin(q->end_angle + 90) * (q->radius)) >> LV_TRI
 309:Drivers/lvgl/src/draw/sw/lv_draw_sw_arc.c **** 
 310:Drivers/lvgl/src/draw/sw/lv_draw_sw_arc.c ****         bool ok = _lv_area_intersect(&quarter_area, &quarter_area, clip_area_ori);
 311:Drivers/lvgl/src/draw/sw/lv_draw_sw_arc.c ****         if(ok) {
 312:Drivers/lvgl/src/draw/sw/lv_draw_sw_arc.c ****             q->draw_ctx->clip_area = &quarter_area;
 313:Drivers/lvgl/src/draw/sw/lv_draw_sw_arc.c ****             lv_draw_rect(q->draw_ctx, q->draw_dsc, q->draw_area);
 314:Drivers/lvgl/src/draw/sw/lv_draw_sw_arc.c ****         }
 315:Drivers/lvgl/src/draw/sw/lv_draw_sw_arc.c ****     }
 316:Drivers/lvgl/src/draw/sw/lv_draw_sw_arc.c ****     else if(q->start_quarter == 1 || q->end_quarter == 1) {
 526              		.loc 1 316 10 is_stmt 1 view .LVU199
 527              		.loc 1 316 12 is_stmt 0 view .LVU200
 528 0010 012B     		cmp	r3, #1
 529 0012 67D0     		beq	.L21
 530              		.loc 1 316 39 discriminator 1 view .LVU201
 531 0014 A289     		ldrh	r2, [r4, #12]
 532              		.loc 1 316 35 discriminator 1 view .LVU202
 533 0016 012A     		cmp	r2, #1
 534 0018 64D0     		beq	.L21
 317:Drivers/lvgl/src/draw/sw/lv_draw_sw_arc.c ****         /*Start and/or end arcs here*/
 318:Drivers/lvgl/src/draw/sw/lv_draw_sw_arc.c ****         if(q->start_quarter == 1) {
 319:Drivers/lvgl/src/draw/sw/lv_draw_sw_arc.c ****             quarter_area.x1 = q->center->x - q->radius;
 320:Drivers/lvgl/src/draw/sw/lv_draw_sw_arc.c ****             quarter_area.y1 = q->center->y;
 321:Drivers/lvgl/src/draw/sw/lv_draw_sw_arc.c **** 
 322:Drivers/lvgl/src/draw/sw/lv_draw_sw_arc.c ****             quarter_area.y2 = q->center->y + ((lv_trigo_sin(q->start_angle) * (q->radius)) >> LV_TR
 323:Drivers/lvgl/src/draw/sw/lv_draw_sw_arc.c ****             quarter_area.x2 = q->center->x + ((lv_trigo_sin(q->start_angle + 90) * (q->radius - q->
 324:Drivers/lvgl/src/draw/sw/lv_draw_sw_arc.c **** 
 325:Drivers/lvgl/src/draw/sw/lv_draw_sw_arc.c ****             bool ok = _lv_area_intersect(&quarter_area, &quarter_area, clip_area_ori);
 326:Drivers/lvgl/src/draw/sw/lv_draw_sw_arc.c ****             if(ok) {
 327:Drivers/lvgl/src/draw/sw/lv_draw_sw_arc.c ****                 q->draw_ctx->clip_area = &quarter_area;
 328:Drivers/lvgl/src/draw/sw/lv_draw_sw_arc.c ****                 lv_draw_rect(q->draw_ctx, q->draw_dsc, q->draw_area);
 329:Drivers/lvgl/src/draw/sw/lv_draw_sw_arc.c ****             }
 330:Drivers/lvgl/src/draw/sw/lv_draw_sw_arc.c ****         }
 331:Drivers/lvgl/src/draw/sw/lv_draw_sw_arc.c ****         if(q->end_quarter == 1) {
 332:Drivers/lvgl/src/draw/sw/lv_draw_sw_arc.c ****             quarter_area.x2 = q->center->x - 1;
ARM GAS  /var/folders/lp/x54gwt890xv47sdkqj1k04q40000gn/T//cc8BXUdH.s 			page 19


 333:Drivers/lvgl/src/draw/sw/lv_draw_sw_arc.c ****             quarter_area.y2 = q->center->y + q->radius;
 334:Drivers/lvgl/src/draw/sw/lv_draw_sw_arc.c **** 
 335:Drivers/lvgl/src/draw/sw/lv_draw_sw_arc.c ****             quarter_area.y1 = q->center->y + ((lv_trigo_sin(q->end_angle) * (q->radius - q->width))
 336:Drivers/lvgl/src/draw/sw/lv_draw_sw_arc.c ****             quarter_area.x1 = q->center->x + ((lv_trigo_sin(q->end_angle + 90) * (q->radius)) >> LV
 337:Drivers/lvgl/src/draw/sw/lv_draw_sw_arc.c **** 
 338:Drivers/lvgl/src/draw/sw/lv_draw_sw_arc.c ****             bool ok = _lv_area_intersect(&quarter_area, &quarter_area, clip_area_ori);
 339:Drivers/lvgl/src/draw/sw/lv_draw_sw_arc.c ****             if(ok) {
 340:Drivers/lvgl/src/draw/sw/lv_draw_sw_arc.c ****                 q->draw_ctx->clip_area = &quarter_area;
 341:Drivers/lvgl/src/draw/sw/lv_draw_sw_arc.c ****                 lv_draw_rect(q->draw_ctx, q->draw_dsc, q->draw_area);
 342:Drivers/lvgl/src/draw/sw/lv_draw_sw_arc.c ****             }
 343:Drivers/lvgl/src/draw/sw/lv_draw_sw_arc.c ****         }
 344:Drivers/lvgl/src/draw/sw/lv_draw_sw_arc.c ****     }
 345:Drivers/lvgl/src/draw/sw/lv_draw_sw_arc.c ****     else if((q->start_quarter == q->end_quarter && q->start_quarter != 1 && q->end_angle < q->start
 535              		.loc 1 345 10 is_stmt 1 view .LVU203
 536              		.loc 1 345 12 is_stmt 0 view .LVU204
 537 001a 9342     		cmp	r3, r2
 538 001c 00F0DD80 		beq	.L30
 539              	.L24:
 540              		.loc 1 345 108 discriminator 5 view .LVU205
 541 0020 13B9     		cbnz	r3, .L26
 346:Drivers/lvgl/src/draw/sw/lv_draw_sw_arc.c ****             (q->start_quarter == 0 && q->end_quarter == 2) ||
 542              		.loc 1 346 36 view .LVU206
 543 0022 022A     		cmp	r2, #2
 544 0024 00F0DE80 		beq	.L25
 545              	.L26:
 546              		.loc 1 346 60 discriminator 1 view .LVU207
 547 0028 13B9     		cbnz	r3, .L27
 347:Drivers/lvgl/src/draw/sw/lv_draw_sw_arc.c ****             (q->start_quarter == 0 && q->end_quarter == 3) ||
 548              		.loc 1 347 36 view .LVU208
 549 002a 032A     		cmp	r2, #3
 550 002c 00F0DA80 		beq	.L25
 551              	.L27:
 552              		.loc 1 347 60 discriminator 1 view .LVU209
 553 0030 032B     		cmp	r3, #3
 554 0032 5CD1     		bne	.L20
 348:Drivers/lvgl/src/draw/sw/lv_draw_sw_arc.c ****             (q->start_quarter == 3 && q->end_quarter == 2)) {
 555              		.loc 1 348 36 view .LVU210
 556 0034 022A     		cmp	r2, #2
 557 0036 5AD1     		bne	.L20
 558 0038 D4E0     		b	.L25
 559              	.LVL31:
 560              	.L29:
 302:Drivers/lvgl/src/draw/sw/lv_draw_sw_arc.c ****         /*Small arc here*/
 561              		.loc 1 302 34 discriminator 1 view .LVU211
 562 003a 8289     		ldrh	r2, [r0, #12]
 302:Drivers/lvgl/src/draw/sw/lv_draw_sw_arc.c ****         /*Small arc here*/
 563              		.loc 1 302 30 discriminator 1 view .LVU212
 564 003c 012A     		cmp	r2, #1
 565 003e E7D1     		bne	.L19
 302:Drivers/lvgl/src/draw/sw/lv_draw_sw_arc.c ****         /*Small arc here*/
 566              		.loc 1 302 57 discriminator 2 view .LVU213
 567 0040 C088     		ldrh	r0, [r0, #6]
 568              	.LVL32:
 302:Drivers/lvgl/src/draw/sw/lv_draw_sw_arc.c ****         /*Small arc here*/
 569              		.loc 1 302 74 discriminator 2 view .LVU214
 570 0042 2289     		ldrh	r2, [r4, #8]
 302:Drivers/lvgl/src/draw/sw/lv_draw_sw_arc.c ****         /*Small arc here*/
ARM GAS  /var/folders/lp/x54gwt890xv47sdkqj1k04q40000gn/T//cc8BXUdH.s 			page 20


 571              		.loc 1 302 53 discriminator 2 view .LVU215
 572 0044 9042     		cmp	r0, r2
 573 0046 E3D2     		bcs	.L19
 574              	.LBB16:
 304:Drivers/lvgl/src/draw/sw/lv_draw_sw_arc.c ****         quarter_area.x2 = q->center->x + ((lv_trigo_sin(q->start_angle + 90) * (q->radius - q->widt
 575              		.loc 1 304 9 is_stmt 1 view .LVU216
 304:Drivers/lvgl/src/draw/sw/lv_draw_sw_arc.c ****         quarter_area.x2 = q->center->x + ((lv_trigo_sin(q->start_angle + 90) * (q->radius - q->widt
 576              		.loc 1 304 28 is_stmt 0 view .LVU217
 577 0048 2368     		ldr	r3, [r4]
 304:Drivers/lvgl/src/draw/sw/lv_draw_sw_arc.c ****         quarter_area.x2 = q->center->x + ((lv_trigo_sin(q->start_angle + 90) * (q->radius - q->widt
 578              		.loc 1 304 36 view .LVU218
 579 004a 5E88     		ldrh	r6, [r3, #2]
 304:Drivers/lvgl/src/draw/sw/lv_draw_sw_arc.c ****         quarter_area.x2 = q->center->x + ((lv_trigo_sin(q->start_angle + 90) * (q->radius - q->widt
 580              		.loc 1 304 44 view .LVU219
 581 004c 00B2     		sxth	r0, r0
 582 004e FFF7FEFF 		bl	lv_trigo_sin
 583              	.LVL33:
 304:Drivers/lvgl/src/draw/sw/lv_draw_sw_arc.c ****         quarter_area.x2 = q->center->x + ((lv_trigo_sin(q->start_angle + 90) * (q->radius - q->widt
 584              		.loc 1 304 77 discriminator 1 view .LVU220
 585 0052 B4F90430 		ldrsh	r3, [r4, #4]
 304:Drivers/lvgl/src/draw/sw/lv_draw_sw_arc.c ****         quarter_area.x2 = q->center->x + ((lv_trigo_sin(q->start_angle + 90) * (q->radius - q->widt
 586              		.loc 1 304 73 discriminator 1 view .LVU221
 587 0056 03FB00F0 		mul	r0, r3, r0
 304:Drivers/lvgl/src/draw/sw/lv_draw_sw_arc.c ****         quarter_area.x2 = q->center->x + ((lv_trigo_sin(q->start_angle + 90) * (q->radius - q->widt
 588              		.loc 1 304 40 discriminator 1 view .LVU222
 589 005a 06EBE036 		add	r6, r6, r0, asr #15
 304:Drivers/lvgl/src/draw/sw/lv_draw_sw_arc.c ****         quarter_area.x2 = q->center->x + ((lv_trigo_sin(q->start_angle + 90) * (q->radius - q->widt
 590              		.loc 1 304 25 discriminator 1 view .LVU223
 591 005e ADF80660 		strh	r6, [sp, #6]	@ movhi
 305:Drivers/lvgl/src/draw/sw/lv_draw_sw_arc.c **** 
 592              		.loc 1 305 9 is_stmt 1 view .LVU224
 305:Drivers/lvgl/src/draw/sw/lv_draw_sw_arc.c **** 
 593              		.loc 1 305 28 is_stmt 0 view .LVU225
 594 0062 2368     		ldr	r3, [r4]
 305:Drivers/lvgl/src/draw/sw/lv_draw_sw_arc.c **** 
 595              		.loc 1 305 36 view .LVU226
 596 0064 1E88     		ldrh	r6, [r3]
 305:Drivers/lvgl/src/draw/sw/lv_draw_sw_arc.c **** 
 597              		.loc 1 305 58 view .LVU227
 598 0066 E088     		ldrh	r0, [r4, #6]
 305:Drivers/lvgl/src/draw/sw/lv_draw_sw_arc.c **** 
 599              		.loc 1 305 72 view .LVU228
 600 0068 5A30     		adds	r0, r0, #90
 305:Drivers/lvgl/src/draw/sw/lv_draw_sw_arc.c **** 
 601              		.loc 1 305 44 view .LVU229
 602 006a 00B2     		sxth	r0, r0
 603 006c FFF7FEFF 		bl	lv_trigo_sin
 604              	.LVL34:
 305:Drivers/lvgl/src/draw/sw/lv_draw_sw_arc.c **** 
 605              		.loc 1 305 82 discriminator 1 view .LVU230
 606 0070 B4F90430 		ldrsh	r3, [r4, #4]
 305:Drivers/lvgl/src/draw/sw/lv_draw_sw_arc.c **** 
 607              		.loc 1 305 94 discriminator 1 view .LVU231
 608 0074 B4F90E20 		ldrsh	r2, [r4, #14]
 305:Drivers/lvgl/src/draw/sw/lv_draw_sw_arc.c **** 
 609              		.loc 1 305 91 discriminator 1 view .LVU232
 610 0078 9B1A     		subs	r3, r3, r2
ARM GAS  /var/folders/lp/x54gwt890xv47sdkqj1k04q40000gn/T//cc8BXUdH.s 			page 21


 305:Drivers/lvgl/src/draw/sw/lv_draw_sw_arc.c **** 
 611              		.loc 1 305 78 discriminator 1 view .LVU233
 612 007a 03FB00F0 		mul	r0, r3, r0
 305:Drivers/lvgl/src/draw/sw/lv_draw_sw_arc.c **** 
 613              		.loc 1 305 40 discriminator 1 view .LVU234
 614 007e 06EBE036 		add	r6, r6, r0, asr #15
 305:Drivers/lvgl/src/draw/sw/lv_draw_sw_arc.c **** 
 615              		.loc 1 305 25 discriminator 1 view .LVU235
 616 0082 ADF80460 		strh	r6, [sp, #4]	@ movhi
 307:Drivers/lvgl/src/draw/sw/lv_draw_sw_arc.c ****         quarter_area.x1 = q->center->x + ((lv_trigo_sin(q->end_angle + 90) * (q->radius)) >> LV_TRI
 617              		.loc 1 307 9 is_stmt 1 view .LVU236
 307:Drivers/lvgl/src/draw/sw/lv_draw_sw_arc.c ****         quarter_area.x1 = q->center->x + ((lv_trigo_sin(q->end_angle + 90) * (q->radius)) >> LV_TRI
 618              		.loc 1 307 28 is_stmt 0 view .LVU237
 619 0086 2368     		ldr	r3, [r4]
 307:Drivers/lvgl/src/draw/sw/lv_draw_sw_arc.c ****         quarter_area.x1 = q->center->x + ((lv_trigo_sin(q->end_angle + 90) * (q->radius)) >> LV_TRI
 620              		.loc 1 307 36 view .LVU238
 621 0088 5E88     		ldrh	r6, [r3, #2]
 307:Drivers/lvgl/src/draw/sw/lv_draw_sw_arc.c ****         quarter_area.x1 = q->center->x + ((lv_trigo_sin(q->end_angle + 90) * (q->radius)) >> LV_TRI
 622              		.loc 1 307 44 view .LVU239
 623 008a B4F90800 		ldrsh	r0, [r4, #8]
 624 008e FFF7FEFF 		bl	lv_trigo_sin
 625              	.LVL35:
 307:Drivers/lvgl/src/draw/sw/lv_draw_sw_arc.c ****         quarter_area.x1 = q->center->x + ((lv_trigo_sin(q->end_angle + 90) * (q->radius)) >> LV_TRI
 626              		.loc 1 307 75 discriminator 1 view .LVU240
 627 0092 B4F90430 		ldrsh	r3, [r4, #4]
 307:Drivers/lvgl/src/draw/sw/lv_draw_sw_arc.c ****         quarter_area.x1 = q->center->x + ((lv_trigo_sin(q->end_angle + 90) * (q->radius)) >> LV_TRI
 628              		.loc 1 307 87 discriminator 1 view .LVU241
 629 0096 B4F90E20 		ldrsh	r2, [r4, #14]
 307:Drivers/lvgl/src/draw/sw/lv_draw_sw_arc.c ****         quarter_area.x1 = q->center->x + ((lv_trigo_sin(q->end_angle + 90) * (q->radius)) >> LV_TRI
 630              		.loc 1 307 84 discriminator 1 view .LVU242
 631 009a 9B1A     		subs	r3, r3, r2
 307:Drivers/lvgl/src/draw/sw/lv_draw_sw_arc.c ****         quarter_area.x1 = q->center->x + ((lv_trigo_sin(q->end_angle + 90) * (q->radius)) >> LV_TRI
 632              		.loc 1 307 71 discriminator 1 view .LVU243
 633 009c 03FB00F0 		mul	r0, r3, r0
 307:Drivers/lvgl/src/draw/sw/lv_draw_sw_arc.c ****         quarter_area.x1 = q->center->x + ((lv_trigo_sin(q->end_angle + 90) * (q->radius)) >> LV_TRI
 634              		.loc 1 307 40 discriminator 1 view .LVU244
 635 00a0 06EBE036 		add	r6, r6, r0, asr #15
 307:Drivers/lvgl/src/draw/sw/lv_draw_sw_arc.c ****         quarter_area.x1 = q->center->x + ((lv_trigo_sin(q->end_angle + 90) * (q->radius)) >> LV_TRI
 636              		.loc 1 307 25 discriminator 1 view .LVU245
 637 00a4 ADF80260 		strh	r6, [sp, #2]	@ movhi
 308:Drivers/lvgl/src/draw/sw/lv_draw_sw_arc.c **** 
 638              		.loc 1 308 9 is_stmt 1 view .LVU246
 308:Drivers/lvgl/src/draw/sw/lv_draw_sw_arc.c **** 
 639              		.loc 1 308 28 is_stmt 0 view .LVU247
 640 00a8 2368     		ldr	r3, [r4]
 308:Drivers/lvgl/src/draw/sw/lv_draw_sw_arc.c **** 
 641              		.loc 1 308 36 view .LVU248
 642 00aa 1E88     		ldrh	r6, [r3]
 308:Drivers/lvgl/src/draw/sw/lv_draw_sw_arc.c **** 
 643              		.loc 1 308 58 view .LVU249
 644 00ac 2089     		ldrh	r0, [r4, #8]
 308:Drivers/lvgl/src/draw/sw/lv_draw_sw_arc.c **** 
 645              		.loc 1 308 70 view .LVU250
 646 00ae 5A30     		adds	r0, r0, #90
 308:Drivers/lvgl/src/draw/sw/lv_draw_sw_arc.c **** 
 647              		.loc 1 308 44 view .LVU251
 648 00b0 00B2     		sxth	r0, r0
ARM GAS  /var/folders/lp/x54gwt890xv47sdkqj1k04q40000gn/T//cc8BXUdH.s 			page 22


 649 00b2 FFF7FEFF 		bl	lv_trigo_sin
 650              	.LVL36:
 308:Drivers/lvgl/src/draw/sw/lv_draw_sw_arc.c **** 
 651              		.loc 1 308 80 discriminator 1 view .LVU252
 652 00b6 B4F90430 		ldrsh	r3, [r4, #4]
 308:Drivers/lvgl/src/draw/sw/lv_draw_sw_arc.c **** 
 653              		.loc 1 308 76 discriminator 1 view .LVU253
 654 00ba 03FB00F0 		mul	r0, r3, r0
 308:Drivers/lvgl/src/draw/sw/lv_draw_sw_arc.c **** 
 655              		.loc 1 308 40 discriminator 1 view .LVU254
 656 00be 06EBE036 		add	r6, r6, r0, asr #15
 308:Drivers/lvgl/src/draw/sw/lv_draw_sw_arc.c **** 
 657              		.loc 1 308 25 discriminator 1 view .LVU255
 658 00c2 ADF80060 		strh	r6, [sp]	@ movhi
 310:Drivers/lvgl/src/draw/sw/lv_draw_sw_arc.c ****         if(ok) {
 659              		.loc 1 310 9 is_stmt 1 view .LVU256
 310:Drivers/lvgl/src/draw/sw/lv_draw_sw_arc.c ****         if(ok) {
 660              		.loc 1 310 19 is_stmt 0 view .LVU257
 661 00c6 2A46     		mov	r2, r5
 662 00c8 6946     		mov	r1, sp
 663 00ca 6846     		mov	r0, sp
 664 00cc FFF7FEFF 		bl	_lv_area_intersect
 665              	.LVL37:
 311:Drivers/lvgl/src/draw/sw/lv_draw_sw_arc.c ****             q->draw_ctx->clip_area = &quarter_area;
 666              		.loc 1 311 9 is_stmt 1 view .LVU258
 311:Drivers/lvgl/src/draw/sw/lv_draw_sw_arc.c ****             q->draw_ctx->clip_area = &quarter_area;
 667              		.loc 1 311 11 is_stmt 0 view .LVU259
 668 00d0 68B1     		cbz	r0, .L20
 312:Drivers/lvgl/src/draw/sw/lv_draw_sw_arc.c ****             lv_draw_rect(q->draw_ctx, q->draw_dsc, q->draw_area);
 669              		.loc 1 312 13 is_stmt 1 view .LVU260
 312:Drivers/lvgl/src/draw/sw/lv_draw_sw_arc.c ****             lv_draw_rect(q->draw_ctx, q->draw_dsc, q->draw_area);
 670              		.loc 1 312 14 is_stmt 0 view .LVU261
 671 00d2 A369     		ldr	r3, [r4, #24]
 312:Drivers/lvgl/src/draw/sw/lv_draw_sw_arc.c ****             lv_draw_rect(q->draw_ctx, q->draw_dsc, q->draw_area);
 672              		.loc 1 312 36 view .LVU262
 673 00d4 C3F808D0 		str	sp, [r3, #8]
 313:Drivers/lvgl/src/draw/sw/lv_draw_sw_arc.c ****         }
 674              		.loc 1 313 13 is_stmt 1 view .LVU263
 675 00d8 6269     		ldr	r2, [r4, #20]
 676 00da 2169     		ldr	r1, [r4, #16]
 677 00dc A069     		ldr	r0, [r4, #24]
 678              	.LVL38:
 313:Drivers/lvgl/src/draw/sw/lv_draw_sw_arc.c ****         }
 679              		.loc 1 313 13 is_stmt 0 view .LVU264
 680 00de FFF7FEFF 		bl	lv_draw_rect
 681              	.LVL39:
 682 00e2 04E0     		b	.L20
 683              	.LVL40:
 684              	.L21:
 313:Drivers/lvgl/src/draw/sw/lv_draw_sw_arc.c ****         }
 685              		.loc 1 313 13 view .LVU265
 686              	.LBE16:
 318:Drivers/lvgl/src/draw/sw/lv_draw_sw_arc.c ****             quarter_area.x1 = q->center->x - q->radius;
 687              		.loc 1 318 9 is_stmt 1 view .LVU266
 318:Drivers/lvgl/src/draw/sw/lv_draw_sw_arc.c ****             quarter_area.x1 = q->center->x - q->radius;
 688              		.loc 1 318 11 is_stmt 0 view .LVU267
 689 00e4 012B     		cmp	r3, #1
ARM GAS  /var/folders/lp/x54gwt890xv47sdkqj1k04q40000gn/T//cc8BXUdH.s 			page 23


 690 00e6 06D0     		beq	.L31
 691              	.L23:
 331:Drivers/lvgl/src/draw/sw/lv_draw_sw_arc.c ****             quarter_area.x2 = q->center->x - 1;
 692              		.loc 1 331 9 is_stmt 1 view .LVU268
 331:Drivers/lvgl/src/draw/sw/lv_draw_sw_arc.c ****             quarter_area.x2 = q->center->x - 1;
 693              		.loc 1 331 13 is_stmt 0 view .LVU269
 694 00e8 A389     		ldrh	r3, [r4, #12]
 331:Drivers/lvgl/src/draw/sw/lv_draw_sw_arc.c ****             quarter_area.x2 = q->center->x - 1;
 695              		.loc 1 331 11 view .LVU270
 696 00ea 012B     		cmp	r3, #1
 697 00ec 3CD0     		beq	.L32
 698              	.L20:
 349:Drivers/lvgl/src/draw/sw/lv_draw_sw_arc.c ****         /*Arc crosses here*/
 350:Drivers/lvgl/src/draw/sw/lv_draw_sw_arc.c ****         quarter_area.x1 = q->center->x - q->radius;
 351:Drivers/lvgl/src/draw/sw/lv_draw_sw_arc.c ****         quarter_area.y1 = q->center->y;
 352:Drivers/lvgl/src/draw/sw/lv_draw_sw_arc.c ****         quarter_area.x2 = q->center->x - 1;
 353:Drivers/lvgl/src/draw/sw/lv_draw_sw_arc.c ****         quarter_area.y2 = q->center->y + q->radius;
 354:Drivers/lvgl/src/draw/sw/lv_draw_sw_arc.c **** 
 355:Drivers/lvgl/src/draw/sw/lv_draw_sw_arc.c ****         bool ok = _lv_area_intersect(&quarter_area, &quarter_area, clip_area_ori);
 356:Drivers/lvgl/src/draw/sw/lv_draw_sw_arc.c ****         if(ok) {
 357:Drivers/lvgl/src/draw/sw/lv_draw_sw_arc.c ****             q->draw_ctx->clip_area = &quarter_area;
 358:Drivers/lvgl/src/draw/sw/lv_draw_sw_arc.c ****             lv_draw_rect(q->draw_ctx, q->draw_dsc, q->draw_area);
 359:Drivers/lvgl/src/draw/sw/lv_draw_sw_arc.c ****         }
 360:Drivers/lvgl/src/draw/sw/lv_draw_sw_arc.c ****     }
 361:Drivers/lvgl/src/draw/sw/lv_draw_sw_arc.c ****     q->draw_ctx->clip_area = clip_area_ori;
 699              		.loc 1 361 5 is_stmt 1 view .LVU271
 700              		.loc 1 361 6 is_stmt 0 view .LVU272
 701 00ee A369     		ldr	r3, [r4, #24]
 702              		.loc 1 361 28 view .LVU273
 703 00f0 9D60     		str	r5, [r3, #8]
 362:Drivers/lvgl/src/draw/sw/lv_draw_sw_arc.c **** }
 704              		.loc 1 362 1 view .LVU274
 705 00f2 02B0     		add	sp, sp, #8
 706              		.cfi_remember_state
 707              		.cfi_def_cfa_offset 16
 708              		@ sp needed
 709 00f4 70BD     		pop	{r4, r5, r6, pc}
 710              	.LVL41:
 711              	.L31:
 712              		.cfi_restore_state
 713              	.LBB17:
 319:Drivers/lvgl/src/draw/sw/lv_draw_sw_arc.c ****             quarter_area.y1 = q->center->y;
 714              		.loc 1 319 13 is_stmt 1 view .LVU275
 319:Drivers/lvgl/src/draw/sw/lv_draw_sw_arc.c ****             quarter_area.y1 = q->center->y;
 715              		.loc 1 319 32 is_stmt 0 view .LVU276
 716 00f6 2368     		ldr	r3, [r4]
 319:Drivers/lvgl/src/draw/sw/lv_draw_sw_arc.c ****             quarter_area.y1 = q->center->y;
 717              		.loc 1 319 40 view .LVU277
 718 00f8 1A88     		ldrh	r2, [r3]
 319:Drivers/lvgl/src/draw/sw/lv_draw_sw_arc.c ****             quarter_area.y1 = q->center->y;
 719              		.loc 1 319 47 view .LVU278
 720 00fa A188     		ldrh	r1, [r4, #4]
 319:Drivers/lvgl/src/draw/sw/lv_draw_sw_arc.c ****             quarter_area.y1 = q->center->y;
 721              		.loc 1 319 44 view .LVU279
 722 00fc 521A     		subs	r2, r2, r1
 319:Drivers/lvgl/src/draw/sw/lv_draw_sw_arc.c ****             quarter_area.y1 = q->center->y;
 723              		.loc 1 319 29 view .LVU280
ARM GAS  /var/folders/lp/x54gwt890xv47sdkqj1k04q40000gn/T//cc8BXUdH.s 			page 24


 724 00fe ADF80020 		strh	r2, [sp]	@ movhi
 320:Drivers/lvgl/src/draw/sw/lv_draw_sw_arc.c **** 
 725              		.loc 1 320 13 is_stmt 1 view .LVU281
 320:Drivers/lvgl/src/draw/sw/lv_draw_sw_arc.c **** 
 726              		.loc 1 320 40 is_stmt 0 view .LVU282
 727 0102 B3F90220 		ldrsh	r2, [r3, #2]
 320:Drivers/lvgl/src/draw/sw/lv_draw_sw_arc.c **** 
 728              		.loc 1 320 29 view .LVU283
 729 0106 ADF80220 		strh	r2, [sp, #2]	@ movhi
 322:Drivers/lvgl/src/draw/sw/lv_draw_sw_arc.c ****             quarter_area.x2 = q->center->x + ((lv_trigo_sin(q->start_angle + 90) * (q->radius - q->
 730              		.loc 1 322 13 is_stmt 1 view .LVU284
 322:Drivers/lvgl/src/draw/sw/lv_draw_sw_arc.c ****             quarter_area.x2 = q->center->x + ((lv_trigo_sin(q->start_angle + 90) * (q->radius - q->
 731              		.loc 1 322 40 is_stmt 0 view .LVU285
 732 010a 5E88     		ldrh	r6, [r3, #2]
 322:Drivers/lvgl/src/draw/sw/lv_draw_sw_arc.c ****             quarter_area.x2 = q->center->x + ((lv_trigo_sin(q->start_angle + 90) * (q->radius - q->
 733              		.loc 1 322 48 view .LVU286
 734 010c B4F90600 		ldrsh	r0, [r4, #6]
 735 0110 FFF7FEFF 		bl	lv_trigo_sin
 736              	.LVL42:
 322:Drivers/lvgl/src/draw/sw/lv_draw_sw_arc.c ****             quarter_area.x2 = q->center->x + ((lv_trigo_sin(q->start_angle + 90) * (q->radius - q->
 737              		.loc 1 322 81 discriminator 1 view .LVU287
 738 0114 B4F90430 		ldrsh	r3, [r4, #4]
 322:Drivers/lvgl/src/draw/sw/lv_draw_sw_arc.c ****             quarter_area.x2 = q->center->x + ((lv_trigo_sin(q->start_angle + 90) * (q->radius - q->
 739              		.loc 1 322 77 discriminator 1 view .LVU288
 740 0118 03FB00F0 		mul	r0, r3, r0
 322:Drivers/lvgl/src/draw/sw/lv_draw_sw_arc.c ****             quarter_area.x2 = q->center->x + ((lv_trigo_sin(q->start_angle + 90) * (q->radius - q->
 741              		.loc 1 322 44 discriminator 1 view .LVU289
 742 011c 06EBE036 		add	r6, r6, r0, asr #15
 322:Drivers/lvgl/src/draw/sw/lv_draw_sw_arc.c ****             quarter_area.x2 = q->center->x + ((lv_trigo_sin(q->start_angle + 90) * (q->radius - q->
 743              		.loc 1 322 29 discriminator 1 view .LVU290
 744 0120 ADF80660 		strh	r6, [sp, #6]	@ movhi
 323:Drivers/lvgl/src/draw/sw/lv_draw_sw_arc.c **** 
 745              		.loc 1 323 13 is_stmt 1 view .LVU291
 323:Drivers/lvgl/src/draw/sw/lv_draw_sw_arc.c **** 
 746              		.loc 1 323 32 is_stmt 0 view .LVU292
 747 0124 2368     		ldr	r3, [r4]
 323:Drivers/lvgl/src/draw/sw/lv_draw_sw_arc.c **** 
 748              		.loc 1 323 40 view .LVU293
 749 0126 1E88     		ldrh	r6, [r3]
 323:Drivers/lvgl/src/draw/sw/lv_draw_sw_arc.c **** 
 750              		.loc 1 323 62 view .LVU294
 751 0128 E088     		ldrh	r0, [r4, #6]
 323:Drivers/lvgl/src/draw/sw/lv_draw_sw_arc.c **** 
 752              		.loc 1 323 76 view .LVU295
 753 012a 5A30     		adds	r0, r0, #90
 323:Drivers/lvgl/src/draw/sw/lv_draw_sw_arc.c **** 
 754              		.loc 1 323 48 view .LVU296
 755 012c 00B2     		sxth	r0, r0
 756 012e FFF7FEFF 		bl	lv_trigo_sin
 757              	.LVL43:
 323:Drivers/lvgl/src/draw/sw/lv_draw_sw_arc.c **** 
 758              		.loc 1 323 86 discriminator 1 view .LVU297
 759 0132 B4F90430 		ldrsh	r3, [r4, #4]
 323:Drivers/lvgl/src/draw/sw/lv_draw_sw_arc.c **** 
 760              		.loc 1 323 98 discriminator 1 view .LVU298
 761 0136 B4F90E20 		ldrsh	r2, [r4, #14]
 323:Drivers/lvgl/src/draw/sw/lv_draw_sw_arc.c **** 
ARM GAS  /var/folders/lp/x54gwt890xv47sdkqj1k04q40000gn/T//cc8BXUdH.s 			page 25


 762              		.loc 1 323 95 discriminator 1 view .LVU299
 763 013a 9B1A     		subs	r3, r3, r2
 323:Drivers/lvgl/src/draw/sw/lv_draw_sw_arc.c **** 
 764              		.loc 1 323 82 discriminator 1 view .LVU300
 765 013c 03FB00F0 		mul	r0, r3, r0
 323:Drivers/lvgl/src/draw/sw/lv_draw_sw_arc.c **** 
 766              		.loc 1 323 44 discriminator 1 view .LVU301
 767 0140 06EBE036 		add	r6, r6, r0, asr #15
 323:Drivers/lvgl/src/draw/sw/lv_draw_sw_arc.c **** 
 768              		.loc 1 323 29 discriminator 1 view .LVU302
 769 0144 ADF80460 		strh	r6, [sp, #4]	@ movhi
 325:Drivers/lvgl/src/draw/sw/lv_draw_sw_arc.c ****             if(ok) {
 770              		.loc 1 325 13 is_stmt 1 view .LVU303
 325:Drivers/lvgl/src/draw/sw/lv_draw_sw_arc.c ****             if(ok) {
 771              		.loc 1 325 23 is_stmt 0 view .LVU304
 772 0148 2A46     		mov	r2, r5
 773 014a 6946     		mov	r1, sp
 774 014c 6846     		mov	r0, sp
 775 014e FFF7FEFF 		bl	_lv_area_intersect
 776              	.LVL44:
 326:Drivers/lvgl/src/draw/sw/lv_draw_sw_arc.c ****                 q->draw_ctx->clip_area = &quarter_area;
 777              		.loc 1 326 13 is_stmt 1 view .LVU305
 326:Drivers/lvgl/src/draw/sw/lv_draw_sw_arc.c ****                 q->draw_ctx->clip_area = &quarter_area;
 778              		.loc 1 326 15 is_stmt 0 view .LVU306
 779 0152 0028     		cmp	r0, #0
 780 0154 C8D0     		beq	.L23
 327:Drivers/lvgl/src/draw/sw/lv_draw_sw_arc.c ****                 lv_draw_rect(q->draw_ctx, q->draw_dsc, q->draw_area);
 781              		.loc 1 327 17 is_stmt 1 view .LVU307
 327:Drivers/lvgl/src/draw/sw/lv_draw_sw_arc.c ****                 lv_draw_rect(q->draw_ctx, q->draw_dsc, q->draw_area);
 782              		.loc 1 327 18 is_stmt 0 view .LVU308
 783 0156 A369     		ldr	r3, [r4, #24]
 327:Drivers/lvgl/src/draw/sw/lv_draw_sw_arc.c ****                 lv_draw_rect(q->draw_ctx, q->draw_dsc, q->draw_area);
 784              		.loc 1 327 40 view .LVU309
 785 0158 C3F808D0 		str	sp, [r3, #8]
 328:Drivers/lvgl/src/draw/sw/lv_draw_sw_arc.c ****             }
 786              		.loc 1 328 17 is_stmt 1 view .LVU310
 787 015c 6269     		ldr	r2, [r4, #20]
 788 015e 2169     		ldr	r1, [r4, #16]
 789 0160 A069     		ldr	r0, [r4, #24]
 790              	.LVL45:
 328:Drivers/lvgl/src/draw/sw/lv_draw_sw_arc.c ****             }
 791              		.loc 1 328 17 is_stmt 0 view .LVU311
 792 0162 FFF7FEFF 		bl	lv_draw_rect
 793              	.LVL46:
 794 0166 BFE7     		b	.L23
 795              	.LVL47:
 796              	.L32:
 328:Drivers/lvgl/src/draw/sw/lv_draw_sw_arc.c ****             }
 797              		.loc 1 328 17 view .LVU312
 798              	.LBE17:
 799              	.LBB18:
 332:Drivers/lvgl/src/draw/sw/lv_draw_sw_arc.c ****             quarter_area.y2 = q->center->y + q->radius;
 800              		.loc 1 332 13 is_stmt 1 view .LVU313
 332:Drivers/lvgl/src/draw/sw/lv_draw_sw_arc.c ****             quarter_area.y2 = q->center->y + q->radius;
 801              		.loc 1 332 32 is_stmt 0 view .LVU314
 802 0168 2368     		ldr	r3, [r4]
 332:Drivers/lvgl/src/draw/sw/lv_draw_sw_arc.c ****             quarter_area.y2 = q->center->y + q->radius;
ARM GAS  /var/folders/lp/x54gwt890xv47sdkqj1k04q40000gn/T//cc8BXUdH.s 			page 26


 803              		.loc 1 332 40 view .LVU315
 804 016a 1A88     		ldrh	r2, [r3]
 332:Drivers/lvgl/src/draw/sw/lv_draw_sw_arc.c ****             quarter_area.y2 = q->center->y + q->radius;
 805              		.loc 1 332 44 view .LVU316
 806 016c 013A     		subs	r2, r2, #1
 332:Drivers/lvgl/src/draw/sw/lv_draw_sw_arc.c ****             quarter_area.y2 = q->center->y + q->radius;
 807              		.loc 1 332 29 view .LVU317
 808 016e ADF80420 		strh	r2, [sp, #4]	@ movhi
 333:Drivers/lvgl/src/draw/sw/lv_draw_sw_arc.c **** 
 809              		.loc 1 333 13 is_stmt 1 view .LVU318
 333:Drivers/lvgl/src/draw/sw/lv_draw_sw_arc.c **** 
 810              		.loc 1 333 40 is_stmt 0 view .LVU319
 811 0172 5A88     		ldrh	r2, [r3, #2]
 333:Drivers/lvgl/src/draw/sw/lv_draw_sw_arc.c **** 
 812              		.loc 1 333 47 view .LVU320
 813 0174 A188     		ldrh	r1, [r4, #4]
 333:Drivers/lvgl/src/draw/sw/lv_draw_sw_arc.c **** 
 814              		.loc 1 333 44 view .LVU321
 815 0176 0A44     		add	r2, r2, r1
 333:Drivers/lvgl/src/draw/sw/lv_draw_sw_arc.c **** 
 816              		.loc 1 333 29 view .LVU322
 817 0178 ADF80620 		strh	r2, [sp, #6]	@ movhi
 335:Drivers/lvgl/src/draw/sw/lv_draw_sw_arc.c ****             quarter_area.x1 = q->center->x + ((lv_trigo_sin(q->end_angle + 90) * (q->radius)) >> LV
 818              		.loc 1 335 13 is_stmt 1 view .LVU323
 335:Drivers/lvgl/src/draw/sw/lv_draw_sw_arc.c ****             quarter_area.x1 = q->center->x + ((lv_trigo_sin(q->end_angle + 90) * (q->radius)) >> LV
 819              		.loc 1 335 40 is_stmt 0 view .LVU324
 820 017c 5E88     		ldrh	r6, [r3, #2]
 335:Drivers/lvgl/src/draw/sw/lv_draw_sw_arc.c ****             quarter_area.x1 = q->center->x + ((lv_trigo_sin(q->end_angle + 90) * (q->radius)) >> LV
 821              		.loc 1 335 48 view .LVU325
 822 017e B4F90800 		ldrsh	r0, [r4, #8]
 823 0182 FFF7FEFF 		bl	lv_trigo_sin
 824              	.LVL48:
 335:Drivers/lvgl/src/draw/sw/lv_draw_sw_arc.c ****             quarter_area.x1 = q->center->x + ((lv_trigo_sin(q->end_angle + 90) * (q->radius)) >> LV
 825              		.loc 1 335 79 discriminator 1 view .LVU326
 826 0186 B4F90430 		ldrsh	r3, [r4, #4]
 335:Drivers/lvgl/src/draw/sw/lv_draw_sw_arc.c ****             quarter_area.x1 = q->center->x + ((lv_trigo_sin(q->end_angle + 90) * (q->radius)) >> LV
 827              		.loc 1 335 91 discriminator 1 view .LVU327
 828 018a B4F90E20 		ldrsh	r2, [r4, #14]
 335:Drivers/lvgl/src/draw/sw/lv_draw_sw_arc.c ****             quarter_area.x1 = q->center->x + ((lv_trigo_sin(q->end_angle + 90) * (q->radius)) >> LV
 829              		.loc 1 335 88 discriminator 1 view .LVU328
 830 018e 9B1A     		subs	r3, r3, r2
 335:Drivers/lvgl/src/draw/sw/lv_draw_sw_arc.c ****             quarter_area.x1 = q->center->x + ((lv_trigo_sin(q->end_angle + 90) * (q->radius)) >> LV
 831              		.loc 1 335 75 discriminator 1 view .LVU329
 832 0190 03FB00F0 		mul	r0, r3, r0
 335:Drivers/lvgl/src/draw/sw/lv_draw_sw_arc.c ****             quarter_area.x1 = q->center->x + ((lv_trigo_sin(q->end_angle + 90) * (q->radius)) >> LV
 833              		.loc 1 335 44 discriminator 1 view .LVU330
 834 0194 06EBE036 		add	r6, r6, r0, asr #15
 335:Drivers/lvgl/src/draw/sw/lv_draw_sw_arc.c ****             quarter_area.x1 = q->center->x + ((lv_trigo_sin(q->end_angle + 90) * (q->radius)) >> LV
 835              		.loc 1 335 29 discriminator 1 view .LVU331
 836 0198 ADF80260 		strh	r6, [sp, #2]	@ movhi
 336:Drivers/lvgl/src/draw/sw/lv_draw_sw_arc.c **** 
 837              		.loc 1 336 13 is_stmt 1 view .LVU332
 336:Drivers/lvgl/src/draw/sw/lv_draw_sw_arc.c **** 
 838              		.loc 1 336 32 is_stmt 0 view .LVU333
 839 019c 2368     		ldr	r3, [r4]
 336:Drivers/lvgl/src/draw/sw/lv_draw_sw_arc.c **** 
 840              		.loc 1 336 40 view .LVU334
ARM GAS  /var/folders/lp/x54gwt890xv47sdkqj1k04q40000gn/T//cc8BXUdH.s 			page 27


 841 019e 1E88     		ldrh	r6, [r3]
 336:Drivers/lvgl/src/draw/sw/lv_draw_sw_arc.c **** 
 842              		.loc 1 336 62 view .LVU335
 843 01a0 2089     		ldrh	r0, [r4, #8]
 336:Drivers/lvgl/src/draw/sw/lv_draw_sw_arc.c **** 
 844              		.loc 1 336 74 view .LVU336
 845 01a2 5A30     		adds	r0, r0, #90
 336:Drivers/lvgl/src/draw/sw/lv_draw_sw_arc.c **** 
 846              		.loc 1 336 48 view .LVU337
 847 01a4 00B2     		sxth	r0, r0
 848 01a6 FFF7FEFF 		bl	lv_trigo_sin
 849              	.LVL49:
 336:Drivers/lvgl/src/draw/sw/lv_draw_sw_arc.c **** 
 850              		.loc 1 336 84 discriminator 1 view .LVU338
 851 01aa B4F90430 		ldrsh	r3, [r4, #4]
 336:Drivers/lvgl/src/draw/sw/lv_draw_sw_arc.c **** 
 852              		.loc 1 336 80 discriminator 1 view .LVU339
 853 01ae 03FB00F0 		mul	r0, r3, r0
 336:Drivers/lvgl/src/draw/sw/lv_draw_sw_arc.c **** 
 854              		.loc 1 336 44 discriminator 1 view .LVU340
 855 01b2 06EBE036 		add	r6, r6, r0, asr #15
 336:Drivers/lvgl/src/draw/sw/lv_draw_sw_arc.c **** 
 856              		.loc 1 336 29 discriminator 1 view .LVU341
 857 01b6 ADF80060 		strh	r6, [sp]	@ movhi
 338:Drivers/lvgl/src/draw/sw/lv_draw_sw_arc.c ****             if(ok) {
 858              		.loc 1 338 13 is_stmt 1 view .LVU342
 338:Drivers/lvgl/src/draw/sw/lv_draw_sw_arc.c ****             if(ok) {
 859              		.loc 1 338 23 is_stmt 0 view .LVU343
 860 01ba 2A46     		mov	r2, r5
 861 01bc 6946     		mov	r1, sp
 862 01be 6846     		mov	r0, sp
 863 01c0 FFF7FEFF 		bl	_lv_area_intersect
 864              	.LVL50:
 339:Drivers/lvgl/src/draw/sw/lv_draw_sw_arc.c ****                 q->draw_ctx->clip_area = &quarter_area;
 865              		.loc 1 339 13 is_stmt 1 view .LVU344
 339:Drivers/lvgl/src/draw/sw/lv_draw_sw_arc.c ****                 q->draw_ctx->clip_area = &quarter_area;
 866              		.loc 1 339 15 is_stmt 0 view .LVU345
 867 01c4 0028     		cmp	r0, #0
 868 01c6 92D0     		beq	.L20
 340:Drivers/lvgl/src/draw/sw/lv_draw_sw_arc.c ****                 lv_draw_rect(q->draw_ctx, q->draw_dsc, q->draw_area);
 869              		.loc 1 340 17 is_stmt 1 view .LVU346
 340:Drivers/lvgl/src/draw/sw/lv_draw_sw_arc.c ****                 lv_draw_rect(q->draw_ctx, q->draw_dsc, q->draw_area);
 870              		.loc 1 340 18 is_stmt 0 view .LVU347
 871 01c8 A369     		ldr	r3, [r4, #24]
 340:Drivers/lvgl/src/draw/sw/lv_draw_sw_arc.c ****                 lv_draw_rect(q->draw_ctx, q->draw_dsc, q->draw_area);
 872              		.loc 1 340 40 view .LVU348
 873 01ca C3F808D0 		str	sp, [r3, #8]
 341:Drivers/lvgl/src/draw/sw/lv_draw_sw_arc.c ****             }
 874              		.loc 1 341 17 is_stmt 1 view .LVU349
 875 01ce 6269     		ldr	r2, [r4, #20]
 876 01d0 2169     		ldr	r1, [r4, #16]
 877 01d2 A069     		ldr	r0, [r4, #24]
 878              	.LVL51:
 341:Drivers/lvgl/src/draw/sw/lv_draw_sw_arc.c ****             }
 879              		.loc 1 341 17 is_stmt 0 view .LVU350
 880 01d4 FFF7FEFF 		bl	lv_draw_rect
 881              	.LVL52:
ARM GAS  /var/folders/lp/x54gwt890xv47sdkqj1k04q40000gn/T//cc8BXUdH.s 			page 28


 882 01d8 89E7     		b	.L20
 883              	.LVL53:
 884              	.L30:
 341:Drivers/lvgl/src/draw/sw/lv_draw_sw_arc.c ****             }
 885              		.loc 1 341 17 view .LVU351
 886              	.LBE18:
 345:Drivers/lvgl/src/draw/sw/lv_draw_sw_arc.c ****             (q->start_quarter == 0 && q->end_quarter == 2) ||
 887              		.loc 1 345 78 discriminator 3 view .LVU352
 888 01da 2089     		ldrh	r0, [r4, #8]
 345:Drivers/lvgl/src/draw/sw/lv_draw_sw_arc.c ****             (q->start_quarter == 0 && q->end_quarter == 2) ||
 889              		.loc 1 345 93 discriminator 3 view .LVU353
 890 01dc E188     		ldrh	r1, [r4, #6]
 345:Drivers/lvgl/src/draw/sw/lv_draw_sw_arc.c ****             (q->start_quarter == 0 && q->end_quarter == 2) ||
 891              		.loc 1 345 74 discriminator 3 view .LVU354
 892 01de 8842     		cmp	r0, r1
 893 01e0 BFF41EAF 		bcs	.L24
 894              	.L25:
 895              	.LBB19:
 350:Drivers/lvgl/src/draw/sw/lv_draw_sw_arc.c ****         quarter_area.y1 = q->center->y;
 896              		.loc 1 350 9 is_stmt 1 view .LVU355
 350:Drivers/lvgl/src/draw/sw/lv_draw_sw_arc.c ****         quarter_area.y1 = q->center->y;
 897              		.loc 1 350 28 is_stmt 0 view .LVU356
 898 01e4 2368     		ldr	r3, [r4]
 350:Drivers/lvgl/src/draw/sw/lv_draw_sw_arc.c ****         quarter_area.y1 = q->center->y;
 899              		.loc 1 350 36 view .LVU357
 900 01e6 1A88     		ldrh	r2, [r3]
 350:Drivers/lvgl/src/draw/sw/lv_draw_sw_arc.c ****         quarter_area.y1 = q->center->y;
 901              		.loc 1 350 43 view .LVU358
 902 01e8 A188     		ldrh	r1, [r4, #4]
 350:Drivers/lvgl/src/draw/sw/lv_draw_sw_arc.c ****         quarter_area.y1 = q->center->y;
 903              		.loc 1 350 40 view .LVU359
 904 01ea 521A     		subs	r2, r2, r1
 350:Drivers/lvgl/src/draw/sw/lv_draw_sw_arc.c ****         quarter_area.y1 = q->center->y;
 905              		.loc 1 350 25 view .LVU360
 906 01ec ADF80020 		strh	r2, [sp]	@ movhi
 351:Drivers/lvgl/src/draw/sw/lv_draw_sw_arc.c ****         quarter_area.x2 = q->center->x - 1;
 907              		.loc 1 351 9 is_stmt 1 view .LVU361
 351:Drivers/lvgl/src/draw/sw/lv_draw_sw_arc.c ****         quarter_area.x2 = q->center->x - 1;
 908              		.loc 1 351 36 is_stmt 0 view .LVU362
 909 01f0 B3F90220 		ldrsh	r2, [r3, #2]
 351:Drivers/lvgl/src/draw/sw/lv_draw_sw_arc.c ****         quarter_area.x2 = q->center->x - 1;
 910              		.loc 1 351 25 view .LVU363
 911 01f4 ADF80220 		strh	r2, [sp, #2]	@ movhi
 352:Drivers/lvgl/src/draw/sw/lv_draw_sw_arc.c ****         quarter_area.y2 = q->center->y + q->radius;
 912              		.loc 1 352 9 is_stmt 1 view .LVU364
 352:Drivers/lvgl/src/draw/sw/lv_draw_sw_arc.c ****         quarter_area.y2 = q->center->y + q->radius;
 913              		.loc 1 352 36 is_stmt 0 view .LVU365
 914 01f8 1A88     		ldrh	r2, [r3]
 352:Drivers/lvgl/src/draw/sw/lv_draw_sw_arc.c ****         quarter_area.y2 = q->center->y + q->radius;
 915              		.loc 1 352 40 view .LVU366
 916 01fa 013A     		subs	r2, r2, #1
 352:Drivers/lvgl/src/draw/sw/lv_draw_sw_arc.c ****         quarter_area.y2 = q->center->y + q->radius;
 917              		.loc 1 352 25 view .LVU367
 918 01fc ADF80420 		strh	r2, [sp, #4]	@ movhi
 353:Drivers/lvgl/src/draw/sw/lv_draw_sw_arc.c **** 
 919              		.loc 1 353 9 is_stmt 1 view .LVU368
 353:Drivers/lvgl/src/draw/sw/lv_draw_sw_arc.c **** 
ARM GAS  /var/folders/lp/x54gwt890xv47sdkqj1k04q40000gn/T//cc8BXUdH.s 			page 29


 920              		.loc 1 353 36 is_stmt 0 view .LVU369
 921 0200 5B88     		ldrh	r3, [r3, #2]
 353:Drivers/lvgl/src/draw/sw/lv_draw_sw_arc.c **** 
 922              		.loc 1 353 40 view .LVU370
 923 0202 0B44     		add	r3, r3, r1
 353:Drivers/lvgl/src/draw/sw/lv_draw_sw_arc.c **** 
 924              		.loc 1 353 25 view .LVU371
 925 0204 ADF80630 		strh	r3, [sp, #6]	@ movhi
 355:Drivers/lvgl/src/draw/sw/lv_draw_sw_arc.c ****         if(ok) {
 926              		.loc 1 355 9 is_stmt 1 view .LVU372
 355:Drivers/lvgl/src/draw/sw/lv_draw_sw_arc.c ****         if(ok) {
 927              		.loc 1 355 19 is_stmt 0 view .LVU373
 928 0208 2A46     		mov	r2, r5
 929 020a 6946     		mov	r1, sp
 930 020c 6846     		mov	r0, sp
 931 020e FFF7FEFF 		bl	_lv_area_intersect
 932              	.LVL54:
 356:Drivers/lvgl/src/draw/sw/lv_draw_sw_arc.c ****             q->draw_ctx->clip_area = &quarter_area;
 933              		.loc 1 356 9 is_stmt 1 view .LVU374
 356:Drivers/lvgl/src/draw/sw/lv_draw_sw_arc.c ****             q->draw_ctx->clip_area = &quarter_area;
 934              		.loc 1 356 11 is_stmt 0 view .LVU375
 935 0212 0028     		cmp	r0, #0
 936 0214 3FF46BAF 		beq	.L20
 357:Drivers/lvgl/src/draw/sw/lv_draw_sw_arc.c ****             lv_draw_rect(q->draw_ctx, q->draw_dsc, q->draw_area);
 937              		.loc 1 357 13 is_stmt 1 view .LVU376
 357:Drivers/lvgl/src/draw/sw/lv_draw_sw_arc.c ****             lv_draw_rect(q->draw_ctx, q->draw_dsc, q->draw_area);
 938              		.loc 1 357 14 is_stmt 0 view .LVU377
 939 0218 A369     		ldr	r3, [r4, #24]
 357:Drivers/lvgl/src/draw/sw/lv_draw_sw_arc.c ****             lv_draw_rect(q->draw_ctx, q->draw_dsc, q->draw_area);
 940              		.loc 1 357 36 view .LVU378
 941 021a C3F808D0 		str	sp, [r3, #8]
 358:Drivers/lvgl/src/draw/sw/lv_draw_sw_arc.c ****         }
 942              		.loc 1 358 13 is_stmt 1 view .LVU379
 943 021e 6269     		ldr	r2, [r4, #20]
 944 0220 2169     		ldr	r1, [r4, #16]
 945 0222 A069     		ldr	r0, [r4, #24]
 946              	.LVL55:
 358:Drivers/lvgl/src/draw/sw/lv_draw_sw_arc.c ****         }
 947              		.loc 1 358 13 is_stmt 0 view .LVU380
 948 0224 FFF7FEFF 		bl	lv_draw_rect
 949              	.LVL56:
 950 0228 61E7     		b	.L20
 951              	.LBE19:
 952              		.cfi_endproc
 953              	.LFE58:
 955              		.section	.text.draw_quarter_2,"ax",%progbits
 956              		.align	1
 957              		.syntax unified
 958              		.thumb
 959              		.thumb_func
 961              	draw_quarter_2:
 962              	.LVL57:
 963              	.LFB59:
 363:Drivers/lvgl/src/draw/sw/lv_draw_sw_arc.c **** 
 364:Drivers/lvgl/src/draw/sw/lv_draw_sw_arc.c **** static void draw_quarter_2(quarter_draw_dsc_t * q)
 365:Drivers/lvgl/src/draw/sw/lv_draw_sw_arc.c **** {
 964              		.loc 1 365 1 is_stmt 1 view -0
ARM GAS  /var/folders/lp/x54gwt890xv47sdkqj1k04q40000gn/T//cc8BXUdH.s 			page 30


 965              		.cfi_startproc
 966              		@ args = 0, pretend = 0, frame = 8
 967              		@ frame_needed = 0, uses_anonymous_args = 0
 968              		.loc 1 365 1 is_stmt 0 view .LVU382
 969 0000 70B5     		push	{r4, r5, r6, lr}
 970              		.cfi_def_cfa_offset 16
 971              		.cfi_offset 4, -16
 972              		.cfi_offset 5, -12
 973              		.cfi_offset 6, -8
 974              		.cfi_offset 14, -4
 975 0002 82B0     		sub	sp, sp, #8
 976              		.cfi_def_cfa_offset 24
 977 0004 0446     		mov	r4, r0
 366:Drivers/lvgl/src/draw/sw/lv_draw_sw_arc.c ****     const lv_area_t * clip_area_ori = q->draw_ctx->clip_area;
 978              		.loc 1 366 5 is_stmt 1 view .LVU383
 979              		.loc 1 366 40 is_stmt 0 view .LVU384
 980 0006 8369     		ldr	r3, [r0, #24]
 981              		.loc 1 366 23 view .LVU385
 982 0008 9D68     		ldr	r5, [r3, #8]
 983              	.LVL58:
 367:Drivers/lvgl/src/draw/sw/lv_draw_sw_arc.c ****     lv_area_t quarter_area;
 984              		.loc 1 367 5 is_stmt 1 view .LVU386
 368:Drivers/lvgl/src/draw/sw/lv_draw_sw_arc.c **** 
 369:Drivers/lvgl/src/draw/sw/lv_draw_sw_arc.c ****     if(q->start_quarter == 2 && q->end_quarter == 2 && q->start_angle < q->end_angle) {
 985              		.loc 1 369 5 view .LVU387
 986              		.loc 1 369 9 is_stmt 0 view .LVU388
 987 000a 4389     		ldrh	r3, [r0, #10]
 988              		.loc 1 369 7 view .LVU389
 989 000c 022B     		cmp	r3, #2
 990 000e 13D0     		beq	.L44
 991              	.LVL59:
 992              	.L34:
 370:Drivers/lvgl/src/draw/sw/lv_draw_sw_arc.c ****         /*Small arc here*/
 371:Drivers/lvgl/src/draw/sw/lv_draw_sw_arc.c ****         quarter_area.x1 = q->center->x + ((lv_trigo_sin(q->start_angle + 90) * (q->radius)) >> LV_T
 372:Drivers/lvgl/src/draw/sw/lv_draw_sw_arc.c ****         quarter_area.y2 = q->center->y + ((lv_trigo_sin(q->start_angle) * (q->radius - q->width)) >
 373:Drivers/lvgl/src/draw/sw/lv_draw_sw_arc.c **** 
 374:Drivers/lvgl/src/draw/sw/lv_draw_sw_arc.c ****         quarter_area.y1 = q->center->y + ((lv_trigo_sin(q->end_angle) * q->radius) >> LV_TRIGO_SHIF
 375:Drivers/lvgl/src/draw/sw/lv_draw_sw_arc.c ****         quarter_area.x2 = q->center->x + ((lv_trigo_sin(q->end_angle + 90) * (q->radius - q->width)
 376:Drivers/lvgl/src/draw/sw/lv_draw_sw_arc.c **** 
 377:Drivers/lvgl/src/draw/sw/lv_draw_sw_arc.c ****         bool ok = _lv_area_intersect(&quarter_area, &quarter_area, clip_area_ori);
 378:Drivers/lvgl/src/draw/sw/lv_draw_sw_arc.c ****         if(ok) {
 379:Drivers/lvgl/src/draw/sw/lv_draw_sw_arc.c ****             q->draw_ctx->clip_area = &quarter_area;
 380:Drivers/lvgl/src/draw/sw/lv_draw_sw_arc.c ****             lv_draw_rect(q->draw_ctx, q->draw_dsc, q->draw_area);
 381:Drivers/lvgl/src/draw/sw/lv_draw_sw_arc.c ****         }
 382:Drivers/lvgl/src/draw/sw/lv_draw_sw_arc.c ****     }
 383:Drivers/lvgl/src/draw/sw/lv_draw_sw_arc.c ****     else if(q->start_quarter == 2 || q->end_quarter == 2) {
 993              		.loc 1 383 10 is_stmt 1 view .LVU390
 994              		.loc 1 383 12 is_stmt 0 view .LVU391
 995 0010 022B     		cmp	r3, #2
 996 0012 66D0     		beq	.L36
 997              		.loc 1 383 39 discriminator 1 view .LVU392
 998 0014 A289     		ldrh	r2, [r4, #12]
 999              		.loc 1 383 35 discriminator 1 view .LVU393
 1000 0016 022A     		cmp	r2, #2
 1001 0018 63D0     		beq	.L36
 384:Drivers/lvgl/src/draw/sw/lv_draw_sw_arc.c ****         /*Start and/or end arcs here*/
 385:Drivers/lvgl/src/draw/sw/lv_draw_sw_arc.c ****         if(q->start_quarter == 2) {
ARM GAS  /var/folders/lp/x54gwt890xv47sdkqj1k04q40000gn/T//cc8BXUdH.s 			page 31


 386:Drivers/lvgl/src/draw/sw/lv_draw_sw_arc.c ****             quarter_area.x2 = q->center->x - 1;
 387:Drivers/lvgl/src/draw/sw/lv_draw_sw_arc.c ****             quarter_area.y1 = q->center->y - q->radius;
 388:Drivers/lvgl/src/draw/sw/lv_draw_sw_arc.c **** 
 389:Drivers/lvgl/src/draw/sw/lv_draw_sw_arc.c ****             quarter_area.x1 = q->center->x + ((lv_trigo_sin(q->start_angle + 90) * (q->radius)) >> 
 390:Drivers/lvgl/src/draw/sw/lv_draw_sw_arc.c ****             quarter_area.y2 = q->center->y + ((lv_trigo_sin(q->start_angle) * (q->radius - q->width
 391:Drivers/lvgl/src/draw/sw/lv_draw_sw_arc.c **** 
 392:Drivers/lvgl/src/draw/sw/lv_draw_sw_arc.c ****             bool ok = _lv_area_intersect(&quarter_area, &quarter_area, clip_area_ori);
 393:Drivers/lvgl/src/draw/sw/lv_draw_sw_arc.c ****             if(ok) {
 394:Drivers/lvgl/src/draw/sw/lv_draw_sw_arc.c ****                 q->draw_ctx->clip_area = &quarter_area;
 395:Drivers/lvgl/src/draw/sw/lv_draw_sw_arc.c ****                 lv_draw_rect(q->draw_ctx, q->draw_dsc, q->draw_area);
 396:Drivers/lvgl/src/draw/sw/lv_draw_sw_arc.c ****             }
 397:Drivers/lvgl/src/draw/sw/lv_draw_sw_arc.c ****         }
 398:Drivers/lvgl/src/draw/sw/lv_draw_sw_arc.c ****         if(q->end_quarter == 2) {
 399:Drivers/lvgl/src/draw/sw/lv_draw_sw_arc.c ****             quarter_area.x1 = q->center->x - q->radius;
 400:Drivers/lvgl/src/draw/sw/lv_draw_sw_arc.c ****             quarter_area.y2 = q->center->y - 1;
 401:Drivers/lvgl/src/draw/sw/lv_draw_sw_arc.c **** 
 402:Drivers/lvgl/src/draw/sw/lv_draw_sw_arc.c ****             quarter_area.x2 = q->center->x + ((lv_trigo_sin(q->end_angle + 90) * (q->radius - q->wi
 403:Drivers/lvgl/src/draw/sw/lv_draw_sw_arc.c ****             quarter_area.y1 = q->center->y + ((lv_trigo_sin(q->end_angle) * (q->radius)) >> LV_TRIG
 404:Drivers/lvgl/src/draw/sw/lv_draw_sw_arc.c **** 
 405:Drivers/lvgl/src/draw/sw/lv_draw_sw_arc.c ****             bool ok = _lv_area_intersect(&quarter_area, &quarter_area, clip_area_ori);
 406:Drivers/lvgl/src/draw/sw/lv_draw_sw_arc.c ****             if(ok) {
 407:Drivers/lvgl/src/draw/sw/lv_draw_sw_arc.c ****                 q->draw_ctx->clip_area = &quarter_area;
 408:Drivers/lvgl/src/draw/sw/lv_draw_sw_arc.c ****                 lv_draw_rect(q->draw_ctx, q->draw_dsc, q->draw_area);
 409:Drivers/lvgl/src/draw/sw/lv_draw_sw_arc.c ****             }
 410:Drivers/lvgl/src/draw/sw/lv_draw_sw_arc.c ****         }
 411:Drivers/lvgl/src/draw/sw/lv_draw_sw_arc.c ****     }
 412:Drivers/lvgl/src/draw/sw/lv_draw_sw_arc.c ****     else if((q->start_quarter == q->end_quarter && q->start_quarter != 2 && q->end_angle < q->start
 1002              		.loc 1 412 10 is_stmt 1 view .LVU394
 1003              		.loc 1 412 12 is_stmt 0 view .LVU395
 1004 001a 9342     		cmp	r3, r2
 1005 001c 00F0DC80 		beq	.L45
 1006              	.L39:
 1007              		.loc 1 412 108 discriminator 5 view .LVU396
 1008 0020 13B9     		cbnz	r3, .L41
 413:Drivers/lvgl/src/draw/sw/lv_draw_sw_arc.c ****             (q->start_quarter == 0 && q->end_quarter == 3) ||
 1009              		.loc 1 413 36 view .LVU397
 1010 0022 032A     		cmp	r2, #3
 1011 0024 00F0DD80 		beq	.L40
 1012              	.L41:
 1013              		.loc 1 413 60 discriminator 1 view .LVU398
 1014 0028 012B     		cmp	r3, #1
 1015 002a 00F0FD80 		beq	.L46
 1016              	.L42:
 414:Drivers/lvgl/src/draw/sw/lv_draw_sw_arc.c ****             (q->start_quarter == 1 && q->end_quarter == 3) ||
 1017              		.loc 1 414 60 discriminator 1 view .LVU399
 1018 002e 012B     		cmp	r3, #1
 1019 0030 5CD1     		bne	.L35
 415:Drivers/lvgl/src/draw/sw/lv_draw_sw_arc.c ****             (q->start_quarter == 1 && q->end_quarter == 0)) {
 1020              		.loc 1 415 36 view .LVU400
 1021 0032 002A     		cmp	r2, #0
 1022 0034 5AD1     		bne	.L35
 1023 0036 D4E0     		b	.L40
 1024              	.LVL60:
 1025              	.L44:
 369:Drivers/lvgl/src/draw/sw/lv_draw_sw_arc.c ****         /*Small arc here*/
 1026              		.loc 1 369 34 discriminator 1 view .LVU401
 1027 0038 8289     		ldrh	r2, [r0, #12]
ARM GAS  /var/folders/lp/x54gwt890xv47sdkqj1k04q40000gn/T//cc8BXUdH.s 			page 32


 369:Drivers/lvgl/src/draw/sw/lv_draw_sw_arc.c ****         /*Small arc here*/
 1028              		.loc 1 369 30 discriminator 1 view .LVU402
 1029 003a 022A     		cmp	r2, #2
 1030 003c E8D1     		bne	.L34
 369:Drivers/lvgl/src/draw/sw/lv_draw_sw_arc.c ****         /*Small arc here*/
 1031              		.loc 1 369 57 discriminator 2 view .LVU403
 1032 003e C088     		ldrh	r0, [r0, #6]
 1033              	.LVL61:
 369:Drivers/lvgl/src/draw/sw/lv_draw_sw_arc.c ****         /*Small arc here*/
 1034              		.loc 1 369 74 discriminator 2 view .LVU404
 1035 0040 2289     		ldrh	r2, [r4, #8]
 369:Drivers/lvgl/src/draw/sw/lv_draw_sw_arc.c ****         /*Small arc here*/
 1036              		.loc 1 369 53 discriminator 2 view .LVU405
 1037 0042 9042     		cmp	r0, r2
 1038 0044 E4D2     		bcs	.L34
 1039              	.LBB20:
 371:Drivers/lvgl/src/draw/sw/lv_draw_sw_arc.c ****         quarter_area.y2 = q->center->y + ((lv_trigo_sin(q->start_angle) * (q->radius - q->width)) >
 1040              		.loc 1 371 9 is_stmt 1 view .LVU406
 371:Drivers/lvgl/src/draw/sw/lv_draw_sw_arc.c ****         quarter_area.y2 = q->center->y + ((lv_trigo_sin(q->start_angle) * (q->radius - q->width)) >
 1041              		.loc 1 371 28 is_stmt 0 view .LVU407
 1042 0046 2368     		ldr	r3, [r4]
 371:Drivers/lvgl/src/draw/sw/lv_draw_sw_arc.c ****         quarter_area.y2 = q->center->y + ((lv_trigo_sin(q->start_angle) * (q->radius - q->width)) >
 1043              		.loc 1 371 36 view .LVU408
 1044 0048 1E88     		ldrh	r6, [r3]
 371:Drivers/lvgl/src/draw/sw/lv_draw_sw_arc.c ****         quarter_area.y2 = q->center->y + ((lv_trigo_sin(q->start_angle) * (q->radius - q->width)) >
 1045              		.loc 1 371 72 view .LVU409
 1046 004a 5A30     		adds	r0, r0, #90
 371:Drivers/lvgl/src/draw/sw/lv_draw_sw_arc.c ****         quarter_area.y2 = q->center->y + ((lv_trigo_sin(q->start_angle) * (q->radius - q->width)) >
 1047              		.loc 1 371 44 view .LVU410
 1048 004c 00B2     		sxth	r0, r0
 1049 004e FFF7FEFF 		bl	lv_trigo_sin
 1050              	.LVL62:
 371:Drivers/lvgl/src/draw/sw/lv_draw_sw_arc.c ****         quarter_area.y2 = q->center->y + ((lv_trigo_sin(q->start_angle) * (q->radius - q->width)) >
 1051              		.loc 1 371 82 discriminator 1 view .LVU411
 1052 0052 B4F90430 		ldrsh	r3, [r4, #4]
 371:Drivers/lvgl/src/draw/sw/lv_draw_sw_arc.c ****         quarter_area.y2 = q->center->y + ((lv_trigo_sin(q->start_angle) * (q->radius - q->width)) >
 1053              		.loc 1 371 78 discriminator 1 view .LVU412
 1054 0056 03FB00F0 		mul	r0, r3, r0
 371:Drivers/lvgl/src/draw/sw/lv_draw_sw_arc.c ****         quarter_area.y2 = q->center->y + ((lv_trigo_sin(q->start_angle) * (q->radius - q->width)) >
 1055              		.loc 1 371 40 discriminator 1 view .LVU413
 1056 005a 06EBE036 		add	r6, r6, r0, asr #15
 371:Drivers/lvgl/src/draw/sw/lv_draw_sw_arc.c ****         quarter_area.y2 = q->center->y + ((lv_trigo_sin(q->start_angle) * (q->radius - q->width)) >
 1057              		.loc 1 371 25 discriminator 1 view .LVU414
 1058 005e ADF80060 		strh	r6, [sp]	@ movhi
 372:Drivers/lvgl/src/draw/sw/lv_draw_sw_arc.c **** 
 1059              		.loc 1 372 9 is_stmt 1 view .LVU415
 372:Drivers/lvgl/src/draw/sw/lv_draw_sw_arc.c **** 
 1060              		.loc 1 372 28 is_stmt 0 view .LVU416
 1061 0062 2368     		ldr	r3, [r4]
 372:Drivers/lvgl/src/draw/sw/lv_draw_sw_arc.c **** 
 1062              		.loc 1 372 36 view .LVU417
 1063 0064 5E88     		ldrh	r6, [r3, #2]
 372:Drivers/lvgl/src/draw/sw/lv_draw_sw_arc.c **** 
 1064              		.loc 1 372 44 view .LVU418
 1065 0066 B4F90600 		ldrsh	r0, [r4, #6]
 1066 006a FFF7FEFF 		bl	lv_trigo_sin
 1067              	.LVL63:
ARM GAS  /var/folders/lp/x54gwt890xv47sdkqj1k04q40000gn/T//cc8BXUdH.s 			page 33


 372:Drivers/lvgl/src/draw/sw/lv_draw_sw_arc.c **** 
 1068              		.loc 1 372 77 discriminator 1 view .LVU419
 1069 006e B4F90430 		ldrsh	r3, [r4, #4]
 372:Drivers/lvgl/src/draw/sw/lv_draw_sw_arc.c **** 
 1070              		.loc 1 372 89 discriminator 1 view .LVU420
 1071 0072 B4F90E20 		ldrsh	r2, [r4, #14]
 372:Drivers/lvgl/src/draw/sw/lv_draw_sw_arc.c **** 
 1072              		.loc 1 372 86 discriminator 1 view .LVU421
 1073 0076 9B1A     		subs	r3, r3, r2
 372:Drivers/lvgl/src/draw/sw/lv_draw_sw_arc.c **** 
 1074              		.loc 1 372 73 discriminator 1 view .LVU422
 1075 0078 03FB00F0 		mul	r0, r3, r0
 372:Drivers/lvgl/src/draw/sw/lv_draw_sw_arc.c **** 
 1076              		.loc 1 372 40 discriminator 1 view .LVU423
 1077 007c 06EBE036 		add	r6, r6, r0, asr #15
 372:Drivers/lvgl/src/draw/sw/lv_draw_sw_arc.c **** 
 1078              		.loc 1 372 25 discriminator 1 view .LVU424
 1079 0080 ADF80660 		strh	r6, [sp, #6]	@ movhi
 374:Drivers/lvgl/src/draw/sw/lv_draw_sw_arc.c ****         quarter_area.x2 = q->center->x + ((lv_trigo_sin(q->end_angle + 90) * (q->radius - q->width)
 1080              		.loc 1 374 9 is_stmt 1 view .LVU425
 374:Drivers/lvgl/src/draw/sw/lv_draw_sw_arc.c ****         quarter_area.x2 = q->center->x + ((lv_trigo_sin(q->end_angle + 90) * (q->radius - q->width)
 1081              		.loc 1 374 28 is_stmt 0 view .LVU426
 1082 0084 2368     		ldr	r3, [r4]
 374:Drivers/lvgl/src/draw/sw/lv_draw_sw_arc.c ****         quarter_area.x2 = q->center->x + ((lv_trigo_sin(q->end_angle + 90) * (q->radius - q->width)
 1083              		.loc 1 374 36 view .LVU427
 1084 0086 5E88     		ldrh	r6, [r3, #2]
 374:Drivers/lvgl/src/draw/sw/lv_draw_sw_arc.c ****         quarter_area.x2 = q->center->x + ((lv_trigo_sin(q->end_angle + 90) * (q->radius - q->width)
 1085              		.loc 1 374 44 view .LVU428
 1086 0088 B4F90800 		ldrsh	r0, [r4, #8]
 1087 008c FFF7FEFF 		bl	lv_trigo_sin
 1088              	.LVL64:
 374:Drivers/lvgl/src/draw/sw/lv_draw_sw_arc.c ****         quarter_area.x2 = q->center->x + ((lv_trigo_sin(q->end_angle + 90) * (q->radius - q->width)
 1089              		.loc 1 374 74 discriminator 1 view .LVU429
 1090 0090 B4F90430 		ldrsh	r3, [r4, #4]
 374:Drivers/lvgl/src/draw/sw/lv_draw_sw_arc.c ****         quarter_area.x2 = q->center->x + ((lv_trigo_sin(q->end_angle + 90) * (q->radius - q->width)
 1091              		.loc 1 374 71 discriminator 1 view .LVU430
 1092 0094 03FB00F0 		mul	r0, r3, r0
 374:Drivers/lvgl/src/draw/sw/lv_draw_sw_arc.c ****         quarter_area.x2 = q->center->x + ((lv_trigo_sin(q->end_angle + 90) * (q->radius - q->width)
 1093              		.loc 1 374 40 discriminator 1 view .LVU431
 1094 0098 06EBE036 		add	r6, r6, r0, asr #15
 374:Drivers/lvgl/src/draw/sw/lv_draw_sw_arc.c ****         quarter_area.x2 = q->center->x + ((lv_trigo_sin(q->end_angle + 90) * (q->radius - q->width)
 1095              		.loc 1 374 25 discriminator 1 view .LVU432
 1096 009c ADF80260 		strh	r6, [sp, #2]	@ movhi
 375:Drivers/lvgl/src/draw/sw/lv_draw_sw_arc.c **** 
 1097              		.loc 1 375 9 is_stmt 1 view .LVU433
 375:Drivers/lvgl/src/draw/sw/lv_draw_sw_arc.c **** 
 1098              		.loc 1 375 28 is_stmt 0 view .LVU434
 1099 00a0 2368     		ldr	r3, [r4]
 375:Drivers/lvgl/src/draw/sw/lv_draw_sw_arc.c **** 
 1100              		.loc 1 375 36 view .LVU435
 1101 00a2 1E88     		ldrh	r6, [r3]
 375:Drivers/lvgl/src/draw/sw/lv_draw_sw_arc.c **** 
 1102              		.loc 1 375 58 view .LVU436
 1103 00a4 2089     		ldrh	r0, [r4, #8]
 375:Drivers/lvgl/src/draw/sw/lv_draw_sw_arc.c **** 
 1104              		.loc 1 375 70 view .LVU437
 1105 00a6 5A30     		adds	r0, r0, #90
ARM GAS  /var/folders/lp/x54gwt890xv47sdkqj1k04q40000gn/T//cc8BXUdH.s 			page 34


 375:Drivers/lvgl/src/draw/sw/lv_draw_sw_arc.c **** 
 1106              		.loc 1 375 44 view .LVU438
 1107 00a8 00B2     		sxth	r0, r0
 1108 00aa FFF7FEFF 		bl	lv_trigo_sin
 1109              	.LVL65:
 375:Drivers/lvgl/src/draw/sw/lv_draw_sw_arc.c **** 
 1110              		.loc 1 375 80 discriminator 1 view .LVU439
 1111 00ae B4F90430 		ldrsh	r3, [r4, #4]
 375:Drivers/lvgl/src/draw/sw/lv_draw_sw_arc.c **** 
 1112              		.loc 1 375 92 discriminator 1 view .LVU440
 1113 00b2 B4F90E20 		ldrsh	r2, [r4, #14]
 375:Drivers/lvgl/src/draw/sw/lv_draw_sw_arc.c **** 
 1114              		.loc 1 375 89 discriminator 1 view .LVU441
 1115 00b6 9B1A     		subs	r3, r3, r2
 375:Drivers/lvgl/src/draw/sw/lv_draw_sw_arc.c **** 
 1116              		.loc 1 375 76 discriminator 1 view .LVU442
 1117 00b8 03FB00F0 		mul	r0, r3, r0
 375:Drivers/lvgl/src/draw/sw/lv_draw_sw_arc.c **** 
 1118              		.loc 1 375 40 discriminator 1 view .LVU443
 1119 00bc 06EBE036 		add	r6, r6, r0, asr #15
 375:Drivers/lvgl/src/draw/sw/lv_draw_sw_arc.c **** 
 1120              		.loc 1 375 25 discriminator 1 view .LVU444
 1121 00c0 ADF80460 		strh	r6, [sp, #4]	@ movhi
 377:Drivers/lvgl/src/draw/sw/lv_draw_sw_arc.c ****         if(ok) {
 1122              		.loc 1 377 9 is_stmt 1 view .LVU445
 377:Drivers/lvgl/src/draw/sw/lv_draw_sw_arc.c ****         if(ok) {
 1123              		.loc 1 377 19 is_stmt 0 view .LVU446
 1124 00c4 2A46     		mov	r2, r5
 1125 00c6 6946     		mov	r1, sp
 1126 00c8 6846     		mov	r0, sp
 1127 00ca FFF7FEFF 		bl	_lv_area_intersect
 1128              	.LVL66:
 378:Drivers/lvgl/src/draw/sw/lv_draw_sw_arc.c ****             q->draw_ctx->clip_area = &quarter_area;
 1129              		.loc 1 378 9 is_stmt 1 view .LVU447
 378:Drivers/lvgl/src/draw/sw/lv_draw_sw_arc.c ****             q->draw_ctx->clip_area = &quarter_area;
 1130              		.loc 1 378 11 is_stmt 0 view .LVU448
 1131 00ce 68B1     		cbz	r0, .L35
 379:Drivers/lvgl/src/draw/sw/lv_draw_sw_arc.c ****             lv_draw_rect(q->draw_ctx, q->draw_dsc, q->draw_area);
 1132              		.loc 1 379 13 is_stmt 1 view .LVU449
 379:Drivers/lvgl/src/draw/sw/lv_draw_sw_arc.c ****             lv_draw_rect(q->draw_ctx, q->draw_dsc, q->draw_area);
 1133              		.loc 1 379 14 is_stmt 0 view .LVU450
 1134 00d0 A369     		ldr	r3, [r4, #24]
 379:Drivers/lvgl/src/draw/sw/lv_draw_sw_arc.c ****             lv_draw_rect(q->draw_ctx, q->draw_dsc, q->draw_area);
 1135              		.loc 1 379 36 view .LVU451
 1136 00d2 C3F808D0 		str	sp, [r3, #8]
 380:Drivers/lvgl/src/draw/sw/lv_draw_sw_arc.c ****         }
 1137              		.loc 1 380 13 is_stmt 1 view .LVU452
 1138 00d6 6269     		ldr	r2, [r4, #20]
 1139 00d8 2169     		ldr	r1, [r4, #16]
 1140 00da A069     		ldr	r0, [r4, #24]
 1141              	.LVL67:
 380:Drivers/lvgl/src/draw/sw/lv_draw_sw_arc.c ****         }
 1142              		.loc 1 380 13 is_stmt 0 view .LVU453
 1143 00dc FFF7FEFF 		bl	lv_draw_rect
 1144              	.LVL68:
 1145 00e0 04E0     		b	.L35
 1146              	.LVL69:
ARM GAS  /var/folders/lp/x54gwt890xv47sdkqj1k04q40000gn/T//cc8BXUdH.s 			page 35


 1147              	.L36:
 380:Drivers/lvgl/src/draw/sw/lv_draw_sw_arc.c ****         }
 1148              		.loc 1 380 13 view .LVU454
 1149              	.LBE20:
 385:Drivers/lvgl/src/draw/sw/lv_draw_sw_arc.c ****             quarter_area.x2 = q->center->x - 1;
 1150              		.loc 1 385 9 is_stmt 1 view .LVU455
 385:Drivers/lvgl/src/draw/sw/lv_draw_sw_arc.c ****             quarter_area.x2 = q->center->x - 1;
 1151              		.loc 1 385 11 is_stmt 0 view .LVU456
 1152 00e2 022B     		cmp	r3, #2
 1153 00e4 06D0     		beq	.L47
 1154              	.L38:
 398:Drivers/lvgl/src/draw/sw/lv_draw_sw_arc.c ****             quarter_area.x1 = q->center->x - q->radius;
 1155              		.loc 1 398 9 is_stmt 1 view .LVU457
 398:Drivers/lvgl/src/draw/sw/lv_draw_sw_arc.c ****             quarter_area.x1 = q->center->x - q->radius;
 1156              		.loc 1 398 13 is_stmt 0 view .LVU458
 1157 00e6 A389     		ldrh	r3, [r4, #12]
 398:Drivers/lvgl/src/draw/sw/lv_draw_sw_arc.c ****             quarter_area.x1 = q->center->x - q->radius;
 1158              		.loc 1 398 11 view .LVU459
 1159 00e8 022B     		cmp	r3, #2
 1160 00ea 3CD0     		beq	.L48
 1161              	.L35:
 416:Drivers/lvgl/src/draw/sw/lv_draw_sw_arc.c ****         /*Arc crosses here*/
 417:Drivers/lvgl/src/draw/sw/lv_draw_sw_arc.c ****         quarter_area.x1 = q->center->x - q->radius;
 418:Drivers/lvgl/src/draw/sw/lv_draw_sw_arc.c ****         quarter_area.y1 = q->center->y - q->radius;
 419:Drivers/lvgl/src/draw/sw/lv_draw_sw_arc.c ****         quarter_area.x2 = q->center->x - 1;
 420:Drivers/lvgl/src/draw/sw/lv_draw_sw_arc.c ****         quarter_area.y2 = q->center->y - 1;
 421:Drivers/lvgl/src/draw/sw/lv_draw_sw_arc.c **** 
 422:Drivers/lvgl/src/draw/sw/lv_draw_sw_arc.c ****         bool ok = _lv_area_intersect(&quarter_area, &quarter_area, clip_area_ori);
 423:Drivers/lvgl/src/draw/sw/lv_draw_sw_arc.c ****         if(ok) {
 424:Drivers/lvgl/src/draw/sw/lv_draw_sw_arc.c ****             q->draw_ctx->clip_area = &quarter_area;
 425:Drivers/lvgl/src/draw/sw/lv_draw_sw_arc.c ****             lv_draw_rect(q->draw_ctx, q->draw_dsc, q->draw_area);
 426:Drivers/lvgl/src/draw/sw/lv_draw_sw_arc.c ****         }
 427:Drivers/lvgl/src/draw/sw/lv_draw_sw_arc.c ****     }
 428:Drivers/lvgl/src/draw/sw/lv_draw_sw_arc.c ****     q->draw_ctx->clip_area = clip_area_ori;
 1162              		.loc 1 428 5 is_stmt 1 view .LVU460
 1163              		.loc 1 428 6 is_stmt 0 view .LVU461
 1164 00ec A369     		ldr	r3, [r4, #24]
 1165              		.loc 1 428 28 view .LVU462
 1166 00ee 9D60     		str	r5, [r3, #8]
 429:Drivers/lvgl/src/draw/sw/lv_draw_sw_arc.c **** }
 1167              		.loc 1 429 1 view .LVU463
 1168 00f0 02B0     		add	sp, sp, #8
 1169              		.cfi_remember_state
 1170              		.cfi_def_cfa_offset 16
 1171              		@ sp needed
 1172 00f2 70BD     		pop	{r4, r5, r6, pc}
 1173              	.LVL70:
 1174              	.L47:
 1175              		.cfi_restore_state
 1176              	.LBB21:
 386:Drivers/lvgl/src/draw/sw/lv_draw_sw_arc.c ****             quarter_area.y1 = q->center->y - q->radius;
 1177              		.loc 1 386 13 is_stmt 1 view .LVU464
 386:Drivers/lvgl/src/draw/sw/lv_draw_sw_arc.c ****             quarter_area.y1 = q->center->y - q->radius;
 1178              		.loc 1 386 32 is_stmt 0 view .LVU465
 1179 00f4 2368     		ldr	r3, [r4]
 386:Drivers/lvgl/src/draw/sw/lv_draw_sw_arc.c ****             quarter_area.y1 = q->center->y - q->radius;
 1180              		.loc 1 386 40 view .LVU466
ARM GAS  /var/folders/lp/x54gwt890xv47sdkqj1k04q40000gn/T//cc8BXUdH.s 			page 36


 1181 00f6 1A88     		ldrh	r2, [r3]
 386:Drivers/lvgl/src/draw/sw/lv_draw_sw_arc.c ****             quarter_area.y1 = q->center->y - q->radius;
 1182              		.loc 1 386 44 view .LVU467
 1183 00f8 013A     		subs	r2, r2, #1
 386:Drivers/lvgl/src/draw/sw/lv_draw_sw_arc.c ****             quarter_area.y1 = q->center->y - q->radius;
 1184              		.loc 1 386 29 view .LVU468
 1185 00fa ADF80420 		strh	r2, [sp, #4]	@ movhi
 387:Drivers/lvgl/src/draw/sw/lv_draw_sw_arc.c **** 
 1186              		.loc 1 387 13 is_stmt 1 view .LVU469
 387:Drivers/lvgl/src/draw/sw/lv_draw_sw_arc.c **** 
 1187              		.loc 1 387 40 is_stmt 0 view .LVU470
 1188 00fe 5A88     		ldrh	r2, [r3, #2]
 387:Drivers/lvgl/src/draw/sw/lv_draw_sw_arc.c **** 
 1189              		.loc 1 387 47 view .LVU471
 1190 0100 A188     		ldrh	r1, [r4, #4]
 387:Drivers/lvgl/src/draw/sw/lv_draw_sw_arc.c **** 
 1191              		.loc 1 387 44 view .LVU472
 1192 0102 521A     		subs	r2, r2, r1
 387:Drivers/lvgl/src/draw/sw/lv_draw_sw_arc.c **** 
 1193              		.loc 1 387 29 view .LVU473
 1194 0104 ADF80220 		strh	r2, [sp, #2]	@ movhi
 389:Drivers/lvgl/src/draw/sw/lv_draw_sw_arc.c ****             quarter_area.y2 = q->center->y + ((lv_trigo_sin(q->start_angle) * (q->radius - q->width
 1195              		.loc 1 389 13 is_stmt 1 view .LVU474
 389:Drivers/lvgl/src/draw/sw/lv_draw_sw_arc.c ****             quarter_area.y2 = q->center->y + ((lv_trigo_sin(q->start_angle) * (q->radius - q->width
 1196              		.loc 1 389 40 is_stmt 0 view .LVU475
 1197 0108 1E88     		ldrh	r6, [r3]
 389:Drivers/lvgl/src/draw/sw/lv_draw_sw_arc.c ****             quarter_area.y2 = q->center->y + ((lv_trigo_sin(q->start_angle) * (q->radius - q->width
 1198              		.loc 1 389 62 view .LVU476
 1199 010a E088     		ldrh	r0, [r4, #6]
 389:Drivers/lvgl/src/draw/sw/lv_draw_sw_arc.c ****             quarter_area.y2 = q->center->y + ((lv_trigo_sin(q->start_angle) * (q->radius - q->width
 1200              		.loc 1 389 76 view .LVU477
 1201 010c 5A30     		adds	r0, r0, #90
 389:Drivers/lvgl/src/draw/sw/lv_draw_sw_arc.c ****             quarter_area.y2 = q->center->y + ((lv_trigo_sin(q->start_angle) * (q->radius - q->width
 1202              		.loc 1 389 48 view .LVU478
 1203 010e 00B2     		sxth	r0, r0
 1204 0110 FFF7FEFF 		bl	lv_trigo_sin
 1205              	.LVL71:
 389:Drivers/lvgl/src/draw/sw/lv_draw_sw_arc.c ****             quarter_area.y2 = q->center->y + ((lv_trigo_sin(q->start_angle) * (q->radius - q->width
 1206              		.loc 1 389 86 discriminator 1 view .LVU479
 1207 0114 B4F90430 		ldrsh	r3, [r4, #4]
 389:Drivers/lvgl/src/draw/sw/lv_draw_sw_arc.c ****             quarter_area.y2 = q->center->y + ((lv_trigo_sin(q->start_angle) * (q->radius - q->width
 1208              		.loc 1 389 82 discriminator 1 view .LVU480
 1209 0118 03FB00F0 		mul	r0, r3, r0
 389:Drivers/lvgl/src/draw/sw/lv_draw_sw_arc.c ****             quarter_area.y2 = q->center->y + ((lv_trigo_sin(q->start_angle) * (q->radius - q->width
 1210              		.loc 1 389 44 discriminator 1 view .LVU481
 1211 011c 06EBE036 		add	r6, r6, r0, asr #15
 389:Drivers/lvgl/src/draw/sw/lv_draw_sw_arc.c ****             quarter_area.y2 = q->center->y + ((lv_trigo_sin(q->start_angle) * (q->radius - q->width
 1212              		.loc 1 389 29 discriminator 1 view .LVU482
 1213 0120 ADF80060 		strh	r6, [sp]	@ movhi
 390:Drivers/lvgl/src/draw/sw/lv_draw_sw_arc.c **** 
 1214              		.loc 1 390 13 is_stmt 1 view .LVU483
 390:Drivers/lvgl/src/draw/sw/lv_draw_sw_arc.c **** 
 1215              		.loc 1 390 32 is_stmt 0 view .LVU484
 1216 0124 2368     		ldr	r3, [r4]
 390:Drivers/lvgl/src/draw/sw/lv_draw_sw_arc.c **** 
 1217              		.loc 1 390 40 view .LVU485
 1218 0126 5E88     		ldrh	r6, [r3, #2]
ARM GAS  /var/folders/lp/x54gwt890xv47sdkqj1k04q40000gn/T//cc8BXUdH.s 			page 37


 390:Drivers/lvgl/src/draw/sw/lv_draw_sw_arc.c **** 
 1219              		.loc 1 390 48 view .LVU486
 1220 0128 B4F90600 		ldrsh	r0, [r4, #6]
 1221 012c FFF7FEFF 		bl	lv_trigo_sin
 1222              	.LVL72:
 390:Drivers/lvgl/src/draw/sw/lv_draw_sw_arc.c **** 
 1223              		.loc 1 390 81 discriminator 1 view .LVU487
 1224 0130 B4F90430 		ldrsh	r3, [r4, #4]
 390:Drivers/lvgl/src/draw/sw/lv_draw_sw_arc.c **** 
 1225              		.loc 1 390 93 discriminator 1 view .LVU488
 1226 0134 B4F90E20 		ldrsh	r2, [r4, #14]
 390:Drivers/lvgl/src/draw/sw/lv_draw_sw_arc.c **** 
 1227              		.loc 1 390 90 discriminator 1 view .LVU489
 1228 0138 9B1A     		subs	r3, r3, r2
 390:Drivers/lvgl/src/draw/sw/lv_draw_sw_arc.c **** 
 1229              		.loc 1 390 77 discriminator 1 view .LVU490
 1230 013a 03FB00F0 		mul	r0, r3, r0
 390:Drivers/lvgl/src/draw/sw/lv_draw_sw_arc.c **** 
 1231              		.loc 1 390 44 discriminator 1 view .LVU491
 1232 013e 06EBE036 		add	r6, r6, r0, asr #15
 390:Drivers/lvgl/src/draw/sw/lv_draw_sw_arc.c **** 
 1233              		.loc 1 390 29 discriminator 1 view .LVU492
 1234 0142 ADF80660 		strh	r6, [sp, #6]	@ movhi
 392:Drivers/lvgl/src/draw/sw/lv_draw_sw_arc.c ****             if(ok) {
 1235              		.loc 1 392 13 is_stmt 1 view .LVU493
 392:Drivers/lvgl/src/draw/sw/lv_draw_sw_arc.c ****             if(ok) {
 1236              		.loc 1 392 23 is_stmt 0 view .LVU494
 1237 0146 2A46     		mov	r2, r5
 1238 0148 6946     		mov	r1, sp
 1239 014a 6846     		mov	r0, sp
 1240 014c FFF7FEFF 		bl	_lv_area_intersect
 1241              	.LVL73:
 393:Drivers/lvgl/src/draw/sw/lv_draw_sw_arc.c ****                 q->draw_ctx->clip_area = &quarter_area;
 1242              		.loc 1 393 13 is_stmt 1 view .LVU495
 393:Drivers/lvgl/src/draw/sw/lv_draw_sw_arc.c ****                 q->draw_ctx->clip_area = &quarter_area;
 1243              		.loc 1 393 15 is_stmt 0 view .LVU496
 1244 0150 0028     		cmp	r0, #0
 1245 0152 C8D0     		beq	.L38
 394:Drivers/lvgl/src/draw/sw/lv_draw_sw_arc.c ****                 lv_draw_rect(q->draw_ctx, q->draw_dsc, q->draw_area);
 1246              		.loc 1 394 17 is_stmt 1 view .LVU497
 394:Drivers/lvgl/src/draw/sw/lv_draw_sw_arc.c ****                 lv_draw_rect(q->draw_ctx, q->draw_dsc, q->draw_area);
 1247              		.loc 1 394 18 is_stmt 0 view .LVU498
 1248 0154 A369     		ldr	r3, [r4, #24]
 394:Drivers/lvgl/src/draw/sw/lv_draw_sw_arc.c ****                 lv_draw_rect(q->draw_ctx, q->draw_dsc, q->draw_area);
 1249              		.loc 1 394 40 view .LVU499
 1250 0156 C3F808D0 		str	sp, [r3, #8]
 395:Drivers/lvgl/src/draw/sw/lv_draw_sw_arc.c ****             }
 1251              		.loc 1 395 17 is_stmt 1 view .LVU500
 1252 015a 6269     		ldr	r2, [r4, #20]
 1253 015c 2169     		ldr	r1, [r4, #16]
 1254 015e A069     		ldr	r0, [r4, #24]
 1255              	.LVL74:
 395:Drivers/lvgl/src/draw/sw/lv_draw_sw_arc.c ****             }
 1256              		.loc 1 395 17 is_stmt 0 view .LVU501
 1257 0160 FFF7FEFF 		bl	lv_draw_rect
 1258              	.LVL75:
 1259 0164 BFE7     		b	.L38
ARM GAS  /var/folders/lp/x54gwt890xv47sdkqj1k04q40000gn/T//cc8BXUdH.s 			page 38


 1260              	.LVL76:
 1261              	.L48:
 395:Drivers/lvgl/src/draw/sw/lv_draw_sw_arc.c ****             }
 1262              		.loc 1 395 17 view .LVU502
 1263              	.LBE21:
 1264              	.LBB22:
 399:Drivers/lvgl/src/draw/sw/lv_draw_sw_arc.c ****             quarter_area.y2 = q->center->y - 1;
 1265              		.loc 1 399 13 is_stmt 1 view .LVU503
 399:Drivers/lvgl/src/draw/sw/lv_draw_sw_arc.c ****             quarter_area.y2 = q->center->y - 1;
 1266              		.loc 1 399 32 is_stmt 0 view .LVU504
 1267 0166 2368     		ldr	r3, [r4]
 399:Drivers/lvgl/src/draw/sw/lv_draw_sw_arc.c ****             quarter_area.y2 = q->center->y - 1;
 1268              		.loc 1 399 40 view .LVU505
 1269 0168 1A88     		ldrh	r2, [r3]
 399:Drivers/lvgl/src/draw/sw/lv_draw_sw_arc.c ****             quarter_area.y2 = q->center->y - 1;
 1270              		.loc 1 399 47 view .LVU506
 1271 016a A188     		ldrh	r1, [r4, #4]
 399:Drivers/lvgl/src/draw/sw/lv_draw_sw_arc.c ****             quarter_area.y2 = q->center->y - 1;
 1272              		.loc 1 399 44 view .LVU507
 1273 016c 521A     		subs	r2, r2, r1
 399:Drivers/lvgl/src/draw/sw/lv_draw_sw_arc.c ****             quarter_area.y2 = q->center->y - 1;
 1274              		.loc 1 399 29 view .LVU508
 1275 016e ADF80020 		strh	r2, [sp]	@ movhi
 400:Drivers/lvgl/src/draw/sw/lv_draw_sw_arc.c **** 
 1276              		.loc 1 400 13 is_stmt 1 view .LVU509
 400:Drivers/lvgl/src/draw/sw/lv_draw_sw_arc.c **** 
 1277              		.loc 1 400 40 is_stmt 0 view .LVU510
 1278 0172 5A88     		ldrh	r2, [r3, #2]
 400:Drivers/lvgl/src/draw/sw/lv_draw_sw_arc.c **** 
 1279              		.loc 1 400 44 view .LVU511
 1280 0174 013A     		subs	r2, r2, #1
 400:Drivers/lvgl/src/draw/sw/lv_draw_sw_arc.c **** 
 1281              		.loc 1 400 29 view .LVU512
 1282 0176 ADF80620 		strh	r2, [sp, #6]	@ movhi
 402:Drivers/lvgl/src/draw/sw/lv_draw_sw_arc.c ****             quarter_area.y1 = q->center->y + ((lv_trigo_sin(q->end_angle) * (q->radius)) >> LV_TRIG
 1283              		.loc 1 402 13 is_stmt 1 view .LVU513
 402:Drivers/lvgl/src/draw/sw/lv_draw_sw_arc.c ****             quarter_area.y1 = q->center->y + ((lv_trigo_sin(q->end_angle) * (q->radius)) >> LV_TRIG
 1284              		.loc 1 402 40 is_stmt 0 view .LVU514
 1285 017a 1E88     		ldrh	r6, [r3]
 402:Drivers/lvgl/src/draw/sw/lv_draw_sw_arc.c ****             quarter_area.y1 = q->center->y + ((lv_trigo_sin(q->end_angle) * (q->radius)) >> LV_TRIG
 1286              		.loc 1 402 62 view .LVU515
 1287 017c 2089     		ldrh	r0, [r4, #8]
 402:Drivers/lvgl/src/draw/sw/lv_draw_sw_arc.c ****             quarter_area.y1 = q->center->y + ((lv_trigo_sin(q->end_angle) * (q->radius)) >> LV_TRIG
 1288              		.loc 1 402 74 view .LVU516
 1289 017e 5A30     		adds	r0, r0, #90
 402:Drivers/lvgl/src/draw/sw/lv_draw_sw_arc.c ****             quarter_area.y1 = q->center->y + ((lv_trigo_sin(q->end_angle) * (q->radius)) >> LV_TRIG
 1290              		.loc 1 402 48 view .LVU517
 1291 0180 00B2     		sxth	r0, r0
 1292 0182 FFF7FEFF 		bl	lv_trigo_sin
 1293              	.LVL77:
 402:Drivers/lvgl/src/draw/sw/lv_draw_sw_arc.c ****             quarter_area.y1 = q->center->y + ((lv_trigo_sin(q->end_angle) * (q->radius)) >> LV_TRIG
 1294              		.loc 1 402 84 discriminator 1 view .LVU518
 1295 0186 B4F90430 		ldrsh	r3, [r4, #4]
 402:Drivers/lvgl/src/draw/sw/lv_draw_sw_arc.c ****             quarter_area.y1 = q->center->y + ((lv_trigo_sin(q->end_angle) * (q->radius)) >> LV_TRIG
 1296              		.loc 1 402 96 discriminator 1 view .LVU519
 1297 018a B4F90E20 		ldrsh	r2, [r4, #14]
 402:Drivers/lvgl/src/draw/sw/lv_draw_sw_arc.c ****             quarter_area.y1 = q->center->y + ((lv_trigo_sin(q->end_angle) * (q->radius)) >> LV_TRIG
ARM GAS  /var/folders/lp/x54gwt890xv47sdkqj1k04q40000gn/T//cc8BXUdH.s 			page 39


 1298              		.loc 1 402 93 discriminator 1 view .LVU520
 1299 018e 9B1A     		subs	r3, r3, r2
 402:Drivers/lvgl/src/draw/sw/lv_draw_sw_arc.c ****             quarter_area.y1 = q->center->y + ((lv_trigo_sin(q->end_angle) * (q->radius)) >> LV_TRIG
 1300              		.loc 1 402 80 discriminator 1 view .LVU521
 1301 0190 03FB00F0 		mul	r0, r3, r0
 402:Drivers/lvgl/src/draw/sw/lv_draw_sw_arc.c ****             quarter_area.y1 = q->center->y + ((lv_trigo_sin(q->end_angle) * (q->radius)) >> LV_TRIG
 1302              		.loc 1 402 44 discriminator 1 view .LVU522
 1303 0194 06EBE036 		add	r6, r6, r0, asr #15
 402:Drivers/lvgl/src/draw/sw/lv_draw_sw_arc.c ****             quarter_area.y1 = q->center->y + ((lv_trigo_sin(q->end_angle) * (q->radius)) >> LV_TRIG
 1304              		.loc 1 402 29 discriminator 1 view .LVU523
 1305 0198 ADF80460 		strh	r6, [sp, #4]	@ movhi
 403:Drivers/lvgl/src/draw/sw/lv_draw_sw_arc.c **** 
 1306              		.loc 1 403 13 is_stmt 1 view .LVU524
 403:Drivers/lvgl/src/draw/sw/lv_draw_sw_arc.c **** 
 1307              		.loc 1 403 32 is_stmt 0 view .LVU525
 1308 019c 2368     		ldr	r3, [r4]
 403:Drivers/lvgl/src/draw/sw/lv_draw_sw_arc.c **** 
 1309              		.loc 1 403 40 view .LVU526
 1310 019e 5E88     		ldrh	r6, [r3, #2]
 403:Drivers/lvgl/src/draw/sw/lv_draw_sw_arc.c **** 
 1311              		.loc 1 403 48 view .LVU527
 1312 01a0 B4F90800 		ldrsh	r0, [r4, #8]
 1313 01a4 FFF7FEFF 		bl	lv_trigo_sin
 1314              	.LVL78:
 403:Drivers/lvgl/src/draw/sw/lv_draw_sw_arc.c **** 
 1315              		.loc 1 403 79 discriminator 1 view .LVU528
 1316 01a8 B4F90430 		ldrsh	r3, [r4, #4]
 403:Drivers/lvgl/src/draw/sw/lv_draw_sw_arc.c **** 
 1317              		.loc 1 403 75 discriminator 1 view .LVU529
 1318 01ac 03FB00F0 		mul	r0, r3, r0
 403:Drivers/lvgl/src/draw/sw/lv_draw_sw_arc.c **** 
 1319              		.loc 1 403 44 discriminator 1 view .LVU530
 1320 01b0 06EBE036 		add	r6, r6, r0, asr #15
 403:Drivers/lvgl/src/draw/sw/lv_draw_sw_arc.c **** 
 1321              		.loc 1 403 29 discriminator 1 view .LVU531
 1322 01b4 ADF80260 		strh	r6, [sp, #2]	@ movhi
 405:Drivers/lvgl/src/draw/sw/lv_draw_sw_arc.c ****             if(ok) {
 1323              		.loc 1 405 13 is_stmt 1 view .LVU532
 405:Drivers/lvgl/src/draw/sw/lv_draw_sw_arc.c ****             if(ok) {
 1324              		.loc 1 405 23 is_stmt 0 view .LVU533
 1325 01b8 2A46     		mov	r2, r5
 1326 01ba 6946     		mov	r1, sp
 1327 01bc 6846     		mov	r0, sp
 1328 01be FFF7FEFF 		bl	_lv_area_intersect
 1329              	.LVL79:
 406:Drivers/lvgl/src/draw/sw/lv_draw_sw_arc.c ****                 q->draw_ctx->clip_area = &quarter_area;
 1330              		.loc 1 406 13 is_stmt 1 view .LVU534
 406:Drivers/lvgl/src/draw/sw/lv_draw_sw_arc.c ****                 q->draw_ctx->clip_area = &quarter_area;
 1331              		.loc 1 406 15 is_stmt 0 view .LVU535
 1332 01c2 0028     		cmp	r0, #0
 1333 01c4 92D0     		beq	.L35
 407:Drivers/lvgl/src/draw/sw/lv_draw_sw_arc.c ****                 lv_draw_rect(q->draw_ctx, q->draw_dsc, q->draw_area);
 1334              		.loc 1 407 17 is_stmt 1 view .LVU536
 407:Drivers/lvgl/src/draw/sw/lv_draw_sw_arc.c ****                 lv_draw_rect(q->draw_ctx, q->draw_dsc, q->draw_area);
 1335              		.loc 1 407 18 is_stmt 0 view .LVU537
 1336 01c6 A369     		ldr	r3, [r4, #24]
 407:Drivers/lvgl/src/draw/sw/lv_draw_sw_arc.c ****                 lv_draw_rect(q->draw_ctx, q->draw_dsc, q->draw_area);
ARM GAS  /var/folders/lp/x54gwt890xv47sdkqj1k04q40000gn/T//cc8BXUdH.s 			page 40


 1337              		.loc 1 407 40 view .LVU538
 1338 01c8 C3F808D0 		str	sp, [r3, #8]
 408:Drivers/lvgl/src/draw/sw/lv_draw_sw_arc.c ****             }
 1339              		.loc 1 408 17 is_stmt 1 view .LVU539
 1340 01cc 6269     		ldr	r2, [r4, #20]
 1341 01ce 2169     		ldr	r1, [r4, #16]
 1342 01d0 A069     		ldr	r0, [r4, #24]
 1343              	.LVL80:
 408:Drivers/lvgl/src/draw/sw/lv_draw_sw_arc.c ****             }
 1344              		.loc 1 408 17 is_stmt 0 view .LVU540
 1345 01d2 FFF7FEFF 		bl	lv_draw_rect
 1346              	.LVL81:
 1347 01d6 89E7     		b	.L35
 1348              	.LVL82:
 1349              	.L45:
 408:Drivers/lvgl/src/draw/sw/lv_draw_sw_arc.c ****             }
 1350              		.loc 1 408 17 view .LVU541
 1351              	.LBE22:
 412:Drivers/lvgl/src/draw/sw/lv_draw_sw_arc.c ****             (q->start_quarter == 0 && q->end_quarter == 3) ||
 1352              		.loc 1 412 78 discriminator 3 view .LVU542
 1353 01d8 2089     		ldrh	r0, [r4, #8]
 412:Drivers/lvgl/src/draw/sw/lv_draw_sw_arc.c ****             (q->start_quarter == 0 && q->end_quarter == 3) ||
 1354              		.loc 1 412 93 discriminator 3 view .LVU543
 1355 01da E188     		ldrh	r1, [r4, #6]
 412:Drivers/lvgl/src/draw/sw/lv_draw_sw_arc.c ****             (q->start_quarter == 0 && q->end_quarter == 3) ||
 1356              		.loc 1 412 74 discriminator 3 view .LVU544
 1357 01dc 8842     		cmp	r0, r1
 1358 01de BFF41FAF 		bcs	.L39
 1359              	.L40:
 1360              	.LBB23:
 417:Drivers/lvgl/src/draw/sw/lv_draw_sw_arc.c ****         quarter_area.y1 = q->center->y - q->radius;
 1361              		.loc 1 417 9 is_stmt 1 view .LVU545
 417:Drivers/lvgl/src/draw/sw/lv_draw_sw_arc.c ****         quarter_area.y1 = q->center->y - q->radius;
 1362              		.loc 1 417 28 is_stmt 0 view .LVU546
 1363 01e2 2368     		ldr	r3, [r4]
 417:Drivers/lvgl/src/draw/sw/lv_draw_sw_arc.c ****         quarter_area.y1 = q->center->y - q->radius;
 1364              		.loc 1 417 36 view .LVU547
 1365 01e4 1A88     		ldrh	r2, [r3]
 417:Drivers/lvgl/src/draw/sw/lv_draw_sw_arc.c ****         quarter_area.y1 = q->center->y - q->radius;
 1366              		.loc 1 417 43 view .LVU548
 1367 01e6 A188     		ldrh	r1, [r4, #4]
 417:Drivers/lvgl/src/draw/sw/lv_draw_sw_arc.c ****         quarter_area.y1 = q->center->y - q->radius;
 1368              		.loc 1 417 40 view .LVU549
 1369 01e8 521A     		subs	r2, r2, r1
 417:Drivers/lvgl/src/draw/sw/lv_draw_sw_arc.c ****         quarter_area.y1 = q->center->y - q->radius;
 1370              		.loc 1 417 25 view .LVU550
 1371 01ea ADF80020 		strh	r2, [sp]	@ movhi
 418:Drivers/lvgl/src/draw/sw/lv_draw_sw_arc.c ****         quarter_area.x2 = q->center->x - 1;
 1372              		.loc 1 418 9 is_stmt 1 view .LVU551
 418:Drivers/lvgl/src/draw/sw/lv_draw_sw_arc.c ****         quarter_area.x2 = q->center->x - 1;
 1373              		.loc 1 418 36 is_stmt 0 view .LVU552
 1374 01ee 5A88     		ldrh	r2, [r3, #2]
 418:Drivers/lvgl/src/draw/sw/lv_draw_sw_arc.c ****         quarter_area.x2 = q->center->x - 1;
 1375              		.loc 1 418 40 view .LVU553
 1376 01f0 521A     		subs	r2, r2, r1
 418:Drivers/lvgl/src/draw/sw/lv_draw_sw_arc.c ****         quarter_area.x2 = q->center->x - 1;
 1377              		.loc 1 418 25 view .LVU554
ARM GAS  /var/folders/lp/x54gwt890xv47sdkqj1k04q40000gn/T//cc8BXUdH.s 			page 41


 1378 01f2 ADF80220 		strh	r2, [sp, #2]	@ movhi
 419:Drivers/lvgl/src/draw/sw/lv_draw_sw_arc.c ****         quarter_area.y2 = q->center->y - 1;
 1379              		.loc 1 419 9 is_stmt 1 view .LVU555
 419:Drivers/lvgl/src/draw/sw/lv_draw_sw_arc.c ****         quarter_area.y2 = q->center->y - 1;
 1380              		.loc 1 419 36 is_stmt 0 view .LVU556
 1381 01f6 1A88     		ldrh	r2, [r3]
 419:Drivers/lvgl/src/draw/sw/lv_draw_sw_arc.c ****         quarter_area.y2 = q->center->y - 1;
 1382              		.loc 1 419 40 view .LVU557
 1383 01f8 013A     		subs	r2, r2, #1
 419:Drivers/lvgl/src/draw/sw/lv_draw_sw_arc.c ****         quarter_area.y2 = q->center->y - 1;
 1384              		.loc 1 419 25 view .LVU558
 1385 01fa ADF80420 		strh	r2, [sp, #4]	@ movhi
 420:Drivers/lvgl/src/draw/sw/lv_draw_sw_arc.c **** 
 1386              		.loc 1 420 9 is_stmt 1 view .LVU559
 420:Drivers/lvgl/src/draw/sw/lv_draw_sw_arc.c **** 
 1387              		.loc 1 420 36 is_stmt 0 view .LVU560
 1388 01fe 5B88     		ldrh	r3, [r3, #2]
 420:Drivers/lvgl/src/draw/sw/lv_draw_sw_arc.c **** 
 1389              		.loc 1 420 40 view .LVU561
 1390 0200 013B     		subs	r3, r3, #1
 420:Drivers/lvgl/src/draw/sw/lv_draw_sw_arc.c **** 
 1391              		.loc 1 420 25 view .LVU562
 1392 0202 ADF80630 		strh	r3, [sp, #6]	@ movhi
 422:Drivers/lvgl/src/draw/sw/lv_draw_sw_arc.c ****         if(ok) {
 1393              		.loc 1 422 9 is_stmt 1 view .LVU563
 422:Drivers/lvgl/src/draw/sw/lv_draw_sw_arc.c ****         if(ok) {
 1394              		.loc 1 422 19 is_stmt 0 view .LVU564
 1395 0206 2A46     		mov	r2, r5
 1396 0208 6946     		mov	r1, sp
 1397 020a 6846     		mov	r0, sp
 1398 020c FFF7FEFF 		bl	_lv_area_intersect
 1399              	.LVL83:
 423:Drivers/lvgl/src/draw/sw/lv_draw_sw_arc.c ****             q->draw_ctx->clip_area = &quarter_area;
 1400              		.loc 1 423 9 is_stmt 1 view .LVU565
 423:Drivers/lvgl/src/draw/sw/lv_draw_sw_arc.c ****             q->draw_ctx->clip_area = &quarter_area;
 1401              		.loc 1 423 11 is_stmt 0 view .LVU566
 1402 0210 0028     		cmp	r0, #0
 1403 0212 3FF46BAF 		beq	.L35
 424:Drivers/lvgl/src/draw/sw/lv_draw_sw_arc.c ****             lv_draw_rect(q->draw_ctx, q->draw_dsc, q->draw_area);
 1404              		.loc 1 424 13 is_stmt 1 view .LVU567
 424:Drivers/lvgl/src/draw/sw/lv_draw_sw_arc.c ****             lv_draw_rect(q->draw_ctx, q->draw_dsc, q->draw_area);
 1405              		.loc 1 424 14 is_stmt 0 view .LVU568
 1406 0216 A369     		ldr	r3, [r4, #24]
 424:Drivers/lvgl/src/draw/sw/lv_draw_sw_arc.c ****             lv_draw_rect(q->draw_ctx, q->draw_dsc, q->draw_area);
 1407              		.loc 1 424 36 view .LVU569
 1408 0218 C3F808D0 		str	sp, [r3, #8]
 425:Drivers/lvgl/src/draw/sw/lv_draw_sw_arc.c ****         }
 1409              		.loc 1 425 13 is_stmt 1 view .LVU570
 1410 021c 6269     		ldr	r2, [r4, #20]
 1411 021e 2169     		ldr	r1, [r4, #16]
 1412 0220 A069     		ldr	r0, [r4, #24]
 1413              	.LVL84:
 425:Drivers/lvgl/src/draw/sw/lv_draw_sw_arc.c ****         }
 1414              		.loc 1 425 13 is_stmt 0 view .LVU571
 1415 0222 FFF7FEFF 		bl	lv_draw_rect
 1416              	.LVL85:
 1417 0226 61E7     		b	.L35
ARM GAS  /var/folders/lp/x54gwt890xv47sdkqj1k04q40000gn/T//cc8BXUdH.s 			page 42


 1418              	.LVL86:
 1419              	.L46:
 425:Drivers/lvgl/src/draw/sw/lv_draw_sw_arc.c ****         }
 1420              		.loc 1 425 13 view .LVU572
 1421              	.LBE23:
 414:Drivers/lvgl/src/draw/sw/lv_draw_sw_arc.c ****             (q->start_quarter == 1 && q->end_quarter == 0)) {
 1422              		.loc 1 414 36 view .LVU573
 1423 0228 032A     		cmp	r2, #3
 1424 022a 7FF400AF 		bne	.L42
 1425 022e D8E7     		b	.L40
 1426              		.cfi_endproc
 1427              	.LFE59:
 1429              		.section	.text.draw_quarter_3,"ax",%progbits
 1430              		.align	1
 1431              		.syntax unified
 1432              		.thumb
 1433              		.thumb_func
 1435              	draw_quarter_3:
 1436              	.LVL87:
 1437              	.LFB60:
 430:Drivers/lvgl/src/draw/sw/lv_draw_sw_arc.c **** 
 431:Drivers/lvgl/src/draw/sw/lv_draw_sw_arc.c **** static void draw_quarter_3(quarter_draw_dsc_t * q)
 432:Drivers/lvgl/src/draw/sw/lv_draw_sw_arc.c **** {
 1438              		.loc 1 432 1 is_stmt 1 view -0
 1439              		.cfi_startproc
 1440              		@ args = 0, pretend = 0, frame = 8
 1441              		@ frame_needed = 0, uses_anonymous_args = 0
 1442              		.loc 1 432 1 is_stmt 0 view .LVU575
 1443 0000 70B5     		push	{r4, r5, r6, lr}
 1444              		.cfi_def_cfa_offset 16
 1445              		.cfi_offset 4, -16
 1446              		.cfi_offset 5, -12
 1447              		.cfi_offset 6, -8
 1448              		.cfi_offset 14, -4
 1449 0002 82B0     		sub	sp, sp, #8
 1450              		.cfi_def_cfa_offset 24
 1451 0004 0446     		mov	r4, r0
 433:Drivers/lvgl/src/draw/sw/lv_draw_sw_arc.c ****     const lv_area_t * clip_area_ori = q->draw_ctx->clip_area;
 1452              		.loc 1 433 5 is_stmt 1 view .LVU576
 1453              		.loc 1 433 40 is_stmt 0 view .LVU577
 1454 0006 8369     		ldr	r3, [r0, #24]
 1455              		.loc 1 433 23 view .LVU578
 1456 0008 9D68     		ldr	r5, [r3, #8]
 1457              	.LVL88:
 434:Drivers/lvgl/src/draw/sw/lv_draw_sw_arc.c ****     lv_area_t quarter_area;
 1458              		.loc 1 434 5 is_stmt 1 view .LVU579
 435:Drivers/lvgl/src/draw/sw/lv_draw_sw_arc.c **** 
 436:Drivers/lvgl/src/draw/sw/lv_draw_sw_arc.c ****     if(q->start_quarter == 3 && q->end_quarter == 3 && q->start_angle < q->end_angle) {
 1459              		.loc 1 436 5 view .LVU580
 1460              		.loc 1 436 9 is_stmt 0 view .LVU581
 1461 000a 4389     		ldrh	r3, [r0, #10]
 1462              		.loc 1 436 7 view .LVU582
 1463 000c 032B     		cmp	r3, #3
 1464 000e 12D0     		beq	.L60
 1465              	.LVL89:
 1466              	.L50:
 437:Drivers/lvgl/src/draw/sw/lv_draw_sw_arc.c ****         /*Small arc here*/
ARM GAS  /var/folders/lp/x54gwt890xv47sdkqj1k04q40000gn/T//cc8BXUdH.s 			page 43


 438:Drivers/lvgl/src/draw/sw/lv_draw_sw_arc.c ****         quarter_area.x1 = q->center->x + ((lv_trigo_sin(q->start_angle + 90) * (q->radius - q->widt
 439:Drivers/lvgl/src/draw/sw/lv_draw_sw_arc.c ****         quarter_area.y1 = q->center->y + ((lv_trigo_sin(q->start_angle) * (q->radius)) >> LV_TRIGO_
 440:Drivers/lvgl/src/draw/sw/lv_draw_sw_arc.c **** 
 441:Drivers/lvgl/src/draw/sw/lv_draw_sw_arc.c ****         quarter_area.x2 = q->center->x + ((lv_trigo_sin(q->end_angle + 90) * (q->radius)) >> LV_TRI
 442:Drivers/lvgl/src/draw/sw/lv_draw_sw_arc.c ****         quarter_area.y2 = q->center->y + ((lv_trigo_sin(q->end_angle) * (q->radius - q->width)) >> 
 443:Drivers/lvgl/src/draw/sw/lv_draw_sw_arc.c **** 
 444:Drivers/lvgl/src/draw/sw/lv_draw_sw_arc.c ****         bool ok = _lv_area_intersect(&quarter_area, &quarter_area, clip_area_ori);
 445:Drivers/lvgl/src/draw/sw/lv_draw_sw_arc.c ****         if(ok) {
 446:Drivers/lvgl/src/draw/sw/lv_draw_sw_arc.c ****             q->draw_ctx->clip_area = &quarter_area;
 447:Drivers/lvgl/src/draw/sw/lv_draw_sw_arc.c ****             lv_draw_rect(q->draw_ctx, q->draw_dsc, q->draw_area);
 448:Drivers/lvgl/src/draw/sw/lv_draw_sw_arc.c ****         }
 449:Drivers/lvgl/src/draw/sw/lv_draw_sw_arc.c ****     }
 450:Drivers/lvgl/src/draw/sw/lv_draw_sw_arc.c ****     else if(q->start_quarter == 3 || q->end_quarter == 3) {
 1467              		.loc 1 450 10 is_stmt 1 view .LVU583
 1468              		.loc 1 450 12 is_stmt 0 view .LVU584
 1469 0010 032B     		cmp	r3, #3
 1470 0012 65D0     		beq	.L52
 1471              		.loc 1 450 39 discriminator 1 view .LVU585
 1472 0014 A289     		ldrh	r2, [r4, #12]
 1473              		.loc 1 450 35 discriminator 1 view .LVU586
 1474 0016 032A     		cmp	r2, #3
 1475 0018 62D0     		beq	.L52
 451:Drivers/lvgl/src/draw/sw/lv_draw_sw_arc.c ****         /*Start and/or end arcs here*/
 452:Drivers/lvgl/src/draw/sw/lv_draw_sw_arc.c ****         if(q->start_quarter == 3) {
 453:Drivers/lvgl/src/draw/sw/lv_draw_sw_arc.c ****             quarter_area.x2 = q->center->x + q->radius;
 454:Drivers/lvgl/src/draw/sw/lv_draw_sw_arc.c ****             quarter_area.y2 = q->center->y - 1;
 455:Drivers/lvgl/src/draw/sw/lv_draw_sw_arc.c **** 
 456:Drivers/lvgl/src/draw/sw/lv_draw_sw_arc.c ****             quarter_area.x1 = q->center->x + ((lv_trigo_sin(q->start_angle + 90) * (q->radius - q->
 457:Drivers/lvgl/src/draw/sw/lv_draw_sw_arc.c ****             quarter_area.y1 = q->center->y + ((lv_trigo_sin(q->start_angle) * (q->radius)) >> LV_TR
 458:Drivers/lvgl/src/draw/sw/lv_draw_sw_arc.c **** 
 459:Drivers/lvgl/src/draw/sw/lv_draw_sw_arc.c ****             bool ok = _lv_area_intersect(&quarter_area, &quarter_area, clip_area_ori);
 460:Drivers/lvgl/src/draw/sw/lv_draw_sw_arc.c ****             if(ok) {
 461:Drivers/lvgl/src/draw/sw/lv_draw_sw_arc.c ****                 q->draw_ctx->clip_area = &quarter_area;
 462:Drivers/lvgl/src/draw/sw/lv_draw_sw_arc.c ****                 lv_draw_rect(q->draw_ctx, q->draw_dsc, q->draw_area);
 463:Drivers/lvgl/src/draw/sw/lv_draw_sw_arc.c ****             }
 464:Drivers/lvgl/src/draw/sw/lv_draw_sw_arc.c ****         }
 465:Drivers/lvgl/src/draw/sw/lv_draw_sw_arc.c ****         if(q->end_quarter == 3) {
 466:Drivers/lvgl/src/draw/sw/lv_draw_sw_arc.c ****             quarter_area.x1 = q->center->x;
 467:Drivers/lvgl/src/draw/sw/lv_draw_sw_arc.c ****             quarter_area.y1 = q->center->y - q->radius;
 468:Drivers/lvgl/src/draw/sw/lv_draw_sw_arc.c **** 
 469:Drivers/lvgl/src/draw/sw/lv_draw_sw_arc.c ****             quarter_area.x2 = q->center->x + ((lv_trigo_sin(q->end_angle + 90) * (q->radius)) >> LV
 470:Drivers/lvgl/src/draw/sw/lv_draw_sw_arc.c ****             quarter_area.y2 = q->center->y + ((lv_trigo_sin(q->end_angle) * (q->radius - q->width))
 471:Drivers/lvgl/src/draw/sw/lv_draw_sw_arc.c **** 
 472:Drivers/lvgl/src/draw/sw/lv_draw_sw_arc.c ****             bool ok = _lv_area_intersect(&quarter_area, &quarter_area, clip_area_ori);
 473:Drivers/lvgl/src/draw/sw/lv_draw_sw_arc.c ****             if(ok) {
 474:Drivers/lvgl/src/draw/sw/lv_draw_sw_arc.c ****                 q->draw_ctx->clip_area = &quarter_area;
 475:Drivers/lvgl/src/draw/sw/lv_draw_sw_arc.c ****                 lv_draw_rect(q->draw_ctx, q->draw_dsc, q->draw_area);
 476:Drivers/lvgl/src/draw/sw/lv_draw_sw_arc.c ****             }
 477:Drivers/lvgl/src/draw/sw/lv_draw_sw_arc.c ****         }
 478:Drivers/lvgl/src/draw/sw/lv_draw_sw_arc.c ****     }
 479:Drivers/lvgl/src/draw/sw/lv_draw_sw_arc.c ****     else if((q->start_quarter == q->end_quarter && q->start_quarter != 3 && q->end_angle < q->start
 1476              		.loc 1 479 10 is_stmt 1 view .LVU587
 1477              		.loc 1 479 12 is_stmt 0 view .LVU588
 1478 001a 9342     		cmp	r3, r2
 1479 001c 00F0DB80 		beq	.L61
 1480              	.L55:
 1481              		.loc 1 479 108 discriminator 5 view .LVU589
ARM GAS  /var/folders/lp/x54gwt890xv47sdkqj1k04q40000gn/T//cc8BXUdH.s 			page 44


 1482 0020 022B     		cmp	r3, #2
 1483 0022 00F00081 		beq	.L62
 1484              	.L57:
 480:Drivers/lvgl/src/draw/sw/lv_draw_sw_arc.c ****             (q->start_quarter == 2 && q->end_quarter == 0) ||
 1485              		.loc 1 480 60 discriminator 1 view .LVU590
 1486 0026 012B     		cmp	r3, #1
 1487 0028 00F00081 		beq	.L63
 1488              	.L58:
 481:Drivers/lvgl/src/draw/sw/lv_draw_sw_arc.c ****             (q->start_quarter == 1 && q->end_quarter == 0) ||
 1489              		.loc 1 481 60 discriminator 1 view .LVU591
 1490 002c 022B     		cmp	r3, #2
 1491 002e 5CD1     		bne	.L51
 482:Drivers/lvgl/src/draw/sw/lv_draw_sw_arc.c ****             (q->start_quarter == 2 && q->end_quarter == 1)) {
 1492              		.loc 1 482 36 view .LVU592
 1493 0030 012A     		cmp	r2, #1
 1494 0032 5AD1     		bne	.L51
 1495 0034 D4E0     		b	.L56
 1496              	.LVL90:
 1497              	.L60:
 436:Drivers/lvgl/src/draw/sw/lv_draw_sw_arc.c ****         /*Small arc here*/
 1498              		.loc 1 436 34 discriminator 1 view .LVU593
 1499 0036 8289     		ldrh	r2, [r0, #12]
 436:Drivers/lvgl/src/draw/sw/lv_draw_sw_arc.c ****         /*Small arc here*/
 1500              		.loc 1 436 30 discriminator 1 view .LVU594
 1501 0038 032A     		cmp	r2, #3
 1502 003a E9D1     		bne	.L50
 436:Drivers/lvgl/src/draw/sw/lv_draw_sw_arc.c ****         /*Small arc here*/
 1503              		.loc 1 436 57 discriminator 2 view .LVU595
 1504 003c C088     		ldrh	r0, [r0, #6]
 1505              	.LVL91:
 436:Drivers/lvgl/src/draw/sw/lv_draw_sw_arc.c ****         /*Small arc here*/
 1506              		.loc 1 436 74 discriminator 2 view .LVU596
 1507 003e 2289     		ldrh	r2, [r4, #8]
 436:Drivers/lvgl/src/draw/sw/lv_draw_sw_arc.c ****         /*Small arc here*/
 1508              		.loc 1 436 53 discriminator 2 view .LVU597
 1509 0040 9042     		cmp	r0, r2
 1510 0042 E5D2     		bcs	.L50
 1511              	.LBB24:
 438:Drivers/lvgl/src/draw/sw/lv_draw_sw_arc.c ****         quarter_area.y1 = q->center->y + ((lv_trigo_sin(q->start_angle) * (q->radius)) >> LV_TRIGO_
 1512              		.loc 1 438 9 is_stmt 1 view .LVU598
 438:Drivers/lvgl/src/draw/sw/lv_draw_sw_arc.c ****         quarter_area.y1 = q->center->y + ((lv_trigo_sin(q->start_angle) * (q->radius)) >> LV_TRIGO_
 1513              		.loc 1 438 28 is_stmt 0 view .LVU599
 1514 0044 2368     		ldr	r3, [r4]
 438:Drivers/lvgl/src/draw/sw/lv_draw_sw_arc.c ****         quarter_area.y1 = q->center->y + ((lv_trigo_sin(q->start_angle) * (q->radius)) >> LV_TRIGO_
 1515              		.loc 1 438 36 view .LVU600
 1516 0046 1E88     		ldrh	r6, [r3]
 438:Drivers/lvgl/src/draw/sw/lv_draw_sw_arc.c ****         quarter_area.y1 = q->center->y + ((lv_trigo_sin(q->start_angle) * (q->radius)) >> LV_TRIGO_
 1517              		.loc 1 438 72 view .LVU601
 1518 0048 5A30     		adds	r0, r0, #90
 438:Drivers/lvgl/src/draw/sw/lv_draw_sw_arc.c ****         quarter_area.y1 = q->center->y + ((lv_trigo_sin(q->start_angle) * (q->radius)) >> LV_TRIGO_
 1519              		.loc 1 438 44 view .LVU602
 1520 004a 00B2     		sxth	r0, r0
 1521 004c FFF7FEFF 		bl	lv_trigo_sin
 1522              	.LVL92:
 438:Drivers/lvgl/src/draw/sw/lv_draw_sw_arc.c ****         quarter_area.y1 = q->center->y + ((lv_trigo_sin(q->start_angle) * (q->radius)) >> LV_TRIGO_
 1523              		.loc 1 438 82 discriminator 1 view .LVU603
 1524 0050 B4F90430 		ldrsh	r3, [r4, #4]
ARM GAS  /var/folders/lp/x54gwt890xv47sdkqj1k04q40000gn/T//cc8BXUdH.s 			page 45


 438:Drivers/lvgl/src/draw/sw/lv_draw_sw_arc.c ****         quarter_area.y1 = q->center->y + ((lv_trigo_sin(q->start_angle) * (q->radius)) >> LV_TRIGO_
 1525              		.loc 1 438 94 discriminator 1 view .LVU604
 1526 0054 B4F90E20 		ldrsh	r2, [r4, #14]
 438:Drivers/lvgl/src/draw/sw/lv_draw_sw_arc.c ****         quarter_area.y1 = q->center->y + ((lv_trigo_sin(q->start_angle) * (q->radius)) >> LV_TRIGO_
 1527              		.loc 1 438 91 discriminator 1 view .LVU605
 1528 0058 9B1A     		subs	r3, r3, r2
 438:Drivers/lvgl/src/draw/sw/lv_draw_sw_arc.c ****         quarter_area.y1 = q->center->y + ((lv_trigo_sin(q->start_angle) * (q->radius)) >> LV_TRIGO_
 1529              		.loc 1 438 78 discriminator 1 view .LVU606
 1530 005a 03FB00F0 		mul	r0, r3, r0
 438:Drivers/lvgl/src/draw/sw/lv_draw_sw_arc.c ****         quarter_area.y1 = q->center->y + ((lv_trigo_sin(q->start_angle) * (q->radius)) >> LV_TRIGO_
 1531              		.loc 1 438 40 discriminator 1 view .LVU607
 1532 005e 06EBE036 		add	r6, r6, r0, asr #15
 438:Drivers/lvgl/src/draw/sw/lv_draw_sw_arc.c ****         quarter_area.y1 = q->center->y + ((lv_trigo_sin(q->start_angle) * (q->radius)) >> LV_TRIGO_
 1533              		.loc 1 438 25 discriminator 1 view .LVU608
 1534 0062 ADF80060 		strh	r6, [sp]	@ movhi
 439:Drivers/lvgl/src/draw/sw/lv_draw_sw_arc.c **** 
 1535              		.loc 1 439 9 is_stmt 1 view .LVU609
 439:Drivers/lvgl/src/draw/sw/lv_draw_sw_arc.c **** 
 1536              		.loc 1 439 28 is_stmt 0 view .LVU610
 1537 0066 2368     		ldr	r3, [r4]
 439:Drivers/lvgl/src/draw/sw/lv_draw_sw_arc.c **** 
 1538              		.loc 1 439 36 view .LVU611
 1539 0068 5E88     		ldrh	r6, [r3, #2]
 439:Drivers/lvgl/src/draw/sw/lv_draw_sw_arc.c **** 
 1540              		.loc 1 439 44 view .LVU612
 1541 006a B4F90600 		ldrsh	r0, [r4, #6]
 1542 006e FFF7FEFF 		bl	lv_trigo_sin
 1543              	.LVL93:
 439:Drivers/lvgl/src/draw/sw/lv_draw_sw_arc.c **** 
 1544              		.loc 1 439 77 discriminator 1 view .LVU613
 1545 0072 B4F90430 		ldrsh	r3, [r4, #4]
 439:Drivers/lvgl/src/draw/sw/lv_draw_sw_arc.c **** 
 1546              		.loc 1 439 73 discriminator 1 view .LVU614
 1547 0076 03FB00F0 		mul	r0, r3, r0
 439:Drivers/lvgl/src/draw/sw/lv_draw_sw_arc.c **** 
 1548              		.loc 1 439 40 discriminator 1 view .LVU615
 1549 007a 06EBE036 		add	r6, r6, r0, asr #15
 439:Drivers/lvgl/src/draw/sw/lv_draw_sw_arc.c **** 
 1550              		.loc 1 439 25 discriminator 1 view .LVU616
 1551 007e ADF80260 		strh	r6, [sp, #2]	@ movhi
 441:Drivers/lvgl/src/draw/sw/lv_draw_sw_arc.c ****         quarter_area.y2 = q->center->y + ((lv_trigo_sin(q->end_angle) * (q->radius - q->width)) >> 
 1552              		.loc 1 441 9 is_stmt 1 view .LVU617
 441:Drivers/lvgl/src/draw/sw/lv_draw_sw_arc.c ****         quarter_area.y2 = q->center->y + ((lv_trigo_sin(q->end_angle) * (q->radius - q->width)) >> 
 1553              		.loc 1 441 28 is_stmt 0 view .LVU618
 1554 0082 2368     		ldr	r3, [r4]
 441:Drivers/lvgl/src/draw/sw/lv_draw_sw_arc.c ****         quarter_area.y2 = q->center->y + ((lv_trigo_sin(q->end_angle) * (q->radius - q->width)) >> 
 1555              		.loc 1 441 36 view .LVU619
 1556 0084 1E88     		ldrh	r6, [r3]
 441:Drivers/lvgl/src/draw/sw/lv_draw_sw_arc.c ****         quarter_area.y2 = q->center->y + ((lv_trigo_sin(q->end_angle) * (q->radius - q->width)) >> 
 1557              		.loc 1 441 58 view .LVU620
 1558 0086 2089     		ldrh	r0, [r4, #8]
 441:Drivers/lvgl/src/draw/sw/lv_draw_sw_arc.c ****         quarter_area.y2 = q->center->y + ((lv_trigo_sin(q->end_angle) * (q->radius - q->width)) >> 
 1559              		.loc 1 441 70 view .LVU621
 1560 0088 5A30     		adds	r0, r0, #90
 441:Drivers/lvgl/src/draw/sw/lv_draw_sw_arc.c ****         quarter_area.y2 = q->center->y + ((lv_trigo_sin(q->end_angle) * (q->radius - q->width)) >> 
 1561              		.loc 1 441 44 view .LVU622
 1562 008a 00B2     		sxth	r0, r0
ARM GAS  /var/folders/lp/x54gwt890xv47sdkqj1k04q40000gn/T//cc8BXUdH.s 			page 46


 1563 008c FFF7FEFF 		bl	lv_trigo_sin
 1564              	.LVL94:
 441:Drivers/lvgl/src/draw/sw/lv_draw_sw_arc.c ****         quarter_area.y2 = q->center->y + ((lv_trigo_sin(q->end_angle) * (q->radius - q->width)) >> 
 1565              		.loc 1 441 80 discriminator 1 view .LVU623
 1566 0090 B4F90430 		ldrsh	r3, [r4, #4]
 441:Drivers/lvgl/src/draw/sw/lv_draw_sw_arc.c ****         quarter_area.y2 = q->center->y + ((lv_trigo_sin(q->end_angle) * (q->radius - q->width)) >> 
 1567              		.loc 1 441 76 discriminator 1 view .LVU624
 1568 0094 03FB00F0 		mul	r0, r3, r0
 441:Drivers/lvgl/src/draw/sw/lv_draw_sw_arc.c ****         quarter_area.y2 = q->center->y + ((lv_trigo_sin(q->end_angle) * (q->radius - q->width)) >> 
 1569              		.loc 1 441 40 discriminator 1 view .LVU625
 1570 0098 06EBE036 		add	r6, r6, r0, asr #15
 441:Drivers/lvgl/src/draw/sw/lv_draw_sw_arc.c ****         quarter_area.y2 = q->center->y + ((lv_trigo_sin(q->end_angle) * (q->radius - q->width)) >> 
 1571              		.loc 1 441 25 discriminator 1 view .LVU626
 1572 009c ADF80460 		strh	r6, [sp, #4]	@ movhi
 442:Drivers/lvgl/src/draw/sw/lv_draw_sw_arc.c **** 
 1573              		.loc 1 442 9 is_stmt 1 view .LVU627
 442:Drivers/lvgl/src/draw/sw/lv_draw_sw_arc.c **** 
 1574              		.loc 1 442 28 is_stmt 0 view .LVU628
 1575 00a0 2368     		ldr	r3, [r4]
 442:Drivers/lvgl/src/draw/sw/lv_draw_sw_arc.c **** 
 1576              		.loc 1 442 36 view .LVU629
 1577 00a2 5E88     		ldrh	r6, [r3, #2]
 442:Drivers/lvgl/src/draw/sw/lv_draw_sw_arc.c **** 
 1578              		.loc 1 442 44 view .LVU630
 1579 00a4 B4F90800 		ldrsh	r0, [r4, #8]
 1580 00a8 FFF7FEFF 		bl	lv_trigo_sin
 1581              	.LVL95:
 442:Drivers/lvgl/src/draw/sw/lv_draw_sw_arc.c **** 
 1582              		.loc 1 442 75 discriminator 1 view .LVU631
 1583 00ac B4F90430 		ldrsh	r3, [r4, #4]
 442:Drivers/lvgl/src/draw/sw/lv_draw_sw_arc.c **** 
 1584              		.loc 1 442 87 discriminator 1 view .LVU632
 1585 00b0 B4F90E20 		ldrsh	r2, [r4, #14]
 442:Drivers/lvgl/src/draw/sw/lv_draw_sw_arc.c **** 
 1586              		.loc 1 442 84 discriminator 1 view .LVU633
 1587 00b4 9B1A     		subs	r3, r3, r2
 442:Drivers/lvgl/src/draw/sw/lv_draw_sw_arc.c **** 
 1588              		.loc 1 442 71 discriminator 1 view .LVU634
 1589 00b6 03FB00F0 		mul	r0, r3, r0
 442:Drivers/lvgl/src/draw/sw/lv_draw_sw_arc.c **** 
 1590              		.loc 1 442 40 discriminator 1 view .LVU635
 1591 00ba 06EBE036 		add	r6, r6, r0, asr #15
 442:Drivers/lvgl/src/draw/sw/lv_draw_sw_arc.c **** 
 1592              		.loc 1 442 25 discriminator 1 view .LVU636
 1593 00be ADF80660 		strh	r6, [sp, #6]	@ movhi
 444:Drivers/lvgl/src/draw/sw/lv_draw_sw_arc.c ****         if(ok) {
 1594              		.loc 1 444 9 is_stmt 1 view .LVU637
 444:Drivers/lvgl/src/draw/sw/lv_draw_sw_arc.c ****         if(ok) {
 1595              		.loc 1 444 19 is_stmt 0 view .LVU638
 1596 00c2 2A46     		mov	r2, r5
 1597 00c4 6946     		mov	r1, sp
 1598 00c6 6846     		mov	r0, sp
 1599 00c8 FFF7FEFF 		bl	_lv_area_intersect
 1600              	.LVL96:
 445:Drivers/lvgl/src/draw/sw/lv_draw_sw_arc.c ****             q->draw_ctx->clip_area = &quarter_area;
 1601              		.loc 1 445 9 is_stmt 1 view .LVU639
 445:Drivers/lvgl/src/draw/sw/lv_draw_sw_arc.c ****             q->draw_ctx->clip_area = &quarter_area;
ARM GAS  /var/folders/lp/x54gwt890xv47sdkqj1k04q40000gn/T//cc8BXUdH.s 			page 47


 1602              		.loc 1 445 11 is_stmt 0 view .LVU640
 1603 00cc 68B1     		cbz	r0, .L51
 446:Drivers/lvgl/src/draw/sw/lv_draw_sw_arc.c ****             lv_draw_rect(q->draw_ctx, q->draw_dsc, q->draw_area);
 1604              		.loc 1 446 13 is_stmt 1 view .LVU641
 446:Drivers/lvgl/src/draw/sw/lv_draw_sw_arc.c ****             lv_draw_rect(q->draw_ctx, q->draw_dsc, q->draw_area);
 1605              		.loc 1 446 14 is_stmt 0 view .LVU642
 1606 00ce A369     		ldr	r3, [r4, #24]
 446:Drivers/lvgl/src/draw/sw/lv_draw_sw_arc.c ****             lv_draw_rect(q->draw_ctx, q->draw_dsc, q->draw_area);
 1607              		.loc 1 446 36 view .LVU643
 1608 00d0 C3F808D0 		str	sp, [r3, #8]
 447:Drivers/lvgl/src/draw/sw/lv_draw_sw_arc.c ****         }
 1609              		.loc 1 447 13 is_stmt 1 view .LVU644
 1610 00d4 6269     		ldr	r2, [r4, #20]
 1611 00d6 2169     		ldr	r1, [r4, #16]
 1612 00d8 A069     		ldr	r0, [r4, #24]
 1613              	.LVL97:
 447:Drivers/lvgl/src/draw/sw/lv_draw_sw_arc.c ****         }
 1614              		.loc 1 447 13 is_stmt 0 view .LVU645
 1615 00da FFF7FEFF 		bl	lv_draw_rect
 1616              	.LVL98:
 1617 00de 04E0     		b	.L51
 1618              	.LVL99:
 1619              	.L52:
 447:Drivers/lvgl/src/draw/sw/lv_draw_sw_arc.c ****         }
 1620              		.loc 1 447 13 view .LVU646
 1621              	.LBE24:
 452:Drivers/lvgl/src/draw/sw/lv_draw_sw_arc.c ****             quarter_area.x2 = q->center->x + q->radius;
 1622              		.loc 1 452 9 is_stmt 1 view .LVU647
 452:Drivers/lvgl/src/draw/sw/lv_draw_sw_arc.c ****             quarter_area.x2 = q->center->x + q->radius;
 1623              		.loc 1 452 11 is_stmt 0 view .LVU648
 1624 00e0 032B     		cmp	r3, #3
 1625 00e2 06D0     		beq	.L64
 1626              	.L54:
 465:Drivers/lvgl/src/draw/sw/lv_draw_sw_arc.c ****             quarter_area.x1 = q->center->x;
 1627              		.loc 1 465 9 is_stmt 1 view .LVU649
 465:Drivers/lvgl/src/draw/sw/lv_draw_sw_arc.c ****             quarter_area.x1 = q->center->x;
 1628              		.loc 1 465 13 is_stmt 0 view .LVU650
 1629 00e4 A389     		ldrh	r3, [r4, #12]
 465:Drivers/lvgl/src/draw/sw/lv_draw_sw_arc.c ****             quarter_area.x1 = q->center->x;
 1630              		.loc 1 465 11 view .LVU651
 1631 00e6 032B     		cmp	r3, #3
 1632 00e8 3CD0     		beq	.L65
 1633              	.L51:
 483:Drivers/lvgl/src/draw/sw/lv_draw_sw_arc.c ****         /*Arc crosses here*/
 484:Drivers/lvgl/src/draw/sw/lv_draw_sw_arc.c ****         quarter_area.x1 = q->center->x;
 485:Drivers/lvgl/src/draw/sw/lv_draw_sw_arc.c ****         quarter_area.y1 = q->center->y - q->radius;
 486:Drivers/lvgl/src/draw/sw/lv_draw_sw_arc.c ****         quarter_area.x2 = q->center->x + q->radius;
 487:Drivers/lvgl/src/draw/sw/lv_draw_sw_arc.c ****         quarter_area.y2 = q->center->y - 1;
 488:Drivers/lvgl/src/draw/sw/lv_draw_sw_arc.c **** 
 489:Drivers/lvgl/src/draw/sw/lv_draw_sw_arc.c ****         bool ok = _lv_area_intersect(&quarter_area, &quarter_area, clip_area_ori);
 490:Drivers/lvgl/src/draw/sw/lv_draw_sw_arc.c ****         if(ok) {
 491:Drivers/lvgl/src/draw/sw/lv_draw_sw_arc.c ****             q->draw_ctx->clip_area = &quarter_area;
 492:Drivers/lvgl/src/draw/sw/lv_draw_sw_arc.c ****             lv_draw_rect(q->draw_ctx, q->draw_dsc, q->draw_area);
 493:Drivers/lvgl/src/draw/sw/lv_draw_sw_arc.c ****         }
 494:Drivers/lvgl/src/draw/sw/lv_draw_sw_arc.c ****     }
 495:Drivers/lvgl/src/draw/sw/lv_draw_sw_arc.c **** 
 496:Drivers/lvgl/src/draw/sw/lv_draw_sw_arc.c ****     q->draw_ctx->clip_area = clip_area_ori;
ARM GAS  /var/folders/lp/x54gwt890xv47sdkqj1k04q40000gn/T//cc8BXUdH.s 			page 48


 1634              		.loc 1 496 5 is_stmt 1 view .LVU652
 1635              		.loc 1 496 6 is_stmt 0 view .LVU653
 1636 00ea A369     		ldr	r3, [r4, #24]
 1637              		.loc 1 496 28 view .LVU654
 1638 00ec 9D60     		str	r5, [r3, #8]
 497:Drivers/lvgl/src/draw/sw/lv_draw_sw_arc.c **** }
 1639              		.loc 1 497 1 view .LVU655
 1640 00ee 02B0     		add	sp, sp, #8
 1641              		.cfi_remember_state
 1642              		.cfi_def_cfa_offset 16
 1643              		@ sp needed
 1644 00f0 70BD     		pop	{r4, r5, r6, pc}
 1645              	.LVL100:
 1646              	.L64:
 1647              		.cfi_restore_state
 1648              	.LBB25:
 453:Drivers/lvgl/src/draw/sw/lv_draw_sw_arc.c ****             quarter_area.y2 = q->center->y - 1;
 1649              		.loc 1 453 13 is_stmt 1 view .LVU656
 453:Drivers/lvgl/src/draw/sw/lv_draw_sw_arc.c ****             quarter_area.y2 = q->center->y - 1;
 1650              		.loc 1 453 32 is_stmt 0 view .LVU657
 1651 00f2 2368     		ldr	r3, [r4]
 453:Drivers/lvgl/src/draw/sw/lv_draw_sw_arc.c ****             quarter_area.y2 = q->center->y - 1;
 1652              		.loc 1 453 40 view .LVU658
 1653 00f4 1A88     		ldrh	r2, [r3]
 453:Drivers/lvgl/src/draw/sw/lv_draw_sw_arc.c ****             quarter_area.y2 = q->center->y - 1;
 1654              		.loc 1 453 47 view .LVU659
 1655 00f6 A188     		ldrh	r1, [r4, #4]
 453:Drivers/lvgl/src/draw/sw/lv_draw_sw_arc.c ****             quarter_area.y2 = q->center->y - 1;
 1656              		.loc 1 453 44 view .LVU660
 1657 00f8 0A44     		add	r2, r2, r1
 453:Drivers/lvgl/src/draw/sw/lv_draw_sw_arc.c ****             quarter_area.y2 = q->center->y - 1;
 1658              		.loc 1 453 29 view .LVU661
 1659 00fa ADF80420 		strh	r2, [sp, #4]	@ movhi
 454:Drivers/lvgl/src/draw/sw/lv_draw_sw_arc.c **** 
 1660              		.loc 1 454 13 is_stmt 1 view .LVU662
 454:Drivers/lvgl/src/draw/sw/lv_draw_sw_arc.c **** 
 1661              		.loc 1 454 40 is_stmt 0 view .LVU663
 1662 00fe 5A88     		ldrh	r2, [r3, #2]
 454:Drivers/lvgl/src/draw/sw/lv_draw_sw_arc.c **** 
 1663              		.loc 1 454 44 view .LVU664
 1664 0100 013A     		subs	r2, r2, #1
 454:Drivers/lvgl/src/draw/sw/lv_draw_sw_arc.c **** 
 1665              		.loc 1 454 29 view .LVU665
 1666 0102 ADF80620 		strh	r2, [sp, #6]	@ movhi
 456:Drivers/lvgl/src/draw/sw/lv_draw_sw_arc.c ****             quarter_area.y1 = q->center->y + ((lv_trigo_sin(q->start_angle) * (q->radius)) >> LV_TR
 1667              		.loc 1 456 13 is_stmt 1 view .LVU666
 456:Drivers/lvgl/src/draw/sw/lv_draw_sw_arc.c ****             quarter_area.y1 = q->center->y + ((lv_trigo_sin(q->start_angle) * (q->radius)) >> LV_TR
 1668              		.loc 1 456 40 is_stmt 0 view .LVU667
 1669 0106 1E88     		ldrh	r6, [r3]
 456:Drivers/lvgl/src/draw/sw/lv_draw_sw_arc.c ****             quarter_area.y1 = q->center->y + ((lv_trigo_sin(q->start_angle) * (q->radius)) >> LV_TR
 1670              		.loc 1 456 62 view .LVU668
 1671 0108 E088     		ldrh	r0, [r4, #6]
 456:Drivers/lvgl/src/draw/sw/lv_draw_sw_arc.c ****             quarter_area.y1 = q->center->y + ((lv_trigo_sin(q->start_angle) * (q->radius)) >> LV_TR
 1672              		.loc 1 456 76 view .LVU669
 1673 010a 5A30     		adds	r0, r0, #90
 456:Drivers/lvgl/src/draw/sw/lv_draw_sw_arc.c ****             quarter_area.y1 = q->center->y + ((lv_trigo_sin(q->start_angle) * (q->radius)) >> LV_TR
 1674              		.loc 1 456 48 view .LVU670
ARM GAS  /var/folders/lp/x54gwt890xv47sdkqj1k04q40000gn/T//cc8BXUdH.s 			page 49


 1675 010c 00B2     		sxth	r0, r0
 1676 010e FFF7FEFF 		bl	lv_trigo_sin
 1677              	.LVL101:
 456:Drivers/lvgl/src/draw/sw/lv_draw_sw_arc.c ****             quarter_area.y1 = q->center->y + ((lv_trigo_sin(q->start_angle) * (q->radius)) >> LV_TR
 1678              		.loc 1 456 86 discriminator 1 view .LVU671
 1679 0112 B4F90430 		ldrsh	r3, [r4, #4]
 456:Drivers/lvgl/src/draw/sw/lv_draw_sw_arc.c ****             quarter_area.y1 = q->center->y + ((lv_trigo_sin(q->start_angle) * (q->radius)) >> LV_TR
 1680              		.loc 1 456 98 discriminator 1 view .LVU672
 1681 0116 B4F90E20 		ldrsh	r2, [r4, #14]
 456:Drivers/lvgl/src/draw/sw/lv_draw_sw_arc.c ****             quarter_area.y1 = q->center->y + ((lv_trigo_sin(q->start_angle) * (q->radius)) >> LV_TR
 1682              		.loc 1 456 95 discriminator 1 view .LVU673
 1683 011a 9B1A     		subs	r3, r3, r2
 456:Drivers/lvgl/src/draw/sw/lv_draw_sw_arc.c ****             quarter_area.y1 = q->center->y + ((lv_trigo_sin(q->start_angle) * (q->radius)) >> LV_TR
 1684              		.loc 1 456 82 discriminator 1 view .LVU674
 1685 011c 03FB00F0 		mul	r0, r3, r0
 456:Drivers/lvgl/src/draw/sw/lv_draw_sw_arc.c ****             quarter_area.y1 = q->center->y + ((lv_trigo_sin(q->start_angle) * (q->radius)) >> LV_TR
 1686              		.loc 1 456 44 discriminator 1 view .LVU675
 1687 0120 06EBE036 		add	r6, r6, r0, asr #15
 456:Drivers/lvgl/src/draw/sw/lv_draw_sw_arc.c ****             quarter_area.y1 = q->center->y + ((lv_trigo_sin(q->start_angle) * (q->radius)) >> LV_TR
 1688              		.loc 1 456 29 discriminator 1 view .LVU676
 1689 0124 ADF80060 		strh	r6, [sp]	@ movhi
 457:Drivers/lvgl/src/draw/sw/lv_draw_sw_arc.c **** 
 1690              		.loc 1 457 13 is_stmt 1 view .LVU677
 457:Drivers/lvgl/src/draw/sw/lv_draw_sw_arc.c **** 
 1691              		.loc 1 457 32 is_stmt 0 view .LVU678
 1692 0128 2368     		ldr	r3, [r4]
 457:Drivers/lvgl/src/draw/sw/lv_draw_sw_arc.c **** 
 1693              		.loc 1 457 40 view .LVU679
 1694 012a 5E88     		ldrh	r6, [r3, #2]
 457:Drivers/lvgl/src/draw/sw/lv_draw_sw_arc.c **** 
 1695              		.loc 1 457 48 view .LVU680
 1696 012c B4F90600 		ldrsh	r0, [r4, #6]
 1697 0130 FFF7FEFF 		bl	lv_trigo_sin
 1698              	.LVL102:
 457:Drivers/lvgl/src/draw/sw/lv_draw_sw_arc.c **** 
 1699              		.loc 1 457 81 discriminator 1 view .LVU681
 1700 0134 B4F90430 		ldrsh	r3, [r4, #4]
 457:Drivers/lvgl/src/draw/sw/lv_draw_sw_arc.c **** 
 1701              		.loc 1 457 77 discriminator 1 view .LVU682
 1702 0138 03FB00F0 		mul	r0, r3, r0
 457:Drivers/lvgl/src/draw/sw/lv_draw_sw_arc.c **** 
 1703              		.loc 1 457 44 discriminator 1 view .LVU683
 1704 013c 06EBE036 		add	r6, r6, r0, asr #15
 457:Drivers/lvgl/src/draw/sw/lv_draw_sw_arc.c **** 
 1705              		.loc 1 457 29 discriminator 1 view .LVU684
 1706 0140 ADF80260 		strh	r6, [sp, #2]	@ movhi
 459:Drivers/lvgl/src/draw/sw/lv_draw_sw_arc.c ****             if(ok) {
 1707              		.loc 1 459 13 is_stmt 1 view .LVU685
 459:Drivers/lvgl/src/draw/sw/lv_draw_sw_arc.c ****             if(ok) {
 1708              		.loc 1 459 23 is_stmt 0 view .LVU686
 1709 0144 2A46     		mov	r2, r5
 1710 0146 6946     		mov	r1, sp
 1711 0148 6846     		mov	r0, sp
 1712 014a FFF7FEFF 		bl	_lv_area_intersect
 1713              	.LVL103:
 460:Drivers/lvgl/src/draw/sw/lv_draw_sw_arc.c ****                 q->draw_ctx->clip_area = &quarter_area;
 1714              		.loc 1 460 13 is_stmt 1 view .LVU687
ARM GAS  /var/folders/lp/x54gwt890xv47sdkqj1k04q40000gn/T//cc8BXUdH.s 			page 50


 460:Drivers/lvgl/src/draw/sw/lv_draw_sw_arc.c ****                 q->draw_ctx->clip_area = &quarter_area;
 1715              		.loc 1 460 15 is_stmt 0 view .LVU688
 1716 014e 0028     		cmp	r0, #0
 1717 0150 C8D0     		beq	.L54
 461:Drivers/lvgl/src/draw/sw/lv_draw_sw_arc.c ****                 lv_draw_rect(q->draw_ctx, q->draw_dsc, q->draw_area);
 1718              		.loc 1 461 17 is_stmt 1 view .LVU689
 461:Drivers/lvgl/src/draw/sw/lv_draw_sw_arc.c ****                 lv_draw_rect(q->draw_ctx, q->draw_dsc, q->draw_area);
 1719              		.loc 1 461 18 is_stmt 0 view .LVU690
 1720 0152 A369     		ldr	r3, [r4, #24]
 461:Drivers/lvgl/src/draw/sw/lv_draw_sw_arc.c ****                 lv_draw_rect(q->draw_ctx, q->draw_dsc, q->draw_area);
 1721              		.loc 1 461 40 view .LVU691
 1722 0154 C3F808D0 		str	sp, [r3, #8]
 462:Drivers/lvgl/src/draw/sw/lv_draw_sw_arc.c ****             }
 1723              		.loc 1 462 17 is_stmt 1 view .LVU692
 1724 0158 6269     		ldr	r2, [r4, #20]
 1725 015a 2169     		ldr	r1, [r4, #16]
 1726 015c A069     		ldr	r0, [r4, #24]
 1727              	.LVL104:
 462:Drivers/lvgl/src/draw/sw/lv_draw_sw_arc.c ****             }
 1728              		.loc 1 462 17 is_stmt 0 view .LVU693
 1729 015e FFF7FEFF 		bl	lv_draw_rect
 1730              	.LVL105:
 1731 0162 BFE7     		b	.L54
 1732              	.LVL106:
 1733              	.L65:
 462:Drivers/lvgl/src/draw/sw/lv_draw_sw_arc.c ****             }
 1734              		.loc 1 462 17 view .LVU694
 1735              	.LBE25:
 1736              	.LBB26:
 466:Drivers/lvgl/src/draw/sw/lv_draw_sw_arc.c ****             quarter_area.y1 = q->center->y - q->radius;
 1737              		.loc 1 466 13 is_stmt 1 view .LVU695
 466:Drivers/lvgl/src/draw/sw/lv_draw_sw_arc.c ****             quarter_area.y1 = q->center->y - q->radius;
 1738              		.loc 1 466 32 is_stmt 0 view .LVU696
 1739 0164 2368     		ldr	r3, [r4]
 466:Drivers/lvgl/src/draw/sw/lv_draw_sw_arc.c ****             quarter_area.y1 = q->center->y - q->radius;
 1740              		.loc 1 466 40 view .LVU697
 1741 0166 B3F90020 		ldrsh	r2, [r3]
 466:Drivers/lvgl/src/draw/sw/lv_draw_sw_arc.c ****             quarter_area.y1 = q->center->y - q->radius;
 1742              		.loc 1 466 29 view .LVU698
 1743 016a ADF80020 		strh	r2, [sp]	@ movhi
 467:Drivers/lvgl/src/draw/sw/lv_draw_sw_arc.c **** 
 1744              		.loc 1 467 13 is_stmt 1 view .LVU699
 467:Drivers/lvgl/src/draw/sw/lv_draw_sw_arc.c **** 
 1745              		.loc 1 467 40 is_stmt 0 view .LVU700
 1746 016e 5A88     		ldrh	r2, [r3, #2]
 467:Drivers/lvgl/src/draw/sw/lv_draw_sw_arc.c **** 
 1747              		.loc 1 467 47 view .LVU701
 1748 0170 A188     		ldrh	r1, [r4, #4]
 467:Drivers/lvgl/src/draw/sw/lv_draw_sw_arc.c **** 
 1749              		.loc 1 467 44 view .LVU702
 1750 0172 521A     		subs	r2, r2, r1
 467:Drivers/lvgl/src/draw/sw/lv_draw_sw_arc.c **** 
 1751              		.loc 1 467 29 view .LVU703
 1752 0174 ADF80220 		strh	r2, [sp, #2]	@ movhi
 469:Drivers/lvgl/src/draw/sw/lv_draw_sw_arc.c ****             quarter_area.y2 = q->center->y + ((lv_trigo_sin(q->end_angle) * (q->radius - q->width))
 1753              		.loc 1 469 13 is_stmt 1 view .LVU704
 469:Drivers/lvgl/src/draw/sw/lv_draw_sw_arc.c ****             quarter_area.y2 = q->center->y + ((lv_trigo_sin(q->end_angle) * (q->radius - q->width))
ARM GAS  /var/folders/lp/x54gwt890xv47sdkqj1k04q40000gn/T//cc8BXUdH.s 			page 51


 1754              		.loc 1 469 40 is_stmt 0 view .LVU705
 1755 0178 1E88     		ldrh	r6, [r3]
 469:Drivers/lvgl/src/draw/sw/lv_draw_sw_arc.c ****             quarter_area.y2 = q->center->y + ((lv_trigo_sin(q->end_angle) * (q->radius - q->width))
 1756              		.loc 1 469 62 view .LVU706
 1757 017a 2089     		ldrh	r0, [r4, #8]
 469:Drivers/lvgl/src/draw/sw/lv_draw_sw_arc.c ****             quarter_area.y2 = q->center->y + ((lv_trigo_sin(q->end_angle) * (q->radius - q->width))
 1758              		.loc 1 469 74 view .LVU707
 1759 017c 5A30     		adds	r0, r0, #90
 469:Drivers/lvgl/src/draw/sw/lv_draw_sw_arc.c ****             quarter_area.y2 = q->center->y + ((lv_trigo_sin(q->end_angle) * (q->radius - q->width))
 1760              		.loc 1 469 48 view .LVU708
 1761 017e 00B2     		sxth	r0, r0
 1762 0180 FFF7FEFF 		bl	lv_trigo_sin
 1763              	.LVL107:
 469:Drivers/lvgl/src/draw/sw/lv_draw_sw_arc.c ****             quarter_area.y2 = q->center->y + ((lv_trigo_sin(q->end_angle) * (q->radius - q->width))
 1764              		.loc 1 469 84 discriminator 1 view .LVU709
 1765 0184 B4F90430 		ldrsh	r3, [r4, #4]
 469:Drivers/lvgl/src/draw/sw/lv_draw_sw_arc.c ****             quarter_area.y2 = q->center->y + ((lv_trigo_sin(q->end_angle) * (q->radius - q->width))
 1766              		.loc 1 469 80 discriminator 1 view .LVU710
 1767 0188 03FB00F0 		mul	r0, r3, r0
 469:Drivers/lvgl/src/draw/sw/lv_draw_sw_arc.c ****             quarter_area.y2 = q->center->y + ((lv_trigo_sin(q->end_angle) * (q->radius - q->width))
 1768              		.loc 1 469 44 discriminator 1 view .LVU711
 1769 018c 06EBE036 		add	r6, r6, r0, asr #15
 469:Drivers/lvgl/src/draw/sw/lv_draw_sw_arc.c ****             quarter_area.y2 = q->center->y + ((lv_trigo_sin(q->end_angle) * (q->radius - q->width))
 1770              		.loc 1 469 29 discriminator 1 view .LVU712
 1771 0190 ADF80460 		strh	r6, [sp, #4]	@ movhi
 470:Drivers/lvgl/src/draw/sw/lv_draw_sw_arc.c **** 
 1772              		.loc 1 470 13 is_stmt 1 view .LVU713
 470:Drivers/lvgl/src/draw/sw/lv_draw_sw_arc.c **** 
 1773              		.loc 1 470 32 is_stmt 0 view .LVU714
 1774 0194 2368     		ldr	r3, [r4]
 470:Drivers/lvgl/src/draw/sw/lv_draw_sw_arc.c **** 
 1775              		.loc 1 470 40 view .LVU715
 1776 0196 5E88     		ldrh	r6, [r3, #2]
 470:Drivers/lvgl/src/draw/sw/lv_draw_sw_arc.c **** 
 1777              		.loc 1 470 48 view .LVU716
 1778 0198 B4F90800 		ldrsh	r0, [r4, #8]
 1779 019c FFF7FEFF 		bl	lv_trigo_sin
 1780              	.LVL108:
 470:Drivers/lvgl/src/draw/sw/lv_draw_sw_arc.c **** 
 1781              		.loc 1 470 79 discriminator 1 view .LVU717
 1782 01a0 B4F90430 		ldrsh	r3, [r4, #4]
 470:Drivers/lvgl/src/draw/sw/lv_draw_sw_arc.c **** 
 1783              		.loc 1 470 91 discriminator 1 view .LVU718
 1784 01a4 B4F90E20 		ldrsh	r2, [r4, #14]
 470:Drivers/lvgl/src/draw/sw/lv_draw_sw_arc.c **** 
 1785              		.loc 1 470 88 discriminator 1 view .LVU719
 1786 01a8 9B1A     		subs	r3, r3, r2
 470:Drivers/lvgl/src/draw/sw/lv_draw_sw_arc.c **** 
 1787              		.loc 1 470 75 discriminator 1 view .LVU720
 1788 01aa 03FB00F0 		mul	r0, r3, r0
 470:Drivers/lvgl/src/draw/sw/lv_draw_sw_arc.c **** 
 1789              		.loc 1 470 44 discriminator 1 view .LVU721
 1790 01ae 06EBE036 		add	r6, r6, r0, asr #15
 470:Drivers/lvgl/src/draw/sw/lv_draw_sw_arc.c **** 
 1791              		.loc 1 470 29 discriminator 1 view .LVU722
 1792 01b2 ADF80660 		strh	r6, [sp, #6]	@ movhi
 472:Drivers/lvgl/src/draw/sw/lv_draw_sw_arc.c ****             if(ok) {
ARM GAS  /var/folders/lp/x54gwt890xv47sdkqj1k04q40000gn/T//cc8BXUdH.s 			page 52


 1793              		.loc 1 472 13 is_stmt 1 view .LVU723
 472:Drivers/lvgl/src/draw/sw/lv_draw_sw_arc.c ****             if(ok) {
 1794              		.loc 1 472 23 is_stmt 0 view .LVU724
 1795 01b6 2A46     		mov	r2, r5
 1796 01b8 6946     		mov	r1, sp
 1797 01ba 6846     		mov	r0, sp
 1798 01bc FFF7FEFF 		bl	_lv_area_intersect
 1799              	.LVL109:
 473:Drivers/lvgl/src/draw/sw/lv_draw_sw_arc.c ****                 q->draw_ctx->clip_area = &quarter_area;
 1800              		.loc 1 473 13 is_stmt 1 view .LVU725
 473:Drivers/lvgl/src/draw/sw/lv_draw_sw_arc.c ****                 q->draw_ctx->clip_area = &quarter_area;
 1801              		.loc 1 473 15 is_stmt 0 view .LVU726
 1802 01c0 0028     		cmp	r0, #0
 1803 01c2 92D0     		beq	.L51
 474:Drivers/lvgl/src/draw/sw/lv_draw_sw_arc.c ****                 lv_draw_rect(q->draw_ctx, q->draw_dsc, q->draw_area);
 1804              		.loc 1 474 17 is_stmt 1 view .LVU727
 474:Drivers/lvgl/src/draw/sw/lv_draw_sw_arc.c ****                 lv_draw_rect(q->draw_ctx, q->draw_dsc, q->draw_area);
 1805              		.loc 1 474 18 is_stmt 0 view .LVU728
 1806 01c4 A369     		ldr	r3, [r4, #24]
 474:Drivers/lvgl/src/draw/sw/lv_draw_sw_arc.c ****                 lv_draw_rect(q->draw_ctx, q->draw_dsc, q->draw_area);
 1807              		.loc 1 474 40 view .LVU729
 1808 01c6 C3F808D0 		str	sp, [r3, #8]
 475:Drivers/lvgl/src/draw/sw/lv_draw_sw_arc.c ****             }
 1809              		.loc 1 475 17 is_stmt 1 view .LVU730
 1810 01ca 6269     		ldr	r2, [r4, #20]
 1811 01cc 2169     		ldr	r1, [r4, #16]
 1812 01ce A069     		ldr	r0, [r4, #24]
 1813              	.LVL110:
 475:Drivers/lvgl/src/draw/sw/lv_draw_sw_arc.c ****             }
 1814              		.loc 1 475 17 is_stmt 0 view .LVU731
 1815 01d0 FFF7FEFF 		bl	lv_draw_rect
 1816              	.LVL111:
 1817 01d4 89E7     		b	.L51
 1818              	.LVL112:
 1819              	.L61:
 475:Drivers/lvgl/src/draw/sw/lv_draw_sw_arc.c ****             }
 1820              		.loc 1 475 17 view .LVU732
 1821              	.LBE26:
 479:Drivers/lvgl/src/draw/sw/lv_draw_sw_arc.c ****             (q->start_quarter == 2 && q->end_quarter == 0) ||
 1822              		.loc 1 479 78 discriminator 3 view .LVU733
 1823 01d6 2089     		ldrh	r0, [r4, #8]
 479:Drivers/lvgl/src/draw/sw/lv_draw_sw_arc.c ****             (q->start_quarter == 2 && q->end_quarter == 0) ||
 1824              		.loc 1 479 93 discriminator 3 view .LVU734
 1825 01d8 E188     		ldrh	r1, [r4, #6]
 479:Drivers/lvgl/src/draw/sw/lv_draw_sw_arc.c ****             (q->start_quarter == 2 && q->end_quarter == 0) ||
 1826              		.loc 1 479 74 discriminator 3 view .LVU735
 1827 01da 8842     		cmp	r0, r1
 1828 01dc BFF420AF 		bcs	.L55
 1829              	.L56:
 1830              	.LBB27:
 484:Drivers/lvgl/src/draw/sw/lv_draw_sw_arc.c ****         quarter_area.y1 = q->center->y - q->radius;
 1831              		.loc 1 484 9 is_stmt 1 view .LVU736
 484:Drivers/lvgl/src/draw/sw/lv_draw_sw_arc.c ****         quarter_area.y1 = q->center->y - q->radius;
 1832              		.loc 1 484 28 is_stmt 0 view .LVU737
 1833 01e0 2368     		ldr	r3, [r4]
 484:Drivers/lvgl/src/draw/sw/lv_draw_sw_arc.c ****         quarter_area.y1 = q->center->y - q->radius;
 1834              		.loc 1 484 36 view .LVU738
ARM GAS  /var/folders/lp/x54gwt890xv47sdkqj1k04q40000gn/T//cc8BXUdH.s 			page 53


 1835 01e2 B3F90020 		ldrsh	r2, [r3]
 484:Drivers/lvgl/src/draw/sw/lv_draw_sw_arc.c ****         quarter_area.y1 = q->center->y - q->radius;
 1836              		.loc 1 484 25 view .LVU739
 1837 01e6 ADF80020 		strh	r2, [sp]	@ movhi
 485:Drivers/lvgl/src/draw/sw/lv_draw_sw_arc.c ****         quarter_area.x2 = q->center->x + q->radius;
 1838              		.loc 1 485 9 is_stmt 1 view .LVU740
 485:Drivers/lvgl/src/draw/sw/lv_draw_sw_arc.c ****         quarter_area.x2 = q->center->x + q->radius;
 1839              		.loc 1 485 36 is_stmt 0 view .LVU741
 1840 01ea 5988     		ldrh	r1, [r3, #2]
 485:Drivers/lvgl/src/draw/sw/lv_draw_sw_arc.c ****         quarter_area.x2 = q->center->x + q->radius;
 1841              		.loc 1 485 43 view .LVU742
 1842 01ec A288     		ldrh	r2, [r4, #4]
 485:Drivers/lvgl/src/draw/sw/lv_draw_sw_arc.c ****         quarter_area.x2 = q->center->x + q->radius;
 1843              		.loc 1 485 40 view .LVU743
 1844 01ee 891A     		subs	r1, r1, r2
 485:Drivers/lvgl/src/draw/sw/lv_draw_sw_arc.c ****         quarter_area.x2 = q->center->x + q->radius;
 1845              		.loc 1 485 25 view .LVU744
 1846 01f0 ADF80210 		strh	r1, [sp, #2]	@ movhi
 486:Drivers/lvgl/src/draw/sw/lv_draw_sw_arc.c ****         quarter_area.y2 = q->center->y - 1;
 1847              		.loc 1 486 9 is_stmt 1 view .LVU745
 486:Drivers/lvgl/src/draw/sw/lv_draw_sw_arc.c ****         quarter_area.y2 = q->center->y - 1;
 1848              		.loc 1 486 36 is_stmt 0 view .LVU746
 1849 01f4 1988     		ldrh	r1, [r3]
 486:Drivers/lvgl/src/draw/sw/lv_draw_sw_arc.c ****         quarter_area.y2 = q->center->y - 1;
 1850              		.loc 1 486 40 view .LVU747
 1851 01f6 0A44     		add	r2, r2, r1
 486:Drivers/lvgl/src/draw/sw/lv_draw_sw_arc.c ****         quarter_area.y2 = q->center->y - 1;
 1852              		.loc 1 486 25 view .LVU748
 1853 01f8 ADF80420 		strh	r2, [sp, #4]	@ movhi
 487:Drivers/lvgl/src/draw/sw/lv_draw_sw_arc.c **** 
 1854              		.loc 1 487 9 is_stmt 1 view .LVU749
 487:Drivers/lvgl/src/draw/sw/lv_draw_sw_arc.c **** 
 1855              		.loc 1 487 36 is_stmt 0 view .LVU750
 1856 01fc 5B88     		ldrh	r3, [r3, #2]
 487:Drivers/lvgl/src/draw/sw/lv_draw_sw_arc.c **** 
 1857              		.loc 1 487 40 view .LVU751
 1858 01fe 013B     		subs	r3, r3, #1
 487:Drivers/lvgl/src/draw/sw/lv_draw_sw_arc.c **** 
 1859              		.loc 1 487 25 view .LVU752
 1860 0200 ADF80630 		strh	r3, [sp, #6]	@ movhi
 489:Drivers/lvgl/src/draw/sw/lv_draw_sw_arc.c ****         if(ok) {
 1861              		.loc 1 489 9 is_stmt 1 view .LVU753
 489:Drivers/lvgl/src/draw/sw/lv_draw_sw_arc.c ****         if(ok) {
 1862              		.loc 1 489 19 is_stmt 0 view .LVU754
 1863 0204 2A46     		mov	r2, r5
 1864 0206 6946     		mov	r1, sp
 1865 0208 6846     		mov	r0, sp
 1866 020a FFF7FEFF 		bl	_lv_area_intersect
 1867              	.LVL113:
 490:Drivers/lvgl/src/draw/sw/lv_draw_sw_arc.c ****             q->draw_ctx->clip_area = &quarter_area;
 1868              		.loc 1 490 9 is_stmt 1 view .LVU755
 490:Drivers/lvgl/src/draw/sw/lv_draw_sw_arc.c ****             q->draw_ctx->clip_area = &quarter_area;
 1869              		.loc 1 490 11 is_stmt 0 view .LVU756
 1870 020e 0028     		cmp	r0, #0
 1871 0210 3FF46BAF 		beq	.L51
 491:Drivers/lvgl/src/draw/sw/lv_draw_sw_arc.c ****             lv_draw_rect(q->draw_ctx, q->draw_dsc, q->draw_area);
 1872              		.loc 1 491 13 is_stmt 1 view .LVU757
ARM GAS  /var/folders/lp/x54gwt890xv47sdkqj1k04q40000gn/T//cc8BXUdH.s 			page 54


 491:Drivers/lvgl/src/draw/sw/lv_draw_sw_arc.c ****             lv_draw_rect(q->draw_ctx, q->draw_dsc, q->draw_area);
 1873              		.loc 1 491 14 is_stmt 0 view .LVU758
 1874 0214 A369     		ldr	r3, [r4, #24]
 491:Drivers/lvgl/src/draw/sw/lv_draw_sw_arc.c ****             lv_draw_rect(q->draw_ctx, q->draw_dsc, q->draw_area);
 1875              		.loc 1 491 36 view .LVU759
 1876 0216 C3F808D0 		str	sp, [r3, #8]
 492:Drivers/lvgl/src/draw/sw/lv_draw_sw_arc.c ****         }
 1877              		.loc 1 492 13 is_stmt 1 view .LVU760
 1878 021a 6269     		ldr	r2, [r4, #20]
 1879 021c 2169     		ldr	r1, [r4, #16]
 1880 021e A069     		ldr	r0, [r4, #24]
 1881              	.LVL114:
 492:Drivers/lvgl/src/draw/sw/lv_draw_sw_arc.c ****         }
 1882              		.loc 1 492 13 is_stmt 0 view .LVU761
 1883 0220 FFF7FEFF 		bl	lv_draw_rect
 1884              	.LVL115:
 1885 0224 61E7     		b	.L51
 1886              	.LVL116:
 1887              	.L62:
 492:Drivers/lvgl/src/draw/sw/lv_draw_sw_arc.c ****         }
 1888              		.loc 1 492 13 view .LVU762
 1889              	.LBE27:
 480:Drivers/lvgl/src/draw/sw/lv_draw_sw_arc.c ****             (q->start_quarter == 1 && q->end_quarter == 0) ||
 1890              		.loc 1 480 36 view .LVU763
 1891 0226 002A     		cmp	r2, #0
 1892 0228 DAD0     		beq	.L56
 1893 022a FCE6     		b	.L57
 1894              	.L63:
 481:Drivers/lvgl/src/draw/sw/lv_draw_sw_arc.c ****             (q->start_quarter == 2 && q->end_quarter == 1)) {
 1895              		.loc 1 481 36 view .LVU764
 1896 022c 002A     		cmp	r2, #0
 1897 022e D7D0     		beq	.L56
 1898 0230 FCE6     		b	.L58
 1899              		.cfi_endproc
 1900              	.LFE60:
 1902              		.section	.text.get_rounded_area,"ax",%progbits
 1903              		.align	1
 1904              		.syntax unified
 1905              		.thumb
 1906              		.thumb_func
 1908              	get_rounded_area:
 1909              	.LVL117:
 1910              	.LFB61:
 498:Drivers/lvgl/src/draw/sw/lv_draw_sw_arc.c **** 
 499:Drivers/lvgl/src/draw/sw/lv_draw_sw_arc.c **** static void get_rounded_area(int16_t angle, lv_coord_t radius, uint8_t thickness, lv_area_t * res_a
 500:Drivers/lvgl/src/draw/sw/lv_draw_sw_arc.c **** {
 1911              		.loc 1 500 1 is_stmt 1 view -0
 1912              		.cfi_startproc
 1913              		@ args = 0, pretend = 0, frame = 0
 1914              		@ frame_needed = 0, uses_anonymous_args = 0
 1915              		.loc 1 500 1 is_stmt 0 view .LVU766
 1916 0000 2DE9F843 		push	{r3, r4, r5, r6, r7, r8, r9, lr}
 1917              		.cfi_def_cfa_offset 32
 1918              		.cfi_offset 3, -32
 1919              		.cfi_offset 4, -28
 1920              		.cfi_offset 5, -24
 1921              		.cfi_offset 6, -20
ARM GAS  /var/folders/lp/x54gwt890xv47sdkqj1k04q40000gn/T//cc8BXUdH.s 			page 55


 1922              		.cfi_offset 7, -16
 1923              		.cfi_offset 8, -12
 1924              		.cfi_offset 9, -8
 1925              		.cfi_offset 14, -4
 1926 0004 8046     		mov	r8, r0
 1927 0006 1D46     		mov	r5, r3
 501:Drivers/lvgl/src/draw/sw/lv_draw_sw_arc.c ****     const uint8_t ps = 8;
 1928              		.loc 1 501 5 is_stmt 1 view .LVU767
 1929              	.LVL118:
 502:Drivers/lvgl/src/draw/sw/lv_draw_sw_arc.c ****     const uint8_t pa = 127;
 1930              		.loc 1 502 5 view .LVU768
 503:Drivers/lvgl/src/draw/sw/lv_draw_sw_arc.c **** 
 504:Drivers/lvgl/src/draw/sw/lv_draw_sw_arc.c ****     int32_t thick_half = thickness / 2;
 1931              		.loc 1 504 5 view .LVU769
 1932              		.loc 1 504 36 is_stmt 0 view .LVU770
 1933 0008 5708     		lsrs	r7, r2, #1
 1934              	.LVL119:
 505:Drivers/lvgl/src/draw/sw/lv_draw_sw_arc.c ****     uint8_t thick_corr = (thickness & 0x01) ? 0 : 1;
 1935              		.loc 1 505 5 is_stmt 1 view .LVU771
 1936              		.loc 1 505 49 is_stmt 0 view .LVU772
 1937 000a 82F00106 		eor	r6, r2, #1
 1938 000e 06F00106 		and	r6, r6, #1
 1939              	.LVL120:
 506:Drivers/lvgl/src/draw/sw/lv_draw_sw_arc.c **** 
 507:Drivers/lvgl/src/draw/sw/lv_draw_sw_arc.c ****     int32_t cir_x;
 1940              		.loc 1 507 5 is_stmt 1 view .LVU773
 508:Drivers/lvgl/src/draw/sw/lv_draw_sw_arc.c ****     int32_t cir_y;
 1941              		.loc 1 508 5 view .LVU774
 509:Drivers/lvgl/src/draw/sw/lv_draw_sw_arc.c **** 
 510:Drivers/lvgl/src/draw/sw/lv_draw_sw_arc.c ****     cir_x = ((radius - thick_half) * lv_trigo_sin(90 - angle)) >> (LV_TRIGO_SHIFT - ps);
 1942              		.loc 1 510 5 view .LVU775
 1943              		.loc 1 510 22 is_stmt 0 view .LVU776
 1944 0012 A1EB5209 		sub	r9, r1, r2, lsr #1
 1945              		.loc 1 510 54 view .LVU777
 1946 0016 C0F15A00 		rsb	r0, r0, #90
 1947              	.LVL121:
 1948              		.loc 1 510 38 view .LVU778
 1949 001a 00B2     		sxth	r0, r0
 1950 001c FFF7FEFF 		bl	lv_trigo_sin
 1951              	.LVL122:
 1952              		.loc 1 510 36 discriminator 1 view .LVU779
 1953 0020 00FB09F4 		mul	r4, r0, r9
 1954              		.loc 1 510 11 discriminator 1 view .LVU780
 1955 0024 E411     		asrs	r4, r4, #7
 1956              	.LVL123:
 511:Drivers/lvgl/src/draw/sw/lv_draw_sw_arc.c ****     cir_y = ((radius - thick_half) * lv_trigo_sin(angle)) >> (LV_TRIGO_SHIFT - ps);
 1957              		.loc 1 511 5 is_stmt 1 view .LVU781
 1958              		.loc 1 511 38 is_stmt 0 view .LVU782
 1959 0026 4046     		mov	r0, r8
 1960 0028 FFF7FEFF 		bl	lv_trigo_sin
 1961              	.LVL124:
 1962              		.loc 1 511 36 discriminator 1 view .LVU783
 1963 002c 00FB09F2 		mul	r2, r0, r9
 1964              		.loc 1 511 11 discriminator 1 view .LVU784
 1965 0030 D211     		asrs	r2, r2, #7
 1966              	.LVL125:
 512:Drivers/lvgl/src/draw/sw/lv_draw_sw_arc.c **** 
ARM GAS  /var/folders/lp/x54gwt890xv47sdkqj1k04q40000gn/T//cc8BXUdH.s 			page 56


 513:Drivers/lvgl/src/draw/sw/lv_draw_sw_arc.c ****     /*Actually the center of the pixel need to be calculated so apply 1/2 px offset*/
 514:Drivers/lvgl/src/draw/sw/lv_draw_sw_arc.c ****     if(cir_x > 0) {
 1967              		.loc 1 514 5 is_stmt 1 view .LVU785
 1968              		.loc 1 514 7 is_stmt 0 view .LVU786
 1969 0032 002C     		cmp	r4, #0
 1970 0034 15DD     		ble	.L67
 515:Drivers/lvgl/src/draw/sw/lv_draw_sw_arc.c ****         cir_x = (cir_x - pa) >> ps;
 1971              		.loc 1 515 9 is_stmt 1 view .LVU787
 1972              		.loc 1 515 24 is_stmt 0 view .LVU788
 1973 0036 7F3C     		subs	r4, r4, #127
 1974              	.LVL126:
 516:Drivers/lvgl/src/draw/sw/lv_draw_sw_arc.c ****         res_area->x1 = cir_x - thick_half + thick_corr;
 1975              		.loc 1 516 9 is_stmt 1 view .LVU789
 1976              		.loc 1 516 30 is_stmt 0 view .LVU790
 1977 0038 C4F30F24 		ubfx	r4, r4, #8, #16
 1978              	.LVL127:
 1979              		.loc 1 516 30 view .LVU791
 1980 003c E31B     		subs	r3, r4, r7
 1981              		.loc 1 516 43 view .LVU792
 1982 003e 16FA83F3 		uxtah	r3, r6, r3
 1983              		.loc 1 516 22 view .LVU793
 1984 0042 2B80     		strh	r3, [r5]	@ movhi
 517:Drivers/lvgl/src/draw/sw/lv_draw_sw_arc.c ****         res_area->x2 = cir_x + thick_half;
 1985              		.loc 1 517 9 is_stmt 1 view .LVU794
 1986              		.loc 1 517 30 is_stmt 0 view .LVU795
 1987 0044 3C44     		add	r4, r4, r7
 1988              		.loc 1 517 22 view .LVU796
 1989 0046 AC80     		strh	r4, [r5, #4]	@ movhi
 1990              	.LVL128:
 1991              	.L68:
 518:Drivers/lvgl/src/draw/sw/lv_draw_sw_arc.c ****     }
 519:Drivers/lvgl/src/draw/sw/lv_draw_sw_arc.c ****     else {
 520:Drivers/lvgl/src/draw/sw/lv_draw_sw_arc.c ****         cir_x = (cir_x + pa) >> ps;
 521:Drivers/lvgl/src/draw/sw/lv_draw_sw_arc.c ****         res_area->x1 = cir_x - thick_half;
 522:Drivers/lvgl/src/draw/sw/lv_draw_sw_arc.c ****         res_area->x2 = cir_x + thick_half - thick_corr;
 523:Drivers/lvgl/src/draw/sw/lv_draw_sw_arc.c ****     }
 524:Drivers/lvgl/src/draw/sw/lv_draw_sw_arc.c **** 
 525:Drivers/lvgl/src/draw/sw/lv_draw_sw_arc.c ****     if(cir_y > 0) {
 1992              		.loc 1 525 5 is_stmt 1 view .LVU797
 1993              		.loc 1 525 7 is_stmt 0 view .LVU798
 1994 0048 002A     		cmp	r2, #0
 1995 004a 14DD     		ble	.L69
 526:Drivers/lvgl/src/draw/sw/lv_draw_sw_arc.c ****         cir_y = (cir_y - pa) >> ps;
 1996              		.loc 1 526 9 is_stmt 1 view .LVU799
 1997              		.loc 1 526 24 is_stmt 0 view .LVU800
 1998 004c 7F3A     		subs	r2, r2, #127
 1999              	.LVL129:
 527:Drivers/lvgl/src/draw/sw/lv_draw_sw_arc.c ****         res_area->y1 = cir_y - thick_half + thick_corr;
 2000              		.loc 1 527 9 is_stmt 1 view .LVU801
 2001              		.loc 1 527 30 is_stmt 0 view .LVU802
 2002 004e C2F30F22 		ubfx	r2, r2, #8, #16
 2003              	.LVL130:
 2004              		.loc 1 527 30 view .LVU803
 2005 0052 D31B     		subs	r3, r2, r7
 2006              		.loc 1 527 43 view .LVU804
 2007 0054 16FA83F3 		uxtah	r3, r6, r3
 2008              		.loc 1 527 22 view .LVU805
ARM GAS  /var/folders/lp/x54gwt890xv47sdkqj1k04q40000gn/T//cc8BXUdH.s 			page 57


 2009 0058 6B80     		strh	r3, [r5, #2]	@ movhi
 528:Drivers/lvgl/src/draw/sw/lv_draw_sw_arc.c ****         res_area->y2 = cir_y + thick_half;
 2010              		.loc 1 528 9 is_stmt 1 view .LVU806
 2011              		.loc 1 528 30 is_stmt 0 view .LVU807
 2012 005a 3A44     		add	r2, r2, r7
 2013              		.loc 1 528 22 view .LVU808
 2014 005c EA80     		strh	r2, [r5, #6]	@ movhi
 2015              	.LVL131:
 2016              	.L66:
 529:Drivers/lvgl/src/draw/sw/lv_draw_sw_arc.c ****     }
 530:Drivers/lvgl/src/draw/sw/lv_draw_sw_arc.c ****     else {
 531:Drivers/lvgl/src/draw/sw/lv_draw_sw_arc.c ****         cir_y = (cir_y + pa) >> ps;
 532:Drivers/lvgl/src/draw/sw/lv_draw_sw_arc.c ****         res_area->y1 = cir_y - thick_half;
 533:Drivers/lvgl/src/draw/sw/lv_draw_sw_arc.c ****         res_area->y2 = cir_y + thick_half - thick_corr;
 534:Drivers/lvgl/src/draw/sw/lv_draw_sw_arc.c ****     }
 535:Drivers/lvgl/src/draw/sw/lv_draw_sw_arc.c **** }
 2017              		.loc 1 535 1 view .LVU809
 2018 005e BDE8F883 		pop	{r3, r4, r5, r6, r7, r8, r9, pc}
 2019              	.LVL132:
 2020              	.L67:
 520:Drivers/lvgl/src/draw/sw/lv_draw_sw_arc.c ****         res_area->x1 = cir_x - thick_half;
 2021              		.loc 1 520 9 is_stmt 1 view .LVU810
 520:Drivers/lvgl/src/draw/sw/lv_draw_sw_arc.c ****         res_area->x1 = cir_x - thick_half;
 2022              		.loc 1 520 24 is_stmt 0 view .LVU811
 2023 0062 7F34     		adds	r4, r4, #127
 2024              	.LVL133:
 521:Drivers/lvgl/src/draw/sw/lv_draw_sw_arc.c ****         res_area->x2 = cir_x + thick_half - thick_corr;
 2025              		.loc 1 521 9 is_stmt 1 view .LVU812
 521:Drivers/lvgl/src/draw/sw/lv_draw_sw_arc.c ****         res_area->x2 = cir_x + thick_half - thick_corr;
 2026              		.loc 1 521 30 is_stmt 0 view .LVU813
 2027 0064 C4F30F24 		ubfx	r4, r4, #8, #16
 2028              	.LVL134:
 521:Drivers/lvgl/src/draw/sw/lv_draw_sw_arc.c ****         res_area->x2 = cir_x + thick_half - thick_corr;
 2029              		.loc 1 521 30 view .LVU814
 2030 0068 E31B     		subs	r3, r4, r7
 521:Drivers/lvgl/src/draw/sw/lv_draw_sw_arc.c ****         res_area->x2 = cir_x + thick_half - thick_corr;
 2031              		.loc 1 521 22 view .LVU815
 2032 006a 2B80     		strh	r3, [r5]	@ movhi
 522:Drivers/lvgl/src/draw/sw/lv_draw_sw_arc.c ****     }
 2033              		.loc 1 522 9 is_stmt 1 view .LVU816
 522:Drivers/lvgl/src/draw/sw/lv_draw_sw_arc.c ****     }
 2034              		.loc 1 522 30 is_stmt 0 view .LVU817
 2035 006c 3C44     		add	r4, r4, r7
 2036 006e A4B2     		uxth	r4, r4
 522:Drivers/lvgl/src/draw/sw/lv_draw_sw_arc.c ****     }
 2037              		.loc 1 522 43 view .LVU818
 2038 0070 A41B     		subs	r4, r4, r6
 522:Drivers/lvgl/src/draw/sw/lv_draw_sw_arc.c ****     }
 2039              		.loc 1 522 22 view .LVU819
 2040 0072 AC80     		strh	r4, [r5, #4]	@ movhi
 2041 0074 E8E7     		b	.L68
 2042              	.LVL135:
 2043              	.L69:
 531:Drivers/lvgl/src/draw/sw/lv_draw_sw_arc.c ****         res_area->y1 = cir_y - thick_half;
 2044              		.loc 1 531 9 is_stmt 1 view .LVU820
 531:Drivers/lvgl/src/draw/sw/lv_draw_sw_arc.c ****         res_area->y1 = cir_y - thick_half;
 2045              		.loc 1 531 24 is_stmt 0 view .LVU821
ARM GAS  /var/folders/lp/x54gwt890xv47sdkqj1k04q40000gn/T//cc8BXUdH.s 			page 58


 2046 0076 7F32     		adds	r2, r2, #127
 2047              	.LVL136:
 532:Drivers/lvgl/src/draw/sw/lv_draw_sw_arc.c ****         res_area->y2 = cir_y + thick_half - thick_corr;
 2048              		.loc 1 532 9 is_stmt 1 view .LVU822
 532:Drivers/lvgl/src/draw/sw/lv_draw_sw_arc.c ****         res_area->y2 = cir_y + thick_half - thick_corr;
 2049              		.loc 1 532 30 is_stmt 0 view .LVU823
 2050 0078 C2F30F22 		ubfx	r2, r2, #8, #16
 2051              	.LVL137:
 532:Drivers/lvgl/src/draw/sw/lv_draw_sw_arc.c ****         res_area->y2 = cir_y + thick_half - thick_corr;
 2052              		.loc 1 532 30 view .LVU824
 2053 007c D31B     		subs	r3, r2, r7
 532:Drivers/lvgl/src/draw/sw/lv_draw_sw_arc.c ****         res_area->y2 = cir_y + thick_half - thick_corr;
 2054              		.loc 1 532 22 view .LVU825
 2055 007e 6B80     		strh	r3, [r5, #2]	@ movhi
 533:Drivers/lvgl/src/draw/sw/lv_draw_sw_arc.c ****     }
 2056              		.loc 1 533 9 is_stmt 1 view .LVU826
 533:Drivers/lvgl/src/draw/sw/lv_draw_sw_arc.c ****     }
 2057              		.loc 1 533 30 is_stmt 0 view .LVU827
 2058 0080 3A44     		add	r2, r2, r7
 2059 0082 92B2     		uxth	r2, r2
 533:Drivers/lvgl/src/draw/sw/lv_draw_sw_arc.c ****     }
 2060              		.loc 1 533 43 view .LVU828
 2061 0084 921B     		subs	r2, r2, r6
 533:Drivers/lvgl/src/draw/sw/lv_draw_sw_arc.c ****     }
 2062              		.loc 1 533 22 view .LVU829
 2063 0086 EA80     		strh	r2, [r5, #6]	@ movhi
 2064              		.loc 1 535 1 view .LVU830
 2065 0088 E9E7     		b	.L66
 2066              		.cfi_endproc
 2067              	.LFE61:
 2069              		.section	.text.lv_draw_sw_arc,"ax",%progbits
 2070              		.align	1
 2071              		.global	lv_draw_sw_arc
 2072              		.syntax unified
 2073              		.thumb
 2074              		.thumb_func
 2076              	lv_draw_sw_arc:
 2077              	.LVL138:
 2078              	.LFB56:
  62:Drivers/lvgl/src/draw/sw/lv_draw_sw_arc.c **** #if LV_DRAW_COMPLEX
 2079              		.loc 1 62 1 is_stmt 1 view -0
 2080              		.cfi_startproc
 2081              		@ args = 8, pretend = 0, frame = 296
 2082              		@ frame_needed = 0, uses_anonymous_args = 0
  62:Drivers/lvgl/src/draw/sw/lv_draw_sw_arc.c **** #if LV_DRAW_COMPLEX
 2083              		.loc 1 62 1 is_stmt 0 view .LVU832
 2084 0000 2DE9F04F 		push	{r4, r5, r6, r7, r8, r9, r10, fp, lr}
 2085              		.cfi_def_cfa_offset 36
 2086              		.cfi_offset 4, -36
 2087              		.cfi_offset 5, -32
 2088              		.cfi_offset 6, -28
 2089              		.cfi_offset 7, -24
 2090              		.cfi_offset 8, -20
 2091              		.cfi_offset 9, -16
 2092              		.cfi_offset 10, -12
 2093              		.cfi_offset 11, -8
 2094              		.cfi_offset 14, -4
ARM GAS  /var/folders/lp/x54gwt890xv47sdkqj1k04q40000gn/T//cc8BXUdH.s 			page 59


 2095 0004 CDB0     		sub	sp, sp, #308
 2096              		.cfi_def_cfa_offset 344
 2097 0006 0290     		str	r0, [sp, #8]
 2098 0008 1F46     		mov	r7, r3
 2099 000a BDF85851 		ldrh	r5, [sp, #344]
 2100 000e BDF85C41 		ldrh	r4, [sp, #348]
  64:Drivers/lvgl/src/draw/sw/lv_draw_sw_arc.c ****     if(dsc->width == 0) return;
 2101              		.loc 1 64 5 is_stmt 1 view .LVU833
  64:Drivers/lvgl/src/draw/sw/lv_draw_sw_arc.c ****     if(dsc->width == 0) return;
 2102              		.loc 1 64 11 is_stmt 0 view .LVU834
 2103 0012 0B7B     		ldrb	r3, [r1, #12]	@ zero_extendqisi2
 2104              	.LVL139:
  64:Drivers/lvgl/src/draw/sw/lv_draw_sw_arc.c ****     if(dsc->width == 0) return;
 2105              		.loc 1 64 7 view .LVU835
 2106 0014 022B     		cmp	r3, #2
 2107 0016 40F20081 		bls	.L72
 2108 001a 0E46     		mov	r6, r1
 2109 001c 9046     		mov	r8, r2
  65:Drivers/lvgl/src/draw/sw/lv_draw_sw_arc.c ****     if(start_angle == end_angle) return;
 2110              		.loc 1 65 5 is_stmt 1 view .LVU836
  65:Drivers/lvgl/src/draw/sw/lv_draw_sw_arc.c ****     if(start_angle == end_angle) return;
 2111              		.loc 1 65 11 is_stmt 0 view .LVU837
 2112 001e B1F90290 		ldrsh	r9, [r1, #2]
  65:Drivers/lvgl/src/draw/sw/lv_draw_sw_arc.c ****     if(start_angle == end_angle) return;
 2113              		.loc 1 65 7 view .LVU838
 2114 0022 B9F1000F 		cmp	r9, #0
 2115 0026 00F0F880 		beq	.L72
  66:Drivers/lvgl/src/draw/sw/lv_draw_sw_arc.c **** 
 2116              		.loc 1 66 5 is_stmt 1 view .LVU839
  66:Drivers/lvgl/src/draw/sw/lv_draw_sw_arc.c **** 
 2117              		.loc 1 66 7 is_stmt 0 view .LVU840
 2118 002a A542     		cmp	r5, r4
 2119 002c 00F0F580 		beq	.L72
  68:Drivers/lvgl/src/draw/sw/lv_draw_sw_arc.c ****     if(width > radius) width = radius;
 2120              		.loc 1 68 5 is_stmt 1 view .LVU841
 2121              	.LVL140:
  69:Drivers/lvgl/src/draw/sw/lv_draw_sw_arc.c **** 
 2122              		.loc 1 69 5 view .LVU842
  69:Drivers/lvgl/src/draw/sw/lv_draw_sw_arc.c **** 
 2123              		.loc 1 69 7 is_stmt 0 view .LVU843
 2124 0030 B945     		cmp	r9, r7
 2125 0032 01DD     		ble	.L74
  69:Drivers/lvgl/src/draw/sw/lv_draw_sw_arc.c **** 
 2126              		.loc 1 69 24 is_stmt 1 discriminator 1 view .LVU844
  69:Drivers/lvgl/src/draw/sw/lv_draw_sw_arc.c **** 
 2127              		.loc 1 69 30 is_stmt 0 discriminator 1 view .LVU845
 2128 0034 0FFA87F9 		sxth	r9, r7
 2129              	.LVL141:
 2130              	.L74:
  71:Drivers/lvgl/src/draw/sw/lv_draw_sw_arc.c ****     lv_draw_rect_dsc_init(&cir_dsc);
 2131              		.loc 1 71 5 is_stmt 1 view .LVU846
  72:Drivers/lvgl/src/draw/sw/lv_draw_sw_arc.c ****     cir_dsc.blend_mode = dsc->blend_mode;
 2132              		.loc 1 72 5 view .LVU847
 2133 0038 3EA8     		add	r0, sp, #248
 2134              	.LVL142:
  72:Drivers/lvgl/src/draw/sw/lv_draw_sw_arc.c ****     cir_dsc.blend_mode = dsc->blend_mode;
 2135              		.loc 1 72 5 is_stmt 0 view .LVU848
ARM GAS  /var/folders/lp/x54gwt890xv47sdkqj1k04q40000gn/T//cc8BXUdH.s 			page 60


 2136 003a FFF7FEFF 		bl	lv_draw_rect_dsc_init
 2137              	.LVL143:
  73:Drivers/lvgl/src/draw/sw/lv_draw_sw_arc.c ****     if(dsc->img_src) {
 2138              		.loc 1 73 5 is_stmt 1 view .LVU849
  73:Drivers/lvgl/src/draw/sw/lv_draw_sw_arc.c ****     if(dsc->img_src) {
 2139              		.loc 1 73 29 is_stmt 0 view .LVU850
 2140 003e 737B     		ldrb	r3, [r6, #13]	@ zero_extendqisi2
 2141 0040 C3F30103 		ubfx	r3, r3, #0, #2
  73:Drivers/lvgl/src/draw/sw/lv_draw_sw_arc.c ****     if(dsc->img_src) {
 2142              		.loc 1 73 24 view .LVU851
 2143 0044 8DF8FA30 		strb	r3, [sp, #250]
  74:Drivers/lvgl/src/draw/sw/lv_draw_sw_arc.c ****         cir_dsc.bg_opa = LV_OPA_TRANSP;
 2144              		.loc 1 74 5 is_stmt 1 view .LVU852
  74:Drivers/lvgl/src/draw/sw/lv_draw_sw_arc.c ****         cir_dsc.bg_opa = LV_OPA_TRANSP;
 2145              		.loc 1 74 11 is_stmt 0 view .LVU853
 2146 0048 B368     		ldr	r3, [r6, #8]
  74:Drivers/lvgl/src/draw/sw/lv_draw_sw_arc.c ****         cir_dsc.bg_opa = LV_OPA_TRANSP;
 2147              		.loc 1 74 7 view .LVU854
 2148 004a 002B     		cmp	r3, #0
 2149 004c 54D0     		beq	.L75
  75:Drivers/lvgl/src/draw/sw/lv_draw_sw_arc.c ****         cir_dsc.bg_img_src = dsc->img_src;
 2150              		.loc 1 75 9 is_stmt 1 view .LVU855
  75:Drivers/lvgl/src/draw/sw/lv_draw_sw_arc.c ****         cir_dsc.bg_img_src = dsc->img_src;
 2151              		.loc 1 75 24 is_stmt 0 view .LVU856
 2152 004e 0022     		movs	r2, #0
 2153 0050 8DF8FB20 		strb	r2, [sp, #251]
  76:Drivers/lvgl/src/draw/sw/lv_draw_sw_arc.c ****         cir_dsc.bg_img_opa = dsc->opa;
 2154              		.loc 1 76 9 is_stmt 1 view .LVU857
  76:Drivers/lvgl/src/draw/sw/lv_draw_sw_arc.c ****         cir_dsc.bg_img_opa = dsc->opa;
 2155              		.loc 1 76 28 is_stmt 0 view .LVU858
 2156 0054 4293     		str	r3, [sp, #264]
  77:Drivers/lvgl/src/draw/sw/lv_draw_sw_arc.c ****     }
 2157              		.loc 1 77 9 is_stmt 1 view .LVU859
  77:Drivers/lvgl/src/draw/sw/lv_draw_sw_arc.c ****     }
 2158              		.loc 1 77 33 is_stmt 0 view .LVU860
 2159 0056 337B     		ldrb	r3, [r6, #12]	@ zero_extendqisi2
  77:Drivers/lvgl/src/draw/sw/lv_draw_sw_arc.c ****     }
 2160              		.loc 1 77 28 view .LVU861
 2161 0058 8DF81231 		strb	r3, [sp, #274]
 2162              	.L76:
  84:Drivers/lvgl/src/draw/sw/lv_draw_sw_arc.c ****     area_out.x1 = center->x - radius;
 2163              		.loc 1 84 5 is_stmt 1 view .LVU862
  85:Drivers/lvgl/src/draw/sw/lv_draw_sw_arc.c ****     area_out.y1 = center->y - radius;
 2164              		.loc 1 85 5 view .LVU863
  85:Drivers/lvgl/src/draw/sw/lv_draw_sw_arc.c ****     area_out.y1 = center->y - radius;
 2165              		.loc 1 85 25 is_stmt 0 view .LVU864
 2166 005c B8F80020 		ldrh	r2, [r8]
  85:Drivers/lvgl/src/draw/sw/lv_draw_sw_arc.c ****     area_out.y1 = center->y - radius;
 2167              		.loc 1 85 29 view .LVU865
 2168 0060 A2EB070C 		sub	ip, r2, r7
 2169 0064 0FFA8CFB 		sxth	fp, ip
  85:Drivers/lvgl/src/draw/sw/lv_draw_sw_arc.c ****     area_out.y1 = center->y - radius;
 2170              		.loc 1 85 17 view .LVU866
 2171 0068 ADF8F0B0 		strh	fp, [sp, #240]	@ movhi
  86:Drivers/lvgl/src/draw/sw/lv_draw_sw_arc.c ****     area_out.x2 = center->x + radius - 1;  /*-1 because the center already belongs to the left/bott
 2172              		.loc 1 86 5 is_stmt 1 view .LVU867
  86:Drivers/lvgl/src/draw/sw/lv_draw_sw_arc.c ****     area_out.x2 = center->x + radius - 1;  /*-1 because the center already belongs to the left/bott
ARM GAS  /var/folders/lp/x54gwt890xv47sdkqj1k04q40000gn/T//cc8BXUdH.s 			page 61


 2173              		.loc 1 86 25 is_stmt 0 view .LVU868
 2174 006c B8F80210 		ldrh	r1, [r8, #2]
  86:Drivers/lvgl/src/draw/sw/lv_draw_sw_arc.c ****     area_out.x2 = center->x + radius - 1;  /*-1 because the center already belongs to the left/bott
 2175              		.loc 1 86 29 view .LVU869
 2176 0070 A1EB070E 		sub	lr, r1, r7
 2177 0074 0FFA8EFA 		sxth	r10, lr
  86:Drivers/lvgl/src/draw/sw/lv_draw_sw_arc.c ****     area_out.x2 = center->x + radius - 1;  /*-1 because the center already belongs to the left/bott
 2178              		.loc 1 86 17 view .LVU870
 2179 0078 ADF8F2A0 		strh	r10, [sp, #242]	@ movhi
  87:Drivers/lvgl/src/draw/sw/lv_draw_sw_arc.c ****     area_out.y2 = center->y + radius - 1;
 2180              		.loc 1 87 5 is_stmt 1 view .LVU871
  87:Drivers/lvgl/src/draw/sw/lv_draw_sw_arc.c ****     area_out.y2 = center->y + radius - 1;
 2181              		.loc 1 87 29 is_stmt 0 view .LVU872
 2182 007c 3A44     		add	r2, r2, r7
 2183 007e 92B2     		uxth	r2, r2
  87:Drivers/lvgl/src/draw/sw/lv_draw_sw_arc.c ****     area_out.y2 = center->y + radius - 1;
 2184              		.loc 1 87 38 view .LVU873
 2185 0080 013A     		subs	r2, r2, #1
 2186 0082 93B2     		uxth	r3, r2
 2187 0084 12B2     		sxth	r2, r2
  87:Drivers/lvgl/src/draw/sw/lv_draw_sw_arc.c ****     area_out.y2 = center->y + radius - 1;
 2188              		.loc 1 87 17 view .LVU874
 2189 0086 ADF8F420 		strh	r2, [sp, #244]	@ movhi
  88:Drivers/lvgl/src/draw/sw/lv_draw_sw_arc.c **** 
 2190              		.loc 1 88 5 is_stmt 1 view .LVU875
  88:Drivers/lvgl/src/draw/sw/lv_draw_sw_arc.c **** 
 2191              		.loc 1 88 29 is_stmt 0 view .LVU876
 2192 008a 3944     		add	r1, r1, r7
 2193 008c 89B2     		uxth	r1, r1
  88:Drivers/lvgl/src/draw/sw/lv_draw_sw_arc.c **** 
 2194              		.loc 1 88 38 view .LVU877
 2195 008e 0139     		subs	r1, r1, #1
 2196 0090 88B2     		uxth	r0, r1
 2197 0092 09B2     		sxth	r1, r1
  88:Drivers/lvgl/src/draw/sw/lv_draw_sw_arc.c **** 
 2198              		.loc 1 88 17 view .LVU878
 2199 0094 ADF8F610 		strh	r1, [sp, #246]	@ movhi
  90:Drivers/lvgl/src/draw/sw/lv_draw_sw_arc.c ****     lv_area_copy(&area_in, &area_out);
 2200              		.loc 1 90 5 is_stmt 1 view .LVU879
  91:Drivers/lvgl/src/draw/sw/lv_draw_sw_arc.c ****     area_in.x1 += dsc->width;
 2201              		.loc 1 91 5 view .LVU880
 2202              	.LVL144:
 2203              	.LBB28:
 2204              	.LBI28:
 2205              		.file 2 "Drivers/lvgl/src/draw/sw/../../misc/lv_area.h"
   1:Drivers/lvgl/src/draw/sw/../../misc/lv_area.h **** /**
   2:Drivers/lvgl/src/draw/sw/../../misc/lv_area.h ****  * @file lv_area.h
   3:Drivers/lvgl/src/draw/sw/../../misc/lv_area.h ****  *
   4:Drivers/lvgl/src/draw/sw/../../misc/lv_area.h ****  */
   5:Drivers/lvgl/src/draw/sw/../../misc/lv_area.h **** 
   6:Drivers/lvgl/src/draw/sw/../../misc/lv_area.h **** #ifndef LV_AREA_H
   7:Drivers/lvgl/src/draw/sw/../../misc/lv_area.h **** #define LV_AREA_H
   8:Drivers/lvgl/src/draw/sw/../../misc/lv_area.h **** 
   9:Drivers/lvgl/src/draw/sw/../../misc/lv_area.h **** #ifdef __cplusplus
  10:Drivers/lvgl/src/draw/sw/../../misc/lv_area.h **** extern "C" {
  11:Drivers/lvgl/src/draw/sw/../../misc/lv_area.h **** #endif
  12:Drivers/lvgl/src/draw/sw/../../misc/lv_area.h **** 
ARM GAS  /var/folders/lp/x54gwt890xv47sdkqj1k04q40000gn/T//cc8BXUdH.s 			page 62


  13:Drivers/lvgl/src/draw/sw/../../misc/lv_area.h **** /*********************
  14:Drivers/lvgl/src/draw/sw/../../misc/lv_area.h ****  *      INCLUDES
  15:Drivers/lvgl/src/draw/sw/../../misc/lv_area.h ****  *********************/
  16:Drivers/lvgl/src/draw/sw/../../misc/lv_area.h **** #include "../lv_conf_internal.h"
  17:Drivers/lvgl/src/draw/sw/../../misc/lv_area.h **** #include <stdbool.h>
  18:Drivers/lvgl/src/draw/sw/../../misc/lv_area.h **** #include <stdint.h>
  19:Drivers/lvgl/src/draw/sw/../../misc/lv_area.h **** 
  20:Drivers/lvgl/src/draw/sw/../../misc/lv_area.h **** /*********************
  21:Drivers/lvgl/src/draw/sw/../../misc/lv_area.h ****  *      DEFINES
  22:Drivers/lvgl/src/draw/sw/../../misc/lv_area.h ****  *********************/
  23:Drivers/lvgl/src/draw/sw/../../misc/lv_area.h **** 
  24:Drivers/lvgl/src/draw/sw/../../misc/lv_area.h **** #if LV_USE_LARGE_COORD
  25:Drivers/lvgl/src/draw/sw/../../misc/lv_area.h **** typedef int32_t lv_coord_t;
  26:Drivers/lvgl/src/draw/sw/../../misc/lv_area.h **** #else
  27:Drivers/lvgl/src/draw/sw/../../misc/lv_area.h **** typedef int16_t lv_coord_t;
  28:Drivers/lvgl/src/draw/sw/../../misc/lv_area.h **** #endif
  29:Drivers/lvgl/src/draw/sw/../../misc/lv_area.h **** 
  30:Drivers/lvgl/src/draw/sw/../../misc/lv_area.h **** /**********************
  31:Drivers/lvgl/src/draw/sw/../../misc/lv_area.h ****  *      TYPEDEFS
  32:Drivers/lvgl/src/draw/sw/../../misc/lv_area.h ****  **********************/
  33:Drivers/lvgl/src/draw/sw/../../misc/lv_area.h **** 
  34:Drivers/lvgl/src/draw/sw/../../misc/lv_area.h **** /**
  35:Drivers/lvgl/src/draw/sw/../../misc/lv_area.h ****  * Represents a point on the screen.
  36:Drivers/lvgl/src/draw/sw/../../misc/lv_area.h ****  */
  37:Drivers/lvgl/src/draw/sw/../../misc/lv_area.h **** typedef struct {
  38:Drivers/lvgl/src/draw/sw/../../misc/lv_area.h ****     lv_coord_t x;
  39:Drivers/lvgl/src/draw/sw/../../misc/lv_area.h ****     lv_coord_t y;
  40:Drivers/lvgl/src/draw/sw/../../misc/lv_area.h **** } lv_point_t;
  41:Drivers/lvgl/src/draw/sw/../../misc/lv_area.h **** 
  42:Drivers/lvgl/src/draw/sw/../../misc/lv_area.h **** /** Represents an area of the screen.*/
  43:Drivers/lvgl/src/draw/sw/../../misc/lv_area.h **** typedef struct {
  44:Drivers/lvgl/src/draw/sw/../../misc/lv_area.h ****     lv_coord_t x1;
  45:Drivers/lvgl/src/draw/sw/../../misc/lv_area.h ****     lv_coord_t y1;
  46:Drivers/lvgl/src/draw/sw/../../misc/lv_area.h ****     lv_coord_t x2;
  47:Drivers/lvgl/src/draw/sw/../../misc/lv_area.h ****     lv_coord_t y2;
  48:Drivers/lvgl/src/draw/sw/../../misc/lv_area.h **** } lv_area_t;
  49:Drivers/lvgl/src/draw/sw/../../misc/lv_area.h **** 
  50:Drivers/lvgl/src/draw/sw/../../misc/lv_area.h **** /** Alignments*/
  51:Drivers/lvgl/src/draw/sw/../../misc/lv_area.h **** enum {
  52:Drivers/lvgl/src/draw/sw/../../misc/lv_area.h ****     LV_ALIGN_DEFAULT = 0,
  53:Drivers/lvgl/src/draw/sw/../../misc/lv_area.h ****     LV_ALIGN_TOP_LEFT,
  54:Drivers/lvgl/src/draw/sw/../../misc/lv_area.h ****     LV_ALIGN_TOP_MID,
  55:Drivers/lvgl/src/draw/sw/../../misc/lv_area.h ****     LV_ALIGN_TOP_RIGHT,
  56:Drivers/lvgl/src/draw/sw/../../misc/lv_area.h ****     LV_ALIGN_BOTTOM_LEFT,
  57:Drivers/lvgl/src/draw/sw/../../misc/lv_area.h ****     LV_ALIGN_BOTTOM_MID,
  58:Drivers/lvgl/src/draw/sw/../../misc/lv_area.h ****     LV_ALIGN_BOTTOM_RIGHT,
  59:Drivers/lvgl/src/draw/sw/../../misc/lv_area.h ****     LV_ALIGN_LEFT_MID,
  60:Drivers/lvgl/src/draw/sw/../../misc/lv_area.h ****     LV_ALIGN_RIGHT_MID,
  61:Drivers/lvgl/src/draw/sw/../../misc/lv_area.h ****     LV_ALIGN_CENTER,
  62:Drivers/lvgl/src/draw/sw/../../misc/lv_area.h **** 
  63:Drivers/lvgl/src/draw/sw/../../misc/lv_area.h ****     LV_ALIGN_OUT_TOP_LEFT,
  64:Drivers/lvgl/src/draw/sw/../../misc/lv_area.h ****     LV_ALIGN_OUT_TOP_MID,
  65:Drivers/lvgl/src/draw/sw/../../misc/lv_area.h ****     LV_ALIGN_OUT_TOP_RIGHT,
  66:Drivers/lvgl/src/draw/sw/../../misc/lv_area.h ****     LV_ALIGN_OUT_BOTTOM_LEFT,
  67:Drivers/lvgl/src/draw/sw/../../misc/lv_area.h ****     LV_ALIGN_OUT_BOTTOM_MID,
  68:Drivers/lvgl/src/draw/sw/../../misc/lv_area.h ****     LV_ALIGN_OUT_BOTTOM_RIGHT,
  69:Drivers/lvgl/src/draw/sw/../../misc/lv_area.h ****     LV_ALIGN_OUT_LEFT_TOP,
ARM GAS  /var/folders/lp/x54gwt890xv47sdkqj1k04q40000gn/T//cc8BXUdH.s 			page 63


  70:Drivers/lvgl/src/draw/sw/../../misc/lv_area.h ****     LV_ALIGN_OUT_LEFT_MID,
  71:Drivers/lvgl/src/draw/sw/../../misc/lv_area.h ****     LV_ALIGN_OUT_LEFT_BOTTOM,
  72:Drivers/lvgl/src/draw/sw/../../misc/lv_area.h ****     LV_ALIGN_OUT_RIGHT_TOP,
  73:Drivers/lvgl/src/draw/sw/../../misc/lv_area.h ****     LV_ALIGN_OUT_RIGHT_MID,
  74:Drivers/lvgl/src/draw/sw/../../misc/lv_area.h ****     LV_ALIGN_OUT_RIGHT_BOTTOM,
  75:Drivers/lvgl/src/draw/sw/../../misc/lv_area.h **** };
  76:Drivers/lvgl/src/draw/sw/../../misc/lv_area.h **** typedef uint8_t lv_align_t;
  77:Drivers/lvgl/src/draw/sw/../../misc/lv_area.h **** 
  78:Drivers/lvgl/src/draw/sw/../../misc/lv_area.h **** enum {
  79:Drivers/lvgl/src/draw/sw/../../misc/lv_area.h ****     LV_DIR_NONE     = 0x00,
  80:Drivers/lvgl/src/draw/sw/../../misc/lv_area.h ****     LV_DIR_LEFT     = (1 << 0),
  81:Drivers/lvgl/src/draw/sw/../../misc/lv_area.h ****     LV_DIR_RIGHT    = (1 << 1),
  82:Drivers/lvgl/src/draw/sw/../../misc/lv_area.h ****     LV_DIR_TOP      = (1 << 2),
  83:Drivers/lvgl/src/draw/sw/../../misc/lv_area.h ****     LV_DIR_BOTTOM   = (1 << 3),
  84:Drivers/lvgl/src/draw/sw/../../misc/lv_area.h ****     LV_DIR_HOR      = LV_DIR_LEFT | LV_DIR_RIGHT,
  85:Drivers/lvgl/src/draw/sw/../../misc/lv_area.h ****     LV_DIR_VER      = LV_DIR_TOP | LV_DIR_BOTTOM,
  86:Drivers/lvgl/src/draw/sw/../../misc/lv_area.h ****     LV_DIR_ALL      = LV_DIR_HOR | LV_DIR_VER,
  87:Drivers/lvgl/src/draw/sw/../../misc/lv_area.h **** };
  88:Drivers/lvgl/src/draw/sw/../../misc/lv_area.h **** 
  89:Drivers/lvgl/src/draw/sw/../../misc/lv_area.h **** typedef uint8_t lv_dir_t;
  90:Drivers/lvgl/src/draw/sw/../../misc/lv_area.h **** 
  91:Drivers/lvgl/src/draw/sw/../../misc/lv_area.h **** /**********************
  92:Drivers/lvgl/src/draw/sw/../../misc/lv_area.h ****  * GLOBAL PROTOTYPES
  93:Drivers/lvgl/src/draw/sw/../../misc/lv_area.h ****  **********************/
  94:Drivers/lvgl/src/draw/sw/../../misc/lv_area.h **** 
  95:Drivers/lvgl/src/draw/sw/../../misc/lv_area.h **** /**
  96:Drivers/lvgl/src/draw/sw/../../misc/lv_area.h ****  * Initialize an area
  97:Drivers/lvgl/src/draw/sw/../../misc/lv_area.h ****  * @param area_p pointer to an area
  98:Drivers/lvgl/src/draw/sw/../../misc/lv_area.h ****  * @param x1 left coordinate of the area
  99:Drivers/lvgl/src/draw/sw/../../misc/lv_area.h ****  * @param y1 top coordinate of the area
 100:Drivers/lvgl/src/draw/sw/../../misc/lv_area.h ****  * @param x2 right coordinate of the area
 101:Drivers/lvgl/src/draw/sw/../../misc/lv_area.h ****  * @param y2 bottom coordinate of the area
 102:Drivers/lvgl/src/draw/sw/../../misc/lv_area.h ****  */
 103:Drivers/lvgl/src/draw/sw/../../misc/lv_area.h **** void lv_area_set(lv_area_t * area_p, lv_coord_t x1, lv_coord_t y1, lv_coord_t x2, lv_coord_t y2);
 104:Drivers/lvgl/src/draw/sw/../../misc/lv_area.h **** 
 105:Drivers/lvgl/src/draw/sw/../../misc/lv_area.h **** /**
 106:Drivers/lvgl/src/draw/sw/../../misc/lv_area.h ****  * Copy an area
 107:Drivers/lvgl/src/draw/sw/../../misc/lv_area.h ****  * @param dest pointer to the destination area
 108:Drivers/lvgl/src/draw/sw/../../misc/lv_area.h ****  * @param src pointer to the source area
 109:Drivers/lvgl/src/draw/sw/../../misc/lv_area.h ****  */
 110:Drivers/lvgl/src/draw/sw/../../misc/lv_area.h **** inline static void lv_area_copy(lv_area_t * dest, const lv_area_t * src)
 2206              		.loc 2 110 20 view .LVU881
 2207              	.LBB29:
 111:Drivers/lvgl/src/draw/sw/../../misc/lv_area.h **** {
 112:Drivers/lvgl/src/draw/sw/../../misc/lv_area.h ****     dest->x1 = src->x1;
 2208              		.loc 2 112 5 view .LVU882
 2209              		.loc 2 112 14 is_stmt 0 view .LVU883
 2210 0098 ADF8E8B0 		strh	fp, [sp, #232]	@ movhi
 113:Drivers/lvgl/src/draw/sw/../../misc/lv_area.h ****     dest->y1 = src->y1;
 2211              		.loc 2 113 5 is_stmt 1 view .LVU884
 2212              		.loc 2 113 14 is_stmt 0 view .LVU885
 2213 009c ADF8EAA0 		strh	r10, [sp, #234]	@ movhi
 114:Drivers/lvgl/src/draw/sw/../../misc/lv_area.h ****     dest->x2 = src->x2;
 2214              		.loc 2 114 5 is_stmt 1 view .LVU886
 2215              		.loc 2 114 14 is_stmt 0 view .LVU887
 2216 00a0 ADF8EC20 		strh	r2, [sp, #236]	@ movhi
 115:Drivers/lvgl/src/draw/sw/../../misc/lv_area.h ****     dest->y2 = src->y2;
ARM GAS  /var/folders/lp/x54gwt890xv47sdkqj1k04q40000gn/T//cc8BXUdH.s 			page 64


 2217              		.loc 2 115 5 is_stmt 1 view .LVU888
 2218              		.loc 2 115 14 is_stmt 0 view .LVU889
 2219 00a4 ADF8EE10 		strh	r1, [sp, #238]	@ movhi
 2220              	.LVL145:
 2221              		.loc 2 115 14 view .LVU890
 2222              	.LBE29:
 2223              	.LBE28:
  92:Drivers/lvgl/src/draw/sw/lv_draw_sw_arc.c ****     area_in.y1 += dsc->width;
 2224              		.loc 1 92 5 is_stmt 1 view .LVU891
  92:Drivers/lvgl/src/draw/sw/lv_draw_sw_arc.c ****     area_in.y1 += dsc->width;
 2225              		.loc 1 92 22 is_stmt 0 view .LVU892
 2226 00a8 7288     		ldrh	r2, [r6, #2]
  92:Drivers/lvgl/src/draw/sw/lv_draw_sw_arc.c ****     area_in.y1 += dsc->width;
 2227              		.loc 1 92 16 view .LVU893
 2228 00aa 12FA8CFC 		uxtah	ip, r2, ip
 2229 00ae 1FFA8CFC 		uxth	ip, ip
 2230 00b2 ADF8E8C0 		strh	ip, [sp, #232]	@ movhi
  93:Drivers/lvgl/src/draw/sw/lv_draw_sw_arc.c ****     area_in.x2 -= dsc->width;
 2231              		.loc 1 93 5 is_stmt 1 view .LVU894
  93:Drivers/lvgl/src/draw/sw/lv_draw_sw_arc.c ****     area_in.x2 -= dsc->width;
 2232              		.loc 1 93 16 is_stmt 0 view .LVU895
 2233 00b6 12FA8EFE 		uxtah	lr, r2, lr
 2234 00ba 1FFA8EFE 		uxth	lr, lr
 2235 00be ADF8EAE0 		strh	lr, [sp, #234]	@ movhi
  94:Drivers/lvgl/src/draw/sw/lv_draw_sw_arc.c ****     area_in.y2 -= dsc->width;
 2236              		.loc 1 94 5 is_stmt 1 view .LVU896
  94:Drivers/lvgl/src/draw/sw/lv_draw_sw_arc.c ****     area_in.y2 -= dsc->width;
 2237              		.loc 1 94 16 is_stmt 0 view .LVU897
 2238 00c2 9B1A     		subs	r3, r3, r2
 2239 00c4 9BB2     		uxth	r3, r3
 2240 00c6 ADF8EC30 		strh	r3, [sp, #236]	@ movhi
  95:Drivers/lvgl/src/draw/sw/lv_draw_sw_arc.c **** 
 2241              		.loc 1 95 5 is_stmt 1 view .LVU898
  95:Drivers/lvgl/src/draw/sw/lv_draw_sw_arc.c **** 
 2242              		.loc 1 95 16 is_stmt 0 view .LVU899
 2243 00ca 801A     		subs	r0, r0, r2
 2244 00cc 80B2     		uxth	r0, r0
 2245 00ce ADF8EE00 		strh	r0, [sp, #238]	@ movhi
  98:Drivers/lvgl/src/draw/sw/lv_draw_sw_arc.c ****     lv_draw_mask_radius_param_t mask_in_param;
 2246              		.loc 1 98 5 is_stmt 1 view .LVU900
 2247              	.LVL146:
  99:Drivers/lvgl/src/draw/sw/lv_draw_sw_arc.c ****     bool mask_in_param_valid = false;
 2248              		.loc 1 99 5 view .LVU901
 100:Drivers/lvgl/src/draw/sw/lv_draw_sw_arc.c ****     if(lv_area_get_width(&area_in) > 0 && lv_area_get_height(&area_in) > 0) {
 2249              		.loc 1 100 5 view .LVU902
 101:Drivers/lvgl/src/draw/sw/lv_draw_sw_arc.c ****         lv_draw_mask_radius_init(&mask_in_param, &area_in, LV_RADIUS_CIRCLE, true);
 2250              		.loc 1 101 5 view .LVU903
 2251              	.LBB30:
 2252              	.LBI30:
 116:Drivers/lvgl/src/draw/sw/../../misc/lv_area.h **** }
 117:Drivers/lvgl/src/draw/sw/../../misc/lv_area.h **** 
 118:Drivers/lvgl/src/draw/sw/../../misc/lv_area.h **** /**
 119:Drivers/lvgl/src/draw/sw/../../misc/lv_area.h ****  * Get the width of an area
 120:Drivers/lvgl/src/draw/sw/../../misc/lv_area.h ****  * @param area_p pointer to an area
 121:Drivers/lvgl/src/draw/sw/../../misc/lv_area.h ****  * @return the width of the area (if x1 == x2 -> width = 1)
 122:Drivers/lvgl/src/draw/sw/../../misc/lv_area.h ****  */
 123:Drivers/lvgl/src/draw/sw/../../misc/lv_area.h **** static inline lv_coord_t lv_area_get_width(const lv_area_t * area_p)
ARM GAS  /var/folders/lp/x54gwt890xv47sdkqj1k04q40000gn/T//cc8BXUdH.s 			page 65


 2253              		.loc 2 123 26 view .LVU904
 2254              	.LBB31:
 124:Drivers/lvgl/src/draw/sw/../../misc/lv_area.h **** {
 125:Drivers/lvgl/src/draw/sw/../../misc/lv_area.h ****     return (lv_coord_t)(area_p->x2 - area_p->x1 + 1);
 2255              		.loc 2 125 5 view .LVU905
 2256              		.loc 2 125 36 is_stmt 0 view .LVU906
 2257 00d2 A3EB0C03 		sub	r3, r3, ip
 2258 00d6 9BB2     		uxth	r3, r3
 2259              		.loc 2 125 49 view .LVU907
 2260 00d8 0133     		adds	r3, r3, #1
 2261              		.loc 2 125 12 view .LVU908
 2262 00da 1BB2     		sxth	r3, r3
 2263              	.LVL147:
 2264              		.loc 2 125 12 view .LVU909
 2265              	.LBE31:
 2266              	.LBE30:
 101:Drivers/lvgl/src/draw/sw/lv_draw_sw_arc.c ****         lv_draw_mask_radius_init(&mask_in_param, &area_in, LV_RADIUS_CIRCLE, true);
 2267              		.loc 1 101 7 discriminator 1 view .LVU910
 2268 00dc 002B     		cmp	r3, #0
 2269 00de 21DD     		ble	.L95
 2270              	.LVL148:
 2271              	.LBB32:
 2272              	.LBI32:
 126:Drivers/lvgl/src/draw/sw/../../misc/lv_area.h **** }
 127:Drivers/lvgl/src/draw/sw/../../misc/lv_area.h **** 
 128:Drivers/lvgl/src/draw/sw/../../misc/lv_area.h **** /**
 129:Drivers/lvgl/src/draw/sw/../../misc/lv_area.h ****  * Get the height of an area
 130:Drivers/lvgl/src/draw/sw/../../misc/lv_area.h ****  * @param area_p pointer to an area
 131:Drivers/lvgl/src/draw/sw/../../misc/lv_area.h ****  * @return the height of the area (if y1 == y2 -> height = 1)
 132:Drivers/lvgl/src/draw/sw/../../misc/lv_area.h ****  */
 133:Drivers/lvgl/src/draw/sw/../../misc/lv_area.h **** static inline lv_coord_t lv_area_get_height(const lv_area_t * area_p)
 2273              		.loc 2 133 26 is_stmt 1 view .LVU911
 2274              	.LBB33:
 134:Drivers/lvgl/src/draw/sw/../../misc/lv_area.h **** {
 135:Drivers/lvgl/src/draw/sw/../../misc/lv_area.h ****     return (lv_coord_t)(area_p->y2 - area_p->y1 + 1);
 2275              		.loc 2 135 5 view .LVU912
 2276              		.loc 2 135 36 is_stmt 0 view .LVU913
 2277 00e0 A0EB0E03 		sub	r3, r0, lr
 2278 00e4 9BB2     		uxth	r3, r3
 2279              		.loc 2 135 49 view .LVU914
 2280 00e6 0133     		adds	r3, r3, #1
 2281              		.loc 2 135 12 view .LVU915
 2282 00e8 1BB2     		sxth	r3, r3
 2283              	.LVL149:
 2284              		.loc 2 135 12 view .LVU916
 2285              	.LBE33:
 2286              	.LBE32:
 101:Drivers/lvgl/src/draw/sw/lv_draw_sw_arc.c ****         lv_draw_mask_radius_init(&mask_in_param, &area_in, LV_RADIUS_CIRCLE, true);
 2287              		.loc 1 101 40 discriminator 1 view .LVU917
 2288 00ea 002B     		cmp	r3, #0
 2289 00ec 0BDC     		bgt	.L99
 100:Drivers/lvgl/src/draw/sw/lv_draw_sw_arc.c ****     if(lv_area_get_width(&area_in) > 0 && lv_area_get_height(&area_in) > 0) {
 2290              		.loc 1 100 10 view .LVU918
 2291 00ee 0023     		movs	r3, #0
 2292 00f0 0493     		str	r3, [sp, #16]
  98:Drivers/lvgl/src/draw/sw/lv_draw_sw_arc.c ****     lv_draw_mask_radius_param_t mask_in_param;
 2293              		.loc 1 98 13 view .LVU919
ARM GAS  /var/folders/lp/x54gwt890xv47sdkqj1k04q40000gn/T//cc8BXUdH.s 			page 66


 2294 00f2 4FF0FF3A 		mov	r10, #-1
 2295 00f6 19E0     		b	.L77
 2296              	.LVL150:
 2297              	.L75:
  80:Drivers/lvgl/src/draw/sw/lv_draw_sw_arc.c ****         cir_dsc.bg_color = dsc->color;
 2298              		.loc 1 80 9 is_stmt 1 view .LVU920
  80:Drivers/lvgl/src/draw/sw/lv_draw_sw_arc.c ****         cir_dsc.bg_color = dsc->color;
 2299              		.loc 1 80 29 is_stmt 0 view .LVU921
 2300 00f8 337B     		ldrb	r3, [r6, #12]	@ zero_extendqisi2
  80:Drivers/lvgl/src/draw/sw/lv_draw_sw_arc.c ****         cir_dsc.bg_color = dsc->color;
 2301              		.loc 1 80 24 view .LVU922
 2302 00fa 8DF8FB30 		strb	r3, [sp, #251]
  81:Drivers/lvgl/src/draw/sw/lv_draw_sw_arc.c ****     }
 2303              		.loc 1 81 9 is_stmt 1 view .LVU923
  81:Drivers/lvgl/src/draw/sw/lv_draw_sw_arc.c ****     }
 2304              		.loc 1 81 26 is_stmt 0 view .LVU924
 2305 00fe 3388     		ldrh	r3, [r6]
 2306 0100 ADF8FC30 		strh	r3, [sp, #252]	@ movhi
 2307 0104 AAE7     		b	.L76
 2308              	.LVL151:
 2309              	.L99:
 102:Drivers/lvgl/src/draw/sw/lv_draw_sw_arc.c ****         mask_in_param_valid = true;
 2310              		.loc 1 102 9 is_stmt 1 view .LVU925
 2311 0106 0123     		movs	r3, #1
 2312 0108 47F6FF72 		movw	r2, #32767
 2313 010c 3AA9     		add	r1, sp, #232
 2314 010e 34A8     		add	r0, sp, #208
 2315 0110 FFF7FEFF 		bl	lv_draw_mask_radius_init
 2316              	.LVL152:
 103:Drivers/lvgl/src/draw/sw/lv_draw_sw_arc.c ****         mask_in_id = lv_draw_mask_add(&mask_in_param, NULL);
 2317              		.loc 1 103 9 view .LVU926
 104:Drivers/lvgl/src/draw/sw/lv_draw_sw_arc.c ****     }
 2318              		.loc 1 104 9 view .LVU927
 104:Drivers/lvgl/src/draw/sw/lv_draw_sw_arc.c ****     }
 2319              		.loc 1 104 22 is_stmt 0 view .LVU928
 2320 0114 0021     		movs	r1, #0
 2321 0116 34A8     		add	r0, sp, #208
 2322 0118 FFF7FEFF 		bl	lv_draw_mask_add
 2323              	.LVL153:
 2324 011c 8246     		mov	r10, r0
 2325              	.LVL154:
 103:Drivers/lvgl/src/draw/sw/lv_draw_sw_arc.c ****         mask_in_id = lv_draw_mask_add(&mask_in_param, NULL);
 2326              		.loc 1 103 29 view .LVU929
 2327 011e 0123     		movs	r3, #1
 2328 0120 0493     		str	r3, [sp, #16]
 2329 0122 03E0     		b	.L77
 2330              	.LVL155:
 2331              	.L95:
 100:Drivers/lvgl/src/draw/sw/lv_draw_sw_arc.c ****     if(lv_area_get_width(&area_in) > 0 && lv_area_get_height(&area_in) > 0) {
 2332              		.loc 1 100 10 view .LVU930
 2333 0124 0023     		movs	r3, #0
 2334 0126 0493     		str	r3, [sp, #16]
  98:Drivers/lvgl/src/draw/sw/lv_draw_sw_arc.c ****     lv_draw_mask_radius_param_t mask_in_param;
 2335              		.loc 1 98 13 view .LVU931
 2336 0128 4FF0FF3A 		mov	r10, #-1
 2337              	.LVL156:
 2338              	.L77:
ARM GAS  /var/folders/lp/x54gwt890xv47sdkqj1k04q40000gn/T//cc8BXUdH.s 			page 67


 107:Drivers/lvgl/src/draw/sw/lv_draw_sw_arc.c ****     lv_draw_mask_radius_init(&mask_out_param, &area_out, LV_RADIUS_CIRCLE, false);
 2339              		.loc 1 107 5 is_stmt 1 view .LVU932
 108:Drivers/lvgl/src/draw/sw/lv_draw_sw_arc.c ****     int16_t mask_out_id = lv_draw_mask_add(&mask_out_param, NULL);
 2340              		.loc 1 108 5 view .LVU933
 2341 012c 0023     		movs	r3, #0
 2342 012e 47F6FF72 		movw	r2, #32767
 2343 0132 3CA9     		add	r1, sp, #240
 2344 0134 2EA8     		add	r0, sp, #184
 2345 0136 FFF7FEFF 		bl	lv_draw_mask_radius_init
 2346              	.LVL157:
 109:Drivers/lvgl/src/draw/sw/lv_draw_sw_arc.c **** 
 2347              		.loc 1 109 5 view .LVU934
 109:Drivers/lvgl/src/draw/sw/lv_draw_sw_arc.c **** 
 2348              		.loc 1 109 27 is_stmt 0 view .LVU935
 2349 013a 0021     		movs	r1, #0
 2350 013c 2EA8     		add	r0, sp, #184
 2351 013e FFF7FEFF 		bl	lv_draw_mask_add
 2352              	.LVL158:
 2353 0142 0390     		str	r0, [sp, #12]
 2354              	.LVL159:
 112:Drivers/lvgl/src/draw/sw/lv_draw_sw_arc.c ****         cir_dsc.radius = LV_RADIUS_CIRCLE;
 2355              		.loc 1 112 5 is_stmt 1 view .LVU936
 112:Drivers/lvgl/src/draw/sw/lv_draw_sw_arc.c ****         cir_dsc.radius = LV_RADIUS_CIRCLE;
 2356              		.loc 1 112 20 is_stmt 0 view .LVU937
 2357 0144 05F5B473 		add	r3, r5, #360
 112:Drivers/lvgl/src/draw/sw/lv_draw_sw_arc.c ****         cir_dsc.radius = LV_RADIUS_CIRCLE;
 2358              		.loc 1 112 7 view .LVU938
 2359 0148 A342     		cmp	r3, r4
 2360 014a 03D0     		beq	.L78
 112:Drivers/lvgl/src/draw/sw/lv_draw_sw_arc.c ****         cir_dsc.radius = LV_RADIUS_CIRCLE;
 2361              		.loc 1 112 67 discriminator 1 view .LVU939
 2362 014c 04F5B473 		add	r3, r4, #360
 112:Drivers/lvgl/src/draw/sw/lv_draw_sw_arc.c ****         cir_dsc.radius = LV_RADIUS_CIRCLE;
 2363              		.loc 1 112 39 discriminator 1 view .LVU940
 2364 0150 9D42     		cmp	r5, r3
 2365 0152 1FD1     		bne	.L79
 2366              	.L78:
 113:Drivers/lvgl/src/draw/sw/lv_draw_sw_arc.c ****         lv_draw_rect(draw_ctx, &cir_dsc, &area_out);
 2367              		.loc 1 113 9 is_stmt 1 view .LVU941
 113:Drivers/lvgl/src/draw/sw/lv_draw_sw_arc.c ****         lv_draw_rect(draw_ctx, &cir_dsc, &area_out);
 2368              		.loc 1 113 24 is_stmt 0 view .LVU942
 2369 0154 47F6FF73 		movw	r3, #32767
 2370 0158 ADF8F830 		strh	r3, [sp, #248]	@ movhi
 114:Drivers/lvgl/src/draw/sw/lv_draw_sw_arc.c **** 
 2371              		.loc 1 114 9 is_stmt 1 view .LVU943
 2372 015c 3CAA     		add	r2, sp, #240
 2373 015e 3EA9     		add	r1, sp, #248
 2374 0160 0298     		ldr	r0, [sp, #8]
 2375 0162 FFF7FEFF 		bl	lv_draw_rect
 2376              	.LVL160:
 116:Drivers/lvgl/src/draw/sw/lv_draw_sw_arc.c ****         if(mask_in_id != LV_MASK_ID_INV) lv_draw_mask_remove_id(mask_in_id);
 2377              		.loc 1 116 9 view .LVU944
 2378 0166 0398     		ldr	r0, [sp, #12]
 2379 0168 FFF7FEFF 		bl	lv_draw_mask_remove_id
 2380              	.LVL161:
 117:Drivers/lvgl/src/draw/sw/lv_draw_sw_arc.c **** 
 2381              		.loc 1 117 9 view .LVU945
ARM GAS  /var/folders/lp/x54gwt890xv47sdkqj1k04q40000gn/T//cc8BXUdH.s 			page 68


 117:Drivers/lvgl/src/draw/sw/lv_draw_sw_arc.c **** 
 2382              		.loc 1 117 11 is_stmt 0 view .LVU946
 2383 016c BAF1FF3F 		cmp	r10, #-1
 2384 0170 09D1     		bne	.L100
 2385              	.L80:
 119:Drivers/lvgl/src/draw/sw/lv_draw_sw_arc.c ****         if(mask_in_param_valid) {
 2386              		.loc 1 119 9 is_stmt 1 view .LVU947
 2387 0172 2EA8     		add	r0, sp, #184
 2388 0174 FFF7FEFF 		bl	lv_draw_mask_free_param
 2389              	.LVL162:
 120:Drivers/lvgl/src/draw/sw/lv_draw_sw_arc.c ****             lv_draw_mask_free_param(&mask_in_param);
 2390              		.loc 1 120 9 view .LVU948
 120:Drivers/lvgl/src/draw/sw/lv_draw_sw_arc.c ****             lv_draw_mask_free_param(&mask_in_param);
 2391              		.loc 1 120 11 is_stmt 0 view .LVU949
 2392 0178 049B     		ldr	r3, [sp, #16]
 2393 017a 002B     		cmp	r3, #0
 2394 017c 4DD0     		beq	.L72
 121:Drivers/lvgl/src/draw/sw/lv_draw_sw_arc.c ****         }
 2395              		.loc 1 121 13 is_stmt 1 view .LVU950
 2396 017e 34A8     		add	r0, sp, #208
 2397 0180 FFF7FEFF 		bl	lv_draw_mask_free_param
 2398              	.LVL163:
 124:Drivers/lvgl/src/draw/sw/lv_draw_sw_arc.c ****     }
 2399              		.loc 1 124 9 view .LVU951
 2400 0184 49E0     		b	.L72
 2401              	.L100:
 117:Drivers/lvgl/src/draw/sw/lv_draw_sw_arc.c **** 
 2402              		.loc 1 117 42 discriminator 1 view .LVU952
 2403 0186 5046     		mov	r0, r10
 2404 0188 FFF7FEFF 		bl	lv_draw_mask_remove_id
 2405              	.LVL164:
 2406 018c F1E7     		b	.L80
 2407              	.LVL165:
 2408              	.L82:
 127:Drivers/lvgl/src/draw/sw/lv_draw_sw_arc.c ****     while(end_angle >= 360) end_angle -= 360;
 2409              		.loc 1 127 31 discriminator 2 view .LVU953
 127:Drivers/lvgl/src/draw/sw/lv_draw_sw_arc.c ****     while(end_angle >= 360) end_angle -= 360;
 2410              		.loc 1 127 43 is_stmt 0 discriminator 2 view .LVU954
 2411 018e A5F5B475 		sub	r5, r5, #360
 2412              	.LVL166:
 127:Drivers/lvgl/src/draw/sw/lv_draw_sw_arc.c ****     while(end_angle >= 360) end_angle -= 360;
 2413              		.loc 1 127 43 discriminator 2 view .LVU955
 2414 0192 ADB2     		uxth	r5, r5
 2415              	.LVL167:
 2416              	.L79:
 127:Drivers/lvgl/src/draw/sw/lv_draw_sw_arc.c ****     while(end_angle >= 360) end_angle -= 360;
 2417              		.loc 1 127 23 is_stmt 1 discriminator 1 view .LVU956
 2418 0194 B5F5B47F 		cmp	r5, #360
 2419 0198 F9D2     		bcs	.L82
 2420 019a 02E0     		b	.L83
 2421              	.LVL168:
 2422              	.L84:
 128:Drivers/lvgl/src/draw/sw/lv_draw_sw_arc.c **** 
 2423              		.loc 1 128 29 discriminator 2 view .LVU957
 128:Drivers/lvgl/src/draw/sw/lv_draw_sw_arc.c **** 
 2424              		.loc 1 128 39 is_stmt 0 discriminator 2 view .LVU958
 2425 019c A4F5B474 		sub	r4, r4, #360
ARM GAS  /var/folders/lp/x54gwt890xv47sdkqj1k04q40000gn/T//cc8BXUdH.s 			page 69


 2426              	.LVL169:
 128:Drivers/lvgl/src/draw/sw/lv_draw_sw_arc.c **** 
 2427              		.loc 1 128 39 discriminator 2 view .LVU959
 2428 01a0 A4B2     		uxth	r4, r4
 2429              	.LVL170:
 2430              	.L83:
 128:Drivers/lvgl/src/draw/sw/lv_draw_sw_arc.c **** 
 2431              		.loc 1 128 21 is_stmt 1 discriminator 1 view .LVU960
 2432 01a2 B4F5B47F 		cmp	r4, #360
 2433 01a6 F9D2     		bcs	.L84
 130:Drivers/lvgl/src/draw/sw/lv_draw_sw_arc.c ****     lv_draw_mask_angle_init(&mask_angle_param, center->x, center->y, start_angle, end_angle);
 2434              		.loc 1 130 5 view .LVU961
 131:Drivers/lvgl/src/draw/sw/lv_draw_sw_arc.c ****     int16_t mask_angle_id = lv_draw_mask_add(&mask_angle_param, NULL);
 2435              		.loc 1 131 5 view .LVU962
 2436 01a8 2BB2     		sxth	r3, r5
 2437 01aa 0793     		str	r3, [sp, #28]
 2438 01ac 0FFA84FB 		sxth	fp, r4
 2439 01b0 CDF800B0 		str	fp, [sp]
 2440 01b4 B8F90220 		ldrsh	r2, [r8, #2]
 2441 01b8 B8F90010 		ldrsh	r1, [r8]
 2442 01bc 13A8     		add	r0, sp, #76
 2443 01be FFF7FEFF 		bl	lv_draw_mask_angle_init
 2444              	.LVL171:
 132:Drivers/lvgl/src/draw/sw/lv_draw_sw_arc.c **** 
 2445              		.loc 1 132 5 view .LVU963
 132:Drivers/lvgl/src/draw/sw/lv_draw_sw_arc.c **** 
 2446              		.loc 1 132 29 is_stmt 0 view .LVU964
 2447 01c2 0021     		movs	r1, #0
 2448 01c4 13A8     		add	r0, sp, #76
 2449 01c6 FFF7FEFF 		bl	lv_draw_mask_add
 2450              	.LVL172:
 2451 01ca 0590     		str	r0, [sp, #20]
 2452              	.LVL173:
 134:Drivers/lvgl/src/draw/sw/lv_draw_sw_arc.c ****     if(end_angle > start_angle) {
 2453              		.loc 1 134 5 is_stmt 1 view .LVU965
 135:Drivers/lvgl/src/draw/sw/lv_draw_sw_arc.c ****         angle_gap = 360 - (end_angle - start_angle);
 2454              		.loc 1 135 5 view .LVU966
 135:Drivers/lvgl/src/draw/sw/lv_draw_sw_arc.c ****         angle_gap = 360 - (end_angle - start_angle);
 2455              		.loc 1 135 7 is_stmt 0 view .LVU967
 2456 01cc A542     		cmp	r5, r4
 2457 01ce 27D2     		bcs	.L85
 136:Drivers/lvgl/src/draw/sw/lv_draw_sw_arc.c ****     }
 2458              		.loc 1 136 9 is_stmt 1 view .LVU968
 136:Drivers/lvgl/src/draw/sw/lv_draw_sw_arc.c ****     }
 2459              		.loc 1 136 38 is_stmt 0 view .LVU969
 2460 01d0 631B     		subs	r3, r4, r5
 136:Drivers/lvgl/src/draw/sw/lv_draw_sw_arc.c ****     }
 2461              		.loc 1 136 19 view .LVU970
 2462 01d2 C3F5B473 		rsb	r3, r3, #360
 2463              	.LVL174:
 2464              	.L86:
 142:Drivers/lvgl/src/draw/sw/lv_draw_sw_arc.c **** 
 2465              		.loc 1 142 5 is_stmt 1 view .LVU971
 142:Drivers/lvgl/src/draw/sw/lv_draw_sw_arc.c **** 
 2466              		.loc 1 142 23 is_stmt 0 view .LVU972
 2467 01d6 029A     		ldr	r2, [sp, #8]
 2468 01d8 9268     		ldr	r2, [r2, #8]
ARM GAS  /var/folders/lp/x54gwt890xv47sdkqj1k04q40000gn/T//cc8BXUdH.s 			page 70


 2469 01da 0692     		str	r2, [sp, #24]
 2470              	.LVL175:
 144:Drivers/lvgl/src/draw/sw/lv_draw_sw_arc.c ****         /*Handle each quarter individually and skip which is empty*/
 2471              		.loc 1 144 5 is_stmt 1 view .LVU973
 144:Drivers/lvgl/src/draw/sw/lv_draw_sw_arc.c ****         /*Handle each quarter individually and skip which is empty*/
 2472              		.loc 1 144 7 is_stmt 0 view .LVU974
 2473 01dc 3C2B     		cmp	r3, #60
 2474 01de 01DD     		ble	.L87
 144:Drivers/lvgl/src/draw/sw/lv_draw_sw_arc.c ****         /*Handle each quarter individually and skip which is empty*/
 2475              		.loc 1 144 42 discriminator 1 view .LVU975
 2476 01e0 0A2F     		cmp	r7, #10
 2477 01e2 1FD8     		bhi	.L101
 2478              	.L87:
 164:Drivers/lvgl/src/draw/sw/lv_draw_sw_arc.c ****     }
 2479              		.loc 1 164 9 is_stmt 1 view .LVU976
 2480 01e4 3CAA     		add	r2, sp, #240
 2481              	.LVL176:
 164:Drivers/lvgl/src/draw/sw/lv_draw_sw_arc.c ****     }
 2482              		.loc 1 164 9 is_stmt 0 view .LVU977
 2483 01e6 3EA9     		add	r1, sp, #248
 2484 01e8 0298     		ldr	r0, [sp, #8]
 2485 01ea FFF7FEFF 		bl	lv_draw_rect
 2486              	.LVL177:
 2487              	.L88:
 167:Drivers/lvgl/src/draw/sw/lv_draw_sw_arc.c ****     lv_draw_mask_free_param(&mask_out_param);
 2488              		.loc 1 167 5 is_stmt 1 view .LVU978
 2489 01ee 13A8     		add	r0, sp, #76
 2490 01f0 FFF7FEFF 		bl	lv_draw_mask_free_param
 2491              	.LVL178:
 168:Drivers/lvgl/src/draw/sw/lv_draw_sw_arc.c ****     if(mask_in_param_valid) {
 2492              		.loc 1 168 5 view .LVU979
 2493 01f4 2EA8     		add	r0, sp, #184
 2494 01f6 FFF7FEFF 		bl	lv_draw_mask_free_param
 2495              	.LVL179:
 169:Drivers/lvgl/src/draw/sw/lv_draw_sw_arc.c ****         lv_draw_mask_free_param(&mask_in_param);
 2496              		.loc 1 169 5 view .LVU980
 169:Drivers/lvgl/src/draw/sw/lv_draw_sw_arc.c ****         lv_draw_mask_free_param(&mask_in_param);
 2497              		.loc 1 169 7 is_stmt 0 view .LVU981
 2498 01fa 049B     		ldr	r3, [sp, #16]
 2499 01fc 002B     		cmp	r3, #0
 2500 01fe 3DD1     		bne	.L102
 2501              	.L89:
 173:Drivers/lvgl/src/draw/sw/lv_draw_sw_arc.c ****     lv_draw_mask_remove_id(mask_out_id);
 2502              		.loc 1 173 5 is_stmt 1 view .LVU982
 2503 0200 0598     		ldr	r0, [sp, #20]
 2504 0202 FFF7FEFF 		bl	lv_draw_mask_remove_id
 2505              	.LVL180:
 174:Drivers/lvgl/src/draw/sw/lv_draw_sw_arc.c ****     if(mask_in_id != LV_MASK_ID_INV) lv_draw_mask_remove_id(mask_in_id);
 2506              		.loc 1 174 5 view .LVU983
 2507 0206 0398     		ldr	r0, [sp, #12]
 2508 0208 FFF7FEFF 		bl	lv_draw_mask_remove_id
 2509              	.LVL181:
 175:Drivers/lvgl/src/draw/sw/lv_draw_sw_arc.c **** 
 2510              		.loc 1 175 5 view .LVU984
 175:Drivers/lvgl/src/draw/sw/lv_draw_sw_arc.c **** 
 2511              		.loc 1 175 7 is_stmt 0 view .LVU985
 2512 020c BAF1FF3F 		cmp	r10, #-1
ARM GAS  /var/folders/lp/x54gwt890xv47sdkqj1k04q40000gn/T//cc8BXUdH.s 			page 71


 2513 0210 38D1     		bne	.L103
 2514              	.L90:
 177:Drivers/lvgl/src/draw/sw/lv_draw_sw_arc.c **** 
 2515              		.loc 1 177 5 is_stmt 1 view .LVU986
 177:Drivers/lvgl/src/draw/sw/lv_draw_sw_arc.c **** 
 2516              		.loc 1 177 8 is_stmt 0 view .LVU987
