ARM GAS  /var/folders/lp/x54gwt890xv47sdkqj1k04q40000gn/T//cc3Qko3C.s 			page 1


   1              		.cpu cortex-m4
   2              		.arch armv7e-m
   3              		.fpu fpv4-sp-d16
   4              		.eabi_attribute 27, 1
   5              		.eabi_attribute 28, 1
   6              		.eabi_attribute 20, 1
   7              		.eabi_attribute 21, 1
   8              		.eabi_attribute 23, 3
   9              		.eabi_attribute 24, 1
  10              		.eabi_attribute 25, 1
  11              		.eabi_attribute 26, 1
  12              		.eabi_attribute 30, 1
  13              		.eabi_attribute 34, 1
  14              		.eabi_attribute 18, 4
  15              		.file	"lv_grid.c"
  16              		.text
  17              	.Ltext0:
  18              		.cfi_sections	.debug_frame
  19              		.file 1 "Drivers/lvgl/src/extra/layouts/grid/lv_grid.c"
  20              		.section	.text.grid_align,"ax",%progbits
  21              		.align	1
  22              		.syntax unified
  23              		.thumb
  24              		.thumb_func
  26              	grid_align:
  27              	.LVL0:
  28              	.LFB217:
   1:Drivers/lvgl/src/extra/layouts/grid/lv_grid.c **** /**
   2:Drivers/lvgl/src/extra/layouts/grid/lv_grid.c ****  * @file lv_grid.c
   3:Drivers/lvgl/src/extra/layouts/grid/lv_grid.c ****  *
   4:Drivers/lvgl/src/extra/layouts/grid/lv_grid.c ****  */
   5:Drivers/lvgl/src/extra/layouts/grid/lv_grid.c **** 
   6:Drivers/lvgl/src/extra/layouts/grid/lv_grid.c **** /*********************
   7:Drivers/lvgl/src/extra/layouts/grid/lv_grid.c ****  *      INCLUDES
   8:Drivers/lvgl/src/extra/layouts/grid/lv_grid.c ****  *********************/
   9:Drivers/lvgl/src/extra/layouts/grid/lv_grid.c **** #include "../lv_layouts.h"
  10:Drivers/lvgl/src/extra/layouts/grid/lv_grid.c **** 
  11:Drivers/lvgl/src/extra/layouts/grid/lv_grid.c **** #if LV_USE_GRID
  12:Drivers/lvgl/src/extra/layouts/grid/lv_grid.c **** 
  13:Drivers/lvgl/src/extra/layouts/grid/lv_grid.c **** /*********************
  14:Drivers/lvgl/src/extra/layouts/grid/lv_grid.c ****  *      DEFINES
  15:Drivers/lvgl/src/extra/layouts/grid/lv_grid.c ****  *********************/
  16:Drivers/lvgl/src/extra/layouts/grid/lv_grid.c **** /**
  17:Drivers/lvgl/src/extra/layouts/grid/lv_grid.c ****  * Some helper defines
  18:Drivers/lvgl/src/extra/layouts/grid/lv_grid.c ****  */
  19:Drivers/lvgl/src/extra/layouts/grid/lv_grid.c **** #define IS_FR(x)       (x >= LV_COORD_MAX - 100)
  20:Drivers/lvgl/src/extra/layouts/grid/lv_grid.c **** #define IS_CONTENT(x)  (x == LV_COORD_MAX - 101)
  21:Drivers/lvgl/src/extra/layouts/grid/lv_grid.c **** #define GET_FR(x)      (x - (LV_COORD_MAX - 100))
  22:Drivers/lvgl/src/extra/layouts/grid/lv_grid.c **** 
  23:Drivers/lvgl/src/extra/layouts/grid/lv_grid.c **** /**********************
  24:Drivers/lvgl/src/extra/layouts/grid/lv_grid.c ****  *      TYPEDEFS
  25:Drivers/lvgl/src/extra/layouts/grid/lv_grid.c ****  **********************/
  26:Drivers/lvgl/src/extra/layouts/grid/lv_grid.c **** typedef struct {
  27:Drivers/lvgl/src/extra/layouts/grid/lv_grid.c ****     uint32_t col;
  28:Drivers/lvgl/src/extra/layouts/grid/lv_grid.c ****     uint32_t row;
  29:Drivers/lvgl/src/extra/layouts/grid/lv_grid.c ****     lv_point_t grid_abs;
  30:Drivers/lvgl/src/extra/layouts/grid/lv_grid.c **** } item_repos_hint_t;
ARM GAS  /var/folders/lp/x54gwt890xv47sdkqj1k04q40000gn/T//cc3Qko3C.s 			page 2


  31:Drivers/lvgl/src/extra/layouts/grid/lv_grid.c **** 
  32:Drivers/lvgl/src/extra/layouts/grid/lv_grid.c **** typedef struct {
  33:Drivers/lvgl/src/extra/layouts/grid/lv_grid.c ****     lv_coord_t * x;
  34:Drivers/lvgl/src/extra/layouts/grid/lv_grid.c ****     lv_coord_t * y;
  35:Drivers/lvgl/src/extra/layouts/grid/lv_grid.c ****     lv_coord_t * w;
  36:Drivers/lvgl/src/extra/layouts/grid/lv_grid.c ****     lv_coord_t * h;
  37:Drivers/lvgl/src/extra/layouts/grid/lv_grid.c ****     uint32_t col_num;
  38:Drivers/lvgl/src/extra/layouts/grid/lv_grid.c ****     uint32_t row_num;
  39:Drivers/lvgl/src/extra/layouts/grid/lv_grid.c ****     lv_coord_t grid_w;
  40:Drivers/lvgl/src/extra/layouts/grid/lv_grid.c ****     lv_coord_t grid_h;
  41:Drivers/lvgl/src/extra/layouts/grid/lv_grid.c **** } _lv_grid_calc_t;
  42:Drivers/lvgl/src/extra/layouts/grid/lv_grid.c **** 
  43:Drivers/lvgl/src/extra/layouts/grid/lv_grid.c **** 
  44:Drivers/lvgl/src/extra/layouts/grid/lv_grid.c **** /**********************
  45:Drivers/lvgl/src/extra/layouts/grid/lv_grid.c ****  *  GLOBAL PROTOTYPES
  46:Drivers/lvgl/src/extra/layouts/grid/lv_grid.c ****  **********************/
  47:Drivers/lvgl/src/extra/layouts/grid/lv_grid.c **** 
  48:Drivers/lvgl/src/extra/layouts/grid/lv_grid.c **** /**********************
  49:Drivers/lvgl/src/extra/layouts/grid/lv_grid.c ****  *  STATIC PROTOTYPES
  50:Drivers/lvgl/src/extra/layouts/grid/lv_grid.c ****  **********************/
  51:Drivers/lvgl/src/extra/layouts/grid/lv_grid.c **** static void grid_update(lv_obj_t * cont, void * user_data);
  52:Drivers/lvgl/src/extra/layouts/grid/lv_grid.c **** static void calc(lv_obj_t * obj, _lv_grid_calc_t * calc);
  53:Drivers/lvgl/src/extra/layouts/grid/lv_grid.c **** static void calc_free(_lv_grid_calc_t * calc);
  54:Drivers/lvgl/src/extra/layouts/grid/lv_grid.c **** static void calc_cols(lv_obj_t * cont, _lv_grid_calc_t * c);
  55:Drivers/lvgl/src/extra/layouts/grid/lv_grid.c **** static void calc_rows(lv_obj_t * cont, _lv_grid_calc_t * c);
  56:Drivers/lvgl/src/extra/layouts/grid/lv_grid.c **** static void item_repos(lv_obj_t * item, _lv_grid_calc_t * c, item_repos_hint_t * hint);
  57:Drivers/lvgl/src/extra/layouts/grid/lv_grid.c **** static lv_coord_t grid_align(lv_coord_t cont_size,  bool auto_size, uint8_t align, lv_coord_t gap, 
  58:Drivers/lvgl/src/extra/layouts/grid/lv_grid.c ****                              lv_coord_t * size_array, lv_coord_t * pos_array, bool reverse);
  59:Drivers/lvgl/src/extra/layouts/grid/lv_grid.c **** static uint32_t count_tracks(const lv_coord_t * templ);
  60:Drivers/lvgl/src/extra/layouts/grid/lv_grid.c **** 
  61:Drivers/lvgl/src/extra/layouts/grid/lv_grid.c **** static inline const lv_coord_t * get_col_dsc(lv_obj_t * obj)
  62:Drivers/lvgl/src/extra/layouts/grid/lv_grid.c **** {
  63:Drivers/lvgl/src/extra/layouts/grid/lv_grid.c ****     return lv_obj_get_style_grid_column_dsc_array(obj, 0);
  64:Drivers/lvgl/src/extra/layouts/grid/lv_grid.c **** }
  65:Drivers/lvgl/src/extra/layouts/grid/lv_grid.c **** static inline const lv_coord_t * get_row_dsc(lv_obj_t * obj)
  66:Drivers/lvgl/src/extra/layouts/grid/lv_grid.c **** {
  67:Drivers/lvgl/src/extra/layouts/grid/lv_grid.c ****     return lv_obj_get_style_grid_row_dsc_array(obj, 0);
  68:Drivers/lvgl/src/extra/layouts/grid/lv_grid.c **** }
  69:Drivers/lvgl/src/extra/layouts/grid/lv_grid.c **** static inline uint8_t get_col_pos(lv_obj_t * obj)
  70:Drivers/lvgl/src/extra/layouts/grid/lv_grid.c **** {
  71:Drivers/lvgl/src/extra/layouts/grid/lv_grid.c ****     return lv_obj_get_style_grid_cell_column_pos(obj, 0);
  72:Drivers/lvgl/src/extra/layouts/grid/lv_grid.c **** }
  73:Drivers/lvgl/src/extra/layouts/grid/lv_grid.c **** static inline uint8_t get_row_pos(lv_obj_t * obj)
  74:Drivers/lvgl/src/extra/layouts/grid/lv_grid.c **** {
  75:Drivers/lvgl/src/extra/layouts/grid/lv_grid.c ****     return lv_obj_get_style_grid_cell_row_pos(obj, 0);
  76:Drivers/lvgl/src/extra/layouts/grid/lv_grid.c **** }
  77:Drivers/lvgl/src/extra/layouts/grid/lv_grid.c **** static inline uint8_t get_col_span(lv_obj_t * obj)
  78:Drivers/lvgl/src/extra/layouts/grid/lv_grid.c **** {
  79:Drivers/lvgl/src/extra/layouts/grid/lv_grid.c ****     return lv_obj_get_style_grid_cell_column_span(obj, 0);
  80:Drivers/lvgl/src/extra/layouts/grid/lv_grid.c **** }
  81:Drivers/lvgl/src/extra/layouts/grid/lv_grid.c **** static inline uint8_t get_row_span(lv_obj_t * obj)
  82:Drivers/lvgl/src/extra/layouts/grid/lv_grid.c **** {
  83:Drivers/lvgl/src/extra/layouts/grid/lv_grid.c ****     return lv_obj_get_style_grid_cell_row_span(obj, 0);
  84:Drivers/lvgl/src/extra/layouts/grid/lv_grid.c **** }
  85:Drivers/lvgl/src/extra/layouts/grid/lv_grid.c **** static inline uint8_t get_cell_col_align(lv_obj_t * obj)
  86:Drivers/lvgl/src/extra/layouts/grid/lv_grid.c **** {
  87:Drivers/lvgl/src/extra/layouts/grid/lv_grid.c ****     return lv_obj_get_style_grid_cell_x_align(obj, 0);
ARM GAS  /var/folders/lp/x54gwt890xv47sdkqj1k04q40000gn/T//cc3Qko3C.s 			page 3


  88:Drivers/lvgl/src/extra/layouts/grid/lv_grid.c **** }
  89:Drivers/lvgl/src/extra/layouts/grid/lv_grid.c **** static inline uint8_t get_cell_row_align(lv_obj_t * obj)
  90:Drivers/lvgl/src/extra/layouts/grid/lv_grid.c **** {
  91:Drivers/lvgl/src/extra/layouts/grid/lv_grid.c ****     return lv_obj_get_style_grid_cell_y_align(obj, 0);
  92:Drivers/lvgl/src/extra/layouts/grid/lv_grid.c **** }
  93:Drivers/lvgl/src/extra/layouts/grid/lv_grid.c **** static inline uint8_t get_grid_col_align(lv_obj_t * obj)
  94:Drivers/lvgl/src/extra/layouts/grid/lv_grid.c **** {
  95:Drivers/lvgl/src/extra/layouts/grid/lv_grid.c ****     return lv_obj_get_style_grid_column_align(obj, 0);
  96:Drivers/lvgl/src/extra/layouts/grid/lv_grid.c **** }
  97:Drivers/lvgl/src/extra/layouts/grid/lv_grid.c **** static inline uint8_t get_grid_row_align(lv_obj_t * obj)
  98:Drivers/lvgl/src/extra/layouts/grid/lv_grid.c **** {
  99:Drivers/lvgl/src/extra/layouts/grid/lv_grid.c ****     return lv_obj_get_style_grid_row_align(obj, 0);
 100:Drivers/lvgl/src/extra/layouts/grid/lv_grid.c **** }
 101:Drivers/lvgl/src/extra/layouts/grid/lv_grid.c **** 
 102:Drivers/lvgl/src/extra/layouts/grid/lv_grid.c **** /**********************
 103:Drivers/lvgl/src/extra/layouts/grid/lv_grid.c ****  *  GLOBAL VARIABLES
 104:Drivers/lvgl/src/extra/layouts/grid/lv_grid.c ****  **********************/
 105:Drivers/lvgl/src/extra/layouts/grid/lv_grid.c **** uint16_t LV_LAYOUT_GRID;
 106:Drivers/lvgl/src/extra/layouts/grid/lv_grid.c **** lv_style_prop_t LV_STYLE_GRID_COLUMN_DSC_ARRAY;
 107:Drivers/lvgl/src/extra/layouts/grid/lv_grid.c **** lv_style_prop_t LV_STYLE_GRID_COLUMN_ALIGN;
 108:Drivers/lvgl/src/extra/layouts/grid/lv_grid.c **** lv_style_prop_t LV_STYLE_GRID_ROW_DSC_ARRAY;
 109:Drivers/lvgl/src/extra/layouts/grid/lv_grid.c **** lv_style_prop_t LV_STYLE_GRID_ROW_ALIGN;
 110:Drivers/lvgl/src/extra/layouts/grid/lv_grid.c **** lv_style_prop_t LV_STYLE_GRID_CELL_COLUMN_POS;
 111:Drivers/lvgl/src/extra/layouts/grid/lv_grid.c **** lv_style_prop_t LV_STYLE_GRID_CELL_COLUMN_SPAN;
 112:Drivers/lvgl/src/extra/layouts/grid/lv_grid.c **** lv_style_prop_t LV_STYLE_GRID_CELL_X_ALIGN;
 113:Drivers/lvgl/src/extra/layouts/grid/lv_grid.c **** lv_style_prop_t LV_STYLE_GRID_CELL_ROW_POS;
 114:Drivers/lvgl/src/extra/layouts/grid/lv_grid.c **** lv_style_prop_t LV_STYLE_GRID_CELL_ROW_SPAN;
 115:Drivers/lvgl/src/extra/layouts/grid/lv_grid.c **** lv_style_prop_t LV_STYLE_GRID_CELL_Y_ALIGN;
 116:Drivers/lvgl/src/extra/layouts/grid/lv_grid.c **** 
 117:Drivers/lvgl/src/extra/layouts/grid/lv_grid.c **** /**********************
 118:Drivers/lvgl/src/extra/layouts/grid/lv_grid.c ****  *  STATIC VARIABLES
 119:Drivers/lvgl/src/extra/layouts/grid/lv_grid.c ****  **********************/
 120:Drivers/lvgl/src/extra/layouts/grid/lv_grid.c **** 
 121:Drivers/lvgl/src/extra/layouts/grid/lv_grid.c **** /**********************
 122:Drivers/lvgl/src/extra/layouts/grid/lv_grid.c ****  *      MACROS
 123:Drivers/lvgl/src/extra/layouts/grid/lv_grid.c ****  **********************/
 124:Drivers/lvgl/src/extra/layouts/grid/lv_grid.c **** 
 125:Drivers/lvgl/src/extra/layouts/grid/lv_grid.c **** /**********************
 126:Drivers/lvgl/src/extra/layouts/grid/lv_grid.c ****  *   GLOBAL FUNCTIONS
 127:Drivers/lvgl/src/extra/layouts/grid/lv_grid.c ****  **********************/
 128:Drivers/lvgl/src/extra/layouts/grid/lv_grid.c **** 
 129:Drivers/lvgl/src/extra/layouts/grid/lv_grid.c **** 
 130:Drivers/lvgl/src/extra/layouts/grid/lv_grid.c **** void lv_grid_init(void)
 131:Drivers/lvgl/src/extra/layouts/grid/lv_grid.c **** {
 132:Drivers/lvgl/src/extra/layouts/grid/lv_grid.c ****     LV_LAYOUT_GRID = lv_layout_register(grid_update, NULL);
 133:Drivers/lvgl/src/extra/layouts/grid/lv_grid.c **** 
 134:Drivers/lvgl/src/extra/layouts/grid/lv_grid.c ****     LV_STYLE_GRID_COLUMN_DSC_ARRAY = lv_style_register_prop(LV_STYLE_PROP_LAYOUT_REFR);
 135:Drivers/lvgl/src/extra/layouts/grid/lv_grid.c ****     LV_STYLE_GRID_ROW_DSC_ARRAY = lv_style_register_prop(LV_STYLE_PROP_LAYOUT_REFR);
 136:Drivers/lvgl/src/extra/layouts/grid/lv_grid.c ****     LV_STYLE_GRID_COLUMN_ALIGN = lv_style_register_prop(LV_STYLE_PROP_LAYOUT_REFR);
 137:Drivers/lvgl/src/extra/layouts/grid/lv_grid.c ****     LV_STYLE_GRID_ROW_ALIGN = lv_style_register_prop(LV_STYLE_PROP_LAYOUT_REFR);
 138:Drivers/lvgl/src/extra/layouts/grid/lv_grid.c **** 
 139:Drivers/lvgl/src/extra/layouts/grid/lv_grid.c ****     LV_STYLE_GRID_CELL_ROW_SPAN = lv_style_register_prop(LV_STYLE_PROP_LAYOUT_REFR);
 140:Drivers/lvgl/src/extra/layouts/grid/lv_grid.c ****     LV_STYLE_GRID_CELL_ROW_POS = lv_style_register_prop(LV_STYLE_PROP_LAYOUT_REFR);
 141:Drivers/lvgl/src/extra/layouts/grid/lv_grid.c ****     LV_STYLE_GRID_CELL_COLUMN_SPAN = lv_style_register_prop(LV_STYLE_PROP_LAYOUT_REFR);
 142:Drivers/lvgl/src/extra/layouts/grid/lv_grid.c ****     LV_STYLE_GRID_CELL_COLUMN_POS = lv_style_register_prop(LV_STYLE_PROP_LAYOUT_REFR);
 143:Drivers/lvgl/src/extra/layouts/grid/lv_grid.c ****     LV_STYLE_GRID_CELL_X_ALIGN = lv_style_register_prop(LV_STYLE_PROP_LAYOUT_REFR);
 144:Drivers/lvgl/src/extra/layouts/grid/lv_grid.c ****     LV_STYLE_GRID_CELL_Y_ALIGN = lv_style_register_prop(LV_STYLE_PROP_LAYOUT_REFR);
ARM GAS  /var/folders/lp/x54gwt890xv47sdkqj1k04q40000gn/T//cc3Qko3C.s 			page 4


 145:Drivers/lvgl/src/extra/layouts/grid/lv_grid.c **** }
 146:Drivers/lvgl/src/extra/layouts/grid/lv_grid.c **** 
 147:Drivers/lvgl/src/extra/layouts/grid/lv_grid.c **** void lv_obj_set_grid_dsc_array(lv_obj_t * obj, const lv_coord_t col_dsc[], const lv_coord_t row_dsc
 148:Drivers/lvgl/src/extra/layouts/grid/lv_grid.c **** {
 149:Drivers/lvgl/src/extra/layouts/grid/lv_grid.c ****     lv_obj_set_style_grid_column_dsc_array(obj, col_dsc, 0);
 150:Drivers/lvgl/src/extra/layouts/grid/lv_grid.c ****     lv_obj_set_style_grid_row_dsc_array(obj, row_dsc, 0);
 151:Drivers/lvgl/src/extra/layouts/grid/lv_grid.c ****     lv_obj_set_style_layout(obj, LV_LAYOUT_GRID, 0);
 152:Drivers/lvgl/src/extra/layouts/grid/lv_grid.c **** }
 153:Drivers/lvgl/src/extra/layouts/grid/lv_grid.c **** 
 154:Drivers/lvgl/src/extra/layouts/grid/lv_grid.c **** void lv_obj_set_grid_align(lv_obj_t * obj, lv_grid_align_t column_align, lv_grid_align_t row_align)
 155:Drivers/lvgl/src/extra/layouts/grid/lv_grid.c **** {
 156:Drivers/lvgl/src/extra/layouts/grid/lv_grid.c ****     lv_obj_set_style_grid_column_align(obj, column_align, 0);
 157:Drivers/lvgl/src/extra/layouts/grid/lv_grid.c ****     lv_obj_set_style_grid_row_align(obj, row_align, 0);
 158:Drivers/lvgl/src/extra/layouts/grid/lv_grid.c **** 
 159:Drivers/lvgl/src/extra/layouts/grid/lv_grid.c **** }
 160:Drivers/lvgl/src/extra/layouts/grid/lv_grid.c **** 
 161:Drivers/lvgl/src/extra/layouts/grid/lv_grid.c **** void lv_obj_set_grid_cell(lv_obj_t * obj, lv_grid_align_t x_align, uint8_t col_pos, uint8_t col_spa
 162:Drivers/lvgl/src/extra/layouts/grid/lv_grid.c ****                           lv_grid_align_t y_align, uint8_t row_pos, uint8_t row_span)
 163:Drivers/lvgl/src/extra/layouts/grid/lv_grid.c **** 
 164:Drivers/lvgl/src/extra/layouts/grid/lv_grid.c **** {
 165:Drivers/lvgl/src/extra/layouts/grid/lv_grid.c ****     lv_obj_set_style_grid_cell_column_pos(obj, col_pos, 0);
 166:Drivers/lvgl/src/extra/layouts/grid/lv_grid.c ****     lv_obj_set_style_grid_cell_row_pos(obj, row_pos, 0);
 167:Drivers/lvgl/src/extra/layouts/grid/lv_grid.c ****     lv_obj_set_style_grid_cell_x_align(obj, x_align, 0);
 168:Drivers/lvgl/src/extra/layouts/grid/lv_grid.c ****     lv_obj_set_style_grid_cell_column_span(obj, col_span, 0);
 169:Drivers/lvgl/src/extra/layouts/grid/lv_grid.c ****     lv_obj_set_style_grid_cell_row_span(obj, row_span, 0);
 170:Drivers/lvgl/src/extra/layouts/grid/lv_grid.c ****     lv_obj_set_style_grid_cell_y_align(obj, y_align, 0);
 171:Drivers/lvgl/src/extra/layouts/grid/lv_grid.c **** 
 172:Drivers/lvgl/src/extra/layouts/grid/lv_grid.c ****     lv_obj_mark_layout_as_dirty(lv_obj_get_parent(obj));
 173:Drivers/lvgl/src/extra/layouts/grid/lv_grid.c **** }
 174:Drivers/lvgl/src/extra/layouts/grid/lv_grid.c **** 
 175:Drivers/lvgl/src/extra/layouts/grid/lv_grid.c **** 
 176:Drivers/lvgl/src/extra/layouts/grid/lv_grid.c **** void lv_style_set_grid_row_dsc_array(lv_style_t * style, const lv_coord_t value[])
 177:Drivers/lvgl/src/extra/layouts/grid/lv_grid.c **** {
 178:Drivers/lvgl/src/extra/layouts/grid/lv_grid.c ****     lv_style_value_t v = {
 179:Drivers/lvgl/src/extra/layouts/grid/lv_grid.c ****         .ptr = (const void *)value
 180:Drivers/lvgl/src/extra/layouts/grid/lv_grid.c ****     };
 181:Drivers/lvgl/src/extra/layouts/grid/lv_grid.c ****     lv_style_set_prop(style, LV_STYLE_GRID_ROW_DSC_ARRAY, v);
 182:Drivers/lvgl/src/extra/layouts/grid/lv_grid.c **** }
 183:Drivers/lvgl/src/extra/layouts/grid/lv_grid.c **** 
 184:Drivers/lvgl/src/extra/layouts/grid/lv_grid.c **** void lv_style_set_grid_column_dsc_array(lv_style_t * style, const lv_coord_t value[])
 185:Drivers/lvgl/src/extra/layouts/grid/lv_grid.c **** {
 186:Drivers/lvgl/src/extra/layouts/grid/lv_grid.c ****     lv_style_value_t v = {
 187:Drivers/lvgl/src/extra/layouts/grid/lv_grid.c ****         .ptr = (const void *)value
 188:Drivers/lvgl/src/extra/layouts/grid/lv_grid.c ****     };
 189:Drivers/lvgl/src/extra/layouts/grid/lv_grid.c ****     lv_style_set_prop(style, LV_STYLE_GRID_COLUMN_DSC_ARRAY, v);
 190:Drivers/lvgl/src/extra/layouts/grid/lv_grid.c **** }
 191:Drivers/lvgl/src/extra/layouts/grid/lv_grid.c **** 
 192:Drivers/lvgl/src/extra/layouts/grid/lv_grid.c **** void lv_style_set_grid_row_align(lv_style_t * style, lv_grid_align_t value)
 193:Drivers/lvgl/src/extra/layouts/grid/lv_grid.c **** {
 194:Drivers/lvgl/src/extra/layouts/grid/lv_grid.c ****     lv_style_value_t v = {
 195:Drivers/lvgl/src/extra/layouts/grid/lv_grid.c ****         .num = (lv_grid_align_t)value
 196:Drivers/lvgl/src/extra/layouts/grid/lv_grid.c ****     };
 197:Drivers/lvgl/src/extra/layouts/grid/lv_grid.c ****     lv_style_set_prop(style, LV_STYLE_GRID_ROW_ALIGN, v);
 198:Drivers/lvgl/src/extra/layouts/grid/lv_grid.c **** }
 199:Drivers/lvgl/src/extra/layouts/grid/lv_grid.c **** 
 200:Drivers/lvgl/src/extra/layouts/grid/lv_grid.c **** void lv_style_set_grid_column_align(lv_style_t * style, lv_grid_align_t value)
 201:Drivers/lvgl/src/extra/layouts/grid/lv_grid.c **** {
ARM GAS  /var/folders/lp/x54gwt890xv47sdkqj1k04q40000gn/T//cc3Qko3C.s 			page 5


 202:Drivers/lvgl/src/extra/layouts/grid/lv_grid.c ****     lv_style_value_t v = {
 203:Drivers/lvgl/src/extra/layouts/grid/lv_grid.c ****         .num = (lv_grid_align_t)value
 204:Drivers/lvgl/src/extra/layouts/grid/lv_grid.c ****     };
 205:Drivers/lvgl/src/extra/layouts/grid/lv_grid.c ****     lv_style_set_prop(style, LV_STYLE_GRID_COLUMN_ALIGN, v);
 206:Drivers/lvgl/src/extra/layouts/grid/lv_grid.c **** }
 207:Drivers/lvgl/src/extra/layouts/grid/lv_grid.c **** 
 208:Drivers/lvgl/src/extra/layouts/grid/lv_grid.c **** 
 209:Drivers/lvgl/src/extra/layouts/grid/lv_grid.c **** void lv_style_set_grid_cell_column_pos(lv_style_t * style, lv_coord_t value)
 210:Drivers/lvgl/src/extra/layouts/grid/lv_grid.c **** {
 211:Drivers/lvgl/src/extra/layouts/grid/lv_grid.c ****     lv_style_value_t v = {
 212:Drivers/lvgl/src/extra/layouts/grid/lv_grid.c ****         .num = value
 213:Drivers/lvgl/src/extra/layouts/grid/lv_grid.c ****     };
 214:Drivers/lvgl/src/extra/layouts/grid/lv_grid.c ****     lv_style_set_prop(style, LV_STYLE_GRID_CELL_COLUMN_POS, v);
 215:Drivers/lvgl/src/extra/layouts/grid/lv_grid.c **** }
 216:Drivers/lvgl/src/extra/layouts/grid/lv_grid.c **** 
 217:Drivers/lvgl/src/extra/layouts/grid/lv_grid.c **** void lv_style_set_grid_cell_column_span(lv_style_t * style, lv_coord_t value)
 218:Drivers/lvgl/src/extra/layouts/grid/lv_grid.c **** {
 219:Drivers/lvgl/src/extra/layouts/grid/lv_grid.c ****     lv_style_value_t v = {
 220:Drivers/lvgl/src/extra/layouts/grid/lv_grid.c ****         .num = value
 221:Drivers/lvgl/src/extra/layouts/grid/lv_grid.c ****     };
 222:Drivers/lvgl/src/extra/layouts/grid/lv_grid.c ****     lv_style_set_prop(style, LV_STYLE_GRID_CELL_COLUMN_SPAN, v);
 223:Drivers/lvgl/src/extra/layouts/grid/lv_grid.c **** }
 224:Drivers/lvgl/src/extra/layouts/grid/lv_grid.c **** 
 225:Drivers/lvgl/src/extra/layouts/grid/lv_grid.c **** void lv_style_set_grid_cell_row_pos(lv_style_t * style, lv_coord_t value)
 226:Drivers/lvgl/src/extra/layouts/grid/lv_grid.c **** {
 227:Drivers/lvgl/src/extra/layouts/grid/lv_grid.c ****     lv_style_value_t v = {
 228:Drivers/lvgl/src/extra/layouts/grid/lv_grid.c ****         .num = value
 229:Drivers/lvgl/src/extra/layouts/grid/lv_grid.c ****     };
 230:Drivers/lvgl/src/extra/layouts/grid/lv_grid.c ****     lv_style_set_prop(style, LV_STYLE_GRID_CELL_ROW_POS, v);
 231:Drivers/lvgl/src/extra/layouts/grid/lv_grid.c **** }
 232:Drivers/lvgl/src/extra/layouts/grid/lv_grid.c **** 
 233:Drivers/lvgl/src/extra/layouts/grid/lv_grid.c **** void lv_style_set_grid_cell_row_span(lv_style_t * style, lv_coord_t value)
 234:Drivers/lvgl/src/extra/layouts/grid/lv_grid.c **** {
 235:Drivers/lvgl/src/extra/layouts/grid/lv_grid.c ****     lv_style_value_t v = {
 236:Drivers/lvgl/src/extra/layouts/grid/lv_grid.c ****         .num = value
 237:Drivers/lvgl/src/extra/layouts/grid/lv_grid.c ****     };
 238:Drivers/lvgl/src/extra/layouts/grid/lv_grid.c ****     lv_style_set_prop(style, LV_STYLE_GRID_CELL_ROW_SPAN, v);
 239:Drivers/lvgl/src/extra/layouts/grid/lv_grid.c **** }
 240:Drivers/lvgl/src/extra/layouts/grid/lv_grid.c **** 
 241:Drivers/lvgl/src/extra/layouts/grid/lv_grid.c **** void lv_style_set_grid_cell_x_align(lv_style_t * style, lv_coord_t value)
 242:Drivers/lvgl/src/extra/layouts/grid/lv_grid.c **** {
 243:Drivers/lvgl/src/extra/layouts/grid/lv_grid.c ****     lv_style_value_t v = {
 244:Drivers/lvgl/src/extra/layouts/grid/lv_grid.c ****         .num = value
 245:Drivers/lvgl/src/extra/layouts/grid/lv_grid.c ****     };
 246:Drivers/lvgl/src/extra/layouts/grid/lv_grid.c ****     lv_style_set_prop(style, LV_STYLE_GRID_CELL_X_ALIGN, v);
 247:Drivers/lvgl/src/extra/layouts/grid/lv_grid.c **** }
 248:Drivers/lvgl/src/extra/layouts/grid/lv_grid.c **** 
 249:Drivers/lvgl/src/extra/layouts/grid/lv_grid.c **** void lv_style_set_grid_cell_y_align(lv_style_t * style, lv_coord_t value)
 250:Drivers/lvgl/src/extra/layouts/grid/lv_grid.c **** {
 251:Drivers/lvgl/src/extra/layouts/grid/lv_grid.c ****     lv_style_value_t v = {
 252:Drivers/lvgl/src/extra/layouts/grid/lv_grid.c ****         .num = value
 253:Drivers/lvgl/src/extra/layouts/grid/lv_grid.c ****     };
 254:Drivers/lvgl/src/extra/layouts/grid/lv_grid.c ****     lv_style_set_prop(style, LV_STYLE_GRID_CELL_Y_ALIGN, v);
 255:Drivers/lvgl/src/extra/layouts/grid/lv_grid.c **** }
 256:Drivers/lvgl/src/extra/layouts/grid/lv_grid.c **** 
 257:Drivers/lvgl/src/extra/layouts/grid/lv_grid.c **** void lv_obj_set_style_grid_row_dsc_array(lv_obj_t * obj, const lv_coord_t value[], lv_style_selecto
 258:Drivers/lvgl/src/extra/layouts/grid/lv_grid.c **** {
ARM GAS  /var/folders/lp/x54gwt890xv47sdkqj1k04q40000gn/T//cc3Qko3C.s 			page 6


 259:Drivers/lvgl/src/extra/layouts/grid/lv_grid.c ****     lv_style_value_t v = {
 260:Drivers/lvgl/src/extra/layouts/grid/lv_grid.c ****         .ptr = (const void *)value
 261:Drivers/lvgl/src/extra/layouts/grid/lv_grid.c ****     };
 262:Drivers/lvgl/src/extra/layouts/grid/lv_grid.c ****     lv_obj_set_local_style_prop(obj, LV_STYLE_GRID_ROW_DSC_ARRAY, v, selector);
 263:Drivers/lvgl/src/extra/layouts/grid/lv_grid.c **** }
 264:Drivers/lvgl/src/extra/layouts/grid/lv_grid.c **** 
 265:Drivers/lvgl/src/extra/layouts/grid/lv_grid.c **** void lv_obj_set_style_grid_column_dsc_array(lv_obj_t * obj, const lv_coord_t value[], lv_style_sele
 266:Drivers/lvgl/src/extra/layouts/grid/lv_grid.c **** {
 267:Drivers/lvgl/src/extra/layouts/grid/lv_grid.c ****     lv_style_value_t v = {
 268:Drivers/lvgl/src/extra/layouts/grid/lv_grid.c ****         .ptr = (const void *)value
 269:Drivers/lvgl/src/extra/layouts/grid/lv_grid.c ****     };
 270:Drivers/lvgl/src/extra/layouts/grid/lv_grid.c ****     lv_obj_set_local_style_prop(obj, LV_STYLE_GRID_COLUMN_DSC_ARRAY, v, selector);
 271:Drivers/lvgl/src/extra/layouts/grid/lv_grid.c **** }
 272:Drivers/lvgl/src/extra/layouts/grid/lv_grid.c **** 
 273:Drivers/lvgl/src/extra/layouts/grid/lv_grid.c **** 
 274:Drivers/lvgl/src/extra/layouts/grid/lv_grid.c **** void lv_obj_set_style_grid_row_align(lv_obj_t * obj, lv_grid_align_t value, lv_style_selector_t sel
 275:Drivers/lvgl/src/extra/layouts/grid/lv_grid.c **** {
 276:Drivers/lvgl/src/extra/layouts/grid/lv_grid.c ****     lv_style_value_t v = {
 277:Drivers/lvgl/src/extra/layouts/grid/lv_grid.c ****         .num = (int32_t) value
 278:Drivers/lvgl/src/extra/layouts/grid/lv_grid.c ****     };
 279:Drivers/lvgl/src/extra/layouts/grid/lv_grid.c ****     lv_obj_set_local_style_prop(obj, LV_STYLE_GRID_ROW_ALIGN, v, selector);
 280:Drivers/lvgl/src/extra/layouts/grid/lv_grid.c **** }
 281:Drivers/lvgl/src/extra/layouts/grid/lv_grid.c **** 
 282:Drivers/lvgl/src/extra/layouts/grid/lv_grid.c **** void lv_obj_set_style_grid_column_align(lv_obj_t * obj, lv_grid_align_t value, lv_style_selector_t 
 283:Drivers/lvgl/src/extra/layouts/grid/lv_grid.c **** {
 284:Drivers/lvgl/src/extra/layouts/grid/lv_grid.c ****     lv_style_value_t v = {
 285:Drivers/lvgl/src/extra/layouts/grid/lv_grid.c ****         .num = (int32_t) value
 286:Drivers/lvgl/src/extra/layouts/grid/lv_grid.c ****     };
 287:Drivers/lvgl/src/extra/layouts/grid/lv_grid.c ****     lv_obj_set_local_style_prop(obj, LV_STYLE_GRID_COLUMN_ALIGN, v, selector);
 288:Drivers/lvgl/src/extra/layouts/grid/lv_grid.c **** }
 289:Drivers/lvgl/src/extra/layouts/grid/lv_grid.c **** 
 290:Drivers/lvgl/src/extra/layouts/grid/lv_grid.c **** 
 291:Drivers/lvgl/src/extra/layouts/grid/lv_grid.c **** void lv_obj_set_style_grid_cell_column_pos(lv_obj_t * obj, lv_coord_t value, lv_style_selector_t se
 292:Drivers/lvgl/src/extra/layouts/grid/lv_grid.c **** {
 293:Drivers/lvgl/src/extra/layouts/grid/lv_grid.c ****     lv_style_value_t v = {
 294:Drivers/lvgl/src/extra/layouts/grid/lv_grid.c ****         .num = value
 295:Drivers/lvgl/src/extra/layouts/grid/lv_grid.c ****     };
 296:Drivers/lvgl/src/extra/layouts/grid/lv_grid.c ****     lv_obj_set_local_style_prop(obj, LV_STYLE_GRID_CELL_COLUMN_POS, v, selector);
 297:Drivers/lvgl/src/extra/layouts/grid/lv_grid.c **** }
 298:Drivers/lvgl/src/extra/layouts/grid/lv_grid.c **** 
 299:Drivers/lvgl/src/extra/layouts/grid/lv_grid.c **** void lv_obj_set_style_grid_cell_column_span(lv_obj_t * obj, lv_coord_t value, lv_style_selector_t s
 300:Drivers/lvgl/src/extra/layouts/grid/lv_grid.c **** {
 301:Drivers/lvgl/src/extra/layouts/grid/lv_grid.c ****     lv_style_value_t v = {
 302:Drivers/lvgl/src/extra/layouts/grid/lv_grid.c ****         .num = value
 303:Drivers/lvgl/src/extra/layouts/grid/lv_grid.c ****     };
 304:Drivers/lvgl/src/extra/layouts/grid/lv_grid.c ****     lv_obj_set_local_style_prop(obj, LV_STYLE_GRID_CELL_COLUMN_SPAN, v, selector);
 305:Drivers/lvgl/src/extra/layouts/grid/lv_grid.c **** }
 306:Drivers/lvgl/src/extra/layouts/grid/lv_grid.c **** 
 307:Drivers/lvgl/src/extra/layouts/grid/lv_grid.c **** void lv_obj_set_style_grid_cell_row_pos(lv_obj_t * obj, lv_coord_t value, lv_style_selector_t selec
 308:Drivers/lvgl/src/extra/layouts/grid/lv_grid.c **** {
 309:Drivers/lvgl/src/extra/layouts/grid/lv_grid.c ****     lv_style_value_t v = {
 310:Drivers/lvgl/src/extra/layouts/grid/lv_grid.c ****         .num = value
 311:Drivers/lvgl/src/extra/layouts/grid/lv_grid.c ****     };
 312:Drivers/lvgl/src/extra/layouts/grid/lv_grid.c ****     lv_obj_set_local_style_prop(obj, LV_STYLE_GRID_CELL_ROW_POS, v, selector);
 313:Drivers/lvgl/src/extra/layouts/grid/lv_grid.c **** }
 314:Drivers/lvgl/src/extra/layouts/grid/lv_grid.c **** 
 315:Drivers/lvgl/src/extra/layouts/grid/lv_grid.c **** void lv_obj_set_style_grid_cell_row_span(lv_obj_t * obj, lv_coord_t value, lv_style_selector_t sele
ARM GAS  /var/folders/lp/x54gwt890xv47sdkqj1k04q40000gn/T//cc3Qko3C.s 			page 7


 316:Drivers/lvgl/src/extra/layouts/grid/lv_grid.c **** {
 317:Drivers/lvgl/src/extra/layouts/grid/lv_grid.c ****     lv_style_value_t v = {
 318:Drivers/lvgl/src/extra/layouts/grid/lv_grid.c ****         .num = value
 319:Drivers/lvgl/src/extra/layouts/grid/lv_grid.c ****     };
 320:Drivers/lvgl/src/extra/layouts/grid/lv_grid.c ****     lv_obj_set_local_style_prop(obj, LV_STYLE_GRID_CELL_ROW_SPAN, v, selector);
 321:Drivers/lvgl/src/extra/layouts/grid/lv_grid.c **** }
 322:Drivers/lvgl/src/extra/layouts/grid/lv_grid.c **** 
 323:Drivers/lvgl/src/extra/layouts/grid/lv_grid.c **** void lv_obj_set_style_grid_cell_x_align(lv_obj_t * obj, lv_coord_t value, lv_style_selector_t selec
 324:Drivers/lvgl/src/extra/layouts/grid/lv_grid.c **** {
 325:Drivers/lvgl/src/extra/layouts/grid/lv_grid.c ****     lv_style_value_t v = {
 326:Drivers/lvgl/src/extra/layouts/grid/lv_grid.c ****         .num = value
 327:Drivers/lvgl/src/extra/layouts/grid/lv_grid.c ****     };
 328:Drivers/lvgl/src/extra/layouts/grid/lv_grid.c ****     lv_obj_set_local_style_prop(obj, LV_STYLE_GRID_CELL_X_ALIGN, v, selector);
 329:Drivers/lvgl/src/extra/layouts/grid/lv_grid.c **** }
 330:Drivers/lvgl/src/extra/layouts/grid/lv_grid.c **** 
 331:Drivers/lvgl/src/extra/layouts/grid/lv_grid.c **** void lv_obj_set_style_grid_cell_y_align(lv_obj_t * obj, lv_coord_t value, lv_style_selector_t selec
 332:Drivers/lvgl/src/extra/layouts/grid/lv_grid.c **** {
 333:Drivers/lvgl/src/extra/layouts/grid/lv_grid.c ****     lv_style_value_t v = {
 334:Drivers/lvgl/src/extra/layouts/grid/lv_grid.c ****         .num = value
 335:Drivers/lvgl/src/extra/layouts/grid/lv_grid.c ****     };
 336:Drivers/lvgl/src/extra/layouts/grid/lv_grid.c ****     lv_obj_set_local_style_prop(obj, LV_STYLE_GRID_CELL_Y_ALIGN, v, selector);
 337:Drivers/lvgl/src/extra/layouts/grid/lv_grid.c **** }
 338:Drivers/lvgl/src/extra/layouts/grid/lv_grid.c **** 
 339:Drivers/lvgl/src/extra/layouts/grid/lv_grid.c **** 
 340:Drivers/lvgl/src/extra/layouts/grid/lv_grid.c **** /**********************
 341:Drivers/lvgl/src/extra/layouts/grid/lv_grid.c ****  *   STATIC FUNCTIONS
 342:Drivers/lvgl/src/extra/layouts/grid/lv_grid.c ****  **********************/
 343:Drivers/lvgl/src/extra/layouts/grid/lv_grid.c **** 
 344:Drivers/lvgl/src/extra/layouts/grid/lv_grid.c **** static void grid_update(lv_obj_t * cont, void * user_data)
 345:Drivers/lvgl/src/extra/layouts/grid/lv_grid.c **** {
 346:Drivers/lvgl/src/extra/layouts/grid/lv_grid.c ****     LV_LOG_INFO("update %p container", (void *)cont);
 347:Drivers/lvgl/src/extra/layouts/grid/lv_grid.c ****     LV_UNUSED(user_data);
 348:Drivers/lvgl/src/extra/layouts/grid/lv_grid.c **** 
 349:Drivers/lvgl/src/extra/layouts/grid/lv_grid.c ****     const lv_coord_t * col_templ = get_col_dsc(cont);
 350:Drivers/lvgl/src/extra/layouts/grid/lv_grid.c ****     const lv_coord_t * row_templ = get_row_dsc(cont);
 351:Drivers/lvgl/src/extra/layouts/grid/lv_grid.c ****     if(col_templ == NULL || row_templ == NULL) return;
 352:Drivers/lvgl/src/extra/layouts/grid/lv_grid.c **** 
 353:Drivers/lvgl/src/extra/layouts/grid/lv_grid.c ****     _lv_grid_calc_t c;
 354:Drivers/lvgl/src/extra/layouts/grid/lv_grid.c ****     calc(cont, &c);
 355:Drivers/lvgl/src/extra/layouts/grid/lv_grid.c **** 
 356:Drivers/lvgl/src/extra/layouts/grid/lv_grid.c ****     item_repos_hint_t hint;
 357:Drivers/lvgl/src/extra/layouts/grid/lv_grid.c ****     lv_memset_00(&hint, sizeof(hint));
 358:Drivers/lvgl/src/extra/layouts/grid/lv_grid.c **** 
 359:Drivers/lvgl/src/extra/layouts/grid/lv_grid.c ****     /*Calculate the grids absolute x and y coordinates.
 360:Drivers/lvgl/src/extra/layouts/grid/lv_grid.c ****      *It will be used as helper during item repositioning to avoid calculating this value for every
 361:Drivers/lvgl/src/extra/layouts/grid/lv_grid.c ****     lv_coord_t border_widt = lv_obj_get_style_border_width(cont, LV_PART_MAIN);
 362:Drivers/lvgl/src/extra/layouts/grid/lv_grid.c ****     lv_coord_t pad_left = lv_obj_get_style_pad_left(cont, LV_PART_MAIN) + border_widt;
 363:Drivers/lvgl/src/extra/layouts/grid/lv_grid.c ****     lv_coord_t pad_top = lv_obj_get_style_pad_top(cont, LV_PART_MAIN) + border_widt;
 364:Drivers/lvgl/src/extra/layouts/grid/lv_grid.c ****     hint.grid_abs.x = pad_left + cont->coords.x1 - lv_obj_get_scroll_x(cont);
 365:Drivers/lvgl/src/extra/layouts/grid/lv_grid.c ****     hint.grid_abs.y = pad_top + cont->coords.y1 - lv_obj_get_scroll_y(cont);
 366:Drivers/lvgl/src/extra/layouts/grid/lv_grid.c **** 
 367:Drivers/lvgl/src/extra/layouts/grid/lv_grid.c ****     uint32_t i;
 368:Drivers/lvgl/src/extra/layouts/grid/lv_grid.c ****     for(i = 0; i < cont->spec_attr->child_cnt; i++) {
 369:Drivers/lvgl/src/extra/layouts/grid/lv_grid.c ****         lv_obj_t * item = cont->spec_attr->children[i];
 370:Drivers/lvgl/src/extra/layouts/grid/lv_grid.c ****         item_repos(item, &c, &hint);
 371:Drivers/lvgl/src/extra/layouts/grid/lv_grid.c ****     }
 372:Drivers/lvgl/src/extra/layouts/grid/lv_grid.c ****     calc_free(&c);
ARM GAS  /var/folders/lp/x54gwt890xv47sdkqj1k04q40000gn/T//cc3Qko3C.s 			page 8


 373:Drivers/lvgl/src/extra/layouts/grid/lv_grid.c **** 
 374:Drivers/lvgl/src/extra/layouts/grid/lv_grid.c ****     lv_coord_t w_set = lv_obj_get_style_width(cont, LV_PART_MAIN);
 375:Drivers/lvgl/src/extra/layouts/grid/lv_grid.c ****     lv_coord_t h_set = lv_obj_get_style_height(cont, LV_PART_MAIN);
 376:Drivers/lvgl/src/extra/layouts/grid/lv_grid.c ****     if(w_set == LV_SIZE_CONTENT || h_set == LV_SIZE_CONTENT) {
 377:Drivers/lvgl/src/extra/layouts/grid/lv_grid.c ****         lv_obj_refr_size(cont);
 378:Drivers/lvgl/src/extra/layouts/grid/lv_grid.c ****     }
 379:Drivers/lvgl/src/extra/layouts/grid/lv_grid.c **** 
 380:Drivers/lvgl/src/extra/layouts/grid/lv_grid.c ****     lv_event_send(cont, LV_EVENT_LAYOUT_CHANGED, NULL);
 381:Drivers/lvgl/src/extra/layouts/grid/lv_grid.c **** 
 382:Drivers/lvgl/src/extra/layouts/grid/lv_grid.c ****     LV_TRACE_LAYOUT("finished");
 383:Drivers/lvgl/src/extra/layouts/grid/lv_grid.c **** }
 384:Drivers/lvgl/src/extra/layouts/grid/lv_grid.c **** 
 385:Drivers/lvgl/src/extra/layouts/grid/lv_grid.c **** /**
 386:Drivers/lvgl/src/extra/layouts/grid/lv_grid.c ****  * Calculate the grid cells coordinates
 387:Drivers/lvgl/src/extra/layouts/grid/lv_grid.c ****  * @param cont an object that has a grid
 388:Drivers/lvgl/src/extra/layouts/grid/lv_grid.c ****  * @param calc store the calculated cells sizes here
 389:Drivers/lvgl/src/extra/layouts/grid/lv_grid.c ****  * @note `_lv_grid_calc_free(calc_out)` needs to be called when `calc_out` is not needed anymore
 390:Drivers/lvgl/src/extra/layouts/grid/lv_grid.c ****  */
 391:Drivers/lvgl/src/extra/layouts/grid/lv_grid.c **** static void calc(lv_obj_t * cont, _lv_grid_calc_t * calc_out)
 392:Drivers/lvgl/src/extra/layouts/grid/lv_grid.c **** {
 393:Drivers/lvgl/src/extra/layouts/grid/lv_grid.c ****     if(lv_obj_get_child(cont, 0) == NULL) {
 394:Drivers/lvgl/src/extra/layouts/grid/lv_grid.c ****         lv_memset_00(calc_out, sizeof(_lv_grid_calc_t));
 395:Drivers/lvgl/src/extra/layouts/grid/lv_grid.c ****         return;
 396:Drivers/lvgl/src/extra/layouts/grid/lv_grid.c ****     }
 397:Drivers/lvgl/src/extra/layouts/grid/lv_grid.c **** 
 398:Drivers/lvgl/src/extra/layouts/grid/lv_grid.c ****     calc_rows(cont, calc_out);
 399:Drivers/lvgl/src/extra/layouts/grid/lv_grid.c ****     calc_cols(cont, calc_out);
 400:Drivers/lvgl/src/extra/layouts/grid/lv_grid.c **** 
 401:Drivers/lvgl/src/extra/layouts/grid/lv_grid.c ****     lv_coord_t col_gap = lv_obj_get_style_pad_column(cont, LV_PART_MAIN);
 402:Drivers/lvgl/src/extra/layouts/grid/lv_grid.c ****     lv_coord_t row_gap = lv_obj_get_style_pad_row(cont, LV_PART_MAIN);
 403:Drivers/lvgl/src/extra/layouts/grid/lv_grid.c **** 
 404:Drivers/lvgl/src/extra/layouts/grid/lv_grid.c ****     bool rev = lv_obj_get_style_base_dir(cont, LV_PART_MAIN) == LV_BASE_DIR_RTL ? true : false;
 405:Drivers/lvgl/src/extra/layouts/grid/lv_grid.c **** 
 406:Drivers/lvgl/src/extra/layouts/grid/lv_grid.c ****     lv_coord_t w_set = lv_obj_get_style_width(cont, LV_PART_MAIN);
 407:Drivers/lvgl/src/extra/layouts/grid/lv_grid.c ****     lv_coord_t h_set = lv_obj_get_style_height(cont, LV_PART_MAIN);
 408:Drivers/lvgl/src/extra/layouts/grid/lv_grid.c ****     bool auto_w = (w_set == LV_SIZE_CONTENT && !cont->w_layout) ? true : false;
 409:Drivers/lvgl/src/extra/layouts/grid/lv_grid.c ****     lv_coord_t cont_w = lv_obj_get_content_width(cont);
 410:Drivers/lvgl/src/extra/layouts/grid/lv_grid.c ****     calc_out->grid_w = grid_align(cont_w, auto_w, get_grid_col_align(cont), col_gap, calc_out->col_
 411:Drivers/lvgl/src/extra/layouts/grid/lv_grid.c ****                                   calc_out->x, rev);
 412:Drivers/lvgl/src/extra/layouts/grid/lv_grid.c **** 
 413:Drivers/lvgl/src/extra/layouts/grid/lv_grid.c ****     bool auto_h = (h_set == LV_SIZE_CONTENT && !cont->h_layout) ? true : false;
 414:Drivers/lvgl/src/extra/layouts/grid/lv_grid.c ****     lv_coord_t cont_h = lv_obj_get_content_height(cont);
 415:Drivers/lvgl/src/extra/layouts/grid/lv_grid.c ****     calc_out->grid_h = grid_align(cont_h, auto_h, get_grid_row_align(cont), row_gap, calc_out->row_
 416:Drivers/lvgl/src/extra/layouts/grid/lv_grid.c ****                                   calc_out->y, false);
 417:Drivers/lvgl/src/extra/layouts/grid/lv_grid.c **** 
 418:Drivers/lvgl/src/extra/layouts/grid/lv_grid.c ****     LV_ASSERT_MEM_INTEGRITY();
 419:Drivers/lvgl/src/extra/layouts/grid/lv_grid.c **** }
 420:Drivers/lvgl/src/extra/layouts/grid/lv_grid.c **** 
 421:Drivers/lvgl/src/extra/layouts/grid/lv_grid.c **** /**
 422:Drivers/lvgl/src/extra/layouts/grid/lv_grid.c ****  * Free the a grid calculation's data
 423:Drivers/lvgl/src/extra/layouts/grid/lv_grid.c ****  * @param calc pointer to the calculated grid cell coordinates
 424:Drivers/lvgl/src/extra/layouts/grid/lv_grid.c ****  */
 425:Drivers/lvgl/src/extra/layouts/grid/lv_grid.c **** static void calc_free(_lv_grid_calc_t * calc)
 426:Drivers/lvgl/src/extra/layouts/grid/lv_grid.c **** {
 427:Drivers/lvgl/src/extra/layouts/grid/lv_grid.c ****     lv_mem_buf_release(calc->x);
 428:Drivers/lvgl/src/extra/layouts/grid/lv_grid.c ****     lv_mem_buf_release(calc->y);
 429:Drivers/lvgl/src/extra/layouts/grid/lv_grid.c ****     lv_mem_buf_release(calc->w);
ARM GAS  /var/folders/lp/x54gwt890xv47sdkqj1k04q40000gn/T//cc3Qko3C.s 			page 9


 430:Drivers/lvgl/src/extra/layouts/grid/lv_grid.c ****     lv_mem_buf_release(calc->h);
 431:Drivers/lvgl/src/extra/layouts/grid/lv_grid.c **** }
 432:Drivers/lvgl/src/extra/layouts/grid/lv_grid.c **** 
 433:Drivers/lvgl/src/extra/layouts/grid/lv_grid.c **** static void calc_cols(lv_obj_t * cont, _lv_grid_calc_t * c)
 434:Drivers/lvgl/src/extra/layouts/grid/lv_grid.c **** {
 435:Drivers/lvgl/src/extra/layouts/grid/lv_grid.c ****     const lv_coord_t * col_templ = get_col_dsc(cont);
 436:Drivers/lvgl/src/extra/layouts/grid/lv_grid.c ****     lv_coord_t cont_w = lv_obj_get_content_width(cont);
 437:Drivers/lvgl/src/extra/layouts/grid/lv_grid.c **** 
 438:Drivers/lvgl/src/extra/layouts/grid/lv_grid.c ****     c->col_num = count_tracks(col_templ);
 439:Drivers/lvgl/src/extra/layouts/grid/lv_grid.c ****     c->x = lv_mem_buf_get(sizeof(lv_coord_t) * c->col_num);
 440:Drivers/lvgl/src/extra/layouts/grid/lv_grid.c ****     c->w = lv_mem_buf_get(sizeof(lv_coord_t) * c->col_num);
 441:Drivers/lvgl/src/extra/layouts/grid/lv_grid.c **** 
 442:Drivers/lvgl/src/extra/layouts/grid/lv_grid.c ****     /*Set sizes for CONTENT cells*/
 443:Drivers/lvgl/src/extra/layouts/grid/lv_grid.c ****     uint32_t i;
 444:Drivers/lvgl/src/extra/layouts/grid/lv_grid.c ****     for(i = 0; i < c->col_num; i++) {
 445:Drivers/lvgl/src/extra/layouts/grid/lv_grid.c ****         lv_coord_t size = LV_COORD_MIN;
 446:Drivers/lvgl/src/extra/layouts/grid/lv_grid.c ****         if(IS_CONTENT(col_templ[i])) {
 447:Drivers/lvgl/src/extra/layouts/grid/lv_grid.c ****             /*Check the size of children of this cell*/
 448:Drivers/lvgl/src/extra/layouts/grid/lv_grid.c ****             uint32_t ci;
 449:Drivers/lvgl/src/extra/layouts/grid/lv_grid.c ****             for(ci = 0; ci < lv_obj_get_child_cnt(cont); ci++) {
 450:Drivers/lvgl/src/extra/layouts/grid/lv_grid.c ****                 lv_obj_t * item = lv_obj_get_child(cont, ci);
 451:Drivers/lvgl/src/extra/layouts/grid/lv_grid.c ****                 if(lv_obj_has_flag_any(item, LV_OBJ_FLAG_IGNORE_LAYOUT | LV_OBJ_FLAG_HIDDEN | LV_OB
 452:Drivers/lvgl/src/extra/layouts/grid/lv_grid.c ****                 uint32_t col_span = get_col_span(item);
 453:Drivers/lvgl/src/extra/layouts/grid/lv_grid.c ****                 if(col_span != 1) continue;
 454:Drivers/lvgl/src/extra/layouts/grid/lv_grid.c **** 
 455:Drivers/lvgl/src/extra/layouts/grid/lv_grid.c ****                 uint32_t col_pos = get_col_pos(item);
 456:Drivers/lvgl/src/extra/layouts/grid/lv_grid.c ****                 if(col_pos != i) continue;
 457:Drivers/lvgl/src/extra/layouts/grid/lv_grid.c **** 
 458:Drivers/lvgl/src/extra/layouts/grid/lv_grid.c ****                 size = LV_MAX(size, lv_obj_get_width(item));
 459:Drivers/lvgl/src/extra/layouts/grid/lv_grid.c ****             }
 460:Drivers/lvgl/src/extra/layouts/grid/lv_grid.c ****             if(size >= 0) c->w[i] = size;
 461:Drivers/lvgl/src/extra/layouts/grid/lv_grid.c ****             else c->w[i] = 0;
 462:Drivers/lvgl/src/extra/layouts/grid/lv_grid.c ****         }
 463:Drivers/lvgl/src/extra/layouts/grid/lv_grid.c ****     }
 464:Drivers/lvgl/src/extra/layouts/grid/lv_grid.c **** 
 465:Drivers/lvgl/src/extra/layouts/grid/lv_grid.c ****     uint32_t col_fr_cnt = 0;
 466:Drivers/lvgl/src/extra/layouts/grid/lv_grid.c ****     lv_coord_t grid_w = 0;
 467:Drivers/lvgl/src/extra/layouts/grid/lv_grid.c **** 
 468:Drivers/lvgl/src/extra/layouts/grid/lv_grid.c ****     for(i = 0; i < c->col_num; i++) {
 469:Drivers/lvgl/src/extra/layouts/grid/lv_grid.c ****         lv_coord_t x = col_templ[i];
 470:Drivers/lvgl/src/extra/layouts/grid/lv_grid.c ****         if(IS_FR(x)) {
 471:Drivers/lvgl/src/extra/layouts/grid/lv_grid.c ****             col_fr_cnt += GET_FR(x);
 472:Drivers/lvgl/src/extra/layouts/grid/lv_grid.c ****         }
 473:Drivers/lvgl/src/extra/layouts/grid/lv_grid.c ****         else if(IS_CONTENT(x)) {
 474:Drivers/lvgl/src/extra/layouts/grid/lv_grid.c ****             grid_w += c->w[i];
 475:Drivers/lvgl/src/extra/layouts/grid/lv_grid.c ****         }
 476:Drivers/lvgl/src/extra/layouts/grid/lv_grid.c ****         else {
 477:Drivers/lvgl/src/extra/layouts/grid/lv_grid.c ****             c->w[i] = x;
 478:Drivers/lvgl/src/extra/layouts/grid/lv_grid.c ****             grid_w += x;
 479:Drivers/lvgl/src/extra/layouts/grid/lv_grid.c ****         }
 480:Drivers/lvgl/src/extra/layouts/grid/lv_grid.c ****     }
 481:Drivers/lvgl/src/extra/layouts/grid/lv_grid.c **** 
 482:Drivers/lvgl/src/extra/layouts/grid/lv_grid.c ****     lv_coord_t col_gap = lv_obj_get_style_pad_column(cont, LV_PART_MAIN);
 483:Drivers/lvgl/src/extra/layouts/grid/lv_grid.c ****     cont_w -= col_gap * (c->col_num - 1);
 484:Drivers/lvgl/src/extra/layouts/grid/lv_grid.c ****     lv_coord_t free_w = cont_w - grid_w;
 485:Drivers/lvgl/src/extra/layouts/grid/lv_grid.c ****     if(free_w < 0) free_w = 0;
 486:Drivers/lvgl/src/extra/layouts/grid/lv_grid.c **** 
ARM GAS  /var/folders/lp/x54gwt890xv47sdkqj1k04q40000gn/T//cc3Qko3C.s 			page 10


 487:Drivers/lvgl/src/extra/layouts/grid/lv_grid.c ****     int32_t last_fr_i = -1;
 488:Drivers/lvgl/src/extra/layouts/grid/lv_grid.c ****     int32_t last_fr_x = 0;
 489:Drivers/lvgl/src/extra/layouts/grid/lv_grid.c ****     for(i = 0; i < c->col_num; i++) {
 490:Drivers/lvgl/src/extra/layouts/grid/lv_grid.c ****         lv_coord_t x = col_templ[i];
 491:Drivers/lvgl/src/extra/layouts/grid/lv_grid.c ****         if(IS_FR(x)) {
 492:Drivers/lvgl/src/extra/layouts/grid/lv_grid.c ****             lv_coord_t f = GET_FR(x);
 493:Drivers/lvgl/src/extra/layouts/grid/lv_grid.c ****             c->w[i] = (free_w * f) / col_fr_cnt;
 494:Drivers/lvgl/src/extra/layouts/grid/lv_grid.c ****             last_fr_i = i;
 495:Drivers/lvgl/src/extra/layouts/grid/lv_grid.c ****             last_fr_x = f;
 496:Drivers/lvgl/src/extra/layouts/grid/lv_grid.c ****         }
 497:Drivers/lvgl/src/extra/layouts/grid/lv_grid.c ****     }
 498:Drivers/lvgl/src/extra/layouts/grid/lv_grid.c **** 
 499:Drivers/lvgl/src/extra/layouts/grid/lv_grid.c ****     /*To avoid rounding errors set the last FR track to the remaining size */
 500:Drivers/lvgl/src/extra/layouts/grid/lv_grid.c ****     if(last_fr_i >= 0) {
 501:Drivers/lvgl/src/extra/layouts/grid/lv_grid.c ****         c->w[last_fr_i] = free_w - ((free_w * (col_fr_cnt - last_fr_x)) / col_fr_cnt);
 502:Drivers/lvgl/src/extra/layouts/grid/lv_grid.c ****     }
 503:Drivers/lvgl/src/extra/layouts/grid/lv_grid.c **** }
 504:Drivers/lvgl/src/extra/layouts/grid/lv_grid.c **** 
 505:Drivers/lvgl/src/extra/layouts/grid/lv_grid.c **** static void calc_rows(lv_obj_t * cont, _lv_grid_calc_t * c)
 506:Drivers/lvgl/src/extra/layouts/grid/lv_grid.c **** {
 507:Drivers/lvgl/src/extra/layouts/grid/lv_grid.c ****     uint32_t i;
 508:Drivers/lvgl/src/extra/layouts/grid/lv_grid.c ****     const lv_coord_t * row_templ = get_row_dsc(cont);
 509:Drivers/lvgl/src/extra/layouts/grid/lv_grid.c ****     c->row_num = count_tracks(row_templ);
 510:Drivers/lvgl/src/extra/layouts/grid/lv_grid.c ****     c->y = lv_mem_buf_get(sizeof(lv_coord_t) * c->row_num);
 511:Drivers/lvgl/src/extra/layouts/grid/lv_grid.c ****     c->h = lv_mem_buf_get(sizeof(lv_coord_t) * c->row_num);
 512:Drivers/lvgl/src/extra/layouts/grid/lv_grid.c ****     /*Set sizes for CONTENT cells*/
 513:Drivers/lvgl/src/extra/layouts/grid/lv_grid.c ****     for(i = 0; i < c->row_num; i++) {
 514:Drivers/lvgl/src/extra/layouts/grid/lv_grid.c ****         lv_coord_t size = LV_COORD_MIN;
 515:Drivers/lvgl/src/extra/layouts/grid/lv_grid.c ****         if(IS_CONTENT(row_templ[i])) {
 516:Drivers/lvgl/src/extra/layouts/grid/lv_grid.c ****             /*Check the size of children of this cell*/
 517:Drivers/lvgl/src/extra/layouts/grid/lv_grid.c ****             uint32_t ci;
 518:Drivers/lvgl/src/extra/layouts/grid/lv_grid.c ****             for(ci = 0; ci < lv_obj_get_child_cnt(cont); ci++) {
 519:Drivers/lvgl/src/extra/layouts/grid/lv_grid.c ****                 lv_obj_t * item = lv_obj_get_child(cont, ci);
 520:Drivers/lvgl/src/extra/layouts/grid/lv_grid.c ****                 if(lv_obj_has_flag_any(item, LV_OBJ_FLAG_IGNORE_LAYOUT | LV_OBJ_FLAG_HIDDEN | LV_OB
 521:Drivers/lvgl/src/extra/layouts/grid/lv_grid.c ****                 uint32_t row_span = get_row_span(item);
 522:Drivers/lvgl/src/extra/layouts/grid/lv_grid.c ****                 if(row_span != 1) continue;
 523:Drivers/lvgl/src/extra/layouts/grid/lv_grid.c **** 
 524:Drivers/lvgl/src/extra/layouts/grid/lv_grid.c ****                 uint32_t row_pos = get_row_pos(item);
 525:Drivers/lvgl/src/extra/layouts/grid/lv_grid.c ****                 if(row_pos != i) continue;
 526:Drivers/lvgl/src/extra/layouts/grid/lv_grid.c **** 
 527:Drivers/lvgl/src/extra/layouts/grid/lv_grid.c ****                 size = LV_MAX(size, lv_obj_get_height(item));
 528:Drivers/lvgl/src/extra/layouts/grid/lv_grid.c ****             }
 529:Drivers/lvgl/src/extra/layouts/grid/lv_grid.c ****             if(size >= 0) c->h[i] = size;
 530:Drivers/lvgl/src/extra/layouts/grid/lv_grid.c ****             else c->h[i] = 0;
 531:Drivers/lvgl/src/extra/layouts/grid/lv_grid.c ****         }
 532:Drivers/lvgl/src/extra/layouts/grid/lv_grid.c ****     }
 533:Drivers/lvgl/src/extra/layouts/grid/lv_grid.c **** 
 534:Drivers/lvgl/src/extra/layouts/grid/lv_grid.c ****     uint32_t row_fr_cnt = 0;
 535:Drivers/lvgl/src/extra/layouts/grid/lv_grid.c ****     lv_coord_t grid_h = 0;
 536:Drivers/lvgl/src/extra/layouts/grid/lv_grid.c **** 
 537:Drivers/lvgl/src/extra/layouts/grid/lv_grid.c ****     for(i = 0; i < c->row_num; i++) {
 538:Drivers/lvgl/src/extra/layouts/grid/lv_grid.c ****         lv_coord_t x = row_templ[i];
 539:Drivers/lvgl/src/extra/layouts/grid/lv_grid.c ****         if(IS_FR(x)) {
 540:Drivers/lvgl/src/extra/layouts/grid/lv_grid.c ****             row_fr_cnt += GET_FR(x);
 541:Drivers/lvgl/src/extra/layouts/grid/lv_grid.c ****         }
 542:Drivers/lvgl/src/extra/layouts/grid/lv_grid.c ****         else if(IS_CONTENT(x)) {
 543:Drivers/lvgl/src/extra/layouts/grid/lv_grid.c ****             grid_h += c->h[i];
ARM GAS  /var/folders/lp/x54gwt890xv47sdkqj1k04q40000gn/T//cc3Qko3C.s 			page 11


 544:Drivers/lvgl/src/extra/layouts/grid/lv_grid.c ****         }
 545:Drivers/lvgl/src/extra/layouts/grid/lv_grid.c ****         else {
 546:Drivers/lvgl/src/extra/layouts/grid/lv_grid.c ****             c->h[i] = x;
 547:Drivers/lvgl/src/extra/layouts/grid/lv_grid.c ****             grid_h += x;
 548:Drivers/lvgl/src/extra/layouts/grid/lv_grid.c ****         }
 549:Drivers/lvgl/src/extra/layouts/grid/lv_grid.c ****     }
 550:Drivers/lvgl/src/extra/layouts/grid/lv_grid.c **** 
 551:Drivers/lvgl/src/extra/layouts/grid/lv_grid.c **** 
 552:Drivers/lvgl/src/extra/layouts/grid/lv_grid.c ****     lv_coord_t row_gap = lv_obj_get_style_pad_row(cont, LV_PART_MAIN);
 553:Drivers/lvgl/src/extra/layouts/grid/lv_grid.c ****     lv_coord_t cont_h = lv_obj_get_content_height(cont) - row_gap * (c->row_num - 1);
 554:Drivers/lvgl/src/extra/layouts/grid/lv_grid.c ****     lv_coord_t free_h = cont_h - grid_h;
 555:Drivers/lvgl/src/extra/layouts/grid/lv_grid.c ****     if(free_h < 0) free_h = 0;
 556:Drivers/lvgl/src/extra/layouts/grid/lv_grid.c **** 
 557:Drivers/lvgl/src/extra/layouts/grid/lv_grid.c ****     int32_t last_fr_i = -1;
 558:Drivers/lvgl/src/extra/layouts/grid/lv_grid.c ****     int32_t last_fr_x = 0;
 559:Drivers/lvgl/src/extra/layouts/grid/lv_grid.c ****     for(i = 0; i < c->row_num; i++) {
 560:Drivers/lvgl/src/extra/layouts/grid/lv_grid.c ****         lv_coord_t x = row_templ[i];
 561:Drivers/lvgl/src/extra/layouts/grid/lv_grid.c ****         if(IS_FR(x)) {
 562:Drivers/lvgl/src/extra/layouts/grid/lv_grid.c ****             lv_coord_t f = GET_FR(x);
 563:Drivers/lvgl/src/extra/layouts/grid/lv_grid.c ****             c->h[i] = (free_h * f) / row_fr_cnt;
 564:Drivers/lvgl/src/extra/layouts/grid/lv_grid.c ****             last_fr_i = i;
 565:Drivers/lvgl/src/extra/layouts/grid/lv_grid.c ****             last_fr_x = f;
 566:Drivers/lvgl/src/extra/layouts/grid/lv_grid.c ****         }
 567:Drivers/lvgl/src/extra/layouts/grid/lv_grid.c ****     }
 568:Drivers/lvgl/src/extra/layouts/grid/lv_grid.c **** 
 569:Drivers/lvgl/src/extra/layouts/grid/lv_grid.c ****     /*To avoid rounding errors set the last FR track to the remaining size */
 570:Drivers/lvgl/src/extra/layouts/grid/lv_grid.c ****     if(last_fr_i >= 0) {
 571:Drivers/lvgl/src/extra/layouts/grid/lv_grid.c ****         c->h[last_fr_i] = free_h - ((free_h * (row_fr_cnt - last_fr_x)) / row_fr_cnt);
 572:Drivers/lvgl/src/extra/layouts/grid/lv_grid.c ****     }
 573:Drivers/lvgl/src/extra/layouts/grid/lv_grid.c **** }
 574:Drivers/lvgl/src/extra/layouts/grid/lv_grid.c **** 
 575:Drivers/lvgl/src/extra/layouts/grid/lv_grid.c **** /**
 576:Drivers/lvgl/src/extra/layouts/grid/lv_grid.c ****  * Reposition a grid item in its cell
 577:Drivers/lvgl/src/extra/layouts/grid/lv_grid.c ****  * @param item a grid item to reposition
 578:Drivers/lvgl/src/extra/layouts/grid/lv_grid.c ****  * @param calc the calculated grid of `cont`
 579:Drivers/lvgl/src/extra/layouts/grid/lv_grid.c ****  * @param child_id_ext helper value if the ID of the child is know (order from the oldest) else -1
 580:Drivers/lvgl/src/extra/layouts/grid/lv_grid.c ****  * @param grid_abs helper value, the absolute position of the grid, NULL if unknown
 581:Drivers/lvgl/src/extra/layouts/grid/lv_grid.c ****  */
 582:Drivers/lvgl/src/extra/layouts/grid/lv_grid.c **** static void item_repos(lv_obj_t * item, _lv_grid_calc_t * c, item_repos_hint_t * hint)
 583:Drivers/lvgl/src/extra/layouts/grid/lv_grid.c **** {
 584:Drivers/lvgl/src/extra/layouts/grid/lv_grid.c ****     if(lv_obj_has_flag_any(item, LV_OBJ_FLAG_IGNORE_LAYOUT | LV_OBJ_FLAG_HIDDEN | LV_OBJ_FLAG_FLOAT
 585:Drivers/lvgl/src/extra/layouts/grid/lv_grid.c ****     uint32_t col_span = get_col_span(item);
 586:Drivers/lvgl/src/extra/layouts/grid/lv_grid.c ****     uint32_t row_span = get_row_span(item);
 587:Drivers/lvgl/src/extra/layouts/grid/lv_grid.c ****     if(row_span == 0 || col_span == 0) return;
 588:Drivers/lvgl/src/extra/layouts/grid/lv_grid.c **** 
 589:Drivers/lvgl/src/extra/layouts/grid/lv_grid.c ****     uint32_t col_pos = get_col_pos(item);
 590:Drivers/lvgl/src/extra/layouts/grid/lv_grid.c ****     uint32_t row_pos = get_row_pos(item);
 591:Drivers/lvgl/src/extra/layouts/grid/lv_grid.c ****     lv_grid_align_t col_align = get_cell_col_align(item);
 592:Drivers/lvgl/src/extra/layouts/grid/lv_grid.c ****     lv_grid_align_t row_align = get_cell_row_align(item);
 593:Drivers/lvgl/src/extra/layouts/grid/lv_grid.c **** 
 594:Drivers/lvgl/src/extra/layouts/grid/lv_grid.c **** 
 595:Drivers/lvgl/src/extra/layouts/grid/lv_grid.c ****     lv_coord_t col_x1 = c->x[col_pos];
 596:Drivers/lvgl/src/extra/layouts/grid/lv_grid.c ****     lv_coord_t col_x2 = c->x[col_pos + col_span - 1] + c->w[col_pos + col_span - 1];
 597:Drivers/lvgl/src/extra/layouts/grid/lv_grid.c ****     lv_coord_t col_w = col_x2 - col_x1;
 598:Drivers/lvgl/src/extra/layouts/grid/lv_grid.c **** 
 599:Drivers/lvgl/src/extra/layouts/grid/lv_grid.c ****     lv_coord_t row_y1 = c->y[row_pos];
 600:Drivers/lvgl/src/extra/layouts/grid/lv_grid.c ****     lv_coord_t row_y2 = c->y[row_pos + row_span - 1] + c->h[row_pos + row_span - 1];
ARM GAS  /var/folders/lp/x54gwt890xv47sdkqj1k04q40000gn/T//cc3Qko3C.s 			page 12


 601:Drivers/lvgl/src/extra/layouts/grid/lv_grid.c ****     lv_coord_t row_h = row_y2 - row_y1;
 602:Drivers/lvgl/src/extra/layouts/grid/lv_grid.c **** 
 603:Drivers/lvgl/src/extra/layouts/grid/lv_grid.c **** 
 604:Drivers/lvgl/src/extra/layouts/grid/lv_grid.c ****     /*If the item has RTL base dir switch start and end*/
 605:Drivers/lvgl/src/extra/layouts/grid/lv_grid.c ****     if(lv_obj_get_style_base_dir(item, LV_PART_MAIN) == LV_BASE_DIR_RTL) {
 606:Drivers/lvgl/src/extra/layouts/grid/lv_grid.c ****         if(col_align == LV_GRID_ALIGN_START) col_align = LV_GRID_ALIGN_END;
 607:Drivers/lvgl/src/extra/layouts/grid/lv_grid.c ****         else if(col_align == LV_GRID_ALIGN_END) col_align = LV_GRID_ALIGN_START;
 608:Drivers/lvgl/src/extra/layouts/grid/lv_grid.c ****     }
 609:Drivers/lvgl/src/extra/layouts/grid/lv_grid.c **** 
 610:Drivers/lvgl/src/extra/layouts/grid/lv_grid.c ****     lv_coord_t x;
 611:Drivers/lvgl/src/extra/layouts/grid/lv_grid.c ****     lv_coord_t y;
 612:Drivers/lvgl/src/extra/layouts/grid/lv_grid.c ****     lv_coord_t item_w = lv_area_get_width(&item->coords);
 613:Drivers/lvgl/src/extra/layouts/grid/lv_grid.c ****     lv_coord_t item_h = lv_area_get_height(&item->coords);
 614:Drivers/lvgl/src/extra/layouts/grid/lv_grid.c **** 
 615:Drivers/lvgl/src/extra/layouts/grid/lv_grid.c ****     switch(col_align) {
 616:Drivers/lvgl/src/extra/layouts/grid/lv_grid.c ****         default:
 617:Drivers/lvgl/src/extra/layouts/grid/lv_grid.c ****         case LV_GRID_ALIGN_START:
 618:Drivers/lvgl/src/extra/layouts/grid/lv_grid.c ****             x = c->x[col_pos];
 619:Drivers/lvgl/src/extra/layouts/grid/lv_grid.c ****             item->w_layout = 0;
 620:Drivers/lvgl/src/extra/layouts/grid/lv_grid.c ****             break;
 621:Drivers/lvgl/src/extra/layouts/grid/lv_grid.c ****         case LV_GRID_ALIGN_STRETCH:
 622:Drivers/lvgl/src/extra/layouts/grid/lv_grid.c ****             x = c->x[col_pos];
 623:Drivers/lvgl/src/extra/layouts/grid/lv_grid.c ****             item_w = col_w;
 624:Drivers/lvgl/src/extra/layouts/grid/lv_grid.c ****             item->w_layout = 1;
 625:Drivers/lvgl/src/extra/layouts/grid/lv_grid.c ****             break;
 626:Drivers/lvgl/src/extra/layouts/grid/lv_grid.c ****         case LV_GRID_ALIGN_CENTER:
 627:Drivers/lvgl/src/extra/layouts/grid/lv_grid.c ****             x = c->x[col_pos] + (col_w - item_w) / 2;
 628:Drivers/lvgl/src/extra/layouts/grid/lv_grid.c ****             item->w_layout = 0;
 629:Drivers/lvgl/src/extra/layouts/grid/lv_grid.c ****             break;
 630:Drivers/lvgl/src/extra/layouts/grid/lv_grid.c ****         case LV_GRID_ALIGN_END:
 631:Drivers/lvgl/src/extra/layouts/grid/lv_grid.c ****             x = c->x[col_pos] + col_w - lv_obj_get_width(item);
 632:Drivers/lvgl/src/extra/layouts/grid/lv_grid.c ****             item->w_layout = 0;
 633:Drivers/lvgl/src/extra/layouts/grid/lv_grid.c ****             break;
 634:Drivers/lvgl/src/extra/layouts/grid/lv_grid.c ****     }
 635:Drivers/lvgl/src/extra/layouts/grid/lv_grid.c **** 
 636:Drivers/lvgl/src/extra/layouts/grid/lv_grid.c ****     switch(row_align) {
 637:Drivers/lvgl/src/extra/layouts/grid/lv_grid.c ****         default:
 638:Drivers/lvgl/src/extra/layouts/grid/lv_grid.c ****         case LV_GRID_ALIGN_START:
 639:Drivers/lvgl/src/extra/layouts/grid/lv_grid.c ****             y = c->y[row_pos];
 640:Drivers/lvgl/src/extra/layouts/grid/lv_grid.c ****             item->h_layout = 0;
 641:Drivers/lvgl/src/extra/layouts/grid/lv_grid.c ****             break;
 642:Drivers/lvgl/src/extra/layouts/grid/lv_grid.c ****         case LV_GRID_ALIGN_STRETCH:
 643:Drivers/lvgl/src/extra/layouts/grid/lv_grid.c ****             y = c->y[row_pos];
 644:Drivers/lvgl/src/extra/layouts/grid/lv_grid.c ****             item_h = row_h;
 645:Drivers/lvgl/src/extra/layouts/grid/lv_grid.c ****             item->h_layout = 1;
 646:Drivers/lvgl/src/extra/layouts/grid/lv_grid.c ****             break;
 647:Drivers/lvgl/src/extra/layouts/grid/lv_grid.c ****         case LV_GRID_ALIGN_CENTER:
 648:Drivers/lvgl/src/extra/layouts/grid/lv_grid.c ****             y = c->y[row_pos] + (row_h - item_h) / 2;
 649:Drivers/lvgl/src/extra/layouts/grid/lv_grid.c ****             item->h_layout = 0;
 650:Drivers/lvgl/src/extra/layouts/grid/lv_grid.c ****             break;
 651:Drivers/lvgl/src/extra/layouts/grid/lv_grid.c ****         case LV_GRID_ALIGN_END:
 652:Drivers/lvgl/src/extra/layouts/grid/lv_grid.c ****             y = c->y[row_pos] + row_h - lv_obj_get_height(item);
 653:Drivers/lvgl/src/extra/layouts/grid/lv_grid.c ****             item->h_layout = 0;
 654:Drivers/lvgl/src/extra/layouts/grid/lv_grid.c ****             break;
 655:Drivers/lvgl/src/extra/layouts/grid/lv_grid.c ****     }
 656:Drivers/lvgl/src/extra/layouts/grid/lv_grid.c **** 
 657:Drivers/lvgl/src/extra/layouts/grid/lv_grid.c ****     /*Set a new size if required*/
ARM GAS  /var/folders/lp/x54gwt890xv47sdkqj1k04q40000gn/T//cc3Qko3C.s 			page 13


 658:Drivers/lvgl/src/extra/layouts/grid/lv_grid.c ****     if(lv_obj_get_width(item) != item_w || lv_obj_get_height(item) != item_h) {
 659:Drivers/lvgl/src/extra/layouts/grid/lv_grid.c ****         lv_area_t old_coords;
 660:Drivers/lvgl/src/extra/layouts/grid/lv_grid.c ****         lv_area_copy(&old_coords, &item->coords);
 661:Drivers/lvgl/src/extra/layouts/grid/lv_grid.c ****         lv_obj_invalidate(item);
 662:Drivers/lvgl/src/extra/layouts/grid/lv_grid.c ****         lv_area_set_width(&item->coords, item_w);
 663:Drivers/lvgl/src/extra/layouts/grid/lv_grid.c ****         lv_area_set_height(&item->coords, item_h);
 664:Drivers/lvgl/src/extra/layouts/grid/lv_grid.c ****         lv_obj_invalidate(item);
 665:Drivers/lvgl/src/extra/layouts/grid/lv_grid.c ****         lv_event_send(item, LV_EVENT_SIZE_CHANGED, &old_coords);
 666:Drivers/lvgl/src/extra/layouts/grid/lv_grid.c ****         lv_event_send(lv_obj_get_parent(item), LV_EVENT_CHILD_CHANGED, item);
 667:Drivers/lvgl/src/extra/layouts/grid/lv_grid.c **** 
 668:Drivers/lvgl/src/extra/layouts/grid/lv_grid.c ****     }
 669:Drivers/lvgl/src/extra/layouts/grid/lv_grid.c **** 
 670:Drivers/lvgl/src/extra/layouts/grid/lv_grid.c ****     /*Handle percentage value of translate*/
 671:Drivers/lvgl/src/extra/layouts/grid/lv_grid.c ****     lv_coord_t tr_x = lv_obj_get_style_translate_x(item, LV_PART_MAIN);
 672:Drivers/lvgl/src/extra/layouts/grid/lv_grid.c ****     lv_coord_t tr_y = lv_obj_get_style_translate_y(item, LV_PART_MAIN);
 673:Drivers/lvgl/src/extra/layouts/grid/lv_grid.c ****     lv_coord_t w = lv_obj_get_width(item);
 674:Drivers/lvgl/src/extra/layouts/grid/lv_grid.c ****     lv_coord_t h = lv_obj_get_height(item);
 675:Drivers/lvgl/src/extra/layouts/grid/lv_grid.c ****     if(LV_COORD_IS_PCT(tr_x)) tr_x = (w * LV_COORD_GET_PCT(tr_x)) / 100;
 676:Drivers/lvgl/src/extra/layouts/grid/lv_grid.c ****     if(LV_COORD_IS_PCT(tr_y)) tr_y = (h * LV_COORD_GET_PCT(tr_y)) / 100;
 677:Drivers/lvgl/src/extra/layouts/grid/lv_grid.c **** 
 678:Drivers/lvgl/src/extra/layouts/grid/lv_grid.c ****     x += tr_x;
 679:Drivers/lvgl/src/extra/layouts/grid/lv_grid.c ****     y += tr_y;
 680:Drivers/lvgl/src/extra/layouts/grid/lv_grid.c **** 
 681:Drivers/lvgl/src/extra/layouts/grid/lv_grid.c ****     lv_coord_t diff_x = hint->grid_abs.x + x - item->coords.x1;
 682:Drivers/lvgl/src/extra/layouts/grid/lv_grid.c ****     lv_coord_t diff_y = hint->grid_abs.y + y - item->coords.y1;
 683:Drivers/lvgl/src/extra/layouts/grid/lv_grid.c ****     if(diff_x || diff_y) {
 684:Drivers/lvgl/src/extra/layouts/grid/lv_grid.c ****         lv_obj_invalidate(item);
 685:Drivers/lvgl/src/extra/layouts/grid/lv_grid.c ****         item->coords.x1 += diff_x;
 686:Drivers/lvgl/src/extra/layouts/grid/lv_grid.c ****         item->coords.x2 += diff_x;
 687:Drivers/lvgl/src/extra/layouts/grid/lv_grid.c ****         item->coords.y1 += diff_y;
 688:Drivers/lvgl/src/extra/layouts/grid/lv_grid.c ****         item->coords.y2 += diff_y;
 689:Drivers/lvgl/src/extra/layouts/grid/lv_grid.c ****         lv_obj_invalidate(item);
 690:Drivers/lvgl/src/extra/layouts/grid/lv_grid.c ****         lv_obj_move_children_by(item, diff_x, diff_y, false);
 691:Drivers/lvgl/src/extra/layouts/grid/lv_grid.c ****     }
 692:Drivers/lvgl/src/extra/layouts/grid/lv_grid.c **** }
 693:Drivers/lvgl/src/extra/layouts/grid/lv_grid.c **** 
 694:Drivers/lvgl/src/extra/layouts/grid/lv_grid.c **** /**
 695:Drivers/lvgl/src/extra/layouts/grid/lv_grid.c ****  * Place the grid track according to align methods. It keeps the track sizes but sets their positio
 696:Drivers/lvgl/src/extra/layouts/grid/lv_grid.c ****  * It can process both columns or rows according to the passed parameters.
 697:Drivers/lvgl/src/extra/layouts/grid/lv_grid.c ****  * @param cont_size size of the containers content area (width/height)
 698:Drivers/lvgl/src/extra/layouts/grid/lv_grid.c ****  * @param auto_size true: the container has auto size in the current direction
 699:Drivers/lvgl/src/extra/layouts/grid/lv_grid.c ****  * @param align align method
 700:Drivers/lvgl/src/extra/layouts/grid/lv_grid.c ****  * @param gap grid gap
 701:Drivers/lvgl/src/extra/layouts/grid/lv_grid.c ****  * @param track_num number of tracks
 702:Drivers/lvgl/src/extra/layouts/grid/lv_grid.c ****  * @param size_array array with the track sizes
 703:Drivers/lvgl/src/extra/layouts/grid/lv_grid.c ****  * @param pos_array write the positions of the tracks here
 704:Drivers/lvgl/src/extra/layouts/grid/lv_grid.c ****  * @return the total size of the grid
 705:Drivers/lvgl/src/extra/layouts/grid/lv_grid.c ****  */
 706:Drivers/lvgl/src/extra/layouts/grid/lv_grid.c **** static lv_coord_t grid_align(lv_coord_t cont_size,  bool auto_size, uint8_t align, lv_coord_t gap, 
 707:Drivers/lvgl/src/extra/layouts/grid/lv_grid.c ****                              lv_coord_t * size_array, lv_coord_t * pos_array, bool reverse)
 708:Drivers/lvgl/src/extra/layouts/grid/lv_grid.c **** {
  29              		.loc 1 708 1 view -0
  30              		.cfi_startproc
  31              		@ args = 16, pretend = 0, frame = 0
  32              		@ frame_needed = 0, uses_anonymous_args = 0
  33              		.loc 1 708 1 is_stmt 0 view .LVU1
  34 0000 2DE9F041 		push	{r4, r5, r6, r7, r8, lr}
ARM GAS  /var/folders/lp/x54gwt890xv47sdkqj1k04q40000gn/T//cc3Qko3C.s 			page 14


  35              		.cfi_def_cfa_offset 24
  36              		.cfi_offset 4, -24
  37              		.cfi_offset 5, -20
  38              		.cfi_offset 6, -16
  39              		.cfi_offset 7, -12
  40              		.cfi_offset 8, -8
  41              		.cfi_offset 14, -4
  42 0004 8446     		mov	ip, r0
  43 0006 069D     		ldr	r5, [sp, #24]
  44 0008 079E     		ldr	r6, [sp, #28]
  45 000a 089C     		ldr	r4, [sp, #32]
  46 000c 9DF82470 		ldrb	r7, [sp, #36]	@ zero_extendqisi2
 709:Drivers/lvgl/src/extra/layouts/grid/lv_grid.c ****     lv_coord_t grid_size = 0;
  47              		.loc 1 709 5 is_stmt 1 view .LVU2
  48              	.LVL1:
 710:Drivers/lvgl/src/extra/layouts/grid/lv_grid.c ****     uint32_t i;
  49              		.loc 1 710 5 view .LVU3
 711:Drivers/lvgl/src/extra/layouts/grid/lv_grid.c **** 
 712:Drivers/lvgl/src/extra/layouts/grid/lv_grid.c ****     if(auto_size) {
  50              		.loc 1 712 5 view .LVU4
  51              		.loc 1 712 7 is_stmt 0 view .LVU5
  52 0010 19B1     		cbz	r1, .L2
 713:Drivers/lvgl/src/extra/layouts/grid/lv_grid.c ****         pos_array[0] = 0;
  53              		.loc 1 713 9 is_stmt 1 view .LVU6
  54              		.loc 1 713 22 is_stmt 0 view .LVU7
  55 0012 0022     		movs	r2, #0
  56              	.LVL2:
  57              		.loc 1 713 22 view .LVU8
  58 0014 2280     		strh	r2, [r4]	@ movhi
  59              	.LVL3:
  60              	.L3:
 714:Drivers/lvgl/src/extra/layouts/grid/lv_grid.c ****     }
 715:Drivers/lvgl/src/extra/layouts/grid/lv_grid.c ****     else {
 716:Drivers/lvgl/src/extra/layouts/grid/lv_grid.c ****         /*With spaced alignment gap will be calculated from the remaining space*/
 717:Drivers/lvgl/src/extra/layouts/grid/lv_grid.c ****         if(align == LV_GRID_ALIGN_SPACE_AROUND || align == LV_GRID_ALIGN_SPACE_BETWEEN || align == 
 718:Drivers/lvgl/src/extra/layouts/grid/lv_grid.c ****             gap = 0;
 719:Drivers/lvgl/src/extra/layouts/grid/lv_grid.c ****             if(track_num == 1) align = LV_GRID_ALIGN_CENTER;
 720:Drivers/lvgl/src/extra/layouts/grid/lv_grid.c ****         }
 721:Drivers/lvgl/src/extra/layouts/grid/lv_grid.c **** 
 722:Drivers/lvgl/src/extra/layouts/grid/lv_grid.c ****         /*Get the full grid size with gap*/
 723:Drivers/lvgl/src/extra/layouts/grid/lv_grid.c ****         for(i = 0; i < track_num; i++) {
 724:Drivers/lvgl/src/extra/layouts/grid/lv_grid.c ****             grid_size += size_array[i] + gap;
 725:Drivers/lvgl/src/extra/layouts/grid/lv_grid.c ****         }
 726:Drivers/lvgl/src/extra/layouts/grid/lv_grid.c ****         grid_size -= gap;
 727:Drivers/lvgl/src/extra/layouts/grid/lv_grid.c **** 
 728:Drivers/lvgl/src/extra/layouts/grid/lv_grid.c ****         /*Calculate the position of the first item and set gap is necessary*/
 729:Drivers/lvgl/src/extra/layouts/grid/lv_grid.c ****         switch(align) {
 730:Drivers/lvgl/src/extra/layouts/grid/lv_grid.c ****             case LV_GRID_ALIGN_START:
 731:Drivers/lvgl/src/extra/layouts/grid/lv_grid.c ****                 pos_array[0] = 0;
 732:Drivers/lvgl/src/extra/layouts/grid/lv_grid.c ****                 break;
 733:Drivers/lvgl/src/extra/layouts/grid/lv_grid.c ****             case LV_GRID_ALIGN_CENTER:
 734:Drivers/lvgl/src/extra/layouts/grid/lv_grid.c ****                 pos_array[0] = (cont_size - grid_size) / 2;
 735:Drivers/lvgl/src/extra/layouts/grid/lv_grid.c ****                 break;
 736:Drivers/lvgl/src/extra/layouts/grid/lv_grid.c ****             case LV_GRID_ALIGN_END:
 737:Drivers/lvgl/src/extra/layouts/grid/lv_grid.c ****                 pos_array[0] = cont_size - grid_size;
 738:Drivers/lvgl/src/extra/layouts/grid/lv_grid.c ****                 break;
 739:Drivers/lvgl/src/extra/layouts/grid/lv_grid.c ****             case LV_GRID_ALIGN_SPACE_BETWEEN:
ARM GAS  /var/folders/lp/x54gwt890xv47sdkqj1k04q40000gn/T//cc3Qko3C.s 			page 15


 740:Drivers/lvgl/src/extra/layouts/grid/lv_grid.c ****                 pos_array[0] = 0;
 741:Drivers/lvgl/src/extra/layouts/grid/lv_grid.c ****                 gap = (lv_coord_t)(cont_size - grid_size) / (lv_coord_t)(track_num - 1);
 742:Drivers/lvgl/src/extra/layouts/grid/lv_grid.c ****                 break;
 743:Drivers/lvgl/src/extra/layouts/grid/lv_grid.c ****             case LV_GRID_ALIGN_SPACE_AROUND:
 744:Drivers/lvgl/src/extra/layouts/grid/lv_grid.c ****                 gap = (lv_coord_t)(cont_size - grid_size) / (lv_coord_t)(track_num);
 745:Drivers/lvgl/src/extra/layouts/grid/lv_grid.c ****                 pos_array[0] = gap / 2;
 746:Drivers/lvgl/src/extra/layouts/grid/lv_grid.c ****                 break;
 747:Drivers/lvgl/src/extra/layouts/grid/lv_grid.c ****             case LV_GRID_ALIGN_SPACE_EVENLY:
 748:Drivers/lvgl/src/extra/layouts/grid/lv_grid.c ****                 gap = (lv_coord_t)(cont_size - grid_size) / (lv_coord_t)(track_num + 1);
 749:Drivers/lvgl/src/extra/layouts/grid/lv_grid.c ****                 pos_array[0] = gap;
 750:Drivers/lvgl/src/extra/layouts/grid/lv_grid.c ****                 break;
 751:Drivers/lvgl/src/extra/layouts/grid/lv_grid.c **** 
 752:Drivers/lvgl/src/extra/layouts/grid/lv_grid.c ****         }
 753:Drivers/lvgl/src/extra/layouts/grid/lv_grid.c ****     }
 754:Drivers/lvgl/src/extra/layouts/grid/lv_grid.c **** 
 755:Drivers/lvgl/src/extra/layouts/grid/lv_grid.c ****     /*Set the position of all tracks from the start position, gaps and track sizes*/
 756:Drivers/lvgl/src/extra/layouts/grid/lv_grid.c ****     for(i = 0; i < track_num - 1; i++) {
  61              		.loc 1 756 5 is_stmt 1 view .LVU9
  62              		.loc 1 756 11 is_stmt 0 view .LVU10
  63 0016 0022     		movs	r2, #0
  64              		.loc 1 756 5 view .LVU11
  65 0018 6BE0     		b	.L14
  66              	.LVL4:
  67              	.L2:
 717:Drivers/lvgl/src/extra/layouts/grid/lv_grid.c ****             gap = 0;
  68              		.loc 1 717 9 is_stmt 1 view .LVU12
 717:Drivers/lvgl/src/extra/layouts/grid/lv_grid.c ****             gap = 0;
  69              		.loc 1 717 88 is_stmt 0 view .LVU13
  70 001a 111F     		subs	r1, r2, #4
  71              	.LVL5:
 717:Drivers/lvgl/src/extra/layouts/grid/lv_grid.c ****             gap = 0;
  72              		.loc 1 717 88 view .LVU14
  73 001c C9B2     		uxtb	r1, r1
 717:Drivers/lvgl/src/extra/layouts/grid/lv_grid.c ****             gap = 0;
  74              		.loc 1 717 11 view .LVU15
  75 001e 0229     		cmp	r1, #2
  76 0020 02D8     		bhi	.L4
 718:Drivers/lvgl/src/extra/layouts/grid/lv_grid.c ****             if(track_num == 1) align = LV_GRID_ALIGN_CENTER;
  77              		.loc 1 718 13 is_stmt 1 view .LVU16
  78              	.LVL6:
 719:Drivers/lvgl/src/extra/layouts/grid/lv_grid.c ****         }
  79              		.loc 1 719 13 view .LVU17
 719:Drivers/lvgl/src/extra/layouts/grid/lv_grid.c ****         }
  80              		.loc 1 719 15 is_stmt 0 view .LVU18
  81 0022 012D     		cmp	r5, #1
  82 0024 0CD0     		beq	.L19
 718:Drivers/lvgl/src/extra/layouts/grid/lv_grid.c ****             if(track_num == 1) align = LV_GRID_ALIGN_CENTER;
  83              		.loc 1 718 17 view .LVU19
  84 0026 0023     		movs	r3, #0
  85              	.LVL7:
  86              	.L4:
 723:Drivers/lvgl/src/extra/layouts/grid/lv_grid.c ****             grid_size += size_array[i] + gap;
  87              		.loc 1 723 9 is_stmt 1 view .LVU20
 723:Drivers/lvgl/src/extra/layouts/grid/lv_grid.c ****             grid_size += size_array[i] + gap;
  88              		.loc 1 723 15 is_stmt 0 view .LVU21
  89 0028 0020     		movs	r0, #0
  90              	.LVL8:
ARM GAS  /var/folders/lp/x54gwt890xv47sdkqj1k04q40000gn/T//cc3Qko3C.s 			page 16


 709:Drivers/lvgl/src/extra/layouts/grid/lv_grid.c ****     uint32_t i;
  91              		.loc 1 709 16 view .LVU22
  92 002a 0146     		mov	r1, r0
  93              	.LVL9:
  94              	.L5:
 723:Drivers/lvgl/src/extra/layouts/grid/lv_grid.c ****             grid_size += size_array[i] + gap;
  95              		.loc 1 723 22 is_stmt 1 discriminator 1 view .LVU23
  96 002c A842     		cmp	r0, r5
  97 002e 0AD2     		bcs	.L23
 724:Drivers/lvgl/src/extra/layouts/grid/lv_grid.c ****         }
  98              		.loc 1 724 13 view .LVU24
 724:Drivers/lvgl/src/extra/layouts/grid/lv_grid.c ****         }
  99              		.loc 1 724 36 is_stmt 0 view .LVU25
 100 0030 36F810E0 		ldrh	lr, [r6, r0, lsl #1]
 724:Drivers/lvgl/src/extra/layouts/grid/lv_grid.c ****         }
 101              		.loc 1 724 40 view .LVU26
 102 0034 9E44     		add	lr, lr, r3
 724:Drivers/lvgl/src/extra/layouts/grid/lv_grid.c ****         }
 103              		.loc 1 724 23 view .LVU27
 104 0036 11FA8EF1 		uxtah	r1, r1, lr
 105              	.LVL10:
 724:Drivers/lvgl/src/extra/layouts/grid/lv_grid.c ****         }
 106              		.loc 1 724 23 view .LVU28
 107 003a 09B2     		sxth	r1, r1
 108              	.LVL11:
 723:Drivers/lvgl/src/extra/layouts/grid/lv_grid.c ****             grid_size += size_array[i] + gap;
 109              		.loc 1 723 36 is_stmt 1 discriminator 3 view .LVU29
 110 003c 0130     		adds	r0, r0, #1
 111              	.LVL12:
 723:Drivers/lvgl/src/extra/layouts/grid/lv_grid.c ****             grid_size += size_array[i] + gap;
 112              		.loc 1 723 36 is_stmt 0 discriminator 3 view .LVU30
 113 003e F5E7     		b	.L5
 114              	.LVL13:
 115              	.L19:
 718:Drivers/lvgl/src/extra/layouts/grid/lv_grid.c ****             if(track_num == 1) align = LV_GRID_ALIGN_CENTER;
 116              		.loc 1 718 17 view .LVU31
 117 0040 0023     		movs	r3, #0
 719:Drivers/lvgl/src/extra/layouts/grid/lv_grid.c ****         }
 118              		.loc 1 719 38 discriminator 1 view .LVU32
 119 0042 0122     		movs	r2, #1
 120              	.LVL14:
 719:Drivers/lvgl/src/extra/layouts/grid/lv_grid.c ****         }
 121              		.loc 1 719 38 discriminator 1 view .LVU33
 122 0044 F0E7     		b	.L4
 123              	.LVL15:
 124              	.L23:
 726:Drivers/lvgl/src/extra/layouts/grid/lv_grid.c **** 
 125              		.loc 1 726 9 is_stmt 1 view .LVU34
 726:Drivers/lvgl/src/extra/layouts/grid/lv_grid.c **** 
 126              		.loc 1 726 19 is_stmt 0 view .LVU35
 127 0046 89B2     		uxth	r1, r1
 726:Drivers/lvgl/src/extra/layouts/grid/lv_grid.c **** 
 128              		.loc 1 726 19 view .LVU36
 129 0048 98B2     		uxth	r0, r3
 130              	.LVL16:
 726:Drivers/lvgl/src/extra/layouts/grid/lv_grid.c **** 
 131              		.loc 1 726 19 view .LVU37
ARM GAS  /var/folders/lp/x54gwt890xv47sdkqj1k04q40000gn/T//cc3Qko3C.s 			page 17


 132 004a A1EB000E 		sub	lr, r1, r0
 133 004e 0FFA8EFE 		sxth	lr, lr
 134              	.LVL17:
 729:Drivers/lvgl/src/extra/layouts/grid/lv_grid.c ****             case LV_GRID_ALIGN_START:
 135              		.loc 1 729 9 is_stmt 1 view .LVU38
 136 0052 062A     		cmp	r2, #6
 137 0054 DFD8     		bhi	.L3
 138 0056 0FF20808 		adr	r8, .L8
 139 005a 58F822F0 		ldr	pc, [r8, r2, lsl #2]
 140 005e 00BF     		.p2align 2
 141              	.L8:
 142 0060 7D000000 		.word	.L13+1
 143 0064 83000000 		.word	.L12+1
 144 0068 93000000 		.word	.L11+1
 145 006c 17000000 		.word	.L3+1
 146 0070 CB000000 		.word	.L10+1
 147 0074 B1000000 		.word	.L9+1
 148 0078 9B000000 		.word	.L7+1
 149              		.p2align 1
 150              	.L13:
 731:Drivers/lvgl/src/extra/layouts/grid/lv_grid.c ****                 break;
 151              		.loc 1 731 17 view .LVU39
 731:Drivers/lvgl/src/extra/layouts/grid/lv_grid.c ****                 break;
 152              		.loc 1 731 30 is_stmt 0 view .LVU40
 153 007c 0022     		movs	r2, #0
 154              	.LVL18:
 731:Drivers/lvgl/src/extra/layouts/grid/lv_grid.c ****                 break;
 155              		.loc 1 731 30 view .LVU41
 156 007e 2280     		strh	r2, [r4]	@ movhi
 732:Drivers/lvgl/src/extra/layouts/grid/lv_grid.c ****             case LV_GRID_ALIGN_CENTER:
 157              		.loc 1 732 17 is_stmt 1 view .LVU42
 158 0080 C9E7     		b	.L3
 159              	.LVL19:
 160              	.L12:
 734:Drivers/lvgl/src/extra/layouts/grid/lv_grid.c ****                 break;
 161              		.loc 1 734 17 view .LVU43
 734:Drivers/lvgl/src/extra/layouts/grid/lv_grid.c ****                 break;
 162              		.loc 1 734 43 is_stmt 0 view .LVU44
 163 0082 ACEB0E0E 		sub	lr, ip, lr
 164              	.LVL20:
 734:Drivers/lvgl/src/extra/layouts/grid/lv_grid.c ****                 break;
 165              		.loc 1 734 56 view .LVU45
 166 0086 0EEBDE7E 		add	lr, lr, lr, lsr #31
 167 008a 4FEA6E02 		asr	r2, lr, #1
 168              	.LVL21:
 734:Drivers/lvgl/src/extra/layouts/grid/lv_grid.c ****                 break;
 169              		.loc 1 734 30 view .LVU46
 170 008e 2280     		strh	r2, [r4]	@ movhi
 735:Drivers/lvgl/src/extra/layouts/grid/lv_grid.c ****             case LV_GRID_ALIGN_END:
 171              		.loc 1 735 17 is_stmt 1 view .LVU47
 172 0090 C1E7     		b	.L3
 173              	.LVL22:
 174              	.L11:
 737:Drivers/lvgl/src/extra/layouts/grid/lv_grid.c ****                 break;
 175              		.loc 1 737 17 view .LVU48
 737:Drivers/lvgl/src/extra/layouts/grid/lv_grid.c ****                 break;
 176              		.loc 1 737 42 is_stmt 0 view .LVU49
ARM GAS  /var/folders/lp/x54gwt890xv47sdkqj1k04q40000gn/T//cc3Qko3C.s 			page 18


 177 0092 421A     		subs	r2, r0, r1
 178              	.LVL23:
 737:Drivers/lvgl/src/extra/layouts/grid/lv_grid.c ****                 break;
 179              		.loc 1 737 42 view .LVU50
 180 0094 6244     		add	r2, r2, ip
 737:Drivers/lvgl/src/extra/layouts/grid/lv_grid.c ****                 break;
 181              		.loc 1 737 30 view .LVU51
 182 0096 2280     		strh	r2, [r4]	@ movhi
 738:Drivers/lvgl/src/extra/layouts/grid/lv_grid.c ****             case LV_GRID_ALIGN_SPACE_BETWEEN:
 183              		.loc 1 738 17 is_stmt 1 view .LVU52
 184 0098 BDE7     		b	.L3
 185              	.LVL24:
 186              	.L7:
 740:Drivers/lvgl/src/extra/layouts/grid/lv_grid.c ****                 gap = (lv_coord_t)(cont_size - grid_size) / (lv_coord_t)(track_num - 1);
 187              		.loc 1 740 17 view .LVU53
 740:Drivers/lvgl/src/extra/layouts/grid/lv_grid.c ****                 gap = (lv_coord_t)(cont_size - grid_size) / (lv_coord_t)(track_num - 1);
 188              		.loc 1 740 30 is_stmt 0 view .LVU54
 189 009a 0023     		movs	r3, #0
 190              	.LVL25:
 740:Drivers/lvgl/src/extra/layouts/grid/lv_grid.c ****                 gap = (lv_coord_t)(cont_size - grid_size) / (lv_coord_t)(track_num - 1);
 191              		.loc 1 740 30 view .LVU55
 192 009c 2380     		strh	r3, [r4]	@ movhi
 741:Drivers/lvgl/src/extra/layouts/grid/lv_grid.c ****                 break;
 193              		.loc 1 741 17 is_stmt 1 view .LVU56
 741:Drivers/lvgl/src/extra/layouts/grid/lv_grid.c ****                 break;
 194              		.loc 1 741 46 is_stmt 0 view .LVU57
 195 009e 431A     		subs	r3, r0, r1
 196 00a0 6344     		add	r3, r3, ip
 741:Drivers/lvgl/src/extra/layouts/grid/lv_grid.c ****                 break;
 197              		.loc 1 741 23 view .LVU58
 198 00a2 1BB2     		sxth	r3, r3
 741:Drivers/lvgl/src/extra/layouts/grid/lv_grid.c ****                 break;
 199              		.loc 1 741 84 view .LVU59
 200 00a4 6A1E     		subs	r2, r5, #1
 201              	.LVL26:
 741:Drivers/lvgl/src/extra/layouts/grid/lv_grid.c ****                 break;
 202              		.loc 1 741 61 view .LVU60
 203 00a6 12B2     		sxth	r2, r2
 741:Drivers/lvgl/src/extra/layouts/grid/lv_grid.c ****                 break;
 204              		.loc 1 741 59 view .LVU61
 205 00a8 93FBF2F3 		sdiv	r3, r3, r2
 741:Drivers/lvgl/src/extra/layouts/grid/lv_grid.c ****                 break;
 206              		.loc 1 741 21 view .LVU62
 207 00ac 1BB2     		sxth	r3, r3
 208              	.LVL27:
 742:Drivers/lvgl/src/extra/layouts/grid/lv_grid.c ****             case LV_GRID_ALIGN_SPACE_AROUND:
 209              		.loc 1 742 17 is_stmt 1 view .LVU63
 210 00ae B2E7     		b	.L3
 211              	.LVL28:
 212              	.L9:
 744:Drivers/lvgl/src/extra/layouts/grid/lv_grid.c ****                 pos_array[0] = gap / 2;
 213              		.loc 1 744 17 view .LVU64
 744:Drivers/lvgl/src/extra/layouts/grid/lv_grid.c ****                 pos_array[0] = gap / 2;
 214              		.loc 1 744 46 is_stmt 0 view .LVU65
 215 00b0 421A     		subs	r2, r0, r1
 216              	.LVL29:
 744:Drivers/lvgl/src/extra/layouts/grid/lv_grid.c ****                 pos_array[0] = gap / 2;
ARM GAS  /var/folders/lp/x54gwt890xv47sdkqj1k04q40000gn/T//cc3Qko3C.s 			page 19


 217              		.loc 1 744 46 view .LVU66
 218 00b2 6244     		add	r2, r2, ip
 744:Drivers/lvgl/src/extra/layouts/grid/lv_grid.c ****                 pos_array[0] = gap / 2;
 219              		.loc 1 744 23 view .LVU67
 220 00b4 12B2     		sxth	r2, r2
 744:Drivers/lvgl/src/extra/layouts/grid/lv_grid.c ****                 pos_array[0] = gap / 2;
 221              		.loc 1 744 61 view .LVU68
 222 00b6 2BB2     		sxth	r3, r5
 223              	.LVL30:
 744:Drivers/lvgl/src/extra/layouts/grid/lv_grid.c ****                 pos_array[0] = gap / 2;
 224              		.loc 1 744 59 view .LVU69
 225 00b8 92FBF3F2 		sdiv	r2, r2, r3
 744:Drivers/lvgl/src/extra/layouts/grid/lv_grid.c ****                 pos_array[0] = gap / 2;
 226              		.loc 1 744 21 view .LVU70
 227 00bc 13B2     		sxth	r3, r2
 228              	.LVL31:
 745:Drivers/lvgl/src/extra/layouts/grid/lv_grid.c ****                 break;
 229              		.loc 1 745 17 is_stmt 1 view .LVU71
 745:Drivers/lvgl/src/extra/layouts/grid/lv_grid.c ****                 break;
 230              		.loc 1 745 30 is_stmt 0 view .LVU72
 231 00be C2F3C032 		ubfx	r2, r2, #15, #1
 232 00c2 1A44     		add	r2, r2, r3
 233 00c4 5210     		asrs	r2, r2, #1
 234 00c6 2280     		strh	r2, [r4]	@ movhi
 746:Drivers/lvgl/src/extra/layouts/grid/lv_grid.c ****             case LV_GRID_ALIGN_SPACE_EVENLY:
 235              		.loc 1 746 17 is_stmt 1 view .LVU73
 236 00c8 A5E7     		b	.L3
 237              	.LVL32:
 238              	.L10:
 748:Drivers/lvgl/src/extra/layouts/grid/lv_grid.c ****                 pos_array[0] = gap;
 239              		.loc 1 748 17 view .LVU74
 748:Drivers/lvgl/src/extra/layouts/grid/lv_grid.c ****                 pos_array[0] = gap;
 240              		.loc 1 748 46 is_stmt 0 view .LVU75
 241 00ca 431A     		subs	r3, r0, r1
 242              	.LVL33:
 748:Drivers/lvgl/src/extra/layouts/grid/lv_grid.c ****                 pos_array[0] = gap;
 243              		.loc 1 748 46 view .LVU76
 244 00cc 6344     		add	r3, r3, ip
 748:Drivers/lvgl/src/extra/layouts/grid/lv_grid.c ****                 pos_array[0] = gap;
 245              		.loc 1 748 23 view .LVU77
 246 00ce 1BB2     		sxth	r3, r3
 748:Drivers/lvgl/src/extra/layouts/grid/lv_grid.c ****                 pos_array[0] = gap;
 247              		.loc 1 748 84 view .LVU78
 248 00d0 6A1C     		adds	r2, r5, #1
 249              	.LVL34:
 748:Drivers/lvgl/src/extra/layouts/grid/lv_grid.c ****                 pos_array[0] = gap;
 250              		.loc 1 748 61 view .LVU79
 251 00d2 12B2     		sxth	r2, r2
 748:Drivers/lvgl/src/extra/layouts/grid/lv_grid.c ****                 pos_array[0] = gap;
 252              		.loc 1 748 59 view .LVU80
 253 00d4 93FBF2F3 		sdiv	r3, r3, r2
 748:Drivers/lvgl/src/extra/layouts/grid/lv_grid.c ****                 pos_array[0] = gap;
 254              		.loc 1 748 21 view .LVU81
 255 00d8 1BB2     		sxth	r3, r3
 256              	.LVL35:
 749:Drivers/lvgl/src/extra/layouts/grid/lv_grid.c ****                 break;
 257              		.loc 1 749 17 is_stmt 1 view .LVU82
ARM GAS  /var/folders/lp/x54gwt890xv47sdkqj1k04q40000gn/T//cc3Qko3C.s 			page 20


 749:Drivers/lvgl/src/extra/layouts/grid/lv_grid.c ****                 break;
 258              		.loc 1 749 30 is_stmt 0 view .LVU83
 259 00da 2380     		strh	r3, [r4]	@ movhi
 750:Drivers/lvgl/src/extra/layouts/grid/lv_grid.c **** 
 260              		.loc 1 750 17 is_stmt 1 view .LVU84
 261 00dc 9BE7     		b	.L3
 262              	.LVL36:
 263              	.L15:
 757:Drivers/lvgl/src/extra/layouts/grid/lv_grid.c ****         pos_array[i + 1] = pos_array[i] + size_array[i] + gap;
 264              		.loc 1 757 9 view .LVU85
 265              		.loc 1 757 37 is_stmt 0 view .LVU86
 266 00de 34F81210 		ldrh	r1, [r4, r2, lsl #1]
 267              		.loc 1 757 53 view .LVU87
 268 00e2 36F81200 		ldrh	r0, [r6, r2, lsl #1]
 269              		.loc 1 757 41 view .LVU88
 270 00e6 0144     		add	r1, r1, r0
 271              		.loc 1 757 18 view .LVU89
 272 00e8 0132     		adds	r2, r2, #1
 273              	.LVL37:
 274              		.loc 1 757 57 view .LVU90
 275 00ea 13FA81F1 		uxtah	r1, r3, r1
 276              		.loc 1 757 26 view .LVU91
 277 00ee 24F81210 		strh	r1, [r4, r2, lsl #1]	@ movhi
 756:Drivers/lvgl/src/extra/layouts/grid/lv_grid.c ****         pos_array[i + 1] = pos_array[i] + size_array[i] + gap;
 278              		.loc 1 756 36 is_stmt 1 discriminator 3 view .LVU92
 279              	.LVL38:
 280              	.L14:
 756:Drivers/lvgl/src/extra/layouts/grid/lv_grid.c ****         pos_array[i + 1] = pos_array[i] + size_array[i] + gap;
 281              		.loc 1 756 18 discriminator 1 view .LVU93
 756:Drivers/lvgl/src/extra/layouts/grid/lv_grid.c ****         pos_array[i + 1] = pos_array[i] + size_array[i] + gap;
 282              		.loc 1 756 30 is_stmt 0 discriminator 1 view .LVU94
 283 00f2 691E     		subs	r1, r5, #1
 756:Drivers/lvgl/src/extra/layouts/grid/lv_grid.c ****         pos_array[i + 1] = pos_array[i] + size_array[i] + gap;
 284              		.loc 1 756 18 discriminator 1 view .LVU95
 285 00f4 9142     		cmp	r1, r2
 286 00f6 F2D8     		bhi	.L15
 758:Drivers/lvgl/src/extra/layouts/grid/lv_grid.c ****     }
 759:Drivers/lvgl/src/extra/layouts/grid/lv_grid.c **** 
 760:Drivers/lvgl/src/extra/layouts/grid/lv_grid.c ****     lv_coord_t total_gird_size = pos_array[track_num - 1] + size_array[track_num - 1] - pos_array[0
 287              		.loc 1 760 5 is_stmt 1 view .LVU96
 288              		.loc 1 760 43 is_stmt 0 view .LVU97
 289 00f8 05F10043 		add	r3, r5, #-2147483648
 290              	.LVL39:
 291              		.loc 1 760 43 view .LVU98
 292 00fc 013B     		subs	r3, r3, #1
 293 00fe 34F81300 		ldrh	r0, [r4, r3, lsl #1]
 294              		.loc 1 760 71 view .LVU99
 295 0102 36F81330 		ldrh	r3, [r6, r3, lsl #1]
 296              		.loc 1 760 59 view .LVU100
 297 0106 1844     		add	r0, r0, r3
 298 0108 80B2     		uxth	r0, r0
 299              		.loc 1 760 98 view .LVU101
 300 010a 2388     		ldrh	r3, [r4]
 301              		.loc 1 760 87 view .LVU102
 302 010c C01A     		subs	r0, r0, r3
 303              		.loc 1 760 16 view .LVU103
 304 010e 00B2     		sxth	r0, r0
ARM GAS  /var/folders/lp/x54gwt890xv47sdkqj1k04q40000gn/T//cc3Qko3C.s 			page 21


 305              	.LVL40:
 761:Drivers/lvgl/src/extra/layouts/grid/lv_grid.c **** 
 762:Drivers/lvgl/src/extra/layouts/grid/lv_grid.c ****     if(reverse) {
 306              		.loc 1 762 5 is_stmt 1 view .LVU104
 307              		.loc 1 762 7 is_stmt 0 view .LVU105
 308 0110 0FB9     		cbnz	r7, .L20
 309              	.L17:
 763:Drivers/lvgl/src/extra/layouts/grid/lv_grid.c ****         for(i = 0; i < track_num; i++) {
 764:Drivers/lvgl/src/extra/layouts/grid/lv_grid.c ****             pos_array[i] = cont_size - pos_array[i] - size_array[i];
 765:Drivers/lvgl/src/extra/layouts/grid/lv_grid.c ****         }
 766:Drivers/lvgl/src/extra/layouts/grid/lv_grid.c **** 
 767:Drivers/lvgl/src/extra/layouts/grid/lv_grid.c ****     }
 768:Drivers/lvgl/src/extra/layouts/grid/lv_grid.c **** 
 769:Drivers/lvgl/src/extra/layouts/grid/lv_grid.c ****     /*Return the full size of the grid*/
 770:Drivers/lvgl/src/extra/layouts/grid/lv_grid.c ****     return total_gird_size;
 310              		.loc 1 770 5 is_stmt 1 view .LVU106
 771:Drivers/lvgl/src/extra/layouts/grid/lv_grid.c **** }
 311              		.loc 1 771 1 is_stmt 0 view .LVU107
 312 0112 BDE8F081 		pop	{r4, r5, r6, r7, r8, pc}
 313              	.LVL41:
 314              	.L20:
 763:Drivers/lvgl/src/extra/layouts/grid/lv_grid.c ****         for(i = 0; i < track_num; i++) {
 315              		.loc 1 763 15 view .LVU108
 316 0116 0022     		movs	r2, #0
 317              	.LVL42:
 318              	.L16:
 763:Drivers/lvgl/src/extra/layouts/grid/lv_grid.c ****         for(i = 0; i < track_num; i++) {
 319              		.loc 1 763 22 is_stmt 1 discriminator 1 view .LVU109
 320 0118 AA42     		cmp	r2, r5
 321 011a FAD2     		bcs	.L17
 764:Drivers/lvgl/src/extra/layouts/grid/lv_grid.c ****         }
 322              		.loc 1 764 13 view .LVU110
 764:Drivers/lvgl/src/extra/layouts/grid/lv_grid.c ****         }
 323              		.loc 1 764 49 is_stmt 0 view .LVU111
 324 011c 34F81230 		ldrh	r3, [r4, r2, lsl #1]
 764:Drivers/lvgl/src/extra/layouts/grid/lv_grid.c ****         }
 325              		.loc 1 764 38 view .LVU112
 326 0120 ACEB0303 		sub	r3, ip, r3
 327 0124 9BB2     		uxth	r3, r3
 764:Drivers/lvgl/src/extra/layouts/grid/lv_grid.c ****         }
 328              		.loc 1 764 65 view .LVU113
 329 0126 36F81210 		ldrh	r1, [r6, r2, lsl #1]
 764:Drivers/lvgl/src/extra/layouts/grid/lv_grid.c ****         }
 330              		.loc 1 764 53 view .LVU114
 331 012a 5B1A     		subs	r3, r3, r1
 764:Drivers/lvgl/src/extra/layouts/grid/lv_grid.c ****         }
 332              		.loc 1 764 26 view .LVU115
 333 012c 24F81230 		strh	r3, [r4, r2, lsl #1]	@ movhi
 763:Drivers/lvgl/src/extra/layouts/grid/lv_grid.c ****         for(i = 0; i < track_num; i++) {
 334              		.loc 1 763 36 is_stmt 1 discriminator 3 view .LVU116
 335 0130 0132     		adds	r2, r2, #1
 336              	.LVL43:
 763:Drivers/lvgl/src/extra/layouts/grid/lv_grid.c ****         for(i = 0; i < track_num; i++) {
 337              		.loc 1 763 36 is_stmt 0 discriminator 3 view .LVU117
 338 0132 F1E7     		b	.L16
 339              		.cfi_endproc
 340              	.LFE217:
ARM GAS  /var/folders/lp/x54gwt890xv47sdkqj1k04q40000gn/T//cc3Qko3C.s 			page 22


 342              		.section	.text.count_tracks,"ax",%progbits
 343              		.align	1
 344              		.syntax unified
 345              		.thumb
 346              		.thumb_func
 348              	count_tracks:
 349              	.LVL44:
 350              	.LFB218:
 772:Drivers/lvgl/src/extra/layouts/grid/lv_grid.c **** 
 773:Drivers/lvgl/src/extra/layouts/grid/lv_grid.c **** static uint32_t count_tracks(const lv_coord_t * templ)
 774:Drivers/lvgl/src/extra/layouts/grid/lv_grid.c **** {
 351              		.loc 1 774 1 is_stmt 1 view -0
 352              		.cfi_startproc
 353              		@ args = 0, pretend = 0, frame = 0
 354              		@ frame_needed = 0, uses_anonymous_args = 0
 355              		@ link register save eliminated.
 356              		.loc 1 774 1 is_stmt 0 view .LVU119
 357 0000 0146     		mov	r1, r0
 775:Drivers/lvgl/src/extra/layouts/grid/lv_grid.c ****     uint32_t i;
 358              		.loc 1 775 5 is_stmt 1 view .LVU120
 776:Drivers/lvgl/src/extra/layouts/grid/lv_grid.c ****     for(i = 0; templ[i] != LV_GRID_TEMPLATE_LAST; i++);
 359              		.loc 1 776 5 view .LVU121
 360              	.LVL45:
 361              		.loc 1 776 11 is_stmt 0 view .LVU122
 362 0002 0020     		movs	r0, #0
 363              	.LVL46:
 364              		.loc 1 776 5 view .LVU123
 365 0004 00E0     		b	.L25
 366              	.LVL47:
 367              	.L26:
 368              		.loc 1 776 52 is_stmt 1 discriminator 3 view .LVU124
 369 0006 0130     		adds	r0, r0, #1
 370              	.LVL48:
 371              	.L25:
 372              		.loc 1 776 25 discriminator 1 view .LVU125
 373              		.loc 1 776 21 is_stmt 0 discriminator 1 view .LVU126
 374 0008 31F91020 		ldrsh	r2, [r1, r0, lsl #1]
 375              		.loc 1 776 25 discriminator 1 view .LVU127
 376 000c 41F6FF73 		movw	r3, #8191
 377 0010 9A42     		cmp	r2, r3
 378 0012 F8D1     		bne	.L26
 777:Drivers/lvgl/src/extra/layouts/grid/lv_grid.c **** 
 778:Drivers/lvgl/src/extra/layouts/grid/lv_grid.c ****     return i;
 379              		.loc 1 778 5 is_stmt 1 view .LVU128
 779:Drivers/lvgl/src/extra/layouts/grid/lv_grid.c **** }
 380              		.loc 1 779 1 is_stmt 0 view .LVU129
 381 0014 7047     		bx	lr
 382              		.cfi_endproc
 383              	.LFE218:
 385              		.section	.text.get_col_dsc,"ax",%progbits
 386              		.align	1
 387              		.syntax unified
 388              		.thumb
 389              		.thumb_func
 391              	get_col_dsc:
 392              	.LVL49:
 393              	.LFB177:
ARM GAS  /var/folders/lp/x54gwt890xv47sdkqj1k04q40000gn/T//cc3Qko3C.s 			page 23


  62:Drivers/lvgl/src/extra/layouts/grid/lv_grid.c ****     return lv_obj_get_style_grid_column_dsc_array(obj, 0);
 394              		.loc 1 62 1 is_stmt 1 view -0
 395              		.cfi_startproc
 396              		@ args = 0, pretend = 0, frame = 0
 397              		@ frame_needed = 0, uses_anonymous_args = 0
  62:Drivers/lvgl/src/extra/layouts/grid/lv_grid.c ****     return lv_obj_get_style_grid_column_dsc_array(obj, 0);
 398              		.loc 1 62 1 is_stmt 0 view .LVU131
 399 0000 08B5     		push	{r3, lr}
 400              		.cfi_def_cfa_offset 8
 401              		.cfi_offset 3, -8
 402              		.cfi_offset 14, -4
  63:Drivers/lvgl/src/extra/layouts/grid/lv_grid.c **** }
 403              		.loc 1 63 5 is_stmt 1 view .LVU132
 404              	.LVL50:
 405              	.LBB72:
 406              	.LBI72:
 407              		.file 2 "Drivers/lvgl/src/extra/layouts/grid/../grid/lv_grid.h"
   1:Drivers/lvgl/src/extra/layouts/grid/../grid/lv_grid.h **** /**
   2:Drivers/lvgl/src/extra/layouts/grid/../grid/lv_grid.h ****  * @file lv_grid.h
   3:Drivers/lvgl/src/extra/layouts/grid/../grid/lv_grid.h ****  *
   4:Drivers/lvgl/src/extra/layouts/grid/../grid/lv_grid.h ****  */
   5:Drivers/lvgl/src/extra/layouts/grid/../grid/lv_grid.h **** 
   6:Drivers/lvgl/src/extra/layouts/grid/../grid/lv_grid.h **** #ifndef LV_GRID_H
   7:Drivers/lvgl/src/extra/layouts/grid/../grid/lv_grid.h **** #define LV_GRID_H
   8:Drivers/lvgl/src/extra/layouts/grid/../grid/lv_grid.h **** 
   9:Drivers/lvgl/src/extra/layouts/grid/../grid/lv_grid.h **** #ifdef __cplusplus
  10:Drivers/lvgl/src/extra/layouts/grid/../grid/lv_grid.h **** extern "C" {
  11:Drivers/lvgl/src/extra/layouts/grid/../grid/lv_grid.h **** #endif
  12:Drivers/lvgl/src/extra/layouts/grid/../grid/lv_grid.h **** 
  13:Drivers/lvgl/src/extra/layouts/grid/../grid/lv_grid.h **** /*********************
  14:Drivers/lvgl/src/extra/layouts/grid/../grid/lv_grid.h ****  *      INCLUDES
  15:Drivers/lvgl/src/extra/layouts/grid/../grid/lv_grid.h ****  *********************/
  16:Drivers/lvgl/src/extra/layouts/grid/../grid/lv_grid.h **** #include "../../../core/lv_obj.h"
  17:Drivers/lvgl/src/extra/layouts/grid/../grid/lv_grid.h **** #if LV_USE_GRID
  18:Drivers/lvgl/src/extra/layouts/grid/../grid/lv_grid.h **** 
  19:Drivers/lvgl/src/extra/layouts/grid/../grid/lv_grid.h **** /*********************
  20:Drivers/lvgl/src/extra/layouts/grid/../grid/lv_grid.h ****  *      DEFINES
  21:Drivers/lvgl/src/extra/layouts/grid/../grid/lv_grid.h ****  *********************/
  22:Drivers/lvgl/src/extra/layouts/grid/../grid/lv_grid.h **** /**
  23:Drivers/lvgl/src/extra/layouts/grid/../grid/lv_grid.h ****  * Can be used track size to make the track fill the free space.
  24:Drivers/lvgl/src/extra/layouts/grid/../grid/lv_grid.h ****  * @param x how much space to take proportionally to other FR tracks
  25:Drivers/lvgl/src/extra/layouts/grid/../grid/lv_grid.h ****  * @return a special track size
  26:Drivers/lvgl/src/extra/layouts/grid/../grid/lv_grid.h ****  */
  27:Drivers/lvgl/src/extra/layouts/grid/../grid/lv_grid.h **** #define LV_GRID_FR(x)          (LV_COORD_MAX - 100 + x)
  28:Drivers/lvgl/src/extra/layouts/grid/../grid/lv_grid.h **** 
  29:Drivers/lvgl/src/extra/layouts/grid/../grid/lv_grid.h **** #define LV_GRID_CONTENT        (LV_COORD_MAX - 101)
  30:Drivers/lvgl/src/extra/layouts/grid/../grid/lv_grid.h **** LV_EXPORT_CONST_INT(LV_GRID_CONTENT);
  31:Drivers/lvgl/src/extra/layouts/grid/../grid/lv_grid.h **** 
  32:Drivers/lvgl/src/extra/layouts/grid/../grid/lv_grid.h **** #define LV_GRID_TEMPLATE_LAST  (LV_COORD_MAX)
  33:Drivers/lvgl/src/extra/layouts/grid/../grid/lv_grid.h **** LV_EXPORT_CONST_INT(LV_GRID_TEMPLATE_LAST);
  34:Drivers/lvgl/src/extra/layouts/grid/../grid/lv_grid.h **** 
  35:Drivers/lvgl/src/extra/layouts/grid/../grid/lv_grid.h **** /**********************
  36:Drivers/lvgl/src/extra/layouts/grid/../grid/lv_grid.h ****  *      TYPEDEFS
  37:Drivers/lvgl/src/extra/layouts/grid/../grid/lv_grid.h ****  **********************/
  38:Drivers/lvgl/src/extra/layouts/grid/../grid/lv_grid.h **** 
  39:Drivers/lvgl/src/extra/layouts/grid/../grid/lv_grid.h **** /*Can't include lv_obj.h because it includes this header file*/
  40:Drivers/lvgl/src/extra/layouts/grid/../grid/lv_grid.h **** struct _lv_obj_t;
ARM GAS  /var/folders/lp/x54gwt890xv47sdkqj1k04q40000gn/T//cc3Qko3C.s 			page 24


  41:Drivers/lvgl/src/extra/layouts/grid/../grid/lv_grid.h **** 
  42:Drivers/lvgl/src/extra/layouts/grid/../grid/lv_grid.h **** typedef enum {
  43:Drivers/lvgl/src/extra/layouts/grid/../grid/lv_grid.h ****     LV_GRID_ALIGN_START,
  44:Drivers/lvgl/src/extra/layouts/grid/../grid/lv_grid.h ****     LV_GRID_ALIGN_CENTER,
  45:Drivers/lvgl/src/extra/layouts/grid/../grid/lv_grid.h ****     LV_GRID_ALIGN_END,
  46:Drivers/lvgl/src/extra/layouts/grid/../grid/lv_grid.h ****     LV_GRID_ALIGN_STRETCH,
  47:Drivers/lvgl/src/extra/layouts/grid/../grid/lv_grid.h ****     LV_GRID_ALIGN_SPACE_EVENLY,
  48:Drivers/lvgl/src/extra/layouts/grid/../grid/lv_grid.h ****     LV_GRID_ALIGN_SPACE_AROUND,
  49:Drivers/lvgl/src/extra/layouts/grid/../grid/lv_grid.h ****     LV_GRID_ALIGN_SPACE_BETWEEN,
  50:Drivers/lvgl/src/extra/layouts/grid/../grid/lv_grid.h **** } lv_grid_align_t;
  51:Drivers/lvgl/src/extra/layouts/grid/../grid/lv_grid.h **** 
  52:Drivers/lvgl/src/extra/layouts/grid/../grid/lv_grid.h **** /**********************
  53:Drivers/lvgl/src/extra/layouts/grid/../grid/lv_grid.h ****  * GLOBAL VARIABLES
  54:Drivers/lvgl/src/extra/layouts/grid/../grid/lv_grid.h ****  **********************/
  55:Drivers/lvgl/src/extra/layouts/grid/../grid/lv_grid.h **** 
  56:Drivers/lvgl/src/extra/layouts/grid/../grid/lv_grid.h **** extern uint16_t LV_LAYOUT_GRID;
  57:Drivers/lvgl/src/extra/layouts/grid/../grid/lv_grid.h **** extern lv_style_prop_t LV_STYLE_GRID_COLUMN_DSC_ARRAY;
  58:Drivers/lvgl/src/extra/layouts/grid/../grid/lv_grid.h **** extern lv_style_prop_t LV_STYLE_GRID_COLUMN_ALIGN;
  59:Drivers/lvgl/src/extra/layouts/grid/../grid/lv_grid.h **** extern lv_style_prop_t LV_STYLE_GRID_ROW_DSC_ARRAY;
  60:Drivers/lvgl/src/extra/layouts/grid/../grid/lv_grid.h **** extern lv_style_prop_t LV_STYLE_GRID_ROW_ALIGN;
  61:Drivers/lvgl/src/extra/layouts/grid/../grid/lv_grid.h **** extern lv_style_prop_t LV_STYLE_GRID_CELL_COLUMN_POS;
  62:Drivers/lvgl/src/extra/layouts/grid/../grid/lv_grid.h **** extern lv_style_prop_t LV_STYLE_GRID_CELL_COLUMN_SPAN;
  63:Drivers/lvgl/src/extra/layouts/grid/../grid/lv_grid.h **** extern lv_style_prop_t LV_STYLE_GRID_CELL_X_ALIGN;
  64:Drivers/lvgl/src/extra/layouts/grid/../grid/lv_grid.h **** extern lv_style_prop_t LV_STYLE_GRID_CELL_ROW_POS;
  65:Drivers/lvgl/src/extra/layouts/grid/../grid/lv_grid.h **** extern lv_style_prop_t LV_STYLE_GRID_CELL_ROW_SPAN;
  66:Drivers/lvgl/src/extra/layouts/grid/../grid/lv_grid.h **** extern lv_style_prop_t LV_STYLE_GRID_CELL_Y_ALIGN;
  67:Drivers/lvgl/src/extra/layouts/grid/../grid/lv_grid.h **** 
  68:Drivers/lvgl/src/extra/layouts/grid/../grid/lv_grid.h **** /**********************
  69:Drivers/lvgl/src/extra/layouts/grid/../grid/lv_grid.h ****  * GLOBAL PROTOTYPES
  70:Drivers/lvgl/src/extra/layouts/grid/../grid/lv_grid.h ****  **********************/
  71:Drivers/lvgl/src/extra/layouts/grid/../grid/lv_grid.h **** 
  72:Drivers/lvgl/src/extra/layouts/grid/../grid/lv_grid.h **** void lv_grid_init(void);
  73:Drivers/lvgl/src/extra/layouts/grid/../grid/lv_grid.h **** 
  74:Drivers/lvgl/src/extra/layouts/grid/../grid/lv_grid.h **** void lv_obj_set_grid_dsc_array(lv_obj_t * obj, const lv_coord_t col_dsc[], const lv_coord_t row_dsc
  75:Drivers/lvgl/src/extra/layouts/grid/../grid/lv_grid.h **** 
  76:Drivers/lvgl/src/extra/layouts/grid/../grid/lv_grid.h **** void lv_obj_set_grid_align(lv_obj_t * obj, lv_grid_align_t column_align, lv_grid_align_t row_align)
  77:Drivers/lvgl/src/extra/layouts/grid/../grid/lv_grid.h **** 
  78:Drivers/lvgl/src/extra/layouts/grid/../grid/lv_grid.h **** /**
  79:Drivers/lvgl/src/extra/layouts/grid/../grid/lv_grid.h ****  * Set the cell of an object. The object's parent needs to have grid layout, else nothing will happ
  80:Drivers/lvgl/src/extra/layouts/grid/../grid/lv_grid.h ****  * @param obj pointer to an object
  81:Drivers/lvgl/src/extra/layouts/grid/../grid/lv_grid.h ****  * @param column_align the vertical alignment in the cell. `LV_GRID_START/END/CENTER/STRETCH`
  82:Drivers/lvgl/src/extra/layouts/grid/../grid/lv_grid.h ****  * @param col_pos column ID
  83:Drivers/lvgl/src/extra/layouts/grid/../grid/lv_grid.h ****  * @param col_span number of columns to take (>= 1)
  84:Drivers/lvgl/src/extra/layouts/grid/../grid/lv_grid.h ****  * @param row_align the horizontal alignment in the cell. `LV_GRID_START/END/CENTER/STRETCH`
  85:Drivers/lvgl/src/extra/layouts/grid/../grid/lv_grid.h ****  * @param row_pos row ID
  86:Drivers/lvgl/src/extra/layouts/grid/../grid/lv_grid.h ****  * @param row_span number of rows to take (>= 1)
  87:Drivers/lvgl/src/extra/layouts/grid/../grid/lv_grid.h ****  */
  88:Drivers/lvgl/src/extra/layouts/grid/../grid/lv_grid.h **** void lv_obj_set_grid_cell(lv_obj_t * obj, lv_grid_align_t column_align, uint8_t col_pos, uint8_t co
  89:Drivers/lvgl/src/extra/layouts/grid/../grid/lv_grid.h ****                           lv_grid_align_t row_align, uint8_t row_pos, uint8_t row_span);
  90:Drivers/lvgl/src/extra/layouts/grid/../grid/lv_grid.h **** 
  91:Drivers/lvgl/src/extra/layouts/grid/../grid/lv_grid.h **** /**
  92:Drivers/lvgl/src/extra/layouts/grid/../grid/lv_grid.h ****  * Just a wrapper to `LV_GRID_FR` for bindings.
  93:Drivers/lvgl/src/extra/layouts/grid/../grid/lv_grid.h ****  */
  94:Drivers/lvgl/src/extra/layouts/grid/../grid/lv_grid.h **** static inline lv_coord_t lv_grid_fr(uint8_t x)
  95:Drivers/lvgl/src/extra/layouts/grid/../grid/lv_grid.h **** {
  96:Drivers/lvgl/src/extra/layouts/grid/../grid/lv_grid.h ****     return LV_GRID_FR(x);
  97:Drivers/lvgl/src/extra/layouts/grid/../grid/lv_grid.h **** }
ARM GAS  /var/folders/lp/x54gwt890xv47sdkqj1k04q40000gn/T//cc3Qko3C.s 			page 25


  98:Drivers/lvgl/src/extra/layouts/grid/../grid/lv_grid.h **** 
  99:Drivers/lvgl/src/extra/layouts/grid/../grid/lv_grid.h **** void lv_style_set_grid_row_dsc_array(lv_style_t * style, const lv_coord_t value[]);
 100:Drivers/lvgl/src/extra/layouts/grid/../grid/lv_grid.h **** void lv_style_set_grid_column_dsc_array(lv_style_t * style, const lv_coord_t value[]);
 101:Drivers/lvgl/src/extra/layouts/grid/../grid/lv_grid.h **** void lv_style_set_grid_row_align(lv_style_t * style, lv_grid_align_t value);
 102:Drivers/lvgl/src/extra/layouts/grid/../grid/lv_grid.h **** void lv_style_set_grid_column_align(lv_style_t * style, lv_grid_align_t value);
 103:Drivers/lvgl/src/extra/layouts/grid/../grid/lv_grid.h **** void lv_style_set_grid_cell_column_pos(lv_style_t * style, lv_coord_t value);
 104:Drivers/lvgl/src/extra/layouts/grid/../grid/lv_grid.h **** void lv_style_set_grid_cell_column_span(lv_style_t * style, lv_coord_t value);
 105:Drivers/lvgl/src/extra/layouts/grid/../grid/lv_grid.h **** void lv_style_set_grid_cell_row_pos(lv_style_t * style, lv_coord_t value);
 106:Drivers/lvgl/src/extra/layouts/grid/../grid/lv_grid.h **** void lv_style_set_grid_cell_row_span(lv_style_t * style, lv_coord_t value);
 107:Drivers/lvgl/src/extra/layouts/grid/../grid/lv_grid.h **** void lv_style_set_grid_cell_x_align(lv_style_t * style, lv_coord_t value);
 108:Drivers/lvgl/src/extra/layouts/grid/../grid/lv_grid.h **** void lv_style_set_grid_cell_y_align(lv_style_t * style, lv_coord_t value);
 109:Drivers/lvgl/src/extra/layouts/grid/../grid/lv_grid.h **** 
 110:Drivers/lvgl/src/extra/layouts/grid/../grid/lv_grid.h **** void lv_obj_set_style_grid_row_dsc_array(lv_obj_t * obj, const lv_coord_t value[], lv_style_selecto
 111:Drivers/lvgl/src/extra/layouts/grid/../grid/lv_grid.h **** void lv_obj_set_style_grid_column_dsc_array(lv_obj_t * obj, const lv_coord_t value[], lv_style_sele
 112:Drivers/lvgl/src/extra/layouts/grid/../grid/lv_grid.h **** void lv_obj_set_style_grid_row_align(lv_obj_t * obj, lv_grid_align_t value, lv_style_selector_t sel
 113:Drivers/lvgl/src/extra/layouts/grid/../grid/lv_grid.h **** void lv_obj_set_style_grid_column_align(lv_obj_t * obj, lv_grid_align_t value, lv_style_selector_t 
 114:Drivers/lvgl/src/extra/layouts/grid/../grid/lv_grid.h **** void lv_obj_set_style_grid_cell_column_pos(lv_obj_t * obj, lv_coord_t value, lv_style_selector_t se
 115:Drivers/lvgl/src/extra/layouts/grid/../grid/lv_grid.h **** void lv_obj_set_style_grid_cell_column_span(lv_obj_t * obj, lv_coord_t value, lv_style_selector_t s
 116:Drivers/lvgl/src/extra/layouts/grid/../grid/lv_grid.h **** void lv_obj_set_style_grid_cell_row_pos(lv_obj_t * obj, lv_coord_t value, lv_style_selector_t selec
 117:Drivers/lvgl/src/extra/layouts/grid/../grid/lv_grid.h **** void lv_obj_set_style_grid_cell_row_span(lv_obj_t * obj, lv_coord_t value, lv_style_selector_t sele
 118:Drivers/lvgl/src/extra/layouts/grid/../grid/lv_grid.h **** void lv_obj_set_style_grid_cell_x_align(lv_obj_t * obj, lv_coord_t value, lv_style_selector_t selec
 119:Drivers/lvgl/src/extra/layouts/grid/../grid/lv_grid.h **** void lv_obj_set_style_grid_cell_y_align(lv_obj_t * obj, lv_coord_t value, lv_style_selector_t selec
 120:Drivers/lvgl/src/extra/layouts/grid/../grid/lv_grid.h **** 
 121:Drivers/lvgl/src/extra/layouts/grid/../grid/lv_grid.h **** static inline const lv_coord_t * lv_obj_get_style_grid_row_dsc_array(const lv_obj_t * obj, uint32_t
 122:Drivers/lvgl/src/extra/layouts/grid/../grid/lv_grid.h **** {
 123:Drivers/lvgl/src/extra/layouts/grid/../grid/lv_grid.h ****     lv_style_value_t v = lv_obj_get_style_prop(obj, part, LV_STYLE_GRID_ROW_DSC_ARRAY);
 124:Drivers/lvgl/src/extra/layouts/grid/../grid/lv_grid.h ****     return (const lv_coord_t *)v.ptr;
 125:Drivers/lvgl/src/extra/layouts/grid/../grid/lv_grid.h **** }
 126:Drivers/lvgl/src/extra/layouts/grid/../grid/lv_grid.h **** 
 127:Drivers/lvgl/src/extra/layouts/grid/../grid/lv_grid.h **** static inline const lv_coord_t * lv_obj_get_style_grid_column_dsc_array(const lv_obj_t * obj, uint3
 408              		.loc 2 127 34 view .LVU133
 409              	.LBB73:
 128:Drivers/lvgl/src/extra/layouts/grid/../grid/lv_grid.h **** {
 129:Drivers/lvgl/src/extra/layouts/grid/../grid/lv_grid.h ****     lv_style_value_t v = lv_obj_get_style_prop(obj, part, LV_STYLE_GRID_COLUMN_DSC_ARRAY);
 410              		.loc 2 129 5 view .LVU134
 411              		.loc 2 129 26 is_stmt 0 view .LVU135
 412 0002 034B     		ldr	r3, .L29
 413 0004 1A88     		ldrh	r2, [r3]
 414 0006 0021     		movs	r1, #0
 415 0008 FFF7FEFF 		bl	lv_obj_get_style_prop
 416              	.LVL51:
 130:Drivers/lvgl/src/extra/layouts/grid/../grid/lv_grid.h ****     return (const lv_coord_t *)v.ptr;
 417              		.loc 2 130 5 is_stmt 1 view .LVU136
 418              		.loc 2 130 5 is_stmt 0 view .LVU137
 419              	.LBE73:
 420              	.LBE72:
  64:Drivers/lvgl/src/extra/layouts/grid/lv_grid.c **** static inline const lv_coord_t * get_row_dsc(lv_obj_t * obj)
 421              		.loc 1 64 1 view .LVU138
 422 000c 08BD     		pop	{r3, pc}
 423              	.L30:
 424 000e 00BF     		.align	2
 425              	.L29:
 426 0010 00000000 		.word	LV_STYLE_GRID_COLUMN_DSC_ARRAY
 427              		.cfi_endproc
 428              	.LFE177:
 430              		.section	.text.get_row_dsc,"ax",%progbits
 431              		.align	1
ARM GAS  /var/folders/lp/x54gwt890xv47sdkqj1k04q40000gn/T//cc3Qko3C.s 			page 26


 432              		.syntax unified
 433              		.thumb
 434              		.thumb_func
 436              	get_row_dsc:
 437              	.LVL52:
 438              	.LFB178:
  66:Drivers/lvgl/src/extra/layouts/grid/lv_grid.c ****     return lv_obj_get_style_grid_row_dsc_array(obj, 0);
 439              		.loc 1 66 1 is_stmt 1 view -0
 440              		.cfi_startproc
 441              		@ args = 0, pretend = 0, frame = 0
 442              		@ frame_needed = 0, uses_anonymous_args = 0
  66:Drivers/lvgl/src/extra/layouts/grid/lv_grid.c ****     return lv_obj_get_style_grid_row_dsc_array(obj, 0);
 443              		.loc 1 66 1 is_stmt 0 view .LVU140
 444 0000 08B5     		push	{r3, lr}
 445              		.cfi_def_cfa_offset 8
 446              		.cfi_offset 3, -8
 447              		.cfi_offset 14, -4
  67:Drivers/lvgl/src/extra/layouts/grid/lv_grid.c **** }
 448              		.loc 1 67 5 is_stmt 1 view .LVU141
 449              	.LVL53:
 450              	.LBB74:
 451              	.LBI74:
 121:Drivers/lvgl/src/extra/layouts/grid/../grid/lv_grid.h **** {
 452              		.loc 2 121 34 view .LVU142
 453              	.LBB75:
 123:Drivers/lvgl/src/extra/layouts/grid/../grid/lv_grid.h ****     return (const lv_coord_t *)v.ptr;
 454              		.loc 2 123 5 view .LVU143
 123:Drivers/lvgl/src/extra/layouts/grid/../grid/lv_grid.h ****     return (const lv_coord_t *)v.ptr;
 455              		.loc 2 123 26 is_stmt 0 view .LVU144
 456 0002 034B     		ldr	r3, .L33
 457 0004 1A88     		ldrh	r2, [r3]
 458 0006 0021     		movs	r1, #0
 459 0008 FFF7FEFF 		bl	lv_obj_get_style_prop
 460              	.LVL54:
 124:Drivers/lvgl/src/extra/layouts/grid/../grid/lv_grid.h **** }
 461              		.loc 2 124 5 is_stmt 1 view .LVU145
 124:Drivers/lvgl/src/extra/layouts/grid/../grid/lv_grid.h **** }
 462              		.loc 2 124 5 is_stmt 0 view .LVU146
 463              	.LBE75:
 464              	.LBE74:
  68:Drivers/lvgl/src/extra/layouts/grid/lv_grid.c **** static inline uint8_t get_col_pos(lv_obj_t * obj)
 465              		.loc 1 68 1 view .LVU147
 466 000c 08BD     		pop	{r3, pc}
 467              	.L34:
 468 000e 00BF     		.align	2
 469              	.L33:
 470 0010 00000000 		.word	LV_STYLE_GRID_ROW_DSC_ARRAY
 471              		.cfi_endproc
 472              	.LFE178:
 474              		.section	.text.get_row_span,"ax",%progbits
 475              		.align	1
 476              		.syntax unified
 477              		.thumb
 478              		.thumb_func
 480              	get_row_span:
 481              	.LVL55:
 482              	.LFB182:
ARM GAS  /var/folders/lp/x54gwt890xv47sdkqj1k04q40000gn/T//cc3Qko3C.s 			page 27


  82:Drivers/lvgl/src/extra/layouts/grid/lv_grid.c ****     return lv_obj_get_style_grid_cell_row_span(obj, 0);
 483              		.loc 1 82 1 is_stmt 1 view -0
 484              		.cfi_startproc
 485              		@ args = 0, pretend = 0, frame = 0
 486              		@ frame_needed = 0, uses_anonymous_args = 0
  82:Drivers/lvgl/src/extra/layouts/grid/lv_grid.c ****     return lv_obj_get_style_grid_cell_row_span(obj, 0);
 487              		.loc 1 82 1 is_stmt 0 view .LVU149
 488 0000 08B5     		push	{r3, lr}
 489              		.cfi_def_cfa_offset 8
 490              		.cfi_offset 3, -8
 491              		.cfi_offset 14, -4
  83:Drivers/lvgl/src/extra/layouts/grid/lv_grid.c **** }
 492              		.loc 1 83 5 is_stmt 1 view .LVU150
 493              	.LVL56:
 494              	.LBB76:
 495              	.LBI76:
 131:Drivers/lvgl/src/extra/layouts/grid/../grid/lv_grid.h **** }
 132:Drivers/lvgl/src/extra/layouts/grid/../grid/lv_grid.h **** 
 133:Drivers/lvgl/src/extra/layouts/grid/../grid/lv_grid.h **** static inline lv_grid_align_t lv_obj_get_style_grid_row_align(const lv_obj_t * obj, uint32_t part)
 134:Drivers/lvgl/src/extra/layouts/grid/../grid/lv_grid.h **** {
 135:Drivers/lvgl/src/extra/layouts/grid/../grid/lv_grid.h ****     lv_style_value_t v = lv_obj_get_style_prop(obj, part, LV_STYLE_GRID_ROW_ALIGN);
 136:Drivers/lvgl/src/extra/layouts/grid/../grid/lv_grid.h ****     return (lv_grid_align_t)v.num;
 137:Drivers/lvgl/src/extra/layouts/grid/../grid/lv_grid.h **** }
 138:Drivers/lvgl/src/extra/layouts/grid/../grid/lv_grid.h **** 
 139:Drivers/lvgl/src/extra/layouts/grid/../grid/lv_grid.h **** static inline lv_grid_align_t lv_obj_get_style_grid_column_align(const lv_obj_t * obj, uint32_t par
 140:Drivers/lvgl/src/extra/layouts/grid/../grid/lv_grid.h **** {
 141:Drivers/lvgl/src/extra/layouts/grid/../grid/lv_grid.h ****     lv_style_value_t v = lv_obj_get_style_prop(obj, part, LV_STYLE_GRID_COLUMN_ALIGN);
 142:Drivers/lvgl/src/extra/layouts/grid/../grid/lv_grid.h ****     return (lv_grid_align_t)v.num;
 143:Drivers/lvgl/src/extra/layouts/grid/../grid/lv_grid.h **** }
 144:Drivers/lvgl/src/extra/layouts/grid/../grid/lv_grid.h **** 
 145:Drivers/lvgl/src/extra/layouts/grid/../grid/lv_grid.h **** static inline lv_coord_t lv_obj_get_style_grid_cell_column_pos(const lv_obj_t * obj, uint32_t part)
 146:Drivers/lvgl/src/extra/layouts/grid/../grid/lv_grid.h **** {
 147:Drivers/lvgl/src/extra/layouts/grid/../grid/lv_grid.h ****     lv_style_value_t v = lv_obj_get_style_prop(obj, part, LV_STYLE_GRID_CELL_COLUMN_POS);
 148:Drivers/lvgl/src/extra/layouts/grid/../grid/lv_grid.h ****     return (lv_coord_t)v.num;
 149:Drivers/lvgl/src/extra/layouts/grid/../grid/lv_grid.h **** }
 150:Drivers/lvgl/src/extra/layouts/grid/../grid/lv_grid.h **** 
 151:Drivers/lvgl/src/extra/layouts/grid/../grid/lv_grid.h **** static inline lv_coord_t lv_obj_get_style_grid_cell_column_span(const lv_obj_t * obj, uint32_t part
 152:Drivers/lvgl/src/extra/layouts/grid/../grid/lv_grid.h **** {
 153:Drivers/lvgl/src/extra/layouts/grid/../grid/lv_grid.h ****     lv_style_value_t v = lv_obj_get_style_prop(obj, part, LV_STYLE_GRID_CELL_COLUMN_SPAN);
 154:Drivers/lvgl/src/extra/layouts/grid/../grid/lv_grid.h ****     return (lv_coord_t)v.num;
 155:Drivers/lvgl/src/extra/layouts/grid/../grid/lv_grid.h **** }
 156:Drivers/lvgl/src/extra/layouts/grid/../grid/lv_grid.h **** 
 157:Drivers/lvgl/src/extra/layouts/grid/../grid/lv_grid.h **** static inline lv_coord_t lv_obj_get_style_grid_cell_row_pos(const lv_obj_t * obj, uint32_t part)
 158:Drivers/lvgl/src/extra/layouts/grid/../grid/lv_grid.h **** {
 159:Drivers/lvgl/src/extra/layouts/grid/../grid/lv_grid.h ****     lv_style_value_t v = lv_obj_get_style_prop(obj, part, LV_STYLE_GRID_CELL_ROW_POS);
 160:Drivers/lvgl/src/extra/layouts/grid/../grid/lv_grid.h ****     return (lv_coord_t)v.num;
 161:Drivers/lvgl/src/extra/layouts/grid/../grid/lv_grid.h **** }
 162:Drivers/lvgl/src/extra/layouts/grid/../grid/lv_grid.h **** 
 163:Drivers/lvgl/src/extra/layouts/grid/../grid/lv_grid.h **** static inline lv_coord_t lv_obj_get_style_grid_cell_row_span(const lv_obj_t * obj, uint32_t part)
 496              		.loc 2 163 26 view .LVU151
 497              	.LBB77:
 164:Drivers/lvgl/src/extra/layouts/grid/../grid/lv_grid.h **** {
 165:Drivers/lvgl/src/extra/layouts/grid/../grid/lv_grid.h ****     lv_style_value_t v = lv_obj_get_style_prop(obj, part, LV_STYLE_GRID_CELL_ROW_SPAN);
 498              		.loc 2 165 5 view .LVU152
 499              		.loc 2 165 26 is_stmt 0 view .LVU153
 500 0002 034B     		ldr	r3, .L37
 501 0004 1A88     		ldrh	r2, [r3]
ARM GAS  /var/folders/lp/x54gwt890xv47sdkqj1k04q40000gn/T//cc3Qko3C.s 			page 28


 502 0006 0021     		movs	r1, #0
 503 0008 FFF7FEFF 		bl	lv_obj_get_style_prop
 504              	.LVL57:
 166:Drivers/lvgl/src/extra/layouts/grid/../grid/lv_grid.h ****     return (lv_coord_t)v.num;
 505              		.loc 2 166 5 is_stmt 1 view .LVU154
 506              		.loc 2 166 5 is_stmt 0 view .LVU155
 507              	.LBE77:
 508              	.LBE76:
  84:Drivers/lvgl/src/extra/layouts/grid/lv_grid.c **** static inline uint8_t get_cell_col_align(lv_obj_t * obj)
 509              		.loc 1 84 1 view .LVU156
 510 000c C0B2     		uxtb	r0, r0
 511 000e 08BD     		pop	{r3, pc}
 512              	.L38:
 513              		.align	2
 514              	.L37:
 515 0010 00000000 		.word	LV_STYLE_GRID_CELL_ROW_SPAN
 516              		.cfi_endproc
 517              	.LFE182:
 519              		.section	.text.get_row_pos,"ax",%progbits
 520              		.align	1
 521              		.syntax unified
 522              		.thumb
 523              		.thumb_func
 525              	get_row_pos:
 526              	.LVL58:
 527              	.LFB180:
  74:Drivers/lvgl/src/extra/layouts/grid/lv_grid.c ****     return lv_obj_get_style_grid_cell_row_pos(obj, 0);
 528              		.loc 1 74 1 is_stmt 1 view -0
 529              		.cfi_startproc
 530              		@ args = 0, pretend = 0, frame = 0
 531              		@ frame_needed = 0, uses_anonymous_args = 0
  74:Drivers/lvgl/src/extra/layouts/grid/lv_grid.c ****     return lv_obj_get_style_grid_cell_row_pos(obj, 0);
 532              		.loc 1 74 1 is_stmt 0 view .LVU158
 533 0000 08B5     		push	{r3, lr}
 534              		.cfi_def_cfa_offset 8
 535              		.cfi_offset 3, -8
 536              		.cfi_offset 14, -4
  75:Drivers/lvgl/src/extra/layouts/grid/lv_grid.c **** }
 537              		.loc 1 75 5 is_stmt 1 view .LVU159
 538              	.LVL59:
 539              	.LBB78:
 540              	.LBI78:
 157:Drivers/lvgl/src/extra/layouts/grid/../grid/lv_grid.h **** {
 541              		.loc 2 157 26 view .LVU160
 542              	.LBB79:
 159:Drivers/lvgl/src/extra/layouts/grid/../grid/lv_grid.h ****     return (lv_coord_t)v.num;
 543              		.loc 2 159 5 view .LVU161
 159:Drivers/lvgl/src/extra/layouts/grid/../grid/lv_grid.h ****     return (lv_coord_t)v.num;
 544              		.loc 2 159 26 is_stmt 0 view .LVU162
 545 0002 034B     		ldr	r3, .L41
 546 0004 1A88     		ldrh	r2, [r3]
 547 0006 0021     		movs	r1, #0
 548 0008 FFF7FEFF 		bl	lv_obj_get_style_prop
 549              	.LVL60:
 160:Drivers/lvgl/src/extra/layouts/grid/../grid/lv_grid.h **** }
 550              		.loc 2 160 5 is_stmt 1 view .LVU163
 160:Drivers/lvgl/src/extra/layouts/grid/../grid/lv_grid.h **** }
ARM GAS  /var/folders/lp/x54gwt890xv47sdkqj1k04q40000gn/T//cc3Qko3C.s 			page 29


 551              		.loc 2 160 5 is_stmt 0 view .LVU164
 552              	.LBE79:
 553              	.LBE78:
  76:Drivers/lvgl/src/extra/layouts/grid/lv_grid.c **** static inline uint8_t get_col_span(lv_obj_t * obj)
 554              		.loc 1 76 1 view .LVU165
 555 000c C0B2     		uxtb	r0, r0
 556 000e 08BD     		pop	{r3, pc}
 557              	.L42:
 558              		.align	2
 559              	.L41:
 560 0010 00000000 		.word	LV_STYLE_GRID_CELL_ROW_POS
 561              		.cfi_endproc
 562              	.LFE180:
 564              		.section	.text.get_col_span,"ax",%progbits
 565              		.align	1
 566              		.syntax unified
 567              		.thumb
 568              		.thumb_func
 570              	get_col_span:
 571              	.LVL61:
 572              	.LFB181:
  78:Drivers/lvgl/src/extra/layouts/grid/lv_grid.c ****     return lv_obj_get_style_grid_cell_column_span(obj, 0);
 573              		.loc 1 78 1 is_stmt 1 view -0
 574              		.cfi_startproc
 575              		@ args = 0, pretend = 0, frame = 0
 576              		@ frame_needed = 0, uses_anonymous_args = 0
  78:Drivers/lvgl/src/extra/layouts/grid/lv_grid.c ****     return lv_obj_get_style_grid_cell_column_span(obj, 0);
 577              		.loc 1 78 1 is_stmt 0 view .LVU167
 578 0000 08B5     		push	{r3, lr}
 579              		.cfi_def_cfa_offset 8
 580              		.cfi_offset 3, -8
 581              		.cfi_offset 14, -4
  79:Drivers/lvgl/src/extra/layouts/grid/lv_grid.c **** }
 582              		.loc 1 79 5 is_stmt 1 view .LVU168
 583              	.LVL62:
 584              	.LBB80:
 585              	.LBI80:
 151:Drivers/lvgl/src/extra/layouts/grid/../grid/lv_grid.h **** {
 586              		.loc 2 151 26 view .LVU169
 587              	.LBB81:
 153:Drivers/lvgl/src/extra/layouts/grid/../grid/lv_grid.h ****     return (lv_coord_t)v.num;
 588              		.loc 2 153 5 view .LVU170
 153:Drivers/lvgl/src/extra/layouts/grid/../grid/lv_grid.h ****     return (lv_coord_t)v.num;
 589              		.loc 2 153 26 is_stmt 0 view .LVU171
 590 0002 034B     		ldr	r3, .L45
 591 0004 1A88     		ldrh	r2, [r3]
 592 0006 0021     		movs	r1, #0
 593 0008 FFF7FEFF 		bl	lv_obj_get_style_prop
 594              	.LVL63:
 154:Drivers/lvgl/src/extra/layouts/grid/../grid/lv_grid.h **** }
 595              		.loc 2 154 5 is_stmt 1 view .LVU172
 154:Drivers/lvgl/src/extra/layouts/grid/../grid/lv_grid.h **** }
 596              		.loc 2 154 5 is_stmt 0 view .LVU173
 597              	.LBE81:
 598              	.LBE80:
  80:Drivers/lvgl/src/extra/layouts/grid/lv_grid.c **** static inline uint8_t get_row_span(lv_obj_t * obj)
 599              		.loc 1 80 1 view .LVU174
ARM GAS  /var/folders/lp/x54gwt890xv47sdkqj1k04q40000gn/T//cc3Qko3C.s 			page 30


 600 000c C0B2     		uxtb	r0, r0
 601 000e 08BD     		pop	{r3, pc}
 602              	.L46:
 603              		.align	2
 604              	.L45:
 605 0010 00000000 		.word	LV_STYLE_GRID_CELL_COLUMN_SPAN
 606              		.cfi_endproc
 607              	.LFE181:
 609              		.section	.text.get_col_pos,"ax",%progbits
 610              		.align	1
 611              		.syntax unified
 612              		.thumb
 613              		.thumb_func
 615              	get_col_pos:
 616              	.LVL64:
 617              	.LFB179:
  70:Drivers/lvgl/src/extra/layouts/grid/lv_grid.c ****     return lv_obj_get_style_grid_cell_column_pos(obj, 0);
 618              		.loc 1 70 1 is_stmt 1 view -0
 619              		.cfi_startproc
 620              		@ args = 0, pretend = 0, frame = 0
 621              		@ frame_needed = 0, uses_anonymous_args = 0
  70:Drivers/lvgl/src/extra/layouts/grid/lv_grid.c ****     return lv_obj_get_style_grid_cell_column_pos(obj, 0);
 622              		.loc 1 70 1 is_stmt 0 view .LVU176
 623 0000 08B5     		push	{r3, lr}
 624              		.cfi_def_cfa_offset 8
 625              		.cfi_offset 3, -8
 626              		.cfi_offset 14, -4
  71:Drivers/lvgl/src/extra/layouts/grid/lv_grid.c **** }
 627              		.loc 1 71 5 is_stmt 1 view .LVU177
 628              	.LVL65:
 629              	.LBB82:
 630              	.LBI82:
 145:Drivers/lvgl/src/extra/layouts/grid/../grid/lv_grid.h **** {
 631              		.loc 2 145 26 view .LVU178
 632              	.LBB83:
 147:Drivers/lvgl/src/extra/layouts/grid/../grid/lv_grid.h ****     return (lv_coord_t)v.num;
 633              		.loc 2 147 5 view .LVU179
 147:Drivers/lvgl/src/extra/layouts/grid/../grid/lv_grid.h ****     return (lv_coord_t)v.num;
 634              		.loc 2 147 26 is_stmt 0 view .LVU180
 635 0002 034B     		ldr	r3, .L49
 636 0004 1A88     		ldrh	r2, [r3]
 637 0006 0021     		movs	r1, #0
 638 0008 FFF7FEFF 		bl	lv_obj_get_style_prop
 639              	.LVL66:
 148:Drivers/lvgl/src/extra/layouts/grid/../grid/lv_grid.h **** }
 640              		.loc 2 148 5 is_stmt 1 view .LVU181
 148:Drivers/lvgl/src/extra/layouts/grid/../grid/lv_grid.h **** }
 641              		.loc 2 148 5 is_stmt 0 view .LVU182
 642              	.LBE83:
 643              	.LBE82:
  72:Drivers/lvgl/src/extra/layouts/grid/lv_grid.c **** static inline uint8_t get_row_pos(lv_obj_t * obj)
 644              		.loc 1 72 1 view .LVU183
 645 000c C0B2     		uxtb	r0, r0
 646 000e 08BD     		pop	{r3, pc}
 647              	.L50:
 648              		.align	2
 649              	.L49:
ARM GAS  /var/folders/lp/x54gwt890xv47sdkqj1k04q40000gn/T//cc3Qko3C.s 			page 31


 650 0010 00000000 		.word	LV_STYLE_GRID_CELL_COLUMN_POS
 651              		.cfi_endproc
 652              	.LFE179:
 654              		.section	.text.get_grid_col_align,"ax",%progbits
 655              		.align	1
 656              		.syntax unified
 657              		.thumb
 658              		.thumb_func
 660              	get_grid_col_align:
 661              	.LVL67:
 662              	.LFB185:
  94:Drivers/lvgl/src/extra/layouts/grid/lv_grid.c ****     return lv_obj_get_style_grid_column_align(obj, 0);
 663              		.loc 1 94 1 is_stmt 1 view -0
 664              		.cfi_startproc
 665              		@ args = 0, pretend = 0, frame = 0
 666              		@ frame_needed = 0, uses_anonymous_args = 0
  94:Drivers/lvgl/src/extra/layouts/grid/lv_grid.c ****     return lv_obj_get_style_grid_column_align(obj, 0);
 667              		.loc 1 94 1 is_stmt 0 view .LVU185
 668 0000 08B5     		push	{r3, lr}
 669              		.cfi_def_cfa_offset 8
 670              		.cfi_offset 3, -8
 671              		.cfi_offset 14, -4
  95:Drivers/lvgl/src/extra/layouts/grid/lv_grid.c **** }
 672              		.loc 1 95 5 is_stmt 1 view .LVU186
 673              	.LVL68:
 674              	.LBB84:
 675              	.LBI84:
 139:Drivers/lvgl/src/extra/layouts/grid/../grid/lv_grid.h **** {
 676              		.loc 2 139 31 view .LVU187
 677              	.LBB85:
 141:Drivers/lvgl/src/extra/layouts/grid/../grid/lv_grid.h ****     return (lv_grid_align_t)v.num;
 678              		.loc 2 141 5 view .LVU188
 141:Drivers/lvgl/src/extra/layouts/grid/../grid/lv_grid.h ****     return (lv_grid_align_t)v.num;
 679              		.loc 2 141 26 is_stmt 0 view .LVU189
 680 0002 034B     		ldr	r3, .L53
 681 0004 1A88     		ldrh	r2, [r3]
 682 0006 0021     		movs	r1, #0
 683 0008 FFF7FEFF 		bl	lv_obj_get_style_prop
 684              	.LVL69:
 142:Drivers/lvgl/src/extra/layouts/grid/../grid/lv_grid.h **** }
 685              		.loc 2 142 5 is_stmt 1 view .LVU190
 142:Drivers/lvgl/src/extra/layouts/grid/../grid/lv_grid.h **** }
 686              		.loc 2 142 5 is_stmt 0 view .LVU191
 687              	.LBE85:
 688              	.LBE84:
  96:Drivers/lvgl/src/extra/layouts/grid/lv_grid.c **** static inline uint8_t get_grid_row_align(lv_obj_t * obj)
 689              		.loc 1 96 1 view .LVU192
 690 000c C0B2     		uxtb	r0, r0
 691 000e 08BD     		pop	{r3, pc}
 692              	.L54:
 693              		.align	2
 694              	.L53:
 695 0010 00000000 		.word	LV_STYLE_GRID_COLUMN_ALIGN
 696              		.cfi_endproc
 697              	.LFE185:
 699              		.section	.text.get_grid_row_align,"ax",%progbits
 700              		.align	1
ARM GAS  /var/folders/lp/x54gwt890xv47sdkqj1k04q40000gn/T//cc3Qko3C.s 			page 32


 701              		.syntax unified
 702              		.thumb
 703              		.thumb_func
 705              	get_grid_row_align:
 706              	.LVL70:
 707              	.LFB186:
  98:Drivers/lvgl/src/extra/layouts/grid/lv_grid.c ****     return lv_obj_get_style_grid_row_align(obj, 0);
 708              		.loc 1 98 1 is_stmt 1 view -0
 709              		.cfi_startproc
 710              		@ args = 0, pretend = 0, frame = 0
 711              		@ frame_needed = 0, uses_anonymous_args = 0
  98:Drivers/lvgl/src/extra/layouts/grid/lv_grid.c ****     return lv_obj_get_style_grid_row_align(obj, 0);
 712              		.loc 1 98 1 is_stmt 0 view .LVU194
 713 0000 08B5     		push	{r3, lr}
 714              		.cfi_def_cfa_offset 8
 715              		.cfi_offset 3, -8
 716              		.cfi_offset 14, -4
  99:Drivers/lvgl/src/extra/layouts/grid/lv_grid.c **** }
 717              		.loc 1 99 5 is_stmt 1 view .LVU195
 718              	.LVL71:
 719              	.LBB86:
 720              	.LBI86:
 133:Drivers/lvgl/src/extra/layouts/grid/../grid/lv_grid.h **** {
 721              		.loc 2 133 31 view .LVU196
 722              	.LBB87:
 135:Drivers/lvgl/src/extra/layouts/grid/../grid/lv_grid.h ****     return (lv_grid_align_t)v.num;
 723              		.loc 2 135 5 view .LVU197
 135:Drivers/lvgl/src/extra/layouts/grid/../grid/lv_grid.h ****     return (lv_grid_align_t)v.num;
 724              		.loc 2 135 26 is_stmt 0 view .LVU198
 725 0002 034B     		ldr	r3, .L57
 726 0004 1A88     		ldrh	r2, [r3]
 727 0006 0021     		movs	r1, #0
 728 0008 FFF7FEFF 		bl	lv_obj_get_style_prop
 729              	.LVL72:
 136:Drivers/lvgl/src/extra/layouts/grid/../grid/lv_grid.h **** }
 730              		.loc 2 136 5 is_stmt 1 view .LVU199
 136:Drivers/lvgl/src/extra/layouts/grid/../grid/lv_grid.h **** }
 731              		.loc 2 136 5 is_stmt 0 view .LVU200
 732              	.LBE87:
 733              	.LBE86:
 100:Drivers/lvgl/src/extra/layouts/grid/lv_grid.c **** 
 734              		.loc 1 100 1 view .LVU201
 735 000c C0B2     		uxtb	r0, r0
 736 000e 08BD     		pop	{r3, pc}
 737              	.L58:
 738              		.align	2
 739              	.L57:
 740 0010 00000000 		.word	LV_STYLE_GRID_ROW_ALIGN
 741              		.cfi_endproc
 742              	.LFE186:
 744              		.section	.text.get_cell_col_align,"ax",%progbits
 745              		.align	1
 746              		.syntax unified
 747              		.thumb
 748              		.thumb_func
 750              	get_cell_col_align:
 751              	.LVL73:
ARM GAS  /var/folders/lp/x54gwt890xv47sdkqj1k04q40000gn/T//cc3Qko3C.s 			page 33


 752              	.LFB183:
  86:Drivers/lvgl/src/extra/layouts/grid/lv_grid.c ****     return lv_obj_get_style_grid_cell_x_align(obj, 0);
 753              		.loc 1 86 1 is_stmt 1 view -0
 754              		.cfi_startproc
 755              		@ args = 0, pretend = 0, frame = 0
 756              		@ frame_needed = 0, uses_anonymous_args = 0
  86:Drivers/lvgl/src/extra/layouts/grid/lv_grid.c ****     return lv_obj_get_style_grid_cell_x_align(obj, 0);
 757              		.loc 1 86 1 is_stmt 0 view .LVU203
 758 0000 08B5     		push	{r3, lr}
 759              		.cfi_def_cfa_offset 8
 760              		.cfi_offset 3, -8
 761              		.cfi_offset 14, -4
  87:Drivers/lvgl/src/extra/layouts/grid/lv_grid.c **** }
 762              		.loc 1 87 5 is_stmt 1 view .LVU204
 763              	.LVL74:
 764              	.LBB88:
 765              	.LBI88:
 167:Drivers/lvgl/src/extra/layouts/grid/../grid/lv_grid.h **** }
 168:Drivers/lvgl/src/extra/layouts/grid/../grid/lv_grid.h **** 
 169:Drivers/lvgl/src/extra/layouts/grid/../grid/lv_grid.h **** static inline lv_coord_t lv_obj_get_style_grid_cell_x_align(const lv_obj_t * obj, uint32_t part)
 766              		.loc 2 169 26 view .LVU205
 767              	.LBB89:
 170:Drivers/lvgl/src/extra/layouts/grid/../grid/lv_grid.h **** {
 171:Drivers/lvgl/src/extra/layouts/grid/../grid/lv_grid.h ****     lv_style_value_t v = lv_obj_get_style_prop(obj, part, LV_STYLE_GRID_CELL_X_ALIGN);
 768              		.loc 2 171 5 view .LVU206
 769              		.loc 2 171 26 is_stmt 0 view .LVU207
 770 0002 034B     		ldr	r3, .L61
 771 0004 1A88     		ldrh	r2, [r3]
 772 0006 0021     		movs	r1, #0
 773 0008 FFF7FEFF 		bl	lv_obj_get_style_prop
 774              	.LVL75:
 172:Drivers/lvgl/src/extra/layouts/grid/../grid/lv_grid.h ****     return (lv_coord_t)v.num;
 775              		.loc 2 172 5 is_stmt 1 view .LVU208
 776              		.loc 2 172 5 is_stmt 0 view .LVU209
 777              	.LBE89:
 778              	.LBE88:
  88:Drivers/lvgl/src/extra/layouts/grid/lv_grid.c **** static inline uint8_t get_cell_row_align(lv_obj_t * obj)
 779              		.loc 1 88 1 view .LVU210
 780 000c C0B2     		uxtb	r0, r0
 781 000e 08BD     		pop	{r3, pc}
 782              	.L62:
 783              		.align	2
 784              	.L61:
 785 0010 00000000 		.word	LV_STYLE_GRID_CELL_X_ALIGN
 786              		.cfi_endproc
 787              	.LFE183:
 789              		.section	.text.get_cell_row_align,"ax",%progbits
 790              		.align	1
 791              		.syntax unified
 792              		.thumb
 793              		.thumb_func
 795              	get_cell_row_align:
 796              	.LVL76:
 797              	.LFB184:
  90:Drivers/lvgl/src/extra/layouts/grid/lv_grid.c ****     return lv_obj_get_style_grid_cell_y_align(obj, 0);
 798              		.loc 1 90 1 is_stmt 1 view -0
 799              		.cfi_startproc
ARM GAS  /var/folders/lp/x54gwt890xv47sdkqj1k04q40000gn/T//cc3Qko3C.s 			page 34


 800              		@ args = 0, pretend = 0, frame = 0
 801              		@ frame_needed = 0, uses_anonymous_args = 0
  90:Drivers/lvgl/src/extra/layouts/grid/lv_grid.c ****     return lv_obj_get_style_grid_cell_y_align(obj, 0);
 802              		.loc 1 90 1 is_stmt 0 view .LVU212
 803 0000 08B5     		push	{r3, lr}
 804              		.cfi_def_cfa_offset 8
 805              		.cfi_offset 3, -8
 806              		.cfi_offset 14, -4
  91:Drivers/lvgl/src/extra/layouts/grid/lv_grid.c **** }
 807              		.loc 1 91 5 is_stmt 1 view .LVU213
 808              	.LVL77:
 809              	.LBB90:
 810              	.LBI90:
 173:Drivers/lvgl/src/extra/layouts/grid/../grid/lv_grid.h **** }
 174:Drivers/lvgl/src/extra/layouts/grid/../grid/lv_grid.h **** 
 175:Drivers/lvgl/src/extra/layouts/grid/../grid/lv_grid.h **** static inline lv_coord_t lv_obj_get_style_grid_cell_y_align(const lv_obj_t * obj, uint32_t part)
 811              		.loc 2 175 26 view .LVU214
 812              	.LBB91:
 176:Drivers/lvgl/src/extra/layouts/grid/../grid/lv_grid.h **** {
 177:Drivers/lvgl/src/extra/layouts/grid/../grid/lv_grid.h ****     lv_style_value_t v = lv_obj_get_style_prop(obj, part, LV_STYLE_GRID_CELL_Y_ALIGN);
 813              		.loc 2 177 5 view .LVU215
 814              		.loc 2 177 26 is_stmt 0 view .LVU216
 815 0002 034B     		ldr	r3, .L65
 816 0004 1A88     		ldrh	r2, [r3]
 817 0006 0021     		movs	r1, #0
 818 0008 FFF7FEFF 		bl	lv_obj_get_style_prop
 819              	.LVL78:
 178:Drivers/lvgl/src/extra/layouts/grid/../grid/lv_grid.h ****     return (lv_coord_t)v.num;
 820              		.loc 2 178 5 is_stmt 1 view .LVU217
 821              		.loc 2 178 5 is_stmt 0 view .LVU218
 822              	.LBE91:
 823              	.LBE90:
  92:Drivers/lvgl/src/extra/layouts/grid/lv_grid.c **** static inline uint8_t get_grid_col_align(lv_obj_t * obj)
 824              		.loc 1 92 1 view .LVU219
 825 000c C0B2     		uxtb	r0, r0
 826 000e 08BD     		pop	{r3, pc}
 827              	.L66:
 828              		.align	2
 829              	.L65:
 830 0010 00000000 		.word	LV_STYLE_GRID_CELL_Y_ALIGN
 831              		.cfi_endproc
 832              	.LFE184:
 834              		.section	.text.calc_rows,"ax",%progbits
 835              		.align	1
 836              		.syntax unified
 837              		.thumb
 838              		.thumb_func
 840              	calc_rows:
 841              	.LVL79:
 842              	.LFB215:
 506:Drivers/lvgl/src/extra/layouts/grid/lv_grid.c ****     uint32_t i;
 843              		.loc 1 506 1 is_stmt 1 view -0
 844              		.cfi_startproc
 845              		@ args = 0, pretend = 0, frame = 0
 846              		@ frame_needed = 0, uses_anonymous_args = 0
 506:Drivers/lvgl/src/extra/layouts/grid/lv_grid.c ****     uint32_t i;
 847              		.loc 1 506 1 is_stmt 0 view .LVU221
ARM GAS  /var/folders/lp/x54gwt890xv47sdkqj1k04q40000gn/T//cc3Qko3C.s 			page 35


 848 0000 2DE9F84F 		push	{r3, r4, r5, r6, r7, r8, r9, r10, fp, lr}
 849              		.cfi_def_cfa_offset 40
 850              		.cfi_offset 3, -40
 851              		.cfi_offset 4, -36
 852              		.cfi_offset 5, -32
 853              		.cfi_offset 6, -28
 854              		.cfi_offset 7, -24
 855              		.cfi_offset 8, -20
 856              		.cfi_offset 9, -16
 857              		.cfi_offset 10, -12
 858              		.cfi_offset 11, -8
 859              		.cfi_offset 14, -4
 860 0004 8046     		mov	r8, r0
 861 0006 0C46     		mov	r4, r1
 507:Drivers/lvgl/src/extra/layouts/grid/lv_grid.c ****     const lv_coord_t * row_templ = get_row_dsc(cont);
 862              		.loc 1 507 5 is_stmt 1 view .LVU222
 508:Drivers/lvgl/src/extra/layouts/grid/lv_grid.c ****     c->row_num = count_tracks(row_templ);
 863              		.loc 1 508 5 view .LVU223
 508:Drivers/lvgl/src/extra/layouts/grid/lv_grid.c ****     c->row_num = count_tracks(row_templ);
 864              		.loc 1 508 36 is_stmt 0 view .LVU224
 865 0008 FFF7FEFF 		bl	get_row_dsc
 866              	.LVL80:
 508:Drivers/lvgl/src/extra/layouts/grid/lv_grid.c ****     c->row_num = count_tracks(row_templ);
 867              		.loc 1 508 36 view .LVU225
 868 000c 0746     		mov	r7, r0
 869              	.LVL81:
 509:Drivers/lvgl/src/extra/layouts/grid/lv_grid.c ****     c->y = lv_mem_buf_get(sizeof(lv_coord_t) * c->row_num);
 870              		.loc 1 509 5 is_stmt 1 view .LVU226
 509:Drivers/lvgl/src/extra/layouts/grid/lv_grid.c ****     c->y = lv_mem_buf_get(sizeof(lv_coord_t) * c->row_num);
 871              		.loc 1 509 18 is_stmt 0 view .LVU227
 872 000e FFF7FEFF 		bl	count_tracks
 873              	.LVL82:
 509:Drivers/lvgl/src/extra/layouts/grid/lv_grid.c ****     c->y = lv_mem_buf_get(sizeof(lv_coord_t) * c->row_num);
 874              		.loc 1 509 16 discriminator 1 view .LVU228
 875 0012 6061     		str	r0, [r4, #20]
 510:Drivers/lvgl/src/extra/layouts/grid/lv_grid.c ****     c->h = lv_mem_buf_get(sizeof(lv_coord_t) * c->row_num);
 876              		.loc 1 510 5 is_stmt 1 view .LVU229
 510:Drivers/lvgl/src/extra/layouts/grid/lv_grid.c ****     c->h = lv_mem_buf_get(sizeof(lv_coord_t) * c->row_num);
 877              		.loc 1 510 12 is_stmt 0 view .LVU230
 878 0014 4000     		lsls	r0, r0, #1
 879 0016 FFF7FEFF 		bl	lv_mem_buf_get
 880              	.LVL83:
 510:Drivers/lvgl/src/extra/layouts/grid/lv_grid.c ****     c->h = lv_mem_buf_get(sizeof(lv_coord_t) * c->row_num);
 881              		.loc 1 510 10 discriminator 1 view .LVU231
 882 001a 6060     		str	r0, [r4, #4]
 511:Drivers/lvgl/src/extra/layouts/grid/lv_grid.c ****     /*Set sizes for CONTENT cells*/
 883              		.loc 1 511 5 is_stmt 1 view .LVU232
 511:Drivers/lvgl/src/extra/layouts/grid/lv_grid.c ****     /*Set sizes for CONTENT cells*/
 884              		.loc 1 511 49 is_stmt 0 view .LVU233
 885 001c 6069     		ldr	r0, [r4, #20]
 511:Drivers/lvgl/src/extra/layouts/grid/lv_grid.c ****     /*Set sizes for CONTENT cells*/
 886              		.loc 1 511 12 view .LVU234
 887 001e 4000     		lsls	r0, r0, #1
 888 0020 FFF7FEFF 		bl	lv_mem_buf_get
 889              	.LVL84:
 511:Drivers/lvgl/src/extra/layouts/grid/lv_grid.c ****     /*Set sizes for CONTENT cells*/
 890              		.loc 1 511 10 discriminator 1 view .LVU235
ARM GAS  /var/folders/lp/x54gwt890xv47sdkqj1k04q40000gn/T//cc3Qko3C.s 			page 36


 891 0024 E060     		str	r0, [r4, #12]
 513:Drivers/lvgl/src/extra/layouts/grid/lv_grid.c ****         lv_coord_t size = LV_COORD_MIN;
 892              		.loc 1 513 5 is_stmt 1 view .LVU236
 893              	.LVL85:
 513:Drivers/lvgl/src/extra/layouts/grid/lv_grid.c ****         lv_coord_t size = LV_COORD_MIN;
 894              		.loc 1 513 11 is_stmt 0 view .LVU237
 895 0026 0026     		movs	r6, #0
 513:Drivers/lvgl/src/extra/layouts/grid/lv_grid.c ****         lv_coord_t size = LV_COORD_MIN;
 896              		.loc 1 513 5 view .LVU238
 897 0028 2AE0     		b	.L68
 898              	.LVL86:
 899              	.L71:
 900              	.LBB92:
 901              	.LBB93:
 518:Drivers/lvgl/src/extra/layouts/grid/lv_grid.c ****                 lv_obj_t * item = lv_obj_get_child(cont, ci);
 902              		.loc 1 518 60 is_stmt 1 discriminator 2 view .LVU239
 903 002a 0135     		adds	r5, r5, #1
 904              	.LVL87:
 905              	.L69:
 518:Drivers/lvgl/src/extra/layouts/grid/lv_grid.c ****                 lv_obj_t * item = lv_obj_get_child(cont, ci);
 906              		.loc 1 518 28 discriminator 1 view .LVU240
 518:Drivers/lvgl/src/extra/layouts/grid/lv_grid.c ****                 lv_obj_t * item = lv_obj_get_child(cont, ci);
 907              		.loc 1 518 30 is_stmt 0 discriminator 1 view .LVU241
 908 002c 4046     		mov	r0, r8
 909 002e FFF7FEFF 		bl	lv_obj_get_child_cnt
 910              	.LVL88:
 518:Drivers/lvgl/src/extra/layouts/grid/lv_grid.c ****                 lv_obj_t * item = lv_obj_get_child(cont, ci);
 911              		.loc 1 518 28 discriminator 1 view .LVU242
 912 0032 A842     		cmp	r0, r5
 913 0034 1DD9     		bls	.L88
 914              	.LBB94:
 519:Drivers/lvgl/src/extra/layouts/grid/lv_grid.c ****                 if(lv_obj_has_flag_any(item, LV_OBJ_FLAG_IGNORE_LAYOUT | LV_OBJ_FLAG_HIDDEN | LV_OB
 915              		.loc 1 519 17 is_stmt 1 view .LVU243
 519:Drivers/lvgl/src/extra/layouts/grid/lv_grid.c ****                 if(lv_obj_has_flag_any(item, LV_OBJ_FLAG_IGNORE_LAYOUT | LV_OBJ_FLAG_HIDDEN | LV_OB
 916              		.loc 1 519 35 is_stmt 0 view .LVU244
 917 0036 2946     		mov	r1, r5
 918 0038 4046     		mov	r0, r8
 919 003a FFF7FEFF 		bl	lv_obj_get_child
 920              	.LVL89:
 921 003e 8146     		mov	r9, r0
 922              	.LVL90:
 520:Drivers/lvgl/src/extra/layouts/grid/lv_grid.c ****                 uint32_t row_span = get_row_span(item);
 923              		.loc 1 520 17 is_stmt 1 view .LVU245
 520:Drivers/lvgl/src/extra/layouts/grid/lv_grid.c ****                 uint32_t row_span = get_row_span(item);
 924              		.loc 1 520 20 is_stmt 0 view .LVU246
 925 0040 4B49     		ldr	r1, .L94
 926 0042 FFF7FEFF 		bl	lv_obj_has_flag_any
 927              	.LVL91:
 520:Drivers/lvgl/src/extra/layouts/grid/lv_grid.c ****                 uint32_t row_span = get_row_span(item);
 928              		.loc 1 520 19 discriminator 1 view .LVU247
 929 0046 0028     		cmp	r0, #0
 930 0048 EFD1     		bne	.L71
 521:Drivers/lvgl/src/extra/layouts/grid/lv_grid.c ****                 if(row_span != 1) continue;
 931              		.loc 1 521 17 is_stmt 1 view .LVU248
 521:Drivers/lvgl/src/extra/layouts/grid/lv_grid.c ****                 if(row_span != 1) continue;
 932              		.loc 1 521 37 is_stmt 0 view .LVU249
 933 004a 4846     		mov	r0, r9
ARM GAS  /var/folders/lp/x54gwt890xv47sdkqj1k04q40000gn/T//cc3Qko3C.s 			page 37


 934 004c FFF7FEFF 		bl	get_row_span
 935              	.LVL92:
 522:Drivers/lvgl/src/extra/layouts/grid/lv_grid.c **** 
 936              		.loc 1 522 17 is_stmt 1 view .LVU250
 522:Drivers/lvgl/src/extra/layouts/grid/lv_grid.c **** 
 937              		.loc 1 522 19 is_stmt 0 view .LVU251
 938 0050 0128     		cmp	r0, #1
 939 0052 EAD1     		bne	.L71
 524:Drivers/lvgl/src/extra/layouts/grid/lv_grid.c ****                 if(row_pos != i) continue;
 940              		.loc 1 524 17 is_stmt 1 view .LVU252
 524:Drivers/lvgl/src/extra/layouts/grid/lv_grid.c ****                 if(row_pos != i) continue;
 941              		.loc 1 524 36 is_stmt 0 view .LVU253
 942 0054 4846     		mov	r0, r9
 943              	.LVL93:
 524:Drivers/lvgl/src/extra/layouts/grid/lv_grid.c ****                 if(row_pos != i) continue;
 944              		.loc 1 524 36 view .LVU254
 945 0056 FFF7FEFF 		bl	get_row_pos
 946              	.LVL94:
 525:Drivers/lvgl/src/extra/layouts/grid/lv_grid.c **** 
 947              		.loc 1 525 17 is_stmt 1 view .LVU255
 525:Drivers/lvgl/src/extra/layouts/grid/lv_grid.c **** 
 948              		.loc 1 525 19 is_stmt 0 view .LVU256
 949 005a 8642     		cmp	r6, r0
 950 005c E5D1     		bne	.L71
 527:Drivers/lvgl/src/extra/layouts/grid/lv_grid.c ****             }
 951              		.loc 1 527 17 is_stmt 1 view .LVU257
 527:Drivers/lvgl/src/extra/layouts/grid/lv_grid.c ****             }
 952              		.loc 1 527 24 is_stmt 0 view .LVU258
 953 005e 4846     		mov	r0, r9
 954              	.LVL95:
 527:Drivers/lvgl/src/extra/layouts/grid/lv_grid.c ****             }
 955              		.loc 1 527 24 view .LVU259
 956 0060 FFF7FEFF 		bl	lv_obj_get_height
 957              	.LVL96:
 527:Drivers/lvgl/src/extra/layouts/grid/lv_grid.c ****             }
 958              		.loc 1 527 22 discriminator 1 view .LVU260
 959 0064 5845     		cmp	r0, fp
 960 0066 E0DB     		blt	.L71
 527:Drivers/lvgl/src/extra/layouts/grid/lv_grid.c ****             }
 961              		.loc 1 527 24 discriminator 1 view .LVU261
 962 0068 4846     		mov	r0, r9
 963 006a FFF7FEFF 		bl	lv_obj_get_height
 964              	.LVL97:
 965 006e 8346     		mov	fp, r0
 966              	.LVL98:
 527:Drivers/lvgl/src/extra/layouts/grid/lv_grid.c ****             }
 967              		.loc 1 527 24 discriminator 1 view .LVU262
 968 0070 DBE7     		b	.L71
 969              	.LVL99:
 970              	.L88:
 527:Drivers/lvgl/src/extra/layouts/grid/lv_grid.c ****             }
 971              		.loc 1 527 24 discriminator 1 view .LVU263
 972              	.LBE94:
 529:Drivers/lvgl/src/extra/layouts/grid/lv_grid.c ****             else c->h[i] = 0;
 973              		.loc 1 529 13 is_stmt 1 view .LVU264
 529:Drivers/lvgl/src/extra/layouts/grid/lv_grid.c ****             else c->h[i] = 0;
 974              		.loc 1 529 15 is_stmt 0 view .LVU265
ARM GAS  /var/folders/lp/x54gwt890xv47sdkqj1k04q40000gn/T//cc3Qko3C.s 			page 38


 975 0072 BBF1000F 		cmp	fp, #0
 976 0076 12DB     		blt	.L73
 529:Drivers/lvgl/src/extra/layouts/grid/lv_grid.c ****             else c->h[i] = 0;
 977              		.loc 1 529 27 is_stmt 1 discriminator 1 view .LVU266
 529:Drivers/lvgl/src/extra/layouts/grid/lv_grid.c ****             else c->h[i] = 0;
 978              		.loc 1 529 28 is_stmt 0 discriminator 1 view .LVU267
 979 0078 E368     		ldr	r3, [r4, #12]
 529:Drivers/lvgl/src/extra/layouts/grid/lv_grid.c ****             else c->h[i] = 0;
 980              		.loc 1 529 35 discriminator 1 view .LVU268
 981 007a 23F80AB0 		strh	fp, [r3, r10]	@ movhi
 982              	.LVL100:
 983              	.L70:
 529:Drivers/lvgl/src/extra/layouts/grid/lv_grid.c ****             else c->h[i] = 0;
 984              		.loc 1 529 35 discriminator 1 view .LVU269
 985              	.LBE93:
 986              	.LBE92:
 513:Drivers/lvgl/src/extra/layouts/grid/lv_grid.c ****         lv_coord_t size = LV_COORD_MIN;
 987              		.loc 1 513 33 is_stmt 1 discriminator 2 view .LVU270
 988 007e 0136     		adds	r6, r6, #1
 989              	.LVL101:
 990              	.L68:
 513:Drivers/lvgl/src/extra/layouts/grid/lv_grid.c ****         lv_coord_t size = LV_COORD_MIN;
 991              		.loc 1 513 18 discriminator 1 view .LVU271
 513:Drivers/lvgl/src/extra/layouts/grid/lv_grid.c ****         lv_coord_t size = LV_COORD_MIN;
 992              		.loc 1 513 21 is_stmt 0 discriminator 1 view .LVU272
 993 0080 6369     		ldr	r3, [r4, #20]
 513:Drivers/lvgl/src/extra/layouts/grid/lv_grid.c ****         lv_coord_t size = LV_COORD_MIN;
 994              		.loc 1 513 18 discriminator 1 view .LVU273
 995 0082 B342     		cmp	r3, r6
 996 0084 10D9     		bls	.L89
 997              	.LBB97:
 514:Drivers/lvgl/src/extra/layouts/grid/lv_grid.c ****         if(IS_CONTENT(row_templ[i])) {
 998              		.loc 1 514 9 is_stmt 1 view .LVU274
 999              	.LVL102:
 515:Drivers/lvgl/src/extra/layouts/grid/lv_grid.c ****             /*Check the size of children of this cell*/
 1000              		.loc 1 515 9 view .LVU275
 515:Drivers/lvgl/src/extra/layouts/grid/lv_grid.c ****             /*Check the size of children of this cell*/
 1001              		.loc 1 515 12 is_stmt 0 view .LVU276
 1002 0086 4FEA460A 		lsl	r10, r6, #1
 1003 008a 37F91620 		ldrsh	r2, [r7, r6, lsl #1]
 515:Drivers/lvgl/src/extra/layouts/grid/lv_grid.c ****             /*Check the size of children of this cell*/
 1004              		.loc 1 515 11 view .LVU277
 1005 008e 41F69A73 		movw	r3, #8090
 1006 0092 9A42     		cmp	r2, r3
 1007 0094 F3D1     		bne	.L70
 1008              	.LBB95:
 518:Drivers/lvgl/src/extra/layouts/grid/lv_grid.c ****                 lv_obj_t * item = lv_obj_get_child(cont, ci);
 1009              		.loc 1 518 20 view .LVU278
 1010 0096 0025     		movs	r5, #0
 1011              	.LBE95:
 514:Drivers/lvgl/src/extra/layouts/grid/lv_grid.c ****         if(IS_CONTENT(row_templ[i])) {
 1012              		.loc 1 514 20 view .LVU279
 1013 0098 DFF8D8B0 		ldr	fp, .L94+4
 1014 009c C6E7     		b	.L69
 1015              	.LVL103:
 1016              	.L73:
 1017              	.LBB96:
ARM GAS  /var/folders/lp/x54gwt890xv47sdkqj1k04q40000gn/T//cc3Qko3C.s 			page 39


 530:Drivers/lvgl/src/extra/layouts/grid/lv_grid.c ****         }
 1018              		.loc 1 530 18 is_stmt 1 view .LVU280
 530:Drivers/lvgl/src/extra/layouts/grid/lv_grid.c ****         }
 1019              		.loc 1 530 19 is_stmt 0 view .LVU281
 1020 009e E368     		ldr	r3, [r4, #12]
 530:Drivers/lvgl/src/extra/layouts/grid/lv_grid.c ****         }
 1021              		.loc 1 530 26 view .LVU282
 1022 00a0 0022     		movs	r2, #0
 1023 00a2 23F80A20 		strh	r2, [r3, r10]	@ movhi
 1024 00a6 EAE7     		b	.L70
 1025              	.LVL104:
 1026              	.L89:
 530:Drivers/lvgl/src/extra/layouts/grid/lv_grid.c ****         }
 1027              		.loc 1 530 26 view .LVU283
 1028              	.LBE96:
 1029              	.LBE97:
 535:Drivers/lvgl/src/extra/layouts/grid/lv_grid.c **** 
 1030              		.loc 1 535 16 view .LVU284
 1031 00a8 0026     		movs	r6, #0
 1032              	.LVL105:
 534:Drivers/lvgl/src/extra/layouts/grid/lv_grid.c ****     lv_coord_t grid_h = 0;
 1033              		.loc 1 534 14 view .LVU285
 1034 00aa 3546     		mov	r5, r6
 537:Drivers/lvgl/src/extra/layouts/grid/lv_grid.c ****         lv_coord_t x = row_templ[i];
 1035              		.loc 1 537 11 view .LVU286
 1036 00ac 3246     		mov	r2, r6
 1037 00ae 08E0     		b	.L75
 1038              	.LVL106:
 1039              	.L76:
 1040              	.LBB98:
 542:Drivers/lvgl/src/extra/layouts/grid/lv_grid.c ****             grid_h += c->h[i];
 1041              		.loc 1 542 14 is_stmt 1 view .LVU287
 542:Drivers/lvgl/src/extra/layouts/grid/lv_grid.c ****             grid_h += c->h[i];
 1042              		.loc 1 542 16 is_stmt 0 view .LVU288
 1043 00b0 41F69A71 		movw	r1, #8090
 1044 00b4 8B42     		cmp	r3, r1
 1045 00b6 13D0     		beq	.L90
 546:Drivers/lvgl/src/extra/layouts/grid/lv_grid.c ****             grid_h += x;
 1046              		.loc 1 546 13 is_stmt 1 view .LVU289
 546:Drivers/lvgl/src/extra/layouts/grid/lv_grid.c ****             grid_h += x;
 1047              		.loc 1 546 14 is_stmt 0 view .LVU290
 1048 00b8 E168     		ldr	r1, [r4, #12]
 546:Drivers/lvgl/src/extra/layouts/grid/lv_grid.c ****             grid_h += x;
 1049              		.loc 1 546 21 view .LVU291
 1050 00ba 0B52     		strh	r3, [r1, r0]	@ movhi
 547:Drivers/lvgl/src/extra/layouts/grid/lv_grid.c ****         }
 1051              		.loc 1 547 13 is_stmt 1 view .LVU292
 547:Drivers/lvgl/src/extra/layouts/grid/lv_grid.c ****         }
 1052              		.loc 1 547 20 is_stmt 0 view .LVU293
 1053 00bc 3344     		add	r3, r3, r6
 1054              	.LVL107:
 547:Drivers/lvgl/src/extra/layouts/grid/lv_grid.c ****         }
 1055              		.loc 1 547 20 view .LVU294
 1056 00be 1EB2     		sxth	r6, r3
 1057              	.LVL108:
 1058              	.L77:
 547:Drivers/lvgl/src/extra/layouts/grid/lv_grid.c ****         }
ARM GAS  /var/folders/lp/x54gwt890xv47sdkqj1k04q40000gn/T//cc3Qko3C.s 			page 40


 1059              		.loc 1 547 20 view .LVU295
 1060              	.LBE98:
 537:Drivers/lvgl/src/extra/layouts/grid/lv_grid.c ****         lv_coord_t x = row_templ[i];
 1061              		.loc 1 537 33 is_stmt 1 discriminator 2 view .LVU296
 1062 00c0 0132     		adds	r2, r2, #1
 1063              	.LVL109:
 1064              	.L75:
 537:Drivers/lvgl/src/extra/layouts/grid/lv_grid.c ****         lv_coord_t x = row_templ[i];
 1065              		.loc 1 537 18 discriminator 1 view .LVU297
 537:Drivers/lvgl/src/extra/layouts/grid/lv_grid.c ****         lv_coord_t x = row_templ[i];
 1066              		.loc 1 537 21 is_stmt 0 discriminator 1 view .LVU298
 1067 00c2 6369     		ldr	r3, [r4, #20]
 537:Drivers/lvgl/src/extra/layouts/grid/lv_grid.c ****         lv_coord_t x = row_templ[i];
 1068              		.loc 1 537 18 discriminator 1 view .LVU299
 1069 00c4 9342     		cmp	r3, r2
 1070 00c6 10D9     		bls	.L91
 1071              	.LBB99:
 538:Drivers/lvgl/src/extra/layouts/grid/lv_grid.c ****         if(IS_FR(x)) {
 1072              		.loc 1 538 9 is_stmt 1 view .LVU300
 538:Drivers/lvgl/src/extra/layouts/grid/lv_grid.c ****         if(IS_FR(x)) {
 1073              		.loc 1 538 33 is_stmt 0 view .LVU301
 1074 00c8 5000     		lsls	r0, r2, #1
 538:Drivers/lvgl/src/extra/layouts/grid/lv_grid.c ****         if(IS_FR(x)) {
 1075              		.loc 1 538 20 view .LVU302
 1076 00ca 37F91230 		ldrsh	r3, [r7, r2, lsl #1]
 1077              	.LVL110:
 539:Drivers/lvgl/src/extra/layouts/grid/lv_grid.c ****             row_fr_cnt += GET_FR(x);
 1078              		.loc 1 539 9 is_stmt 1 view .LVU303
 539:Drivers/lvgl/src/extra/layouts/grid/lv_grid.c ****             row_fr_cnt += GET_FR(x);
 1079              		.loc 1 539 11 is_stmt 0 view .LVU304
 1080 00ce 41F69A71 		movw	r1, #8090
 1081 00d2 8B42     		cmp	r3, r1
 1082 00d4 ECDD     		ble	.L76
 540:Drivers/lvgl/src/extra/layouts/grid/lv_grid.c ****         }
 1083              		.loc 1 540 13 is_stmt 1 view .LVU305
 540:Drivers/lvgl/src/extra/layouts/grid/lv_grid.c ****         }
 1084              		.loc 1 540 24 is_stmt 0 view .LVU306
 1085 00d6 2B44     		add	r3, r3, r5
 1086              	.LVL111:
 540:Drivers/lvgl/src/extra/layouts/grid/lv_grid.c ****         }
 1087              		.loc 1 540 24 view .LVU307
 1088 00d8 A3F5FC55 		sub	r5, r3, #8064
 1089              	.LVL112:
 540:Drivers/lvgl/src/extra/layouts/grid/lv_grid.c ****         }
 1090              		.loc 1 540 24 view .LVU308
 1091 00dc 1B3D     		subs	r5, r5, #27
 1092              	.LVL113:
 540:Drivers/lvgl/src/extra/layouts/grid/lv_grid.c ****         }
 1093              		.loc 1 540 24 view .LVU309
 1094 00de EFE7     		b	.L77
 1095              	.LVL114:
 1096              	.L90:
 543:Drivers/lvgl/src/extra/layouts/grid/lv_grid.c ****         }
 1097              		.loc 1 543 13 is_stmt 1 view .LVU310
 543:Drivers/lvgl/src/extra/layouts/grid/lv_grid.c ****         }
 1098              		.loc 1 543 24 is_stmt 0 view .LVU311
 1099 00e0 E368     		ldr	r3, [r4, #12]
ARM GAS  /var/folders/lp/x54gwt890xv47sdkqj1k04q40000gn/T//cc3Qko3C.s 			page 41


 1100              	.LVL115:
 543:Drivers/lvgl/src/extra/layouts/grid/lv_grid.c ****         }
 1101              		.loc 1 543 27 view .LVU312
 1102 00e2 1B5A     		ldrh	r3, [r3, r0]
 543:Drivers/lvgl/src/extra/layouts/grid/lv_grid.c ****         }
 1103              		.loc 1 543 20 view .LVU313
 1104 00e4 3344     		add	r3, r3, r6
 1105 00e6 1EB2     		sxth	r6, r3
 1106              	.LVL116:
 543:Drivers/lvgl/src/extra/layouts/grid/lv_grid.c ****         }
 1107              		.loc 1 543 20 view .LVU314
 1108 00e8 EAE7     		b	.L77
 1109              	.LVL117:
 1110              	.L91:
 543:Drivers/lvgl/src/extra/layouts/grid/lv_grid.c ****         }
 1111              		.loc 1 543 20 view .LVU315
 1112              	.LBE99:
 552:Drivers/lvgl/src/extra/layouts/grid/lv_grid.c ****     lv_coord_t cont_h = lv_obj_get_content_height(cont) - row_gap * (c->row_num - 1);
 1113              		.loc 1 552 5 is_stmt 1 view .LVU316
 1114              	.LBB100:
 1115              	.LBI100:
 1116              		.file 3 "Drivers/lvgl/src/extra/layouts/grid/../flex/../../../core/lv_obj_style_gen.h"
   1:Drivers/lvgl/src/extra/layouts/grid/../flex/../../../core/lv_obj_style_gen.h **** static inline lv_coord_t lv_obj_get_style_width(const struct _lv_obj_t * obj, uint32_t part)
   2:Drivers/lvgl/src/extra/layouts/grid/../flex/../../../core/lv_obj_style_gen.h **** {
   3:Drivers/lvgl/src/extra/layouts/grid/../flex/../../../core/lv_obj_style_gen.h ****     lv_style_value_t v = lv_obj_get_style_prop(obj, part, LV_STYLE_WIDTH);
   4:Drivers/lvgl/src/extra/layouts/grid/../flex/../../../core/lv_obj_style_gen.h ****     return (lv_coord_t)v.num;
   5:Drivers/lvgl/src/extra/layouts/grid/../flex/../../../core/lv_obj_style_gen.h **** }
   6:Drivers/lvgl/src/extra/layouts/grid/../flex/../../../core/lv_obj_style_gen.h **** 
   7:Drivers/lvgl/src/extra/layouts/grid/../flex/../../../core/lv_obj_style_gen.h **** static inline lv_coord_t lv_obj_get_style_min_width(const struct _lv_obj_t * obj, uint32_t part)
   8:Drivers/lvgl/src/extra/layouts/grid/../flex/../../../core/lv_obj_style_gen.h **** {
   9:Drivers/lvgl/src/extra/layouts/grid/../flex/../../../core/lv_obj_style_gen.h ****     lv_style_value_t v = lv_obj_get_style_prop(obj, part, LV_STYLE_MIN_WIDTH);
  10:Drivers/lvgl/src/extra/layouts/grid/../flex/../../../core/lv_obj_style_gen.h ****     return (lv_coord_t)v.num;
  11:Drivers/lvgl/src/extra/layouts/grid/../flex/../../../core/lv_obj_style_gen.h **** }
  12:Drivers/lvgl/src/extra/layouts/grid/../flex/../../../core/lv_obj_style_gen.h **** 
  13:Drivers/lvgl/src/extra/layouts/grid/../flex/../../../core/lv_obj_style_gen.h **** static inline lv_coord_t lv_obj_get_style_max_width(const struct _lv_obj_t * obj, uint32_t part)
  14:Drivers/lvgl/src/extra/layouts/grid/../flex/../../../core/lv_obj_style_gen.h **** {
  15:Drivers/lvgl/src/extra/layouts/grid/../flex/../../../core/lv_obj_style_gen.h ****     lv_style_value_t v = lv_obj_get_style_prop(obj, part, LV_STYLE_MAX_WIDTH);
  16:Drivers/lvgl/src/extra/layouts/grid/../flex/../../../core/lv_obj_style_gen.h ****     return (lv_coord_t)v.num;
  17:Drivers/lvgl/src/extra/layouts/grid/../flex/../../../core/lv_obj_style_gen.h **** }
  18:Drivers/lvgl/src/extra/layouts/grid/../flex/../../../core/lv_obj_style_gen.h **** 
  19:Drivers/lvgl/src/extra/layouts/grid/../flex/../../../core/lv_obj_style_gen.h **** static inline lv_coord_t lv_obj_get_style_height(const struct _lv_obj_t * obj, uint32_t part)
  20:Drivers/lvgl/src/extra/layouts/grid/../flex/../../../core/lv_obj_style_gen.h **** {
  21:Drivers/lvgl/src/extra/layouts/grid/../flex/../../../core/lv_obj_style_gen.h ****     lv_style_value_t v = lv_obj_get_style_prop(obj, part, LV_STYLE_HEIGHT);
  22:Drivers/lvgl/src/extra/layouts/grid/../flex/../../../core/lv_obj_style_gen.h ****     return (lv_coord_t)v.num;
  23:Drivers/lvgl/src/extra/layouts/grid/../flex/../../../core/lv_obj_style_gen.h **** }
  24:Drivers/lvgl/src/extra/layouts/grid/../flex/../../../core/lv_obj_style_gen.h **** 
  25:Drivers/lvgl/src/extra/layouts/grid/../flex/../../../core/lv_obj_style_gen.h **** static inline lv_coord_t lv_obj_get_style_min_height(const struct _lv_obj_t * obj, uint32_t part)
  26:Drivers/lvgl/src/extra/layouts/grid/../flex/../../../core/lv_obj_style_gen.h **** {
  27:Drivers/lvgl/src/extra/layouts/grid/../flex/../../../core/lv_obj_style_gen.h ****     lv_style_value_t v = lv_obj_get_style_prop(obj, part, LV_STYLE_MIN_HEIGHT);
  28:Drivers/lvgl/src/extra/layouts/grid/../flex/../../../core/lv_obj_style_gen.h ****     return (lv_coord_t)v.num;
  29:Drivers/lvgl/src/extra/layouts/grid/../flex/../../../core/lv_obj_style_gen.h **** }
  30:Drivers/lvgl/src/extra/layouts/grid/../flex/../../../core/lv_obj_style_gen.h **** 
  31:Drivers/lvgl/src/extra/layouts/grid/../flex/../../../core/lv_obj_style_gen.h **** static inline lv_coord_t lv_obj_get_style_max_height(const struct _lv_obj_t * obj, uint32_t part)
  32:Drivers/lvgl/src/extra/layouts/grid/../flex/../../../core/lv_obj_style_gen.h **** {
  33:Drivers/lvgl/src/extra/layouts/grid/../flex/../../../core/lv_obj_style_gen.h ****     lv_style_value_t v = lv_obj_get_style_prop(obj, part, LV_STYLE_MAX_HEIGHT);
  34:Drivers/lvgl/src/extra/layouts/grid/../flex/../../../core/lv_obj_style_gen.h ****     return (lv_coord_t)v.num;
  35:Drivers/lvgl/src/extra/layouts/grid/../flex/../../../core/lv_obj_style_gen.h **** }
ARM GAS  /var/folders/lp/x54gwt890xv47sdkqj1k04q40000gn/T//cc3Qko3C.s 			page 42


  36:Drivers/lvgl/src/extra/layouts/grid/../flex/../../../core/lv_obj_style_gen.h **** 
  37:Drivers/lvgl/src/extra/layouts/grid/../flex/../../../core/lv_obj_style_gen.h **** static inline lv_coord_t lv_obj_get_style_x(const struct _lv_obj_t * obj, uint32_t part)
  38:Drivers/lvgl/src/extra/layouts/grid/../flex/../../../core/lv_obj_style_gen.h **** {
  39:Drivers/lvgl/src/extra/layouts/grid/../flex/../../../core/lv_obj_style_gen.h ****     lv_style_value_t v = lv_obj_get_style_prop(obj, part, LV_STYLE_X);
  40:Drivers/lvgl/src/extra/layouts/grid/../flex/../../../core/lv_obj_style_gen.h ****     return (lv_coord_t)v.num;
  41:Drivers/lvgl/src/extra/layouts/grid/../flex/../../../core/lv_obj_style_gen.h **** }
  42:Drivers/lvgl/src/extra/layouts/grid/../flex/../../../core/lv_obj_style_gen.h **** 
  43:Drivers/lvgl/src/extra/layouts/grid/../flex/../../../core/lv_obj_style_gen.h **** static inline lv_coord_t lv_obj_get_style_y(const struct _lv_obj_t * obj, uint32_t part)
  44:Drivers/lvgl/src/extra/layouts/grid/../flex/../../../core/lv_obj_style_gen.h **** {
  45:Drivers/lvgl/src/extra/layouts/grid/../flex/../../../core/lv_obj_style_gen.h ****     lv_style_value_t v = lv_obj_get_style_prop(obj, part, LV_STYLE_Y);
  46:Drivers/lvgl/src/extra/layouts/grid/../flex/../../../core/lv_obj_style_gen.h ****     return (lv_coord_t)v.num;
  47:Drivers/lvgl/src/extra/layouts/grid/../flex/../../../core/lv_obj_style_gen.h **** }
  48:Drivers/lvgl/src/extra/layouts/grid/../flex/../../../core/lv_obj_style_gen.h **** 
  49:Drivers/lvgl/src/extra/layouts/grid/../flex/../../../core/lv_obj_style_gen.h **** static inline lv_align_t lv_obj_get_style_align(const struct _lv_obj_t * obj, uint32_t part)
  50:Drivers/lvgl/src/extra/layouts/grid/../flex/../../../core/lv_obj_style_gen.h **** {
  51:Drivers/lvgl/src/extra/layouts/grid/../flex/../../../core/lv_obj_style_gen.h ****     lv_style_value_t v = lv_obj_get_style_prop(obj, part, LV_STYLE_ALIGN);
  52:Drivers/lvgl/src/extra/layouts/grid/../flex/../../../core/lv_obj_style_gen.h ****     return (lv_align_t)v.num;
  53:Drivers/lvgl/src/extra/layouts/grid/../flex/../../../core/lv_obj_style_gen.h **** }
  54:Drivers/lvgl/src/extra/layouts/grid/../flex/../../../core/lv_obj_style_gen.h **** 
  55:Drivers/lvgl/src/extra/layouts/grid/../flex/../../../core/lv_obj_style_gen.h **** static inline lv_coord_t lv_obj_get_style_transform_width(const struct _lv_obj_t * obj, uint32_t pa
  56:Drivers/lvgl/src/extra/layouts/grid/../flex/../../../core/lv_obj_style_gen.h **** {
  57:Drivers/lvgl/src/extra/layouts/grid/../flex/../../../core/lv_obj_style_gen.h ****     lv_style_value_t v = lv_obj_get_style_prop(obj, part, LV_STYLE_TRANSFORM_WIDTH);
  58:Drivers/lvgl/src/extra/layouts/grid/../flex/../../../core/lv_obj_style_gen.h ****     return (lv_coord_t)v.num;
  59:Drivers/lvgl/src/extra/layouts/grid/../flex/../../../core/lv_obj_style_gen.h **** }
  60:Drivers/lvgl/src/extra/layouts/grid/../flex/../../../core/lv_obj_style_gen.h **** 
  61:Drivers/lvgl/src/extra/layouts/grid/../flex/../../../core/lv_obj_style_gen.h **** static inline lv_coord_t lv_obj_get_style_transform_height(const struct _lv_obj_t * obj, uint32_t p
  62:Drivers/lvgl/src/extra/layouts/grid/../flex/../../../core/lv_obj_style_gen.h **** {
  63:Drivers/lvgl/src/extra/layouts/grid/../flex/../../../core/lv_obj_style_gen.h ****     lv_style_value_t v = lv_obj_get_style_prop(obj, part, LV_STYLE_TRANSFORM_HEIGHT);
  64:Drivers/lvgl/src/extra/layouts/grid/../flex/../../../core/lv_obj_style_gen.h ****     return (lv_coord_t)v.num;
  65:Drivers/lvgl/src/extra/layouts/grid/../flex/../../../core/lv_obj_style_gen.h **** }
  66:Drivers/lvgl/src/extra/layouts/grid/../flex/../../../core/lv_obj_style_gen.h **** 
  67:Drivers/lvgl/src/extra/layouts/grid/../flex/../../../core/lv_obj_style_gen.h **** static inline lv_coord_t lv_obj_get_style_translate_x(const struct _lv_obj_t * obj, uint32_t part)
  68:Drivers/lvgl/src/extra/layouts/grid/../flex/../../../core/lv_obj_style_gen.h **** {
  69:Drivers/lvgl/src/extra/layouts/grid/../flex/../../../core/lv_obj_style_gen.h ****     lv_style_value_t v = lv_obj_get_style_prop(obj, part, LV_STYLE_TRANSLATE_X);
  70:Drivers/lvgl/src/extra/layouts/grid/../flex/../../../core/lv_obj_style_gen.h ****     return (lv_coord_t)v.num;
  71:Drivers/lvgl/src/extra/layouts/grid/../flex/../../../core/lv_obj_style_gen.h **** }
  72:Drivers/lvgl/src/extra/layouts/grid/../flex/../../../core/lv_obj_style_gen.h **** 
  73:Drivers/lvgl/src/extra/layouts/grid/../flex/../../../core/lv_obj_style_gen.h **** static inline lv_coord_t lv_obj_get_style_translate_y(const struct _lv_obj_t * obj, uint32_t part)
  74:Drivers/lvgl/src/extra/layouts/grid/../flex/../../../core/lv_obj_style_gen.h **** {
  75:Drivers/lvgl/src/extra/layouts/grid/../flex/../../../core/lv_obj_style_gen.h ****     lv_style_value_t v = lv_obj_get_style_prop(obj, part, LV_STYLE_TRANSLATE_Y);
  76:Drivers/lvgl/src/extra/layouts/grid/../flex/../../../core/lv_obj_style_gen.h ****     return (lv_coord_t)v.num;
  77:Drivers/lvgl/src/extra/layouts/grid/../flex/../../../core/lv_obj_style_gen.h **** }
  78:Drivers/lvgl/src/extra/layouts/grid/../flex/../../../core/lv_obj_style_gen.h **** 
  79:Drivers/lvgl/src/extra/layouts/grid/../flex/../../../core/lv_obj_style_gen.h **** static inline lv_coord_t lv_obj_get_style_transform_zoom(const struct _lv_obj_t * obj, uint32_t par
  80:Drivers/lvgl/src/extra/layouts/grid/../flex/../../../core/lv_obj_style_gen.h **** {
  81:Drivers/lvgl/src/extra/layouts/grid/../flex/../../../core/lv_obj_style_gen.h ****     lv_style_value_t v = lv_obj_get_style_prop(obj, part, LV_STYLE_TRANSFORM_ZOOM);
  82:Drivers/lvgl/src/extra/layouts/grid/../flex/../../../core/lv_obj_style_gen.h ****     return (lv_coord_t)v.num;
  83:Drivers/lvgl/src/extra/layouts/grid/../flex/../../../core/lv_obj_style_gen.h **** }
  84:Drivers/lvgl/src/extra/layouts/grid/../flex/../../../core/lv_obj_style_gen.h **** 
  85:Drivers/lvgl/src/extra/layouts/grid/../flex/../../../core/lv_obj_style_gen.h **** static inline lv_coord_t lv_obj_get_style_transform_angle(const struct _lv_obj_t * obj, uint32_t pa
  86:Drivers/lvgl/src/extra/layouts/grid/../flex/../../../core/lv_obj_style_gen.h **** {
  87:Drivers/lvgl/src/extra/layouts/grid/../flex/../../../core/lv_obj_style_gen.h ****     lv_style_value_t v = lv_obj_get_style_prop(obj, part, LV_STYLE_TRANSFORM_ANGLE);
  88:Drivers/lvgl/src/extra/layouts/grid/../flex/../../../core/lv_obj_style_gen.h ****     return (lv_coord_t)v.num;
  89:Drivers/lvgl/src/extra/layouts/grid/../flex/../../../core/lv_obj_style_gen.h **** }
  90:Drivers/lvgl/src/extra/layouts/grid/../flex/../../../core/lv_obj_style_gen.h **** 
  91:Drivers/lvgl/src/extra/layouts/grid/../flex/../../../core/lv_obj_style_gen.h **** static inline lv_coord_t lv_obj_get_style_transform_pivot_x(const struct _lv_obj_t * obj, uint32_t 
  92:Drivers/lvgl/src/extra/layouts/grid/../flex/../../../core/lv_obj_style_gen.h **** {
ARM GAS  /var/folders/lp/x54gwt890xv47sdkqj1k04q40000gn/T//cc3Qko3C.s 			page 43


  93:Drivers/lvgl/src/extra/layouts/grid/../flex/../../../core/lv_obj_style_gen.h ****     lv_style_value_t v = lv_obj_get_style_prop(obj, part, LV_STYLE_TRANSFORM_PIVOT_X);
  94:Drivers/lvgl/src/extra/layouts/grid/../flex/../../../core/lv_obj_style_gen.h ****     return (lv_coord_t)v.num;
  95:Drivers/lvgl/src/extra/layouts/grid/../flex/../../../core/lv_obj_style_gen.h **** }
  96:Drivers/lvgl/src/extra/layouts/grid/../flex/../../../core/lv_obj_style_gen.h **** 
  97:Drivers/lvgl/src/extra/layouts/grid/../flex/../../../core/lv_obj_style_gen.h **** static inline lv_coord_t lv_obj_get_style_transform_pivot_y(const struct _lv_obj_t * obj, uint32_t 
  98:Drivers/lvgl/src/extra/layouts/grid/../flex/../../../core/lv_obj_style_gen.h **** {
  99:Drivers/lvgl/src/extra/layouts/grid/../flex/../../../core/lv_obj_style_gen.h ****     lv_style_value_t v = lv_obj_get_style_prop(obj, part, LV_STYLE_TRANSFORM_PIVOT_Y);
 100:Drivers/lvgl/src/extra/layouts/grid/../flex/../../../core/lv_obj_style_gen.h ****     return (lv_coord_t)v.num;
 101:Drivers/lvgl/src/extra/layouts/grid/../flex/../../../core/lv_obj_style_gen.h **** }
 102:Drivers/lvgl/src/extra/layouts/grid/../flex/../../../core/lv_obj_style_gen.h **** 
 103:Drivers/lvgl/src/extra/layouts/grid/../flex/../../../core/lv_obj_style_gen.h **** static inline lv_coord_t lv_obj_get_style_pad_top(const struct _lv_obj_t * obj, uint32_t part)
 104:Drivers/lvgl/src/extra/layouts/grid/../flex/../../../core/lv_obj_style_gen.h **** {
 105:Drivers/lvgl/src/extra/layouts/grid/../flex/../../../core/lv_obj_style_gen.h ****     lv_style_value_t v = lv_obj_get_style_prop(obj, part, LV_STYLE_PAD_TOP);
 106:Drivers/lvgl/src/extra/layouts/grid/../flex/../../../core/lv_obj_style_gen.h ****     return (lv_coord_t)v.num;
 107:Drivers/lvgl/src/extra/layouts/grid/../flex/../../../core/lv_obj_style_gen.h **** }
 108:Drivers/lvgl/src/extra/layouts/grid/../flex/../../../core/lv_obj_style_gen.h **** 
 109:Drivers/lvgl/src/extra/layouts/grid/../flex/../../../core/lv_obj_style_gen.h **** static inline lv_coord_t lv_obj_get_style_pad_bottom(const struct _lv_obj_t * obj, uint32_t part)
 110:Drivers/lvgl/src/extra/layouts/grid/../flex/../../../core/lv_obj_style_gen.h **** {
 111:Drivers/lvgl/src/extra/layouts/grid/../flex/../../../core/lv_obj_style_gen.h ****     lv_style_value_t v = lv_obj_get_style_prop(obj, part, LV_STYLE_PAD_BOTTOM);
 112:Drivers/lvgl/src/extra/layouts/grid/../flex/../../../core/lv_obj_style_gen.h ****     return (lv_coord_t)v.num;
 113:Drivers/lvgl/src/extra/layouts/grid/../flex/../../../core/lv_obj_style_gen.h **** }
 114:Drivers/lvgl/src/extra/layouts/grid/../flex/../../../core/lv_obj_style_gen.h **** 
 115:Drivers/lvgl/src/extra/layouts/grid/../flex/../../../core/lv_obj_style_gen.h **** static inline lv_coord_t lv_obj_get_style_pad_left(const struct _lv_obj_t * obj, uint32_t part)
 116:Drivers/lvgl/src/extra/layouts/grid/../flex/../../../core/lv_obj_style_gen.h **** {
 117:Drivers/lvgl/src/extra/layouts/grid/../flex/../../../core/lv_obj_style_gen.h ****     lv_style_value_t v = lv_obj_get_style_prop(obj, part, LV_STYLE_PAD_LEFT);
 118:Drivers/lvgl/src/extra/layouts/grid/../flex/../../../core/lv_obj_style_gen.h ****     return (lv_coord_t)v.num;
 119:Drivers/lvgl/src/extra/layouts/grid/../flex/../../../core/lv_obj_style_gen.h **** }
 120:Drivers/lvgl/src/extra/layouts/grid/../flex/../../../core/lv_obj_style_gen.h **** 
 121:Drivers/lvgl/src/extra/layouts/grid/../flex/../../../core/lv_obj_style_gen.h **** static inline lv_coord_t lv_obj_get_style_pad_right(const struct _lv_obj_t * obj, uint32_t part)
 122:Drivers/lvgl/src/extra/layouts/grid/../flex/../../../core/lv_obj_style_gen.h **** {
 123:Drivers/lvgl/src/extra/layouts/grid/../flex/../../../core/lv_obj_style_gen.h ****     lv_style_value_t v = lv_obj_get_style_prop(obj, part, LV_STYLE_PAD_RIGHT);
 124:Drivers/lvgl/src/extra/layouts/grid/../flex/../../../core/lv_obj_style_gen.h ****     return (lv_coord_t)v.num;
 125:Drivers/lvgl/src/extra/layouts/grid/../flex/../../../core/lv_obj_style_gen.h **** }
 126:Drivers/lvgl/src/extra/layouts/grid/../flex/../../../core/lv_obj_style_gen.h **** 
 127:Drivers/lvgl/src/extra/layouts/grid/../flex/../../../core/lv_obj_style_gen.h **** static inline lv_coord_t lv_obj_get_style_pad_row(const struct _lv_obj_t * obj, uint32_t part)
 1117              		.loc 3 127 26 view .LVU317
 1118              	.LBB101:
 128:Drivers/lvgl/src/extra/layouts/grid/../flex/../../../core/lv_obj_style_gen.h **** {
 129:Drivers/lvgl/src/extra/layouts/grid/../flex/../../../core/lv_obj_style_gen.h ****     lv_style_value_t v = lv_obj_get_style_prop(obj, part, LV_STYLE_PAD_ROW);
 1119              		.loc 3 129 5 view .LVU318
 1120              		.loc 3 129 26 is_stmt 0 view .LVU319
 1121 00ea 1422     		movs	r2, #20
 1122              	.LVL118:
 1123              		.loc 3 129 26 view .LVU320
 1124 00ec 0021     		movs	r1, #0
 1125 00ee 4046     		mov	r0, r8
 1126 00f0 FFF7FEFF 		bl	lv_obj_get_style_prop
 1127              	.LVL119:
 130:Drivers/lvgl/src/extra/layouts/grid/../flex/../../../core/lv_obj_style_gen.h ****     return (lv_coord_t)v.num;
 1128              		.loc 3 130 5 is_stmt 1 view .LVU321
 1129              		.loc 3 130 12 is_stmt 0 view .LVU322
 1130 00f4 0FFA80F9 		sxth	r9, r0
 1131              	.LVL120:
 1132              		.loc 3 130 12 view .LVU323
 1133              	.LBE101:
 1134              	.LBE100:
 553:Drivers/lvgl/src/extra/layouts/grid/lv_grid.c ****     lv_coord_t free_h = cont_h - grid_h;
ARM GAS  /var/folders/lp/x54gwt890xv47sdkqj1k04q40000gn/T//cc3Qko3C.s 			page 44


 1135              		.loc 1 553 5 is_stmt 1 view .LVU324
 553:Drivers/lvgl/src/extra/layouts/grid/lv_grid.c ****     lv_coord_t free_h = cont_h - grid_h;
 1136              		.loc 1 553 25 is_stmt 0 view .LVU325
 1137 00f8 4046     		mov	r0, r8
 1138 00fa FFF7FEFF 		bl	lv_obj_get_content_height
 1139              	.LVL121:
 553:Drivers/lvgl/src/extra/layouts/grid/lv_grid.c ****     lv_coord_t free_h = cont_h - grid_h;
 1140              		.loc 1 553 25 discriminator 1 view .LVU326
 1141 00fe 81B2     		uxth	r1, r0
 553:Drivers/lvgl/src/extra/layouts/grid/lv_grid.c ****     lv_coord_t free_h = cont_h - grid_h;
 1142              		.loc 1 553 71 discriminator 1 view .LVU327
 1143 0100 6369     		ldr	r3, [r4, #20]
 553:Drivers/lvgl/src/extra/layouts/grid/lv_grid.c ****     lv_coord_t free_h = cont_h - grid_h;
 1144              		.loc 1 553 81 discriminator 1 view .LVU328
 1145 0102 013B     		subs	r3, r3, #1
 553:Drivers/lvgl/src/extra/layouts/grid/lv_grid.c ****     lv_coord_t free_h = cont_h - grid_h;
 1146              		.loc 1 553 57 discriminator 1 view .LVU329
 1147 0104 19FB03F9 		smulbb	r9, r9, r3
 1148              	.LVL122:
 553:Drivers/lvgl/src/extra/layouts/grid/lv_grid.c ****     lv_coord_t free_h = cont_h - grid_h;
 1149              		.loc 1 553 57 discriminator 1 view .LVU330
 1150 0108 A1EB0901 		sub	r1, r1, r9
 1151 010c 89B2     		uxth	r1, r1
 1152              	.LVL123:
 554:Drivers/lvgl/src/extra/layouts/grid/lv_grid.c ****     if(free_h < 0) free_h = 0;
 1153              		.loc 1 554 5 is_stmt 1 view .LVU331
 554:Drivers/lvgl/src/extra/layouts/grid/lv_grid.c ****     if(free_h < 0) free_h = 0;
 1154              		.loc 1 554 32 is_stmt 0 view .LVU332
 1155 010e 891B     		subs	r1, r1, r6
 1156              	.LVL124:
 554:Drivers/lvgl/src/extra/layouts/grid/lv_grid.c ****     if(free_h < 0) free_h = 0;
 1157              		.loc 1 554 16 view .LVU333
 1158 0110 09B2     		sxth	r1, r1
 1159              	.LVL125:
 555:Drivers/lvgl/src/extra/layouts/grid/lv_grid.c **** 
 1160              		.loc 1 555 5 is_stmt 1 view .LVU334
 555:Drivers/lvgl/src/extra/layouts/grid/lv_grid.c **** 
 1161              		.loc 1 555 7 is_stmt 0 view .LVU335
 1162 0112 0029     		cmp	r1, #0
 1163 0114 04DB     		blt	.L92
 1164              	.LVL126:
 1165              	.L80:
 557:Drivers/lvgl/src/extra/layouts/grid/lv_grid.c ****     int32_t last_fr_x = 0;
 1166              		.loc 1 557 5 is_stmt 1 view .LVU336
 558:Drivers/lvgl/src/extra/layouts/grid/lv_grid.c ****     for(i = 0; i < c->row_num; i++) {
 1167              		.loc 1 558 5 view .LVU337
 559:Drivers/lvgl/src/extra/layouts/grid/lv_grid.c ****         lv_coord_t x = row_templ[i];
 1168              		.loc 1 559 5 view .LVU338
 558:Drivers/lvgl/src/extra/layouts/grid/lv_grid.c ****     for(i = 0; i < c->row_num; i++) {
 1169              		.loc 1 558 13 is_stmt 0 view .LVU339
 1170 0116 0026     		movs	r6, #0
 1171              	.LVL127:
 557:Drivers/lvgl/src/extra/layouts/grid/lv_grid.c ****     int32_t last_fr_x = 0;
 1172              		.loc 1 557 13 view .LVU340
 1173 0118 4FF0FF3C 		mov	ip, #-1
 559:Drivers/lvgl/src/extra/layouts/grid/lv_grid.c ****         lv_coord_t x = row_templ[i];
 1174              		.loc 1 559 11 view .LVU341
ARM GAS  /var/folders/lp/x54gwt890xv47sdkqj1k04q40000gn/T//cc3Qko3C.s 			page 45


 1175 011c 3346     		mov	r3, r6
 559:Drivers/lvgl/src/extra/layouts/grid/lv_grid.c ****         lv_coord_t x = row_templ[i];
 1176              		.loc 1 559 5 view .LVU342
 1177 011e 02E0     		b	.L81
 1178              	.LVL128:
 1179              	.L92:
 555:Drivers/lvgl/src/extra/layouts/grid/lv_grid.c **** 
 1180              		.loc 1 555 27 discriminator 1 view .LVU343
 1181 0120 0021     		movs	r1, #0
 1182              	.LVL129:
 555:Drivers/lvgl/src/extra/layouts/grid/lv_grid.c **** 
 1183              		.loc 1 555 27 discriminator 1 view .LVU344
 1184 0122 F8E7     		b	.L80
 1185              	.LVL130:
 1186              	.L82:
 559:Drivers/lvgl/src/extra/layouts/grid/lv_grid.c ****         lv_coord_t x = row_templ[i];
 1187              		.loc 1 559 33 is_stmt 1 discriminator 2 view .LVU345
 1188 0124 0133     		adds	r3, r3, #1
 1189              	.LVL131:
 1190              	.L81:
 559:Drivers/lvgl/src/extra/layouts/grid/lv_grid.c ****         lv_coord_t x = row_templ[i];
 1191              		.loc 1 559 18 discriminator 1 view .LVU346
 559:Drivers/lvgl/src/extra/layouts/grid/lv_grid.c ****         lv_coord_t x = row_templ[i];
 1192              		.loc 1 559 21 is_stmt 0 discriminator 1 view .LVU347
 1193 0126 6269     		ldr	r2, [r4, #20]
 559:Drivers/lvgl/src/extra/layouts/grid/lv_grid.c ****         lv_coord_t x = row_templ[i];
 1194              		.loc 1 559 18 discriminator 1 view .LVU348
 1195 0128 9A42     		cmp	r2, r3
 1196 012a 12D9     		bls	.L93
 1197              	.LBB102:
 560:Drivers/lvgl/src/extra/layouts/grid/lv_grid.c ****         if(IS_FR(x)) {
 1198              		.loc 1 560 9 is_stmt 1 view .LVU349
 560:Drivers/lvgl/src/extra/layouts/grid/lv_grid.c ****         if(IS_FR(x)) {
 1199              		.loc 1 560 20 is_stmt 0 view .LVU350
 1200 012c 37F91320 		ldrsh	r2, [r7, r3, lsl #1]
 1201              	.LVL132:
 561:Drivers/lvgl/src/extra/layouts/grid/lv_grid.c ****             lv_coord_t f = GET_FR(x);
 1202              		.loc 1 561 9 is_stmt 1 view .LVU351
 561:Drivers/lvgl/src/extra/layouts/grid/lv_grid.c ****             lv_coord_t f = GET_FR(x);
 1203              		.loc 1 561 11 is_stmt 0 view .LVU352
 1204 0130 41F69A70 		movw	r0, #8090
 1205 0134 8242     		cmp	r2, r0
 1206 0136 F5DD     		ble	.L82
 1207              	.LBB103:
 562:Drivers/lvgl/src/extra/layouts/grid/lv_grid.c ****             c->h[i] = (free_h * f) / row_fr_cnt;
 1208              		.loc 1 562 13 is_stmt 1 view .LVU353
 562:Drivers/lvgl/src/extra/layouts/grid/lv_grid.c ****             c->h[i] = (free_h * f) / row_fr_cnt;
 1209              		.loc 1 562 28 is_stmt 0 view .LVU354
 1210 0138 A2F5FC52 		sub	r2, r2, #8064
 1211              	.LVL133:
 562:Drivers/lvgl/src/extra/layouts/grid/lv_grid.c ****             c->h[i] = (free_h * f) / row_fr_cnt;
 1212              		.loc 1 562 28 view .LVU355
 1213 013c 1B3A     		subs	r2, r2, #27
 1214              	.LVL134:
 562:Drivers/lvgl/src/extra/layouts/grid/lv_grid.c ****             c->h[i] = (free_h * f) / row_fr_cnt;
 1215              		.loc 1 562 24 view .LVU356
 1216 013e 16B2     		sxth	r6, r2
ARM GAS  /var/folders/lp/x54gwt890xv47sdkqj1k04q40000gn/T//cc3Qko3C.s 			page 46


 1217              	.LVL135:
 563:Drivers/lvgl/src/extra/layouts/grid/lv_grid.c ****             last_fr_i = i;
 1218              		.loc 1 563 13 is_stmt 1 view .LVU357
 563:Drivers/lvgl/src/extra/layouts/grid/lv_grid.c ****             last_fr_i = i;
 1219              		.loc 1 563 31 is_stmt 0 view .LVU358
 1220 0140 06FB01F2 		mul	r2, r6, r1
 1221              	.LVL136:
 563:Drivers/lvgl/src/extra/layouts/grid/lv_grid.c ****             last_fr_i = i;
 1222              		.loc 1 563 36 view .LVU359
 1223 0144 B2FBF5F2 		udiv	r2, r2, r5
 563:Drivers/lvgl/src/extra/layouts/grid/lv_grid.c ****             last_fr_i = i;
 1224              		.loc 1 563 14 view .LVU360
 1225 0148 E068     		ldr	r0, [r4, #12]
 563:Drivers/lvgl/src/extra/layouts/grid/lv_grid.c ****             last_fr_i = i;
 1226              		.loc 1 563 21 view .LVU361
 1227 014a 20F81320 		strh	r2, [r0, r3, lsl #1]	@ movhi
 1228              	.LVL137:
 564:Drivers/lvgl/src/extra/layouts/grid/lv_grid.c ****             last_fr_x = f;
 1229              		.loc 1 564 13 is_stmt 1 view .LVU362
 564:Drivers/lvgl/src/extra/layouts/grid/lv_grid.c ****             last_fr_x = f;
 1230              		.loc 1 564 23 is_stmt 0 view .LVU363
 1231 014e 9C46     		mov	ip, r3
 1232              	.LVL138:
 565:Drivers/lvgl/src/extra/layouts/grid/lv_grid.c ****         }
 1233              		.loc 1 565 13 is_stmt 1 view .LVU364
 565:Drivers/lvgl/src/extra/layouts/grid/lv_grid.c ****         }
 1234              		.loc 1 565 13 is_stmt 0 view .LVU365
 1235 0150 E8E7     		b	.L82
 1236              	.LVL139:
 1237              	.L93:
 565:Drivers/lvgl/src/extra/layouts/grid/lv_grid.c ****         }
 1238              		.loc 1 565 13 view .LVU366
 1239              	.LBE103:
 1240              	.LBE102:
 570:Drivers/lvgl/src/extra/layouts/grid/lv_grid.c ****         c->h[last_fr_i] = free_h - ((free_h * (row_fr_cnt - last_fr_x)) / row_fr_cnt);
 1241              		.loc 1 570 5 is_stmt 1 view .LVU367
 570:Drivers/lvgl/src/extra/layouts/grid/lv_grid.c ****         c->h[last_fr_i] = free_h - ((free_h * (row_fr_cnt - last_fr_x)) / row_fr_cnt);
 1242              		.loc 1 570 7 is_stmt 0 view .LVU368
 1243 0152 BCF1000F 		cmp	ip, #0
 1244 0156 08DB     		blt	.L67
 571:Drivers/lvgl/src/extra/layouts/grid/lv_grid.c ****     }
 1245              		.loc 1 571 9 is_stmt 1 view .LVU369
 571:Drivers/lvgl/src/extra/layouts/grid/lv_grid.c ****     }
 1246              		.loc 1 571 59 is_stmt 0 view .LVU370
 1247 0158 AB1B     		subs	r3, r5, r6
 1248              	.LVL140:
 571:Drivers/lvgl/src/extra/layouts/grid/lv_grid.c ****     }
 1249              		.loc 1 571 45 view .LVU371
 1250 015a 01FB03F3 		mul	r3, r1, r3
 571:Drivers/lvgl/src/extra/layouts/grid/lv_grid.c ****     }
 1251              		.loc 1 571 73 view .LVU372
 1252 015e B3FBF5F3 		udiv	r3, r3, r5
 571:Drivers/lvgl/src/extra/layouts/grid/lv_grid.c ****     }
 1253              		.loc 1 571 10 view .LVU373
 1254 0162 E268     		ldr	r2, [r4, #12]
 571:Drivers/lvgl/src/extra/layouts/grid/lv_grid.c ****     }
 1255              		.loc 1 571 34 view .LVU374
ARM GAS  /var/folders/lp/x54gwt890xv47sdkqj1k04q40000gn/T//cc3Qko3C.s 			page 47


 1256 0164 C91A     		subs	r1, r1, r3
 1257              	.LVL141:
 571:Drivers/lvgl/src/extra/layouts/grid/lv_grid.c ****     }
 1258              		.loc 1 571 25 view .LVU375
 1259 0166 22F81C10 		strh	r1, [r2, ip, lsl #1]	@ movhi
 1260              	.L67:
 573:Drivers/lvgl/src/extra/layouts/grid/lv_grid.c **** 
 1261              		.loc 1 573 1 view .LVU376
 1262 016a BDE8F88F 		pop	{r3, r4, r5, r6, r7, r8, r9, r10, fp, pc}
 1263              	.LVL142:
 1264              	.L95:
 573:Drivers/lvgl/src/extra/layouts/grid/lv_grid.c **** 
 1265              		.loc 1 573 1 view .LVU377
 1266 016e 00BF     		.align	2
 1267              	.L94:
 1268 0170 01000600 		.word	393217
 1269 0174 01E0FFFF 		.word	-8191
 1270              		.cfi_endproc
 1271              	.LFE215:
 1273              		.section	.text.calc_cols,"ax",%progbits
 1274              		.align	1
 1275              		.syntax unified
 1276              		.thumb
 1277              		.thumb_func
 1279              	calc_cols:
 1280              	.LVL143:
 1281              	.LFB214:
 434:Drivers/lvgl/src/extra/layouts/grid/lv_grid.c ****     const lv_coord_t * col_templ = get_col_dsc(cont);
 1282              		.loc 1 434 1 is_stmt 1 view -0
 1283              		.cfi_startproc
 1284              		@ args = 0, pretend = 0, frame = 8
 1285              		@ frame_needed = 0, uses_anonymous_args = 0
 434:Drivers/lvgl/src/extra/layouts/grid/lv_grid.c ****     const lv_coord_t * col_templ = get_col_dsc(cont);
 1286              		.loc 1 434 1 is_stmt 0 view .LVU379
 1287 0000 2DE9F04F 		push	{r4, r5, r6, r7, r8, r9, r10, fp, lr}
 1288              		.cfi_def_cfa_offset 36
 1289              		.cfi_offset 4, -36
 1290              		.cfi_offset 5, -32
 1291              		.cfi_offset 6, -28
 1292              		.cfi_offset 7, -24
 1293              		.cfi_offset 8, -20
 1294              		.cfi_offset 9, -16
 1295              		.cfi_offset 10, -12
 1296              		.cfi_offset 11, -8
 1297              		.cfi_offset 14, -4
 1298 0004 83B0     		sub	sp, sp, #12
 1299              		.cfi_def_cfa_offset 48
 1300 0006 8146     		mov	r9, r0
 1301 0008 0C46     		mov	r4, r1
 435:Drivers/lvgl/src/extra/layouts/grid/lv_grid.c ****     lv_coord_t cont_w = lv_obj_get_content_width(cont);
 1302              		.loc 1 435 5 is_stmt 1 view .LVU380
 435:Drivers/lvgl/src/extra/layouts/grid/lv_grid.c ****     lv_coord_t cont_w = lv_obj_get_content_width(cont);
 1303              		.loc 1 435 36 is_stmt 0 view .LVU381
 1304 000a FFF7FEFF 		bl	get_col_dsc
 1305              	.LVL144:
 435:Drivers/lvgl/src/extra/layouts/grid/lv_grid.c ****     lv_coord_t cont_w = lv_obj_get_content_width(cont);
 1306              		.loc 1 435 36 view .LVU382
ARM GAS  /var/folders/lp/x54gwt890xv47sdkqj1k04q40000gn/T//cc3Qko3C.s 			page 48


 1307 000e 8046     		mov	r8, r0
 1308              	.LVL145:
 436:Drivers/lvgl/src/extra/layouts/grid/lv_grid.c **** 
 1309              		.loc 1 436 5 is_stmt 1 view .LVU383
 436:Drivers/lvgl/src/extra/layouts/grid/lv_grid.c **** 
 1310              		.loc 1 436 25 is_stmt 0 view .LVU384
 1311 0010 4846     		mov	r0, r9
 1312              	.LVL146:
 436:Drivers/lvgl/src/extra/layouts/grid/lv_grid.c **** 
 1313              		.loc 1 436 25 view .LVU385
 1314 0012 FFF7FEFF 		bl	lv_obj_get_content_width
 1315              	.LVL147:
 1316 0016 0190     		str	r0, [sp, #4]
 1317              	.LVL148:
 438:Drivers/lvgl/src/extra/layouts/grid/lv_grid.c ****     c->x = lv_mem_buf_get(sizeof(lv_coord_t) * c->col_num);
 1318              		.loc 1 438 5 is_stmt 1 view .LVU386
 438:Drivers/lvgl/src/extra/layouts/grid/lv_grid.c ****     c->x = lv_mem_buf_get(sizeof(lv_coord_t) * c->col_num);
 1319              		.loc 1 438 18 is_stmt 0 view .LVU387
 1320 0018 4046     		mov	r0, r8
 1321 001a FFF7FEFF 		bl	count_tracks
 1322              	.LVL149:
 438:Drivers/lvgl/src/extra/layouts/grid/lv_grid.c ****     c->x = lv_mem_buf_get(sizeof(lv_coord_t) * c->col_num);
 1323              		.loc 1 438 16 discriminator 1 view .LVU388
 1324 001e 2061     		str	r0, [r4, #16]
 439:Drivers/lvgl/src/extra/layouts/grid/lv_grid.c ****     c->w = lv_mem_buf_get(sizeof(lv_coord_t) * c->col_num);
 1325              		.loc 1 439 5 is_stmt 1 view .LVU389
 439:Drivers/lvgl/src/extra/layouts/grid/lv_grid.c ****     c->w = lv_mem_buf_get(sizeof(lv_coord_t) * c->col_num);
 1326              		.loc 1 439 12 is_stmt 0 view .LVU390
 1327 0020 4000     		lsls	r0, r0, #1
 1328 0022 FFF7FEFF 		bl	lv_mem_buf_get
 1329              	.LVL150:
 439:Drivers/lvgl/src/extra/layouts/grid/lv_grid.c ****     c->w = lv_mem_buf_get(sizeof(lv_coord_t) * c->col_num);
 1330              		.loc 1 439 10 discriminator 1 view .LVU391
 1331 0026 2060     		str	r0, [r4]
 440:Drivers/lvgl/src/extra/layouts/grid/lv_grid.c **** 
 1332              		.loc 1 440 5 is_stmt 1 view .LVU392
 440:Drivers/lvgl/src/extra/layouts/grid/lv_grid.c **** 
 1333              		.loc 1 440 49 is_stmt 0 view .LVU393
 1334 0028 2069     		ldr	r0, [r4, #16]
 440:Drivers/lvgl/src/extra/layouts/grid/lv_grid.c **** 
 1335              		.loc 1 440 12 view .LVU394
 1336 002a 4000     		lsls	r0, r0, #1
 1337 002c FFF7FEFF 		bl	lv_mem_buf_get
 1338              	.LVL151:
 440:Drivers/lvgl/src/extra/layouts/grid/lv_grid.c **** 
 1339              		.loc 1 440 10 discriminator 1 view .LVU395
 1340 0030 A060     		str	r0, [r4, #8]
 443:Drivers/lvgl/src/extra/layouts/grid/lv_grid.c ****     for(i = 0; i < c->col_num; i++) {
 1341              		.loc 1 443 5 is_stmt 1 view .LVU396
 444:Drivers/lvgl/src/extra/layouts/grid/lv_grid.c ****         lv_coord_t size = LV_COORD_MIN;
 1342              		.loc 1 444 5 view .LVU397
 1343              	.LVL152:
 444:Drivers/lvgl/src/extra/layouts/grid/lv_grid.c ****         lv_coord_t size = LV_COORD_MIN;
 1344              		.loc 1 444 11 is_stmt 0 view .LVU398
 1345 0032 0026     		movs	r6, #0
 444:Drivers/lvgl/src/extra/layouts/grid/lv_grid.c ****         lv_coord_t size = LV_COORD_MIN;
 1346              		.loc 1 444 5 view .LVU399
ARM GAS  /var/folders/lp/x54gwt890xv47sdkqj1k04q40000gn/T//cc3Qko3C.s 			page 49


 1347 0034 2AE0     		b	.L97
 1348              	.LVL153:
 1349              	.L100:
 1350              	.LBB104:
 1351              	.LBB105:
 449:Drivers/lvgl/src/extra/layouts/grid/lv_grid.c ****                 lv_obj_t * item = lv_obj_get_child(cont, ci);
 1352              		.loc 1 449 60 is_stmt 1 discriminator 2 view .LVU400
 1353 0036 0135     		adds	r5, r5, #1
 1354              	.LVL154:
 1355              	.L98:
 449:Drivers/lvgl/src/extra/layouts/grid/lv_grid.c ****                 lv_obj_t * item = lv_obj_get_child(cont, ci);
 1356              		.loc 1 449 28 discriminator 1 view .LVU401
 449:Drivers/lvgl/src/extra/layouts/grid/lv_grid.c ****                 lv_obj_t * item = lv_obj_get_child(cont, ci);
 1357              		.loc 1 449 30 is_stmt 0 discriminator 1 view .LVU402
 1358 0038 4846     		mov	r0, r9
 1359 003a FFF7FEFF 		bl	lv_obj_get_child_cnt
 1360              	.LVL155:
 449:Drivers/lvgl/src/extra/layouts/grid/lv_grid.c ****                 lv_obj_t * item = lv_obj_get_child(cont, ci);
 1361              		.loc 1 449 28 discriminator 1 view .LVU403
 1362 003e A842     		cmp	r0, r5
 1363 0040 1DD9     		bls	.L117
 1364              	.LBB106:
 450:Drivers/lvgl/src/extra/layouts/grid/lv_grid.c ****                 if(lv_obj_has_flag_any(item, LV_OBJ_FLAG_IGNORE_LAYOUT | LV_OBJ_FLAG_HIDDEN | LV_OB
 1365              		.loc 1 450 17 is_stmt 1 view .LVU404
 450:Drivers/lvgl/src/extra/layouts/grid/lv_grid.c ****                 if(lv_obj_has_flag_any(item, LV_OBJ_FLAG_IGNORE_LAYOUT | LV_OBJ_FLAG_HIDDEN | LV_OB
 1366              		.loc 1 450 35 is_stmt 0 view .LVU405
 1367 0042 2946     		mov	r1, r5
 1368 0044 4846     		mov	r0, r9
 1369 0046 FFF7FEFF 		bl	lv_obj_get_child
 1370              	.LVL156:
 1371 004a 0746     		mov	r7, r0
 1372              	.LVL157:
 451:Drivers/lvgl/src/extra/layouts/grid/lv_grid.c ****                 uint32_t col_span = get_col_span(item);
 1373              		.loc 1 451 17 is_stmt 1 view .LVU406
 451:Drivers/lvgl/src/extra/layouts/grid/lv_grid.c ****                 uint32_t col_span = get_col_span(item);
 1374              		.loc 1 451 20 is_stmt 0 view .LVU407
 1375 004c 4849     		ldr	r1, .L123
 1376 004e FFF7FEFF 		bl	lv_obj_has_flag_any
 1377              	.LVL158:
 451:Drivers/lvgl/src/extra/layouts/grid/lv_grid.c ****                 uint32_t col_span = get_col_span(item);
 1378              		.loc 1 451 19 discriminator 1 view .LVU408
 1379 0052 0028     		cmp	r0, #0
 1380 0054 EFD1     		bne	.L100
 452:Drivers/lvgl/src/extra/layouts/grid/lv_grid.c ****                 if(col_span != 1) continue;
 1381              		.loc 1 452 17 is_stmt 1 view .LVU409
 452:Drivers/lvgl/src/extra/layouts/grid/lv_grid.c ****                 if(col_span != 1) continue;
 1382              		.loc 1 452 37 is_stmt 0 view .LVU410
 1383 0056 3846     		mov	r0, r7
 1384 0058 FFF7FEFF 		bl	get_col_span
 1385              	.LVL159:
 453:Drivers/lvgl/src/extra/layouts/grid/lv_grid.c **** 
 1386              		.loc 1 453 17 is_stmt 1 view .LVU411
 453:Drivers/lvgl/src/extra/layouts/grid/lv_grid.c **** 
 1387              		.loc 1 453 19 is_stmt 0 view .LVU412
 1388 005c 0128     		cmp	r0, #1
 1389 005e EAD1     		bne	.L100
 455:Drivers/lvgl/src/extra/layouts/grid/lv_grid.c ****                 if(col_pos != i) continue;
ARM GAS  /var/folders/lp/x54gwt890xv47sdkqj1k04q40000gn/T//cc3Qko3C.s 			page 50


 1390              		.loc 1 455 17 is_stmt 1 view .LVU413
 455:Drivers/lvgl/src/extra/layouts/grid/lv_grid.c ****                 if(col_pos != i) continue;
 1391              		.loc 1 455 36 is_stmt 0 view .LVU414
 1392 0060 3846     		mov	r0, r7
 1393              	.LVL160:
 455:Drivers/lvgl/src/extra/layouts/grid/lv_grid.c ****                 if(col_pos != i) continue;
 1394              		.loc 1 455 36 view .LVU415
 1395 0062 FFF7FEFF 		bl	get_col_pos
 1396              	.LVL161:
 456:Drivers/lvgl/src/extra/layouts/grid/lv_grid.c **** 
 1397              		.loc 1 456 17 is_stmt 1 view .LVU416
 456:Drivers/lvgl/src/extra/layouts/grid/lv_grid.c **** 
 1398              		.loc 1 456 19 is_stmt 0 view .LVU417
 1399 0066 8642     		cmp	r6, r0
 1400 0068 E5D1     		bne	.L100
 458:Drivers/lvgl/src/extra/layouts/grid/lv_grid.c ****             }
 1401              		.loc 1 458 17 is_stmt 1 view .LVU418
 458:Drivers/lvgl/src/extra/layouts/grid/lv_grid.c ****             }
 1402              		.loc 1 458 24 is_stmt 0 view .LVU419
 1403 006a 3846     		mov	r0, r7
 1404              	.LVL162:
 458:Drivers/lvgl/src/extra/layouts/grid/lv_grid.c ****             }
 1405              		.loc 1 458 24 view .LVU420
 1406 006c FFF7FEFF 		bl	lv_obj_get_width
 1407              	.LVL163:
 458:Drivers/lvgl/src/extra/layouts/grid/lv_grid.c ****             }
 1408              		.loc 1 458 22 discriminator 1 view .LVU421
 1409 0070 5845     		cmp	r0, fp
 1410 0072 E0DB     		blt	.L100
 458:Drivers/lvgl/src/extra/layouts/grid/lv_grid.c ****             }
 1411              		.loc 1 458 24 discriminator 1 view .LVU422
 1412 0074 3846     		mov	r0, r7
 1413 0076 FFF7FEFF 		bl	lv_obj_get_width
 1414              	.LVL164:
 1415 007a 8346     		mov	fp, r0
 1416              	.LVL165:
 458:Drivers/lvgl/src/extra/layouts/grid/lv_grid.c ****             }
 1417              		.loc 1 458 24 discriminator 1 view .LVU423
 1418 007c DBE7     		b	.L100
 1419              	.LVL166:
 1420              	.L117:
 458:Drivers/lvgl/src/extra/layouts/grid/lv_grid.c ****             }
 1421              		.loc 1 458 24 discriminator 1 view .LVU424
 1422              	.LBE106:
 460:Drivers/lvgl/src/extra/layouts/grid/lv_grid.c ****             else c->w[i] = 0;
 1423              		.loc 1 460 13 is_stmt 1 view .LVU425
 460:Drivers/lvgl/src/extra/layouts/grid/lv_grid.c ****             else c->w[i] = 0;
 1424              		.loc 1 460 15 is_stmt 0 view .LVU426
 1425 007e BBF1000F 		cmp	fp, #0
 1426 0082 12DB     		blt	.L102
 460:Drivers/lvgl/src/extra/layouts/grid/lv_grid.c ****             else c->w[i] = 0;
 1427              		.loc 1 460 27 is_stmt 1 discriminator 1 view .LVU427
 460:Drivers/lvgl/src/extra/layouts/grid/lv_grid.c ****             else c->w[i] = 0;
 1428              		.loc 1 460 28 is_stmt 0 discriminator 1 view .LVU428
 1429 0084 A368     		ldr	r3, [r4, #8]
 460:Drivers/lvgl/src/extra/layouts/grid/lv_grid.c ****             else c->w[i] = 0;
 1430              		.loc 1 460 35 discriminator 1 view .LVU429
ARM GAS  /var/folders/lp/x54gwt890xv47sdkqj1k04q40000gn/T//cc3Qko3C.s 			page 51


 1431 0086 23F80AB0 		strh	fp, [r3, r10]	@ movhi
 1432              	.LVL167:
 1433              	.L99:
 460:Drivers/lvgl/src/extra/layouts/grid/lv_grid.c ****             else c->w[i] = 0;
 1434              		.loc 1 460 35 discriminator 1 view .LVU430
 1435              	.LBE105:
 1436              	.LBE104:
 444:Drivers/lvgl/src/extra/layouts/grid/lv_grid.c ****         lv_coord_t size = LV_COORD_MIN;
 1437              		.loc 1 444 33 is_stmt 1 discriminator 2 view .LVU431
 1438 008a 0136     		adds	r6, r6, #1
 1439              	.LVL168:
 1440              	.L97:
 444:Drivers/lvgl/src/extra/layouts/grid/lv_grid.c ****         lv_coord_t size = LV_COORD_MIN;
 1441              		.loc 1 444 18 discriminator 1 view .LVU432
 444:Drivers/lvgl/src/extra/layouts/grid/lv_grid.c ****         lv_coord_t size = LV_COORD_MIN;
 1442              		.loc 1 444 21 is_stmt 0 discriminator 1 view .LVU433
 1443 008c 2369     		ldr	r3, [r4, #16]
 444:Drivers/lvgl/src/extra/layouts/grid/lv_grid.c ****         lv_coord_t size = LV_COORD_MIN;
 1444              		.loc 1 444 18 discriminator 1 view .LVU434
 1445 008e B342     		cmp	r3, r6
 1446 0090 10D9     		bls	.L118
 1447              	.LBB109:
 445:Drivers/lvgl/src/extra/layouts/grid/lv_grid.c ****         if(IS_CONTENT(col_templ[i])) {
 1448              		.loc 1 445 9 is_stmt 1 view .LVU435
 1449              	.LVL169:
 446:Drivers/lvgl/src/extra/layouts/grid/lv_grid.c ****             /*Check the size of children of this cell*/
 1450              		.loc 1 446 9 view .LVU436
 446:Drivers/lvgl/src/extra/layouts/grid/lv_grid.c ****             /*Check the size of children of this cell*/
 1451              		.loc 1 446 12 is_stmt 0 view .LVU437
 1452 0092 4FEA460A 		lsl	r10, r6, #1
 1453 0096 38F91620 		ldrsh	r2, [r8, r6, lsl #1]
 446:Drivers/lvgl/src/extra/layouts/grid/lv_grid.c ****             /*Check the size of children of this cell*/
 1454              		.loc 1 446 11 view .LVU438
 1455 009a 41F69A73 		movw	r3, #8090
 1456 009e 9A42     		cmp	r2, r3
 1457 00a0 F3D1     		bne	.L99
 1458              	.LBB107:
 449:Drivers/lvgl/src/extra/layouts/grid/lv_grid.c ****                 lv_obj_t * item = lv_obj_get_child(cont, ci);
 1459              		.loc 1 449 20 view .LVU439
 1460 00a2 0025     		movs	r5, #0
 1461              	.LBE107:
 445:Drivers/lvgl/src/extra/layouts/grid/lv_grid.c ****         if(IS_CONTENT(col_templ[i])) {
 1462              		.loc 1 445 20 view .LVU440
 1463 00a4 DFF8CCB0 		ldr	fp, .L123+4
 1464 00a8 C6E7     		b	.L98
 1465              	.LVL170:
 1466              	.L102:
 1467              	.LBB108:
 461:Drivers/lvgl/src/extra/layouts/grid/lv_grid.c ****         }
 1468              		.loc 1 461 18 is_stmt 1 view .LVU441
 461:Drivers/lvgl/src/extra/layouts/grid/lv_grid.c ****         }
 1469              		.loc 1 461 19 is_stmt 0 view .LVU442
 1470 00aa A368     		ldr	r3, [r4, #8]
 461:Drivers/lvgl/src/extra/layouts/grid/lv_grid.c ****         }
 1471              		.loc 1 461 26 view .LVU443
 1472 00ac 0022     		movs	r2, #0
 1473 00ae 23F80A20 		strh	r2, [r3, r10]	@ movhi
ARM GAS  /var/folders/lp/x54gwt890xv47sdkqj1k04q40000gn/T//cc3Qko3C.s 			page 52


 1474 00b2 EAE7     		b	.L99
 1475              	.LVL171:
 1476              	.L118:
 461:Drivers/lvgl/src/extra/layouts/grid/lv_grid.c ****         }
 1477              		.loc 1 461 26 view .LVU444
 1478              	.LBE108:
 1479              	.LBE109:
 466:Drivers/lvgl/src/extra/layouts/grid/lv_grid.c **** 
 1480              		.loc 1 466 16 view .LVU445
 1481 00b4 0026     		movs	r6, #0
 1482              	.LVL172:
 465:Drivers/lvgl/src/extra/layouts/grid/lv_grid.c ****     lv_coord_t grid_w = 0;
 1483              		.loc 1 465 14 view .LVU446
 1484 00b6 3546     		mov	r5, r6
 468:Drivers/lvgl/src/extra/layouts/grid/lv_grid.c ****         lv_coord_t x = col_templ[i];
 1485              		.loc 1 468 11 view .LVU447
 1486 00b8 3246     		mov	r2, r6
 1487 00ba 08E0     		b	.L104
 1488              	.LVL173:
 1489              	.L105:
 1490              	.LBB110:
 473:Drivers/lvgl/src/extra/layouts/grid/lv_grid.c ****             grid_w += c->w[i];
 1491              		.loc 1 473 14 is_stmt 1 view .LVU448
 473:Drivers/lvgl/src/extra/layouts/grid/lv_grid.c ****             grid_w += c->w[i];
 1492              		.loc 1 473 16 is_stmt 0 view .LVU449
 1493 00bc 41F69A71 		movw	r1, #8090
 1494 00c0 8B42     		cmp	r3, r1
 1495 00c2 13D0     		beq	.L119
 477:Drivers/lvgl/src/extra/layouts/grid/lv_grid.c ****             grid_w += x;
 1496              		.loc 1 477 13 is_stmt 1 view .LVU450
 477:Drivers/lvgl/src/extra/layouts/grid/lv_grid.c ****             grid_w += x;
 1497              		.loc 1 477 14 is_stmt 0 view .LVU451
 1498 00c4 A168     		ldr	r1, [r4, #8]
 477:Drivers/lvgl/src/extra/layouts/grid/lv_grid.c ****             grid_w += x;
 1499              		.loc 1 477 21 view .LVU452
 1500 00c6 0B52     		strh	r3, [r1, r0]	@ movhi
 478:Drivers/lvgl/src/extra/layouts/grid/lv_grid.c ****         }
 1501              		.loc 1 478 13 is_stmt 1 view .LVU453
 478:Drivers/lvgl/src/extra/layouts/grid/lv_grid.c ****         }
 1502              		.loc 1 478 20 is_stmt 0 view .LVU454
 1503 00c8 3344     		add	r3, r3, r6
 1504              	.LVL174:
 478:Drivers/lvgl/src/extra/layouts/grid/lv_grid.c ****         }
 1505              		.loc 1 478 20 view .LVU455
 1506 00ca 1EB2     		sxth	r6, r3
 1507              	.LVL175:
 1508              	.L106:
 478:Drivers/lvgl/src/extra/layouts/grid/lv_grid.c ****         }
 1509              		.loc 1 478 20 view .LVU456
 1510              	.LBE110:
 468:Drivers/lvgl/src/extra/layouts/grid/lv_grid.c ****         lv_coord_t x = col_templ[i];
 1511              		.loc 1 468 33 is_stmt 1 discriminator 2 view .LVU457
 1512 00cc 0132     		adds	r2, r2, #1
 1513              	.LVL176:
 1514              	.L104:
 468:Drivers/lvgl/src/extra/layouts/grid/lv_grid.c ****         lv_coord_t x = col_templ[i];
 1515              		.loc 1 468 18 discriminator 1 view .LVU458
ARM GAS  /var/folders/lp/x54gwt890xv47sdkqj1k04q40000gn/T//cc3Qko3C.s 			page 53


 468:Drivers/lvgl/src/extra/layouts/grid/lv_grid.c ****         lv_coord_t x = col_templ[i];
 1516              		.loc 1 468 21 is_stmt 0 discriminator 1 view .LVU459
 1517 00ce 2369     		ldr	r3, [r4, #16]
 468:Drivers/lvgl/src/extra/layouts/grid/lv_grid.c ****         lv_coord_t x = col_templ[i];
 1518              		.loc 1 468 18 discriminator 1 view .LVU460
 1519 00d0 9342     		cmp	r3, r2
 1520 00d2 10D9     		bls	.L120
 1521              	.LBB111:
 469:Drivers/lvgl/src/extra/layouts/grid/lv_grid.c ****         if(IS_FR(x)) {
 1522              		.loc 1 469 9 is_stmt 1 view .LVU461
 469:Drivers/lvgl/src/extra/layouts/grid/lv_grid.c ****         if(IS_FR(x)) {
 1523              		.loc 1 469 33 is_stmt 0 view .LVU462
 1524 00d4 5000     		lsls	r0, r2, #1
 469:Drivers/lvgl/src/extra/layouts/grid/lv_grid.c ****         if(IS_FR(x)) {
 1525              		.loc 1 469 20 view .LVU463
 1526 00d6 38F91230 		ldrsh	r3, [r8, r2, lsl #1]
 1527              	.LVL177:
 470:Drivers/lvgl/src/extra/layouts/grid/lv_grid.c ****             col_fr_cnt += GET_FR(x);
 1528              		.loc 1 470 9 is_stmt 1 view .LVU464
 470:Drivers/lvgl/src/extra/layouts/grid/lv_grid.c ****             col_fr_cnt += GET_FR(x);
 1529              		.loc 1 470 11 is_stmt 0 view .LVU465
 1530 00da 41F69A71 		movw	r1, #8090
 1531 00de 8B42     		cmp	r3, r1
 1532 00e0 ECDD     		ble	.L105
 471:Drivers/lvgl/src/extra/layouts/grid/lv_grid.c ****         }
 1533              		.loc 1 471 13 is_stmt 1 view .LVU466
 471:Drivers/lvgl/src/extra/layouts/grid/lv_grid.c ****         }
 1534              		.loc 1 471 24 is_stmt 0 view .LVU467
 1535 00e2 2B44     		add	r3, r3, r5
 1536              	.LVL178:
 471:Drivers/lvgl/src/extra/layouts/grid/lv_grid.c ****         }
 1537              		.loc 1 471 24 view .LVU468
 1538 00e4 A3F5FC55 		sub	r5, r3, #8064
 1539              	.LVL179:
 471:Drivers/lvgl/src/extra/layouts/grid/lv_grid.c ****         }
 1540              		.loc 1 471 24 view .LVU469
 1541 00e8 1B3D     		subs	r5, r5, #27
 1542              	.LVL180:
 471:Drivers/lvgl/src/extra/layouts/grid/lv_grid.c ****         }
 1543              		.loc 1 471 24 view .LVU470
 1544 00ea EFE7     		b	.L106
 1545              	.LVL181:
 1546              	.L119:
 474:Drivers/lvgl/src/extra/layouts/grid/lv_grid.c ****         }
 1547              		.loc 1 474 13 is_stmt 1 view .LVU471
 474:Drivers/lvgl/src/extra/layouts/grid/lv_grid.c ****         }
 1548              		.loc 1 474 24 is_stmt 0 view .LVU472
 1549 00ec A368     		ldr	r3, [r4, #8]
 1550              	.LVL182:
 474:Drivers/lvgl/src/extra/layouts/grid/lv_grid.c ****         }
 1551              		.loc 1 474 27 view .LVU473
 1552 00ee 1B5A     		ldrh	r3, [r3, r0]
 474:Drivers/lvgl/src/extra/layouts/grid/lv_grid.c ****         }
 1553              		.loc 1 474 20 view .LVU474
 1554 00f0 3344     		add	r3, r3, r6
 1555 00f2 1EB2     		sxth	r6, r3
 1556              	.LVL183:
ARM GAS  /var/folders/lp/x54gwt890xv47sdkqj1k04q40000gn/T//cc3Qko3C.s 			page 54


 474:Drivers/lvgl/src/extra/layouts/grid/lv_grid.c ****         }
 1557              		.loc 1 474 20 view .LVU475
 1558 00f4 EAE7     		b	.L106
 1559              	.LVL184:
 1560              	.L120:
 474:Drivers/lvgl/src/extra/layouts/grid/lv_grid.c ****         }
 1561              		.loc 1 474 20 view .LVU476
 1562              	.LBE111:
 482:Drivers/lvgl/src/extra/layouts/grid/lv_grid.c ****     cont_w -= col_gap * (c->col_num - 1);
 1563              		.loc 1 482 5 is_stmt 1 view .LVU477
 1564              	.LBB112:
 1565              	.LBI112:
 131:Drivers/lvgl/src/extra/layouts/grid/../flex/../../../core/lv_obj_style_gen.h **** }
 132:Drivers/lvgl/src/extra/layouts/grid/../flex/../../../core/lv_obj_style_gen.h **** 
 133:Drivers/lvgl/src/extra/layouts/grid/../flex/../../../core/lv_obj_style_gen.h **** static inline lv_coord_t lv_obj_get_style_pad_column(const struct _lv_obj_t * obj, uint32_t part)
 1566              		.loc 3 133 26 view .LVU478
 1567              	.LBB113:
 134:Drivers/lvgl/src/extra/layouts/grid/../flex/../../../core/lv_obj_style_gen.h **** {
 135:Drivers/lvgl/src/extra/layouts/grid/../flex/../../../core/lv_obj_style_gen.h ****     lv_style_value_t v = lv_obj_get_style_prop(obj, part, LV_STYLE_PAD_COLUMN);
 1568              		.loc 3 135 5 view .LVU479
 1569              		.loc 3 135 26 is_stmt 0 view .LVU480
 1570 00f6 1522     		movs	r2, #21
 1571              	.LVL185:
 1572              		.loc 3 135 26 view .LVU481
 1573 00f8 0021     		movs	r1, #0
 1574 00fa 4846     		mov	r0, r9
 1575 00fc FFF7FEFF 		bl	lv_obj_get_style_prop
 1576              	.LVL186:
 136:Drivers/lvgl/src/extra/layouts/grid/../flex/../../../core/lv_obj_style_gen.h ****     return (lv_coord_t)v.num;
 1577              		.loc 3 136 5 is_stmt 1 view .LVU482
 1578              		.loc 3 136 5 is_stmt 0 view .LVU483
 1579              	.LBE113:
 1580              	.LBE112:
 483:Drivers/lvgl/src/extra/layouts/grid/lv_grid.c ****     lv_coord_t free_w = cont_w - grid_w;
 1581              		.loc 1 483 5 is_stmt 1 view .LVU484
 483:Drivers/lvgl/src/extra/layouts/grid/lv_grid.c ****     lv_coord_t free_w = cont_w - grid_w;
 1582              		.loc 1 483 27 is_stmt 0 view .LVU485
 1583 0100 2369     		ldr	r3, [r4, #16]
 483:Drivers/lvgl/src/extra/layouts/grid/lv_grid.c ****     lv_coord_t free_w = cont_w - grid_w;
 1584              		.loc 1 483 37 view .LVU486
 1585 0102 013B     		subs	r3, r3, #1
 483:Drivers/lvgl/src/extra/layouts/grid/lv_grid.c ****     lv_coord_t free_w = cont_w - grid_w;
 1586              		.loc 1 483 12 view .LVU487
 1587 0104 10FB03F0 		smulbb	r0, r0, r3
 1588              	.LVL187:
 483:Drivers/lvgl/src/extra/layouts/grid/lv_grid.c ****     lv_coord_t free_w = cont_w - grid_w;
 1589              		.loc 1 483 12 view .LVU488
 1590 0108 019B     		ldr	r3, [sp, #4]
 1591 010a 191A     		subs	r1, r3, r0
 1592 010c 89B2     		uxth	r1, r1
 1593              	.LVL188:
 484:Drivers/lvgl/src/extra/layouts/grid/lv_grid.c ****     if(free_w < 0) free_w = 0;
 1594              		.loc 1 484 5 is_stmt 1 view .LVU489
 484:Drivers/lvgl/src/extra/layouts/grid/lv_grid.c ****     if(free_w < 0) free_w = 0;
 1595              		.loc 1 484 32 is_stmt 0 view .LVU490
 1596 010e 891B     		subs	r1, r1, r6
 1597              	.LVL189:
ARM GAS  /var/folders/lp/x54gwt890xv47sdkqj1k04q40000gn/T//cc3Qko3C.s 			page 55


 484:Drivers/lvgl/src/extra/layouts/grid/lv_grid.c ****     if(free_w < 0) free_w = 0;
 1598              		.loc 1 484 16 view .LVU491
 1599 0110 09B2     		sxth	r1, r1
 1600              	.LVL190:
 485:Drivers/lvgl/src/extra/layouts/grid/lv_grid.c **** 
 1601              		.loc 1 485 5 is_stmt 1 view .LVU492
 485:Drivers/lvgl/src/extra/layouts/grid/lv_grid.c **** 
 1602              		.loc 1 485 7 is_stmt 0 view .LVU493
 1603 0112 0029     		cmp	r1, #0
 1604 0114 04DB     		blt	.L121
 1605              	.LVL191:
 1606              	.L109:
 487:Drivers/lvgl/src/extra/layouts/grid/lv_grid.c ****     int32_t last_fr_x = 0;
 1607              		.loc 1 487 5 is_stmt 1 view .LVU494
 488:Drivers/lvgl/src/extra/layouts/grid/lv_grid.c ****     for(i = 0; i < c->col_num; i++) {
 1608              		.loc 1 488 5 view .LVU495
 489:Drivers/lvgl/src/extra/layouts/grid/lv_grid.c ****         lv_coord_t x = col_templ[i];
 1609              		.loc 1 489 5 view .LVU496
 488:Drivers/lvgl/src/extra/layouts/grid/lv_grid.c ****     for(i = 0; i < c->col_num; i++) {
 1610              		.loc 1 488 13 is_stmt 0 view .LVU497
 1611 0116 0026     		movs	r6, #0
 1612              	.LVL192:
 487:Drivers/lvgl/src/extra/layouts/grid/lv_grid.c ****     int32_t last_fr_x = 0;
 1613              		.loc 1 487 13 view .LVU498
 1614 0118 4FF0FF37 		mov	r7, #-1
 489:Drivers/lvgl/src/extra/layouts/grid/lv_grid.c ****         lv_coord_t x = col_templ[i];
 1615              		.loc 1 489 11 view .LVU499
 1616 011c 3346     		mov	r3, r6
 1617              	.LVL193:
 489:Drivers/lvgl/src/extra/layouts/grid/lv_grid.c ****         lv_coord_t x = col_templ[i];
 1618              		.loc 1 489 5 view .LVU500
 1619 011e 02E0     		b	.L110
 1620              	.LVL194:
 1621              	.L121:
 485:Drivers/lvgl/src/extra/layouts/grid/lv_grid.c **** 
 1622              		.loc 1 485 27 discriminator 1 view .LVU501
 1623 0120 0021     		movs	r1, #0
 1624              	.LVL195:
 485:Drivers/lvgl/src/extra/layouts/grid/lv_grid.c **** 
 1625              		.loc 1 485 27 discriminator 1 view .LVU502
 1626 0122 F8E7     		b	.L109
 1627              	.LVL196:
 1628              	.L111:
 489:Drivers/lvgl/src/extra/layouts/grid/lv_grid.c ****         lv_coord_t x = col_templ[i];
 1629              		.loc 1 489 33 is_stmt 1 discriminator 2 view .LVU503
 1630 0124 0133     		adds	r3, r3, #1
 1631              	.LVL197:
 1632              	.L110:
 489:Drivers/lvgl/src/extra/layouts/grid/lv_grid.c ****         lv_coord_t x = col_templ[i];
 1633              		.loc 1 489 18 discriminator 1 view .LVU504
 489:Drivers/lvgl/src/extra/layouts/grid/lv_grid.c ****         lv_coord_t x = col_templ[i];
 1634              		.loc 1 489 21 is_stmt 0 discriminator 1 view .LVU505
 1635 0126 2269     		ldr	r2, [r4, #16]
 489:Drivers/lvgl/src/extra/layouts/grid/lv_grid.c ****         lv_coord_t x = col_templ[i];
 1636              		.loc 1 489 18 discriminator 1 view .LVU506
 1637 0128 9A42     		cmp	r2, r3
 1638 012a 12D9     		bls	.L122
ARM GAS  /var/folders/lp/x54gwt890xv47sdkqj1k04q40000gn/T//cc3Qko3C.s 			page 56


 1639              	.LBB114:
 490:Drivers/lvgl/src/extra/layouts/grid/lv_grid.c ****         if(IS_FR(x)) {
 1640              		.loc 1 490 9 is_stmt 1 view .LVU507
 490:Drivers/lvgl/src/extra/layouts/grid/lv_grid.c ****         if(IS_FR(x)) {
 1641              		.loc 1 490 20 is_stmt 0 view .LVU508
 1642 012c 38F91320 		ldrsh	r2, [r8, r3, lsl #1]
 1643              	.LVL198:
 491:Drivers/lvgl/src/extra/layouts/grid/lv_grid.c ****             lv_coord_t f = GET_FR(x);
 1644              		.loc 1 491 9 is_stmt 1 view .LVU509
 491:Drivers/lvgl/src/extra/layouts/grid/lv_grid.c ****             lv_coord_t f = GET_FR(x);
 1645              		.loc 1 491 11 is_stmt 0 view .LVU510
 1646 0130 41F69A70 		movw	r0, #8090
 1647 0134 8242     		cmp	r2, r0
 1648 0136 F5DD     		ble	.L111
 1649              	.LBB115:
 492:Drivers/lvgl/src/extra/layouts/grid/lv_grid.c ****             c->w[i] = (free_w * f) / col_fr_cnt;
 1650              		.loc 1 492 13 is_stmt 1 view .LVU511
 492:Drivers/lvgl/src/extra/layouts/grid/lv_grid.c ****             c->w[i] = (free_w * f) / col_fr_cnt;
 1651              		.loc 1 492 28 is_stmt 0 view .LVU512
 1652 0138 A2F5FC52 		sub	r2, r2, #8064
 1653              	.LVL199:
 492:Drivers/lvgl/src/extra/layouts/grid/lv_grid.c ****             c->w[i] = (free_w * f) / col_fr_cnt;
 1654              		.loc 1 492 28 view .LVU513
 1655 013c 1B3A     		subs	r2, r2, #27
 1656              	.LVL200:
 492:Drivers/lvgl/src/extra/layouts/grid/lv_grid.c ****             c->w[i] = (free_w * f) / col_fr_cnt;
 1657              		.loc 1 492 24 view .LVU514
 1658 013e 16B2     		sxth	r6, r2
 1659              	.LVL201:
 493:Drivers/lvgl/src/extra/layouts/grid/lv_grid.c ****             last_fr_i = i;
 1660              		.loc 1 493 13 is_stmt 1 view .LVU515
 493:Drivers/lvgl/src/extra/layouts/grid/lv_grid.c ****             last_fr_i = i;
 1661              		.loc 1 493 31 is_stmt 0 view .LVU516
 1662 0140 06FB01F2 		mul	r2, r6, r1
 1663              	.LVL202:
 493:Drivers/lvgl/src/extra/layouts/grid/lv_grid.c ****             last_fr_i = i;
 1664              		.loc 1 493 36 view .LVU517
 1665 0144 B2FBF5F2 		udiv	r2, r2, r5
 493:Drivers/lvgl/src/extra/layouts/grid/lv_grid.c ****             last_fr_i = i;
 1666              		.loc 1 493 14 view .LVU518
 1667 0148 A068     		ldr	r0, [r4, #8]
 493:Drivers/lvgl/src/extra/layouts/grid/lv_grid.c ****             last_fr_i = i;
 1668              		.loc 1 493 21 view .LVU519
 1669 014a 20F81320 		strh	r2, [r0, r3, lsl #1]	@ movhi
 1670              	.LVL203:
 494:Drivers/lvgl/src/extra/layouts/grid/lv_grid.c ****             last_fr_x = f;
 1671              		.loc 1 494 13 is_stmt 1 view .LVU520
 494:Drivers/lvgl/src/extra/layouts/grid/lv_grid.c ****             last_fr_x = f;
 1672              		.loc 1 494 23 is_stmt 0 view .LVU521
 1673 014e 1F46     		mov	r7, r3
 1674              	.LVL204:
 495:Drivers/lvgl/src/extra/layouts/grid/lv_grid.c ****         }
 1675              		.loc 1 495 13 is_stmt 1 view .LVU522
 495:Drivers/lvgl/src/extra/layouts/grid/lv_grid.c ****         }
 1676              		.loc 1 495 13 is_stmt 0 view .LVU523
 1677 0150 E8E7     		b	.L111
 1678              	.LVL205:
ARM GAS  /var/folders/lp/x54gwt890xv47sdkqj1k04q40000gn/T//cc3Qko3C.s 			page 57


 1679              	.L122:
 495:Drivers/lvgl/src/extra/layouts/grid/lv_grid.c ****         }
 1680              		.loc 1 495 13 view .LVU524
 1681              	.LBE115:
 1682              	.LBE114:
 500:Drivers/lvgl/src/extra/layouts/grid/lv_grid.c ****         c->w[last_fr_i] = free_w - ((free_w * (col_fr_cnt - last_fr_x)) / col_fr_cnt);
 1683              		.loc 1 500 5 is_stmt 1 view .LVU525
 500:Drivers/lvgl/src/extra/layouts/grid/lv_grid.c ****         c->w[last_fr_i] = free_w - ((free_w * (col_fr_cnt - last_fr_x)) / col_fr_cnt);
 1684              		.loc 1 500 7 is_stmt 0 view .LVU526
 1685 0152 002F     		cmp	r7, #0
 1686 0154 08DB     		blt	.L96
 501:Drivers/lvgl/src/extra/layouts/grid/lv_grid.c ****     }
 1687              		.loc 1 501 9 is_stmt 1 view .LVU527
 501:Drivers/lvgl/src/extra/layouts/grid/lv_grid.c ****     }
 1688              		.loc 1 501 59 is_stmt 0 view .LVU528
 1689 0156 AB1B     		subs	r3, r5, r6
 1690              	.LVL206:
 501:Drivers/lvgl/src/extra/layouts/grid/lv_grid.c ****     }
 1691              		.loc 1 501 45 view .LVU529
 1692 0158 01FB03F3 		mul	r3, r1, r3
 501:Drivers/lvgl/src/extra/layouts/grid/lv_grid.c ****     }
 1693              		.loc 1 501 73 view .LVU530
 1694 015c B3FBF5F3 		udiv	r3, r3, r5
 501:Drivers/lvgl/src/extra/layouts/grid/lv_grid.c ****     }
 1695              		.loc 1 501 10 view .LVU531
 1696 0160 A268     		ldr	r2, [r4, #8]
 501:Drivers/lvgl/src/extra/layouts/grid/lv_grid.c ****     }
 1697              		.loc 1 501 34 view .LVU532
 1698 0162 C91A     		subs	r1, r1, r3
 1699              	.LVL207:
 501:Drivers/lvgl/src/extra/layouts/grid/lv_grid.c ****     }
 1700              		.loc 1 501 25 view .LVU533
 1701 0164 22F81710 		strh	r1, [r2, r7, lsl #1]	@ movhi
 1702              	.L96:
 503:Drivers/lvgl/src/extra/layouts/grid/lv_grid.c **** 
 1703              		.loc 1 503 1 view .LVU534
 1704 0168 03B0     		add	sp, sp, #12
 1705              		.cfi_def_cfa_offset 36
 1706              		@ sp needed
 1707 016a BDE8F08F 		pop	{r4, r5, r6, r7, r8, r9, r10, fp, pc}
 1708              	.LVL208:
 1709              	.L124:
 503:Drivers/lvgl/src/extra/layouts/grid/lv_grid.c **** 
 1710              		.loc 1 503 1 view .LVU535
 1711 016e 00BF     		.align	2
 1712              	.L123:
 1713 0170 01000600 		.word	393217
 1714 0174 01E0FFFF 		.word	-8191
 1715              		.cfi_endproc
 1716              	.LFE214:
 1718              		.section	.text.calc,"ax",%progbits
 1719              		.align	1
 1720              		.syntax unified
 1721              		.thumb
 1722              		.thumb_func
 1724              	calc:
 1725              	.LVL209:
ARM GAS  /var/folders/lp/x54gwt890xv47sdkqj1k04q40000gn/T//cc3Qko3C.s 			page 58


 1726              	.LFB212:
 392:Drivers/lvgl/src/extra/layouts/grid/lv_grid.c ****     if(lv_obj_get_child(cont, 0) == NULL) {
 1727              		.loc 1 392 1 is_stmt 1 view -0
 1728              		.cfi_startproc
 1729              		@ args = 0, pretend = 0, frame = 0
 1730              		@ frame_needed = 0, uses_anonymous_args = 0
 392:Drivers/lvgl/src/extra/layouts/grid/lv_grid.c ****     if(lv_obj_get_child(cont, 0) == NULL) {
 1731              		.loc 1 392 1 is_stmt 0 view .LVU537
 1732 0000 2DE9F04F 		push	{r4, r5, r6, r7, r8, r9, r10, fp, lr}
 1733              		.cfi_def_cfa_offset 36
 1734              		.cfi_offset 4, -36
 1735              		.cfi_offset 5, -32
 1736              		.cfi_offset 6, -28
 1737              		.cfi_offset 7, -24
 1738              		.cfi_offset 8, -20
 1739              		.cfi_offset 9, -16
 1740              		.cfi_offset 10, -12
 1741              		.cfi_offset 11, -8
 1742              		.cfi_offset 14, -4
 1743 0004 85B0     		sub	sp, sp, #20
 1744              		.cfi_def_cfa_offset 56
 1745 0006 0446     		mov	r4, r0
 1746 0008 0D46     		mov	r5, r1
 393:Drivers/lvgl/src/extra/layouts/grid/lv_grid.c ****         lv_memset_00(calc_out, sizeof(_lv_grid_calc_t));
 1747              		.loc 1 393 5 is_stmt 1 view .LVU538
 393:Drivers/lvgl/src/extra/layouts/grid/lv_grid.c ****         lv_memset_00(calc_out, sizeof(_lv_grid_calc_t));
 1748              		.loc 1 393 8 is_stmt 0 view .LVU539
 1749 000a 0021     		movs	r1, #0
 1750              	.LVL210:
 393:Drivers/lvgl/src/extra/layouts/grid/lv_grid.c ****         lv_memset_00(calc_out, sizeof(_lv_grid_calc_t));
 1751              		.loc 1 393 8 view .LVU540
 1752 000c FFF7FEFF 		bl	lv_obj_get_child
 1753              	.LVL211:
 393:Drivers/lvgl/src/extra/layouts/grid/lv_grid.c ****         lv_memset_00(calc_out, sizeof(_lv_grid_calc_t));
 1754              		.loc 1 393 7 discriminator 1 view .LVU541
 1755 0010 0028     		cmp	r0, #0
 1756 0012 66D0     		beq	.L135
 398:Drivers/lvgl/src/extra/layouts/grid/lv_grid.c ****     calc_cols(cont, calc_out);
 1757              		.loc 1 398 5 is_stmt 1 view .LVU542
 1758 0014 2946     		mov	r1, r5
 1759 0016 2046     		mov	r0, r4
 1760 0018 FFF7FEFF 		bl	calc_rows
 1761              	.LVL212:
 399:Drivers/lvgl/src/extra/layouts/grid/lv_grid.c **** 
 1762              		.loc 1 399 5 view .LVU543
 1763 001c 2946     		mov	r1, r5
 1764 001e 2046     		mov	r0, r4
 1765 0020 FFF7FEFF 		bl	calc_cols
 1766              	.LVL213:
 401:Drivers/lvgl/src/extra/layouts/grid/lv_grid.c ****     lv_coord_t row_gap = lv_obj_get_style_pad_row(cont, LV_PART_MAIN);
 1767              		.loc 1 401 5 view .LVU544
 1768              	.LBB116:
 1769              	.LBI116:
 133:Drivers/lvgl/src/extra/layouts/grid/../flex/../../../core/lv_obj_style_gen.h **** {
 1770              		.loc 3 133 26 view .LVU545
 1771              	.LBB117:
 135:Drivers/lvgl/src/extra/layouts/grid/../flex/../../../core/lv_obj_style_gen.h ****     return (lv_coord_t)v.num;
ARM GAS  /var/folders/lp/x54gwt890xv47sdkqj1k04q40000gn/T//cc3Qko3C.s 			page 59


 1772              		.loc 3 135 5 view .LVU546
 135:Drivers/lvgl/src/extra/layouts/grid/../flex/../../../core/lv_obj_style_gen.h ****     return (lv_coord_t)v.num;
 1773              		.loc 3 135 26 is_stmt 0 view .LVU547
 1774 0024 1522     		movs	r2, #21
 1775 0026 0021     		movs	r1, #0
 1776 0028 2046     		mov	r0, r4
 1777 002a FFF7FEFF 		bl	lv_obj_get_style_prop
 1778              	.LVL214:
 1779              		.loc 3 136 5 is_stmt 1 view .LVU548
 1780              		.loc 3 136 12 is_stmt 0 view .LVU549
 1781 002e 0FFA80FA 		sxth	r10, r0
 1782              	.LVL215:
 1783              		.loc 3 136 12 view .LVU550
 1784              	.LBE117:
 1785              	.LBE116:
 402:Drivers/lvgl/src/extra/layouts/grid/lv_grid.c **** 
 1786              		.loc 1 402 5 is_stmt 1 view .LVU551
 1787              	.LBB118:
 1788              	.LBI118:
 127:Drivers/lvgl/src/extra/layouts/grid/../flex/../../../core/lv_obj_style_gen.h **** {
 1789              		.loc 3 127 26 view .LVU552
 1790              	.LBB119:
 129:Drivers/lvgl/src/extra/layouts/grid/../flex/../../../core/lv_obj_style_gen.h ****     return (lv_coord_t)v.num;
 1791              		.loc 3 129 5 view .LVU553
 129:Drivers/lvgl/src/extra/layouts/grid/../flex/../../../core/lv_obj_style_gen.h ****     return (lv_coord_t)v.num;
 1792              		.loc 3 129 26 is_stmt 0 view .LVU554
 1793 0032 1422     		movs	r2, #20
 1794 0034 0021     		movs	r1, #0
 1795 0036 2046     		mov	r0, r4
 1796 0038 FFF7FEFF 		bl	lv_obj_get_style_prop
 1797              	.LVL216:
 130:Drivers/lvgl/src/extra/layouts/grid/../flex/../../../core/lv_obj_style_gen.h **** }
 1798              		.loc 3 130 5 is_stmt 1 view .LVU555
 130:Drivers/lvgl/src/extra/layouts/grid/../flex/../../../core/lv_obj_style_gen.h **** }
 1799              		.loc 3 130 12 is_stmt 0 view .LVU556
 1800 003c 07B2     		sxth	r7, r0
 1801              	.LVL217:
 130:Drivers/lvgl/src/extra/layouts/grid/../flex/../../../core/lv_obj_style_gen.h **** }
 1802              		.loc 3 130 12 view .LVU557
 1803              	.LBE119:
 1804              	.LBE118:
 404:Drivers/lvgl/src/extra/layouts/grid/lv_grid.c **** 
 1805              		.loc 1 404 5 is_stmt 1 view .LVU558
 1806              	.LBB120:
 1807              	.LBI120:
 137:Drivers/lvgl/src/extra/layouts/grid/../flex/../../../core/lv_obj_style_gen.h **** }
 138:Drivers/lvgl/src/extra/layouts/grid/../flex/../../../core/lv_obj_style_gen.h **** 
 139:Drivers/lvgl/src/extra/layouts/grid/../flex/../../../core/lv_obj_style_gen.h **** static inline lv_color_t lv_obj_get_style_bg_color(const struct _lv_obj_t * obj, uint32_t part)
 140:Drivers/lvgl/src/extra/layouts/grid/../flex/../../../core/lv_obj_style_gen.h **** {
 141:Drivers/lvgl/src/extra/layouts/grid/../flex/../../../core/lv_obj_style_gen.h ****     lv_style_value_t v = lv_obj_get_style_prop(obj, part, LV_STYLE_BG_COLOR);
 142:Drivers/lvgl/src/extra/layouts/grid/../flex/../../../core/lv_obj_style_gen.h ****     return v.color;
 143:Drivers/lvgl/src/extra/layouts/grid/../flex/../../../core/lv_obj_style_gen.h **** }
 144:Drivers/lvgl/src/extra/layouts/grid/../flex/../../../core/lv_obj_style_gen.h **** 
 145:Drivers/lvgl/src/extra/layouts/grid/../flex/../../../core/lv_obj_style_gen.h **** static inline lv_color_t lv_obj_get_style_bg_color_filtered(const struct _lv_obj_t * obj, uint32_t 
 146:Drivers/lvgl/src/extra/layouts/grid/../flex/../../../core/lv_obj_style_gen.h **** {
 147:Drivers/lvgl/src/extra/layouts/grid/../flex/../../../core/lv_obj_style_gen.h ****     lv_style_value_t v = _lv_obj_style_apply_color_filter(obj, part, lv_obj_get_style_prop(obj, par
 148:Drivers/lvgl/src/extra/layouts/grid/../flex/../../../core/lv_obj_style_gen.h ****     return v.color;
ARM GAS  /var/folders/lp/x54gwt890xv47sdkqj1k04q40000gn/T//cc3Qko3C.s 			page 60


 149:Drivers/lvgl/src/extra/layouts/grid/../flex/../../../core/lv_obj_style_gen.h **** }
 150:Drivers/lvgl/src/extra/layouts/grid/../flex/../../../core/lv_obj_style_gen.h **** 
 151:Drivers/lvgl/src/extra/layouts/grid/../flex/../../../core/lv_obj_style_gen.h **** static inline lv_opa_t lv_obj_get_style_bg_opa(const struct _lv_obj_t * obj, uint32_t part)
 152:Drivers/lvgl/src/extra/layouts/grid/../flex/../../../core/lv_obj_style_gen.h **** {
 153:Drivers/lvgl/src/extra/layouts/grid/../flex/../../../core/lv_obj_style_gen.h ****     lv_style_value_t v = lv_obj_get_style_prop(obj, part, LV_STYLE_BG_OPA);
 154:Drivers/lvgl/src/extra/layouts/grid/../flex/../../../core/lv_obj_style_gen.h ****     return (lv_opa_t)v.num;
 155:Drivers/lvgl/src/extra/layouts/grid/../flex/../../../core/lv_obj_style_gen.h **** }
 156:Drivers/lvgl/src/extra/layouts/grid/../flex/../../../core/lv_obj_style_gen.h **** 
 157:Drivers/lvgl/src/extra/layouts/grid/../flex/../../../core/lv_obj_style_gen.h **** static inline lv_color_t lv_obj_get_style_bg_grad_color(const struct _lv_obj_t * obj, uint32_t part
 158:Drivers/lvgl/src/extra/layouts/grid/../flex/../../../core/lv_obj_style_gen.h **** {
 159:Drivers/lvgl/src/extra/layouts/grid/../flex/../../../core/lv_obj_style_gen.h ****     lv_style_value_t v = lv_obj_get_style_prop(obj, part, LV_STYLE_BG_GRAD_COLOR);
 160:Drivers/lvgl/src/extra/layouts/grid/../flex/../../../core/lv_obj_style_gen.h ****     return v.color;
 161:Drivers/lvgl/src/extra/layouts/grid/../flex/../../../core/lv_obj_style_gen.h **** }
 162:Drivers/lvgl/src/extra/layouts/grid/../flex/../../../core/lv_obj_style_gen.h **** 
 163:Drivers/lvgl/src/extra/layouts/grid/../flex/../../../core/lv_obj_style_gen.h **** static inline lv_color_t lv_obj_get_style_bg_grad_color_filtered(const struct _lv_obj_t * obj, uint
 164:Drivers/lvgl/src/extra/layouts/grid/../flex/../../../core/lv_obj_style_gen.h **** {
 165:Drivers/lvgl/src/extra/layouts/grid/../flex/../../../core/lv_obj_style_gen.h ****     lv_style_value_t v = _lv_obj_style_apply_color_filter(obj, part, lv_obj_get_style_prop(obj, par
 166:Drivers/lvgl/src/extra/layouts/grid/../flex/../../../core/lv_obj_style_gen.h ****     return v.color;
 167:Drivers/lvgl/src/extra/layouts/grid/../flex/../../../core/lv_obj_style_gen.h **** }
 168:Drivers/lvgl/src/extra/layouts/grid/../flex/../../../core/lv_obj_style_gen.h **** 
 169:Drivers/lvgl/src/extra/layouts/grid/../flex/../../../core/lv_obj_style_gen.h **** static inline lv_grad_dir_t lv_obj_get_style_bg_grad_dir(const struct _lv_obj_t * obj, uint32_t par
 170:Drivers/lvgl/src/extra/layouts/grid/../flex/../../../core/lv_obj_style_gen.h **** {
 171:Drivers/lvgl/src/extra/layouts/grid/../flex/../../../core/lv_obj_style_gen.h ****     lv_style_value_t v = lv_obj_get_style_prop(obj, part, LV_STYLE_BG_GRAD_DIR);
 172:Drivers/lvgl/src/extra/layouts/grid/../flex/../../../core/lv_obj_style_gen.h ****     return (lv_grad_dir_t)v.num;
 173:Drivers/lvgl/src/extra/layouts/grid/../flex/../../../core/lv_obj_style_gen.h **** }
 174:Drivers/lvgl/src/extra/layouts/grid/../flex/../../../core/lv_obj_style_gen.h **** 
 175:Drivers/lvgl/src/extra/layouts/grid/../flex/../../../core/lv_obj_style_gen.h **** static inline lv_coord_t lv_obj_get_style_bg_main_stop(const struct _lv_obj_t * obj, uint32_t part)
 176:Drivers/lvgl/src/extra/layouts/grid/../flex/../../../core/lv_obj_style_gen.h **** {
 177:Drivers/lvgl/src/extra/layouts/grid/../flex/../../../core/lv_obj_style_gen.h ****     lv_style_value_t v = lv_obj_get_style_prop(obj, part, LV_STYLE_BG_MAIN_STOP);
 178:Drivers/lvgl/src/extra/layouts/grid/../flex/../../../core/lv_obj_style_gen.h ****     return (lv_coord_t)v.num;
 179:Drivers/lvgl/src/extra/layouts/grid/../flex/../../../core/lv_obj_style_gen.h **** }
 180:Drivers/lvgl/src/extra/layouts/grid/../flex/../../../core/lv_obj_style_gen.h **** 
 181:Drivers/lvgl/src/extra/layouts/grid/../flex/../../../core/lv_obj_style_gen.h **** static inline lv_coord_t lv_obj_get_style_bg_grad_stop(const struct _lv_obj_t * obj, uint32_t part)
 182:Drivers/lvgl/src/extra/layouts/grid/../flex/../../../core/lv_obj_style_gen.h **** {
 183:Drivers/lvgl/src/extra/layouts/grid/../flex/../../../core/lv_obj_style_gen.h ****     lv_style_value_t v = lv_obj_get_style_prop(obj, part, LV_STYLE_BG_GRAD_STOP);
 184:Drivers/lvgl/src/extra/layouts/grid/../flex/../../../core/lv_obj_style_gen.h ****     return (lv_coord_t)v.num;
 185:Drivers/lvgl/src/extra/layouts/grid/../flex/../../../core/lv_obj_style_gen.h **** }
 186:Drivers/lvgl/src/extra/layouts/grid/../flex/../../../core/lv_obj_style_gen.h **** 
 187:Drivers/lvgl/src/extra/layouts/grid/../flex/../../../core/lv_obj_style_gen.h **** static inline const lv_grad_dsc_t * lv_obj_get_style_bg_grad(const struct _lv_obj_t * obj, uint32_t
 188:Drivers/lvgl/src/extra/layouts/grid/../flex/../../../core/lv_obj_style_gen.h **** {
 189:Drivers/lvgl/src/extra/layouts/grid/../flex/../../../core/lv_obj_style_gen.h ****     lv_style_value_t v = lv_obj_get_style_prop(obj, part, LV_STYLE_BG_GRAD);
 190:Drivers/lvgl/src/extra/layouts/grid/../flex/../../../core/lv_obj_style_gen.h ****     return (const lv_grad_dsc_t *)v.ptr;
 191:Drivers/lvgl/src/extra/layouts/grid/../flex/../../../core/lv_obj_style_gen.h **** }
 192:Drivers/lvgl/src/extra/layouts/grid/../flex/../../../core/lv_obj_style_gen.h **** 
 193:Drivers/lvgl/src/extra/layouts/grid/../flex/../../../core/lv_obj_style_gen.h **** static inline lv_dither_mode_t lv_obj_get_style_bg_dither_mode(const struct _lv_obj_t * obj, uint32
 194:Drivers/lvgl/src/extra/layouts/grid/../flex/../../../core/lv_obj_style_gen.h **** {
 195:Drivers/lvgl/src/extra/layouts/grid/../flex/../../../core/lv_obj_style_gen.h ****     lv_style_value_t v = lv_obj_get_style_prop(obj, part, LV_STYLE_BG_DITHER_MODE);
 196:Drivers/lvgl/src/extra/layouts/grid/../flex/../../../core/lv_obj_style_gen.h ****     return (lv_dither_mode_t)v.num;
 197:Drivers/lvgl/src/extra/layouts/grid/../flex/../../../core/lv_obj_style_gen.h **** }
 198:Drivers/lvgl/src/extra/layouts/grid/../flex/../../../core/lv_obj_style_gen.h **** 
 199:Drivers/lvgl/src/extra/layouts/grid/../flex/../../../core/lv_obj_style_gen.h **** static inline const void * lv_obj_get_style_bg_img_src(const struct _lv_obj_t * obj, uint32_t part)
 200:Drivers/lvgl/src/extra/layouts/grid/../flex/../../../core/lv_obj_style_gen.h **** {
 201:Drivers/lvgl/src/extra/layouts/grid/../flex/../../../core/lv_obj_style_gen.h ****     lv_style_value_t v = lv_obj_get_style_prop(obj, part, LV_STYLE_BG_IMG_SRC);
 202:Drivers/lvgl/src/extra/layouts/grid/../flex/../../../core/lv_obj_style_gen.h ****     return (const void *)v.ptr;
 203:Drivers/lvgl/src/extra/layouts/grid/../flex/../../../core/lv_obj_style_gen.h **** }
 204:Drivers/lvgl/src/extra/layouts/grid/../flex/../../../core/lv_obj_style_gen.h **** 
 205:Drivers/lvgl/src/extra/layouts/grid/../flex/../../../core/lv_obj_style_gen.h **** static inline lv_opa_t lv_obj_get_style_bg_img_opa(const struct _lv_obj_t * obj, uint32_t part)
ARM GAS  /var/folders/lp/x54gwt890xv47sdkqj1k04q40000gn/T//cc3Qko3C.s 			page 61


 206:Drivers/lvgl/src/extra/layouts/grid/../flex/../../../core/lv_obj_style_gen.h **** {
 207:Drivers/lvgl/src/extra/layouts/grid/../flex/../../../core/lv_obj_style_gen.h ****     lv_style_value_t v = lv_obj_get_style_prop(obj, part, LV_STYLE_BG_IMG_OPA);
 208:Drivers/lvgl/src/extra/layouts/grid/../flex/../../../core/lv_obj_style_gen.h ****     return (lv_opa_t)v.num;
 209:Drivers/lvgl/src/extra/layouts/grid/../flex/../../../core/lv_obj_style_gen.h **** }
 210:Drivers/lvgl/src/extra/layouts/grid/../flex/../../../core/lv_obj_style_gen.h **** 
 211:Drivers/lvgl/src/extra/layouts/grid/../flex/../../../core/lv_obj_style_gen.h **** static inline lv_color_t lv_obj_get_style_bg_img_recolor(const struct _lv_obj_t * obj, uint32_t par
 212:Drivers/lvgl/src/extra/layouts/grid/../flex/../../../core/lv_obj_style_gen.h **** {
 213:Drivers/lvgl/src/extra/layouts/grid/../flex/../../../core/lv_obj_style_gen.h ****     lv_style_value_t v = lv_obj_get_style_prop(obj, part, LV_STYLE_BG_IMG_RECOLOR);
 214:Drivers/lvgl/src/extra/layouts/grid/../flex/../../../core/lv_obj_style_gen.h ****     return v.color;
 215:Drivers/lvgl/src/extra/layouts/grid/../flex/../../../core/lv_obj_style_gen.h **** }
 216:Drivers/lvgl/src/extra/layouts/grid/../flex/../../../core/lv_obj_style_gen.h **** 
 217:Drivers/lvgl/src/extra/layouts/grid/../flex/../../../core/lv_obj_style_gen.h **** static inline lv_color_t lv_obj_get_style_bg_img_recolor_filtered(const struct _lv_obj_t * obj, uin
 218:Drivers/lvgl/src/extra/layouts/grid/../flex/../../../core/lv_obj_style_gen.h **** {
 219:Drivers/lvgl/src/extra/layouts/grid/../flex/../../../core/lv_obj_style_gen.h ****     lv_style_value_t v = _lv_obj_style_apply_color_filter(obj, part, lv_obj_get_style_prop(obj, par
 220:Drivers/lvgl/src/extra/layouts/grid/../flex/../../../core/lv_obj_style_gen.h ****     return v.color;
 221:Drivers/lvgl/src/extra/layouts/grid/../flex/../../../core/lv_obj_style_gen.h **** }
 222:Drivers/lvgl/src/extra/layouts/grid/../flex/../../../core/lv_obj_style_gen.h **** 
 223:Drivers/lvgl/src/extra/layouts/grid/../flex/../../../core/lv_obj_style_gen.h **** static inline lv_opa_t lv_obj_get_style_bg_img_recolor_opa(const struct _lv_obj_t * obj, uint32_t p
 224:Drivers/lvgl/src/extra/layouts/grid/../flex/../../../core/lv_obj_style_gen.h **** {
 225:Drivers/lvgl/src/extra/layouts/grid/../flex/../../../core/lv_obj_style_gen.h ****     lv_style_value_t v = lv_obj_get_style_prop(obj, part, LV_STYLE_BG_IMG_RECOLOR_OPA);
 226:Drivers/lvgl/src/extra/layouts/grid/../flex/../../../core/lv_obj_style_gen.h ****     return (lv_opa_t)v.num;
 227:Drivers/lvgl/src/extra/layouts/grid/../flex/../../../core/lv_obj_style_gen.h **** }
 228:Drivers/lvgl/src/extra/layouts/grid/../flex/../../../core/lv_obj_style_gen.h **** 
 229:Drivers/lvgl/src/extra/layouts/grid/../flex/../../../core/lv_obj_style_gen.h **** static inline bool lv_obj_get_style_bg_img_tiled(const struct _lv_obj_t * obj, uint32_t part)
 230:Drivers/lvgl/src/extra/layouts/grid/../flex/../../../core/lv_obj_style_gen.h **** {
 231:Drivers/lvgl/src/extra/layouts/grid/../flex/../../../core/lv_obj_style_gen.h ****     lv_style_value_t v = lv_obj_get_style_prop(obj, part, LV_STYLE_BG_IMG_TILED);
 232:Drivers/lvgl/src/extra/layouts/grid/../flex/../../../core/lv_obj_style_gen.h ****     return (bool)v.num;
 233:Drivers/lvgl/src/extra/layouts/grid/../flex/../../../core/lv_obj_style_gen.h **** }
 234:Drivers/lvgl/src/extra/layouts/grid/../flex/../../../core/lv_obj_style_gen.h **** 
 235:Drivers/lvgl/src/extra/layouts/grid/../flex/../../../core/lv_obj_style_gen.h **** static inline lv_color_t lv_obj_get_style_border_color(const struct _lv_obj_t * obj, uint32_t part)
 236:Drivers/lvgl/src/extra/layouts/grid/../flex/../../../core/lv_obj_style_gen.h **** {
 237:Drivers/lvgl/src/extra/layouts/grid/../flex/../../../core/lv_obj_style_gen.h ****     lv_style_value_t v = lv_obj_get_style_prop(obj, part, LV_STYLE_BORDER_COLOR);
 238:Drivers/lvgl/src/extra/layouts/grid/../flex/../../../core/lv_obj_style_gen.h ****     return v.color;
 239:Drivers/lvgl/src/extra/layouts/grid/../flex/../../../core/lv_obj_style_gen.h **** }
 240:Drivers/lvgl/src/extra/layouts/grid/../flex/../../../core/lv_obj_style_gen.h **** 
 241:Drivers/lvgl/src/extra/layouts/grid/../flex/../../../core/lv_obj_style_gen.h **** static inline lv_color_t lv_obj_get_style_border_color_filtered(const struct _lv_obj_t * obj, uint3
 242:Drivers/lvgl/src/extra/layouts/grid/../flex/../../../core/lv_obj_style_gen.h **** {
 243:Drivers/lvgl/src/extra/layouts/grid/../flex/../../../core/lv_obj_style_gen.h ****     lv_style_value_t v = _lv_obj_style_apply_color_filter(obj, part, lv_obj_get_style_prop(obj, par
 244:Drivers/lvgl/src/extra/layouts/grid/../flex/../../../core/lv_obj_style_gen.h ****     return v.color;
 245:Drivers/lvgl/src/extra/layouts/grid/../flex/../../../core/lv_obj_style_gen.h **** }
 246:Drivers/lvgl/src/extra/layouts/grid/../flex/../../../core/lv_obj_style_gen.h **** 
 247:Drivers/lvgl/src/extra/layouts/grid/../flex/../../../core/lv_obj_style_gen.h **** static inline lv_opa_t lv_obj_get_style_border_opa(const struct _lv_obj_t * obj, uint32_t part)
 248:Drivers/lvgl/src/extra/layouts/grid/../flex/../../../core/lv_obj_style_gen.h **** {
 249:Drivers/lvgl/src/extra/layouts/grid/../flex/../../../core/lv_obj_style_gen.h ****     lv_style_value_t v = lv_obj_get_style_prop(obj, part, LV_STYLE_BORDER_OPA);
 250:Drivers/lvgl/src/extra/layouts/grid/../flex/../../../core/lv_obj_style_gen.h ****     return (lv_opa_t)v.num;
 251:Drivers/lvgl/src/extra/layouts/grid/../flex/../../../core/lv_obj_style_gen.h **** }
 252:Drivers/lvgl/src/extra/layouts/grid/../flex/../../../core/lv_obj_style_gen.h **** 
 253:Drivers/lvgl/src/extra/layouts/grid/../flex/../../../core/lv_obj_style_gen.h **** static inline lv_coord_t lv_obj_get_style_border_width(const struct _lv_obj_t * obj, uint32_t part)
 254:Drivers/lvgl/src/extra/layouts/grid/../flex/../../../core/lv_obj_style_gen.h **** {
 255:Drivers/lvgl/src/extra/layouts/grid/../flex/../../../core/lv_obj_style_gen.h ****     lv_style_value_t v = lv_obj_get_style_prop(obj, part, LV_STYLE_BORDER_WIDTH);
 256:Drivers/lvgl/src/extra/layouts/grid/../flex/../../../core/lv_obj_style_gen.h ****     return (lv_coord_t)v.num;
 257:Drivers/lvgl/src/extra/layouts/grid/../flex/../../../core/lv_obj_style_gen.h **** }
 258:Drivers/lvgl/src/extra/layouts/grid/../flex/../../../core/lv_obj_style_gen.h **** 
 259:Drivers/lvgl/src/extra/layouts/grid/../flex/../../../core/lv_obj_style_gen.h **** static inline lv_border_side_t lv_obj_get_style_border_side(const struct _lv_obj_t * obj, uint32_t 
 260:Drivers/lvgl/src/extra/layouts/grid/../flex/../../../core/lv_obj_style_gen.h **** {
 261:Drivers/lvgl/src/extra/layouts/grid/../flex/../../../core/lv_obj_style_gen.h ****     lv_style_value_t v = lv_obj_get_style_prop(obj, part, LV_STYLE_BORDER_SIDE);
 262:Drivers/lvgl/src/extra/layouts/grid/../flex/../../../core/lv_obj_style_gen.h ****     return (lv_border_side_t)v.num;
ARM GAS  /var/folders/lp/x54gwt890xv47sdkqj1k04q40000gn/T//cc3Qko3C.s 			page 62


 263:Drivers/lvgl/src/extra/layouts/grid/../flex/../../../core/lv_obj_style_gen.h **** }
 264:Drivers/lvgl/src/extra/layouts/grid/../flex/../../../core/lv_obj_style_gen.h **** 
 265:Drivers/lvgl/src/extra/layouts/grid/../flex/../../../core/lv_obj_style_gen.h **** static inline bool lv_obj_get_style_border_post(const struct _lv_obj_t * obj, uint32_t part)
 266:Drivers/lvgl/src/extra/layouts/grid/../flex/../../../core/lv_obj_style_gen.h **** {
 267:Drivers/lvgl/src/extra/layouts/grid/../flex/../../../core/lv_obj_style_gen.h ****     lv_style_value_t v = lv_obj_get_style_prop(obj, part, LV_STYLE_BORDER_POST);
 268:Drivers/lvgl/src/extra/layouts/grid/../flex/../../../core/lv_obj_style_gen.h ****     return (bool)v.num;
 269:Drivers/lvgl/src/extra/layouts/grid/../flex/../../../core/lv_obj_style_gen.h **** }
 270:Drivers/lvgl/src/extra/layouts/grid/../flex/../../../core/lv_obj_style_gen.h **** 
 271:Drivers/lvgl/src/extra/layouts/grid/../flex/../../../core/lv_obj_style_gen.h **** static inline lv_coord_t lv_obj_get_style_outline_width(const struct _lv_obj_t * obj, uint32_t part
 272:Drivers/lvgl/src/extra/layouts/grid/../flex/../../../core/lv_obj_style_gen.h **** {
 273:Drivers/lvgl/src/extra/layouts/grid/../flex/../../../core/lv_obj_style_gen.h ****     lv_style_value_t v = lv_obj_get_style_prop(obj, part, LV_STYLE_OUTLINE_WIDTH);
 274:Drivers/lvgl/src/extra/layouts/grid/../flex/../../../core/lv_obj_style_gen.h ****     return (lv_coord_t)v.num;
 275:Drivers/lvgl/src/extra/layouts/grid/../flex/../../../core/lv_obj_style_gen.h **** }
 276:Drivers/lvgl/src/extra/layouts/grid/../flex/../../../core/lv_obj_style_gen.h **** 
 277:Drivers/lvgl/src/extra/layouts/grid/../flex/../../../core/lv_obj_style_gen.h **** static inline lv_color_t lv_obj_get_style_outline_color(const struct _lv_obj_t * obj, uint32_t part
 278:Drivers/lvgl/src/extra/layouts/grid/../flex/../../../core/lv_obj_style_gen.h **** {
 279:Drivers/lvgl/src/extra/layouts/grid/../flex/../../../core/lv_obj_style_gen.h ****     lv_style_value_t v = lv_obj_get_style_prop(obj, part, LV_STYLE_OUTLINE_COLOR);
 280:Drivers/lvgl/src/extra/layouts/grid/../flex/../../../core/lv_obj_style_gen.h ****     return v.color;
 281:Drivers/lvgl/src/extra/layouts/grid/../flex/../../../core/lv_obj_style_gen.h **** }
 282:Drivers/lvgl/src/extra/layouts/grid/../flex/../../../core/lv_obj_style_gen.h **** 
 283:Drivers/lvgl/src/extra/layouts/grid/../flex/../../../core/lv_obj_style_gen.h **** static inline lv_color_t lv_obj_get_style_outline_color_filtered(const struct _lv_obj_t * obj, uint
 284:Drivers/lvgl/src/extra/layouts/grid/../flex/../../../core/lv_obj_style_gen.h **** {
 285:Drivers/lvgl/src/extra/layouts/grid/../flex/../../../core/lv_obj_style_gen.h ****     lv_style_value_t v = _lv_obj_style_apply_color_filter(obj, part, lv_obj_get_style_prop(obj, par
 286:Drivers/lvgl/src/extra/layouts/grid/../flex/../../../core/lv_obj_style_gen.h ****     return v.color;
 287:Drivers/lvgl/src/extra/layouts/grid/../flex/../../../core/lv_obj_style_gen.h **** }
 288:Drivers/lvgl/src/extra/layouts/grid/../flex/../../../core/lv_obj_style_gen.h **** 
 289:Drivers/lvgl/src/extra/layouts/grid/../flex/../../../core/lv_obj_style_gen.h **** static inline lv_opa_t lv_obj_get_style_outline_opa(const struct _lv_obj_t * obj, uint32_t part)
 290:Drivers/lvgl/src/extra/layouts/grid/../flex/../../../core/lv_obj_style_gen.h **** {
 291:Drivers/lvgl/src/extra/layouts/grid/../flex/../../../core/lv_obj_style_gen.h ****     lv_style_value_t v = lv_obj_get_style_prop(obj, part, LV_STYLE_OUTLINE_OPA);
 292:Drivers/lvgl/src/extra/layouts/grid/../flex/../../../core/lv_obj_style_gen.h ****     return (lv_opa_t)v.num;
 293:Drivers/lvgl/src/extra/layouts/grid/../flex/../../../core/lv_obj_style_gen.h **** }
 294:Drivers/lvgl/src/extra/layouts/grid/../flex/../../../core/lv_obj_style_gen.h **** 
 295:Drivers/lvgl/src/extra/layouts/grid/../flex/../../../core/lv_obj_style_gen.h **** static inline lv_coord_t lv_obj_get_style_outline_pad(const struct _lv_obj_t * obj, uint32_t part)
 296:Drivers/lvgl/src/extra/layouts/grid/../flex/../../../core/lv_obj_style_gen.h **** {
 297:Drivers/lvgl/src/extra/layouts/grid/../flex/../../../core/lv_obj_style_gen.h ****     lv_style_value_t v = lv_obj_get_style_prop(obj, part, LV_STYLE_OUTLINE_PAD);
 298:Drivers/lvgl/src/extra/layouts/grid/../flex/../../../core/lv_obj_style_gen.h ****     return (lv_coord_t)v.num;
 299:Drivers/lvgl/src/extra/layouts/grid/../flex/../../../core/lv_obj_style_gen.h **** }
 300:Drivers/lvgl/src/extra/layouts/grid/../flex/../../../core/lv_obj_style_gen.h **** 
 301:Drivers/lvgl/src/extra/layouts/grid/../flex/../../../core/lv_obj_style_gen.h **** static inline lv_coord_t lv_obj_get_style_shadow_width(const struct _lv_obj_t * obj, uint32_t part)
 302:Drivers/lvgl/src/extra/layouts/grid/../flex/../../../core/lv_obj_style_gen.h **** {
 303:Drivers/lvgl/src/extra/layouts/grid/../flex/../../../core/lv_obj_style_gen.h ****     lv_style_value_t v = lv_obj_get_style_prop(obj, part, LV_STYLE_SHADOW_WIDTH);
 304:Drivers/lvgl/src/extra/layouts/grid/../flex/../../../core/lv_obj_style_gen.h ****     return (lv_coord_t)v.num;
 305:Drivers/lvgl/src/extra/layouts/grid/../flex/../../../core/lv_obj_style_gen.h **** }
 306:Drivers/lvgl/src/extra/layouts/grid/../flex/../../../core/lv_obj_style_gen.h **** 
 307:Drivers/lvgl/src/extra/layouts/grid/../flex/../../../core/lv_obj_style_gen.h **** static inline lv_coord_t lv_obj_get_style_shadow_ofs_x(const struct _lv_obj_t * obj, uint32_t part)
 308:Drivers/lvgl/src/extra/layouts/grid/../flex/../../../core/lv_obj_style_gen.h **** {
 309:Drivers/lvgl/src/extra/layouts/grid/../flex/../../../core/lv_obj_style_gen.h ****     lv_style_value_t v = lv_obj_get_style_prop(obj, part, LV_STYLE_SHADOW_OFS_X);
 310:Drivers/lvgl/src/extra/layouts/grid/../flex/../../../core/lv_obj_style_gen.h ****     return (lv_coord_t)v.num;
 311:Drivers/lvgl/src/extra/layouts/grid/../flex/../../../core/lv_obj_style_gen.h **** }
 312:Drivers/lvgl/src/extra/layouts/grid/../flex/../../../core/lv_obj_style_gen.h **** 
 313:Drivers/lvgl/src/extra/layouts/grid/../flex/../../../core/lv_obj_style_gen.h **** static inline lv_coord_t lv_obj_get_style_shadow_ofs_y(const struct _lv_obj_t * obj, uint32_t part)
 314:Drivers/lvgl/src/extra/layouts/grid/../flex/../../../core/lv_obj_style_gen.h **** {
 315:Drivers/lvgl/src/extra/layouts/grid/../flex/../../../core/lv_obj_style_gen.h ****     lv_style_value_t v = lv_obj_get_style_prop(obj, part, LV_STYLE_SHADOW_OFS_Y);
 316:Drivers/lvgl/src/extra/layouts/grid/../flex/../../../core/lv_obj_style_gen.h ****     return (lv_coord_t)v.num;
 317:Drivers/lvgl/src/extra/layouts/grid/../flex/../../../core/lv_obj_style_gen.h **** }
 318:Drivers/lvgl/src/extra/layouts/grid/../flex/../../../core/lv_obj_style_gen.h **** 
 319:Drivers/lvgl/src/extra/layouts/grid/../flex/../../../core/lv_obj_style_gen.h **** static inline lv_coord_t lv_obj_get_style_shadow_spread(const struct _lv_obj_t * obj, uint32_t part
ARM GAS  /var/folders/lp/x54gwt890xv47sdkqj1k04q40000gn/T//cc3Qko3C.s 			page 63


 320:Drivers/lvgl/src/extra/layouts/grid/../flex/../../../core/lv_obj_style_gen.h **** {
 321:Drivers/lvgl/src/extra/layouts/grid/../flex/../../../core/lv_obj_style_gen.h ****     lv_style_value_t v = lv_obj_get_style_prop(obj, part, LV_STYLE_SHADOW_SPREAD);
 322:Drivers/lvgl/src/extra/layouts/grid/../flex/../../../core/lv_obj_style_gen.h ****     return (lv_coord_t)v.num;
 323:Drivers/lvgl/src/extra/layouts/grid/../flex/../../../core/lv_obj_style_gen.h **** }
 324:Drivers/lvgl/src/extra/layouts/grid/../flex/../../../core/lv_obj_style_gen.h **** 
 325:Drivers/lvgl/src/extra/layouts/grid/../flex/../../../core/lv_obj_style_gen.h **** static inline lv_color_t lv_obj_get_style_shadow_color(const struct _lv_obj_t * obj, uint32_t part)
 326:Drivers/lvgl/src/extra/layouts/grid/../flex/../../../core/lv_obj_style_gen.h **** {
 327:Drivers/lvgl/src/extra/layouts/grid/../flex/../../../core/lv_obj_style_gen.h ****     lv_style_value_t v = lv_obj_get_style_prop(obj, part, LV_STYLE_SHADOW_COLOR);
 328:Drivers/lvgl/src/extra/layouts/grid/../flex/../../../core/lv_obj_style_gen.h ****     return v.color;
 329:Drivers/lvgl/src/extra/layouts/grid/../flex/../../../core/lv_obj_style_gen.h **** }
 330:Drivers/lvgl/src/extra/layouts/grid/../flex/../../../core/lv_obj_style_gen.h **** 
 331:Drivers/lvgl/src/extra/layouts/grid/../flex/../../../core/lv_obj_style_gen.h **** static inline lv_color_t lv_obj_get_style_shadow_color_filtered(const struct _lv_obj_t * obj, uint3
 332:Drivers/lvgl/src/extra/layouts/grid/../flex/../../../core/lv_obj_style_gen.h **** {
 333:Drivers/lvgl/src/extra/layouts/grid/../flex/../../../core/lv_obj_style_gen.h ****     lv_style_value_t v = _lv_obj_style_apply_color_filter(obj, part, lv_obj_get_style_prop(obj, par
 334:Drivers/lvgl/src/extra/layouts/grid/../flex/../../../core/lv_obj_style_gen.h ****     return v.color;
 335:Drivers/lvgl/src/extra/layouts/grid/../flex/../../../core/lv_obj_style_gen.h **** }
 336:Drivers/lvgl/src/extra/layouts/grid/../flex/../../../core/lv_obj_style_gen.h **** 
 337:Drivers/lvgl/src/extra/layouts/grid/../flex/../../../core/lv_obj_style_gen.h **** static inline lv_opa_t lv_obj_get_style_shadow_opa(const struct _lv_obj_t * obj, uint32_t part)
 338:Drivers/lvgl/src/extra/layouts/grid/../flex/../../../core/lv_obj_style_gen.h **** {
 339:Drivers/lvgl/src/extra/layouts/grid/../flex/../../../core/lv_obj_style_gen.h ****     lv_style_value_t v = lv_obj_get_style_prop(obj, part, LV_STYLE_SHADOW_OPA);
 340:Drivers/lvgl/src/extra/layouts/grid/../flex/../../../core/lv_obj_style_gen.h ****     return (lv_opa_t)v.num;
 341:Drivers/lvgl/src/extra/layouts/grid/../flex/../../../core/lv_obj_style_gen.h **** }
 342:Drivers/lvgl/src/extra/layouts/grid/../flex/../../../core/lv_obj_style_gen.h **** 
 343:Drivers/lvgl/src/extra/layouts/grid/../flex/../../../core/lv_obj_style_gen.h **** static inline lv_opa_t lv_obj_get_style_img_opa(const struct _lv_obj_t * obj, uint32_t part)
 344:Drivers/lvgl/src/extra/layouts/grid/../flex/../../../core/lv_obj_style_gen.h **** {
 345:Drivers/lvgl/src/extra/layouts/grid/../flex/../../../core/lv_obj_style_gen.h ****     lv_style_value_t v = lv_obj_get_style_prop(obj, part, LV_STYLE_IMG_OPA);
 346:Drivers/lvgl/src/extra/layouts/grid/../flex/../../../core/lv_obj_style_gen.h ****     return (lv_opa_t)v.num;
 347:Drivers/lvgl/src/extra/layouts/grid/../flex/../../../core/lv_obj_style_gen.h **** }
 348:Drivers/lvgl/src/extra/layouts/grid/../flex/../../../core/lv_obj_style_gen.h **** 
 349:Drivers/lvgl/src/extra/layouts/grid/../flex/../../../core/lv_obj_style_gen.h **** static inline lv_color_t lv_obj_get_style_img_recolor(const struct _lv_obj_t * obj, uint32_t part)
 350:Drivers/lvgl/src/extra/layouts/grid/../flex/../../../core/lv_obj_style_gen.h **** {
 351:Drivers/lvgl/src/extra/layouts/grid/../flex/../../../core/lv_obj_style_gen.h ****     lv_style_value_t v = lv_obj_get_style_prop(obj, part, LV_STYLE_IMG_RECOLOR);
 352:Drivers/lvgl/src/extra/layouts/grid/../flex/../../../core/lv_obj_style_gen.h ****     return v.color;
 353:Drivers/lvgl/src/extra/layouts/grid/../flex/../../../core/lv_obj_style_gen.h **** }
 354:Drivers/lvgl/src/extra/layouts/grid/../flex/../../../core/lv_obj_style_gen.h **** 
 355:Drivers/lvgl/src/extra/layouts/grid/../flex/../../../core/lv_obj_style_gen.h **** static inline lv_color_t lv_obj_get_style_img_recolor_filtered(const struct _lv_obj_t * obj, uint32
 356:Drivers/lvgl/src/extra/layouts/grid/../flex/../../../core/lv_obj_style_gen.h **** {
