ARM GAS  /var/folders/lp/x54gwt890xv47sdkqj1k04q40000gn/T//ccGwZIp8.s 			page 1


   1              		.cpu cortex-m4
   2              		.arch armv7e-m
   3              		.fpu fpv4-sp-d16
   4              		.eabi_attribute 27, 1
   5              		.eabi_attribute 28, 1
   6              		.eabi_attribute 20, 1
   7              		.eabi_attribute 21, 1
   8              		.eabi_attribute 23, 3
   9              		.eabi_attribute 24, 1
  10              		.eabi_attribute 25, 1
  11              		.eabi_attribute 26, 1
  12              		.eabi_attribute 30, 1
  13              		.eabi_attribute 34, 1
  14              		.eabi_attribute 18, 4
  15              		.file	"lv_hal_disp.c"
  16              		.text
  17              	.Ltext0:
  18              		.cfi_sections	.debug_frame
  19              		.file 1 "Drivers/lvgl/src/hal/lv_hal_disp.c"
  20              		.section	.text.lv_color_to32,"ax",%progbits
  21              		.align	1
  22              		.syntax unified
  23              		.thumb
  24              		.thumb_func
  26              	lv_color_to32:
  27              	.LVL0:
  28              	.LFB11:
  29              		.file 2 "Drivers/lvgl/src/hal/../draw/../misc/lv_color.h"
   1:Drivers/lvgl/src/hal/../draw/../misc/lv_color.h **** /**
   2:Drivers/lvgl/src/hal/../draw/../misc/lv_color.h ****  * @file lv_color.h
   3:Drivers/lvgl/src/hal/../draw/../misc/lv_color.h ****  *
   4:Drivers/lvgl/src/hal/../draw/../misc/lv_color.h ****  */
   5:Drivers/lvgl/src/hal/../draw/../misc/lv_color.h **** 
   6:Drivers/lvgl/src/hal/../draw/../misc/lv_color.h **** #ifndef LV_COLOR_H
   7:Drivers/lvgl/src/hal/../draw/../misc/lv_color.h **** #define LV_COLOR_H
   8:Drivers/lvgl/src/hal/../draw/../misc/lv_color.h **** 
   9:Drivers/lvgl/src/hal/../draw/../misc/lv_color.h **** #ifdef __cplusplus
  10:Drivers/lvgl/src/hal/../draw/../misc/lv_color.h **** extern "C" {
  11:Drivers/lvgl/src/hal/../draw/../misc/lv_color.h **** #endif
  12:Drivers/lvgl/src/hal/../draw/../misc/lv_color.h **** 
  13:Drivers/lvgl/src/hal/../draw/../misc/lv_color.h **** /*********************
  14:Drivers/lvgl/src/hal/../draw/../misc/lv_color.h ****  *      INCLUDES
  15:Drivers/lvgl/src/hal/../draw/../misc/lv_color.h ****  *********************/
  16:Drivers/lvgl/src/hal/../draw/../misc/lv_color.h **** #include "../lv_conf_internal.h"
  17:Drivers/lvgl/src/hal/../draw/../misc/lv_color.h **** #include "lv_assert.h"
  18:Drivers/lvgl/src/hal/../draw/../misc/lv_color.h **** #include "lv_math.h"
  19:Drivers/lvgl/src/hal/../draw/../misc/lv_color.h **** #include "lv_types.h"
  20:Drivers/lvgl/src/hal/../draw/../misc/lv_color.h **** 
  21:Drivers/lvgl/src/hal/../draw/../misc/lv_color.h **** /*Error checking*/
  22:Drivers/lvgl/src/hal/../draw/../misc/lv_color.h **** #if LV_COLOR_DEPTH == 24
  23:Drivers/lvgl/src/hal/../draw/../misc/lv_color.h **** #error "LV_COLOR_DEPTH 24 is deprecated. Use LV_COLOR_DEPTH 32 instead (lv_conf.h)"
  24:Drivers/lvgl/src/hal/../draw/../misc/lv_color.h **** #endif
  25:Drivers/lvgl/src/hal/../draw/../misc/lv_color.h **** 
  26:Drivers/lvgl/src/hal/../draw/../misc/lv_color.h **** #if LV_COLOR_DEPTH != 16 && LV_COLOR_16_SWAP != 0
  27:Drivers/lvgl/src/hal/../draw/../misc/lv_color.h **** #error "LV_COLOR_16_SWAP requires LV_COLOR_DEPTH == 16. Set it in lv_conf.h"
  28:Drivers/lvgl/src/hal/../draw/../misc/lv_color.h **** #endif
  29:Drivers/lvgl/src/hal/../draw/../misc/lv_color.h **** 
ARM GAS  /var/folders/lp/x54gwt890xv47sdkqj1k04q40000gn/T//ccGwZIp8.s 			page 2


  30:Drivers/lvgl/src/hal/../draw/../misc/lv_color.h **** #include <stdint.h>
  31:Drivers/lvgl/src/hal/../draw/../misc/lv_color.h **** 
  32:Drivers/lvgl/src/hal/../draw/../misc/lv_color.h **** /*********************
  33:Drivers/lvgl/src/hal/../draw/../misc/lv_color.h ****  *      DEFINES
  34:Drivers/lvgl/src/hal/../draw/../misc/lv_color.h ****  *********************/
  35:Drivers/lvgl/src/hal/../draw/../misc/lv_color.h **** LV_EXPORT_CONST_INT(LV_COLOR_DEPTH);
  36:Drivers/lvgl/src/hal/../draw/../misc/lv_color.h **** LV_EXPORT_CONST_INT(LV_COLOR_16_SWAP);
  37:Drivers/lvgl/src/hal/../draw/../misc/lv_color.h **** 
  38:Drivers/lvgl/src/hal/../draw/../misc/lv_color.h **** /**
  39:Drivers/lvgl/src/hal/../draw/../misc/lv_color.h ****  * Opacity percentages.
  40:Drivers/lvgl/src/hal/../draw/../misc/lv_color.h ****  */
  41:Drivers/lvgl/src/hal/../draw/../misc/lv_color.h **** enum {
  42:Drivers/lvgl/src/hal/../draw/../misc/lv_color.h ****     LV_OPA_TRANSP = 0,
  43:Drivers/lvgl/src/hal/../draw/../misc/lv_color.h ****     LV_OPA_0      = 0,
  44:Drivers/lvgl/src/hal/../draw/../misc/lv_color.h ****     LV_OPA_10     = 25,
  45:Drivers/lvgl/src/hal/../draw/../misc/lv_color.h ****     LV_OPA_20     = 51,
  46:Drivers/lvgl/src/hal/../draw/../misc/lv_color.h ****     LV_OPA_30     = 76,
  47:Drivers/lvgl/src/hal/../draw/../misc/lv_color.h ****     LV_OPA_40     = 102,
  48:Drivers/lvgl/src/hal/../draw/../misc/lv_color.h ****     LV_OPA_50     = 127,
  49:Drivers/lvgl/src/hal/../draw/../misc/lv_color.h ****     LV_OPA_60     = 153,
  50:Drivers/lvgl/src/hal/../draw/../misc/lv_color.h ****     LV_OPA_70     = 178,
  51:Drivers/lvgl/src/hal/../draw/../misc/lv_color.h ****     LV_OPA_80     = 204,
  52:Drivers/lvgl/src/hal/../draw/../misc/lv_color.h ****     LV_OPA_90     = 229,
  53:Drivers/lvgl/src/hal/../draw/../misc/lv_color.h ****     LV_OPA_100    = 255,
  54:Drivers/lvgl/src/hal/../draw/../misc/lv_color.h ****     LV_OPA_COVER  = 255,
  55:Drivers/lvgl/src/hal/../draw/../misc/lv_color.h **** };
  56:Drivers/lvgl/src/hal/../draw/../misc/lv_color.h **** 
  57:Drivers/lvgl/src/hal/../draw/../misc/lv_color.h **** #define LV_OPA_MIN 2    /*Opacities below this will be transparent*/
  58:Drivers/lvgl/src/hal/../draw/../misc/lv_color.h **** #define LV_OPA_MAX 253  /*Opacities above this will fully cover*/
  59:Drivers/lvgl/src/hal/../draw/../misc/lv_color.h **** 
  60:Drivers/lvgl/src/hal/../draw/../misc/lv_color.h **** #if LV_COLOR_DEPTH == 1
  61:Drivers/lvgl/src/hal/../draw/../misc/lv_color.h **** #define LV_COLOR_SIZE 8
  62:Drivers/lvgl/src/hal/../draw/../misc/lv_color.h **** #elif LV_COLOR_DEPTH == 8
  63:Drivers/lvgl/src/hal/../draw/../misc/lv_color.h **** #define LV_COLOR_SIZE 8
  64:Drivers/lvgl/src/hal/../draw/../misc/lv_color.h **** #elif LV_COLOR_DEPTH == 16
  65:Drivers/lvgl/src/hal/../draw/../misc/lv_color.h **** #define LV_COLOR_SIZE 16
  66:Drivers/lvgl/src/hal/../draw/../misc/lv_color.h **** #elif LV_COLOR_DEPTH == 32
  67:Drivers/lvgl/src/hal/../draw/../misc/lv_color.h **** #define LV_COLOR_SIZE 32
  68:Drivers/lvgl/src/hal/../draw/../misc/lv_color.h **** #else
  69:Drivers/lvgl/src/hal/../draw/../misc/lv_color.h **** #error "Invalid LV_COLOR_DEPTH in lv_conf.h! Set it to 1, 8, 16 or 32!"
  70:Drivers/lvgl/src/hal/../draw/../misc/lv_color.h **** #endif
  71:Drivers/lvgl/src/hal/../draw/../misc/lv_color.h **** 
  72:Drivers/lvgl/src/hal/../draw/../misc/lv_color.h **** #if defined(__cplusplus) && !defined(_LV_COLOR_HAS_MODERN_CPP)
  73:Drivers/lvgl/src/hal/../draw/../misc/lv_color.h **** /**
  74:Drivers/lvgl/src/hal/../draw/../misc/lv_color.h **** * MSVC compiler's definition of the __cplusplus indicating 199711L regardless to C++ standard versi
  75:Drivers/lvgl/src/hal/../draw/../misc/lv_color.h **** * see https://devblogs.microsoft.com/cppblog/msvc-now-correctly-reports-cplusplus
  76:Drivers/lvgl/src/hal/../draw/../misc/lv_color.h **** * so we use _MSC_VER macro instead of __cplusplus
  77:Drivers/lvgl/src/hal/../draw/../misc/lv_color.h **** */
  78:Drivers/lvgl/src/hal/../draw/../misc/lv_color.h **** #ifdef _MSC_VER
  79:Drivers/lvgl/src/hal/../draw/../misc/lv_color.h **** #if _MSC_VER >= 1900 /*Visual Studio 2015*/
  80:Drivers/lvgl/src/hal/../draw/../misc/lv_color.h **** #define _LV_COLOR_HAS_MODERN_CPP 1
  81:Drivers/lvgl/src/hal/../draw/../misc/lv_color.h **** #endif
  82:Drivers/lvgl/src/hal/../draw/../misc/lv_color.h **** #else
  83:Drivers/lvgl/src/hal/../draw/../misc/lv_color.h **** #if __cplusplus >= 201103L
  84:Drivers/lvgl/src/hal/../draw/../misc/lv_color.h **** #define _LV_COLOR_HAS_MODERN_CPP 1
  85:Drivers/lvgl/src/hal/../draw/../misc/lv_color.h **** #endif
  86:Drivers/lvgl/src/hal/../draw/../misc/lv_color.h **** #endif
ARM GAS  /var/folders/lp/x54gwt890xv47sdkqj1k04q40000gn/T//ccGwZIp8.s 			page 3


  87:Drivers/lvgl/src/hal/../draw/../misc/lv_color.h **** #endif /*__cplusplus*/
  88:Drivers/lvgl/src/hal/../draw/../misc/lv_color.h **** 
  89:Drivers/lvgl/src/hal/../draw/../misc/lv_color.h **** #ifndef _LV_COLOR_HAS_MODERN_CPP
  90:Drivers/lvgl/src/hal/../draw/../misc/lv_color.h **** #define _LV_COLOR_HAS_MODERN_CPP 0
  91:Drivers/lvgl/src/hal/../draw/../misc/lv_color.h **** #endif
  92:Drivers/lvgl/src/hal/../draw/../misc/lv_color.h **** 
  93:Drivers/lvgl/src/hal/../draw/../misc/lv_color.h **** #if _LV_COLOR_HAS_MODERN_CPP
  94:Drivers/lvgl/src/hal/../draw/../misc/lv_color.h **** /*Fix msvc compiler error C4576 inside C++ code*/
  95:Drivers/lvgl/src/hal/../draw/../misc/lv_color.h **** #define _LV_COLOR_MAKE_TYPE_HELPER lv_color_t
  96:Drivers/lvgl/src/hal/../draw/../misc/lv_color.h **** #else
  97:Drivers/lvgl/src/hal/../draw/../misc/lv_color.h **** #define _LV_COLOR_MAKE_TYPE_HELPER (lv_color_t)
  98:Drivers/lvgl/src/hal/../draw/../misc/lv_color.h **** #endif
  99:Drivers/lvgl/src/hal/../draw/../misc/lv_color.h **** 
 100:Drivers/lvgl/src/hal/../draw/../misc/lv_color.h **** /*---------------------------------------
 101:Drivers/lvgl/src/hal/../draw/../misc/lv_color.h ****  * Macros for all existing color depths
 102:Drivers/lvgl/src/hal/../draw/../misc/lv_color.h ****  * to set/get values of the color channels
 103:Drivers/lvgl/src/hal/../draw/../misc/lv_color.h ****  *------------------------------------------*/
 104:Drivers/lvgl/src/hal/../draw/../misc/lv_color.h **** # define LV_COLOR_SET_R1(c, v) (c).ch.red = (uint8_t)((v) & 0x1)
 105:Drivers/lvgl/src/hal/../draw/../misc/lv_color.h **** # define LV_COLOR_SET_G1(c, v) (c).ch.green = (uint8_t)((v) & 0x1)
 106:Drivers/lvgl/src/hal/../draw/../misc/lv_color.h **** # define LV_COLOR_SET_B1(c, v) (c).ch.blue = (uint8_t)((v) & 0x1)
 107:Drivers/lvgl/src/hal/../draw/../misc/lv_color.h **** # define LV_COLOR_SET_A1(c, v) do {} while(0)
 108:Drivers/lvgl/src/hal/../draw/../misc/lv_color.h **** 
 109:Drivers/lvgl/src/hal/../draw/../misc/lv_color.h **** # define LV_COLOR_GET_R1(c) (c).ch.red
 110:Drivers/lvgl/src/hal/../draw/../misc/lv_color.h **** # define LV_COLOR_GET_G1(c) (c).ch.green
 111:Drivers/lvgl/src/hal/../draw/../misc/lv_color.h **** # define LV_COLOR_GET_B1(c) (c).ch.blue
 112:Drivers/lvgl/src/hal/../draw/../misc/lv_color.h **** # define LV_COLOR_GET_A1(c) 0xFF
 113:Drivers/lvgl/src/hal/../draw/../misc/lv_color.h **** 
 114:Drivers/lvgl/src/hal/../draw/../misc/lv_color.h **** # define _LV_COLOR_ZERO_INITIALIZER1 {0x00}
 115:Drivers/lvgl/src/hal/../draw/../misc/lv_color.h **** # define LV_COLOR_MAKE1(r8, g8, b8)  {(uint8_t)((b8 >> 7) | (g8 >> 7) | (r8 >> 7))}
 116:Drivers/lvgl/src/hal/../draw/../misc/lv_color.h **** 
 117:Drivers/lvgl/src/hal/../draw/../misc/lv_color.h **** # define LV_COLOR_SET_R8(c, v) (c).ch.red = (uint8_t)((v) & 0x7U)
 118:Drivers/lvgl/src/hal/../draw/../misc/lv_color.h **** # define LV_COLOR_SET_G8(c, v) (c).ch.green = (uint8_t)((v) & 0x7U)
 119:Drivers/lvgl/src/hal/../draw/../misc/lv_color.h **** # define LV_COLOR_SET_B8(c, v) (c).ch.blue = (uint8_t)((v) & 0x3U)
 120:Drivers/lvgl/src/hal/../draw/../misc/lv_color.h **** # define LV_COLOR_SET_A8(c, v) do {} while(0)
 121:Drivers/lvgl/src/hal/../draw/../misc/lv_color.h **** 
 122:Drivers/lvgl/src/hal/../draw/../misc/lv_color.h **** # define LV_COLOR_GET_R8(c) (c).ch.red
 123:Drivers/lvgl/src/hal/../draw/../misc/lv_color.h **** # define LV_COLOR_GET_G8(c) (c).ch.green
 124:Drivers/lvgl/src/hal/../draw/../misc/lv_color.h **** # define LV_COLOR_GET_B8(c) (c).ch.blue
 125:Drivers/lvgl/src/hal/../draw/../misc/lv_color.h **** # define LV_COLOR_GET_A8(c) 0xFF
 126:Drivers/lvgl/src/hal/../draw/../misc/lv_color.h **** 
 127:Drivers/lvgl/src/hal/../draw/../misc/lv_color.h **** # define _LV_COLOR_ZERO_INITIALIZER8 {{0x00, 0x00, 0x00}}
 128:Drivers/lvgl/src/hal/../draw/../misc/lv_color.h **** # define LV_COLOR_MAKE8(r8, g8, b8) {{(uint8_t)((b8 >> 6) & 0x3U), (uint8_t)((g8 >> 5) & 0x7U), (ui
 129:Drivers/lvgl/src/hal/../draw/../misc/lv_color.h **** 
 130:Drivers/lvgl/src/hal/../draw/../misc/lv_color.h **** # define LV_COLOR_SET_R16(c, v) (c).ch.red = (uint8_t)((v) & 0x1FU)
 131:Drivers/lvgl/src/hal/../draw/../misc/lv_color.h **** #if LV_COLOR_16_SWAP == 0
 132:Drivers/lvgl/src/hal/../draw/../misc/lv_color.h **** # define LV_COLOR_SET_G16(c, v) (c).ch.green = (uint8_t)((v) & 0x3FU)
 133:Drivers/lvgl/src/hal/../draw/../misc/lv_color.h **** #else
 134:Drivers/lvgl/src/hal/../draw/../misc/lv_color.h **** # define LV_COLOR_SET_G16(c, v) {(c).ch.green_h = (uint8_t)(((v) >> 3) & 0x7); (c).ch.green_l = (ui
 135:Drivers/lvgl/src/hal/../draw/../misc/lv_color.h **** #endif
 136:Drivers/lvgl/src/hal/../draw/../misc/lv_color.h **** # define LV_COLOR_SET_B16(c, v) (c).ch.blue = (uint8_t)((v) & 0x1FU)
 137:Drivers/lvgl/src/hal/../draw/../misc/lv_color.h **** # define LV_COLOR_SET_A16(c, v) do {} while(0)
 138:Drivers/lvgl/src/hal/../draw/../misc/lv_color.h **** 
 139:Drivers/lvgl/src/hal/../draw/../misc/lv_color.h **** # define LV_COLOR_GET_R16(c) (c).ch.red
 140:Drivers/lvgl/src/hal/../draw/../misc/lv_color.h **** #if LV_COLOR_16_SWAP == 0
 141:Drivers/lvgl/src/hal/../draw/../misc/lv_color.h **** # define LV_COLOR_GET_G16(c) (c).ch.green
 142:Drivers/lvgl/src/hal/../draw/../misc/lv_color.h **** #else
 143:Drivers/lvgl/src/hal/../draw/../misc/lv_color.h **** # define LV_COLOR_GET_G16(c) (((c).ch.green_h << 3) + (c).ch.green_l)
ARM GAS  /var/folders/lp/x54gwt890xv47sdkqj1k04q40000gn/T//ccGwZIp8.s 			page 4


 144:Drivers/lvgl/src/hal/../draw/../misc/lv_color.h **** #endif
 145:Drivers/lvgl/src/hal/../draw/../misc/lv_color.h **** # define LV_COLOR_GET_B16(c) (c).ch.blue
 146:Drivers/lvgl/src/hal/../draw/../misc/lv_color.h **** # define LV_COLOR_GET_A16(c) 0xFF
 147:Drivers/lvgl/src/hal/../draw/../misc/lv_color.h **** 
 148:Drivers/lvgl/src/hal/../draw/../misc/lv_color.h **** #if LV_COLOR_16_SWAP == 0
 149:Drivers/lvgl/src/hal/../draw/../misc/lv_color.h **** # define _LV_COLOR_ZERO_INITIALIZER16  {{0x00, 0x00, 0x00}}
 150:Drivers/lvgl/src/hal/../draw/../misc/lv_color.h **** # define LV_COLOR_MAKE16(r8, g8, b8) {{(uint8_t)((b8 >> 3) & 0x1FU), (uint8_t)((g8 >> 2) & 0x3FU), 
 151:Drivers/lvgl/src/hal/../draw/../misc/lv_color.h **** #else
 152:Drivers/lvgl/src/hal/../draw/../misc/lv_color.h **** # define _LV_COLOR_ZERO_INITIALIZER16 {{0x00, 0x00, 0x00, 0x00}}
 153:Drivers/lvgl/src/hal/../draw/../misc/lv_color.h **** # define LV_COLOR_MAKE16(r8, g8, b8) {{(uint8_t)((g8 >> 5) & 0x7U), (uint8_t)((r8 >> 3) & 0x1FU), (
 154:Drivers/lvgl/src/hal/../draw/../misc/lv_color.h **** #endif
 155:Drivers/lvgl/src/hal/../draw/../misc/lv_color.h **** 
 156:Drivers/lvgl/src/hal/../draw/../misc/lv_color.h **** # define LV_COLOR_SET_R32(c, v) (c).ch.red = (uint8_t)((v) & 0xFF)
 157:Drivers/lvgl/src/hal/../draw/../misc/lv_color.h **** # define LV_COLOR_SET_G32(c, v) (c).ch.green = (uint8_t)((v) & 0xFF)
 158:Drivers/lvgl/src/hal/../draw/../misc/lv_color.h **** # define LV_COLOR_SET_B32(c, v) (c).ch.blue = (uint8_t)((v) & 0xFF)
 159:Drivers/lvgl/src/hal/../draw/../misc/lv_color.h **** # define LV_COLOR_SET_A32(c, v) (c).ch.alpha = (uint8_t)((v) & 0xFF)
 160:Drivers/lvgl/src/hal/../draw/../misc/lv_color.h **** 
 161:Drivers/lvgl/src/hal/../draw/../misc/lv_color.h **** # define LV_COLOR_GET_R32(c) (c).ch.red
 162:Drivers/lvgl/src/hal/../draw/../misc/lv_color.h **** # define LV_COLOR_GET_G32(c) (c).ch.green
 163:Drivers/lvgl/src/hal/../draw/../misc/lv_color.h **** # define LV_COLOR_GET_B32(c) (c).ch.blue
 164:Drivers/lvgl/src/hal/../draw/../misc/lv_color.h **** # define LV_COLOR_GET_A32(c) (c).ch.alpha
 165:Drivers/lvgl/src/hal/../draw/../misc/lv_color.h **** 
 166:Drivers/lvgl/src/hal/../draw/../misc/lv_color.h **** # define _LV_COLOR_ZERO_INITIALIZER32  {{0x00, 0x00, 0x00, 0x00}}
 167:Drivers/lvgl/src/hal/../draw/../misc/lv_color.h **** # define LV_COLOR_MAKE32(r8, g8, b8) {{b8, g8, r8, 0xff}} /*Fix 0xff alpha*/
 168:Drivers/lvgl/src/hal/../draw/../misc/lv_color.h **** 
 169:Drivers/lvgl/src/hal/../draw/../misc/lv_color.h **** /*---------------------------------------
 170:Drivers/lvgl/src/hal/../draw/../misc/lv_color.h ****  * Macros for the current color depth
 171:Drivers/lvgl/src/hal/../draw/../misc/lv_color.h ****  * to set/get values of the color channels
 172:Drivers/lvgl/src/hal/../draw/../misc/lv_color.h ****  *------------------------------------------*/
 173:Drivers/lvgl/src/hal/../draw/../misc/lv_color.h **** #define LV_COLOR_SET_R(c, v) LV_CONCAT(LV_COLOR_SET_R, LV_COLOR_DEPTH)(c, v)
 174:Drivers/lvgl/src/hal/../draw/../misc/lv_color.h **** #define LV_COLOR_SET_G(c, v) LV_CONCAT(LV_COLOR_SET_G, LV_COLOR_DEPTH)(c, v)
 175:Drivers/lvgl/src/hal/../draw/../misc/lv_color.h **** #define LV_COLOR_SET_B(c, v) LV_CONCAT(LV_COLOR_SET_B, LV_COLOR_DEPTH)(c, v)
 176:Drivers/lvgl/src/hal/../draw/../misc/lv_color.h **** #define LV_COLOR_SET_A(c, v) LV_CONCAT(LV_COLOR_SET_A, LV_COLOR_DEPTH)(c, v)
 177:Drivers/lvgl/src/hal/../draw/../misc/lv_color.h **** 
 178:Drivers/lvgl/src/hal/../draw/../misc/lv_color.h **** #define LV_COLOR_GET_R(c) LV_CONCAT(LV_COLOR_GET_R, LV_COLOR_DEPTH)(c)
 179:Drivers/lvgl/src/hal/../draw/../misc/lv_color.h **** #define LV_COLOR_GET_G(c) LV_CONCAT(LV_COLOR_GET_G, LV_COLOR_DEPTH)(c)
 180:Drivers/lvgl/src/hal/../draw/../misc/lv_color.h **** #define LV_COLOR_GET_B(c) LV_CONCAT(LV_COLOR_GET_B, LV_COLOR_DEPTH)(c)
 181:Drivers/lvgl/src/hal/../draw/../misc/lv_color.h **** #define LV_COLOR_GET_A(c) LV_CONCAT(LV_COLOR_GET_A, LV_COLOR_DEPTH)(c)
 182:Drivers/lvgl/src/hal/../draw/../misc/lv_color.h **** 
 183:Drivers/lvgl/src/hal/../draw/../misc/lv_color.h **** #define _LV_COLOR_ZERO_INITIALIZER LV_CONCAT(_LV_COLOR_ZERO_INITIALIZER, LV_COLOR_DEPTH)
 184:Drivers/lvgl/src/hal/../draw/../misc/lv_color.h **** #define LV_COLOR_MAKE(r8, g8, b8) LV_CONCAT(LV_COLOR_MAKE, LV_COLOR_DEPTH)(r8, g8, b8)
 185:Drivers/lvgl/src/hal/../draw/../misc/lv_color.h **** 
 186:Drivers/lvgl/src/hal/../draw/../misc/lv_color.h **** /**********************
 187:Drivers/lvgl/src/hal/../draw/../misc/lv_color.h ****  *      TYPEDEFS
 188:Drivers/lvgl/src/hal/../draw/../misc/lv_color.h ****  **********************/
 189:Drivers/lvgl/src/hal/../draw/../misc/lv_color.h **** 
 190:Drivers/lvgl/src/hal/../draw/../misc/lv_color.h **** typedef union {
 191:Drivers/lvgl/src/hal/../draw/../misc/lv_color.h ****     uint8_t full; /*must be declared first to set all bits of byte via initializer list*/
 192:Drivers/lvgl/src/hal/../draw/../misc/lv_color.h ****     union {
 193:Drivers/lvgl/src/hal/../draw/../misc/lv_color.h ****         uint8_t blue : 1;
 194:Drivers/lvgl/src/hal/../draw/../misc/lv_color.h ****         uint8_t green : 1;
 195:Drivers/lvgl/src/hal/../draw/../misc/lv_color.h ****         uint8_t red : 1;
 196:Drivers/lvgl/src/hal/../draw/../misc/lv_color.h ****     } ch;
 197:Drivers/lvgl/src/hal/../draw/../misc/lv_color.h **** } lv_color1_t;
 198:Drivers/lvgl/src/hal/../draw/../misc/lv_color.h **** 
 199:Drivers/lvgl/src/hal/../draw/../misc/lv_color.h **** typedef union {
 200:Drivers/lvgl/src/hal/../draw/../misc/lv_color.h ****     struct {
ARM GAS  /var/folders/lp/x54gwt890xv47sdkqj1k04q40000gn/T//ccGwZIp8.s 			page 5


 201:Drivers/lvgl/src/hal/../draw/../misc/lv_color.h ****         uint8_t blue : 2;
 202:Drivers/lvgl/src/hal/../draw/../misc/lv_color.h ****         uint8_t green : 3;
 203:Drivers/lvgl/src/hal/../draw/../misc/lv_color.h ****         uint8_t red : 3;
 204:Drivers/lvgl/src/hal/../draw/../misc/lv_color.h ****     } ch;
 205:Drivers/lvgl/src/hal/../draw/../misc/lv_color.h ****     uint8_t full;
 206:Drivers/lvgl/src/hal/../draw/../misc/lv_color.h **** } lv_color8_t;
 207:Drivers/lvgl/src/hal/../draw/../misc/lv_color.h **** 
 208:Drivers/lvgl/src/hal/../draw/../misc/lv_color.h **** typedef union {
 209:Drivers/lvgl/src/hal/../draw/../misc/lv_color.h ****     struct {
 210:Drivers/lvgl/src/hal/../draw/../misc/lv_color.h **** #if LV_COLOR_16_SWAP == 0
 211:Drivers/lvgl/src/hal/../draw/../misc/lv_color.h ****         uint16_t blue : 5;
 212:Drivers/lvgl/src/hal/../draw/../misc/lv_color.h ****         uint16_t green : 6;
 213:Drivers/lvgl/src/hal/../draw/../misc/lv_color.h ****         uint16_t red : 5;
 214:Drivers/lvgl/src/hal/../draw/../misc/lv_color.h **** #else
 215:Drivers/lvgl/src/hal/../draw/../misc/lv_color.h ****         uint16_t green_h : 3;
 216:Drivers/lvgl/src/hal/../draw/../misc/lv_color.h ****         uint16_t red : 5;
 217:Drivers/lvgl/src/hal/../draw/../misc/lv_color.h ****         uint16_t blue : 5;
 218:Drivers/lvgl/src/hal/../draw/../misc/lv_color.h ****         uint16_t green_l : 3;
 219:Drivers/lvgl/src/hal/../draw/../misc/lv_color.h **** #endif
 220:Drivers/lvgl/src/hal/../draw/../misc/lv_color.h ****     } ch;
 221:Drivers/lvgl/src/hal/../draw/../misc/lv_color.h ****     uint16_t full;
 222:Drivers/lvgl/src/hal/../draw/../misc/lv_color.h **** } lv_color16_t;
 223:Drivers/lvgl/src/hal/../draw/../misc/lv_color.h **** 
 224:Drivers/lvgl/src/hal/../draw/../misc/lv_color.h **** typedef union {
 225:Drivers/lvgl/src/hal/../draw/../misc/lv_color.h ****     struct {
 226:Drivers/lvgl/src/hal/../draw/../misc/lv_color.h ****         uint8_t blue;
 227:Drivers/lvgl/src/hal/../draw/../misc/lv_color.h ****         uint8_t green;
 228:Drivers/lvgl/src/hal/../draw/../misc/lv_color.h ****         uint8_t red;
 229:Drivers/lvgl/src/hal/../draw/../misc/lv_color.h ****         uint8_t alpha;
 230:Drivers/lvgl/src/hal/../draw/../misc/lv_color.h ****     } ch;
 231:Drivers/lvgl/src/hal/../draw/../misc/lv_color.h ****     uint32_t full;
 232:Drivers/lvgl/src/hal/../draw/../misc/lv_color.h **** } lv_color32_t;
 233:Drivers/lvgl/src/hal/../draw/../misc/lv_color.h **** 
 234:Drivers/lvgl/src/hal/../draw/../misc/lv_color.h **** typedef LV_CONCAT3(uint, LV_COLOR_SIZE, _t) lv_color_int_t;
 235:Drivers/lvgl/src/hal/../draw/../misc/lv_color.h **** typedef LV_CONCAT3(lv_color, LV_COLOR_DEPTH, _t) lv_color_t;
 236:Drivers/lvgl/src/hal/../draw/../misc/lv_color.h **** 
 237:Drivers/lvgl/src/hal/../draw/../misc/lv_color.h **** typedef struct {
 238:Drivers/lvgl/src/hal/../draw/../misc/lv_color.h ****     uint16_t h;
 239:Drivers/lvgl/src/hal/../draw/../misc/lv_color.h ****     uint8_t s;
 240:Drivers/lvgl/src/hal/../draw/../misc/lv_color.h ****     uint8_t v;
 241:Drivers/lvgl/src/hal/../draw/../misc/lv_color.h **** } lv_color_hsv_t;
 242:Drivers/lvgl/src/hal/../draw/../misc/lv_color.h **** 
 243:Drivers/lvgl/src/hal/../draw/../misc/lv_color.h **** //! @cond Doxygen_Suppress
 244:Drivers/lvgl/src/hal/../draw/../misc/lv_color.h **** /*No idea where the guard is required but else throws warnings in the docs*/
 245:Drivers/lvgl/src/hal/../draw/../misc/lv_color.h **** typedef uint8_t lv_opa_t;
 246:Drivers/lvgl/src/hal/../draw/../misc/lv_color.h **** //! @endcond
 247:Drivers/lvgl/src/hal/../draw/../misc/lv_color.h **** 
 248:Drivers/lvgl/src/hal/../draw/../misc/lv_color.h **** struct _lv_color_filter_dsc_t;
 249:Drivers/lvgl/src/hal/../draw/../misc/lv_color.h **** 
 250:Drivers/lvgl/src/hal/../draw/../misc/lv_color.h **** typedef lv_color_t (*lv_color_filter_cb_t)(const struct _lv_color_filter_dsc_t *, lv_color_t, lv_op
 251:Drivers/lvgl/src/hal/../draw/../misc/lv_color.h **** 
 252:Drivers/lvgl/src/hal/../draw/../misc/lv_color.h **** typedef struct _lv_color_filter_dsc_t {
 253:Drivers/lvgl/src/hal/../draw/../misc/lv_color.h ****     lv_color_filter_cb_t filter_cb;
 254:Drivers/lvgl/src/hal/../draw/../misc/lv_color.h ****     void * user_data;
 255:Drivers/lvgl/src/hal/../draw/../misc/lv_color.h **** } lv_color_filter_dsc_t;
 256:Drivers/lvgl/src/hal/../draw/../misc/lv_color.h **** 
 257:Drivers/lvgl/src/hal/../draw/../misc/lv_color.h **** 
ARM GAS  /var/folders/lp/x54gwt890xv47sdkqj1k04q40000gn/T//ccGwZIp8.s 			page 6


 258:Drivers/lvgl/src/hal/../draw/../misc/lv_color.h **** typedef enum {
 259:Drivers/lvgl/src/hal/../draw/../misc/lv_color.h ****     LV_PALETTE_RED,
 260:Drivers/lvgl/src/hal/../draw/../misc/lv_color.h ****     LV_PALETTE_PINK,
 261:Drivers/lvgl/src/hal/../draw/../misc/lv_color.h ****     LV_PALETTE_PURPLE,
 262:Drivers/lvgl/src/hal/../draw/../misc/lv_color.h ****     LV_PALETTE_DEEP_PURPLE,
 263:Drivers/lvgl/src/hal/../draw/../misc/lv_color.h ****     LV_PALETTE_INDIGO,
 264:Drivers/lvgl/src/hal/../draw/../misc/lv_color.h ****     LV_PALETTE_BLUE,
 265:Drivers/lvgl/src/hal/../draw/../misc/lv_color.h ****     LV_PALETTE_LIGHT_BLUE,
 266:Drivers/lvgl/src/hal/../draw/../misc/lv_color.h ****     LV_PALETTE_CYAN,
 267:Drivers/lvgl/src/hal/../draw/../misc/lv_color.h ****     LV_PALETTE_TEAL,
 268:Drivers/lvgl/src/hal/../draw/../misc/lv_color.h ****     LV_PALETTE_GREEN,
 269:Drivers/lvgl/src/hal/../draw/../misc/lv_color.h ****     LV_PALETTE_LIGHT_GREEN,
 270:Drivers/lvgl/src/hal/../draw/../misc/lv_color.h ****     LV_PALETTE_LIME,
 271:Drivers/lvgl/src/hal/../draw/../misc/lv_color.h ****     LV_PALETTE_YELLOW,
 272:Drivers/lvgl/src/hal/../draw/../misc/lv_color.h ****     LV_PALETTE_AMBER,
 273:Drivers/lvgl/src/hal/../draw/../misc/lv_color.h ****     LV_PALETTE_ORANGE,
 274:Drivers/lvgl/src/hal/../draw/../misc/lv_color.h ****     LV_PALETTE_DEEP_ORANGE,
 275:Drivers/lvgl/src/hal/../draw/../misc/lv_color.h ****     LV_PALETTE_BROWN,
 276:Drivers/lvgl/src/hal/../draw/../misc/lv_color.h ****     LV_PALETTE_BLUE_GREY,
 277:Drivers/lvgl/src/hal/../draw/../misc/lv_color.h ****     LV_PALETTE_GREY,
 278:Drivers/lvgl/src/hal/../draw/../misc/lv_color.h ****     _LV_PALETTE_LAST,
 279:Drivers/lvgl/src/hal/../draw/../misc/lv_color.h ****     LV_PALETTE_NONE = 0xff,
 280:Drivers/lvgl/src/hal/../draw/../misc/lv_color.h **** } lv_palette_t;
 281:Drivers/lvgl/src/hal/../draw/../misc/lv_color.h **** 
 282:Drivers/lvgl/src/hal/../draw/../misc/lv_color.h **** /**********************
 283:Drivers/lvgl/src/hal/../draw/../misc/lv_color.h ****  * GLOBAL PROTOTYPES
 284:Drivers/lvgl/src/hal/../draw/../misc/lv_color.h ****  **********************/
 285:Drivers/lvgl/src/hal/../draw/../misc/lv_color.h **** 
 286:Drivers/lvgl/src/hal/../draw/../misc/lv_color.h **** /*In color conversations:
 287:Drivers/lvgl/src/hal/../draw/../misc/lv_color.h ****  * - When converting to bigger color type the LSB weight of 1 LSB is calculated
 288:Drivers/lvgl/src/hal/../draw/../misc/lv_color.h ****  *   E.g. 16 bit Red has 5 bits
 289:Drivers/lvgl/src/hal/../draw/../misc/lv_color.h ****  *         8 bit Red has 3 bits
 290:Drivers/lvgl/src/hal/../draw/../misc/lv_color.h ****  *        ----------------------
 291:Drivers/lvgl/src/hal/../draw/../misc/lv_color.h ****  *        8 bit red LSB = (2^5 - 1) / (2^3 - 1) = 31 / 7 = 4
 292:Drivers/lvgl/src/hal/../draw/../misc/lv_color.h ****  *
 293:Drivers/lvgl/src/hal/../draw/../misc/lv_color.h ****  * - When calculating to smaller color type simply shift out the LSBs
 294:Drivers/lvgl/src/hal/../draw/../misc/lv_color.h ****  *   E.g.  8 bit Red has 3 bits
 295:Drivers/lvgl/src/hal/../draw/../misc/lv_color.h ****  *        16 bit Red has 5 bits
 296:Drivers/lvgl/src/hal/../draw/../misc/lv_color.h ****  *        ----------------------
 297:Drivers/lvgl/src/hal/../draw/../misc/lv_color.h ****  *         Shift right with 5 - 3 = 2
 298:Drivers/lvgl/src/hal/../draw/../misc/lv_color.h ****  */
 299:Drivers/lvgl/src/hal/../draw/../misc/lv_color.h **** static inline uint8_t lv_color_to1(lv_color_t color)
 300:Drivers/lvgl/src/hal/../draw/../misc/lv_color.h **** {
 301:Drivers/lvgl/src/hal/../draw/../misc/lv_color.h **** #if LV_COLOR_DEPTH == 1
 302:Drivers/lvgl/src/hal/../draw/../misc/lv_color.h ****     return color.full;
 303:Drivers/lvgl/src/hal/../draw/../misc/lv_color.h **** #elif LV_COLOR_DEPTH == 8
 304:Drivers/lvgl/src/hal/../draw/../misc/lv_color.h ****     if((LV_COLOR_GET_R(color) & 0x4) || (LV_COLOR_GET_G(color) & 0x4) || (LV_COLOR_GET_B(color) & 0
 305:Drivers/lvgl/src/hal/../draw/../misc/lv_color.h ****         return 1;
 306:Drivers/lvgl/src/hal/../draw/../misc/lv_color.h ****     }
 307:Drivers/lvgl/src/hal/../draw/../misc/lv_color.h ****     else {
 308:Drivers/lvgl/src/hal/../draw/../misc/lv_color.h ****         return 0;
 309:Drivers/lvgl/src/hal/../draw/../misc/lv_color.h ****     }
 310:Drivers/lvgl/src/hal/../draw/../misc/lv_color.h **** #elif LV_COLOR_DEPTH == 16
 311:Drivers/lvgl/src/hal/../draw/../misc/lv_color.h ****     if((LV_COLOR_GET_R(color) & 0x10) || (LV_COLOR_GET_G(color) & 0x20) || (LV_COLOR_GET_B(color) &
 312:Drivers/lvgl/src/hal/../draw/../misc/lv_color.h ****         return 1;
 313:Drivers/lvgl/src/hal/../draw/../misc/lv_color.h ****     }
 314:Drivers/lvgl/src/hal/../draw/../misc/lv_color.h ****     else {
ARM GAS  /var/folders/lp/x54gwt890xv47sdkqj1k04q40000gn/T//ccGwZIp8.s 			page 7


 315:Drivers/lvgl/src/hal/../draw/../misc/lv_color.h ****         return 0;
 316:Drivers/lvgl/src/hal/../draw/../misc/lv_color.h ****     }
 317:Drivers/lvgl/src/hal/../draw/../misc/lv_color.h **** #elif LV_COLOR_DEPTH == 32
 318:Drivers/lvgl/src/hal/../draw/../misc/lv_color.h ****     if((LV_COLOR_GET_R(color) & 0x80) || (LV_COLOR_GET_G(color) & 0x80) || (LV_COLOR_GET_B(color) &
 319:Drivers/lvgl/src/hal/../draw/../misc/lv_color.h ****         return 1;
 320:Drivers/lvgl/src/hal/../draw/../misc/lv_color.h ****     }
 321:Drivers/lvgl/src/hal/../draw/../misc/lv_color.h ****     else {
 322:Drivers/lvgl/src/hal/../draw/../misc/lv_color.h ****         return 0;
 323:Drivers/lvgl/src/hal/../draw/../misc/lv_color.h ****     }
 324:Drivers/lvgl/src/hal/../draw/../misc/lv_color.h **** #endif
 325:Drivers/lvgl/src/hal/../draw/../misc/lv_color.h **** }
 326:Drivers/lvgl/src/hal/../draw/../misc/lv_color.h **** 
 327:Drivers/lvgl/src/hal/../draw/../misc/lv_color.h **** static inline uint8_t lv_color_to8(lv_color_t color)
 328:Drivers/lvgl/src/hal/../draw/../misc/lv_color.h **** {
 329:Drivers/lvgl/src/hal/../draw/../misc/lv_color.h **** #if LV_COLOR_DEPTH == 1
 330:Drivers/lvgl/src/hal/../draw/../misc/lv_color.h ****     if(color.full == 0)
 331:Drivers/lvgl/src/hal/../draw/../misc/lv_color.h ****         return 0;
 332:Drivers/lvgl/src/hal/../draw/../misc/lv_color.h ****     else
 333:Drivers/lvgl/src/hal/../draw/../misc/lv_color.h ****         return 0xFF;
 334:Drivers/lvgl/src/hal/../draw/../misc/lv_color.h **** #elif LV_COLOR_DEPTH == 8
 335:Drivers/lvgl/src/hal/../draw/../misc/lv_color.h ****     return color.full;
 336:Drivers/lvgl/src/hal/../draw/../misc/lv_color.h **** #elif LV_COLOR_DEPTH == 16
 337:Drivers/lvgl/src/hal/../draw/../misc/lv_color.h ****     lv_color8_t ret;
 338:Drivers/lvgl/src/hal/../draw/../misc/lv_color.h ****     LV_COLOR_SET_R8(ret, LV_COLOR_GET_R(color) >> 2); /*5 - 3  = 2*/
 339:Drivers/lvgl/src/hal/../draw/../misc/lv_color.h ****     LV_COLOR_SET_G8(ret, LV_COLOR_GET_G(color) >> 3); /*6 - 3  = 3*/
 340:Drivers/lvgl/src/hal/../draw/../misc/lv_color.h ****     LV_COLOR_SET_B8(ret, LV_COLOR_GET_B(color) >> 3); /*5 - 2  = 3*/
 341:Drivers/lvgl/src/hal/../draw/../misc/lv_color.h ****     return ret.full;
 342:Drivers/lvgl/src/hal/../draw/../misc/lv_color.h **** #elif LV_COLOR_DEPTH == 32
 343:Drivers/lvgl/src/hal/../draw/../misc/lv_color.h ****     lv_color8_t ret;
 344:Drivers/lvgl/src/hal/../draw/../misc/lv_color.h ****     LV_COLOR_SET_R8(ret, LV_COLOR_GET_R(color) >> 5); /*8 - 3  = 5*/
 345:Drivers/lvgl/src/hal/../draw/../misc/lv_color.h ****     LV_COLOR_SET_G8(ret, LV_COLOR_GET_G(color) >> 5); /*8 - 3  = 5*/
 346:Drivers/lvgl/src/hal/../draw/../misc/lv_color.h ****     LV_COLOR_SET_B8(ret, LV_COLOR_GET_B(color) >> 6); /*8 - 2  = 6*/
 347:Drivers/lvgl/src/hal/../draw/../misc/lv_color.h ****     return ret.full;
 348:Drivers/lvgl/src/hal/../draw/../misc/lv_color.h **** #endif
 349:Drivers/lvgl/src/hal/../draw/../misc/lv_color.h **** }
 350:Drivers/lvgl/src/hal/../draw/../misc/lv_color.h **** 
 351:Drivers/lvgl/src/hal/../draw/../misc/lv_color.h **** static inline uint16_t lv_color_to16(lv_color_t color)
 352:Drivers/lvgl/src/hal/../draw/../misc/lv_color.h **** {
 353:Drivers/lvgl/src/hal/../draw/../misc/lv_color.h **** #if LV_COLOR_DEPTH == 1
 354:Drivers/lvgl/src/hal/../draw/../misc/lv_color.h ****     if(color.full == 0)
 355:Drivers/lvgl/src/hal/../draw/../misc/lv_color.h ****         return 0;
 356:Drivers/lvgl/src/hal/../draw/../misc/lv_color.h ****     else
 357:Drivers/lvgl/src/hal/../draw/../misc/lv_color.h ****         return 0xFFFF;
 358:Drivers/lvgl/src/hal/../draw/../misc/lv_color.h **** #elif LV_COLOR_DEPTH == 8
 359:Drivers/lvgl/src/hal/../draw/../misc/lv_color.h ****     lv_color16_t ret;
 360:Drivers/lvgl/src/hal/../draw/../misc/lv_color.h ****     LV_COLOR_SET_R16(ret, LV_COLOR_GET_R(color) * 4);  /*(2^5 - 1)/(2^3 - 1) = 31/7 = 4*/
 361:Drivers/lvgl/src/hal/../draw/../misc/lv_color.h ****     LV_COLOR_SET_G16(ret, LV_COLOR_GET_G(color) * 9);  /*(2^6 - 1)/(2^3 - 1) = 63/7 = 9*/
 362:Drivers/lvgl/src/hal/../draw/../misc/lv_color.h ****     LV_COLOR_SET_B16(ret, LV_COLOR_GET_B(color) * 10); /*(2^5 - 1)/(2^2 - 1) = 31/3 = 10*/
 363:Drivers/lvgl/src/hal/../draw/../misc/lv_color.h ****     return ret.full;
 364:Drivers/lvgl/src/hal/../draw/../misc/lv_color.h **** #elif LV_COLOR_DEPTH == 16
 365:Drivers/lvgl/src/hal/../draw/../misc/lv_color.h ****     return color.full;
 366:Drivers/lvgl/src/hal/../draw/../misc/lv_color.h **** #elif LV_COLOR_DEPTH == 32
 367:Drivers/lvgl/src/hal/../draw/../misc/lv_color.h ****     lv_color16_t ret;
 368:Drivers/lvgl/src/hal/../draw/../misc/lv_color.h ****     LV_COLOR_SET_R16(ret, LV_COLOR_GET_R(color) >> 3); /*8 - 5  = 3*/
 369:Drivers/lvgl/src/hal/../draw/../misc/lv_color.h ****     LV_COLOR_SET_G16(ret, LV_COLOR_GET_G(color) >> 2); /*8 - 6  = 2*/
 370:Drivers/lvgl/src/hal/../draw/../misc/lv_color.h ****     LV_COLOR_SET_B16(ret, LV_COLOR_GET_B(color) >> 3); /*8 - 5  = 3*/
 371:Drivers/lvgl/src/hal/../draw/../misc/lv_color.h ****     return ret.full;
ARM GAS  /var/folders/lp/x54gwt890xv47sdkqj1k04q40000gn/T//ccGwZIp8.s 			page 8


 372:Drivers/lvgl/src/hal/../draw/../misc/lv_color.h **** #endif
 373:Drivers/lvgl/src/hal/../draw/../misc/lv_color.h **** }
 374:Drivers/lvgl/src/hal/../draw/../misc/lv_color.h **** 
 375:Drivers/lvgl/src/hal/../draw/../misc/lv_color.h **** static inline uint32_t lv_color_to32(lv_color_t color)
 376:Drivers/lvgl/src/hal/../draw/../misc/lv_color.h **** {
  30              		.loc 2 376 1 view -0
  31              		.cfi_startproc
  32              		@ args = 0, pretend = 0, frame = 0
  33              		@ frame_needed = 0, uses_anonymous_args = 0
  34              		@ link register save eliminated.
 377:Drivers/lvgl/src/hal/../draw/../misc/lv_color.h **** #if LV_COLOR_DEPTH == 1
 378:Drivers/lvgl/src/hal/../draw/../misc/lv_color.h ****     if(color.full == 0)
 379:Drivers/lvgl/src/hal/../draw/../misc/lv_color.h ****         return 0xFF000000;
 380:Drivers/lvgl/src/hal/../draw/../misc/lv_color.h ****     else
 381:Drivers/lvgl/src/hal/../draw/../misc/lv_color.h ****         return 0xFFFFFFFF;
 382:Drivers/lvgl/src/hal/../draw/../misc/lv_color.h **** #elif LV_COLOR_DEPTH == 8
 383:Drivers/lvgl/src/hal/../draw/../misc/lv_color.h ****     lv_color32_t ret;
 384:Drivers/lvgl/src/hal/../draw/../misc/lv_color.h ****     LV_COLOR_SET_R32(ret, LV_COLOR_GET_R(color) * 36); /*(2^8 - 1)/(2^3 - 1) = 255/7 = 36*/
 385:Drivers/lvgl/src/hal/../draw/../misc/lv_color.h ****     LV_COLOR_SET_G32(ret, LV_COLOR_GET_G(color) * 36); /*(2^8 - 1)/(2^3 - 1) = 255/7 = 36*/
 386:Drivers/lvgl/src/hal/../draw/../misc/lv_color.h ****     LV_COLOR_SET_B32(ret, LV_COLOR_GET_B(color) * 85); /*(2^8 - 1)/(2^2 - 1) = 255/3 = 85*/
 387:Drivers/lvgl/src/hal/../draw/../misc/lv_color.h ****     LV_COLOR_SET_A32(ret, 0xFF);
 388:Drivers/lvgl/src/hal/../draw/../misc/lv_color.h ****     return ret.full;
 389:Drivers/lvgl/src/hal/../draw/../misc/lv_color.h **** #elif LV_COLOR_DEPTH == 16
 390:Drivers/lvgl/src/hal/../draw/../misc/lv_color.h ****     /**
 391:Drivers/lvgl/src/hal/../draw/../misc/lv_color.h ****      * The floating point math for conversion is:
 392:Drivers/lvgl/src/hal/../draw/../misc/lv_color.h ****      *  valueto = valuefrom * ( (2^bitsto - 1) / (float)(2^bitsfrom - 1) )
 393:Drivers/lvgl/src/hal/../draw/../misc/lv_color.h ****      * The faster integer math for conversion is:
 394:Drivers/lvgl/src/hal/../draw/../misc/lv_color.h ****      *  valueto = ( valuefrom * multiplier + adder ) >> divisor
 395:Drivers/lvgl/src/hal/../draw/../misc/lv_color.h ****      *   multiplier = FLOOR( ( (2^bitsto - 1) << divisor ) / (float)(2^bitsfrom - 1) )
 396:Drivers/lvgl/src/hal/../draw/../misc/lv_color.h ****      *
 397:Drivers/lvgl/src/hal/../draw/../misc/lv_color.h ****      * Find the first divisor where ( adder >> divisor ) <= 0
 398:Drivers/lvgl/src/hal/../draw/../misc/lv_color.h ****      *
 399:Drivers/lvgl/src/hal/../draw/../misc/lv_color.h ****      * 5-bit to 8-bit: ( 31 * multiplier + adder ) >> divisor = 255
 400:Drivers/lvgl/src/hal/../draw/../misc/lv_color.h ****      * divisor  multiplier  adder  min (0)  max (31)
 401:Drivers/lvgl/src/hal/../draw/../misc/lv_color.h ****      *       0           8      7        7       255
 402:Drivers/lvgl/src/hal/../draw/../misc/lv_color.h ****      *       1          16     14        7       255
 403:Drivers/lvgl/src/hal/../draw/../misc/lv_color.h ****      *       2          32     28        7       255
 404:Drivers/lvgl/src/hal/../draw/../misc/lv_color.h ****      *       3          65     25        3       255
 405:Drivers/lvgl/src/hal/../draw/../misc/lv_color.h ****      *       4         131     19        1       255
 406:Drivers/lvgl/src/hal/../draw/../misc/lv_color.h ****      *       5         263      7        0       255
 407:Drivers/lvgl/src/hal/../draw/../misc/lv_color.h ****      *
 408:Drivers/lvgl/src/hal/../draw/../misc/lv_color.h ****      * 6-bit to 8-bit: 255 = ( 63 * multiplier + adder ) >> divisor
 409:Drivers/lvgl/src/hal/../draw/../misc/lv_color.h ****      * divisor  multiplier  adder  min (0)  max (63)
 410:Drivers/lvgl/src/hal/../draw/../misc/lv_color.h ****      *       0           4      3        3       255
 411:Drivers/lvgl/src/hal/../draw/../misc/lv_color.h ****      *       1           8      6        3       255
 412:Drivers/lvgl/src/hal/../draw/../misc/lv_color.h ****      *       2          16     12        3       255
 413:Drivers/lvgl/src/hal/../draw/../misc/lv_color.h ****      *       3          32     24        3       255
 414:Drivers/lvgl/src/hal/../draw/../misc/lv_color.h ****      *       4          64     48        3       255
 415:Drivers/lvgl/src/hal/../draw/../misc/lv_color.h ****      *       5         129     33        1       255
 416:Drivers/lvgl/src/hal/../draw/../misc/lv_color.h ****      *       6         259      3        0       255
 417:Drivers/lvgl/src/hal/../draw/../misc/lv_color.h ****      */
 418:Drivers/lvgl/src/hal/../draw/../misc/lv_color.h **** 
 419:Drivers/lvgl/src/hal/../draw/../misc/lv_color.h ****     lv_color32_t ret;
  35              		.loc 2 419 5 view .LVU1
 420:Drivers/lvgl/src/hal/../draw/../misc/lv_color.h ****     LV_COLOR_SET_R32(ret, (LV_COLOR_GET_R(color) * 263 + 7) >> 5);
  36              		.loc 2 420 5 view .LVU2
  37 0000 C0F3C403 		ubfx	r3, r0, #3, #5
ARM GAS  /var/folders/lp/x54gwt890xv47sdkqj1k04q40000gn/T//ccGwZIp8.s 			page 9


  38 0004 03EB4312 		add	r2, r3, r3, lsl #5
  39 0008 C3EBC203 		rsb	r3, r3, r2, lsl #3
  40 000c 0733     		adds	r3, r3, #7
  41 000e C3F34713 		ubfx	r3, r3, #5, #8
  42 0012 0022     		movs	r2, #0
  43              	.LVL1:
  44              		.loc 2 420 5 is_stmt 0 view .LVU3
  45 0014 63F31742 		bfi	r2, r3, #16, #8
  46              	.LVL2:
 421:Drivers/lvgl/src/hal/../draw/../misc/lv_color.h ****     LV_COLOR_SET_G32(ret, (LV_COLOR_GET_G(color) * 259 + 3) >> 6);
  47              		.loc 2 421 5 is_stmt 1 view .LVU4
  48 0018 00F00701 		and	r1, r0, #7
  49 001c C0F34233 		ubfx	r3, r0, #13, #3
  50 0020 03EBC103 		add	r3, r3, r1, lsl #3
  51 0024 03EBC311 		add	r1, r3, r3, lsl #7
  52 0028 03EB4103 		add	r3, r3, r1, lsl #1
  53 002c 0333     		adds	r3, r3, #3
  54 002e C3F38713 		ubfx	r3, r3, #6, #8
  55 0032 63F30F22 		bfi	r2, r3, #8, #8
 422:Drivers/lvgl/src/hal/../draw/../misc/lv_color.h ****     LV_COLOR_SET_B32(ret, (LV_COLOR_GET_B(color) * 263 + 7) >> 5);
  56              		.loc 2 422 5 view .LVU5
  57 0036 C0F30420 		ubfx	r0, r0, #8, #5
  58              	.LVL3:
  59              		.loc 2 422 5 is_stmt 0 view .LVU6
  60 003a 00EB4013 		add	r3, r0, r0, lsl #5
  61 003e C0EBC303 		rsb	r3, r0, r3, lsl #3
  62 0042 0733     		adds	r3, r3, #7
  63 0044 C3F34713 		ubfx	r3, r3, #5, #8
  64 0048 63F30702 		bfi	r2, r3, #0, #8
 423:Drivers/lvgl/src/hal/../draw/../misc/lv_color.h ****     LV_COLOR_SET_A32(ret, 0xFF);
  65              		.loc 2 423 5 is_stmt 1 view .LVU7
 424:Drivers/lvgl/src/hal/../draw/../misc/lv_color.h ****     return ret.full;
  66              		.loc 2 424 5 view .LVU8
 425:Drivers/lvgl/src/hal/../draw/../misc/lv_color.h **** #elif LV_COLOR_DEPTH == 32
 426:Drivers/lvgl/src/hal/../draw/../misc/lv_color.h ****     return color.full;
 427:Drivers/lvgl/src/hal/../draw/../misc/lv_color.h **** #endif
 428:Drivers/lvgl/src/hal/../draw/../misc/lv_color.h **** }
  67              		.loc 2 428 1 is_stmt 0 view .LVU9
  68 004c 42F07F40 		orr	r0, r2, #-16777216
  69 0050 7047     		bx	lr
  70              		.cfi_endproc
  71              	.LFE11:
  73              		.section	.text.lv_color_mix,"ax",%progbits
  74              		.align	1
  75              		.syntax unified
  76              		.thumb
  77              		.thumb_func
  79              	lv_color_mix:
  80              	.LVL4:
  81              	.LFB12:
 429:Drivers/lvgl/src/hal/../draw/../misc/lv_color.h **** 
 430:Drivers/lvgl/src/hal/../draw/../misc/lv_color.h **** //! @cond Doxygen_Suppress
 431:Drivers/lvgl/src/hal/../draw/../misc/lv_color.h **** 
 432:Drivers/lvgl/src/hal/../draw/../misc/lv_color.h **** /**
 433:Drivers/lvgl/src/hal/../draw/../misc/lv_color.h ****  * Mix two colors with a given ratio.
 434:Drivers/lvgl/src/hal/../draw/../misc/lv_color.h ****  * @param c1 the first color to mix (usually the foreground)
 435:Drivers/lvgl/src/hal/../draw/../misc/lv_color.h ****  * @param c2 the second color to mix (usually the background)
ARM GAS  /var/folders/lp/x54gwt890xv47sdkqj1k04q40000gn/T//ccGwZIp8.s 			page 10


 436:Drivers/lvgl/src/hal/../draw/../misc/lv_color.h ****  * @param mix The ratio of the colors. 0: full `c2`, 255: full `c1`, 127: half `c1` and half`c2`
 437:Drivers/lvgl/src/hal/../draw/../misc/lv_color.h ****  * @return the mixed color
 438:Drivers/lvgl/src/hal/../draw/../misc/lv_color.h ****  */
 439:Drivers/lvgl/src/hal/../draw/../misc/lv_color.h **** static inline lv_color_t LV_ATTRIBUTE_FAST_MEM lv_color_mix(lv_color_t c1, lv_color_t c2, uint8_t m
 440:Drivers/lvgl/src/hal/../draw/../misc/lv_color.h **** {
  82              		.loc 2 440 1 is_stmt 1 view -0
  83              		.cfi_startproc
  84              		@ args = 0, pretend = 0, frame = 0
  85              		@ frame_needed = 0, uses_anonymous_args = 0
  86              		@ link register save eliminated.
 441:Drivers/lvgl/src/hal/../draw/../misc/lv_color.h ****     lv_color_t ret;
  87              		.loc 2 441 5 view .LVU11
 442:Drivers/lvgl/src/hal/../draw/../misc/lv_color.h **** 
 443:Drivers/lvgl/src/hal/../draw/../misc/lv_color.h **** #if LV_COLOR_DEPTH == 16 && LV_COLOR_MIX_ROUND_OFS == 0
 444:Drivers/lvgl/src/hal/../draw/../misc/lv_color.h **** #if LV_COLOR_16_SWAP == 1
 445:Drivers/lvgl/src/hal/../draw/../misc/lv_color.h ****     c1.full = c1.full << 8 | c1.full >> 8;
  88              		.loc 2 445 5 view .LVU12
  89              		.loc 2 445 17 is_stmt 0 view .LVU13
  90 0000 83B2     		uxth	r3, r0
  91              		.loc 2 445 28 view .LVU14
  92 0002 C0F30720 		ubfx	r0, r0, #8, #8
  93              	.LVL5:
  94              		.loc 2 445 28 view .LVU15
  95 0006 40EA0320 		orr	r0, r0, r3, lsl #8
 446:Drivers/lvgl/src/hal/../draw/../misc/lv_color.h ****     c2.full = c2.full << 8 | c2.full >> 8;
  96              		.loc 2 446 5 is_stmt 1 view .LVU16
  97              		.loc 2 446 17 is_stmt 0 view .LVU17
  98 000a 8BB2     		uxth	r3, r1
  99              		.loc 2 446 28 view .LVU18
 100 000c C1F30721 		ubfx	r1, r1, #8, #8
 101              	.LVL6:
 102              		.loc 2 446 28 view .LVU19
 103 0010 41EA0321 		orr	r1, r1, r3, lsl #8
 447:Drivers/lvgl/src/hal/../draw/../misc/lv_color.h **** #endif
 448:Drivers/lvgl/src/hal/../draw/../misc/lv_color.h ****     /*Source: https://stackoverflow.com/a/50012418/1999969*/
 449:Drivers/lvgl/src/hal/../draw/../misc/lv_color.h ****     mix = (uint32_t)((uint32_t)mix + 4) >> 3;
 104              		.loc 2 449 5 is_stmt 1 view .LVU20
 105              		.loc 2 449 11 is_stmt 0 view .LVU21
 106 0014 0432     		adds	r2, r2, #4
 107              	.LVL7:
 450:Drivers/lvgl/src/hal/../draw/../misc/lv_color.h ****     uint32_t bg = (uint32_t)((uint32_t)c2.full | ((uint32_t)c2.full << 16)) &
 108              		.loc 2 450 5 is_stmt 1 view .LVU22
 109              		.loc 2 450 19 is_stmt 0 view .LVU23
 110 0016 0B04     		lsls	r3, r1, #16
 111 0018 13FA81F1 		uxtah	r1, r3, r1
 112              		.loc 2 450 14 view .LVU24
 113 001c 0A4B     		ldr	r3, .L3
 114 001e 1940     		ands	r1, r1, r3
 115              	.LVL8:
 451:Drivers/lvgl/src/hal/../draw/../misc/lv_color.h ****                   0x7E0F81F; /*0b00000111111000001111100000011111*/
 452:Drivers/lvgl/src/hal/../draw/../misc/lv_color.h ****     uint32_t fg = (uint32_t)((uint32_t)c1.full | ((uint32_t)c1.full << 16)) & 0x7E0F81F;
 116              		.loc 2 452 5 is_stmt 1 view .LVU25
 117              		.loc 2 452 19 is_stmt 0 view .LVU26
 118 0020 4FEA004C 		lsl	ip, r0, #16
 119 0024 1CFA80F0 		uxtah	r0, ip, r0
 120              		.loc 2 452 14 view .LVU27
 121 0028 1840     		ands	r0, r0, r3
ARM GAS  /var/folders/lp/x54gwt890xv47sdkqj1k04q40000gn/T//ccGwZIp8.s 			page 11


 122              	.LVL9:
 453:Drivers/lvgl/src/hal/../draw/../misc/lv_color.h ****     uint32_t result = ((((fg - bg) * mix) >> 5) + bg) & 0x7E0F81F;
 123              		.loc 2 453 5 is_stmt 1 view .LVU28
 124              		.loc 2 453 30 is_stmt 0 view .LVU29
 125 002a 401A     		subs	r0, r0, r1
 126              	.LVL10:
 127              		.loc 2 453 36 view .LVU30
 128 002c D208     		lsrs	r2, r2, #3
 129              	.LVL11:
 130              		.loc 2 453 36 view .LVU31
 131 002e 00FB02F2 		mul	r2, r0, r2
 132              		.loc 2 453 49 view .LVU32
 133 0032 01EB5211 		add	r1, r1, r2, lsr #5
 134              	.LVL12:
 135              		.loc 2 453 14 view .LVU33
 136 0036 1940     		ands	r1, r1, r3
 137              	.LVL13:
 454:Drivers/lvgl/src/hal/../draw/../misc/lv_color.h ****     ret.full = (uint16_t)((result >> 16) | result);
 138              		.loc 2 454 5 is_stmt 1 view .LVU34
 139              		.loc 2 454 16 is_stmt 0 view .LVU35
 140 0038 41EA1141 		orr	r1, r1, r1, lsr #16
 141              	.LVL14:
 142              		.loc 2 454 16 view .LVU36
 143 003c 88B2     		uxth	r0, r1
 455:Drivers/lvgl/src/hal/../draw/../misc/lv_color.h **** #if LV_COLOR_16_SWAP == 1
 456:Drivers/lvgl/src/hal/../draw/../misc/lv_color.h ****     ret.full = ret.full << 8 | ret.full >> 8;
 144              		.loc 2 456 5 is_stmt 1 view .LVU37
 145              		.loc 2 456 30 is_stmt 0 view .LVU38
 146 003e C1F30721 		ubfx	r1, r1, #8, #8
 457:Drivers/lvgl/src/hal/../draw/../misc/lv_color.h **** #endif
 458:Drivers/lvgl/src/hal/../draw/../misc/lv_color.h **** #elif LV_COLOR_DEPTH != 1
 459:Drivers/lvgl/src/hal/../draw/../misc/lv_color.h ****     /*LV_COLOR_DEPTH == 8, 16 or 32*/
 460:Drivers/lvgl/src/hal/../draw/../misc/lv_color.h ****     LV_COLOR_SET_R(ret, LV_UDIV255((uint16_t)LV_COLOR_GET_R(c1) * mix + LV_COLOR_GET_R(c2) *
 461:Drivers/lvgl/src/hal/../draw/../misc/lv_color.h ****                                    (255 - mix) + LV_COLOR_MIX_ROUND_OFS));
 462:Drivers/lvgl/src/hal/../draw/../misc/lv_color.h ****     LV_COLOR_SET_G(ret, LV_UDIV255((uint16_t)LV_COLOR_GET_G(c1) * mix + LV_COLOR_GET_G(c2) *
 463:Drivers/lvgl/src/hal/../draw/../misc/lv_color.h ****                                    (255 - mix) + LV_COLOR_MIX_ROUND_OFS));
 464:Drivers/lvgl/src/hal/../draw/../misc/lv_color.h ****     LV_COLOR_SET_B(ret, LV_UDIV255((uint16_t)LV_COLOR_GET_B(c1) * mix + LV_COLOR_GET_B(c2) *
 465:Drivers/lvgl/src/hal/../draw/../misc/lv_color.h ****                                    (255 - mix) + LV_COLOR_MIX_ROUND_OFS));
 466:Drivers/lvgl/src/hal/../draw/../misc/lv_color.h ****     LV_COLOR_SET_A(ret, 0xFF);
 467:Drivers/lvgl/src/hal/../draw/../misc/lv_color.h **** #else
 468:Drivers/lvgl/src/hal/../draw/../misc/lv_color.h ****     /*LV_COLOR_DEPTH == 1*/
 469:Drivers/lvgl/src/hal/../draw/../misc/lv_color.h ****     ret.full = mix > LV_OPA_50 ? c1.full : c2.full;
 470:Drivers/lvgl/src/hal/../draw/../misc/lv_color.h **** #endif
 471:Drivers/lvgl/src/hal/../draw/../misc/lv_color.h **** 
 472:Drivers/lvgl/src/hal/../draw/../misc/lv_color.h ****     return ret;
 147              		.loc 2 472 5 is_stmt 1 view .LVU39
 473:Drivers/lvgl/src/hal/../draw/../misc/lv_color.h **** }
 148              		.loc 2 473 1 is_stmt 0 view .LVU40
 149 0042 41EA0020 		orr	r0, r1, r0, lsl #8
 150 0046 7047     		bx	lr
 151              	.L4:
 152              		.align	2
 153              	.L3:
 154 0048 1FF8E007 		.word	132184095
 155              		.cfi_endproc
 156              	.LFE12:
 158              		.section	.text.lv_color_mix_with_alpha,"ax",%progbits
ARM GAS  /var/folders/lp/x54gwt890xv47sdkqj1k04q40000gn/T//ccGwZIp8.s 			page 12


 159              		.align	1
 160              		.syntax unified
 161              		.thumb
 162              		.thumb_func
 164              	lv_color_mix_with_alpha:
 165              	.LVL15:
 166              	.LFB15:
 474:Drivers/lvgl/src/hal/../draw/../misc/lv_color.h **** 
 475:Drivers/lvgl/src/hal/../draw/../misc/lv_color.h **** static inline void LV_ATTRIBUTE_FAST_MEM lv_color_premult(lv_color_t c, uint8_t mix, uint16_t * out
 476:Drivers/lvgl/src/hal/../draw/../misc/lv_color.h **** {
 477:Drivers/lvgl/src/hal/../draw/../misc/lv_color.h **** #if LV_COLOR_DEPTH != 1
 478:Drivers/lvgl/src/hal/../draw/../misc/lv_color.h ****     out[0] = (uint16_t)LV_COLOR_GET_R(c) * mix;
 479:Drivers/lvgl/src/hal/../draw/../misc/lv_color.h ****     out[1] = (uint16_t)LV_COLOR_GET_G(c) * mix;
 480:Drivers/lvgl/src/hal/../draw/../misc/lv_color.h ****     out[2] = (uint16_t)LV_COLOR_GET_B(c) * mix;
 481:Drivers/lvgl/src/hal/../draw/../misc/lv_color.h **** #else
 482:Drivers/lvgl/src/hal/../draw/../misc/lv_color.h ****     (void) mix;
 483:Drivers/lvgl/src/hal/../draw/../misc/lv_color.h ****     /*Pre-multiplication can't be used with 1 bpp*/
 484:Drivers/lvgl/src/hal/../draw/../misc/lv_color.h ****     out[0] = LV_COLOR_GET_R(c);
 485:Drivers/lvgl/src/hal/../draw/../misc/lv_color.h ****     out[1] = LV_COLOR_GET_G(c);
 486:Drivers/lvgl/src/hal/../draw/../misc/lv_color.h ****     out[2] = LV_COLOR_GET_B(c);
 487:Drivers/lvgl/src/hal/../draw/../misc/lv_color.h **** #endif
 488:Drivers/lvgl/src/hal/../draw/../misc/lv_color.h **** 
 489:Drivers/lvgl/src/hal/../draw/../misc/lv_color.h **** }
 490:Drivers/lvgl/src/hal/../draw/../misc/lv_color.h **** 
 491:Drivers/lvgl/src/hal/../draw/../misc/lv_color.h **** /**
 492:Drivers/lvgl/src/hal/../draw/../misc/lv_color.h ****  * Mix two colors with a given ratio. It runs faster then `lv_color_mix` but requires some pre comp
 493:Drivers/lvgl/src/hal/../draw/../misc/lv_color.h ****  * @param premult_c1 The first color. Should be preprocessed with `lv_color_premult(c1)`
 494:Drivers/lvgl/src/hal/../draw/../misc/lv_color.h ****  * @param c2 The second color. As it is no pre computation required on it
 495:Drivers/lvgl/src/hal/../draw/../misc/lv_color.h ****  * @param mix The ratio of the colors. 0: full `c1`, 255: full `c2`, 127: half `c1` and half `c2`.
 496:Drivers/lvgl/src/hal/../draw/../misc/lv_color.h ****  *            Should be modified like mix = `255 - mix`
 497:Drivers/lvgl/src/hal/../draw/../misc/lv_color.h ****  * @return the mixed color
 498:Drivers/lvgl/src/hal/../draw/../misc/lv_color.h ****  * @note 255 won't give clearly `c1`.
 499:Drivers/lvgl/src/hal/../draw/../misc/lv_color.h ****  */
 500:Drivers/lvgl/src/hal/../draw/../misc/lv_color.h **** static inline lv_color_t LV_ATTRIBUTE_FAST_MEM lv_color_mix_premult(uint16_t * premult_c1, lv_color
 501:Drivers/lvgl/src/hal/../draw/../misc/lv_color.h **** {
 502:Drivers/lvgl/src/hal/../draw/../misc/lv_color.h ****     lv_color_t ret;
 503:Drivers/lvgl/src/hal/../draw/../misc/lv_color.h **** #if LV_COLOR_DEPTH != 1
 504:Drivers/lvgl/src/hal/../draw/../misc/lv_color.h ****     /*LV_COLOR_DEPTH == 8 or 32*/
 505:Drivers/lvgl/src/hal/../draw/../misc/lv_color.h ****     LV_COLOR_SET_R(ret, LV_UDIV255(premult_c1[0] + LV_COLOR_GET_R(c2) * mix + LV_COLOR_MIX_ROUND_OF
 506:Drivers/lvgl/src/hal/../draw/../misc/lv_color.h ****     LV_COLOR_SET_G(ret, LV_UDIV255(premult_c1[1] + LV_COLOR_GET_G(c2) * mix + LV_COLOR_MIX_ROUND_OF
 507:Drivers/lvgl/src/hal/../draw/../misc/lv_color.h ****     LV_COLOR_SET_B(ret, LV_UDIV255(premult_c1[2] + LV_COLOR_GET_B(c2) * mix + LV_COLOR_MIX_ROUND_OF
 508:Drivers/lvgl/src/hal/../draw/../misc/lv_color.h ****     LV_COLOR_SET_A(ret, 0xFF);
 509:Drivers/lvgl/src/hal/../draw/../misc/lv_color.h **** #else
 510:Drivers/lvgl/src/hal/../draw/../misc/lv_color.h ****     /*LV_COLOR_DEPTH == 1*/
 511:Drivers/lvgl/src/hal/../draw/../misc/lv_color.h ****     /*Restore color1*/
 512:Drivers/lvgl/src/hal/../draw/../misc/lv_color.h ****     lv_color_t c1;
 513:Drivers/lvgl/src/hal/../draw/../misc/lv_color.h ****     LV_COLOR_SET_R(c1, premult_c1[0]);
 514:Drivers/lvgl/src/hal/../draw/../misc/lv_color.h ****     LV_COLOR_SET_G(c1, premult_c1[1]);
 515:Drivers/lvgl/src/hal/../draw/../misc/lv_color.h ****     LV_COLOR_SET_B(c1, premult_c1[2]);
 516:Drivers/lvgl/src/hal/../draw/../misc/lv_color.h ****     ret.full = mix > LV_OPA_50 ? c2.full : c1.full;
 517:Drivers/lvgl/src/hal/../draw/../misc/lv_color.h **** #endif
 518:Drivers/lvgl/src/hal/../draw/../misc/lv_color.h **** 
 519:Drivers/lvgl/src/hal/../draw/../misc/lv_color.h ****     return ret;
 520:Drivers/lvgl/src/hal/../draw/../misc/lv_color.h **** }
 521:Drivers/lvgl/src/hal/../draw/../misc/lv_color.h **** 
 522:Drivers/lvgl/src/hal/../draw/../misc/lv_color.h **** /**
 523:Drivers/lvgl/src/hal/../draw/../misc/lv_color.h ****  * Mix two colors. Both color can have alpha value.
ARM GAS  /var/folders/lp/x54gwt890xv47sdkqj1k04q40000gn/T//ccGwZIp8.s 			page 13


 524:Drivers/lvgl/src/hal/../draw/../misc/lv_color.h ****  * @param bg_color background color
 525:Drivers/lvgl/src/hal/../draw/../misc/lv_color.h ****  * @param bg_opa alpha of the background color
 526:Drivers/lvgl/src/hal/../draw/../misc/lv_color.h ****  * @param fg_color foreground color
 527:Drivers/lvgl/src/hal/../draw/../misc/lv_color.h ****  * @param fg_opa alpha of the foreground color
 528:Drivers/lvgl/src/hal/../draw/../misc/lv_color.h ****  * @param res_color the result color
 529:Drivers/lvgl/src/hal/../draw/../misc/lv_color.h ****  * @param res_opa the result opacity
 530:Drivers/lvgl/src/hal/../draw/../misc/lv_color.h ****  */
 531:Drivers/lvgl/src/hal/../draw/../misc/lv_color.h **** static inline void LV_ATTRIBUTE_FAST_MEM lv_color_mix_with_alpha(lv_color_t bg_color, lv_opa_t bg_o
 532:Drivers/lvgl/src/hal/../draw/../misc/lv_color.h ****                                                                  lv_color_t fg_color, lv_opa_t fg_o
 533:Drivers/lvgl/src/hal/../draw/../misc/lv_color.h ****                                                                  lv_color_t * res_color, lv_opa_t *
 534:Drivers/lvgl/src/hal/../draw/../misc/lv_color.h **** {
 167              		.loc 2 534 1 is_stmt 1 view -0
 168              		.cfi_startproc
 169              		@ args = 8, pretend = 0, frame = 0
 170              		@ frame_needed = 0, uses_anonymous_args = 0
 171              		.loc 2 534 1 is_stmt 0 view .LVU42
 172 0000 10B5     		push	{r4, lr}
 173              		.cfi_def_cfa_offset 8
 174              		.cfi_offset 4, -8
 175              		.cfi_offset 14, -4
 176 0002 9446     		mov	ip, r2	@ movhi
 177              	.LVL16:
 535:Drivers/lvgl/src/hal/../draw/../misc/lv_color.h ****     /*Pick the foreground if it's fully opaque or the Background is fully transparent*/
 536:Drivers/lvgl/src/hal/../draw/../misc/lv_color.h ****     if(fg_opa >= LV_OPA_MAX || bg_opa <= LV_OPA_MIN) {
 178              		.loc 2 536 5 is_stmt 1 view .LVU43
 179              		.loc 2 536 7 is_stmt 0 view .LVU44
 180 0004 FC2B     		cmp	r3, #252
 181 0006 01D8     		bhi	.L6
 182              		.loc 2 536 29 discriminator 1 view .LVU45
 183 0008 0229     		cmp	r1, #2
 184 000a 05D8     		bhi	.L7
 185              	.L6:
 537:Drivers/lvgl/src/hal/../draw/../misc/lv_color.h ****         res_color->full = fg_color.full;
 186              		.loc 2 537 9 is_stmt 1 view .LVU46
 187              		.loc 2 537 25 is_stmt 0 view .LVU47
 188 000c 029A     		ldr	r2, [sp, #8]
 189              	.LVL17:
 190              		.loc 2 537 25 view .LVU48
 191 000e A2F800C0 		strh	ip, [r2]	@ movhi
 538:Drivers/lvgl/src/hal/../draw/../misc/lv_color.h ****         *res_opa = fg_opa;
 192              		.loc 2 538 9 is_stmt 1 view .LVU49
 193              		.loc 2 538 18 is_stmt 0 view .LVU50
 194 0012 039A     		ldr	r2, [sp, #12]
 195 0014 1370     		strb	r3, [r2]
 196              	.LVL18:
 197              	.L5:
 539:Drivers/lvgl/src/hal/../draw/../misc/lv_color.h ****     }
 540:Drivers/lvgl/src/hal/../draw/../misc/lv_color.h ****     /*Transparent foreground: use the Background*/
 541:Drivers/lvgl/src/hal/../draw/../misc/lv_color.h ****     else if(fg_opa <= LV_OPA_MIN) {
 542:Drivers/lvgl/src/hal/../draw/../misc/lv_color.h ****         res_color->full = bg_color.full;
 543:Drivers/lvgl/src/hal/../draw/../misc/lv_color.h ****         *res_opa = bg_opa;
 544:Drivers/lvgl/src/hal/../draw/../misc/lv_color.h ****     }
 545:Drivers/lvgl/src/hal/../draw/../misc/lv_color.h ****     /*Opaque background: use simple mix*/
 546:Drivers/lvgl/src/hal/../draw/../misc/lv_color.h ****     else if(bg_opa >= LV_OPA_MAX) {
 547:Drivers/lvgl/src/hal/../draw/../misc/lv_color.h ****         *res_color = lv_color_mix(fg_color, bg_color, fg_opa);
 548:Drivers/lvgl/src/hal/../draw/../misc/lv_color.h ****         *res_opa = LV_OPA_COVER;
 549:Drivers/lvgl/src/hal/../draw/../misc/lv_color.h ****     }
ARM GAS  /var/folders/lp/x54gwt890xv47sdkqj1k04q40000gn/T//ccGwZIp8.s 			page 14


 550:Drivers/lvgl/src/hal/../draw/../misc/lv_color.h ****     /*Both colors have alpha. Expensive calculation need to be applied*/
 551:Drivers/lvgl/src/hal/../draw/../misc/lv_color.h ****     else {
 552:Drivers/lvgl/src/hal/../draw/../misc/lv_color.h ****         /*Save the parameters and the result. If they will be asked again don't compute again*/
 553:Drivers/lvgl/src/hal/../draw/../misc/lv_color.h ****         static lv_opa_t fg_opa_save     = 0;
 554:Drivers/lvgl/src/hal/../draw/../misc/lv_color.h ****         static lv_opa_t bg_opa_save     = 0;
 555:Drivers/lvgl/src/hal/../draw/../misc/lv_color.h ****         static lv_color_t fg_color_save = _LV_COLOR_ZERO_INITIALIZER;
 556:Drivers/lvgl/src/hal/../draw/../misc/lv_color.h ****         static lv_color_t bg_color_save = _LV_COLOR_ZERO_INITIALIZER;
 557:Drivers/lvgl/src/hal/../draw/../misc/lv_color.h ****         static lv_color_t res_color_saved = _LV_COLOR_ZERO_INITIALIZER;
 558:Drivers/lvgl/src/hal/../draw/../misc/lv_color.h ****         static lv_opa_t res_opa_saved = 0;
 559:Drivers/lvgl/src/hal/../draw/../misc/lv_color.h **** 
 560:Drivers/lvgl/src/hal/../draw/../misc/lv_color.h ****         if(fg_opa != fg_opa_save || bg_opa != bg_opa_save || fg_color.full != fg_color_save.full ||
 561:Drivers/lvgl/src/hal/../draw/../misc/lv_color.h ****            bg_color.full != bg_color_save.full) {
 562:Drivers/lvgl/src/hal/../draw/../misc/lv_color.h ****             fg_opa_save        = fg_opa;
 563:Drivers/lvgl/src/hal/../draw/../misc/lv_color.h ****             bg_opa_save        = bg_opa;
 564:Drivers/lvgl/src/hal/../draw/../misc/lv_color.h ****             fg_color_save.full = fg_color.full;
 565:Drivers/lvgl/src/hal/../draw/../misc/lv_color.h ****             bg_color_save.full = bg_color.full;
 566:Drivers/lvgl/src/hal/../draw/../misc/lv_color.h ****             /*Info:
 567:Drivers/lvgl/src/hal/../draw/../misc/lv_color.h ****              * https://en.wikipedia.org/wiki/Alpha_compositing#Analytical_derivation_of_the_over_op
 568:Drivers/lvgl/src/hal/../draw/../misc/lv_color.h ****             res_opa_saved = 255 - ((uint16_t)((uint16_t)(255 - fg_opa) * (255 - bg_opa)) >> 8);
 569:Drivers/lvgl/src/hal/../draw/../misc/lv_color.h ****             LV_ASSERT(res_opa_saved != 0);
 570:Drivers/lvgl/src/hal/../draw/../misc/lv_color.h ****             lv_opa_t ratio = (uint16_t)((uint16_t)fg_opa * 255) / res_opa_saved;
 571:Drivers/lvgl/src/hal/../draw/../misc/lv_color.h ****             res_color_saved = lv_color_mix(fg_color, bg_color, ratio);
 572:Drivers/lvgl/src/hal/../draw/../misc/lv_color.h **** 
 573:Drivers/lvgl/src/hal/../draw/../misc/lv_color.h ****         }
 574:Drivers/lvgl/src/hal/../draw/../misc/lv_color.h **** 
 575:Drivers/lvgl/src/hal/../draw/../misc/lv_color.h ****         res_color->full = res_color_saved.full;
 576:Drivers/lvgl/src/hal/../draw/../misc/lv_color.h ****         *res_opa = res_opa_saved;
 577:Drivers/lvgl/src/hal/../draw/../misc/lv_color.h ****     }
 578:Drivers/lvgl/src/hal/../draw/../misc/lv_color.h **** }
 198              		.loc 2 578 1 view .LVU51
 199 0016 10BD     		pop	{r4, pc}
 200              	.LVL19:
 201              	.L7:
 541:Drivers/lvgl/src/hal/../draw/../misc/lv_color.h ****         res_color->full = bg_color.full;
 202              		.loc 2 541 10 is_stmt 1 view .LVU52
 541:Drivers/lvgl/src/hal/../draw/../misc/lv_color.h ****         res_color->full = bg_color.full;
 203              		.loc 2 541 12 is_stmt 0 view .LVU53
 204 0018 022B     		cmp	r3, #2
 205 001a 04D8     		bhi	.L9
 542:Drivers/lvgl/src/hal/../draw/../misc/lv_color.h ****         *res_opa = bg_opa;
 206              		.loc 2 542 9 is_stmt 1 view .LVU54
 542:Drivers/lvgl/src/hal/../draw/../misc/lv_color.h ****         *res_opa = bg_opa;
 207              		.loc 2 542 25 is_stmt 0 view .LVU55
 208 001c 029B     		ldr	r3, [sp, #8]
 209              	.LVL20:
 542:Drivers/lvgl/src/hal/../draw/../misc/lv_color.h ****         *res_opa = bg_opa;
 210              		.loc 2 542 25 view .LVU56
 211 001e 1880     		strh	r0, [r3]	@ movhi
 543:Drivers/lvgl/src/hal/../draw/../misc/lv_color.h ****     }
 212              		.loc 2 543 9 is_stmt 1 view .LVU57
 543:Drivers/lvgl/src/hal/../draw/../misc/lv_color.h ****     }
 213              		.loc 2 543 18 is_stmt 0 view .LVU58
 214 0020 039B     		ldr	r3, [sp, #12]
 215 0022 1970     		strb	r1, [r3]
 216 0024 F7E7     		b	.L5
 217              	.LVL21:
 218              	.L9:
ARM GAS  /var/folders/lp/x54gwt890xv47sdkqj1k04q40000gn/T//ccGwZIp8.s 			page 15


 546:Drivers/lvgl/src/hal/../draw/../misc/lv_color.h ****         *res_color = lv_color_mix(fg_color, bg_color, fg_opa);
 219              		.loc 2 546 10 is_stmt 1 view .LVU59
 546:Drivers/lvgl/src/hal/../draw/../misc/lv_color.h ****         *res_color = lv_color_mix(fg_color, bg_color, fg_opa);
 220              		.loc 2 546 12 is_stmt 0 view .LVU60
 221 0026 FC29     		cmp	r1, #252
 222 0028 0AD9     		bls	.L10
 547:Drivers/lvgl/src/hal/../draw/../misc/lv_color.h ****         *res_opa = LV_OPA_COVER;
 223              		.loc 2 547 9 is_stmt 1 view .LVU61
 547:Drivers/lvgl/src/hal/../draw/../misc/lv_color.h ****         *res_opa = LV_OPA_COVER;
 224              		.loc 2 547 22 is_stmt 0 view .LVU62
 225 002a 1A46     		mov	r2, r3
 226 002c 0146     		mov	r1, r0	@ movhi
 227              	.LVL22:
 547:Drivers/lvgl/src/hal/../draw/../misc/lv_color.h ****         *res_opa = LV_OPA_COVER;
 228              		.loc 2 547 22 view .LVU63
 229 002e 6046     		mov	r0, ip	@ movhi
 230              	.LVL23:
 547:Drivers/lvgl/src/hal/../draw/../misc/lv_color.h ****         *res_opa = LV_OPA_COVER;
 231              		.loc 2 547 22 view .LVU64
 232 0030 FFF7FEFF 		bl	lv_color_mix
 233              	.LVL24:
 547:Drivers/lvgl/src/hal/../draw/../misc/lv_color.h ****         *res_opa = LV_OPA_COVER;
 234              		.loc 2 547 22 view .LVU65
 235 0034 029B     		ldr	r3, [sp, #8]
 236 0036 1880     		strh	r0, [r3]	@ movhi
 548:Drivers/lvgl/src/hal/../draw/../misc/lv_color.h ****     }
 237              		.loc 2 548 9 is_stmt 1 view .LVU66
 548:Drivers/lvgl/src/hal/../draw/../misc/lv_color.h ****     }
 238              		.loc 2 548 18 is_stmt 0 view .LVU67
 239 0038 FF23     		movs	r3, #255
 240 003a 039A     		ldr	r2, [sp, #12]
 241 003c 1370     		strb	r3, [r2]
 242 003e EAE7     		b	.L5
 243              	.LVL25:
 244              	.L10:
 245              	.LBB18:
 553:Drivers/lvgl/src/hal/../draw/../misc/lv_color.h ****         static lv_opa_t bg_opa_save     = 0;
 246              		.loc 2 553 9 is_stmt 1 view .LVU68
 554:Drivers/lvgl/src/hal/../draw/../misc/lv_color.h ****         static lv_color_t fg_color_save = _LV_COLOR_ZERO_INITIALIZER;
 247              		.loc 2 554 9 view .LVU69
 555:Drivers/lvgl/src/hal/../draw/../misc/lv_color.h ****         static lv_color_t bg_color_save = _LV_COLOR_ZERO_INITIALIZER;
 248              		.loc 2 555 9 view .LVU70
 556:Drivers/lvgl/src/hal/../draw/../misc/lv_color.h ****         static lv_color_t res_color_saved = _LV_COLOR_ZERO_INITIALIZER;
 249              		.loc 2 556 9 view .LVU71
 557:Drivers/lvgl/src/hal/../draw/../misc/lv_color.h ****         static lv_opa_t res_opa_saved = 0;
 250              		.loc 2 557 9 view .LVU72
 558:Drivers/lvgl/src/hal/../draw/../misc/lv_color.h **** 
 251              		.loc 2 558 9 view .LVU73
 560:Drivers/lvgl/src/hal/../draw/../misc/lv_color.h ****            bg_color.full != bg_color_save.full) {
 252              		.loc 2 560 9 view .LVU74
 560:Drivers/lvgl/src/hal/../draw/../misc/lv_color.h ****            bg_color.full != bg_color_save.full) {
 253              		.loc 2 560 19 is_stmt 0 view .LVU75
 254 0040 204A     		ldr	r2, .L17
 255 0042 1278     		ldrb	r2, [r2]	@ zero_extendqisi2
 560:Drivers/lvgl/src/hal/../draw/../misc/lv_color.h ****            bg_color.full != bg_color_save.full) {
 256              		.loc 2 560 11 view .LVU76
 257 0044 9A42     		cmp	r2, r3
ARM GAS  /var/folders/lp/x54gwt890xv47sdkqj1k04q40000gn/T//ccGwZIp8.s 			page 16


 258 0046 16D0     		beq	.L16
 259              	.LVL26:
 260              	.L11:
 261              	.LBB19:
 562:Drivers/lvgl/src/hal/../draw/../misc/lv_color.h ****             bg_opa_save        = bg_opa;
 262              		.loc 2 562 13 is_stmt 1 view .LVU77
 562:Drivers/lvgl/src/hal/../draw/../misc/lv_color.h ****             bg_opa_save        = bg_opa;
 263              		.loc 2 562 32 is_stmt 0 view .LVU78
 264 0048 1E4A     		ldr	r2, .L17
 265 004a 1370     		strb	r3, [r2]
 563:Drivers/lvgl/src/hal/../draw/../misc/lv_color.h ****             fg_color_save.full = fg_color.full;
 266              		.loc 2 563 13 is_stmt 1 view .LVU79
 563:Drivers/lvgl/src/hal/../draw/../misc/lv_color.h ****             fg_color_save.full = fg_color.full;
 267              		.loc 2 563 32 is_stmt 0 view .LVU80
 268 004c 1E4A     		ldr	r2, .L17+4
 269 004e 1170     		strb	r1, [r2]
 564:Drivers/lvgl/src/hal/../draw/../misc/lv_color.h ****             bg_color_save.full = bg_color.full;
 270              		.loc 2 564 13 is_stmt 1 view .LVU81
 564:Drivers/lvgl/src/hal/../draw/../misc/lv_color.h ****             bg_color_save.full = bg_color.full;
 271              		.loc 2 564 32 is_stmt 0 view .LVU82
 272 0050 1E4A     		ldr	r2, .L17+8
 273 0052 A2F800C0 		strh	ip, [r2]	@ movhi
 565:Drivers/lvgl/src/hal/../draw/../misc/lv_color.h ****             /*Info:
 274              		.loc 2 565 13 is_stmt 1 view .LVU83
 565:Drivers/lvgl/src/hal/../draw/../misc/lv_color.h ****             /*Info:
 275              		.loc 2 565 32 is_stmt 0 view .LVU84
 276 0056 1E4A     		ldr	r2, .L17+12
 277 0058 1080     		strh	r0, [r2]	@ movhi
 568:Drivers/lvgl/src/hal/../draw/../misc/lv_color.h ****             LV_ASSERT(res_opa_saved != 0);
 278              		.loc 2 568 13 is_stmt 1 view .LVU85
 568:Drivers/lvgl/src/hal/../draw/../misc/lv_color.h ****             LV_ASSERT(res_opa_saved != 0);
 279              		.loc 2 568 47 is_stmt 0 view .LVU86
 280 005a C3F1FF02 		rsb	r2, r3, #255
 568:Drivers/lvgl/src/hal/../draw/../misc/lv_color.h ****             LV_ASSERT(res_opa_saved != 0);
 281              		.loc 2 568 79 view .LVU87
 282 005e C1F1FF01 		rsb	r1, r1, #255
 283              	.LVL27:
 568:Drivers/lvgl/src/hal/../draw/../misc/lv_color.h ****             LV_ASSERT(res_opa_saved != 0);
 284              		.loc 2 568 36 view .LVU88
 285 0062 01FB02F2 		mul	r2, r1, r2
 568:Drivers/lvgl/src/hal/../draw/../misc/lv_color.h ****             LV_ASSERT(res_opa_saved != 0);
 286              		.loc 2 568 33 view .LVU89
 287 0066 C2F30722 		ubfx	r2, r2, #8, #8
 288 006a D243     		mvns	r2, r2
 289 006c D2B2     		uxtb	r2, r2
 568:Drivers/lvgl/src/hal/../draw/../misc/lv_color.h ****             LV_ASSERT(res_opa_saved != 0);
 290              		.loc 2 568 27 view .LVU90
 291 006e 1949     		ldr	r1, .L17+16
 292 0070 0A70     		strb	r2, [r1]
 569:Drivers/lvgl/src/hal/../draw/../misc/lv_color.h ****             lv_opa_t ratio = (uint16_t)((uint16_t)fg_opa * 255) / res_opa_saved;
 293              		.loc 2 569 13 is_stmt 1 view .LVU91
 569:Drivers/lvgl/src/hal/../draw/../misc/lv_color.h ****             lv_opa_t ratio = (uint16_t)((uint16_t)fg_opa * 255) / res_opa_saved;
 294              		.loc 2 569 13 view .LVU92
 295 0072 92B9     		cbnz	r2, .L13
 296              	.L14:
 569:Drivers/lvgl/src/hal/../draw/../misc/lv_color.h ****             lv_opa_t ratio = (uint16_t)((uint16_t)fg_opa * 255) / res_opa_saved;
 297              		.loc 2 569 13 discriminator 1 view .LVU93
ARM GAS  /var/folders/lp/x54gwt890xv47sdkqj1k04q40000gn/T//ccGwZIp8.s 			page 17


 569:Drivers/lvgl/src/hal/../draw/../misc/lv_color.h ****             lv_opa_t ratio = (uint16_t)((uint16_t)fg_opa * 255) / res_opa_saved;
 298              		.loc 2 569 13 discriminator 1 view .LVU94
 569:Drivers/lvgl/src/hal/../draw/../misc/lv_color.h ****             lv_opa_t ratio = (uint16_t)((uint16_t)fg_opa * 255) / res_opa_saved;
 299              		.loc 2 569 13 discriminator 1 view .LVU95
 569:Drivers/lvgl/src/hal/../draw/../misc/lv_color.h ****             lv_opa_t ratio = (uint16_t)((uint16_t)fg_opa * 255) / res_opa_saved;
 300              		.loc 2 569 13 discriminator 1 view .LVU96
 569:Drivers/lvgl/src/hal/../draw/../misc/lv_color.h ****             lv_opa_t ratio = (uint16_t)((uint16_t)fg_opa * 255) / res_opa_saved;
 301              		.loc 2 569 13 discriminator 1 view .LVU97
 302 0074 FEE7     		b	.L14
 303              	.LVL28:
 304              	.L16:
 569:Drivers/lvgl/src/hal/../draw/../misc/lv_color.h ****             lv_opa_t ratio = (uint16_t)((uint16_t)fg_opa * 255) / res_opa_saved;
 305              		.loc 2 569 13 is_stmt 0 discriminator 1 view .LVU98
 306              	.LBE19:
 560:Drivers/lvgl/src/hal/../draw/../misc/lv_color.h ****            bg_color.full != bg_color_save.full) {
 307              		.loc 2 560 44 discriminator 1 view .LVU99
 308 0076 144A     		ldr	r2, .L17+4
 309 0078 1278     		ldrb	r2, [r2]	@ zero_extendqisi2
 560:Drivers/lvgl/src/hal/../draw/../misc/lv_color.h ****            bg_color.full != bg_color_save.full) {
 310              		.loc 2 560 34 discriminator 1 view .LVU100
 311 007a 8A42     		cmp	r2, r1
 312 007c E4D1     		bne	.L11
 313              	.LVL29:
 560:Drivers/lvgl/src/hal/../draw/../misc/lv_color.h ****            bg_color.full != bg_color_save.full) {
 314              		.loc 2 560 70 discriminator 2 view .LVU101
 315 007e 1FFA8CF2 		uxth	r2, ip
 560:Drivers/lvgl/src/hal/../draw/../misc/lv_color.h ****            bg_color.full != bg_color_save.full) {
 316              		.loc 2 560 92 discriminator 2 view .LVU102
 317 0082 124C     		ldr	r4, .L17+8
 318 0084 B4F800E0 		ldrh	lr, [r4]
 560:Drivers/lvgl/src/hal/../draw/../misc/lv_color.h ****            bg_color.full != bg_color_save.full) {
 319              		.loc 2 560 59 discriminator 2 view .LVU103
 320 0088 7245     		cmp	r2, lr
 321 008a DDD1     		bne	.L11
 561:Drivers/lvgl/src/hal/../draw/../misc/lv_color.h ****             fg_opa_save        = fg_opa;
 322              		.loc 2 561 20 view .LVU104
 323 008c 82B2     		uxth	r2, r0
 561:Drivers/lvgl/src/hal/../draw/../misc/lv_color.h ****             fg_opa_save        = fg_opa;
 324              		.loc 2 561 42 view .LVU105
 325 008e 104C     		ldr	r4, .L17+12
 326 0090 B4F800E0 		ldrh	lr, [r4]
 560:Drivers/lvgl/src/hal/../draw/../misc/lv_color.h ****            bg_color.full != bg_color_save.full) {
 327              		.loc 2 560 98 discriminator 3 view .LVU106
 328 0094 7245     		cmp	r2, lr
 329 0096 D7D1     		bne	.L11
 330 0098 0BE0     		b	.L12
 331              	.LVL30:
 332              	.L13:
 333              	.LBB20:
 569:Drivers/lvgl/src/hal/../draw/../misc/lv_color.h ****             lv_opa_t ratio = (uint16_t)((uint16_t)fg_opa * 255) / res_opa_saved;
 334              		.loc 2 569 13 is_stmt 1 discriminator 2 view .LVU107
 570:Drivers/lvgl/src/hal/../draw/../misc/lv_color.h ****             res_color_saved = lv_color_mix(fg_color, bg_color, ratio);
 335              		.loc 2 570 13 view .LVU108
 570:Drivers/lvgl/src/hal/../draw/../misc/lv_color.h ****             res_color_saved = lv_color_mix(fg_color, bg_color, ratio);
 336              		.loc 2 570 30 is_stmt 0 view .LVU109
 337 009a C3EB0323 		rsb	r3, r3, r3, lsl #8
 338              	.LVL31:
ARM GAS  /var/folders/lp/x54gwt890xv47sdkqj1k04q40000gn/T//ccGwZIp8.s 			page 18


 570:Drivers/lvgl/src/hal/../draw/../misc/lv_color.h ****             res_color_saved = lv_color_mix(fg_color, bg_color, ratio);
 339              		.loc 2 570 30 view .LVU110
 340 009e 9BB2     		uxth	r3, r3
 570:Drivers/lvgl/src/hal/../draw/../misc/lv_color.h ****             res_color_saved = lv_color_mix(fg_color, bg_color, ratio);
 341              		.loc 2 570 65 view .LVU111
 342 00a0 93FBF2F2 		sdiv	r2, r3, r2
 343              	.LVL32:
 571:Drivers/lvgl/src/hal/../draw/../misc/lv_color.h **** 
 344              		.loc 2 571 13 is_stmt 1 view .LVU112
 571:Drivers/lvgl/src/hal/../draw/../misc/lv_color.h **** 
 345              		.loc 2 571 31 is_stmt 0 view .LVU113
 346 00a4 D2B2     		uxtb	r2, r2
 571:Drivers/lvgl/src/hal/../draw/../misc/lv_color.h **** 
 347              		.loc 2 571 31 view .LVU114
 348 00a6 0146     		mov	r1, r0	@ movhi
 349 00a8 6046     		mov	r0, ip	@ movhi
 350              	.LVL33:
 571:Drivers/lvgl/src/hal/../draw/../misc/lv_color.h **** 
 351              		.loc 2 571 31 view .LVU115
 352 00aa FFF7FEFF 		bl	lv_color_mix
 353              	.LVL34:
 571:Drivers/lvgl/src/hal/../draw/../misc/lv_color.h **** 
 354              		.loc 2 571 31 view .LVU116
 355 00ae 0A4B     		ldr	r3, .L17+20
 356 00b0 1880     		strh	r0, [r3]	@ movhi
 357              	.LVL35:
 358              	.L12:
 571:Drivers/lvgl/src/hal/../draw/../misc/lv_color.h **** 
 359              		.loc 2 571 31 view .LVU117
 360              	.LBE20:
 575:Drivers/lvgl/src/hal/../draw/../misc/lv_color.h ****         *res_opa = res_opa_saved;
 361              		.loc 2 575 9 is_stmt 1 view .LVU118
 575:Drivers/lvgl/src/hal/../draw/../misc/lv_color.h ****         *res_opa = res_opa_saved;
 362              		.loc 2 575 42 is_stmt 0 view .LVU119
 363 00b2 094B     		ldr	r3, .L17+20
 364 00b4 1B88     		ldrh	r3, [r3]
 575:Drivers/lvgl/src/hal/../draw/../misc/lv_color.h ****         *res_opa = res_opa_saved;
 365              		.loc 2 575 25 view .LVU120
 366 00b6 029A     		ldr	r2, [sp, #8]
 367 00b8 1380     		strh	r3, [r2]	@ movhi
 576:Drivers/lvgl/src/hal/../draw/../misc/lv_color.h ****     }
 368              		.loc 2 576 9 is_stmt 1 view .LVU121
 576:Drivers/lvgl/src/hal/../draw/../misc/lv_color.h ****     }
 369              		.loc 2 576 18 is_stmt 0 view .LVU122
 370 00ba 064B     		ldr	r3, .L17+16
 371 00bc 1B78     		ldrb	r3, [r3]	@ zero_extendqisi2
 372 00be 039A     		ldr	r2, [sp, #12]
 373 00c0 1370     		strb	r3, [r2]
 374              	.LBE18:
 375              		.loc 2 578 1 view .LVU123
 376 00c2 A8E7     		b	.L5
 377              	.L18:
 378              		.align	2
 379              	.L17:
 380 00c4 00000000 		.word	fg_opa_save.5
 381 00c8 00000000 		.word	bg_opa_save.4
 382 00cc 00000000 		.word	fg_color_save.3
ARM GAS  /var/folders/lp/x54gwt890xv47sdkqj1k04q40000gn/T//ccGwZIp8.s 			page 19


 383 00d0 00000000 		.word	bg_color_save.2
 384 00d4 00000000 		.word	res_opa_saved.1
 385 00d8 00000000 		.word	res_color_saved.0
 386              		.cfi_endproc
 387              	.LFE15:
 389              		.section	.text.set_px_true_color_alpha,"ax",%progbits
 390              		.align	1
 391              		.syntax unified
 392              		.thumb
 393              		.thumb_func
 395              	set_px_true_color_alpha:
 396              	.LVL36:
 397              	.LFB189:
   1:Drivers/lvgl/src/hal/lv_hal_disp.c **** /**
   2:Drivers/lvgl/src/hal/lv_hal_disp.c ****  * @file lv_hal_disp.c
   3:Drivers/lvgl/src/hal/lv_hal_disp.c ****  *
   4:Drivers/lvgl/src/hal/lv_hal_disp.c ****  * @description HAL layer for display driver
   5:Drivers/lvgl/src/hal/lv_hal_disp.c ****  *
   6:Drivers/lvgl/src/hal/lv_hal_disp.c ****  */
   7:Drivers/lvgl/src/hal/lv_hal_disp.c **** 
   8:Drivers/lvgl/src/hal/lv_hal_disp.c **** /*********************
   9:Drivers/lvgl/src/hal/lv_hal_disp.c ****  *      INCLUDES
  10:Drivers/lvgl/src/hal/lv_hal_disp.c ****  *********************/
  11:Drivers/lvgl/src/hal/lv_hal_disp.c **** #include <stdint.h>
  12:Drivers/lvgl/src/hal/lv_hal_disp.c **** #include <stddef.h>
  13:Drivers/lvgl/src/hal/lv_hal_disp.c **** #include "lv_hal.h"
  14:Drivers/lvgl/src/hal/lv_hal_disp.c **** #include "../misc/lv_mem.h"
  15:Drivers/lvgl/src/hal/lv_hal_disp.c **** #include "../misc/lv_gc.h"
  16:Drivers/lvgl/src/hal/lv_hal_disp.c **** #include "../misc/lv_assert.h"
  17:Drivers/lvgl/src/hal/lv_hal_disp.c **** #include "../core/lv_obj.h"
  18:Drivers/lvgl/src/hal/lv_hal_disp.c **** #include "../core/lv_refr.h"
  19:Drivers/lvgl/src/hal/lv_hal_disp.c **** #include "../core/lv_theme.h"
  20:Drivers/lvgl/src/hal/lv_hal_disp.c **** #include "../draw/sdl/lv_draw_sdl.h"
  21:Drivers/lvgl/src/hal/lv_hal_disp.c **** #include "../draw/sw/lv_draw_sw.h"
  22:Drivers/lvgl/src/hal/lv_hal_disp.c **** #include "../draw/sdl/lv_draw_sdl.h"
  23:Drivers/lvgl/src/hal/lv_hal_disp.c **** #include "../draw/stm32_dma2d/lv_gpu_stm32_dma2d.h"
  24:Drivers/lvgl/src/hal/lv_hal_disp.c **** #include "../draw/swm341_dma2d/lv_gpu_swm341_dma2d.h"
  25:Drivers/lvgl/src/hal/lv_hal_disp.c **** #include "../draw/arm2d/lv_gpu_arm2d.h"
  26:Drivers/lvgl/src/hal/lv_hal_disp.c **** #include "../draw/nxp/vglite/lv_draw_vglite.h"
  27:Drivers/lvgl/src/hal/lv_hal_disp.c **** #include "../draw/nxp/pxp/lv_draw_pxp.h"
  28:Drivers/lvgl/src/hal/lv_hal_disp.c **** #include "../draw/renesas/lv_gpu_d2_ra6m3.h"
  29:Drivers/lvgl/src/hal/lv_hal_disp.c **** 
  30:Drivers/lvgl/src/hal/lv_hal_disp.c **** #if LV_USE_THEME_DEFAULT
  31:Drivers/lvgl/src/hal/lv_hal_disp.c ****     #include "../extra/themes/default/lv_theme_default.h"
  32:Drivers/lvgl/src/hal/lv_hal_disp.c **** #endif
  33:Drivers/lvgl/src/hal/lv_hal_disp.c **** 
  34:Drivers/lvgl/src/hal/lv_hal_disp.c **** /*********************
  35:Drivers/lvgl/src/hal/lv_hal_disp.c ****  *      DEFINES
  36:Drivers/lvgl/src/hal/lv_hal_disp.c ****  *********************/
  37:Drivers/lvgl/src/hal/lv_hal_disp.c **** 
  38:Drivers/lvgl/src/hal/lv_hal_disp.c **** /**********************
  39:Drivers/lvgl/src/hal/lv_hal_disp.c ****  *      TYPEDEFS
  40:Drivers/lvgl/src/hal/lv_hal_disp.c ****  **********************/
  41:Drivers/lvgl/src/hal/lv_hal_disp.c **** 
  42:Drivers/lvgl/src/hal/lv_hal_disp.c **** /**********************
  43:Drivers/lvgl/src/hal/lv_hal_disp.c ****  *  STATIC PROTOTYPES
  44:Drivers/lvgl/src/hal/lv_hal_disp.c ****  **********************/
ARM GAS  /var/folders/lp/x54gwt890xv47sdkqj1k04q40000gn/T//ccGwZIp8.s 			page 20


  45:Drivers/lvgl/src/hal/lv_hal_disp.c **** static lv_obj_tree_walk_res_t invalidate_layout_cb(lv_obj_t * obj, void * user_data);
  46:Drivers/lvgl/src/hal/lv_hal_disp.c **** 
  47:Drivers/lvgl/src/hal/lv_hal_disp.c **** static void set_px_true_color_alpha(lv_disp_drv_t * disp_drv, uint8_t * buf, lv_coord_t buf_w, lv_c
  48:Drivers/lvgl/src/hal/lv_hal_disp.c ****                                     lv_coord_t y,
  49:Drivers/lvgl/src/hal/lv_hal_disp.c ****                                     lv_color_t color, lv_opa_t opa);
  50:Drivers/lvgl/src/hal/lv_hal_disp.c **** 
  51:Drivers/lvgl/src/hal/lv_hal_disp.c **** static void set_px_cb_alpha1(lv_disp_drv_t * disp_drv, uint8_t * buf, lv_coord_t buf_w, lv_coord_t 
  52:Drivers/lvgl/src/hal/lv_hal_disp.c ****                              lv_color_t color, lv_opa_t opa);
  53:Drivers/lvgl/src/hal/lv_hal_disp.c **** 
  54:Drivers/lvgl/src/hal/lv_hal_disp.c **** static void set_px_cb_alpha2(lv_disp_drv_t * disp_drv, uint8_t * buf, lv_coord_t buf_w, lv_coord_t 
  55:Drivers/lvgl/src/hal/lv_hal_disp.c ****                              lv_color_t color, lv_opa_t opa);
  56:Drivers/lvgl/src/hal/lv_hal_disp.c **** 
  57:Drivers/lvgl/src/hal/lv_hal_disp.c **** static void set_px_cb_alpha4(lv_disp_drv_t * disp_drv, uint8_t * buf, lv_coord_t buf_w, lv_coord_t 
  58:Drivers/lvgl/src/hal/lv_hal_disp.c ****                              lv_color_t color, lv_opa_t opa);
  59:Drivers/lvgl/src/hal/lv_hal_disp.c **** 
  60:Drivers/lvgl/src/hal/lv_hal_disp.c **** static void set_px_cb_alpha8(lv_disp_drv_t * disp_drv, uint8_t * buf, lv_coord_t buf_w, lv_coord_t 
  61:Drivers/lvgl/src/hal/lv_hal_disp.c ****                              lv_color_t color, lv_opa_t opa);
  62:Drivers/lvgl/src/hal/lv_hal_disp.c **** 
  63:Drivers/lvgl/src/hal/lv_hal_disp.c **** static void set_px_alpha_generic(lv_img_dsc_t * d, lv_coord_t x, lv_coord_t y, lv_color_t color, lv
  64:Drivers/lvgl/src/hal/lv_hal_disp.c **** 
  65:Drivers/lvgl/src/hal/lv_hal_disp.c **** /**********************
  66:Drivers/lvgl/src/hal/lv_hal_disp.c ****  *  STATIC VARIABLES
  67:Drivers/lvgl/src/hal/lv_hal_disp.c ****  **********************/
  68:Drivers/lvgl/src/hal/lv_hal_disp.c **** static lv_disp_t * disp_def;
  69:Drivers/lvgl/src/hal/lv_hal_disp.c **** 
  70:Drivers/lvgl/src/hal/lv_hal_disp.c **** /**********************
  71:Drivers/lvgl/src/hal/lv_hal_disp.c ****  *      MACROS
  72:Drivers/lvgl/src/hal/lv_hal_disp.c ****  **********************/
  73:Drivers/lvgl/src/hal/lv_hal_disp.c **** 
  74:Drivers/lvgl/src/hal/lv_hal_disp.c **** /**********************
  75:Drivers/lvgl/src/hal/lv_hal_disp.c ****  *   GLOBAL FUNCTIONS
  76:Drivers/lvgl/src/hal/lv_hal_disp.c ****  **********************/
  77:Drivers/lvgl/src/hal/lv_hal_disp.c **** 
  78:Drivers/lvgl/src/hal/lv_hal_disp.c **** /**
  79:Drivers/lvgl/src/hal/lv_hal_disp.c ****  * Initialize a display driver with default values.
  80:Drivers/lvgl/src/hal/lv_hal_disp.c ****  * It is used to surly have known values in the fields ant not memory junk.
  81:Drivers/lvgl/src/hal/lv_hal_disp.c ****  * After it you can set the fields.
  82:Drivers/lvgl/src/hal/lv_hal_disp.c ****  * @param driver pointer to driver variable to initialize
  83:Drivers/lvgl/src/hal/lv_hal_disp.c ****  */
  84:Drivers/lvgl/src/hal/lv_hal_disp.c **** void lv_disp_drv_init(lv_disp_drv_t * driver)
  85:Drivers/lvgl/src/hal/lv_hal_disp.c **** {
  86:Drivers/lvgl/src/hal/lv_hal_disp.c ****     lv_memset_00(driver, sizeof(lv_disp_drv_t));
  87:Drivers/lvgl/src/hal/lv_hal_disp.c **** 
  88:Drivers/lvgl/src/hal/lv_hal_disp.c ****     driver->hor_res          = 320;
  89:Drivers/lvgl/src/hal/lv_hal_disp.c ****     driver->ver_res          = 240;
  90:Drivers/lvgl/src/hal/lv_hal_disp.c ****     driver->physical_hor_res = -1;
  91:Drivers/lvgl/src/hal/lv_hal_disp.c ****     driver->physical_ver_res = -1;
  92:Drivers/lvgl/src/hal/lv_hal_disp.c ****     driver->offset_x         = 0;
  93:Drivers/lvgl/src/hal/lv_hal_disp.c ****     driver->offset_y         = 0;
  94:Drivers/lvgl/src/hal/lv_hal_disp.c ****     driver->antialiasing     = LV_COLOR_DEPTH > 8 ? 1 : 0;
  95:Drivers/lvgl/src/hal/lv_hal_disp.c ****     driver->screen_transp    = 0;
  96:Drivers/lvgl/src/hal/lv_hal_disp.c ****     driver->dpi              = LV_DPI_DEF;
  97:Drivers/lvgl/src/hal/lv_hal_disp.c ****     driver->color_chroma_key = LV_COLOR_CHROMA_KEY;
  98:Drivers/lvgl/src/hal/lv_hal_disp.c **** 
  99:Drivers/lvgl/src/hal/lv_hal_disp.c **** #if LV_USE_GPU_RA6M3_G2D
 100:Drivers/lvgl/src/hal/lv_hal_disp.c ****     driver->draw_ctx_init = lv_draw_ra6m3_2d_ctx_init;
 101:Drivers/lvgl/src/hal/lv_hal_disp.c ****     driver->draw_ctx_deinit = lv_draw_ra6m3_2d_ctx_init;
ARM GAS  /var/folders/lp/x54gwt890xv47sdkqj1k04q40000gn/T//ccGwZIp8.s 			page 21


 102:Drivers/lvgl/src/hal/lv_hal_disp.c ****     driver->draw_ctx_size = sizeof(lv_draw_ra6m3_dma2d_ctx_t);
 103:Drivers/lvgl/src/hal/lv_hal_disp.c **** #elif LV_USE_GPU_STM32_DMA2D
 104:Drivers/lvgl/src/hal/lv_hal_disp.c ****     driver->draw_ctx_init = lv_draw_stm32_dma2d_ctx_init;
 105:Drivers/lvgl/src/hal/lv_hal_disp.c ****     driver->draw_ctx_deinit = lv_draw_stm32_dma2d_ctx_init;
 106:Drivers/lvgl/src/hal/lv_hal_disp.c ****     driver->draw_ctx_size = sizeof(lv_draw_stm32_dma2d_ctx_t);
 107:Drivers/lvgl/src/hal/lv_hal_disp.c **** #elif LV_USE_GPU_SWM341_DMA2D
 108:Drivers/lvgl/src/hal/lv_hal_disp.c ****     driver->draw_ctx_init = lv_draw_swm341_dma2d_ctx_init;
 109:Drivers/lvgl/src/hal/lv_hal_disp.c ****     driver->draw_ctx_deinit = lv_draw_swm341_dma2d_ctx_init;
 110:Drivers/lvgl/src/hal/lv_hal_disp.c ****     driver->draw_ctx_size = sizeof(lv_draw_swm341_dma2d_ctx_t);
 111:Drivers/lvgl/src/hal/lv_hal_disp.c **** #elif LV_USE_GPU_NXP_VG_LITE
 112:Drivers/lvgl/src/hal/lv_hal_disp.c ****     driver->draw_ctx_init = lv_draw_vglite_ctx_init;
 113:Drivers/lvgl/src/hal/lv_hal_disp.c ****     driver->draw_ctx_deinit = lv_draw_vglite_ctx_deinit;
 114:Drivers/lvgl/src/hal/lv_hal_disp.c ****     driver->draw_ctx_size = sizeof(lv_draw_vglite_ctx_t);
 115:Drivers/lvgl/src/hal/lv_hal_disp.c **** #elif LV_USE_GPU_NXP_PXP
 116:Drivers/lvgl/src/hal/lv_hal_disp.c ****     driver->draw_ctx_init = lv_draw_pxp_ctx_init;
 117:Drivers/lvgl/src/hal/lv_hal_disp.c ****     driver->draw_ctx_deinit = lv_draw_pxp_ctx_deinit;
 118:Drivers/lvgl/src/hal/lv_hal_disp.c ****     driver->draw_ctx_size = sizeof(lv_draw_pxp_ctx_t);
 119:Drivers/lvgl/src/hal/lv_hal_disp.c **** #elif LV_USE_GPU_SDL
 120:Drivers/lvgl/src/hal/lv_hal_disp.c ****     driver->draw_ctx_init = lv_draw_sdl_init_ctx;
 121:Drivers/lvgl/src/hal/lv_hal_disp.c ****     driver->draw_ctx_deinit = lv_draw_sdl_deinit_ctx;
 122:Drivers/lvgl/src/hal/lv_hal_disp.c ****     driver->draw_ctx_size = sizeof(lv_draw_sdl_ctx_t);
 123:Drivers/lvgl/src/hal/lv_hal_disp.c **** #elif LV_USE_GPU_ARM2D
 124:Drivers/lvgl/src/hal/lv_hal_disp.c ****     driver->draw_ctx_init = lv_draw_arm2d_ctx_init;
 125:Drivers/lvgl/src/hal/lv_hal_disp.c ****     driver->draw_ctx_deinit = lv_draw_arm2d_ctx_init;
 126:Drivers/lvgl/src/hal/lv_hal_disp.c ****     driver->draw_ctx_size = sizeof(lv_draw_arm2d_ctx_t);
 127:Drivers/lvgl/src/hal/lv_hal_disp.c **** #else
 128:Drivers/lvgl/src/hal/lv_hal_disp.c ****     driver->draw_ctx_init = lv_draw_sw_init_ctx;
 129:Drivers/lvgl/src/hal/lv_hal_disp.c ****     driver->draw_ctx_deinit = lv_draw_sw_init_ctx;
 130:Drivers/lvgl/src/hal/lv_hal_disp.c ****     driver->draw_ctx_size = sizeof(lv_draw_sw_ctx_t);
 131:Drivers/lvgl/src/hal/lv_hal_disp.c **** #endif
 132:Drivers/lvgl/src/hal/lv_hal_disp.c **** 
 133:Drivers/lvgl/src/hal/lv_hal_disp.c **** }
 134:Drivers/lvgl/src/hal/lv_hal_disp.c **** 
 135:Drivers/lvgl/src/hal/lv_hal_disp.c **** /**
 136:Drivers/lvgl/src/hal/lv_hal_disp.c ****  * Initialize a display buffer
 137:Drivers/lvgl/src/hal/lv_hal_disp.c ****  * @param draw_buf pointer `lv_disp_draw_buf_t` variable to initialize
 138:Drivers/lvgl/src/hal/lv_hal_disp.c ****  * @param buf1 A buffer to be used by LVGL to draw the image.
 139:Drivers/lvgl/src/hal/lv_hal_disp.c ****  *             Always has to specified and can't be NULL.
 140:Drivers/lvgl/src/hal/lv_hal_disp.c ****  *             Can be an array allocated by the user. E.g. `static lv_color_t disp_buf1[1024 * 10]`
 141:Drivers/lvgl/src/hal/lv_hal_disp.c ****  *             Or a memory address e.g. in external SRAM
 142:Drivers/lvgl/src/hal/lv_hal_disp.c ****  * @param buf2 Optionally specify a second buffer to make image rendering and image flushing
 143:Drivers/lvgl/src/hal/lv_hal_disp.c ****  *             (sending to the display) parallel.
 144:Drivers/lvgl/src/hal/lv_hal_disp.c ****  *             In the `disp_drv->flush` you should use DMA or similar hardware to send
 145:Drivers/lvgl/src/hal/lv_hal_disp.c ****  *             the image to the display in the background.
 146:Drivers/lvgl/src/hal/lv_hal_disp.c ****  *             It lets LVGL to render next frame into the other buffer while previous is being
 147:Drivers/lvgl/src/hal/lv_hal_disp.c ****  * sent. Set to `NULL` if unused.
 148:Drivers/lvgl/src/hal/lv_hal_disp.c ****  * @param size_in_px_cnt size of the `buf1` and `buf2` in pixel count.
 149:Drivers/lvgl/src/hal/lv_hal_disp.c ****  */
 150:Drivers/lvgl/src/hal/lv_hal_disp.c **** void lv_disp_draw_buf_init(lv_disp_draw_buf_t * draw_buf, void * buf1, void * buf2, uint32_t size_i
 151:Drivers/lvgl/src/hal/lv_hal_disp.c **** {
 152:Drivers/lvgl/src/hal/lv_hal_disp.c ****     lv_memset_00(draw_buf, sizeof(lv_disp_draw_buf_t));
 153:Drivers/lvgl/src/hal/lv_hal_disp.c **** 
 154:Drivers/lvgl/src/hal/lv_hal_disp.c ****     draw_buf->buf1    = buf1;
 155:Drivers/lvgl/src/hal/lv_hal_disp.c ****     draw_buf->buf2    = buf2;
 156:Drivers/lvgl/src/hal/lv_hal_disp.c ****     draw_buf->buf_act = draw_buf->buf1;
 157:Drivers/lvgl/src/hal/lv_hal_disp.c ****     draw_buf->size    = size_in_px_cnt;
 158:Drivers/lvgl/src/hal/lv_hal_disp.c **** }
ARM GAS  /var/folders/lp/x54gwt890xv47sdkqj1k04q40000gn/T//ccGwZIp8.s 			page 22


 159:Drivers/lvgl/src/hal/lv_hal_disp.c **** 
 160:Drivers/lvgl/src/hal/lv_hal_disp.c **** /**
 161:Drivers/lvgl/src/hal/lv_hal_disp.c ****  * Register an initialized display driver.
 162:Drivers/lvgl/src/hal/lv_hal_disp.c ****  * Automatically set the first display as active.
 163:Drivers/lvgl/src/hal/lv_hal_disp.c ****  * @param driver pointer to an initialized 'lv_disp_drv_t' variable. Only its pointer is saved!
 164:Drivers/lvgl/src/hal/lv_hal_disp.c ****  * @return pointer to the new display or NULL on error
 165:Drivers/lvgl/src/hal/lv_hal_disp.c ****  */
 166:Drivers/lvgl/src/hal/lv_hal_disp.c **** lv_disp_t * lv_disp_drv_register(lv_disp_drv_t * driver)
 167:Drivers/lvgl/src/hal/lv_hal_disp.c **** {
 168:Drivers/lvgl/src/hal/lv_hal_disp.c ****     lv_disp_t * disp = _lv_ll_ins_head(&LV_GC_ROOT(_lv_disp_ll));
 169:Drivers/lvgl/src/hal/lv_hal_disp.c ****     LV_ASSERT_MALLOC(disp);
 170:Drivers/lvgl/src/hal/lv_hal_disp.c ****     if(!disp) {
 171:Drivers/lvgl/src/hal/lv_hal_disp.c ****         return NULL;
 172:Drivers/lvgl/src/hal/lv_hal_disp.c ****     }
 173:Drivers/lvgl/src/hal/lv_hal_disp.c **** 
 174:Drivers/lvgl/src/hal/lv_hal_disp.c ****     /*Create a draw context if not created yet*/
 175:Drivers/lvgl/src/hal/lv_hal_disp.c ****     if(driver->draw_ctx == NULL) {
 176:Drivers/lvgl/src/hal/lv_hal_disp.c ****         lv_draw_ctx_t * draw_ctx = lv_mem_alloc(driver->draw_ctx_size);
 177:Drivers/lvgl/src/hal/lv_hal_disp.c ****         LV_ASSERT_MALLOC(draw_ctx);
 178:Drivers/lvgl/src/hal/lv_hal_disp.c ****         if(draw_ctx == NULL) return NULL;
 179:Drivers/lvgl/src/hal/lv_hal_disp.c ****         driver->draw_ctx_init(driver, draw_ctx);
 180:Drivers/lvgl/src/hal/lv_hal_disp.c ****         driver->draw_ctx = draw_ctx;
 181:Drivers/lvgl/src/hal/lv_hal_disp.c ****     }
 182:Drivers/lvgl/src/hal/lv_hal_disp.c **** 
 183:Drivers/lvgl/src/hal/lv_hal_disp.c ****     lv_memset_00(disp, sizeof(lv_disp_t));
 184:Drivers/lvgl/src/hal/lv_hal_disp.c **** 
 185:Drivers/lvgl/src/hal/lv_hal_disp.c ****     disp->driver = driver;
 186:Drivers/lvgl/src/hal/lv_hal_disp.c **** 
 187:Drivers/lvgl/src/hal/lv_hal_disp.c ****     disp->inv_en_cnt = 1;
 188:Drivers/lvgl/src/hal/lv_hal_disp.c **** 
 189:Drivers/lvgl/src/hal/lv_hal_disp.c ****     _lv_ll_init(&disp->sync_areas, sizeof(lv_area_t));
 190:Drivers/lvgl/src/hal/lv_hal_disp.c **** 
 191:Drivers/lvgl/src/hal/lv_hal_disp.c ****     lv_disp_t * disp_def_tmp = disp_def;
 192:Drivers/lvgl/src/hal/lv_hal_disp.c ****     disp_def                 = disp; /*Temporarily change the default screen to create the default 
 193:Drivers/lvgl/src/hal/lv_hal_disp.c ****                                         new display*/
 194:Drivers/lvgl/src/hal/lv_hal_disp.c ****     /*Create a refresh timer*/
 195:Drivers/lvgl/src/hal/lv_hal_disp.c ****     disp->refr_timer = lv_timer_create(_lv_disp_refr_timer, LV_DISP_DEF_REFR_PERIOD, disp);
 196:Drivers/lvgl/src/hal/lv_hal_disp.c ****     LV_ASSERT_MALLOC(disp->refr_timer);
 197:Drivers/lvgl/src/hal/lv_hal_disp.c ****     if(disp->refr_timer == NULL) {
 198:Drivers/lvgl/src/hal/lv_hal_disp.c ****         lv_mem_free(disp);
 199:Drivers/lvgl/src/hal/lv_hal_disp.c ****         return NULL;
 200:Drivers/lvgl/src/hal/lv_hal_disp.c ****     }
 201:Drivers/lvgl/src/hal/lv_hal_disp.c **** 
 202:Drivers/lvgl/src/hal/lv_hal_disp.c ****     if(driver->full_refresh && driver->draw_buf->size < (uint32_t)driver->hor_res * driver->ver_res
 203:Drivers/lvgl/src/hal/lv_hal_disp.c ****         driver->full_refresh = 0;
 204:Drivers/lvgl/src/hal/lv_hal_disp.c ****         LV_LOG_WARN("full_refresh requires at least screen sized draw buffer(s)");
 205:Drivers/lvgl/src/hal/lv_hal_disp.c ****     }
 206:Drivers/lvgl/src/hal/lv_hal_disp.c **** 
 207:Drivers/lvgl/src/hal/lv_hal_disp.c ****     disp->bg_color = lv_color_white();
 208:Drivers/lvgl/src/hal/lv_hal_disp.c **** #if LV_COLOR_SCREEN_TRANSP
 209:Drivers/lvgl/src/hal/lv_hal_disp.c ****     disp->bg_opa = LV_OPA_TRANSP;
 210:Drivers/lvgl/src/hal/lv_hal_disp.c **** #else
 211:Drivers/lvgl/src/hal/lv_hal_disp.c ****     disp->bg_opa = LV_OPA_COVER;
 212:Drivers/lvgl/src/hal/lv_hal_disp.c **** #endif
 213:Drivers/lvgl/src/hal/lv_hal_disp.c **** 
 214:Drivers/lvgl/src/hal/lv_hal_disp.c **** #if LV_USE_THEME_DEFAULT
 215:Drivers/lvgl/src/hal/lv_hal_disp.c ****     if(lv_theme_default_is_inited() == false) {
ARM GAS  /var/folders/lp/x54gwt890xv47sdkqj1k04q40000gn/T//ccGwZIp8.s 			page 23


 216:Drivers/lvgl/src/hal/lv_hal_disp.c ****         disp->theme = lv_theme_default_init(disp, lv_palette_main(LV_PALETTE_BLUE), lv_palette_main
 217:Drivers/lvgl/src/hal/lv_hal_disp.c ****                                             LV_THEME_DEFAULT_DARK, LV_FONT_DEFAULT);
 218:Drivers/lvgl/src/hal/lv_hal_disp.c ****     }
 219:Drivers/lvgl/src/hal/lv_hal_disp.c ****     else {
 220:Drivers/lvgl/src/hal/lv_hal_disp.c ****         disp->theme = lv_theme_default_get();
 221:Drivers/lvgl/src/hal/lv_hal_disp.c ****     }
 222:Drivers/lvgl/src/hal/lv_hal_disp.c **** #endif
 223:Drivers/lvgl/src/hal/lv_hal_disp.c **** 
 224:Drivers/lvgl/src/hal/lv_hal_disp.c ****     disp->act_scr   = lv_obj_create(NULL); /*Create a default screen on the display*/
 225:Drivers/lvgl/src/hal/lv_hal_disp.c ****     disp->top_layer = lv_obj_create(NULL); /*Create top layer on the display*/
 226:Drivers/lvgl/src/hal/lv_hal_disp.c ****     disp->sys_layer = lv_obj_create(NULL); /*Create sys layer on the display*/
 227:Drivers/lvgl/src/hal/lv_hal_disp.c ****     lv_obj_remove_style_all(disp->top_layer);
 228:Drivers/lvgl/src/hal/lv_hal_disp.c ****     lv_obj_remove_style_all(disp->sys_layer);
 229:Drivers/lvgl/src/hal/lv_hal_disp.c ****     lv_obj_clear_flag(disp->top_layer, LV_OBJ_FLAG_CLICKABLE);
 230:Drivers/lvgl/src/hal/lv_hal_disp.c ****     lv_obj_clear_flag(disp->sys_layer, LV_OBJ_FLAG_CLICKABLE);
 231:Drivers/lvgl/src/hal/lv_hal_disp.c **** 
 232:Drivers/lvgl/src/hal/lv_hal_disp.c ****     lv_obj_set_scrollbar_mode(disp->top_layer, LV_SCROLLBAR_MODE_OFF);
 233:Drivers/lvgl/src/hal/lv_hal_disp.c ****     lv_obj_set_scrollbar_mode(disp->sys_layer, LV_SCROLLBAR_MODE_OFF);
 234:Drivers/lvgl/src/hal/lv_hal_disp.c **** 
 235:Drivers/lvgl/src/hal/lv_hal_disp.c ****     lv_obj_invalidate(disp->act_scr);
 236:Drivers/lvgl/src/hal/lv_hal_disp.c **** 
 237:Drivers/lvgl/src/hal/lv_hal_disp.c ****     disp_def = disp_def_tmp; /*Revert the default display*/
 238:Drivers/lvgl/src/hal/lv_hal_disp.c ****     if(disp_def == NULL) disp_def = disp; /*Initialize the default display*/
 239:Drivers/lvgl/src/hal/lv_hal_disp.c **** 
 240:Drivers/lvgl/src/hal/lv_hal_disp.c ****     lv_timer_ready(disp->refr_timer); /*Be sure the screen will be refreshed immediately on start u
 241:Drivers/lvgl/src/hal/lv_hal_disp.c **** 
 242:Drivers/lvgl/src/hal/lv_hal_disp.c ****     return disp;
 243:Drivers/lvgl/src/hal/lv_hal_disp.c **** }
 244:Drivers/lvgl/src/hal/lv_hal_disp.c **** 
 245:Drivers/lvgl/src/hal/lv_hal_disp.c **** /**
 246:Drivers/lvgl/src/hal/lv_hal_disp.c ****  * Update the driver in run time.
 247:Drivers/lvgl/src/hal/lv_hal_disp.c ****  * @param disp pointer to a display. (return value of `lv_disp_drv_register`)
 248:Drivers/lvgl/src/hal/lv_hal_disp.c ****  * @param new_drv pointer to the new driver
 249:Drivers/lvgl/src/hal/lv_hal_disp.c ****  */
 250:Drivers/lvgl/src/hal/lv_hal_disp.c **** void lv_disp_drv_update(lv_disp_t * disp, lv_disp_drv_t * new_drv)
 251:Drivers/lvgl/src/hal/lv_hal_disp.c **** {
 252:Drivers/lvgl/src/hal/lv_hal_disp.c ****     disp->driver = new_drv;
 253:Drivers/lvgl/src/hal/lv_hal_disp.c **** 
 254:Drivers/lvgl/src/hal/lv_hal_disp.c ****     if(disp->driver->full_refresh &&
 255:Drivers/lvgl/src/hal/lv_hal_disp.c ****        disp->driver->draw_buf->size < (uint32_t)disp->driver->hor_res * disp->driver->ver_res) {
 256:Drivers/lvgl/src/hal/lv_hal_disp.c ****         disp->driver->full_refresh = 0;
 257:Drivers/lvgl/src/hal/lv_hal_disp.c ****         LV_LOG_WARN("full_refresh requires at least screen sized draw buffer(s)");
 258:Drivers/lvgl/src/hal/lv_hal_disp.c ****     }
 259:Drivers/lvgl/src/hal/lv_hal_disp.c **** 
 260:Drivers/lvgl/src/hal/lv_hal_disp.c ****     lv_coord_t w = lv_disp_get_hor_res(disp);
 261:Drivers/lvgl/src/hal/lv_hal_disp.c ****     lv_coord_t h = lv_disp_get_ver_res(disp);
 262:Drivers/lvgl/src/hal/lv_hal_disp.c ****     uint32_t i;
 263:Drivers/lvgl/src/hal/lv_hal_disp.c ****     for(i = 0; i < disp->screen_cnt; i++) {
 264:Drivers/lvgl/src/hal/lv_hal_disp.c ****         lv_area_t prev_coords;
 265:Drivers/lvgl/src/hal/lv_hal_disp.c ****         lv_obj_get_coords(disp->screens[i], &prev_coords);
 266:Drivers/lvgl/src/hal/lv_hal_disp.c ****         lv_area_set_width(&disp->screens[i]->coords, w);
 267:Drivers/lvgl/src/hal/lv_hal_disp.c ****         lv_area_set_height(&disp->screens[i]->coords, h);
 268:Drivers/lvgl/src/hal/lv_hal_disp.c ****         lv_event_send(disp->screens[i], LV_EVENT_SIZE_CHANGED, &prev_coords);
 269:Drivers/lvgl/src/hal/lv_hal_disp.c ****     }
 270:Drivers/lvgl/src/hal/lv_hal_disp.c **** 
 271:Drivers/lvgl/src/hal/lv_hal_disp.c ****     /*
 272:Drivers/lvgl/src/hal/lv_hal_disp.c ****      * This method is usually called upon orientation change, thus the screen is now a
ARM GAS  /var/folders/lp/x54gwt890xv47sdkqj1k04q40000gn/T//ccGwZIp8.s 			page 24


 273:Drivers/lvgl/src/hal/lv_hal_disp.c ****      * different size.
 274:Drivers/lvgl/src/hal/lv_hal_disp.c ****      * The object invalidated its previous area. That area is now out of the screen area
 275:Drivers/lvgl/src/hal/lv_hal_disp.c ****      * so we reset all invalidated areas and invalidate the active screen's new area only.
 276:Drivers/lvgl/src/hal/lv_hal_disp.c ****      */
 277:Drivers/lvgl/src/hal/lv_hal_disp.c ****     lv_memset_00(disp->inv_areas, sizeof(disp->inv_areas));
 278:Drivers/lvgl/src/hal/lv_hal_disp.c ****     lv_memset_00(disp->inv_area_joined, sizeof(disp->inv_area_joined));
 279:Drivers/lvgl/src/hal/lv_hal_disp.c ****     disp->inv_p = 0;
 280:Drivers/lvgl/src/hal/lv_hal_disp.c ****     if(disp->act_scr != NULL) lv_obj_invalidate(disp->act_scr);
 281:Drivers/lvgl/src/hal/lv_hal_disp.c **** 
 282:Drivers/lvgl/src/hal/lv_hal_disp.c ****     lv_obj_tree_walk(NULL, invalidate_layout_cb, NULL);
 283:Drivers/lvgl/src/hal/lv_hal_disp.c **** 
 284:Drivers/lvgl/src/hal/lv_hal_disp.c ****     if(disp->driver->drv_update_cb) disp->driver->drv_update_cb(disp->driver);
 285:Drivers/lvgl/src/hal/lv_hal_disp.c **** }
 286:Drivers/lvgl/src/hal/lv_hal_disp.c **** 
 287:Drivers/lvgl/src/hal/lv_hal_disp.c **** /**
 288:Drivers/lvgl/src/hal/lv_hal_disp.c ****  * Remove a display
 289:Drivers/lvgl/src/hal/lv_hal_disp.c ****  * @param disp pointer to display
 290:Drivers/lvgl/src/hal/lv_hal_disp.c ****  */
 291:Drivers/lvgl/src/hal/lv_hal_disp.c **** void lv_disp_remove(lv_disp_t * disp)
 292:Drivers/lvgl/src/hal/lv_hal_disp.c **** {
 293:Drivers/lvgl/src/hal/lv_hal_disp.c ****     bool was_default = false;
 294:Drivers/lvgl/src/hal/lv_hal_disp.c ****     if(disp == lv_disp_get_default()) was_default = true;
 295:Drivers/lvgl/src/hal/lv_hal_disp.c **** 
 296:Drivers/lvgl/src/hal/lv_hal_disp.c ****     /*Detach the input devices*/
 297:Drivers/lvgl/src/hal/lv_hal_disp.c ****     lv_indev_t * indev;
 298:Drivers/lvgl/src/hal/lv_hal_disp.c ****     indev = lv_indev_get_next(NULL);
 299:Drivers/lvgl/src/hal/lv_hal_disp.c ****     while(indev) {
 300:Drivers/lvgl/src/hal/lv_hal_disp.c ****         if(indev->driver->disp == disp) {
 301:Drivers/lvgl/src/hal/lv_hal_disp.c ****             indev->driver->disp = NULL;
 302:Drivers/lvgl/src/hal/lv_hal_disp.c ****         }
 303:Drivers/lvgl/src/hal/lv_hal_disp.c ****         indev = lv_indev_get_next(indev);
 304:Drivers/lvgl/src/hal/lv_hal_disp.c ****     }
 305:Drivers/lvgl/src/hal/lv_hal_disp.c **** 
 306:Drivers/lvgl/src/hal/lv_hal_disp.c ****     /** delete screen and other obj */
 307:Drivers/lvgl/src/hal/lv_hal_disp.c ****     if(disp->sys_layer) {
 308:Drivers/lvgl/src/hal/lv_hal_disp.c ****         lv_obj_del(disp->sys_layer);
 309:Drivers/lvgl/src/hal/lv_hal_disp.c ****         disp->sys_layer = NULL;
 310:Drivers/lvgl/src/hal/lv_hal_disp.c ****     }
 311:Drivers/lvgl/src/hal/lv_hal_disp.c ****     if(disp->top_layer) {
 312:Drivers/lvgl/src/hal/lv_hal_disp.c ****         lv_obj_del(disp->top_layer);
 313:Drivers/lvgl/src/hal/lv_hal_disp.c ****         disp->top_layer = NULL;
 314:Drivers/lvgl/src/hal/lv_hal_disp.c ****     }
 315:Drivers/lvgl/src/hal/lv_hal_disp.c ****     while(disp->screen_cnt != 0) {
 316:Drivers/lvgl/src/hal/lv_hal_disp.c ****         /*Delete the screenst*/
 317:Drivers/lvgl/src/hal/lv_hal_disp.c ****         lv_obj_del(disp->screens[0]);
 318:Drivers/lvgl/src/hal/lv_hal_disp.c ****     }
 319:Drivers/lvgl/src/hal/lv_hal_disp.c **** 
 320:Drivers/lvgl/src/hal/lv_hal_disp.c ****     _lv_ll_remove(&LV_GC_ROOT(_lv_disp_ll), disp);
 321:Drivers/lvgl/src/hal/lv_hal_disp.c ****     _lv_ll_clear(&disp->sync_areas);
 322:Drivers/lvgl/src/hal/lv_hal_disp.c ****     if(disp->refr_timer) lv_timer_del(disp->refr_timer);
 323:Drivers/lvgl/src/hal/lv_hal_disp.c ****     lv_mem_free(disp);
 324:Drivers/lvgl/src/hal/lv_hal_disp.c **** 
 325:Drivers/lvgl/src/hal/lv_hal_disp.c ****     if(was_default) lv_disp_set_default(_lv_ll_get_head(&LV_GC_ROOT(_lv_disp_ll)));
 326:Drivers/lvgl/src/hal/lv_hal_disp.c **** }
 327:Drivers/lvgl/src/hal/lv_hal_disp.c **** 
 328:Drivers/lvgl/src/hal/lv_hal_disp.c **** /**
 329:Drivers/lvgl/src/hal/lv_hal_disp.c ****  * Set a default display. The new screens will be created on it by default.
ARM GAS  /var/folders/lp/x54gwt890xv47sdkqj1k04q40000gn/T//ccGwZIp8.s 			page 25


 330:Drivers/lvgl/src/hal/lv_hal_disp.c ****  * @param disp pointer to a display
 331:Drivers/lvgl/src/hal/lv_hal_disp.c ****  */
 332:Drivers/lvgl/src/hal/lv_hal_disp.c **** void lv_disp_set_default(lv_disp_t * disp)
 333:Drivers/lvgl/src/hal/lv_hal_disp.c **** {
 334:Drivers/lvgl/src/hal/lv_hal_disp.c ****     disp_def = disp;
 335:Drivers/lvgl/src/hal/lv_hal_disp.c **** }
 336:Drivers/lvgl/src/hal/lv_hal_disp.c **** 
 337:Drivers/lvgl/src/hal/lv_hal_disp.c **** /**
 338:Drivers/lvgl/src/hal/lv_hal_disp.c ****  * Get the default display
 339:Drivers/lvgl/src/hal/lv_hal_disp.c ****  * @return pointer to the default display
 340:Drivers/lvgl/src/hal/lv_hal_disp.c ****  */
 341:Drivers/lvgl/src/hal/lv_hal_disp.c **** lv_disp_t * lv_disp_get_default(void)
 342:Drivers/lvgl/src/hal/lv_hal_disp.c **** {
 343:Drivers/lvgl/src/hal/lv_hal_disp.c ****     return disp_def;
 344:Drivers/lvgl/src/hal/lv_hal_disp.c **** }
 345:Drivers/lvgl/src/hal/lv_hal_disp.c **** 
 346:Drivers/lvgl/src/hal/lv_hal_disp.c **** /**
 347:Drivers/lvgl/src/hal/lv_hal_disp.c ****  * Get the horizontal resolution of a display
 348:Drivers/lvgl/src/hal/lv_hal_disp.c ****  * @param disp pointer to a display (NULL to use the default display)
 349:Drivers/lvgl/src/hal/lv_hal_disp.c ****  * @return the horizontal resolution of the display
 350:Drivers/lvgl/src/hal/lv_hal_disp.c ****  */
 351:Drivers/lvgl/src/hal/lv_hal_disp.c **** lv_coord_t lv_disp_get_hor_res(lv_disp_t * disp)
 352:Drivers/lvgl/src/hal/lv_hal_disp.c **** {
 353:Drivers/lvgl/src/hal/lv_hal_disp.c ****     if(disp == NULL) disp = lv_disp_get_default();
 354:Drivers/lvgl/src/hal/lv_hal_disp.c **** 
 355:Drivers/lvgl/src/hal/lv_hal_disp.c ****     if(disp == NULL) {
 356:Drivers/lvgl/src/hal/lv_hal_disp.c ****         return 0;
 357:Drivers/lvgl/src/hal/lv_hal_disp.c ****     }
 358:Drivers/lvgl/src/hal/lv_hal_disp.c ****     else {
 359:Drivers/lvgl/src/hal/lv_hal_disp.c ****         switch(disp->driver->rotated) {
 360:Drivers/lvgl/src/hal/lv_hal_disp.c ****             case LV_DISP_ROT_90:
 361:Drivers/lvgl/src/hal/lv_hal_disp.c ****             case LV_DISP_ROT_270:
 362:Drivers/lvgl/src/hal/lv_hal_disp.c ****                 return disp->driver->ver_res;
 363:Drivers/lvgl/src/hal/lv_hal_disp.c ****             default:
 364:Drivers/lvgl/src/hal/lv_hal_disp.c ****                 return disp->driver->hor_res;
 365:Drivers/lvgl/src/hal/lv_hal_disp.c ****         }
 366:Drivers/lvgl/src/hal/lv_hal_disp.c ****     }
 367:Drivers/lvgl/src/hal/lv_hal_disp.c **** }
 368:Drivers/lvgl/src/hal/lv_hal_disp.c **** 
 369:Drivers/lvgl/src/hal/lv_hal_disp.c **** /**
 370:Drivers/lvgl/src/hal/lv_hal_disp.c ****  * Get the vertical resolution of a display
 371:Drivers/lvgl/src/hal/lv_hal_disp.c ****  * @param disp pointer to a display (NULL to use the default display)
 372:Drivers/lvgl/src/hal/lv_hal_disp.c ****  * @return the vertical resolution of the display
 373:Drivers/lvgl/src/hal/lv_hal_disp.c ****  */
 374:Drivers/lvgl/src/hal/lv_hal_disp.c **** lv_coord_t lv_disp_get_ver_res(lv_disp_t * disp)
 375:Drivers/lvgl/src/hal/lv_hal_disp.c **** {
 376:Drivers/lvgl/src/hal/lv_hal_disp.c ****     if(disp == NULL) disp = lv_disp_get_default();
 377:Drivers/lvgl/src/hal/lv_hal_disp.c **** 
 378:Drivers/lvgl/src/hal/lv_hal_disp.c ****     if(disp == NULL) {
 379:Drivers/lvgl/src/hal/lv_hal_disp.c ****         return 0;
 380:Drivers/lvgl/src/hal/lv_hal_disp.c ****     }
 381:Drivers/lvgl/src/hal/lv_hal_disp.c ****     else {
 382:Drivers/lvgl/src/hal/lv_hal_disp.c ****         switch(disp->driver->rotated) {
 383:Drivers/lvgl/src/hal/lv_hal_disp.c ****             case LV_DISP_ROT_90:
 384:Drivers/lvgl/src/hal/lv_hal_disp.c ****             case LV_DISP_ROT_270:
 385:Drivers/lvgl/src/hal/lv_hal_disp.c ****                 return disp->driver->hor_res;
 386:Drivers/lvgl/src/hal/lv_hal_disp.c ****             default:
ARM GAS  /var/folders/lp/x54gwt890xv47sdkqj1k04q40000gn/T//ccGwZIp8.s 			page 26


 387:Drivers/lvgl/src/hal/lv_hal_disp.c ****                 return disp->driver->ver_res;
 388:Drivers/lvgl/src/hal/lv_hal_disp.c ****         }
 389:Drivers/lvgl/src/hal/lv_hal_disp.c ****     }
 390:Drivers/lvgl/src/hal/lv_hal_disp.c **** }
 391:Drivers/lvgl/src/hal/lv_hal_disp.c **** 
 392:Drivers/lvgl/src/hal/lv_hal_disp.c **** /**
 393:Drivers/lvgl/src/hal/lv_hal_disp.c ****  * Get the full / physical horizontal resolution of a display
 394:Drivers/lvgl/src/hal/lv_hal_disp.c ****  * @param disp pointer to a display (NULL to use the default display)
 395:Drivers/lvgl/src/hal/lv_hal_disp.c ****  * @return the full / physical horizontal resolution of the display
 396:Drivers/lvgl/src/hal/lv_hal_disp.c ****  */
 397:Drivers/lvgl/src/hal/lv_hal_disp.c **** lv_coord_t lv_disp_get_physical_hor_res(lv_disp_t * disp)
 398:Drivers/lvgl/src/hal/lv_hal_disp.c **** {
 399:Drivers/lvgl/src/hal/lv_hal_disp.c ****     if(disp == NULL) disp = lv_disp_get_default();
 400:Drivers/lvgl/src/hal/lv_hal_disp.c **** 
 401:Drivers/lvgl/src/hal/lv_hal_disp.c ****     if(disp == NULL) {
 402:Drivers/lvgl/src/hal/lv_hal_disp.c ****         return 0;
 403:Drivers/lvgl/src/hal/lv_hal_disp.c ****     }
 404:Drivers/lvgl/src/hal/lv_hal_disp.c ****     else {
 405:Drivers/lvgl/src/hal/lv_hal_disp.c ****         switch(disp->driver->rotated) {
 406:Drivers/lvgl/src/hal/lv_hal_disp.c ****             case LV_DISP_ROT_90:
 407:Drivers/lvgl/src/hal/lv_hal_disp.c ****             case LV_DISP_ROT_270:
 408:Drivers/lvgl/src/hal/lv_hal_disp.c ****                 return disp->driver->physical_ver_res > 0 ? disp->driver->physical_ver_res : disp->
 409:Drivers/lvgl/src/hal/lv_hal_disp.c ****             default:
 410:Drivers/lvgl/src/hal/lv_hal_disp.c ****                 return disp->driver->physical_hor_res > 0 ? disp->driver->physical_hor_res : disp->
 411:Drivers/lvgl/src/hal/lv_hal_disp.c ****         }
 412:Drivers/lvgl/src/hal/lv_hal_disp.c ****     }
 413:Drivers/lvgl/src/hal/lv_hal_disp.c **** }
 414:Drivers/lvgl/src/hal/lv_hal_disp.c **** 
 415:Drivers/lvgl/src/hal/lv_hal_disp.c **** /**
 416:Drivers/lvgl/src/hal/lv_hal_disp.c ****  * Get the full / physical vertical resolution of a display
 417:Drivers/lvgl/src/hal/lv_hal_disp.c ****  * @param disp pointer to a display (NULL to use the default display)
 418:Drivers/lvgl/src/hal/lv_hal_disp.c ****  * @return the full / physical vertical resolution of the display
 419:Drivers/lvgl/src/hal/lv_hal_disp.c ****  */
 420:Drivers/lvgl/src/hal/lv_hal_disp.c **** lv_coord_t lv_disp_get_physical_ver_res(lv_disp_t * disp)
 421:Drivers/lvgl/src/hal/lv_hal_disp.c **** {
 422:Drivers/lvgl/src/hal/lv_hal_disp.c ****     if(disp == NULL) disp = lv_disp_get_default();
 423:Drivers/lvgl/src/hal/lv_hal_disp.c **** 
 424:Drivers/lvgl/src/hal/lv_hal_disp.c ****     if(disp == NULL) {
 425:Drivers/lvgl/src/hal/lv_hal_disp.c ****         return 0;
 426:Drivers/lvgl/src/hal/lv_hal_disp.c ****     }
 427:Drivers/lvgl/src/hal/lv_hal_disp.c ****     else {
 428:Drivers/lvgl/src/hal/lv_hal_disp.c ****         switch(disp->driver->rotated) {
 429:Drivers/lvgl/src/hal/lv_hal_disp.c ****             case LV_DISP_ROT_90:
 430:Drivers/lvgl/src/hal/lv_hal_disp.c ****             case LV_DISP_ROT_270:
 431:Drivers/lvgl/src/hal/lv_hal_disp.c ****                 return disp->driver->physical_hor_res > 0 ? disp->driver->physical_hor_res : disp->
 432:Drivers/lvgl/src/hal/lv_hal_disp.c ****             default:
 433:Drivers/lvgl/src/hal/lv_hal_disp.c ****                 return disp->driver->physical_ver_res > 0 ? disp->driver->physical_ver_res : disp->
 434:Drivers/lvgl/src/hal/lv_hal_disp.c ****         }
 435:Drivers/lvgl/src/hal/lv_hal_disp.c ****     }
 436:Drivers/lvgl/src/hal/lv_hal_disp.c **** }
 437:Drivers/lvgl/src/hal/lv_hal_disp.c **** 
 438:Drivers/lvgl/src/hal/lv_hal_disp.c **** /**
 439:Drivers/lvgl/src/hal/lv_hal_disp.c ****  * Get the horizontal offset from the full / physical display
 440:Drivers/lvgl/src/hal/lv_hal_disp.c ****  * @param disp pointer to a display (NULL to use the default display)
 441:Drivers/lvgl/src/hal/lv_hal_disp.c ****  * @return the horizontal offset from the full / physical display
 442:Drivers/lvgl/src/hal/lv_hal_disp.c ****  */
 443:Drivers/lvgl/src/hal/lv_hal_disp.c **** lv_coord_t lv_disp_get_offset_x(lv_disp_t * disp)
ARM GAS  /var/folders/lp/x54gwt890xv47sdkqj1k04q40000gn/T//ccGwZIp8.s 			page 27


 444:Drivers/lvgl/src/hal/lv_hal_disp.c **** {
 445:Drivers/lvgl/src/hal/lv_hal_disp.c ****     if(disp == NULL) disp = lv_disp_get_default();
 446:Drivers/lvgl/src/hal/lv_hal_disp.c **** 
 447:Drivers/lvgl/src/hal/lv_hal_disp.c ****     if(disp == NULL) {
 448:Drivers/lvgl/src/hal/lv_hal_disp.c ****         return 0;
 449:Drivers/lvgl/src/hal/lv_hal_disp.c ****     }
 450:Drivers/lvgl/src/hal/lv_hal_disp.c ****     else {
 451:Drivers/lvgl/src/hal/lv_hal_disp.c ****         switch(disp->driver->rotated) {
 452:Drivers/lvgl/src/hal/lv_hal_disp.c ****             case LV_DISP_ROT_90:
 453:Drivers/lvgl/src/hal/lv_hal_disp.c ****                 return disp->driver->offset_y;
 454:Drivers/lvgl/src/hal/lv_hal_disp.c ****             case LV_DISP_ROT_180:
 455:Drivers/lvgl/src/hal/lv_hal_disp.c ****                 return lv_disp_get_physical_hor_res(disp) - disp->driver->offset_x;
 456:Drivers/lvgl/src/hal/lv_hal_disp.c ****             case LV_DISP_ROT_270:
 457:Drivers/lvgl/src/hal/lv_hal_disp.c ****                 return lv_disp_get_physical_hor_res(disp) - disp->driver->offset_y;
 458:Drivers/lvgl/src/hal/lv_hal_disp.c ****             default:
 459:Drivers/lvgl/src/hal/lv_hal_disp.c ****                 return disp->driver->offset_x;
 460:Drivers/lvgl/src/hal/lv_hal_disp.c ****         }
 461:Drivers/lvgl/src/hal/lv_hal_disp.c ****     }
 462:Drivers/lvgl/src/hal/lv_hal_disp.c **** }
 463:Drivers/lvgl/src/hal/lv_hal_disp.c **** 
 464:Drivers/lvgl/src/hal/lv_hal_disp.c **** /**
 465:Drivers/lvgl/src/hal/lv_hal_disp.c ****  * Get the vertical offset from the full / physical display
 466:Drivers/lvgl/src/hal/lv_hal_disp.c ****  * @param disp pointer to a display (NULL to use the default display)
 467:Drivers/lvgl/src/hal/lv_hal_disp.c ****  * @return the horizontal offset from the full / physical display
 468:Drivers/lvgl/src/hal/lv_hal_disp.c ****  */
 469:Drivers/lvgl/src/hal/lv_hal_disp.c **** lv_coord_t lv_disp_get_offset_y(lv_disp_t * disp)
 470:Drivers/lvgl/src/hal/lv_hal_disp.c **** {
 471:Drivers/lvgl/src/hal/lv_hal_disp.c ****     if(disp == NULL) disp = lv_disp_get_default();
 472:Drivers/lvgl/src/hal/lv_hal_disp.c **** 
 473:Drivers/lvgl/src/hal/lv_hal_disp.c ****     if(disp == NULL) {
 474:Drivers/lvgl/src/hal/lv_hal_disp.c ****         return 0;
 475:Drivers/lvgl/src/hal/lv_hal_disp.c ****     }
 476:Drivers/lvgl/src/hal/lv_hal_disp.c ****     else {
 477:Drivers/lvgl/src/hal/lv_hal_disp.c ****         switch(disp->driver->rotated) {
 478:Drivers/lvgl/src/hal/lv_hal_disp.c ****             case LV_DISP_ROT_90:
 479:Drivers/lvgl/src/hal/lv_hal_disp.c ****                 return disp->driver->offset_x;
 480:Drivers/lvgl/src/hal/lv_hal_disp.c ****             case LV_DISP_ROT_180:
 481:Drivers/lvgl/src/hal/lv_hal_disp.c ****                 return lv_disp_get_physical_ver_res(disp) - disp->driver->offset_y;
 482:Drivers/lvgl/src/hal/lv_hal_disp.c ****             case LV_DISP_ROT_270:
 483:Drivers/lvgl/src/hal/lv_hal_disp.c ****                 return lv_disp_get_physical_ver_res(disp) - disp->driver->offset_x;
 484:Drivers/lvgl/src/hal/lv_hal_disp.c ****             default:
 485:Drivers/lvgl/src/hal/lv_hal_disp.c ****                 return disp->driver->offset_y;
 486:Drivers/lvgl/src/hal/lv_hal_disp.c ****         }
 487:Drivers/lvgl/src/hal/lv_hal_disp.c ****     }
 488:Drivers/lvgl/src/hal/lv_hal_disp.c **** }
 489:Drivers/lvgl/src/hal/lv_hal_disp.c **** 
 490:Drivers/lvgl/src/hal/lv_hal_disp.c **** /**
 491:Drivers/lvgl/src/hal/lv_hal_disp.c ****  * Get if anti-aliasing is enabled for a display or not
 492:Drivers/lvgl/src/hal/lv_hal_disp.c ****  * @param disp pointer to a display (NULL to use the default display)
 493:Drivers/lvgl/src/hal/lv_hal_disp.c ****  * @return true: anti-aliasing is enabled; false: disabled
 494:Drivers/lvgl/src/hal/lv_hal_disp.c ****  */
 495:Drivers/lvgl/src/hal/lv_hal_disp.c **** bool lv_disp_get_antialiasing(lv_disp_t * disp)
 496:Drivers/lvgl/src/hal/lv_hal_disp.c **** {
 497:Drivers/lvgl/src/hal/lv_hal_disp.c ****     if(disp == NULL) disp = lv_disp_get_default();
 498:Drivers/lvgl/src/hal/lv_hal_disp.c ****     if(disp == NULL) return false;
 499:Drivers/lvgl/src/hal/lv_hal_disp.c **** 
 500:Drivers/lvgl/src/hal/lv_hal_disp.c ****     return disp->driver->antialiasing ? true : false;
ARM GAS  /var/folders/lp/x54gwt890xv47sdkqj1k04q40000gn/T//ccGwZIp8.s 			page 28


 501:Drivers/lvgl/src/hal/lv_hal_disp.c **** }
 502:Drivers/lvgl/src/hal/lv_hal_disp.c **** 
 503:Drivers/lvgl/src/hal/lv_hal_disp.c **** /**
 504:Drivers/lvgl/src/hal/lv_hal_disp.c ****  * Get the DPI of the display
 505:Drivers/lvgl/src/hal/lv_hal_disp.c ****  * @param disp pointer to a display (NULL to use the default display)
 506:Drivers/lvgl/src/hal/lv_hal_disp.c ****  * @return dpi of the display
 507:Drivers/lvgl/src/hal/lv_hal_disp.c ****  */
 508:Drivers/lvgl/src/hal/lv_hal_disp.c **** lv_coord_t lv_disp_get_dpi(const lv_disp_t * disp)
 509:Drivers/lvgl/src/hal/lv_hal_disp.c **** {
 510:Drivers/lvgl/src/hal/lv_hal_disp.c ****     if(disp == NULL) disp = lv_disp_get_default();
 511:Drivers/lvgl/src/hal/lv_hal_disp.c ****     if(disp == NULL) return LV_DPI_DEF;  /*Do not return 0 because it might be a divider*/
 512:Drivers/lvgl/src/hal/lv_hal_disp.c ****     return disp->driver->dpi;
 513:Drivers/lvgl/src/hal/lv_hal_disp.c **** }
 514:Drivers/lvgl/src/hal/lv_hal_disp.c **** 
 515:Drivers/lvgl/src/hal/lv_hal_disp.c **** /**
 516:Drivers/lvgl/src/hal/lv_hal_disp.c ****  * Call in the display driver's `flush_cb` function when the flushing is finished
 517:Drivers/lvgl/src/hal/lv_hal_disp.c ****  * @param disp_drv pointer to display driver in `flush_cb` where this function is called
 518:Drivers/lvgl/src/hal/lv_hal_disp.c ****  */
 519:Drivers/lvgl/src/hal/lv_hal_disp.c **** void LV_ATTRIBUTE_FLUSH_READY lv_disp_flush_ready(lv_disp_drv_t * disp_drv)
 520:Drivers/lvgl/src/hal/lv_hal_disp.c **** {
 521:Drivers/lvgl/src/hal/lv_hal_disp.c ****     disp_drv->draw_buf->flushing = 0;
 522:Drivers/lvgl/src/hal/lv_hal_disp.c ****     disp_drv->draw_buf->flushing_last = 0;
 523:Drivers/lvgl/src/hal/lv_hal_disp.c **** }
 524:Drivers/lvgl/src/hal/lv_hal_disp.c **** 
 525:Drivers/lvgl/src/hal/lv_hal_disp.c **** /**
 526:Drivers/lvgl/src/hal/lv_hal_disp.c ****  * Tell if it's the last area of the refreshing process.
 527:Drivers/lvgl/src/hal/lv_hal_disp.c ****  * Can be called from `flush_cb` to execute some special display refreshing if needed when all area
 528:Drivers/lvgl/src/hal/lv_hal_disp.c ****  * @param disp_drv pointer to display driver
 529:Drivers/lvgl/src/hal/lv_hal_disp.c ****  * @return true: it's the last area to flush; false: there are other areas too which will be refres
 530:Drivers/lvgl/src/hal/lv_hal_disp.c ****  */
 531:Drivers/lvgl/src/hal/lv_hal_disp.c **** bool LV_ATTRIBUTE_FLUSH_READY lv_disp_flush_is_last(lv_disp_drv_t * disp_drv)
 532:Drivers/lvgl/src/hal/lv_hal_disp.c **** {
 533:Drivers/lvgl/src/hal/lv_hal_disp.c ****     return disp_drv->draw_buf->flushing_last;
 534:Drivers/lvgl/src/hal/lv_hal_disp.c **** }
 535:Drivers/lvgl/src/hal/lv_hal_disp.c **** 
 536:Drivers/lvgl/src/hal/lv_hal_disp.c **** /**
 537:Drivers/lvgl/src/hal/lv_hal_disp.c ****  * Get the next display.
 538:Drivers/lvgl/src/hal/lv_hal_disp.c ****  * @param disp pointer to the current display. NULL to initialize.
 539:Drivers/lvgl/src/hal/lv_hal_disp.c ****  * @return the next display or NULL if no more. Give the first display when the parameter is NULL
 540:Drivers/lvgl/src/hal/lv_hal_disp.c ****  */
 541:Drivers/lvgl/src/hal/lv_hal_disp.c **** lv_disp_t * lv_disp_get_next(lv_disp_t * disp)
 542:Drivers/lvgl/src/hal/lv_hal_disp.c **** {
 543:Drivers/lvgl/src/hal/lv_hal_disp.c ****     if(disp == NULL)
 544:Drivers/lvgl/src/hal/lv_hal_disp.c ****         return _lv_ll_get_head(&LV_GC_ROOT(_lv_disp_ll));
 545:Drivers/lvgl/src/hal/lv_hal_disp.c ****     else
 546:Drivers/lvgl/src/hal/lv_hal_disp.c ****         return _lv_ll_get_next(&LV_GC_ROOT(_lv_disp_ll), disp);
 547:Drivers/lvgl/src/hal/lv_hal_disp.c **** }
 548:Drivers/lvgl/src/hal/lv_hal_disp.c **** 
 549:Drivers/lvgl/src/hal/lv_hal_disp.c **** /**
 550:Drivers/lvgl/src/hal/lv_hal_disp.c ****  * Get the internal buffer of a display
 551:Drivers/lvgl/src/hal/lv_hal_disp.c ****  * @param disp pointer to a display
 552:Drivers/lvgl/src/hal/lv_hal_disp.c ****  * @return pointer to the internal buffers
 553:Drivers/lvgl/src/hal/lv_hal_disp.c ****  */
 554:Drivers/lvgl/src/hal/lv_hal_disp.c **** lv_disp_draw_buf_t * lv_disp_get_draw_buf(lv_disp_t * disp)
 555:Drivers/lvgl/src/hal/lv_hal_disp.c **** {
 556:Drivers/lvgl/src/hal/lv_hal_disp.c ****     return disp->driver->draw_buf;
 557:Drivers/lvgl/src/hal/lv_hal_disp.c **** }
ARM GAS  /var/folders/lp/x54gwt890xv47sdkqj1k04q40000gn/T//ccGwZIp8.s 			page 29


 558:Drivers/lvgl/src/hal/lv_hal_disp.c **** 
 559:Drivers/lvgl/src/hal/lv_hal_disp.c **** /**
 560:Drivers/lvgl/src/hal/lv_hal_disp.c ****  * Set the rotation of this display.
 561:Drivers/lvgl/src/hal/lv_hal_disp.c ****  * @param disp pointer to a display (NULL to use the default display)
 562:Drivers/lvgl/src/hal/lv_hal_disp.c ****  * @param rotation rotation angle
 563:Drivers/lvgl/src/hal/lv_hal_disp.c ****  */
 564:Drivers/lvgl/src/hal/lv_hal_disp.c **** void lv_disp_set_rotation(lv_disp_t * disp, lv_disp_rot_t rotation)
 565:Drivers/lvgl/src/hal/lv_hal_disp.c **** {
 566:Drivers/lvgl/src/hal/lv_hal_disp.c ****     if(disp == NULL) disp = lv_disp_get_default();
 567:Drivers/lvgl/src/hal/lv_hal_disp.c ****     if(disp == NULL) return;
 568:Drivers/lvgl/src/hal/lv_hal_disp.c **** 
 569:Drivers/lvgl/src/hal/lv_hal_disp.c ****     disp->driver->rotated = rotation;
 570:Drivers/lvgl/src/hal/lv_hal_disp.c ****     lv_disp_drv_update(disp, disp->driver);
 571:Drivers/lvgl/src/hal/lv_hal_disp.c **** }
 572:Drivers/lvgl/src/hal/lv_hal_disp.c **** 
 573:Drivers/lvgl/src/hal/lv_hal_disp.c **** /**
 574:Drivers/lvgl/src/hal/lv_hal_disp.c ****  * Get the current rotation of this display.
 575:Drivers/lvgl/src/hal/lv_hal_disp.c ****  * @param disp pointer to a display (NULL to use the default display)
 576:Drivers/lvgl/src/hal/lv_hal_disp.c ****  * @return rotation angle
 577:Drivers/lvgl/src/hal/lv_hal_disp.c ****  */
 578:Drivers/lvgl/src/hal/lv_hal_disp.c **** lv_disp_rot_t lv_disp_get_rotation(lv_disp_t * disp)
 579:Drivers/lvgl/src/hal/lv_hal_disp.c **** {
 580:Drivers/lvgl/src/hal/lv_hal_disp.c ****     if(disp == NULL) disp = lv_disp_get_default();
 581:Drivers/lvgl/src/hal/lv_hal_disp.c ****     if(disp == NULL) return LV_DISP_ROT_NONE;
 582:Drivers/lvgl/src/hal/lv_hal_disp.c ****     return disp->driver->rotated;
 583:Drivers/lvgl/src/hal/lv_hal_disp.c **** }
 584:Drivers/lvgl/src/hal/lv_hal_disp.c **** 
 585:Drivers/lvgl/src/hal/lv_hal_disp.c **** void lv_disp_drv_use_generic_set_px_cb(lv_disp_drv_t * disp_drv, lv_img_cf_t cf)
 586:Drivers/lvgl/src/hal/lv_hal_disp.c **** {
 587:Drivers/lvgl/src/hal/lv_hal_disp.c ****     switch(cf) {
 588:Drivers/lvgl/src/hal/lv_hal_disp.c ****         case LV_IMG_CF_TRUE_COLOR_ALPHA:
 589:Drivers/lvgl/src/hal/lv_hal_disp.c ****             disp_drv->set_px_cb = set_px_true_color_alpha;
 590:Drivers/lvgl/src/hal/lv_hal_disp.c ****             break;
 591:Drivers/lvgl/src/hal/lv_hal_disp.c ****         case LV_IMG_CF_ALPHA_1BIT:
 592:Drivers/lvgl/src/hal/lv_hal_disp.c ****             disp_drv->set_px_cb = set_px_cb_alpha1;
 593:Drivers/lvgl/src/hal/lv_hal_disp.c ****             break;
 594:Drivers/lvgl/src/hal/lv_hal_disp.c ****         case LV_IMG_CF_ALPHA_2BIT:
 595:Drivers/lvgl/src/hal/lv_hal_disp.c ****             disp_drv->set_px_cb = set_px_cb_alpha2;
 596:Drivers/lvgl/src/hal/lv_hal_disp.c ****             break;
 597:Drivers/lvgl/src/hal/lv_hal_disp.c ****         case LV_IMG_CF_ALPHA_4BIT:
 598:Drivers/lvgl/src/hal/lv_hal_disp.c ****             disp_drv->set_px_cb = set_px_cb_alpha4;
 599:Drivers/lvgl/src/hal/lv_hal_disp.c ****             break;
 600:Drivers/lvgl/src/hal/lv_hal_disp.c ****         case LV_IMG_CF_ALPHA_8BIT:
 601:Drivers/lvgl/src/hal/lv_hal_disp.c ****             disp_drv->set_px_cb = set_px_cb_alpha8;
 602:Drivers/lvgl/src/hal/lv_hal_disp.c ****             break;
 603:Drivers/lvgl/src/hal/lv_hal_disp.c ****         default:
 604:Drivers/lvgl/src/hal/lv_hal_disp.c ****             disp_drv->set_px_cb = NULL;
 605:Drivers/lvgl/src/hal/lv_hal_disp.c ****     }
 606:Drivers/lvgl/src/hal/lv_hal_disp.c **** }
 607:Drivers/lvgl/src/hal/lv_hal_disp.c **** 
 608:Drivers/lvgl/src/hal/lv_hal_disp.c **** /**********************
 609:Drivers/lvgl/src/hal/lv_hal_disp.c ****  *   STATIC FUNCTIONS
 610:Drivers/lvgl/src/hal/lv_hal_disp.c ****  **********************/
 611:Drivers/lvgl/src/hal/lv_hal_disp.c **** 
 612:Drivers/lvgl/src/hal/lv_hal_disp.c **** static lv_obj_tree_walk_res_t invalidate_layout_cb(lv_obj_t * obj, void * user_data)
 613:Drivers/lvgl/src/hal/lv_hal_disp.c **** {
 614:Drivers/lvgl/src/hal/lv_hal_disp.c ****     LV_UNUSED(user_data);
ARM GAS  /var/folders/lp/x54gwt890xv47sdkqj1k04q40000gn/T//ccGwZIp8.s 			page 30


 615:Drivers/lvgl/src/hal/lv_hal_disp.c ****     lv_obj_mark_layout_as_dirty(obj);
 616:Drivers/lvgl/src/hal/lv_hal_disp.c ****     return LV_OBJ_TREE_WALK_NEXT;
 617:Drivers/lvgl/src/hal/lv_hal_disp.c **** }
 618:Drivers/lvgl/src/hal/lv_hal_disp.c **** 
 619:Drivers/lvgl/src/hal/lv_hal_disp.c **** static void set_px_cb_alpha1(lv_disp_drv_t * disp_drv, uint8_t * buf, lv_coord_t buf_w, lv_coord_t 
 620:Drivers/lvgl/src/hal/lv_hal_disp.c ****                              lv_color_t color, lv_opa_t opa)
 621:Drivers/lvgl/src/hal/lv_hal_disp.c **** {
 622:Drivers/lvgl/src/hal/lv_hal_disp.c ****     (void) disp_drv; /*Unused*/
 623:Drivers/lvgl/src/hal/lv_hal_disp.c **** 
 624:Drivers/lvgl/src/hal/lv_hal_disp.c ****     if(opa <= LV_OPA_MIN) return;
 625:Drivers/lvgl/src/hal/lv_hal_disp.c ****     lv_img_dsc_t d;
 626:Drivers/lvgl/src/hal/lv_hal_disp.c ****     d.data = buf;
 627:Drivers/lvgl/src/hal/lv_hal_disp.c ****     d.header.w = buf_w;
 628:Drivers/lvgl/src/hal/lv_hal_disp.c ****     d.header.cf = LV_IMG_CF_ALPHA_1BIT;
 629:Drivers/lvgl/src/hal/lv_hal_disp.c **** 
 630:Drivers/lvgl/src/hal/lv_hal_disp.c ****     set_px_alpha_generic(&d, x, y, color, opa);
 631:Drivers/lvgl/src/hal/lv_hal_disp.c **** }
 632:Drivers/lvgl/src/hal/lv_hal_disp.c **** 
 633:Drivers/lvgl/src/hal/lv_hal_disp.c **** static void set_px_cb_alpha2(lv_disp_drv_t * disp_drv, uint8_t * buf, lv_coord_t buf_w, lv_coord_t 
 634:Drivers/lvgl/src/hal/lv_hal_disp.c ****                              lv_color_t color, lv_opa_t opa)
 635:Drivers/lvgl/src/hal/lv_hal_disp.c **** {
 636:Drivers/lvgl/src/hal/lv_hal_disp.c ****     (void) disp_drv; /*Unused*/
 637:Drivers/lvgl/src/hal/lv_hal_disp.c **** 
 638:Drivers/lvgl/src/hal/lv_hal_disp.c ****     if(opa <= LV_OPA_MIN) return;
 639:Drivers/lvgl/src/hal/lv_hal_disp.c ****     lv_img_dsc_t d;
 640:Drivers/lvgl/src/hal/lv_hal_disp.c ****     d.data = buf;
 641:Drivers/lvgl/src/hal/lv_hal_disp.c ****     d.header.w = buf_w;
 642:Drivers/lvgl/src/hal/lv_hal_disp.c ****     d.header.cf = LV_IMG_CF_ALPHA_2BIT;
 643:Drivers/lvgl/src/hal/lv_hal_disp.c **** 
 644:Drivers/lvgl/src/hal/lv_hal_disp.c ****     set_px_alpha_generic(&d, x, y, color, opa);
 645:Drivers/lvgl/src/hal/lv_hal_disp.c **** }
 646:Drivers/lvgl/src/hal/lv_hal_disp.c **** 
 647:Drivers/lvgl/src/hal/lv_hal_disp.c **** static void set_px_cb_alpha4(lv_disp_drv_t * disp_drv, uint8_t * buf, lv_coord_t buf_w, lv_coord_t 
 648:Drivers/lvgl/src/hal/lv_hal_disp.c ****                              lv_color_t color, lv_opa_t opa)
 649:Drivers/lvgl/src/hal/lv_hal_disp.c **** {
 650:Drivers/lvgl/src/hal/lv_hal_disp.c ****     (void) disp_drv; /*Unused*/
 651:Drivers/lvgl/src/hal/lv_hal_disp.c **** 
 652:Drivers/lvgl/src/hal/lv_hal_disp.c ****     if(opa <= LV_OPA_MIN) return;
 653:Drivers/lvgl/src/hal/lv_hal_disp.c ****     lv_img_dsc_t d;
 654:Drivers/lvgl/src/hal/lv_hal_disp.c ****     d.data = buf;
 655:Drivers/lvgl/src/hal/lv_hal_disp.c ****     d.header.w = buf_w;
 656:Drivers/lvgl/src/hal/lv_hal_disp.c ****     d.header.cf = LV_IMG_CF_ALPHA_4BIT;
 657:Drivers/lvgl/src/hal/lv_hal_disp.c **** 
 658:Drivers/lvgl/src/hal/lv_hal_disp.c ****     set_px_alpha_generic(&d, x, y, color, opa);
 659:Drivers/lvgl/src/hal/lv_hal_disp.c **** }
 660:Drivers/lvgl/src/hal/lv_hal_disp.c **** 
 661:Drivers/lvgl/src/hal/lv_hal_disp.c **** static void set_px_cb_alpha8(lv_disp_drv_t * disp_drv, uint8_t * buf, lv_coord_t buf_w, lv_coord_t 
 662:Drivers/lvgl/src/hal/lv_hal_disp.c ****                              lv_color_t color, lv_opa_t opa)
 663:Drivers/lvgl/src/hal/lv_hal_disp.c **** {
 664:Drivers/lvgl/src/hal/lv_hal_disp.c ****     (void) disp_drv; /*Unused*/
 665:Drivers/lvgl/src/hal/lv_hal_disp.c **** 
 666:Drivers/lvgl/src/hal/lv_hal_disp.c ****     if(opa <= LV_OPA_MIN) return;
 667:Drivers/lvgl/src/hal/lv_hal_disp.c ****     lv_img_dsc_t d;
 668:Drivers/lvgl/src/hal/lv_hal_disp.c ****     d.data = buf;
 669:Drivers/lvgl/src/hal/lv_hal_disp.c ****     d.header.w = buf_w;
 670:Drivers/lvgl/src/hal/lv_hal_disp.c ****     d.header.cf = LV_IMG_CF_ALPHA_8BIT;
 671:Drivers/lvgl/src/hal/lv_hal_disp.c **** 
ARM GAS  /var/folders/lp/x54gwt890xv47sdkqj1k04q40000gn/T//ccGwZIp8.s 			page 31


 672:Drivers/lvgl/src/hal/lv_hal_disp.c ****     set_px_alpha_generic(&d, x, y, color, opa);
 673:Drivers/lvgl/src/hal/lv_hal_disp.c **** }
 674:Drivers/lvgl/src/hal/lv_hal_disp.c **** 
 675:Drivers/lvgl/src/hal/lv_hal_disp.c **** static void set_px_alpha_generic(lv_img_dsc_t * d, lv_coord_t x, lv_coord_t y, lv_color_t color, lv
 676:Drivers/lvgl/src/hal/lv_hal_disp.c **** {
 677:Drivers/lvgl/src/hal/lv_hal_disp.c ****     d->header.always_zero = 0;
 678:Drivers/lvgl/src/hal/lv_hal_disp.c ****     d->header.h = 1;    /*Doesn't matter*/
 679:Drivers/lvgl/src/hal/lv_hal_disp.c **** 
 680:Drivers/lvgl/src/hal/lv_hal_disp.c ****     uint8_t br = lv_color_brightness(color);
 681:Drivers/lvgl/src/hal/lv_hal_disp.c ****     if(opa < LV_OPA_MAX) {
 682:Drivers/lvgl/src/hal/lv_hal_disp.c ****         uint8_t bg = lv_img_buf_get_px_alpha(d, x, y);
 683:Drivers/lvgl/src/hal/lv_hal_disp.c ****         br = (uint16_t)((uint16_t)br * opa + (bg * (255 - opa))) >> 8;
 684:Drivers/lvgl/src/hal/lv_hal_disp.c ****     }
 685:Drivers/lvgl/src/hal/lv_hal_disp.c **** 
 686:Drivers/lvgl/src/hal/lv_hal_disp.c ****     lv_img_buf_set_px_alpha(d, x, y, br);
 687:Drivers/lvgl/src/hal/lv_hal_disp.c **** }
 688:Drivers/lvgl/src/hal/lv_hal_disp.c **** 
 689:Drivers/lvgl/src/hal/lv_hal_disp.c **** static void set_px_true_color_alpha(lv_disp_drv_t * disp_drv, uint8_t * buf, lv_coord_t buf_w,
 690:Drivers/lvgl/src/hal/lv_hal_disp.c ****                                     lv_coord_t x, lv_coord_t y,
 691:Drivers/lvgl/src/hal/lv_hal_disp.c ****                                     lv_color_t color, lv_opa_t opa)
 692:Drivers/lvgl/src/hal/lv_hal_disp.c **** {
 398              		.loc 1 692 1 is_stmt 1 view -0
 399              		.cfi_startproc
 400              		@ args = 12, pretend = 0, frame = 8
 401              		@ frame_needed = 0, uses_anonymous_args = 0
 402              		.loc 1 692 1 is_stmt 0 view .LVU125
 403 0000 70B5     		push	{r4, r5, r6, lr}
 404              		.cfi_def_cfa_offset 16
 405              		.cfi_offset 4, -16
 406              		.cfi_offset 5, -12
 407              		.cfi_offset 6, -8
 408              		.cfi_offset 14, -4
 409 0002 84B0     		sub	sp, sp, #16
 410              		.cfi_def_cfa_offset 32
 411 0004 0E46     		mov	r6, r1
 693:Drivers/lvgl/src/hal/lv_hal_disp.c ****     (void) disp_drv; /*Unused*/
 412              		.loc 1 693 5 is_stmt 1 view .LVU126
 694:Drivers/lvgl/src/hal/lv_hal_disp.c **** 
 695:Drivers/lvgl/src/hal/lv_hal_disp.c ****     uint8_t * buf_px = buf + (buf_w * y * LV_IMG_PX_SIZE_ALPHA_BYTE + x * LV_IMG_PX_SIZE_ALPHA_BYTE
 413              		.loc 1 695 5 view .LVU127
 414              		.loc 1 695 69 is_stmt 0 view .LVU128
 415 0006 BDF92010 		ldrsh	r1, [sp, #32]
 416              	.LVL37:
 417              		.loc 1 695 69 view .LVU129
 418 000a 01FB0234 		mla	r4, r1, r2, r3
 419 000e 04EB4404 		add	r4, r4, r4, lsl #1
 420              		.loc 1 695 15 view .LVU130
 421 0012 3519     		adds	r5, r6, r4
 422              	.LVL38:
 696:Drivers/lvgl/src/hal/lv_hal_disp.c **** 
 697:Drivers/lvgl/src/hal/lv_hal_disp.c ****     lv_color_t bg_color;
 423              		.loc 1 697 5 is_stmt 1 view .LVU131
 698:Drivers/lvgl/src/hal/lv_hal_disp.c ****     lv_color_t res_color;
 424              		.loc 1 698 5 view .LVU132
 699:Drivers/lvgl/src/hal/lv_hal_disp.c ****     lv_opa_t bg_opa = buf_px[LV_IMG_PX_SIZE_ALPHA_BYTE - 1];
 425              		.loc 1 699 5 view .LVU133
 700:Drivers/lvgl/src/hal/lv_hal_disp.c **** #if LV_COLOR_DEPTH == 8 || LV_COLOR_DEPTH == 1
ARM GAS  /var/folders/lp/x54gwt890xv47sdkqj1k04q40000gn/T//ccGwZIp8.s 			page 32


 701:Drivers/lvgl/src/hal/lv_hal_disp.c ****     bg_color.full = buf_px[0];
 702:Drivers/lvgl/src/hal/lv_hal_disp.c ****     lv_color_mix_with_alpha(bg_color, bg_opa, color, opa, &res_color, &buf_px[2]);
 703:Drivers/lvgl/src/hal/lv_hal_disp.c ****     if(buf_px[1] <= LV_OPA_MIN) return;
 704:Drivers/lvgl/src/hal/lv_hal_disp.c ****     buf_px[0] = res_color.full;
 705:Drivers/lvgl/src/hal/lv_hal_disp.c **** #elif LV_COLOR_DEPTH == 16
 706:Drivers/lvgl/src/hal/lv_hal_disp.c ****     bg_color.full = buf_px[0] + (buf_px[1] << 8);
 426              		.loc 1 706 5 view .LVU134
 427              		.loc 1 706 27 is_stmt 0 view .LVU135
 428 0014 305D     		ldrb	r0, [r6, r4]	@ zero_extendqisi2
 429              	.LVL39:
 430              		.loc 1 706 40 view .LVU136
 431 0016 95F801C0 		ldrb	ip, [r5, #1]	@ zero_extendqisi2
 707:Drivers/lvgl/src/hal/lv_hal_disp.c ****     lv_color_mix_with_alpha(bg_color, bg_opa, color, opa, &res_color, &buf_px[2]);
 432              		.loc 1 707 5 is_stmt 1 view .LVU137
 433              		.loc 1 707 71 is_stmt 0 view .LVU138
 434 001a AB1C     		adds	r3, r5, #2
 435              	.LVL40:
 436              		.loc 1 707 5 view .LVU139
 437 001c 0193     		str	r3, [sp, #4]
 438              	.LVL41:
 439              		.loc 1 707 5 view .LVU140
 440 001e 03AB     		add	r3, sp, #12
 441 0020 0093     		str	r3, [sp]
 442 0022 9DF82830 		ldrb	r3, [sp, #40]	@ zero_extendqisi2
 443 0026 BDF82420 		ldrh	r2, [sp, #36]
 444              	.LVL42:
 445              		.loc 1 707 5 view .LVU141
 446 002a A978     		ldrb	r1, [r5, #2]	@ zero_extendqisi2
 447 002c 00EB0C20 		add	r0, r0, ip, lsl #8
 448 0030 FFF7FEFF 		bl	lv_color_mix_with_alpha
 449              	.LVL43:
 708:Drivers/lvgl/src/hal/lv_hal_disp.c ****     if(buf_px[2] <= LV_OPA_MIN) return;
 450              		.loc 1 708 5 is_stmt 1 view .LVU142
 451              		.loc 1 708 14 is_stmt 0 view .LVU143
 452 0034 AB78     		ldrb	r3, [r5, #2]	@ zero_extendqisi2
 453              		.loc 1 708 7 view .LVU144
 454 0036 022B     		cmp	r3, #2
 455 0038 04D9     		bls	.L19
 709:Drivers/lvgl/src/hal/lv_hal_disp.c ****     buf_px[0] = res_color.full & 0xff;
 456              		.loc 1 709 5 is_stmt 1 view .LVU145
 457              		.loc 1 709 26 is_stmt 0 view .LVU146
 458 003a BDF80C30 		ldrh	r3, [sp, #12]
 459              		.loc 1 709 15 view .LVU147
 460 003e 3355     		strb	r3, [r6, r4]
 710:Drivers/lvgl/src/hal/lv_hal_disp.c ****     buf_px[1] = res_color.full >> 8;
 461              		.loc 1 710 5 is_stmt 1 view .LVU148
 462              		.loc 1 710 15 is_stmt 0 view .LVU149
 463 0040 1B0A     		lsrs	r3, r3, #8
 464 0042 6B70     		strb	r3, [r5, #1]
 465              	.L19:
 711:Drivers/lvgl/src/hal/lv_hal_disp.c **** #elif LV_COLOR_DEPTH == 32
 712:Drivers/lvgl/src/hal/lv_hal_disp.c ****     bg_color = *((lv_color_t *)buf_px);
 713:Drivers/lvgl/src/hal/lv_hal_disp.c ****     lv_color_mix_with_alpha(bg_color, bg_opa, color, opa, &res_color, &buf_px[3]);
 714:Drivers/lvgl/src/hal/lv_hal_disp.c ****     if(buf_px[3] <= LV_OPA_MIN) return;
 715:Drivers/lvgl/src/hal/lv_hal_disp.c ****     buf_px[0] = res_color.ch.blue;
 716:Drivers/lvgl/src/hal/lv_hal_disp.c ****     buf_px[1] = res_color.ch.green;
 717:Drivers/lvgl/src/hal/lv_hal_disp.c ****     buf_px[2] = res_color.ch.red;
ARM GAS  /var/folders/lp/x54gwt890xv47sdkqj1k04q40000gn/T//ccGwZIp8.s 			page 33


 718:Drivers/lvgl/src/hal/lv_hal_disp.c **** #endif
 719:Drivers/lvgl/src/hal/lv_hal_disp.c **** 
 720:Drivers/lvgl/src/hal/lv_hal_disp.c **** }
 466              		.loc 1 720 1 view .LVU150
 467 0044 04B0     		add	sp, sp, #16
 468              		.cfi_def_cfa_offset 16
 469              		@ sp needed
 470 0046 70BD     		pop	{r4, r5, r6, pc}
 471              		.loc 1 720 1 view .LVU151
 472              		.cfi_endproc
 473              	.LFE189:
 475              		.section	.text.invalidate_layout_cb,"ax",%progbits
 476              		.align	1
 477              		.syntax unified
 478              		.thumb
 479              		.thumb_func
 481              	invalidate_layout_cb:
 482              	.LVL44:
 483              	.LFB183:
 613:Drivers/lvgl/src/hal/lv_hal_disp.c ****     LV_UNUSED(user_data);
 484              		.loc 1 613 1 is_stmt 1 view -0
 485              		.cfi_startproc
 486              		@ args = 0, pretend = 0, frame = 0
 487              		@ frame_needed = 0, uses_anonymous_args = 0
 613:Drivers/lvgl/src/hal/lv_hal_disp.c ****     LV_UNUSED(user_data);
 488              		.loc 1 613 1 is_stmt 0 view .LVU153
 489 0000 08B5     		push	{r3, lr}
 490              		.cfi_def_cfa_offset 8
 491              		.cfi_offset 3, -8
 492              		.cfi_offset 14, -4
 614:Drivers/lvgl/src/hal/lv_hal_disp.c ****     lv_obj_mark_layout_as_dirty(obj);
 493              		.loc 1 614 5 is_stmt 1 view .LVU154
 615:Drivers/lvgl/src/hal/lv_hal_disp.c ****     return LV_OBJ_TREE_WALK_NEXT;
 494              		.loc 1 615 5 view .LVU155
 495 0002 FFF7FEFF 		bl	lv_obj_mark_layout_as_dirty
 496              	.LVL45:
 616:Drivers/lvgl/src/hal/lv_hal_disp.c **** }
 497              		.loc 1 616 5 view .LVU156
 617:Drivers/lvgl/src/hal/lv_hal_disp.c **** 
 498              		.loc 1 617 1 is_stmt 0 view .LVU157
 499 0006 0020     		movs	r0, #0
 500 0008 08BD     		pop	{r3, pc}
 501              		.cfi_endproc
 502              	.LFE183:
 504              		.section	.text.set_px_alpha_generic,"ax",%progbits
 505              		.align	1
 506              		.syntax unified
 507              		.thumb
 508              		.thumb_func
 510              	set_px_alpha_generic:
 511              	.LVL46:
 512              	.LFB188:
 676:Drivers/lvgl/src/hal/lv_hal_disp.c ****     d->header.always_zero = 0;
 513              		.loc 1 676 1 is_stmt 1 view -0
 514              		.cfi_startproc
 515              		@ args = 4, pretend = 0, frame = 0
 516              		@ frame_needed = 0, uses_anonymous_args = 0
ARM GAS  /var/folders/lp/x54gwt890xv47sdkqj1k04q40000gn/T//ccGwZIp8.s 			page 34


 676:Drivers/lvgl/src/hal/lv_hal_disp.c ****     d->header.always_zero = 0;
 517              		.loc 1 676 1 is_stmt 0 view .LVU159
 518 0000 2DE9F041 		push	{r4, r5, r6, r7, r8, lr}
 519              		.cfi_def_cfa_offset 24
 520              		.cfi_offset 4, -24
 521              		.cfi_offset 5, -20
 522              		.cfi_offset 6, -16
 523              		.cfi_offset 7, -12
 524              		.cfi_offset 8, -8
 525              		.cfi_offset 14, -4
 526 0004 0446     		mov	r4, r0
 527 0006 0D46     		mov	r5, r1
 528 0008 1646     		mov	r6, r2
 529 000a 9DF81870 		ldrb	r7, [sp, #24]	@ zero_extendqisi2
 677:Drivers/lvgl/src/hal/lv_hal_disp.c ****     d->header.h = 1;    /*Doesn't matter*/
 530              		.loc 1 677 5 is_stmt 1 view .LVU160
 677:Drivers/lvgl/src/hal/lv_hal_disp.c ****     d->header.h = 1;    /*Doesn't matter*/
 531              		.loc 1 677 27 is_stmt 0 view .LVU161
 532 000e 0278     		ldrb	r2, [r0]	@ zero_extendqisi2
 533              	.LVL47:
 677:Drivers/lvgl/src/hal/lv_hal_disp.c ****     d->header.h = 1;    /*Doesn't matter*/
 534              		.loc 1 677 27 view .LVU162
 535 0010 22F0E002 		bic	r2, r2, #224
 536 0014 0270     		strb	r2, [r0]
 678:Drivers/lvgl/src/hal/lv_hal_disp.c **** 
 537              		.loc 1 678 5 is_stmt 1 view .LVU163
 678:Drivers/lvgl/src/hal/lv_hal_disp.c **** 
 538              		.loc 1 678 17 is_stmt 0 view .LVU164
 539 0016 4288     		ldrh	r2, [r0, #2]
 540 0018 0121     		movs	r1, #1
 541              	.LVL48:
 678:Drivers/lvgl/src/hal/lv_hal_disp.c **** 
 542              		.loc 1 678 17 view .LVU165
 543 001a 61F34F12 		bfi	r2, r1, #5, #11
 544 001e 4280     		strh	r2, [r0, #2]	@ movhi
 680:Drivers/lvgl/src/hal/lv_hal_disp.c ****     if(opa < LV_OPA_MAX) {
 545              		.loc 1 680 5 is_stmt 1 view .LVU166
 546              	.LBB21:
 547              	.LBI21:
 579:Drivers/lvgl/src/hal/../draw/../misc/lv_color.h **** 
 580:Drivers/lvgl/src/hal/../draw/../misc/lv_color.h **** //! @endcond
 581:Drivers/lvgl/src/hal/../draw/../misc/lv_color.h **** 
 582:Drivers/lvgl/src/hal/../draw/../misc/lv_color.h **** /**
 583:Drivers/lvgl/src/hal/../draw/../misc/lv_color.h ****  * Get the brightness of a color
 584:Drivers/lvgl/src/hal/../draw/../misc/lv_color.h ****  * @param color a color
 585:Drivers/lvgl/src/hal/../draw/../misc/lv_color.h ****  * @return the brightness [0..255]
 586:Drivers/lvgl/src/hal/../draw/../misc/lv_color.h ****  */
 587:Drivers/lvgl/src/hal/../draw/../misc/lv_color.h **** static inline uint8_t lv_color_brightness(lv_color_t color)
 548              		.loc 2 587 23 view .LVU167
 549              	.LBB22:
 588:Drivers/lvgl/src/hal/../draw/../misc/lv_color.h **** {
 589:Drivers/lvgl/src/hal/../draw/../misc/lv_color.h ****     lv_color32_t c32;
 550              		.loc 2 589 5 view .LVU168
 590:Drivers/lvgl/src/hal/../draw/../misc/lv_color.h ****     c32.full        = lv_color_to32(color);
 551              		.loc 2 590 5 view .LVU169
 552              		.loc 2 590 23 is_stmt 0 view .LVU170
 553 0020 1846     		mov	r0, r3	@ movhi
ARM GAS  /var/folders/lp/x54gwt890xv47sdkqj1k04q40000gn/T//ccGwZIp8.s 			page 35


 554              	.LVL49:
 555              		.loc 2 590 23 view .LVU171
 556 0022 FFF7FEFF 		bl	lv_color_to32
 557              	.LVL50:
 591:Drivers/lvgl/src/hal/../draw/../misc/lv_color.h ****     uint16_t bright = (uint16_t)(3u * LV_COLOR_GET_R32(c32) + LV_COLOR_GET_B32(c32) + 4u * LV_COLOR
 558              		.loc 2 591 5 is_stmt 1 view .LVU172
 559              		.loc 2 591 39 is_stmt 0 view .LVU173
 560 0026 C0F30743 		ubfx	r3, r0, #16, #8
 561              		.loc 2 591 37 view .LVU174
 562 002a 03EB4303 		add	r3, r3, r3, lsl #1
 563              		.loc 2 591 92 view .LVU175
 564 002e C0F30722 		ubfx	r2, r0, #8, #8
 565              		.loc 2 591 85 view .LVU176
 566 0032 03EB8203 		add	r3, r3, r2, lsl #2
 567              		.loc 2 591 63 view .LVU177
 568 0036 C0B2     		uxtb	r0, r0
 569              		.loc 2 591 14 view .LVU178
 570 0038 10FA83F3 		uxtah	r3, r0, r3
 571              	.LVL51:
 592:Drivers/lvgl/src/hal/../draw/../misc/lv_color.h ****     return (uint8_t)(bright >> 3);
 572              		.loc 2 592 5 is_stmt 1 view .LVU179
 573              		.loc 2 592 12 is_stmt 0 view .LVU180
 574 003c C3F3CC08 		ubfx	r8, r3, #3, #13
 575 0040 C3F3C703 		ubfx	r3, r3, #3, #8
 576              	.LVL52:
 577              		.loc 2 592 12 view .LVU181
 578              	.LBE22:
 579              	.LBE21:
 681:Drivers/lvgl/src/hal/lv_hal_disp.c ****         uint8_t bg = lv_img_buf_get_px_alpha(d, x, y);
 580              		.loc 1 681 5 is_stmt 1 view .LVU182
 681:Drivers/lvgl/src/hal/lv_hal_disp.c ****         uint8_t bg = lv_img_buf_get_px_alpha(d, x, y);
 581              		.loc 1 681 7 is_stmt 0 view .LVU183
 582 0044 FC2F     		cmp	r7, #252
 583 0046 06D9     		bls	.L28
 584              	.L26:
 686:Drivers/lvgl/src/hal/lv_hal_disp.c **** }
 585              		.loc 1 686 5 is_stmt 1 view .LVU184
 586 0048 3246     		mov	r2, r6
 587 004a 2946     		mov	r1, r5
 588 004c 2046     		mov	r0, r4
 589 004e FFF7FEFF 		bl	lv_img_buf_set_px_alpha
 590              	.LVL53:
 687:Drivers/lvgl/src/hal/lv_hal_disp.c **** 
 591              		.loc 1 687 1 is_stmt 0 view .LVU185
 592 0052 BDE8F081 		pop	{r4, r5, r6, r7, r8, pc}
 593              	.LVL54:
 594              	.L28:
 595              	.LBB23:
 682:Drivers/lvgl/src/hal/lv_hal_disp.c ****         br = (uint16_t)((uint16_t)br * opa + (bg * (255 - opa))) >> 8;
 596              		.loc 1 682 9 is_stmt 1 view .LVU186
 682:Drivers/lvgl/src/hal/lv_hal_disp.c ****         br = (uint16_t)((uint16_t)br * opa + (bg * (255 - opa))) >> 8;
 597              		.loc 1 682 22 is_stmt 0 view .LVU187
 598 0056 3246     		mov	r2, r6
 599 0058 2946     		mov	r1, r5
 600 005a 2046     		mov	r0, r4
 601 005c FFF7FEFF 		bl	lv_img_buf_get_px_alpha
 602              	.LVL55:
ARM GAS  /var/folders/lp/x54gwt890xv47sdkqj1k04q40000gn/T//ccGwZIp8.s 			page 36


 683:Drivers/lvgl/src/hal/lv_hal_disp.c ****     }
 603              		.loc 1 683 9 is_stmt 1 view .LVU188
 683:Drivers/lvgl/src/hal/lv_hal_disp.c ****     }
 604              		.loc 1 683 38 is_stmt 0 view .LVU189
 605 0060 5FFA88F8 		uxtb	r8, r8
 683:Drivers/lvgl/src/hal/lv_hal_disp.c ****     }
 606              		.loc 1 683 57 view .LVU190
 607 0064 C7F1FF03 		rsb	r3, r7, #255
 683:Drivers/lvgl/src/hal/lv_hal_disp.c ****     }
 608              		.loc 1 683 14 view .LVU191
 609 0068 10FB03F3 		smulbb	r3, r0, r3
 610 006c 08FB0733 		mla	r3, r8, r7, r3
 683:Drivers/lvgl/src/hal/lv_hal_disp.c ****     }
 611              		.loc 1 683 12 view .LVU192
 612 0070 C3F30723 		ubfx	r3, r3, #8, #8
 613              	.LVL56:
 683:Drivers/lvgl/src/hal/lv_hal_disp.c ****     }
 614              		.loc 1 683 12 view .LVU193
 615 0074 E8E7     		b	.L26
 616              	.LBE23:
 617              		.cfi_endproc
 618              	.LFE188:
 620              		.section	.text.set_px_cb_alpha8,"ax",%progbits
 621              		.align	1
 622              		.syntax unified
 623              		.thumb
 624              		.thumb_func
 626              	set_px_cb_alpha8:
 627              	.LVL57:
 628              	.LFB187:
 663:Drivers/lvgl/src/hal/lv_hal_disp.c ****     (void) disp_drv; /*Unused*/
 629              		.loc 1 663 1 is_stmt 1 view -0
 630              		.cfi_startproc
 631              		@ args = 12, pretend = 0, frame = 16
 632              		@ frame_needed = 0, uses_anonymous_args = 0
 663:Drivers/lvgl/src/hal/lv_hal_disp.c ****     (void) disp_drv; /*Unused*/
 633              		.loc 1 663 1 is_stmt 0 view .LVU195
 634 0000 00B5     		push	{lr}
 635              		.cfi_def_cfa_offset 4
 636              		.cfi_offset 14, -4
 637 0002 87B0     		sub	sp, sp, #28
 638              		.cfi_def_cfa_offset 32
 639 0004 0846     		mov	r0, r1
 640              	.LVL58:
 663:Drivers/lvgl/src/hal/lv_hal_disp.c ****     (void) disp_drv; /*Unused*/
 641              		.loc 1 663 1 view .LVU196
 642 0006 1946     		mov	r1, r3
 643              	.LVL59:
 663:Drivers/lvgl/src/hal/lv_hal_disp.c ****     (void) disp_drv; /*Unused*/
 644              		.loc 1 663 1 view .LVU197
 645 0008 9DF82830 		ldrb	r3, [sp, #40]	@ zero_extendqisi2
 646              	.LVL60:
 664:Drivers/lvgl/src/hal/lv_hal_disp.c **** 
 647              		.loc 1 664 5 is_stmt 1 view .LVU198
 666:Drivers/lvgl/src/hal/lv_hal_disp.c ****     lv_img_dsc_t d;
 648              		.loc 1 666 5 view .LVU199
 666:Drivers/lvgl/src/hal/lv_hal_disp.c ****     lv_img_dsc_t d;
ARM GAS  /var/folders/lp/x54gwt890xv47sdkqj1k04q40000gn/T//ccGwZIp8.s 			page 37


 649              		.loc 1 666 7 is_stmt 0 view .LVU200
 650 000c 022B     		cmp	r3, #2
 651 000e 02D8     		bhi	.L33
 652              	.LVL61:
 653              	.L29:
 673:Drivers/lvgl/src/hal/lv_hal_disp.c **** 
 654              		.loc 1 673 1 view .LVU201
 655 0010 07B0     		add	sp, sp, #28
 656              		.cfi_remember_state
 657              		.cfi_def_cfa_offset 4
 658              		@ sp needed
 659 0012 5DF804FB 		ldr	pc, [sp], #4
 660              	.LVL62:
 661              	.L33:
 662              		.cfi_restore_state
 667:Drivers/lvgl/src/hal/lv_hal_disp.c ****     d.data = buf;
 663              		.loc 1 667 5 is_stmt 1 view .LVU202
 668:Drivers/lvgl/src/hal/lv_hal_disp.c ****     d.header.w = buf_w;
 664              		.loc 1 668 5 view .LVU203
 668:Drivers/lvgl/src/hal/lv_hal_disp.c ****     d.header.w = buf_w;
 665              		.loc 1 668 12 is_stmt 0 view .LVU204
 666 0016 0590     		str	r0, [sp, #20]
 669:Drivers/lvgl/src/hal/lv_hal_disp.c ****     d.header.cf = LV_IMG_CF_ALPHA_8BIT;
 667              		.loc 1 669 5 is_stmt 1 view .LVU205
 669:Drivers/lvgl/src/hal/lv_hal_disp.c ****     d.header.cf = LV_IMG_CF_ALPHA_8BIT;
 668              		.loc 1 669 16 is_stmt 0 view .LVU206
 669 0018 0398     		ldr	r0, [sp, #12]
 670              	.LVL63:
 669:Drivers/lvgl/src/hal/lv_hal_disp.c ****     d.header.cf = LV_IMG_CF_ALPHA_8BIT;
 671              		.loc 1 669 16 view .LVU207
 672 001a 62F39420 		bfi	r0, r2, #10, #11
 673 001e 0390     		str	r0, [sp, #12]
 670:Drivers/lvgl/src/hal/lv_hal_disp.c **** 
 674              		.loc 1 670 5 is_stmt 1 view .LVU208
 670:Drivers/lvgl/src/hal/lv_hal_disp.c **** 
 675              		.loc 1 670 17 is_stmt 0 view .LVU209
 676 0020 9DF80C20 		ldrb	r2, [sp, #12]	@ zero_extendqisi2
 677              	.LVL64:
 670:Drivers/lvgl/src/hal/lv_hal_disp.c **** 
 678              		.loc 1 670 17 view .LVU210
 679 0024 0E20     		movs	r0, #14
 680 0026 60F30402 		bfi	r2, r0, #0, #5
 681 002a 8DF80C20 		strb	r2, [sp, #12]
 672:Drivers/lvgl/src/hal/lv_hal_disp.c **** }
 682              		.loc 1 672 5 is_stmt 1 view .LVU211
 683 002e 0093     		str	r3, [sp]
 684 0030 BDF82430 		ldrh	r3, [sp, #36]
 685 0034 BDF92020 		ldrsh	r2, [sp, #32]
 686 0038 03A8     		add	r0, sp, #12
 687 003a FFF7FEFF 		bl	set_px_alpha_generic
 688              	.LVL65:
 672:Drivers/lvgl/src/hal/lv_hal_disp.c **** }
 689              		.loc 1 672 5 is_stmt 0 view .LVU212
 690 003e E7E7     		b	.L29
 691              		.cfi_endproc
 692              	.LFE187:
 694              		.section	.text.set_px_cb_alpha4,"ax",%progbits
ARM GAS  /var/folders/lp/x54gwt890xv47sdkqj1k04q40000gn/T//ccGwZIp8.s 			page 38


 695              		.align	1
 696              		.syntax unified
 697              		.thumb
 698              		.thumb_func
 700              	set_px_cb_alpha4:
 701              	.LVL66:
 702              	.LFB186:
 649:Drivers/lvgl/src/hal/lv_hal_disp.c ****     (void) disp_drv; /*Unused*/
 703              		.loc 1 649 1 is_stmt 1 view -0
 704              		.cfi_startproc
 705              		@ args = 12, pretend = 0, frame = 16
 706              		@ frame_needed = 0, uses_anonymous_args = 0
 649:Drivers/lvgl/src/hal/lv_hal_disp.c ****     (void) disp_drv; /*Unused*/
 707              		.loc 1 649 1 is_stmt 0 view .LVU214
 708 0000 00B5     		push	{lr}
 709              		.cfi_def_cfa_offset 4
 710              		.cfi_offset 14, -4
 711 0002 87B0     		sub	sp, sp, #28
 712              		.cfi_def_cfa_offset 32
 713 0004 0846     		mov	r0, r1
 714              	.LVL67:
 649:Drivers/lvgl/src/hal/lv_hal_disp.c ****     (void) disp_drv; /*Unused*/
 715              		.loc 1 649 1 view .LVU215
 716 0006 1946     		mov	r1, r3
 717              	.LVL68:
 649:Drivers/lvgl/src/hal/lv_hal_disp.c ****     (void) disp_drv; /*Unused*/
 718              		.loc 1 649 1 view .LVU216
 719 0008 9DF82830 		ldrb	r3, [sp, #40]	@ zero_extendqisi2
 720              	.LVL69:
 650:Drivers/lvgl/src/hal/lv_hal_disp.c **** 
 721              		.loc 1 650 5 is_stmt 1 view .LVU217
 652:Drivers/lvgl/src/hal/lv_hal_disp.c ****     lv_img_dsc_t d;
 722              		.loc 1 652 5 view .LVU218
 652:Drivers/lvgl/src/hal/lv_hal_disp.c ****     lv_img_dsc_t d;
 723              		.loc 1 652 7 is_stmt 0 view .LVU219
 724 000c 022B     		cmp	r3, #2
 725 000e 02D8     		bhi	.L38
 726              	.LVL70:
 727              	.L34:
 659:Drivers/lvgl/src/hal/lv_hal_disp.c **** 
 728              		.loc 1 659 1 view .LVU220
 729 0010 07B0     		add	sp, sp, #28
 730              		.cfi_remember_state
 731              		.cfi_def_cfa_offset 4
 732              		@ sp needed
 733 0012 5DF804FB 		ldr	pc, [sp], #4
 734              	.LVL71:
 735              	.L38:
 736              		.cfi_restore_state
 653:Drivers/lvgl/src/hal/lv_hal_disp.c ****     d.data = buf;
 737              		.loc 1 653 5 is_stmt 1 view .LVU221
 654:Drivers/lvgl/src/hal/lv_hal_disp.c ****     d.header.w = buf_w;
 738              		.loc 1 654 5 view .LVU222
 654:Drivers/lvgl/src/hal/lv_hal_disp.c ****     d.header.w = buf_w;
 739              		.loc 1 654 12 is_stmt 0 view .LVU223
 740 0016 0590     		str	r0, [sp, #20]
 655:Drivers/lvgl/src/hal/lv_hal_disp.c ****     d.header.cf = LV_IMG_CF_ALPHA_4BIT;
ARM GAS  /var/folders/lp/x54gwt890xv47sdkqj1k04q40000gn/T//ccGwZIp8.s 			page 39


 741              		.loc 1 655 5 is_stmt 1 view .LVU224
 655:Drivers/lvgl/src/hal/lv_hal_disp.c ****     d.header.cf = LV_IMG_CF_ALPHA_4BIT;
 742              		.loc 1 655 16 is_stmt 0 view .LVU225
 743 0018 0398     		ldr	r0, [sp, #12]
 744              	.LVL72:
 655:Drivers/lvgl/src/hal/lv_hal_disp.c ****     d.header.cf = LV_IMG_CF_ALPHA_4BIT;
 745              		.loc 1 655 16 view .LVU226
 746 001a 62F39420 		bfi	r0, r2, #10, #11
 747 001e 0390     		str	r0, [sp, #12]
 656:Drivers/lvgl/src/hal/lv_hal_disp.c **** 
 748              		.loc 1 656 5 is_stmt 1 view .LVU227
 656:Drivers/lvgl/src/hal/lv_hal_disp.c **** 
 749              		.loc 1 656 17 is_stmt 0 view .LVU228
 750 0020 9DF80C20 		ldrb	r2, [sp, #12]	@ zero_extendqisi2
 751              	.LVL73:
 656:Drivers/lvgl/src/hal/lv_hal_disp.c **** 
 752              		.loc 1 656 17 view .LVU229
 753 0024 0D20     		movs	r0, #13
 754 0026 60F30402 		bfi	r2, r0, #0, #5
 755 002a 8DF80C20 		strb	r2, [sp, #12]
 658:Drivers/lvgl/src/hal/lv_hal_disp.c **** }
 756              		.loc 1 658 5 is_stmt 1 view .LVU230
 757 002e 0093     		str	r3, [sp]
 758 0030 BDF82430 		ldrh	r3, [sp, #36]
 759 0034 BDF92020 		ldrsh	r2, [sp, #32]
 760 0038 03A8     		add	r0, sp, #12
 761 003a FFF7FEFF 		bl	set_px_alpha_generic
 762              	.LVL74:
 658:Drivers/lvgl/src/hal/lv_hal_disp.c **** }
 763              		.loc 1 658 5 is_stmt 0 view .LVU231
 764 003e E7E7     		b	.L34
 765              		.cfi_endproc
 766              	.LFE186:
 768              		.section	.text.set_px_cb_alpha2,"ax",%progbits
 769              		.align	1
 770              		.syntax unified
 771              		.thumb
 772              		.thumb_func
 774              	set_px_cb_alpha2:
 775              	.LVL75:
 776              	.LFB185:
 635:Drivers/lvgl/src/hal/lv_hal_disp.c ****     (void) disp_drv; /*Unused*/
 777              		.loc 1 635 1 is_stmt 1 view -0
 778              		.cfi_startproc
 779              		@ args = 12, pretend = 0, frame = 16
 780              		@ frame_needed = 0, uses_anonymous_args = 0
 635:Drivers/lvgl/src/hal/lv_hal_disp.c ****     (void) disp_drv; /*Unused*/
 781              		.loc 1 635 1 is_stmt 0 view .LVU233
 782 0000 00B5     		push	{lr}
 783              		.cfi_def_cfa_offset 4
 784              		.cfi_offset 14, -4
 785 0002 87B0     		sub	sp, sp, #28
 786              		.cfi_def_cfa_offset 32
 787 0004 0846     		mov	r0, r1
 788              	.LVL76:
 635:Drivers/lvgl/src/hal/lv_hal_disp.c ****     (void) disp_drv; /*Unused*/
 789              		.loc 1 635 1 view .LVU234
ARM GAS  /var/folders/lp/x54gwt890xv47sdkqj1k04q40000gn/T//ccGwZIp8.s 			page 40


 790 0006 1946     		mov	r1, r3
 791              	.LVL77:
 635:Drivers/lvgl/src/hal/lv_hal_disp.c ****     (void) disp_drv; /*Unused*/
 792              		.loc 1 635 1 view .LVU235
 793 0008 9DF82830 		ldrb	r3, [sp, #40]	@ zero_extendqisi2
 794              	.LVL78:
 636:Drivers/lvgl/src/hal/lv_hal_disp.c **** 
 795              		.loc 1 636 5 is_stmt 1 view .LVU236
 638:Drivers/lvgl/src/hal/lv_hal_disp.c ****     lv_img_dsc_t d;
 796              		.loc 1 638 5 view .LVU237
 638:Drivers/lvgl/src/hal/lv_hal_disp.c ****     lv_img_dsc_t d;
 797              		.loc 1 638 7 is_stmt 0 view .LVU238
 798 000c 022B     		cmp	r3, #2
 799 000e 02D8     		bhi	.L43
 800              	.LVL79:
 801              	.L39:
 645:Drivers/lvgl/src/hal/lv_hal_disp.c **** 
 802              		.loc 1 645 1 view .LVU239
 803 0010 07B0     		add	sp, sp, #28
 804              		.cfi_remember_state
 805              		.cfi_def_cfa_offset 4
 806              		@ sp needed
 807 0012 5DF804FB 		ldr	pc, [sp], #4
 808              	.LVL80:
 809              	.L43:
 810              		.cfi_restore_state
 639:Drivers/lvgl/src/hal/lv_hal_disp.c ****     d.data = buf;
 811              		.loc 1 639 5 is_stmt 1 view .LVU240
 640:Drivers/lvgl/src/hal/lv_hal_disp.c ****     d.header.w = buf_w;
 812              		.loc 1 640 5 view .LVU241
 640:Drivers/lvgl/src/hal/lv_hal_disp.c ****     d.header.w = buf_w;
 813              		.loc 1 640 12 is_stmt 0 view .LVU242
 814 0016 0590     		str	r0, [sp, #20]
 641:Drivers/lvgl/src/hal/lv_hal_disp.c ****     d.header.cf = LV_IMG_CF_ALPHA_2BIT;
 815              		.loc 1 641 5 is_stmt 1 view .LVU243
 641:Drivers/lvgl/src/hal/lv_hal_disp.c ****     d.header.cf = LV_IMG_CF_ALPHA_2BIT;
 816              		.loc 1 641 16 is_stmt 0 view .LVU244
 817 0018 0398     		ldr	r0, [sp, #12]
 818              	.LVL81:
 641:Drivers/lvgl/src/hal/lv_hal_disp.c ****     d.header.cf = LV_IMG_CF_ALPHA_2BIT;
 819              		.loc 1 641 16 view .LVU245
 820 001a 62F39420 		bfi	r0, r2, #10, #11
 821 001e 0390     		str	r0, [sp, #12]
 642:Drivers/lvgl/src/hal/lv_hal_disp.c **** 
 822              		.loc 1 642 5 is_stmt 1 view .LVU246
 642:Drivers/lvgl/src/hal/lv_hal_disp.c **** 
 823              		.loc 1 642 17 is_stmt 0 view .LVU247
 824 0020 9DF80C20 		ldrb	r2, [sp, #12]	@ zero_extendqisi2
 825              	.LVL82:
 642:Drivers/lvgl/src/hal/lv_hal_disp.c **** 
 826              		.loc 1 642 17 view .LVU248
 827 0024 0C20     		movs	r0, #12
 828 0026 60F30402 		bfi	r2, r0, #0, #5
 829 002a 8DF80C20 		strb	r2, [sp, #12]
 644:Drivers/lvgl/src/hal/lv_hal_disp.c **** }
 830              		.loc 1 644 5 is_stmt 1 view .LVU249
 831 002e 0093     		str	r3, [sp]
ARM GAS  /var/folders/lp/x54gwt890xv47sdkqj1k04q40000gn/T//ccGwZIp8.s 			page 41


 832 0030 BDF82430 		ldrh	r3, [sp, #36]
 833 0034 BDF92020 		ldrsh	r2, [sp, #32]
 834 0038 6844     		add	r0, sp, r0
 835 003a FFF7FEFF 		bl	set_px_alpha_generic
 836              	.LVL83:
 644:Drivers/lvgl/src/hal/lv_hal_disp.c **** }
 837              		.loc 1 644 5 is_stmt 0 view .LVU250
 838 003e E7E7     		b	.L39
 839              		.cfi_endproc
 840              	.LFE185:
 842              		.section	.text.set_px_cb_alpha1,"ax",%progbits
 843              		.align	1
 844              		.syntax unified
 845              		.thumb
 846              		.thumb_func
 848              	set_px_cb_alpha1:
 849              	.LVL84:
 850              	.LFB184:
 621:Drivers/lvgl/src/hal/lv_hal_disp.c ****     (void) disp_drv; /*Unused*/
 851              		.loc 1 621 1 is_stmt 1 view -0
 852              		.cfi_startproc
 853              		@ args = 12, pretend = 0, frame = 16
 854              		@ frame_needed = 0, uses_anonymous_args = 0
 621:Drivers/lvgl/src/hal/lv_hal_disp.c ****     (void) disp_drv; /*Unused*/
 855              		.loc 1 621 1 is_stmt 0 view .LVU252
 856 0000 00B5     		push	{lr}
 857              		.cfi_def_cfa_offset 4
 858              		.cfi_offset 14, -4
 859 0002 87B0     		sub	sp, sp, #28
 860              		.cfi_def_cfa_offset 32
 861 0004 0846     		mov	r0, r1
 862              	.LVL85:
 621:Drivers/lvgl/src/hal/lv_hal_disp.c ****     (void) disp_drv; /*Unused*/
 863              		.loc 1 621 1 view .LVU253
 864 0006 1946     		mov	r1, r3
 865              	.LVL86:
 621:Drivers/lvgl/src/hal/lv_hal_disp.c ****     (void) disp_drv; /*Unused*/
 866              		.loc 1 621 1 view .LVU254
 867 0008 9DF82830 		ldrb	r3, [sp, #40]	@ zero_extendqisi2
 868              	.LVL87:
 622:Drivers/lvgl/src/hal/lv_hal_disp.c **** 
 869              		.loc 1 622 5 is_stmt 1 view .LVU255
 624:Drivers/lvgl/src/hal/lv_hal_disp.c ****     lv_img_dsc_t d;
 870              		.loc 1 624 5 view .LVU256
 624:Drivers/lvgl/src/hal/lv_hal_disp.c ****     lv_img_dsc_t d;
 871              		.loc 1 624 7 is_stmt 0 view .LVU257
 872 000c 022B     		cmp	r3, #2
 873 000e 02D8     		bhi	.L48
 874              	.LVL88:
 875              	.L44:
 631:Drivers/lvgl/src/hal/lv_hal_disp.c **** 
 876              		.loc 1 631 1 view .LVU258
 877 0010 07B0     		add	sp, sp, #28
 878              		.cfi_remember_state
 879              		.cfi_def_cfa_offset 4
 880              		@ sp needed
 881 0012 5DF804FB 		ldr	pc, [sp], #4
ARM GAS  /var/folders/lp/x54gwt890xv47sdkqj1k04q40000gn/T//ccGwZIp8.s 			page 42


 882              	.LVL89:
 883              	.L48:
 884              		.cfi_restore_state
 625:Drivers/lvgl/src/hal/lv_hal_disp.c ****     d.data = buf;
 885              		.loc 1 625 5 is_stmt 1 view .LVU259
 626:Drivers/lvgl/src/hal/lv_hal_disp.c ****     d.header.w = buf_w;
 886              		.loc 1 626 5 view .LVU260
 626:Drivers/lvgl/src/hal/lv_hal_disp.c ****     d.header.w = buf_w;
 887              		.loc 1 626 12 is_stmt 0 view .LVU261
 888 0016 0590     		str	r0, [sp, #20]
 627:Drivers/lvgl/src/hal/lv_hal_disp.c ****     d.header.cf = LV_IMG_CF_ALPHA_1BIT;
 889              		.loc 1 627 5 is_stmt 1 view .LVU262
 627:Drivers/lvgl/src/hal/lv_hal_disp.c ****     d.header.cf = LV_IMG_CF_ALPHA_1BIT;
 890              		.loc 1 627 16 is_stmt 0 view .LVU263
 891 0018 0398     		ldr	r0, [sp, #12]
 892              	.LVL90:
 627:Drivers/lvgl/src/hal/lv_hal_disp.c ****     d.header.cf = LV_IMG_CF_ALPHA_1BIT;
 893              		.loc 1 627 16 view .LVU264
 894 001a 62F39420 		bfi	r0, r2, #10, #11
 895 001e 0390     		str	r0, [sp, #12]
 628:Drivers/lvgl/src/hal/lv_hal_disp.c **** 
 896              		.loc 1 628 5 is_stmt 1 view .LVU265
 628:Drivers/lvgl/src/hal/lv_hal_disp.c **** 
 897              		.loc 1 628 17 is_stmt 0 view .LVU266
 898 0020 9DF80C20 		ldrb	r2, [sp, #12]	@ zero_extendqisi2
 899              	.LVL91:
 628:Drivers/lvgl/src/hal/lv_hal_disp.c **** 
 900              		.loc 1 628 17 view .LVU267
 901 0024 0B20     		movs	r0, #11
 902 0026 60F30402 		bfi	r2, r0, #0, #5
 903 002a 8DF80C20 		strb	r2, [sp, #12]
 630:Drivers/lvgl/src/hal/lv_hal_disp.c **** }
 904              		.loc 1 630 5 is_stmt 1 view .LVU268
 905 002e 0093     		str	r3, [sp]
 906 0030 BDF82430 		ldrh	r3, [sp, #36]
 907 0034 BDF92020 		ldrsh	r2, [sp, #32]
 908 0038 03A8     		add	r0, sp, #12
 909 003a FFF7FEFF 		bl	set_px_alpha_generic
 910              	.LVL92:
 630:Drivers/lvgl/src/hal/lv_hal_disp.c **** }
 911              		.loc 1 630 5 is_stmt 0 view .LVU269
 912 003e E7E7     		b	.L44
 913              		.cfi_endproc
 914              	.LFE184:
 916              		.section	.text.lv_disp_drv_init,"ax",%progbits
 917              		.align	1
 918              		.global	lv_disp_drv_init
 919              		.syntax unified
 920              		.thumb
 921              		.thumb_func
 923              	lv_disp_drv_init:
 924              	.LVL93:
 925              	.LFB161:
  85:Drivers/lvgl/src/hal/lv_hal_disp.c ****     lv_memset_00(driver, sizeof(lv_disp_drv_t));
 926              		.loc 1 85 1 is_stmt 1 view -0
 927              		.cfi_startproc
 928              		@ args = 0, pretend = 0, frame = 0
ARM GAS  /var/folders/lp/x54gwt890xv47sdkqj1k04q40000gn/T//ccGwZIp8.s 			page 43


 929              		@ frame_needed = 0, uses_anonymous_args = 0
  85:Drivers/lvgl/src/hal/lv_hal_disp.c ****     lv_memset_00(driver, sizeof(lv_disp_drv_t));
 930              		.loc 1 85 1 is_stmt 0 view .LVU271
 931 0000 10B5     		push	{r4, lr}
 932              		.cfi_def_cfa_offset 8
 933              		.cfi_offset 4, -8
 934              		.cfi_offset 14, -4
 935 0002 0446     		mov	r4, r0
  86:Drivers/lvgl/src/hal/lv_hal_disp.c **** 
 936              		.loc 1 86 5 is_stmt 1 view .LVU272
 937 0004 5021     		movs	r1, #80
 938 0006 FFF7FEFF 		bl	lv_memset_00
 939              	.LVL94:
  88:Drivers/lvgl/src/hal/lv_hal_disp.c ****     driver->ver_res          = 240;
 940              		.loc 1 88 5 view .LVU273
  88:Drivers/lvgl/src/hal/lv_hal_disp.c ****     driver->ver_res          = 240;
 941              		.loc 1 88 30 is_stmt 0 view .LVU274
 942 000a 4FF4A073 		mov	r3, #320
 943 000e 2380     		strh	r3, [r4]	@ movhi
  89:Drivers/lvgl/src/hal/lv_hal_disp.c ****     driver->physical_hor_res = -1;
 944              		.loc 1 89 5 is_stmt 1 view .LVU275
  89:Drivers/lvgl/src/hal/lv_hal_disp.c ****     driver->physical_hor_res = -1;
 945              		.loc 1 89 30 is_stmt 0 view .LVU276
 946 0010 F023     		movs	r3, #240
 947 0012 6380     		strh	r3, [r4, #2]	@ movhi
  90:Drivers/lvgl/src/hal/lv_hal_disp.c ****     driver->physical_ver_res = -1;
 948              		.loc 1 90 5 is_stmt 1 view .LVU277
  90:Drivers/lvgl/src/hal/lv_hal_disp.c ****     driver->physical_ver_res = -1;
 949              		.loc 1 90 30 is_stmt 0 view .LVU278
 950 0014 4FF6FF73 		movw	r3, #65535
 951 0018 A380     		strh	r3, [r4, #4]	@ movhi
  91:Drivers/lvgl/src/hal/lv_hal_disp.c ****     driver->offset_x         = 0;
 952              		.loc 1 91 5 is_stmt 1 view .LVU279
  91:Drivers/lvgl/src/hal/lv_hal_disp.c ****     driver->offset_x         = 0;
 953              		.loc 1 91 30 is_stmt 0 view .LVU280
 954 001a E380     		strh	r3, [r4, #6]	@ movhi
  92:Drivers/lvgl/src/hal/lv_hal_disp.c ****     driver->offset_y         = 0;
 955              		.loc 1 92 5 is_stmt 1 view .LVU281
  92:Drivers/lvgl/src/hal/lv_hal_disp.c ****     driver->offset_y         = 0;
 956              		.loc 1 92 30 is_stmt 0 view .LVU282
 957 001c 0023     		movs	r3, #0
 958 001e 2381     		strh	r3, [r4, #8]	@ movhi
  93:Drivers/lvgl/src/hal/lv_hal_disp.c ****     driver->antialiasing     = LV_COLOR_DEPTH > 8 ? 1 : 0;
 959              		.loc 1 93 5 is_stmt 1 view .LVU283
  93:Drivers/lvgl/src/hal/lv_hal_disp.c ****     driver->antialiasing     = LV_COLOR_DEPTH > 8 ? 1 : 0;
 960              		.loc 1 93 30 is_stmt 0 view .LVU284
 961 0020 6381     		strh	r3, [r4, #10]	@ movhi
  94:Drivers/lvgl/src/hal/lv_hal_disp.c ****     driver->screen_transp    = 0;
 962              		.loc 1 94 5 is_stmt 1 view .LVU285
  94:Drivers/lvgl/src/hal/lv_hal_disp.c ****     driver->screen_transp    = 0;
 963              		.loc 1 94 30 is_stmt 0 view .LVU286
 964 0022 227C     		ldrb	r2, [r4, #16]	@ zero_extendqisi2
 965 0024 42F00802 		orr	r2, r2, #8
 966 0028 2274     		strb	r2, [r4, #16]
  95:Drivers/lvgl/src/hal/lv_hal_disp.c ****     driver->dpi              = LV_DPI_DEF;
 967              		.loc 1 95 5 is_stmt 1 view .LVU287
  95:Drivers/lvgl/src/hal/lv_hal_disp.c ****     driver->dpi              = LV_DPI_DEF;
ARM GAS  /var/folders/lp/x54gwt890xv47sdkqj1k04q40000gn/T//ccGwZIp8.s 			page 44


 968              		.loc 1 95 30 is_stmt 0 view .LVU288
 969 002a D2B2     		uxtb	r2, r2
 970 002c 63F38612 		bfi	r2, r3, #6, #1
 971 0030 2274     		strb	r2, [r4, #16]
  96:Drivers/lvgl/src/hal/lv_hal_disp.c ****     driver->color_chroma_key = LV_COLOR_CHROMA_KEY;
 972              		.loc 1 96 5 is_stmt 1 view .LVU289
  96:Drivers/lvgl/src/hal/lv_hal_disp.c ****     driver->color_chroma_key = LV_COLOR_CHROMA_KEY;
 973              		.loc 1 96 30 is_stmt 0 view .LVU290
 974 0032 2369     		ldr	r3, [r4, #16]
 975 0034 8222     		movs	r2, #130
 976 0036 62F3D013 		bfi	r3, r2, #7, #10
 977 003a 2361     		str	r3, [r4, #16]
  97:Drivers/lvgl/src/hal/lv_hal_disp.c **** 
 978              		.loc 1 97 5 is_stmt 1 view .LVU291
 979              	.LVL95:
 980              	.LBB24:
 981              	.LBI24:
 593:Drivers/lvgl/src/hal/../draw/../misc/lv_color.h **** }
 594:Drivers/lvgl/src/hal/../draw/../misc/lv_color.h **** 
 595:Drivers/lvgl/src/hal/../draw/../misc/lv_color.h **** static inline lv_color_t lv_color_make(uint8_t r, uint8_t g, uint8_t b)
 596:Drivers/lvgl/src/hal/../draw/../misc/lv_color.h **** {
 597:Drivers/lvgl/src/hal/../draw/../misc/lv_color.h ****     return _LV_COLOR_MAKE_TYPE_HELPER LV_COLOR_MAKE(r, g, b);
 598:Drivers/lvgl/src/hal/../draw/../misc/lv_color.h **** }
 599:Drivers/lvgl/src/hal/../draw/../misc/lv_color.h **** 
 600:Drivers/lvgl/src/hal/../draw/../misc/lv_color.h **** static inline lv_color_t lv_color_hex(uint32_t c)
 982              		.loc 2 600 26 view .LVU292
 983              	.LBB25:
 601:Drivers/lvgl/src/hal/../draw/../misc/lv_color.h **** {
 602:Drivers/lvgl/src/hal/../draw/../misc/lv_color.h **** #if LV_COLOR_DEPTH == 16
 603:Drivers/lvgl/src/hal/../draw/../misc/lv_color.h ****     lv_color_t r;
 984              		.loc 2 603 5 view .LVU293
 604:Drivers/lvgl/src/hal/../draw/../misc/lv_color.h **** #if LV_COLOR_16_SWAP == 0
 605:Drivers/lvgl/src/hal/../draw/../misc/lv_color.h ****     /* Convert a 4 bytes per pixel in format ARGB32 to R5G6B5 format
 606:Drivers/lvgl/src/hal/../draw/../misc/lv_color.h ****         naive way (by calling lv_color_make with components):
 607:Drivers/lvgl/src/hal/../draw/../misc/lv_color.h ****                     r = ((c & 0xFF0000) >> 19)
 608:Drivers/lvgl/src/hal/../draw/../misc/lv_color.h ****                     g = ((c & 0xFF00) >> 10)
 609:Drivers/lvgl/src/hal/../draw/../misc/lv_color.h ****                     b = ((c & 0xFF) >> 3)
 610:Drivers/lvgl/src/hal/../draw/../misc/lv_color.h ****                     rgb565 = (r << 11) | (g << 5) | b
 611:Drivers/lvgl/src/hal/../draw/../misc/lv_color.h ****         That's 3 mask, 5 bitshift and 2 or operations
 612:Drivers/lvgl/src/hal/../draw/../misc/lv_color.h **** 
 613:Drivers/lvgl/src/hal/../draw/../misc/lv_color.h ****         A bit better:
 614:Drivers/lvgl/src/hal/../draw/../misc/lv_color.h ****                     r = ((c & 0xF80000) >> 8)
 615:Drivers/lvgl/src/hal/../draw/../misc/lv_color.h ****                     g = ((c & 0xFC00) >> 5)
 616:Drivers/lvgl/src/hal/../draw/../misc/lv_color.h ****                     b = ((c & 0xFF) >> 3)
 617:Drivers/lvgl/src/hal/../draw/../misc/lv_color.h ****                     rgb565 = r | g | b
 618:Drivers/lvgl/src/hal/../draw/../misc/lv_color.h ****         That's 3 mask, 3 bitshifts and 2 or operations */
 619:Drivers/lvgl/src/hal/../draw/../misc/lv_color.h ****     r.full = (uint16_t)(((c & 0xF80000) >> 8) | ((c & 0xFC00) >> 5) | ((c & 0xFF) >> 3));
 620:Drivers/lvgl/src/hal/../draw/../misc/lv_color.h **** #else
 621:Drivers/lvgl/src/hal/../draw/../misc/lv_color.h ****     /* We want: rrrr rrrr GGGg gggg bbbb bbbb => gggb bbbb rrrr rGGG */
 622:Drivers/lvgl/src/hal/../draw/../misc/lv_color.h ****     r.full = (uint16_t)(((c & 0xF80000) >> 16) | ((c & 0xFC00) >> 13) | ((c & 0x1C00) << 3) | ((c &
 985              		.loc 2 622 5 view .LVU294
 986              		.loc 2 622 12 is_stmt 0 view .LVU295
 987 003c 4EF20703 		movw	r3, #57351
 623:Drivers/lvgl/src/hal/../draw/../misc/lv_color.h **** #endif
 624:Drivers/lvgl/src/hal/../draw/../misc/lv_color.h ****     return r;
 988              		.loc 2 624 5 is_stmt 1 view .LVU296
 989              	.LVL96:
ARM GAS  /var/folders/lp/x54gwt890xv47sdkqj1k04q40000gn/T//ccGwZIp8.s 			page 45


 990              		.loc 2 624 5 is_stmt 0 view .LVU297
 991              	.LBE25:
 992              	.LBE24:
  97:Drivers/lvgl/src/hal/lv_hal_disp.c **** 
 993              		.loc 1 97 32 view .LVU298
 994 0040 2387     		strh	r3, [r4, #56]	@ movhi
 128:Drivers/lvgl/src/hal/lv_hal_disp.c ****     driver->draw_ctx_deinit = lv_draw_sw_init_ctx;
 995              		.loc 1 128 5 is_stmt 1 view .LVU299
 128:Drivers/lvgl/src/hal/lv_hal_disp.c ****     driver->draw_ctx_deinit = lv_draw_sw_init_ctx;
 996              		.loc 1 128 27 is_stmt 0 view .LVU300
 997 0042 034B     		ldr	r3, .L51
 998 0044 2364     		str	r3, [r4, #64]
 129:Drivers/lvgl/src/hal/lv_hal_disp.c ****     driver->draw_ctx_size = sizeof(lv_draw_sw_ctx_t);
 999              		.loc 1 129 5 is_stmt 1 view .LVU301
 129:Drivers/lvgl/src/hal/lv_hal_disp.c ****     driver->draw_ctx_size = sizeof(lv_draw_sw_ctx_t);
 1000              		.loc 1 129 29 is_stmt 0 view .LVU302
 1001 0046 6364     		str	r3, [r4, #68]
 130:Drivers/lvgl/src/hal/lv_hal_disp.c **** #endif
 1002              		.loc 1 130 5 is_stmt 1 view .LVU303
 130:Drivers/lvgl/src/hal/lv_hal_disp.c **** #endif
 1003              		.loc 1 130 27 is_stmt 0 view .LVU304
 1004 0048 5823     		movs	r3, #88
 1005 004a A364     		str	r3, [r4, #72]
 133:Drivers/lvgl/src/hal/lv_hal_disp.c **** 
 1006              		.loc 1 133 1 view .LVU305
 1007 004c 10BD     		pop	{r4, pc}
 1008              	.LVL97:
 1009              	.L52:
 133:Drivers/lvgl/src/hal/lv_hal_disp.c **** 
 1010              		.loc 1 133 1 view .LVU306
 1011 004e 00BF     		.align	2
 1012              	.L51:
 1013 0050 00000000 		.word	lv_draw_sw_init_ctx
 1014              		.cfi_endproc
 1015              	.LFE161:
 1017              		.section	.text.lv_disp_draw_buf_init,"ax",%progbits
 1018              		.align	1
 1019              		.global	lv_disp_draw_buf_init
 1020              		.syntax unified
 1021              		.thumb
 1022              		.thumb_func
 1024              	lv_disp_draw_buf_init:
 1025              	.LVL98:
 1026              	.LFB162:
 151:Drivers/lvgl/src/hal/lv_hal_disp.c ****     lv_memset_00(draw_buf, sizeof(lv_disp_draw_buf_t));
 1027              		.loc 1 151 1 is_stmt 1 view -0
 1028              		.cfi_startproc
 1029              		@ args = 0, pretend = 0, frame = 0
 1030              		@ frame_needed = 0, uses_anonymous_args = 0
 151:Drivers/lvgl/src/hal/lv_hal_disp.c ****     lv_memset_00(draw_buf, sizeof(lv_disp_draw_buf_t));
 1031              		.loc 1 151 1 is_stmt 0 view .LVU308
 1032 0000 F8B5     		push	{r3, r4, r5, r6, r7, lr}
 1033              		.cfi_def_cfa_offset 24
 1034              		.cfi_offset 3, -24
 1035              		.cfi_offset 4, -20
 1036              		.cfi_offset 5, -16
 1037              		.cfi_offset 6, -12
ARM GAS  /var/folders/lp/x54gwt890xv47sdkqj1k04q40000gn/T//ccGwZIp8.s 			page 46


 1038              		.cfi_offset 7, -8
 1039              		.cfi_offset 14, -4
 1040 0002 0446     		mov	r4, r0
 1041 0004 0D46     		mov	r5, r1
 1042 0006 1746     		mov	r7, r2
 1043 0008 1E46     		mov	r6, r3
 152:Drivers/lvgl/src/hal/lv_hal_disp.c **** 
 1044              		.loc 1 152 5 is_stmt 1 view .LVU309
 1045 000a 1C21     		movs	r1, #28
 1046              	.LVL99:
 152:Drivers/lvgl/src/hal/lv_hal_disp.c **** 
 1047              		.loc 1 152 5 is_stmt 0 view .LVU310
 1048 000c FFF7FEFF 		bl	lv_memset_00
 1049              	.LVL100:
 154:Drivers/lvgl/src/hal/lv_hal_disp.c ****     draw_buf->buf2    = buf2;
 1050              		.loc 1 154 5 is_stmt 1 view .LVU311
 154:Drivers/lvgl/src/hal/lv_hal_disp.c ****     draw_buf->buf2    = buf2;
 1051              		.loc 1 154 23 is_stmt 0 view .LVU312
 1052 0010 2560     		str	r5, [r4]
 155:Drivers/lvgl/src/hal/lv_hal_disp.c ****     draw_buf->buf_act = draw_buf->buf1;
 1053              		.loc 1 155 5 is_stmt 1 view .LVU313
 155:Drivers/lvgl/src/hal/lv_hal_disp.c ****     draw_buf->buf_act = draw_buf->buf1;
 1054              		.loc 1 155 23 is_stmt 0 view .LVU314
 1055 0012 6760     		str	r7, [r4, #4]
 156:Drivers/lvgl/src/hal/lv_hal_disp.c ****     draw_buf->size    = size_in_px_cnt;
 1056              		.loc 1 156 5 is_stmt 1 view .LVU315
 156:Drivers/lvgl/src/hal/lv_hal_disp.c ****     draw_buf->size    = size_in_px_cnt;
 1057              		.loc 1 156 23 is_stmt 0 view .LVU316
 1058 0014 A560     		str	r5, [r4, #8]
 157:Drivers/lvgl/src/hal/lv_hal_disp.c **** }
 1059              		.loc 1 157 5 is_stmt 1 view .LVU317
 157:Drivers/lvgl/src/hal/lv_hal_disp.c **** }
 1060              		.loc 1 157 23 is_stmt 0 view .LVU318
 1061 0016 E660     		str	r6, [r4, #12]
 158:Drivers/lvgl/src/hal/lv_hal_disp.c **** 
 1062              		.loc 1 158 1 view .LVU319
 1063 0018 F8BD     		pop	{r3, r4, r5, r6, r7, pc}
 158:Drivers/lvgl/src/hal/lv_hal_disp.c **** 
 1064              		.loc 1 158 1 view .LVU320
 1065              		.cfi_endproc
 1066              	.LFE162:
 1068              		.section	.text.lv_disp_drv_register,"ax",%progbits
 1069              		.align	1
 1070              		.global	lv_disp_drv_register
 1071              		.syntax unified
 1072              		.thumb
 1073              		.thumb_func
 1075              	lv_disp_drv_register:
 1076              	.LVL101:
 1077              	.LFB163:
 167:Drivers/lvgl/src/hal/lv_hal_disp.c ****     lv_disp_t * disp = _lv_ll_ins_head(&LV_GC_ROOT(_lv_disp_ll));
 1078              		.loc 1 167 1 is_stmt 1 view -0
 1079              		.cfi_startproc
 1080              		@ args = 0, pretend = 0, frame = 0
 1081              		@ frame_needed = 0, uses_anonymous_args = 0
 167:Drivers/lvgl/src/hal/lv_hal_disp.c ****     lv_disp_t * disp = _lv_ll_ins_head(&LV_GC_ROOT(_lv_disp_ll));
 1082              		.loc 1 167 1 is_stmt 0 view .LVU322
ARM GAS  /var/folders/lp/x54gwt890xv47sdkqj1k04q40000gn/T//ccGwZIp8.s 			page 47


 1083 0000 70B5     		push	{r4, r5, r6, lr}
 1084              		.cfi_def_cfa_offset 16
 1085              		.cfi_offset 4, -16
 1086              		.cfi_offset 5, -12
 1087              		.cfi_offset 6, -8
 1088              		.cfi_offset 14, -4
 1089 0002 82B0     		sub	sp, sp, #8
 1090              		.cfi_def_cfa_offset 24
 1091 0004 0546     		mov	r5, r0
 168:Drivers/lvgl/src/hal/lv_hal_disp.c ****     LV_ASSERT_MALLOC(disp);
 1092              		.loc 1 168 5 is_stmt 1 view .LVU323
 168:Drivers/lvgl/src/hal/lv_hal_disp.c ****     LV_ASSERT_MALLOC(disp);
 1093              		.loc 1 168 24 is_stmt 0 view .LVU324
 1094 0006 4A48     		ldr	r0, .L70
 1095              	.LVL102:
 168:Drivers/lvgl/src/hal/lv_hal_disp.c ****     LV_ASSERT_MALLOC(disp);
 1096              		.loc 1 168 24 view .LVU325
 1097 0008 FFF7FEFF 		bl	_lv_ll_ins_head
 1098              	.LVL103:
 169:Drivers/lvgl/src/hal/lv_hal_disp.c ****     if(!disp) {
 1099              		.loc 1 169 5 is_stmt 1 view .LVU326
 169:Drivers/lvgl/src/hal/lv_hal_disp.c ****     if(!disp) {
 1100              		.loc 1 169 5 view .LVU327
 1101 000c 0028     		cmp	r0, #0
 1102 000e 7BD0     		beq	.L57
 1103 0010 0446     		mov	r4, r0
 169:Drivers/lvgl/src/hal/lv_hal_disp.c ****     if(!disp) {
 1104              		.loc 1 169 5 discriminator 2 view .LVU328
 169:Drivers/lvgl/src/hal/lv_hal_disp.c ****     if(!disp) {
 1105              		.loc 1 169 27 discriminator 2 view .LVU329
 170:Drivers/lvgl/src/hal/lv_hal_disp.c ****         return NULL;
 1106              		.loc 1 170 5 view .LVU330
 175:Drivers/lvgl/src/hal/lv_hal_disp.c ****         lv_draw_ctx_t * draw_ctx = lv_mem_alloc(driver->draw_ctx_size);
 1107              		.loc 1 175 5 view .LVU331
 175:Drivers/lvgl/src/hal/lv_hal_disp.c ****         lv_draw_ctx_t * draw_ctx = lv_mem_alloc(driver->draw_ctx_size);
 1108              		.loc 1 175 14 is_stmt 0 view .LVU332
 1109 0012 EB6B     		ldr	r3, [r5, #60]
 175:Drivers/lvgl/src/hal/lv_hal_disp.c ****         lv_draw_ctx_t * draw_ctx = lv_mem_alloc(driver->draw_ctx_size);
 1110              		.loc 1 175 7 view .LVU333
 1111 0014 002B     		cmp	r3, #0
 1112 0016 78D0     		beq	.L68
 1113              	.LVL104:
 1114              	.L58:
 183:Drivers/lvgl/src/hal/lv_hal_disp.c **** 
 1115              		.loc 1 183 5 is_stmt 1 view .LVU334
 1116 0018 4FF4B471 		mov	r1, #360
 1117 001c 2046     		mov	r0, r4
 1118 001e FFF7FEFF 		bl	lv_memset_00
 1119              	.LVL105:
 185:Drivers/lvgl/src/hal/lv_hal_disp.c **** 
 1120              		.loc 1 185 5 view .LVU335
 185:Drivers/lvgl/src/hal/lv_hal_disp.c **** 
 1121              		.loc 1 185 18 is_stmt 0 view .LVU336
 1122 0022 2560     		str	r5, [r4]
 187:Drivers/lvgl/src/hal/lv_hal_disp.c **** 
 1123              		.loc 1 187 5 is_stmt 1 view .LVU337
 187:Drivers/lvgl/src/hal/lv_hal_disp.c **** 
ARM GAS  /var/folders/lp/x54gwt890xv47sdkqj1k04q40000gn/T//ccGwZIp8.s 			page 48


 1124              		.loc 1 187 22 is_stmt 0 view .LVU338
 1125 0024 0123     		movs	r3, #1
 1126 0026 C4F85431 		str	r3, [r4, #340]
 189:Drivers/lvgl/src/hal/lv_hal_disp.c **** 
 1127              		.loc 1 189 5 is_stmt 1 view .LVU339
 1128 002a 0821     		movs	r1, #8
 1129 002c 04F5AC70 		add	r0, r4, #344
 1130 0030 FFF7FEFF 		bl	_lv_ll_init
 1131              	.LVL106:
 191:Drivers/lvgl/src/hal/lv_hal_disp.c ****     disp_def                 = disp; /*Temporarily change the default screen to create the default 
 1132              		.loc 1 191 5 view .LVU340
 191:Drivers/lvgl/src/hal/lv_hal_disp.c ****     disp_def                 = disp; /*Temporarily change the default screen to create the default 
 1133              		.loc 1 191 17 is_stmt 0 view .LVU341
 1134 0034 3F4B     		ldr	r3, .L70+4
 1135 0036 1E68     		ldr	r6, [r3]
 1136              	.LVL107:
 192:Drivers/lvgl/src/hal/lv_hal_disp.c ****                                         new display*/
 1137              		.loc 1 192 5 is_stmt 1 view .LVU342
 192:Drivers/lvgl/src/hal/lv_hal_disp.c ****                                         new display*/
 1138              		.loc 1 192 30 is_stmt 0 view .LVU343
 1139 0038 1C60     		str	r4, [r3]
 195:Drivers/lvgl/src/hal/lv_hal_disp.c ****     LV_ASSERT_MALLOC(disp->refr_timer);
 1140              		.loc 1 195 5 is_stmt 1 view .LVU344
 195:Drivers/lvgl/src/hal/lv_hal_disp.c ****     LV_ASSERT_MALLOC(disp->refr_timer);
 1141              		.loc 1 195 24 is_stmt 0 view .LVU345
 1142 003a 2246     		mov	r2, r4
 1143 003c 3221     		movs	r1, #50
 1144 003e 3E48     		ldr	r0, .L70+8
 1145 0040 FFF7FEFF 		bl	lv_timer_create
 1146              	.LVL108:
 195:Drivers/lvgl/src/hal/lv_hal_disp.c ****     LV_ASSERT_MALLOC(disp->refr_timer);
 1147              		.loc 1 195 22 discriminator 1 view .LVU346
 1148 0044 6060     		str	r0, [r4, #4]
 196:Drivers/lvgl/src/hal/lv_hal_disp.c ****     if(disp->refr_timer == NULL) {
 1149              		.loc 1 196 5 is_stmt 1 view .LVU347
 196:Drivers/lvgl/src/hal/lv_hal_disp.c ****     if(disp->refr_timer == NULL) {
 1150              		.loc 1 196 5 view .LVU348
 1151 0046 0028     		cmp	r0, #0
 1152 0048 6BD0     		beq	.L62
 196:Drivers/lvgl/src/hal/lv_hal_disp.c ****     if(disp->refr_timer == NULL) {
 1153              		.loc 1 196 5 discriminator 2 view .LVU349
 196:Drivers/lvgl/src/hal/lv_hal_disp.c ****     if(disp->refr_timer == NULL) {
 1154              		.loc 1 196 39 discriminator 2 view .LVU350
 197:Drivers/lvgl/src/hal/lv_hal_disp.c ****         lv_mem_free(disp);
 1155              		.loc 1 197 5 view .LVU351
 202:Drivers/lvgl/src/hal/lv_hal_disp.c ****         driver->full_refresh = 0;
 1156              		.loc 1 202 5 view .LVU352
 202:Drivers/lvgl/src/hal/lv_hal_disp.c ****         driver->full_refresh = 0;
 1157              		.loc 1 202 8 is_stmt 0 view .LVU353
 1158 004a 2B7C     		ldrb	r3, [r5, #16]	@ zero_extendqisi2
 202:Drivers/lvgl/src/hal/lv_hal_disp.c ****         driver->full_refresh = 0;
 1159              		.loc 1 202 7 view .LVU354
 1160 004c 13F0020F 		tst	r3, #2
 1161 0050 0DD0     		beq	.L63
 202:Drivers/lvgl/src/hal/lv_hal_disp.c ****         driver->full_refresh = 0;
 1162              		.loc 1 202 38 discriminator 1 view .LVU355
 1163 0052 EB68     		ldr	r3, [r5, #12]
ARM GAS  /var/folders/lp/x54gwt890xv47sdkqj1k04q40000gn/T//ccGwZIp8.s 			page 49


 202:Drivers/lvgl/src/hal/lv_hal_disp.c ****         driver->full_refresh = 0;
 1164              		.loc 1 202 48 discriminator 1 view .LVU356
 1165 0054 DA68     		ldr	r2, [r3, #12]
 202:Drivers/lvgl/src/hal/lv_hal_disp.c ****         driver->full_refresh = 0;
 1166              		.loc 1 202 73 discriminator 1 view .LVU357
 1167 0056 B5F90030 		ldrsh	r3, [r5]
 202:Drivers/lvgl/src/hal/lv_hal_disp.c ****         driver->full_refresh = 0;
 1168              		.loc 1 202 91 discriminator 1 view .LVU358
 1169 005a B5F90210 		ldrsh	r1, [r5, #2]
 202:Drivers/lvgl/src/hal/lv_hal_disp.c ****         driver->full_refresh = 0;
 1170              		.loc 1 202 83 discriminator 1 view .LVU359
 1171 005e 01FB03F3 		mul	r3, r1, r3
 202:Drivers/lvgl/src/hal/lv_hal_disp.c ****         driver->full_refresh = 0;
 1172              		.loc 1 202 29 discriminator 1 view .LVU360
 1173 0062 9A42     		cmp	r2, r3
 1174 0064 03D2     		bcs	.L63
 203:Drivers/lvgl/src/hal/lv_hal_disp.c ****         LV_LOG_WARN("full_refresh requires at least screen sized draw buffer(s)");
 1175              		.loc 1 203 9 is_stmt 1 view .LVU361
 203:Drivers/lvgl/src/hal/lv_hal_disp.c ****         LV_LOG_WARN("full_refresh requires at least screen sized draw buffer(s)");
 1176              		.loc 1 203 30 is_stmt 0 view .LVU362
 1177 0066 2B7C     		ldrb	r3, [r5, #16]	@ zero_extendqisi2
 1178 0068 23F00203 		bic	r3, r3, #2
 1179 006c 2B74     		strb	r3, [r5, #16]
 1180              	.L63:
 204:Drivers/lvgl/src/hal/lv_hal_disp.c ****     }
 1181              		.loc 1 204 9 is_stmt 1 view .LVU363
 204:Drivers/lvgl/src/hal/lv_hal_disp.c ****     }
 1182              		.loc 1 204 9 view .LVU364
 204:Drivers/lvgl/src/hal/lv_hal_disp.c ****     }
 1183              		.loc 1 204 9 view .LVU365
 207:Drivers/lvgl/src/hal/lv_hal_disp.c **** #if LV_COLOR_SCREEN_TRANSP
 1184              		.loc 1 207 5 view .LVU366
 1185              	.LBB26:
 1186              	.LBI26:
 625:Drivers/lvgl/src/hal/../draw/../misc/lv_color.h **** #elif LV_COLOR_DEPTH == 32
 626:Drivers/lvgl/src/hal/../draw/../misc/lv_color.h ****     lv_color_t r;
 627:Drivers/lvgl/src/hal/../draw/../misc/lv_color.h ****     r.full = c | 0xFF000000;
 628:Drivers/lvgl/src/hal/../draw/../misc/lv_color.h ****     return r;
 629:Drivers/lvgl/src/hal/../draw/../misc/lv_color.h **** #else /*LV_COLOR_DEPTH == 8*/
 630:Drivers/lvgl/src/hal/../draw/../misc/lv_color.h ****     return lv_color_make((uint8_t)((c >> 16) & 0xFF), (uint8_t)((c >> 8) & 0xFF), (uint8_t)(c & 0xF
 631:Drivers/lvgl/src/hal/../draw/../misc/lv_color.h **** #endif
 632:Drivers/lvgl/src/hal/../draw/../misc/lv_color.h **** }
 633:Drivers/lvgl/src/hal/../draw/../misc/lv_color.h **** 
 634:Drivers/lvgl/src/hal/../draw/../misc/lv_color.h **** static inline lv_color_t lv_color_hex3(uint32_t c)
 635:Drivers/lvgl/src/hal/../draw/../misc/lv_color.h **** {
 636:Drivers/lvgl/src/hal/../draw/../misc/lv_color.h ****     return lv_color_make((uint8_t)(((c >> 4) & 0xF0) | ((c >> 8) & 0xF)), (uint8_t)((c & 0xF0) | ((
 637:Drivers/lvgl/src/hal/../draw/../misc/lv_color.h ****                          (uint8_t)((c & 0xF) | ((c & 0xF) << 4)));
 638:Drivers/lvgl/src/hal/../draw/../misc/lv_color.h **** }
 639:Drivers/lvgl/src/hal/../draw/../misc/lv_color.h **** 
 640:Drivers/lvgl/src/hal/../draw/../misc/lv_color.h **** static inline void lv_color_filter_dsc_init(lv_color_filter_dsc_t * dsc, lv_color_filter_cb_t cb)
 641:Drivers/lvgl/src/hal/../draw/../misc/lv_color.h **** {
 642:Drivers/lvgl/src/hal/../draw/../misc/lv_color.h ****     dsc->filter_cb = cb;
 643:Drivers/lvgl/src/hal/../draw/../misc/lv_color.h **** }
 644:Drivers/lvgl/src/hal/../draw/../misc/lv_color.h **** 
 645:Drivers/lvgl/src/hal/../draw/../misc/lv_color.h **** //! @cond Doxygen_Suppress
 646:Drivers/lvgl/src/hal/../draw/../misc/lv_color.h **** //!
 647:Drivers/lvgl/src/hal/../draw/../misc/lv_color.h **** void /* LV_ATTRIBUTE_FAST_MEM */ lv_color_fill(lv_color_t * buf, lv_color_t color, uint32_t px_num)
ARM GAS  /var/folders/lp/x54gwt890xv47sdkqj1k04q40000gn/T//ccGwZIp8.s 			page 50


 648:Drivers/lvgl/src/hal/../draw/../misc/lv_color.h **** 
 649:Drivers/lvgl/src/hal/../draw/../misc/lv_color.h **** //! @endcond
 650:Drivers/lvgl/src/hal/../draw/../misc/lv_color.h **** lv_color_t lv_color_lighten(lv_color_t c, lv_opa_t lvl);
 651:Drivers/lvgl/src/hal/../draw/../misc/lv_color.h **** 
 652:Drivers/lvgl/src/hal/../draw/../misc/lv_color.h **** lv_color_t lv_color_darken(lv_color_t c, lv_opa_t lvl);
 653:Drivers/lvgl/src/hal/../draw/../misc/lv_color.h **** 
 654:Drivers/lvgl/src/hal/../draw/../misc/lv_color.h **** lv_color_t lv_color_change_lightness(lv_color_t c, lv_opa_t lvl);
 655:Drivers/lvgl/src/hal/../draw/../misc/lv_color.h **** 
 656:Drivers/lvgl/src/hal/../draw/../misc/lv_color.h **** /**
 657:Drivers/lvgl/src/hal/../draw/../misc/lv_color.h ****  * Convert a HSV color to RGB
 658:Drivers/lvgl/src/hal/../draw/../misc/lv_color.h ****  * @param h hue [0..359]
 659:Drivers/lvgl/src/hal/../draw/../misc/lv_color.h ****  * @param s saturation [0..100]
 660:Drivers/lvgl/src/hal/../draw/../misc/lv_color.h ****  * @param v value [0..100]
 661:Drivers/lvgl/src/hal/../draw/../misc/lv_color.h ****  * @return the given RGB color in RGB (with LV_COLOR_DEPTH depth)
 662:Drivers/lvgl/src/hal/../draw/../misc/lv_color.h ****  */
 663:Drivers/lvgl/src/hal/../draw/../misc/lv_color.h **** lv_color_t lv_color_hsv_to_rgb(uint16_t h, uint8_t s, uint8_t v);
 664:Drivers/lvgl/src/hal/../draw/../misc/lv_color.h **** 
 665:Drivers/lvgl/src/hal/../draw/../misc/lv_color.h **** /**
 666:Drivers/lvgl/src/hal/../draw/../misc/lv_color.h ****  * Convert a 32-bit RGB color to HSV
 667:Drivers/lvgl/src/hal/../draw/../misc/lv_color.h ****  * @param r8 8-bit red
 668:Drivers/lvgl/src/hal/../draw/../misc/lv_color.h ****  * @param g8 8-bit green
 669:Drivers/lvgl/src/hal/../draw/../misc/lv_color.h ****  * @param b8 8-bit blue
 670:Drivers/lvgl/src/hal/../draw/../misc/lv_color.h ****  * @return the given RGB color in HSV
 671:Drivers/lvgl/src/hal/../draw/../misc/lv_color.h ****  */
 672:Drivers/lvgl/src/hal/../draw/../misc/lv_color.h **** lv_color_hsv_t lv_color_rgb_to_hsv(uint8_t r8, uint8_t g8, uint8_t b8);
 673:Drivers/lvgl/src/hal/../draw/../misc/lv_color.h **** 
 674:Drivers/lvgl/src/hal/../draw/../misc/lv_color.h **** /**
 675:Drivers/lvgl/src/hal/../draw/../misc/lv_color.h ****  * Convert a color to HSV
 676:Drivers/lvgl/src/hal/../draw/../misc/lv_color.h ****  * @param color color
 677:Drivers/lvgl/src/hal/../draw/../misc/lv_color.h ****  * @return the given color in HSV
 678:Drivers/lvgl/src/hal/../draw/../misc/lv_color.h ****  */
 679:Drivers/lvgl/src/hal/../draw/../misc/lv_color.h **** lv_color_hsv_t lv_color_to_hsv(lv_color_t color);
 680:Drivers/lvgl/src/hal/../draw/../misc/lv_color.h **** 
 681:Drivers/lvgl/src/hal/../draw/../misc/lv_color.h **** /**
 682:Drivers/lvgl/src/hal/../draw/../misc/lv_color.h ****  * Just a wrapper around LV_COLOR_CHROMA_KEY because it might be more convenient to use a function 
 683:Drivers/lvgl/src/hal/../draw/../misc/lv_color.h ****  * @return LV_COLOR_CHROMA_KEY
 684:Drivers/lvgl/src/hal/../draw/../misc/lv_color.h ****  */
 685:Drivers/lvgl/src/hal/../draw/../misc/lv_color.h **** static inline lv_color_t lv_color_chroma_key(void)
 686:Drivers/lvgl/src/hal/../draw/../misc/lv_color.h **** {
 687:Drivers/lvgl/src/hal/../draw/../misc/lv_color.h ****     return LV_COLOR_CHROMA_KEY;
 688:Drivers/lvgl/src/hal/../draw/../misc/lv_color.h **** }
 689:Drivers/lvgl/src/hal/../draw/../misc/lv_color.h **** 
 690:Drivers/lvgl/src/hal/../draw/../misc/lv_color.h **** /**********************
 691:Drivers/lvgl/src/hal/../draw/../misc/lv_color.h ****  *  PREDEFINED COLORS
 692:Drivers/lvgl/src/hal/../draw/../misc/lv_color.h ****  **********************/
 693:Drivers/lvgl/src/hal/../draw/../misc/lv_color.h **** /*Source: https://vuetifyjs.com/en/styles/colors/#material-colors*/
 694:Drivers/lvgl/src/hal/../draw/../misc/lv_color.h **** 
 695:Drivers/lvgl/src/hal/../draw/../misc/lv_color.h **** lv_color_t lv_palette_main(lv_palette_t p);
 696:Drivers/lvgl/src/hal/../draw/../misc/lv_color.h **** static inline lv_color_t lv_color_white(void)
 1187              		.loc 2 696 26 view .LVU367
 697:Drivers/lvgl/src/hal/../draw/../misc/lv_color.h **** {
 698:Drivers/lvgl/src/hal/../draw/../misc/lv_color.h ****     return lv_color_make(0xff, 0xff, 0xff);
 1188              		.loc 2 698 5 view .LVU368
 1189              	.LVL109:
 1190              	.LBB27:
 1191              	.LBI27:
 595:Drivers/lvgl/src/hal/../draw/../misc/lv_color.h **** {
ARM GAS  /var/folders/lp/x54gwt890xv47sdkqj1k04q40000gn/T//ccGwZIp8.s 			page 51


 1192              		.loc 2 595 26 view .LVU369
 1193              	.LBB28:
 597:Drivers/lvgl/src/hal/../draw/../misc/lv_color.h **** }
 1194              		.loc 2 597 5 view .LVU370
 597:Drivers/lvgl/src/hal/../draw/../misc/lv_color.h **** }
 1195              		.loc 2 597 12 is_stmt 0 view .LVU371
 1196 006e 4FF6FF73 		movw	r3, #65535
 1197              	.LVL110:
 597:Drivers/lvgl/src/hal/../draw/../misc/lv_color.h **** }
 1198              		.loc 2 597 12 view .LVU372
 1199              	.LBE28:
 1200              	.LBE27:
 1201              	.LBE26:
 207:Drivers/lvgl/src/hal/lv_hal_disp.c **** #if LV_COLOR_SCREEN_TRANSP
 1202              		.loc 1 207 22 view .LVU373
 1203 0072 6385     		strh	r3, [r4, #42]	@ movhi
 211:Drivers/lvgl/src/hal/lv_hal_disp.c **** #endif
 1204              		.loc 1 211 5 is_stmt 1 view .LVU374
 211:Drivers/lvgl/src/hal/lv_hal_disp.c **** #endif
 1205              		.loc 1 211 18 is_stmt 0 view .LVU375
 1206 0074 FF23     		movs	r3, #255
 1207 0076 84F82930 		strb	r3, [r4, #41]
 215:Drivers/lvgl/src/hal/lv_hal_disp.c ****         disp->theme = lv_theme_default_init(disp, lv_palette_main(LV_PALETTE_BLUE), lv_palette_main
 1208              		.loc 1 215 5 is_stmt 1 view .LVU376
 215:Drivers/lvgl/src/hal/lv_hal_disp.c ****         disp->theme = lv_theme_default_init(disp, lv_palette_main(LV_PALETTE_BLUE), lv_palette_main
 1209              		.loc 1 215 8 is_stmt 0 view .LVU377
 1210 007a FFF7FEFF 		bl	lv_theme_default_is_inited
 1211              	.LVL111:
 215:Drivers/lvgl/src/hal/lv_hal_disp.c ****         disp->theme = lv_theme_default_init(disp, lv_palette_main(LV_PALETTE_BLUE), lv_palette_main
 1212              		.loc 1 215 7 discriminator 1 view .LVU378
 1213 007e 0028     		cmp	r0, #0
 1214 0080 50D1     		bne	.L64
 216:Drivers/lvgl/src/hal/lv_hal_disp.c ****                                             LV_THEME_DEFAULT_DARK, LV_FONT_DEFAULT);
 1215              		.loc 1 216 9 is_stmt 1 view .LVU379
 216:Drivers/lvgl/src/hal/lv_hal_disp.c ****                                             LV_THEME_DEFAULT_DARK, LV_FONT_DEFAULT);
 1216              		.loc 1 216 23 is_stmt 0 view .LVU380
 1217 0082 0520     		movs	r0, #5
 1218 0084 FFF7FEFF 		bl	lv_palette_main
 1219              	.LVL112:
 1220 0088 0546     		mov	r5, r0	@ movhi
 1221              	.LVL113:
 216:Drivers/lvgl/src/hal/lv_hal_disp.c ****                                             LV_THEME_DEFAULT_DARK, LV_FONT_DEFAULT);
 1222              		.loc 1 216 23 discriminator 1 view .LVU381
 1223 008a 0020     		movs	r0, #0
 1224 008c FFF7FEFF 		bl	lv_palette_main
 1225              	.LVL114:
 1226 0090 0246     		mov	r2, r0	@ movhi
 216:Drivers/lvgl/src/hal/lv_hal_disp.c ****                                             LV_THEME_DEFAULT_DARK, LV_FONT_DEFAULT);
 1227              		.loc 1 216 23 discriminator 2 view .LVU382
 1228 0092 2A4B     		ldr	r3, .L70+12
 1229 0094 0093     		str	r3, [sp]
 1230 0096 0023     		movs	r3, #0
 1231 0098 2946     		mov	r1, r5	@ movhi
 1232 009a 2046     		mov	r0, r4
 1233 009c FFF7FEFF 		bl	lv_theme_default_init
 1234              	.LVL115:
 216:Drivers/lvgl/src/hal/lv_hal_disp.c ****                                             LV_THEME_DEFAULT_DARK, LV_FONT_DEFAULT);
ARM GAS  /var/folders/lp/x54gwt890xv47sdkqj1k04q40000gn/T//ccGwZIp8.s 			page 52


 1235              		.loc 1 216 21 discriminator 3 view .LVU383
 1236 00a0 A060     		str	r0, [r4, #8]
 1237              	.L65:
 224:Drivers/lvgl/src/hal/lv_hal_disp.c ****     disp->top_layer = lv_obj_create(NULL); /*Create top layer on the display*/
 1238              		.loc 1 224 5 is_stmt 1 view .LVU384
 224:Drivers/lvgl/src/hal/lv_hal_disp.c ****     disp->top_layer = lv_obj_create(NULL); /*Create top layer on the display*/
 1239              		.loc 1 224 23 is_stmt 0 view .LVU385
 1240 00a2 0020     		movs	r0, #0
 1241 00a4 FFF7FEFF 		bl	lv_obj_create
 1242              	.LVL116:
 224:Drivers/lvgl/src/hal/lv_hal_disp.c ****     disp->top_layer = lv_obj_create(NULL); /*Create top layer on the display*/
 1243              		.loc 1 224 21 discriminator 1 view .LVU386
 1244 00a8 2061     		str	r0, [r4, #16]
 225:Drivers/lvgl/src/hal/lv_hal_disp.c ****     disp->sys_layer = lv_obj_create(NULL); /*Create sys layer on the display*/
 1245              		.loc 1 225 5 is_stmt 1 view .LVU387
 225:Drivers/lvgl/src/hal/lv_hal_disp.c ****     disp->sys_layer = lv_obj_create(NULL); /*Create sys layer on the display*/
 1246              		.loc 1 225 23 is_stmt 0 view .LVU388
 1247 00aa 0020     		movs	r0, #0
 1248 00ac FFF7FEFF 		bl	lv_obj_create
 1249              	.LVL117:
 225:Drivers/lvgl/src/hal/lv_hal_disp.c ****     disp->sys_layer = lv_obj_create(NULL); /*Create sys layer on the display*/
 1250              		.loc 1 225 21 discriminator 1 view .LVU389
 1251 00b0 E061     		str	r0, [r4, #28]
 226:Drivers/lvgl/src/hal/lv_hal_disp.c ****     lv_obj_remove_style_all(disp->top_layer);
 1252              		.loc 1 226 5 is_stmt 1 view .LVU390
 226:Drivers/lvgl/src/hal/lv_hal_disp.c ****     lv_obj_remove_style_all(disp->top_layer);
 1253              		.loc 1 226 23 is_stmt 0 view .LVU391
 1254 00b2 0020     		movs	r0, #0
 1255 00b4 FFF7FEFF 		bl	lv_obj_create
 1256              	.LVL118:
 226:Drivers/lvgl/src/hal/lv_hal_disp.c ****     lv_obj_remove_style_all(disp->top_layer);
 1257              		.loc 1 226 21 discriminator 1 view .LVU392
 1258 00b8 2062     		str	r0, [r4, #32]
 227:Drivers/lvgl/src/hal/lv_hal_disp.c ****     lv_obj_remove_style_all(disp->sys_layer);
 1259              		.loc 1 227 5 is_stmt 1 view .LVU393
 1260              	.LVL119:
 1261              	.LBB29:
 1262              	.LBI29:
 1263              		.file 3 "Drivers/lvgl/src/hal/../core/lv_obj_style.h"
   1:Drivers/lvgl/src/hal/../core/lv_obj_style.h **** /**
   2:Drivers/lvgl/src/hal/../core/lv_obj_style.h ****  * @file lv_obj_style.h
   3:Drivers/lvgl/src/hal/../core/lv_obj_style.h ****  *
   4:Drivers/lvgl/src/hal/../core/lv_obj_style.h ****  */
   5:Drivers/lvgl/src/hal/../core/lv_obj_style.h **** 
   6:Drivers/lvgl/src/hal/../core/lv_obj_style.h **** #ifndef LV_OBJ_STYLE_H
   7:Drivers/lvgl/src/hal/../core/lv_obj_style.h **** #define LV_OBJ_STYLE_H
   8:Drivers/lvgl/src/hal/../core/lv_obj_style.h **** 
   9:Drivers/lvgl/src/hal/../core/lv_obj_style.h **** #ifdef __cplusplus
  10:Drivers/lvgl/src/hal/../core/lv_obj_style.h **** extern "C" {
  11:Drivers/lvgl/src/hal/../core/lv_obj_style.h **** #endif
  12:Drivers/lvgl/src/hal/../core/lv_obj_style.h **** 
  13:Drivers/lvgl/src/hal/../core/lv_obj_style.h **** /*********************
  14:Drivers/lvgl/src/hal/../core/lv_obj_style.h ****  *      INCLUDES
  15:Drivers/lvgl/src/hal/../core/lv_obj_style.h ****  *********************/
  16:Drivers/lvgl/src/hal/../core/lv_obj_style.h **** #include <stdint.h>
  17:Drivers/lvgl/src/hal/../core/lv_obj_style.h **** #include <stdbool.h>
  18:Drivers/lvgl/src/hal/../core/lv_obj_style.h **** #include "../misc/lv_bidi.h"
ARM GAS  /var/folders/lp/x54gwt890xv47sdkqj1k04q40000gn/T//ccGwZIp8.s 			page 53


  19:Drivers/lvgl/src/hal/../core/lv_obj_style.h **** 
  20:Drivers/lvgl/src/hal/../core/lv_obj_style.h **** /*********************
  21:Drivers/lvgl/src/hal/../core/lv_obj_style.h ****  *      DEFINES
  22:Drivers/lvgl/src/hal/../core/lv_obj_style.h ****  *********************/
  23:Drivers/lvgl/src/hal/../core/lv_obj_style.h **** 
  24:Drivers/lvgl/src/hal/../core/lv_obj_style.h **** /**********************
  25:Drivers/lvgl/src/hal/../core/lv_obj_style.h ****  *      TYPEDEFS
  26:Drivers/lvgl/src/hal/../core/lv_obj_style.h ****  **********************/
  27:Drivers/lvgl/src/hal/../core/lv_obj_style.h **** /*Can't include lv_obj.h because it includes this header file*/
  28:Drivers/lvgl/src/hal/../core/lv_obj_style.h **** struct _lv_obj_t;
  29:Drivers/lvgl/src/hal/../core/lv_obj_style.h **** 
  30:Drivers/lvgl/src/hal/../core/lv_obj_style.h **** typedef enum {
  31:Drivers/lvgl/src/hal/../core/lv_obj_style.h ****     _LV_STYLE_STATE_CMP_SAME,           /*The style properties in the 2 states are identical*/
  32:Drivers/lvgl/src/hal/../core/lv_obj_style.h ****     _LV_STYLE_STATE_CMP_DIFF_REDRAW,    /*The differences can be shown with a simple redraw*/
  33:Drivers/lvgl/src/hal/../core/lv_obj_style.h ****     _LV_STYLE_STATE_CMP_DIFF_DRAW_PAD,  /*The differences can be shown with a simple redraw*/
  34:Drivers/lvgl/src/hal/../core/lv_obj_style.h ****     _LV_STYLE_STATE_CMP_DIFF_LAYOUT,    /*The differences can be shown with a simple redraw*/
  35:Drivers/lvgl/src/hal/../core/lv_obj_style.h **** } _lv_style_state_cmp_t;
  36:Drivers/lvgl/src/hal/../core/lv_obj_style.h **** 
  37:Drivers/lvgl/src/hal/../core/lv_obj_style.h **** typedef uint32_t lv_style_selector_t;
  38:Drivers/lvgl/src/hal/../core/lv_obj_style.h **** 
  39:Drivers/lvgl/src/hal/../core/lv_obj_style.h **** typedef struct {
  40:Drivers/lvgl/src/hal/../core/lv_obj_style.h ****     lv_style_t * style;
  41:Drivers/lvgl/src/hal/../core/lv_obj_style.h ****     uint32_t selector : 24;
  42:Drivers/lvgl/src/hal/../core/lv_obj_style.h ****     uint32_t is_local : 1;
  43:Drivers/lvgl/src/hal/../core/lv_obj_style.h ****     uint32_t is_trans : 1;
  44:Drivers/lvgl/src/hal/../core/lv_obj_style.h **** } _lv_obj_style_t;
  45:Drivers/lvgl/src/hal/../core/lv_obj_style.h **** 
  46:Drivers/lvgl/src/hal/../core/lv_obj_style.h **** typedef struct {
  47:Drivers/lvgl/src/hal/../core/lv_obj_style.h ****     uint16_t time;
  48:Drivers/lvgl/src/hal/../core/lv_obj_style.h ****     uint16_t delay;
  49:Drivers/lvgl/src/hal/../core/lv_obj_style.h ****     lv_style_selector_t selector;
  50:Drivers/lvgl/src/hal/../core/lv_obj_style.h ****     lv_style_prop_t prop;
  51:Drivers/lvgl/src/hal/../core/lv_obj_style.h ****     lv_anim_path_cb_t path_cb;
  52:Drivers/lvgl/src/hal/../core/lv_obj_style.h **** #if LV_USE_USER_DATA
  53:Drivers/lvgl/src/hal/../core/lv_obj_style.h ****     void * user_data;
  54:Drivers/lvgl/src/hal/../core/lv_obj_style.h **** #endif
  55:Drivers/lvgl/src/hal/../core/lv_obj_style.h **** } _lv_obj_style_transition_dsc_t;
  56:Drivers/lvgl/src/hal/../core/lv_obj_style.h **** 
  57:Drivers/lvgl/src/hal/../core/lv_obj_style.h **** /**********************
  58:Drivers/lvgl/src/hal/../core/lv_obj_style.h ****  * GLOBAL PROTOTYPES
  59:Drivers/lvgl/src/hal/../core/lv_obj_style.h ****  **********************/
  60:Drivers/lvgl/src/hal/../core/lv_obj_style.h **** 
  61:Drivers/lvgl/src/hal/../core/lv_obj_style.h **** /**
  62:Drivers/lvgl/src/hal/../core/lv_obj_style.h ****  * Initialize the object related style manager module.
  63:Drivers/lvgl/src/hal/../core/lv_obj_style.h ****  * Called by LVGL in `lv_init()`
  64:Drivers/lvgl/src/hal/../core/lv_obj_style.h ****  */
  65:Drivers/lvgl/src/hal/../core/lv_obj_style.h **** void _lv_obj_style_init(void);
  66:Drivers/lvgl/src/hal/../core/lv_obj_style.h **** 
  67:Drivers/lvgl/src/hal/../core/lv_obj_style.h **** /**
  68:Drivers/lvgl/src/hal/../core/lv_obj_style.h ****  * Add a style to an object.
  69:Drivers/lvgl/src/hal/../core/lv_obj_style.h ****  * @param obj       pointer to an object
  70:Drivers/lvgl/src/hal/../core/lv_obj_style.h ****  * @param style     pointer to a style to add
  71:Drivers/lvgl/src/hal/../core/lv_obj_style.h ****  * @param selector  OR-ed value of parts and state to which the style should be added
  72:Drivers/lvgl/src/hal/../core/lv_obj_style.h ****  * @example         lv_obj_add_style(btn, &style_btn, 0); //Default button style
  73:Drivers/lvgl/src/hal/../core/lv_obj_style.h ****  * @example         lv_obj_add_style(btn, &btn_red, LV_STATE_PRESSED); //Overwrite only some colors
  74:Drivers/lvgl/src/hal/../core/lv_obj_style.h ****  */
  75:Drivers/lvgl/src/hal/../core/lv_obj_style.h **** void lv_obj_add_style(struct _lv_obj_t * obj, lv_style_t * style, lv_style_selector_t selector);
ARM GAS  /var/folders/lp/x54gwt890xv47sdkqj1k04q40000gn/T//ccGwZIp8.s 			page 54


  76:Drivers/lvgl/src/hal/../core/lv_obj_style.h **** 
  77:Drivers/lvgl/src/hal/../core/lv_obj_style.h **** /**
  78:Drivers/lvgl/src/hal/../core/lv_obj_style.h ****  * Add a style to an object.
  79:Drivers/lvgl/src/hal/../core/lv_obj_style.h ****  * @param obj       pointer to an object
  80:Drivers/lvgl/src/hal/../core/lv_obj_style.h ****  * @param style     pointer to a style to remove. Can be NULL to check only the selector
  81:Drivers/lvgl/src/hal/../core/lv_obj_style.h ****  * @param selector  OR-ed values of states and a part to remove only styles with matching selectors
  82:Drivers/lvgl/src/hal/../core/lv_obj_style.h ****  * @example lv_obj_remove_style(obj, &style, LV_PART_ANY | LV_STATE_ANY); //Remove a specific style
  83:Drivers/lvgl/src/hal/../core/lv_obj_style.h ****  * @example lv_obj_remove_style(obj, NULL, LV_PART_MAIN | LV_STATE_ANY); //Remove all styles from t
  84:Drivers/lvgl/src/hal/../core/lv_obj_style.h ****  * @example lv_obj_remove_style(obj, NULL, LV_PART_ANY | LV_STATE_ANY); //Remove all styles
  85:Drivers/lvgl/src/hal/../core/lv_obj_style.h ****  */
  86:Drivers/lvgl/src/hal/../core/lv_obj_style.h **** void lv_obj_remove_style(struct _lv_obj_t * obj, lv_style_t * style, lv_style_selector_t selector);
  87:Drivers/lvgl/src/hal/../core/lv_obj_style.h **** 
  88:Drivers/lvgl/src/hal/../core/lv_obj_style.h **** /**
  89:Drivers/lvgl/src/hal/../core/lv_obj_style.h ****  * Remove all styles from an object
  90:Drivers/lvgl/src/hal/../core/lv_obj_style.h ****  * @param obj       pointer to an object
  91:Drivers/lvgl/src/hal/../core/lv_obj_style.h ****  */
  92:Drivers/lvgl/src/hal/../core/lv_obj_style.h **** static inline void lv_obj_remove_style_all(struct _lv_obj_t * obj)
 1264              		.loc 3 92 20 view .LVU394
 1265              	.LBB30:
  93:Drivers/lvgl/src/hal/../core/lv_obj_style.h **** {
  94:Drivers/lvgl/src/hal/../core/lv_obj_style.h ****     lv_obj_remove_style(obj, NULL, LV_PART_ANY | LV_STATE_ANY);
 1266              		.loc 3 94 5 view .LVU395
 1267 00ba 214D     		ldr	r5, .L70+16
 1268 00bc 2A46     		mov	r2, r5
 1269 00be 0021     		movs	r1, #0
 1270 00c0 E069     		ldr	r0, [r4, #28]
 1271 00c2 FFF7FEFF 		bl	lv_obj_remove_style
 1272              	.LVL120:
 1273              		.loc 3 94 5 is_stmt 0 view .LVU396
 1274              	.LBE30:
 1275              	.LBE29:
 228:Drivers/lvgl/src/hal/lv_hal_disp.c ****     lv_obj_clear_flag(disp->top_layer, LV_OBJ_FLAG_CLICKABLE);
 1276              		.loc 1 228 5 is_stmt 1 view .LVU397
 1277              	.LBB31:
 1278              	.LBI31:
  92:Drivers/lvgl/src/hal/../core/lv_obj_style.h **** {
 1279              		.loc 3 92 20 view .LVU398
 1280              	.LBB32:
 1281              		.loc 3 94 5 view .LVU399
 1282 00c6 2A46     		mov	r2, r5
 1283 00c8 0021     		movs	r1, #0
 1284 00ca 206A     		ldr	r0, [r4, #32]
 1285 00cc FFF7FEFF 		bl	lv_obj_remove_style
 1286              	.LVL121:
 1287              		.loc 3 94 5 is_stmt 0 view .LVU400
 1288              	.LBE32:
 1289              	.LBE31:
 229:Drivers/lvgl/src/hal/lv_hal_disp.c ****     lv_obj_clear_flag(disp->sys_layer, LV_OBJ_FLAG_CLICKABLE);
 1290              		.loc 1 229 5 is_stmt 1 view .LVU401
 1291 00d0 0221     		movs	r1, #2
 1292 00d2 E069     		ldr	r0, [r4, #28]
 1293 00d4 FFF7FEFF 		bl	lv_obj_clear_flag
 1294              	.LVL122:
 230:Drivers/lvgl/src/hal/lv_hal_disp.c **** 
 1295              		.loc 1 230 5 view .LVU402
 1296 00d8 0221     		movs	r1, #2
 1297 00da 206A     		ldr	r0, [r4, #32]
ARM GAS  /var/folders/lp/x54gwt890xv47sdkqj1k04q40000gn/T//ccGwZIp8.s 			page 55


 1298 00dc FFF7FEFF 		bl	lv_obj_clear_flag
 1299              	.LVL123:
 232:Drivers/lvgl/src/hal/lv_hal_disp.c ****     lv_obj_set_scrollbar_mode(disp->sys_layer, LV_SCROLLBAR_MODE_OFF);
 1300              		.loc 1 232 5 view .LVU403
 1301 00e0 0021     		movs	r1, #0
 1302 00e2 E069     		ldr	r0, [r4, #28]
 1303 00e4 FFF7FEFF 		bl	lv_obj_set_scrollbar_mode
 1304              	.LVL124:
 233:Drivers/lvgl/src/hal/lv_hal_disp.c **** 
 1305              		.loc 1 233 5 view .LVU404
 1306 00e8 0021     		movs	r1, #0
 1307 00ea 206A     		ldr	r0, [r4, #32]
 1308 00ec FFF7FEFF 		bl	lv_obj_set_scrollbar_mode
 1309              	.LVL125:
 235:Drivers/lvgl/src/hal/lv_hal_disp.c **** 
 1310              		.loc 1 235 5 view .LVU405
 1311 00f0 2069     		ldr	r0, [r4, #16]
 1312 00f2 FFF7FEFF 		bl	lv_obj_invalidate
 1313              	.LVL126:
 237:Drivers/lvgl/src/hal/lv_hal_disp.c ****     if(disp_def == NULL) disp_def = disp; /*Initialize the default display*/
 1314              		.loc 1 237 5 view .LVU406
 237:Drivers/lvgl/src/hal/lv_hal_disp.c ****     if(disp_def == NULL) disp_def = disp; /*Initialize the default display*/
 1315              		.loc 1 237 14 is_stmt 0 view .LVU407
 1316 00f6 0F4B     		ldr	r3, .L70+4
 1317 00f8 1E60     		str	r6, [r3]
 238:Drivers/lvgl/src/hal/lv_hal_disp.c **** 
 1318              		.loc 1 238 5 is_stmt 1 view .LVU408
 238:Drivers/lvgl/src/hal/lv_hal_disp.c **** 
 1319              		.loc 1 238 7 is_stmt 0 view .LVU409
 1320 00fa BEB1     		cbz	r6, .L69
 1321              	.L66:
 240:Drivers/lvgl/src/hal/lv_hal_disp.c **** 
 1322              		.loc 1 240 5 is_stmt 1 view .LVU410
 1323 00fc 6068     		ldr	r0, [r4, #4]
 1324 00fe FFF7FEFF 		bl	lv_timer_ready
 1325              	.LVL127:
 242:Drivers/lvgl/src/hal/lv_hal_disp.c **** }
 1326              		.loc 1 242 5 view .LVU411
 243:Drivers/lvgl/src/hal/lv_hal_disp.c **** 
 1327              		.loc 1 243 1 is_stmt 0 view .LVU412
 1328 0102 2046     		mov	r0, r4
 1329 0104 02B0     		add	sp, sp, #8
 1330              		.cfi_remember_state
 1331              		.cfi_def_cfa_offset 16
 1332              		@ sp needed
 1333 0106 70BD     		pop	{r4, r5, r6, pc}
 1334              	.LVL128:
 1335              	.L57:
 1336              		.cfi_restore_state
 169:Drivers/lvgl/src/hal/lv_hal_disp.c ****     if(!disp) {
 1337              		.loc 1 169 5 is_stmt 1 discriminator 1 view .LVU413
 169:Drivers/lvgl/src/hal/lv_hal_disp.c ****     if(!disp) {
 1338              		.loc 1 169 5 discriminator 1 view .LVU414
 169:Drivers/lvgl/src/hal/lv_hal_disp.c ****     if(!disp) {
 1339              		.loc 1 169 5 discriminator 1 view .LVU415
 169:Drivers/lvgl/src/hal/lv_hal_disp.c ****     if(!disp) {
 1340              		.loc 1 169 5 discriminator 1 view .LVU416
ARM GAS  /var/folders/lp/x54gwt890xv47sdkqj1k04q40000gn/T//ccGwZIp8.s 			page 56


 169:Drivers/lvgl/src/hal/lv_hal_disp.c ****     if(!disp) {
 1341              		.loc 1 169 5 discriminator 1 view .LVU417
 1342 0108 FEE7     		b	.L57
 1343              	.L68:
 1344              	.LBB33:
 176:Drivers/lvgl/src/hal/lv_hal_disp.c ****         LV_ASSERT_MALLOC(draw_ctx);
 1345              		.loc 1 176 9 view .LVU418
 176:Drivers/lvgl/src/hal/lv_hal_disp.c ****         LV_ASSERT_MALLOC(draw_ctx);
 1346              		.loc 1 176 36 is_stmt 0 view .LVU419
 1347 010a A86C     		ldr	r0, [r5, #72]
 1348              	.LVL129:
 176:Drivers/lvgl/src/hal/lv_hal_disp.c ****         LV_ASSERT_MALLOC(draw_ctx);
 1349              		.loc 1 176 36 view .LVU420
 1350 010c FFF7FEFF 		bl	lv_mem_alloc
 1351              	.LVL130:
 177:Drivers/lvgl/src/hal/lv_hal_disp.c ****         if(draw_ctx == NULL) return NULL;
 1352              		.loc 1 177 9 is_stmt 1 view .LVU421
 177:Drivers/lvgl/src/hal/lv_hal_disp.c ****         if(draw_ctx == NULL) return NULL;
 1353              		.loc 1 177 9 view .LVU422
 1354 0110 0646     		mov	r6, r0
 1355 0112 28B1     		cbz	r0, .L60
 177:Drivers/lvgl/src/hal/lv_hal_disp.c ****         if(draw_ctx == NULL) return NULL;
 1356              		.loc 1 177 9 discriminator 2 view .LVU423
 177:Drivers/lvgl/src/hal/lv_hal_disp.c ****         if(draw_ctx == NULL) return NULL;
 1357              		.loc 1 177 35 discriminator 2 view .LVU424
 178:Drivers/lvgl/src/hal/lv_hal_disp.c ****         driver->draw_ctx_init(driver, draw_ctx);
 1358              		.loc 1 178 9 view .LVU425
 179:Drivers/lvgl/src/hal/lv_hal_disp.c ****         driver->draw_ctx = draw_ctx;
 1359              		.loc 1 179 9 view .LVU426
 179:Drivers/lvgl/src/hal/lv_hal_disp.c ****         driver->draw_ctx = draw_ctx;
 1360              		.loc 1 179 15 is_stmt 0 view .LVU427
 1361 0114 2B6C     		ldr	r3, [r5, #64]
 179:Drivers/lvgl/src/hal/lv_hal_disp.c ****         driver->draw_ctx = draw_ctx;
 1362              		.loc 1 179 9 view .LVU428
 1363 0116 0146     		mov	r1, r0
 1364 0118 2846     		mov	r0, r5
 1365              	.LVL131:
 179:Drivers/lvgl/src/hal/lv_hal_disp.c ****         driver->draw_ctx = draw_ctx;
 1366              		.loc 1 179 9 view .LVU429
 1367 011a 9847     		blx	r3
 1368              	.LVL132:
 180:Drivers/lvgl/src/hal/lv_hal_disp.c ****     }
 1369              		.loc 1 180 9 is_stmt 1 view .LVU430
 180:Drivers/lvgl/src/hal/lv_hal_disp.c ****     }
 1370              		.loc 1 180 26 is_stmt 0 view .LVU431
 1371 011c EE63     		str	r6, [r5, #60]
 1372 011e 7BE7     		b	.L58
 1373              	.LVL133:
 1374              	.L60:
 177:Drivers/lvgl/src/hal/lv_hal_disp.c ****         if(draw_ctx == NULL) return NULL;
 1375              		.loc 1 177 9 is_stmt 1 discriminator 1 view .LVU432
 177:Drivers/lvgl/src/hal/lv_hal_disp.c ****         if(draw_ctx == NULL) return NULL;
 1376              		.loc 1 177 9 discriminator 1 view .LVU433
 177:Drivers/lvgl/src/hal/lv_hal_disp.c ****         if(draw_ctx == NULL) return NULL;
 1377              		.loc 1 177 9 discriminator 1 view .LVU434
 177:Drivers/lvgl/src/hal/lv_hal_disp.c ****         if(draw_ctx == NULL) return NULL;
 1378              		.loc 1 177 9 discriminator 1 view .LVU435
ARM GAS  /var/folders/lp/x54gwt890xv47sdkqj1k04q40000gn/T//ccGwZIp8.s 			page 57


 177:Drivers/lvgl/src/hal/lv_hal_disp.c ****         if(draw_ctx == NULL) return NULL;
 1379              		.loc 1 177 9 discriminator 1 view .LVU436
 1380 0120 FEE7     		b	.L60
 1381              	.LVL134:
 1382              	.L62:
 177:Drivers/lvgl/src/hal/lv_hal_disp.c ****         if(draw_ctx == NULL) return NULL;
 1383              		.loc 1 177 9 is_stmt 0 discriminator 1 view .LVU437
 1384              	.LBE33:
 196:Drivers/lvgl/src/hal/lv_hal_disp.c ****     if(disp->refr_timer == NULL) {
 1385              		.loc 1 196 5 is_stmt 1 discriminator 1 view .LVU438
 196:Drivers/lvgl/src/hal/lv_hal_disp.c ****     if(disp->refr_timer == NULL) {
 1386              		.loc 1 196 5 discriminator 1 view .LVU439
 196:Drivers/lvgl/src/hal/lv_hal_disp.c ****     if(disp->refr_timer == NULL) {
 1387              		.loc 1 196 5 discriminator 1 view .LVU440
 196:Drivers/lvgl/src/hal/lv_hal_disp.c ****     if(disp->refr_timer == NULL) {
 1388              		.loc 1 196 5 discriminator 1 view .LVU441
 196:Drivers/lvgl/src/hal/lv_hal_disp.c ****     if(disp->refr_timer == NULL) {
 1389              		.loc 1 196 5 discriminator 1 view .LVU442
 1390 0122 FEE7     		b	.L62
 1391              	.L64:
 220:Drivers/lvgl/src/hal/lv_hal_disp.c ****     }
 1392              		.loc 1 220 9 view .LVU443
 220:Drivers/lvgl/src/hal/lv_hal_disp.c ****     }
 1393              		.loc 1 220 23 is_stmt 0 view .LVU444
 1394 0124 FFF7FEFF 		bl	lv_theme_default_get
 1395              	.LVL135:
 220:Drivers/lvgl/src/hal/lv_hal_disp.c ****     }
 1396              		.loc 1 220 21 discriminator 1 view .LVU445
 1397 0128 A060     		str	r0, [r4, #8]
 1398 012a BAE7     		b	.L65
 1399              	.LVL136:
 1400              	.L69:
 238:Drivers/lvgl/src/hal/lv_hal_disp.c **** 
 1401              		.loc 1 238 26 is_stmt 1 discriminator 1 view .LVU446
 238:Drivers/lvgl/src/hal/lv_hal_disp.c **** 
 1402              		.loc 1 238 35 is_stmt 0 discriminator 1 view .LVU447
 1403 012c 1C60     		str	r4, [r3]
 1404 012e E5E7     		b	.L66
 1405              	.L71:
 1406              		.align	2
 1407              	.L70:
 1408 0130 00000000 		.word	_lv_disp_ll
 1409 0134 00000000 		.word	disp_def
 1410 0138 00000000 		.word	_lv_disp_refr_timer
 1411 013c 00000000 		.word	lv_font_montserrat_14
 1412 0140 FFFF0F00 		.word	1048575
 1413              		.cfi_endproc
 1414              	.LFE163:
 1416              		.section	.text.lv_disp_set_default,"ax",%progbits
 1417              		.align	1
 1418              		.global	lv_disp_set_default
 1419              		.syntax unified
 1420              		.thumb
 1421              		.thumb_func
 1423              	lv_disp_set_default:
 1424              	.LVL137:
 1425              	.LFB166:
ARM GAS  /var/folders/lp/x54gwt890xv47sdkqj1k04q40000gn/T//ccGwZIp8.s 			page 58


 333:Drivers/lvgl/src/hal/lv_hal_disp.c ****     disp_def = disp;
 1426              		.loc 1 333 1 is_stmt 1 view -0
 1427              		.cfi_startproc
 1428              		@ args = 0, pretend = 0, frame = 0
 1429              		@ frame_needed = 0, uses_anonymous_args = 0
 1430              		@ link register save eliminated.
 334:Drivers/lvgl/src/hal/lv_hal_disp.c **** }
 1431              		.loc 1 334 5 view .LVU449
 334:Drivers/lvgl/src/hal/lv_hal_disp.c **** }
 1432              		.loc 1 334 14 is_stmt 0 view .LVU450
 1433 0000 014B     		ldr	r3, .L73
 1434 0002 1860     		str	r0, [r3]
 335:Drivers/lvgl/src/hal/lv_hal_disp.c **** 
 1435              		.loc 1 335 1 view .LVU451
 1436 0004 7047     		bx	lr
 1437              	.L74:
 1438 0006 00BF     		.align	2
 1439              	.L73:
 1440 0008 00000000 		.word	disp_def
 1441              		.cfi_endproc
 1442              	.LFE166:
 1444              		.section	.text.lv_disp_get_default,"ax",%progbits
 1445              		.align	1
 1446              		.global	lv_disp_get_default
 1447              		.syntax unified
 1448              		.thumb
 1449              		.thumb_func
 1451              	lv_disp_get_default:
 1452              	.LFB167:
 342:Drivers/lvgl/src/hal/lv_hal_disp.c ****     return disp_def;
 1453              		.loc 1 342 1 is_stmt 1 view -0
 1454              		.cfi_startproc
 1455              		@ args = 0, pretend = 0, frame = 0
 1456              		@ frame_needed = 0, uses_anonymous_args = 0
 1457              		@ link register save eliminated.
 343:Drivers/lvgl/src/hal/lv_hal_disp.c **** }
 1458              		.loc 1 343 5 view .LVU453
 344:Drivers/lvgl/src/hal/lv_hal_disp.c **** 
 1459              		.loc 1 344 1 is_stmt 0 view .LVU454
 1460 0000 014B     		ldr	r3, .L76
 1461 0002 1868     		ldr	r0, [r3]
 1462 0004 7047     		bx	lr
 1463              	.L77:
 1464 0006 00BF     		.align	2
 1465              	.L76:
 1466 0008 00000000 		.word	disp_def
 1467              		.cfi_endproc
 1468              	.LFE167:
 1470              		.section	.text.lv_disp_remove,"ax",%progbits
 1471              		.align	1
 1472              		.global	lv_disp_remove
 1473              		.syntax unified
 1474              		.thumb
 1475              		.thumb_func
 1477              	lv_disp_remove:
 1478              	.LVL138:
 1479              	.LFB165:
ARM GAS  /var/folders/lp/x54gwt890xv47sdkqj1k04q40000gn/T//ccGwZIp8.s 			page 59


 292:Drivers/lvgl/src/hal/lv_hal_disp.c ****     bool was_default = false;
 1480              		.loc 1 292 1 is_stmt 1 view -0
 1481              		.cfi_startproc
 1482              		@ args = 0, pretend = 0, frame = 0
 1483              		@ frame_needed = 0, uses_anonymous_args = 0
 292:Drivers/lvgl/src/hal/lv_hal_disp.c ****     bool was_default = false;
 1484              		.loc 1 292 1 is_stmt 0 view .LVU456
 1485 0000 38B5     		push	{r3, r4, r5, lr}
 1486              		.cfi_def_cfa_offset 16
 1487              		.cfi_offset 3, -16
 1488              		.cfi_offset 4, -12
 1489              		.cfi_offset 5, -8
 1490              		.cfi_offset 14, -4
 1491 0002 0446     		mov	r4, r0
 293:Drivers/lvgl/src/hal/lv_hal_disp.c ****     if(disp == lv_disp_get_default()) was_default = true;
 1492              		.loc 1 293 5 is_stmt 1 view .LVU457
 1493              	.LVL139:
 294:Drivers/lvgl/src/hal/lv_hal_disp.c **** 
 1494              		.loc 1 294 5 view .LVU458
 294:Drivers/lvgl/src/hal/lv_hal_disp.c **** 
 1495              		.loc 1 294 16 is_stmt 0 view .LVU459
 1496 0004 FFF7FEFF 		bl	lv_disp_get_default
 1497              	.LVL140:
 294:Drivers/lvgl/src/hal/lv_hal_disp.c **** 
 1498              		.loc 1 294 7 discriminator 1 view .LVU460
 1499 0008 8442     		cmp	r4, r0
 1500 000a 04D0     		beq	.L89
 293:Drivers/lvgl/src/hal/lv_hal_disp.c ****     if(disp == lv_disp_get_default()) was_default = true;
 1501              		.loc 1 293 10 view .LVU461
 1502 000c 0025     		movs	r5, #0
 1503              	.L79:
 1504              	.LVL141:
 297:Drivers/lvgl/src/hal/lv_hal_disp.c ****     indev = lv_indev_get_next(NULL);
 1505              		.loc 1 297 5 is_stmt 1 view .LVU462
 298:Drivers/lvgl/src/hal/lv_hal_disp.c ****     while(indev) {
 1506              		.loc 1 298 5 view .LVU463
 298:Drivers/lvgl/src/hal/lv_hal_disp.c ****     while(indev) {
 1507              		.loc 1 298 13 is_stmt 0 view .LVU464
 1508 000e 0020     		movs	r0, #0
 1509 0010 FFF7FEFF 		bl	lv_indev_get_next
 1510              	.LVL142:
 299:Drivers/lvgl/src/hal/lv_hal_disp.c ****         if(indev->driver->disp == disp) {
 1511              		.loc 1 299 5 is_stmt 1 view .LVU465
 299:Drivers/lvgl/src/hal/lv_hal_disp.c ****         if(indev->driver->disp == disp) {
 1512              		.loc 1 299 10 is_stmt 0 view .LVU466
 1513 0014 03E0     		b	.L80
 1514              	.LVL143:
 1515              	.L89:
 294:Drivers/lvgl/src/hal/lv_hal_disp.c **** 
 1516              		.loc 1 294 51 discriminator 1 view .LVU467
 1517 0016 0125     		movs	r5, #1
 1518 0018 F9E7     		b	.L79
 1519              	.LVL144:
 1520              	.L81:
 303:Drivers/lvgl/src/hal/lv_hal_disp.c ****     }
 1521              		.loc 1 303 9 is_stmt 1 view .LVU468
 303:Drivers/lvgl/src/hal/lv_hal_disp.c ****     }
ARM GAS  /var/folders/lp/x54gwt890xv47sdkqj1k04q40000gn/T//ccGwZIp8.s 			page 60


 1522              		.loc 1 303 17 is_stmt 0 view .LVU469
 1523 001a FFF7FEFF 		bl	lv_indev_get_next
 1524              	.LVL145:
 1525              	.L80:
 299:Drivers/lvgl/src/hal/lv_hal_disp.c ****         if(indev->driver->disp == disp) {
 1526              		.loc 1 299 11 is_stmt 1 view .LVU470
 1527 001e 30B1     		cbz	r0, .L91
 300:Drivers/lvgl/src/hal/lv_hal_disp.c ****             indev->driver->disp = NULL;
 1528              		.loc 1 300 9 view .LVU471
 300:Drivers/lvgl/src/hal/lv_hal_disp.c ****             indev->driver->disp = NULL;
 1529              		.loc 1 300 17 is_stmt 0 view .LVU472
 1530 0020 0368     		ldr	r3, [r0]
 300:Drivers/lvgl/src/hal/lv_hal_disp.c ****             indev->driver->disp = NULL;
 1531              		.loc 1 300 25 view .LVU473
 1532 0022 1A69     		ldr	r2, [r3, #16]
 300:Drivers/lvgl/src/hal/lv_hal_disp.c ****             indev->driver->disp = NULL;
 1533              		.loc 1 300 11 view .LVU474
 1534 0024 A242     		cmp	r2, r4
 1535 0026 F8D1     		bne	.L81
 301:Drivers/lvgl/src/hal/lv_hal_disp.c ****         }
 1536              		.loc 1 301 13 is_stmt 1 view .LVU475
 301:Drivers/lvgl/src/hal/lv_hal_disp.c ****         }
 1537              		.loc 1 301 33 is_stmt 0 view .LVU476
 1538 0028 0022     		movs	r2, #0
 1539 002a 1A61     		str	r2, [r3, #16]
 1540 002c F5E7     		b	.L81
 1541              	.L91:
 307:Drivers/lvgl/src/hal/lv_hal_disp.c ****         lv_obj_del(disp->sys_layer);
 1542              		.loc 1 307 5 is_stmt 1 view .LVU477
 307:Drivers/lvgl/src/hal/lv_hal_disp.c ****         lv_obj_del(disp->sys_layer);
 1543              		.loc 1 307 12 is_stmt 0 view .LVU478
 1544 002e 206A     		ldr	r0, [r4, #32]
 1545              	.LVL146:
 307:Drivers/lvgl/src/hal/lv_hal_disp.c ****         lv_obj_del(disp->sys_layer);
 1546              		.loc 1 307 7 view .LVU479
 1547 0030 18B1     		cbz	r0, .L83
 308:Drivers/lvgl/src/hal/lv_hal_disp.c ****         disp->sys_layer = NULL;
 1548              		.loc 1 308 9 is_stmt 1 view .LVU480
 1549 0032 FFF7FEFF 		bl	lv_obj_del
 1550              	.LVL147:
 309:Drivers/lvgl/src/hal/lv_hal_disp.c ****     }
 1551              		.loc 1 309 9 view .LVU481
 309:Drivers/lvgl/src/hal/lv_hal_disp.c ****     }
 1552              		.loc 1 309 25 is_stmt 0 view .LVU482
 1553 0036 0023     		movs	r3, #0
 1554 0038 2362     		str	r3, [r4, #32]
 1555              	.L83:
 311:Drivers/lvgl/src/hal/lv_hal_disp.c ****         lv_obj_del(disp->top_layer);
 1556              		.loc 1 311 5 is_stmt 1 view .LVU483
 311:Drivers/lvgl/src/hal/lv_hal_disp.c ****         lv_obj_del(disp->top_layer);
 1557              		.loc 1 311 12 is_stmt 0 view .LVU484
 1558 003a E069     		ldr	r0, [r4, #28]
 311:Drivers/lvgl/src/hal/lv_hal_disp.c ****         lv_obj_del(disp->top_layer);
 1559              		.loc 1 311 7 view .LVU485
 1560 003c 40B1     		cbz	r0, .L85
 312:Drivers/lvgl/src/hal/lv_hal_disp.c ****         disp->top_layer = NULL;
 1561              		.loc 1 312 9 is_stmt 1 view .LVU486
ARM GAS  /var/folders/lp/x54gwt890xv47sdkqj1k04q40000gn/T//ccGwZIp8.s 			page 61


 1562 003e FFF7FEFF 		bl	lv_obj_del
 1563              	.LVL148:
 313:Drivers/lvgl/src/hal/lv_hal_disp.c ****     }
 1564              		.loc 1 313 9 view .LVU487
 313:Drivers/lvgl/src/hal/lv_hal_disp.c ****     }
 1565              		.loc 1 313 25 is_stmt 0 view .LVU488
 1566 0042 0023     		movs	r3, #0
 1567 0044 E361     		str	r3, [r4, #28]
 1568 0046 03E0     		b	.L85
 1569              	.L86:
 317:Drivers/lvgl/src/hal/lv_hal_disp.c ****     }
 1570              		.loc 1 317 9 is_stmt 1 view .LVU489
 317:Drivers/lvgl/src/hal/lv_hal_disp.c ****     }
 1571              		.loc 1 317 24 is_stmt 0 view .LVU490
 1572 0048 E368     		ldr	r3, [r4, #12]
 317:Drivers/lvgl/src/hal/lv_hal_disp.c ****     }
 1573              		.loc 1 317 9 view .LVU491
 1574 004a 1868     		ldr	r0, [r3]
 1575 004c FFF7FEFF 		bl	lv_obj_del
 1576              	.LVL149:
 1577              	.L85:
 315:Drivers/lvgl/src/hal/lv_hal_disp.c ****         /*Delete the screenst*/
 1578              		.loc 1 315 28 is_stmt 1 view .LVU492
 315:Drivers/lvgl/src/hal/lv_hal_disp.c ****         /*Delete the screenst*/
 1579              		.loc 1 315 15 is_stmt 0 view .LVU493
 1580 0050 636A     		ldr	r3, [r4, #36]
 315:Drivers/lvgl/src/hal/lv_hal_disp.c ****         /*Delete the screenst*/
 1581              		.loc 1 315 28 view .LVU494
 1582 0052 002B     		cmp	r3, #0
 1583 0054 F8D1     		bne	.L86
 320:Drivers/lvgl/src/hal/lv_hal_disp.c ****     _lv_ll_clear(&disp->sync_areas);
 1584              		.loc 1 320 5 is_stmt 1 view .LVU495
 1585 0056 2146     		mov	r1, r4
 1586 0058 0A48     		ldr	r0, .L93
 1587 005a FFF7FEFF 		bl	_lv_ll_remove
 1588              	.LVL150:
 321:Drivers/lvgl/src/hal/lv_hal_disp.c ****     if(disp->refr_timer) lv_timer_del(disp->refr_timer);
 1589              		.loc 1 321 5 view .LVU496
 1590 005e 04F5AC70 		add	r0, r4, #344
 1591 0062 FFF7FEFF 		bl	_lv_ll_clear
 1592              	.LVL151:
 322:Drivers/lvgl/src/hal/lv_hal_disp.c ****     lv_mem_free(disp);
 1593              		.loc 1 322 5 view .LVU497
 322:Drivers/lvgl/src/hal/lv_hal_disp.c ****     lv_mem_free(disp);
 1594              		.loc 1 322 12 is_stmt 0 view .LVU498
 1595 0066 6068     		ldr	r0, [r4, #4]
 322:Drivers/lvgl/src/hal/lv_hal_disp.c ****     lv_mem_free(disp);
 1596              		.loc 1 322 7 view .LVU499
 1597 0068 08B1     		cbz	r0, .L87
 322:Drivers/lvgl/src/hal/lv_hal_disp.c ****     lv_mem_free(disp);
 1598              		.loc 1 322 26 is_stmt 1 discriminator 1 view .LVU500
 1599 006a FFF7FEFF 		bl	lv_timer_del
 1600              	.LVL152:
 1601              	.L87:
 323:Drivers/lvgl/src/hal/lv_hal_disp.c **** 
 1602              		.loc 1 323 5 view .LVU501
 1603 006e 2046     		mov	r0, r4
ARM GAS  /var/folders/lp/x54gwt890xv47sdkqj1k04q40000gn/T//ccGwZIp8.s 			page 62


 1604 0070 FFF7FEFF 		bl	lv_mem_free
 1605              	.LVL153:
 325:Drivers/lvgl/src/hal/lv_hal_disp.c **** }
 1606              		.loc 1 325 5 view .LVU502
 325:Drivers/lvgl/src/hal/lv_hal_disp.c **** }
 1607              		.loc 1 325 7 is_stmt 0 view .LVU503
 1608 0074 05B9     		cbnz	r5, .L92
 1609              	.L78:
 326:Drivers/lvgl/src/hal/lv_hal_disp.c **** 
 1610              		.loc 1 326 1 view .LVU504
 1611 0076 38BD     		pop	{r3, r4, r5, pc}
 1612              	.LVL154:
 1613              	.L92:
 325:Drivers/lvgl/src/hal/lv_hal_disp.c **** }
 1614              		.loc 1 325 21 is_stmt 1 discriminator 1 view .LVU505
 325:Drivers/lvgl/src/hal/lv_hal_disp.c **** }
 1615              		.loc 1 325 41 is_stmt 0 discriminator 1 view .LVU506
 1616 0078 0248     		ldr	r0, .L93
 1617 007a FFF7FEFF 		bl	_lv_ll_get_head
 1618              	.LVL155:
 325:Drivers/lvgl/src/hal/lv_hal_disp.c **** }
 1619              		.loc 1 325 21 discriminator 1 view .LVU507
 1620 007e FFF7FEFF 		bl	lv_disp_set_default
 1621              	.LVL156:
 326:Drivers/lvgl/src/hal/lv_hal_disp.c **** 
 1622              		.loc 1 326 1 view .LVU508
 1623 0082 F8E7     		b	.L78
 1624              	.L94:
 1625              		.align	2
 1626              	.L93:
 1627 0084 00000000 		.word	_lv_disp_ll
 1628              		.cfi_endproc
 1629              	.LFE165:
 1631              		.section	.text.lv_disp_get_hor_res,"ax",%progbits
 1632              		.align	1
 1633              		.global	lv_disp_get_hor_res
 1634              		.syntax unified
 1635              		.thumb
 1636              		.thumb_func
 1638              	lv_disp_get_hor_res:
 1639              	.LVL157:
 1640              	.LFB168:
 352:Drivers/lvgl/src/hal/lv_hal_disp.c ****     if(disp == NULL) disp = lv_disp_get_default();
 1641              		.loc 1 352 1 is_stmt 1 view -0
 1642              		.cfi_startproc
 1643              		@ args = 0, pretend = 0, frame = 0
 1644              		@ frame_needed = 0, uses_anonymous_args = 0
 352:Drivers/lvgl/src/hal/lv_hal_disp.c ****     if(disp == NULL) disp = lv_disp_get_default();
 1645              		.loc 1 352 1 is_stmt 0 view .LVU510
 1646 0000 08B5     		push	{r3, lr}
 1647              		.cfi_def_cfa_offset 8
 1648              		.cfi_offset 3, -8
 1649              		.cfi_offset 14, -4
 353:Drivers/lvgl/src/hal/lv_hal_disp.c **** 
 1650              		.loc 1 353 5 is_stmt 1 view .LVU511
 353:Drivers/lvgl/src/hal/lv_hal_disp.c **** 
 1651              		.loc 1 353 7 is_stmt 0 view .LVU512
ARM GAS  /var/folders/lp/x54gwt890xv47sdkqj1k04q40000gn/T//ccGwZIp8.s 			page 63


 1652 0002 0346     		mov	r3, r0
 1653 0004 50B1     		cbz	r0, .L102
 1654              	.L96:
 1655              	.LVL158:
 359:Drivers/lvgl/src/hal/lv_hal_disp.c ****             case LV_DISP_ROT_90:
 1656              		.loc 1 359 9 is_stmt 1 view .LVU513
 359:Drivers/lvgl/src/hal/lv_hal_disp.c ****             case LV_DISP_ROT_90:
 1657              		.loc 1 359 20 is_stmt 0 view .LVU514
 1658 0006 1A68     		ldr	r2, [r3]
 359:Drivers/lvgl/src/hal/lv_hal_disp.c ****             case LV_DISP_ROT_90:
 1659              		.loc 1 359 28 view .LVU515
 1660 0008 137C     		ldrb	r3, [r2, #16]	@ zero_extendqisi2
 1661 000a C3F30113 		ubfx	r3, r3, #4, #2
 359:Drivers/lvgl/src/hal/lv_hal_disp.c ****             case LV_DISP_ROT_90:
 1662              		.loc 1 359 9 view .LVU516
 1663 000e 012B     		cmp	r3, #1
 1664 0010 0BD0     		beq	.L98
 1665 0012 032B     		cmp	r3, #3
 1666 0014 09D0     		beq	.L98
 364:Drivers/lvgl/src/hal/lv_hal_disp.c ****         }
 1667              		.loc 1 364 17 is_stmt 1 view .LVU517
 364:Drivers/lvgl/src/hal/lv_hal_disp.c ****         }
 1668              		.loc 1 364 36 is_stmt 0 view .LVU518
 1669 0016 B2F90000 		ldrsh	r0, [r2]
 1670 001a 08E0     		b	.L97
 1671              	.LVL159:
 1672              	.L102:
 353:Drivers/lvgl/src/hal/lv_hal_disp.c **** 
 1673              		.loc 1 353 22 is_stmt 1 discriminator 1 view .LVU519
 353:Drivers/lvgl/src/hal/lv_hal_disp.c **** 
 1674              		.loc 1 353 29 is_stmt 0 discriminator 1 view .LVU520
 1675 001c FFF7FEFF 		bl	lv_disp_get_default
 1676              	.LVL160:
 355:Drivers/lvgl/src/hal/lv_hal_disp.c ****         return 0;
 1677              		.loc 1 355 5 is_stmt 1 view .LVU521
 355:Drivers/lvgl/src/hal/lv_hal_disp.c ****         return 0;
 1678              		.loc 1 355 7 is_stmt 0 view .LVU522
 1679 0020 0346     		mov	r3, r0
 1680 0022 0028     		cmp	r0, #0
 1681 0024 EFD1     		bne	.L96
 356:Drivers/lvgl/src/hal/lv_hal_disp.c ****     }
 1682              		.loc 1 356 16 view .LVU523
 1683 0026 0020     		movs	r0, #0
 1684              	.LVL161:
 356:Drivers/lvgl/src/hal/lv_hal_disp.c ****     }
 1685              		.loc 1 356 16 view .LVU524
 1686 0028 01E0     		b	.L97
 1687              	.LVL162:
 1688              	.L98:
 362:Drivers/lvgl/src/hal/lv_hal_disp.c ****             default:
 1689              		.loc 1 362 17 is_stmt 1 view .LVU525
 362:Drivers/lvgl/src/hal/lv_hal_disp.c ****             default:
 1690              		.loc 1 362 36 is_stmt 0 view .LVU526
 1691 002a B2F90200 		ldrsh	r0, [r2, #2]
 1692              	.L97:
 367:Drivers/lvgl/src/hal/lv_hal_disp.c **** 
 1693              		.loc 1 367 1 view .LVU527
ARM GAS  /var/folders/lp/x54gwt890xv47sdkqj1k04q40000gn/T//ccGwZIp8.s 			page 64


 1694 002e 08BD     		pop	{r3, pc}
 1695              		.cfi_endproc
 1696              	.LFE168:
 1698              		.section	.text.lv_disp_get_ver_res,"ax",%progbits
 1699              		.align	1
 1700              		.global	lv_disp_get_ver_res
 1701              		.syntax unified
 1702              		.thumb
 1703              		.thumb_func
 1705              	lv_disp_get_ver_res:
 1706              	.LVL163:
 1707              	.LFB169:
 375:Drivers/lvgl/src/hal/lv_hal_disp.c ****     if(disp == NULL) disp = lv_disp_get_default();
 1708              		.loc 1 375 1 is_stmt 1 view -0
 1709              		.cfi_startproc
 1710              		@ args = 0, pretend = 0, frame = 0
 1711              		@ frame_needed = 0, uses_anonymous_args = 0
 375:Drivers/lvgl/src/hal/lv_hal_disp.c ****     if(disp == NULL) disp = lv_disp_get_default();
 1712              		.loc 1 375 1 is_stmt 0 view .LVU529
 1713 0000 08B5     		push	{r3, lr}
 1714              		.cfi_def_cfa_offset 8
 1715              		.cfi_offset 3, -8
 1716              		.cfi_offset 14, -4
 376:Drivers/lvgl/src/hal/lv_hal_disp.c **** 
 1717              		.loc 1 376 5 is_stmt 1 view .LVU530
 376:Drivers/lvgl/src/hal/lv_hal_disp.c **** 
 1718              		.loc 1 376 7 is_stmt 0 view .LVU531
 1719 0002 0346     		mov	r3, r0
 1720 0004 50B1     		cbz	r0, .L110
 1721              	.L104:
 1722              	.LVL164:
 382:Drivers/lvgl/src/hal/lv_hal_disp.c ****             case LV_DISP_ROT_90:
 1723              		.loc 1 382 9 is_stmt 1 view .LVU532
 382:Drivers/lvgl/src/hal/lv_hal_disp.c ****             case LV_DISP_ROT_90:
 1724              		.loc 1 382 20 is_stmt 0 view .LVU533
 1725 0006 1A68     		ldr	r2, [r3]
 382:Drivers/lvgl/src/hal/lv_hal_disp.c ****             case LV_DISP_ROT_90:
 1726              		.loc 1 382 28 view .LVU534
 1727 0008 137C     		ldrb	r3, [r2, #16]	@ zero_extendqisi2
 1728 000a C3F30113 		ubfx	r3, r3, #4, #2
 382:Drivers/lvgl/src/hal/lv_hal_disp.c ****             case LV_DISP_ROT_90:
 1729              		.loc 1 382 9 view .LVU535
 1730 000e 012B     		cmp	r3, #1
 1731 0010 0BD0     		beq	.L106
 1732 0012 032B     		cmp	r3, #3
 1733 0014 09D0     		beq	.L106
 387:Drivers/lvgl/src/hal/lv_hal_disp.c ****         }
 1734              		.loc 1 387 17 is_stmt 1 view .LVU536
 387:Drivers/lvgl/src/hal/lv_hal_disp.c ****         }
 1735              		.loc 1 387 36 is_stmt 0 view .LVU537
 1736 0016 B2F90200 		ldrsh	r0, [r2, #2]
 1737 001a 08E0     		b	.L105
 1738              	.LVL165:
 1739              	.L110:
 376:Drivers/lvgl/src/hal/lv_hal_disp.c **** 
 1740              		.loc 1 376 22 is_stmt 1 discriminator 1 view .LVU538
 376:Drivers/lvgl/src/hal/lv_hal_disp.c **** 
ARM GAS  /var/folders/lp/x54gwt890xv47sdkqj1k04q40000gn/T//ccGwZIp8.s 			page 65


 1741              		.loc 1 376 29 is_stmt 0 discriminator 1 view .LVU539
 1742 001c FFF7FEFF 		bl	lv_disp_get_default
 1743              	.LVL166:
 378:Drivers/lvgl/src/hal/lv_hal_disp.c ****         return 0;
 1744              		.loc 1 378 5 is_stmt 1 view .LVU540
 378:Drivers/lvgl/src/hal/lv_hal_disp.c ****         return 0;
 1745              		.loc 1 378 7 is_stmt 0 view .LVU541
 1746 0020 0346     		mov	r3, r0
 1747 0022 0028     		cmp	r0, #0
 1748 0024 EFD1     		bne	.L104
 379:Drivers/lvgl/src/hal/lv_hal_disp.c ****     }
 1749              		.loc 1 379 16 view .LVU542
 1750 0026 0020     		movs	r0, #0
 1751              	.LVL167:
 379:Drivers/lvgl/src/hal/lv_hal_disp.c ****     }
 1752              		.loc 1 379 16 view .LVU543
 1753 0028 01E0     		b	.L105
 1754              	.LVL168:
 1755              	.L106:
 385:Drivers/lvgl/src/hal/lv_hal_disp.c ****             default:
 1756              		.loc 1 385 17 is_stmt 1 view .LVU544
 385:Drivers/lvgl/src/hal/lv_hal_disp.c ****             default:
 1757              		.loc 1 385 36 is_stmt 0 view .LVU545
 1758 002a B2F90000 		ldrsh	r0, [r2]
 1759              	.L105:
 390:Drivers/lvgl/src/hal/lv_hal_disp.c **** 
 1760              		.loc 1 390 1 view .LVU546
 1761 002e 08BD     		pop	{r3, pc}
 1762              		.cfi_endproc
 1763              	.LFE169:
 1765              		.section	.text.lv_disp_drv_update,"ax",%progbits
 1766              		.align	1
 1767              		.global	lv_disp_drv_update
 1768              		.syntax unified
 1769              		.thumb
 1770              		.thumb_func
 1772              	lv_disp_drv_update:
 1773              	.LVL169:
 1774              	.LFB164:
 251:Drivers/lvgl/src/hal/lv_hal_disp.c ****     disp->driver = new_drv;
 1775              		.loc 1 251 1 is_stmt 1 view -0
 1776              		.cfi_startproc
 1777              		@ args = 0, pretend = 0, frame = 8
 1778              		@ frame_needed = 0, uses_anonymous_args = 0
 251:Drivers/lvgl/src/hal/lv_hal_disp.c ****     disp->driver = new_drv;
 1779              		.loc 1 251 1 is_stmt 0 view .LVU548
 1780 0000 F0B5     		push	{r4, r5, r6, r7, lr}
 1781              		.cfi_def_cfa_offset 20
 1782              		.cfi_offset 4, -20
 1783              		.cfi_offset 5, -16
 1784              		.cfi_offset 6, -12
 1785              		.cfi_offset 7, -8
 1786              		.cfi_offset 14, -4
 1787 0002 83B0     		sub	sp, sp, #12
 1788              		.cfi_def_cfa_offset 32
 1789 0004 0546     		mov	r5, r0
 252:Drivers/lvgl/src/hal/lv_hal_disp.c **** 
ARM GAS  /var/folders/lp/x54gwt890xv47sdkqj1k04q40000gn/T//ccGwZIp8.s 			page 66


 1790              		.loc 1 252 5 is_stmt 1 view .LVU549
 252:Drivers/lvgl/src/hal/lv_hal_disp.c **** 
 1791              		.loc 1 252 18 is_stmt 0 view .LVU550
 1792 0006 0160     		str	r1, [r0]
 254:Drivers/lvgl/src/hal/lv_hal_disp.c ****        disp->driver->draw_buf->size < (uint32_t)disp->driver->hor_res * disp->driver->ver_res) {
 1793              		.loc 1 254 5 is_stmt 1 view .LVU551
 254:Drivers/lvgl/src/hal/lv_hal_disp.c ****        disp->driver->draw_buf->size < (uint32_t)disp->driver->hor_res * disp->driver->ver_res) {
 1794              		.loc 1 254 8 is_stmt 0 view .LVU552
 1795 0008 0B7C     		ldrb	r3, [r1, #16]	@ zero_extendqisi2
 254:Drivers/lvgl/src/hal/lv_hal_disp.c ****        disp->driver->draw_buf->size < (uint32_t)disp->driver->hor_res * disp->driver->ver_res) {
 1796              		.loc 1 254 7 view .LVU553
 1797 000a 13F0020F 		tst	r3, #2
 1798 000e 0DD0     		beq	.L112
 255:Drivers/lvgl/src/hal/lv_hal_disp.c ****         disp->driver->full_refresh = 0;
 1799              		.loc 1 255 20 view .LVU554
 1800 0010 CB68     		ldr	r3, [r1, #12]
 255:Drivers/lvgl/src/hal/lv_hal_disp.c ****         disp->driver->full_refresh = 0;
 1801              		.loc 1 255 30 view .LVU555
 1802 0012 DA68     		ldr	r2, [r3, #12]
 255:Drivers/lvgl/src/hal/lv_hal_disp.c ****         disp->driver->full_refresh = 0;
 1803              		.loc 1 255 61 view .LVU556
 1804 0014 B1F90030 		ldrsh	r3, [r1]
 255:Drivers/lvgl/src/hal/lv_hal_disp.c ****         disp->driver->full_refresh = 0;
 1805              		.loc 1 255 85 view .LVU557
 1806 0018 B1F90200 		ldrsh	r0, [r1, #2]
 1807              	.LVL170:
 255:Drivers/lvgl/src/hal/lv_hal_disp.c ****         disp->driver->full_refresh = 0;
 1808              		.loc 1 255 71 view .LVU558
 1809 001c 00FB03F3 		mul	r3, r0, r3
 254:Drivers/lvgl/src/hal/lv_hal_disp.c ****        disp->driver->draw_buf->size < (uint32_t)disp->driver->hor_res * disp->driver->ver_res) {
 1810              		.loc 1 254 35 discriminator 1 view .LVU559
 1811 0020 9A42     		cmp	r2, r3
 1812 0022 03D2     		bcs	.L112
 256:Drivers/lvgl/src/hal/lv_hal_disp.c ****         LV_LOG_WARN("full_refresh requires at least screen sized draw buffer(s)");
 1813              		.loc 1 256 9 is_stmt 1 view .LVU560
 256:Drivers/lvgl/src/hal/lv_hal_disp.c ****         LV_LOG_WARN("full_refresh requires at least screen sized draw buffer(s)");
 1814              		.loc 1 256 36 is_stmt 0 view .LVU561
 1815 0024 0B7C     		ldrb	r3, [r1, #16]	@ zero_extendqisi2
 1816 0026 23F00203 		bic	r3, r3, #2
 1817 002a 0B74     		strb	r3, [r1, #16]
 1818              	.L112:
 257:Drivers/lvgl/src/hal/lv_hal_disp.c ****     }
 1819              		.loc 1 257 9 is_stmt 1 view .LVU562
 257:Drivers/lvgl/src/hal/lv_hal_disp.c ****     }
 1820              		.loc 1 257 9 view .LVU563
 257:Drivers/lvgl/src/hal/lv_hal_disp.c ****     }
 1821              		.loc 1 257 9 view .LVU564
 260:Drivers/lvgl/src/hal/lv_hal_disp.c ****     lv_coord_t h = lv_disp_get_ver_res(disp);
 1822              		.loc 1 260 5 view .LVU565
 260:Drivers/lvgl/src/hal/lv_hal_disp.c ****     lv_coord_t h = lv_disp_get_ver_res(disp);
 1823              		.loc 1 260 20 is_stmt 0 view .LVU566
 1824 002c 2846     		mov	r0, r5
 1825 002e FFF7FEFF 		bl	lv_disp_get_hor_res
 1826              	.LVL171:
 260:Drivers/lvgl/src/hal/lv_hal_disp.c ****     lv_coord_t h = lv_disp_get_ver_res(disp);
 1827              		.loc 1 260 20 view .LVU567
 1828 0032 0746     		mov	r7, r0
ARM GAS  /var/folders/lp/x54gwt890xv47sdkqj1k04q40000gn/T//ccGwZIp8.s 			page 67


 1829              	.LVL172:
 261:Drivers/lvgl/src/hal/lv_hal_disp.c ****     uint32_t i;
 1830              		.loc 1 261 5 is_stmt 1 view .LVU568
 261:Drivers/lvgl/src/hal/lv_hal_disp.c ****     uint32_t i;
 1831              		.loc 1 261 20 is_stmt 0 view .LVU569
 1832 0034 2846     		mov	r0, r5
 1833 0036 FFF7FEFF 		bl	lv_disp_get_ver_res
 1834              	.LVL173:
 1835 003a 0646     		mov	r6, r0
 1836              	.LVL174:
 262:Drivers/lvgl/src/hal/lv_hal_disp.c ****     for(i = 0; i < disp->screen_cnt; i++) {
 1837              		.loc 1 262 5 is_stmt 1 view .LVU570
 263:Drivers/lvgl/src/hal/lv_hal_disp.c ****         lv_area_t prev_coords;
 1838              		.loc 1 263 5 view .LVU571
 263:Drivers/lvgl/src/hal/lv_hal_disp.c ****         lv_area_t prev_coords;
 1839              		.loc 1 263 11 is_stmt 0 view .LVU572
 1840 003c 0024     		movs	r4, #0
 263:Drivers/lvgl/src/hal/lv_hal_disp.c ****         lv_area_t prev_coords;
 1841              		.loc 1 263 5 view .LVU573
 1842 003e 1BE0     		b	.L113
 1843              	.LVL175:
 1844              	.L114:
 1845              	.LBB34:
 264:Drivers/lvgl/src/hal/lv_hal_disp.c ****         lv_obj_get_coords(disp->screens[i], &prev_coords);
 1846              		.loc 1 264 9 is_stmt 1 view .LVU574
 265:Drivers/lvgl/src/hal/lv_hal_disp.c ****         lv_area_set_width(&disp->screens[i]->coords, w);
 1847              		.loc 1 265 9 view .LVU575
 265:Drivers/lvgl/src/hal/lv_hal_disp.c ****         lv_area_set_width(&disp->screens[i]->coords, w);
 1848              		.loc 1 265 31 is_stmt 0 view .LVU576
 1849 0040 EB68     		ldr	r3, [r5, #12]
 265:Drivers/lvgl/src/hal/lv_hal_disp.c ****         lv_area_set_width(&disp->screens[i]->coords, w);
 1850              		.loc 1 265 9 view .LVU577
 1851 0042 6946     		mov	r1, sp
 1852 0044 53F82400 		ldr	r0, [r3, r4, lsl #2]
 1853 0048 FFF7FEFF 		bl	lv_obj_get_coords
 1854              	.LVL176:
 266:Drivers/lvgl/src/hal/lv_hal_disp.c ****         lv_area_set_height(&disp->screens[i]->coords, h);
 1855              		.loc 1 266 9 is_stmt 1 view .LVU578
 266:Drivers/lvgl/src/hal/lv_hal_disp.c ****         lv_area_set_height(&disp->screens[i]->coords, h);
 1856              		.loc 1 266 32 is_stmt 0 view .LVU579
 1857 004c EB68     		ldr	r3, [r5, #12]
 266:Drivers/lvgl/src/hal/lv_hal_disp.c ****         lv_area_set_height(&disp->screens[i]->coords, h);
 1858              		.loc 1 266 41 view .LVU580
 1859 004e 53F82400 		ldr	r0, [r3, r4, lsl #2]
 266:Drivers/lvgl/src/hal/lv_hal_disp.c ****         lv_area_set_height(&disp->screens[i]->coords, h);
 1860              		.loc 1 266 9 view .LVU581
 1861 0052 3946     		mov	r1, r7
 1862 0054 1430     		adds	r0, r0, #20
 1863 0056 FFF7FEFF 		bl	lv_area_set_width
 1864              	.LVL177:
 267:Drivers/lvgl/src/hal/lv_hal_disp.c ****         lv_event_send(disp->screens[i], LV_EVENT_SIZE_CHANGED, &prev_coords);
 1865              		.loc 1 267 9 is_stmt 1 view .LVU582
 267:Drivers/lvgl/src/hal/lv_hal_disp.c ****         lv_event_send(disp->screens[i], LV_EVENT_SIZE_CHANGED, &prev_coords);
 1866              		.loc 1 267 33 is_stmt 0 view .LVU583
 1867 005a EB68     		ldr	r3, [r5, #12]
 267:Drivers/lvgl/src/hal/lv_hal_disp.c ****         lv_event_send(disp->screens[i], LV_EVENT_SIZE_CHANGED, &prev_coords);
 1868              		.loc 1 267 42 view .LVU584
ARM GAS  /var/folders/lp/x54gwt890xv47sdkqj1k04q40000gn/T//ccGwZIp8.s 			page 68


 1869 005c 53F82400 		ldr	r0, [r3, r4, lsl #2]
 267:Drivers/lvgl/src/hal/lv_hal_disp.c ****         lv_event_send(disp->screens[i], LV_EVENT_SIZE_CHANGED, &prev_coords);
 1870              		.loc 1 267 9 view .LVU585
 1871 0060 3146     		mov	r1, r6
 1872 0062 1430     		adds	r0, r0, #20
 1873 0064 FFF7FEFF 		bl	lv_area_set_height
 1874              	.LVL178:
 268:Drivers/lvgl/src/hal/lv_hal_disp.c ****     }
 1875              		.loc 1 268 9 is_stmt 1 view .LVU586
 268:Drivers/lvgl/src/hal/lv_hal_disp.c ****     }
 1876              		.loc 1 268 27 is_stmt 0 view .LVU587
 1877 0068 EB68     		ldr	r3, [r5, #12]
 268:Drivers/lvgl/src/hal/lv_hal_disp.c ****     }
 1878              		.loc 1 268 9 view .LVU588
 1879 006a 6A46     		mov	r2, sp
 1880 006c 2921     		movs	r1, #41
 1881 006e 53F82400 		ldr	r0, [r3, r4, lsl #2]
 1882 0072 FFF7FEFF 		bl	lv_event_send
 1883              	.LVL179:
 1884              	.LBE34:
 263:Drivers/lvgl/src/hal/lv_hal_disp.c ****         lv_area_t prev_coords;
 1885              		.loc 1 263 39 is_stmt 1 discriminator 3 view .LVU589
 1886 0076 0134     		adds	r4, r4, #1
 1887              	.LVL180:
 1888              	.L113:
 263:Drivers/lvgl/src/hal/lv_hal_disp.c ****         lv_area_t prev_coords;
 1889              		.loc 1 263 18 discriminator 1 view .LVU590
 263:Drivers/lvgl/src/hal/lv_hal_disp.c ****         lv_area_t prev_coords;
 1890              		.loc 1 263 24 is_stmt 0 discriminator 1 view .LVU591
 1891 0078 6B6A     		ldr	r3, [r5, #36]
 263:Drivers/lvgl/src/hal/lv_hal_disp.c ****         lv_area_t prev_coords;
 1892              		.loc 1 263 18 discriminator 1 view .LVU592
 1893 007a A342     		cmp	r3, r4
 1894 007c E0D8     		bhi	.L114
 277:Drivers/lvgl/src/hal/lv_hal_disp.c ****     lv_memset_00(disp->inv_area_joined, sizeof(disp->inv_area_joined));
 1895              		.loc 1 277 5 is_stmt 1 view .LVU593
 1896 007e 4FF48071 		mov	r1, #256
 1897 0082 05F13000 		add	r0, r5, #48
 1898 0086 FFF7FEFF 		bl	lv_memset_00
 1899              	.LVL181:
 278:Drivers/lvgl/src/hal/lv_hal_disp.c ****     disp->inv_p = 0;
 1900              		.loc 1 278 5 view .LVU594
 1901 008a 2021     		movs	r1, #32
 1902 008c 05F59870 		add	r0, r5, #304
 1903 0090 FFF7FEFF 		bl	lv_memset_00
 1904              	.LVL182:
 279:Drivers/lvgl/src/hal/lv_hal_disp.c ****     if(disp->act_scr != NULL) lv_obj_invalidate(disp->act_scr);
 1905              		.loc 1 279 5 view .LVU595
 279:Drivers/lvgl/src/hal/lv_hal_disp.c ****     if(disp->act_scr != NULL) lv_obj_invalidate(disp->act_scr);
 1906              		.loc 1 279 17 is_stmt 0 view .LVU596
 1907 0094 0023     		movs	r3, #0
 1908 0096 A5F85031 		strh	r3, [r5, #336]	@ movhi
 280:Drivers/lvgl/src/hal/lv_hal_disp.c **** 
 1909              		.loc 1 280 5 is_stmt 1 view .LVU597
 280:Drivers/lvgl/src/hal/lv_hal_disp.c **** 
 1910              		.loc 1 280 12 is_stmt 0 view .LVU598
 1911 009a 2869     		ldr	r0, [r5, #16]
ARM GAS  /var/folders/lp/x54gwt890xv47sdkqj1k04q40000gn/T//ccGwZIp8.s 			page 69


 280:Drivers/lvgl/src/hal/lv_hal_disp.c **** 
 1912              		.loc 1 280 7 view .LVU599
 1913 009c 08B1     		cbz	r0, .L115
 280:Drivers/lvgl/src/hal/lv_hal_disp.c **** 
 1914              		.loc 1 280 31 is_stmt 1 discriminator 1 view .LVU600
 1915 009e FFF7FEFF 		bl	lv_obj_invalidate
 1916              	.LVL183:
 1917              	.L115:
 282:Drivers/lvgl/src/hal/lv_hal_disp.c **** 
 1918              		.loc 1 282 5 view .LVU601
 1919 00a2 0022     		movs	r2, #0
 1920 00a4 0449     		ldr	r1, .L118
 1921 00a6 1046     		mov	r0, r2
