ARM GAS  /var/folders/lp/x54gwt890xv47sdkqj1k04q40000gn/T//ccZWiB8D.s 			page 1


   1              		.cpu cortex-m4
   2              		.arch armv7e-m
   3              		.fpu fpv4-sp-d16
   4              		.eabi_attribute 27, 1
   5              		.eabi_attribute 28, 1
   6              		.eabi_attribute 20, 1
   7              		.eabi_attribute 21, 1
   8              		.eabi_attribute 23, 3
   9              		.eabi_attribute 24, 1
  10              		.eabi_attribute 25, 1
  11              		.eabi_attribute 26, 1
  12              		.eabi_attribute 30, 1
  13              		.eabi_attribute 34, 1
  14              		.eabi_attribute 18, 4
  15              		.file	"lv_img_buf.c"
  16              		.text
  17              	.Ltext0:
  18              		.cfi_sections	.debug_frame
  19              		.file 1 "Drivers/lvgl/src/draw/lv_img_buf.c"
  20              		.section	.text.lv_color_to32,"ax",%progbits
  21              		.align	1
  22              		.syntax unified
  23              		.thumb
  24              		.thumb_func
  26              	lv_color_to32:
  27              	.LVL0:
  28              	.LFB5:
  29              		.file 2 "Drivers/lvgl/src/draw/../misc/lv_color.h"
   1:Drivers/lvgl/src/draw/../misc/lv_color.h **** /**
   2:Drivers/lvgl/src/draw/../misc/lv_color.h ****  * @file lv_color.h
   3:Drivers/lvgl/src/draw/../misc/lv_color.h ****  *
   4:Drivers/lvgl/src/draw/../misc/lv_color.h ****  */
   5:Drivers/lvgl/src/draw/../misc/lv_color.h **** 
   6:Drivers/lvgl/src/draw/../misc/lv_color.h **** #ifndef LV_COLOR_H
   7:Drivers/lvgl/src/draw/../misc/lv_color.h **** #define LV_COLOR_H
   8:Drivers/lvgl/src/draw/../misc/lv_color.h **** 
   9:Drivers/lvgl/src/draw/../misc/lv_color.h **** #ifdef __cplusplus
  10:Drivers/lvgl/src/draw/../misc/lv_color.h **** extern "C" {
  11:Drivers/lvgl/src/draw/../misc/lv_color.h **** #endif
  12:Drivers/lvgl/src/draw/../misc/lv_color.h **** 
  13:Drivers/lvgl/src/draw/../misc/lv_color.h **** /*********************
  14:Drivers/lvgl/src/draw/../misc/lv_color.h ****  *      INCLUDES
  15:Drivers/lvgl/src/draw/../misc/lv_color.h ****  *********************/
  16:Drivers/lvgl/src/draw/../misc/lv_color.h **** #include "../lv_conf_internal.h"
  17:Drivers/lvgl/src/draw/../misc/lv_color.h **** #include "lv_assert.h"
  18:Drivers/lvgl/src/draw/../misc/lv_color.h **** #include "lv_math.h"
  19:Drivers/lvgl/src/draw/../misc/lv_color.h **** #include "lv_types.h"
  20:Drivers/lvgl/src/draw/../misc/lv_color.h **** 
  21:Drivers/lvgl/src/draw/../misc/lv_color.h **** /*Error checking*/
  22:Drivers/lvgl/src/draw/../misc/lv_color.h **** #if LV_COLOR_DEPTH == 24
  23:Drivers/lvgl/src/draw/../misc/lv_color.h **** #error "LV_COLOR_DEPTH 24 is deprecated. Use LV_COLOR_DEPTH 32 instead (lv_conf.h)"
  24:Drivers/lvgl/src/draw/../misc/lv_color.h **** #endif
  25:Drivers/lvgl/src/draw/../misc/lv_color.h **** 
  26:Drivers/lvgl/src/draw/../misc/lv_color.h **** #if LV_COLOR_DEPTH != 16 && LV_COLOR_16_SWAP != 0
  27:Drivers/lvgl/src/draw/../misc/lv_color.h **** #error "LV_COLOR_16_SWAP requires LV_COLOR_DEPTH == 16. Set it in lv_conf.h"
  28:Drivers/lvgl/src/draw/../misc/lv_color.h **** #endif
  29:Drivers/lvgl/src/draw/../misc/lv_color.h **** 
ARM GAS  /var/folders/lp/x54gwt890xv47sdkqj1k04q40000gn/T//ccZWiB8D.s 			page 2


  30:Drivers/lvgl/src/draw/../misc/lv_color.h **** #include <stdint.h>
  31:Drivers/lvgl/src/draw/../misc/lv_color.h **** 
  32:Drivers/lvgl/src/draw/../misc/lv_color.h **** /*********************
  33:Drivers/lvgl/src/draw/../misc/lv_color.h ****  *      DEFINES
  34:Drivers/lvgl/src/draw/../misc/lv_color.h ****  *********************/
  35:Drivers/lvgl/src/draw/../misc/lv_color.h **** LV_EXPORT_CONST_INT(LV_COLOR_DEPTH);
  36:Drivers/lvgl/src/draw/../misc/lv_color.h **** LV_EXPORT_CONST_INT(LV_COLOR_16_SWAP);
  37:Drivers/lvgl/src/draw/../misc/lv_color.h **** 
  38:Drivers/lvgl/src/draw/../misc/lv_color.h **** /**
  39:Drivers/lvgl/src/draw/../misc/lv_color.h ****  * Opacity percentages.
  40:Drivers/lvgl/src/draw/../misc/lv_color.h ****  */
  41:Drivers/lvgl/src/draw/../misc/lv_color.h **** enum {
  42:Drivers/lvgl/src/draw/../misc/lv_color.h ****     LV_OPA_TRANSP = 0,
  43:Drivers/lvgl/src/draw/../misc/lv_color.h ****     LV_OPA_0      = 0,
  44:Drivers/lvgl/src/draw/../misc/lv_color.h ****     LV_OPA_10     = 25,
  45:Drivers/lvgl/src/draw/../misc/lv_color.h ****     LV_OPA_20     = 51,
  46:Drivers/lvgl/src/draw/../misc/lv_color.h ****     LV_OPA_30     = 76,
  47:Drivers/lvgl/src/draw/../misc/lv_color.h ****     LV_OPA_40     = 102,
  48:Drivers/lvgl/src/draw/../misc/lv_color.h ****     LV_OPA_50     = 127,
  49:Drivers/lvgl/src/draw/../misc/lv_color.h ****     LV_OPA_60     = 153,
  50:Drivers/lvgl/src/draw/../misc/lv_color.h ****     LV_OPA_70     = 178,
  51:Drivers/lvgl/src/draw/../misc/lv_color.h ****     LV_OPA_80     = 204,
  52:Drivers/lvgl/src/draw/../misc/lv_color.h ****     LV_OPA_90     = 229,
  53:Drivers/lvgl/src/draw/../misc/lv_color.h ****     LV_OPA_100    = 255,
  54:Drivers/lvgl/src/draw/../misc/lv_color.h ****     LV_OPA_COVER  = 255,
  55:Drivers/lvgl/src/draw/../misc/lv_color.h **** };
  56:Drivers/lvgl/src/draw/../misc/lv_color.h **** 
  57:Drivers/lvgl/src/draw/../misc/lv_color.h **** #define LV_OPA_MIN 2    /*Opacities below this will be transparent*/
  58:Drivers/lvgl/src/draw/../misc/lv_color.h **** #define LV_OPA_MAX 253  /*Opacities above this will fully cover*/
  59:Drivers/lvgl/src/draw/../misc/lv_color.h **** 
  60:Drivers/lvgl/src/draw/../misc/lv_color.h **** #if LV_COLOR_DEPTH == 1
  61:Drivers/lvgl/src/draw/../misc/lv_color.h **** #define LV_COLOR_SIZE 8
  62:Drivers/lvgl/src/draw/../misc/lv_color.h **** #elif LV_COLOR_DEPTH == 8
  63:Drivers/lvgl/src/draw/../misc/lv_color.h **** #define LV_COLOR_SIZE 8
  64:Drivers/lvgl/src/draw/../misc/lv_color.h **** #elif LV_COLOR_DEPTH == 16
  65:Drivers/lvgl/src/draw/../misc/lv_color.h **** #define LV_COLOR_SIZE 16
  66:Drivers/lvgl/src/draw/../misc/lv_color.h **** #elif LV_COLOR_DEPTH == 32
  67:Drivers/lvgl/src/draw/../misc/lv_color.h **** #define LV_COLOR_SIZE 32
  68:Drivers/lvgl/src/draw/../misc/lv_color.h **** #else
  69:Drivers/lvgl/src/draw/../misc/lv_color.h **** #error "Invalid LV_COLOR_DEPTH in lv_conf.h! Set it to 1, 8, 16 or 32!"
  70:Drivers/lvgl/src/draw/../misc/lv_color.h **** #endif
  71:Drivers/lvgl/src/draw/../misc/lv_color.h **** 
  72:Drivers/lvgl/src/draw/../misc/lv_color.h **** #if defined(__cplusplus) && !defined(_LV_COLOR_HAS_MODERN_CPP)
  73:Drivers/lvgl/src/draw/../misc/lv_color.h **** /**
  74:Drivers/lvgl/src/draw/../misc/lv_color.h **** * MSVC compiler's definition of the __cplusplus indicating 199711L regardless to C++ standard versi
  75:Drivers/lvgl/src/draw/../misc/lv_color.h **** * see https://devblogs.microsoft.com/cppblog/msvc-now-correctly-reports-cplusplus
  76:Drivers/lvgl/src/draw/../misc/lv_color.h **** * so we use _MSC_VER macro instead of __cplusplus
  77:Drivers/lvgl/src/draw/../misc/lv_color.h **** */
  78:Drivers/lvgl/src/draw/../misc/lv_color.h **** #ifdef _MSC_VER
  79:Drivers/lvgl/src/draw/../misc/lv_color.h **** #if _MSC_VER >= 1900 /*Visual Studio 2015*/
  80:Drivers/lvgl/src/draw/../misc/lv_color.h **** #define _LV_COLOR_HAS_MODERN_CPP 1
  81:Drivers/lvgl/src/draw/../misc/lv_color.h **** #endif
  82:Drivers/lvgl/src/draw/../misc/lv_color.h **** #else
  83:Drivers/lvgl/src/draw/../misc/lv_color.h **** #if __cplusplus >= 201103L
  84:Drivers/lvgl/src/draw/../misc/lv_color.h **** #define _LV_COLOR_HAS_MODERN_CPP 1
  85:Drivers/lvgl/src/draw/../misc/lv_color.h **** #endif
  86:Drivers/lvgl/src/draw/../misc/lv_color.h **** #endif
ARM GAS  /var/folders/lp/x54gwt890xv47sdkqj1k04q40000gn/T//ccZWiB8D.s 			page 3


  87:Drivers/lvgl/src/draw/../misc/lv_color.h **** #endif /*__cplusplus*/
  88:Drivers/lvgl/src/draw/../misc/lv_color.h **** 
  89:Drivers/lvgl/src/draw/../misc/lv_color.h **** #ifndef _LV_COLOR_HAS_MODERN_CPP
  90:Drivers/lvgl/src/draw/../misc/lv_color.h **** #define _LV_COLOR_HAS_MODERN_CPP 0
  91:Drivers/lvgl/src/draw/../misc/lv_color.h **** #endif
  92:Drivers/lvgl/src/draw/../misc/lv_color.h **** 
  93:Drivers/lvgl/src/draw/../misc/lv_color.h **** #if _LV_COLOR_HAS_MODERN_CPP
  94:Drivers/lvgl/src/draw/../misc/lv_color.h **** /*Fix msvc compiler error C4576 inside C++ code*/
  95:Drivers/lvgl/src/draw/../misc/lv_color.h **** #define _LV_COLOR_MAKE_TYPE_HELPER lv_color_t
  96:Drivers/lvgl/src/draw/../misc/lv_color.h **** #else
  97:Drivers/lvgl/src/draw/../misc/lv_color.h **** #define _LV_COLOR_MAKE_TYPE_HELPER (lv_color_t)
  98:Drivers/lvgl/src/draw/../misc/lv_color.h **** #endif
  99:Drivers/lvgl/src/draw/../misc/lv_color.h **** 
 100:Drivers/lvgl/src/draw/../misc/lv_color.h **** /*---------------------------------------
 101:Drivers/lvgl/src/draw/../misc/lv_color.h ****  * Macros for all existing color depths
 102:Drivers/lvgl/src/draw/../misc/lv_color.h ****  * to set/get values of the color channels
 103:Drivers/lvgl/src/draw/../misc/lv_color.h ****  *------------------------------------------*/
 104:Drivers/lvgl/src/draw/../misc/lv_color.h **** # define LV_COLOR_SET_R1(c, v) (c).ch.red = (uint8_t)((v) & 0x1)
 105:Drivers/lvgl/src/draw/../misc/lv_color.h **** # define LV_COLOR_SET_G1(c, v) (c).ch.green = (uint8_t)((v) & 0x1)
 106:Drivers/lvgl/src/draw/../misc/lv_color.h **** # define LV_COLOR_SET_B1(c, v) (c).ch.blue = (uint8_t)((v) & 0x1)
 107:Drivers/lvgl/src/draw/../misc/lv_color.h **** # define LV_COLOR_SET_A1(c, v) do {} while(0)
 108:Drivers/lvgl/src/draw/../misc/lv_color.h **** 
 109:Drivers/lvgl/src/draw/../misc/lv_color.h **** # define LV_COLOR_GET_R1(c) (c).ch.red
 110:Drivers/lvgl/src/draw/../misc/lv_color.h **** # define LV_COLOR_GET_G1(c) (c).ch.green
 111:Drivers/lvgl/src/draw/../misc/lv_color.h **** # define LV_COLOR_GET_B1(c) (c).ch.blue
 112:Drivers/lvgl/src/draw/../misc/lv_color.h **** # define LV_COLOR_GET_A1(c) 0xFF
 113:Drivers/lvgl/src/draw/../misc/lv_color.h **** 
 114:Drivers/lvgl/src/draw/../misc/lv_color.h **** # define _LV_COLOR_ZERO_INITIALIZER1 {0x00}
 115:Drivers/lvgl/src/draw/../misc/lv_color.h **** # define LV_COLOR_MAKE1(r8, g8, b8)  {(uint8_t)((b8 >> 7) | (g8 >> 7) | (r8 >> 7))}
 116:Drivers/lvgl/src/draw/../misc/lv_color.h **** 
 117:Drivers/lvgl/src/draw/../misc/lv_color.h **** # define LV_COLOR_SET_R8(c, v) (c).ch.red = (uint8_t)((v) & 0x7U)
 118:Drivers/lvgl/src/draw/../misc/lv_color.h **** # define LV_COLOR_SET_G8(c, v) (c).ch.green = (uint8_t)((v) & 0x7U)
 119:Drivers/lvgl/src/draw/../misc/lv_color.h **** # define LV_COLOR_SET_B8(c, v) (c).ch.blue = (uint8_t)((v) & 0x3U)
 120:Drivers/lvgl/src/draw/../misc/lv_color.h **** # define LV_COLOR_SET_A8(c, v) do {} while(0)
 121:Drivers/lvgl/src/draw/../misc/lv_color.h **** 
 122:Drivers/lvgl/src/draw/../misc/lv_color.h **** # define LV_COLOR_GET_R8(c) (c).ch.red
 123:Drivers/lvgl/src/draw/../misc/lv_color.h **** # define LV_COLOR_GET_G8(c) (c).ch.green
 124:Drivers/lvgl/src/draw/../misc/lv_color.h **** # define LV_COLOR_GET_B8(c) (c).ch.blue
 125:Drivers/lvgl/src/draw/../misc/lv_color.h **** # define LV_COLOR_GET_A8(c) 0xFF
 126:Drivers/lvgl/src/draw/../misc/lv_color.h **** 
 127:Drivers/lvgl/src/draw/../misc/lv_color.h **** # define _LV_COLOR_ZERO_INITIALIZER8 {{0x00, 0x00, 0x00}}
 128:Drivers/lvgl/src/draw/../misc/lv_color.h **** # define LV_COLOR_MAKE8(r8, g8, b8) {{(uint8_t)((b8 >> 6) & 0x3U), (uint8_t)((g8 >> 5) & 0x7U), (ui
 129:Drivers/lvgl/src/draw/../misc/lv_color.h **** 
 130:Drivers/lvgl/src/draw/../misc/lv_color.h **** # define LV_COLOR_SET_R16(c, v) (c).ch.red = (uint8_t)((v) & 0x1FU)
 131:Drivers/lvgl/src/draw/../misc/lv_color.h **** #if LV_COLOR_16_SWAP == 0
 132:Drivers/lvgl/src/draw/../misc/lv_color.h **** # define LV_COLOR_SET_G16(c, v) (c).ch.green = (uint8_t)((v) & 0x3FU)
 133:Drivers/lvgl/src/draw/../misc/lv_color.h **** #else
 134:Drivers/lvgl/src/draw/../misc/lv_color.h **** # define LV_COLOR_SET_G16(c, v) {(c).ch.green_h = (uint8_t)(((v) >> 3) & 0x7); (c).ch.green_l = (ui
 135:Drivers/lvgl/src/draw/../misc/lv_color.h **** #endif
 136:Drivers/lvgl/src/draw/../misc/lv_color.h **** # define LV_COLOR_SET_B16(c, v) (c).ch.blue = (uint8_t)((v) & 0x1FU)
 137:Drivers/lvgl/src/draw/../misc/lv_color.h **** # define LV_COLOR_SET_A16(c, v) do {} while(0)
 138:Drivers/lvgl/src/draw/../misc/lv_color.h **** 
 139:Drivers/lvgl/src/draw/../misc/lv_color.h **** # define LV_COLOR_GET_R16(c) (c).ch.red
 140:Drivers/lvgl/src/draw/../misc/lv_color.h **** #if LV_COLOR_16_SWAP == 0
 141:Drivers/lvgl/src/draw/../misc/lv_color.h **** # define LV_COLOR_GET_G16(c) (c).ch.green
 142:Drivers/lvgl/src/draw/../misc/lv_color.h **** #else
 143:Drivers/lvgl/src/draw/../misc/lv_color.h **** # define LV_COLOR_GET_G16(c) (((c).ch.green_h << 3) + (c).ch.green_l)
ARM GAS  /var/folders/lp/x54gwt890xv47sdkqj1k04q40000gn/T//ccZWiB8D.s 			page 4


 144:Drivers/lvgl/src/draw/../misc/lv_color.h **** #endif
 145:Drivers/lvgl/src/draw/../misc/lv_color.h **** # define LV_COLOR_GET_B16(c) (c).ch.blue
 146:Drivers/lvgl/src/draw/../misc/lv_color.h **** # define LV_COLOR_GET_A16(c) 0xFF
 147:Drivers/lvgl/src/draw/../misc/lv_color.h **** 
 148:Drivers/lvgl/src/draw/../misc/lv_color.h **** #if LV_COLOR_16_SWAP == 0
 149:Drivers/lvgl/src/draw/../misc/lv_color.h **** # define _LV_COLOR_ZERO_INITIALIZER16  {{0x00, 0x00, 0x00}}
 150:Drivers/lvgl/src/draw/../misc/lv_color.h **** # define LV_COLOR_MAKE16(r8, g8, b8) {{(uint8_t)((b8 >> 3) & 0x1FU), (uint8_t)((g8 >> 2) & 0x3FU), 
 151:Drivers/lvgl/src/draw/../misc/lv_color.h **** #else
 152:Drivers/lvgl/src/draw/../misc/lv_color.h **** # define _LV_COLOR_ZERO_INITIALIZER16 {{0x00, 0x00, 0x00, 0x00}}
 153:Drivers/lvgl/src/draw/../misc/lv_color.h **** # define LV_COLOR_MAKE16(r8, g8, b8) {{(uint8_t)((g8 >> 5) & 0x7U), (uint8_t)((r8 >> 3) & 0x1FU), (
 154:Drivers/lvgl/src/draw/../misc/lv_color.h **** #endif
 155:Drivers/lvgl/src/draw/../misc/lv_color.h **** 
 156:Drivers/lvgl/src/draw/../misc/lv_color.h **** # define LV_COLOR_SET_R32(c, v) (c).ch.red = (uint8_t)((v) & 0xFF)
 157:Drivers/lvgl/src/draw/../misc/lv_color.h **** # define LV_COLOR_SET_G32(c, v) (c).ch.green = (uint8_t)((v) & 0xFF)
 158:Drivers/lvgl/src/draw/../misc/lv_color.h **** # define LV_COLOR_SET_B32(c, v) (c).ch.blue = (uint8_t)((v) & 0xFF)
 159:Drivers/lvgl/src/draw/../misc/lv_color.h **** # define LV_COLOR_SET_A32(c, v) (c).ch.alpha = (uint8_t)((v) & 0xFF)
 160:Drivers/lvgl/src/draw/../misc/lv_color.h **** 
 161:Drivers/lvgl/src/draw/../misc/lv_color.h **** # define LV_COLOR_GET_R32(c) (c).ch.red
 162:Drivers/lvgl/src/draw/../misc/lv_color.h **** # define LV_COLOR_GET_G32(c) (c).ch.green
 163:Drivers/lvgl/src/draw/../misc/lv_color.h **** # define LV_COLOR_GET_B32(c) (c).ch.blue
 164:Drivers/lvgl/src/draw/../misc/lv_color.h **** # define LV_COLOR_GET_A32(c) (c).ch.alpha
 165:Drivers/lvgl/src/draw/../misc/lv_color.h **** 
 166:Drivers/lvgl/src/draw/../misc/lv_color.h **** # define _LV_COLOR_ZERO_INITIALIZER32  {{0x00, 0x00, 0x00, 0x00}}
 167:Drivers/lvgl/src/draw/../misc/lv_color.h **** # define LV_COLOR_MAKE32(r8, g8, b8) {{b8, g8, r8, 0xff}} /*Fix 0xff alpha*/
 168:Drivers/lvgl/src/draw/../misc/lv_color.h **** 
 169:Drivers/lvgl/src/draw/../misc/lv_color.h **** /*---------------------------------------
 170:Drivers/lvgl/src/draw/../misc/lv_color.h ****  * Macros for the current color depth
 171:Drivers/lvgl/src/draw/../misc/lv_color.h ****  * to set/get values of the color channels
 172:Drivers/lvgl/src/draw/../misc/lv_color.h ****  *------------------------------------------*/
 173:Drivers/lvgl/src/draw/../misc/lv_color.h **** #define LV_COLOR_SET_R(c, v) LV_CONCAT(LV_COLOR_SET_R, LV_COLOR_DEPTH)(c, v)
 174:Drivers/lvgl/src/draw/../misc/lv_color.h **** #define LV_COLOR_SET_G(c, v) LV_CONCAT(LV_COLOR_SET_G, LV_COLOR_DEPTH)(c, v)
 175:Drivers/lvgl/src/draw/../misc/lv_color.h **** #define LV_COLOR_SET_B(c, v) LV_CONCAT(LV_COLOR_SET_B, LV_COLOR_DEPTH)(c, v)
 176:Drivers/lvgl/src/draw/../misc/lv_color.h **** #define LV_COLOR_SET_A(c, v) LV_CONCAT(LV_COLOR_SET_A, LV_COLOR_DEPTH)(c, v)
 177:Drivers/lvgl/src/draw/../misc/lv_color.h **** 
 178:Drivers/lvgl/src/draw/../misc/lv_color.h **** #define LV_COLOR_GET_R(c) LV_CONCAT(LV_COLOR_GET_R, LV_COLOR_DEPTH)(c)
 179:Drivers/lvgl/src/draw/../misc/lv_color.h **** #define LV_COLOR_GET_G(c) LV_CONCAT(LV_COLOR_GET_G, LV_COLOR_DEPTH)(c)
 180:Drivers/lvgl/src/draw/../misc/lv_color.h **** #define LV_COLOR_GET_B(c) LV_CONCAT(LV_COLOR_GET_B, LV_COLOR_DEPTH)(c)
 181:Drivers/lvgl/src/draw/../misc/lv_color.h **** #define LV_COLOR_GET_A(c) LV_CONCAT(LV_COLOR_GET_A, LV_COLOR_DEPTH)(c)
 182:Drivers/lvgl/src/draw/../misc/lv_color.h **** 
 183:Drivers/lvgl/src/draw/../misc/lv_color.h **** #define _LV_COLOR_ZERO_INITIALIZER LV_CONCAT(_LV_COLOR_ZERO_INITIALIZER, LV_COLOR_DEPTH)
 184:Drivers/lvgl/src/draw/../misc/lv_color.h **** #define LV_COLOR_MAKE(r8, g8, b8) LV_CONCAT(LV_COLOR_MAKE, LV_COLOR_DEPTH)(r8, g8, b8)
 185:Drivers/lvgl/src/draw/../misc/lv_color.h **** 
 186:Drivers/lvgl/src/draw/../misc/lv_color.h **** /**********************
 187:Drivers/lvgl/src/draw/../misc/lv_color.h ****  *      TYPEDEFS
 188:Drivers/lvgl/src/draw/../misc/lv_color.h ****  **********************/
 189:Drivers/lvgl/src/draw/../misc/lv_color.h **** 
 190:Drivers/lvgl/src/draw/../misc/lv_color.h **** typedef union {
 191:Drivers/lvgl/src/draw/../misc/lv_color.h ****     uint8_t full; /*must be declared first to set all bits of byte via initializer list*/
 192:Drivers/lvgl/src/draw/../misc/lv_color.h ****     union {
 193:Drivers/lvgl/src/draw/../misc/lv_color.h ****         uint8_t blue : 1;
 194:Drivers/lvgl/src/draw/../misc/lv_color.h ****         uint8_t green : 1;
 195:Drivers/lvgl/src/draw/../misc/lv_color.h ****         uint8_t red : 1;
 196:Drivers/lvgl/src/draw/../misc/lv_color.h ****     } ch;
 197:Drivers/lvgl/src/draw/../misc/lv_color.h **** } lv_color1_t;
 198:Drivers/lvgl/src/draw/../misc/lv_color.h **** 
 199:Drivers/lvgl/src/draw/../misc/lv_color.h **** typedef union {
 200:Drivers/lvgl/src/draw/../misc/lv_color.h ****     struct {
ARM GAS  /var/folders/lp/x54gwt890xv47sdkqj1k04q40000gn/T//ccZWiB8D.s 			page 5


 201:Drivers/lvgl/src/draw/../misc/lv_color.h ****         uint8_t blue : 2;
 202:Drivers/lvgl/src/draw/../misc/lv_color.h ****         uint8_t green : 3;
 203:Drivers/lvgl/src/draw/../misc/lv_color.h ****         uint8_t red : 3;
 204:Drivers/lvgl/src/draw/../misc/lv_color.h ****     } ch;
 205:Drivers/lvgl/src/draw/../misc/lv_color.h ****     uint8_t full;
 206:Drivers/lvgl/src/draw/../misc/lv_color.h **** } lv_color8_t;
 207:Drivers/lvgl/src/draw/../misc/lv_color.h **** 
 208:Drivers/lvgl/src/draw/../misc/lv_color.h **** typedef union {
 209:Drivers/lvgl/src/draw/../misc/lv_color.h ****     struct {
 210:Drivers/lvgl/src/draw/../misc/lv_color.h **** #if LV_COLOR_16_SWAP == 0
 211:Drivers/lvgl/src/draw/../misc/lv_color.h ****         uint16_t blue : 5;
 212:Drivers/lvgl/src/draw/../misc/lv_color.h ****         uint16_t green : 6;
 213:Drivers/lvgl/src/draw/../misc/lv_color.h ****         uint16_t red : 5;
 214:Drivers/lvgl/src/draw/../misc/lv_color.h **** #else
 215:Drivers/lvgl/src/draw/../misc/lv_color.h ****         uint16_t green_h : 3;
 216:Drivers/lvgl/src/draw/../misc/lv_color.h ****         uint16_t red : 5;
 217:Drivers/lvgl/src/draw/../misc/lv_color.h ****         uint16_t blue : 5;
 218:Drivers/lvgl/src/draw/../misc/lv_color.h ****         uint16_t green_l : 3;
 219:Drivers/lvgl/src/draw/../misc/lv_color.h **** #endif
 220:Drivers/lvgl/src/draw/../misc/lv_color.h ****     } ch;
 221:Drivers/lvgl/src/draw/../misc/lv_color.h ****     uint16_t full;
 222:Drivers/lvgl/src/draw/../misc/lv_color.h **** } lv_color16_t;
 223:Drivers/lvgl/src/draw/../misc/lv_color.h **** 
 224:Drivers/lvgl/src/draw/../misc/lv_color.h **** typedef union {
 225:Drivers/lvgl/src/draw/../misc/lv_color.h ****     struct {
 226:Drivers/lvgl/src/draw/../misc/lv_color.h ****         uint8_t blue;
 227:Drivers/lvgl/src/draw/../misc/lv_color.h ****         uint8_t green;
 228:Drivers/lvgl/src/draw/../misc/lv_color.h ****         uint8_t red;
 229:Drivers/lvgl/src/draw/../misc/lv_color.h ****         uint8_t alpha;
 230:Drivers/lvgl/src/draw/../misc/lv_color.h ****     } ch;
 231:Drivers/lvgl/src/draw/../misc/lv_color.h ****     uint32_t full;
 232:Drivers/lvgl/src/draw/../misc/lv_color.h **** } lv_color32_t;
 233:Drivers/lvgl/src/draw/../misc/lv_color.h **** 
 234:Drivers/lvgl/src/draw/../misc/lv_color.h **** typedef LV_CONCAT3(uint, LV_COLOR_SIZE, _t) lv_color_int_t;
 235:Drivers/lvgl/src/draw/../misc/lv_color.h **** typedef LV_CONCAT3(lv_color, LV_COLOR_DEPTH, _t) lv_color_t;
 236:Drivers/lvgl/src/draw/../misc/lv_color.h **** 
 237:Drivers/lvgl/src/draw/../misc/lv_color.h **** typedef struct {
 238:Drivers/lvgl/src/draw/../misc/lv_color.h ****     uint16_t h;
 239:Drivers/lvgl/src/draw/../misc/lv_color.h ****     uint8_t s;
 240:Drivers/lvgl/src/draw/../misc/lv_color.h ****     uint8_t v;
 241:Drivers/lvgl/src/draw/../misc/lv_color.h **** } lv_color_hsv_t;
 242:Drivers/lvgl/src/draw/../misc/lv_color.h **** 
 243:Drivers/lvgl/src/draw/../misc/lv_color.h **** //! @cond Doxygen_Suppress
 244:Drivers/lvgl/src/draw/../misc/lv_color.h **** /*No idea where the guard is required but else throws warnings in the docs*/
 245:Drivers/lvgl/src/draw/../misc/lv_color.h **** typedef uint8_t lv_opa_t;
 246:Drivers/lvgl/src/draw/../misc/lv_color.h **** //! @endcond
 247:Drivers/lvgl/src/draw/../misc/lv_color.h **** 
 248:Drivers/lvgl/src/draw/../misc/lv_color.h **** struct _lv_color_filter_dsc_t;
 249:Drivers/lvgl/src/draw/../misc/lv_color.h **** 
 250:Drivers/lvgl/src/draw/../misc/lv_color.h **** typedef lv_color_t (*lv_color_filter_cb_t)(const struct _lv_color_filter_dsc_t *, lv_color_t, lv_op
 251:Drivers/lvgl/src/draw/../misc/lv_color.h **** 
 252:Drivers/lvgl/src/draw/../misc/lv_color.h **** typedef struct _lv_color_filter_dsc_t {
 253:Drivers/lvgl/src/draw/../misc/lv_color.h ****     lv_color_filter_cb_t filter_cb;
 254:Drivers/lvgl/src/draw/../misc/lv_color.h ****     void * user_data;
 255:Drivers/lvgl/src/draw/../misc/lv_color.h **** } lv_color_filter_dsc_t;
 256:Drivers/lvgl/src/draw/../misc/lv_color.h **** 
 257:Drivers/lvgl/src/draw/../misc/lv_color.h **** 
ARM GAS  /var/folders/lp/x54gwt890xv47sdkqj1k04q40000gn/T//ccZWiB8D.s 			page 6


 258:Drivers/lvgl/src/draw/../misc/lv_color.h **** typedef enum {
 259:Drivers/lvgl/src/draw/../misc/lv_color.h ****     LV_PALETTE_RED,
 260:Drivers/lvgl/src/draw/../misc/lv_color.h ****     LV_PALETTE_PINK,
 261:Drivers/lvgl/src/draw/../misc/lv_color.h ****     LV_PALETTE_PURPLE,
 262:Drivers/lvgl/src/draw/../misc/lv_color.h ****     LV_PALETTE_DEEP_PURPLE,
 263:Drivers/lvgl/src/draw/../misc/lv_color.h ****     LV_PALETTE_INDIGO,
 264:Drivers/lvgl/src/draw/../misc/lv_color.h ****     LV_PALETTE_BLUE,
 265:Drivers/lvgl/src/draw/../misc/lv_color.h ****     LV_PALETTE_LIGHT_BLUE,
 266:Drivers/lvgl/src/draw/../misc/lv_color.h ****     LV_PALETTE_CYAN,
 267:Drivers/lvgl/src/draw/../misc/lv_color.h ****     LV_PALETTE_TEAL,
 268:Drivers/lvgl/src/draw/../misc/lv_color.h ****     LV_PALETTE_GREEN,
 269:Drivers/lvgl/src/draw/../misc/lv_color.h ****     LV_PALETTE_LIGHT_GREEN,
 270:Drivers/lvgl/src/draw/../misc/lv_color.h ****     LV_PALETTE_LIME,
 271:Drivers/lvgl/src/draw/../misc/lv_color.h ****     LV_PALETTE_YELLOW,
 272:Drivers/lvgl/src/draw/../misc/lv_color.h ****     LV_PALETTE_AMBER,
 273:Drivers/lvgl/src/draw/../misc/lv_color.h ****     LV_PALETTE_ORANGE,
 274:Drivers/lvgl/src/draw/../misc/lv_color.h ****     LV_PALETTE_DEEP_ORANGE,
 275:Drivers/lvgl/src/draw/../misc/lv_color.h ****     LV_PALETTE_BROWN,
 276:Drivers/lvgl/src/draw/../misc/lv_color.h ****     LV_PALETTE_BLUE_GREY,
 277:Drivers/lvgl/src/draw/../misc/lv_color.h ****     LV_PALETTE_GREY,
 278:Drivers/lvgl/src/draw/../misc/lv_color.h ****     _LV_PALETTE_LAST,
 279:Drivers/lvgl/src/draw/../misc/lv_color.h ****     LV_PALETTE_NONE = 0xff,
 280:Drivers/lvgl/src/draw/../misc/lv_color.h **** } lv_palette_t;
 281:Drivers/lvgl/src/draw/../misc/lv_color.h **** 
 282:Drivers/lvgl/src/draw/../misc/lv_color.h **** /**********************
 283:Drivers/lvgl/src/draw/../misc/lv_color.h ****  * GLOBAL PROTOTYPES
 284:Drivers/lvgl/src/draw/../misc/lv_color.h ****  **********************/
 285:Drivers/lvgl/src/draw/../misc/lv_color.h **** 
 286:Drivers/lvgl/src/draw/../misc/lv_color.h **** /*In color conversations:
 287:Drivers/lvgl/src/draw/../misc/lv_color.h ****  * - When converting to bigger color type the LSB weight of 1 LSB is calculated
 288:Drivers/lvgl/src/draw/../misc/lv_color.h ****  *   E.g. 16 bit Red has 5 bits
 289:Drivers/lvgl/src/draw/../misc/lv_color.h ****  *         8 bit Red has 3 bits
 290:Drivers/lvgl/src/draw/../misc/lv_color.h ****  *        ----------------------
 291:Drivers/lvgl/src/draw/../misc/lv_color.h ****  *        8 bit red LSB = (2^5 - 1) / (2^3 - 1) = 31 / 7 = 4
 292:Drivers/lvgl/src/draw/../misc/lv_color.h ****  *
 293:Drivers/lvgl/src/draw/../misc/lv_color.h ****  * - When calculating to smaller color type simply shift out the LSBs
 294:Drivers/lvgl/src/draw/../misc/lv_color.h ****  *   E.g.  8 bit Red has 3 bits
 295:Drivers/lvgl/src/draw/../misc/lv_color.h ****  *        16 bit Red has 5 bits
 296:Drivers/lvgl/src/draw/../misc/lv_color.h ****  *        ----------------------
 297:Drivers/lvgl/src/draw/../misc/lv_color.h ****  *         Shift right with 5 - 3 = 2
 298:Drivers/lvgl/src/draw/../misc/lv_color.h ****  */
 299:Drivers/lvgl/src/draw/../misc/lv_color.h **** static inline uint8_t lv_color_to1(lv_color_t color)
 300:Drivers/lvgl/src/draw/../misc/lv_color.h **** {
 301:Drivers/lvgl/src/draw/../misc/lv_color.h **** #if LV_COLOR_DEPTH == 1
 302:Drivers/lvgl/src/draw/../misc/lv_color.h ****     return color.full;
 303:Drivers/lvgl/src/draw/../misc/lv_color.h **** #elif LV_COLOR_DEPTH == 8
 304:Drivers/lvgl/src/draw/../misc/lv_color.h ****     if((LV_COLOR_GET_R(color) & 0x4) || (LV_COLOR_GET_G(color) & 0x4) || (LV_COLOR_GET_B(color) & 0
 305:Drivers/lvgl/src/draw/../misc/lv_color.h ****         return 1;
 306:Drivers/lvgl/src/draw/../misc/lv_color.h ****     }
 307:Drivers/lvgl/src/draw/../misc/lv_color.h ****     else {
 308:Drivers/lvgl/src/draw/../misc/lv_color.h ****         return 0;
 309:Drivers/lvgl/src/draw/../misc/lv_color.h ****     }
 310:Drivers/lvgl/src/draw/../misc/lv_color.h **** #elif LV_COLOR_DEPTH == 16
 311:Drivers/lvgl/src/draw/../misc/lv_color.h ****     if((LV_COLOR_GET_R(color) & 0x10) || (LV_COLOR_GET_G(color) & 0x20) || (LV_COLOR_GET_B(color) &
 312:Drivers/lvgl/src/draw/../misc/lv_color.h ****         return 1;
 313:Drivers/lvgl/src/draw/../misc/lv_color.h ****     }
 314:Drivers/lvgl/src/draw/../misc/lv_color.h ****     else {
ARM GAS  /var/folders/lp/x54gwt890xv47sdkqj1k04q40000gn/T//ccZWiB8D.s 			page 7


 315:Drivers/lvgl/src/draw/../misc/lv_color.h ****         return 0;
 316:Drivers/lvgl/src/draw/../misc/lv_color.h ****     }
 317:Drivers/lvgl/src/draw/../misc/lv_color.h **** #elif LV_COLOR_DEPTH == 32
 318:Drivers/lvgl/src/draw/../misc/lv_color.h ****     if((LV_COLOR_GET_R(color) & 0x80) || (LV_COLOR_GET_G(color) & 0x80) || (LV_COLOR_GET_B(color) &
 319:Drivers/lvgl/src/draw/../misc/lv_color.h ****         return 1;
 320:Drivers/lvgl/src/draw/../misc/lv_color.h ****     }
 321:Drivers/lvgl/src/draw/../misc/lv_color.h ****     else {
 322:Drivers/lvgl/src/draw/../misc/lv_color.h ****         return 0;
 323:Drivers/lvgl/src/draw/../misc/lv_color.h ****     }
 324:Drivers/lvgl/src/draw/../misc/lv_color.h **** #endif
 325:Drivers/lvgl/src/draw/../misc/lv_color.h **** }
 326:Drivers/lvgl/src/draw/../misc/lv_color.h **** 
 327:Drivers/lvgl/src/draw/../misc/lv_color.h **** static inline uint8_t lv_color_to8(lv_color_t color)
 328:Drivers/lvgl/src/draw/../misc/lv_color.h **** {
 329:Drivers/lvgl/src/draw/../misc/lv_color.h **** #if LV_COLOR_DEPTH == 1
 330:Drivers/lvgl/src/draw/../misc/lv_color.h ****     if(color.full == 0)
 331:Drivers/lvgl/src/draw/../misc/lv_color.h ****         return 0;
 332:Drivers/lvgl/src/draw/../misc/lv_color.h ****     else
 333:Drivers/lvgl/src/draw/../misc/lv_color.h ****         return 0xFF;
 334:Drivers/lvgl/src/draw/../misc/lv_color.h **** #elif LV_COLOR_DEPTH == 8
 335:Drivers/lvgl/src/draw/../misc/lv_color.h ****     return color.full;
 336:Drivers/lvgl/src/draw/../misc/lv_color.h **** #elif LV_COLOR_DEPTH == 16
 337:Drivers/lvgl/src/draw/../misc/lv_color.h ****     lv_color8_t ret;
 338:Drivers/lvgl/src/draw/../misc/lv_color.h ****     LV_COLOR_SET_R8(ret, LV_COLOR_GET_R(color) >> 2); /*5 - 3  = 2*/
 339:Drivers/lvgl/src/draw/../misc/lv_color.h ****     LV_COLOR_SET_G8(ret, LV_COLOR_GET_G(color) >> 3); /*6 - 3  = 3*/
 340:Drivers/lvgl/src/draw/../misc/lv_color.h ****     LV_COLOR_SET_B8(ret, LV_COLOR_GET_B(color) >> 3); /*5 - 2  = 3*/
 341:Drivers/lvgl/src/draw/../misc/lv_color.h ****     return ret.full;
 342:Drivers/lvgl/src/draw/../misc/lv_color.h **** #elif LV_COLOR_DEPTH == 32
 343:Drivers/lvgl/src/draw/../misc/lv_color.h ****     lv_color8_t ret;
 344:Drivers/lvgl/src/draw/../misc/lv_color.h ****     LV_COLOR_SET_R8(ret, LV_COLOR_GET_R(color) >> 5); /*8 - 3  = 5*/
 345:Drivers/lvgl/src/draw/../misc/lv_color.h ****     LV_COLOR_SET_G8(ret, LV_COLOR_GET_G(color) >> 5); /*8 - 3  = 5*/
 346:Drivers/lvgl/src/draw/../misc/lv_color.h ****     LV_COLOR_SET_B8(ret, LV_COLOR_GET_B(color) >> 6); /*8 - 2  = 6*/
 347:Drivers/lvgl/src/draw/../misc/lv_color.h ****     return ret.full;
 348:Drivers/lvgl/src/draw/../misc/lv_color.h **** #endif
 349:Drivers/lvgl/src/draw/../misc/lv_color.h **** }
 350:Drivers/lvgl/src/draw/../misc/lv_color.h **** 
 351:Drivers/lvgl/src/draw/../misc/lv_color.h **** static inline uint16_t lv_color_to16(lv_color_t color)
 352:Drivers/lvgl/src/draw/../misc/lv_color.h **** {
 353:Drivers/lvgl/src/draw/../misc/lv_color.h **** #if LV_COLOR_DEPTH == 1
 354:Drivers/lvgl/src/draw/../misc/lv_color.h ****     if(color.full == 0)
 355:Drivers/lvgl/src/draw/../misc/lv_color.h ****         return 0;
 356:Drivers/lvgl/src/draw/../misc/lv_color.h ****     else
 357:Drivers/lvgl/src/draw/../misc/lv_color.h ****         return 0xFFFF;
 358:Drivers/lvgl/src/draw/../misc/lv_color.h **** #elif LV_COLOR_DEPTH == 8
 359:Drivers/lvgl/src/draw/../misc/lv_color.h ****     lv_color16_t ret;
 360:Drivers/lvgl/src/draw/../misc/lv_color.h ****     LV_COLOR_SET_R16(ret, LV_COLOR_GET_R(color) * 4);  /*(2^5 - 1)/(2^3 - 1) = 31/7 = 4*/
 361:Drivers/lvgl/src/draw/../misc/lv_color.h ****     LV_COLOR_SET_G16(ret, LV_COLOR_GET_G(color) * 9);  /*(2^6 - 1)/(2^3 - 1) = 63/7 = 9*/
 362:Drivers/lvgl/src/draw/../misc/lv_color.h ****     LV_COLOR_SET_B16(ret, LV_COLOR_GET_B(color) * 10); /*(2^5 - 1)/(2^2 - 1) = 31/3 = 10*/
 363:Drivers/lvgl/src/draw/../misc/lv_color.h ****     return ret.full;
 364:Drivers/lvgl/src/draw/../misc/lv_color.h **** #elif LV_COLOR_DEPTH == 16
 365:Drivers/lvgl/src/draw/../misc/lv_color.h ****     return color.full;
 366:Drivers/lvgl/src/draw/../misc/lv_color.h **** #elif LV_COLOR_DEPTH == 32
 367:Drivers/lvgl/src/draw/../misc/lv_color.h ****     lv_color16_t ret;
 368:Drivers/lvgl/src/draw/../misc/lv_color.h ****     LV_COLOR_SET_R16(ret, LV_COLOR_GET_R(color) >> 3); /*8 - 5  = 3*/
 369:Drivers/lvgl/src/draw/../misc/lv_color.h ****     LV_COLOR_SET_G16(ret, LV_COLOR_GET_G(color) >> 2); /*8 - 6  = 2*/
 370:Drivers/lvgl/src/draw/../misc/lv_color.h ****     LV_COLOR_SET_B16(ret, LV_COLOR_GET_B(color) >> 3); /*8 - 5  = 3*/
 371:Drivers/lvgl/src/draw/../misc/lv_color.h ****     return ret.full;
ARM GAS  /var/folders/lp/x54gwt890xv47sdkqj1k04q40000gn/T//ccZWiB8D.s 			page 8


 372:Drivers/lvgl/src/draw/../misc/lv_color.h **** #endif
 373:Drivers/lvgl/src/draw/../misc/lv_color.h **** }
 374:Drivers/lvgl/src/draw/../misc/lv_color.h **** 
 375:Drivers/lvgl/src/draw/../misc/lv_color.h **** static inline uint32_t lv_color_to32(lv_color_t color)
 376:Drivers/lvgl/src/draw/../misc/lv_color.h **** {
  30              		.loc 2 376 1 view -0
  31              		.cfi_startproc
  32              		@ args = 0, pretend = 0, frame = 0
  33              		@ frame_needed = 0, uses_anonymous_args = 0
  34              		@ link register save eliminated.
 377:Drivers/lvgl/src/draw/../misc/lv_color.h **** #if LV_COLOR_DEPTH == 1
 378:Drivers/lvgl/src/draw/../misc/lv_color.h ****     if(color.full == 0)
 379:Drivers/lvgl/src/draw/../misc/lv_color.h ****         return 0xFF000000;
 380:Drivers/lvgl/src/draw/../misc/lv_color.h ****     else
 381:Drivers/lvgl/src/draw/../misc/lv_color.h ****         return 0xFFFFFFFF;
 382:Drivers/lvgl/src/draw/../misc/lv_color.h **** #elif LV_COLOR_DEPTH == 8
 383:Drivers/lvgl/src/draw/../misc/lv_color.h ****     lv_color32_t ret;
 384:Drivers/lvgl/src/draw/../misc/lv_color.h ****     LV_COLOR_SET_R32(ret, LV_COLOR_GET_R(color) * 36); /*(2^8 - 1)/(2^3 - 1) = 255/7 = 36*/
 385:Drivers/lvgl/src/draw/../misc/lv_color.h ****     LV_COLOR_SET_G32(ret, LV_COLOR_GET_G(color) * 36); /*(2^8 - 1)/(2^3 - 1) = 255/7 = 36*/
 386:Drivers/lvgl/src/draw/../misc/lv_color.h ****     LV_COLOR_SET_B32(ret, LV_COLOR_GET_B(color) * 85); /*(2^8 - 1)/(2^2 - 1) = 255/3 = 85*/
 387:Drivers/lvgl/src/draw/../misc/lv_color.h ****     LV_COLOR_SET_A32(ret, 0xFF);
 388:Drivers/lvgl/src/draw/../misc/lv_color.h ****     return ret.full;
 389:Drivers/lvgl/src/draw/../misc/lv_color.h **** #elif LV_COLOR_DEPTH == 16
 390:Drivers/lvgl/src/draw/../misc/lv_color.h ****     /**
 391:Drivers/lvgl/src/draw/../misc/lv_color.h ****      * The floating point math for conversion is:
 392:Drivers/lvgl/src/draw/../misc/lv_color.h ****      *  valueto = valuefrom * ( (2^bitsto - 1) / (float)(2^bitsfrom - 1) )
 393:Drivers/lvgl/src/draw/../misc/lv_color.h ****      * The faster integer math for conversion is:
 394:Drivers/lvgl/src/draw/../misc/lv_color.h ****      *  valueto = ( valuefrom * multiplier + adder ) >> divisor
 395:Drivers/lvgl/src/draw/../misc/lv_color.h ****      *   multiplier = FLOOR( ( (2^bitsto - 1) << divisor ) / (float)(2^bitsfrom - 1) )
 396:Drivers/lvgl/src/draw/../misc/lv_color.h ****      *
 397:Drivers/lvgl/src/draw/../misc/lv_color.h ****      * Find the first divisor where ( adder >> divisor ) <= 0
 398:Drivers/lvgl/src/draw/../misc/lv_color.h ****      *
 399:Drivers/lvgl/src/draw/../misc/lv_color.h ****      * 5-bit to 8-bit: ( 31 * multiplier + adder ) >> divisor = 255
 400:Drivers/lvgl/src/draw/../misc/lv_color.h ****      * divisor  multiplier  adder  min (0)  max (31)
 401:Drivers/lvgl/src/draw/../misc/lv_color.h ****      *       0           8      7        7       255
 402:Drivers/lvgl/src/draw/../misc/lv_color.h ****      *       1          16     14        7       255
 403:Drivers/lvgl/src/draw/../misc/lv_color.h ****      *       2          32     28        7       255
 404:Drivers/lvgl/src/draw/../misc/lv_color.h ****      *       3          65     25        3       255
 405:Drivers/lvgl/src/draw/../misc/lv_color.h ****      *       4         131     19        1       255
 406:Drivers/lvgl/src/draw/../misc/lv_color.h ****      *       5         263      7        0       255
 407:Drivers/lvgl/src/draw/../misc/lv_color.h ****      *
 408:Drivers/lvgl/src/draw/../misc/lv_color.h ****      * 6-bit to 8-bit: 255 = ( 63 * multiplier + adder ) >> divisor
 409:Drivers/lvgl/src/draw/../misc/lv_color.h ****      * divisor  multiplier  adder  min (0)  max (63)
 410:Drivers/lvgl/src/draw/../misc/lv_color.h ****      *       0           4      3        3       255
 411:Drivers/lvgl/src/draw/../misc/lv_color.h ****      *       1           8      6        3       255
 412:Drivers/lvgl/src/draw/../misc/lv_color.h ****      *       2          16     12        3       255
 413:Drivers/lvgl/src/draw/../misc/lv_color.h ****      *       3          32     24        3       255
 414:Drivers/lvgl/src/draw/../misc/lv_color.h ****      *       4          64     48        3       255
 415:Drivers/lvgl/src/draw/../misc/lv_color.h ****      *       5         129     33        1       255
 416:Drivers/lvgl/src/draw/../misc/lv_color.h ****      *       6         259      3        0       255
 417:Drivers/lvgl/src/draw/../misc/lv_color.h ****      */
 418:Drivers/lvgl/src/draw/../misc/lv_color.h **** 
 419:Drivers/lvgl/src/draw/../misc/lv_color.h ****     lv_color32_t ret;
  35              		.loc 2 419 5 view .LVU1
 420:Drivers/lvgl/src/draw/../misc/lv_color.h ****     LV_COLOR_SET_R32(ret, (LV_COLOR_GET_R(color) * 263 + 7) >> 5);
  36              		.loc 2 420 5 view .LVU2
  37 0000 C0F3C403 		ubfx	r3, r0, #3, #5
ARM GAS  /var/folders/lp/x54gwt890xv47sdkqj1k04q40000gn/T//ccZWiB8D.s 			page 9


  38 0004 03EB4312 		add	r2, r3, r3, lsl #5
  39 0008 C3EBC203 		rsb	r3, r3, r2, lsl #3
  40 000c 0733     		adds	r3, r3, #7
  41 000e C3F34713 		ubfx	r3, r3, #5, #8
  42 0012 0022     		movs	r2, #0
  43              	.LVL1:
  44              		.loc 2 420 5 is_stmt 0 view .LVU3
  45 0014 63F31742 		bfi	r2, r3, #16, #8
  46              	.LVL2:
 421:Drivers/lvgl/src/draw/../misc/lv_color.h ****     LV_COLOR_SET_G32(ret, (LV_COLOR_GET_G(color) * 259 + 3) >> 6);
  47              		.loc 2 421 5 is_stmt 1 view .LVU4
  48 0018 00F00701 		and	r1, r0, #7
  49 001c C0F34233 		ubfx	r3, r0, #13, #3
  50 0020 03EBC103 		add	r3, r3, r1, lsl #3
  51 0024 03EBC311 		add	r1, r3, r3, lsl #7
  52 0028 03EB4103 		add	r3, r3, r1, lsl #1
  53 002c 0333     		adds	r3, r3, #3
  54 002e C3F38713 		ubfx	r3, r3, #6, #8
  55 0032 63F30F22 		bfi	r2, r3, #8, #8
 422:Drivers/lvgl/src/draw/../misc/lv_color.h ****     LV_COLOR_SET_B32(ret, (LV_COLOR_GET_B(color) * 263 + 7) >> 5);
  56              		.loc 2 422 5 view .LVU5
  57 0036 C0F30420 		ubfx	r0, r0, #8, #5
  58              	.LVL3:
  59              		.loc 2 422 5 is_stmt 0 view .LVU6
  60 003a 00EB4013 		add	r3, r0, r0, lsl #5
  61 003e C0EBC303 		rsb	r3, r0, r3, lsl #3
  62 0042 0733     		adds	r3, r3, #7
  63 0044 C3F34713 		ubfx	r3, r3, #5, #8
  64 0048 63F30702 		bfi	r2, r3, #0, #8
 423:Drivers/lvgl/src/draw/../misc/lv_color.h ****     LV_COLOR_SET_A32(ret, 0xFF);
  65              		.loc 2 423 5 is_stmt 1 view .LVU7
 424:Drivers/lvgl/src/draw/../misc/lv_color.h ****     return ret.full;
  66              		.loc 2 424 5 view .LVU8
 425:Drivers/lvgl/src/draw/../misc/lv_color.h **** #elif LV_COLOR_DEPTH == 32
 426:Drivers/lvgl/src/draw/../misc/lv_color.h ****     return color.full;
 427:Drivers/lvgl/src/draw/../misc/lv_color.h **** #endif
 428:Drivers/lvgl/src/draw/../misc/lv_color.h **** }
  67              		.loc 2 428 1 is_stmt 0 view .LVU9
  68 004c 42F07F40 		orr	r0, r2, #-16777216
  69 0050 7047     		bx	lr
  70              		.cfi_endproc
  71              	.LFE5:
  73              		.section	.text.lv_img_buf_get_px_color,"ax",%progbits
  74              		.align	1
  75              		.global	lv_img_buf_get_px_color
  76              		.syntax unified
  77              		.thumb
  78              		.thumb_func
  80              	lv_img_buf_get_px_color:
  81              	.LVL4:
  82              	.LFB54:
   1:Drivers/lvgl/src/draw/lv_img_buf.c **** /**
   2:Drivers/lvgl/src/draw/lv_img_buf.c ****  * @file lv_img_buf.c
   3:Drivers/lvgl/src/draw/lv_img_buf.c ****  *
   4:Drivers/lvgl/src/draw/lv_img_buf.c ****  */
   5:Drivers/lvgl/src/draw/lv_img_buf.c **** 
   6:Drivers/lvgl/src/draw/lv_img_buf.c **** /*********************
ARM GAS  /var/folders/lp/x54gwt890xv47sdkqj1k04q40000gn/T//ccZWiB8D.s 			page 10


   7:Drivers/lvgl/src/draw/lv_img_buf.c ****  *      INCLUDES
   8:Drivers/lvgl/src/draw/lv_img_buf.c ****  *********************/
   9:Drivers/lvgl/src/draw/lv_img_buf.c **** #include <stddef.h>
  10:Drivers/lvgl/src/draw/lv_img_buf.c **** #include <string.h>
  11:Drivers/lvgl/src/draw/lv_img_buf.c **** #include "lv_img_buf.h"
  12:Drivers/lvgl/src/draw/lv_img_buf.c **** #include "lv_draw_img.h"
  13:Drivers/lvgl/src/draw/lv_img_buf.c **** #include "../misc/lv_math.h"
  14:Drivers/lvgl/src/draw/lv_img_buf.c **** #include "../misc/lv_log.h"
  15:Drivers/lvgl/src/draw/lv_img_buf.c **** #include "../misc/lv_mem.h"
  16:Drivers/lvgl/src/draw/lv_img_buf.c **** 
  17:Drivers/lvgl/src/draw/lv_img_buf.c **** /*********************
  18:Drivers/lvgl/src/draw/lv_img_buf.c ****  *      DEFINES
  19:Drivers/lvgl/src/draw/lv_img_buf.c ****  *********************/
  20:Drivers/lvgl/src/draw/lv_img_buf.c **** 
  21:Drivers/lvgl/src/draw/lv_img_buf.c **** /**********************
  22:Drivers/lvgl/src/draw/lv_img_buf.c ****  *      TYPEDEFS
  23:Drivers/lvgl/src/draw/lv_img_buf.c ****  **********************/
  24:Drivers/lvgl/src/draw/lv_img_buf.c **** 
  25:Drivers/lvgl/src/draw/lv_img_buf.c **** /**********************
  26:Drivers/lvgl/src/draw/lv_img_buf.c ****  *  STATIC PROTOTYPES
  27:Drivers/lvgl/src/draw/lv_img_buf.c ****  **********************/
  28:Drivers/lvgl/src/draw/lv_img_buf.c **** 
  29:Drivers/lvgl/src/draw/lv_img_buf.c **** /**********************
  30:Drivers/lvgl/src/draw/lv_img_buf.c ****  *  STATIC VARIABLES
  31:Drivers/lvgl/src/draw/lv_img_buf.c ****  **********************/
  32:Drivers/lvgl/src/draw/lv_img_buf.c **** 
  33:Drivers/lvgl/src/draw/lv_img_buf.c **** /**********************
  34:Drivers/lvgl/src/draw/lv_img_buf.c ****  *      MACROS
  35:Drivers/lvgl/src/draw/lv_img_buf.c ****  **********************/
  36:Drivers/lvgl/src/draw/lv_img_buf.c **** 
  37:Drivers/lvgl/src/draw/lv_img_buf.c **** /**********************
  38:Drivers/lvgl/src/draw/lv_img_buf.c ****  *   GLOBAL FUNCTIONS
  39:Drivers/lvgl/src/draw/lv_img_buf.c ****  **********************/
  40:Drivers/lvgl/src/draw/lv_img_buf.c **** 
  41:Drivers/lvgl/src/draw/lv_img_buf.c **** lv_color_t lv_img_buf_get_px_color(const lv_img_dsc_t * dsc, lv_coord_t x, lv_coord_t y, lv_color_t
  42:Drivers/lvgl/src/draw/lv_img_buf.c **** {
  83              		.loc 1 42 1 is_stmt 1 view -0
  84              		.cfi_startproc
  85              		@ args = 0, pretend = 0, frame = 8
  86              		@ frame_needed = 0, uses_anonymous_args = 0
  87              		.loc 1 42 1 is_stmt 0 view .LVU11
  88 0000 F0B5     		push	{r4, r5, r6, r7, lr}
  89              		.cfi_def_cfa_offset 20
  90              		.cfi_offset 4, -20
  91              		.cfi_offset 5, -16
  92              		.cfi_offset 6, -12
  93              		.cfi_offset 7, -8
  94              		.cfi_offset 14, -4
  95 0002 83B0     		sub	sp, sp, #12
  96              		.cfi_def_cfa_offset 32
  97 0004 0546     		mov	r5, r0
  98 0006 0C46     		mov	r4, r1
  99 0008 1646     		mov	r6, r2
  43:Drivers/lvgl/src/draw/lv_img_buf.c ****     lv_color_t p_color = lv_color_black();
 100              		.loc 1 43 5 is_stmt 1 view .LVU12
 101              	.LBB27:
 102              	.LBI27:
ARM GAS  /var/folders/lp/x54gwt890xv47sdkqj1k04q40000gn/T//ccZWiB8D.s 			page 11


 429:Drivers/lvgl/src/draw/../misc/lv_color.h **** 
 430:Drivers/lvgl/src/draw/../misc/lv_color.h **** //! @cond Doxygen_Suppress
 431:Drivers/lvgl/src/draw/../misc/lv_color.h **** 
 432:Drivers/lvgl/src/draw/../misc/lv_color.h **** /**
 433:Drivers/lvgl/src/draw/../misc/lv_color.h ****  * Mix two colors with a given ratio.
 434:Drivers/lvgl/src/draw/../misc/lv_color.h ****  * @param c1 the first color to mix (usually the foreground)
 435:Drivers/lvgl/src/draw/../misc/lv_color.h ****  * @param c2 the second color to mix (usually the background)
 436:Drivers/lvgl/src/draw/../misc/lv_color.h ****  * @param mix The ratio of the colors. 0: full `c2`, 255: full `c1`, 127: half `c1` and half`c2`
 437:Drivers/lvgl/src/draw/../misc/lv_color.h ****  * @return the mixed color
 438:Drivers/lvgl/src/draw/../misc/lv_color.h ****  */
 439:Drivers/lvgl/src/draw/../misc/lv_color.h **** static inline lv_color_t LV_ATTRIBUTE_FAST_MEM lv_color_mix(lv_color_t c1, lv_color_t c2, uint8_t m
 440:Drivers/lvgl/src/draw/../misc/lv_color.h **** {
 441:Drivers/lvgl/src/draw/../misc/lv_color.h ****     lv_color_t ret;
 442:Drivers/lvgl/src/draw/../misc/lv_color.h **** 
 443:Drivers/lvgl/src/draw/../misc/lv_color.h **** #if LV_COLOR_DEPTH == 16 && LV_COLOR_MIX_ROUND_OFS == 0
 444:Drivers/lvgl/src/draw/../misc/lv_color.h **** #if LV_COLOR_16_SWAP == 1
 445:Drivers/lvgl/src/draw/../misc/lv_color.h ****     c1.full = c1.full << 8 | c1.full >> 8;
 446:Drivers/lvgl/src/draw/../misc/lv_color.h ****     c2.full = c2.full << 8 | c2.full >> 8;
 447:Drivers/lvgl/src/draw/../misc/lv_color.h **** #endif
 448:Drivers/lvgl/src/draw/../misc/lv_color.h ****     /*Source: https://stackoverflow.com/a/50012418/1999969*/
 449:Drivers/lvgl/src/draw/../misc/lv_color.h ****     mix = (uint32_t)((uint32_t)mix + 4) >> 3;
 450:Drivers/lvgl/src/draw/../misc/lv_color.h ****     uint32_t bg = (uint32_t)((uint32_t)c2.full | ((uint32_t)c2.full << 16)) &
 451:Drivers/lvgl/src/draw/../misc/lv_color.h ****                   0x7E0F81F; /*0b00000111111000001111100000011111*/
 452:Drivers/lvgl/src/draw/../misc/lv_color.h ****     uint32_t fg = (uint32_t)((uint32_t)c1.full | ((uint32_t)c1.full << 16)) & 0x7E0F81F;
 453:Drivers/lvgl/src/draw/../misc/lv_color.h ****     uint32_t result = ((((fg - bg) * mix) >> 5) + bg) & 0x7E0F81F;
 454:Drivers/lvgl/src/draw/../misc/lv_color.h ****     ret.full = (uint16_t)((result >> 16) | result);
 455:Drivers/lvgl/src/draw/../misc/lv_color.h **** #if LV_COLOR_16_SWAP == 1
 456:Drivers/lvgl/src/draw/../misc/lv_color.h ****     ret.full = ret.full << 8 | ret.full >> 8;
 457:Drivers/lvgl/src/draw/../misc/lv_color.h **** #endif
 458:Drivers/lvgl/src/draw/../misc/lv_color.h **** #elif LV_COLOR_DEPTH != 1
 459:Drivers/lvgl/src/draw/../misc/lv_color.h ****     /*LV_COLOR_DEPTH == 8, 16 or 32*/
 460:Drivers/lvgl/src/draw/../misc/lv_color.h ****     LV_COLOR_SET_R(ret, LV_UDIV255((uint16_t)LV_COLOR_GET_R(c1) * mix + LV_COLOR_GET_R(c2) *
 461:Drivers/lvgl/src/draw/../misc/lv_color.h ****                                    (255 - mix) + LV_COLOR_MIX_ROUND_OFS));
 462:Drivers/lvgl/src/draw/../misc/lv_color.h ****     LV_COLOR_SET_G(ret, LV_UDIV255((uint16_t)LV_COLOR_GET_G(c1) * mix + LV_COLOR_GET_G(c2) *
 463:Drivers/lvgl/src/draw/../misc/lv_color.h ****                                    (255 - mix) + LV_COLOR_MIX_ROUND_OFS));
 464:Drivers/lvgl/src/draw/../misc/lv_color.h ****     LV_COLOR_SET_B(ret, LV_UDIV255((uint16_t)LV_COLOR_GET_B(c1) * mix + LV_COLOR_GET_B(c2) *
 465:Drivers/lvgl/src/draw/../misc/lv_color.h ****                                    (255 - mix) + LV_COLOR_MIX_ROUND_OFS));
 466:Drivers/lvgl/src/draw/../misc/lv_color.h ****     LV_COLOR_SET_A(ret, 0xFF);
 467:Drivers/lvgl/src/draw/../misc/lv_color.h **** #else
 468:Drivers/lvgl/src/draw/../misc/lv_color.h ****     /*LV_COLOR_DEPTH == 1*/
 469:Drivers/lvgl/src/draw/../misc/lv_color.h ****     ret.full = mix > LV_OPA_50 ? c1.full : c2.full;
 470:Drivers/lvgl/src/draw/../misc/lv_color.h **** #endif
 471:Drivers/lvgl/src/draw/../misc/lv_color.h **** 
 472:Drivers/lvgl/src/draw/../misc/lv_color.h ****     return ret;
 473:Drivers/lvgl/src/draw/../misc/lv_color.h **** }
 474:Drivers/lvgl/src/draw/../misc/lv_color.h **** 
 475:Drivers/lvgl/src/draw/../misc/lv_color.h **** static inline void LV_ATTRIBUTE_FAST_MEM lv_color_premult(lv_color_t c, uint8_t mix, uint16_t * out
 476:Drivers/lvgl/src/draw/../misc/lv_color.h **** {
 477:Drivers/lvgl/src/draw/../misc/lv_color.h **** #if LV_COLOR_DEPTH != 1
 478:Drivers/lvgl/src/draw/../misc/lv_color.h ****     out[0] = (uint16_t)LV_COLOR_GET_R(c) * mix;
 479:Drivers/lvgl/src/draw/../misc/lv_color.h ****     out[1] = (uint16_t)LV_COLOR_GET_G(c) * mix;
 480:Drivers/lvgl/src/draw/../misc/lv_color.h ****     out[2] = (uint16_t)LV_COLOR_GET_B(c) * mix;
 481:Drivers/lvgl/src/draw/../misc/lv_color.h **** #else
 482:Drivers/lvgl/src/draw/../misc/lv_color.h ****     (void) mix;
 483:Drivers/lvgl/src/draw/../misc/lv_color.h ****     /*Pre-multiplication can't be used with 1 bpp*/
 484:Drivers/lvgl/src/draw/../misc/lv_color.h ****     out[0] = LV_COLOR_GET_R(c);
 485:Drivers/lvgl/src/draw/../misc/lv_color.h ****     out[1] = LV_COLOR_GET_G(c);
ARM GAS  /var/folders/lp/x54gwt890xv47sdkqj1k04q40000gn/T//ccZWiB8D.s 			page 12


 486:Drivers/lvgl/src/draw/../misc/lv_color.h ****     out[2] = LV_COLOR_GET_B(c);
 487:Drivers/lvgl/src/draw/../misc/lv_color.h **** #endif
 488:Drivers/lvgl/src/draw/../misc/lv_color.h **** 
 489:Drivers/lvgl/src/draw/../misc/lv_color.h **** }
 490:Drivers/lvgl/src/draw/../misc/lv_color.h **** 
 491:Drivers/lvgl/src/draw/../misc/lv_color.h **** /**
 492:Drivers/lvgl/src/draw/../misc/lv_color.h ****  * Mix two colors with a given ratio. It runs faster then `lv_color_mix` but requires some pre comp
 493:Drivers/lvgl/src/draw/../misc/lv_color.h ****  * @param premult_c1 The first color. Should be preprocessed with `lv_color_premult(c1)`
 494:Drivers/lvgl/src/draw/../misc/lv_color.h ****  * @param c2 The second color. As it is no pre computation required on it
 495:Drivers/lvgl/src/draw/../misc/lv_color.h ****  * @param mix The ratio of the colors. 0: full `c1`, 255: full `c2`, 127: half `c1` and half `c2`.
 496:Drivers/lvgl/src/draw/../misc/lv_color.h ****  *            Should be modified like mix = `255 - mix`
 497:Drivers/lvgl/src/draw/../misc/lv_color.h ****  * @return the mixed color
 498:Drivers/lvgl/src/draw/../misc/lv_color.h ****  * @note 255 won't give clearly `c1`.
 499:Drivers/lvgl/src/draw/../misc/lv_color.h ****  */
 500:Drivers/lvgl/src/draw/../misc/lv_color.h **** static inline lv_color_t LV_ATTRIBUTE_FAST_MEM lv_color_mix_premult(uint16_t * premult_c1, lv_color
 501:Drivers/lvgl/src/draw/../misc/lv_color.h **** {
 502:Drivers/lvgl/src/draw/../misc/lv_color.h ****     lv_color_t ret;
 503:Drivers/lvgl/src/draw/../misc/lv_color.h **** #if LV_COLOR_DEPTH != 1
 504:Drivers/lvgl/src/draw/../misc/lv_color.h ****     /*LV_COLOR_DEPTH == 8 or 32*/
 505:Drivers/lvgl/src/draw/../misc/lv_color.h ****     LV_COLOR_SET_R(ret, LV_UDIV255(premult_c1[0] + LV_COLOR_GET_R(c2) * mix + LV_COLOR_MIX_ROUND_OF
 506:Drivers/lvgl/src/draw/../misc/lv_color.h ****     LV_COLOR_SET_G(ret, LV_UDIV255(premult_c1[1] + LV_COLOR_GET_G(c2) * mix + LV_COLOR_MIX_ROUND_OF
 507:Drivers/lvgl/src/draw/../misc/lv_color.h ****     LV_COLOR_SET_B(ret, LV_UDIV255(premult_c1[2] + LV_COLOR_GET_B(c2) * mix + LV_COLOR_MIX_ROUND_OF
 508:Drivers/lvgl/src/draw/../misc/lv_color.h ****     LV_COLOR_SET_A(ret, 0xFF);
 509:Drivers/lvgl/src/draw/../misc/lv_color.h **** #else
 510:Drivers/lvgl/src/draw/../misc/lv_color.h ****     /*LV_COLOR_DEPTH == 1*/
 511:Drivers/lvgl/src/draw/../misc/lv_color.h ****     /*Restore color1*/
 512:Drivers/lvgl/src/draw/../misc/lv_color.h ****     lv_color_t c1;
 513:Drivers/lvgl/src/draw/../misc/lv_color.h ****     LV_COLOR_SET_R(c1, premult_c1[0]);
 514:Drivers/lvgl/src/draw/../misc/lv_color.h ****     LV_COLOR_SET_G(c1, premult_c1[1]);
 515:Drivers/lvgl/src/draw/../misc/lv_color.h ****     LV_COLOR_SET_B(c1, premult_c1[2]);
 516:Drivers/lvgl/src/draw/../misc/lv_color.h ****     ret.full = mix > LV_OPA_50 ? c2.full : c1.full;
 517:Drivers/lvgl/src/draw/../misc/lv_color.h **** #endif
 518:Drivers/lvgl/src/draw/../misc/lv_color.h **** 
 519:Drivers/lvgl/src/draw/../misc/lv_color.h ****     return ret;
 520:Drivers/lvgl/src/draw/../misc/lv_color.h **** }
 521:Drivers/lvgl/src/draw/../misc/lv_color.h **** 
 522:Drivers/lvgl/src/draw/../misc/lv_color.h **** /**
 523:Drivers/lvgl/src/draw/../misc/lv_color.h ****  * Mix two colors. Both color can have alpha value.
 524:Drivers/lvgl/src/draw/../misc/lv_color.h ****  * @param bg_color background color
 525:Drivers/lvgl/src/draw/../misc/lv_color.h ****  * @param bg_opa alpha of the background color
 526:Drivers/lvgl/src/draw/../misc/lv_color.h ****  * @param fg_color foreground color
 527:Drivers/lvgl/src/draw/../misc/lv_color.h ****  * @param fg_opa alpha of the foreground color
 528:Drivers/lvgl/src/draw/../misc/lv_color.h ****  * @param res_color the result color
 529:Drivers/lvgl/src/draw/../misc/lv_color.h ****  * @param res_opa the result opacity
 530:Drivers/lvgl/src/draw/../misc/lv_color.h ****  */
 531:Drivers/lvgl/src/draw/../misc/lv_color.h **** static inline void LV_ATTRIBUTE_FAST_MEM lv_color_mix_with_alpha(lv_color_t bg_color, lv_opa_t bg_o
 532:Drivers/lvgl/src/draw/../misc/lv_color.h ****                                                                  lv_color_t fg_color, lv_opa_t fg_o
 533:Drivers/lvgl/src/draw/../misc/lv_color.h ****                                                                  lv_color_t * res_color, lv_opa_t *
 534:Drivers/lvgl/src/draw/../misc/lv_color.h **** {
 535:Drivers/lvgl/src/draw/../misc/lv_color.h ****     /*Pick the foreground if it's fully opaque or the Background is fully transparent*/
 536:Drivers/lvgl/src/draw/../misc/lv_color.h ****     if(fg_opa >= LV_OPA_MAX || bg_opa <= LV_OPA_MIN) {
 537:Drivers/lvgl/src/draw/../misc/lv_color.h ****         res_color->full = fg_color.full;
 538:Drivers/lvgl/src/draw/../misc/lv_color.h ****         *res_opa = fg_opa;
 539:Drivers/lvgl/src/draw/../misc/lv_color.h ****     }
 540:Drivers/lvgl/src/draw/../misc/lv_color.h ****     /*Transparent foreground: use the Background*/
 541:Drivers/lvgl/src/draw/../misc/lv_color.h ****     else if(fg_opa <= LV_OPA_MIN) {
 542:Drivers/lvgl/src/draw/../misc/lv_color.h ****         res_color->full = bg_color.full;
ARM GAS  /var/folders/lp/x54gwt890xv47sdkqj1k04q40000gn/T//ccZWiB8D.s 			page 13


 543:Drivers/lvgl/src/draw/../misc/lv_color.h ****         *res_opa = bg_opa;
 544:Drivers/lvgl/src/draw/../misc/lv_color.h ****     }
 545:Drivers/lvgl/src/draw/../misc/lv_color.h ****     /*Opaque background: use simple mix*/
 546:Drivers/lvgl/src/draw/../misc/lv_color.h ****     else if(bg_opa >= LV_OPA_MAX) {
 547:Drivers/lvgl/src/draw/../misc/lv_color.h ****         *res_color = lv_color_mix(fg_color, bg_color, fg_opa);
 548:Drivers/lvgl/src/draw/../misc/lv_color.h ****         *res_opa = LV_OPA_COVER;
 549:Drivers/lvgl/src/draw/../misc/lv_color.h ****     }
 550:Drivers/lvgl/src/draw/../misc/lv_color.h ****     /*Both colors have alpha. Expensive calculation need to be applied*/
 551:Drivers/lvgl/src/draw/../misc/lv_color.h ****     else {
 552:Drivers/lvgl/src/draw/../misc/lv_color.h ****         /*Save the parameters and the result. If they will be asked again don't compute again*/
 553:Drivers/lvgl/src/draw/../misc/lv_color.h ****         static lv_opa_t fg_opa_save     = 0;
 554:Drivers/lvgl/src/draw/../misc/lv_color.h ****         static lv_opa_t bg_opa_save     = 0;
 555:Drivers/lvgl/src/draw/../misc/lv_color.h ****         static lv_color_t fg_color_save = _LV_COLOR_ZERO_INITIALIZER;
 556:Drivers/lvgl/src/draw/../misc/lv_color.h ****         static lv_color_t bg_color_save = _LV_COLOR_ZERO_INITIALIZER;
 557:Drivers/lvgl/src/draw/../misc/lv_color.h ****         static lv_color_t res_color_saved = _LV_COLOR_ZERO_INITIALIZER;
 558:Drivers/lvgl/src/draw/../misc/lv_color.h ****         static lv_opa_t res_opa_saved = 0;
 559:Drivers/lvgl/src/draw/../misc/lv_color.h **** 
 560:Drivers/lvgl/src/draw/../misc/lv_color.h ****         if(fg_opa != fg_opa_save || bg_opa != bg_opa_save || fg_color.full != fg_color_save.full ||
 561:Drivers/lvgl/src/draw/../misc/lv_color.h ****            bg_color.full != bg_color_save.full) {
 562:Drivers/lvgl/src/draw/../misc/lv_color.h ****             fg_opa_save        = fg_opa;
 563:Drivers/lvgl/src/draw/../misc/lv_color.h ****             bg_opa_save        = bg_opa;
 564:Drivers/lvgl/src/draw/../misc/lv_color.h ****             fg_color_save.full = fg_color.full;
 565:Drivers/lvgl/src/draw/../misc/lv_color.h ****             bg_color_save.full = bg_color.full;
 566:Drivers/lvgl/src/draw/../misc/lv_color.h ****             /*Info:
 567:Drivers/lvgl/src/draw/../misc/lv_color.h ****              * https://en.wikipedia.org/wiki/Alpha_compositing#Analytical_derivation_of_the_over_op
 568:Drivers/lvgl/src/draw/../misc/lv_color.h ****             res_opa_saved = 255 - ((uint16_t)((uint16_t)(255 - fg_opa) * (255 - bg_opa)) >> 8);
 569:Drivers/lvgl/src/draw/../misc/lv_color.h ****             LV_ASSERT(res_opa_saved != 0);
 570:Drivers/lvgl/src/draw/../misc/lv_color.h ****             lv_opa_t ratio = (uint16_t)((uint16_t)fg_opa * 255) / res_opa_saved;
 571:Drivers/lvgl/src/draw/../misc/lv_color.h ****             res_color_saved = lv_color_mix(fg_color, bg_color, ratio);
 572:Drivers/lvgl/src/draw/../misc/lv_color.h **** 
 573:Drivers/lvgl/src/draw/../misc/lv_color.h ****         }
 574:Drivers/lvgl/src/draw/../misc/lv_color.h **** 
 575:Drivers/lvgl/src/draw/../misc/lv_color.h ****         res_color->full = res_color_saved.full;
 576:Drivers/lvgl/src/draw/../misc/lv_color.h ****         *res_opa = res_opa_saved;
 577:Drivers/lvgl/src/draw/../misc/lv_color.h ****     }
 578:Drivers/lvgl/src/draw/../misc/lv_color.h **** }
 579:Drivers/lvgl/src/draw/../misc/lv_color.h **** 
 580:Drivers/lvgl/src/draw/../misc/lv_color.h **** //! @endcond
 581:Drivers/lvgl/src/draw/../misc/lv_color.h **** 
 582:Drivers/lvgl/src/draw/../misc/lv_color.h **** /**
 583:Drivers/lvgl/src/draw/../misc/lv_color.h ****  * Get the brightness of a color
 584:Drivers/lvgl/src/draw/../misc/lv_color.h ****  * @param color a color
 585:Drivers/lvgl/src/draw/../misc/lv_color.h ****  * @return the brightness [0..255]
 586:Drivers/lvgl/src/draw/../misc/lv_color.h ****  */
 587:Drivers/lvgl/src/draw/../misc/lv_color.h **** static inline uint8_t lv_color_brightness(lv_color_t color)
 588:Drivers/lvgl/src/draw/../misc/lv_color.h **** {
 589:Drivers/lvgl/src/draw/../misc/lv_color.h ****     lv_color32_t c32;
 590:Drivers/lvgl/src/draw/../misc/lv_color.h ****     c32.full        = lv_color_to32(color);
 591:Drivers/lvgl/src/draw/../misc/lv_color.h ****     uint16_t bright = (uint16_t)(3u * LV_COLOR_GET_R32(c32) + LV_COLOR_GET_B32(c32) + 4u * LV_COLOR
 592:Drivers/lvgl/src/draw/../misc/lv_color.h ****     return (uint8_t)(bright >> 3);
 593:Drivers/lvgl/src/draw/../misc/lv_color.h **** }
 594:Drivers/lvgl/src/draw/../misc/lv_color.h **** 
 595:Drivers/lvgl/src/draw/../misc/lv_color.h **** static inline lv_color_t lv_color_make(uint8_t r, uint8_t g, uint8_t b)
 596:Drivers/lvgl/src/draw/../misc/lv_color.h **** {
 597:Drivers/lvgl/src/draw/../misc/lv_color.h ****     return _LV_COLOR_MAKE_TYPE_HELPER LV_COLOR_MAKE(r, g, b);
 598:Drivers/lvgl/src/draw/../misc/lv_color.h **** }
 599:Drivers/lvgl/src/draw/../misc/lv_color.h **** 
ARM GAS  /var/folders/lp/x54gwt890xv47sdkqj1k04q40000gn/T//ccZWiB8D.s 			page 14


 600:Drivers/lvgl/src/draw/../misc/lv_color.h **** static inline lv_color_t lv_color_hex(uint32_t c)
 601:Drivers/lvgl/src/draw/../misc/lv_color.h **** {
 602:Drivers/lvgl/src/draw/../misc/lv_color.h **** #if LV_COLOR_DEPTH == 16
 603:Drivers/lvgl/src/draw/../misc/lv_color.h ****     lv_color_t r;
 604:Drivers/lvgl/src/draw/../misc/lv_color.h **** #if LV_COLOR_16_SWAP == 0
 605:Drivers/lvgl/src/draw/../misc/lv_color.h ****     /* Convert a 4 bytes per pixel in format ARGB32 to R5G6B5 format
 606:Drivers/lvgl/src/draw/../misc/lv_color.h ****         naive way (by calling lv_color_make with components):
 607:Drivers/lvgl/src/draw/../misc/lv_color.h ****                     r = ((c & 0xFF0000) >> 19)
 608:Drivers/lvgl/src/draw/../misc/lv_color.h ****                     g = ((c & 0xFF00) >> 10)
 609:Drivers/lvgl/src/draw/../misc/lv_color.h ****                     b = ((c & 0xFF) >> 3)
 610:Drivers/lvgl/src/draw/../misc/lv_color.h ****                     rgb565 = (r << 11) | (g << 5) | b
 611:Drivers/lvgl/src/draw/../misc/lv_color.h ****         That's 3 mask, 5 bitshift and 2 or operations
 612:Drivers/lvgl/src/draw/../misc/lv_color.h **** 
 613:Drivers/lvgl/src/draw/../misc/lv_color.h ****         A bit better:
 614:Drivers/lvgl/src/draw/../misc/lv_color.h ****                     r = ((c & 0xF80000) >> 8)
 615:Drivers/lvgl/src/draw/../misc/lv_color.h ****                     g = ((c & 0xFC00) >> 5)
 616:Drivers/lvgl/src/draw/../misc/lv_color.h ****                     b = ((c & 0xFF) >> 3)
 617:Drivers/lvgl/src/draw/../misc/lv_color.h ****                     rgb565 = r | g | b
 618:Drivers/lvgl/src/draw/../misc/lv_color.h ****         That's 3 mask, 3 bitshifts and 2 or operations */
 619:Drivers/lvgl/src/draw/../misc/lv_color.h ****     r.full = (uint16_t)(((c & 0xF80000) >> 8) | ((c & 0xFC00) >> 5) | ((c & 0xFF) >> 3));
 620:Drivers/lvgl/src/draw/../misc/lv_color.h **** #else
 621:Drivers/lvgl/src/draw/../misc/lv_color.h ****     /* We want: rrrr rrrr GGGg gggg bbbb bbbb => gggb bbbb rrrr rGGG */
 622:Drivers/lvgl/src/draw/../misc/lv_color.h ****     r.full = (uint16_t)(((c & 0xF80000) >> 16) | ((c & 0xFC00) >> 13) | ((c & 0x1C00) << 3) | ((c &
 623:Drivers/lvgl/src/draw/../misc/lv_color.h **** #endif
 624:Drivers/lvgl/src/draw/../misc/lv_color.h ****     return r;
 625:Drivers/lvgl/src/draw/../misc/lv_color.h **** #elif LV_COLOR_DEPTH == 32
 626:Drivers/lvgl/src/draw/../misc/lv_color.h ****     lv_color_t r;
 627:Drivers/lvgl/src/draw/../misc/lv_color.h ****     r.full = c | 0xFF000000;
 628:Drivers/lvgl/src/draw/../misc/lv_color.h ****     return r;
 629:Drivers/lvgl/src/draw/../misc/lv_color.h **** #else /*LV_COLOR_DEPTH == 8*/
 630:Drivers/lvgl/src/draw/../misc/lv_color.h ****     return lv_color_make((uint8_t)((c >> 16) & 0xFF), (uint8_t)((c >> 8) & 0xFF), (uint8_t)(c & 0xF
 631:Drivers/lvgl/src/draw/../misc/lv_color.h **** #endif
 632:Drivers/lvgl/src/draw/../misc/lv_color.h **** }
 633:Drivers/lvgl/src/draw/../misc/lv_color.h **** 
 634:Drivers/lvgl/src/draw/../misc/lv_color.h **** static inline lv_color_t lv_color_hex3(uint32_t c)
 635:Drivers/lvgl/src/draw/../misc/lv_color.h **** {
 636:Drivers/lvgl/src/draw/../misc/lv_color.h ****     return lv_color_make((uint8_t)(((c >> 4) & 0xF0) | ((c >> 8) & 0xF)), (uint8_t)((c & 0xF0) | ((
 637:Drivers/lvgl/src/draw/../misc/lv_color.h ****                          (uint8_t)((c & 0xF) | ((c & 0xF) << 4)));
 638:Drivers/lvgl/src/draw/../misc/lv_color.h **** }
 639:Drivers/lvgl/src/draw/../misc/lv_color.h **** 
 640:Drivers/lvgl/src/draw/../misc/lv_color.h **** static inline void lv_color_filter_dsc_init(lv_color_filter_dsc_t * dsc, lv_color_filter_cb_t cb)
 641:Drivers/lvgl/src/draw/../misc/lv_color.h **** {
 642:Drivers/lvgl/src/draw/../misc/lv_color.h ****     dsc->filter_cb = cb;
 643:Drivers/lvgl/src/draw/../misc/lv_color.h **** }
 644:Drivers/lvgl/src/draw/../misc/lv_color.h **** 
 645:Drivers/lvgl/src/draw/../misc/lv_color.h **** //! @cond Doxygen_Suppress
 646:Drivers/lvgl/src/draw/../misc/lv_color.h **** //!
 647:Drivers/lvgl/src/draw/../misc/lv_color.h **** void /* LV_ATTRIBUTE_FAST_MEM */ lv_color_fill(lv_color_t * buf, lv_color_t color, uint32_t px_num)
 648:Drivers/lvgl/src/draw/../misc/lv_color.h **** 
 649:Drivers/lvgl/src/draw/../misc/lv_color.h **** //! @endcond
 650:Drivers/lvgl/src/draw/../misc/lv_color.h **** lv_color_t lv_color_lighten(lv_color_t c, lv_opa_t lvl);
 651:Drivers/lvgl/src/draw/../misc/lv_color.h **** 
 652:Drivers/lvgl/src/draw/../misc/lv_color.h **** lv_color_t lv_color_darken(lv_color_t c, lv_opa_t lvl);
 653:Drivers/lvgl/src/draw/../misc/lv_color.h **** 
 654:Drivers/lvgl/src/draw/../misc/lv_color.h **** lv_color_t lv_color_change_lightness(lv_color_t c, lv_opa_t lvl);
 655:Drivers/lvgl/src/draw/../misc/lv_color.h **** 
 656:Drivers/lvgl/src/draw/../misc/lv_color.h **** /**
ARM GAS  /var/folders/lp/x54gwt890xv47sdkqj1k04q40000gn/T//ccZWiB8D.s 			page 15


 657:Drivers/lvgl/src/draw/../misc/lv_color.h ****  * Convert a HSV color to RGB
 658:Drivers/lvgl/src/draw/../misc/lv_color.h ****  * @param h hue [0..359]
 659:Drivers/lvgl/src/draw/../misc/lv_color.h ****  * @param s saturation [0..100]
 660:Drivers/lvgl/src/draw/../misc/lv_color.h ****  * @param v value [0..100]
 661:Drivers/lvgl/src/draw/../misc/lv_color.h ****  * @return the given RGB color in RGB (with LV_COLOR_DEPTH depth)
 662:Drivers/lvgl/src/draw/../misc/lv_color.h ****  */
 663:Drivers/lvgl/src/draw/../misc/lv_color.h **** lv_color_t lv_color_hsv_to_rgb(uint16_t h, uint8_t s, uint8_t v);
 664:Drivers/lvgl/src/draw/../misc/lv_color.h **** 
 665:Drivers/lvgl/src/draw/../misc/lv_color.h **** /**
 666:Drivers/lvgl/src/draw/../misc/lv_color.h ****  * Convert a 32-bit RGB color to HSV
 667:Drivers/lvgl/src/draw/../misc/lv_color.h ****  * @param r8 8-bit red
 668:Drivers/lvgl/src/draw/../misc/lv_color.h ****  * @param g8 8-bit green
 669:Drivers/lvgl/src/draw/../misc/lv_color.h ****  * @param b8 8-bit blue
 670:Drivers/lvgl/src/draw/../misc/lv_color.h ****  * @return the given RGB color in HSV
 671:Drivers/lvgl/src/draw/../misc/lv_color.h ****  */
 672:Drivers/lvgl/src/draw/../misc/lv_color.h **** lv_color_hsv_t lv_color_rgb_to_hsv(uint8_t r8, uint8_t g8, uint8_t b8);
 673:Drivers/lvgl/src/draw/../misc/lv_color.h **** 
 674:Drivers/lvgl/src/draw/../misc/lv_color.h **** /**
 675:Drivers/lvgl/src/draw/../misc/lv_color.h ****  * Convert a color to HSV
 676:Drivers/lvgl/src/draw/../misc/lv_color.h ****  * @param color color
 677:Drivers/lvgl/src/draw/../misc/lv_color.h ****  * @return the given color in HSV
 678:Drivers/lvgl/src/draw/../misc/lv_color.h ****  */
 679:Drivers/lvgl/src/draw/../misc/lv_color.h **** lv_color_hsv_t lv_color_to_hsv(lv_color_t color);
 680:Drivers/lvgl/src/draw/../misc/lv_color.h **** 
 681:Drivers/lvgl/src/draw/../misc/lv_color.h **** /**
 682:Drivers/lvgl/src/draw/../misc/lv_color.h ****  * Just a wrapper around LV_COLOR_CHROMA_KEY because it might be more convenient to use a function 
 683:Drivers/lvgl/src/draw/../misc/lv_color.h ****  * @return LV_COLOR_CHROMA_KEY
 684:Drivers/lvgl/src/draw/../misc/lv_color.h ****  */
 685:Drivers/lvgl/src/draw/../misc/lv_color.h **** static inline lv_color_t lv_color_chroma_key(void)
 686:Drivers/lvgl/src/draw/../misc/lv_color.h **** {
 687:Drivers/lvgl/src/draw/../misc/lv_color.h ****     return LV_COLOR_CHROMA_KEY;
 688:Drivers/lvgl/src/draw/../misc/lv_color.h **** }
 689:Drivers/lvgl/src/draw/../misc/lv_color.h **** 
 690:Drivers/lvgl/src/draw/../misc/lv_color.h **** /**********************
 691:Drivers/lvgl/src/draw/../misc/lv_color.h ****  *  PREDEFINED COLORS
 692:Drivers/lvgl/src/draw/../misc/lv_color.h ****  **********************/
 693:Drivers/lvgl/src/draw/../misc/lv_color.h **** /*Source: https://vuetifyjs.com/en/styles/colors/#material-colors*/
 694:Drivers/lvgl/src/draw/../misc/lv_color.h **** 
 695:Drivers/lvgl/src/draw/../misc/lv_color.h **** lv_color_t lv_palette_main(lv_palette_t p);
 696:Drivers/lvgl/src/draw/../misc/lv_color.h **** static inline lv_color_t lv_color_white(void)
 697:Drivers/lvgl/src/draw/../misc/lv_color.h **** {
 698:Drivers/lvgl/src/draw/../misc/lv_color.h ****     return lv_color_make(0xff, 0xff, 0xff);
 699:Drivers/lvgl/src/draw/../misc/lv_color.h **** }
 700:Drivers/lvgl/src/draw/../misc/lv_color.h **** static inline lv_color_t lv_color_black(void)
 103              		.loc 2 700 26 view .LVU13
 701:Drivers/lvgl/src/draw/../misc/lv_color.h **** {
 702:Drivers/lvgl/src/draw/../misc/lv_color.h ****     return lv_color_make(0x00, 0x0, 0x00);
 104              		.loc 2 702 5 view .LVU14
 105              	.LVL5:
 106              	.LBB28:
 107              	.LBI28:
 595:Drivers/lvgl/src/draw/../misc/lv_color.h **** {
 108              		.loc 2 595 26 view .LVU15
 109              	.LBB29:
 597:Drivers/lvgl/src/draw/../misc/lv_color.h **** }
 110              		.loc 2 597 5 view .LVU16
 597:Drivers/lvgl/src/draw/../misc/lv_color.h **** }
ARM GAS  /var/folders/lp/x54gwt890xv47sdkqj1k04q40000gn/T//ccZWiB8D.s 			page 16


 111              		.loc 2 597 12 is_stmt 0 view .LVU17
 112 000a 4FF0000C 		mov	ip, #0	@ movhi
 113 000e 2CF0070C 		bic	ip, ip, #7
 114 0012 2CF0F80C 		bic	ip, ip, #248
 115 0016 2CF4F85C 		bic	ip, ip, #7936
 116 001a 2CF4604C 		bic	ip, ip, #57344
 117              	.LVL6:
 597:Drivers/lvgl/src/draw/../misc/lv_color.h **** }
 118              		.loc 2 597 12 view .LVU18
 119              	.LBE29:
 120              	.LBE28:
 121              	.LBE27:
 122              		.loc 1 43 26 view .LVU19
 123 001e ADF804C0 		strh	ip, [sp, #4]	@ movhi
  44:Drivers/lvgl/src/draw/lv_img_buf.c ****     uint8_t * buf_u8 = (uint8_t *)dsc->data;
 124              		.loc 1 44 5 is_stmt 1 view .LVU20
 125              		.loc 1 44 15 is_stmt 0 view .LVU21
 126 0022 8768     		ldr	r7, [r0, #8]
 127              	.LVL7:
  45:Drivers/lvgl/src/draw/lv_img_buf.c **** 
  46:Drivers/lvgl/src/draw/lv_img_buf.c ****     if(dsc->header.cf == LV_IMG_CF_TRUE_COLOR || dsc->header.cf == LV_IMG_CF_TRUE_COLOR_CHROMA_KEYE
 128              		.loc 1 46 5 is_stmt 1 view .LVU22
 129              		.loc 1 46 23 is_stmt 0 view .LVU23
 130 0024 0178     		ldrb	r1, [r0]	@ zero_extendqisi2
 131              	.LVL8:
 132              		.loc 1 46 23 view .LVU24
 133 0026 01F01F01 		and	r1, r1, #31
 134 002a 0439     		subs	r1, r1, #4
 135 002c 1029     		cmp	r1, #16
 136 002e 25D8     		bhi	.L3
 137 0030 DFE801F0 		tbb	[pc, r1]
 138              	.LVL9:
 139              	.L5:
 140 0034 09       		.byte	(.L4-.L5)/2
 141 0035 09       		.byte	(.L4-.L5)/2
 142 0036 09       		.byte	(.L4-.L5)/2
 143 0037 28       		.byte	(.L10-.L5)/2
 144 0038 3E       		.byte	(.L9-.L5)/2
 145 0039 56       		.byte	(.L8-.L5)/2
 146 003a 6F       		.byte	(.L7-.L5)/2
 147 003b 7A       		.byte	(.L6-.L5)/2
 148 003c 7A       		.byte	(.L6-.L5)/2
 149 003d 7A       		.byte	(.L6-.L5)/2
 150 003e 7A       		.byte	(.L6-.L5)/2
 151 003f 24       		.byte	(.L3-.L5)/2
 152 0040 24       		.byte	(.L3-.L5)/2
 153 0041 24       		.byte	(.L3-.L5)/2
 154 0042 24       		.byte	(.L3-.L5)/2
 155 0043 24       		.byte	(.L3-.L5)/2
 156 0044 09       		.byte	(.L4-.L5)/2
 157 0045 00       		.p2align 1
 158              	.L4:
 159              	.LBB30:
  47:Drivers/lvgl/src/draw/lv_img_buf.c ****        dsc->header.cf == LV_IMG_CF_TRUE_COLOR_ALPHA || dsc->header.cf == LV_IMG_CF_RGB565A8) {
  48:Drivers/lvgl/src/draw/lv_img_buf.c ****         uint8_t px_size = lv_img_cf_get_px_size(dsc->header.cf) >> 3;
 160              		.loc 1 48 9 is_stmt 1 view .LVU25
 161              		.loc 1 48 60 is_stmt 0 view .LVU26
ARM GAS  /var/folders/lp/x54gwt890xv47sdkqj1k04q40000gn/T//ccZWiB8D.s 			page 17


 162 0046 0078     		ldrb	r0, [r0]	@ zero_extendqisi2
 163              	.LVL10:
 164              		.loc 1 48 27 view .LVU27
 165 0048 00F01F00 		and	r0, r0, #31
 166 004c FFF7FEFF 		bl	lv_img_cf_get_px_size
 167              	.LVL11:
 168              		.loc 1 48 17 discriminator 1 view .LVU28
 169 0050 C0F3C700 		ubfx	r0, r0, #3, #8
 170              	.LVL12:
  49:Drivers/lvgl/src/draw/lv_img_buf.c ****         uint32_t px     = dsc->header.w * y * px_size + x * px_size;
 171              		.loc 1 49 9 is_stmt 1 view .LVU29
 172              		.loc 1 49 38 is_stmt 0 view .LVU30
 173 0054 2B68     		ldr	r3, [r5]
 174 0056 C3F38A23 		ubfx	r3, r3, #10, #11
 175              		.loc 1 49 41 view .LVU31
 176 005a 06FB03F3 		mul	r3, r6, r3
 177              		.loc 1 49 59 view .LVU32
 178 005e 00FB04F4 		mul	r4, r0, r4
 179              	.LVL13:
 180              		.loc 1 49 55 view .LVU33
 181 0062 00FB0344 		mla	r4, r0, r3, r4
 182              	.LVL14:
  50:Drivers/lvgl/src/draw/lv_img_buf.c ****         lv_memcpy_small(&p_color, &buf_u8[px], sizeof(lv_color_t));
 183              		.loc 1 50 9 is_stmt 1 view .LVU34
 184              		.loc 1 50 35 is_stmt 0 view .LVU35
 185 0066 3C44     		add	r4, r4, r7
 186              	.LVL15:
 187              	.LBB31:
 188              	.LBI31:
 189              		.file 3 "Drivers/lvgl/src/draw/../misc/lv_mem.h"
   1:Drivers/lvgl/src/draw/../misc/lv_mem.h **** /**
   2:Drivers/lvgl/src/draw/../misc/lv_mem.h ****  * @file lv_mem.h
   3:Drivers/lvgl/src/draw/../misc/lv_mem.h ****  *
   4:Drivers/lvgl/src/draw/../misc/lv_mem.h ****  */
   5:Drivers/lvgl/src/draw/../misc/lv_mem.h **** 
   6:Drivers/lvgl/src/draw/../misc/lv_mem.h **** #ifndef LV_MEM_H
   7:Drivers/lvgl/src/draw/../misc/lv_mem.h **** #define LV_MEM_H
   8:Drivers/lvgl/src/draw/../misc/lv_mem.h **** 
   9:Drivers/lvgl/src/draw/../misc/lv_mem.h **** #ifdef __cplusplus
  10:Drivers/lvgl/src/draw/../misc/lv_mem.h **** extern "C" {
  11:Drivers/lvgl/src/draw/../misc/lv_mem.h **** #endif
  12:Drivers/lvgl/src/draw/../misc/lv_mem.h **** 
  13:Drivers/lvgl/src/draw/../misc/lv_mem.h **** /*********************
  14:Drivers/lvgl/src/draw/../misc/lv_mem.h ****  *      INCLUDES
  15:Drivers/lvgl/src/draw/../misc/lv_mem.h ****  *********************/
  16:Drivers/lvgl/src/draw/../misc/lv_mem.h **** #include "../lv_conf_internal.h"
  17:Drivers/lvgl/src/draw/../misc/lv_mem.h **** 
  18:Drivers/lvgl/src/draw/../misc/lv_mem.h **** #include <stdint.h>
  19:Drivers/lvgl/src/draw/../misc/lv_mem.h **** #include <stddef.h>
  20:Drivers/lvgl/src/draw/../misc/lv_mem.h **** #include <string.h>
  21:Drivers/lvgl/src/draw/../misc/lv_mem.h **** 
  22:Drivers/lvgl/src/draw/../misc/lv_mem.h **** #include "lv_types.h"
  23:Drivers/lvgl/src/draw/../misc/lv_mem.h **** 
  24:Drivers/lvgl/src/draw/../misc/lv_mem.h **** /*********************
  25:Drivers/lvgl/src/draw/../misc/lv_mem.h ****  *      DEFINES
  26:Drivers/lvgl/src/draw/../misc/lv_mem.h ****  *********************/
  27:Drivers/lvgl/src/draw/../misc/lv_mem.h **** 
ARM GAS  /var/folders/lp/x54gwt890xv47sdkqj1k04q40000gn/T//ccZWiB8D.s 			page 18


  28:Drivers/lvgl/src/draw/../misc/lv_mem.h **** /**********************
  29:Drivers/lvgl/src/draw/../misc/lv_mem.h ****  *      TYPEDEFS
  30:Drivers/lvgl/src/draw/../misc/lv_mem.h ****  **********************/
  31:Drivers/lvgl/src/draw/../misc/lv_mem.h **** 
  32:Drivers/lvgl/src/draw/../misc/lv_mem.h **** /**
  33:Drivers/lvgl/src/draw/../misc/lv_mem.h ****  * Heap information structure.
  34:Drivers/lvgl/src/draw/../misc/lv_mem.h ****  */
  35:Drivers/lvgl/src/draw/../misc/lv_mem.h **** typedef struct {
  36:Drivers/lvgl/src/draw/../misc/lv_mem.h ****     uint32_t total_size; /**< Total heap size*/
  37:Drivers/lvgl/src/draw/../misc/lv_mem.h ****     uint32_t free_cnt;
  38:Drivers/lvgl/src/draw/../misc/lv_mem.h ****     uint32_t free_size; /**< Size of available memory*/
  39:Drivers/lvgl/src/draw/../misc/lv_mem.h ****     uint32_t free_biggest_size;
  40:Drivers/lvgl/src/draw/../misc/lv_mem.h ****     uint32_t used_cnt;
  41:Drivers/lvgl/src/draw/../misc/lv_mem.h ****     uint32_t max_used; /**< Max size of Heap memory used*/
  42:Drivers/lvgl/src/draw/../misc/lv_mem.h ****     uint8_t used_pct; /**< Percentage used*/
  43:Drivers/lvgl/src/draw/../misc/lv_mem.h ****     uint8_t frag_pct; /**< Amount of fragmentation*/
  44:Drivers/lvgl/src/draw/../misc/lv_mem.h **** } lv_mem_monitor_t;
  45:Drivers/lvgl/src/draw/../misc/lv_mem.h **** 
  46:Drivers/lvgl/src/draw/../misc/lv_mem.h **** typedef struct {
  47:Drivers/lvgl/src/draw/../misc/lv_mem.h ****     void * p;
  48:Drivers/lvgl/src/draw/../misc/lv_mem.h ****     uint16_t size;
  49:Drivers/lvgl/src/draw/../misc/lv_mem.h ****     uint8_t used : 1;
  50:Drivers/lvgl/src/draw/../misc/lv_mem.h **** } lv_mem_buf_t;
  51:Drivers/lvgl/src/draw/../misc/lv_mem.h **** 
  52:Drivers/lvgl/src/draw/../misc/lv_mem.h **** typedef lv_mem_buf_t lv_mem_buf_arr_t[LV_MEM_BUF_MAX_NUM];
  53:Drivers/lvgl/src/draw/../misc/lv_mem.h **** 
  54:Drivers/lvgl/src/draw/../misc/lv_mem.h **** /**********************
  55:Drivers/lvgl/src/draw/../misc/lv_mem.h ****  * GLOBAL PROTOTYPES
  56:Drivers/lvgl/src/draw/../misc/lv_mem.h ****  **********************/
  57:Drivers/lvgl/src/draw/../misc/lv_mem.h **** 
  58:Drivers/lvgl/src/draw/../misc/lv_mem.h **** /**
  59:Drivers/lvgl/src/draw/../misc/lv_mem.h ****  * Initialize the dyn_mem module (work memory and other variables)
  60:Drivers/lvgl/src/draw/../misc/lv_mem.h ****  */
  61:Drivers/lvgl/src/draw/../misc/lv_mem.h **** void lv_mem_init(void);
  62:Drivers/lvgl/src/draw/../misc/lv_mem.h **** 
  63:Drivers/lvgl/src/draw/../misc/lv_mem.h **** /**
  64:Drivers/lvgl/src/draw/../misc/lv_mem.h ****  * Clean up the memory buffer which frees all the allocated memories.
  65:Drivers/lvgl/src/draw/../misc/lv_mem.h ****  * @note It work only if `LV_MEM_CUSTOM == 0`
  66:Drivers/lvgl/src/draw/../misc/lv_mem.h ****  */
  67:Drivers/lvgl/src/draw/../misc/lv_mem.h **** void lv_mem_deinit(void);
  68:Drivers/lvgl/src/draw/../misc/lv_mem.h **** 
  69:Drivers/lvgl/src/draw/../misc/lv_mem.h **** /**
  70:Drivers/lvgl/src/draw/../misc/lv_mem.h ****  * Allocate a memory dynamically
  71:Drivers/lvgl/src/draw/../misc/lv_mem.h ****  * @param size size of the memory to allocate in bytes
  72:Drivers/lvgl/src/draw/../misc/lv_mem.h ****  * @return pointer to the allocated memory
  73:Drivers/lvgl/src/draw/../misc/lv_mem.h ****  */
  74:Drivers/lvgl/src/draw/../misc/lv_mem.h **** void * lv_mem_alloc(size_t size);
  75:Drivers/lvgl/src/draw/../misc/lv_mem.h **** 
  76:Drivers/lvgl/src/draw/../misc/lv_mem.h **** /**
  77:Drivers/lvgl/src/draw/../misc/lv_mem.h ****  * Free an allocated data
  78:Drivers/lvgl/src/draw/../misc/lv_mem.h ****  * @param data pointer to an allocated memory
  79:Drivers/lvgl/src/draw/../misc/lv_mem.h ****  */
  80:Drivers/lvgl/src/draw/../misc/lv_mem.h **** void lv_mem_free(void * data);
  81:Drivers/lvgl/src/draw/../misc/lv_mem.h **** 
  82:Drivers/lvgl/src/draw/../misc/lv_mem.h **** /**
  83:Drivers/lvgl/src/draw/../misc/lv_mem.h ****  * Reallocate a memory with a new size. The old content will be kept.
  84:Drivers/lvgl/src/draw/../misc/lv_mem.h ****  * @param data pointer to an allocated memory.
ARM GAS  /var/folders/lp/x54gwt890xv47sdkqj1k04q40000gn/T//ccZWiB8D.s 			page 19


  85:Drivers/lvgl/src/draw/../misc/lv_mem.h ****  * Its content will be copied to the new memory block and freed
  86:Drivers/lvgl/src/draw/../misc/lv_mem.h ****  * @param new_size the desired new size in byte
  87:Drivers/lvgl/src/draw/../misc/lv_mem.h ****  * @return pointer to the new memory, NULL on failure
  88:Drivers/lvgl/src/draw/../misc/lv_mem.h ****  */
  89:Drivers/lvgl/src/draw/../misc/lv_mem.h **** void * lv_mem_realloc(void * data_p, size_t new_size);
  90:Drivers/lvgl/src/draw/../misc/lv_mem.h **** 
  91:Drivers/lvgl/src/draw/../misc/lv_mem.h **** /**
  92:Drivers/lvgl/src/draw/../misc/lv_mem.h ****  *
  93:Drivers/lvgl/src/draw/../misc/lv_mem.h ****  * @return
  94:Drivers/lvgl/src/draw/../misc/lv_mem.h ****  */
  95:Drivers/lvgl/src/draw/../misc/lv_mem.h **** lv_res_t lv_mem_test(void);
  96:Drivers/lvgl/src/draw/../misc/lv_mem.h **** 
  97:Drivers/lvgl/src/draw/../misc/lv_mem.h **** /**
  98:Drivers/lvgl/src/draw/../misc/lv_mem.h ****  * Give information about the work memory of dynamic allocation
  99:Drivers/lvgl/src/draw/../misc/lv_mem.h ****  * @param mon_p pointer to a lv_mem_monitor_t variable,
 100:Drivers/lvgl/src/draw/../misc/lv_mem.h ****  *              the result of the analysis will be stored here
 101:Drivers/lvgl/src/draw/../misc/lv_mem.h ****  */
 102:Drivers/lvgl/src/draw/../misc/lv_mem.h **** void lv_mem_monitor(lv_mem_monitor_t * mon_p);
 103:Drivers/lvgl/src/draw/../misc/lv_mem.h **** 
 104:Drivers/lvgl/src/draw/../misc/lv_mem.h **** 
 105:Drivers/lvgl/src/draw/../misc/lv_mem.h **** /**
 106:Drivers/lvgl/src/draw/../misc/lv_mem.h ****  * Get a temporal buffer with the given size.
 107:Drivers/lvgl/src/draw/../misc/lv_mem.h ****  * @param size the required size
 108:Drivers/lvgl/src/draw/../misc/lv_mem.h ****  */
 109:Drivers/lvgl/src/draw/../misc/lv_mem.h **** void * lv_mem_buf_get(uint32_t size);
 110:Drivers/lvgl/src/draw/../misc/lv_mem.h **** 
 111:Drivers/lvgl/src/draw/../misc/lv_mem.h **** /**
 112:Drivers/lvgl/src/draw/../misc/lv_mem.h ****  * Release a memory buffer
 113:Drivers/lvgl/src/draw/../misc/lv_mem.h ****  * @param p buffer to release
 114:Drivers/lvgl/src/draw/../misc/lv_mem.h ****  */
 115:Drivers/lvgl/src/draw/../misc/lv_mem.h **** void lv_mem_buf_release(void * p);
 116:Drivers/lvgl/src/draw/../misc/lv_mem.h **** 
 117:Drivers/lvgl/src/draw/../misc/lv_mem.h **** /**
 118:Drivers/lvgl/src/draw/../misc/lv_mem.h ****  * Free all memory buffers
 119:Drivers/lvgl/src/draw/../misc/lv_mem.h ****  */
 120:Drivers/lvgl/src/draw/../misc/lv_mem.h **** void lv_mem_buf_free_all(void);
 121:Drivers/lvgl/src/draw/../misc/lv_mem.h **** 
 122:Drivers/lvgl/src/draw/../misc/lv_mem.h **** //! @cond Doxygen_Suppress
 123:Drivers/lvgl/src/draw/../misc/lv_mem.h **** 
 124:Drivers/lvgl/src/draw/../misc/lv_mem.h **** #if LV_MEMCPY_MEMSET_STD
 125:Drivers/lvgl/src/draw/../misc/lv_mem.h **** 
 126:Drivers/lvgl/src/draw/../misc/lv_mem.h **** /**
 127:Drivers/lvgl/src/draw/../misc/lv_mem.h ****  * Wrapper for the standard memcpy
 128:Drivers/lvgl/src/draw/../misc/lv_mem.h ****  * @param dst pointer to the destination buffer
 129:Drivers/lvgl/src/draw/../misc/lv_mem.h ****  * @param src pointer to the source buffer
 130:Drivers/lvgl/src/draw/../misc/lv_mem.h ****  * @param len number of byte to copy
 131:Drivers/lvgl/src/draw/../misc/lv_mem.h ****  */
 132:Drivers/lvgl/src/draw/../misc/lv_mem.h **** static inline void * lv_memcpy(void * dst, const void * src, size_t len)
 133:Drivers/lvgl/src/draw/../misc/lv_mem.h **** {
 134:Drivers/lvgl/src/draw/../misc/lv_mem.h ****     return memcpy(dst, src, len);
 135:Drivers/lvgl/src/draw/../misc/lv_mem.h **** }
 136:Drivers/lvgl/src/draw/../misc/lv_mem.h **** 
 137:Drivers/lvgl/src/draw/../misc/lv_mem.h **** /**
 138:Drivers/lvgl/src/draw/../misc/lv_mem.h ****  * Wrapper for the standard memcpy
 139:Drivers/lvgl/src/draw/../misc/lv_mem.h ****  * @param dst pointer to the destination buffer
 140:Drivers/lvgl/src/draw/../misc/lv_mem.h ****  * @param src pointer to the source buffer
 141:Drivers/lvgl/src/draw/../misc/lv_mem.h ****  * @param len number of byte to copy
ARM GAS  /var/folders/lp/x54gwt890xv47sdkqj1k04q40000gn/T//ccZWiB8D.s 			page 20


 142:Drivers/lvgl/src/draw/../misc/lv_mem.h ****  */
 143:Drivers/lvgl/src/draw/../misc/lv_mem.h **** static inline void * lv_memcpy_small(void * dst, const void * src, size_t len)
 144:Drivers/lvgl/src/draw/../misc/lv_mem.h **** {
 145:Drivers/lvgl/src/draw/../misc/lv_mem.h ****     return memcpy(dst, src, len);
 146:Drivers/lvgl/src/draw/../misc/lv_mem.h **** }
 147:Drivers/lvgl/src/draw/../misc/lv_mem.h **** 
 148:Drivers/lvgl/src/draw/../misc/lv_mem.h **** /**
 149:Drivers/lvgl/src/draw/../misc/lv_mem.h ****  * Wrapper for the standard memset
 150:Drivers/lvgl/src/draw/../misc/lv_mem.h ****  * @param dst pointer to the destination buffer
 151:Drivers/lvgl/src/draw/../misc/lv_mem.h ****  * @param v value to set [0..255]
 152:Drivers/lvgl/src/draw/../misc/lv_mem.h ****  * @param len number of byte to set
 153:Drivers/lvgl/src/draw/../misc/lv_mem.h ****  */
 154:Drivers/lvgl/src/draw/../misc/lv_mem.h **** static inline void lv_memset(void * dst, uint8_t v, size_t len)
 155:Drivers/lvgl/src/draw/../misc/lv_mem.h **** {
 156:Drivers/lvgl/src/draw/../misc/lv_mem.h ****     memset(dst, v, len);
 157:Drivers/lvgl/src/draw/../misc/lv_mem.h **** }
 158:Drivers/lvgl/src/draw/../misc/lv_mem.h **** 
 159:Drivers/lvgl/src/draw/../misc/lv_mem.h **** /**
 160:Drivers/lvgl/src/draw/../misc/lv_mem.h ****  * Wrapper for the standard memset with fixed 0x00 value
 161:Drivers/lvgl/src/draw/../misc/lv_mem.h ****  * @param dst pointer to the destination buffer
 162:Drivers/lvgl/src/draw/../misc/lv_mem.h ****  * @param len number of byte to set
 163:Drivers/lvgl/src/draw/../misc/lv_mem.h ****  */
 164:Drivers/lvgl/src/draw/../misc/lv_mem.h **** static inline void lv_memset_00(void * dst, size_t len)
 165:Drivers/lvgl/src/draw/../misc/lv_mem.h **** {
 166:Drivers/lvgl/src/draw/../misc/lv_mem.h ****     memset(dst, 0x00, len);
 167:Drivers/lvgl/src/draw/../misc/lv_mem.h **** }
 168:Drivers/lvgl/src/draw/../misc/lv_mem.h **** 
 169:Drivers/lvgl/src/draw/../misc/lv_mem.h **** /**
 170:Drivers/lvgl/src/draw/../misc/lv_mem.h ****  * Wrapper for the standard memset with fixed 0xFF value
 171:Drivers/lvgl/src/draw/../misc/lv_mem.h ****  * @param dst pointer to the destination buffer
 172:Drivers/lvgl/src/draw/../misc/lv_mem.h ****  * @param len number of byte to set
 173:Drivers/lvgl/src/draw/../misc/lv_mem.h ****  */
 174:Drivers/lvgl/src/draw/../misc/lv_mem.h **** static inline void lv_memset_ff(void * dst, size_t len)
 175:Drivers/lvgl/src/draw/../misc/lv_mem.h **** {
 176:Drivers/lvgl/src/draw/../misc/lv_mem.h ****     memset(dst, 0xFF, len);
 177:Drivers/lvgl/src/draw/../misc/lv_mem.h **** }
 178:Drivers/lvgl/src/draw/../misc/lv_mem.h **** 
 179:Drivers/lvgl/src/draw/../misc/lv_mem.h **** #else
 180:Drivers/lvgl/src/draw/../misc/lv_mem.h **** /**
 181:Drivers/lvgl/src/draw/../misc/lv_mem.h ****  * Same as `memcpy` but optimized for 4 byte operation.
 182:Drivers/lvgl/src/draw/../misc/lv_mem.h ****  * @param dst pointer to the destination buffer
 183:Drivers/lvgl/src/draw/../misc/lv_mem.h ****  * @param src pointer to the source buffer
 184:Drivers/lvgl/src/draw/../misc/lv_mem.h ****  * @param len number of byte to copy
 185:Drivers/lvgl/src/draw/../misc/lv_mem.h ****  */
 186:Drivers/lvgl/src/draw/../misc/lv_mem.h **** void * /* LV_ATTRIBUTE_FAST_MEM */ lv_memcpy(void * dst, const void * src, size_t len);
 187:Drivers/lvgl/src/draw/../misc/lv_mem.h **** 
 188:Drivers/lvgl/src/draw/../misc/lv_mem.h **** /**
 189:Drivers/lvgl/src/draw/../misc/lv_mem.h ****  * Same as `memcpy` but optimized to copy only a few bytes.
 190:Drivers/lvgl/src/draw/../misc/lv_mem.h ****  * @param dst pointer to the destination buffer
 191:Drivers/lvgl/src/draw/../misc/lv_mem.h ****  * @param src pointer to the source buffer
 192:Drivers/lvgl/src/draw/../misc/lv_mem.h ****  * @param len number of byte to copy
 193:Drivers/lvgl/src/draw/../misc/lv_mem.h ****  */
 194:Drivers/lvgl/src/draw/../misc/lv_mem.h **** static inline void * LV_ATTRIBUTE_FAST_MEM lv_memcpy_small(void * dst, const void * src, size_t len
 190              		.loc 3 194 44 is_stmt 1 view .LVU36
 191              	.LBB32:
 195:Drivers/lvgl/src/draw/../misc/lv_mem.h **** {
 196:Drivers/lvgl/src/draw/../misc/lv_mem.h ****     uint8_t * d8 = (uint8_t *)dst;
ARM GAS  /var/folders/lp/x54gwt890xv47sdkqj1k04q40000gn/T//ccZWiB8D.s 			page 21


 192              		.loc 3 196 5 view .LVU37
 197:Drivers/lvgl/src/draw/../misc/lv_mem.h ****     const uint8_t * s8 = (const uint8_t *)src;
 193              		.loc 3 197 5 view .LVU38
 198:Drivers/lvgl/src/draw/../misc/lv_mem.h **** 
 199:Drivers/lvgl/src/draw/../misc/lv_mem.h ****     while(len) {
 194              		.loc 3 199 5 view .LVU39
 196:Drivers/lvgl/src/draw/../misc/lv_mem.h ****     const uint8_t * s8 = (const uint8_t *)src;
 195              		.loc 3 196 15 is_stmt 0 view .LVU40
 196 0068 01AA     		add	r2, sp, #4
 197              	.LVL16:
 198              		.loc 3 199 10 view .LVU41
 199 006a 0223     		movs	r3, #2
 200              	.LVL17:
 201              		.loc 3 199 10 view .LVU42
 202 006c 04E0     		b	.L11
 203              	.LVL18:
 204              	.L12:
 200:Drivers/lvgl/src/draw/../misc/lv_mem.h ****         *d8 = *s8;
 205              		.loc 3 200 9 is_stmt 1 view .LVU43
 206              		.loc 3 200 15 is_stmt 0 view .LVU44
 207 006e 14F8011B 		ldrb	r1, [r4], #1	@ zero_extendqisi2
 208              	.LVL19:
 209              		.loc 3 200 13 view .LVU45
 210 0072 02F8011B 		strb	r1, [r2], #1
 211              	.LVL20:
 201:Drivers/lvgl/src/draw/../misc/lv_mem.h ****         d8++;
 212              		.loc 3 201 9 is_stmt 1 view .LVU46
 202:Drivers/lvgl/src/draw/../misc/lv_mem.h ****         s8++;
 213              		.loc 3 202 9 view .LVU47
 203:Drivers/lvgl/src/draw/../misc/lv_mem.h ****         len--;
 214              		.loc 3 203 9 view .LVU48
 215              		.loc 3 203 12 is_stmt 0 view .LVU49
 216 0076 013B     		subs	r3, r3, #1
 217              	.LVL21:
 218              	.L11:
 199:Drivers/lvgl/src/draw/../misc/lv_mem.h ****         *d8 = *s8;
 219              		.loc 3 199 11 is_stmt 1 view .LVU50
 220 0078 002B     		cmp	r3, #0
 221 007a F8D1     		bne	.L12
 222              	.LVL22:
 223              	.L3:
 199:Drivers/lvgl/src/draw/../misc/lv_mem.h ****         *d8 = *s8;
 224              		.loc 3 199 11 is_stmt 0 view .LVU51
 225              	.LBE32:
 226              	.LBE31:
 227              	.LBE30:
  51:Drivers/lvgl/src/draw/lv_img_buf.c **** #if LV_COLOR_SIZE == 32
  52:Drivers/lvgl/src/draw/lv_img_buf.c ****         p_color.ch.alpha = 0xFF; /*Only the color should be get so use a default alpha value*/
  53:Drivers/lvgl/src/draw/lv_img_buf.c **** #endif
  54:Drivers/lvgl/src/draw/lv_img_buf.c ****     }
  55:Drivers/lvgl/src/draw/lv_img_buf.c ****     else if(dsc->header.cf == LV_IMG_CF_INDEXED_1BIT) {
  56:Drivers/lvgl/src/draw/lv_img_buf.c ****         buf_u8 += 4 * 2;
  57:Drivers/lvgl/src/draw/lv_img_buf.c ****         uint8_t bit = x & 0x7;
  58:Drivers/lvgl/src/draw/lv_img_buf.c ****         x           = x >> 3;
  59:Drivers/lvgl/src/draw/lv_img_buf.c **** 
  60:Drivers/lvgl/src/draw/lv_img_buf.c ****         /*Get the current pixel.
  61:Drivers/lvgl/src/draw/lv_img_buf.c ****          *dsc->header.w + 7 means rounding up to 8 because the lines are byte aligned
ARM GAS  /var/folders/lp/x54gwt890xv47sdkqj1k04q40000gn/T//ccZWiB8D.s 			page 22


  62:Drivers/lvgl/src/draw/lv_img_buf.c ****          *so the possible real width are 8, 16, 24 ...*/
  63:Drivers/lvgl/src/draw/lv_img_buf.c ****         uint32_t px  = ((dsc->header.w + 7) >> 3) * y + x;
  64:Drivers/lvgl/src/draw/lv_img_buf.c ****         p_color.full = (buf_u8[px] & (1 << (7 - bit))) >> (7 - bit);
  65:Drivers/lvgl/src/draw/lv_img_buf.c ****     }
  66:Drivers/lvgl/src/draw/lv_img_buf.c ****     else if(dsc->header.cf == LV_IMG_CF_INDEXED_2BIT) {
  67:Drivers/lvgl/src/draw/lv_img_buf.c ****         buf_u8 += 4 * 4;
  68:Drivers/lvgl/src/draw/lv_img_buf.c ****         uint8_t bit = (x & 0x3) * 2;
  69:Drivers/lvgl/src/draw/lv_img_buf.c ****         x           = x >> 2;
  70:Drivers/lvgl/src/draw/lv_img_buf.c **** 
  71:Drivers/lvgl/src/draw/lv_img_buf.c ****         /*Get the current pixel.
  72:Drivers/lvgl/src/draw/lv_img_buf.c ****          *dsc->header.w + 3 means rounding up to 4 because the lines are byte aligned
  73:Drivers/lvgl/src/draw/lv_img_buf.c ****          *so the possible real width are 4, 8, 12 ...*/
  74:Drivers/lvgl/src/draw/lv_img_buf.c ****         uint32_t px  = ((dsc->header.w + 3) >> 2) * y + x;
  75:Drivers/lvgl/src/draw/lv_img_buf.c ****         p_color.full = (buf_u8[px] & (3 << (6 - bit))) >> (6 - bit);
  76:Drivers/lvgl/src/draw/lv_img_buf.c ****     }
  77:Drivers/lvgl/src/draw/lv_img_buf.c ****     else if(dsc->header.cf == LV_IMG_CF_INDEXED_4BIT) {
  78:Drivers/lvgl/src/draw/lv_img_buf.c ****         buf_u8 += 4 * 16;
  79:Drivers/lvgl/src/draw/lv_img_buf.c ****         uint8_t bit = (x & 0x1) * 4;
  80:Drivers/lvgl/src/draw/lv_img_buf.c ****         x           = x >> 1;
  81:Drivers/lvgl/src/draw/lv_img_buf.c **** 
  82:Drivers/lvgl/src/draw/lv_img_buf.c ****         /*Get the current pixel.
  83:Drivers/lvgl/src/draw/lv_img_buf.c ****          *dsc->header.w + 1 means rounding up to 2 because the lines are byte aligned
  84:Drivers/lvgl/src/draw/lv_img_buf.c ****          *so the possible real width are 2, 4, 6 ...*/
  85:Drivers/lvgl/src/draw/lv_img_buf.c ****         uint32_t px  = ((dsc->header.w + 1) >> 1) * y + x;
  86:Drivers/lvgl/src/draw/lv_img_buf.c ****         p_color.full = (buf_u8[px] & (0xF << (4 - bit))) >> (4 - bit);
  87:Drivers/lvgl/src/draw/lv_img_buf.c ****     }
  88:Drivers/lvgl/src/draw/lv_img_buf.c ****     else if(dsc->header.cf == LV_IMG_CF_INDEXED_8BIT) {
  89:Drivers/lvgl/src/draw/lv_img_buf.c ****         buf_u8 += 4 * 256;
  90:Drivers/lvgl/src/draw/lv_img_buf.c ****         uint32_t px  = dsc->header.w * y + x;
  91:Drivers/lvgl/src/draw/lv_img_buf.c ****         p_color.full = buf_u8[px];
  92:Drivers/lvgl/src/draw/lv_img_buf.c ****     }
  93:Drivers/lvgl/src/draw/lv_img_buf.c ****     else if(dsc->header.cf == LV_IMG_CF_ALPHA_1BIT || dsc->header.cf == LV_IMG_CF_ALPHA_2BIT ||
  94:Drivers/lvgl/src/draw/lv_img_buf.c ****             dsc->header.cf == LV_IMG_CF_ALPHA_4BIT || dsc->header.cf == LV_IMG_CF_ALPHA_8BIT) {
  95:Drivers/lvgl/src/draw/lv_img_buf.c ****         p_color = color;
  96:Drivers/lvgl/src/draw/lv_img_buf.c ****     }
  97:Drivers/lvgl/src/draw/lv_img_buf.c ****     return p_color;
 228              		.loc 1 97 5 is_stmt 1 view .LVU52
  98:Drivers/lvgl/src/draw/lv_img_buf.c **** }
 229              		.loc 1 98 1 is_stmt 0 view .LVU53
 230 007c BDF80400 		ldrh	r0, [sp, #4]
 231 0080 03B0     		add	sp, sp, #12
 232              		.cfi_remember_state
 233              		.cfi_def_cfa_offset 20
 234              		@ sp needed
 235 0082 F0BD     		pop	{r4, r5, r6, r7, pc}
 236              	.LVL23:
 237              	.L10:
 238              		.cfi_restore_state
 239              	.LBB33:
  56:Drivers/lvgl/src/draw/lv_img_buf.c ****         uint8_t bit = x & 0x7;
 240              		.loc 1 56 9 is_stmt 1 view .LVU54
  57:Drivers/lvgl/src/draw/lv_img_buf.c ****         x           = x >> 3;
 241              		.loc 1 57 9 view .LVU55
  57:Drivers/lvgl/src/draw/lv_img_buf.c ****         x           = x >> 3;
 242              		.loc 1 57 17 is_stmt 0 view .LVU56
 243 0084 04F00702 		and	r2, r4, #7
 244              	.LVL24:
ARM GAS  /var/folders/lp/x54gwt890xv47sdkqj1k04q40000gn/T//ccZWiB8D.s 			page 23


  58:Drivers/lvgl/src/draw/lv_img_buf.c **** 
 245              		.loc 1 58 9 is_stmt 1 view .LVU57
  63:Drivers/lvgl/src/draw/lv_img_buf.c ****         p_color.full = (buf_u8[px] & (1 << (7 - bit))) >> (7 - bit);
 246              		.loc 1 63 9 view .LVU58
  63:Drivers/lvgl/src/draw/lv_img_buf.c ****         p_color.full = (buf_u8[px] & (1 << (7 - bit))) >> (7 - bit);
 247              		.loc 1 63 37 is_stmt 0 view .LVU59
 248 0088 0368     		ldr	r3, [r0]
 249              	.LVL25:
  63:Drivers/lvgl/src/draw/lv_img_buf.c ****         p_color.full = (buf_u8[px] & (1 << (7 - bit))) >> (7 - bit);
 250              		.loc 1 63 37 view .LVU60
 251 008a C3F38A23 		ubfx	r3, r3, #10, #11
  63:Drivers/lvgl/src/draw/lv_img_buf.c ****         p_color.full = (buf_u8[px] & (1 << (7 - bit))) >> (7 - bit);
 252              		.loc 1 63 40 view .LVU61
 253 008e 0733     		adds	r3, r3, #7
  63:Drivers/lvgl/src/draw/lv_img_buf.c ****         p_color.full = (buf_u8[px] & (1 << (7 - bit))) >> (7 - bit);
 254              		.loc 1 63 45 view .LVU62
 255 0090 DB10     		asrs	r3, r3, #3
  63:Drivers/lvgl/src/draw/lv_img_buf.c ****         p_color.full = (buf_u8[px] & (1 << (7 - bit))) >> (7 - bit);
 256              		.loc 1 63 51 view .LVU63
 257 0092 06FB03F3 		mul	r3, r6, r3
  63:Drivers/lvgl/src/draw/lv_img_buf.c ****         p_color.full = (buf_u8[px] & (1 << (7 - bit))) >> (7 - bit);
 258              		.loc 1 63 55 view .LVU64
 259 0096 03EBE403 		add	r3, r3, r4, asr #3
 260              	.LVL26:
  64:Drivers/lvgl/src/draw/lv_img_buf.c ****     }
 261              		.loc 1 64 9 is_stmt 1 view .LVU65
  64:Drivers/lvgl/src/draw/lv_img_buf.c ****     }
 262              		.loc 1 64 31 is_stmt 0 view .LVU66
 263 009a 3B44     		add	r3, r3, r7
 264              	.LVL27:
  64:Drivers/lvgl/src/draw/lv_img_buf.c ****     }
 265              		.loc 1 64 31 view .LVU67
 266 009c 1B7A     		ldrb	r3, [r3, #8]	@ zero_extendqisi2
  64:Drivers/lvgl/src/draw/lv_img_buf.c ****     }
 267              		.loc 1 64 47 view .LVU68
 268 009e C2F10702 		rsb	r2, r2, #7
 269              	.LVL28:
  64:Drivers/lvgl/src/draw/lv_img_buf.c ****     }
 270              		.loc 1 64 41 view .LVU69
 271 00a2 0121     		movs	r1, #1
 272 00a4 9140     		lsls	r1, r1, r2
  64:Drivers/lvgl/src/draw/lv_img_buf.c ****     }
 273              		.loc 1 64 36 view .LVU70
 274 00a6 0B40     		ands	r3, r3, r1
  64:Drivers/lvgl/src/draw/lv_img_buf.c ****     }
 275              		.loc 1 64 56 view .LVU71
 276 00a8 1341     		asrs	r3, r3, r2
  64:Drivers/lvgl/src/draw/lv_img_buf.c ****     }
 277              		.loc 1 64 22 view .LVU72
 278 00aa ADF80430 		strh	r3, [sp, #4]	@ movhi
 279              	.LBE33:
 280 00ae E5E7     		b	.L3
 281              	.LVL29:
 282              	.L9:
 283              	.LBB34:
  67:Drivers/lvgl/src/draw/lv_img_buf.c ****         uint8_t bit = (x & 0x3) * 2;
 284              		.loc 1 67 9 is_stmt 1 view .LVU73
ARM GAS  /var/folders/lp/x54gwt890xv47sdkqj1k04q40000gn/T//ccZWiB8D.s 			page 24


  68:Drivers/lvgl/src/draw/lv_img_buf.c ****         x           = x >> 2;
 285              		.loc 1 68 9 view .LVU74
  68:Drivers/lvgl/src/draw/lv_img_buf.c ****         x           = x >> 2;
 286              		.loc 1 68 17 is_stmt 0 view .LVU75
 287 00b0 04F00303 		and	r3, r4, #3
 288              	.LVL30:
  68:Drivers/lvgl/src/draw/lv_img_buf.c ****         x           = x >> 2;
 289              		.loc 1 68 17 view .LVU76
 290 00b4 5A00     		lsls	r2, r3, #1
 291              	.LVL31:
  69:Drivers/lvgl/src/draw/lv_img_buf.c **** 
 292              		.loc 1 69 9 is_stmt 1 view .LVU77
  74:Drivers/lvgl/src/draw/lv_img_buf.c ****         p_color.full = (buf_u8[px] & (3 << (6 - bit))) >> (6 - bit);
 293              		.loc 1 74 9 view .LVU78
  74:Drivers/lvgl/src/draw/lv_img_buf.c ****         p_color.full = (buf_u8[px] & (3 << (6 - bit))) >> (6 - bit);
 294              		.loc 1 74 37 is_stmt 0 view .LVU79
 295 00b6 0368     		ldr	r3, [r0]
 296 00b8 C3F38A23 		ubfx	r3, r3, #10, #11
  74:Drivers/lvgl/src/draw/lv_img_buf.c ****         p_color.full = (buf_u8[px] & (3 << (6 - bit))) >> (6 - bit);
 297              		.loc 1 74 40 view .LVU80
 298 00bc 0333     		adds	r3, r3, #3
  74:Drivers/lvgl/src/draw/lv_img_buf.c ****         p_color.full = (buf_u8[px] & (3 << (6 - bit))) >> (6 - bit);
 299              		.loc 1 74 45 view .LVU81
 300 00be 9B10     		asrs	r3, r3, #2
  74:Drivers/lvgl/src/draw/lv_img_buf.c ****         p_color.full = (buf_u8[px] & (3 << (6 - bit))) >> (6 - bit);
 301              		.loc 1 74 51 view .LVU82
 302 00c0 06FB03F3 		mul	r3, r6, r3
  74:Drivers/lvgl/src/draw/lv_img_buf.c ****         p_color.full = (buf_u8[px] & (3 << (6 - bit))) >> (6 - bit);
 303              		.loc 1 74 55 view .LVU83
 304 00c4 03EBA403 		add	r3, r3, r4, asr #2
 305              	.LVL32:
  75:Drivers/lvgl/src/draw/lv_img_buf.c ****     }
 306              		.loc 1 75 9 is_stmt 1 view .LVU84
  75:Drivers/lvgl/src/draw/lv_img_buf.c ****     }
 307              		.loc 1 75 31 is_stmt 0 view .LVU85
 308 00c8 3B44     		add	r3, r3, r7
 309              	.LVL33:
  75:Drivers/lvgl/src/draw/lv_img_buf.c ****     }
 310              		.loc 1 75 31 view .LVU86
 311 00ca 197C     		ldrb	r1, [r3, #16]	@ zero_extendqisi2
  75:Drivers/lvgl/src/draw/lv_img_buf.c ****     }
 312              		.loc 1 75 47 view .LVU87
 313 00cc C2F10603 		rsb	r3, r2, #6
  75:Drivers/lvgl/src/draw/lv_img_buf.c ****     }
 314              		.loc 1 75 41 view .LVU88
 315 00d0 0322     		movs	r2, #3
 316              	.LVL34:
  75:Drivers/lvgl/src/draw/lv_img_buf.c ****     }
 317              		.loc 1 75 41 view .LVU89
 318 00d2 9A40     		lsls	r2, r2, r3
  75:Drivers/lvgl/src/draw/lv_img_buf.c ****     }
 319              		.loc 1 75 36 view .LVU90
 320 00d4 0A40     		ands	r2, r2, r1
  75:Drivers/lvgl/src/draw/lv_img_buf.c ****     }
 321              		.loc 1 75 56 view .LVU91
 322 00d6 42FA03F3 		asr	r3, r2, r3
  75:Drivers/lvgl/src/draw/lv_img_buf.c ****     }
ARM GAS  /var/folders/lp/x54gwt890xv47sdkqj1k04q40000gn/T//ccZWiB8D.s 			page 25


 323              		.loc 1 75 22 view .LVU92
 324 00da ADF80430 		strh	r3, [sp, #4]	@ movhi
 325              	.LBE34:
 326 00de CDE7     		b	.L3
 327              	.LVL35:
 328              	.L8:
 329              	.LBB35:
  78:Drivers/lvgl/src/draw/lv_img_buf.c ****         uint8_t bit = (x & 0x1) * 4;
 330              		.loc 1 78 9 is_stmt 1 view .LVU93
  79:Drivers/lvgl/src/draw/lv_img_buf.c ****         x           = x >> 1;
 331              		.loc 1 79 9 view .LVU94
  79:Drivers/lvgl/src/draw/lv_img_buf.c ****         x           = x >> 1;
 332              		.loc 1 79 17 is_stmt 0 view .LVU95
 333 00e0 04F00103 		and	r3, r4, #1
 334              	.LVL36:
  79:Drivers/lvgl/src/draw/lv_img_buf.c ****         x           = x >> 1;
 335              		.loc 1 79 17 view .LVU96
 336 00e4 9A00     		lsls	r2, r3, #2
 337              	.LVL37:
  80:Drivers/lvgl/src/draw/lv_img_buf.c **** 
 338              		.loc 1 80 9 is_stmt 1 view .LVU97
  85:Drivers/lvgl/src/draw/lv_img_buf.c ****         p_color.full = (buf_u8[px] & (0xF << (4 - bit))) >> (4 - bit);
 339              		.loc 1 85 9 view .LVU98
  85:Drivers/lvgl/src/draw/lv_img_buf.c ****         p_color.full = (buf_u8[px] & (0xF << (4 - bit))) >> (4 - bit);
 340              		.loc 1 85 37 is_stmt 0 view .LVU99
 341 00e6 0368     		ldr	r3, [r0]
 342 00e8 C3F38A23 		ubfx	r3, r3, #10, #11
  85:Drivers/lvgl/src/draw/lv_img_buf.c ****         p_color.full = (buf_u8[px] & (0xF << (4 - bit))) >> (4 - bit);
 343              		.loc 1 85 40 view .LVU100
 344 00ec 0133     		adds	r3, r3, #1
  85:Drivers/lvgl/src/draw/lv_img_buf.c ****         p_color.full = (buf_u8[px] & (0xF << (4 - bit))) >> (4 - bit);
 345              		.loc 1 85 45 view .LVU101
 346 00ee 5B10     		asrs	r3, r3, #1
  85:Drivers/lvgl/src/draw/lv_img_buf.c ****         p_color.full = (buf_u8[px] & (0xF << (4 - bit))) >> (4 - bit);
 347              		.loc 1 85 51 view .LVU102
 348 00f0 06FB03F3 		mul	r3, r6, r3
  85:Drivers/lvgl/src/draw/lv_img_buf.c ****         p_color.full = (buf_u8[px] & (0xF << (4 - bit))) >> (4 - bit);
 349              		.loc 1 85 55 view .LVU103
 350 00f4 03EB6403 		add	r3, r3, r4, asr #1
 351              	.LVL38:
  86:Drivers/lvgl/src/draw/lv_img_buf.c ****     }
 352              		.loc 1 86 9 is_stmt 1 view .LVU104
  86:Drivers/lvgl/src/draw/lv_img_buf.c ****     }
 353              		.loc 1 86 31 is_stmt 0 view .LVU105
 354 00f8 3B44     		add	r3, r3, r7
 355              	.LVL39:
  86:Drivers/lvgl/src/draw/lv_img_buf.c ****     }
 356              		.loc 1 86 31 view .LVU106
 357 00fa 93F84010 		ldrb	r1, [r3, #64]	@ zero_extendqisi2
  86:Drivers/lvgl/src/draw/lv_img_buf.c ****     }
 358              		.loc 1 86 49 view .LVU107
 359 00fe C2F10403 		rsb	r3, r2, #4
  86:Drivers/lvgl/src/draw/lv_img_buf.c ****     }
 360              		.loc 1 86 43 view .LVU108
 361 0102 0F22     		movs	r2, #15
 362              	.LVL40:
  86:Drivers/lvgl/src/draw/lv_img_buf.c ****     }
ARM GAS  /var/folders/lp/x54gwt890xv47sdkqj1k04q40000gn/T//ccZWiB8D.s 			page 26


 363              		.loc 1 86 43 view .LVU109
 364 0104 9A40     		lsls	r2, r2, r3
  86:Drivers/lvgl/src/draw/lv_img_buf.c ****     }
 365              		.loc 1 86 36 view .LVU110
 366 0106 0A40     		ands	r2, r2, r1
  86:Drivers/lvgl/src/draw/lv_img_buf.c ****     }
 367              		.loc 1 86 58 view .LVU111
 368 0108 42FA03F3 		asr	r3, r2, r3
  86:Drivers/lvgl/src/draw/lv_img_buf.c ****     }
 369              		.loc 1 86 22 view .LVU112
 370 010c ADF80430 		strh	r3, [sp, #4]	@ movhi
 371              	.LBE35:
 372 0110 B4E7     		b	.L3
 373              	.LVL41:
 374              	.L7:
 375              	.LBB36:
  89:Drivers/lvgl/src/draw/lv_img_buf.c ****         uint32_t px  = dsc->header.w * y + x;
 376              		.loc 1 89 9 is_stmt 1 view .LVU113
  90:Drivers/lvgl/src/draw/lv_img_buf.c ****         p_color.full = buf_u8[px];
 377              		.loc 1 90 9 view .LVU114
  90:Drivers/lvgl/src/draw/lv_img_buf.c ****         p_color.full = buf_u8[px];
 378              		.loc 1 90 35 is_stmt 0 view .LVU115
 379 0112 0368     		ldr	r3, [r0]
 380              	.LVL42:
  90:Drivers/lvgl/src/draw/lv_img_buf.c ****         p_color.full = buf_u8[px];
 381              		.loc 1 90 35 view .LVU116
 382 0114 C3F38A23 		ubfx	r3, r3, #10, #11
  90:Drivers/lvgl/src/draw/lv_img_buf.c ****         p_color.full = buf_u8[px];
 383              		.loc 1 90 42 view .LVU117
 384 0118 03FB0644 		mla	r4, r3, r6, r4
 385              	.LVL43:
  91:Drivers/lvgl/src/draw/lv_img_buf.c ****     }
 386              		.loc 1 91 9 is_stmt 1 view .LVU118
  91:Drivers/lvgl/src/draw/lv_img_buf.c ****     }
 387              		.loc 1 91 30 is_stmt 0 view .LVU119
 388 011c 2744     		add	r7, r7, r4
 389              	.LVL44:
  91:Drivers/lvgl/src/draw/lv_img_buf.c ****     }
 390              		.loc 1 91 30 view .LVU120
 391 011e 97F80034 		ldrb	r3, [r7, #1024]	@ zero_extendqisi2
  91:Drivers/lvgl/src/draw/lv_img_buf.c ****     }
 392              		.loc 1 91 22 view .LVU121
 393 0122 ADF80430 		strh	r3, [sp, #4]	@ movhi
 394              	.LBE36:
 395 0126 A9E7     		b	.L3
 396              	.LVL45:
 397              	.L6:
  95:Drivers/lvgl/src/draw/lv_img_buf.c ****     }
 398              		.loc 1 95 9 is_stmt 1 view .LVU122
  95:Drivers/lvgl/src/draw/lv_img_buf.c ****     }
 399              		.loc 1 95 17 is_stmt 0 view .LVU123
 400 0128 ADF80430 		strh	r3, [sp, #4]	@ movhi
 401 012c A6E7     		b	.L3
 402              		.cfi_endproc
 403              	.LFE54:
 405              		.section	.text.lv_img_buf_get_px_alpha,"ax",%progbits
 406              		.align	1
ARM GAS  /var/folders/lp/x54gwt890xv47sdkqj1k04q40000gn/T//ccZWiB8D.s 			page 27


 407              		.global	lv_img_buf_get_px_alpha
 408              		.syntax unified
 409              		.thumb
 410              		.thumb_func
 412              	lv_img_buf_get_px_alpha:
 413              	.LVL46:
 414              	.LFB55:
  99:Drivers/lvgl/src/draw/lv_img_buf.c **** 
 100:Drivers/lvgl/src/draw/lv_img_buf.c **** lv_opa_t lv_img_buf_get_px_alpha(const lv_img_dsc_t * dsc, lv_coord_t x, lv_coord_t y)
 101:Drivers/lvgl/src/draw/lv_img_buf.c **** {
 415              		.loc 1 101 1 is_stmt 1 view -0
 416              		.cfi_startproc
 417              		@ args = 0, pretend = 0, frame = 16
 418              		@ frame_needed = 0, uses_anonymous_args = 0
 419              		.loc 1 101 1 is_stmt 0 view .LVU125
 420 0000 70B5     		push	{r4, r5, r6, lr}
 421              		.cfi_def_cfa_offset 16
 422              		.cfi_offset 4, -16
 423              		.cfi_offset 5, -12
 424              		.cfi_offset 6, -8
 425              		.cfi_offset 14, -4
 426 0002 84B0     		sub	sp, sp, #16
 427              		.cfi_def_cfa_offset 32
 428 0004 8446     		mov	ip, r0
 429 0006 8E46     		mov	lr, r1
 430 0008 1446     		mov	r4, r2
 102:Drivers/lvgl/src/draw/lv_img_buf.c ****     uint8_t * buf_u8 = (uint8_t *)dsc->data;
 431              		.loc 1 102 5 is_stmt 1 view .LVU126
 432              		.loc 1 102 15 is_stmt 0 view .LVU127
 433 000a 8568     		ldr	r5, [r0, #8]
 434              	.LVL47:
 103:Drivers/lvgl/src/draw/lv_img_buf.c **** 
 104:Drivers/lvgl/src/draw/lv_img_buf.c ****     if(dsc->header.cf == LV_IMG_CF_TRUE_COLOR_ALPHA) {
 435              		.loc 1 104 5 is_stmt 1 view .LVU128
 436              		.loc 1 104 23 is_stmt 0 view .LVU129
 437 000c 0378     		ldrb	r3, [r0]	@ zero_extendqisi2
 438 000e 03F01F03 		and	r3, r3, #31
 439 0012 053B     		subs	r3, r3, #5
 440 0014 092B     		cmp	r3, #9
 441 0016 69D8     		bhi	.L24
 442 0018 DFE803F0 		tbb	[pc, r3]
 443              	.LVL48:
 444              	.L18:
 445 001c 05       		.byte	(.L22-.L18)/2
 446 001d 68       		.byte	(.L24-.L18)/2
 447 001e 68       		.byte	(.L24-.L18)/2
 448 001f 68       		.byte	(.L24-.L18)/2
 449 0020 68       		.byte	(.L24-.L18)/2
 450 0021 68       		.byte	(.L24-.L18)/2
 451 0022 0F       		.byte	(.L21-.L18)/2
 452 0023 28       		.byte	(.L20-.L18)/2
 453 0024 43       		.byte	(.L19-.L18)/2
 454 0025 61       		.byte	(.L17-.L18)/2
 455              		.p2align 1
 456              	.L22:
 457              	.LBB37:
 105:Drivers/lvgl/src/draw/lv_img_buf.c ****         uint32_t px = dsc->header.w * y * LV_IMG_PX_SIZE_ALPHA_BYTE + x * LV_IMG_PX_SIZE_ALPHA_BYTE
ARM GAS  /var/folders/lp/x54gwt890xv47sdkqj1k04q40000gn/T//ccZWiB8D.s 			page 28


 458              		.loc 1 105 9 is_stmt 1 view .LVU130
 459              		.loc 1 105 34 is_stmt 0 view .LVU131
 460 0026 0368     		ldr	r3, [r0]
 461 0028 C3F38A23 		ubfx	r3, r3, #10, #11
 462              		.loc 1 105 69 view .LVU132
 463 002c 03FB0413 		mla	r3, r3, r4, r1
 464 0030 03EB4303 		add	r3, r3, r3, lsl #1
 465              	.LVL49:
 106:Drivers/lvgl/src/draw/lv_img_buf.c ****         return buf_u8[px + LV_IMG_PX_SIZE_ALPHA_BYTE - 1];
 466              		.loc 1 106 9 is_stmt 1 view .LVU133
 467              		.loc 1 106 22 is_stmt 0 view .LVU134
 468 0034 2B44     		add	r3, r3, r5
 469              	.LVL50:
 470              		.loc 1 106 22 view .LVU135
 471 0036 9878     		ldrb	r0, [r3, #2]	@ zero_extendqisi2
 472              	.LVL51:
 473              		.loc 1 106 22 view .LVU136
 474 0038 59E0     		b	.L16
 475              	.LVL52:
 476              	.L21:
 477              		.loc 1 106 22 view .LVU137
 478              	.LBE37:
 479              	.LBB38:
 107:Drivers/lvgl/src/draw/lv_img_buf.c ****     }
 108:Drivers/lvgl/src/draw/lv_img_buf.c ****     else if(dsc->header.cf == LV_IMG_CF_ALPHA_1BIT) {
 109:Drivers/lvgl/src/draw/lv_img_buf.c ****         uint8_t bit = x & 0x7;
 480              		.loc 1 109 9 is_stmt 1 view .LVU138
 481              		.loc 1 109 17 is_stmt 0 view .LVU139
 482 003a 01F00702 		and	r2, r1, #7
 483              	.LVL53:
 110:Drivers/lvgl/src/draw/lv_img_buf.c ****         x           = x >> 3;
 484              		.loc 1 110 9 is_stmt 1 view .LVU140
 111:Drivers/lvgl/src/draw/lv_img_buf.c **** 
 112:Drivers/lvgl/src/draw/lv_img_buf.c ****         /*Get the current pixel.
 113:Drivers/lvgl/src/draw/lv_img_buf.c ****          *dsc->header.w + 7 means rounding up to 8 because the lines are byte aligned
 114:Drivers/lvgl/src/draw/lv_img_buf.c ****          *so the possible real width are 8 ,16, 24 ...*/
 115:Drivers/lvgl/src/draw/lv_img_buf.c ****         uint32_t px    = ((dsc->header.w + 7) >> 3) * y + x;
 485              		.loc 1 115 9 view .LVU141
 486              		.loc 1 115 39 is_stmt 0 view .LVU142
 487 003e 0368     		ldr	r3, [r0]
 488 0040 C3F38A23 		ubfx	r3, r3, #10, #11
 489              		.loc 1 115 42 view .LVU143
 490 0044 0733     		adds	r3, r3, #7
 491              		.loc 1 115 47 view .LVU144
 492 0046 DB10     		asrs	r3, r3, #3
 493              		.loc 1 115 53 view .LVU145
 494 0048 04FB03F3 		mul	r3, r4, r3
 495              		.loc 1 115 57 view .LVU146
 496 004c 03EBE103 		add	r3, r3, r1, asr #3
 497              	.LVL54:
 116:Drivers/lvgl/src/draw/lv_img_buf.c ****         uint8_t px_opa = (buf_u8[px] & (1 << (7 - bit))) >> (7 - bit);
 498              		.loc 1 116 9 is_stmt 1 view .LVU147
 499              		.loc 1 116 33 is_stmt 0 view .LVU148
 500 0050 EB5C     		ldrb	r3, [r5, r3]	@ zero_extendqisi2
 501              	.LVL55:
 502              		.loc 1 116 49 view .LVU149
 503 0052 C2F10702 		rsb	r2, r2, #7
ARM GAS  /var/folders/lp/x54gwt890xv47sdkqj1k04q40000gn/T//ccZWiB8D.s 			page 29


 504              	.LVL56:
 505              		.loc 1 116 43 view .LVU150
 506 0056 0121     		movs	r1, #1
 507              	.LVL57:
 508              		.loc 1 116 43 view .LVU151
 509 0058 9140     		lsls	r1, r1, r2
 510              		.loc 1 116 38 view .LVU152
 511 005a 0B40     		ands	r3, r3, r1
 512              		.loc 1 116 58 view .LVU153
 513 005c 1341     		asrs	r3, r3, r2
 514              	.LVL58:
 117:Drivers/lvgl/src/draw/lv_img_buf.c ****         return px_opa ? LV_OPA_TRANSP : LV_OPA_COVER;
 515              		.loc 1 117 9 is_stmt 1 view .LVU154
 516              		.loc 1 117 39 is_stmt 0 view .LVU155
 517 005e 13F0FF0F 		tst	r3, #255
 518 0062 01D0     		beq	.L25
 519              		.loc 1 117 39 discriminator 1 view .LVU156
 520 0064 0020     		movs	r0, #0
 521              	.LVL59:
 522              		.loc 1 117 39 discriminator 1 view .LVU157
 523 0066 42E0     		b	.L16
 524              	.LVL60:
 525              	.L25:
 526              		.loc 1 117 39 discriminator 2 view .LVU158
 527 0068 FF20     		movs	r0, #255
 528              	.LVL61:
 529              		.loc 1 117 39 view .LVU159
 530 006a 40E0     		b	.L16
 531              	.LVL62:
 532              	.L20:
 533              		.loc 1 117 39 view .LVU160
 534              	.LBE38:
 535              	.LBB39:
 118:Drivers/lvgl/src/draw/lv_img_buf.c ****     }
 119:Drivers/lvgl/src/draw/lv_img_buf.c ****     else if(dsc->header.cf == LV_IMG_CF_ALPHA_2BIT) {
 120:Drivers/lvgl/src/draw/lv_img_buf.c ****         const uint8_t opa_table[4] = {0, 85, 170, 255}; /*Opacity mapping with bpp = 2*/
 536              		.loc 1 120 9 is_stmt 1 view .LVU161
 537              		.loc 1 120 23 is_stmt 0 view .LVU162
 538 006c 214B     		ldr	r3, .L27
 539 006e 0093     		str	r3, [sp]
 121:Drivers/lvgl/src/draw/lv_img_buf.c **** 
 122:Drivers/lvgl/src/draw/lv_img_buf.c ****         uint8_t bit = (x & 0x3) * 2;
 540              		.loc 1 122 9 is_stmt 1 view .LVU163
 541              		.loc 1 122 17 is_stmt 0 view .LVU164
 542 0070 01F00302 		and	r2, r1, #3
 543 0074 5200     		lsls	r2, r2, #1
 544              	.LVL63:
 123:Drivers/lvgl/src/draw/lv_img_buf.c ****         x           = x >> 2;
 545              		.loc 1 123 9 is_stmt 1 view .LVU165
 124:Drivers/lvgl/src/draw/lv_img_buf.c **** 
 125:Drivers/lvgl/src/draw/lv_img_buf.c ****         /*Get the current pixel.
 126:Drivers/lvgl/src/draw/lv_img_buf.c ****          *dsc->header.w + 4 means rounding up to 8 because the lines are byte aligned
 127:Drivers/lvgl/src/draw/lv_img_buf.c ****          *so the possible real width are 4 ,8, 12 ...*/
 128:Drivers/lvgl/src/draw/lv_img_buf.c ****         uint32_t px    = ((dsc->header.w + 3) >> 2) * y + x;
 546              		.loc 1 128 9 view .LVU166
 547              		.loc 1 128 39 is_stmt 0 view .LVU167
 548 0076 0368     		ldr	r3, [r0]
ARM GAS  /var/folders/lp/x54gwt890xv47sdkqj1k04q40000gn/T//ccZWiB8D.s 			page 30


 549 0078 C3F38A23 		ubfx	r3, r3, #10, #11
 550              		.loc 1 128 42 view .LVU168
 551 007c 0333     		adds	r3, r3, #3
 552              		.loc 1 128 47 view .LVU169
 553 007e 9B10     		asrs	r3, r3, #2
 554              		.loc 1 128 53 view .LVU170
 555 0080 04FB03F3 		mul	r3, r4, r3
 556              		.loc 1 128 57 view .LVU171
 557 0084 03EBA103 		add	r3, r3, r1, asr #2
 558              	.LVL64:
 129:Drivers/lvgl/src/draw/lv_img_buf.c ****         uint8_t px_opa = (buf_u8[px] & (3 << (6 - bit))) >> (6 - bit);
 559              		.loc 1 129 9 is_stmt 1 view .LVU172
 560              		.loc 1 129 33 is_stmt 0 view .LVU173
 561 0088 EB5C     		ldrb	r3, [r5, r3]	@ zero_extendqisi2
 562              	.LVL65:
 563              		.loc 1 129 49 view .LVU174
 564 008a C2F10602 		rsb	r2, r2, #6
 565              	.LVL66:
 566              		.loc 1 129 43 view .LVU175
 567 008e 0321     		movs	r1, #3
 568              	.LVL67:
 569              		.loc 1 129 43 view .LVU176
 570 0090 9140     		lsls	r1, r1, r2
 571              		.loc 1 129 38 view .LVU177
 572 0092 0B40     		ands	r3, r3, r1
 573              		.loc 1 129 58 view .LVU178
 574 0094 1341     		asrs	r3, r3, r2
 575              	.LVL68:
 130:Drivers/lvgl/src/draw/lv_img_buf.c ****         return opa_table[px_opa];
 576              		.loc 1 130 9 is_stmt 1 view .LVU179
 577              		.loc 1 130 25 is_stmt 0 view .LVU180
 578 0096 04AA     		add	r2, sp, #16
 579 0098 52FA83F3 		uxtab	r3, r2, r3
 580              	.LVL69:
 581              		.loc 1 130 25 view .LVU181
 582 009c 13F8100C 		ldrb	r0, [r3, #-16]	@ zero_extendqisi2
 583              	.LVL70:
 584              		.loc 1 130 25 view .LVU182
 585 00a0 25E0     		b	.L16
 586              	.LVL71:
 587              	.L19:
 588              		.loc 1 130 25 view .LVU183
 589              	.LBE39:
 590              	.LBB40:
 131:Drivers/lvgl/src/draw/lv_img_buf.c ****     }
 132:Drivers/lvgl/src/draw/lv_img_buf.c ****     else if(dsc->header.cf == LV_IMG_CF_ALPHA_4BIT) {
 133:Drivers/lvgl/src/draw/lv_img_buf.c ****         const uint8_t opa_table[16] = {0,  17, 34,  51, /*Opacity mapping with bpp = 4*/
 591              		.loc 1 133 9 is_stmt 1 view .LVU184
 592              		.loc 1 133 23 is_stmt 0 view .LVU185
 593 00a2 154B     		ldr	r3, .L27+4
 594 00a4 0FCB     		ldm	r3, {r0, r1, r2, r3}
 595              	.LVL72:
 596              		.loc 1 133 23 view .LVU186
 597 00a6 04AE     		add	r6, sp, #16
 598 00a8 06E90F00 		stmdb	r6, {r0, r1, r2, r3}
 134:Drivers/lvgl/src/draw/lv_img_buf.c ****                                        68, 85, 102, 119, 136, 153, 170, 187, 204, 221, 238, 255
 135:Drivers/lvgl/src/draw/lv_img_buf.c ****                                       };
ARM GAS  /var/folders/lp/x54gwt890xv47sdkqj1k04q40000gn/T//ccZWiB8D.s 			page 31


 136:Drivers/lvgl/src/draw/lv_img_buf.c **** 
 137:Drivers/lvgl/src/draw/lv_img_buf.c ****         uint8_t bit = (x & 0x1) * 4;
 599              		.loc 1 137 9 is_stmt 1 view .LVU187
 600              		.loc 1 137 17 is_stmt 0 view .LVU188
 601 00ac 0EF00102 		and	r2, lr, #1
 602 00b0 9200     		lsls	r2, r2, #2
 603              	.LVL73:
 138:Drivers/lvgl/src/draw/lv_img_buf.c ****         x           = x >> 1;
 604              		.loc 1 138 9 is_stmt 1 view .LVU189
 139:Drivers/lvgl/src/draw/lv_img_buf.c **** 
 140:Drivers/lvgl/src/draw/lv_img_buf.c ****         /*Get the current pixel.
 141:Drivers/lvgl/src/draw/lv_img_buf.c ****          *dsc->header.w + 1 means rounding up to 8 because the lines are byte aligned
 142:Drivers/lvgl/src/draw/lv_img_buf.c ****          *so the possible real width are 2 ,4, 6 ...*/
 143:Drivers/lvgl/src/draw/lv_img_buf.c ****         uint32_t px    = ((dsc->header.w + 1) >> 1) * y + x;
 605              		.loc 1 143 9 view .LVU190
 606              		.loc 1 143 39 is_stmt 0 view .LVU191
 607 00b2 DCF80030 		ldr	r3, [ip]
 608 00b6 C3F38A23 		ubfx	r3, r3, #10, #11
 609              		.loc 1 143 42 view .LVU192
 610 00ba 0133     		adds	r3, r3, #1
 611              		.loc 1 143 47 view .LVU193
 612 00bc 5B10     		asrs	r3, r3, #1
 613              		.loc 1 143 53 view .LVU194
 614 00be 04FB03F3 		mul	r3, r4, r3
 615              		.loc 1 143 57 view .LVU195
 616 00c2 03EB6E03 		add	r3, r3, lr, asr #1
 617              	.LVL74:
 144:Drivers/lvgl/src/draw/lv_img_buf.c ****         uint8_t px_opa = (buf_u8[px] & (0xF << (4 - bit))) >> (4 - bit);
 618              		.loc 1 144 9 is_stmt 1 view .LVU196
 619              		.loc 1 144 33 is_stmt 0 view .LVU197
 620 00c6 EB5C     		ldrb	r3, [r5, r3]	@ zero_extendqisi2
 621              	.LVL75:
 622              		.loc 1 144 51 view .LVU198
 623 00c8 C2F10402 		rsb	r2, r2, #4
 624              	.LVL76:
 625              		.loc 1 144 45 view .LVU199
 626 00cc 0F21     		movs	r1, #15
 627 00ce 9140     		lsls	r1, r1, r2
 628              		.loc 1 144 38 view .LVU200
 629 00d0 0B40     		ands	r3, r3, r1
 630              		.loc 1 144 60 view .LVU201
 631 00d2 1341     		asrs	r3, r3, r2
 632              	.LVL77:
 145:Drivers/lvgl/src/draw/lv_img_buf.c ****         return opa_table[px_opa];
 633              		.loc 1 145 9 is_stmt 1 view .LVU202
 634              		.loc 1 145 25 is_stmt 0 view .LVU203
 635 00d4 56FA83F3 		uxtab	r3, r6, r3
 636              	.LVL78:
 637              		.loc 1 145 25 view .LVU204
 638 00d8 13F8100C 		ldrb	r0, [r3, #-16]	@ zero_extendqisi2
 639 00dc 07E0     		b	.L16
 640              	.LVL79:
 641              	.L17:
 642              		.loc 1 145 25 view .LVU205
 643              	.LBE40:
 644              	.LBB41:
 146:Drivers/lvgl/src/draw/lv_img_buf.c ****     }
ARM GAS  /var/folders/lp/x54gwt890xv47sdkqj1k04q40000gn/T//ccZWiB8D.s 			page 32


 147:Drivers/lvgl/src/draw/lv_img_buf.c ****     else if(dsc->header.cf == LV_IMG_CF_ALPHA_8BIT) {
 148:Drivers/lvgl/src/draw/lv_img_buf.c ****         uint32_t px = dsc->header.w * y + x;
 645              		.loc 1 148 9 is_stmt 1 view .LVU206
 646              		.loc 1 148 34 is_stmt 0 view .LVU207
 647 00de 0368     		ldr	r3, [r0]
 648 00e0 C3F38A23 		ubfx	r3, r3, #10, #11
 649              		.loc 1 148 41 view .LVU208
 650 00e4 03FB0412 		mla	r2, r3, r4, r1
 651              	.LVL80:
 149:Drivers/lvgl/src/draw/lv_img_buf.c ****         return buf_u8[px];
 652              		.loc 1 149 9 is_stmt 1 view .LVU209
 653              		.loc 1 149 22 is_stmt 0 view .LVU210
 654 00e8 A85C     		ldrb	r0, [r5, r2]	@ zero_extendqisi2
 655              	.LVL81:
 656              		.loc 1 149 22 view .LVU211
 657 00ea 00E0     		b	.L16
 658              	.LVL82:
 659              	.L24:
 660              		.loc 1 149 22 view .LVU212
 661              	.LBE41:
 104:Drivers/lvgl/src/draw/lv_img_buf.c ****         uint32_t px = dsc->header.w * y * LV_IMG_PX_SIZE_ALPHA_BYTE + x * LV_IMG_PX_SIZE_ALPHA_BYTE
 662              		.loc 1 104 23 view .LVU213
 663 00ec FF20     		movs	r0, #255
 664              	.LVL83:
 665              	.L16:
 150:Drivers/lvgl/src/draw/lv_img_buf.c ****     }
 151:Drivers/lvgl/src/draw/lv_img_buf.c **** 
 152:Drivers/lvgl/src/draw/lv_img_buf.c ****     return LV_OPA_COVER;
 153:Drivers/lvgl/src/draw/lv_img_buf.c **** }
 666              		.loc 1 153 1 view .LVU214
 667 00ee 04B0     		add	sp, sp, #16
 668              		.cfi_def_cfa_offset 16
 669              		@ sp needed
 670 00f0 70BD     		pop	{r4, r5, r6, pc}
 671              	.LVL84:
 672              	.L28:
 673              		.loc 1 153 1 view .LVU215
 674 00f2 00BF     		.align	2
 675              	.L27:
 676 00f4 0055AAFF 		.word	-5614336
 677 00f8 00000000 		.word	.LANCHOR0
 678              		.cfi_endproc
 679              	.LFE55:
 681              		.section	.text.lv_img_buf_set_px_alpha,"ax",%progbits
 682              		.align	1
 683              		.global	lv_img_buf_set_px_alpha
 684              		.syntax unified
 685              		.thumb
 686              		.thumb_func
 688              	lv_img_buf_set_px_alpha:
 689              	.LVL85:
 690              	.LFB56:
 154:Drivers/lvgl/src/draw/lv_img_buf.c **** 
 155:Drivers/lvgl/src/draw/lv_img_buf.c **** void lv_img_buf_set_px_alpha(const lv_img_dsc_t * dsc, lv_coord_t x, lv_coord_t y, lv_opa_t opa)
 156:Drivers/lvgl/src/draw/lv_img_buf.c **** {
 691              		.loc 1 156 1 is_stmt 1 view -0
 692              		.cfi_startproc
ARM GAS  /var/folders/lp/x54gwt890xv47sdkqj1k04q40000gn/T//ccZWiB8D.s 			page 33


 693              		@ args = 0, pretend = 0, frame = 0
 694              		@ frame_needed = 0, uses_anonymous_args = 0
 695              		.loc 1 156 1 is_stmt 0 view .LVU217
 696 0000 2DE9F041 		push	{r4, r5, r6, r7, r8, lr}
 697              		.cfi_def_cfa_offset 24
 698              		.cfi_offset 4, -24
 699              		.cfi_offset 5, -20
 700              		.cfi_offset 6, -16
 701              		.cfi_offset 7, -12
 702              		.cfi_offset 8, -8
 703              		.cfi_offset 14, -4
 704 0004 0446     		mov	r4, r0
 705 0006 0E46     		mov	r6, r1
 706 0008 1746     		mov	r7, r2
 707 000a 1D46     		mov	r5, r3
 157:Drivers/lvgl/src/draw/lv_img_buf.c ****     uint8_t * buf_u8 = (uint8_t *)dsc->data;
 708              		.loc 1 157 5 is_stmt 1 view .LVU218
 709              		.loc 1 157 15 is_stmt 0 view .LVU219
 710 000c D0F80880 		ldr	r8, [r0, #8]
 711              	.LVL86:
 158:Drivers/lvgl/src/draw/lv_img_buf.c **** 
 159:Drivers/lvgl/src/draw/lv_img_buf.c ****     if(dsc->header.cf == LV_IMG_CF_TRUE_COLOR_ALPHA) {
 712              		.loc 1 159 5 is_stmt 1 view .LVU220
 713              		.loc 1 159 23 is_stmt 0 view .LVU221
 714 0010 90F800C0 		ldrb	ip, [r0]	@ zero_extendqisi2
 715 0014 0CF01F0C 		and	ip, ip, #31
 716 0018 ACF1050C 		sub	ip, ip, #5
 717 001c BCF1090F 		cmp	ip, #9
 718 0020 1AD8     		bhi	.L29
 719 0022 DFE80CF0 		tbb	[pc, ip]
 720              	.LVL87:
 721              	.L32:
 722 0026 05       		.byte	(.L36-.L32)/2
 723 0027 19       		.byte	(.L29-.L32)/2
 724 0028 19       		.byte	(.L29-.L32)/2
 725 0029 19       		.byte	(.L29-.L32)/2
 726 002a 19       		.byte	(.L29-.L32)/2
 727 002b 19       		.byte	(.L29-.L32)/2
 728 002c 1B       		.byte	(.L35-.L32)/2
 729 002d 37       		.byte	(.L34-.L32)/2
 730 002e 54       		.byte	(.L33-.L32)/2
 731 002f 71       		.byte	(.L31-.L32)/2
 732              		.p2align 1
 733              	.L36:
 734              	.LBB42:
 160:Drivers/lvgl/src/draw/lv_img_buf.c ****         uint8_t px_size          = lv_img_cf_get_px_size(dsc->header.cf) >> 3;
 735              		.loc 1 160 9 is_stmt 1 view .LVU222
 736              		.loc 1 160 69 is_stmt 0 view .LVU223
 737 0030 0078     		ldrb	r0, [r0]	@ zero_extendqisi2
 738              	.LVL88:
 739              		.loc 1 160 36 view .LVU224
 740 0032 00F01F00 		and	r0, r0, #31
 741 0036 FFF7FEFF 		bl	lv_img_cf_get_px_size
 742              	.LVL89:
 743              		.loc 1 160 17 discriminator 1 view .LVU225
 744 003a C0F3C700 		ubfx	r0, r0, #3, #8
 745              	.LVL90:
ARM GAS  /var/folders/lp/x54gwt890xv47sdkqj1k04q40000gn/T//ccZWiB8D.s 			page 34


 161:Drivers/lvgl/src/draw/lv_img_buf.c ****         uint32_t px              = dsc->header.w * y * px_size + x * px_size;
 746              		.loc 1 161 9 is_stmt 1 view .LVU226
 747              		.loc 1 161 47 is_stmt 0 view .LVU227
 748 003e 2368     		ldr	r3, [r4]
 749 0040 C3F38A23 		ubfx	r3, r3, #10, #11
 750              		.loc 1 161 50 view .LVU228
 751 0044 07FB03F3 		mul	r3, r7, r3
 752              		.loc 1 161 68 view .LVU229
 753 0048 00FB06F6 		mul	r6, r0, r6
 754              	.LVL91:
 755              		.loc 1 161 64 view .LVU230
 756 004c 00FB0366 		mla	r6, r0, r3, r6
 757              	.LVL92:
 162:Drivers/lvgl/src/draw/lv_img_buf.c ****         buf_u8[px + px_size - 1] = opa;
 758              		.loc 1 162 9 is_stmt 1 view .LVU231
 759              		.loc 1 162 19 is_stmt 0 view .LVU232
 760 0050 3044     		add	r0, r0, r6
 761              	.LVL93:
 762              		.loc 1 162 15 view .LVU233
 763 0052 0138     		subs	r0, r0, #1
 764              		.loc 1 162 34 view .LVU234
 765 0054 08F80050 		strb	r5, [r8, r0]
 766              	.LVL94:
 767              	.L29:
 768              		.loc 1 162 34 view .LVU235
 769              	.LBE42:
 163:Drivers/lvgl/src/draw/lv_img_buf.c ****     }
 164:Drivers/lvgl/src/draw/lv_img_buf.c ****     else if(dsc->header.cf == LV_IMG_CF_ALPHA_1BIT) {
 165:Drivers/lvgl/src/draw/lv_img_buf.c ****         opa         = opa >> 7; /*opa -> [0,1]*/
 166:Drivers/lvgl/src/draw/lv_img_buf.c ****         uint8_t bit = x & 0x7;
 167:Drivers/lvgl/src/draw/lv_img_buf.c ****         x           = x >> 3;
 168:Drivers/lvgl/src/draw/lv_img_buf.c **** 
 169:Drivers/lvgl/src/draw/lv_img_buf.c ****         /*Get the current pixel.
 170:Drivers/lvgl/src/draw/lv_img_buf.c ****          *dsc->header.w + 7 means rounding up to 8 because the lines are byte aligned
 171:Drivers/lvgl/src/draw/lv_img_buf.c ****          *so the possible real width are 8 ,16, 24 ...*/
 172:Drivers/lvgl/src/draw/lv_img_buf.c ****         uint32_t px = ((dsc->header.w + 7) >> 3) * y + x;
 173:Drivers/lvgl/src/draw/lv_img_buf.c ****         buf_u8[px]  = buf_u8[px] & ~(1 << (7 - bit));
 174:Drivers/lvgl/src/draw/lv_img_buf.c ****         buf_u8[px]  = buf_u8[px] | ((opa & 0x1) << (7 - bit));
 175:Drivers/lvgl/src/draw/lv_img_buf.c ****     }
 176:Drivers/lvgl/src/draw/lv_img_buf.c ****     else if(dsc->header.cf == LV_IMG_CF_ALPHA_2BIT) {
 177:Drivers/lvgl/src/draw/lv_img_buf.c ****         opa         = opa >> 6; /*opa -> [0,3]*/
 178:Drivers/lvgl/src/draw/lv_img_buf.c ****         uint8_t bit = (x & 0x3) * 2;
 179:Drivers/lvgl/src/draw/lv_img_buf.c ****         x           = x >> 2;
 180:Drivers/lvgl/src/draw/lv_img_buf.c **** 
 181:Drivers/lvgl/src/draw/lv_img_buf.c ****         /*Get the current pixel.
 182:Drivers/lvgl/src/draw/lv_img_buf.c ****          *dsc->header.w + 4 means rounding up to 8 because the lines are byte aligned
 183:Drivers/lvgl/src/draw/lv_img_buf.c ****          *so the possible real width are 4 ,8, 12 ...*/
 184:Drivers/lvgl/src/draw/lv_img_buf.c ****         uint32_t px = ((dsc->header.w + 3) >> 2) * y + x;
 185:Drivers/lvgl/src/draw/lv_img_buf.c ****         buf_u8[px]  = buf_u8[px] & ~(3 << (6 - bit));
 186:Drivers/lvgl/src/draw/lv_img_buf.c ****         buf_u8[px]  = buf_u8[px] | ((opa & 0x3) << (6 - bit));
 187:Drivers/lvgl/src/draw/lv_img_buf.c ****     }
 188:Drivers/lvgl/src/draw/lv_img_buf.c ****     else if(dsc->header.cf == LV_IMG_CF_ALPHA_4BIT) {
 189:Drivers/lvgl/src/draw/lv_img_buf.c ****         opa         = opa >> 4; /*opa -> [0,15]*/
 190:Drivers/lvgl/src/draw/lv_img_buf.c ****         uint8_t bit = (x & 0x1) * 4;
 191:Drivers/lvgl/src/draw/lv_img_buf.c ****         x           = x >> 1;
 192:Drivers/lvgl/src/draw/lv_img_buf.c **** 
 193:Drivers/lvgl/src/draw/lv_img_buf.c ****         /*Get the current pixel.
ARM GAS  /var/folders/lp/x54gwt890xv47sdkqj1k04q40000gn/T//ccZWiB8D.s 			page 35


 194:Drivers/lvgl/src/draw/lv_img_buf.c ****          *dsc->header.w + 1 means rounding up to 8 because the lines are byte aligned
 195:Drivers/lvgl/src/draw/lv_img_buf.c ****          *so the possible real width are 2 ,4, 6 ...*/
 196:Drivers/lvgl/src/draw/lv_img_buf.c ****         uint32_t px = ((dsc->header.w + 1) >> 1) * y + x;
 197:Drivers/lvgl/src/draw/lv_img_buf.c ****         buf_u8[px]  = buf_u8[px] & ~(0xF << (4 - bit));
 198:Drivers/lvgl/src/draw/lv_img_buf.c ****         buf_u8[px]  = buf_u8[px] | ((opa & 0xF) << (4 - bit));
 199:Drivers/lvgl/src/draw/lv_img_buf.c ****     }
 200:Drivers/lvgl/src/draw/lv_img_buf.c ****     else if(dsc->header.cf == LV_IMG_CF_ALPHA_8BIT) {
 201:Drivers/lvgl/src/draw/lv_img_buf.c ****         uint32_t px = dsc->header.w * y + x;
 202:Drivers/lvgl/src/draw/lv_img_buf.c ****         buf_u8[px]  = opa;
 203:Drivers/lvgl/src/draw/lv_img_buf.c ****     }
 204:Drivers/lvgl/src/draw/lv_img_buf.c **** }
 770              		.loc 1 204 1 view .LVU236
 771 0058 BDE8F081 		pop	{r4, r5, r6, r7, r8, pc}
 772              	.LVL95:
 773              	.L35:
 774              	.LBB43:
 165:Drivers/lvgl/src/draw/lv_img_buf.c ****         uint8_t bit = x & 0x7;
 775              		.loc 1 165 9 is_stmt 1 view .LVU237
 165:Drivers/lvgl/src/draw/lv_img_buf.c ****         uint8_t bit = x & 0x7;
 776              		.loc 1 165 21 is_stmt 0 view .LVU238
 777 005c ED09     		lsrs	r5, r5, #7
 778              	.LVL96:
 166:Drivers/lvgl/src/draw/lv_img_buf.c ****         x           = x >> 3;
 779              		.loc 1 166 9 is_stmt 1 view .LVU239
 166:Drivers/lvgl/src/draw/lv_img_buf.c ****         x           = x >> 3;
 780              		.loc 1 166 17 is_stmt 0 view .LVU240
 781 005e 01F00700 		and	r0, r1, #7
 782              	.LVL97:
 167:Drivers/lvgl/src/draw/lv_img_buf.c **** 
 783              		.loc 1 167 9 is_stmt 1 view .LVU241
 172:Drivers/lvgl/src/draw/lv_img_buf.c ****         buf_u8[px]  = buf_u8[px] & ~(1 << (7 - bit));
 784              		.loc 1 172 9 view .LVU242
 172:Drivers/lvgl/src/draw/lv_img_buf.c ****         buf_u8[px]  = buf_u8[px] & ~(1 << (7 - bit));
 785              		.loc 1 172 36 is_stmt 0 view .LVU243
 786 0062 2368     		ldr	r3, [r4]
 787 0064 C3F38A23 		ubfx	r3, r3, #10, #11
 172:Drivers/lvgl/src/draw/lv_img_buf.c ****         buf_u8[px]  = buf_u8[px] & ~(1 << (7 - bit));
 788              		.loc 1 172 39 view .LVU244
 789 0068 0733     		adds	r3, r3, #7
 172:Drivers/lvgl/src/draw/lv_img_buf.c ****         buf_u8[px]  = buf_u8[px] & ~(1 << (7 - bit));
 790              		.loc 1 172 44 view .LVU245
 791 006a DB10     		asrs	r3, r3, #3
 172:Drivers/lvgl/src/draw/lv_img_buf.c ****         buf_u8[px]  = buf_u8[px] & ~(1 << (7 - bit));
 792              		.loc 1 172 50 view .LVU246
 793 006c 02FB03F3 		mul	r3, r2, r3
 172:Drivers/lvgl/src/draw/lv_img_buf.c ****         buf_u8[px]  = buf_u8[px] & ~(1 << (7 - bit));
 794              		.loc 1 172 54 view .LVU247
 795 0070 03EBE103 		add	r3, r3, r1, asr #3
 796              	.LVL98:
 173:Drivers/lvgl/src/draw/lv_img_buf.c ****         buf_u8[px]  = buf_u8[px] | ((opa & 0x1) << (7 - bit));
 797              		.loc 1 173 9 is_stmt 1 view .LVU248
 173:Drivers/lvgl/src/draw/lv_img_buf.c ****         buf_u8[px]  = buf_u8[px] | ((opa & 0x1) << (7 - bit));
 798              		.loc 1 173 29 is_stmt 0 view .LVU249
 799 0074 18F80310 		ldrb	r1, [r8, r3]	@ zero_extendqisi2
 800              	.LVL99:
 173:Drivers/lvgl/src/draw/lv_img_buf.c ****         buf_u8[px]  = buf_u8[px] | ((opa & 0x1) << (7 - bit));
 801              		.loc 1 173 46 view .LVU250
ARM GAS  /var/folders/lp/x54gwt890xv47sdkqj1k04q40000gn/T//ccZWiB8D.s 			page 36


 802 0078 C0F10700 		rsb	r0, r0, #7
 803              	.LVL100:
 173:Drivers/lvgl/src/draw/lv_img_buf.c ****         buf_u8[px]  = buf_u8[px] | ((opa & 0x1) << (7 - bit));
 804              		.loc 1 173 40 view .LVU251
 805 007c 0122     		movs	r2, #1
 806              	.LVL101:
 173:Drivers/lvgl/src/draw/lv_img_buf.c ****         buf_u8[px]  = buf_u8[px] | ((opa & 0x1) << (7 - bit));
 807              		.loc 1 173 40 view .LVU252
 808 007e 8240     		lsls	r2, r2, r0
 173:Drivers/lvgl/src/draw/lv_img_buf.c ****         buf_u8[px]  = buf_u8[px] | ((opa & 0x1) << (7 - bit));
 809              		.loc 1 173 34 view .LVU253
 810 0080 D243     		mvns	r2, r2
 811 0082 52B2     		sxtb	r2, r2
 812 0084 0A40     		ands	r2, r2, r1
 173:Drivers/lvgl/src/draw/lv_img_buf.c ****         buf_u8[px]  = buf_u8[px] | ((opa & 0x1) << (7 - bit));
 813              		.loc 1 173 21 view .LVU254
 814 0086 08F80320 		strb	r2, [r8, r3]
 174:Drivers/lvgl/src/draw/lv_img_buf.c ****     }
 815              		.loc 1 174 9 is_stmt 1 view .LVU255
 174:Drivers/lvgl/src/draw/lv_img_buf.c ****     }
 816              		.loc 1 174 49 is_stmt 0 view .LVU256
 817 008a 8540     		lsls	r5, r5, r0
 818              	.LVL102:
 174:Drivers/lvgl/src/draw/lv_img_buf.c ****     }
 819              		.loc 1 174 34 view .LVU257
 820 008c 2A43     		orrs	r2, r2, r5
 174:Drivers/lvgl/src/draw/lv_img_buf.c ****     }
 821              		.loc 1 174 21 view .LVU258
 822 008e 08F80320 		strb	r2, [r8, r3]
 823              	.LBE43:
 824 0092 E1E7     		b	.L29
 825              	.LVL103:
 826              	.L34:
 827              	.LBB44:
 177:Drivers/lvgl/src/draw/lv_img_buf.c ****         uint8_t bit = (x & 0x3) * 2;
 828              		.loc 1 177 9 is_stmt 1 view .LVU259
 177:Drivers/lvgl/src/draw/lv_img_buf.c ****         uint8_t bit = (x & 0x3) * 2;
 829              		.loc 1 177 21 is_stmt 0 view .LVU260
 830 0094 AD09     		lsrs	r5, r5, #6
 831              	.LVL104:
 178:Drivers/lvgl/src/draw/lv_img_buf.c ****         x           = x >> 2;
 832              		.loc 1 178 9 is_stmt 1 view .LVU261
 178:Drivers/lvgl/src/draw/lv_img_buf.c ****         x           = x >> 2;
 833              		.loc 1 178 17 is_stmt 0 view .LVU262
 834 0096 01F00300 		and	r0, r1, #3
 835              	.LVL105:
 178:Drivers/lvgl/src/draw/lv_img_buf.c ****         x           = x >> 2;
 836              		.loc 1 178 17 view .LVU263
 837 009a 4000     		lsls	r0, r0, #1
 838              	.LVL106:
 179:Drivers/lvgl/src/draw/lv_img_buf.c **** 
 839              		.loc 1 179 9 is_stmt 1 view .LVU264
 184:Drivers/lvgl/src/draw/lv_img_buf.c ****         buf_u8[px]  = buf_u8[px] & ~(3 << (6 - bit));
 840              		.loc 1 184 9 view .LVU265
 184:Drivers/lvgl/src/draw/lv_img_buf.c ****         buf_u8[px]  = buf_u8[px] & ~(3 << (6 - bit));
 841              		.loc 1 184 36 is_stmt 0 view .LVU266
 842 009c 2368     		ldr	r3, [r4]
ARM GAS  /var/folders/lp/x54gwt890xv47sdkqj1k04q40000gn/T//ccZWiB8D.s 			page 37


 843 009e C3F38A23 		ubfx	r3, r3, #10, #11
 184:Drivers/lvgl/src/draw/lv_img_buf.c ****         buf_u8[px]  = buf_u8[px] & ~(3 << (6 - bit));
 844              		.loc 1 184 39 view .LVU267
 845 00a2 0333     		adds	r3, r3, #3
 184:Drivers/lvgl/src/draw/lv_img_buf.c ****         buf_u8[px]  = buf_u8[px] & ~(3 << (6 - bit));
 846              		.loc 1 184 44 view .LVU268
 847 00a4 9B10     		asrs	r3, r3, #2
 184:Drivers/lvgl/src/draw/lv_img_buf.c ****         buf_u8[px]  = buf_u8[px] & ~(3 << (6 - bit));
 848              		.loc 1 184 50 view .LVU269
 849 00a6 02FB03F3 		mul	r3, r2, r3
 184:Drivers/lvgl/src/draw/lv_img_buf.c ****         buf_u8[px]  = buf_u8[px] & ~(3 << (6 - bit));
 850              		.loc 1 184 54 view .LVU270
 851 00aa 03EBA103 		add	r3, r3, r1, asr #2
 852              	.LVL107:
 185:Drivers/lvgl/src/draw/lv_img_buf.c ****         buf_u8[px]  = buf_u8[px] | ((opa & 0x3) << (6 - bit));
 853              		.loc 1 185 9 is_stmt 1 view .LVU271
 185:Drivers/lvgl/src/draw/lv_img_buf.c ****         buf_u8[px]  = buf_u8[px] | ((opa & 0x3) << (6 - bit));
 854              		.loc 1 185 29 is_stmt 0 view .LVU272
 855 00ae 18F80310 		ldrb	r1, [r8, r3]	@ zero_extendqisi2
 856              	.LVL108:
 185:Drivers/lvgl/src/draw/lv_img_buf.c ****         buf_u8[px]  = buf_u8[px] | ((opa & 0x3) << (6 - bit));
 857              		.loc 1 185 46 view .LVU273
 858 00b2 C0F10600 		rsb	r0, r0, #6
 859              	.LVL109:
 185:Drivers/lvgl/src/draw/lv_img_buf.c ****         buf_u8[px]  = buf_u8[px] | ((opa & 0x3) << (6 - bit));
 860              		.loc 1 185 40 view .LVU274
 861 00b6 0322     		movs	r2, #3
 862              	.LVL110:
 185:Drivers/lvgl/src/draw/lv_img_buf.c ****         buf_u8[px]  = buf_u8[px] | ((opa & 0x3) << (6 - bit));
 863              		.loc 1 185 40 view .LVU275
 864 00b8 8240     		lsls	r2, r2, r0
 185:Drivers/lvgl/src/draw/lv_img_buf.c ****         buf_u8[px]  = buf_u8[px] | ((opa & 0x3) << (6 - bit));
 865              		.loc 1 185 34 view .LVU276
 866 00ba D243     		mvns	r2, r2
 867 00bc 52B2     		sxtb	r2, r2
 868 00be 0A40     		ands	r2, r2, r1
 185:Drivers/lvgl/src/draw/lv_img_buf.c ****         buf_u8[px]  = buf_u8[px] | ((opa & 0x3) << (6 - bit));
 869              		.loc 1 185 21 view .LVU277
 870 00c0 08F80320 		strb	r2, [r8, r3]
 186:Drivers/lvgl/src/draw/lv_img_buf.c ****     }
 871              		.loc 1 186 9 is_stmt 1 view .LVU278
 186:Drivers/lvgl/src/draw/lv_img_buf.c ****     }
 872              		.loc 1 186 49 is_stmt 0 view .LVU279
 873 00c4 8540     		lsls	r5, r5, r0
 874              	.LVL111:
 186:Drivers/lvgl/src/draw/lv_img_buf.c ****     }
 875              		.loc 1 186 34 view .LVU280
 876 00c6 2A43     		orrs	r2, r2, r5
 186:Drivers/lvgl/src/draw/lv_img_buf.c ****     }
 877              		.loc 1 186 21 view .LVU281
 878 00c8 08F80320 		strb	r2, [r8, r3]
 879              	.LBE44:
 880 00cc C4E7     		b	.L29
 881              	.LVL112:
 882              	.L33:
 883              	.LBB45:
 189:Drivers/lvgl/src/draw/lv_img_buf.c ****         uint8_t bit = (x & 0x1) * 4;
ARM GAS  /var/folders/lp/x54gwt890xv47sdkqj1k04q40000gn/T//ccZWiB8D.s 			page 38


 884              		.loc 1 189 9 is_stmt 1 view .LVU282
 189:Drivers/lvgl/src/draw/lv_img_buf.c ****         uint8_t bit = (x & 0x1) * 4;
 885              		.loc 1 189 21 is_stmt 0 view .LVU283
 886 00ce 2D09     		lsrs	r5, r5, #4
 887              	.LVL113:
 190:Drivers/lvgl/src/draw/lv_img_buf.c ****         x           = x >> 1;
 888              		.loc 1 190 9 is_stmt 1 view .LVU284
 190:Drivers/lvgl/src/draw/lv_img_buf.c ****         x           = x >> 1;
 889              		.loc 1 190 17 is_stmt 0 view .LVU285
 890 00d0 01F00100 		and	r0, r1, #1
 891              	.LVL114:
 190:Drivers/lvgl/src/draw/lv_img_buf.c ****         x           = x >> 1;
 892              		.loc 1 190 17 view .LVU286
 893 00d4 8000     		lsls	r0, r0, #2
 894              	.LVL115:
 191:Drivers/lvgl/src/draw/lv_img_buf.c **** 
 895              		.loc 1 191 9 is_stmt 1 view .LVU287
 196:Drivers/lvgl/src/draw/lv_img_buf.c ****         buf_u8[px]  = buf_u8[px] & ~(0xF << (4 - bit));
 896              		.loc 1 196 9 view .LVU288
 196:Drivers/lvgl/src/draw/lv_img_buf.c ****         buf_u8[px]  = buf_u8[px] & ~(0xF << (4 - bit));
 897              		.loc 1 196 36 is_stmt 0 view .LVU289
 898 00d6 2368     		ldr	r3, [r4]
 899 00d8 C3F38A23 		ubfx	r3, r3, #10, #11
 196:Drivers/lvgl/src/draw/lv_img_buf.c ****         buf_u8[px]  = buf_u8[px] & ~(0xF << (4 - bit));
 900              		.loc 1 196 39 view .LVU290
 901 00dc 0133     		adds	r3, r3, #1
 196:Drivers/lvgl/src/draw/lv_img_buf.c ****         buf_u8[px]  = buf_u8[px] & ~(0xF << (4 - bit));
 902              		.loc 1 196 44 view .LVU291
 903 00de 5B10     		asrs	r3, r3, #1
 196:Drivers/lvgl/src/draw/lv_img_buf.c ****         buf_u8[px]  = buf_u8[px] & ~(0xF << (4 - bit));
 904              		.loc 1 196 50 view .LVU292
 905 00e0 02FB03F3 		mul	r3, r2, r3
 196:Drivers/lvgl/src/draw/lv_img_buf.c ****         buf_u8[px]  = buf_u8[px] & ~(0xF << (4 - bit));
 906              		.loc 1 196 54 view .LVU293
 907 00e4 03EB6103 		add	r3, r3, r1, asr #1
 908              	.LVL116:
 197:Drivers/lvgl/src/draw/lv_img_buf.c ****         buf_u8[px]  = buf_u8[px] | ((opa & 0xF) << (4 - bit));
 909              		.loc 1 197 9 is_stmt 1 view .LVU294
 197:Drivers/lvgl/src/draw/lv_img_buf.c ****         buf_u8[px]  = buf_u8[px] | ((opa & 0xF) << (4 - bit));
 910              		.loc 1 197 29 is_stmt 0 view .LVU295
 911 00e8 18F80310 		ldrb	r1, [r8, r3]	@ zero_extendqisi2
 912              	.LVL117:
 197:Drivers/lvgl/src/draw/lv_img_buf.c ****         buf_u8[px]  = buf_u8[px] | ((opa & 0xF) << (4 - bit));
 913              		.loc 1 197 48 view .LVU296
 914 00ec C0F10400 		rsb	r0, r0, #4
 915              	.LVL118:
 197:Drivers/lvgl/src/draw/lv_img_buf.c ****         buf_u8[px]  = buf_u8[px] | ((opa & 0xF) << (4 - bit));
 916              		.loc 1 197 42 view .LVU297
 917 00f0 0F22     		movs	r2, #15
 918              	.LVL119:
 197:Drivers/lvgl/src/draw/lv_img_buf.c ****         buf_u8[px]  = buf_u8[px] | ((opa & 0xF) << (4 - bit));
 919              		.loc 1 197 42 view .LVU298
 920 00f2 8240     		lsls	r2, r2, r0
 197:Drivers/lvgl/src/draw/lv_img_buf.c ****         buf_u8[px]  = buf_u8[px] | ((opa & 0xF) << (4 - bit));
 921              		.loc 1 197 34 view .LVU299
 922 00f4 D243     		mvns	r2, r2
 923 00f6 52B2     		sxtb	r2, r2
ARM GAS  /var/folders/lp/x54gwt890xv47sdkqj1k04q40000gn/T//ccZWiB8D.s 			page 39


 924 00f8 0A40     		ands	r2, r2, r1
 197:Drivers/lvgl/src/draw/lv_img_buf.c ****         buf_u8[px]  = buf_u8[px] | ((opa & 0xF) << (4 - bit));
 925              		.loc 1 197 21 view .LVU300
 926 00fa 08F80320 		strb	r2, [r8, r3]
 198:Drivers/lvgl/src/draw/lv_img_buf.c ****     }
 927              		.loc 1 198 9 is_stmt 1 view .LVU301
 198:Drivers/lvgl/src/draw/lv_img_buf.c ****     }
 928              		.loc 1 198 49 is_stmt 0 view .LVU302
 929 00fe 8540     		lsls	r5, r5, r0
 930              	.LVL120:
 198:Drivers/lvgl/src/draw/lv_img_buf.c ****     }
 931              		.loc 1 198 34 view .LVU303
 932 0100 2A43     		orrs	r2, r2, r5
 198:Drivers/lvgl/src/draw/lv_img_buf.c ****     }
 933              		.loc 1 198 21 view .LVU304
 934 0102 08F80320 		strb	r2, [r8, r3]
 935              	.LBE45:
 936 0106 A7E7     		b	.L29
 937              	.LVL121:
 938              	.L31:
 939              	.LBB46:
 201:Drivers/lvgl/src/draw/lv_img_buf.c ****         buf_u8[px]  = opa;
 940              		.loc 1 201 9 is_stmt 1 view .LVU305
 201:Drivers/lvgl/src/draw/lv_img_buf.c ****         buf_u8[px]  = opa;
 941              		.loc 1 201 34 is_stmt 0 view .LVU306
 942 0108 0368     		ldr	r3, [r0]
 943 010a C3F38A23 		ubfx	r3, r3, #10, #11
 201:Drivers/lvgl/src/draw/lv_img_buf.c ****         buf_u8[px]  = opa;
 944              		.loc 1 201 41 view .LVU307
 945 010e 03FB0216 		mla	r6, r3, r2, r1
 946              	.LVL122:
 202:Drivers/lvgl/src/draw/lv_img_buf.c ****     }
 947              		.loc 1 202 9 is_stmt 1 view .LVU308
 202:Drivers/lvgl/src/draw/lv_img_buf.c ****     }
 948              		.loc 1 202 21 is_stmt 0 view .LVU309
 949 0112 08F80650 		strb	r5, [r8, r6]
 950              	.LBE46:
 951              		.loc 1 204 1 view .LVU310
 952 0116 9FE7     		b	.L29
 953              		.cfi_endproc
 954              	.LFE56:
 956              		.section	.text.lv_img_buf_set_px_color,"ax",%progbits
 957              		.align	1
 958              		.global	lv_img_buf_set_px_color
 959              		.syntax unified
 960              		.thumb
 961              		.thumb_func
 963              	lv_img_buf_set_px_color:
 964              	.LVL123:
 965              	.LFB57:
 205:Drivers/lvgl/src/draw/lv_img_buf.c **** 
 206:Drivers/lvgl/src/draw/lv_img_buf.c **** void lv_img_buf_set_px_color(const lv_img_dsc_t * dsc, lv_coord_t x, lv_coord_t y, lv_color_t c)
 207:Drivers/lvgl/src/draw/lv_img_buf.c **** {
 966              		.loc 1 207 1 is_stmt 1 view -0
 967              		.cfi_startproc
 968              		@ args = 0, pretend = 0, frame = 8
 969              		@ frame_needed = 0, uses_anonymous_args = 0
ARM GAS  /var/folders/lp/x54gwt890xv47sdkqj1k04q40000gn/T//ccZWiB8D.s 			page 40


 970              		.loc 1 207 1 is_stmt 0 view .LVU312
 971 0000 F0B5     		push	{r4, r5, r6, r7, lr}
 972              		.cfi_def_cfa_offset 20
 973              		.cfi_offset 4, -20
 974              		.cfi_offset 5, -16
 975              		.cfi_offset 6, -12
 976              		.cfi_offset 7, -8
 977              		.cfi_offset 14, -4
 978 0002 83B0     		sub	sp, sp, #12
 979              		.cfi_def_cfa_offset 32
 980 0004 0546     		mov	r5, r0
 981 0006 0C46     		mov	r4, r1
 982 0008 1646     		mov	r6, r2
 983 000a ADF80430 		strh	r3, [sp, #4]	@ movhi
 208:Drivers/lvgl/src/draw/lv_img_buf.c ****     uint8_t * buf_u8 = (uint8_t *)dsc->data;
 984              		.loc 1 208 5 is_stmt 1 view .LVU313
 985              		.loc 1 208 15 is_stmt 0 view .LVU314
 986 000e 8768     		ldr	r7, [r0, #8]
 987              	.LVL124:
 209:Drivers/lvgl/src/draw/lv_img_buf.c **** 
 210:Drivers/lvgl/src/draw/lv_img_buf.c ****     if(dsc->header.cf == LV_IMG_CF_TRUE_COLOR || dsc->header.cf == LV_IMG_CF_TRUE_COLOR_CHROMA_KEYE
 988              		.loc 1 210 5 is_stmt 1 view .LVU315
 989              		.loc 1 210 23 is_stmt 0 view .LVU316
 990 0010 0378     		ldrb	r3, [r0]	@ zero_extendqisi2
 991 0012 03F01F03 		and	r3, r3, #31
 992 0016 043B     		subs	r3, r3, #4
 993 0018 062B     		cmp	r3, #6
 994 001a 1FD8     		bhi	.L39
 995 001c DFE803F0 		tbb	[pc, r3]
 996              	.LVL125:
 997              	.L42:
 998 0020 04       		.byte	(.L46-.L42)/2
 999 0021 20       		.byte	(.L47-.L42)/2
 1000 0022 04       		.byte	(.L46-.L42)/2
 1001 0023 3C       		.byte	(.L45-.L42)/2
 1002 0024 59       		.byte	(.L44-.L42)/2
 1003 0025 77       		.byte	(.L43-.L42)/2
 1004 0026 95       		.byte	(.L41-.L42)/2
 1005 0027 00       		.p2align 1
 1006              	.L46:
 1007              	.LBB47:
 211:Drivers/lvgl/src/draw/lv_img_buf.c ****         uint8_t px_size = lv_img_cf_get_px_size(dsc->header.cf) >> 3;
 1008              		.loc 1 211 9 is_stmt 1 view .LVU317
 1009              		.loc 1 211 60 is_stmt 0 view .LVU318
 1010 0028 0078     		ldrb	r0, [r0]	@ zero_extendqisi2
 1011              	.LVL126:
 1012              		.loc 1 211 27 view .LVU319
 1013 002a 00F01F00 		and	r0, r0, #31
 1014 002e FFF7FEFF 		bl	lv_img_cf_get_px_size
 1015              	.LVL127:
 1016              		.loc 1 211 17 discriminator 1 view .LVU320
 1017 0032 C0F3C700 		ubfx	r0, r0, #3, #8
 1018              	.LVL128:
 212:Drivers/lvgl/src/draw/lv_img_buf.c ****         uint32_t px     = dsc->header.w * y * px_size + x * px_size;
 1019              		.loc 1 212 9 is_stmt 1 view .LVU321
 1020              		.loc 1 212 38 is_stmt 0 view .LVU322
 1021 0036 2B68     		ldr	r3, [r5]
ARM GAS  /var/folders/lp/x54gwt890xv47sdkqj1k04q40000gn/T//ccZWiB8D.s 			page 41


 1022 0038 C3F38A23 		ubfx	r3, r3, #10, #11
 1023              		.loc 1 212 41 view .LVU323
 1024 003c 06FB03F3 		mul	r3, r6, r3
 1025              		.loc 1 212 59 view .LVU324
 1026 0040 00FB04F4 		mul	r4, r0, r4
 1027              	.LVL129:
 1028              		.loc 1 212 55 view .LVU325
 1029 0044 00FB0344 		mla	r4, r0, r3, r4
 1030              	.LVL130:
 213:Drivers/lvgl/src/draw/lv_img_buf.c ****         lv_memcpy_small(&buf_u8[px], &c, px_size);
 1031              		.loc 1 213 9 is_stmt 1 view .LVU326
 1032              		.loc 1 213 25 is_stmt 0 view .LVU327
 1033 0048 3C44     		add	r4, r4, r7
 1034              	.LVL131:
 1035              	.LBB48:
 1036              	.LBI48:
 194:Drivers/lvgl/src/draw/../misc/lv_mem.h **** {
 1037              		.loc 3 194 44 is_stmt 1 view .LVU328
 1038              	.LBB49:
 196:Drivers/lvgl/src/draw/../misc/lv_mem.h ****     const uint8_t * s8 = (const uint8_t *)src;
 1039              		.loc 3 196 5 view .LVU329
 197:Drivers/lvgl/src/draw/../misc/lv_mem.h **** 
 1040              		.loc 3 197 5 view .LVU330
 199:Drivers/lvgl/src/draw/../misc/lv_mem.h ****         *d8 = *s8;
 1041              		.loc 3 199 5 view .LVU331
 197:Drivers/lvgl/src/draw/../misc/lv_mem.h **** 
 1042              		.loc 3 197 21 is_stmt 0 view .LVU332
 1043 004a 01AB     		add	r3, sp, #4
 1044              	.LVL132:
 199:Drivers/lvgl/src/draw/../misc/lv_mem.h ****         *d8 = *s8;
 1045              		.loc 3 199 10 view .LVU333
 1046 004c 04E0     		b	.L48
 1047              	.LVL133:
 1048              	.L49:
 200:Drivers/lvgl/src/draw/../misc/lv_mem.h ****         d8++;
 1049              		.loc 3 200 9 is_stmt 1 view .LVU334
 200:Drivers/lvgl/src/draw/../misc/lv_mem.h ****         d8++;
 1050              		.loc 3 200 15 is_stmt 0 view .LVU335
 1051 004e 13F8012B 		ldrb	r2, [r3], #1	@ zero_extendqisi2
 1052              	.LVL134:
 200:Drivers/lvgl/src/draw/../misc/lv_mem.h ****         d8++;
 1053              		.loc 3 200 13 view .LVU336
 1054 0052 04F8012B 		strb	r2, [r4], #1
 1055              	.LVL135:
 201:Drivers/lvgl/src/draw/../misc/lv_mem.h ****         s8++;
 1056              		.loc 3 201 9 is_stmt 1 view .LVU337
 202:Drivers/lvgl/src/draw/../misc/lv_mem.h ****         len--;
 1057              		.loc 3 202 9 view .LVU338
 1058              		.loc 3 203 9 view .LVU339
 1059              		.loc 3 203 12 is_stmt 0 view .LVU340
 1060 0056 0138     		subs	r0, r0, #1
 1061              	.LVL136:
 1062              	.L48:
 199:Drivers/lvgl/src/draw/../misc/lv_mem.h ****         *d8 = *s8;
 1063              		.loc 3 199 11 is_stmt 1 view .LVU341
 1064 0058 0028     		cmp	r0, #0
 1065 005a F8D1     		bne	.L49
ARM GAS  /var/folders/lp/x54gwt890xv47sdkqj1k04q40000gn/T//ccZWiB8D.s 			page 42


 1066              	.LVL137:
 1067              	.L39:
 199:Drivers/lvgl/src/draw/../misc/lv_mem.h ****         *d8 = *s8;
 1068              		.loc 3 199 11 is_stmt 0 view .LVU342
 1069              	.LBE49:
 1070              	.LBE48:
 1071              	.LBE47:
 214:Drivers/lvgl/src/draw/lv_img_buf.c ****     }
 215:Drivers/lvgl/src/draw/lv_img_buf.c ****     else if(dsc->header.cf == LV_IMG_CF_TRUE_COLOR_ALPHA) {
 216:Drivers/lvgl/src/draw/lv_img_buf.c ****         uint8_t px_size = lv_img_cf_get_px_size(dsc->header.cf) >> 3;
 217:Drivers/lvgl/src/draw/lv_img_buf.c ****         uint32_t px     = dsc->header.w * y * px_size + x * px_size;
 218:Drivers/lvgl/src/draw/lv_img_buf.c ****         lv_memcpy_small(&buf_u8[px], &c, px_size - 1); /*-1 to not overwrite the alpha value*/
 219:Drivers/lvgl/src/draw/lv_img_buf.c ****     }
 220:Drivers/lvgl/src/draw/lv_img_buf.c ****     else if(dsc->header.cf == LV_IMG_CF_INDEXED_1BIT) {
 221:Drivers/lvgl/src/draw/lv_img_buf.c ****         buf_u8 += sizeof(lv_color32_t) * 2; /*Skip the palette*/
 222:Drivers/lvgl/src/draw/lv_img_buf.c **** 
 223:Drivers/lvgl/src/draw/lv_img_buf.c ****         uint8_t bit = x & 0x7;
 224:Drivers/lvgl/src/draw/lv_img_buf.c ****         x           = x >> 3;
 225:Drivers/lvgl/src/draw/lv_img_buf.c **** 
 226:Drivers/lvgl/src/draw/lv_img_buf.c ****         /*Get the current pixel.
 227:Drivers/lvgl/src/draw/lv_img_buf.c ****          *dsc->header.w + 7 means rounding up to 8 because the lines are byte aligned
 228:Drivers/lvgl/src/draw/lv_img_buf.c ****          *so the possible real width are 8 ,16, 24 ...*/
 229:Drivers/lvgl/src/draw/lv_img_buf.c ****         uint32_t px = ((dsc->header.w + 7) >> 3) * y + x;
 230:Drivers/lvgl/src/draw/lv_img_buf.c ****         buf_u8[px]  = buf_u8[px] & ~(1 << (7 - bit));
 231:Drivers/lvgl/src/draw/lv_img_buf.c ****         buf_u8[px]  = buf_u8[px] | ((c.full & 0x1) << (7 - bit));
 232:Drivers/lvgl/src/draw/lv_img_buf.c ****     }
 233:Drivers/lvgl/src/draw/lv_img_buf.c ****     else if(dsc->header.cf == LV_IMG_CF_INDEXED_2BIT) {
 234:Drivers/lvgl/src/draw/lv_img_buf.c ****         buf_u8 += sizeof(lv_color32_t) * 4; /*Skip the palette*/
 235:Drivers/lvgl/src/draw/lv_img_buf.c ****         uint8_t bit = (x & 0x3) * 2;
 236:Drivers/lvgl/src/draw/lv_img_buf.c ****         x           = x >> 2;
 237:Drivers/lvgl/src/draw/lv_img_buf.c **** 
 238:Drivers/lvgl/src/draw/lv_img_buf.c ****         /*Get the current pixel.
 239:Drivers/lvgl/src/draw/lv_img_buf.c ****          *dsc->header.w + 3 means rounding up to 4 because the lines are byte aligned
 240:Drivers/lvgl/src/draw/lv_img_buf.c ****          *so the possible real width are 4, 8 ,12 ...*/
 241:Drivers/lvgl/src/draw/lv_img_buf.c ****         uint32_t px = ((dsc->header.w + 3) >> 2) * y + x;
 242:Drivers/lvgl/src/draw/lv_img_buf.c **** 
 243:Drivers/lvgl/src/draw/lv_img_buf.c ****         buf_u8[px] = buf_u8[px] & ~(3 << (6 - bit));
 244:Drivers/lvgl/src/draw/lv_img_buf.c ****         buf_u8[px] = buf_u8[px] | ((c.full & 0x3) << (6 - bit));
 245:Drivers/lvgl/src/draw/lv_img_buf.c ****     }
 246:Drivers/lvgl/src/draw/lv_img_buf.c ****     else if(dsc->header.cf == LV_IMG_CF_INDEXED_4BIT) {
 247:Drivers/lvgl/src/draw/lv_img_buf.c ****         buf_u8 += sizeof(lv_color32_t) * 16; /*Skip the palette*/
 248:Drivers/lvgl/src/draw/lv_img_buf.c ****         uint8_t bit = (x & 0x1) * 4;
 249:Drivers/lvgl/src/draw/lv_img_buf.c ****         x           = x >> 1;
 250:Drivers/lvgl/src/draw/lv_img_buf.c **** 
 251:Drivers/lvgl/src/draw/lv_img_buf.c ****         /*Get the current pixel.
 252:Drivers/lvgl/src/draw/lv_img_buf.c ****          *dsc->header.w + 1 means rounding up to 2 because the lines are byte aligned
 253:Drivers/lvgl/src/draw/lv_img_buf.c ****          *so the possible real width are 2 ,4, 6 ...*/
 254:Drivers/lvgl/src/draw/lv_img_buf.c ****         uint32_t px = ((dsc->header.w + 1) >> 1) * y + x;
 255:Drivers/lvgl/src/draw/lv_img_buf.c ****         buf_u8[px]  = buf_u8[px] & ~(0xF << (4 - bit));
 256:Drivers/lvgl/src/draw/lv_img_buf.c ****         buf_u8[px]  = buf_u8[px] | ((c.full & 0xF) << (4 - bit));
 257:Drivers/lvgl/src/draw/lv_img_buf.c ****     }
 258:Drivers/lvgl/src/draw/lv_img_buf.c ****     else if(dsc->header.cf == LV_IMG_CF_INDEXED_8BIT) {
 259:Drivers/lvgl/src/draw/lv_img_buf.c ****         buf_u8 += sizeof(lv_color32_t) * 256; /*Skip the palette*/
 260:Drivers/lvgl/src/draw/lv_img_buf.c ****         uint32_t px = dsc->header.w * y + x;
 261:Drivers/lvgl/src/draw/lv_img_buf.c ****         buf_u8[px]  = c.full;
 262:Drivers/lvgl/src/draw/lv_img_buf.c ****     }
 263:Drivers/lvgl/src/draw/lv_img_buf.c **** }
ARM GAS  /var/folders/lp/x54gwt890xv47sdkqj1k04q40000gn/T//ccZWiB8D.s 			page 43


 1072              		.loc 1 263 1 view .LVU343
 1073 005c 03B0     		add	sp, sp, #12
 1074              		.cfi_remember_state
 1075              		.cfi_def_cfa_offset 20
 1076              		@ sp needed
 1077 005e F0BD     		pop	{r4, r5, r6, r7, pc}
 1078              	.LVL138:
 1079              	.L47:
 1080              		.cfi_restore_state
 1081              	.LBB50:
 216:Drivers/lvgl/src/draw/lv_img_buf.c ****         uint32_t px     = dsc->header.w * y * px_size + x * px_size;
 1082              		.loc 1 216 9 is_stmt 1 view .LVU344
 216:Drivers/lvgl/src/draw/lv_img_buf.c ****         uint32_t px     = dsc->header.w * y * px_size + x * px_size;
 1083              		.loc 1 216 60 is_stmt 0 view .LVU345
 1084 0060 0078     		ldrb	r0, [r0]	@ zero_extendqisi2
 1085              	.LVL139:
 216:Drivers/lvgl/src/draw/lv_img_buf.c ****         uint32_t px     = dsc->header.w * y * px_size + x * px_size;
 1086              		.loc 1 216 27 view .LVU346
 1087 0062 00F01F00 		and	r0, r0, #31
 1088 0066 FFF7FEFF 		bl	lv_img_cf_get_px_size
 1089              	.LVL140:
 216:Drivers/lvgl/src/draw/lv_img_buf.c ****         uint32_t px     = dsc->header.w * y * px_size + x * px_size;
 1090              		.loc 1 216 17 discriminator 1 view .LVU347
 1091 006a C0F3C700 		ubfx	r0, r0, #3, #8
 1092              	.LVL141:
 217:Drivers/lvgl/src/draw/lv_img_buf.c ****         lv_memcpy_small(&buf_u8[px], &c, px_size - 1); /*-1 to not overwrite the alpha value*/
 1093              		.loc 1 217 9 is_stmt 1 view .LVU348
 217:Drivers/lvgl/src/draw/lv_img_buf.c ****         lv_memcpy_small(&buf_u8[px], &c, px_size - 1); /*-1 to not overwrite the alpha value*/
 1094              		.loc 1 217 38 is_stmt 0 view .LVU349
 1095 006e 2B68     		ldr	r3, [r5]
 1096 0070 C3F38A23 		ubfx	r3, r3, #10, #11
 217:Drivers/lvgl/src/draw/lv_img_buf.c ****         lv_memcpy_small(&buf_u8[px], &c, px_size - 1); /*-1 to not overwrite the alpha value*/
 1097              		.loc 1 217 41 view .LVU350
 1098 0074 06FB03F3 		mul	r3, r6, r3
 217:Drivers/lvgl/src/draw/lv_img_buf.c ****         lv_memcpy_small(&buf_u8[px], &c, px_size - 1); /*-1 to not overwrite the alpha value*/
 1099              		.loc 1 217 59 view .LVU351
 1100 0078 00FB04F4 		mul	r4, r0, r4
 1101              	.LVL142:
 217:Drivers/lvgl/src/draw/lv_img_buf.c ****         lv_memcpy_small(&buf_u8[px], &c, px_size - 1); /*-1 to not overwrite the alpha value*/
 1102              		.loc 1 217 55 view .LVU352
 1103 007c 00FB0344 		mla	r4, r0, r3, r4
 1104              	.LVL143:
 218:Drivers/lvgl/src/draw/lv_img_buf.c ****     }
 1105              		.loc 1 218 9 is_stmt 1 view .LVU353
 218:Drivers/lvgl/src/draw/lv_img_buf.c ****     }
 1106              		.loc 1 218 25 is_stmt 0 view .LVU354
 1107 0080 3C44     		add	r4, r4, r7
 1108              	.LVL144:
 218:Drivers/lvgl/src/draw/lv_img_buf.c ****     }
 1109              		.loc 1 218 50 view .LVU355
 1110 0082 0138     		subs	r0, r0, #1
 1111              	.LVL145:
 1112              	.LBB51:
 1113              	.LBI51:
 194:Drivers/lvgl/src/draw/../misc/lv_mem.h **** {
 1114              		.loc 3 194 44 is_stmt 1 view .LVU356
 1115              	.LBB52:
ARM GAS  /var/folders/lp/x54gwt890xv47sdkqj1k04q40000gn/T//ccZWiB8D.s 			page 44


 196:Drivers/lvgl/src/draw/../misc/lv_mem.h ****     const uint8_t * s8 = (const uint8_t *)src;
 1116              		.loc 3 196 5 view .LVU357
 197:Drivers/lvgl/src/draw/../misc/lv_mem.h **** 
 1117              		.loc 3 197 5 view .LVU358
 199:Drivers/lvgl/src/draw/../misc/lv_mem.h ****         *d8 = *s8;
 1118              		.loc 3 199 5 view .LVU359
 197:Drivers/lvgl/src/draw/../misc/lv_mem.h **** 
 1119              		.loc 3 197 21 is_stmt 0 view .LVU360
 1120 0084 01AB     		add	r3, sp, #4
 1121              	.LVL146:
 199:Drivers/lvgl/src/draw/../misc/lv_mem.h ****         *d8 = *s8;
 1122              		.loc 3 199 10 view .LVU361
 1123 0086 04E0     		b	.L50
 1124              	.LVL147:
 1125              	.L51:
 200:Drivers/lvgl/src/draw/../misc/lv_mem.h ****         d8++;
 1126              		.loc 3 200 9 is_stmt 1 view .LVU362
 200:Drivers/lvgl/src/draw/../misc/lv_mem.h ****         d8++;
 1127              		.loc 3 200 15 is_stmt 0 view .LVU363
 1128 0088 13F8012B 		ldrb	r2, [r3], #1	@ zero_extendqisi2
 1129              	.LVL148:
 200:Drivers/lvgl/src/draw/../misc/lv_mem.h ****         d8++;
 1130              		.loc 3 200 13 view .LVU364
 1131 008c 04F8012B 		strb	r2, [r4], #1
 1132              	.LVL149:
 201:Drivers/lvgl/src/draw/../misc/lv_mem.h ****         s8++;
 1133              		.loc 3 201 9 is_stmt 1 view .LVU365
 202:Drivers/lvgl/src/draw/../misc/lv_mem.h ****         len--;
 1134              		.loc 3 202 9 view .LVU366
 1135              		.loc 3 203 9 view .LVU367
 1136              		.loc 3 203 12 is_stmt 0 view .LVU368
 1137 0090 0138     		subs	r0, r0, #1
 1138              	.LVL150:
 1139              	.L50:
 199:Drivers/lvgl/src/draw/../misc/lv_mem.h ****         *d8 = *s8;
 1140              		.loc 3 199 11 is_stmt 1 view .LVU369
 1141 0092 0028     		cmp	r0, #0
 1142 0094 F8D1     		bne	.L51
 199:Drivers/lvgl/src/draw/../misc/lv_mem.h ****         *d8 = *s8;
 1143              		.loc 3 199 11 is_stmt 0 view .LVU370
 1144 0096 E1E7     		b	.L39
 1145              	.LVL151:
 1146              	.L45:
 199:Drivers/lvgl/src/draw/../misc/lv_mem.h ****         *d8 = *s8;
 1147              		.loc 3 199 11 view .LVU371
 1148              	.LBE52:
 1149              	.LBE51:
 1150              	.LBE50:
 1151              	.LBB53:
 221:Drivers/lvgl/src/draw/lv_img_buf.c **** 
 1152              		.loc 1 221 9 is_stmt 1 view .LVU372
 221:Drivers/lvgl/src/draw/lv_img_buf.c **** 
 1153              		.loc 1 221 16 is_stmt 0 view .LVU373
 1154 0098 0837     		adds	r7, r7, #8
 1155              	.LVL152:
 223:Drivers/lvgl/src/draw/lv_img_buf.c ****         x           = x >> 3;
 1156              		.loc 1 223 9 is_stmt 1 view .LVU374
ARM GAS  /var/folders/lp/x54gwt890xv47sdkqj1k04q40000gn/T//ccZWiB8D.s 			page 45


 223:Drivers/lvgl/src/draw/lv_img_buf.c ****         x           = x >> 3;
 1157              		.loc 1 223 17 is_stmt 0 view .LVU375
 1158 009a 01F00700 		and	r0, r1, #7
 1159              	.LVL153:
 224:Drivers/lvgl/src/draw/lv_img_buf.c **** 
 1160              		.loc 1 224 9 is_stmt 1 view .LVU376
 229:Drivers/lvgl/src/draw/lv_img_buf.c ****         buf_u8[px]  = buf_u8[px] & ~(1 << (7 - bit));
 1161              		.loc 1 229 9 view .LVU377
 229:Drivers/lvgl/src/draw/lv_img_buf.c ****         buf_u8[px]  = buf_u8[px] & ~(1 << (7 - bit));
 1162              		.loc 1 229 36 is_stmt 0 view .LVU378
 1163 009e 2B68     		ldr	r3, [r5]
 1164 00a0 C3F38A23 		ubfx	r3, r3, #10, #11
 229:Drivers/lvgl/src/draw/lv_img_buf.c ****         buf_u8[px]  = buf_u8[px] & ~(1 << (7 - bit));
 1165              		.loc 1 229 39 view .LVU379
 1166 00a4 0733     		adds	r3, r3, #7
 229:Drivers/lvgl/src/draw/lv_img_buf.c ****         buf_u8[px]  = buf_u8[px] & ~(1 << (7 - bit));
 1167              		.loc 1 229 44 view .LVU380
 1168 00a6 DB10     		asrs	r3, r3, #3
 229:Drivers/lvgl/src/draw/lv_img_buf.c ****         buf_u8[px]  = buf_u8[px] & ~(1 << (7 - bit));
 1169              		.loc 1 229 50 view .LVU381
 1170 00a8 06FB03F3 		mul	r3, r6, r3
 229:Drivers/lvgl/src/draw/lv_img_buf.c ****         buf_u8[px]  = buf_u8[px] & ~(1 << (7 - bit));
 1171              		.loc 1 229 54 view .LVU382
 1172 00ac 03EBE103 		add	r3, r3, r1, asr #3
 1173              	.LVL154:
 230:Drivers/lvgl/src/draw/lv_img_buf.c ****         buf_u8[px]  = buf_u8[px] | ((c.full & 0x1) << (7 - bit));
 1174              		.loc 1 230 9 is_stmt 1 view .LVU383
 230:Drivers/lvgl/src/draw/lv_img_buf.c ****         buf_u8[px]  = buf_u8[px] | ((c.full & 0x1) << (7 - bit));
 1175              		.loc 1 230 29 is_stmt 0 view .LVU384
 1176 00b0 F95C     		ldrb	r1, [r7, r3]	@ zero_extendqisi2
 1177              	.LVL155:
 230:Drivers/lvgl/src/draw/lv_img_buf.c ****         buf_u8[px]  = buf_u8[px] | ((c.full & 0x1) << (7 - bit));
 1178              		.loc 1 230 46 view .LVU385
 1179 00b2 C0F10700 		rsb	r0, r0, #7
 1180              	.LVL156:
 230:Drivers/lvgl/src/draw/lv_img_buf.c ****         buf_u8[px]  = buf_u8[px] | ((c.full & 0x1) << (7 - bit));
 1181              		.loc 1 230 40 view .LVU386
 1182 00b6 0122     		movs	r2, #1
 1183 00b8 8240     		lsls	r2, r2, r0
 230:Drivers/lvgl/src/draw/lv_img_buf.c ****         buf_u8[px]  = buf_u8[px] | ((c.full & 0x1) << (7 - bit));
 1184              		.loc 1 230 34 view .LVU387
 1185 00ba D243     		mvns	r2, r2
 1186 00bc 52B2     		sxtb	r2, r2
 1187 00be 0A40     		ands	r2, r2, r1
 230:Drivers/lvgl/src/draw/lv_img_buf.c ****         buf_u8[px]  = buf_u8[px] | ((c.full & 0x1) << (7 - bit));
 1188              		.loc 1 230 21 view .LVU388
 1189 00c0 FA54     		strb	r2, [r7, r3]
 231:Drivers/lvgl/src/draw/lv_img_buf.c ****     }
 1190              		.loc 1 231 9 is_stmt 1 view .LVU389
 231:Drivers/lvgl/src/draw/lv_img_buf.c ****     }
 1191              		.loc 1 231 39 is_stmt 0 view .LVU390
 1192 00c2 BDF80410 		ldrh	r1, [sp, #4]
 231:Drivers/lvgl/src/draw/lv_img_buf.c ****     }
 1193              		.loc 1 231 45 view .LVU391
 1194 00c6 01F00101 		and	r1, r1, #1
 231:Drivers/lvgl/src/draw/lv_img_buf.c ****     }
 1195              		.loc 1 231 52 view .LVU392
ARM GAS  /var/folders/lp/x54gwt890xv47sdkqj1k04q40000gn/T//ccZWiB8D.s 			page 46


 1196 00ca 8140     		lsls	r1, r1, r0
 231:Drivers/lvgl/src/draw/lv_img_buf.c ****     }
 1197              		.loc 1 231 34 view .LVU393
 1198 00cc 0A43     		orrs	r2, r2, r1
 231:Drivers/lvgl/src/draw/lv_img_buf.c ****     }
 1199              		.loc 1 231 21 view .LVU394
 1200 00ce FA54     		strb	r2, [r7, r3]
 1201              	.LBE53:
 1202 00d0 C4E7     		b	.L39
 1203              	.LVL157:
 1204              	.L44:
 1205              	.LBB54:
 234:Drivers/lvgl/src/draw/lv_img_buf.c ****         uint8_t bit = (x & 0x3) * 2;
 1206              		.loc 1 234 9 is_stmt 1 view .LVU395
 234:Drivers/lvgl/src/draw/lv_img_buf.c ****         uint8_t bit = (x & 0x3) * 2;
 1207              		.loc 1 234 16 is_stmt 0 view .LVU396
 1208 00d2 1037     		adds	r7, r7, #16
 1209              	.LVL158:
 235:Drivers/lvgl/src/draw/lv_img_buf.c ****         x           = x >> 2;
 1210              		.loc 1 235 9 is_stmt 1 view .LVU397
 235:Drivers/lvgl/src/draw/lv_img_buf.c ****         x           = x >> 2;
 1211              		.loc 1 235 17 is_stmt 0 view .LVU398
 1212 00d4 01F00300 		and	r0, r1, #3
 1213              	.LVL159:
 235:Drivers/lvgl/src/draw/lv_img_buf.c ****         x           = x >> 2;
 1214              		.loc 1 235 17 view .LVU399
 1215 00d8 4000     		lsls	r0, r0, #1
 1216              	.LVL160:
 236:Drivers/lvgl/src/draw/lv_img_buf.c **** 
 1217              		.loc 1 236 9 is_stmt 1 view .LVU400
 241:Drivers/lvgl/src/draw/lv_img_buf.c **** 
 1218              		.loc 1 241 9 view .LVU401
 241:Drivers/lvgl/src/draw/lv_img_buf.c **** 
 1219              		.loc 1 241 36 is_stmt 0 view .LVU402
 1220 00da 2B68     		ldr	r3, [r5]
 1221 00dc C3F38A23 		ubfx	r3, r3, #10, #11
 241:Drivers/lvgl/src/draw/lv_img_buf.c **** 
 1222              		.loc 1 241 39 view .LVU403
 1223 00e0 0333     		adds	r3, r3, #3
 241:Drivers/lvgl/src/draw/lv_img_buf.c **** 
 1224              		.loc 1 241 44 view .LVU404
 1225 00e2 9B10     		asrs	r3, r3, #2
 241:Drivers/lvgl/src/draw/lv_img_buf.c **** 
 1226              		.loc 1 241 50 view .LVU405
 1227 00e4 06FB03F3 		mul	r3, r6, r3
 241:Drivers/lvgl/src/draw/lv_img_buf.c **** 
 1228              		.loc 1 241 54 view .LVU406
 1229 00e8 03EBA103 		add	r3, r3, r1, asr #2
 1230              	.LVL161:
 243:Drivers/lvgl/src/draw/lv_img_buf.c ****         buf_u8[px] = buf_u8[px] | ((c.full & 0x3) << (6 - bit));
 1231              		.loc 1 243 9 is_stmt 1 view .LVU407
 243:Drivers/lvgl/src/draw/lv_img_buf.c ****         buf_u8[px] = buf_u8[px] | ((c.full & 0x3) << (6 - bit));
 1232              		.loc 1 243 28 is_stmt 0 view .LVU408
 1233 00ec F95C     		ldrb	r1, [r7, r3]	@ zero_extendqisi2
 1234              	.LVL162:
 243:Drivers/lvgl/src/draw/lv_img_buf.c ****         buf_u8[px] = buf_u8[px] | ((c.full & 0x3) << (6 - bit));
 1235              		.loc 1 243 45 view .LVU409
ARM GAS  /var/folders/lp/x54gwt890xv47sdkqj1k04q40000gn/T//ccZWiB8D.s 			page 47


 1236 00ee C0F10600 		rsb	r0, r0, #6
 1237              	.LVL163:
 243:Drivers/lvgl/src/draw/lv_img_buf.c ****         buf_u8[px] = buf_u8[px] | ((c.full & 0x3) << (6 - bit));
 1238              		.loc 1 243 39 view .LVU410
 1239 00f2 0322     		movs	r2, #3
 1240 00f4 8240     		lsls	r2, r2, r0
 243:Drivers/lvgl/src/draw/lv_img_buf.c ****         buf_u8[px] = buf_u8[px] | ((c.full & 0x3) << (6 - bit));
 1241              		.loc 1 243 33 view .LVU411
 1242 00f6 D243     		mvns	r2, r2
 1243 00f8 52B2     		sxtb	r2, r2
 1244 00fa 0A40     		ands	r2, r2, r1
 243:Drivers/lvgl/src/draw/lv_img_buf.c ****         buf_u8[px] = buf_u8[px] | ((c.full & 0x3) << (6 - bit));
 1245              		.loc 1 243 20 view .LVU412
 1246 00fc FA54     		strb	r2, [r7, r3]
 244:Drivers/lvgl/src/draw/lv_img_buf.c ****     }
 1247              		.loc 1 244 9 is_stmt 1 view .LVU413
 244:Drivers/lvgl/src/draw/lv_img_buf.c ****     }
 1248              		.loc 1 244 38 is_stmt 0 view .LVU414
 1249 00fe BDF80410 		ldrh	r1, [sp, #4]
 244:Drivers/lvgl/src/draw/lv_img_buf.c ****     }
 1250              		.loc 1 244 44 view .LVU415
 1251 0102 01F00301 		and	r1, r1, #3
 244:Drivers/lvgl/src/draw/lv_img_buf.c ****     }
 1252              		.loc 1 244 51 view .LVU416
 1253 0106 8140     		lsls	r1, r1, r0
 244:Drivers/lvgl/src/draw/lv_img_buf.c ****     }
 1254              		.loc 1 244 33 view .LVU417
 1255 0108 0A43     		orrs	r2, r2, r1
 244:Drivers/lvgl/src/draw/lv_img_buf.c ****     }
 1256              		.loc 1 244 20 view .LVU418
 1257 010a FA54     		strb	r2, [r7, r3]
 1258              	.LBE54:
 1259 010c A6E7     		b	.L39
 1260              	.LVL164:
 1261              	.L43:
 1262              	.LBB55:
 247:Drivers/lvgl/src/draw/lv_img_buf.c ****         uint8_t bit = (x & 0x1) * 4;
 1263              		.loc 1 247 9 is_stmt 1 view .LVU419
 247:Drivers/lvgl/src/draw/lv_img_buf.c ****         uint8_t bit = (x & 0x1) * 4;
 1264              		.loc 1 247 16 is_stmt 0 view .LVU420
 1265 010e 4037     		adds	r7, r7, #64
 1266              	.LVL165:
 248:Drivers/lvgl/src/draw/lv_img_buf.c ****         x           = x >> 1;
 1267              		.loc 1 248 9 is_stmt 1 view .LVU421
 248:Drivers/lvgl/src/draw/lv_img_buf.c ****         x           = x >> 1;
 1268              		.loc 1 248 17 is_stmt 0 view .LVU422
 1269 0110 01F00100 		and	r0, r1, #1
 1270              	.LVL166:
 248:Drivers/lvgl/src/draw/lv_img_buf.c ****         x           = x >> 1;
 1271              		.loc 1 248 17 view .LVU423
 1272 0114 8000     		lsls	r0, r0, #2
 1273              	.LVL167:
 249:Drivers/lvgl/src/draw/lv_img_buf.c **** 
 1274              		.loc 1 249 9 is_stmt 1 view .LVU424
 254:Drivers/lvgl/src/draw/lv_img_buf.c ****         buf_u8[px]  = buf_u8[px] & ~(0xF << (4 - bit));
 1275              		.loc 1 254 9 view .LVU425
 254:Drivers/lvgl/src/draw/lv_img_buf.c ****         buf_u8[px]  = buf_u8[px] & ~(0xF << (4 - bit));
ARM GAS  /var/folders/lp/x54gwt890xv47sdkqj1k04q40000gn/T//ccZWiB8D.s 			page 48


 1276              		.loc 1 254 36 is_stmt 0 view .LVU426
 1277 0116 2B68     		ldr	r3, [r5]
 1278 0118 C3F38A23 		ubfx	r3, r3, #10, #11
 254:Drivers/lvgl/src/draw/lv_img_buf.c ****         buf_u8[px]  = buf_u8[px] & ~(0xF << (4 - bit));
 1279              		.loc 1 254 39 view .LVU427
 1280 011c 0133     		adds	r3, r3, #1
 254:Drivers/lvgl/src/draw/lv_img_buf.c ****         buf_u8[px]  = buf_u8[px] & ~(0xF << (4 - bit));
 1281              		.loc 1 254 44 view .LVU428
 1282 011e 5B10     		asrs	r3, r3, #1
 254:Drivers/lvgl/src/draw/lv_img_buf.c ****         buf_u8[px]  = buf_u8[px] & ~(0xF << (4 - bit));
 1283              		.loc 1 254 50 view .LVU429
 1284 0120 06FB03F3 		mul	r3, r6, r3
 254:Drivers/lvgl/src/draw/lv_img_buf.c ****         buf_u8[px]  = buf_u8[px] & ~(0xF << (4 - bit));
 1285              		.loc 1 254 54 view .LVU430
 1286 0124 03EB6103 		add	r3, r3, r1, asr #1
 1287              	.LVL168:
 255:Drivers/lvgl/src/draw/lv_img_buf.c ****         buf_u8[px]  = buf_u8[px] | ((c.full & 0xF) << (4 - bit));
 1288              		.loc 1 255 9 is_stmt 1 view .LVU431
 255:Drivers/lvgl/src/draw/lv_img_buf.c ****         buf_u8[px]  = buf_u8[px] | ((c.full & 0xF) << (4 - bit));
 1289              		.loc 1 255 29 is_stmt 0 view .LVU432
 1290 0128 F95C     		ldrb	r1, [r7, r3]	@ zero_extendqisi2
 1291              	.LVL169:
 255:Drivers/lvgl/src/draw/lv_img_buf.c ****         buf_u8[px]  = buf_u8[px] | ((c.full & 0xF) << (4 - bit));
 1292              		.loc 1 255 48 view .LVU433
 1293 012a C0F10400 		rsb	r0, r0, #4
 1294              	.LVL170:
 255:Drivers/lvgl/src/draw/lv_img_buf.c ****         buf_u8[px]  = buf_u8[px] | ((c.full & 0xF) << (4 - bit));
 1295              		.loc 1 255 42 view .LVU434
 1296 012e 0F22     		movs	r2, #15
 1297 0130 8240     		lsls	r2, r2, r0
 255:Drivers/lvgl/src/draw/lv_img_buf.c ****         buf_u8[px]  = buf_u8[px] | ((c.full & 0xF) << (4 - bit));
 1298              		.loc 1 255 34 view .LVU435
 1299 0132 D243     		mvns	r2, r2
 1300 0134 52B2     		sxtb	r2, r2
 1301 0136 0A40     		ands	r2, r2, r1
 255:Drivers/lvgl/src/draw/lv_img_buf.c ****         buf_u8[px]  = buf_u8[px] | ((c.full & 0xF) << (4 - bit));
 1302              		.loc 1 255 21 view .LVU436
 1303 0138 FA54     		strb	r2, [r7, r3]
 256:Drivers/lvgl/src/draw/lv_img_buf.c ****     }
 1304              		.loc 1 256 9 is_stmt 1 view .LVU437
 256:Drivers/lvgl/src/draw/lv_img_buf.c ****     }
 1305              		.loc 1 256 39 is_stmt 0 view .LVU438
 1306 013a BDF80410 		ldrh	r1, [sp, #4]
 256:Drivers/lvgl/src/draw/lv_img_buf.c ****     }
 1307              		.loc 1 256 45 view .LVU439
 1308 013e 01F00F01 		and	r1, r1, #15
 256:Drivers/lvgl/src/draw/lv_img_buf.c ****     }
 1309              		.loc 1 256 52 view .LVU440
 1310 0142 8140     		lsls	r1, r1, r0
 256:Drivers/lvgl/src/draw/lv_img_buf.c ****     }
 1311              		.loc 1 256 34 view .LVU441
 1312 0144 0A43     		orrs	r2, r2, r1
 256:Drivers/lvgl/src/draw/lv_img_buf.c ****     }
 1313              		.loc 1 256 21 view .LVU442
 1314 0146 FA54     		strb	r2, [r7, r3]
 1315              	.LBE55:
 1316 0148 88E7     		b	.L39
ARM GAS  /var/folders/lp/x54gwt890xv47sdkqj1k04q40000gn/T//ccZWiB8D.s 			page 49


 1317              	.LVL171:
 1318              	.L41:
 1319              	.LBB56:
 259:Drivers/lvgl/src/draw/lv_img_buf.c ****         uint32_t px = dsc->header.w * y + x;
 1320              		.loc 1 259 9 is_stmt 1 view .LVU443
 260:Drivers/lvgl/src/draw/lv_img_buf.c ****         buf_u8[px]  = c.full;
 1321              		.loc 1 260 9 view .LVU444
 260:Drivers/lvgl/src/draw/lv_img_buf.c ****         buf_u8[px]  = c.full;
 1322              		.loc 1 260 34 is_stmt 0 view .LVU445
 1323 014a 0368     		ldr	r3, [r0]
 1324 014c C3F38A23 		ubfx	r3, r3, #10, #11
 260:Drivers/lvgl/src/draw/lv_img_buf.c ****         buf_u8[px]  = c.full;
 1325              		.loc 1 260 41 view .LVU446
 1326 0150 03FB0614 		mla	r4, r3, r6, r1
 1327              	.LVL172:
 261:Drivers/lvgl/src/draw/lv_img_buf.c ****     }
 1328              		.loc 1 261 9 is_stmt 1 view .LVU447
 261:Drivers/lvgl/src/draw/lv_img_buf.c ****     }
 1329              		.loc 1 261 24 is_stmt 0 view .LVU448
 1330 0154 BDF80430 		ldrh	r3, [sp, #4]
 261:Drivers/lvgl/src/draw/lv_img_buf.c ****     }
 1331              		.loc 1 261 15 view .LVU449
 1332 0158 04F58064 		add	r4, r4, #1024
 1333              	.LVL173:
 261:Drivers/lvgl/src/draw/lv_img_buf.c ****     }
 1334              		.loc 1 261 21 view .LVU450
 1335 015c 3B55     		strb	r3, [r7, r4]
 1336              	.LBE56:
 1337              		.loc 1 263 1 view .LVU451
 1338 015e 7DE7     		b	.L39
 1339              		.cfi_endproc
 1340              	.LFE57:
 1342              		.section	.text.lv_img_buf_set_palette,"ax",%progbits
 1343              		.align	1
 1344              		.global	lv_img_buf_set_palette
 1345              		.syntax unified
 1346              		.thumb
 1347              		.thumb_func
 1349              	lv_img_buf_set_palette:
 1350              	.LVL174:
 1351              	.LFB58:
 264:Drivers/lvgl/src/draw/lv_img_buf.c **** 
 265:Drivers/lvgl/src/draw/lv_img_buf.c **** void lv_img_buf_set_palette(const lv_img_dsc_t * dsc, uint8_t id, lv_color_t c)
 266:Drivers/lvgl/src/draw/lv_img_buf.c **** {
 1352              		.loc 1 266 1 is_stmt 1 view -0
 1353              		.cfi_startproc
 1354              		@ args = 0, pretend = 0, frame = 8
 1355              		@ frame_needed = 0, uses_anonymous_args = 0
 1356              		.loc 1 266 1 is_stmt 0 view .LVU453
 1357 0000 30B5     		push	{r4, r5, lr}
 1358              		.cfi_def_cfa_offset 12
 1359              		.cfi_offset 4, -12
 1360              		.cfi_offset 5, -8
 1361              		.cfi_offset 14, -4
 1362 0002 83B0     		sub	sp, sp, #12
 1363              		.cfi_def_cfa_offset 24
 1364 0004 0446     		mov	r4, r0
ARM GAS  /var/folders/lp/x54gwt890xv47sdkqj1k04q40000gn/T//ccZWiB8D.s 			page 50


 1365 0006 0D46     		mov	r5, r1
 1366 0008 1046     		mov	r0, r2	@ movhi
 1367              	.LVL175:
 267:Drivers/lvgl/src/draw/lv_img_buf.c ****     if((dsc->header.cf == LV_IMG_CF_ALPHA_1BIT && id > 1) || (dsc->header.cf == LV_IMG_CF_ALPHA_2BI
 1368              		.loc 1 267 5 is_stmt 1 view .LVU454
 1369              		.loc 1 267 24 is_stmt 0 view .LVU455
 1370 000a 2378     		ldrb	r3, [r4]	@ zero_extendqisi2
 1371 000c 03F01F03 		and	r3, r3, #31
 1372              		.loc 1 267 7 view .LVU456
 1373 0010 0B2B     		cmp	r3, #11
 1374 0012 0ED0     		beq	.L64
 1375              	.L55:
 1376              		.loc 1 267 59 discriminator 3 view .LVU457
 1377 0014 0C2B     		cmp	r3, #12
 1378 0016 0FD0     		beq	.L65
 1379              	.L57:
 1380              		.loc 1 267 113 discriminator 6 view .LVU458
 1381 0018 0D2B     		cmp	r3, #13
 1382 001a 10D0     		beq	.L66
 1383              	.L58:
 268:Drivers/lvgl/src/draw/lv_img_buf.c ****        (dsc->header.cf == LV_IMG_CF_ALPHA_4BIT && id > 15) || (dsc->header.cf == LV_IMG_CF_ALPHA_8B
 1384              		.loc 1 268 60 discriminator 1 view .LVU459
 1385 001c 0E2B     		cmp	r3, #14
 1386 001e 18D0     		beq	.L54
 269:Drivers/lvgl/src/draw/lv_img_buf.c ****         LV_LOG_WARN("lv_img_buf_set_px_alpha: invalid 'id'");
 270:Drivers/lvgl/src/draw/lv_img_buf.c ****         return;
 271:Drivers/lvgl/src/draw/lv_img_buf.c ****     }
 272:Drivers/lvgl/src/draw/lv_img_buf.c **** 
 273:Drivers/lvgl/src/draw/lv_img_buf.c ****     lv_color32_t c32;
 1387              		.loc 1 273 5 is_stmt 1 view .LVU460
 274:Drivers/lvgl/src/draw/lv_img_buf.c ****     c32.full      = lv_color_to32(c);
 1388              		.loc 1 274 5 view .LVU461
 1389              		.loc 1 274 21 is_stmt 0 view .LVU462
 1390 0020 FFF7FEFF 		bl	lv_color_to32
 1391              	.LVL176:
 1392              		.loc 1 274 19 discriminator 1 view .LVU463
 1393 0024 0190     		str	r0, [sp, #4]
 275:Drivers/lvgl/src/draw/lv_img_buf.c ****     uint8_t * buf = (uint8_t *)dsc->data;
 1394              		.loc 1 275 5 is_stmt 1 view .LVU464
 1395              		.loc 1 275 15 is_stmt 0 view .LVU465
 1396 0026 A268     		ldr	r2, [r4, #8]
 1397              	.LVL177:
 276:Drivers/lvgl/src/draw/lv_img_buf.c ****     lv_memcpy_small(&buf[id * sizeof(c32)], &c32, sizeof(c32));
 1398              		.loc 1 276 5 is_stmt 1 view .LVU466
 1399              		.loc 1 276 21 is_stmt 0 view .LVU467
 1400 0028 02EB8502 		add	r2, r2, r5, lsl #2
 1401              	.LVL178:
 1402              	.LBB57:
 1403              	.LBI57:
 194:Drivers/lvgl/src/draw/../misc/lv_mem.h **** {
 1404              		.loc 3 194 44 is_stmt 1 view .LVU468
 1405              	.LBB58:
 196:Drivers/lvgl/src/draw/../misc/lv_mem.h ****     const uint8_t * s8 = (const uint8_t *)src;
 1406              		.loc 3 196 5 view .LVU469
 197:Drivers/lvgl/src/draw/../misc/lv_mem.h **** 
 1407              		.loc 3 197 5 view .LVU470
 199:Drivers/lvgl/src/draw/../misc/lv_mem.h ****         *d8 = *s8;
ARM GAS  /var/folders/lp/x54gwt890xv47sdkqj1k04q40000gn/T//ccZWiB8D.s 			page 51


 1408              		.loc 3 199 5 view .LVU471
 197:Drivers/lvgl/src/draw/../misc/lv_mem.h **** 
 1409              		.loc 3 197 21 is_stmt 0 view .LVU472
 1410 002c 01A9     		add	r1, sp, #4
 1411              	.LVL179:
 199:Drivers/lvgl/src/draw/../misc/lv_mem.h ****         *d8 = *s8;
 1412              		.loc 3 199 10 view .LVU473
 1413 002e 0423     		movs	r3, #4
 1414 0030 0DE0     		b	.L61
 1415              	.LVL180:
 1416              	.L64:
 199:Drivers/lvgl/src/draw/../misc/lv_mem.h ****         *d8 = *s8;
 1417              		.loc 3 199 10 view .LVU474
 1418              	.LBE58:
 1419              	.LBE57:
 267:Drivers/lvgl/src/draw/lv_img_buf.c ****        (dsc->header.cf == LV_IMG_CF_ALPHA_4BIT && id > 15) || (dsc->header.cf == LV_IMG_CF_ALPHA_8B
 1420              		.loc 1 267 48 discriminator 1 view .LVU475
 1421 0032 0129     		cmp	r1, #1
 1422 0034 EED9     		bls	.L55
 1423 0036 0CE0     		b	.L54
 1424              	.L65:
 267:Drivers/lvgl/src/draw/lv_img_buf.c ****        (dsc->header.cf == LV_IMG_CF_ALPHA_4BIT && id > 15) || (dsc->header.cf == LV_IMG_CF_ALPHA_8B
 1425              		.loc 1 267 102 discriminator 4 view .LVU476
 1426 0038 032D     		cmp	r5, #3
 1427 003a EDD9     		bls	.L57
 1428 003c 09E0     		b	.L54
 1429              	.L66:
 268:Drivers/lvgl/src/draw/lv_img_buf.c ****         LV_LOG_WARN("lv_img_buf_set_px_alpha: invalid 'id'");
 1430              		.loc 1 268 48 view .LVU477
 1431 003e 0F2D     		cmp	r5, #15
 1432 0040 ECD9     		bls	.L58
 1433 0042 06E0     		b	.L54
 1434              	.LVL181:
 1435              	.L62:
 1436              	.LBB60:
 1437              	.LBB59:
 200:Drivers/lvgl/src/draw/../misc/lv_mem.h ****         d8++;
 1438              		.loc 3 200 9 is_stmt 1 view .LVU478
 200:Drivers/lvgl/src/draw/../misc/lv_mem.h ****         d8++;
 1439              		.loc 3 200 15 is_stmt 0 view .LVU479
 1440 0044 11F8010B 		ldrb	r0, [r1], #1	@ zero_extendqisi2
 1441              	.LVL182:
 200:Drivers/lvgl/src/draw/../misc/lv_mem.h ****         d8++;
 1442              		.loc 3 200 13 view .LVU480
 1443 0048 02F8010B 		strb	r0, [r2], #1
 1444              	.LVL183:
 201:Drivers/lvgl/src/draw/../misc/lv_mem.h ****         s8++;
 1445              		.loc 3 201 9 is_stmt 1 view .LVU481
 202:Drivers/lvgl/src/draw/../misc/lv_mem.h ****         len--;
 1446              		.loc 3 202 9 view .LVU482
 1447              		.loc 3 203 9 view .LVU483
 1448              		.loc 3 203 12 is_stmt 0 view .LVU484
 1449 004c 013B     		subs	r3, r3, #1
 1450              	.LVL184:
 1451              	.L61:
 199:Drivers/lvgl/src/draw/../misc/lv_mem.h ****         *d8 = *s8;
 1452              		.loc 3 199 11 is_stmt 1 view .LVU485
ARM GAS  /var/folders/lp/x54gwt890xv47sdkqj1k04q40000gn/T//ccZWiB8D.s 			page 52


 1453 004e 002B     		cmp	r3, #0
 1454 0050 F8D1     		bne	.L62
 1455              	.LVL185:
 1456              	.L54:
 199:Drivers/lvgl/src/draw/../misc/lv_mem.h ****         *d8 = *s8;
 1457              		.loc 3 199 11 is_stmt 0 view .LVU486
 1458              	.LBE59:
 1459              	.LBE60:
 277:Drivers/lvgl/src/draw/lv_img_buf.c **** }
 1460              		.loc 1 277 1 view .LVU487
 1461 0052 03B0     		add	sp, sp, #12
 1462              		.cfi_def_cfa_offset 12
 1463              		@ sp needed
 1464 0054 30BD     		pop	{r4, r5, pc}
 1465              		.loc 1 277 1 view .LVU488
 1466              		.cfi_endproc
 1467              	.LFE58:
 1469              		.section	.text.lv_img_buf_free,"ax",%progbits
 1470              		.align	1
 1471              		.global	lv_img_buf_free
 1472              		.syntax unified
 1473              		.thumb
 1474              		.thumb_func
 1476              	lv_img_buf_free:
 1477              	.LVL186:
 1478              	.LFB60:
 278:Drivers/lvgl/src/draw/lv_img_buf.c **** 
 279:Drivers/lvgl/src/draw/lv_img_buf.c **** lv_img_dsc_t * lv_img_buf_alloc(lv_coord_t w, lv_coord_t h, lv_img_cf_t cf)
 280:Drivers/lvgl/src/draw/lv_img_buf.c **** {
 281:Drivers/lvgl/src/draw/lv_img_buf.c ****     /*Allocate image descriptor*/
 282:Drivers/lvgl/src/draw/lv_img_buf.c ****     lv_img_dsc_t * dsc = lv_mem_alloc(sizeof(lv_img_dsc_t));
 283:Drivers/lvgl/src/draw/lv_img_buf.c ****     if(dsc == NULL)
 284:Drivers/lvgl/src/draw/lv_img_buf.c ****         return NULL;
 285:Drivers/lvgl/src/draw/lv_img_buf.c **** 
 286:Drivers/lvgl/src/draw/lv_img_buf.c ****     lv_memset_00(dsc, sizeof(lv_img_dsc_t));
 287:Drivers/lvgl/src/draw/lv_img_buf.c **** 
 288:Drivers/lvgl/src/draw/lv_img_buf.c ****     /*Get image data size*/
 289:Drivers/lvgl/src/draw/lv_img_buf.c ****     dsc->data_size = lv_img_buf_get_img_size(w, h, cf);
 290:Drivers/lvgl/src/draw/lv_img_buf.c ****     if(dsc->data_size == 0) {
 291:Drivers/lvgl/src/draw/lv_img_buf.c ****         lv_mem_free(dsc);
 292:Drivers/lvgl/src/draw/lv_img_buf.c ****         return NULL;
 293:Drivers/lvgl/src/draw/lv_img_buf.c ****     }
 294:Drivers/lvgl/src/draw/lv_img_buf.c **** 
 295:Drivers/lvgl/src/draw/lv_img_buf.c ****     /*Allocate raw buffer*/
 296:Drivers/lvgl/src/draw/lv_img_buf.c ****     dsc->data = lv_mem_alloc(dsc->data_size);
 297:Drivers/lvgl/src/draw/lv_img_buf.c ****     if(dsc->data == NULL) {
 298:Drivers/lvgl/src/draw/lv_img_buf.c ****         lv_mem_free(dsc);
 299:Drivers/lvgl/src/draw/lv_img_buf.c ****         return NULL;
 300:Drivers/lvgl/src/draw/lv_img_buf.c ****     }
 301:Drivers/lvgl/src/draw/lv_img_buf.c ****     lv_memset_00((uint8_t *)dsc->data, dsc->data_size);
 302:Drivers/lvgl/src/draw/lv_img_buf.c **** 
 303:Drivers/lvgl/src/draw/lv_img_buf.c ****     /*Fill in header*/
 304:Drivers/lvgl/src/draw/lv_img_buf.c ****     dsc->header.always_zero = 0;
 305:Drivers/lvgl/src/draw/lv_img_buf.c ****     dsc->header.w = w;
 306:Drivers/lvgl/src/draw/lv_img_buf.c ****     dsc->header.h = h;
 307:Drivers/lvgl/src/draw/lv_img_buf.c ****     dsc->header.cf = cf;
 308:Drivers/lvgl/src/draw/lv_img_buf.c ****     return dsc;
ARM GAS  /var/folders/lp/x54gwt890xv47sdkqj1k04q40000gn/T//ccZWiB8D.s 			page 53


 309:Drivers/lvgl/src/draw/lv_img_buf.c **** }
 310:Drivers/lvgl/src/draw/lv_img_buf.c **** 
 311:Drivers/lvgl/src/draw/lv_img_buf.c **** void lv_img_buf_free(lv_img_dsc_t * dsc)
 312:Drivers/lvgl/src/draw/lv_img_buf.c **** {
 1479              		.loc 1 312 1 is_stmt 1 view -0
 1480              		.cfi_startproc
 1481              		@ args = 0, pretend = 0, frame = 0
 1482              		@ frame_needed = 0, uses_anonymous_args = 0
 313:Drivers/lvgl/src/draw/lv_img_buf.c ****     if(dsc != NULL) {
 1483              		.loc 1 313 5 view .LVU490
 1484              		.loc 1 313 7 is_stmt 0 view .LVU491
 1485 0000 48B1     		cbz	r0, .L71
 312:Drivers/lvgl/src/draw/lv_img_buf.c ****     if(dsc != NULL) {
 1486              		.loc 1 312 1 view .LVU492
 1487 0002 10B5     		push	{r4, lr}
 1488              		.cfi_def_cfa_offset 8
 1489              		.cfi_offset 4, -8
 1490              		.cfi_offset 14, -4
 1491 0004 0446     		mov	r4, r0
 314:Drivers/lvgl/src/draw/lv_img_buf.c ****         if(dsc->data != NULL)
 1492              		.loc 1 314 9 is_stmt 1 view .LVU493
 1493              		.loc 1 314 15 is_stmt 0 view .LVU494
 1494 0006 8068     		ldr	r0, [r0, #8]
 1495              	.LVL187:
 1496              		.loc 1 314 11 view .LVU495
 1497 0008 08B1     		cbz	r0, .L69
 315:Drivers/lvgl/src/draw/lv_img_buf.c ****             lv_mem_free((void *)dsc->data);
 1498              		.loc 1 315 13 is_stmt 1 view .LVU496
 1499 000a FFF7FEFF 		bl	lv_mem_free
 1500              	.LVL188:
 1501              	.L69:
 316:Drivers/lvgl/src/draw/lv_img_buf.c **** 
 317:Drivers/lvgl/src/draw/lv_img_buf.c ****         lv_mem_free(dsc);
 1502              		.loc 1 317 9 view .LVU497
 1503 000e 2046     		mov	r0, r4
 1504 0010 FFF7FEFF 		bl	lv_mem_free
 1505              	.LVL189:
 318:Drivers/lvgl/src/draw/lv_img_buf.c ****     }
 319:Drivers/lvgl/src/draw/lv_img_buf.c **** }
 1506              		.loc 1 319 1 is_stmt 0 view .LVU498
 1507 0014 10BD     		pop	{r4, pc}
 1508              	.LVL190:
 1509              	.L71:
 1510              		.cfi_def_cfa_offset 0
 1511              		.cfi_restore 4
 1512              		.cfi_restore 14
 1513              		.loc 1 319 1 view .LVU499
 1514 0016 7047     		bx	lr
 1515              		.cfi_endproc
 1516              	.LFE60:
 1518              		.section	.text.lv_img_buf_get_img_size,"ax",%progbits
 1519              		.align	1
 1520              		.global	lv_img_buf_get_img_size
 1521              		.syntax unified
 1522              		.thumb
 1523              		.thumb_func
 1525              	lv_img_buf_get_img_size:
ARM GAS  /var/folders/lp/x54gwt890xv47sdkqj1k04q40000gn/T//ccZWiB8D.s 			page 54


 1526              	.LVL191:
 1527              	.LFB61:
 320:Drivers/lvgl/src/draw/lv_img_buf.c **** 
 321:Drivers/lvgl/src/draw/lv_img_buf.c **** uint32_t lv_img_buf_get_img_size(lv_coord_t w, lv_coord_t h, lv_img_cf_t cf)
 322:Drivers/lvgl/src/draw/lv_img_buf.c **** {
 1528              		.loc 1 322 1 is_stmt 1 view -0
 1529              		.cfi_startproc
 1530              		@ args = 0, pretend = 0, frame = 0
 1531              		@ frame_needed = 0, uses_anonymous_args = 0
 1532              		@ link register save eliminated.
 323:Drivers/lvgl/src/draw/lv_img_buf.c ****     switch(cf) {
 1533              		.loc 1 323 5 view .LVU501
 1534 0000 043A     		subs	r2, r2, #4
 1535              	.LVL192:
 1536              		.loc 1 323 5 is_stmt 0 view .LVU502
 1537 0002 102A     		cmp	r2, #16
 1538 0004 54D8     		bhi	.L92
 1539 0006 DFE802F0 		tbb	[pc, r2]
 1540              	.L77:
 1541 000a 09       		.byte	(.L87-.L77)/2
 1542 000b 0D       		.byte	(.L76-.L77)/2
 1543 000c 12       		.byte	(.L86-.L77)/2
 1544 000d 31       		.byte	(.L85-.L77)/2
 1545 000e 3C       		.byte	(.L84-.L77)/2
 1546 000f 47       		.byte	(.L83-.L77)/2
 1547 0010 4E       		.byte	(.L82-.L77)/2
 1548 0011 16       		.byte	(.L81-.L77)/2
 1549 0012 1F       		.byte	(.L80-.L77)/2
 1550 0013 28       		.byte	(.L79-.L77)/2
 1551 0014 2E       		.byte	(.L78-.L77)/2
 1552 0015 53       		.byte	(.L92-.L77)/2
 1553 0016 53       		.byte	(.L92-.L77)/2
 1554 0017 53       		.byte	(.L92-.L77)/2
 1555 0018 53       		.byte	(.L92-.L77)/2
 1556 0019 53       		.byte	(.L92-.L77)/2
 1557 001a 0D       		.byte	(.L76-.L77)/2
 1558 001b 00       		.p2align 1
 1559              	.L87:
 324:Drivers/lvgl/src/draw/lv_img_buf.c ****         case LV_IMG_CF_TRUE_COLOR:
 325:Drivers/lvgl/src/draw/lv_img_buf.c ****             return LV_IMG_BUF_SIZE_TRUE_COLOR(w, h);
 1560              		.loc 1 325 13 is_stmt 1 view .LVU503
 1561              		.loc 1 325 20 is_stmt 0 view .LVU504
 1562 001c 01FB00F0 		mul	r0, r1, r0
 1563              	.LVL193:
 1564              		.loc 1 325 20 view .LVU505
 1565 0020 4000     		lsls	r0, r0, #1
 1566 0022 7047     		bx	lr
 1567              	.LVL194:
 1568              	.L76:
 326:Drivers/lvgl/src/draw/lv_img_buf.c ****         case LV_IMG_CF_TRUE_COLOR_ALPHA:
 327:Drivers/lvgl/src/draw/lv_img_buf.c ****         case LV_IMG_CF_RGB565A8:
 328:Drivers/lvgl/src/draw/lv_img_buf.c ****             return LV_IMG_BUF_SIZE_TRUE_COLOR_ALPHA(w, h);
 1569              		.loc 1 328 13 is_stmt 1 view .LVU506
 1570              		.loc 1 328 20 is_stmt 0 view .LVU507
 1571 0024 00FB01F1 		mul	r1, r0, r1
 1572              	.LVL195:
 1573              		.loc 1 328 20 view .LVU508
ARM GAS  /var/folders/lp/x54gwt890xv47sdkqj1k04q40000gn/T//ccZWiB8D.s 			page 55


 1574 0028 01EB4100 		add	r0, r1, r1, lsl #1
 1575              	.LVL196:
 1576              		.loc 1 328 20 view .LVU509
 1577 002c 7047     		bx	lr
 1578              	.LVL197:
 1579              	.L86:
 329:Drivers/lvgl/src/draw/lv_img_buf.c ****         case LV_IMG_CF_TRUE_COLOR_CHROMA_KEYED:
 330:Drivers/lvgl/src/draw/lv_img_buf.c ****             return LV_IMG_BUF_SIZE_TRUE_COLOR_CHROMA_KEYED(w, h);
 1580              		.loc 1 330 13 is_stmt 1 view .LVU510
 1581              		.loc 1 330 20 is_stmt 0 view .LVU511
 1582 002e 01FB00F0 		mul	r0, r1, r0
 1583              	.LVL198:
 1584              		.loc 1 330 20 view .LVU512
 1585 0032 4000     		lsls	r0, r0, #1
 1586 0034 7047     		bx	lr
 1587              	.LVL199:
 1588              	.L81:
 331:Drivers/lvgl/src/draw/lv_img_buf.c ****         case LV_IMG_CF_ALPHA_1BIT:
 332:Drivers/lvgl/src/draw/lv_img_buf.c ****             return LV_IMG_BUF_SIZE_ALPHA_1BIT(w, h);
 1589              		.loc 1 332 13 is_stmt 1 view .LVU513
 1590              		.loc 1 332 20 is_stmt 0 view .LVU514
 1591 0036 0346     		mov	r3, r0
 1592 0038 0028     		cmp	r0, #0
 1593 003a 03DB     		blt	.L93
 1594              	.L88:
 1595 003c DB10     		asrs	r3, r3, #3
 1596 003e 03FB0110 		mla	r0, r3, r1, r1
 1597              	.LVL200:
 1598              		.loc 1 332 20 view .LVU515
 1599 0042 7047     		bx	lr
 1600              	.LVL201:
 1601              	.L93:
 1602              		.loc 1 332 20 view .LVU516
 1603 0044 C31D     		adds	r3, r0, #7
 1604 0046 F9E7     		b	.L88
 1605              	.L80:
 333:Drivers/lvgl/src/draw/lv_img_buf.c ****         case LV_IMG_CF_ALPHA_2BIT:
 334:Drivers/lvgl/src/draw/lv_img_buf.c ****             return LV_IMG_BUF_SIZE_ALPHA_2BIT(w, h);
 1606              		.loc 1 334 13 is_stmt 1 view .LVU517
 1607              		.loc 1 334 20 is_stmt 0 view .LVU518
 1608 0048 0346     		mov	r3, r0
 1609 004a 0028     		cmp	r0, #0
 1610 004c 03DB     		blt	.L94
 1611              	.L89:
 1612 004e 9B10     		asrs	r3, r3, #2
 1613 0050 03FB0110 		mla	r0, r3, r1, r1
 1614              	.LVL202:
 1615              		.loc 1 334 20 view .LVU519
 1616 0054 7047     		bx	lr
 1617              	.LVL203:
 1618              	.L94:
 1619              		.loc 1 334 20 view .LVU520
 1620 0056 C31C     		adds	r3, r0, #3
 1621 0058 F9E7     		b	.L89
 1622              	.L79:
 335:Drivers/lvgl/src/draw/lv_img_buf.c ****         case LV_IMG_CF_ALPHA_4BIT:
 336:Drivers/lvgl/src/draw/lv_img_buf.c ****             return LV_IMG_BUF_SIZE_ALPHA_4BIT(w, h);
ARM GAS  /var/folders/lp/x54gwt890xv47sdkqj1k04q40000gn/T//ccZWiB8D.s 			page 56


 1623              		.loc 1 336 13 is_stmt 1 view .LVU521
 1624              		.loc 1 336 20 is_stmt 0 view .LVU522
 1625 005a 00EBD070 		add	r0, r0, r0, lsr #31
 1626              	.LVL204:
 1627              		.loc 1 336 20 view .LVU523
 1628 005e 4010     		asrs	r0, r0, #1
 1629 0060 00FB0110 		mla	r0, r0, r1, r1
 1630 0064 7047     		bx	lr
 1631              	.LVL205:
 1632              	.L78:
 337:Drivers/lvgl/src/draw/lv_img_buf.c ****         case LV_IMG_CF_ALPHA_8BIT:
 338:Drivers/lvgl/src/draw/lv_img_buf.c ****             return LV_IMG_BUF_SIZE_ALPHA_8BIT(w, h);
 1633              		.loc 1 338 13 is_stmt 1 view .LVU524
 1634              		.loc 1 338 20 is_stmt 0 view .LVU525
 1635 0066 01FB00F0 		mul	r0, r1, r0
 1636              	.LVL206:
 1637              		.loc 1 338 20 view .LVU526
 1638 006a 7047     		bx	lr
 1639              	.LVL207:
 1640              	.L85:
 339:Drivers/lvgl/src/draw/lv_img_buf.c ****         case LV_IMG_CF_INDEXED_1BIT:
 340:Drivers/lvgl/src/draw/lv_img_buf.c ****             return LV_IMG_BUF_SIZE_INDEXED_1BIT(w, h);
 1641              		.loc 1 340 13 is_stmt 1 view .LVU527
 1642              		.loc 1 340 20 is_stmt 0 view .LVU528
 1643 006c 0346     		mov	r3, r0
 1644 006e 0028     		cmp	r0, #0
 1645 0070 05DB     		blt	.L95
 1646              	.L90:
 1647 0072 DB10     		asrs	r3, r3, #3
 1648 0074 03FB0113 		mla	r3, r3, r1, r1
 1649 0078 03F10800 		add	r0, r3, #8
 1650              	.LVL208:
 1651              		.loc 1 340 20 view .LVU529
 1652 007c 7047     		bx	lr
 1653              	.LVL209:
 1654              	.L95:
 1655              		.loc 1 340 20 view .LVU530
 1656 007e C31D     		adds	r3, r0, #7
 1657 0080 F7E7     		b	.L90
 1658              	.L84:
 341:Drivers/lvgl/src/draw/lv_img_buf.c ****         case LV_IMG_CF_INDEXED_2BIT:
 342:Drivers/lvgl/src/draw/lv_img_buf.c ****             return LV_IMG_BUF_SIZE_INDEXED_2BIT(w, h);
 1659              		.loc 1 342 13 is_stmt 1 view .LVU531
 1660              		.loc 1 342 20 is_stmt 0 view .LVU532
 1661 0082 0346     		mov	r3, r0
 1662 0084 0028     		cmp	r0, #0
 1663 0086 05DB     		blt	.L96
 1664              	.L91:
 1665 0088 9B10     		asrs	r3, r3, #2
 1666 008a 03FB0113 		mla	r3, r3, r1, r1
 1667 008e 03F11000 		add	r0, r3, #16
 1668              	.LVL210:
 1669              		.loc 1 342 20 view .LVU533
 1670 0092 7047     		bx	lr
 1671              	.LVL211:
 1672              	.L96:
 1673              		.loc 1 342 20 view .LVU534
ARM GAS  /var/folders/lp/x54gwt890xv47sdkqj1k04q40000gn/T//ccZWiB8D.s 			page 57


 1674 0094 C31C     		adds	r3, r0, #3
 1675 0096 F7E7     		b	.L91
 1676              	.L83:
 343:Drivers/lvgl/src/draw/lv_img_buf.c ****         case LV_IMG_CF_INDEXED_4BIT:
 344:Drivers/lvgl/src/draw/lv_img_buf.c ****             return LV_IMG_BUF_SIZE_INDEXED_4BIT(w, h);
 1677              		.loc 1 344 13 is_stmt 1 view .LVU535
 1678              		.loc 1 344 20 is_stmt 0 view .LVU536
 1679 0098 00EBD070 		add	r0, r0, r0, lsr #31
 1680              	.LVL212:
 1681              		.loc 1 344 20 view .LVU537
 1682 009c 4010     		asrs	r0, r0, #1
 1683 009e 00FB0110 		mla	r0, r0, r1, r1
 1684 00a2 4030     		adds	r0, r0, #64
 1685 00a4 7047     		bx	lr
 1686              	.LVL213:
 1687              	.L82:
 345:Drivers/lvgl/src/draw/lv_img_buf.c ****         case LV_IMG_CF_INDEXED_8BIT:
 346:Drivers/lvgl/src/draw/lv_img_buf.c ****             return LV_IMG_BUF_SIZE_INDEXED_8BIT(w, h);
 1688              		.loc 1 346 13 is_stmt 1 view .LVU538
 1689              		.loc 1 346 20 is_stmt 0 view .LVU539
 1690 00a6 01FB00F0 		mul	r0, r1, r0
 1691              	.LVL214:
 1692              		.loc 1 346 20 view .LVU540
 1693 00aa 00F58060 		add	r0, r0, #1024
 1694 00ae 7047     		bx	lr
 1695              	.LVL215:
 1696              	.L92:
 323:Drivers/lvgl/src/draw/lv_img_buf.c ****         case LV_IMG_CF_TRUE_COLOR:
 1697              		.loc 1 323 5 view .LVU541
 1698 00b0 0020     		movs	r0, #0
 1699              	.LVL216:
 347:Drivers/lvgl/src/draw/lv_img_buf.c ****         default:
 348:Drivers/lvgl/src/draw/lv_img_buf.c ****             return 0;
 349:Drivers/lvgl/src/draw/lv_img_buf.c ****     }
 350:Drivers/lvgl/src/draw/lv_img_buf.c **** }
 1700              		.loc 1 350 1 view .LVU542
 1701 00b2 7047     		bx	lr
 1702              		.cfi_endproc
 1703              	.LFE61:
 1705              		.section	.text.lv_img_buf_alloc,"ax",%progbits
 1706              		.align	1
 1707              		.global	lv_img_buf_alloc
 1708              		.syntax unified
 1709              		.thumb
 1710              		.thumb_func
 1712              	lv_img_buf_alloc:
 1713              	.LVL217:
 1714              	.LFB59:
 280:Drivers/lvgl/src/draw/lv_img_buf.c ****     /*Allocate image descriptor*/
 1715              		.loc 1 280 1 is_stmt 1 view -0
 1716              		.cfi_startproc
 1717              		@ args = 0, pretend = 0, frame = 0
 1718              		@ frame_needed = 0, uses_anonymous_args = 0
 280:Drivers/lvgl/src/draw/lv_img_buf.c ****     /*Allocate image descriptor*/
 1719              		.loc 1 280 1 is_stmt 0 view .LVU544
 1720 0000 2DE9F041 		push	{r4, r5, r6, r7, r8, lr}
 1721              		.cfi_def_cfa_offset 24
ARM GAS  /var/folders/lp/x54gwt890xv47sdkqj1k04q40000gn/T//ccZWiB8D.s 			page 58


 1722              		.cfi_offset 4, -24
 1723              		.cfi_offset 5, -20
 1724              		.cfi_offset 6, -16
 1725              		.cfi_offset 7, -12
 1726              		.cfi_offset 8, -8
 1727              		.cfi_offset 14, -4
 1728 0004 0746     		mov	r7, r0
 1729 0006 0E46     		mov	r6, r1
 1730 0008 1546     		mov	r5, r2
 282:Drivers/lvgl/src/draw/lv_img_buf.c ****     if(dsc == NULL)
 1731              		.loc 1 282 5 is_stmt 1 view .LVU545
 282:Drivers/lvgl/src/draw/lv_img_buf.c ****     if(dsc == NULL)
 1732              		.loc 1 282 26 is_stmt 0 view .LVU546
 1733 000a 0C20     		movs	r0, #12
 1734              	.LVL218:
 282:Drivers/lvgl/src/draw/lv_img_buf.c ****     if(dsc == NULL)
 1735              		.loc 1 282 26 view .LVU547
 1736 000c FFF7FEFF 		bl	lv_mem_alloc
 1737              	.LVL219:
 283:Drivers/lvgl/src/draw/lv_img_buf.c ****         return NULL;
 1738              		.loc 1 283 5 is_stmt 1 view .LVU548
 283:Drivers/lvgl/src/draw/lv_img_buf.c ****         return NULL;
 1739              		.loc 1 283 7 is_stmt 0 view .LVU549
 1740 0010 0446     		mov	r4, r0
 1741 0012 08B3     		cbz	r0, .L97
 286:Drivers/lvgl/src/draw/lv_img_buf.c **** 
 1742              		.loc 1 286 5 is_stmt 1 view .LVU550
 1743 0014 0C21     		movs	r1, #12
 1744 0016 FFF7FEFF 		bl	lv_memset_00
 1745              	.LVL220:
 289:Drivers/lvgl/src/draw/lv_img_buf.c ****     if(dsc->data_size == 0) {
 1746              		.loc 1 289 5 view .LVU551
 289:Drivers/lvgl/src/draw/lv_img_buf.c ****     if(dsc->data_size == 0) {
 1747              		.loc 1 289 22 is_stmt 0 view .LVU552
 1748 001a 2A46     		mov	r2, r5
 1749 001c 3146     		mov	r1, r6
 1750 001e 3846     		mov	r0, r7
 1751 0020 FFF7FEFF 		bl	lv_img_buf_get_img_size
 1752              	.LVL221:
 289:Drivers/lvgl/src/draw/lv_img_buf.c ****     if(dsc->data_size == 0) {
 1753              		.loc 1 289 20 discriminator 1 view .LVU553
 1754 0024 6060     		str	r0, [r4, #4]
 290:Drivers/lvgl/src/draw/lv_img_buf.c ****         lv_mem_free(dsc);
 1755              		.loc 1 290 5 is_stmt 1 view .LVU554
 290:Drivers/lvgl/src/draw/lv_img_buf.c ****         lv_mem_free(dsc);
 1756              		.loc 1 290 7 is_stmt 0 view .LVU555
 1757 0026 D0B1     		cbz	r0, .L102
 296:Drivers/lvgl/src/draw/lv_img_buf.c ****     if(dsc->data == NULL) {
 1758              		.loc 1 296 5 is_stmt 1 view .LVU556
 296:Drivers/lvgl/src/draw/lv_img_buf.c ****     if(dsc->data == NULL) {
 1759              		.loc 1 296 17 is_stmt 0 view .LVU557
 1760 0028 FFF7FEFF 		bl	lv_mem_alloc
 1761              	.LVL222:
 1762 002c 8046     		mov	r8, r0
 296:Drivers/lvgl/src/draw/lv_img_buf.c ****     if(dsc->data == NULL) {
 1763              		.loc 1 296 15 discriminator 1 view .LVU558
 1764 002e A060     		str	r0, [r4, #8]
ARM GAS  /var/folders/lp/x54gwt890xv47sdkqj1k04q40000gn/T//ccZWiB8D.s 			page 59


 297:Drivers/lvgl/src/draw/lv_img_buf.c ****         lv_mem_free(dsc);
 1765              		.loc 1 297 5 is_stmt 1 view .LVU559
 297:Drivers/lvgl/src/draw/lv_img_buf.c ****         lv_mem_free(dsc);
 1766              		.loc 1 297 7 is_stmt 0 view .LVU560
 1767 0030 D0B1     		cbz	r0, .L103
 301:Drivers/lvgl/src/draw/lv_img_buf.c **** 
 1768              		.loc 1 301 5 is_stmt 1 view .LVU561
 1769 0032 6168     		ldr	r1, [r4, #4]
 1770 0034 FFF7FEFF 		bl	lv_memset_00
 1771              	.LVL223:
 304:Drivers/lvgl/src/draw/lv_img_buf.c ****     dsc->header.w = w;
 1772              		.loc 1 304 5 view .LVU562
 304:Drivers/lvgl/src/draw/lv_img_buf.c ****     dsc->header.w = w;
 1773              		.loc 1 304 29 is_stmt 0 view .LVU563
 1774 0038 2378     		ldrb	r3, [r4]	@ zero_extendqisi2
 1775 003a 23F0E003 		bic	r3, r3, #224
 1776 003e 2370     		strb	r3, [r4]
 305:Drivers/lvgl/src/draw/lv_img_buf.c ****     dsc->header.h = h;
 1777              		.loc 1 305 5 is_stmt 1 view .LVU564
 305:Drivers/lvgl/src/draw/lv_img_buf.c ****     dsc->header.h = h;
 1778              		.loc 1 305 19 is_stmt 0 view .LVU565
 1779 0040 2368     		ldr	r3, [r4]
 1780 0042 67F39423 		bfi	r3, r7, #10, #11
 1781 0046 2360     		str	r3, [r4]
 306:Drivers/lvgl/src/draw/lv_img_buf.c ****     dsc->header.cf = cf;
 1782              		.loc 1 306 5 is_stmt 1 view .LVU566
 306:Drivers/lvgl/src/draw/lv_img_buf.c ****     dsc->header.cf = cf;
 1783              		.loc 1 306 19 is_stmt 0 view .LVU567
 1784 0048 6388     		ldrh	r3, [r4, #2]
 1785 004a 66F34F13 		bfi	r3, r6, #5, #11
 1786 004e 6380     		strh	r3, [r4, #2]	@ movhi
 307:Drivers/lvgl/src/draw/lv_img_buf.c ****     return dsc;
 1787              		.loc 1 307 5 is_stmt 1 view .LVU568
 307:Drivers/lvgl/src/draw/lv_img_buf.c ****     return dsc;
 1788              		.loc 1 307 20 is_stmt 0 view .LVU569
 1789 0050 2378     		ldrb	r3, [r4]	@ zero_extendqisi2
 1790 0052 65F30403 		bfi	r3, r5, #0, #5
 1791 0056 2370     		strb	r3, [r4]
 308:Drivers/lvgl/src/draw/lv_img_buf.c **** }
 1792              		.loc 1 308 5 is_stmt 1 view .LVU570
 1793              	.LVL224:
 1794              	.L97:
 309:Drivers/lvgl/src/draw/lv_img_buf.c **** 
 1795              		.loc 1 309 1 is_stmt 0 view .LVU571
 1796 0058 2046     		mov	r0, r4
 1797 005a BDE8F081 		pop	{r4, r5, r6, r7, r8, pc}
 1798              	.LVL225:
 1799              	.L102:
 291:Drivers/lvgl/src/draw/lv_img_buf.c ****         return NULL;
 1800              		.loc 1 291 9 is_stmt 1 view .LVU572
 1801 005e 2046     		mov	r0, r4
 1802 0060 FFF7FEFF 		bl	lv_mem_free
 1803              	.LVL226:
 292:Drivers/lvgl/src/draw/lv_img_buf.c ****     }
 1804              		.loc 1 292 9 view .LVU573
 292:Drivers/lvgl/src/draw/lv_img_buf.c ****     }
 1805              		.loc 1 292 16 is_stmt 0 view .LVU574
ARM GAS  /var/folders/lp/x54gwt890xv47sdkqj1k04q40000gn/T//ccZWiB8D.s 			page 60


 1806 0064 0024     		movs	r4, #0
 1807              	.LVL227:
 292:Drivers/lvgl/src/draw/lv_img_buf.c ****     }
 1808              		.loc 1 292 16 view .LVU575
 1809 0066 F7E7     		b	.L97
 1810              	.LVL228:
 1811              	.L103:
 298:Drivers/lvgl/src/draw/lv_img_buf.c ****         return NULL;
 1812              		.loc 1 298 9 is_stmt 1 view .LVU576
 1813 0068 2046     		mov	r0, r4
 1814 006a FFF7FEFF 		bl	lv_mem_free
 1815              	.LVL229:
 299:Drivers/lvgl/src/draw/lv_img_buf.c ****     }
 1816              		.loc 1 299 9 view .LVU577
 299:Drivers/lvgl/src/draw/lv_img_buf.c ****     }
 1817              		.loc 1 299 16 is_stmt 0 view .LVU578
 1818 006e 4446     		mov	r4, r8
 1819              	.LVL230:
 299:Drivers/lvgl/src/draw/lv_img_buf.c ****     }
 1820              		.loc 1 299 16 view .LVU579
 1821 0070 F2E7     		b	.L97
 1822              		.cfi_endproc
 1823              	.LFE59:
 1825              		.section	.text._lv_img_buf_get_transformed_area,"ax",%progbits
 1826              		.align	1
 1827              		.global	_lv_img_buf_get_transformed_area
 1828              		.syntax unified
 1829              		.thumb
 1830              		.thumb_func
 1832              	_lv_img_buf_get_transformed_area:
 1833              	.LVL231:
 1834              	.LFB62:
 351:Drivers/lvgl/src/draw/lv_img_buf.c **** 
 352:Drivers/lvgl/src/draw/lv_img_buf.c **** void _lv_img_buf_get_transformed_area(lv_area_t * res, lv_coord_t w, lv_coord_t h, int16_t angle, u
 353:Drivers/lvgl/src/draw/lv_img_buf.c ****                                       const lv_point_t * pivot)
 354:Drivers/lvgl/src/draw/lv_img_buf.c **** {
 1835              		.loc 1 354 1 is_stmt 1 view -0
 1836              		.cfi_startproc
 1837              		@ args = 8, pretend = 0, frame = 16
 1838              		@ frame_needed = 0, uses_anonymous_args = 0
 1839              		.loc 1 354 1 is_stmt 0 view .LVU581
 1840 0000 F0B5     		push	{r4, r5, r6, r7, lr}
 1841              		.cfi_def_cfa_offset 20
 1842              		.cfi_offset 4, -20
 1843              		.cfi_offset 5, -16
 1844              		.cfi_offset 6, -12
 1845              		.cfi_offset 7, -8
 1846              		.cfi_offset 14, -4
 1847 0002 85B0     		sub	sp, sp, #20
 1848              		.cfi_def_cfa_offset 40
 1849 0004 0446     		mov	r4, r0
 1850 0006 BDF82850 		ldrh	r5, [sp, #40]
 1851 000a 0B9F     		ldr	r7, [sp, #44]
 355:Drivers/lvgl/src/draw/lv_img_buf.c **** #if LV_DRAW_COMPLEX
 356:Drivers/lvgl/src/draw/lv_img_buf.c ****     if(angle == 0 && zoom == LV_IMG_ZOOM_NONE) {
 1852              		.loc 1 356 5 is_stmt 1 view .LVU582
 1853              		.loc 1 356 7 is_stmt 0 view .LVU583
ARM GAS  /var/folders/lp/x54gwt890xv47sdkqj1k04q40000gn/T//ccZWiB8D.s 			page 61


 1854 000c 1E46     		mov	r6, r3
 1855 000e 13B9     		cbnz	r3, .L105
 1856              		.loc 1 356 19 discriminator 1 view .LVU584
 1857 0010 B5F5807F 		cmp	r5, #256
 1858 0014 6ED0     		beq	.L108
 1859              	.L105:
 357:Drivers/lvgl/src/draw/lv_img_buf.c ****         res->x1 = 0;
 358:Drivers/lvgl/src/draw/lv_img_buf.c ****         res->y1 = 0;
 359:Drivers/lvgl/src/draw/lv_img_buf.c ****         res->x2 = w - 1;
 360:Drivers/lvgl/src/draw/lv_img_buf.c ****         res->y2 = h - 1;
 361:Drivers/lvgl/src/draw/lv_img_buf.c ****         return;
 362:Drivers/lvgl/src/draw/lv_img_buf.c ****     }
 363:Drivers/lvgl/src/draw/lv_img_buf.c **** 
 364:Drivers/lvgl/src/draw/lv_img_buf.c ****     lv_point_t p[4] = {
 1860              		.loc 1 364 5 is_stmt 1 view .LVU585
 1861              		.loc 1 364 16 is_stmt 0 view .LVU586
 1862 0016 0023     		movs	r3, #0
 1863              	.LVL232:
 1864              		.loc 1 364 16 view .LVU587
 1865 0018 ADF80030 		strh	r3, [sp]	@ movhi
 1866 001c ADF80230 		strh	r3, [sp, #2]	@ movhi
 1867 0020 ADF80410 		strh	r1, [sp, #4]	@ movhi
 1868 0024 ADF80630 		strh	r3, [sp, #6]	@ movhi
 1869 0028 ADF80830 		strh	r3, [sp, #8]	@ movhi
 1870 002c ADF80A20 		strh	r2, [sp, #10]	@ movhi
 1871 0030 ADF80C10 		strh	r1, [sp, #12]	@ movhi
 1872 0034 ADF80E20 		strh	r2, [sp, #14]	@ movhi
 365:Drivers/lvgl/src/draw/lv_img_buf.c ****         {0, 0},
 366:Drivers/lvgl/src/draw/lv_img_buf.c ****         {w, 0},
 367:Drivers/lvgl/src/draw/lv_img_buf.c ****         {0, h},
 368:Drivers/lvgl/src/draw/lv_img_buf.c ****         {w, h},
 369:Drivers/lvgl/src/draw/lv_img_buf.c ****     };
 370:Drivers/lvgl/src/draw/lv_img_buf.c ****     lv_point_transform(&p[0], angle, zoom, pivot);
 1873              		.loc 1 370 5 is_stmt 1 view .LVU588
 1874 0038 3B46     		mov	r3, r7
 1875 003a 2A46     		mov	r2, r5
 1876              	.LVL233:
 1877              		.loc 1 370 5 is_stmt 0 view .LVU589
 1878 003c 3146     		mov	r1, r6
 1879              	.LVL234:
 1880              		.loc 1 370 5 view .LVU590
 1881 003e 6846     		mov	r0, sp
 1882              	.LVL235:
 1883              		.loc 1 370 5 view .LVU591
 1884 0040 FFF7FEFF 		bl	lv_point_transform
 1885              	.LVL236:
 371:Drivers/lvgl/src/draw/lv_img_buf.c ****     lv_point_transform(&p[1], angle, zoom, pivot);
 1886              		.loc 1 371 5 is_stmt 1 view .LVU592
 1887 0044 3B46     		mov	r3, r7
 1888 0046 2A46     		mov	r2, r5
 1889 0048 3146     		mov	r1, r6
 1890 004a 01A8     		add	r0, sp, #4
 1891 004c FFF7FEFF 		bl	lv_point_transform
 1892              	.LVL237:
 372:Drivers/lvgl/src/draw/lv_img_buf.c ****     lv_point_transform(&p[2], angle, zoom, pivot);
 1893              		.loc 1 372 5 view .LVU593
 1894 0050 3B46     		mov	r3, r7
ARM GAS  /var/folders/lp/x54gwt890xv47sdkqj1k04q40000gn/T//ccZWiB8D.s 			page 62


 1895 0052 2A46     		mov	r2, r5
 1896 0054 3146     		mov	r1, r6
 1897 0056 02A8     		add	r0, sp, #8
 1898 0058 FFF7FEFF 		bl	lv_point_transform
 1899              	.LVL238:
 373:Drivers/lvgl/src/draw/lv_img_buf.c ****     lv_point_transform(&p[3], angle, zoom, pivot);
 1900              		.loc 1 373 5 view .LVU594
 1901 005c 3B46     		mov	r3, r7
 1902 005e 2A46     		mov	r2, r5
 1903 0060 3146     		mov	r1, r6
 1904 0062 03A8     		add	r0, sp, #12
 1905 0064 FFF7FEFF 		bl	lv_point_transform
 1906              	.LVL239:
 374:Drivers/lvgl/src/draw/lv_img_buf.c ****     res->x1 = LV_MIN4(p[0].x, p[1].x, p[2].x, p[3].x) - 2;
 1907              		.loc 1 374 5 view .LVU595
 1908              		.loc 1 374 15 is_stmt 0 view .LVU596
 1909 0068 BDF90C30 		ldrsh	r3, [sp, #12]
 1910 006c BDF90850 		ldrsh	r5, [sp, #8]
 1911 0070 1A46     		mov	r2, r3
 1912 0072 AB42     		cmp	r3, r5
 1913 0074 A8BF     		it	ge
 1914 0076 2A46     		movge	r2, r5
 1915 0078 BDF90410 		ldrsh	r1, [sp, #4]
 1916 007c BDF90000 		ldrsh	r0, [sp]
 1917 0080 0E46     		mov	r6, r1
 1918              	.LVL240:
 1919              		.loc 1 374 15 view .LVU597
 1920 0082 8142     		cmp	r1, r0
 1921 0084 A8BF     		it	ge
 1922 0086 0646     		movge	r6, r0
 1923 0088 B242     		cmp	r2, r6
 1924 008a A8BF     		it	ge
 1925 008c 3246     		movge	r2, r6
 1926 008e 92B2     		uxth	r2, r2
 1927              		.loc 1 374 55 view .LVU598
 1928 0090 023A     		subs	r2, r2, #2
 1929              		.loc 1 374 13 view .LVU599
 1930 0092 2280     		strh	r2, [r4]	@ movhi
 375:Drivers/lvgl/src/draw/lv_img_buf.c ****     res->x2 = LV_MAX4(p[0].x, p[1].x, p[2].x, p[3].x) + 2;
 1931              		.loc 1 375 5 is_stmt 1 view .LVU600
 1932              		.loc 1 375 15 is_stmt 0 view .LVU601
 1933 0094 AB42     		cmp	r3, r5
 1934 0096 B8BF     		it	lt
 1935 0098 2B46     		movlt	r3, r5
 1936 009a 8142     		cmp	r1, r0
 1937 009c B8BF     		it	lt
 1938 009e 0146     		movlt	r1, r0
 1939 00a0 8B42     		cmp	r3, r1
 1940 00a2 B8BF     		it	lt
 1941 00a4 0B46     		movlt	r3, r1
 1942 00a6 9BB2     		uxth	r3, r3
 1943              		.loc 1 375 55 view .LVU602
 1944 00a8 0233     		adds	r3, r3, #2
 1945              		.loc 1 375 13 view .LVU603
 1946 00aa A380     		strh	r3, [r4, #4]	@ movhi
 376:Drivers/lvgl/src/draw/lv_img_buf.c ****     res->y1 = LV_MIN4(p[0].y, p[1].y, p[2].y, p[3].y) - 2;
 1947              		.loc 1 376 5 is_stmt 1 view .LVU604
ARM GAS  /var/folders/lp/x54gwt890xv47sdkqj1k04q40000gn/T//ccZWiB8D.s 			page 63


 1948              		.loc 1 376 15 is_stmt 0 view .LVU605
 1949 00ac BDF90E30 		ldrsh	r3, [sp, #14]
 1950 00b0 BDF90A50 		ldrsh	r5, [sp, #10]
 1951 00b4 1A46     		mov	r2, r3
 1952 00b6 AB42     		cmp	r3, r5
 1953 00b8 A8BF     		it	ge
 1954 00ba 2A46     		movge	r2, r5
 1955 00bc BDF90610 		ldrsh	r1, [sp, #6]
 1956 00c0 BDF90200 		ldrsh	r0, [sp, #2]
 1957 00c4 0E46     		mov	r6, r1
 1958 00c6 8142     		cmp	r1, r0
 1959 00c8 A8BF     		it	ge
 1960 00ca 0646     		movge	r6, r0
 1961 00cc B242     		cmp	r2, r6
 1962 00ce A8BF     		it	ge
 1963 00d0 3246     		movge	r2, r6
 1964 00d2 92B2     		uxth	r2, r2
 1965              		.loc 1 376 55 view .LVU606
 1966 00d4 023A     		subs	r2, r2, #2
 1967              		.loc 1 376 13 view .LVU607
 1968 00d6 6280     		strh	r2, [r4, #2]	@ movhi
 377:Drivers/lvgl/src/draw/lv_img_buf.c ****     res->y2 = LV_MAX4(p[0].y, p[1].y, p[2].y, p[3].y) + 2;
 1969              		.loc 1 377 5 is_stmt 1 view .LVU608
 1970              		.loc 1 377 15 is_stmt 0 view .LVU609
 1971 00d8 AB42     		cmp	r3, r5
 1972 00da B8BF     		it	lt
 1973 00dc 2B46     		movlt	r3, r5
 1974 00de 8142     		cmp	r1, r0
 1975 00e0 B8BF     		it	lt
 1976 00e2 0146     		movlt	r1, r0
 1977 00e4 8B42     		cmp	r3, r1
 1978 00e6 B8BF     		it	lt
 1979 00e8 0B46     		movlt	r3, r1
 1980 00ea 9BB2     		uxth	r3, r3
 1981              		.loc 1 377 55 view .LVU610
 1982 00ec 0233     		adds	r3, r3, #2
 1983              		.loc 1 377 13 view .LVU611
 1984 00ee E380     		strh	r3, [r4, #6]	@ movhi
 1985              	.L104:
 378:Drivers/lvgl/src/draw/lv_img_buf.c **** 
 379:Drivers/lvgl/src/draw/lv_img_buf.c **** #else
 380:Drivers/lvgl/src/draw/lv_img_buf.c ****     LV_UNUSED(angle);
 381:Drivers/lvgl/src/draw/lv_img_buf.c ****     LV_UNUSED(zoom);
 382:Drivers/lvgl/src/draw/lv_img_buf.c ****     LV_UNUSED(pivot);
 383:Drivers/lvgl/src/draw/lv_img_buf.c ****     res->x1 = 0;
 384:Drivers/lvgl/src/draw/lv_img_buf.c ****     res->y1 = 0;
 385:Drivers/lvgl/src/draw/lv_img_buf.c ****     res->x2 = w - 1;
 386:Drivers/lvgl/src/draw/lv_img_buf.c ****     res->y2 = h - 1;
 387:Drivers/lvgl/src/draw/lv_img_buf.c **** #endif
 388:Drivers/lvgl/src/draw/lv_img_buf.c **** }
 1986              		.loc 1 388 1 view .LVU612
 1987 00f0 05B0     		add	sp, sp, #20
 1988              		.cfi_remember_state
 1989              		.cfi_def_cfa_offset 20
 1990              		@ sp needed
 1991 00f2 F0BD     		pop	{r4, r5, r6, r7, pc}
 1992              	.LVL241:
ARM GAS  /var/folders/lp/x54gwt890xv47sdkqj1k04q40000gn/T//ccZWiB8D.s 			page 64


 1993              	.L108:
 1994              		.cfi_restore_state
 357:Drivers/lvgl/src/draw/lv_img_buf.c ****         res->y1 = 0;
 1995              		.loc 1 357 9 is_stmt 1 view .LVU613
 357:Drivers/lvgl/src/draw/lv_img_buf.c ****         res->y1 = 0;
 1996              		.loc 1 357 17 is_stmt 0 view .LVU614
 1997 00f4 0380     		strh	r3, [r0]	@ movhi
 358:Drivers/lvgl/src/draw/lv_img_buf.c ****         res->x2 = w - 1;
 1998              		.loc 1 358 9 is_stmt 1 view .LVU615
 358:Drivers/lvgl/src/draw/lv_img_buf.c ****         res->x2 = w - 1;
 1999              		.loc 1 358 17 is_stmt 0 view .LVU616
 2000 00f6 4380     		strh	r3, [r0, #2]	@ movhi
 359:Drivers/lvgl/src/draw/lv_img_buf.c ****         res->y2 = h - 1;
 2001              		.loc 1 359 9 is_stmt 1 view .LVU617
 359:Drivers/lvgl/src/draw/lv_img_buf.c ****         res->y2 = h - 1;
 2002              		.loc 1 359 21 is_stmt 0 view .LVU618
 2003 00f8 0139     		subs	r1, r1, #1
 2004              	.LVL242:
 359:Drivers/lvgl/src/draw/lv_img_buf.c ****         res->y2 = h - 1;
 2005              		.loc 1 359 17 view .LVU619
 2006 00fa 8180     		strh	r1, [r0, #4]	@ movhi
 360:Drivers/lvgl/src/draw/lv_img_buf.c ****         return;
 2007              		.loc 1 360 9 is_stmt 1 view .LVU620
 360:Drivers/lvgl/src/draw/lv_img_buf.c ****         return;
 2008              		.loc 1 360 21 is_stmt 0 view .LVU621
 2009 00fc 013A     		subs	r2, r2, #1
 2010              	.LVL243:
 360:Drivers/lvgl/src/draw/lv_img_buf.c ****         return;
 2011              		.loc 1 360 17 view .LVU622
 2012 00fe C280     		strh	r2, [r0, #6]	@ movhi
 361:Drivers/lvgl/src/draw/lv_img_buf.c ****     }
 2013              		.loc 1 361 9 is_stmt 1 view .LVU623
 2014 0100 F6E7     		b	.L104
 2015              		.cfi_endproc
 2016              	.LFE62:
 2018              		.section	.rodata
 2019              		.align	2
 2020              		.set	.LANCHOR0,. + 0
 2021              	.LC0:
 2022 0000 00112233 		.ascii	"\000\021\"3DUfw\210\231\252\273\314\335\356\377"
 2022      44556677 
 2022      8899AABB 
 2022      CCDDEEFF 
 2023              		.text
 2024              	.Letext0:
 2025              		.file 4 "/Users/jr/Library/Application Support/Code/User/globalStorage/bmd.stm32-for-vscode/@xpack
 2026              		.file 5 "/Users/jr/Library/Application Support/Code/User/globalStorage/bmd.stm32-for-vscode/@xpack
 2027              		.file 6 "/Users/jr/Library/Application Support/Code/User/globalStorage/bmd.stm32-for-vscode/@xpack
 2028              		.file 7 "Drivers/lvgl/src/draw/../misc/lv_area.h"
 2029              		.file 8 "Drivers/lvgl/src/draw/lv_img_buf.h"
 2030              		.file 9 "Drivers/lvgl/src/draw/lv_draw_img.h"
ARM GAS  /var/folders/lp/x54gwt890xv47sdkqj1k04q40000gn/T//ccZWiB8D.s 			page 65

