ARM GAS  /var/folders/lp/x54gwt890xv47sdkqj1k04q40000gn/T//cct6fn9b.s 			page 1


   1              		.cpu cortex-m4
   2              		.arch armv7e-m
   3              		.fpu fpv4-sp-d16
   4              		.eabi_attribute 27, 1
   5              		.eabi_attribute 28, 1
   6              		.eabi_attribute 20, 1
   7              		.eabi_attribute 21, 1
   8              		.eabi_attribute 23, 3
   9              		.eabi_attribute 24, 1
  10              		.eabi_attribute 25, 1
  11              		.eabi_attribute 26, 1
  12              		.eabi_attribute 30, 1
  13              		.eabi_attribute 34, 1
  14              		.eabi_attribute 18, 4
  15              		.file	"lv_img_cache.c"
  16              		.text
  17              	.Ltext0:
  18              		.cfi_sections	.debug_frame
  19              		.file 1 "Drivers/lvgl/src/draw/lv_img_cache.c"
  20              		.section	.text._lv_img_cache_open,"ax",%progbits
  21              		.align	1
  22              		.global	_lv_img_cache_open
  23              		.syntax unified
  24              		.thumb
  25              		.thumb_func
  27              	_lv_img_cache_open:
  28              	.LVL0:
  29              	.LFB56:
   1:Drivers/lvgl/src/draw/lv_img_cache.c **** /**
   2:Drivers/lvgl/src/draw/lv_img_cache.c ****  * @file lv_img_cache.c
   3:Drivers/lvgl/src/draw/lv_img_cache.c ****  *
   4:Drivers/lvgl/src/draw/lv_img_cache.c ****  */
   5:Drivers/lvgl/src/draw/lv_img_cache.c **** 
   6:Drivers/lvgl/src/draw/lv_img_cache.c **** /*********************
   7:Drivers/lvgl/src/draw/lv_img_cache.c ****  *      INCLUDES
   8:Drivers/lvgl/src/draw/lv_img_cache.c ****  *********************/
   9:Drivers/lvgl/src/draw/lv_img_cache.c **** #include "../misc/lv_assert.h"
  10:Drivers/lvgl/src/draw/lv_img_cache.c **** #include "lv_img_cache.h"
  11:Drivers/lvgl/src/draw/lv_img_cache.c **** #include "lv_img_decoder.h"
  12:Drivers/lvgl/src/draw/lv_img_cache.c **** #include "lv_draw_img.h"
  13:Drivers/lvgl/src/draw/lv_img_cache.c **** #include "../hal/lv_hal_tick.h"
  14:Drivers/lvgl/src/draw/lv_img_cache.c **** #include "../misc/lv_gc.h"
  15:Drivers/lvgl/src/draw/lv_img_cache.c **** 
  16:Drivers/lvgl/src/draw/lv_img_cache.c **** /*********************
  17:Drivers/lvgl/src/draw/lv_img_cache.c ****  *      DEFINES
  18:Drivers/lvgl/src/draw/lv_img_cache.c ****  *********************/
  19:Drivers/lvgl/src/draw/lv_img_cache.c **** /*Decrement life with this value on every open*/
  20:Drivers/lvgl/src/draw/lv_img_cache.c **** #define LV_IMG_CACHE_AGING 1
  21:Drivers/lvgl/src/draw/lv_img_cache.c **** 
  22:Drivers/lvgl/src/draw/lv_img_cache.c **** /*Boost life by this factor (multiply time_to_open with this value)*/
  23:Drivers/lvgl/src/draw/lv_img_cache.c **** #define LV_IMG_CACHE_LIFE_GAIN 1
  24:Drivers/lvgl/src/draw/lv_img_cache.c **** 
  25:Drivers/lvgl/src/draw/lv_img_cache.c **** /*Don't let life to be greater than this limit because it would require a lot of time to
  26:Drivers/lvgl/src/draw/lv_img_cache.c ****  * "die" from very high values*/
  27:Drivers/lvgl/src/draw/lv_img_cache.c **** #define LV_IMG_CACHE_LIFE_LIMIT 1000
  28:Drivers/lvgl/src/draw/lv_img_cache.c **** 
  29:Drivers/lvgl/src/draw/lv_img_cache.c **** /**********************
ARM GAS  /var/folders/lp/x54gwt890xv47sdkqj1k04q40000gn/T//cct6fn9b.s 			page 2


  30:Drivers/lvgl/src/draw/lv_img_cache.c ****  *      TYPEDEFS
  31:Drivers/lvgl/src/draw/lv_img_cache.c ****  **********************/
  32:Drivers/lvgl/src/draw/lv_img_cache.c **** 
  33:Drivers/lvgl/src/draw/lv_img_cache.c **** /**********************
  34:Drivers/lvgl/src/draw/lv_img_cache.c ****  *  STATIC PROTOTYPES
  35:Drivers/lvgl/src/draw/lv_img_cache.c ****  **********************/
  36:Drivers/lvgl/src/draw/lv_img_cache.c **** #if LV_IMG_CACHE_DEF_SIZE
  37:Drivers/lvgl/src/draw/lv_img_cache.c ****     static bool lv_img_cache_match(const void * src1, const void * src2);
  38:Drivers/lvgl/src/draw/lv_img_cache.c **** #endif
  39:Drivers/lvgl/src/draw/lv_img_cache.c **** 
  40:Drivers/lvgl/src/draw/lv_img_cache.c **** /**********************
  41:Drivers/lvgl/src/draw/lv_img_cache.c ****  *  STATIC VARIABLES
  42:Drivers/lvgl/src/draw/lv_img_cache.c ****  **********************/
  43:Drivers/lvgl/src/draw/lv_img_cache.c **** #if LV_IMG_CACHE_DEF_SIZE
  44:Drivers/lvgl/src/draw/lv_img_cache.c ****     static uint16_t entry_cnt;
  45:Drivers/lvgl/src/draw/lv_img_cache.c **** #endif
  46:Drivers/lvgl/src/draw/lv_img_cache.c **** 
  47:Drivers/lvgl/src/draw/lv_img_cache.c **** /**********************
  48:Drivers/lvgl/src/draw/lv_img_cache.c ****  *      MACROS
  49:Drivers/lvgl/src/draw/lv_img_cache.c ****  **********************/
  50:Drivers/lvgl/src/draw/lv_img_cache.c **** 
  51:Drivers/lvgl/src/draw/lv_img_cache.c **** /**********************
  52:Drivers/lvgl/src/draw/lv_img_cache.c ****  *   GLOBAL FUNCTIONS
  53:Drivers/lvgl/src/draw/lv_img_cache.c ****  **********************/
  54:Drivers/lvgl/src/draw/lv_img_cache.c **** 
  55:Drivers/lvgl/src/draw/lv_img_cache.c **** /**
  56:Drivers/lvgl/src/draw/lv_img_cache.c ****  * Open an image using the image decoder interface and cache it.
  57:Drivers/lvgl/src/draw/lv_img_cache.c ****  * The image will be left open meaning if the image decoder open callback allocated memory then it 
  58:Drivers/lvgl/src/draw/lv_img_cache.c ****  * The image is closed if a new image is opened and the new image takes its place in the cache.
  59:Drivers/lvgl/src/draw/lv_img_cache.c ****  * @param src source of the image. Path to file or pointer to an `lv_img_dsc_t` variable
  60:Drivers/lvgl/src/draw/lv_img_cache.c ****  * @param color color The color of the image with `LV_IMG_CF_ALPHA_...`
  61:Drivers/lvgl/src/draw/lv_img_cache.c ****  * @return pointer to the cache entry or NULL if can open the image
  62:Drivers/lvgl/src/draw/lv_img_cache.c ****  */
  63:Drivers/lvgl/src/draw/lv_img_cache.c **** _lv_img_cache_entry_t * _lv_img_cache_open(const void * src, lv_color_t color, int32_t frame_id)
  64:Drivers/lvgl/src/draw/lv_img_cache.c **** {
  30              		.loc 1 64 1 view -0
  31              		.cfi_startproc
  32              		@ args = 0, pretend = 0, frame = 0
  33              		@ frame_needed = 0, uses_anonymous_args = 0
  34              		.loc 1 64 1 is_stmt 0 view .LVU1
  35 0000 F8B5     		push	{r3, r4, r5, r6, r7, lr}
  36              		.cfi_def_cfa_offset 24
  37              		.cfi_offset 3, -24
  38              		.cfi_offset 4, -20
  39              		.cfi_offset 5, -16
  40              		.cfi_offset 6, -12
  41              		.cfi_offset 7, -8
  42              		.cfi_offset 14, -4
  43 0002 0446     		mov	r4, r0
  44 0004 0D46     		mov	r5, r1	@ movhi
  45              	.LVL1:
  46              		.loc 1 64 1 view .LVU2
  47 0006 1646     		mov	r6, r2
  65:Drivers/lvgl/src/draw/lv_img_cache.c ****     /*Is the image cached?*/
  66:Drivers/lvgl/src/draw/lv_img_cache.c ****     _lv_img_cache_entry_t * cached_src = NULL;
  48              		.loc 1 66 5 is_stmt 1 view .LVU3
  49              	.LVL2:
ARM GAS  /var/folders/lp/x54gwt890xv47sdkqj1k04q40000gn/T//cct6fn9b.s 			page 3


  67:Drivers/lvgl/src/draw/lv_img_cache.c **** 
  68:Drivers/lvgl/src/draw/lv_img_cache.c **** #if LV_IMG_CACHE_DEF_SIZE
  69:Drivers/lvgl/src/draw/lv_img_cache.c ****     if(entry_cnt == 0) {
  70:Drivers/lvgl/src/draw/lv_img_cache.c ****         LV_LOG_WARN("lv_img_cache_open: the cache size is 0");
  71:Drivers/lvgl/src/draw/lv_img_cache.c ****         return NULL;
  72:Drivers/lvgl/src/draw/lv_img_cache.c ****     }
  73:Drivers/lvgl/src/draw/lv_img_cache.c **** 
  74:Drivers/lvgl/src/draw/lv_img_cache.c ****     _lv_img_cache_entry_t * cache = LV_GC_ROOT(_lv_img_cache_array);
  75:Drivers/lvgl/src/draw/lv_img_cache.c **** 
  76:Drivers/lvgl/src/draw/lv_img_cache.c ****     /*Decrement all lifes. Make the entries older*/
  77:Drivers/lvgl/src/draw/lv_img_cache.c ****     uint16_t i;
  78:Drivers/lvgl/src/draw/lv_img_cache.c ****     for(i = 0; i < entry_cnt; i++) {
  79:Drivers/lvgl/src/draw/lv_img_cache.c ****         if(cache[i].life > INT32_MIN + LV_IMG_CACHE_AGING) {
  80:Drivers/lvgl/src/draw/lv_img_cache.c ****             cache[i].life -= LV_IMG_CACHE_AGING;
  81:Drivers/lvgl/src/draw/lv_img_cache.c ****         }
  82:Drivers/lvgl/src/draw/lv_img_cache.c ****     }
  83:Drivers/lvgl/src/draw/lv_img_cache.c **** 
  84:Drivers/lvgl/src/draw/lv_img_cache.c ****     for(i = 0; i < entry_cnt; i++) {
  85:Drivers/lvgl/src/draw/lv_img_cache.c ****         if(color.full == cache[i].dec_dsc.color.full &&
  86:Drivers/lvgl/src/draw/lv_img_cache.c ****            frame_id == cache[i].dec_dsc.frame_id &&
  87:Drivers/lvgl/src/draw/lv_img_cache.c ****            lv_img_cache_match(src, cache[i].dec_dsc.src)) {
  88:Drivers/lvgl/src/draw/lv_img_cache.c ****             /*If opened increment its life.
  89:Drivers/lvgl/src/draw/lv_img_cache.c ****              *Image difficult to open should live longer to keep avoid frequent their recaching.
  90:Drivers/lvgl/src/draw/lv_img_cache.c ****              *Therefore increase `life` with `time_to_open`*/
  91:Drivers/lvgl/src/draw/lv_img_cache.c ****             cached_src = &cache[i];
  92:Drivers/lvgl/src/draw/lv_img_cache.c ****             cached_src->life += cached_src->dec_dsc.time_to_open * LV_IMG_CACHE_LIFE_GAIN;
  93:Drivers/lvgl/src/draw/lv_img_cache.c ****             if(cached_src->life > LV_IMG_CACHE_LIFE_LIMIT) cached_src->life = LV_IMG_CACHE_LIFE_LIM
  94:Drivers/lvgl/src/draw/lv_img_cache.c ****             LV_LOG_TRACE("image source found in the cache");
  95:Drivers/lvgl/src/draw/lv_img_cache.c ****             break;
  96:Drivers/lvgl/src/draw/lv_img_cache.c ****         }
  97:Drivers/lvgl/src/draw/lv_img_cache.c ****     }
  98:Drivers/lvgl/src/draw/lv_img_cache.c **** 
  99:Drivers/lvgl/src/draw/lv_img_cache.c ****     /*The image is not cached then cache it now*/
 100:Drivers/lvgl/src/draw/lv_img_cache.c ****     if(cached_src) return cached_src;
 101:Drivers/lvgl/src/draw/lv_img_cache.c **** 
 102:Drivers/lvgl/src/draw/lv_img_cache.c ****     /*Find an entry to reuse. Select the entry with the least life*/
 103:Drivers/lvgl/src/draw/lv_img_cache.c ****     cached_src = &cache[0];
 104:Drivers/lvgl/src/draw/lv_img_cache.c ****     for(i = 1; i < entry_cnt; i++) {
 105:Drivers/lvgl/src/draw/lv_img_cache.c ****         if(cache[i].life < cached_src->life) {
 106:Drivers/lvgl/src/draw/lv_img_cache.c ****             cached_src = &cache[i];
 107:Drivers/lvgl/src/draw/lv_img_cache.c ****         }
 108:Drivers/lvgl/src/draw/lv_img_cache.c ****     }
 109:Drivers/lvgl/src/draw/lv_img_cache.c **** 
 110:Drivers/lvgl/src/draw/lv_img_cache.c ****     /*Close the decoder to reuse if it was opened (has a valid source)*/
 111:Drivers/lvgl/src/draw/lv_img_cache.c ****     if(cached_src->dec_dsc.src) {
 112:Drivers/lvgl/src/draw/lv_img_cache.c ****         lv_img_decoder_close(&cached_src->dec_dsc);
 113:Drivers/lvgl/src/draw/lv_img_cache.c ****         LV_LOG_INFO("image draw: cache miss, close and reuse an entry");
 114:Drivers/lvgl/src/draw/lv_img_cache.c ****     }
 115:Drivers/lvgl/src/draw/lv_img_cache.c ****     else {
 116:Drivers/lvgl/src/draw/lv_img_cache.c ****         LV_LOG_INFO("image draw: cache miss, cached to an empty entry");
 117:Drivers/lvgl/src/draw/lv_img_cache.c ****     }
 118:Drivers/lvgl/src/draw/lv_img_cache.c **** #else
 119:Drivers/lvgl/src/draw/lv_img_cache.c ****     cached_src = &LV_GC_ROOT(_lv_img_cache_single);
  50              		.loc 1 119 5 view .LVU4
 120:Drivers/lvgl/src/draw/lv_img_cache.c **** #endif
 121:Drivers/lvgl/src/draw/lv_img_cache.c ****     /*Open the image and measure the time to open*/
 122:Drivers/lvgl/src/draw/lv_img_cache.c ****     uint32_t t_start  = lv_tick_get();
ARM GAS  /var/folders/lp/x54gwt890xv47sdkqj1k04q40000gn/T//cct6fn9b.s 			page 4


  51              		.loc 1 122 5 view .LVU5
  52              		.loc 1 122 25 is_stmt 0 view .LVU6
  53 0008 FFF7FEFF 		bl	lv_tick_get
  54              	.LVL3:
  55              		.loc 1 122 25 view .LVU7
  56 000c 0746     		mov	r7, r0
  57              	.LVL4:
 123:Drivers/lvgl/src/draw/lv_img_cache.c ****     lv_res_t open_res = lv_img_decoder_open(&cached_src->dec_dsc, src, color, frame_id);
  58              		.loc 1 123 5 is_stmt 1 view .LVU8
  59              		.loc 1 123 25 is_stmt 0 view .LVU9
  60 000e 3346     		mov	r3, r6
  61              	.LVL5:
  62              		.loc 1 123 25 view .LVU10
  63 0010 2A46     		mov	r2, r5	@ movhi
  64 0012 2146     		mov	r1, r4
  65 0014 1048     		ldr	r0, .L9
  66              	.LVL6:
  67              		.loc 1 123 25 view .LVU11
  68 0016 FFF7FEFF 		bl	lv_img_decoder_open
  69              	.LVL7:
 124:Drivers/lvgl/src/draw/lv_img_cache.c ****     if(open_res == LV_RES_INV) {
  70              		.loc 1 124 5 is_stmt 1 view .LVU12
  71              		.loc 1 124 7 is_stmt 0 view .LVU13
  72 001a 58B1     		cbz	r0, .L7
 125:Drivers/lvgl/src/draw/lv_img_cache.c ****         LV_LOG_WARN("Image draw cannot open the image resource");
 126:Drivers/lvgl/src/draw/lv_img_cache.c ****         lv_memset_00(cached_src, sizeof(_lv_img_cache_entry_t));
 127:Drivers/lvgl/src/draw/lv_img_cache.c ****         cached_src->life = INT32_MIN; /*Make the empty entry very "weak" to force its us*/
 128:Drivers/lvgl/src/draw/lv_img_cache.c ****         return NULL;
 129:Drivers/lvgl/src/draw/lv_img_cache.c ****     }
 130:Drivers/lvgl/src/draw/lv_img_cache.c **** 
 131:Drivers/lvgl/src/draw/lv_img_cache.c ****     cached_src->life = 0;
  73              		.loc 1 131 5 is_stmt 1 view .LVU14
  74              		.loc 1 131 22 is_stmt 0 view .LVU15
  75 001c 0E4B     		ldr	r3, .L9
  76 001e 0022     		movs	r2, #0
  77 0020 9A62     		str	r2, [r3, #40]
 132:Drivers/lvgl/src/draw/lv_img_cache.c **** 
 133:Drivers/lvgl/src/draw/lv_img_cache.c ****     /*If `time_to_open` was not set in the open function set it here*/
 134:Drivers/lvgl/src/draw/lv_img_cache.c ****     if(cached_src->dec_dsc.time_to_open == 0) {
  78              		.loc 1 134 5 is_stmt 1 view .LVU16
  79              		.loc 1 134 27 is_stmt 0 view .LVU17
  80 0022 DB69     		ldr	r3, [r3, #28]
  81              		.loc 1 134 7 view .LVU18
  82 0024 83B1     		cbz	r3, .L8
  83              	.LVL8:
  84              	.L4:
 135:Drivers/lvgl/src/draw/lv_img_cache.c ****         cached_src->dec_dsc.time_to_open = lv_tick_elaps(t_start);
 136:Drivers/lvgl/src/draw/lv_img_cache.c ****     }
 137:Drivers/lvgl/src/draw/lv_img_cache.c **** 
 138:Drivers/lvgl/src/draw/lv_img_cache.c ****     if(cached_src->dec_dsc.time_to_open == 0) cached_src->dec_dsc.time_to_open = 1;
  85              		.loc 1 138 5 is_stmt 1 view .LVU19
  86              		.loc 1 138 27 is_stmt 0 view .LVU20
  87 0026 0C4B     		ldr	r3, .L9
  88 0028 DB69     		ldr	r3, [r3, #28]
  89              		.loc 1 138 7 view .LVU21
  90 002a 9BB9     		cbnz	r3, .L5
  91              		.loc 1 138 47 is_stmt 1 discriminator 1 view .LVU22
ARM GAS  /var/folders/lp/x54gwt890xv47sdkqj1k04q40000gn/T//cct6fn9b.s 			page 5


  92              		.loc 1 138 80 is_stmt 0 discriminator 1 view .LVU23
  93 002c 0A48     		ldr	r0, .L9
  94 002e 0123     		movs	r3, #1
  95 0030 C361     		str	r3, [r0, #28]
  96              	.LVL9:
  97              	.L1:
 139:Drivers/lvgl/src/draw/lv_img_cache.c **** 
 140:Drivers/lvgl/src/draw/lv_img_cache.c ****     return cached_src;
 141:Drivers/lvgl/src/draw/lv_img_cache.c **** }
  98              		.loc 1 141 1 view .LVU24
  99 0032 F8BD     		pop	{r3, r4, r5, r6, r7, pc}
 100              	.LVL10:
 101              	.L7:
 125:Drivers/lvgl/src/draw/lv_img_cache.c ****         lv_memset_00(cached_src, sizeof(_lv_img_cache_entry_t));
 102              		.loc 1 125 9 is_stmt 1 view .LVU25
 125:Drivers/lvgl/src/draw/lv_img_cache.c ****         lv_memset_00(cached_src, sizeof(_lv_img_cache_entry_t));
 103              		.loc 1 125 9 view .LVU26
 125:Drivers/lvgl/src/draw/lv_img_cache.c ****         lv_memset_00(cached_src, sizeof(_lv_img_cache_entry_t));
 104              		.loc 1 125 9 view .LVU27
 126:Drivers/lvgl/src/draw/lv_img_cache.c ****         cached_src->life = INT32_MIN; /*Make the empty entry very "weak" to force its us*/
 105              		.loc 1 126 9 view .LVU28
 106 0034 084C     		ldr	r4, .L9
 107              	.LVL11:
 126:Drivers/lvgl/src/draw/lv_img_cache.c ****         cached_src->life = INT32_MIN; /*Make the empty entry very "weak" to force its us*/
 108              		.loc 1 126 9 is_stmt 0 view .LVU29
 109 0036 2C21     		movs	r1, #44
 110 0038 2046     		mov	r0, r4
 111              	.LVL12:
 126:Drivers/lvgl/src/draw/lv_img_cache.c ****         cached_src->life = INT32_MIN; /*Make the empty entry very "weak" to force its us*/
 112              		.loc 1 126 9 view .LVU30
 113 003a FFF7FEFF 		bl	lv_memset_00
 114              	.LVL13:
 127:Drivers/lvgl/src/draw/lv_img_cache.c ****         return NULL;
 115              		.loc 1 127 9 is_stmt 1 view .LVU31
 127:Drivers/lvgl/src/draw/lv_img_cache.c ****         return NULL;
 116              		.loc 1 127 26 is_stmt 0 view .LVU32
 117 003e 4FF00043 		mov	r3, #-2147483648
 118 0042 A362     		str	r3, [r4, #40]
 128:Drivers/lvgl/src/draw/lv_img_cache.c ****     }
 119              		.loc 1 128 9 is_stmt 1 view .LVU33
 128:Drivers/lvgl/src/draw/lv_img_cache.c ****     }
 120              		.loc 1 128 16 is_stmt 0 view .LVU34
 121 0044 0020     		movs	r0, #0
 122 0046 F4E7     		b	.L1
 123              	.LVL14:
 124              	.L8:
 135:Drivers/lvgl/src/draw/lv_img_cache.c ****     }
 125              		.loc 1 135 9 is_stmt 1 view .LVU35
 135:Drivers/lvgl/src/draw/lv_img_cache.c ****     }
 126              		.loc 1 135 44 is_stmt 0 view .LVU36
 127 0048 3846     		mov	r0, r7
 128              	.LVL15:
 135:Drivers/lvgl/src/draw/lv_img_cache.c ****     }
 129              		.loc 1 135 44 view .LVU37
 130 004a FFF7FEFF 		bl	lv_tick_elaps
 131              	.LVL16:
 135:Drivers/lvgl/src/draw/lv_img_cache.c ****     }
ARM GAS  /var/folders/lp/x54gwt890xv47sdkqj1k04q40000gn/T//cct6fn9b.s 			page 6


 132              		.loc 1 135 42 discriminator 1 view .LVU38
 133 004e 024B     		ldr	r3, .L9
 134 0050 D861     		str	r0, [r3, #28]
 135 0052 E8E7     		b	.L4
 136              	.L5:
 140:Drivers/lvgl/src/draw/lv_img_cache.c **** }
 137              		.loc 1 140 12 view .LVU39
 138 0054 0048     		ldr	r0, .L9
 139 0056 ECE7     		b	.L1
 140              	.L10:
 141              		.align	2
 142              	.L9:
 143 0058 00000000 		.word	_lv_img_cache_single
 144              		.cfi_endproc
 145              	.LFE56:
 147              		.section	.text.lv_img_cache_set_size,"ax",%progbits
 148              		.align	1
 149              		.global	lv_img_cache_set_size
 150              		.syntax unified
 151              		.thumb
 152              		.thumb_func
 154              	lv_img_cache_set_size:
 155              	.LVL17:
 156              	.LFB57:
 142:Drivers/lvgl/src/draw/lv_img_cache.c **** 
 143:Drivers/lvgl/src/draw/lv_img_cache.c **** /**
 144:Drivers/lvgl/src/draw/lv_img_cache.c ****  * Set the number of images to be cached.
 145:Drivers/lvgl/src/draw/lv_img_cache.c ****  * More cached images mean more opened image at same time which might mean more memory usage.
 146:Drivers/lvgl/src/draw/lv_img_cache.c ****  * E.g. if 20 PNG or JPG images are open in the RAM they consume memory while opened in the cache.
 147:Drivers/lvgl/src/draw/lv_img_cache.c ****  * @param new_entry_cnt number of image to cache
 148:Drivers/lvgl/src/draw/lv_img_cache.c ****  */
 149:Drivers/lvgl/src/draw/lv_img_cache.c **** void lv_img_cache_set_size(uint16_t new_entry_cnt)
 150:Drivers/lvgl/src/draw/lv_img_cache.c **** {
 157              		.loc 1 150 1 is_stmt 1 view -0
 158              		.cfi_startproc
 159              		@ args = 0, pretend = 0, frame = 0
 160              		@ frame_needed = 0, uses_anonymous_args = 0
 161              		@ link register save eliminated.
 151:Drivers/lvgl/src/draw/lv_img_cache.c **** #if LV_IMG_CACHE_DEF_SIZE == 0
 152:Drivers/lvgl/src/draw/lv_img_cache.c ****     LV_UNUSED(new_entry_cnt);
 162              		.loc 1 152 5 view .LVU41
 153:Drivers/lvgl/src/draw/lv_img_cache.c ****     LV_LOG_WARN("Can't change cache size because it's disabled by LV_IMG_CACHE_DEF_SIZE = 0");
 163              		.loc 1 153 5 view .LVU42
 164              		.loc 1 153 5 view .LVU43
 165              		.loc 1 153 5 view .LVU44
 154:Drivers/lvgl/src/draw/lv_img_cache.c **** #else
 155:Drivers/lvgl/src/draw/lv_img_cache.c ****     if(LV_GC_ROOT(_lv_img_cache_array) != NULL) {
 156:Drivers/lvgl/src/draw/lv_img_cache.c ****         /*Clean the cache before free it*/
 157:Drivers/lvgl/src/draw/lv_img_cache.c ****         lv_img_cache_invalidate_src(NULL);
 158:Drivers/lvgl/src/draw/lv_img_cache.c ****         lv_mem_free(LV_GC_ROOT(_lv_img_cache_array));
 159:Drivers/lvgl/src/draw/lv_img_cache.c ****     }
 160:Drivers/lvgl/src/draw/lv_img_cache.c **** 
 161:Drivers/lvgl/src/draw/lv_img_cache.c ****     /*Reallocate the cache*/
 162:Drivers/lvgl/src/draw/lv_img_cache.c ****     LV_GC_ROOT(_lv_img_cache_array) = lv_mem_alloc(sizeof(_lv_img_cache_entry_t) * new_entry_cnt);
 163:Drivers/lvgl/src/draw/lv_img_cache.c ****     LV_ASSERT_MALLOC(LV_GC_ROOT(_lv_img_cache_array));
 164:Drivers/lvgl/src/draw/lv_img_cache.c ****     if(LV_GC_ROOT(_lv_img_cache_array) == NULL) {
 165:Drivers/lvgl/src/draw/lv_img_cache.c ****         entry_cnt = 0;
ARM GAS  /var/folders/lp/x54gwt890xv47sdkqj1k04q40000gn/T//cct6fn9b.s 			page 7


 166:Drivers/lvgl/src/draw/lv_img_cache.c ****         return;
 167:Drivers/lvgl/src/draw/lv_img_cache.c ****     }
 168:Drivers/lvgl/src/draw/lv_img_cache.c ****     entry_cnt = new_entry_cnt;
 169:Drivers/lvgl/src/draw/lv_img_cache.c **** 
 170:Drivers/lvgl/src/draw/lv_img_cache.c ****     /*Clean the cache*/
 171:Drivers/lvgl/src/draw/lv_img_cache.c ****     lv_memset_00(LV_GC_ROOT(_lv_img_cache_array), entry_cnt * sizeof(_lv_img_cache_entry_t));
 172:Drivers/lvgl/src/draw/lv_img_cache.c **** #endif
 173:Drivers/lvgl/src/draw/lv_img_cache.c **** }
 166              		.loc 1 173 1 is_stmt 0 view .LVU45
 167 0000 7047     		bx	lr
 168              		.cfi_endproc
 169              	.LFE57:
 171              		.section	.text.lv_img_cache_invalidate_src,"ax",%progbits
 172              		.align	1
 173              		.global	lv_img_cache_invalidate_src
 174              		.syntax unified
 175              		.thumb
 176              		.thumb_func
 178              	lv_img_cache_invalidate_src:
 179              	.LVL18:
 180              	.LFB58:
 174:Drivers/lvgl/src/draw/lv_img_cache.c **** 
 175:Drivers/lvgl/src/draw/lv_img_cache.c **** /**
 176:Drivers/lvgl/src/draw/lv_img_cache.c ****  * Invalidate an image source in the cache.
 177:Drivers/lvgl/src/draw/lv_img_cache.c ****  * Useful if the image source is updated therefore it needs to be cached again.
 178:Drivers/lvgl/src/draw/lv_img_cache.c ****  * @param src an image source path to a file or pointer to an `lv_img_dsc_t` variable.
 179:Drivers/lvgl/src/draw/lv_img_cache.c ****  */
 180:Drivers/lvgl/src/draw/lv_img_cache.c **** void lv_img_cache_invalidate_src(const void * src)
 181:Drivers/lvgl/src/draw/lv_img_cache.c **** {
 181              		.loc 1 181 1 is_stmt 1 view -0
 182              		.cfi_startproc
 183              		@ args = 0, pretend = 0, frame = 0
 184              		@ frame_needed = 0, uses_anonymous_args = 0
 185              		@ link register save eliminated.
 182:Drivers/lvgl/src/draw/lv_img_cache.c ****     LV_UNUSED(src);
 186              		.loc 1 182 5 view .LVU47
 183:Drivers/lvgl/src/draw/lv_img_cache.c **** #if LV_IMG_CACHE_DEF_SIZE
 184:Drivers/lvgl/src/draw/lv_img_cache.c ****     _lv_img_cache_entry_t * cache = LV_GC_ROOT(_lv_img_cache_array);
 185:Drivers/lvgl/src/draw/lv_img_cache.c **** 
 186:Drivers/lvgl/src/draw/lv_img_cache.c ****     uint16_t i;
 187:Drivers/lvgl/src/draw/lv_img_cache.c ****     for(i = 0; i < entry_cnt; i++) {
 188:Drivers/lvgl/src/draw/lv_img_cache.c ****         if(src == NULL || lv_img_cache_match(src, cache[i].dec_dsc.src)) {
 189:Drivers/lvgl/src/draw/lv_img_cache.c ****             if(cache[i].dec_dsc.src != NULL) {
 190:Drivers/lvgl/src/draw/lv_img_cache.c ****                 lv_img_decoder_close(&cache[i].dec_dsc);
 191:Drivers/lvgl/src/draw/lv_img_cache.c ****             }
 192:Drivers/lvgl/src/draw/lv_img_cache.c **** 
 193:Drivers/lvgl/src/draw/lv_img_cache.c ****             lv_memset_00(&cache[i], sizeof(_lv_img_cache_entry_t));
 194:Drivers/lvgl/src/draw/lv_img_cache.c ****         }
 195:Drivers/lvgl/src/draw/lv_img_cache.c ****     }
 196:Drivers/lvgl/src/draw/lv_img_cache.c **** #endif
 197:Drivers/lvgl/src/draw/lv_img_cache.c **** }
 187              		.loc 1 197 1 is_stmt 0 view .LVU48
 188 0000 7047     		bx	lr
 189              		.cfi_endproc
 190              	.LFE58:
 192              		.text
 193              	.Letext0:
ARM GAS  /var/folders/lp/x54gwt890xv47sdkqj1k04q40000gn/T//cct6fn9b.s 			page 8


 194              		.file 2 "/Users/jr/Library/Application Support/Code/User/globalStorage/bmd.stm32-for-vscode/@xpack
 195              		.file 3 "/Users/jr/Library/Application Support/Code/User/globalStorage/bmd.stm32-for-vscode/@xpack
 196              		.file 4 "Drivers/lvgl/src/draw/../misc/lv_types.h"
 197              		.file 5 "/Users/jr/Library/Application Support/Code/User/globalStorage/bmd.stm32-for-vscode/@xpack
 198              		.file 6 "Drivers/lvgl/src/draw/../misc/lv_color.h"
 199              		.file 7 "Drivers/lvgl/src/draw/../misc/lv_area.h"
 200              		.file 8 "Drivers/lvgl/src/draw/lv_img_buf.h"
 201              		.file 9 "Drivers/lvgl/src/draw/lv_img_decoder.h"
 202              		.file 10 "Drivers/lvgl/src/draw/lv_img_cache.h"
 203              		.file 11 "Drivers/lvgl/src/draw/../hal/lv_hal_tick.h"
 204              		.file 12 "Drivers/lvgl/src/draw/../misc/lv_gc.h"
 205              		.file 13 "Drivers/lvgl/src/draw/../misc/lv_mem.h"
ARM GAS  /var/folders/lp/x54gwt890xv47sdkqj1k04q40000gn/T//cct6fn9b.s 			page 9

