ARM GAS  /var/folders/lp/x54gwt890xv47sdkqj1k04q40000gn/T//ccgxl04X.s 			page 1


   1              		.cpu cortex-m4
   2              		.arch armv7e-m
   3              		.fpu fpv4-sp-d16
   4              		.eabi_attribute 27, 1
   5              		.eabi_attribute 28, 1
   6              		.eabi_attribute 20, 1
   7              		.eabi_attribute 21, 1
   8              		.eabi_attribute 23, 3
   9              		.eabi_attribute 24, 1
  10              		.eabi_attribute 25, 1
  11              		.eabi_attribute 26, 1
  12              		.eabi_attribute 30, 1
  13              		.eabi_attribute 34, 1
  14              		.eabi_attribute 18, 4
  15              		.file	"lv_img_decoder.c"
  16              		.text
  17              	.Ltext0:
  18              		.cfi_sections	.debug_frame
  19              		.file 1 "Drivers/lvgl/src/draw/lv_img_decoder.c"
  20              		.section	.rodata.lv_img_decoder_built_in_info.str1.4,"aMS",%progbits,1
  21              		.align	2
  22              	.LC0:
  23 0000 62696E00 		.ascii	"bin\000"
  24              		.section	.text.lv_img_decoder_built_in_info,"ax",%progbits
  25              		.align	1
  26              		.global	lv_img_decoder_built_in_info
  27              		.syntax unified
  28              		.thumb
  29              		.thumb_func
  31              	lv_img_decoder_built_in_info:
  32              	.LVL0:
  33              	.LFB67:
   1:Drivers/lvgl/src/draw/lv_img_decoder.c **** /**
   2:Drivers/lvgl/src/draw/lv_img_decoder.c ****  * @file lv_img_decoder.c
   3:Drivers/lvgl/src/draw/lv_img_decoder.c ****  *
   4:Drivers/lvgl/src/draw/lv_img_decoder.c ****  */
   5:Drivers/lvgl/src/draw/lv_img_decoder.c **** 
   6:Drivers/lvgl/src/draw/lv_img_decoder.c **** /*********************
   7:Drivers/lvgl/src/draw/lv_img_decoder.c ****  *      INCLUDES
   8:Drivers/lvgl/src/draw/lv_img_decoder.c ****  *********************/
   9:Drivers/lvgl/src/draw/lv_img_decoder.c **** #include "lv_img_decoder.h"
  10:Drivers/lvgl/src/draw/lv_img_decoder.c **** #include "../misc/lv_assert.h"
  11:Drivers/lvgl/src/draw/lv_img_decoder.c **** #include "../draw/lv_draw_img.h"
  12:Drivers/lvgl/src/draw/lv_img_decoder.c **** #include "../misc/lv_ll.h"
  13:Drivers/lvgl/src/draw/lv_img_decoder.c **** #include "../misc/lv_gc.h"
  14:Drivers/lvgl/src/draw/lv_img_decoder.c **** 
  15:Drivers/lvgl/src/draw/lv_img_decoder.c **** /*********************
  16:Drivers/lvgl/src/draw/lv_img_decoder.c ****  *      DEFINES
  17:Drivers/lvgl/src/draw/lv_img_decoder.c ****  *********************/
  18:Drivers/lvgl/src/draw/lv_img_decoder.c **** #define CF_BUILT_IN_FIRST   LV_IMG_CF_TRUE_COLOR
  19:Drivers/lvgl/src/draw/lv_img_decoder.c **** #define CF_BUILT_IN_LAST    LV_IMG_CF_RGB565A8
  20:Drivers/lvgl/src/draw/lv_img_decoder.c **** 
  21:Drivers/lvgl/src/draw/lv_img_decoder.c **** /**********************
  22:Drivers/lvgl/src/draw/lv_img_decoder.c ****  *      TYPEDEFS
  23:Drivers/lvgl/src/draw/lv_img_decoder.c ****  **********************/
  24:Drivers/lvgl/src/draw/lv_img_decoder.c **** 
  25:Drivers/lvgl/src/draw/lv_img_decoder.c **** typedef struct {
ARM GAS  /var/folders/lp/x54gwt890xv47sdkqj1k04q40000gn/T//ccgxl04X.s 			page 2


  26:Drivers/lvgl/src/draw/lv_img_decoder.c ****     lv_fs_file_t f;
  27:Drivers/lvgl/src/draw/lv_img_decoder.c ****     lv_color_t * palette;
  28:Drivers/lvgl/src/draw/lv_img_decoder.c ****     lv_opa_t * opa;
  29:Drivers/lvgl/src/draw/lv_img_decoder.c **** } lv_img_decoder_built_in_data_t;
  30:Drivers/lvgl/src/draw/lv_img_decoder.c **** 
  31:Drivers/lvgl/src/draw/lv_img_decoder.c **** /**********************
  32:Drivers/lvgl/src/draw/lv_img_decoder.c ****  *  STATIC PROTOTYPES
  33:Drivers/lvgl/src/draw/lv_img_decoder.c ****  **********************/
  34:Drivers/lvgl/src/draw/lv_img_decoder.c **** static lv_res_t lv_img_decoder_built_in_line_true_color(lv_img_decoder_dsc_t * dsc, lv_coord_t x, l
  35:Drivers/lvgl/src/draw/lv_img_decoder.c ****                                                         lv_coord_t len, uint8_t * buf);
  36:Drivers/lvgl/src/draw/lv_img_decoder.c **** static lv_res_t lv_img_decoder_built_in_line_alpha(lv_img_decoder_dsc_t * dsc, lv_coord_t x, lv_coo
  37:Drivers/lvgl/src/draw/lv_img_decoder.c ****                                                    lv_coord_t len, uint8_t * buf);
  38:Drivers/lvgl/src/draw/lv_img_decoder.c **** static lv_res_t lv_img_decoder_built_in_line_indexed(lv_img_decoder_dsc_t * dsc, lv_coord_t x, lv_c
  39:Drivers/lvgl/src/draw/lv_img_decoder.c ****                                                      lv_coord_t len, uint8_t * buf);
  40:Drivers/lvgl/src/draw/lv_img_decoder.c **** 
  41:Drivers/lvgl/src/draw/lv_img_decoder.c **** /**********************
  42:Drivers/lvgl/src/draw/lv_img_decoder.c ****  *  STATIC VARIABLES
  43:Drivers/lvgl/src/draw/lv_img_decoder.c ****  **********************/
  44:Drivers/lvgl/src/draw/lv_img_decoder.c **** 
  45:Drivers/lvgl/src/draw/lv_img_decoder.c **** /**********************
  46:Drivers/lvgl/src/draw/lv_img_decoder.c ****  *      MACROS
  47:Drivers/lvgl/src/draw/lv_img_decoder.c ****  **********************/
  48:Drivers/lvgl/src/draw/lv_img_decoder.c **** 
  49:Drivers/lvgl/src/draw/lv_img_decoder.c **** /**********************
  50:Drivers/lvgl/src/draw/lv_img_decoder.c ****  *   GLOBAL FUNCTIONS
  51:Drivers/lvgl/src/draw/lv_img_decoder.c ****  **********************/
  52:Drivers/lvgl/src/draw/lv_img_decoder.c **** 
  53:Drivers/lvgl/src/draw/lv_img_decoder.c **** /**
  54:Drivers/lvgl/src/draw/lv_img_decoder.c ****  * Initialize the image decoder module
  55:Drivers/lvgl/src/draw/lv_img_decoder.c ****  */
  56:Drivers/lvgl/src/draw/lv_img_decoder.c **** void _lv_img_decoder_init(void)
  57:Drivers/lvgl/src/draw/lv_img_decoder.c **** {
  58:Drivers/lvgl/src/draw/lv_img_decoder.c ****     _lv_ll_init(&LV_GC_ROOT(_lv_img_decoder_ll), sizeof(lv_img_decoder_t));
  59:Drivers/lvgl/src/draw/lv_img_decoder.c **** 
  60:Drivers/lvgl/src/draw/lv_img_decoder.c ****     lv_img_decoder_t * decoder;
  61:Drivers/lvgl/src/draw/lv_img_decoder.c **** 
  62:Drivers/lvgl/src/draw/lv_img_decoder.c ****     /*Create a decoder for the built in color format*/
  63:Drivers/lvgl/src/draw/lv_img_decoder.c ****     decoder = lv_img_decoder_create();
  64:Drivers/lvgl/src/draw/lv_img_decoder.c ****     LV_ASSERT_MALLOC(decoder);
  65:Drivers/lvgl/src/draw/lv_img_decoder.c ****     if(decoder == NULL) {
  66:Drivers/lvgl/src/draw/lv_img_decoder.c ****         LV_LOG_WARN("lv_img_decoder_init: out of memory");
  67:Drivers/lvgl/src/draw/lv_img_decoder.c ****         return;
  68:Drivers/lvgl/src/draw/lv_img_decoder.c ****     }
  69:Drivers/lvgl/src/draw/lv_img_decoder.c **** 
  70:Drivers/lvgl/src/draw/lv_img_decoder.c ****     lv_img_decoder_set_info_cb(decoder, lv_img_decoder_built_in_info);
  71:Drivers/lvgl/src/draw/lv_img_decoder.c ****     lv_img_decoder_set_open_cb(decoder, lv_img_decoder_built_in_open);
  72:Drivers/lvgl/src/draw/lv_img_decoder.c ****     lv_img_decoder_set_read_line_cb(decoder, lv_img_decoder_built_in_read_line);
  73:Drivers/lvgl/src/draw/lv_img_decoder.c ****     lv_img_decoder_set_close_cb(decoder, lv_img_decoder_built_in_close);
  74:Drivers/lvgl/src/draw/lv_img_decoder.c **** }
  75:Drivers/lvgl/src/draw/lv_img_decoder.c **** 
  76:Drivers/lvgl/src/draw/lv_img_decoder.c **** /**
  77:Drivers/lvgl/src/draw/lv_img_decoder.c ****  * Get information about an image.
  78:Drivers/lvgl/src/draw/lv_img_decoder.c ****  * Try the created image decoder one by one. Once one is able to get info that info will be used.
  79:Drivers/lvgl/src/draw/lv_img_decoder.c ****  * @param src the image source. E.g. file name or variable.
  80:Drivers/lvgl/src/draw/lv_img_decoder.c ****  * @param header the image info will be stored here
  81:Drivers/lvgl/src/draw/lv_img_decoder.c ****  * @return LV_RES_OK: success; LV_RES_INV: wasn't able to get info about the image
  82:Drivers/lvgl/src/draw/lv_img_decoder.c ****  */
ARM GAS  /var/folders/lp/x54gwt890xv47sdkqj1k04q40000gn/T//ccgxl04X.s 			page 3


  83:Drivers/lvgl/src/draw/lv_img_decoder.c **** lv_res_t lv_img_decoder_get_info(const void * src, lv_img_header_t * header)
  84:Drivers/lvgl/src/draw/lv_img_decoder.c **** {
  85:Drivers/lvgl/src/draw/lv_img_decoder.c ****     lv_memset_00(header, sizeof(lv_img_header_t));
  86:Drivers/lvgl/src/draw/lv_img_decoder.c **** 
  87:Drivers/lvgl/src/draw/lv_img_decoder.c ****     if(src == NULL) return LV_RES_INV;
  88:Drivers/lvgl/src/draw/lv_img_decoder.c **** 
  89:Drivers/lvgl/src/draw/lv_img_decoder.c ****     lv_img_src_t src_type = lv_img_src_get_type(src);
  90:Drivers/lvgl/src/draw/lv_img_decoder.c ****     if(src_type == LV_IMG_SRC_VARIABLE) {
  91:Drivers/lvgl/src/draw/lv_img_decoder.c ****         const lv_img_dsc_t * img_dsc = src;
  92:Drivers/lvgl/src/draw/lv_img_decoder.c ****         if(img_dsc->data == NULL) return LV_RES_INV;
  93:Drivers/lvgl/src/draw/lv_img_decoder.c ****     }
  94:Drivers/lvgl/src/draw/lv_img_decoder.c **** 
  95:Drivers/lvgl/src/draw/lv_img_decoder.c ****     lv_res_t res = LV_RES_INV;
  96:Drivers/lvgl/src/draw/lv_img_decoder.c ****     lv_img_decoder_t * d;
  97:Drivers/lvgl/src/draw/lv_img_decoder.c ****     _LV_LL_READ(&LV_GC_ROOT(_lv_img_decoder_ll), d) {
  98:Drivers/lvgl/src/draw/lv_img_decoder.c ****         if(d->info_cb) {
  99:Drivers/lvgl/src/draw/lv_img_decoder.c ****             res = d->info_cb(d, src, header);
 100:Drivers/lvgl/src/draw/lv_img_decoder.c ****             if(res == LV_RES_OK) break;
 101:Drivers/lvgl/src/draw/lv_img_decoder.c ****         }
 102:Drivers/lvgl/src/draw/lv_img_decoder.c ****     }
 103:Drivers/lvgl/src/draw/lv_img_decoder.c **** 
 104:Drivers/lvgl/src/draw/lv_img_decoder.c ****     return res;
 105:Drivers/lvgl/src/draw/lv_img_decoder.c **** }
 106:Drivers/lvgl/src/draw/lv_img_decoder.c **** 
 107:Drivers/lvgl/src/draw/lv_img_decoder.c **** lv_res_t lv_img_decoder_open(lv_img_decoder_dsc_t * dsc, const void * src, lv_color_t color, int32_
 108:Drivers/lvgl/src/draw/lv_img_decoder.c **** {
 109:Drivers/lvgl/src/draw/lv_img_decoder.c ****     lv_memset_00(dsc, sizeof(lv_img_decoder_dsc_t));
 110:Drivers/lvgl/src/draw/lv_img_decoder.c **** 
 111:Drivers/lvgl/src/draw/lv_img_decoder.c ****     if(src == NULL) return LV_RES_INV;
 112:Drivers/lvgl/src/draw/lv_img_decoder.c ****     lv_img_src_t src_type = lv_img_src_get_type(src);
 113:Drivers/lvgl/src/draw/lv_img_decoder.c ****     if(src_type == LV_IMG_SRC_VARIABLE) {
 114:Drivers/lvgl/src/draw/lv_img_decoder.c ****         const lv_img_dsc_t * img_dsc = src;
 115:Drivers/lvgl/src/draw/lv_img_decoder.c ****         if(img_dsc->data == NULL) return LV_RES_INV;
 116:Drivers/lvgl/src/draw/lv_img_decoder.c ****     }
 117:Drivers/lvgl/src/draw/lv_img_decoder.c **** 
 118:Drivers/lvgl/src/draw/lv_img_decoder.c ****     dsc->color    = color;
 119:Drivers/lvgl/src/draw/lv_img_decoder.c ****     dsc->src_type = src_type;
 120:Drivers/lvgl/src/draw/lv_img_decoder.c ****     dsc->frame_id = frame_id;
 121:Drivers/lvgl/src/draw/lv_img_decoder.c **** 
 122:Drivers/lvgl/src/draw/lv_img_decoder.c ****     if(dsc->src_type == LV_IMG_SRC_FILE) {
 123:Drivers/lvgl/src/draw/lv_img_decoder.c ****         size_t fnlen = strlen(src);
 124:Drivers/lvgl/src/draw/lv_img_decoder.c ****         dsc->src = lv_mem_alloc(fnlen + 1);
 125:Drivers/lvgl/src/draw/lv_img_decoder.c ****         LV_ASSERT_MALLOC(dsc->src);
 126:Drivers/lvgl/src/draw/lv_img_decoder.c ****         if(dsc->src == NULL) {
 127:Drivers/lvgl/src/draw/lv_img_decoder.c ****             LV_LOG_WARN("lv_img_decoder_open: out of memory");
 128:Drivers/lvgl/src/draw/lv_img_decoder.c ****             return LV_RES_INV;
 129:Drivers/lvgl/src/draw/lv_img_decoder.c ****         }
 130:Drivers/lvgl/src/draw/lv_img_decoder.c ****         strcpy((char *)dsc->src, src);
 131:Drivers/lvgl/src/draw/lv_img_decoder.c ****     }
 132:Drivers/lvgl/src/draw/lv_img_decoder.c ****     else {
 133:Drivers/lvgl/src/draw/lv_img_decoder.c ****         dsc->src = src;
 134:Drivers/lvgl/src/draw/lv_img_decoder.c ****     }
 135:Drivers/lvgl/src/draw/lv_img_decoder.c **** 
 136:Drivers/lvgl/src/draw/lv_img_decoder.c ****     lv_res_t res = LV_RES_INV;
 137:Drivers/lvgl/src/draw/lv_img_decoder.c **** 
 138:Drivers/lvgl/src/draw/lv_img_decoder.c ****     lv_img_decoder_t * decoder;
 139:Drivers/lvgl/src/draw/lv_img_decoder.c ****     _LV_LL_READ(&LV_GC_ROOT(_lv_img_decoder_ll), decoder) {
ARM GAS  /var/folders/lp/x54gwt890xv47sdkqj1k04q40000gn/T//ccgxl04X.s 			page 4


 140:Drivers/lvgl/src/draw/lv_img_decoder.c ****         /*Info and Open callbacks are required*/
 141:Drivers/lvgl/src/draw/lv_img_decoder.c ****         if(decoder->info_cb == NULL || decoder->open_cb == NULL) continue;
 142:Drivers/lvgl/src/draw/lv_img_decoder.c **** 
 143:Drivers/lvgl/src/draw/lv_img_decoder.c ****         res = decoder->info_cb(decoder, src, &dsc->header);
 144:Drivers/lvgl/src/draw/lv_img_decoder.c ****         if(res != LV_RES_OK) continue;
 145:Drivers/lvgl/src/draw/lv_img_decoder.c **** 
 146:Drivers/lvgl/src/draw/lv_img_decoder.c ****         dsc->decoder = decoder;
 147:Drivers/lvgl/src/draw/lv_img_decoder.c ****         res = decoder->open_cb(decoder, dsc);
 148:Drivers/lvgl/src/draw/lv_img_decoder.c **** 
 149:Drivers/lvgl/src/draw/lv_img_decoder.c ****         /*Opened successfully. It is a good decoder for this image source*/
 150:Drivers/lvgl/src/draw/lv_img_decoder.c ****         if(res == LV_RES_OK) return res;
 151:Drivers/lvgl/src/draw/lv_img_decoder.c **** 
 152:Drivers/lvgl/src/draw/lv_img_decoder.c ****         /*Prepare for the next loop*/
 153:Drivers/lvgl/src/draw/lv_img_decoder.c ****         lv_memset_00(&dsc->header, sizeof(lv_img_header_t));
 154:Drivers/lvgl/src/draw/lv_img_decoder.c **** 
 155:Drivers/lvgl/src/draw/lv_img_decoder.c ****         dsc->error_msg = NULL;
 156:Drivers/lvgl/src/draw/lv_img_decoder.c ****         dsc->img_data  = NULL;
 157:Drivers/lvgl/src/draw/lv_img_decoder.c ****         dsc->user_data = NULL;
 158:Drivers/lvgl/src/draw/lv_img_decoder.c ****         dsc->time_to_open = 0;
 159:Drivers/lvgl/src/draw/lv_img_decoder.c ****     }
 160:Drivers/lvgl/src/draw/lv_img_decoder.c **** 
 161:Drivers/lvgl/src/draw/lv_img_decoder.c ****     if(dsc->src_type == LV_IMG_SRC_FILE)
 162:Drivers/lvgl/src/draw/lv_img_decoder.c ****         lv_mem_free((void *)dsc->src);
 163:Drivers/lvgl/src/draw/lv_img_decoder.c **** 
 164:Drivers/lvgl/src/draw/lv_img_decoder.c ****     return res;
 165:Drivers/lvgl/src/draw/lv_img_decoder.c **** }
 166:Drivers/lvgl/src/draw/lv_img_decoder.c **** 
 167:Drivers/lvgl/src/draw/lv_img_decoder.c **** /**
 168:Drivers/lvgl/src/draw/lv_img_decoder.c ****  * Read a line from an opened image
 169:Drivers/lvgl/src/draw/lv_img_decoder.c ****  * @param dsc pointer to `lv_img_decoder_dsc_t` used in `lv_img_decoder_open`
 170:Drivers/lvgl/src/draw/lv_img_decoder.c ****  * @param x start X coordinate (from left)
 171:Drivers/lvgl/src/draw/lv_img_decoder.c ****  * @param y start Y coordinate (from top)
 172:Drivers/lvgl/src/draw/lv_img_decoder.c ****  * @param len number of pixels to read
 173:Drivers/lvgl/src/draw/lv_img_decoder.c ****  * @param buf store the data here
 174:Drivers/lvgl/src/draw/lv_img_decoder.c ****  * @return LV_RES_OK: success; LV_RES_INV: an error occurred
 175:Drivers/lvgl/src/draw/lv_img_decoder.c ****  */
 176:Drivers/lvgl/src/draw/lv_img_decoder.c **** lv_res_t lv_img_decoder_read_line(lv_img_decoder_dsc_t * dsc, lv_coord_t x, lv_coord_t y, lv_coord_
 177:Drivers/lvgl/src/draw/lv_img_decoder.c **** {
 178:Drivers/lvgl/src/draw/lv_img_decoder.c ****     lv_res_t res = LV_RES_INV;
 179:Drivers/lvgl/src/draw/lv_img_decoder.c ****     if(dsc->decoder->read_line_cb) res = dsc->decoder->read_line_cb(dsc->decoder, dsc, x, y, len, b
 180:Drivers/lvgl/src/draw/lv_img_decoder.c **** 
 181:Drivers/lvgl/src/draw/lv_img_decoder.c ****     return res;
 182:Drivers/lvgl/src/draw/lv_img_decoder.c **** }
 183:Drivers/lvgl/src/draw/lv_img_decoder.c **** 
 184:Drivers/lvgl/src/draw/lv_img_decoder.c **** /**
 185:Drivers/lvgl/src/draw/lv_img_decoder.c ****  * Close a decoding session
 186:Drivers/lvgl/src/draw/lv_img_decoder.c ****  * @param dsc pointer to `lv_img_decoder_dsc_t` used in `lv_img_decoder_open`
 187:Drivers/lvgl/src/draw/lv_img_decoder.c ****  */
 188:Drivers/lvgl/src/draw/lv_img_decoder.c **** void lv_img_decoder_close(lv_img_decoder_dsc_t * dsc)
 189:Drivers/lvgl/src/draw/lv_img_decoder.c **** {
 190:Drivers/lvgl/src/draw/lv_img_decoder.c ****     if(dsc->decoder) {
 191:Drivers/lvgl/src/draw/lv_img_decoder.c ****         if(dsc->decoder->close_cb) dsc->decoder->close_cb(dsc->decoder, dsc);
 192:Drivers/lvgl/src/draw/lv_img_decoder.c **** 
 193:Drivers/lvgl/src/draw/lv_img_decoder.c ****         if(dsc->src_type == LV_IMG_SRC_FILE) {
 194:Drivers/lvgl/src/draw/lv_img_decoder.c ****             lv_mem_free((void *)dsc->src);
 195:Drivers/lvgl/src/draw/lv_img_decoder.c ****             dsc->src = NULL;
 196:Drivers/lvgl/src/draw/lv_img_decoder.c ****         }
ARM GAS  /var/folders/lp/x54gwt890xv47sdkqj1k04q40000gn/T//ccgxl04X.s 			page 5


 197:Drivers/lvgl/src/draw/lv_img_decoder.c ****     }
 198:Drivers/lvgl/src/draw/lv_img_decoder.c **** }
 199:Drivers/lvgl/src/draw/lv_img_decoder.c **** 
 200:Drivers/lvgl/src/draw/lv_img_decoder.c **** /**
 201:Drivers/lvgl/src/draw/lv_img_decoder.c ****  * Create a new image decoder
 202:Drivers/lvgl/src/draw/lv_img_decoder.c ****  * @return pointer to the new image decoder
 203:Drivers/lvgl/src/draw/lv_img_decoder.c ****  */
 204:Drivers/lvgl/src/draw/lv_img_decoder.c **** lv_img_decoder_t * lv_img_decoder_create(void)
 205:Drivers/lvgl/src/draw/lv_img_decoder.c **** {
 206:Drivers/lvgl/src/draw/lv_img_decoder.c ****     lv_img_decoder_t * decoder;
 207:Drivers/lvgl/src/draw/lv_img_decoder.c ****     decoder = _lv_ll_ins_head(&LV_GC_ROOT(_lv_img_decoder_ll));
 208:Drivers/lvgl/src/draw/lv_img_decoder.c ****     LV_ASSERT_MALLOC(decoder);
 209:Drivers/lvgl/src/draw/lv_img_decoder.c ****     if(decoder == NULL) return NULL;
 210:Drivers/lvgl/src/draw/lv_img_decoder.c **** 
 211:Drivers/lvgl/src/draw/lv_img_decoder.c ****     lv_memset_00(decoder, sizeof(lv_img_decoder_t));
 212:Drivers/lvgl/src/draw/lv_img_decoder.c **** 
 213:Drivers/lvgl/src/draw/lv_img_decoder.c ****     return decoder;
 214:Drivers/lvgl/src/draw/lv_img_decoder.c **** }
 215:Drivers/lvgl/src/draw/lv_img_decoder.c **** 
 216:Drivers/lvgl/src/draw/lv_img_decoder.c **** /**
 217:Drivers/lvgl/src/draw/lv_img_decoder.c ****  * Delete an image decoder
 218:Drivers/lvgl/src/draw/lv_img_decoder.c ****  * @param decoder pointer to an image decoder
 219:Drivers/lvgl/src/draw/lv_img_decoder.c ****  */
 220:Drivers/lvgl/src/draw/lv_img_decoder.c **** void lv_img_decoder_delete(lv_img_decoder_t * decoder)
 221:Drivers/lvgl/src/draw/lv_img_decoder.c **** {
 222:Drivers/lvgl/src/draw/lv_img_decoder.c ****     _lv_ll_remove(&LV_GC_ROOT(_lv_img_decoder_ll), decoder);
 223:Drivers/lvgl/src/draw/lv_img_decoder.c ****     lv_mem_free(decoder);
 224:Drivers/lvgl/src/draw/lv_img_decoder.c **** }
 225:Drivers/lvgl/src/draw/lv_img_decoder.c **** 
 226:Drivers/lvgl/src/draw/lv_img_decoder.c **** /**
 227:Drivers/lvgl/src/draw/lv_img_decoder.c ****  * Set a callback to get information about the image
 228:Drivers/lvgl/src/draw/lv_img_decoder.c ****  * @param decoder pointer to an image decoder
 229:Drivers/lvgl/src/draw/lv_img_decoder.c ****  * @param info_cb a function to collect info about an image (fill an `lv_img_header_t` struct)
 230:Drivers/lvgl/src/draw/lv_img_decoder.c ****  */
 231:Drivers/lvgl/src/draw/lv_img_decoder.c **** void lv_img_decoder_set_info_cb(lv_img_decoder_t * decoder, lv_img_decoder_info_f_t info_cb)
 232:Drivers/lvgl/src/draw/lv_img_decoder.c **** {
 233:Drivers/lvgl/src/draw/lv_img_decoder.c ****     decoder->info_cb = info_cb;
 234:Drivers/lvgl/src/draw/lv_img_decoder.c **** }
 235:Drivers/lvgl/src/draw/lv_img_decoder.c **** 
 236:Drivers/lvgl/src/draw/lv_img_decoder.c **** /**
 237:Drivers/lvgl/src/draw/lv_img_decoder.c ****  * Set a callback to open an image
 238:Drivers/lvgl/src/draw/lv_img_decoder.c ****  * @param decoder pointer to an image decoder
 239:Drivers/lvgl/src/draw/lv_img_decoder.c ****  * @param open_cb a function to open an image
 240:Drivers/lvgl/src/draw/lv_img_decoder.c ****  */
 241:Drivers/lvgl/src/draw/lv_img_decoder.c **** void lv_img_decoder_set_open_cb(lv_img_decoder_t * decoder, lv_img_decoder_open_f_t open_cb)
 242:Drivers/lvgl/src/draw/lv_img_decoder.c **** {
 243:Drivers/lvgl/src/draw/lv_img_decoder.c ****     decoder->open_cb = open_cb;
 244:Drivers/lvgl/src/draw/lv_img_decoder.c **** }
 245:Drivers/lvgl/src/draw/lv_img_decoder.c **** 
 246:Drivers/lvgl/src/draw/lv_img_decoder.c **** /**
 247:Drivers/lvgl/src/draw/lv_img_decoder.c ****  * Set a callback to a decoded line of an image
 248:Drivers/lvgl/src/draw/lv_img_decoder.c ****  * @param decoder pointer to an image decoder
 249:Drivers/lvgl/src/draw/lv_img_decoder.c ****  * @param read_line_cb a function to read a line of an image
 250:Drivers/lvgl/src/draw/lv_img_decoder.c ****  */
 251:Drivers/lvgl/src/draw/lv_img_decoder.c **** void lv_img_decoder_set_read_line_cb(lv_img_decoder_t * decoder, lv_img_decoder_read_line_f_t read_
 252:Drivers/lvgl/src/draw/lv_img_decoder.c **** {
 253:Drivers/lvgl/src/draw/lv_img_decoder.c ****     decoder->read_line_cb = read_line_cb;
ARM GAS  /var/folders/lp/x54gwt890xv47sdkqj1k04q40000gn/T//ccgxl04X.s 			page 6


 254:Drivers/lvgl/src/draw/lv_img_decoder.c **** }
 255:Drivers/lvgl/src/draw/lv_img_decoder.c **** 
 256:Drivers/lvgl/src/draw/lv_img_decoder.c **** /**
 257:Drivers/lvgl/src/draw/lv_img_decoder.c ****  * Set a callback to close a decoding session. E.g. close files and free other resources.
 258:Drivers/lvgl/src/draw/lv_img_decoder.c ****  * @param decoder pointer to an image decoder
 259:Drivers/lvgl/src/draw/lv_img_decoder.c ****  * @param close_cb a function to close a decoding session
 260:Drivers/lvgl/src/draw/lv_img_decoder.c ****  */
 261:Drivers/lvgl/src/draw/lv_img_decoder.c **** void lv_img_decoder_set_close_cb(lv_img_decoder_t * decoder, lv_img_decoder_close_f_t close_cb)
 262:Drivers/lvgl/src/draw/lv_img_decoder.c **** {
 263:Drivers/lvgl/src/draw/lv_img_decoder.c ****     decoder->close_cb = close_cb;
 264:Drivers/lvgl/src/draw/lv_img_decoder.c **** }
 265:Drivers/lvgl/src/draw/lv_img_decoder.c **** 
 266:Drivers/lvgl/src/draw/lv_img_decoder.c **** /**
 267:Drivers/lvgl/src/draw/lv_img_decoder.c ****  * Get info about a built-in image
 268:Drivers/lvgl/src/draw/lv_img_decoder.c ****  * @param decoder the decoder where this function belongs
 269:Drivers/lvgl/src/draw/lv_img_decoder.c ****  * @param src the image source: pointer to an `lv_img_dsc_t` variable, a file path or a symbol
 270:Drivers/lvgl/src/draw/lv_img_decoder.c ****  * @param header store the image data here
 271:Drivers/lvgl/src/draw/lv_img_decoder.c ****  * @return LV_RES_OK: the info is successfully stored in `header`; LV_RES_INV: unknown format or ot
 272:Drivers/lvgl/src/draw/lv_img_decoder.c ****  */
 273:Drivers/lvgl/src/draw/lv_img_decoder.c **** lv_res_t lv_img_decoder_built_in_info(lv_img_decoder_t * decoder, const void * src, lv_img_header_t
 274:Drivers/lvgl/src/draw/lv_img_decoder.c **** {
  34              		.loc 1 274 1 view -0
  35              		.cfi_startproc
  36              		@ args = 0, pretend = 0, frame = 16
  37              		@ frame_needed = 0, uses_anonymous_args = 0
  38              		.loc 1 274 1 is_stmt 0 view .LVU1
  39 0000 70B5     		push	{r4, r5, r6, lr}
  40              		.cfi_def_cfa_offset 16
  41              		.cfi_offset 4, -16
  42              		.cfi_offset 5, -12
  43              		.cfi_offset 6, -8
  44              		.cfi_offset 14, -4
  45 0002 84B0     		sub	sp, sp, #16
  46              		.cfi_def_cfa_offset 32
  47 0004 0D46     		mov	r5, r1
  48 0006 1446     		mov	r4, r2
 275:Drivers/lvgl/src/draw/lv_img_decoder.c ****     LV_UNUSED(decoder); /*Unused*/
  49              		.loc 1 275 5 is_stmt 1 view .LVU2
 276:Drivers/lvgl/src/draw/lv_img_decoder.c **** 
 277:Drivers/lvgl/src/draw/lv_img_decoder.c ****     lv_img_src_t src_type = lv_img_src_get_type(src);
  50              		.loc 1 277 5 view .LVU3
  51              		.loc 1 277 29 is_stmt 0 view .LVU4
  52 0008 0846     		mov	r0, r1
  53              	.LVL1:
  54              		.loc 1 277 29 view .LVU5
  55 000a FFF7FEFF 		bl	lv_img_src_get_type
  56              	.LVL2:
 278:Drivers/lvgl/src/draw/lv_img_decoder.c ****     if(src_type == LV_IMG_SRC_VARIABLE) {
  57              		.loc 1 278 5 is_stmt 1 view .LVU6
  58              		.loc 1 278 7 is_stmt 0 view .LVU7
  59 000e 0646     		mov	r6, r0
  60 0010 E8B9     		cbnz	r0, .L2
  61              	.LBB13:
 279:Drivers/lvgl/src/draw/lv_img_decoder.c ****         lv_img_cf_t cf = ((lv_img_dsc_t *)src)->header.cf;
  62              		.loc 1 279 9 is_stmt 1 view .LVU8
  63              		.loc 1 279 55 is_stmt 0 view .LVU9
  64 0012 2B78     		ldrb	r3, [r5]	@ zero_extendqisi2
ARM GAS  /var/folders/lp/x54gwt890xv47sdkqj1k04q40000gn/T//ccgxl04X.s 			page 7


  65 0014 03F01F03 		and	r3, r3, #31
  66              	.LVL3:
 280:Drivers/lvgl/src/draw/lv_img_decoder.c ****         if(cf < CF_BUILT_IN_FIRST || cf > CF_BUILT_IN_LAST) return LV_RES_INV;
  67              		.loc 1 280 9 is_stmt 1 view .LVU10
  68              		.loc 1 280 35 is_stmt 0 view .LVU11
  69 0018 043B     		subs	r3, r3, #4
  70 001a DBB2     		uxtb	r3, r3
  71              		.loc 1 280 11 view .LVU12
  72 001c 102B     		cmp	r3, #16
  73 001e 13D8     		bhi	.L3
 281:Drivers/lvgl/src/draw/lv_img_decoder.c **** 
 282:Drivers/lvgl/src/draw/lv_img_decoder.c ****         header->w  = ((lv_img_dsc_t *)src)->header.w;
  74              		.loc 1 282 9 is_stmt 1 view .LVU13
  75              		.loc 1 282 51 is_stmt 0 view .LVU14
  76 0020 2B68     		ldr	r3, [r5]
  77 0022 C3F38A23 		ubfx	r3, r3, #10, #11
  78              		.loc 1 282 20 view .LVU15
  79 0026 2268     		ldr	r2, [r4]
  80 0028 63F39422 		bfi	r2, r3, #10, #11
  81 002c 2260     		str	r2, [r4]
  82              	.LVL4:
 283:Drivers/lvgl/src/draw/lv_img_decoder.c ****         header->h  = ((lv_img_dsc_t *)src)->header.h;
  83              		.loc 1 283 9 is_stmt 1 view .LVU16
  84              		.loc 1 283 51 is_stmt 0 view .LVU17
  85 002e 6B88     		ldrh	r3, [r5, #2]
  86 0030 C3F34A13 		ubfx	r3, r3, #5, #11
  87              		.loc 1 283 20 view .LVU18
  88 0034 6288     		ldrh	r2, [r4, #2]
  89 0036 63F34F12 		bfi	r2, r3, #5, #11
  90 003a 6280     		strh	r2, [r4, #2]	@ movhi
 284:Drivers/lvgl/src/draw/lv_img_decoder.c ****         header->cf = ((lv_img_dsc_t *)src)->header.cf;
  91              		.loc 1 284 9 is_stmt 1 view .LVU19
  92              		.loc 1 284 51 is_stmt 0 view .LVU20
  93 003c 2A78     		ldrb	r2, [r5]	@ zero_extendqisi2
  94              		.loc 1 284 20 view .LVU21
  95 003e 2378     		ldrb	r3, [r4]	@ zero_extendqisi2
  96 0040 62F30403 		bfi	r3, r2, #0, #5
  97 0044 2370     		strb	r3, [r4]
  98              	.LBE13:
 285:Drivers/lvgl/src/draw/lv_img_decoder.c ****     }
 286:Drivers/lvgl/src/draw/lv_img_decoder.c ****     else if(src_type == LV_IMG_SRC_FILE) {
 287:Drivers/lvgl/src/draw/lv_img_decoder.c ****         /*Support only "*.bin" files*/
 288:Drivers/lvgl/src/draw/lv_img_decoder.c ****         if(strcmp(lv_fs_get_ext(src), "bin")) return LV_RES_INV;
 289:Drivers/lvgl/src/draw/lv_img_decoder.c **** 
 290:Drivers/lvgl/src/draw/lv_img_decoder.c ****         lv_fs_file_t f;
 291:Drivers/lvgl/src/draw/lv_img_decoder.c ****         lv_fs_res_t res = lv_fs_open(&f, src, LV_FS_MODE_RD);
 292:Drivers/lvgl/src/draw/lv_img_decoder.c ****         if(res == LV_FS_RES_OK) {
 293:Drivers/lvgl/src/draw/lv_img_decoder.c ****             uint32_t rn;
 294:Drivers/lvgl/src/draw/lv_img_decoder.c ****             res = lv_fs_read(&f, header, sizeof(lv_img_header_t), &rn);
 295:Drivers/lvgl/src/draw/lv_img_decoder.c ****             lv_fs_close(&f);
 296:Drivers/lvgl/src/draw/lv_img_decoder.c ****             if(res != LV_FS_RES_OK || rn != sizeof(lv_img_header_t)) {
 297:Drivers/lvgl/src/draw/lv_img_decoder.c ****                 LV_LOG_WARN("Image get info get read file header");
 298:Drivers/lvgl/src/draw/lv_img_decoder.c ****                 return LV_RES_INV;
 299:Drivers/lvgl/src/draw/lv_img_decoder.c ****             }
 300:Drivers/lvgl/src/draw/lv_img_decoder.c ****         }
 301:Drivers/lvgl/src/draw/lv_img_decoder.c **** 
 302:Drivers/lvgl/src/draw/lv_img_decoder.c ****         if(header->cf < CF_BUILT_IN_FIRST || header->cf > CF_BUILT_IN_LAST) return LV_RES_INV;
ARM GAS  /var/folders/lp/x54gwt890xv47sdkqj1k04q40000gn/T//ccgxl04X.s 			page 8


 303:Drivers/lvgl/src/draw/lv_img_decoder.c ****     }
 304:Drivers/lvgl/src/draw/lv_img_decoder.c ****     else if(src_type == LV_IMG_SRC_SYMBOL) {
 305:Drivers/lvgl/src/draw/lv_img_decoder.c ****         /*The size depend on the font but it is unknown here. It should be handled outside of the
 306:Drivers/lvgl/src/draw/lv_img_decoder.c ****          *function*/
 307:Drivers/lvgl/src/draw/lv_img_decoder.c ****         header->w = 1;
 308:Drivers/lvgl/src/draw/lv_img_decoder.c ****         header->h = 1;
 309:Drivers/lvgl/src/draw/lv_img_decoder.c ****         /*Symbols always have transparent parts. Important because of cover check in the draw
 310:Drivers/lvgl/src/draw/lv_img_decoder.c ****          *function. The actual value doesn't matter because lv_draw_label will draw it*/
 311:Drivers/lvgl/src/draw/lv_img_decoder.c ****         header->cf = LV_IMG_CF_ALPHA_1BIT;
 312:Drivers/lvgl/src/draw/lv_img_decoder.c ****     }
 313:Drivers/lvgl/src/draw/lv_img_decoder.c ****     else {
 314:Drivers/lvgl/src/draw/lv_img_decoder.c ****         LV_LOG_WARN("Image get info found unknown src type");
 315:Drivers/lvgl/src/draw/lv_img_decoder.c ****         return LV_RES_INV;
 316:Drivers/lvgl/src/draw/lv_img_decoder.c ****     }
 317:Drivers/lvgl/src/draw/lv_img_decoder.c ****     return LV_RES_OK;
  99              		.loc 1 317 12 view .LVU22
 100 0046 0126     		movs	r6, #1
 101              	.LVL5:
 102              	.L3:
 318:Drivers/lvgl/src/draw/lv_img_decoder.c **** }
 103              		.loc 1 318 1 view .LVU23
 104 0048 3046     		mov	r0, r6
 105 004a 04B0     		add	sp, sp, #16
 106              		.cfi_remember_state
 107              		.cfi_def_cfa_offset 16
 108              		@ sp needed
 109 004c 70BD     		pop	{r4, r5, r6, pc}
 110              	.LVL6:
 111              	.L2:
 112              		.cfi_restore_state
 286:Drivers/lvgl/src/draw/lv_img_decoder.c ****         /*Support only "*.bin" files*/
 113              		.loc 1 286 10 is_stmt 1 view .LVU24
 286:Drivers/lvgl/src/draw/lv_img_decoder.c ****         /*Support only "*.bin" files*/
 114              		.loc 1 286 12 is_stmt 0 view .LVU25
 115 004e 0128     		cmp	r0, #1
 116 0050 10D0     		beq	.L11
 304:Drivers/lvgl/src/draw/lv_img_decoder.c ****         /*The size depend on the font but it is unknown here. It should be handled outside of the
 117              		.loc 1 304 10 is_stmt 1 view .LVU26
 304:Drivers/lvgl/src/draw/lv_img_decoder.c ****         /*The size depend on the font but it is unknown here. It should be handled outside of the
 118              		.loc 1 304 12 is_stmt 0 view .LVU27
 119 0052 0228     		cmp	r0, #2
 120 0054 37D1     		bne	.L9
 307:Drivers/lvgl/src/draw/lv_img_decoder.c ****         header->h = 1;
 121              		.loc 1 307 9 is_stmt 1 view .LVU28
 307:Drivers/lvgl/src/draw/lv_img_decoder.c ****         header->h = 1;
 122              		.loc 1 307 19 is_stmt 0 view .LVU29
 123 0056 2368     		ldr	r3, [r4]
 124 0058 0126     		movs	r6, #1
 125 005a 66F39423 		bfi	r3, r6, #10, #11
 126 005e 2360     		str	r3, [r4]
 308:Drivers/lvgl/src/draw/lv_img_decoder.c ****         /*Symbols always have transparent parts. Important because of cover check in the draw
 127              		.loc 1 308 9 is_stmt 1 view .LVU30
 308:Drivers/lvgl/src/draw/lv_img_decoder.c ****         /*Symbols always have transparent parts. Important because of cover check in the draw
 128              		.loc 1 308 19 is_stmt 0 view .LVU31
 129 0060 6388     		ldrh	r3, [r4, #2]
 130 0062 66F34F13 		bfi	r3, r6, #5, #11
 131 0066 6380     		strh	r3, [r4, #2]	@ movhi
ARM GAS  /var/folders/lp/x54gwt890xv47sdkqj1k04q40000gn/T//ccgxl04X.s 			page 9


 311:Drivers/lvgl/src/draw/lv_img_decoder.c ****     }
 132              		.loc 1 311 9 is_stmt 1 view .LVU32
 311:Drivers/lvgl/src/draw/lv_img_decoder.c ****     }
 133              		.loc 1 311 20 is_stmt 0 view .LVU33
 134 0068 2378     		ldrb	r3, [r4]	@ zero_extendqisi2
 135 006a 0B22     		movs	r2, #11
 136 006c 62F30403 		bfi	r3, r2, #0, #5
 137 0070 2370     		strb	r3, [r4]
 138 0072 E9E7     		b	.L3
 139              	.L11:
 140              	.LBB14:
 288:Drivers/lvgl/src/draw/lv_img_decoder.c **** 
 141              		.loc 1 288 9 is_stmt 1 view .LVU34
 288:Drivers/lvgl/src/draw/lv_img_decoder.c **** 
 142              		.loc 1 288 12 is_stmt 0 view .LVU35
 143 0074 2846     		mov	r0, r5
 144              	.LVL7:
 288:Drivers/lvgl/src/draw/lv_img_decoder.c **** 
 145              		.loc 1 288 12 view .LVU36
 146 0076 FFF7FEFF 		bl	lv_fs_get_ext
 147              	.LVL8:
 288:Drivers/lvgl/src/draw/lv_img_decoder.c **** 
 148              		.loc 1 288 12 discriminator 1 view .LVU37
 149 007a 1449     		ldr	r1, .L14
 150 007c FFF7FEFF 		bl	strcmp
 151              	.LVL9:
 288:Drivers/lvgl/src/draw/lv_img_decoder.c **** 
 152              		.loc 1 288 11 discriminator 2 view .LVU38
 153 0080 08B1     		cbz	r0, .L12
 154              	.LVL10:
 155              	.L5:
 288:Drivers/lvgl/src/draw/lv_img_decoder.c **** 
 156              		.loc 1 288 54 discriminator 2 view .LVU39
 157 0082 0026     		movs	r6, #0
 158              	.LVL11:
 288:Drivers/lvgl/src/draw/lv_img_decoder.c **** 
 159              		.loc 1 288 54 discriminator 2 view .LVU40
 160 0084 E0E7     		b	.L3
 161              	.LVL12:
 162              	.L12:
 290:Drivers/lvgl/src/draw/lv_img_decoder.c ****         lv_fs_res_t res = lv_fs_open(&f, src, LV_FS_MODE_RD);
 163              		.loc 1 290 9 is_stmt 1 view .LVU41
 291:Drivers/lvgl/src/draw/lv_img_decoder.c ****         if(res == LV_FS_RES_OK) {
 164              		.loc 1 291 9 view .LVU42
 291:Drivers/lvgl/src/draw/lv_img_decoder.c ****         if(res == LV_FS_RES_OK) {
 165              		.loc 1 291 27 is_stmt 0 view .LVU43
 166 0086 0222     		movs	r2, #2
 167 0088 2946     		mov	r1, r5
 168 008a 01A8     		add	r0, sp, #4
 169 008c FFF7FEFF 		bl	lv_fs_open
 170              	.LVL13:
 292:Drivers/lvgl/src/draw/lv_img_decoder.c ****             uint32_t rn;
 171              		.loc 1 292 9 is_stmt 1 view .LVU44
 292:Drivers/lvgl/src/draw/lv_img_decoder.c ****             uint32_t rn;
 172              		.loc 1 292 11 is_stmt 0 view .LVU45
 173 0090 40B1     		cbz	r0, .L13
 174              	.LVL14:
ARM GAS  /var/folders/lp/x54gwt890xv47sdkqj1k04q40000gn/T//ccgxl04X.s 			page 10


 175              	.L6:
 302:Drivers/lvgl/src/draw/lv_img_decoder.c ****     }
 176              		.loc 1 302 9 is_stmt 1 view .LVU46
 302:Drivers/lvgl/src/draw/lv_img_decoder.c ****     }
 177              		.loc 1 302 18 is_stmt 0 view .LVU47
 178 0092 2378     		ldrb	r3, [r4]	@ zero_extendqisi2
 179 0094 03F01F03 		and	r3, r3, #31
 302:Drivers/lvgl/src/draw/lv_img_decoder.c ****     }
 180              		.loc 1 302 43 view .LVU48
 181 0098 1C33     		adds	r3, r3, #28
 182 009a 03F01F03 		and	r3, r3, #31
 302:Drivers/lvgl/src/draw/lv_img_decoder.c ****     }
 183              		.loc 1 302 11 view .LVU49
 184 009e 102B     		cmp	r3, #16
 185 00a0 D2D9     		bls	.L3
 186 00a2 EEE7     		b	.L5
 187              	.LVL15:
 188              	.L13:
 189              	.LBB15:
 293:Drivers/lvgl/src/draw/lv_img_decoder.c ****             res = lv_fs_read(&f, header, sizeof(lv_img_header_t), &rn);
 190              		.loc 1 293 13 is_stmt 1 view .LVU50
 294:Drivers/lvgl/src/draw/lv_img_decoder.c ****             lv_fs_close(&f);
 191              		.loc 1 294 13 view .LVU51
 294:Drivers/lvgl/src/draw/lv_img_decoder.c ****             lv_fs_close(&f);
 192              		.loc 1 294 19 is_stmt 0 view .LVU52
 193 00a4 6B46     		mov	r3, sp
 194 00a6 0422     		movs	r2, #4
 195 00a8 2146     		mov	r1, r4
 196 00aa 0DEB0200 		add	r0, sp, r2
 197              	.LVL16:
 294:Drivers/lvgl/src/draw/lv_img_decoder.c ****             lv_fs_close(&f);
 198              		.loc 1 294 19 view .LVU53
 199 00ae FFF7FEFF 		bl	lv_fs_read
 200              	.LVL17:
 201 00b2 0546     		mov	r5, r0
 202              	.LVL18:
 295:Drivers/lvgl/src/draw/lv_img_decoder.c ****             if(res != LV_FS_RES_OK || rn != sizeof(lv_img_header_t)) {
 203              		.loc 1 295 13 is_stmt 1 view .LVU54
 204 00b4 01A8     		add	r0, sp, #4
 205 00b6 FFF7FEFF 		bl	lv_fs_close
 206              	.LVL19:
 296:Drivers/lvgl/src/draw/lv_img_decoder.c ****                 LV_LOG_WARN("Image get info get read file header");
 207              		.loc 1 296 13 view .LVU55
 296:Drivers/lvgl/src/draw/lv_img_decoder.c ****                 LV_LOG_WARN("Image get info get read file header");
 208              		.loc 1 296 15 is_stmt 0 view .LVU56
 209 00ba 002D     		cmp	r5, #0
 210 00bc E1D1     		bne	.L5
 296:Drivers/lvgl/src/draw/lv_img_decoder.c ****                 LV_LOG_WARN("Image get info get read file header");
 211              		.loc 1 296 42 discriminator 1 view .LVU57
 212 00be 009B     		ldr	r3, [sp]
 296:Drivers/lvgl/src/draw/lv_img_decoder.c ****                 LV_LOG_WARN("Image get info get read file header");
 213              		.loc 1 296 36 discriminator 1 view .LVU58
 214 00c0 042B     		cmp	r3, #4
 215 00c2 DED1     		bne	.L5
 216 00c4 E5E7     		b	.L6
 217              	.LVL20:
 218              	.L9:
ARM GAS  /var/folders/lp/x54gwt890xv47sdkqj1k04q40000gn/T//ccgxl04X.s 			page 11


 296:Drivers/lvgl/src/draw/lv_img_decoder.c ****                 LV_LOG_WARN("Image get info get read file header");
 219              		.loc 1 296 36 discriminator 1 view .LVU59
 220              	.LBE15:
 221              	.LBE14:
 315:Drivers/lvgl/src/draw/lv_img_decoder.c ****     }
 222              		.loc 1 315 16 view .LVU60
 223 00c6 0026     		movs	r6, #0
 224 00c8 BEE7     		b	.L3
 225              	.L15:
 226 00ca 00BF     		.align	2
 227              	.L14:
 228 00cc 00000000 		.word	.LC0
 229              		.cfi_endproc
 230              	.LFE67:
 232              		.section	.text.lv_img_decoder_built_in_close,"ax",%progbits
 233              		.align	1
 234              		.global	lv_img_decoder_built_in_close
 235              		.syntax unified
 236              		.thumb
 237              		.thumb_func
 239              	lv_img_decoder_built_in_close:
 240              	.LVL21:
 241              	.LFB70:
 319:Drivers/lvgl/src/draw/lv_img_decoder.c **** 
 320:Drivers/lvgl/src/draw/lv_img_decoder.c **** /**
 321:Drivers/lvgl/src/draw/lv_img_decoder.c ****  * Open a built in image
 322:Drivers/lvgl/src/draw/lv_img_decoder.c ****  * @param decoder the decoder where this function belongs
 323:Drivers/lvgl/src/draw/lv_img_decoder.c ****  * @param dsc pointer to decoder descriptor. `src`, `color` are already initialized in it.
 324:Drivers/lvgl/src/draw/lv_img_decoder.c ****  * @return LV_RES_OK: the info is successfully stored in `header`; LV_RES_INV: unknown format or ot
 325:Drivers/lvgl/src/draw/lv_img_decoder.c ****  */
 326:Drivers/lvgl/src/draw/lv_img_decoder.c **** lv_res_t lv_img_decoder_built_in_open(lv_img_decoder_t * decoder, lv_img_decoder_dsc_t * dsc)
 327:Drivers/lvgl/src/draw/lv_img_decoder.c **** {
 328:Drivers/lvgl/src/draw/lv_img_decoder.c ****     /*Open the file if it's a file*/
 329:Drivers/lvgl/src/draw/lv_img_decoder.c ****     if(dsc->src_type == LV_IMG_SRC_FILE) {
 330:Drivers/lvgl/src/draw/lv_img_decoder.c ****         /*Support only "*.bin" files*/
 331:Drivers/lvgl/src/draw/lv_img_decoder.c ****         if(strcmp(lv_fs_get_ext(dsc->src), "bin")) return LV_RES_INV;
 332:Drivers/lvgl/src/draw/lv_img_decoder.c **** 
 333:Drivers/lvgl/src/draw/lv_img_decoder.c ****         lv_fs_file_t f;
 334:Drivers/lvgl/src/draw/lv_img_decoder.c ****         lv_fs_res_t res = lv_fs_open(&f, dsc->src, LV_FS_MODE_RD);
 335:Drivers/lvgl/src/draw/lv_img_decoder.c ****         if(res != LV_FS_RES_OK) {
 336:Drivers/lvgl/src/draw/lv_img_decoder.c ****             LV_LOG_WARN("Built-in image decoder can't open the file");
 337:Drivers/lvgl/src/draw/lv_img_decoder.c ****             return LV_RES_INV;
 338:Drivers/lvgl/src/draw/lv_img_decoder.c ****         }
 339:Drivers/lvgl/src/draw/lv_img_decoder.c **** 
 340:Drivers/lvgl/src/draw/lv_img_decoder.c ****         /*If the file was open successfully save the file descriptor*/
 341:Drivers/lvgl/src/draw/lv_img_decoder.c ****         if(dsc->user_data == NULL) {
 342:Drivers/lvgl/src/draw/lv_img_decoder.c ****             dsc->user_data = lv_mem_alloc(sizeof(lv_img_decoder_built_in_data_t));
 343:Drivers/lvgl/src/draw/lv_img_decoder.c ****             LV_ASSERT_MALLOC(dsc->user_data);
 344:Drivers/lvgl/src/draw/lv_img_decoder.c ****             if(dsc->user_data == NULL) {
 345:Drivers/lvgl/src/draw/lv_img_decoder.c ****                 LV_LOG_ERROR("img_decoder_built_in_open: out of memory");
 346:Drivers/lvgl/src/draw/lv_img_decoder.c ****                 lv_fs_close(&f);
 347:Drivers/lvgl/src/draw/lv_img_decoder.c ****                 return LV_RES_INV;
 348:Drivers/lvgl/src/draw/lv_img_decoder.c ****             }
 349:Drivers/lvgl/src/draw/lv_img_decoder.c ****             lv_memset_00(dsc->user_data, sizeof(lv_img_decoder_built_in_data_t));
 350:Drivers/lvgl/src/draw/lv_img_decoder.c ****         }
 351:Drivers/lvgl/src/draw/lv_img_decoder.c **** 
 352:Drivers/lvgl/src/draw/lv_img_decoder.c ****         lv_img_decoder_built_in_data_t * user_data = dsc->user_data;
ARM GAS  /var/folders/lp/x54gwt890xv47sdkqj1k04q40000gn/T//ccgxl04X.s 			page 12


 353:Drivers/lvgl/src/draw/lv_img_decoder.c ****         lv_memcpy_small(&user_data->f, &f, sizeof(f));
 354:Drivers/lvgl/src/draw/lv_img_decoder.c ****     }
 355:Drivers/lvgl/src/draw/lv_img_decoder.c ****     else if(dsc->src_type == LV_IMG_SRC_VARIABLE) {
 356:Drivers/lvgl/src/draw/lv_img_decoder.c ****         /*The variables should have valid data*/
 357:Drivers/lvgl/src/draw/lv_img_decoder.c ****         if(((lv_img_dsc_t *)dsc->src)->data == NULL) {
 358:Drivers/lvgl/src/draw/lv_img_decoder.c ****             return LV_RES_INV;
 359:Drivers/lvgl/src/draw/lv_img_decoder.c ****         }
 360:Drivers/lvgl/src/draw/lv_img_decoder.c ****     }
 361:Drivers/lvgl/src/draw/lv_img_decoder.c **** 
 362:Drivers/lvgl/src/draw/lv_img_decoder.c ****     lv_img_cf_t cf = dsc->header.cf;
 363:Drivers/lvgl/src/draw/lv_img_decoder.c ****     /*Process A8,  RGB565A8, need load file to ram after https://github.com/lvgl/lvgl/pull/3337*/
 364:Drivers/lvgl/src/draw/lv_img_decoder.c ****     if(cf == LV_IMG_CF_ALPHA_8BIT || cf == LV_IMG_CF_RGB565A8) {
 365:Drivers/lvgl/src/draw/lv_img_decoder.c ****         if(dsc->src_type == LV_IMG_SRC_VARIABLE) {
 366:Drivers/lvgl/src/draw/lv_img_decoder.c ****             /*In case of uncompressed formats the image stored in the ROM/RAM.
 367:Drivers/lvgl/src/draw/lv_img_decoder.c ****              *So simply give its pointer*/
 368:Drivers/lvgl/src/draw/lv_img_decoder.c ****             dsc->img_data = ((lv_img_dsc_t *)dsc->src)->data;
 369:Drivers/lvgl/src/draw/lv_img_decoder.c ****             return LV_RES_OK;
 370:Drivers/lvgl/src/draw/lv_img_decoder.c ****         }
 371:Drivers/lvgl/src/draw/lv_img_decoder.c ****         else {
 372:Drivers/lvgl/src/draw/lv_img_decoder.c ****             /*If it's a file, read all to memory*/
 373:Drivers/lvgl/src/draw/lv_img_decoder.c ****             uint32_t len = dsc->header.w * dsc->header.h;
 374:Drivers/lvgl/src/draw/lv_img_decoder.c ****             len *= cf == LV_IMG_CF_RGB565A8 ? 3 : 1;
 375:Drivers/lvgl/src/draw/lv_img_decoder.c ****             uint8_t * fs_buf = lv_mem_alloc(len);
 376:Drivers/lvgl/src/draw/lv_img_decoder.c ****             if(fs_buf == NULL) return LV_RES_INV;
 377:Drivers/lvgl/src/draw/lv_img_decoder.c **** 
 378:Drivers/lvgl/src/draw/lv_img_decoder.c ****             lv_img_decoder_built_in_data_t * user_data = dsc->user_data;
 379:Drivers/lvgl/src/draw/lv_img_decoder.c ****             lv_fs_seek(&user_data->f, 4, LV_FS_SEEK_SET); /*+4 to skip the header*/
 380:Drivers/lvgl/src/draw/lv_img_decoder.c ****             lv_fs_res_t res = lv_fs_read(&user_data->f, fs_buf, len, NULL);
 381:Drivers/lvgl/src/draw/lv_img_decoder.c ****             if(res != LV_FS_RES_OK) {
 382:Drivers/lvgl/src/draw/lv_img_decoder.c ****                 lv_mem_free(fs_buf);
 383:Drivers/lvgl/src/draw/lv_img_decoder.c ****                 return LV_RES_INV;
 384:Drivers/lvgl/src/draw/lv_img_decoder.c ****             }
 385:Drivers/lvgl/src/draw/lv_img_decoder.c ****             dsc->img_data = fs_buf;
 386:Drivers/lvgl/src/draw/lv_img_decoder.c ****             return LV_RES_OK;
 387:Drivers/lvgl/src/draw/lv_img_decoder.c ****         }
 388:Drivers/lvgl/src/draw/lv_img_decoder.c ****     }
 389:Drivers/lvgl/src/draw/lv_img_decoder.c ****     /*Process true color formats*/
 390:Drivers/lvgl/src/draw/lv_img_decoder.c ****     else if(cf == LV_IMG_CF_TRUE_COLOR || cf == LV_IMG_CF_TRUE_COLOR_ALPHA ||
 391:Drivers/lvgl/src/draw/lv_img_decoder.c ****             cf == LV_IMG_CF_TRUE_COLOR_CHROMA_KEYED) {
 392:Drivers/lvgl/src/draw/lv_img_decoder.c ****         if(dsc->src_type == LV_IMG_SRC_VARIABLE) {
 393:Drivers/lvgl/src/draw/lv_img_decoder.c ****             /*In case of uncompressed formats the image stored in the ROM/RAM.
 394:Drivers/lvgl/src/draw/lv_img_decoder.c ****              *So simply give its pointer*/
 395:Drivers/lvgl/src/draw/lv_img_decoder.c ****             dsc->img_data = ((lv_img_dsc_t *)dsc->src)->data;
 396:Drivers/lvgl/src/draw/lv_img_decoder.c ****             return LV_RES_OK;
 397:Drivers/lvgl/src/draw/lv_img_decoder.c ****         }
 398:Drivers/lvgl/src/draw/lv_img_decoder.c ****         else {
 399:Drivers/lvgl/src/draw/lv_img_decoder.c ****             /*If it's a file it need to be read line by line later*/
 400:Drivers/lvgl/src/draw/lv_img_decoder.c ****             return LV_RES_OK;
 401:Drivers/lvgl/src/draw/lv_img_decoder.c ****         }
 402:Drivers/lvgl/src/draw/lv_img_decoder.c ****     }
 403:Drivers/lvgl/src/draw/lv_img_decoder.c ****     /*Process indexed images. Build a palette*/
 404:Drivers/lvgl/src/draw/lv_img_decoder.c ****     else if(cf == LV_IMG_CF_INDEXED_1BIT || cf == LV_IMG_CF_INDEXED_2BIT || cf == LV_IMG_CF_INDEXED
 405:Drivers/lvgl/src/draw/lv_img_decoder.c ****             cf == LV_IMG_CF_INDEXED_8BIT) {
 406:Drivers/lvgl/src/draw/lv_img_decoder.c ****         uint8_t px_size       = lv_img_cf_get_px_size(cf);
 407:Drivers/lvgl/src/draw/lv_img_decoder.c ****         uint32_t palette_size = 1 << px_size;
 408:Drivers/lvgl/src/draw/lv_img_decoder.c **** 
 409:Drivers/lvgl/src/draw/lv_img_decoder.c ****         /*Allocate the palette*/
ARM GAS  /var/folders/lp/x54gwt890xv47sdkqj1k04q40000gn/T//ccgxl04X.s 			page 13


 410:Drivers/lvgl/src/draw/lv_img_decoder.c ****         if(dsc->user_data == NULL) {
 411:Drivers/lvgl/src/draw/lv_img_decoder.c ****             dsc->user_data = lv_mem_alloc(sizeof(lv_img_decoder_built_in_data_t));
 412:Drivers/lvgl/src/draw/lv_img_decoder.c ****             LV_ASSERT_MALLOC(dsc->user_data);
 413:Drivers/lvgl/src/draw/lv_img_decoder.c ****             if(dsc->user_data == NULL) {
 414:Drivers/lvgl/src/draw/lv_img_decoder.c ****                 LV_LOG_ERROR("img_decoder_built_in_open: out of memory");
 415:Drivers/lvgl/src/draw/lv_img_decoder.c ****                 return LV_RES_INV;
 416:Drivers/lvgl/src/draw/lv_img_decoder.c ****             }
 417:Drivers/lvgl/src/draw/lv_img_decoder.c ****             lv_memset_00(dsc->user_data, sizeof(lv_img_decoder_built_in_data_t));
 418:Drivers/lvgl/src/draw/lv_img_decoder.c ****         }
 419:Drivers/lvgl/src/draw/lv_img_decoder.c **** 
 420:Drivers/lvgl/src/draw/lv_img_decoder.c ****         lv_img_decoder_built_in_data_t * user_data = dsc->user_data;
 421:Drivers/lvgl/src/draw/lv_img_decoder.c ****         user_data->palette                         = lv_mem_alloc(palette_size * sizeof(lv_color_t)
 422:Drivers/lvgl/src/draw/lv_img_decoder.c ****         LV_ASSERT_MALLOC(user_data->palette);
 423:Drivers/lvgl/src/draw/lv_img_decoder.c ****         user_data->opa                             = lv_mem_alloc(palette_size * sizeof(lv_opa_t));
 424:Drivers/lvgl/src/draw/lv_img_decoder.c ****         LV_ASSERT_MALLOC(user_data->opa);
 425:Drivers/lvgl/src/draw/lv_img_decoder.c ****         if(user_data->palette == NULL || user_data->opa == NULL) {
 426:Drivers/lvgl/src/draw/lv_img_decoder.c ****             LV_LOG_ERROR("img_decoder_built_in_open: out of memory");
 427:Drivers/lvgl/src/draw/lv_img_decoder.c ****             lv_img_decoder_built_in_close(decoder, dsc);
 428:Drivers/lvgl/src/draw/lv_img_decoder.c ****             return LV_RES_INV;
 429:Drivers/lvgl/src/draw/lv_img_decoder.c ****         }
 430:Drivers/lvgl/src/draw/lv_img_decoder.c **** 
 431:Drivers/lvgl/src/draw/lv_img_decoder.c ****         if(dsc->src_type == LV_IMG_SRC_FILE) {
 432:Drivers/lvgl/src/draw/lv_img_decoder.c ****             /*Read the palette from file*/
 433:Drivers/lvgl/src/draw/lv_img_decoder.c ****             lv_fs_seek(&user_data->f, 4, LV_FS_SEEK_SET); /*Skip the header*/
 434:Drivers/lvgl/src/draw/lv_img_decoder.c ****             lv_color32_t cur_color;
 435:Drivers/lvgl/src/draw/lv_img_decoder.c ****             uint32_t i;
 436:Drivers/lvgl/src/draw/lv_img_decoder.c ****             for(i = 0; i < palette_size; i++) {
 437:Drivers/lvgl/src/draw/lv_img_decoder.c ****                 lv_fs_read(&user_data->f, &cur_color, sizeof(lv_color32_t), NULL);
 438:Drivers/lvgl/src/draw/lv_img_decoder.c ****                 user_data->palette[i] = lv_color_make(cur_color.ch.red, cur_color.ch.green, cur_col
 439:Drivers/lvgl/src/draw/lv_img_decoder.c ****                 user_data->opa[i]     = cur_color.ch.alpha;
 440:Drivers/lvgl/src/draw/lv_img_decoder.c ****             }
 441:Drivers/lvgl/src/draw/lv_img_decoder.c ****         }
 442:Drivers/lvgl/src/draw/lv_img_decoder.c ****         else {
 443:Drivers/lvgl/src/draw/lv_img_decoder.c ****             /*The palette begins in the beginning of the image data. Just point to it.*/
 444:Drivers/lvgl/src/draw/lv_img_decoder.c ****             lv_color32_t * palette_p = (lv_color32_t *)((lv_img_dsc_t *)dsc->src)->data;
 445:Drivers/lvgl/src/draw/lv_img_decoder.c **** 
 446:Drivers/lvgl/src/draw/lv_img_decoder.c ****             uint32_t i;
 447:Drivers/lvgl/src/draw/lv_img_decoder.c ****             for(i = 0; i < palette_size; i++) {
 448:Drivers/lvgl/src/draw/lv_img_decoder.c ****                 user_data->palette[i] = lv_color_make(palette_p[i].ch.red, palette_p[i].ch.green, p
 449:Drivers/lvgl/src/draw/lv_img_decoder.c ****                 user_data->opa[i]     = palette_p[i].ch.alpha;
 450:Drivers/lvgl/src/draw/lv_img_decoder.c ****             }
 451:Drivers/lvgl/src/draw/lv_img_decoder.c ****         }
 452:Drivers/lvgl/src/draw/lv_img_decoder.c **** 
 453:Drivers/lvgl/src/draw/lv_img_decoder.c ****         return LV_RES_OK;
 454:Drivers/lvgl/src/draw/lv_img_decoder.c ****     }
 455:Drivers/lvgl/src/draw/lv_img_decoder.c ****     /*Alpha indexed images.*/
 456:Drivers/lvgl/src/draw/lv_img_decoder.c ****     else if(cf == LV_IMG_CF_ALPHA_1BIT || cf == LV_IMG_CF_ALPHA_2BIT || cf == LV_IMG_CF_ALPHA_4BIT)
 457:Drivers/lvgl/src/draw/lv_img_decoder.c ****         return LV_RES_OK; /*Nothing to process*/
 458:Drivers/lvgl/src/draw/lv_img_decoder.c ****     }
 459:Drivers/lvgl/src/draw/lv_img_decoder.c ****     /*Unknown format. Can't decode it.*/
 460:Drivers/lvgl/src/draw/lv_img_decoder.c ****     else {
 461:Drivers/lvgl/src/draw/lv_img_decoder.c ****         /*Free the potentially allocated memories*/
 462:Drivers/lvgl/src/draw/lv_img_decoder.c ****         lv_img_decoder_built_in_close(decoder, dsc);
 463:Drivers/lvgl/src/draw/lv_img_decoder.c **** 
 464:Drivers/lvgl/src/draw/lv_img_decoder.c ****         LV_LOG_WARN("Image decoder open: unknown color format");
 465:Drivers/lvgl/src/draw/lv_img_decoder.c ****         return LV_RES_INV;
 466:Drivers/lvgl/src/draw/lv_img_decoder.c ****     }
ARM GAS  /var/folders/lp/x54gwt890xv47sdkqj1k04q40000gn/T//ccgxl04X.s 			page 14


 467:Drivers/lvgl/src/draw/lv_img_decoder.c **** }
 468:Drivers/lvgl/src/draw/lv_img_decoder.c **** 
 469:Drivers/lvgl/src/draw/lv_img_decoder.c **** /**
 470:Drivers/lvgl/src/draw/lv_img_decoder.c ****  * Decode `len` pixels starting from the given `x`, `y` coordinates and store them in `buf`.
 471:Drivers/lvgl/src/draw/lv_img_decoder.c ****  * Required only if the "open" function can't return with the whole decoded pixel array.
 472:Drivers/lvgl/src/draw/lv_img_decoder.c ****  * @param decoder pointer to the decoder the function associated with
 473:Drivers/lvgl/src/draw/lv_img_decoder.c ****  * @param dsc pointer to decoder descriptor
 474:Drivers/lvgl/src/draw/lv_img_decoder.c ****  * @param x start x coordinate
 475:Drivers/lvgl/src/draw/lv_img_decoder.c ****  * @param y start y coordinate
 476:Drivers/lvgl/src/draw/lv_img_decoder.c ****  * @param len number of pixels to decode
 477:Drivers/lvgl/src/draw/lv_img_decoder.c ****  * @param buf a buffer to store the decoded pixels
 478:Drivers/lvgl/src/draw/lv_img_decoder.c ****  * @return LV_RES_OK: ok; LV_RES_INV: failed
 479:Drivers/lvgl/src/draw/lv_img_decoder.c ****  */
 480:Drivers/lvgl/src/draw/lv_img_decoder.c **** lv_res_t lv_img_decoder_built_in_read_line(lv_img_decoder_t * decoder, lv_img_decoder_dsc_t * dsc, 
 481:Drivers/lvgl/src/draw/lv_img_decoder.c ****                                            lv_coord_t y, lv_coord_t len, uint8_t * buf)
 482:Drivers/lvgl/src/draw/lv_img_decoder.c **** {
 483:Drivers/lvgl/src/draw/lv_img_decoder.c ****     LV_UNUSED(decoder); /*Unused*/
 484:Drivers/lvgl/src/draw/lv_img_decoder.c **** 
 485:Drivers/lvgl/src/draw/lv_img_decoder.c ****     lv_res_t res = LV_RES_INV;
 486:Drivers/lvgl/src/draw/lv_img_decoder.c **** 
 487:Drivers/lvgl/src/draw/lv_img_decoder.c ****     if(dsc->header.cf == LV_IMG_CF_TRUE_COLOR || dsc->header.cf == LV_IMG_CF_TRUE_COLOR_ALPHA ||
 488:Drivers/lvgl/src/draw/lv_img_decoder.c ****        dsc->header.cf == LV_IMG_CF_TRUE_COLOR_CHROMA_KEYED) {
 489:Drivers/lvgl/src/draw/lv_img_decoder.c ****         /*For TRUE_COLOR images read line required only for files.
 490:Drivers/lvgl/src/draw/lv_img_decoder.c ****          *For variables the image data was returned in `open`*/
 491:Drivers/lvgl/src/draw/lv_img_decoder.c ****         if(dsc->src_type == LV_IMG_SRC_FILE) {
 492:Drivers/lvgl/src/draw/lv_img_decoder.c ****             res = lv_img_decoder_built_in_line_true_color(dsc, x, y, len, buf);
 493:Drivers/lvgl/src/draw/lv_img_decoder.c ****         }
 494:Drivers/lvgl/src/draw/lv_img_decoder.c ****     }
 495:Drivers/lvgl/src/draw/lv_img_decoder.c ****     else if(dsc->header.cf == LV_IMG_CF_ALPHA_1BIT || dsc->header.cf == LV_IMG_CF_ALPHA_2BIT ||
 496:Drivers/lvgl/src/draw/lv_img_decoder.c ****             dsc->header.cf == LV_IMG_CF_ALPHA_4BIT || dsc->header.cf == LV_IMG_CF_ALPHA_8BIT) {
 497:Drivers/lvgl/src/draw/lv_img_decoder.c ****         res = lv_img_decoder_built_in_line_alpha(dsc, x, y, len, buf);
 498:Drivers/lvgl/src/draw/lv_img_decoder.c ****     }
 499:Drivers/lvgl/src/draw/lv_img_decoder.c ****     else if(dsc->header.cf == LV_IMG_CF_INDEXED_1BIT || dsc->header.cf == LV_IMG_CF_INDEXED_2BIT ||
 500:Drivers/lvgl/src/draw/lv_img_decoder.c ****             dsc->header.cf == LV_IMG_CF_INDEXED_4BIT || dsc->header.cf == LV_IMG_CF_INDEXED_8BIT) {
 501:Drivers/lvgl/src/draw/lv_img_decoder.c ****         res = lv_img_decoder_built_in_line_indexed(dsc, x, y, len, buf);
 502:Drivers/lvgl/src/draw/lv_img_decoder.c ****     }
 503:Drivers/lvgl/src/draw/lv_img_decoder.c ****     else {
 504:Drivers/lvgl/src/draw/lv_img_decoder.c ****         LV_LOG_WARN("Built-in image decoder read not supports the color format");
 505:Drivers/lvgl/src/draw/lv_img_decoder.c ****         return LV_RES_INV;
 506:Drivers/lvgl/src/draw/lv_img_decoder.c ****     }
 507:Drivers/lvgl/src/draw/lv_img_decoder.c **** 
 508:Drivers/lvgl/src/draw/lv_img_decoder.c ****     return res;
 509:Drivers/lvgl/src/draw/lv_img_decoder.c **** }
 510:Drivers/lvgl/src/draw/lv_img_decoder.c **** 
 511:Drivers/lvgl/src/draw/lv_img_decoder.c **** /**
 512:Drivers/lvgl/src/draw/lv_img_decoder.c ****  * Close the pending decoding. Free resources etc.
 513:Drivers/lvgl/src/draw/lv_img_decoder.c ****  * @param decoder pointer to the decoder the function associated with
 514:Drivers/lvgl/src/draw/lv_img_decoder.c ****  * @param dsc pointer to decoder descriptor
 515:Drivers/lvgl/src/draw/lv_img_decoder.c ****  */
 516:Drivers/lvgl/src/draw/lv_img_decoder.c **** void lv_img_decoder_built_in_close(lv_img_decoder_t * decoder, lv_img_decoder_dsc_t * dsc)
 517:Drivers/lvgl/src/draw/lv_img_decoder.c **** {
 242              		.loc 1 517 1 is_stmt 1 view -0
 243              		.cfi_startproc
 244              		@ args = 0, pretend = 0, frame = 0
 245              		@ frame_needed = 0, uses_anonymous_args = 0
 246              		.loc 1 517 1 is_stmt 0 view .LVU62
 247 0000 38B5     		push	{r3, r4, r5, lr}
ARM GAS  /var/folders/lp/x54gwt890xv47sdkqj1k04q40000gn/T//ccgxl04X.s 			page 15


 248              		.cfi_def_cfa_offset 16
 249              		.cfi_offset 3, -16
 250              		.cfi_offset 4, -12
 251              		.cfi_offset 5, -8
 252              		.cfi_offset 14, -4
 518:Drivers/lvgl/src/draw/lv_img_decoder.c ****     LV_UNUSED(decoder); /*Unused*/
 253              		.loc 1 518 5 is_stmt 1 view .LVU63
 519:Drivers/lvgl/src/draw/lv_img_decoder.c **** 
 520:Drivers/lvgl/src/draw/lv_img_decoder.c ****     lv_img_decoder_built_in_data_t * user_data = dsc->user_data;
 254              		.loc 1 520 5 view .LVU64
 255              		.loc 1 520 38 is_stmt 0 view .LVU65
 256 0002 4D6A     		ldr	r5, [r1, #36]
 257              	.LVL22:
 521:Drivers/lvgl/src/draw/lv_img_decoder.c ****     if(user_data) {
 258              		.loc 1 521 5 is_stmt 1 view .LVU66
 259              		.loc 1 521 7 is_stmt 0 view .LVU67
 260 0004 85B1     		cbz	r5, .L16
 261 0006 0C46     		mov	r4, r1
 522:Drivers/lvgl/src/draw/lv_img_decoder.c ****         if(dsc->src_type == LV_IMG_SRC_FILE) {
 262              		.loc 1 522 9 is_stmt 1 view .LVU68
 263              		.loc 1 522 15 is_stmt 0 view .LVU69
 264 0008 0B7C     		ldrb	r3, [r1, #16]	@ zero_extendqisi2
 265              		.loc 1 522 11 view .LVU70
 266 000a 012B     		cmp	r3, #1
 267 000c 0DD0     		beq	.L22
 268              	.LVL23:
 269              	.L18:
 523:Drivers/lvgl/src/draw/lv_img_decoder.c ****             lv_fs_close(&user_data->f);
 524:Drivers/lvgl/src/draw/lv_img_decoder.c ****         }
 525:Drivers/lvgl/src/draw/lv_img_decoder.c ****         if(user_data->palette) lv_mem_free(user_data->palette);
 270              		.loc 1 525 9 is_stmt 1 view .LVU71
 271              		.loc 1 525 21 is_stmt 0 view .LVU72
 272 000e E868     		ldr	r0, [r5, #12]
 273              		.loc 1 525 11 view .LVU73
 274 0010 08B1     		cbz	r0, .L19
 275              		.loc 1 525 32 is_stmt 1 discriminator 1 view .LVU74
 276 0012 FFF7FEFF 		bl	lv_mem_free
 277              	.LVL24:
 278              	.L19:
 526:Drivers/lvgl/src/draw/lv_img_decoder.c ****         if(user_data->opa) lv_mem_free(user_data->opa);
 279              		.loc 1 526 9 view .LVU75
 280              		.loc 1 526 21 is_stmt 0 view .LVU76
 281 0016 2869     		ldr	r0, [r5, #16]
 282              		.loc 1 526 11 view .LVU77
 283 0018 08B1     		cbz	r0, .L20
 284              		.loc 1 526 28 is_stmt 1 discriminator 1 view .LVU78
 285 001a FFF7FEFF 		bl	lv_mem_free
 286              	.LVL25:
 287              	.L20:
 527:Drivers/lvgl/src/draw/lv_img_decoder.c **** 
 528:Drivers/lvgl/src/draw/lv_img_decoder.c ****         lv_mem_free(user_data);
 288              		.loc 1 528 9 view .LVU79
 289 001e 2846     		mov	r0, r5
 290 0020 FFF7FEFF 		bl	lv_mem_free
 291              	.LVL26:
 529:Drivers/lvgl/src/draw/lv_img_decoder.c ****         dsc->user_data = NULL;
 292              		.loc 1 529 9 view .LVU80
ARM GAS  /var/folders/lp/x54gwt890xv47sdkqj1k04q40000gn/T//ccgxl04X.s 			page 16


 293              		.loc 1 529 24 is_stmt 0 view .LVU81
 294 0024 0023     		movs	r3, #0
 295 0026 6362     		str	r3, [r4, #36]
 296              	.LVL27:
 297              	.L16:
 530:Drivers/lvgl/src/draw/lv_img_decoder.c ****     }
 531:Drivers/lvgl/src/draw/lv_img_decoder.c **** }
 298              		.loc 1 531 1 view .LVU82
 299 0028 38BD     		pop	{r3, r4, r5, pc}
 300              	.LVL28:
 301              	.L22:
 523:Drivers/lvgl/src/draw/lv_img_decoder.c ****         }
 302              		.loc 1 523 13 is_stmt 1 view .LVU83
 303 002a 2846     		mov	r0, r5
 304              	.LVL29:
 523:Drivers/lvgl/src/draw/lv_img_decoder.c ****         }
 305              		.loc 1 523 13 is_stmt 0 view .LVU84
 306 002c FFF7FEFF 		bl	lv_fs_close
 307              	.LVL30:
 523:Drivers/lvgl/src/draw/lv_img_decoder.c ****         }
 308              		.loc 1 523 13 view .LVU85
 309 0030 EDE7     		b	.L18
 310              		.cfi_endproc
 311              	.LFE70:
 313              		.section	.text.lv_img_decoder_built_in_open,"ax",%progbits
 314              		.align	1
 315              		.global	lv_img_decoder_built_in_open
 316              		.syntax unified
 317              		.thumb
 318              		.thumb_func
 320              	lv_img_decoder_built_in_open:
 321              	.LVL31:
 322              	.LFB68:
 327:Drivers/lvgl/src/draw/lv_img_decoder.c ****     /*Open the file if it's a file*/
 323              		.loc 1 327 1 is_stmt 1 view -0
 324              		.cfi_startproc
 325              		@ args = 0, pretend = 0, frame = 16
 326              		@ frame_needed = 0, uses_anonymous_args = 0
 327:Drivers/lvgl/src/draw/lv_img_decoder.c ****     /*Open the file if it's a file*/
 327              		.loc 1 327 1 is_stmt 0 view .LVU87
 328 0000 2DE9F047 		push	{r4, r5, r6, r7, r8, r9, r10, lr}
 329              		.cfi_def_cfa_offset 32
 330              		.cfi_offset 4, -32
 331              		.cfi_offset 5, -28
 332              		.cfi_offset 6, -24
 333              		.cfi_offset 7, -20
 334              		.cfi_offset 8, -16
 335              		.cfi_offset 9, -12
 336              		.cfi_offset 10, -8
 337              		.cfi_offset 14, -4
 338 0004 84B0     		sub	sp, sp, #16
 339              		.cfi_def_cfa_offset 48
 340 0006 0546     		mov	r5, r0
 341 0008 0C46     		mov	r4, r1
 329:Drivers/lvgl/src/draw/lv_img_decoder.c ****         /*Support only "*.bin" files*/
 342              		.loc 1 329 5 is_stmt 1 view .LVU88
 329:Drivers/lvgl/src/draw/lv_img_decoder.c ****         /*Support only "*.bin" files*/
ARM GAS  /var/folders/lp/x54gwt890xv47sdkqj1k04q40000gn/T//ccgxl04X.s 			page 17


 343              		.loc 1 329 11 is_stmt 0 view .LVU89
 344 000a 087C     		ldrb	r0, [r1, #16]	@ zero_extendqisi2
 345              	.LVL32:
 329:Drivers/lvgl/src/draw/lv_img_decoder.c ****         /*Support only "*.bin" files*/
 346              		.loc 1 329 7 view .LVU90
 347 000c 0128     		cmp	r0, #1
 348 000e 1FD0     		beq	.L60
 355:Drivers/lvgl/src/draw/lv_img_decoder.c ****         /*The variables should have valid data*/
 349              		.loc 1 355 10 is_stmt 1 view .LVU91
 355:Drivers/lvgl/src/draw/lv_img_decoder.c ****         /*The variables should have valid data*/
 350              		.loc 1 355 12 is_stmt 0 view .LVU92
 351 0010 20B9     		cbnz	r0, .L31
 357:Drivers/lvgl/src/draw/lv_img_decoder.c ****             return LV_RES_INV;
 352              		.loc 1 357 9 is_stmt 1 view .LVU93
 357:Drivers/lvgl/src/draw/lv_img_decoder.c ****             return LV_RES_INV;
 353              		.loc 1 357 32 is_stmt 0 view .LVU94
 354 0012 4B68     		ldr	r3, [r1, #4]
 357:Drivers/lvgl/src/draw/lv_img_decoder.c ****             return LV_RES_INV;
 355              		.loc 1 357 38 view .LVU95
 356 0014 9B68     		ldr	r3, [r3, #8]
 357:Drivers/lvgl/src/draw/lv_img_decoder.c ****             return LV_RES_INV;
 357              		.loc 1 357 11 view .LVU96
 358 0016 002B     		cmp	r3, #0
 359 0018 00F00881 		beq	.L32
 360              	.LVL33:
 361              	.L31:
 362:Drivers/lvgl/src/draw/lv_img_decoder.c ****     /*Process A8,  RGB565A8, need load file to ram after https://github.com/lvgl/lvgl/pull/3337*/
 362              		.loc 1 362 5 is_stmt 1 view .LVU97
 362:Drivers/lvgl/src/draw/lv_img_decoder.c ****     /*Process A8,  RGB565A8, need load file to ram after https://github.com/lvgl/lvgl/pull/3337*/
 363              		.loc 1 362 33 is_stmt 0 view .LVU98
 364 001c 237D     		ldrb	r3, [r4, #20]	@ zero_extendqisi2
 365 001e 03F01F00 		and	r0, r3, #31
 366              	.LVL34:
 364:Drivers/lvgl/src/draw/lv_img_decoder.c ****         if(dsc->src_type == LV_IMG_SRC_VARIABLE) {
 367              		.loc 1 364 5 is_stmt 1 view .LVU99
 368 0022 031F     		subs	r3, r0, #4
 369              	.LVL35:
 364:Drivers/lvgl/src/draw/lv_img_decoder.c ****         if(dsc->src_type == LV_IMG_SRC_VARIABLE) {
 370              		.loc 1 364 5 is_stmt 0 view .LVU100
 371 0024 102B     		cmp	r3, #16
 372 0026 00F2FA80 		bhi	.L33
 373 002a DFE813F0 		tbh	[pc, r3, lsl #1]
 374              	.L35:
 375 002e 6B00     		.2byte	(.L37-.L35)/2
 376 0030 6B00     		.2byte	(.L37-.L35)/2
 377 0032 6B00     		.2byte	(.L37-.L35)/2
 378 0034 7400     		.2byte	(.L36-.L35)/2
 379 0036 7400     		.2byte	(.L36-.L35)/2
 380 0038 7400     		.2byte	(.L36-.L35)/2
 381 003a 7400     		.2byte	(.L36-.L35)/2
 382 003c FE00     		.2byte	(.L55-.L35)/2
 383 003e FE00     		.2byte	(.L55-.L35)/2
 384 0040 FE00     		.2byte	(.L55-.L35)/2
 385 0042 3900     		.2byte	(.L34-.L35)/2
 386 0044 F800     		.2byte	(.L33-.L35)/2
 387 0046 F800     		.2byte	(.L33-.L35)/2
 388 0048 F800     		.2byte	(.L33-.L35)/2
ARM GAS  /var/folders/lp/x54gwt890xv47sdkqj1k04q40000gn/T//ccgxl04X.s 			page 18


 389 004a F800     		.2byte	(.L33-.L35)/2
 390 004c F800     		.2byte	(.L33-.L35)/2
 391 004e 3900     		.2byte	(.L34-.L35)/2
 392              	.LVL36:
 393              		.p2align 1
 394              	.L60:
 395              	.LBB16:
 331:Drivers/lvgl/src/draw/lv_img_decoder.c **** 
 396              		.loc 1 331 9 is_stmt 1 view .LVU101
 331:Drivers/lvgl/src/draw/lv_img_decoder.c **** 
 397              		.loc 1 331 12 is_stmt 0 view .LVU102
 398 0050 4868     		ldr	r0, [r1, #4]
 399 0052 FFF7FEFF 		bl	lv_fs_get_ext
 400              	.LVL37:
 331:Drivers/lvgl/src/draw/lv_img_decoder.c **** 
 401              		.loc 1 331 12 discriminator 1 view .LVU103
 402 0056 7949     		ldr	r1, .L69
 403 0058 FFF7FEFF 		bl	strcmp
 404              	.LVL38:
 331:Drivers/lvgl/src/draw/lv_img_decoder.c **** 
 405              		.loc 1 331 11 discriminator 2 view .LVU104
 406 005c 08B1     		cbz	r0, .L61
 407              	.L25:
 331:Drivers/lvgl/src/draw/lv_img_decoder.c **** 
 408              		.loc 1 331 59 discriminator 2 view .LVU105
 409 005e 0020     		movs	r0, #0
 410 0060 E4E0     		b	.L32
 411              	.L61:
 333:Drivers/lvgl/src/draw/lv_img_decoder.c ****         lv_fs_res_t res = lv_fs_open(&f, dsc->src, LV_FS_MODE_RD);
 412              		.loc 1 333 9 is_stmt 1 view .LVU106
 334:Drivers/lvgl/src/draw/lv_img_decoder.c ****         if(res != LV_FS_RES_OK) {
 413              		.loc 1 334 9 view .LVU107
 334:Drivers/lvgl/src/draw/lv_img_decoder.c ****         if(res != LV_FS_RES_OK) {
 414              		.loc 1 334 27 is_stmt 0 view .LVU108
 415 0062 0222     		movs	r2, #2
 416 0064 6168     		ldr	r1, [r4, #4]
 417 0066 01A8     		add	r0, sp, #4
 418 0068 FFF7FEFF 		bl	lv_fs_open
 419              	.LVL39:
 335:Drivers/lvgl/src/draw/lv_img_decoder.c ****             LV_LOG_WARN("Built-in image decoder can't open the file");
 420              		.loc 1 335 9 is_stmt 1 view .LVU109
 335:Drivers/lvgl/src/draw/lv_img_decoder.c ****             LV_LOG_WARN("Built-in image decoder can't open the file");
 421              		.loc 1 335 11 is_stmt 0 view .LVU110
 422 006c 0028     		cmp	r0, #0
 423 006e F6D1     		bne	.L25
 341:Drivers/lvgl/src/draw/lv_img_decoder.c ****             dsc->user_data = lv_mem_alloc(sizeof(lv_img_decoder_built_in_data_t));
 424              		.loc 1 341 9 is_stmt 1 view .LVU111
 341:Drivers/lvgl/src/draw/lv_img_decoder.c ****             dsc->user_data = lv_mem_alloc(sizeof(lv_img_decoder_built_in_data_t));
 425              		.loc 1 341 15 is_stmt 0 view .LVU112
 426 0070 636A     		ldr	r3, [r4, #36]
 341:Drivers/lvgl/src/draw/lv_img_decoder.c ****             dsc->user_data = lv_mem_alloc(sizeof(lv_img_decoder_built_in_data_t));
 427              		.loc 1 341 11 view .LVU113
 428 0072 1BB1     		cbz	r3, .L62
 429              	.LVL40:
 430              	.L26:
 352:Drivers/lvgl/src/draw/lv_img_decoder.c ****         lv_memcpy_small(&user_data->f, &f, sizeof(f));
 431              		.loc 1 352 9 is_stmt 1 view .LVU114
ARM GAS  /var/folders/lp/x54gwt890xv47sdkqj1k04q40000gn/T//ccgxl04X.s 			page 19


 352:Drivers/lvgl/src/draw/lv_img_decoder.c ****         lv_memcpy_small(&user_data->f, &f, sizeof(f));
 432              		.loc 1 352 42 is_stmt 0 view .LVU115
 433 0074 616A     		ldr	r1, [r4, #36]
 434              	.LVL41:
 353:Drivers/lvgl/src/draw/lv_img_decoder.c ****     }
 435              		.loc 1 353 9 is_stmt 1 view .LVU116
 436              	.LBB17:
 437              	.LBI17:
 438              		.file 2 "Drivers/lvgl/src/draw/../misc/lv_mem.h"
   1:Drivers/lvgl/src/draw/../misc/lv_mem.h **** /**
   2:Drivers/lvgl/src/draw/../misc/lv_mem.h ****  * @file lv_mem.h
   3:Drivers/lvgl/src/draw/../misc/lv_mem.h ****  *
   4:Drivers/lvgl/src/draw/../misc/lv_mem.h ****  */
   5:Drivers/lvgl/src/draw/../misc/lv_mem.h **** 
   6:Drivers/lvgl/src/draw/../misc/lv_mem.h **** #ifndef LV_MEM_H
   7:Drivers/lvgl/src/draw/../misc/lv_mem.h **** #define LV_MEM_H
   8:Drivers/lvgl/src/draw/../misc/lv_mem.h **** 
   9:Drivers/lvgl/src/draw/../misc/lv_mem.h **** #ifdef __cplusplus
  10:Drivers/lvgl/src/draw/../misc/lv_mem.h **** extern "C" {
  11:Drivers/lvgl/src/draw/../misc/lv_mem.h **** #endif
  12:Drivers/lvgl/src/draw/../misc/lv_mem.h **** 
  13:Drivers/lvgl/src/draw/../misc/lv_mem.h **** /*********************
  14:Drivers/lvgl/src/draw/../misc/lv_mem.h ****  *      INCLUDES
  15:Drivers/lvgl/src/draw/../misc/lv_mem.h ****  *********************/
  16:Drivers/lvgl/src/draw/../misc/lv_mem.h **** #include "../lv_conf_internal.h"
  17:Drivers/lvgl/src/draw/../misc/lv_mem.h **** 
  18:Drivers/lvgl/src/draw/../misc/lv_mem.h **** #include <stdint.h>
  19:Drivers/lvgl/src/draw/../misc/lv_mem.h **** #include <stddef.h>
  20:Drivers/lvgl/src/draw/../misc/lv_mem.h **** #include <string.h>
  21:Drivers/lvgl/src/draw/../misc/lv_mem.h **** 
  22:Drivers/lvgl/src/draw/../misc/lv_mem.h **** #include "lv_types.h"
  23:Drivers/lvgl/src/draw/../misc/lv_mem.h **** 
  24:Drivers/lvgl/src/draw/../misc/lv_mem.h **** /*********************
  25:Drivers/lvgl/src/draw/../misc/lv_mem.h ****  *      DEFINES
  26:Drivers/lvgl/src/draw/../misc/lv_mem.h ****  *********************/
  27:Drivers/lvgl/src/draw/../misc/lv_mem.h **** 
  28:Drivers/lvgl/src/draw/../misc/lv_mem.h **** /**********************
  29:Drivers/lvgl/src/draw/../misc/lv_mem.h ****  *      TYPEDEFS
  30:Drivers/lvgl/src/draw/../misc/lv_mem.h ****  **********************/
  31:Drivers/lvgl/src/draw/../misc/lv_mem.h **** 
  32:Drivers/lvgl/src/draw/../misc/lv_mem.h **** /**
  33:Drivers/lvgl/src/draw/../misc/lv_mem.h ****  * Heap information structure.
  34:Drivers/lvgl/src/draw/../misc/lv_mem.h ****  */
  35:Drivers/lvgl/src/draw/../misc/lv_mem.h **** typedef struct {
  36:Drivers/lvgl/src/draw/../misc/lv_mem.h ****     uint32_t total_size; /**< Total heap size*/
  37:Drivers/lvgl/src/draw/../misc/lv_mem.h ****     uint32_t free_cnt;
  38:Drivers/lvgl/src/draw/../misc/lv_mem.h ****     uint32_t free_size; /**< Size of available memory*/
  39:Drivers/lvgl/src/draw/../misc/lv_mem.h ****     uint32_t free_biggest_size;
  40:Drivers/lvgl/src/draw/../misc/lv_mem.h ****     uint32_t used_cnt;
  41:Drivers/lvgl/src/draw/../misc/lv_mem.h ****     uint32_t max_used; /**< Max size of Heap memory used*/
  42:Drivers/lvgl/src/draw/../misc/lv_mem.h ****     uint8_t used_pct; /**< Percentage used*/
  43:Drivers/lvgl/src/draw/../misc/lv_mem.h ****     uint8_t frag_pct; /**< Amount of fragmentation*/
  44:Drivers/lvgl/src/draw/../misc/lv_mem.h **** } lv_mem_monitor_t;
  45:Drivers/lvgl/src/draw/../misc/lv_mem.h **** 
  46:Drivers/lvgl/src/draw/../misc/lv_mem.h **** typedef struct {
  47:Drivers/lvgl/src/draw/../misc/lv_mem.h ****     void * p;
  48:Drivers/lvgl/src/draw/../misc/lv_mem.h ****     uint16_t size;
ARM GAS  /var/folders/lp/x54gwt890xv47sdkqj1k04q40000gn/T//ccgxl04X.s 			page 20


  49:Drivers/lvgl/src/draw/../misc/lv_mem.h ****     uint8_t used : 1;
  50:Drivers/lvgl/src/draw/../misc/lv_mem.h **** } lv_mem_buf_t;
  51:Drivers/lvgl/src/draw/../misc/lv_mem.h **** 
  52:Drivers/lvgl/src/draw/../misc/lv_mem.h **** typedef lv_mem_buf_t lv_mem_buf_arr_t[LV_MEM_BUF_MAX_NUM];
  53:Drivers/lvgl/src/draw/../misc/lv_mem.h **** 
  54:Drivers/lvgl/src/draw/../misc/lv_mem.h **** /**********************
  55:Drivers/lvgl/src/draw/../misc/lv_mem.h ****  * GLOBAL PROTOTYPES
  56:Drivers/lvgl/src/draw/../misc/lv_mem.h ****  **********************/
  57:Drivers/lvgl/src/draw/../misc/lv_mem.h **** 
  58:Drivers/lvgl/src/draw/../misc/lv_mem.h **** /**
  59:Drivers/lvgl/src/draw/../misc/lv_mem.h ****  * Initialize the dyn_mem module (work memory and other variables)
  60:Drivers/lvgl/src/draw/../misc/lv_mem.h ****  */
  61:Drivers/lvgl/src/draw/../misc/lv_mem.h **** void lv_mem_init(void);
  62:Drivers/lvgl/src/draw/../misc/lv_mem.h **** 
  63:Drivers/lvgl/src/draw/../misc/lv_mem.h **** /**
  64:Drivers/lvgl/src/draw/../misc/lv_mem.h ****  * Clean up the memory buffer which frees all the allocated memories.
  65:Drivers/lvgl/src/draw/../misc/lv_mem.h ****  * @note It work only if `LV_MEM_CUSTOM == 0`
  66:Drivers/lvgl/src/draw/../misc/lv_mem.h ****  */
  67:Drivers/lvgl/src/draw/../misc/lv_mem.h **** void lv_mem_deinit(void);
  68:Drivers/lvgl/src/draw/../misc/lv_mem.h **** 
  69:Drivers/lvgl/src/draw/../misc/lv_mem.h **** /**
  70:Drivers/lvgl/src/draw/../misc/lv_mem.h ****  * Allocate a memory dynamically
  71:Drivers/lvgl/src/draw/../misc/lv_mem.h ****  * @param size size of the memory to allocate in bytes
  72:Drivers/lvgl/src/draw/../misc/lv_mem.h ****  * @return pointer to the allocated memory
  73:Drivers/lvgl/src/draw/../misc/lv_mem.h ****  */
  74:Drivers/lvgl/src/draw/../misc/lv_mem.h **** void * lv_mem_alloc(size_t size);
  75:Drivers/lvgl/src/draw/../misc/lv_mem.h **** 
  76:Drivers/lvgl/src/draw/../misc/lv_mem.h **** /**
  77:Drivers/lvgl/src/draw/../misc/lv_mem.h ****  * Free an allocated data
  78:Drivers/lvgl/src/draw/../misc/lv_mem.h ****  * @param data pointer to an allocated memory
  79:Drivers/lvgl/src/draw/../misc/lv_mem.h ****  */
  80:Drivers/lvgl/src/draw/../misc/lv_mem.h **** void lv_mem_free(void * data);
  81:Drivers/lvgl/src/draw/../misc/lv_mem.h **** 
  82:Drivers/lvgl/src/draw/../misc/lv_mem.h **** /**
  83:Drivers/lvgl/src/draw/../misc/lv_mem.h ****  * Reallocate a memory with a new size. The old content will be kept.
  84:Drivers/lvgl/src/draw/../misc/lv_mem.h ****  * @param data pointer to an allocated memory.
  85:Drivers/lvgl/src/draw/../misc/lv_mem.h ****  * Its content will be copied to the new memory block and freed
  86:Drivers/lvgl/src/draw/../misc/lv_mem.h ****  * @param new_size the desired new size in byte
  87:Drivers/lvgl/src/draw/../misc/lv_mem.h ****  * @return pointer to the new memory, NULL on failure
  88:Drivers/lvgl/src/draw/../misc/lv_mem.h ****  */
  89:Drivers/lvgl/src/draw/../misc/lv_mem.h **** void * lv_mem_realloc(void * data_p, size_t new_size);
  90:Drivers/lvgl/src/draw/../misc/lv_mem.h **** 
  91:Drivers/lvgl/src/draw/../misc/lv_mem.h **** /**
  92:Drivers/lvgl/src/draw/../misc/lv_mem.h ****  *
  93:Drivers/lvgl/src/draw/../misc/lv_mem.h ****  * @return
  94:Drivers/lvgl/src/draw/../misc/lv_mem.h ****  */
  95:Drivers/lvgl/src/draw/../misc/lv_mem.h **** lv_res_t lv_mem_test(void);
  96:Drivers/lvgl/src/draw/../misc/lv_mem.h **** 
  97:Drivers/lvgl/src/draw/../misc/lv_mem.h **** /**
  98:Drivers/lvgl/src/draw/../misc/lv_mem.h ****  * Give information about the work memory of dynamic allocation
  99:Drivers/lvgl/src/draw/../misc/lv_mem.h ****  * @param mon_p pointer to a lv_mem_monitor_t variable,
 100:Drivers/lvgl/src/draw/../misc/lv_mem.h ****  *              the result of the analysis will be stored here
 101:Drivers/lvgl/src/draw/../misc/lv_mem.h ****  */
 102:Drivers/lvgl/src/draw/../misc/lv_mem.h **** void lv_mem_monitor(lv_mem_monitor_t * mon_p);
 103:Drivers/lvgl/src/draw/../misc/lv_mem.h **** 
 104:Drivers/lvgl/src/draw/../misc/lv_mem.h **** 
 105:Drivers/lvgl/src/draw/../misc/lv_mem.h **** /**
ARM GAS  /var/folders/lp/x54gwt890xv47sdkqj1k04q40000gn/T//ccgxl04X.s 			page 21


 106:Drivers/lvgl/src/draw/../misc/lv_mem.h ****  * Get a temporal buffer with the given size.
 107:Drivers/lvgl/src/draw/../misc/lv_mem.h ****  * @param size the required size
 108:Drivers/lvgl/src/draw/../misc/lv_mem.h ****  */
 109:Drivers/lvgl/src/draw/../misc/lv_mem.h **** void * lv_mem_buf_get(uint32_t size);
 110:Drivers/lvgl/src/draw/../misc/lv_mem.h **** 
 111:Drivers/lvgl/src/draw/../misc/lv_mem.h **** /**
 112:Drivers/lvgl/src/draw/../misc/lv_mem.h ****  * Release a memory buffer
 113:Drivers/lvgl/src/draw/../misc/lv_mem.h ****  * @param p buffer to release
 114:Drivers/lvgl/src/draw/../misc/lv_mem.h ****  */
 115:Drivers/lvgl/src/draw/../misc/lv_mem.h **** void lv_mem_buf_release(void * p);
 116:Drivers/lvgl/src/draw/../misc/lv_mem.h **** 
 117:Drivers/lvgl/src/draw/../misc/lv_mem.h **** /**
 118:Drivers/lvgl/src/draw/../misc/lv_mem.h ****  * Free all memory buffers
 119:Drivers/lvgl/src/draw/../misc/lv_mem.h ****  */
 120:Drivers/lvgl/src/draw/../misc/lv_mem.h **** void lv_mem_buf_free_all(void);
 121:Drivers/lvgl/src/draw/../misc/lv_mem.h **** 
 122:Drivers/lvgl/src/draw/../misc/lv_mem.h **** //! @cond Doxygen_Suppress
 123:Drivers/lvgl/src/draw/../misc/lv_mem.h **** 
 124:Drivers/lvgl/src/draw/../misc/lv_mem.h **** #if LV_MEMCPY_MEMSET_STD
 125:Drivers/lvgl/src/draw/../misc/lv_mem.h **** 
 126:Drivers/lvgl/src/draw/../misc/lv_mem.h **** /**
 127:Drivers/lvgl/src/draw/../misc/lv_mem.h ****  * Wrapper for the standard memcpy
 128:Drivers/lvgl/src/draw/../misc/lv_mem.h ****  * @param dst pointer to the destination buffer
 129:Drivers/lvgl/src/draw/../misc/lv_mem.h ****  * @param src pointer to the source buffer
 130:Drivers/lvgl/src/draw/../misc/lv_mem.h ****  * @param len number of byte to copy
 131:Drivers/lvgl/src/draw/../misc/lv_mem.h ****  */
 132:Drivers/lvgl/src/draw/../misc/lv_mem.h **** static inline void * lv_memcpy(void * dst, const void * src, size_t len)
 133:Drivers/lvgl/src/draw/../misc/lv_mem.h **** {
 134:Drivers/lvgl/src/draw/../misc/lv_mem.h ****     return memcpy(dst, src, len);
 135:Drivers/lvgl/src/draw/../misc/lv_mem.h **** }
 136:Drivers/lvgl/src/draw/../misc/lv_mem.h **** 
 137:Drivers/lvgl/src/draw/../misc/lv_mem.h **** /**
 138:Drivers/lvgl/src/draw/../misc/lv_mem.h ****  * Wrapper for the standard memcpy
 139:Drivers/lvgl/src/draw/../misc/lv_mem.h ****  * @param dst pointer to the destination buffer
 140:Drivers/lvgl/src/draw/../misc/lv_mem.h ****  * @param src pointer to the source buffer
 141:Drivers/lvgl/src/draw/../misc/lv_mem.h ****  * @param len number of byte to copy
 142:Drivers/lvgl/src/draw/../misc/lv_mem.h ****  */
 143:Drivers/lvgl/src/draw/../misc/lv_mem.h **** static inline void * lv_memcpy_small(void * dst, const void * src, size_t len)
 144:Drivers/lvgl/src/draw/../misc/lv_mem.h **** {
 145:Drivers/lvgl/src/draw/../misc/lv_mem.h ****     return memcpy(dst, src, len);
 146:Drivers/lvgl/src/draw/../misc/lv_mem.h **** }
 147:Drivers/lvgl/src/draw/../misc/lv_mem.h **** 
 148:Drivers/lvgl/src/draw/../misc/lv_mem.h **** /**
 149:Drivers/lvgl/src/draw/../misc/lv_mem.h ****  * Wrapper for the standard memset
 150:Drivers/lvgl/src/draw/../misc/lv_mem.h ****  * @param dst pointer to the destination buffer
 151:Drivers/lvgl/src/draw/../misc/lv_mem.h ****  * @param v value to set [0..255]
 152:Drivers/lvgl/src/draw/../misc/lv_mem.h ****  * @param len number of byte to set
 153:Drivers/lvgl/src/draw/../misc/lv_mem.h ****  */
 154:Drivers/lvgl/src/draw/../misc/lv_mem.h **** static inline void lv_memset(void * dst, uint8_t v, size_t len)
 155:Drivers/lvgl/src/draw/../misc/lv_mem.h **** {
 156:Drivers/lvgl/src/draw/../misc/lv_mem.h ****     memset(dst, v, len);
 157:Drivers/lvgl/src/draw/../misc/lv_mem.h **** }
 158:Drivers/lvgl/src/draw/../misc/lv_mem.h **** 
 159:Drivers/lvgl/src/draw/../misc/lv_mem.h **** /**
 160:Drivers/lvgl/src/draw/../misc/lv_mem.h ****  * Wrapper for the standard memset with fixed 0x00 value
 161:Drivers/lvgl/src/draw/../misc/lv_mem.h ****  * @param dst pointer to the destination buffer
 162:Drivers/lvgl/src/draw/../misc/lv_mem.h ****  * @param len number of byte to set
ARM GAS  /var/folders/lp/x54gwt890xv47sdkqj1k04q40000gn/T//ccgxl04X.s 			page 22


 163:Drivers/lvgl/src/draw/../misc/lv_mem.h ****  */
 164:Drivers/lvgl/src/draw/../misc/lv_mem.h **** static inline void lv_memset_00(void * dst, size_t len)
 165:Drivers/lvgl/src/draw/../misc/lv_mem.h **** {
 166:Drivers/lvgl/src/draw/../misc/lv_mem.h ****     memset(dst, 0x00, len);
 167:Drivers/lvgl/src/draw/../misc/lv_mem.h **** }
 168:Drivers/lvgl/src/draw/../misc/lv_mem.h **** 
 169:Drivers/lvgl/src/draw/../misc/lv_mem.h **** /**
 170:Drivers/lvgl/src/draw/../misc/lv_mem.h ****  * Wrapper for the standard memset with fixed 0xFF value
 171:Drivers/lvgl/src/draw/../misc/lv_mem.h ****  * @param dst pointer to the destination buffer
 172:Drivers/lvgl/src/draw/../misc/lv_mem.h ****  * @param len number of byte to set
 173:Drivers/lvgl/src/draw/../misc/lv_mem.h ****  */
 174:Drivers/lvgl/src/draw/../misc/lv_mem.h **** static inline void lv_memset_ff(void * dst, size_t len)
 175:Drivers/lvgl/src/draw/../misc/lv_mem.h **** {
 176:Drivers/lvgl/src/draw/../misc/lv_mem.h ****     memset(dst, 0xFF, len);
 177:Drivers/lvgl/src/draw/../misc/lv_mem.h **** }
 178:Drivers/lvgl/src/draw/../misc/lv_mem.h **** 
 179:Drivers/lvgl/src/draw/../misc/lv_mem.h **** #else
 180:Drivers/lvgl/src/draw/../misc/lv_mem.h **** /**
 181:Drivers/lvgl/src/draw/../misc/lv_mem.h ****  * Same as `memcpy` but optimized for 4 byte operation.
 182:Drivers/lvgl/src/draw/../misc/lv_mem.h ****  * @param dst pointer to the destination buffer
 183:Drivers/lvgl/src/draw/../misc/lv_mem.h ****  * @param src pointer to the source buffer
 184:Drivers/lvgl/src/draw/../misc/lv_mem.h ****  * @param len number of byte to copy
 185:Drivers/lvgl/src/draw/../misc/lv_mem.h ****  */
 186:Drivers/lvgl/src/draw/../misc/lv_mem.h **** void * /* LV_ATTRIBUTE_FAST_MEM */ lv_memcpy(void * dst, const void * src, size_t len);
 187:Drivers/lvgl/src/draw/../misc/lv_mem.h **** 
 188:Drivers/lvgl/src/draw/../misc/lv_mem.h **** /**
 189:Drivers/lvgl/src/draw/../misc/lv_mem.h ****  * Same as `memcpy` but optimized to copy only a few bytes.
 190:Drivers/lvgl/src/draw/../misc/lv_mem.h ****  * @param dst pointer to the destination buffer
 191:Drivers/lvgl/src/draw/../misc/lv_mem.h ****  * @param src pointer to the source buffer
 192:Drivers/lvgl/src/draw/../misc/lv_mem.h ****  * @param len number of byte to copy
 193:Drivers/lvgl/src/draw/../misc/lv_mem.h ****  */
 194:Drivers/lvgl/src/draw/../misc/lv_mem.h **** static inline void * LV_ATTRIBUTE_FAST_MEM lv_memcpy_small(void * dst, const void * src, size_t len
 439              		.loc 2 194 44 view .LVU117
 440              	.LBB18:
 195:Drivers/lvgl/src/draw/../misc/lv_mem.h **** {
 196:Drivers/lvgl/src/draw/../misc/lv_mem.h ****     uint8_t * d8 = (uint8_t *)dst;
 441              		.loc 2 196 5 view .LVU118
 197:Drivers/lvgl/src/draw/../misc/lv_mem.h ****     const uint8_t * s8 = (const uint8_t *)src;
 442              		.loc 2 197 5 view .LVU119
 198:Drivers/lvgl/src/draw/../misc/lv_mem.h **** 
 199:Drivers/lvgl/src/draw/../misc/lv_mem.h ****     while(len) {
 443              		.loc 2 199 5 view .LVU120
 197:Drivers/lvgl/src/draw/../misc/lv_mem.h ****     const uint8_t * s8 = (const uint8_t *)src;
 444              		.loc 2 197 21 is_stmt 0 view .LVU121
 445 0076 01AA     		add	r2, sp, #4
 446              	.LVL42:
 447              		.loc 2 199 10 view .LVU122
 448 0078 0C23     		movs	r3, #12
 449 007a 0EE0     		b	.L29
 450              	.LVL43:
 451              	.L62:
 452              		.loc 2 199 10 view .LVU123
 453              	.LBE18:
 454              	.LBE17:
 342:Drivers/lvgl/src/draw/lv_img_decoder.c ****             LV_ASSERT_MALLOC(dsc->user_data);
 455              		.loc 1 342 13 is_stmt 1 view .LVU124
 342:Drivers/lvgl/src/draw/lv_img_decoder.c ****             LV_ASSERT_MALLOC(dsc->user_data);
ARM GAS  /var/folders/lp/x54gwt890xv47sdkqj1k04q40000gn/T//ccgxl04X.s 			page 23


 456              		.loc 1 342 30 is_stmt 0 view .LVU125
 457 007c 1420     		movs	r0, #20
 458              	.LVL44:
 342:Drivers/lvgl/src/draw/lv_img_decoder.c ****             LV_ASSERT_MALLOC(dsc->user_data);
 459              		.loc 1 342 30 view .LVU126
 460 007e FFF7FEFF 		bl	lv_mem_alloc
 461              	.LVL45:
 342:Drivers/lvgl/src/draw/lv_img_decoder.c ****             LV_ASSERT_MALLOC(dsc->user_data);
 462              		.loc 1 342 28 discriminator 1 view .LVU127
 463 0082 6062     		str	r0, [r4, #36]
 343:Drivers/lvgl/src/draw/lv_img_decoder.c ****             if(dsc->user_data == NULL) {
 464              		.loc 1 343 13 is_stmt 1 view .LVU128
 343:Drivers/lvgl/src/draw/lv_img_decoder.c ****             if(dsc->user_data == NULL) {
 465              		.loc 1 343 13 view .LVU129
 466 0084 18B1     		cbz	r0, .L28
 343:Drivers/lvgl/src/draw/lv_img_decoder.c ****             if(dsc->user_data == NULL) {
 467              		.loc 1 343 13 discriminator 2 view .LVU130
 343:Drivers/lvgl/src/draw/lv_img_decoder.c ****             if(dsc->user_data == NULL) {
 468              		.loc 1 343 45 discriminator 2 view .LVU131
 344:Drivers/lvgl/src/draw/lv_img_decoder.c ****                 LV_LOG_ERROR("img_decoder_built_in_open: out of memory");
 469              		.loc 1 344 13 view .LVU132
 349:Drivers/lvgl/src/draw/lv_img_decoder.c ****         }
 470              		.loc 1 349 13 view .LVU133
 471 0086 1421     		movs	r1, #20
 472 0088 FFF7FEFF 		bl	lv_memset_00
 473              	.LVL46:
 474 008c F2E7     		b	.L26
 475              	.L28:
 343:Drivers/lvgl/src/draw/lv_img_decoder.c ****             if(dsc->user_data == NULL) {
 476              		.loc 1 343 13 discriminator 1 view .LVU134
 343:Drivers/lvgl/src/draw/lv_img_decoder.c ****             if(dsc->user_data == NULL) {
 477              		.loc 1 343 13 discriminator 1 view .LVU135
 343:Drivers/lvgl/src/draw/lv_img_decoder.c ****             if(dsc->user_data == NULL) {
 478              		.loc 1 343 13 discriminator 1 view .LVU136
 343:Drivers/lvgl/src/draw/lv_img_decoder.c ****             if(dsc->user_data == NULL) {
 479              		.loc 1 343 13 discriminator 1 view .LVU137
 343:Drivers/lvgl/src/draw/lv_img_decoder.c ****             if(dsc->user_data == NULL) {
 480              		.loc 1 343 13 discriminator 1 view .LVU138
 481 008e FEE7     		b	.L28
 482              	.LVL47:
 483              	.L30:
 484              	.LBB20:
 485              	.LBB19:
 200:Drivers/lvgl/src/draw/../misc/lv_mem.h ****         *d8 = *s8;
 486              		.loc 2 200 9 view .LVU139
 487              		.loc 2 200 15 is_stmt 0 view .LVU140
 488 0090 12F8010B 		ldrb	r0, [r2], #1	@ zero_extendqisi2
 489              	.LVL48:
 490              		.loc 2 200 13 view .LVU141
 491 0094 01F8010B 		strb	r0, [r1], #1
 492              	.LVL49:
 201:Drivers/lvgl/src/draw/../misc/lv_mem.h ****         d8++;
 493              		.loc 2 201 9 is_stmt 1 view .LVU142
 202:Drivers/lvgl/src/draw/../misc/lv_mem.h ****         s8++;
 494              		.loc 2 202 9 view .LVU143
 203:Drivers/lvgl/src/draw/../misc/lv_mem.h ****         len--;
 495              		.loc 2 203 9 view .LVU144
ARM GAS  /var/folders/lp/x54gwt890xv47sdkqj1k04q40000gn/T//ccgxl04X.s 			page 24


 496              		.loc 2 203 12 is_stmt 0 view .LVU145
 497 0098 013B     		subs	r3, r3, #1
 498              	.LVL50:
 499              	.L29:
 199:Drivers/lvgl/src/draw/../misc/lv_mem.h ****         *d8 = *s8;
 500              		.loc 2 199 11 is_stmt 1 view .LVU146
 501 009a 002B     		cmp	r3, #0
 502 009c F8D1     		bne	.L30
 199:Drivers/lvgl/src/draw/../misc/lv_mem.h ****         *d8 = *s8;
 503              		.loc 2 199 11 is_stmt 0 view .LVU147
 504 009e BDE7     		b	.L31
 505              	.LVL51:
 506              	.L34:
 199:Drivers/lvgl/src/draw/../misc/lv_mem.h ****         *d8 = *s8;
 507              		.loc 2 199 11 view .LVU148
 508              	.LBE19:
 509              	.LBE20:
 510              	.LBE16:
 365:Drivers/lvgl/src/draw/lv_img_decoder.c ****             /*In case of uncompressed formats the image stored in the ROM/RAM.
 511              		.loc 1 365 9 is_stmt 1 view .LVU149
 365:Drivers/lvgl/src/draw/lv_img_decoder.c ****             /*In case of uncompressed formats the image stored in the ROM/RAM.
 512              		.loc 1 365 15 is_stmt 0 view .LVU150
 513 00a0 237C     		ldrb	r3, [r4, #16]	@ zero_extendqisi2
 365:Drivers/lvgl/src/draw/lv_img_decoder.c ****             /*In case of uncompressed formats the image stored in the ROM/RAM.
 514              		.loc 1 365 11 view .LVU151
 515 00a2 1BB3     		cbz	r3, .L63
 516              	.LBB21:
 373:Drivers/lvgl/src/draw/lv_img_decoder.c ****             len *= cf == LV_IMG_CF_RGB565A8 ? 3 : 1;
 517              		.loc 1 373 13 is_stmt 1 view .LVU152
 373:Drivers/lvgl/src/draw/lv_img_decoder.c ****             len *= cf == LV_IMG_CF_RGB565A8 ? 3 : 1;
 518              		.loc 1 373 39 is_stmt 0 view .LVU153
 519 00a4 6369     		ldr	r3, [r4, #20]
 520 00a6 C3F38A23 		ubfx	r3, r3, #10, #11
 373:Drivers/lvgl/src/draw/lv_img_decoder.c ****             len *= cf == LV_IMG_CF_RGB565A8 ? 3 : 1;
 521              		.loc 1 373 55 view .LVU154
 522 00aa E28A     		ldrh	r2, [r4, #22]
 523 00ac C2F34A12 		ubfx	r2, r2, #5, #11
 373:Drivers/lvgl/src/draw/lv_img_decoder.c ****             len *= cf == LV_IMG_CF_RGB565A8 ? 3 : 1;
 524              		.loc 1 373 42 view .LVU155
 525 00b0 02FB03F3 		mul	r3, r2, r3
 526              	.LVL52:
 374:Drivers/lvgl/src/draw/lv_img_decoder.c ****             uint8_t * fs_buf = lv_mem_alloc(len);
 527              		.loc 1 374 13 is_stmt 1 view .LVU156
 374:Drivers/lvgl/src/draw/lv_img_decoder.c ****             uint8_t * fs_buf = lv_mem_alloc(len);
 528              		.loc 1 374 49 is_stmt 0 view .LVU157
 529 00b4 1428     		cmp	r0, #20
 530 00b6 1ED0     		beq	.L64
 374:Drivers/lvgl/src/draw/lv_img_decoder.c ****             uint8_t * fs_buf = lv_mem_alloc(len);
 531              		.loc 1 374 49 discriminator 2 view .LVU158
 532 00b8 0125     		movs	r5, #1
 533              	.LVL53:
 534              	.L39:
 374:Drivers/lvgl/src/draw/lv_img_decoder.c ****             uint8_t * fs_buf = lv_mem_alloc(len);
 535              		.loc 1 374 17 discriminator 4 view .LVU159
 536 00ba 03FB05F5 		mul	r5, r3, r5
 537              	.LVL54:
 375:Drivers/lvgl/src/draw/lv_img_decoder.c ****             if(fs_buf == NULL) return LV_RES_INV;
ARM GAS  /var/folders/lp/x54gwt890xv47sdkqj1k04q40000gn/T//ccgxl04X.s 			page 25


 538              		.loc 1 375 13 is_stmt 1 view .LVU160
 375:Drivers/lvgl/src/draw/lv_img_decoder.c ****             if(fs_buf == NULL) return LV_RES_INV;
 539              		.loc 1 375 32 is_stmt 0 view .LVU161
 540 00be 2846     		mov	r0, r5
 541 00c0 FFF7FEFF 		bl	lv_mem_alloc
 542              	.LVL55:
 376:Drivers/lvgl/src/draw/lv_img_decoder.c **** 
 543              		.loc 1 376 13 is_stmt 1 view .LVU162
 376:Drivers/lvgl/src/draw/lv_img_decoder.c **** 
 544              		.loc 1 376 15 is_stmt 0 view .LVU163
 545 00c4 0646     		mov	r6, r0
 546 00c6 0028     		cmp	r0, #0
 547 00c8 00F0B380 		beq	.L57
 378:Drivers/lvgl/src/draw/lv_img_decoder.c ****             lv_fs_seek(&user_data->f, 4, LV_FS_SEEK_SET); /*+4 to skip the header*/
 548              		.loc 1 378 13 is_stmt 1 view .LVU164
 378:Drivers/lvgl/src/draw/lv_img_decoder.c ****             lv_fs_seek(&user_data->f, 4, LV_FS_SEEK_SET); /*+4 to skip the header*/
 549              		.loc 1 378 46 is_stmt 0 view .LVU165
 550 00cc 676A     		ldr	r7, [r4, #36]
 551              	.LVL56:
 379:Drivers/lvgl/src/draw/lv_img_decoder.c ****             lv_fs_res_t res = lv_fs_read(&user_data->f, fs_buf, len, NULL);
 552              		.loc 1 379 13 is_stmt 1 view .LVU166
 553 00ce 0022     		movs	r2, #0
 554 00d0 0421     		movs	r1, #4
 555 00d2 3846     		mov	r0, r7
 556              	.LVL57:
 379:Drivers/lvgl/src/draw/lv_img_decoder.c ****             lv_fs_res_t res = lv_fs_read(&user_data->f, fs_buf, len, NULL);
 557              		.loc 1 379 13 is_stmt 0 view .LVU167
 558 00d4 FFF7FEFF 		bl	lv_fs_seek
 559              	.LVL58:
 380:Drivers/lvgl/src/draw/lv_img_decoder.c ****             if(res != LV_FS_RES_OK) {
 560              		.loc 1 380 13 is_stmt 1 view .LVU168
 380:Drivers/lvgl/src/draw/lv_img_decoder.c ****             if(res != LV_FS_RES_OK) {
 561              		.loc 1 380 31 is_stmt 0 view .LVU169
 562 00d8 0023     		movs	r3, #0
 563 00da 2A46     		mov	r2, r5
 564 00dc 3146     		mov	r1, r6
 565 00de 3846     		mov	r0, r7
 566 00e0 FFF7FEFF 		bl	lv_fs_read
 567              	.LVL59:
 381:Drivers/lvgl/src/draw/lv_img_decoder.c ****                 lv_mem_free(fs_buf);
 568              		.loc 1 381 13 is_stmt 1 view .LVU170
 381:Drivers/lvgl/src/draw/lv_img_decoder.c ****                 lv_mem_free(fs_buf);
 569              		.loc 1 381 15 is_stmt 0 view .LVU171
 570 00e4 48B9     		cbnz	r0, .L65
 385:Drivers/lvgl/src/draw/lv_img_decoder.c ****             return LV_RES_OK;
 571              		.loc 1 385 13 is_stmt 1 view .LVU172
 385:Drivers/lvgl/src/draw/lv_img_decoder.c ****             return LV_RES_OK;
 572              		.loc 1 385 27 is_stmt 0 view .LVU173
 573 00e6 A661     		str	r6, [r4, #24]
 386:Drivers/lvgl/src/draw/lv_img_decoder.c ****         }
 574              		.loc 1 386 13 is_stmt 1 view .LVU174
 386:Drivers/lvgl/src/draw/lv_img_decoder.c ****         }
 575              		.loc 1 386 20 is_stmt 0 view .LVU175
 576 00e8 0120     		movs	r0, #1
 577              	.LVL60:
 386:Drivers/lvgl/src/draw/lv_img_decoder.c ****         }
 578              		.loc 1 386 20 view .LVU176
ARM GAS  /var/folders/lp/x54gwt890xv47sdkqj1k04q40000gn/T//ccgxl04X.s 			page 26


 579 00ea 9FE0     		b	.L32
 580              	.LVL61:
 581              	.L63:
 386:Drivers/lvgl/src/draw/lv_img_decoder.c ****         }
 582              		.loc 1 386 20 view .LVU177
 583              	.LBE21:
 368:Drivers/lvgl/src/draw/lv_img_decoder.c ****             return LV_RES_OK;
 584              		.loc 1 368 13 is_stmt 1 view .LVU178
 368:Drivers/lvgl/src/draw/lv_img_decoder.c ****             return LV_RES_OK;
 585              		.loc 1 368 49 is_stmt 0 view .LVU179
 586 00ec 6368     		ldr	r3, [r4, #4]
 368:Drivers/lvgl/src/draw/lv_img_decoder.c ****             return LV_RES_OK;
 587              		.loc 1 368 55 view .LVU180
 588 00ee 9B68     		ldr	r3, [r3, #8]
 368:Drivers/lvgl/src/draw/lv_img_decoder.c ****             return LV_RES_OK;
 589              		.loc 1 368 27 view .LVU181
 590 00f0 A361     		str	r3, [r4, #24]
 369:Drivers/lvgl/src/draw/lv_img_decoder.c ****         }
 591              		.loc 1 369 13 is_stmt 1 view .LVU182
 369:Drivers/lvgl/src/draw/lv_img_decoder.c ****         }
 592              		.loc 1 369 20 is_stmt 0 view .LVU183
 593 00f2 0120     		movs	r0, #1
 594 00f4 9AE0     		b	.L32
 595              	.LVL62:
 596              	.L64:
 597              	.LBB22:
 374:Drivers/lvgl/src/draw/lv_img_decoder.c ****             uint8_t * fs_buf = lv_mem_alloc(len);
 598              		.loc 1 374 49 discriminator 1 view .LVU184
 599 00f6 0325     		movs	r5, #3
 600              	.LVL63:
 374:Drivers/lvgl/src/draw/lv_img_decoder.c ****             uint8_t * fs_buf = lv_mem_alloc(len);
 601              		.loc 1 374 49 discriminator 1 view .LVU185
 602 00f8 DFE7     		b	.L39
 603              	.LVL64:
 604              	.L65:
 382:Drivers/lvgl/src/draw/lv_img_decoder.c ****                 return LV_RES_INV;
 605              		.loc 1 382 17 is_stmt 1 view .LVU186
 606 00fa 3046     		mov	r0, r6
 607              	.LVL65:
 382:Drivers/lvgl/src/draw/lv_img_decoder.c ****                 return LV_RES_INV;
 608              		.loc 1 382 17 is_stmt 0 view .LVU187
 609 00fc FFF7FEFF 		bl	lv_mem_free
 610              	.LVL66:
 383:Drivers/lvgl/src/draw/lv_img_decoder.c ****             }
 611              		.loc 1 383 17 is_stmt 1 view .LVU188
 383:Drivers/lvgl/src/draw/lv_img_decoder.c ****             }
 612              		.loc 1 383 24 is_stmt 0 view .LVU189
 613 0100 0020     		movs	r0, #0
 614 0102 93E0     		b	.L32
 615              	.LVL67:
 616              	.L37:
 383:Drivers/lvgl/src/draw/lv_img_decoder.c ****             }
 617              		.loc 1 383 24 view .LVU190
 618              	.LBE22:
 392:Drivers/lvgl/src/draw/lv_img_decoder.c ****             /*In case of uncompressed formats the image stored in the ROM/RAM.
 619              		.loc 1 392 9 is_stmt 1 view .LVU191
 392:Drivers/lvgl/src/draw/lv_img_decoder.c ****             /*In case of uncompressed formats the image stored in the ROM/RAM.
ARM GAS  /var/folders/lp/x54gwt890xv47sdkqj1k04q40000gn/T//ccgxl04X.s 			page 27


 620              		.loc 1 392 15 is_stmt 0 view .LVU192
 621 0104 237C     		ldrb	r3, [r4, #16]	@ zero_extendqisi2
 392:Drivers/lvgl/src/draw/lv_img_decoder.c ****             /*In case of uncompressed formats the image stored in the ROM/RAM.
 622              		.loc 1 392 11 view .LVU193
 623 0106 002B     		cmp	r3, #0
 624 0108 40F09580 		bne	.L58
 395:Drivers/lvgl/src/draw/lv_img_decoder.c ****             return LV_RES_OK;
 625              		.loc 1 395 13 is_stmt 1 view .LVU194
 395:Drivers/lvgl/src/draw/lv_img_decoder.c ****             return LV_RES_OK;
 626              		.loc 1 395 49 is_stmt 0 view .LVU195
 627 010c 6368     		ldr	r3, [r4, #4]
 395:Drivers/lvgl/src/draw/lv_img_decoder.c ****             return LV_RES_OK;
 628              		.loc 1 395 55 view .LVU196
 629 010e 9B68     		ldr	r3, [r3, #8]
 395:Drivers/lvgl/src/draw/lv_img_decoder.c ****             return LV_RES_OK;
 630              		.loc 1 395 27 view .LVU197
 631 0110 A361     		str	r3, [r4, #24]
 396:Drivers/lvgl/src/draw/lv_img_decoder.c ****         }
 632              		.loc 1 396 13 is_stmt 1 view .LVU198
 396:Drivers/lvgl/src/draw/lv_img_decoder.c ****         }
 633              		.loc 1 396 20 is_stmt 0 view .LVU199
 634 0112 0120     		movs	r0, #1
 635 0114 8AE0     		b	.L32
 636              	.L36:
 637              	.LBB23:
 406:Drivers/lvgl/src/draw/lv_img_decoder.c ****         uint32_t palette_size = 1 << px_size;
 638              		.loc 1 406 9 is_stmt 1 view .LVU200
 406:Drivers/lvgl/src/draw/lv_img_decoder.c ****         uint32_t palette_size = 1 << px_size;
 639              		.loc 1 406 33 is_stmt 0 view .LVU201
 640 0116 FFF7FEFF 		bl	lv_img_cf_get_px_size
 641              	.LVL68:
 406:Drivers/lvgl/src/draw/lv_img_decoder.c ****         uint32_t palette_size = 1 << px_size;
 642              		.loc 1 406 33 view .LVU202
 643 011a 8246     		mov	r10, r0
 644              	.LVL69:
 407:Drivers/lvgl/src/draw/lv_img_decoder.c **** 
 645              		.loc 1 407 9 is_stmt 1 view .LVU203
 407:Drivers/lvgl/src/draw/lv_img_decoder.c **** 
 646              		.loc 1 407 35 is_stmt 0 view .LVU204
 647 011c 4FF00109 		mov	r9, #1
 648 0120 09FA00F9 		lsl	r9, r9, r0
 649              	.LVL70:
 410:Drivers/lvgl/src/draw/lv_img_decoder.c ****             dsc->user_data = lv_mem_alloc(sizeof(lv_img_decoder_built_in_data_t));
 650              		.loc 1 410 9 is_stmt 1 view .LVU205
 410:Drivers/lvgl/src/draw/lv_img_decoder.c ****             dsc->user_data = lv_mem_alloc(sizeof(lv_img_decoder_built_in_data_t));
 651              		.loc 1 410 15 is_stmt 0 view .LVU206
 652 0124 636A     		ldr	r3, [r4, #36]
 410:Drivers/lvgl/src/draw/lv_img_decoder.c ****             dsc->user_data = lv_mem_alloc(sizeof(lv_img_decoder_built_in_data_t));
 653              		.loc 1 410 11 view .LVU207
 654 0126 CBB1     		cbz	r3, .L66
 655              	.LVL71:
 656              	.L41:
 420:Drivers/lvgl/src/draw/lv_img_decoder.c ****         user_data->palette                         = lv_mem_alloc(palette_size * sizeof(lv_color_t)
 657              		.loc 1 420 9 is_stmt 1 view .LVU208
 420:Drivers/lvgl/src/draw/lv_img_decoder.c ****         user_data->palette                         = lv_mem_alloc(palette_size * sizeof(lv_color_t)
 658              		.loc 1 420 42 is_stmt 0 view .LVU209
 659 0128 D4F82480 		ldr	r8, [r4, #36]
ARM GAS  /var/folders/lp/x54gwt890xv47sdkqj1k04q40000gn/T//ccgxl04X.s 			page 28


 660              	.LVL72:
 421:Drivers/lvgl/src/draw/lv_img_decoder.c ****         LV_ASSERT_MALLOC(user_data->palette);
 661              		.loc 1 421 9 is_stmt 1 view .LVU210
 421:Drivers/lvgl/src/draw/lv_img_decoder.c ****         LV_ASSERT_MALLOC(user_data->palette);
 662              		.loc 1 421 54 is_stmt 0 view .LVU211
 663 012c 0220     		movs	r0, #2
 664 012e 00FA0AF0 		lsl	r0, r0, r10
 665 0132 FFF7FEFF 		bl	lv_mem_alloc
 666              	.LVL73:
 421:Drivers/lvgl/src/draw/lv_img_decoder.c ****         LV_ASSERT_MALLOC(user_data->palette);
 667              		.loc 1 421 52 discriminator 1 view .LVU212
 668 0136 C8F80C00 		str	r0, [r8, #12]
 422:Drivers/lvgl/src/draw/lv_img_decoder.c ****         user_data->opa                             = lv_mem_alloc(palette_size * sizeof(lv_opa_t));
 669              		.loc 1 422 9 is_stmt 1 view .LVU213
 422:Drivers/lvgl/src/draw/lv_img_decoder.c ****         user_data->opa                             = lv_mem_alloc(palette_size * sizeof(lv_opa_t));
 670              		.loc 1 422 9 view .LVU214
 671 013a C8B1     		cbz	r0, .L45
 422:Drivers/lvgl/src/draw/lv_img_decoder.c ****         user_data->opa                             = lv_mem_alloc(palette_size * sizeof(lv_opa_t));
 672              		.loc 1 422 9 discriminator 2 view .LVU215
 422:Drivers/lvgl/src/draw/lv_img_decoder.c ****         user_data->opa                             = lv_mem_alloc(palette_size * sizeof(lv_opa_t));
 673              		.loc 1 422 45 discriminator 2 view .LVU216
 423:Drivers/lvgl/src/draw/lv_img_decoder.c ****         LV_ASSERT_MALLOC(user_data->opa);
 674              		.loc 1 423 9 view .LVU217
 423:Drivers/lvgl/src/draw/lv_img_decoder.c ****         LV_ASSERT_MALLOC(user_data->opa);
 675              		.loc 1 423 54 is_stmt 0 view .LVU218
 676 013c 4846     		mov	r0, r9
 677 013e FFF7FEFF 		bl	lv_mem_alloc
 678              	.LVL74:
 423:Drivers/lvgl/src/draw/lv_img_decoder.c ****         LV_ASSERT_MALLOC(user_data->opa);
 679              		.loc 1 423 52 discriminator 1 view .LVU219
 680 0142 C8F81000 		str	r0, [r8, #16]
 424:Drivers/lvgl/src/draw/lv_img_decoder.c ****         if(user_data->palette == NULL || user_data->opa == NULL) {
 681              		.loc 1 424 9 is_stmt 1 view .LVU220
 424:Drivers/lvgl/src/draw/lv_img_decoder.c ****         if(user_data->palette == NULL || user_data->opa == NULL) {
 682              		.loc 1 424 9 view .LVU221
 683 0146 A0B1     		cbz	r0, .L47
 424:Drivers/lvgl/src/draw/lv_img_decoder.c ****         if(user_data->palette == NULL || user_data->opa == NULL) {
 684              		.loc 1 424 9 discriminator 2 view .LVU222
 424:Drivers/lvgl/src/draw/lv_img_decoder.c ****         if(user_data->palette == NULL || user_data->opa == NULL) {
 685              		.loc 1 424 41 discriminator 2 view .LVU223
 425:Drivers/lvgl/src/draw/lv_img_decoder.c ****             LV_LOG_ERROR("img_decoder_built_in_open: out of memory");
 686              		.loc 1 425 9 view .LVU224
 425:Drivers/lvgl/src/draw/lv_img_decoder.c ****             LV_LOG_ERROR("img_decoder_built_in_open: out of memory");
 687              		.loc 1 425 21 is_stmt 0 view .LVU225
 688 0148 D8F80C30 		ldr	r3, [r8, #12]
 425:Drivers/lvgl/src/draw/lv_img_decoder.c ****             LV_LOG_ERROR("img_decoder_built_in_open: out of memory");
 689              		.loc 1 425 11 view .LVU226
 690 014c 93B1     		cbz	r3, .L67
 431:Drivers/lvgl/src/draw/lv_img_decoder.c ****             /*Read the palette from file*/
 691              		.loc 1 431 9 is_stmt 1 view .LVU227
 431:Drivers/lvgl/src/draw/lv_img_decoder.c ****             /*Read the palette from file*/
 692              		.loc 1 431 15 is_stmt 0 view .LVU228
 693 014e 237C     		ldrb	r3, [r4, #16]	@ zero_extendqisi2
 431:Drivers/lvgl/src/draw/lv_img_decoder.c ****             /*Read the palette from file*/
 694              		.loc 1 431 11 view .LVU229
 695 0150 012B     		cmp	r3, #1
 696 0152 15D0     		beq	.L68
ARM GAS  /var/folders/lp/x54gwt890xv47sdkqj1k04q40000gn/T//ccgxl04X.s 			page 29


 697              	.LBB24:
 444:Drivers/lvgl/src/draw/lv_img_decoder.c **** 
 698              		.loc 1 444 13 is_stmt 1 view .LVU230
 444:Drivers/lvgl/src/draw/lv_img_decoder.c **** 
 699              		.loc 1 444 76 is_stmt 0 view .LVU231
 700 0154 6368     		ldr	r3, [r4, #4]
 444:Drivers/lvgl/src/draw/lv_img_decoder.c **** 
 701              		.loc 1 444 28 view .LVU232
 702 0156 9F68     		ldr	r7, [r3, #8]
 703              	.LVL75:
 446:Drivers/lvgl/src/draw/lv_img_decoder.c ****             for(i = 0; i < palette_size; i++) {
 704              		.loc 1 446 13 is_stmt 1 view .LVU233
 447:Drivers/lvgl/src/draw/lv_img_decoder.c ****                 user_data->palette[i] = lv_color_make(palette_p[i].ch.red, palette_p[i].ch.green, p
 705              		.loc 1 447 13 view .LVU234
 447:Drivers/lvgl/src/draw/lv_img_decoder.c ****                 user_data->palette[i] = lv_color_make(palette_p[i].ch.red, palette_p[i].ch.green, p
 706              		.loc 1 447 19 is_stmt 0 view .LVU235
 707 0158 0023     		movs	r3, #0
 447:Drivers/lvgl/src/draw/lv_img_decoder.c ****                 user_data->palette[i] = lv_color_make(palette_p[i].ch.red, palette_p[i].ch.green, p
 708              		.loc 1 447 13 view .LVU236
 709 015a 5CE0     		b	.L53
 710              	.LVL76:
 711              	.L66:
 447:Drivers/lvgl/src/draw/lv_img_decoder.c ****                 user_data->palette[i] = lv_color_make(palette_p[i].ch.red, palette_p[i].ch.green, p
 712              		.loc 1 447 13 view .LVU237
 713              	.LBE24:
 411:Drivers/lvgl/src/draw/lv_img_decoder.c ****             LV_ASSERT_MALLOC(dsc->user_data);
 714              		.loc 1 411 13 is_stmt 1 view .LVU238
 411:Drivers/lvgl/src/draw/lv_img_decoder.c ****             LV_ASSERT_MALLOC(dsc->user_data);
 715              		.loc 1 411 30 is_stmt 0 view .LVU239
 716 015c 1420     		movs	r0, #20
 717              	.LVL77:
 411:Drivers/lvgl/src/draw/lv_img_decoder.c ****             LV_ASSERT_MALLOC(dsc->user_data);
 718              		.loc 1 411 30 view .LVU240
 719 015e FFF7FEFF 		bl	lv_mem_alloc
 720              	.LVL78:
 411:Drivers/lvgl/src/draw/lv_img_decoder.c ****             LV_ASSERT_MALLOC(dsc->user_data);
 721              		.loc 1 411 28 discriminator 1 view .LVU241
 722 0162 6062     		str	r0, [r4, #36]
 412:Drivers/lvgl/src/draw/lv_img_decoder.c ****             if(dsc->user_data == NULL) {
 723              		.loc 1 412 13 is_stmt 1 view .LVU242
 412:Drivers/lvgl/src/draw/lv_img_decoder.c ****             if(dsc->user_data == NULL) {
 724              		.loc 1 412 13 view .LVU243
 725 0164 18B1     		cbz	r0, .L43
 412:Drivers/lvgl/src/draw/lv_img_decoder.c ****             if(dsc->user_data == NULL) {
 726              		.loc 1 412 13 discriminator 2 view .LVU244
 412:Drivers/lvgl/src/draw/lv_img_decoder.c ****             if(dsc->user_data == NULL) {
 727              		.loc 1 412 45 discriminator 2 view .LVU245
 413:Drivers/lvgl/src/draw/lv_img_decoder.c ****                 LV_LOG_ERROR("img_decoder_built_in_open: out of memory");
 728              		.loc 1 413 13 view .LVU246
 417:Drivers/lvgl/src/draw/lv_img_decoder.c ****         }
 729              		.loc 1 417 13 view .LVU247
 730 0166 1421     		movs	r1, #20
 731 0168 FFF7FEFF 		bl	lv_memset_00
 732              	.LVL79:
 733 016c DCE7     		b	.L41
 734              	.L43:
 412:Drivers/lvgl/src/draw/lv_img_decoder.c ****             if(dsc->user_data == NULL) {
ARM GAS  /var/folders/lp/x54gwt890xv47sdkqj1k04q40000gn/T//ccgxl04X.s 			page 30


 735              		.loc 1 412 13 discriminator 1 view .LVU248
 412:Drivers/lvgl/src/draw/lv_img_decoder.c ****             if(dsc->user_data == NULL) {
 736              		.loc 1 412 13 discriminator 1 view .LVU249
 412:Drivers/lvgl/src/draw/lv_img_decoder.c ****             if(dsc->user_data == NULL) {
 737              		.loc 1 412 13 discriminator 1 view .LVU250
 412:Drivers/lvgl/src/draw/lv_img_decoder.c ****             if(dsc->user_data == NULL) {
 738              		.loc 1 412 13 discriminator 1 view .LVU251
 412:Drivers/lvgl/src/draw/lv_img_decoder.c ****             if(dsc->user_data == NULL) {
 739              		.loc 1 412 13 discriminator 1 view .LVU252
 740 016e FEE7     		b	.L43
 741              	.LVL80:
 742              	.L45:
 422:Drivers/lvgl/src/draw/lv_img_decoder.c ****         user_data->opa                             = lv_mem_alloc(palette_size * sizeof(lv_opa_t));
 743              		.loc 1 422 9 discriminator 1 view .LVU253
 422:Drivers/lvgl/src/draw/lv_img_decoder.c ****         user_data->opa                             = lv_mem_alloc(palette_size * sizeof(lv_opa_t));
 744              		.loc 1 422 9 discriminator 1 view .LVU254
 422:Drivers/lvgl/src/draw/lv_img_decoder.c ****         user_data->opa                             = lv_mem_alloc(palette_size * sizeof(lv_opa_t));
 745              		.loc 1 422 9 discriminator 1 view .LVU255
 422:Drivers/lvgl/src/draw/lv_img_decoder.c ****         user_data->opa                             = lv_mem_alloc(palette_size * sizeof(lv_opa_t));
 746              		.loc 1 422 9 discriminator 1 view .LVU256
 422:Drivers/lvgl/src/draw/lv_img_decoder.c ****         user_data->opa                             = lv_mem_alloc(palette_size * sizeof(lv_opa_t));
 747              		.loc 1 422 9 discriminator 1 view .LVU257
 748 0170 FEE7     		b	.L45
 749              	.L47:
 424:Drivers/lvgl/src/draw/lv_img_decoder.c ****         if(user_data->palette == NULL || user_data->opa == NULL) {
 750              		.loc 1 424 9 discriminator 1 view .LVU258
 424:Drivers/lvgl/src/draw/lv_img_decoder.c ****         if(user_data->palette == NULL || user_data->opa == NULL) {
 751              		.loc 1 424 9 discriminator 1 view .LVU259
 424:Drivers/lvgl/src/draw/lv_img_decoder.c ****         if(user_data->palette == NULL || user_data->opa == NULL) {
 752              		.loc 1 424 9 discriminator 1 view .LVU260
 424:Drivers/lvgl/src/draw/lv_img_decoder.c ****         if(user_data->palette == NULL || user_data->opa == NULL) {
 753              		.loc 1 424 9 discriminator 1 view .LVU261
 424:Drivers/lvgl/src/draw/lv_img_decoder.c ****         if(user_data->palette == NULL || user_data->opa == NULL) {
 754              		.loc 1 424 9 discriminator 1 view .LVU262
 755 0172 FEE7     		b	.L47
 756              	.L67:
 426:Drivers/lvgl/src/draw/lv_img_decoder.c ****             lv_img_decoder_built_in_close(decoder, dsc);
 757              		.loc 1 426 13 view .LVU263
 426:Drivers/lvgl/src/draw/lv_img_decoder.c ****             lv_img_decoder_built_in_close(decoder, dsc);
 758              		.loc 1 426 13 view .LVU264
 426:Drivers/lvgl/src/draw/lv_img_decoder.c ****             lv_img_decoder_built_in_close(decoder, dsc);
 759              		.loc 1 426 13 view .LVU265
 427:Drivers/lvgl/src/draw/lv_img_decoder.c ****             return LV_RES_INV;
 760              		.loc 1 427 13 view .LVU266
 761 0174 2146     		mov	r1, r4
 762 0176 2846     		mov	r0, r5
 763 0178 FFF7FEFF 		bl	lv_img_decoder_built_in_close
 764              	.LVL81:
 428:Drivers/lvgl/src/draw/lv_img_decoder.c ****         }
 765              		.loc 1 428 13 view .LVU267
 428:Drivers/lvgl/src/draw/lv_img_decoder.c ****         }
 766              		.loc 1 428 20 is_stmt 0 view .LVU268
 767 017c 0020     		movs	r0, #0
 768 017e 55E0     		b	.L32
 769              	.L68:
 770              	.LBB27:
 433:Drivers/lvgl/src/draw/lv_img_decoder.c ****             lv_color32_t cur_color;
ARM GAS  /var/folders/lp/x54gwt890xv47sdkqj1k04q40000gn/T//ccgxl04X.s 			page 31


 771              		.loc 1 433 13 is_stmt 1 view .LVU269
 772 0180 0022     		movs	r2, #0
 773 0182 0421     		movs	r1, #4
 774 0184 4046     		mov	r0, r8
 775 0186 FFF7FEFF 		bl	lv_fs_seek
 776              	.LVL82:
 434:Drivers/lvgl/src/draw/lv_img_decoder.c ****             uint32_t i;
 777              		.loc 1 434 13 view .LVU270
 435:Drivers/lvgl/src/draw/lv_img_decoder.c ****             for(i = 0; i < palette_size; i++) {
 778              		.loc 1 435 13 view .LVU271
 436:Drivers/lvgl/src/draw/lv_img_decoder.c ****                 lv_fs_read(&user_data->f, &cur_color, sizeof(lv_color32_t), NULL);
 779              		.loc 1 436 13 view .LVU272
 436:Drivers/lvgl/src/draw/lv_img_decoder.c ****                 lv_fs_read(&user_data->f, &cur_color, sizeof(lv_color32_t), NULL);
 780              		.loc 1 436 19 is_stmt 0 view .LVU273
 781 018a 0024     		movs	r4, #0
 782              	.LVL83:
 436:Drivers/lvgl/src/draw/lv_img_decoder.c ****                 lv_fs_read(&user_data->f, &cur_color, sizeof(lv_color32_t), NULL);
 783              		.loc 1 436 13 view .LVU274
 784 018c 23E0     		b	.L50
 785              	.LVL84:
 786              	.L51:
 437:Drivers/lvgl/src/draw/lv_img_decoder.c ****                 user_data->palette[i] = lv_color_make(cur_color.ch.red, cur_color.ch.green, cur_col
 787              		.loc 1 437 17 is_stmt 1 view .LVU275
 788 018e 0023     		movs	r3, #0
 789 0190 0422     		movs	r2, #4
 790 0192 0DEB0201 		add	r1, sp, r2
 791 0196 4046     		mov	r0, r8
 792 0198 FFF7FEFF 		bl	lv_fs_read
 793              	.LVL85:
 438:Drivers/lvgl/src/draw/lv_img_decoder.c ****                 user_data->opa[i]     = cur_color.ch.alpha;
 794              		.loc 1 438 17 view .LVU276
 438:Drivers/lvgl/src/draw/lv_img_decoder.c ****                 user_data->opa[i]     = cur_color.ch.alpha;
 795              		.loc 1 438 41 is_stmt 0 view .LVU277
 796 019c 9DF80600 		ldrb	r0, [sp, #6]	@ zero_extendqisi2
 797 01a0 9DF80530 		ldrb	r3, [sp, #5]	@ zero_extendqisi2
 798 01a4 9DF80420 		ldrb	r2, [sp, #4]	@ zero_extendqisi2
 438:Drivers/lvgl/src/draw/lv_img_decoder.c ****                 user_data->opa[i]     = cur_color.ch.alpha;
 799              		.loc 1 438 26 view .LVU278
 800 01a8 D8F80C10 		ldr	r1, [r8, #12]
 801              	.LVL86:
 802              	.LBB28:
 803              	.LBI28:
 804              		.file 3 "Drivers/lvgl/src/draw/../misc/lv_color.h"
   1:Drivers/lvgl/src/draw/../misc/lv_color.h **** /**
   2:Drivers/lvgl/src/draw/../misc/lv_color.h ****  * @file lv_color.h
   3:Drivers/lvgl/src/draw/../misc/lv_color.h ****  *
   4:Drivers/lvgl/src/draw/../misc/lv_color.h ****  */
   5:Drivers/lvgl/src/draw/../misc/lv_color.h **** 
   6:Drivers/lvgl/src/draw/../misc/lv_color.h **** #ifndef LV_COLOR_H
   7:Drivers/lvgl/src/draw/../misc/lv_color.h **** #define LV_COLOR_H
   8:Drivers/lvgl/src/draw/../misc/lv_color.h **** 
   9:Drivers/lvgl/src/draw/../misc/lv_color.h **** #ifdef __cplusplus
  10:Drivers/lvgl/src/draw/../misc/lv_color.h **** extern "C" {
  11:Drivers/lvgl/src/draw/../misc/lv_color.h **** #endif
  12:Drivers/lvgl/src/draw/../misc/lv_color.h **** 
  13:Drivers/lvgl/src/draw/../misc/lv_color.h **** /*********************
  14:Drivers/lvgl/src/draw/../misc/lv_color.h ****  *      INCLUDES
ARM GAS  /var/folders/lp/x54gwt890xv47sdkqj1k04q40000gn/T//ccgxl04X.s 			page 32


  15:Drivers/lvgl/src/draw/../misc/lv_color.h ****  *********************/
  16:Drivers/lvgl/src/draw/../misc/lv_color.h **** #include "../lv_conf_internal.h"
  17:Drivers/lvgl/src/draw/../misc/lv_color.h **** #include "lv_assert.h"
  18:Drivers/lvgl/src/draw/../misc/lv_color.h **** #include "lv_math.h"
  19:Drivers/lvgl/src/draw/../misc/lv_color.h **** #include "lv_types.h"
  20:Drivers/lvgl/src/draw/../misc/lv_color.h **** 
  21:Drivers/lvgl/src/draw/../misc/lv_color.h **** /*Error checking*/
  22:Drivers/lvgl/src/draw/../misc/lv_color.h **** #if LV_COLOR_DEPTH == 24
  23:Drivers/lvgl/src/draw/../misc/lv_color.h **** #error "LV_COLOR_DEPTH 24 is deprecated. Use LV_COLOR_DEPTH 32 instead (lv_conf.h)"
  24:Drivers/lvgl/src/draw/../misc/lv_color.h **** #endif
  25:Drivers/lvgl/src/draw/../misc/lv_color.h **** 
  26:Drivers/lvgl/src/draw/../misc/lv_color.h **** #if LV_COLOR_DEPTH != 16 && LV_COLOR_16_SWAP != 0
  27:Drivers/lvgl/src/draw/../misc/lv_color.h **** #error "LV_COLOR_16_SWAP requires LV_COLOR_DEPTH == 16. Set it in lv_conf.h"
  28:Drivers/lvgl/src/draw/../misc/lv_color.h **** #endif
  29:Drivers/lvgl/src/draw/../misc/lv_color.h **** 
  30:Drivers/lvgl/src/draw/../misc/lv_color.h **** #include <stdint.h>
  31:Drivers/lvgl/src/draw/../misc/lv_color.h **** 
  32:Drivers/lvgl/src/draw/../misc/lv_color.h **** /*********************
  33:Drivers/lvgl/src/draw/../misc/lv_color.h ****  *      DEFINES
  34:Drivers/lvgl/src/draw/../misc/lv_color.h ****  *********************/
  35:Drivers/lvgl/src/draw/../misc/lv_color.h **** LV_EXPORT_CONST_INT(LV_COLOR_DEPTH);
  36:Drivers/lvgl/src/draw/../misc/lv_color.h **** LV_EXPORT_CONST_INT(LV_COLOR_16_SWAP);
  37:Drivers/lvgl/src/draw/../misc/lv_color.h **** 
  38:Drivers/lvgl/src/draw/../misc/lv_color.h **** /**
  39:Drivers/lvgl/src/draw/../misc/lv_color.h ****  * Opacity percentages.
  40:Drivers/lvgl/src/draw/../misc/lv_color.h ****  */
  41:Drivers/lvgl/src/draw/../misc/lv_color.h **** enum {
  42:Drivers/lvgl/src/draw/../misc/lv_color.h ****     LV_OPA_TRANSP = 0,
  43:Drivers/lvgl/src/draw/../misc/lv_color.h ****     LV_OPA_0      = 0,
  44:Drivers/lvgl/src/draw/../misc/lv_color.h ****     LV_OPA_10     = 25,
  45:Drivers/lvgl/src/draw/../misc/lv_color.h ****     LV_OPA_20     = 51,
  46:Drivers/lvgl/src/draw/../misc/lv_color.h ****     LV_OPA_30     = 76,
  47:Drivers/lvgl/src/draw/../misc/lv_color.h ****     LV_OPA_40     = 102,
  48:Drivers/lvgl/src/draw/../misc/lv_color.h ****     LV_OPA_50     = 127,
  49:Drivers/lvgl/src/draw/../misc/lv_color.h ****     LV_OPA_60     = 153,
  50:Drivers/lvgl/src/draw/../misc/lv_color.h ****     LV_OPA_70     = 178,
  51:Drivers/lvgl/src/draw/../misc/lv_color.h ****     LV_OPA_80     = 204,
  52:Drivers/lvgl/src/draw/../misc/lv_color.h ****     LV_OPA_90     = 229,
  53:Drivers/lvgl/src/draw/../misc/lv_color.h ****     LV_OPA_100    = 255,
  54:Drivers/lvgl/src/draw/../misc/lv_color.h ****     LV_OPA_COVER  = 255,
  55:Drivers/lvgl/src/draw/../misc/lv_color.h **** };
  56:Drivers/lvgl/src/draw/../misc/lv_color.h **** 
  57:Drivers/lvgl/src/draw/../misc/lv_color.h **** #define LV_OPA_MIN 2    /*Opacities below this will be transparent*/
  58:Drivers/lvgl/src/draw/../misc/lv_color.h **** #define LV_OPA_MAX 253  /*Opacities above this will fully cover*/
  59:Drivers/lvgl/src/draw/../misc/lv_color.h **** 
  60:Drivers/lvgl/src/draw/../misc/lv_color.h **** #if LV_COLOR_DEPTH == 1
  61:Drivers/lvgl/src/draw/../misc/lv_color.h **** #define LV_COLOR_SIZE 8
  62:Drivers/lvgl/src/draw/../misc/lv_color.h **** #elif LV_COLOR_DEPTH == 8
  63:Drivers/lvgl/src/draw/../misc/lv_color.h **** #define LV_COLOR_SIZE 8
  64:Drivers/lvgl/src/draw/../misc/lv_color.h **** #elif LV_COLOR_DEPTH == 16
  65:Drivers/lvgl/src/draw/../misc/lv_color.h **** #define LV_COLOR_SIZE 16
  66:Drivers/lvgl/src/draw/../misc/lv_color.h **** #elif LV_COLOR_DEPTH == 32
  67:Drivers/lvgl/src/draw/../misc/lv_color.h **** #define LV_COLOR_SIZE 32
  68:Drivers/lvgl/src/draw/../misc/lv_color.h **** #else
  69:Drivers/lvgl/src/draw/../misc/lv_color.h **** #error "Invalid LV_COLOR_DEPTH in lv_conf.h! Set it to 1, 8, 16 or 32!"
  70:Drivers/lvgl/src/draw/../misc/lv_color.h **** #endif
  71:Drivers/lvgl/src/draw/../misc/lv_color.h **** 
ARM GAS  /var/folders/lp/x54gwt890xv47sdkqj1k04q40000gn/T//ccgxl04X.s 			page 33


  72:Drivers/lvgl/src/draw/../misc/lv_color.h **** #if defined(__cplusplus) && !defined(_LV_COLOR_HAS_MODERN_CPP)
  73:Drivers/lvgl/src/draw/../misc/lv_color.h **** /**
  74:Drivers/lvgl/src/draw/../misc/lv_color.h **** * MSVC compiler's definition of the __cplusplus indicating 199711L regardless to C++ standard versi
  75:Drivers/lvgl/src/draw/../misc/lv_color.h **** * see https://devblogs.microsoft.com/cppblog/msvc-now-correctly-reports-cplusplus
  76:Drivers/lvgl/src/draw/../misc/lv_color.h **** * so we use _MSC_VER macro instead of __cplusplus
  77:Drivers/lvgl/src/draw/../misc/lv_color.h **** */
  78:Drivers/lvgl/src/draw/../misc/lv_color.h **** #ifdef _MSC_VER
  79:Drivers/lvgl/src/draw/../misc/lv_color.h **** #if _MSC_VER >= 1900 /*Visual Studio 2015*/
  80:Drivers/lvgl/src/draw/../misc/lv_color.h **** #define _LV_COLOR_HAS_MODERN_CPP 1
  81:Drivers/lvgl/src/draw/../misc/lv_color.h **** #endif
  82:Drivers/lvgl/src/draw/../misc/lv_color.h **** #else
  83:Drivers/lvgl/src/draw/../misc/lv_color.h **** #if __cplusplus >= 201103L
  84:Drivers/lvgl/src/draw/../misc/lv_color.h **** #define _LV_COLOR_HAS_MODERN_CPP 1
  85:Drivers/lvgl/src/draw/../misc/lv_color.h **** #endif
  86:Drivers/lvgl/src/draw/../misc/lv_color.h **** #endif
  87:Drivers/lvgl/src/draw/../misc/lv_color.h **** #endif /*__cplusplus*/
  88:Drivers/lvgl/src/draw/../misc/lv_color.h **** 
  89:Drivers/lvgl/src/draw/../misc/lv_color.h **** #ifndef _LV_COLOR_HAS_MODERN_CPP
  90:Drivers/lvgl/src/draw/../misc/lv_color.h **** #define _LV_COLOR_HAS_MODERN_CPP 0
  91:Drivers/lvgl/src/draw/../misc/lv_color.h **** #endif
  92:Drivers/lvgl/src/draw/../misc/lv_color.h **** 
  93:Drivers/lvgl/src/draw/../misc/lv_color.h **** #if _LV_COLOR_HAS_MODERN_CPP
  94:Drivers/lvgl/src/draw/../misc/lv_color.h **** /*Fix msvc compiler error C4576 inside C++ code*/
  95:Drivers/lvgl/src/draw/../misc/lv_color.h **** #define _LV_COLOR_MAKE_TYPE_HELPER lv_color_t
  96:Drivers/lvgl/src/draw/../misc/lv_color.h **** #else
  97:Drivers/lvgl/src/draw/../misc/lv_color.h **** #define _LV_COLOR_MAKE_TYPE_HELPER (lv_color_t)
  98:Drivers/lvgl/src/draw/../misc/lv_color.h **** #endif
  99:Drivers/lvgl/src/draw/../misc/lv_color.h **** 
 100:Drivers/lvgl/src/draw/../misc/lv_color.h **** /*---------------------------------------
 101:Drivers/lvgl/src/draw/../misc/lv_color.h ****  * Macros for all existing color depths
 102:Drivers/lvgl/src/draw/../misc/lv_color.h ****  * to set/get values of the color channels
 103:Drivers/lvgl/src/draw/../misc/lv_color.h ****  *------------------------------------------*/
 104:Drivers/lvgl/src/draw/../misc/lv_color.h **** # define LV_COLOR_SET_R1(c, v) (c).ch.red = (uint8_t)((v) & 0x1)
 105:Drivers/lvgl/src/draw/../misc/lv_color.h **** # define LV_COLOR_SET_G1(c, v) (c).ch.green = (uint8_t)((v) & 0x1)
 106:Drivers/lvgl/src/draw/../misc/lv_color.h **** # define LV_COLOR_SET_B1(c, v) (c).ch.blue = (uint8_t)((v) & 0x1)
 107:Drivers/lvgl/src/draw/../misc/lv_color.h **** # define LV_COLOR_SET_A1(c, v) do {} while(0)
 108:Drivers/lvgl/src/draw/../misc/lv_color.h **** 
 109:Drivers/lvgl/src/draw/../misc/lv_color.h **** # define LV_COLOR_GET_R1(c) (c).ch.red
 110:Drivers/lvgl/src/draw/../misc/lv_color.h **** # define LV_COLOR_GET_G1(c) (c).ch.green
 111:Drivers/lvgl/src/draw/../misc/lv_color.h **** # define LV_COLOR_GET_B1(c) (c).ch.blue
 112:Drivers/lvgl/src/draw/../misc/lv_color.h **** # define LV_COLOR_GET_A1(c) 0xFF
 113:Drivers/lvgl/src/draw/../misc/lv_color.h **** 
 114:Drivers/lvgl/src/draw/../misc/lv_color.h **** # define _LV_COLOR_ZERO_INITIALIZER1 {0x00}
 115:Drivers/lvgl/src/draw/../misc/lv_color.h **** # define LV_COLOR_MAKE1(r8, g8, b8)  {(uint8_t)((b8 >> 7) | (g8 >> 7) | (r8 >> 7))}
 116:Drivers/lvgl/src/draw/../misc/lv_color.h **** 
 117:Drivers/lvgl/src/draw/../misc/lv_color.h **** # define LV_COLOR_SET_R8(c, v) (c).ch.red = (uint8_t)((v) & 0x7U)
 118:Drivers/lvgl/src/draw/../misc/lv_color.h **** # define LV_COLOR_SET_G8(c, v) (c).ch.green = (uint8_t)((v) & 0x7U)
 119:Drivers/lvgl/src/draw/../misc/lv_color.h **** # define LV_COLOR_SET_B8(c, v) (c).ch.blue = (uint8_t)((v) & 0x3U)
 120:Drivers/lvgl/src/draw/../misc/lv_color.h **** # define LV_COLOR_SET_A8(c, v) do {} while(0)
 121:Drivers/lvgl/src/draw/../misc/lv_color.h **** 
 122:Drivers/lvgl/src/draw/../misc/lv_color.h **** # define LV_COLOR_GET_R8(c) (c).ch.red
 123:Drivers/lvgl/src/draw/../misc/lv_color.h **** # define LV_COLOR_GET_G8(c) (c).ch.green
 124:Drivers/lvgl/src/draw/../misc/lv_color.h **** # define LV_COLOR_GET_B8(c) (c).ch.blue
 125:Drivers/lvgl/src/draw/../misc/lv_color.h **** # define LV_COLOR_GET_A8(c) 0xFF
 126:Drivers/lvgl/src/draw/../misc/lv_color.h **** 
 127:Drivers/lvgl/src/draw/../misc/lv_color.h **** # define _LV_COLOR_ZERO_INITIALIZER8 {{0x00, 0x00, 0x00}}
 128:Drivers/lvgl/src/draw/../misc/lv_color.h **** # define LV_COLOR_MAKE8(r8, g8, b8) {{(uint8_t)((b8 >> 6) & 0x3U), (uint8_t)((g8 >> 5) & 0x7U), (ui
ARM GAS  /var/folders/lp/x54gwt890xv47sdkqj1k04q40000gn/T//ccgxl04X.s 			page 34


 129:Drivers/lvgl/src/draw/../misc/lv_color.h **** 
 130:Drivers/lvgl/src/draw/../misc/lv_color.h **** # define LV_COLOR_SET_R16(c, v) (c).ch.red = (uint8_t)((v) & 0x1FU)
 131:Drivers/lvgl/src/draw/../misc/lv_color.h **** #if LV_COLOR_16_SWAP == 0
 132:Drivers/lvgl/src/draw/../misc/lv_color.h **** # define LV_COLOR_SET_G16(c, v) (c).ch.green = (uint8_t)((v) & 0x3FU)
 133:Drivers/lvgl/src/draw/../misc/lv_color.h **** #else
 134:Drivers/lvgl/src/draw/../misc/lv_color.h **** # define LV_COLOR_SET_G16(c, v) {(c).ch.green_h = (uint8_t)(((v) >> 3) & 0x7); (c).ch.green_l = (ui
 135:Drivers/lvgl/src/draw/../misc/lv_color.h **** #endif
 136:Drivers/lvgl/src/draw/../misc/lv_color.h **** # define LV_COLOR_SET_B16(c, v) (c).ch.blue = (uint8_t)((v) & 0x1FU)
 137:Drivers/lvgl/src/draw/../misc/lv_color.h **** # define LV_COLOR_SET_A16(c, v) do {} while(0)
 138:Drivers/lvgl/src/draw/../misc/lv_color.h **** 
 139:Drivers/lvgl/src/draw/../misc/lv_color.h **** # define LV_COLOR_GET_R16(c) (c).ch.red
 140:Drivers/lvgl/src/draw/../misc/lv_color.h **** #if LV_COLOR_16_SWAP == 0
 141:Drivers/lvgl/src/draw/../misc/lv_color.h **** # define LV_COLOR_GET_G16(c) (c).ch.green
 142:Drivers/lvgl/src/draw/../misc/lv_color.h **** #else
 143:Drivers/lvgl/src/draw/../misc/lv_color.h **** # define LV_COLOR_GET_G16(c) (((c).ch.green_h << 3) + (c).ch.green_l)
 144:Drivers/lvgl/src/draw/../misc/lv_color.h **** #endif
 145:Drivers/lvgl/src/draw/../misc/lv_color.h **** # define LV_COLOR_GET_B16(c) (c).ch.blue
 146:Drivers/lvgl/src/draw/../misc/lv_color.h **** # define LV_COLOR_GET_A16(c) 0xFF
 147:Drivers/lvgl/src/draw/../misc/lv_color.h **** 
 148:Drivers/lvgl/src/draw/../misc/lv_color.h **** #if LV_COLOR_16_SWAP == 0
 149:Drivers/lvgl/src/draw/../misc/lv_color.h **** # define _LV_COLOR_ZERO_INITIALIZER16  {{0x00, 0x00, 0x00}}
 150:Drivers/lvgl/src/draw/../misc/lv_color.h **** # define LV_COLOR_MAKE16(r8, g8, b8) {{(uint8_t)((b8 >> 3) & 0x1FU), (uint8_t)((g8 >> 2) & 0x3FU), 
 151:Drivers/lvgl/src/draw/../misc/lv_color.h **** #else
 152:Drivers/lvgl/src/draw/../misc/lv_color.h **** # define _LV_COLOR_ZERO_INITIALIZER16 {{0x00, 0x00, 0x00, 0x00}}
 153:Drivers/lvgl/src/draw/../misc/lv_color.h **** # define LV_COLOR_MAKE16(r8, g8, b8) {{(uint8_t)((g8 >> 5) & 0x7U), (uint8_t)((r8 >> 3) & 0x1FU), (
 154:Drivers/lvgl/src/draw/../misc/lv_color.h **** #endif
 155:Drivers/lvgl/src/draw/../misc/lv_color.h **** 
 156:Drivers/lvgl/src/draw/../misc/lv_color.h **** # define LV_COLOR_SET_R32(c, v) (c).ch.red = (uint8_t)((v) & 0xFF)
 157:Drivers/lvgl/src/draw/../misc/lv_color.h **** # define LV_COLOR_SET_G32(c, v) (c).ch.green = (uint8_t)((v) & 0xFF)
 158:Drivers/lvgl/src/draw/../misc/lv_color.h **** # define LV_COLOR_SET_B32(c, v) (c).ch.blue = (uint8_t)((v) & 0xFF)
 159:Drivers/lvgl/src/draw/../misc/lv_color.h **** # define LV_COLOR_SET_A32(c, v) (c).ch.alpha = (uint8_t)((v) & 0xFF)
 160:Drivers/lvgl/src/draw/../misc/lv_color.h **** 
 161:Drivers/lvgl/src/draw/../misc/lv_color.h **** # define LV_COLOR_GET_R32(c) (c).ch.red
 162:Drivers/lvgl/src/draw/../misc/lv_color.h **** # define LV_COLOR_GET_G32(c) (c).ch.green
 163:Drivers/lvgl/src/draw/../misc/lv_color.h **** # define LV_COLOR_GET_B32(c) (c).ch.blue
 164:Drivers/lvgl/src/draw/../misc/lv_color.h **** # define LV_COLOR_GET_A32(c) (c).ch.alpha
 165:Drivers/lvgl/src/draw/../misc/lv_color.h **** 
 166:Drivers/lvgl/src/draw/../misc/lv_color.h **** # define _LV_COLOR_ZERO_INITIALIZER32  {{0x00, 0x00, 0x00, 0x00}}
 167:Drivers/lvgl/src/draw/../misc/lv_color.h **** # define LV_COLOR_MAKE32(r8, g8, b8) {{b8, g8, r8, 0xff}} /*Fix 0xff alpha*/
 168:Drivers/lvgl/src/draw/../misc/lv_color.h **** 
 169:Drivers/lvgl/src/draw/../misc/lv_color.h **** /*---------------------------------------
 170:Drivers/lvgl/src/draw/../misc/lv_color.h ****  * Macros for the current color depth
 171:Drivers/lvgl/src/draw/../misc/lv_color.h ****  * to set/get values of the color channels
 172:Drivers/lvgl/src/draw/../misc/lv_color.h ****  *------------------------------------------*/
 173:Drivers/lvgl/src/draw/../misc/lv_color.h **** #define LV_COLOR_SET_R(c, v) LV_CONCAT(LV_COLOR_SET_R, LV_COLOR_DEPTH)(c, v)
 174:Drivers/lvgl/src/draw/../misc/lv_color.h **** #define LV_COLOR_SET_G(c, v) LV_CONCAT(LV_COLOR_SET_G, LV_COLOR_DEPTH)(c, v)
 175:Drivers/lvgl/src/draw/../misc/lv_color.h **** #define LV_COLOR_SET_B(c, v) LV_CONCAT(LV_COLOR_SET_B, LV_COLOR_DEPTH)(c, v)
 176:Drivers/lvgl/src/draw/../misc/lv_color.h **** #define LV_COLOR_SET_A(c, v) LV_CONCAT(LV_COLOR_SET_A, LV_COLOR_DEPTH)(c, v)
 177:Drivers/lvgl/src/draw/../misc/lv_color.h **** 
 178:Drivers/lvgl/src/draw/../misc/lv_color.h **** #define LV_COLOR_GET_R(c) LV_CONCAT(LV_COLOR_GET_R, LV_COLOR_DEPTH)(c)
 179:Drivers/lvgl/src/draw/../misc/lv_color.h **** #define LV_COLOR_GET_G(c) LV_CONCAT(LV_COLOR_GET_G, LV_COLOR_DEPTH)(c)
 180:Drivers/lvgl/src/draw/../misc/lv_color.h **** #define LV_COLOR_GET_B(c) LV_CONCAT(LV_COLOR_GET_B, LV_COLOR_DEPTH)(c)
 181:Drivers/lvgl/src/draw/../misc/lv_color.h **** #define LV_COLOR_GET_A(c) LV_CONCAT(LV_COLOR_GET_A, LV_COLOR_DEPTH)(c)
 182:Drivers/lvgl/src/draw/../misc/lv_color.h **** 
 183:Drivers/lvgl/src/draw/../misc/lv_color.h **** #define _LV_COLOR_ZERO_INITIALIZER LV_CONCAT(_LV_COLOR_ZERO_INITIALIZER, LV_COLOR_DEPTH)
 184:Drivers/lvgl/src/draw/../misc/lv_color.h **** #define LV_COLOR_MAKE(r8, g8, b8) LV_CONCAT(LV_COLOR_MAKE, LV_COLOR_DEPTH)(r8, g8, b8)
 185:Drivers/lvgl/src/draw/../misc/lv_color.h **** 
ARM GAS  /var/folders/lp/x54gwt890xv47sdkqj1k04q40000gn/T//ccgxl04X.s 			page 35


 186:Drivers/lvgl/src/draw/../misc/lv_color.h **** /**********************
 187:Drivers/lvgl/src/draw/../misc/lv_color.h ****  *      TYPEDEFS
 188:Drivers/lvgl/src/draw/../misc/lv_color.h ****  **********************/
 189:Drivers/lvgl/src/draw/../misc/lv_color.h **** 
 190:Drivers/lvgl/src/draw/../misc/lv_color.h **** typedef union {
 191:Drivers/lvgl/src/draw/../misc/lv_color.h ****     uint8_t full; /*must be declared first to set all bits of byte via initializer list*/
 192:Drivers/lvgl/src/draw/../misc/lv_color.h ****     union {
 193:Drivers/lvgl/src/draw/../misc/lv_color.h ****         uint8_t blue : 1;
 194:Drivers/lvgl/src/draw/../misc/lv_color.h ****         uint8_t green : 1;
 195:Drivers/lvgl/src/draw/../misc/lv_color.h ****         uint8_t red : 1;
 196:Drivers/lvgl/src/draw/../misc/lv_color.h ****     } ch;
 197:Drivers/lvgl/src/draw/../misc/lv_color.h **** } lv_color1_t;
 198:Drivers/lvgl/src/draw/../misc/lv_color.h **** 
 199:Drivers/lvgl/src/draw/../misc/lv_color.h **** typedef union {
 200:Drivers/lvgl/src/draw/../misc/lv_color.h ****     struct {
 201:Drivers/lvgl/src/draw/../misc/lv_color.h ****         uint8_t blue : 2;
 202:Drivers/lvgl/src/draw/../misc/lv_color.h ****         uint8_t green : 3;
 203:Drivers/lvgl/src/draw/../misc/lv_color.h ****         uint8_t red : 3;
 204:Drivers/lvgl/src/draw/../misc/lv_color.h ****     } ch;
 205:Drivers/lvgl/src/draw/../misc/lv_color.h ****     uint8_t full;
 206:Drivers/lvgl/src/draw/../misc/lv_color.h **** } lv_color8_t;
 207:Drivers/lvgl/src/draw/../misc/lv_color.h **** 
 208:Drivers/lvgl/src/draw/../misc/lv_color.h **** typedef union {
 209:Drivers/lvgl/src/draw/../misc/lv_color.h ****     struct {
 210:Drivers/lvgl/src/draw/../misc/lv_color.h **** #if LV_COLOR_16_SWAP == 0
 211:Drivers/lvgl/src/draw/../misc/lv_color.h ****         uint16_t blue : 5;
 212:Drivers/lvgl/src/draw/../misc/lv_color.h ****         uint16_t green : 6;
 213:Drivers/lvgl/src/draw/../misc/lv_color.h ****         uint16_t red : 5;
 214:Drivers/lvgl/src/draw/../misc/lv_color.h **** #else
 215:Drivers/lvgl/src/draw/../misc/lv_color.h ****         uint16_t green_h : 3;
 216:Drivers/lvgl/src/draw/../misc/lv_color.h ****         uint16_t red : 5;
 217:Drivers/lvgl/src/draw/../misc/lv_color.h ****         uint16_t blue : 5;
 218:Drivers/lvgl/src/draw/../misc/lv_color.h ****         uint16_t green_l : 3;
 219:Drivers/lvgl/src/draw/../misc/lv_color.h **** #endif
 220:Drivers/lvgl/src/draw/../misc/lv_color.h ****     } ch;
 221:Drivers/lvgl/src/draw/../misc/lv_color.h ****     uint16_t full;
 222:Drivers/lvgl/src/draw/../misc/lv_color.h **** } lv_color16_t;
 223:Drivers/lvgl/src/draw/../misc/lv_color.h **** 
 224:Drivers/lvgl/src/draw/../misc/lv_color.h **** typedef union {
 225:Drivers/lvgl/src/draw/../misc/lv_color.h ****     struct {
 226:Drivers/lvgl/src/draw/../misc/lv_color.h ****         uint8_t blue;
 227:Drivers/lvgl/src/draw/../misc/lv_color.h ****         uint8_t green;
 228:Drivers/lvgl/src/draw/../misc/lv_color.h ****         uint8_t red;
 229:Drivers/lvgl/src/draw/../misc/lv_color.h ****         uint8_t alpha;
 230:Drivers/lvgl/src/draw/../misc/lv_color.h ****     } ch;
 231:Drivers/lvgl/src/draw/../misc/lv_color.h ****     uint32_t full;
 232:Drivers/lvgl/src/draw/../misc/lv_color.h **** } lv_color32_t;
 233:Drivers/lvgl/src/draw/../misc/lv_color.h **** 
 234:Drivers/lvgl/src/draw/../misc/lv_color.h **** typedef LV_CONCAT3(uint, LV_COLOR_SIZE, _t) lv_color_int_t;
 235:Drivers/lvgl/src/draw/../misc/lv_color.h **** typedef LV_CONCAT3(lv_color, LV_COLOR_DEPTH, _t) lv_color_t;
 236:Drivers/lvgl/src/draw/../misc/lv_color.h **** 
 237:Drivers/lvgl/src/draw/../misc/lv_color.h **** typedef struct {
 238:Drivers/lvgl/src/draw/../misc/lv_color.h ****     uint16_t h;
 239:Drivers/lvgl/src/draw/../misc/lv_color.h ****     uint8_t s;
 240:Drivers/lvgl/src/draw/../misc/lv_color.h ****     uint8_t v;
 241:Drivers/lvgl/src/draw/../misc/lv_color.h **** } lv_color_hsv_t;
 242:Drivers/lvgl/src/draw/../misc/lv_color.h **** 
ARM GAS  /var/folders/lp/x54gwt890xv47sdkqj1k04q40000gn/T//ccgxl04X.s 			page 36


 243:Drivers/lvgl/src/draw/../misc/lv_color.h **** //! @cond Doxygen_Suppress
 244:Drivers/lvgl/src/draw/../misc/lv_color.h **** /*No idea where the guard is required but else throws warnings in the docs*/
 245:Drivers/lvgl/src/draw/../misc/lv_color.h **** typedef uint8_t lv_opa_t;
 246:Drivers/lvgl/src/draw/../misc/lv_color.h **** //! @endcond
 247:Drivers/lvgl/src/draw/../misc/lv_color.h **** 
 248:Drivers/lvgl/src/draw/../misc/lv_color.h **** struct _lv_color_filter_dsc_t;
 249:Drivers/lvgl/src/draw/../misc/lv_color.h **** 
 250:Drivers/lvgl/src/draw/../misc/lv_color.h **** typedef lv_color_t (*lv_color_filter_cb_t)(const struct _lv_color_filter_dsc_t *, lv_color_t, lv_op
 251:Drivers/lvgl/src/draw/../misc/lv_color.h **** 
 252:Drivers/lvgl/src/draw/../misc/lv_color.h **** typedef struct _lv_color_filter_dsc_t {
 253:Drivers/lvgl/src/draw/../misc/lv_color.h ****     lv_color_filter_cb_t filter_cb;
 254:Drivers/lvgl/src/draw/../misc/lv_color.h ****     void * user_data;
 255:Drivers/lvgl/src/draw/../misc/lv_color.h **** } lv_color_filter_dsc_t;
 256:Drivers/lvgl/src/draw/../misc/lv_color.h **** 
 257:Drivers/lvgl/src/draw/../misc/lv_color.h **** 
 258:Drivers/lvgl/src/draw/../misc/lv_color.h **** typedef enum {
 259:Drivers/lvgl/src/draw/../misc/lv_color.h ****     LV_PALETTE_RED,
 260:Drivers/lvgl/src/draw/../misc/lv_color.h ****     LV_PALETTE_PINK,
 261:Drivers/lvgl/src/draw/../misc/lv_color.h ****     LV_PALETTE_PURPLE,
 262:Drivers/lvgl/src/draw/../misc/lv_color.h ****     LV_PALETTE_DEEP_PURPLE,
 263:Drivers/lvgl/src/draw/../misc/lv_color.h ****     LV_PALETTE_INDIGO,
 264:Drivers/lvgl/src/draw/../misc/lv_color.h ****     LV_PALETTE_BLUE,
 265:Drivers/lvgl/src/draw/../misc/lv_color.h ****     LV_PALETTE_LIGHT_BLUE,
 266:Drivers/lvgl/src/draw/../misc/lv_color.h ****     LV_PALETTE_CYAN,
 267:Drivers/lvgl/src/draw/../misc/lv_color.h ****     LV_PALETTE_TEAL,
 268:Drivers/lvgl/src/draw/../misc/lv_color.h ****     LV_PALETTE_GREEN,
 269:Drivers/lvgl/src/draw/../misc/lv_color.h ****     LV_PALETTE_LIGHT_GREEN,
 270:Drivers/lvgl/src/draw/../misc/lv_color.h ****     LV_PALETTE_LIME,
 271:Drivers/lvgl/src/draw/../misc/lv_color.h ****     LV_PALETTE_YELLOW,
 272:Drivers/lvgl/src/draw/../misc/lv_color.h ****     LV_PALETTE_AMBER,
 273:Drivers/lvgl/src/draw/../misc/lv_color.h ****     LV_PALETTE_ORANGE,
 274:Drivers/lvgl/src/draw/../misc/lv_color.h ****     LV_PALETTE_DEEP_ORANGE,
 275:Drivers/lvgl/src/draw/../misc/lv_color.h ****     LV_PALETTE_BROWN,
 276:Drivers/lvgl/src/draw/../misc/lv_color.h ****     LV_PALETTE_BLUE_GREY,
 277:Drivers/lvgl/src/draw/../misc/lv_color.h ****     LV_PALETTE_GREY,
 278:Drivers/lvgl/src/draw/../misc/lv_color.h ****     _LV_PALETTE_LAST,
 279:Drivers/lvgl/src/draw/../misc/lv_color.h ****     LV_PALETTE_NONE = 0xff,
 280:Drivers/lvgl/src/draw/../misc/lv_color.h **** } lv_palette_t;
 281:Drivers/lvgl/src/draw/../misc/lv_color.h **** 
 282:Drivers/lvgl/src/draw/../misc/lv_color.h **** /**********************
 283:Drivers/lvgl/src/draw/../misc/lv_color.h ****  * GLOBAL PROTOTYPES
 284:Drivers/lvgl/src/draw/../misc/lv_color.h ****  **********************/
 285:Drivers/lvgl/src/draw/../misc/lv_color.h **** 
 286:Drivers/lvgl/src/draw/../misc/lv_color.h **** /*In color conversations:
 287:Drivers/lvgl/src/draw/../misc/lv_color.h ****  * - When converting to bigger color type the LSB weight of 1 LSB is calculated
 288:Drivers/lvgl/src/draw/../misc/lv_color.h ****  *   E.g. 16 bit Red has 5 bits
 289:Drivers/lvgl/src/draw/../misc/lv_color.h ****  *         8 bit Red has 3 bits
 290:Drivers/lvgl/src/draw/../misc/lv_color.h ****  *        ----------------------
 291:Drivers/lvgl/src/draw/../misc/lv_color.h ****  *        8 bit red LSB = (2^5 - 1) / (2^3 - 1) = 31 / 7 = 4
 292:Drivers/lvgl/src/draw/../misc/lv_color.h ****  *
 293:Drivers/lvgl/src/draw/../misc/lv_color.h ****  * - When calculating to smaller color type simply shift out the LSBs
 294:Drivers/lvgl/src/draw/../misc/lv_color.h ****  *   E.g.  8 bit Red has 3 bits
 295:Drivers/lvgl/src/draw/../misc/lv_color.h ****  *        16 bit Red has 5 bits
 296:Drivers/lvgl/src/draw/../misc/lv_color.h ****  *        ----------------------
 297:Drivers/lvgl/src/draw/../misc/lv_color.h ****  *         Shift right with 5 - 3 = 2
 298:Drivers/lvgl/src/draw/../misc/lv_color.h ****  */
 299:Drivers/lvgl/src/draw/../misc/lv_color.h **** static inline uint8_t lv_color_to1(lv_color_t color)
ARM GAS  /var/folders/lp/x54gwt890xv47sdkqj1k04q40000gn/T//ccgxl04X.s 			page 37


 300:Drivers/lvgl/src/draw/../misc/lv_color.h **** {
 301:Drivers/lvgl/src/draw/../misc/lv_color.h **** #if LV_COLOR_DEPTH == 1
 302:Drivers/lvgl/src/draw/../misc/lv_color.h ****     return color.full;
 303:Drivers/lvgl/src/draw/../misc/lv_color.h **** #elif LV_COLOR_DEPTH == 8
 304:Drivers/lvgl/src/draw/../misc/lv_color.h ****     if((LV_COLOR_GET_R(color) & 0x4) || (LV_COLOR_GET_G(color) & 0x4) || (LV_COLOR_GET_B(color) & 0
 305:Drivers/lvgl/src/draw/../misc/lv_color.h ****         return 1;
 306:Drivers/lvgl/src/draw/../misc/lv_color.h ****     }
 307:Drivers/lvgl/src/draw/../misc/lv_color.h ****     else {
 308:Drivers/lvgl/src/draw/../misc/lv_color.h ****         return 0;
 309:Drivers/lvgl/src/draw/../misc/lv_color.h ****     }
 310:Drivers/lvgl/src/draw/../misc/lv_color.h **** #elif LV_COLOR_DEPTH == 16
 311:Drivers/lvgl/src/draw/../misc/lv_color.h ****     if((LV_COLOR_GET_R(color) & 0x10) || (LV_COLOR_GET_G(color) & 0x20) || (LV_COLOR_GET_B(color) &
 312:Drivers/lvgl/src/draw/../misc/lv_color.h ****         return 1;
 313:Drivers/lvgl/src/draw/../misc/lv_color.h ****     }
 314:Drivers/lvgl/src/draw/../misc/lv_color.h ****     else {
 315:Drivers/lvgl/src/draw/../misc/lv_color.h ****         return 0;
 316:Drivers/lvgl/src/draw/../misc/lv_color.h ****     }
 317:Drivers/lvgl/src/draw/../misc/lv_color.h **** #elif LV_COLOR_DEPTH == 32
 318:Drivers/lvgl/src/draw/../misc/lv_color.h ****     if((LV_COLOR_GET_R(color) & 0x80) || (LV_COLOR_GET_G(color) & 0x80) || (LV_COLOR_GET_B(color) &
 319:Drivers/lvgl/src/draw/../misc/lv_color.h ****         return 1;
 320:Drivers/lvgl/src/draw/../misc/lv_color.h ****     }
 321:Drivers/lvgl/src/draw/../misc/lv_color.h ****     else {
 322:Drivers/lvgl/src/draw/../misc/lv_color.h ****         return 0;
 323:Drivers/lvgl/src/draw/../misc/lv_color.h ****     }
 324:Drivers/lvgl/src/draw/../misc/lv_color.h **** #endif
 325:Drivers/lvgl/src/draw/../misc/lv_color.h **** }
 326:Drivers/lvgl/src/draw/../misc/lv_color.h **** 
 327:Drivers/lvgl/src/draw/../misc/lv_color.h **** static inline uint8_t lv_color_to8(lv_color_t color)
 328:Drivers/lvgl/src/draw/../misc/lv_color.h **** {
 329:Drivers/lvgl/src/draw/../misc/lv_color.h **** #if LV_COLOR_DEPTH == 1
 330:Drivers/lvgl/src/draw/../misc/lv_color.h ****     if(color.full == 0)
 331:Drivers/lvgl/src/draw/../misc/lv_color.h ****         return 0;
 332:Drivers/lvgl/src/draw/../misc/lv_color.h ****     else
 333:Drivers/lvgl/src/draw/../misc/lv_color.h ****         return 0xFF;
 334:Drivers/lvgl/src/draw/../misc/lv_color.h **** #elif LV_COLOR_DEPTH == 8
 335:Drivers/lvgl/src/draw/../misc/lv_color.h ****     return color.full;
 336:Drivers/lvgl/src/draw/../misc/lv_color.h **** #elif LV_COLOR_DEPTH == 16
 337:Drivers/lvgl/src/draw/../misc/lv_color.h ****     lv_color8_t ret;
 338:Drivers/lvgl/src/draw/../misc/lv_color.h ****     LV_COLOR_SET_R8(ret, LV_COLOR_GET_R(color) >> 2); /*5 - 3  = 2*/
 339:Drivers/lvgl/src/draw/../misc/lv_color.h ****     LV_COLOR_SET_G8(ret, LV_COLOR_GET_G(color) >> 3); /*6 - 3  = 3*/
 340:Drivers/lvgl/src/draw/../misc/lv_color.h ****     LV_COLOR_SET_B8(ret, LV_COLOR_GET_B(color) >> 3); /*5 - 2  = 3*/
 341:Drivers/lvgl/src/draw/../misc/lv_color.h ****     return ret.full;
 342:Drivers/lvgl/src/draw/../misc/lv_color.h **** #elif LV_COLOR_DEPTH == 32
 343:Drivers/lvgl/src/draw/../misc/lv_color.h ****     lv_color8_t ret;
 344:Drivers/lvgl/src/draw/../misc/lv_color.h ****     LV_COLOR_SET_R8(ret, LV_COLOR_GET_R(color) >> 5); /*8 - 3  = 5*/
 345:Drivers/lvgl/src/draw/../misc/lv_color.h ****     LV_COLOR_SET_G8(ret, LV_COLOR_GET_G(color) >> 5); /*8 - 3  = 5*/
 346:Drivers/lvgl/src/draw/../misc/lv_color.h ****     LV_COLOR_SET_B8(ret, LV_COLOR_GET_B(color) >> 6); /*8 - 2  = 6*/
 347:Drivers/lvgl/src/draw/../misc/lv_color.h ****     return ret.full;
 348:Drivers/lvgl/src/draw/../misc/lv_color.h **** #endif
 349:Drivers/lvgl/src/draw/../misc/lv_color.h **** }
 350:Drivers/lvgl/src/draw/../misc/lv_color.h **** 
 351:Drivers/lvgl/src/draw/../misc/lv_color.h **** static inline uint16_t lv_color_to16(lv_color_t color)
 352:Drivers/lvgl/src/draw/../misc/lv_color.h **** {
 353:Drivers/lvgl/src/draw/../misc/lv_color.h **** #if LV_COLOR_DEPTH == 1
 354:Drivers/lvgl/src/draw/../misc/lv_color.h ****     if(color.full == 0)
 355:Drivers/lvgl/src/draw/../misc/lv_color.h ****         return 0;
 356:Drivers/lvgl/src/draw/../misc/lv_color.h ****     else
ARM GAS  /var/folders/lp/x54gwt890xv47sdkqj1k04q40000gn/T//ccgxl04X.s 			page 38


 357:Drivers/lvgl/src/draw/../misc/lv_color.h ****         return 0xFFFF;
 358:Drivers/lvgl/src/draw/../misc/lv_color.h **** #elif LV_COLOR_DEPTH == 8
 359:Drivers/lvgl/src/draw/../misc/lv_color.h ****     lv_color16_t ret;
 360:Drivers/lvgl/src/draw/../misc/lv_color.h ****     LV_COLOR_SET_R16(ret, LV_COLOR_GET_R(color) * 4);  /*(2^5 - 1)/(2^3 - 1) = 31/7 = 4*/
 361:Drivers/lvgl/src/draw/../misc/lv_color.h ****     LV_COLOR_SET_G16(ret, LV_COLOR_GET_G(color) * 9);  /*(2^6 - 1)/(2^3 - 1) = 63/7 = 9*/
 362:Drivers/lvgl/src/draw/../misc/lv_color.h ****     LV_COLOR_SET_B16(ret, LV_COLOR_GET_B(color) * 10); /*(2^5 - 1)/(2^2 - 1) = 31/3 = 10*/
 363:Drivers/lvgl/src/draw/../misc/lv_color.h ****     return ret.full;
 364:Drivers/lvgl/src/draw/../misc/lv_color.h **** #elif LV_COLOR_DEPTH == 16
 365:Drivers/lvgl/src/draw/../misc/lv_color.h ****     return color.full;
 366:Drivers/lvgl/src/draw/../misc/lv_color.h **** #elif LV_COLOR_DEPTH == 32
 367:Drivers/lvgl/src/draw/../misc/lv_color.h ****     lv_color16_t ret;
 368:Drivers/lvgl/src/draw/../misc/lv_color.h ****     LV_COLOR_SET_R16(ret, LV_COLOR_GET_R(color) >> 3); /*8 - 5  = 3*/
 369:Drivers/lvgl/src/draw/../misc/lv_color.h ****     LV_COLOR_SET_G16(ret, LV_COLOR_GET_G(color) >> 2); /*8 - 6  = 2*/
 370:Drivers/lvgl/src/draw/../misc/lv_color.h ****     LV_COLOR_SET_B16(ret, LV_COLOR_GET_B(color) >> 3); /*8 - 5  = 3*/
 371:Drivers/lvgl/src/draw/../misc/lv_color.h ****     return ret.full;
 372:Drivers/lvgl/src/draw/../misc/lv_color.h **** #endif
 373:Drivers/lvgl/src/draw/../misc/lv_color.h **** }
 374:Drivers/lvgl/src/draw/../misc/lv_color.h **** 
 375:Drivers/lvgl/src/draw/../misc/lv_color.h **** static inline uint32_t lv_color_to32(lv_color_t color)
 376:Drivers/lvgl/src/draw/../misc/lv_color.h **** {
 377:Drivers/lvgl/src/draw/../misc/lv_color.h **** #if LV_COLOR_DEPTH == 1
 378:Drivers/lvgl/src/draw/../misc/lv_color.h ****     if(color.full == 0)
 379:Drivers/lvgl/src/draw/../misc/lv_color.h ****         return 0xFF000000;
 380:Drivers/lvgl/src/draw/../misc/lv_color.h ****     else
 381:Drivers/lvgl/src/draw/../misc/lv_color.h ****         return 0xFFFFFFFF;
 382:Drivers/lvgl/src/draw/../misc/lv_color.h **** #elif LV_COLOR_DEPTH == 8
 383:Drivers/lvgl/src/draw/../misc/lv_color.h ****     lv_color32_t ret;
 384:Drivers/lvgl/src/draw/../misc/lv_color.h ****     LV_COLOR_SET_R32(ret, LV_COLOR_GET_R(color) * 36); /*(2^8 - 1)/(2^3 - 1) = 255/7 = 36*/
 385:Drivers/lvgl/src/draw/../misc/lv_color.h ****     LV_COLOR_SET_G32(ret, LV_COLOR_GET_G(color) * 36); /*(2^8 - 1)/(2^3 - 1) = 255/7 = 36*/
 386:Drivers/lvgl/src/draw/../misc/lv_color.h ****     LV_COLOR_SET_B32(ret, LV_COLOR_GET_B(color) * 85); /*(2^8 - 1)/(2^2 - 1) = 255/3 = 85*/
 387:Drivers/lvgl/src/draw/../misc/lv_color.h ****     LV_COLOR_SET_A32(ret, 0xFF);
 388:Drivers/lvgl/src/draw/../misc/lv_color.h ****     return ret.full;
 389:Drivers/lvgl/src/draw/../misc/lv_color.h **** #elif LV_COLOR_DEPTH == 16
 390:Drivers/lvgl/src/draw/../misc/lv_color.h ****     /**
 391:Drivers/lvgl/src/draw/../misc/lv_color.h ****      * The floating point math for conversion is:
 392:Drivers/lvgl/src/draw/../misc/lv_color.h ****      *  valueto = valuefrom * ( (2^bitsto - 1) / (float)(2^bitsfrom - 1) )
 393:Drivers/lvgl/src/draw/../misc/lv_color.h ****      * The faster integer math for conversion is:
 394:Drivers/lvgl/src/draw/../misc/lv_color.h ****      *  valueto = ( valuefrom * multiplier + adder ) >> divisor
 395:Drivers/lvgl/src/draw/../misc/lv_color.h ****      *   multiplier = FLOOR( ( (2^bitsto - 1) << divisor ) / (float)(2^bitsfrom - 1) )
 396:Drivers/lvgl/src/draw/../misc/lv_color.h ****      *
 397:Drivers/lvgl/src/draw/../misc/lv_color.h ****      * Find the first divisor where ( adder >> divisor ) <= 0
 398:Drivers/lvgl/src/draw/../misc/lv_color.h ****      *
 399:Drivers/lvgl/src/draw/../misc/lv_color.h ****      * 5-bit to 8-bit: ( 31 * multiplier + adder ) >> divisor = 255
 400:Drivers/lvgl/src/draw/../misc/lv_color.h ****      * divisor  multiplier  adder  min (0)  max (31)
 401:Drivers/lvgl/src/draw/../misc/lv_color.h ****      *       0           8      7        7       255
 402:Drivers/lvgl/src/draw/../misc/lv_color.h ****      *       1          16     14        7       255
 403:Drivers/lvgl/src/draw/../misc/lv_color.h ****      *       2          32     28        7       255
 404:Drivers/lvgl/src/draw/../misc/lv_color.h ****      *       3          65     25        3       255
 405:Drivers/lvgl/src/draw/../misc/lv_color.h ****      *       4         131     19        1       255
 406:Drivers/lvgl/src/draw/../misc/lv_color.h ****      *       5         263      7        0       255
 407:Drivers/lvgl/src/draw/../misc/lv_color.h ****      *
 408:Drivers/lvgl/src/draw/../misc/lv_color.h ****      * 6-bit to 8-bit: 255 = ( 63 * multiplier + adder ) >> divisor
 409:Drivers/lvgl/src/draw/../misc/lv_color.h ****      * divisor  multiplier  adder  min (0)  max (63)
 410:Drivers/lvgl/src/draw/../misc/lv_color.h ****      *       0           4      3        3       255
 411:Drivers/lvgl/src/draw/../misc/lv_color.h ****      *       1           8      6        3       255
 412:Drivers/lvgl/src/draw/../misc/lv_color.h ****      *       2          16     12        3       255
 413:Drivers/lvgl/src/draw/../misc/lv_color.h ****      *       3          32     24        3       255
ARM GAS  /var/folders/lp/x54gwt890xv47sdkqj1k04q40000gn/T//ccgxl04X.s 			page 39


 414:Drivers/lvgl/src/draw/../misc/lv_color.h ****      *       4          64     48        3       255
 415:Drivers/lvgl/src/draw/../misc/lv_color.h ****      *       5         129     33        1       255
 416:Drivers/lvgl/src/draw/../misc/lv_color.h ****      *       6         259      3        0       255
 417:Drivers/lvgl/src/draw/../misc/lv_color.h ****      */
 418:Drivers/lvgl/src/draw/../misc/lv_color.h **** 
 419:Drivers/lvgl/src/draw/../misc/lv_color.h ****     lv_color32_t ret;
 420:Drivers/lvgl/src/draw/../misc/lv_color.h ****     LV_COLOR_SET_R32(ret, (LV_COLOR_GET_R(color) * 263 + 7) >> 5);
 421:Drivers/lvgl/src/draw/../misc/lv_color.h ****     LV_COLOR_SET_G32(ret, (LV_COLOR_GET_G(color) * 259 + 3) >> 6);
 422:Drivers/lvgl/src/draw/../misc/lv_color.h ****     LV_COLOR_SET_B32(ret, (LV_COLOR_GET_B(color) * 263 + 7) >> 5);
 423:Drivers/lvgl/src/draw/../misc/lv_color.h ****     LV_COLOR_SET_A32(ret, 0xFF);
 424:Drivers/lvgl/src/draw/../misc/lv_color.h ****     return ret.full;
 425:Drivers/lvgl/src/draw/../misc/lv_color.h **** #elif LV_COLOR_DEPTH == 32
 426:Drivers/lvgl/src/draw/../misc/lv_color.h ****     return color.full;
 427:Drivers/lvgl/src/draw/../misc/lv_color.h **** #endif
 428:Drivers/lvgl/src/draw/../misc/lv_color.h **** }
 429:Drivers/lvgl/src/draw/../misc/lv_color.h **** 
 430:Drivers/lvgl/src/draw/../misc/lv_color.h **** //! @cond Doxygen_Suppress
 431:Drivers/lvgl/src/draw/../misc/lv_color.h **** 
 432:Drivers/lvgl/src/draw/../misc/lv_color.h **** /**
 433:Drivers/lvgl/src/draw/../misc/lv_color.h ****  * Mix two colors with a given ratio.
 434:Drivers/lvgl/src/draw/../misc/lv_color.h ****  * @param c1 the first color to mix (usually the foreground)
 435:Drivers/lvgl/src/draw/../misc/lv_color.h ****  * @param c2 the second color to mix (usually the background)
 436:Drivers/lvgl/src/draw/../misc/lv_color.h ****  * @param mix The ratio of the colors. 0: full `c2`, 255: full `c1`, 127: half `c1` and half`c2`
 437:Drivers/lvgl/src/draw/../misc/lv_color.h ****  * @return the mixed color
 438:Drivers/lvgl/src/draw/../misc/lv_color.h ****  */
 439:Drivers/lvgl/src/draw/../misc/lv_color.h **** static inline lv_color_t LV_ATTRIBUTE_FAST_MEM lv_color_mix(lv_color_t c1, lv_color_t c2, uint8_t m
 440:Drivers/lvgl/src/draw/../misc/lv_color.h **** {
 441:Drivers/lvgl/src/draw/../misc/lv_color.h ****     lv_color_t ret;
 442:Drivers/lvgl/src/draw/../misc/lv_color.h **** 
 443:Drivers/lvgl/src/draw/../misc/lv_color.h **** #if LV_COLOR_DEPTH == 16 && LV_COLOR_MIX_ROUND_OFS == 0
 444:Drivers/lvgl/src/draw/../misc/lv_color.h **** #if LV_COLOR_16_SWAP == 1
 445:Drivers/lvgl/src/draw/../misc/lv_color.h ****     c1.full = c1.full << 8 | c1.full >> 8;
 446:Drivers/lvgl/src/draw/../misc/lv_color.h ****     c2.full = c2.full << 8 | c2.full >> 8;
 447:Drivers/lvgl/src/draw/../misc/lv_color.h **** #endif
 448:Drivers/lvgl/src/draw/../misc/lv_color.h ****     /*Source: https://stackoverflow.com/a/50012418/1999969*/
 449:Drivers/lvgl/src/draw/../misc/lv_color.h ****     mix = (uint32_t)((uint32_t)mix + 4) >> 3;
 450:Drivers/lvgl/src/draw/../misc/lv_color.h ****     uint32_t bg = (uint32_t)((uint32_t)c2.full | ((uint32_t)c2.full << 16)) &
 451:Drivers/lvgl/src/draw/../misc/lv_color.h ****                   0x7E0F81F; /*0b00000111111000001111100000011111*/
 452:Drivers/lvgl/src/draw/../misc/lv_color.h ****     uint32_t fg = (uint32_t)((uint32_t)c1.full | ((uint32_t)c1.full << 16)) & 0x7E0F81F;
 453:Drivers/lvgl/src/draw/../misc/lv_color.h ****     uint32_t result = ((((fg - bg) * mix) >> 5) + bg) & 0x7E0F81F;
 454:Drivers/lvgl/src/draw/../misc/lv_color.h ****     ret.full = (uint16_t)((result >> 16) | result);
 455:Drivers/lvgl/src/draw/../misc/lv_color.h **** #if LV_COLOR_16_SWAP == 1
 456:Drivers/lvgl/src/draw/../misc/lv_color.h ****     ret.full = ret.full << 8 | ret.full >> 8;
 457:Drivers/lvgl/src/draw/../misc/lv_color.h **** #endif
 458:Drivers/lvgl/src/draw/../misc/lv_color.h **** #elif LV_COLOR_DEPTH != 1
 459:Drivers/lvgl/src/draw/../misc/lv_color.h ****     /*LV_COLOR_DEPTH == 8, 16 or 32*/
 460:Drivers/lvgl/src/draw/../misc/lv_color.h ****     LV_COLOR_SET_R(ret, LV_UDIV255((uint16_t)LV_COLOR_GET_R(c1) * mix + LV_COLOR_GET_R(c2) *
 461:Drivers/lvgl/src/draw/../misc/lv_color.h ****                                    (255 - mix) + LV_COLOR_MIX_ROUND_OFS));
 462:Drivers/lvgl/src/draw/../misc/lv_color.h ****     LV_COLOR_SET_G(ret, LV_UDIV255((uint16_t)LV_COLOR_GET_G(c1) * mix + LV_COLOR_GET_G(c2) *
 463:Drivers/lvgl/src/draw/../misc/lv_color.h ****                                    (255 - mix) + LV_COLOR_MIX_ROUND_OFS));
 464:Drivers/lvgl/src/draw/../misc/lv_color.h ****     LV_COLOR_SET_B(ret, LV_UDIV255((uint16_t)LV_COLOR_GET_B(c1) * mix + LV_COLOR_GET_B(c2) *
 465:Drivers/lvgl/src/draw/../misc/lv_color.h ****                                    (255 - mix) + LV_COLOR_MIX_ROUND_OFS));
 466:Drivers/lvgl/src/draw/../misc/lv_color.h ****     LV_COLOR_SET_A(ret, 0xFF);
 467:Drivers/lvgl/src/draw/../misc/lv_color.h **** #else
 468:Drivers/lvgl/src/draw/../misc/lv_color.h ****     /*LV_COLOR_DEPTH == 1*/
 469:Drivers/lvgl/src/draw/../misc/lv_color.h ****     ret.full = mix > LV_OPA_50 ? c1.full : c2.full;
 470:Drivers/lvgl/src/draw/../misc/lv_color.h **** #endif
ARM GAS  /var/folders/lp/x54gwt890xv47sdkqj1k04q40000gn/T//ccgxl04X.s 			page 40


 471:Drivers/lvgl/src/draw/../misc/lv_color.h **** 
 472:Drivers/lvgl/src/draw/../misc/lv_color.h ****     return ret;
 473:Drivers/lvgl/src/draw/../misc/lv_color.h **** }
 474:Drivers/lvgl/src/draw/../misc/lv_color.h **** 
 475:Drivers/lvgl/src/draw/../misc/lv_color.h **** static inline void LV_ATTRIBUTE_FAST_MEM lv_color_premult(lv_color_t c, uint8_t mix, uint16_t * out
 476:Drivers/lvgl/src/draw/../misc/lv_color.h **** {
 477:Drivers/lvgl/src/draw/../misc/lv_color.h **** #if LV_COLOR_DEPTH != 1
 478:Drivers/lvgl/src/draw/../misc/lv_color.h ****     out[0] = (uint16_t)LV_COLOR_GET_R(c) * mix;
 479:Drivers/lvgl/src/draw/../misc/lv_color.h ****     out[1] = (uint16_t)LV_COLOR_GET_G(c) * mix;
 480:Drivers/lvgl/src/draw/../misc/lv_color.h ****     out[2] = (uint16_t)LV_COLOR_GET_B(c) * mix;
 481:Drivers/lvgl/src/draw/../misc/lv_color.h **** #else
 482:Drivers/lvgl/src/draw/../misc/lv_color.h ****     (void) mix;
 483:Drivers/lvgl/src/draw/../misc/lv_color.h ****     /*Pre-multiplication can't be used with 1 bpp*/
 484:Drivers/lvgl/src/draw/../misc/lv_color.h ****     out[0] = LV_COLOR_GET_R(c);
 485:Drivers/lvgl/src/draw/../misc/lv_color.h ****     out[1] = LV_COLOR_GET_G(c);
 486:Drivers/lvgl/src/draw/../misc/lv_color.h ****     out[2] = LV_COLOR_GET_B(c);
 487:Drivers/lvgl/src/draw/../misc/lv_color.h **** #endif
 488:Drivers/lvgl/src/draw/../misc/lv_color.h **** 
 489:Drivers/lvgl/src/draw/../misc/lv_color.h **** }
 490:Drivers/lvgl/src/draw/../misc/lv_color.h **** 
 491:Drivers/lvgl/src/draw/../misc/lv_color.h **** /**
 492:Drivers/lvgl/src/draw/../misc/lv_color.h ****  * Mix two colors with a given ratio. It runs faster then `lv_color_mix` but requires some pre comp
 493:Drivers/lvgl/src/draw/../misc/lv_color.h ****  * @param premult_c1 The first color. Should be preprocessed with `lv_color_premult(c1)`
 494:Drivers/lvgl/src/draw/../misc/lv_color.h ****  * @param c2 The second color. As it is no pre computation required on it
 495:Drivers/lvgl/src/draw/../misc/lv_color.h ****  * @param mix The ratio of the colors. 0: full `c1`, 255: full `c2`, 127: half `c1` and half `c2`.
 496:Drivers/lvgl/src/draw/../misc/lv_color.h ****  *            Should be modified like mix = `255 - mix`
 497:Drivers/lvgl/src/draw/../misc/lv_color.h ****  * @return the mixed color
 498:Drivers/lvgl/src/draw/../misc/lv_color.h ****  * @note 255 won't give clearly `c1`.
 499:Drivers/lvgl/src/draw/../misc/lv_color.h ****  */
 500:Drivers/lvgl/src/draw/../misc/lv_color.h **** static inline lv_color_t LV_ATTRIBUTE_FAST_MEM lv_color_mix_premult(uint16_t * premult_c1, lv_color
 501:Drivers/lvgl/src/draw/../misc/lv_color.h **** {
 502:Drivers/lvgl/src/draw/../misc/lv_color.h ****     lv_color_t ret;
 503:Drivers/lvgl/src/draw/../misc/lv_color.h **** #if LV_COLOR_DEPTH != 1
 504:Drivers/lvgl/src/draw/../misc/lv_color.h ****     /*LV_COLOR_DEPTH == 8 or 32*/
 505:Drivers/lvgl/src/draw/../misc/lv_color.h ****     LV_COLOR_SET_R(ret, LV_UDIV255(premult_c1[0] + LV_COLOR_GET_R(c2) * mix + LV_COLOR_MIX_ROUND_OF
 506:Drivers/lvgl/src/draw/../misc/lv_color.h ****     LV_COLOR_SET_G(ret, LV_UDIV255(premult_c1[1] + LV_COLOR_GET_G(c2) * mix + LV_COLOR_MIX_ROUND_OF
 507:Drivers/lvgl/src/draw/../misc/lv_color.h ****     LV_COLOR_SET_B(ret, LV_UDIV255(premult_c1[2] + LV_COLOR_GET_B(c2) * mix + LV_COLOR_MIX_ROUND_OF
 508:Drivers/lvgl/src/draw/../misc/lv_color.h ****     LV_COLOR_SET_A(ret, 0xFF);
 509:Drivers/lvgl/src/draw/../misc/lv_color.h **** #else
 510:Drivers/lvgl/src/draw/../misc/lv_color.h ****     /*LV_COLOR_DEPTH == 1*/
 511:Drivers/lvgl/src/draw/../misc/lv_color.h ****     /*Restore color1*/
 512:Drivers/lvgl/src/draw/../misc/lv_color.h ****     lv_color_t c1;
 513:Drivers/lvgl/src/draw/../misc/lv_color.h ****     LV_COLOR_SET_R(c1, premult_c1[0]);
 514:Drivers/lvgl/src/draw/../misc/lv_color.h ****     LV_COLOR_SET_G(c1, premult_c1[1]);
 515:Drivers/lvgl/src/draw/../misc/lv_color.h ****     LV_COLOR_SET_B(c1, premult_c1[2]);
 516:Drivers/lvgl/src/draw/../misc/lv_color.h ****     ret.full = mix > LV_OPA_50 ? c2.full : c1.full;
 517:Drivers/lvgl/src/draw/../misc/lv_color.h **** #endif
 518:Drivers/lvgl/src/draw/../misc/lv_color.h **** 
 519:Drivers/lvgl/src/draw/../misc/lv_color.h ****     return ret;
 520:Drivers/lvgl/src/draw/../misc/lv_color.h **** }
 521:Drivers/lvgl/src/draw/../misc/lv_color.h **** 
 522:Drivers/lvgl/src/draw/../misc/lv_color.h **** /**
 523:Drivers/lvgl/src/draw/../misc/lv_color.h ****  * Mix two colors. Both color can have alpha value.
 524:Drivers/lvgl/src/draw/../misc/lv_color.h ****  * @param bg_color background color
 525:Drivers/lvgl/src/draw/../misc/lv_color.h ****  * @param bg_opa alpha of the background color
 526:Drivers/lvgl/src/draw/../misc/lv_color.h ****  * @param fg_color foreground color
 527:Drivers/lvgl/src/draw/../misc/lv_color.h ****  * @param fg_opa alpha of the foreground color
ARM GAS  /var/folders/lp/x54gwt890xv47sdkqj1k04q40000gn/T//ccgxl04X.s 			page 41


 528:Drivers/lvgl/src/draw/../misc/lv_color.h ****  * @param res_color the result color
 529:Drivers/lvgl/src/draw/../misc/lv_color.h ****  * @param res_opa the result opacity
 530:Drivers/lvgl/src/draw/../misc/lv_color.h ****  */
 531:Drivers/lvgl/src/draw/../misc/lv_color.h **** static inline void LV_ATTRIBUTE_FAST_MEM lv_color_mix_with_alpha(lv_color_t bg_color, lv_opa_t bg_o
 532:Drivers/lvgl/src/draw/../misc/lv_color.h ****                                                                  lv_color_t fg_color, lv_opa_t fg_o
 533:Drivers/lvgl/src/draw/../misc/lv_color.h ****                                                                  lv_color_t * res_color, lv_opa_t *
 534:Drivers/lvgl/src/draw/../misc/lv_color.h **** {
 535:Drivers/lvgl/src/draw/../misc/lv_color.h ****     /*Pick the foreground if it's fully opaque or the Background is fully transparent*/
 536:Drivers/lvgl/src/draw/../misc/lv_color.h ****     if(fg_opa >= LV_OPA_MAX || bg_opa <= LV_OPA_MIN) {
 537:Drivers/lvgl/src/draw/../misc/lv_color.h ****         res_color->full = fg_color.full;
 538:Drivers/lvgl/src/draw/../misc/lv_color.h ****         *res_opa = fg_opa;
 539:Drivers/lvgl/src/draw/../misc/lv_color.h ****     }
 540:Drivers/lvgl/src/draw/../misc/lv_color.h ****     /*Transparent foreground: use the Background*/
 541:Drivers/lvgl/src/draw/../misc/lv_color.h ****     else if(fg_opa <= LV_OPA_MIN) {
 542:Drivers/lvgl/src/draw/../misc/lv_color.h ****         res_color->full = bg_color.full;
 543:Drivers/lvgl/src/draw/../misc/lv_color.h ****         *res_opa = bg_opa;
 544:Drivers/lvgl/src/draw/../misc/lv_color.h ****     }
 545:Drivers/lvgl/src/draw/../misc/lv_color.h ****     /*Opaque background: use simple mix*/
 546:Drivers/lvgl/src/draw/../misc/lv_color.h ****     else if(bg_opa >= LV_OPA_MAX) {
 547:Drivers/lvgl/src/draw/../misc/lv_color.h ****         *res_color = lv_color_mix(fg_color, bg_color, fg_opa);
 548:Drivers/lvgl/src/draw/../misc/lv_color.h ****         *res_opa = LV_OPA_COVER;
 549:Drivers/lvgl/src/draw/../misc/lv_color.h ****     }
 550:Drivers/lvgl/src/draw/../misc/lv_color.h ****     /*Both colors have alpha. Expensive calculation need to be applied*/
 551:Drivers/lvgl/src/draw/../misc/lv_color.h ****     else {
 552:Drivers/lvgl/src/draw/../misc/lv_color.h ****         /*Save the parameters and the result. If they will be asked again don't compute again*/
 553:Drivers/lvgl/src/draw/../misc/lv_color.h ****         static lv_opa_t fg_opa_save     = 0;
 554:Drivers/lvgl/src/draw/../misc/lv_color.h ****         static lv_opa_t bg_opa_save     = 0;
 555:Drivers/lvgl/src/draw/../misc/lv_color.h ****         static lv_color_t fg_color_save = _LV_COLOR_ZERO_INITIALIZER;
 556:Drivers/lvgl/src/draw/../misc/lv_color.h ****         static lv_color_t bg_color_save = _LV_COLOR_ZERO_INITIALIZER;
 557:Drivers/lvgl/src/draw/../misc/lv_color.h ****         static lv_color_t res_color_saved = _LV_COLOR_ZERO_INITIALIZER;
 558:Drivers/lvgl/src/draw/../misc/lv_color.h ****         static lv_opa_t res_opa_saved = 0;
 559:Drivers/lvgl/src/draw/../misc/lv_color.h **** 
 560:Drivers/lvgl/src/draw/../misc/lv_color.h ****         if(fg_opa != fg_opa_save || bg_opa != bg_opa_save || fg_color.full != fg_color_save.full ||
 561:Drivers/lvgl/src/draw/../misc/lv_color.h ****            bg_color.full != bg_color_save.full) {
 562:Drivers/lvgl/src/draw/../misc/lv_color.h ****             fg_opa_save        = fg_opa;
 563:Drivers/lvgl/src/draw/../misc/lv_color.h ****             bg_opa_save        = bg_opa;
 564:Drivers/lvgl/src/draw/../misc/lv_color.h ****             fg_color_save.full = fg_color.full;
 565:Drivers/lvgl/src/draw/../misc/lv_color.h ****             bg_color_save.full = bg_color.full;
 566:Drivers/lvgl/src/draw/../misc/lv_color.h ****             /*Info:
 567:Drivers/lvgl/src/draw/../misc/lv_color.h ****              * https://en.wikipedia.org/wiki/Alpha_compositing#Analytical_derivation_of_the_over_op
 568:Drivers/lvgl/src/draw/../misc/lv_color.h ****             res_opa_saved = 255 - ((uint16_t)((uint16_t)(255 - fg_opa) * (255 - bg_opa)) >> 8);
 569:Drivers/lvgl/src/draw/../misc/lv_color.h ****             LV_ASSERT(res_opa_saved != 0);
 570:Drivers/lvgl/src/draw/../misc/lv_color.h ****             lv_opa_t ratio = (uint16_t)((uint16_t)fg_opa * 255) / res_opa_saved;
 571:Drivers/lvgl/src/draw/../misc/lv_color.h ****             res_color_saved = lv_color_mix(fg_color, bg_color, ratio);
 572:Drivers/lvgl/src/draw/../misc/lv_color.h **** 
 573:Drivers/lvgl/src/draw/../misc/lv_color.h ****         }
 574:Drivers/lvgl/src/draw/../misc/lv_color.h **** 
 575:Drivers/lvgl/src/draw/../misc/lv_color.h ****         res_color->full = res_color_saved.full;
 576:Drivers/lvgl/src/draw/../misc/lv_color.h ****         *res_opa = res_opa_saved;
 577:Drivers/lvgl/src/draw/../misc/lv_color.h ****     }
 578:Drivers/lvgl/src/draw/../misc/lv_color.h **** }
 579:Drivers/lvgl/src/draw/../misc/lv_color.h **** 
 580:Drivers/lvgl/src/draw/../misc/lv_color.h **** //! @endcond
 581:Drivers/lvgl/src/draw/../misc/lv_color.h **** 
 582:Drivers/lvgl/src/draw/../misc/lv_color.h **** /**
 583:Drivers/lvgl/src/draw/../misc/lv_color.h ****  * Get the brightness of a color
 584:Drivers/lvgl/src/draw/../misc/lv_color.h ****  * @param color a color
ARM GAS  /var/folders/lp/x54gwt890xv47sdkqj1k04q40000gn/T//ccgxl04X.s 			page 42


 585:Drivers/lvgl/src/draw/../misc/lv_color.h ****  * @return the brightness [0..255]
 586:Drivers/lvgl/src/draw/../misc/lv_color.h ****  */
 587:Drivers/lvgl/src/draw/../misc/lv_color.h **** static inline uint8_t lv_color_brightness(lv_color_t color)
 588:Drivers/lvgl/src/draw/../misc/lv_color.h **** {
 589:Drivers/lvgl/src/draw/../misc/lv_color.h ****     lv_color32_t c32;
 590:Drivers/lvgl/src/draw/../misc/lv_color.h ****     c32.full        = lv_color_to32(color);
 591:Drivers/lvgl/src/draw/../misc/lv_color.h ****     uint16_t bright = (uint16_t)(3u * LV_COLOR_GET_R32(c32) + LV_COLOR_GET_B32(c32) + 4u * LV_COLOR
 592:Drivers/lvgl/src/draw/../misc/lv_color.h ****     return (uint8_t)(bright >> 3);
 593:Drivers/lvgl/src/draw/../misc/lv_color.h **** }
 594:Drivers/lvgl/src/draw/../misc/lv_color.h **** 
 595:Drivers/lvgl/src/draw/../misc/lv_color.h **** static inline lv_color_t lv_color_make(uint8_t r, uint8_t g, uint8_t b)
 805              		.loc 3 595 26 is_stmt 1 view .LVU279
 806              	.LBB29:
 596:Drivers/lvgl/src/draw/../misc/lv_color.h **** {
 597:Drivers/lvgl/src/draw/../misc/lv_color.h ****     return _LV_COLOR_MAKE_TYPE_HELPER LV_COLOR_MAKE(r, g, b);
 807              		.loc 3 597 5 view .LVU280
 808              		.loc 3 597 39 is_stmt 0 view .LVU281
 809 01ac 5D09     		lsrs	r5, r3, #5
 810 01ae C008     		lsrs	r0, r0, #3
 811 01b0 D208     		lsrs	r2, r2, #3
 812 01b2 C3F38203 		ubfx	r3, r3, #2, #3
 813              	.LVL87:
 814              		.loc 3 597 12 view .LVU282
 815 01b6 65F30207 		bfi	r7, r5, #0, #3
 816 01ba 60F3C707 		bfi	r7, r0, #3, #5
 817 01be 62F30C27 		bfi	r7, r2, #8, #5
 818 01c2 63F34F37 		bfi	r7, r3, #13, #3
 819              	.LVL88:
 820              		.loc 3 597 12 view .LVU283
 821              	.LBE29:
 822              	.LBE28:
 438:Drivers/lvgl/src/draw/lv_img_decoder.c ****                 user_data->opa[i]     = cur_color.ch.alpha;
 823              		.loc 1 438 41 view .LVU284
 824 01c6 21F81470 		strh	r7, [r1, r4, lsl #1]	@ movhi
 439:Drivers/lvgl/src/draw/lv_img_decoder.c ****             }
 825              		.loc 1 439 17 is_stmt 1 view .LVU285
 439:Drivers/lvgl/src/draw/lv_img_decoder.c ****             }
 826              		.loc 1 439 26 is_stmt 0 view .LVU286
 827 01ca D8F81030 		ldr	r3, [r8, #16]
 439:Drivers/lvgl/src/draw/lv_img_decoder.c ****             }
 828              		.loc 1 439 53 view .LVU287
 829 01ce 9DF80720 		ldrb	r2, [sp, #7]	@ zero_extendqisi2
 439:Drivers/lvgl/src/draw/lv_img_decoder.c ****             }
 830              		.loc 1 439 39 view .LVU288
 831 01d2 1A55     		strb	r2, [r3, r4]
 436:Drivers/lvgl/src/draw/lv_img_decoder.c ****                 lv_fs_read(&user_data->f, &cur_color, sizeof(lv_color32_t), NULL);
 832              		.loc 1 436 43 is_stmt 1 discriminator 3 view .LVU289
 833 01d4 0134     		adds	r4, r4, #1
 834              	.LVL89:
 835              	.L50:
 436:Drivers/lvgl/src/draw/lv_img_decoder.c ****                 lv_fs_read(&user_data->f, &cur_color, sizeof(lv_color32_t), NULL);
 836              		.loc 1 436 26 discriminator 1 view .LVU290
 837 01d6 4C45     		cmp	r4, r9
 838 01d8 D9D3     		bcc	.L51
 839 01da 1EE0     		b	.L52
 840              	.LVL90:
 841              	.L54:
ARM GAS  /var/folders/lp/x54gwt890xv47sdkqj1k04q40000gn/T//ccgxl04X.s 			page 43


 436:Drivers/lvgl/src/draw/lv_img_decoder.c ****                 lv_fs_read(&user_data->f, &cur_color, sizeof(lv_color32_t), NULL);
 842              		.loc 1 436 26 is_stmt 0 discriminator 1 view .LVU291
 843              	.LBE27:
 844              	.LBB30:
 448:Drivers/lvgl/src/draw/lv_img_decoder.c ****                 user_data->opa[i]     = palette_p[i].ch.alpha;
 845              		.loc 1 448 17 is_stmt 1 view .LVU292
 448:Drivers/lvgl/src/draw/lv_img_decoder.c ****                 user_data->opa[i]     = palette_p[i].ch.alpha;
 846              		.loc 1 448 64 is_stmt 0 view .LVU293
 847 01dc 07EB8301 		add	r1, r7, r3, lsl #2
 448:Drivers/lvgl/src/draw/lv_img_decoder.c ****                 user_data->opa[i]     = palette_p[i].ch.alpha;
 848              		.loc 1 448 41 view .LVU294
 849 01e0 8D78     		ldrb	r5, [r1, #2]	@ zero_extendqisi2
 850 01e2 4A78     		ldrb	r2, [r1, #1]	@ zero_extendqisi2
 851 01e4 17F82340 		ldrb	r4, [r7, r3, lsl #2]	@ zero_extendqisi2
 448:Drivers/lvgl/src/draw/lv_img_decoder.c ****                 user_data->opa[i]     = palette_p[i].ch.alpha;
 852              		.loc 1 448 26 view .LVU295
 853 01e8 D8F80C00 		ldr	r0, [r8, #12]
 854              	.LVL91:
 855              	.LBB25:
 856              	.LBI25:
 595:Drivers/lvgl/src/draw/../misc/lv_color.h **** {
 857              		.loc 3 595 26 is_stmt 1 view .LVU296
 858              	.LBB26:
 859              		.loc 3 597 5 view .LVU297
 860              		.loc 3 597 39 is_stmt 0 view .LVU298
 861 01ec 4FEA521C 		lsr	ip, r2, #5
 862 01f0 ED08     		lsrs	r5, r5, #3
 863 01f2 E408     		lsrs	r4, r4, #3
 864 01f4 C2F38202 		ubfx	r2, r2, #2, #3
 865              	.LVL92:
 866              		.loc 3 597 12 view .LVU299
 867 01f8 6CF30206 		bfi	r6, ip, #0, #3
 868 01fc 65F3C706 		bfi	r6, r5, #3, #5
 869 0200 64F30C26 		bfi	r6, r4, #8, #5
 870 0204 62F34F36 		bfi	r6, r2, #13, #3
 871              	.LVL93:
 872              		.loc 3 597 12 view .LVU300
 873              	.LBE26:
 874              	.LBE25:
 448:Drivers/lvgl/src/draw/lv_img_decoder.c ****                 user_data->opa[i]     = palette_p[i].ch.alpha;
 875              		.loc 1 448 41 view .LVU301
 876 0208 20F81360 		strh	r6, [r0, r3, lsl #1]	@ movhi
 449:Drivers/lvgl/src/draw/lv_img_decoder.c ****             }
 877              		.loc 1 449 17 is_stmt 1 view .LVU302
 449:Drivers/lvgl/src/draw/lv_img_decoder.c ****             }
 878              		.loc 1 449 26 is_stmt 0 view .LVU303
 879 020c D8F81020 		ldr	r2, [r8, #16]
 449:Drivers/lvgl/src/draw/lv_img_decoder.c ****             }
 880              		.loc 1 449 56 view .LVU304
 881 0210 C978     		ldrb	r1, [r1, #3]	@ zero_extendqisi2
 449:Drivers/lvgl/src/draw/lv_img_decoder.c ****             }
 882              		.loc 1 449 39 view .LVU305
 883 0212 D154     		strb	r1, [r2, r3]
 447:Drivers/lvgl/src/draw/lv_img_decoder.c ****                 user_data->palette[i] = lv_color_make(palette_p[i].ch.red, palette_p[i].ch.green, p
 884              		.loc 1 447 43 is_stmt 1 discriminator 3 view .LVU306
 885 0214 0133     		adds	r3, r3, #1
 886              	.LVL94:
ARM GAS  /var/folders/lp/x54gwt890xv47sdkqj1k04q40000gn/T//ccgxl04X.s 			page 44


 887              	.L53:
 447:Drivers/lvgl/src/draw/lv_img_decoder.c ****                 user_data->palette[i] = lv_color_make(palette_p[i].ch.red, palette_p[i].ch.green, p
 888              		.loc 1 447 26 discriminator 1 view .LVU307
 889 0216 4B45     		cmp	r3, r9
 890 0218 E0D3     		bcc	.L54
 891              	.LVL95:
 892              	.L52:
 447:Drivers/lvgl/src/draw/lv_img_decoder.c ****                 user_data->palette[i] = lv_color_make(palette_p[i].ch.red, palette_p[i].ch.green, p
 893              		.loc 1 447 26 is_stmt 0 discriminator 1 view .LVU308
 894              	.LBE30:
 453:Drivers/lvgl/src/draw/lv_img_decoder.c ****     }
 895              		.loc 1 453 9 is_stmt 1 view .LVU309
 453:Drivers/lvgl/src/draw/lv_img_decoder.c ****     }
 896              		.loc 1 453 16 is_stmt 0 view .LVU310
 897 021a 0120     		movs	r0, #1
 898 021c 06E0     		b	.L32
 899              	.LVL96:
 900              	.L33:
 453:Drivers/lvgl/src/draw/lv_img_decoder.c ****     }
 901              		.loc 1 453 16 view .LVU311
 902              	.LBE23:
 462:Drivers/lvgl/src/draw/lv_img_decoder.c **** 
 903              		.loc 1 462 9 is_stmt 1 view .LVU312
 904 021e 2146     		mov	r1, r4
 905 0220 2846     		mov	r0, r5
 906 0222 FFF7FEFF 		bl	lv_img_decoder_built_in_close
 907              	.LVL97:
 464:Drivers/lvgl/src/draw/lv_img_decoder.c ****         return LV_RES_INV;
 908              		.loc 1 464 9 view .LVU313
 464:Drivers/lvgl/src/draw/lv_img_decoder.c ****         return LV_RES_INV;
 909              		.loc 1 464 9 view .LVU314
 464:Drivers/lvgl/src/draw/lv_img_decoder.c ****         return LV_RES_INV;
 910              		.loc 1 464 9 view .LVU315
 465:Drivers/lvgl/src/draw/lv_img_decoder.c ****     }
 911              		.loc 1 465 9 view .LVU316
 465:Drivers/lvgl/src/draw/lv_img_decoder.c ****     }
 912              		.loc 1 465 16 is_stmt 0 view .LVU317
 913 0226 0020     		movs	r0, #0
 914 0228 00E0     		b	.L32
 915              	.LVL98:
 916              	.L55:
 362:Drivers/lvgl/src/draw/lv_img_decoder.c ****     /*Process A8,  RGB565A8, need load file to ram after https://github.com/lvgl/lvgl/pull/3337*/
 917              		.loc 1 362 17 view .LVU318
 918 022a 0120     		movs	r0, #1
 919              	.LVL99:
 920              	.L32:
 467:Drivers/lvgl/src/draw/lv_img_decoder.c **** 
 921              		.loc 1 467 1 view .LVU319
 922 022c 04B0     		add	sp, sp, #16
 923              		.cfi_remember_state
 924              		.cfi_def_cfa_offset 32
 925              		@ sp needed
 926 022e BDE8F087 		pop	{r4, r5, r6, r7, r8, r9, r10, pc}
 927              	.LVL100:
 928              	.L57:
 929              		.cfi_restore_state
 930              	.LBB31:
ARM GAS  /var/folders/lp/x54gwt890xv47sdkqj1k04q40000gn/T//ccgxl04X.s 			page 45


 376:Drivers/lvgl/src/draw/lv_img_decoder.c **** 
 931              		.loc 1 376 39 discriminator 1 view .LVU320
 932 0232 0020     		movs	r0, #0
 933              	.LVL101:
 376:Drivers/lvgl/src/draw/lv_img_decoder.c **** 
 934              		.loc 1 376 39 discriminator 1 view .LVU321
 935 0234 FAE7     		b	.L32
 936              	.LVL102:
 937              	.L58:
 376:Drivers/lvgl/src/draw/lv_img_decoder.c **** 
 938              		.loc 1 376 39 discriminator 1 view .LVU322
 939              	.LBE31:
 400:Drivers/lvgl/src/draw/lv_img_decoder.c ****         }
 940              		.loc 1 400 20 view .LVU323
 941 0236 0120     		movs	r0, #1
 942 0238 F8E7     		b	.L32
 943              	.L70:
 944 023a 00BF     		.align	2
 945              	.L69:
 946 023c 00000000 		.word	.LC0
 947              		.cfi_endproc
 948              	.LFE68:
 950              		.section	.text.lv_img_decoder_built_in_line_true_color,"ax",%progbits
 951              		.align	1
 952              		.syntax unified
 953              		.thumb
 954              		.thumb_func
 956              	lv_img_decoder_built_in_line_true_color:
 957              	.LVL103:
 958              	.LFB71:
 532:Drivers/lvgl/src/draw/lv_img_decoder.c **** 
 533:Drivers/lvgl/src/draw/lv_img_decoder.c **** /**********************
 534:Drivers/lvgl/src/draw/lv_img_decoder.c ****  *   STATIC FUNCTIONS
 535:Drivers/lvgl/src/draw/lv_img_decoder.c ****  **********************/
 536:Drivers/lvgl/src/draw/lv_img_decoder.c **** 
 537:Drivers/lvgl/src/draw/lv_img_decoder.c **** static lv_res_t lv_img_decoder_built_in_line_true_color(lv_img_decoder_dsc_t * dsc, lv_coord_t x, l
 538:Drivers/lvgl/src/draw/lv_img_decoder.c ****                                                         lv_coord_t len, uint8_t * buf)
 539:Drivers/lvgl/src/draw/lv_img_decoder.c **** {
 959              		.loc 1 539 1 is_stmt 1 view -0
 960              		.cfi_startproc
 961              		@ args = 4, pretend = 0, frame = 8
 962              		@ frame_needed = 0, uses_anonymous_args = 0
 963              		.loc 1 539 1 is_stmt 0 view .LVU325
 964 0000 2DE9F043 		push	{r4, r5, r6, r7, r8, r9, lr}
 965              		.cfi_def_cfa_offset 28
 966              		.cfi_offset 4, -28
 967              		.cfi_offset 5, -24
 968              		.cfi_offset 6, -20
 969              		.cfi_offset 7, -16
 970              		.cfi_offset 8, -12
 971              		.cfi_offset 9, -8
 972              		.cfi_offset 14, -4
 973 0004 83B0     		sub	sp, sp, #12
 974              		.cfi_def_cfa_offset 40
 975 0006 0546     		mov	r5, r0
 976 0008 0C46     		mov	r4, r1
 977 000a 9146     		mov	r9, r2
ARM GAS  /var/folders/lp/x54gwt890xv47sdkqj1k04q40000gn/T//ccgxl04X.s 			page 46


 978 000c 1F46     		mov	r7, r3
 540:Drivers/lvgl/src/draw/lv_img_decoder.c ****     lv_img_decoder_built_in_data_t * user_data = dsc->user_data;
 979              		.loc 1 540 5 is_stmt 1 view .LVU326
 980              		.loc 1 540 38 is_stmt 0 view .LVU327
 981 000e D0F82480 		ldr	r8, [r0, #36]
 982              	.LVL104:
 541:Drivers/lvgl/src/draw/lv_img_decoder.c ****     lv_fs_res_t res;
 983              		.loc 1 541 5 is_stmt 1 view .LVU328
 542:Drivers/lvgl/src/draw/lv_img_decoder.c ****     uint8_t px_size = lv_img_cf_get_px_size(dsc->header.cf);
 984              		.loc 1 542 5 view .LVU329
 985              		.loc 1 542 56 is_stmt 0 view .LVU330
 986 0012 007D     		ldrb	r0, [r0, #20]	@ zero_extendqisi2
 987              	.LVL105:
 988              		.loc 1 542 23 view .LVU331
 989 0014 00F01F00 		and	r0, r0, #31
 990 0018 FFF7FEFF 		bl	lv_img_cf_get_px_size
 991              	.LVL106:
 992              		.loc 1 542 23 view .LVU332
 993 001c 0646     		mov	r6, r0
 994              	.LVL107:
 543:Drivers/lvgl/src/draw/lv_img_decoder.c **** 
 544:Drivers/lvgl/src/draw/lv_img_decoder.c ****     uint32_t pos = ((y * dsc->header.w + x) * px_size) >> 3;
 995              		.loc 1 544 5 is_stmt 1 view .LVU333
 996              		.loc 1 544 37 is_stmt 0 view .LVU334
 997 001e 6B69     		ldr	r3, [r5, #20]
 998 0020 C3F38A23 		ubfx	r3, r3, #10, #11
 999              		.loc 1 544 40 view .LVU335
 1000 0024 03FB0941 		mla	r1, r3, r9, r4
 1001              		.loc 1 544 45 view .LVU336
 1002 0028 00FB01F1 		mul	r1, r0, r1
 1003              		.loc 1 544 56 view .LVU337
 1004 002c C910     		asrs	r1, r1, #3
 1005              	.LVL108:
 545:Drivers/lvgl/src/draw/lv_img_decoder.c ****     pos += 4; /*Skip the header*/
 1006              		.loc 1 545 5 is_stmt 1 view .LVU338
 546:Drivers/lvgl/src/draw/lv_img_decoder.c ****     res = lv_fs_seek(&user_data->f, pos, LV_FS_SEEK_SET);
 1007              		.loc 1 546 5 view .LVU339
 1008              		.loc 1 546 11 is_stmt 0 view .LVU340
 1009 002e 0022     		movs	r2, #0
 1010 0030 0431     		adds	r1, r1, #4
 1011              	.LVL109:
 1012              		.loc 1 546 11 view .LVU341
 1013 0032 4046     		mov	r0, r8
 1014              	.LVL110:
 1015              		.loc 1 546 11 view .LVU342
 1016 0034 FFF7FEFF 		bl	lv_fs_seek
 1017              	.LVL111:
 547:Drivers/lvgl/src/draw/lv_img_decoder.c ****     if(res != LV_FS_RES_OK) {
 1018              		.loc 1 547 5 is_stmt 1 view .LVU343
 1019              		.loc 1 547 7 is_stmt 0 view .LVU344
 1020 0038 20B1     		cbz	r0, .L75
 548:Drivers/lvgl/src/draw/lv_img_decoder.c ****         LV_LOG_WARN("Built-in image decoder seek failed");
 549:Drivers/lvgl/src/draw/lv_img_decoder.c ****         return LV_RES_INV;
 1021              		.loc 1 549 16 view .LVU345
 1022 003a 0024     		movs	r4, #0
 1023              	.LVL112:
 1024              	.L72:
ARM GAS  /var/folders/lp/x54gwt890xv47sdkqj1k04q40000gn/T//ccgxl04X.s 			page 47


 550:Drivers/lvgl/src/draw/lv_img_decoder.c ****     }
 551:Drivers/lvgl/src/draw/lv_img_decoder.c ****     uint32_t btr = len * (px_size >> 3);
 552:Drivers/lvgl/src/draw/lv_img_decoder.c ****     uint32_t br  = 0;
 553:Drivers/lvgl/src/draw/lv_img_decoder.c ****     res = lv_fs_read(&user_data->f, buf, btr, &br);
 554:Drivers/lvgl/src/draw/lv_img_decoder.c ****     if(res != LV_FS_RES_OK || btr != br) {
 555:Drivers/lvgl/src/draw/lv_img_decoder.c ****         LV_LOG_WARN("Built-in image decoder read failed");
 556:Drivers/lvgl/src/draw/lv_img_decoder.c ****         return LV_RES_INV;
 557:Drivers/lvgl/src/draw/lv_img_decoder.c ****     }
 558:Drivers/lvgl/src/draw/lv_img_decoder.c **** 
 559:Drivers/lvgl/src/draw/lv_img_decoder.c ****     return LV_RES_OK;
 560:Drivers/lvgl/src/draw/lv_img_decoder.c **** }
 1025              		.loc 1 560 1 view .LVU346
 1026 003c 2046     		mov	r0, r4
 1027              	.LVL113:
 1028              		.loc 1 560 1 view .LVU347
 1029 003e 03B0     		add	sp, sp, #12
 1030              		.cfi_remember_state
 1031              		.cfi_def_cfa_offset 28
 1032              		@ sp needed
 1033 0040 BDE8F083 		pop	{r4, r5, r6, r7, r8, r9, pc}
 1034              	.LVL114:
 1035              	.L75:
 1036              		.cfi_restore_state
 1037              		.loc 1 560 1 view .LVU348
 1038 0044 0446     		mov	r4, r0
 551:Drivers/lvgl/src/draw/lv_img_decoder.c ****     uint32_t br  = 0;
 1039              		.loc 1 551 5 is_stmt 1 view .LVU349
 551:Drivers/lvgl/src/draw/lv_img_decoder.c ****     uint32_t br  = 0;
 1040              		.loc 1 551 35 is_stmt 0 view .LVU350
 1041 0046 C6F3C706 		ubfx	r6, r6, #3, #8
 551:Drivers/lvgl/src/draw/lv_img_decoder.c ****     uint32_t br  = 0;
 1042              		.loc 1 551 24 view .LVU351
 1043 004a 06FB07F7 		mul	r7, r6, r7
 1044              	.LVL115:
 552:Drivers/lvgl/src/draw/lv_img_decoder.c ****     res = lv_fs_read(&user_data->f, buf, btr, &br);
 1045              		.loc 1 552 5 is_stmt 1 view .LVU352
 552:Drivers/lvgl/src/draw/lv_img_decoder.c ****     res = lv_fs_read(&user_data->f, buf, btr, &br);
 1046              		.loc 1 552 14 is_stmt 0 view .LVU353
 1047 004e 0023     		movs	r3, #0
 1048 0050 0193     		str	r3, [sp, #4]
 553:Drivers/lvgl/src/draw/lv_img_decoder.c ****     if(res != LV_FS_RES_OK || btr != br) {
 1049              		.loc 1 553 5 is_stmt 1 view .LVU354
 553:Drivers/lvgl/src/draw/lv_img_decoder.c ****     if(res != LV_FS_RES_OK || btr != br) {
 1050              		.loc 1 553 11 is_stmt 0 view .LVU355
 1051 0052 01AB     		add	r3, sp, #4
 1052 0054 3A46     		mov	r2, r7
 1053 0056 0A99     		ldr	r1, [sp, #40]
 1054 0058 4046     		mov	r0, r8
 1055              	.LVL116:
 553:Drivers/lvgl/src/draw/lv_img_decoder.c ****     if(res != LV_FS_RES_OK || btr != br) {
 1056              		.loc 1 553 11 view .LVU356
 1057 005a FFF7FEFF 		bl	lv_fs_read
 1058              	.LVL117:
 554:Drivers/lvgl/src/draw/lv_img_decoder.c ****         LV_LOG_WARN("Built-in image decoder read failed");
 1059              		.loc 1 554 5 is_stmt 1 view .LVU357
 554:Drivers/lvgl/src/draw/lv_img_decoder.c ****         LV_LOG_WARN("Built-in image decoder read failed");
 1060              		.loc 1 554 7 is_stmt 0 view .LVU358
ARM GAS  /var/folders/lp/x54gwt890xv47sdkqj1k04q40000gn/T//ccgxl04X.s 			page 48


 1061 005e 0028     		cmp	r0, #0
 1062 0060 ECD1     		bne	.L72
 554:Drivers/lvgl/src/draw/lv_img_decoder.c ****         LV_LOG_WARN("Built-in image decoder read failed");
 1063              		.loc 1 554 35 discriminator 1 view .LVU359
 1064 0062 019B     		ldr	r3, [sp, #4]
 554:Drivers/lvgl/src/draw/lv_img_decoder.c ****         LV_LOG_WARN("Built-in image decoder read failed");
 1065              		.loc 1 554 28 discriminator 1 view .LVU360
 1066 0064 BB42     		cmp	r3, r7
 1067 0066 E9D1     		bne	.L72
 559:Drivers/lvgl/src/draw/lv_img_decoder.c **** }
 1068              		.loc 1 559 12 view .LVU361
 1069 0068 0124     		movs	r4, #1
 1070 006a E7E7     		b	.L72
 1071              		.cfi_endproc
 1072              	.LFE71:
 1074              		.section	.text.lv_img_decoder_built_in_line_alpha,"ax",%progbits
 1075              		.align	1
 1076              		.syntax unified
 1077              		.thumb
 1078              		.thumb_func
 1080              	lv_img_decoder_built_in_line_alpha:
 1081              	.LVL118:
 1082              	.LFB72:
 561:Drivers/lvgl/src/draw/lv_img_decoder.c **** 
 562:Drivers/lvgl/src/draw/lv_img_decoder.c **** static lv_res_t lv_img_decoder_built_in_line_alpha(lv_img_decoder_dsc_t * dsc, lv_coord_t x, lv_coo
 563:Drivers/lvgl/src/draw/lv_img_decoder.c ****                                                    lv_coord_t len, uint8_t * buf)
 564:Drivers/lvgl/src/draw/lv_img_decoder.c **** {
 1083              		.loc 1 564 1 is_stmt 1 view -0
 1084              		.cfi_startproc
 1085              		@ args = 4, pretend = 0, frame = 40
 1086              		@ frame_needed = 0, uses_anonymous_args = 0
 1087              		.loc 1 564 1 is_stmt 0 view .LVU363
 1088 0000 2DE9F04F 		push	{r4, r5, r6, r7, r8, r9, r10, fp, lr}
 1089              		.cfi_def_cfa_offset 36
 1090              		.cfi_offset 4, -36
 1091              		.cfi_offset 5, -32
 1092              		.cfi_offset 6, -28
 1093              		.cfi_offset 7, -24
 1094              		.cfi_offset 8, -20
 1095              		.cfi_offset 9, -16
 1096              		.cfi_offset 10, -12
 1097              		.cfi_offset 11, -8
 1098              		.cfi_offset 14, -4
 1099 0004 8BB0     		sub	sp, sp, #44
 1100              		.cfi_def_cfa_offset 80
 1101 0006 0746     		mov	r7, r0
 1102 0008 0C46     		mov	r4, r1
 1103 000a 9246     		mov	r10, r2
 1104 000c 1E46     		mov	r6, r3
 1105 000e 149D     		ldr	r5, [sp, #80]
 565:Drivers/lvgl/src/draw/lv_img_decoder.c ****     const lv_opa_t alpha1_opa_table[2]  = {0, 255};          /*Opacity mapping with bpp = 1 (Just f
 1106              		.loc 1 565 5 is_stmt 1 view .LVU364
 1107              		.loc 1 565 20 is_stmt 0 view .LVU365
 1108 0010 4FF47F43 		mov	r3, #65280
 1109              	.LVL119:
 1110              		.loc 1 565 20 view .LVU366
 1111 0014 ADF82430 		strh	r3, [sp, #36]	@ movhi
ARM GAS  /var/folders/lp/x54gwt890xv47sdkqj1k04q40000gn/T//ccgxl04X.s 			page 49


 566:Drivers/lvgl/src/draw/lv_img_decoder.c ****     const lv_opa_t alpha2_opa_table[4]  = {0, 85, 170, 255}; /*Opacity mapping with bpp = 2*/
 1112              		.loc 1 566 5 is_stmt 1 view .LVU367
 1113              		.loc 1 566 20 is_stmt 0 view .LVU368
 1114 0018 A3F5AD03 		sub	r3, r3, #5668864
 1115 001c A3F52853 		sub	r3, r3, #10752
 1116 0020 0893     		str	r3, [sp, #32]
 567:Drivers/lvgl/src/draw/lv_img_decoder.c ****     const lv_opa_t alpha4_opa_table[16] = {0,  17, 34,  51,  /*Opacity mapping with bpp = 4*/
 1117              		.loc 1 567 5 is_stmt 1 view .LVU369
 1118              		.loc 1 567 20 is_stmt 0 view .LVU370
 1119 0022 594B     		ldr	r3, .L97
 1120 0024 0DF1100C 		add	ip, sp, #16
 1121 0028 0FCB     		ldm	r3, {r0, r1, r2, r3}
 1122              	.LVL120:
 1123              		.loc 1 567 20 view .LVU371
 1124 002a 8CE80F00 		stm	ip, {r0, r1, r2, r3}
 568:Drivers/lvgl/src/draw/lv_img_decoder.c ****                                            68, 85, 102, 119, 136, 153, 170, 187, 204, 221, 238, 255
 569:Drivers/lvgl/src/draw/lv_img_decoder.c ****                                           };
 570:Drivers/lvgl/src/draw/lv_img_decoder.c **** 
 571:Drivers/lvgl/src/draw/lv_img_decoder.c ****     /*Simply fill the buffer with the color. Later only the alpha value will be modified.*/
 572:Drivers/lvgl/src/draw/lv_img_decoder.c ****     lv_color_t bg_color = dsc->color;
 1125              		.loc 1 572 5 is_stmt 1 view .LVU372
 1126              		.loc 1 572 16 is_stmt 0 view .LVU373
 1127 002e 3889     		ldrh	r0, [r7, #8]
 573:Drivers/lvgl/src/draw/lv_img_decoder.c ****     lv_coord_t i;
 1128              		.loc 1 573 5 is_stmt 1 view .LVU374
 574:Drivers/lvgl/src/draw/lv_img_decoder.c ****     for(i = 0; i < len; i++) {
 1129              		.loc 1 574 5 view .LVU375
 1130              	.LVL121:
 1131              		.loc 1 574 11 is_stmt 0 view .LVU376
 1132 0030 0023     		movs	r3, #0
 1133              		.loc 1 574 5 view .LVU377
 1134 0032 08E0     		b	.L77
 1135              	.LVL122:
 1136              	.L78:
 575:Drivers/lvgl/src/draw/lv_img_decoder.c **** #if LV_COLOR_DEPTH == 8 || LV_COLOR_DEPTH == 1
 576:Drivers/lvgl/src/draw/lv_img_decoder.c ****         buf[i * LV_IMG_PX_SIZE_ALPHA_BYTE] = bg_color.full;
 577:Drivers/lvgl/src/draw/lv_img_decoder.c **** #elif LV_COLOR_DEPTH == 16
 578:Drivers/lvgl/src/draw/lv_img_decoder.c ****         /*Because of Alpha byte 16 bit color can start on odd address which can cause crash*/
 579:Drivers/lvgl/src/draw/lv_img_decoder.c ****         buf[i * LV_IMG_PX_SIZE_ALPHA_BYTE] = bg_color.full & 0xFF;
 1137              		.loc 1 579 9 is_stmt 1 view .LVU378
 1138              		.loc 1 579 54 is_stmt 0 view .LVU379
 1139 0034 82B2     		uxth	r2, r0
 1140              		.loc 1 579 15 view .LVU380
 1141 0036 03EB4301 		add	r1, r3, r3, lsl #1
 1142              		.loc 1 579 44 view .LVU381
 1143 003a 6A54     		strb	r2, [r5, r1]
 580:Drivers/lvgl/src/draw/lv_img_decoder.c ****         buf[i * LV_IMG_PX_SIZE_ALPHA_BYTE + 1] = (bg_color.full >> 8) & 0xFF;
 1144              		.loc 1 580 9 is_stmt 1 view .LVU382
 1145              		.loc 1 580 12 is_stmt 0 view .LVU383
 1146 003c 0131     		adds	r1, r1, #1
 1147              		.loc 1 580 48 view .LVU384
 1148 003e 120A     		lsrs	r2, r2, #8
 1149 0040 6A54     		strb	r2, [r5, r1]
 574:Drivers/lvgl/src/draw/lv_img_decoder.c ****     for(i = 0; i < len; i++) {
 1150              		.loc 1 574 26 is_stmt 1 discriminator 3 view .LVU385
 1151 0042 0133     		adds	r3, r3, #1
 1152              	.LVL123:
ARM GAS  /var/folders/lp/x54gwt890xv47sdkqj1k04q40000gn/T//ccgxl04X.s 			page 50


 574:Drivers/lvgl/src/draw/lv_img_decoder.c ****     for(i = 0; i < len; i++) {
 1153              		.loc 1 574 26 is_stmt 0 discriminator 3 view .LVU386
 1154 0044 1BB2     		sxth	r3, r3
 1155              	.LVL124:
 1156              	.L77:
 574:Drivers/lvgl/src/draw/lv_img_decoder.c ****     for(i = 0; i < len; i++) {
 1157              		.loc 1 574 18 is_stmt 1 discriminator 1 view .LVU387
 1158 0046 B342     		cmp	r3, r6
 1159 0048 F4DB     		blt	.L78
 581:Drivers/lvgl/src/draw/lv_img_decoder.c **** #elif LV_COLOR_DEPTH == 32
 582:Drivers/lvgl/src/draw/lv_img_decoder.c ****         *((uint32_t *)&buf[i * LV_IMG_PX_SIZE_ALPHA_BYTE]) = bg_color.full;
 583:Drivers/lvgl/src/draw/lv_img_decoder.c **** #else
 584:Drivers/lvgl/src/draw/lv_img_decoder.c **** #error "Invalid LV_COLOR_DEPTH. Check it in lv_conf.h"
 585:Drivers/lvgl/src/draw/lv_img_decoder.c **** #endif
 586:Drivers/lvgl/src/draw/lv_img_decoder.c ****     }
 587:Drivers/lvgl/src/draw/lv_img_decoder.c **** 
 588:Drivers/lvgl/src/draw/lv_img_decoder.c ****     const lv_opa_t * opa_table = NULL;
 1160              		.loc 1 588 5 view .LVU388
 1161              	.LVL125:
 589:Drivers/lvgl/src/draw/lv_img_decoder.c ****     uint8_t px_size            = lv_img_cf_get_px_size(dsc->header.cf);
 1162              		.loc 1 589 5 view .LVU389
 1163              		.loc 1 589 67 is_stmt 0 view .LVU390
 1164 004a 387D     		ldrb	r0, [r7, #20]	@ zero_extendqisi2
 1165              	.LVL126:
 1166              		.loc 1 589 34 view .LVU391
 1167 004c 00F01F00 		and	r0, r0, #31
 1168 0050 FFF7FEFF 		bl	lv_img_cf_get_px_size
 1169              	.LVL127:
 1170              		.loc 1 589 34 view .LVU392
 1171 0054 8146     		mov	r9, r0
 1172              	.LVL128:
 590:Drivers/lvgl/src/draw/lv_img_decoder.c ****     uint16_t mask              = (1 << px_size) - 1; /*E.g. px_size = 2; mask = 0x03*/
 1173              		.loc 1 590 5 is_stmt 1 view .LVU393
 1174              		.loc 1 590 37 is_stmt 0 view .LVU394
 1175 0056 4FF00108 		mov	r8, #1
 1176 005a 08FA00F8 		lsl	r8, r8, r0
 1177              		.loc 1 590 49 view .LVU395
 1178 005e 1FFA88F8 		uxth	r8, r8
 1179              		.loc 1 590 14 view .LVU396
 1180 0062 08F1FF38 		add	r8, r8, #-1
 1181 0066 1FFA88F8 		uxth	r8, r8
 1182              	.LVL129:
 591:Drivers/lvgl/src/draw/lv_img_decoder.c **** 
 592:Drivers/lvgl/src/draw/lv_img_decoder.c ****     lv_coord_t w = 0;
 1183              		.loc 1 592 5 is_stmt 1 view .LVU397
 593:Drivers/lvgl/src/draw/lv_img_decoder.c ****     uint32_t ofs = 0;
 1184              		.loc 1 593 5 view .LVU398
 594:Drivers/lvgl/src/draw/lv_img_decoder.c ****     int8_t pos   = 0;
 1185              		.loc 1 594 5 view .LVU399
 595:Drivers/lvgl/src/draw/lv_img_decoder.c ****     switch(dsc->header.cf) {
 1186              		.loc 1 595 5 view .LVU400
 1187              		.loc 1 595 23 is_stmt 0 view .LVU401
 1188 006a 3B7D     		ldrb	r3, [r7, #20]	@ zero_extendqisi2
 1189 006c 03F01F03 		and	r3, r3, #31
 1190              		.loc 1 595 5 view .LVU402
 1191 0070 0B3B     		subs	r3, r3, #11
 1192 0072 032B     		cmp	r3, #3
ARM GAS  /var/folders/lp/x54gwt890xv47sdkqj1k04q40000gn/T//ccgxl04X.s 			page 51


 1193 0074 47D8     		bhi	.L92
 1194 0076 DFE803F0 		tbb	[pc, r3]
 1195              	.L81:
 1196 007a 02       		.byte	(.L84-.L81)/2
 1197 007b 1E       		.byte	(.L83-.L81)/2
 1198 007c 2E       		.byte	(.L82-.L81)/2
 1199 007d 3D       		.byte	(.L80-.L81)/2
 1200              		.p2align 1
 1201              	.L84:
 596:Drivers/lvgl/src/draw/lv_img_decoder.c ****         case LV_IMG_CF_ALPHA_1BIT:
 597:Drivers/lvgl/src/draw/lv_img_decoder.c ****             w = (dsc->header.w + 7) >> 3; /*E.g. w = 20 -> w = 2 + 1*/
 1202              		.loc 1 597 13 is_stmt 1 view .LVU403
 1203              		.loc 1 597 29 is_stmt 0 view .LVU404
 1204 007e 7B69     		ldr	r3, [r7, #20]
 1205 0080 C3F38A20 		ubfx	r0, r3, #10, #11
 1206              	.LVL130:
 1207              		.loc 1 597 32 view .LVU405
 1208 0084 0730     		adds	r0, r0, #7
 1209              		.loc 1 597 15 view .LVU406
 1210 0086 C010     		asrs	r0, r0, #3
 1211              	.LVL131:
 598:Drivers/lvgl/src/draw/lv_img_decoder.c ****             ofs += w * y + (x >> 3); /*First pixel*/
 1212              		.loc 1 598 13 is_stmt 1 view .LVU407
 1213              		.loc 1 598 31 is_stmt 0 view .LVU408
 1214 0088 E310     		asrs	r3, r4, #3
 1215              		.loc 1 598 26 view .LVU409
 1216 008a 0AFB003A 		mla	r10, r10, r0, r3
 1217              	.LVL132:
 599:Drivers/lvgl/src/draw/lv_img_decoder.c ****             pos = 7 - (x & 0x7);
 1218              		.loc 1 599 13 is_stmt 1 view .LVU410
 1219              		.loc 1 599 21 is_stmt 0 view .LVU411
 1220 008e E443     		mvns	r4, r4
 1221              	.LVL133:
 1222              		.loc 1 599 17 view .LVU412
 1223 0090 04F00704 		and	r4, r4, #7
 1224              	.LVL134:
 600:Drivers/lvgl/src/draw/lv_img_decoder.c ****             opa_table = alpha1_opa_table;
 1225              		.loc 1 600 13 is_stmt 1 view .LVU413
 601:Drivers/lvgl/src/draw/lv_img_decoder.c ****             break;
 1226              		.loc 1 601 13 view .LVU414
 600:Drivers/lvgl/src/draw/lv_img_decoder.c ****             opa_table = alpha1_opa_table;
 1227              		.loc 1 600 23 is_stmt 0 view .LVU415
 1228 0094 0DF1240B 		add	fp, sp, #36
 1229              	.LVL135:
 1230              	.L79:
 602:Drivers/lvgl/src/draw/lv_img_decoder.c ****         case LV_IMG_CF_ALPHA_2BIT:
 603:Drivers/lvgl/src/draw/lv_img_decoder.c ****             w = (dsc->header.w + 3) >> 2; /*E.g. w = 13 -> w = 3 + 1 (bytes)*/
 604:Drivers/lvgl/src/draw/lv_img_decoder.c ****             ofs += w * y + (x >> 2); /*First pixel*/
 605:Drivers/lvgl/src/draw/lv_img_decoder.c ****             pos = 6 - (x & 0x3) * 2;
 606:Drivers/lvgl/src/draw/lv_img_decoder.c ****             opa_table = alpha2_opa_table;
 607:Drivers/lvgl/src/draw/lv_img_decoder.c ****             break;
 608:Drivers/lvgl/src/draw/lv_img_decoder.c ****         case LV_IMG_CF_ALPHA_4BIT:
 609:Drivers/lvgl/src/draw/lv_img_decoder.c ****             w = (dsc->header.w + 1) >> 1; /*E.g. w = 13 -> w = 6 + 1 (bytes)*/
 610:Drivers/lvgl/src/draw/lv_img_decoder.c ****             ofs += w * y + (x >> 1); /*First pixel*/
 611:Drivers/lvgl/src/draw/lv_img_decoder.c ****             pos = 4 - (x & 0x1) * 4;
 612:Drivers/lvgl/src/draw/lv_img_decoder.c ****             opa_table = alpha4_opa_table;
 613:Drivers/lvgl/src/draw/lv_img_decoder.c ****             break;
ARM GAS  /var/folders/lp/x54gwt890xv47sdkqj1k04q40000gn/T//ccgxl04X.s 			page 52


 614:Drivers/lvgl/src/draw/lv_img_decoder.c ****         case LV_IMG_CF_ALPHA_8BIT:
 615:Drivers/lvgl/src/draw/lv_img_decoder.c ****             w = dsc->header.w; /*E.g. x = 7 -> w = 7 (bytes)*/
 616:Drivers/lvgl/src/draw/lv_img_decoder.c ****             ofs += w * y + x;  /*First pixel*/
 617:Drivers/lvgl/src/draw/lv_img_decoder.c ****             pos = 0;
 618:Drivers/lvgl/src/draw/lv_img_decoder.c ****             break;
 619:Drivers/lvgl/src/draw/lv_img_decoder.c ****     }
 620:Drivers/lvgl/src/draw/lv_img_decoder.c **** 
 621:Drivers/lvgl/src/draw/lv_img_decoder.c ****     lv_img_decoder_built_in_data_t * user_data = dsc->user_data;
 1231              		.loc 1 621 5 is_stmt 1 view .LVU416
 1232              		.loc 1 621 38 is_stmt 0 view .LVU417
 1233 0098 7B6A     		ldr	r3, [r7, #36]
 1234 009a 0293     		str	r3, [sp, #8]
 1235              	.LVL136:
 622:Drivers/lvgl/src/draw/lv_img_decoder.c ****     uint8_t * fs_buf = lv_mem_buf_get(w);
 1236              		.loc 1 622 5 is_stmt 1 view .LVU418
 1237              		.loc 1 622 24 is_stmt 0 view .LVU419
 1238 009c 0390     		str	r0, [sp, #12]
 1239 009e FFF7FEFF 		bl	lv_mem_buf_get
 1240              	.LVL137:
 623:Drivers/lvgl/src/draw/lv_img_decoder.c ****     if(fs_buf == NULL) return LV_RES_INV;
 1241              		.loc 1 623 5 is_stmt 1 view .LVU420
 1242              		.loc 1 623 7 is_stmt 0 view .LVU421
 1243 00a2 0190     		str	r0, [sp, #4]
 1244 00a4 0028     		cmp	r0, #0
 1245 00a6 6CD0     		beq	.L94
 624:Drivers/lvgl/src/draw/lv_img_decoder.c **** 
 625:Drivers/lvgl/src/draw/lv_img_decoder.c ****     const uint8_t * data_tmp = NULL;
 1246              		.loc 1 625 5 is_stmt 1 view .LVU422
 1247              	.LVL138:
 626:Drivers/lvgl/src/draw/lv_img_decoder.c ****     if(dsc->src_type == LV_IMG_SRC_VARIABLE) {
 1248              		.loc 1 626 5 view .LVU423
 1249              		.loc 1 626 11 is_stmt 0 view .LVU424
 1250 00a8 3B7C     		ldrb	r3, [r7, #16]	@ zero_extendqisi2
 1251              		.loc 1 626 7 view .LVU425
 1252 00aa ABBB     		cbnz	r3, .L86
 1253              	.LBB32:
 627:Drivers/lvgl/src/draw/lv_img_decoder.c ****         const lv_img_dsc_t * img_dsc = dsc->src;
 1254              		.loc 1 627 9 is_stmt 1 view .LVU426
 1255              		.loc 1 627 30 is_stmt 0 view .LVU427
 1256 00ac 7B68     		ldr	r3, [r7, #4]
 1257              	.LVL139:
 628:Drivers/lvgl/src/draw/lv_img_decoder.c **** 
 629:Drivers/lvgl/src/draw/lv_img_decoder.c ****         data_tmp = img_dsc->data + ofs;
 1258              		.loc 1 629 9 is_stmt 1 view .LVU428
 1259              		.loc 1 629 27 is_stmt 0 view .LVU429
 1260 00ae 9968     		ldr	r1, [r3, #8]
 1261              		.loc 1 629 18 view .LVU430
 1262 00b0 5144     		add	r1, r1, r10
 1263              	.LVL140:
 1264              	.L87:
 1265              		.loc 1 629 18 view .LVU431
 1266              	.LBE32:
 630:Drivers/lvgl/src/draw/lv_img_decoder.c ****     }
 631:Drivers/lvgl/src/draw/lv_img_decoder.c ****     else {
 632:Drivers/lvgl/src/draw/lv_img_decoder.c ****         lv_fs_seek(&user_data->f, ofs + 4, LV_FS_SEEK_SET); /*+4 to skip the header*/
 633:Drivers/lvgl/src/draw/lv_img_decoder.c ****         lv_fs_read(&user_data->f, fs_buf, w, NULL);
 634:Drivers/lvgl/src/draw/lv_img_decoder.c ****         data_tmp = fs_buf;
ARM GAS  /var/folders/lp/x54gwt890xv47sdkqj1k04q40000gn/T//ccgxl04X.s 			page 53


 1267              		.loc 1 634 18 view .LVU432
 1268 00b2 0022     		movs	r2, #0
 1269 00b4 42E0     		b	.L90
 1270              	.LVL141:
 1271              	.L83:
 603:Drivers/lvgl/src/draw/lv_img_decoder.c ****             ofs += w * y + (x >> 2); /*First pixel*/
 1272              		.loc 1 603 13 is_stmt 1 view .LVU433
 603:Drivers/lvgl/src/draw/lv_img_decoder.c ****             ofs += w * y + (x >> 2); /*First pixel*/
 1273              		.loc 1 603 29 is_stmt 0 view .LVU434
 1274 00b6 7B69     		ldr	r3, [r7, #20]
 1275 00b8 C3F38A20 		ubfx	r0, r3, #10, #11
 1276              	.LVL142:
 603:Drivers/lvgl/src/draw/lv_img_decoder.c ****             ofs += w * y + (x >> 2); /*First pixel*/
 1277              		.loc 1 603 32 view .LVU435
 1278 00bc 0330     		adds	r0, r0, #3
 603:Drivers/lvgl/src/draw/lv_img_decoder.c ****             ofs += w * y + (x >> 2); /*First pixel*/
 1279              		.loc 1 603 15 view .LVU436
 1280 00be 8010     		asrs	r0, r0, #2
 1281              	.LVL143:
 604:Drivers/lvgl/src/draw/lv_img_decoder.c ****             pos = 6 - (x & 0x3) * 2;
 1282              		.loc 1 604 13 is_stmt 1 view .LVU437
 604:Drivers/lvgl/src/draw/lv_img_decoder.c ****             pos = 6 - (x & 0x3) * 2;
 1283              		.loc 1 604 31 is_stmt 0 view .LVU438
 1284 00c0 A310     		asrs	r3, r4, #2
 604:Drivers/lvgl/src/draw/lv_img_decoder.c ****             pos = 6 - (x & 0x3) * 2;
 1285              		.loc 1 604 26 view .LVU439
 1286 00c2 0AFB003A 		mla	r10, r10, r0, r3
 1287              	.LVL144:
 605:Drivers/lvgl/src/draw/lv_img_decoder.c ****             opa_table = alpha2_opa_table;
 1288              		.loc 1 605 13 is_stmt 1 view .LVU440
 605:Drivers/lvgl/src/draw/lv_img_decoder.c ****             opa_table = alpha2_opa_table;
 1289              		.loc 1 605 21 is_stmt 0 view .LVU441
 1290 00c6 A4B2     		uxth	r4, r4
 1291 00c8 E443     		mvns	r4, r4
 605:Drivers/lvgl/src/draw/lv_img_decoder.c ****             opa_table = alpha2_opa_table;
 1292              		.loc 1 605 17 view .LVU442
 1293 00ca 04F00304 		and	r4, r4, #3
 1294 00ce 6400     		lsls	r4, r4, #1
 1295              	.LVL145:
 606:Drivers/lvgl/src/draw/lv_img_decoder.c ****             break;
 1296              		.loc 1 606 13 is_stmt 1 view .LVU443
 607:Drivers/lvgl/src/draw/lv_img_decoder.c ****         case LV_IMG_CF_ALPHA_4BIT:
 1297              		.loc 1 607 13 view .LVU444
 606:Drivers/lvgl/src/draw/lv_img_decoder.c ****             break;
 1298              		.loc 1 606 23 is_stmt 0 view .LVU445
 1299 00d0 0DF1200B 		add	fp, sp, #32
 1300              	.LVL146:
 607:Drivers/lvgl/src/draw/lv_img_decoder.c ****         case LV_IMG_CF_ALPHA_4BIT:
 1301              		.loc 1 607 13 view .LVU446
 1302 00d4 E0E7     		b	.L79
 1303              	.LVL147:
 1304              	.L82:
 609:Drivers/lvgl/src/draw/lv_img_decoder.c ****             ofs += w * y + (x >> 1); /*First pixel*/
 1305              		.loc 1 609 13 is_stmt 1 view .LVU447
 609:Drivers/lvgl/src/draw/lv_img_decoder.c ****             ofs += w * y + (x >> 1); /*First pixel*/
 1306              		.loc 1 609 29 is_stmt 0 view .LVU448
 1307 00d6 7B69     		ldr	r3, [r7, #20]
ARM GAS  /var/folders/lp/x54gwt890xv47sdkqj1k04q40000gn/T//ccgxl04X.s 			page 54


 1308 00d8 C3F38A20 		ubfx	r0, r3, #10, #11
 1309              	.LVL148:
 609:Drivers/lvgl/src/draw/lv_img_decoder.c ****             ofs += w * y + (x >> 1); /*First pixel*/
 1310              		.loc 1 609 32 view .LVU449
 1311 00dc 0130     		adds	r0, r0, #1
 609:Drivers/lvgl/src/draw/lv_img_decoder.c ****             ofs += w * y + (x >> 1); /*First pixel*/
 1312              		.loc 1 609 15 view .LVU450
 1313 00de 4010     		asrs	r0, r0, #1
 1314              	.LVL149:
 610:Drivers/lvgl/src/draw/lv_img_decoder.c ****             pos = 4 - (x & 0x1) * 4;
 1315              		.loc 1 610 13 is_stmt 1 view .LVU451
 610:Drivers/lvgl/src/draw/lv_img_decoder.c ****             pos = 4 - (x & 0x1) * 4;
 1316              		.loc 1 610 31 is_stmt 0 view .LVU452
 1317 00e0 6310     		asrs	r3, r4, #1
 610:Drivers/lvgl/src/draw/lv_img_decoder.c ****             pos = 4 - (x & 0x1) * 4;
 1318              		.loc 1 610 26 view .LVU453
 1319 00e2 0AFB003A 		mla	r10, r10, r0, r3
 1320              	.LVL150:
 611:Drivers/lvgl/src/draw/lv_img_decoder.c ****             opa_table = alpha4_opa_table;
 1321              		.loc 1 611 13 is_stmt 1 view .LVU454
 611:Drivers/lvgl/src/draw/lv_img_decoder.c ****             opa_table = alpha4_opa_table;
 1322              		.loc 1 611 17 is_stmt 0 view .LVU455
 1323 00e6 14F0010F 		tst	r4, #1
 1324 00ea 11D1     		bne	.L93
 611:Drivers/lvgl/src/draw/lv_img_decoder.c ****             opa_table = alpha4_opa_table;
 1325              		.loc 1 611 17 discriminator 1 view .LVU456
 1326 00ec 0424     		movs	r4, #4
 612:Drivers/lvgl/src/draw/lv_img_decoder.c ****             break;
 1327              		.loc 1 612 23 view .LVU457
 1328 00ee 0DF1100B 		add	fp, sp, #16
 1329 00f2 D1E7     		b	.L79
 1330              	.LVL151:
 1331              	.L80:
 615:Drivers/lvgl/src/draw/lv_img_decoder.c ****             ofs += w * y + x;  /*First pixel*/
 1332              		.loc 1 615 13 is_stmt 1 view .LVU458
 615:Drivers/lvgl/src/draw/lv_img_decoder.c ****             ofs += w * y + x;  /*First pixel*/
 1333              		.loc 1 615 28 is_stmt 0 view .LVU459
 1334 00f4 7869     		ldr	r0, [r7, #20]
 1335              	.LVL152:
 615:Drivers/lvgl/src/draw/lv_img_decoder.c ****             ofs += w * y + x;  /*First pixel*/
 1336              		.loc 1 615 28 view .LVU460
 1337 00f6 C0F38A23 		ubfx	r3, r0, #10, #11
 615:Drivers/lvgl/src/draw/lv_img_decoder.c ****             ofs += w * y + x;  /*First pixel*/
 1338              		.loc 1 615 15 view .LVU461
 1339 00fa 1846     		mov	r0, r3
 1340              	.LVL153:
 616:Drivers/lvgl/src/draw/lv_img_decoder.c ****             pos = 0;
 1341              		.loc 1 616 13 is_stmt 1 view .LVU462
 616:Drivers/lvgl/src/draw/lv_img_decoder.c ****             pos = 0;
 1342              		.loc 1 616 26 is_stmt 0 view .LVU463
 1343 00fc 0AFB034A 		mla	r10, r10, r3, r4
 1344              	.LVL154:
 617:Drivers/lvgl/src/draw/lv_img_decoder.c ****             break;
 1345              		.loc 1 617 13 is_stmt 1 view .LVU464
 618:Drivers/lvgl/src/draw/lv_img_decoder.c ****     }
 1346              		.loc 1 618 13 view .LVU465
 617:Drivers/lvgl/src/draw/lv_img_decoder.c ****             break;
ARM GAS  /var/folders/lp/x54gwt890xv47sdkqj1k04q40000gn/T//ccgxl04X.s 			page 55


 1347              		.loc 1 617 17 is_stmt 0 view .LVU466
 1348 0100 0024     		movs	r4, #0
 588:Drivers/lvgl/src/draw/lv_img_decoder.c ****     uint8_t px_size            = lv_img_cf_get_px_size(dsc->header.cf);
 1349              		.loc 1 588 22 view .LVU467
 1350 0102 A346     		mov	fp, r4
 618:Drivers/lvgl/src/draw/lv_img_decoder.c ****     }
 1351              		.loc 1 618 13 view .LVU468
 1352 0104 C8E7     		b	.L79
 1353              	.LVL155:
 1354              	.L92:
 595:Drivers/lvgl/src/draw/lv_img_decoder.c ****         case LV_IMG_CF_ALPHA_1BIT:
 1355              		.loc 1 595 5 view .LVU469
 1356 0106 0024     		movs	r4, #0
 1357 0108 A246     		mov	r10, r4
 1358 010a 2046     		mov	r0, r4
 1359              	.LVL156:
 595:Drivers/lvgl/src/draw/lv_img_decoder.c ****         case LV_IMG_CF_ALPHA_1BIT:
 1360              		.loc 1 595 5 view .LVU470
 1361 010c A346     		mov	fp, r4
 1362 010e C3E7     		b	.L79
 1363              	.LVL157:
 1364              	.L93:
 611:Drivers/lvgl/src/draw/lv_img_decoder.c ****             opa_table = alpha4_opa_table;
 1365              		.loc 1 611 17 discriminator 2 view .LVU471
 1366 0110 0024     		movs	r4, #0
 612:Drivers/lvgl/src/draw/lv_img_decoder.c ****             break;
 1367              		.loc 1 612 23 view .LVU472
 1368 0112 0DF1100B 		add	fp, sp, #16
 1369 0116 BFE7     		b	.L79
 1370              	.LVL158:
 1371              	.L86:
 632:Drivers/lvgl/src/draw/lv_img_decoder.c ****         lv_fs_read(&user_data->f, fs_buf, w, NULL);
 1372              		.loc 1 632 9 is_stmt 1 view .LVU473
 1373 0118 0022     		movs	r2, #0
 1374 011a 0AF10401 		add	r1, r10, #4
 1375 011e 0298     		ldr	r0, [sp, #8]
 1376              	.LVL159:
 632:Drivers/lvgl/src/draw/lv_img_decoder.c ****         lv_fs_read(&user_data->f, fs_buf, w, NULL);
 1377              		.loc 1 632 9 is_stmt 0 view .LVU474
 1378 0120 FFF7FEFF 		bl	lv_fs_seek
 1379              	.LVL160:
 633:Drivers/lvgl/src/draw/lv_img_decoder.c ****         data_tmp = fs_buf;
 1380              		.loc 1 633 9 is_stmt 1 view .LVU475
 1381 0124 0023     		movs	r3, #0
 1382 0126 039A     		ldr	r2, [sp, #12]
 1383 0128 DDF804A0 		ldr	r10, [sp, #4]
 1384              	.LVL161:
 633:Drivers/lvgl/src/draw/lv_img_decoder.c ****         data_tmp = fs_buf;
 1385              		.loc 1 633 9 is_stmt 0 view .LVU476
 1386 012c 5146     		mov	r1, r10
 1387 012e 0298     		ldr	r0, [sp, #8]
 1388 0130 FFF7FEFF 		bl	lv_fs_read
 1389              	.LVL162:
 1390              		.loc 1 634 9 is_stmt 1 view .LVU477
 1391              		.loc 1 634 18 is_stmt 0 view .LVU478
 1392 0134 5146     		mov	r1, r10
 1393 0136 BCE7     		b	.L87
ARM GAS  /var/folders/lp/x54gwt890xv47sdkqj1k04q40000gn/T//ccgxl04X.s 			page 56


 1394              	.LVL163:
 1395              	.L89:
 635:Drivers/lvgl/src/draw/lv_img_decoder.c ****     }
 636:Drivers/lvgl/src/draw/lv_img_decoder.c **** 
 637:Drivers/lvgl/src/draw/lv_img_decoder.c ****     for(i = 0; i < len; i++) {
 1396              		.loc 1 637 26 is_stmt 1 discriminator 2 view .LVU479
 1397 0138 0132     		adds	r2, r2, #1
 1398              	.LVL164:
 1399              		.loc 1 637 26 is_stmt 0 discriminator 2 view .LVU480
 1400 013a 12B2     		sxth	r2, r2
 1401              	.LVL165:
 1402              	.L90:
 1403              		.loc 1 637 18 is_stmt 1 discriminator 1 view .LVU481
 1404 013c B242     		cmp	r2, r6
 1405 013e 19DA     		bge	.L96
 1406              	.LBB33:
 638:Drivers/lvgl/src/draw/lv_img_decoder.c ****         uint8_t val_act = (*data_tmp >> pos) & mask;
 1407              		.loc 1 638 9 view .LVU482
 1408              		.loc 1 638 28 is_stmt 0 view .LVU483
 1409 0140 0B78     		ldrb	r3, [r1]	@ zero_extendqisi2
 1410              		.loc 1 638 38 view .LVU484
 1411 0142 2341     		asrs	r3, r3, r4
 1412              		.loc 1 638 46 view .LVU485
 1413 0144 03EA0803 		and	r3, r3, r8
 1414              		.loc 1 638 17 view .LVU486
 1415 0148 DBB2     		uxtb	r3, r3
 1416              	.LVL166:
 639:Drivers/lvgl/src/draw/lv_img_decoder.c **** 
 640:Drivers/lvgl/src/draw/lv_img_decoder.c ****         buf[i * LV_IMG_PX_SIZE_ALPHA_BYTE + LV_IMG_PX_SIZE_ALPHA_BYTE - 1] =
 1417              		.loc 1 640 9 is_stmt 1 view .LVU487
 641:Drivers/lvgl/src/draw/lv_img_decoder.c ****             dsc->header.cf == LV_IMG_CF_ALPHA_8BIT ? val_act : opa_table[val_act];
 1418              		.loc 1 641 28 is_stmt 0 view .LVU488
 1419 014a 387D     		ldrb	r0, [r7, #20]	@ zero_extendqisi2
 1420 014c 00F01F00 		and	r0, r0, #31
 640:Drivers/lvgl/src/draw/lv_img_decoder.c ****             dsc->header.cf == LV_IMG_CF_ALPHA_8BIT ? val_act : opa_table[val_act];
 1421              		.loc 1 640 76 view .LVU489
 1422 0150 0E28     		cmp	r0, #14
 1423 0152 01D0     		beq	.L88
 640:Drivers/lvgl/src/draw/lv_img_decoder.c ****             dsc->header.cf == LV_IMG_CF_ALPHA_8BIT ? val_act : opa_table[val_act];
 1424              		.loc 1 640 76 discriminator 1 view .LVU490
 1425 0154 1BF80330 		ldrb	r3, [fp, r3]	@ zero_extendqisi2
 1426              	.LVL167:
 1427              	.L88:
 640:Drivers/lvgl/src/draw/lv_img_decoder.c ****             dsc->header.cf == LV_IMG_CF_ALPHA_8BIT ? val_act : opa_table[val_act];
 1428              		.loc 1 640 15 discriminator 4 view .LVU491
 1429 0158 02EB4200 		add	r0, r2, r2, lsl #1
 640:Drivers/lvgl/src/draw/lv_img_decoder.c ****             dsc->header.cf == LV_IMG_CF_ALPHA_8BIT ? val_act : opa_table[val_act];
 1430              		.loc 1 640 12 discriminator 4 view .LVU492
 1431 015c 0230     		adds	r0, r0, #2
 640:Drivers/lvgl/src/draw/lv_img_decoder.c ****             dsc->header.cf == LV_IMG_CF_ALPHA_8BIT ? val_act : opa_table[val_act];
 1432              		.loc 1 640 76 discriminator 4 view .LVU493
 1433 015e 2B54     		strb	r3, [r5, r0]
 1434              	.LVL168:
 642:Drivers/lvgl/src/draw/lv_img_decoder.c **** 
 643:Drivers/lvgl/src/draw/lv_img_decoder.c ****         pos -= px_size;
 1435              		.loc 1 643 9 is_stmt 1 view .LVU494
 1436              		.loc 1 643 13 is_stmt 0 view .LVU495
ARM GAS  /var/folders/lp/x54gwt890xv47sdkqj1k04q40000gn/T//ccgxl04X.s 			page 57


 1437 0160 A4EB0904 		sub	r4, r4, r9
 1438              	.LVL169:
 1439              		.loc 1 643 13 view .LVU496
 1440 0164 64B2     		sxtb	r4, r4
 1441              	.LVL170:
 644:Drivers/lvgl/src/draw/lv_img_decoder.c ****         if(pos < 0) {
 1442              		.loc 1 644 9 is_stmt 1 view .LVU497
 1443              		.loc 1 644 11 is_stmt 0 view .LVU498
 1444 0166 002C     		cmp	r4, #0
 1445 0168 E6DA     		bge	.L89
 645:Drivers/lvgl/src/draw/lv_img_decoder.c ****             pos = 8 - px_size;
 1446              		.loc 1 645 13 is_stmt 1 view .LVU499
 1447              		.loc 1 645 21 is_stmt 0 view .LVU500
 1448 016a C9F10804 		rsb	r4, r9, #8
 1449              	.LVL171:
 1450              		.loc 1 645 17 view .LVU501
 1451 016e 64B2     		sxtb	r4, r4
 1452              	.LVL172:
 646:Drivers/lvgl/src/draw/lv_img_decoder.c ****             data_tmp++;
 1453              		.loc 1 646 13 is_stmt 1 view .LVU502
 1454              		.loc 1 646 21 is_stmt 0 view .LVU503
 1455 0170 0131     		adds	r1, r1, #1
 1456              	.LVL173:
 1457              		.loc 1 646 21 view .LVU504
 1458 0172 E1E7     		b	.L89
 1459              	.LVL174:
 1460              	.L96:
 1461              		.loc 1 646 21 view .LVU505
 1462              	.LBE33:
 647:Drivers/lvgl/src/draw/lv_img_decoder.c ****         }
 648:Drivers/lvgl/src/draw/lv_img_decoder.c ****     }
 649:Drivers/lvgl/src/draw/lv_img_decoder.c ****     lv_mem_buf_release(fs_buf);
 1463              		.loc 1 649 5 is_stmt 1 view .LVU506
 1464 0174 0198     		ldr	r0, [sp, #4]
 1465 0176 FFF7FEFF 		bl	lv_mem_buf_release
 1466              	.LVL175:
 650:Drivers/lvgl/src/draw/lv_img_decoder.c ****     return LV_RES_OK;
 1467              		.loc 1 650 5 view .LVU507
 1468              		.loc 1 650 12 is_stmt 0 view .LVU508
 1469 017a 0120     		movs	r0, #1
 1470              	.LVL176:
 1471              	.L85:
 651:Drivers/lvgl/src/draw/lv_img_decoder.c **** }
 1472              		.loc 1 651 1 view .LVU509
 1473 017c 0BB0     		add	sp, sp, #44
 1474              		.cfi_remember_state
 1475              		.cfi_def_cfa_offset 36
 1476              		@ sp needed
 1477 017e BDE8F08F 		pop	{r4, r5, r6, r7, r8, r9, r10, fp, pc}
 1478              	.LVL177:
 1479              	.L94:
 1480              		.cfi_restore_state
 623:Drivers/lvgl/src/draw/lv_img_decoder.c **** 
 1481              		.loc 1 623 31 discriminator 1 view .LVU510
 1482 0182 0020     		movs	r0, #0
 1483              	.LVL178:
 623:Drivers/lvgl/src/draw/lv_img_decoder.c **** 
ARM GAS  /var/folders/lp/x54gwt890xv47sdkqj1k04q40000gn/T//ccgxl04X.s 			page 58


 1484              		.loc 1 623 31 discriminator 1 view .LVU511
 1485 0184 FAE7     		b	.L85
 1486              	.L98:
 1487 0186 00BF     		.align	2
 1488              	.L97:
 1489 0188 00000000 		.word	.LANCHOR0
 1490              		.cfi_endproc
 1491              	.LFE72:
 1493              		.section	.text.lv_img_decoder_built_in_line_indexed,"ax",%progbits
 1494              		.align	1
 1495              		.syntax unified
 1496              		.thumb
 1497              		.thumb_func
 1499              	lv_img_decoder_built_in_line_indexed:
 1500              	.LVL179:
 1501              	.LFB73:
 652:Drivers/lvgl/src/draw/lv_img_decoder.c **** 
 653:Drivers/lvgl/src/draw/lv_img_decoder.c **** static lv_res_t lv_img_decoder_built_in_line_indexed(lv_img_decoder_dsc_t * dsc, lv_coord_t x, lv_c
 654:Drivers/lvgl/src/draw/lv_img_decoder.c ****                                                      lv_coord_t len, uint8_t * buf)
 655:Drivers/lvgl/src/draw/lv_img_decoder.c **** {
 1502              		.loc 1 655 1 is_stmt 1 view -0
 1503              		.cfi_startproc
 1504              		@ args = 4, pretend = 0, frame = 8
 1505              		@ frame_needed = 0, uses_anonymous_args = 0
 1506              		.loc 1 655 1 is_stmt 0 view .LVU513
 1507 0000 2DE9F04F 		push	{r4, r5, r6, r7, r8, r9, r10, fp, lr}
 1508              		.cfi_def_cfa_offset 36
 1509              		.cfi_offset 4, -36
 1510              		.cfi_offset 5, -32
 1511              		.cfi_offset 6, -28
 1512              		.cfi_offset 7, -24
 1513              		.cfi_offset 8, -20
 1514              		.cfi_offset 9, -16
 1515              		.cfi_offset 10, -12
 1516              		.cfi_offset 11, -8
 1517              		.cfi_offset 14, -4
 1518 0004 83B0     		sub	sp, sp, #12
 1519              		.cfi_def_cfa_offset 48
 1520 0006 8246     		mov	r10, r0
 1521 0008 0C46     		mov	r4, r1
 1522 000a 1746     		mov	r7, r2
 1523 000c 9946     		mov	r9, r3
 1524 000e 0C9D     		ldr	r5, [sp, #48]
 656:Drivers/lvgl/src/draw/lv_img_decoder.c ****     uint8_t px_size = lv_img_cf_get_px_size(dsc->header.cf);
 1525              		.loc 1 656 5 is_stmt 1 view .LVU514
 1526              		.loc 1 656 56 is_stmt 0 view .LVU515
 1527 0010 007D     		ldrb	r0, [r0, #20]	@ zero_extendqisi2
 1528              	.LVL180:
 1529              		.loc 1 656 23 view .LVU516
 1530 0012 00F01F00 		and	r0, r0, #31
 1531 0016 FFF7FEFF 		bl	lv_img_cf_get_px_size
 1532              	.LVL181:
 1533              		.loc 1 656 23 view .LVU517
 1534 001a 8046     		mov	r8, r0
 1535              	.LVL182:
 657:Drivers/lvgl/src/draw/lv_img_decoder.c ****     uint16_t mask   = (1 << px_size) - 1; /*E.g. px_size = 2; mask = 0x03*/
 1536              		.loc 1 657 5 is_stmt 1 view .LVU518
ARM GAS  /var/folders/lp/x54gwt890xv47sdkqj1k04q40000gn/T//ccgxl04X.s 			page 59


 1537              		.loc 1 657 26 is_stmt 0 view .LVU519
 1538 001c 0126     		movs	r6, #1
 1539 001e 8640     		lsls	r6, r6, r0
 1540              		.loc 1 657 38 view .LVU520
 1541 0020 B6B2     		uxth	r6, r6
 1542              		.loc 1 657 14 view .LVU521
 1543 0022 013E     		subs	r6, r6, #1
 1544 0024 B6B2     		uxth	r6, r6
 1545              	.LVL183:
 658:Drivers/lvgl/src/draw/lv_img_decoder.c **** 
 659:Drivers/lvgl/src/draw/lv_img_decoder.c ****     lv_coord_t w = 0;
 1546              		.loc 1 659 5 is_stmt 1 view .LVU522
 660:Drivers/lvgl/src/draw/lv_img_decoder.c ****     int8_t pos   = 0;
 1547              		.loc 1 660 5 view .LVU523
 661:Drivers/lvgl/src/draw/lv_img_decoder.c ****     uint32_t ofs = 0;
 1548              		.loc 1 661 5 view .LVU524
 662:Drivers/lvgl/src/draw/lv_img_decoder.c ****     switch(dsc->header.cf) {
 1549              		.loc 1 662 5 view .LVU525
 1550              		.loc 1 662 23 is_stmt 0 view .LVU526
 1551 0026 9AF81430 		ldrb	r3, [r10, #20]	@ zero_extendqisi2
 1552 002a 03F01F03 		and	r3, r3, #31
 1553              		.loc 1 662 5 view .LVU527
 1554 002e 073B     		subs	r3, r3, #7
 1555 0030 032B     		cmp	r3, #3
 1556 0032 52D8     		bhi	.L112
 1557 0034 DFE803F0 		tbb	[pc, r3]
 1558              	.L102:
 1559 0038 02       		.byte	(.L105-.L102)/2
 1560 0039 23       		.byte	(.L104-.L102)/2
 1561 003a 35       		.byte	(.L103-.L102)/2
 1562 003b 46       		.byte	(.L101-.L102)/2
 1563              		.p2align 1
 1564              	.L105:
 663:Drivers/lvgl/src/draw/lv_img_decoder.c ****         case LV_IMG_CF_INDEXED_1BIT:
 664:Drivers/lvgl/src/draw/lv_img_decoder.c ****             w = (dsc->header.w + 7) >> 3; /*E.g. w = 20 -> w = 2 + 1*/
 1565              		.loc 1 664 13 is_stmt 1 view .LVU528
 1566              		.loc 1 664 29 is_stmt 0 view .LVU529
 1567 003c DAF81430 		ldr	r3, [r10, #20]
 1568 0040 C3F38A20 		ubfx	r0, r3, #10, #11
 1569              	.LVL184:
 1570              		.loc 1 664 32 view .LVU530
 1571 0044 0730     		adds	r0, r0, #7
 1572              		.loc 1 664 15 view .LVU531
 1573 0046 C010     		asrs	r0, r0, #3
 1574              	.LVL185:
 665:Drivers/lvgl/src/draw/lv_img_decoder.c ****             ofs += w * y + (x >> 3); /*First pixel*/
 1575              		.loc 1 665 13 is_stmt 1 view .LVU532
 1576              		.loc 1 665 31 is_stmt 0 view .LVU533
 1577 0048 4FEAE40B 		asr	fp, r4, #3
 1578              		.loc 1 665 26 view .LVU534
 1579 004c 07FB00BB 		mla	fp, r7, r0, fp
 1580              	.LVL186:
 666:Drivers/lvgl/src/draw/lv_img_decoder.c ****             ofs += 8;                /*Skip the palette*/
 1581              		.loc 1 666 13 is_stmt 1 view .LVU535
 1582              		.loc 1 666 17 is_stmt 0 view .LVU536
 1583 0050 0BF1080B 		add	fp, fp, #8
 1584              	.LVL187:
ARM GAS  /var/folders/lp/x54gwt890xv47sdkqj1k04q40000gn/T//ccgxl04X.s 			page 60


 667:Drivers/lvgl/src/draw/lv_img_decoder.c ****             pos = 7 - (x & 0x7);
 1585              		.loc 1 667 13 is_stmt 1 view .LVU537
 1586              		.loc 1 667 21 is_stmt 0 view .LVU538
 1587 0054 E443     		mvns	r4, r4
 1588              	.LVL188:
 1589              		.loc 1 667 17 view .LVU539
 1590 0056 04F00704 		and	r4, r4, #7
 1591              	.LVL189:
 668:Drivers/lvgl/src/draw/lv_img_decoder.c ****             break;
 1592              		.loc 1 668 13 is_stmt 1 view .LVU540
 1593              	.L100:
 669:Drivers/lvgl/src/draw/lv_img_decoder.c ****         case LV_IMG_CF_INDEXED_2BIT:
 670:Drivers/lvgl/src/draw/lv_img_decoder.c ****             w = (dsc->header.w + 3) >> 2; /*E.g. w = 13 -> w = 3 + 1 (bytes)*/
 671:Drivers/lvgl/src/draw/lv_img_decoder.c ****             ofs += w * y + (x >> 2); /*First pixel*/
 672:Drivers/lvgl/src/draw/lv_img_decoder.c ****             ofs += 16;               /*Skip the palette*/
 673:Drivers/lvgl/src/draw/lv_img_decoder.c ****             pos = 6 - (x & 0x3) * 2;
 674:Drivers/lvgl/src/draw/lv_img_decoder.c ****             break;
 675:Drivers/lvgl/src/draw/lv_img_decoder.c ****         case LV_IMG_CF_INDEXED_4BIT:
 676:Drivers/lvgl/src/draw/lv_img_decoder.c ****             w = (dsc->header.w + 1) >> 1; /*E.g. w = 13 -> w = 6 + 1 (bytes)*/
 677:Drivers/lvgl/src/draw/lv_img_decoder.c ****             ofs += w * y + (x >> 1); /*First pixel*/
 678:Drivers/lvgl/src/draw/lv_img_decoder.c ****             ofs += 64;               /*Skip the palette*/
 679:Drivers/lvgl/src/draw/lv_img_decoder.c ****             pos = 4 - (x & 0x1) * 4;
 680:Drivers/lvgl/src/draw/lv_img_decoder.c ****             break;
 681:Drivers/lvgl/src/draw/lv_img_decoder.c ****         case LV_IMG_CF_INDEXED_8BIT:
 682:Drivers/lvgl/src/draw/lv_img_decoder.c ****             w = dsc->header.w; /*E.g. x = 7 -> w = 7 (bytes)*/
 683:Drivers/lvgl/src/draw/lv_img_decoder.c ****             ofs += w * y + x;  /*First pixel*/
 684:Drivers/lvgl/src/draw/lv_img_decoder.c ****             ofs += 1024;       /*Skip the palette*/
 685:Drivers/lvgl/src/draw/lv_img_decoder.c ****             pos = 0;
 686:Drivers/lvgl/src/draw/lv_img_decoder.c ****             break;
 687:Drivers/lvgl/src/draw/lv_img_decoder.c ****     }
 688:Drivers/lvgl/src/draw/lv_img_decoder.c **** 
 689:Drivers/lvgl/src/draw/lv_img_decoder.c ****     lv_img_decoder_built_in_data_t * user_data = dsc->user_data;
 1594              		.loc 1 689 5 view .LVU541
 1595              		.loc 1 689 38 is_stmt 0 view .LVU542
 1596 005a DAF82470 		ldr	r7, [r10, #36]
 1597              	.LVL190:
 690:Drivers/lvgl/src/draw/lv_img_decoder.c **** 
 691:Drivers/lvgl/src/draw/lv_img_decoder.c ****     uint8_t * fs_buf = lv_mem_buf_get(w);
 1598              		.loc 1 691 5 is_stmt 1 view .LVU543
 1599              		.loc 1 691 24 is_stmt 0 view .LVU544
 1600 005e 0190     		str	r0, [sp, #4]
 1601 0060 FFF7FEFF 		bl	lv_mem_buf_get
 1602              	.LVL191:
 692:Drivers/lvgl/src/draw/lv_img_decoder.c ****     if(fs_buf == NULL) return LV_RES_INV;
 1603              		.loc 1 692 5 is_stmt 1 view .LVU545
 1604              		.loc 1 692 7 is_stmt 0 view .LVU546
 1605 0064 0090     		str	r0, [sp]
 1606 0066 0028     		cmp	r0, #0
 1607 0068 78D0     		beq	.L114
 693:Drivers/lvgl/src/draw/lv_img_decoder.c ****     const uint8_t * data_tmp = NULL;
 1608              		.loc 1 693 5 is_stmt 1 view .LVU547
 1609              	.LVL192:
 694:Drivers/lvgl/src/draw/lv_img_decoder.c ****     if(dsc->src_type == LV_IMG_SRC_VARIABLE) {
 1610              		.loc 1 694 5 view .LVU548
 1611              		.loc 1 694 11 is_stmt 0 view .LVU549
 1612 006a 9AF81030 		ldrb	r3, [r10, #16]	@ zero_extendqisi2
 1613              		.loc 1 694 7 view .LVU550
ARM GAS  /var/folders/lp/x54gwt890xv47sdkqj1k04q40000gn/T//ccgxl04X.s 			page 61


 1614 006e DBBB     		cbnz	r3, .L107
 1615              	.LBB34:
 695:Drivers/lvgl/src/draw/lv_img_decoder.c ****         const lv_img_dsc_t * img_dsc = dsc->src;
 1616              		.loc 1 695 9 is_stmt 1 view .LVU551
 1617              		.loc 1 695 30 is_stmt 0 view .LVU552
 1618 0070 DAF80430 		ldr	r3, [r10, #4]
 1619              	.LVL193:
 696:Drivers/lvgl/src/draw/lv_img_decoder.c ****         data_tmp                     = img_dsc->data + ofs;
 1620              		.loc 1 696 9 is_stmt 1 view .LVU553
 1621              		.loc 1 696 47 is_stmt 0 view .LVU554
 1622 0074 9B68     		ldr	r3, [r3, #8]
 1623              	.LVL194:
 1624              		.loc 1 696 38 view .LVU555
 1625 0076 03EB0B0C 		add	ip, r3, fp
 1626              	.LVL195:
 1627              	.L108:
 1628              		.loc 1 696 38 view .LVU556
 1629              	.LBE34:
 697:Drivers/lvgl/src/draw/lv_img_decoder.c ****     }
 698:Drivers/lvgl/src/draw/lv_img_decoder.c ****     else {
 699:Drivers/lvgl/src/draw/lv_img_decoder.c ****         lv_fs_seek(&user_data->f, ofs + 4, LV_FS_SEEK_SET); /*+4 to skip the header*/
 700:Drivers/lvgl/src/draw/lv_img_decoder.c ****         lv_fs_read(&user_data->f, fs_buf, w, NULL);
 701:Drivers/lvgl/src/draw/lv_img_decoder.c ****         data_tmp = fs_buf;
 1630              		.loc 1 701 18 view .LVU557
 1631 007a 0020     		movs	r0, #0
 1632 007c 46E0     		b	.L110
 1633              	.LVL196:
 1634              	.L104:
 670:Drivers/lvgl/src/draw/lv_img_decoder.c ****             ofs += w * y + (x >> 2); /*First pixel*/
 1635              		.loc 1 670 13 is_stmt 1 view .LVU558
 670:Drivers/lvgl/src/draw/lv_img_decoder.c ****             ofs += w * y + (x >> 2); /*First pixel*/
 1636              		.loc 1 670 29 is_stmt 0 view .LVU559
 1637 007e DAF81430 		ldr	r3, [r10, #20]
 1638 0082 C3F38A20 		ubfx	r0, r3, #10, #11
 1639              	.LVL197:
 670:Drivers/lvgl/src/draw/lv_img_decoder.c ****             ofs += w * y + (x >> 2); /*First pixel*/
 1640              		.loc 1 670 32 view .LVU560
 1641 0086 0330     		adds	r0, r0, #3
 670:Drivers/lvgl/src/draw/lv_img_decoder.c ****             ofs += w * y + (x >> 2); /*First pixel*/
 1642              		.loc 1 670 15 view .LVU561
 1643 0088 8010     		asrs	r0, r0, #2
 1644              	.LVL198:
 671:Drivers/lvgl/src/draw/lv_img_decoder.c ****             ofs += 16;               /*Skip the palette*/
 1645              		.loc 1 671 13 is_stmt 1 view .LVU562
 671:Drivers/lvgl/src/draw/lv_img_decoder.c ****             ofs += 16;               /*Skip the palette*/
 1646              		.loc 1 671 31 is_stmt 0 view .LVU563
 1647 008a 4FEAA40B 		asr	fp, r4, #2
 671:Drivers/lvgl/src/draw/lv_img_decoder.c ****             ofs += 16;               /*Skip the palette*/
 1648              		.loc 1 671 26 view .LVU564
 1649 008e 07FB00BB 		mla	fp, r7, r0, fp
 1650              	.LVL199:
 672:Drivers/lvgl/src/draw/lv_img_decoder.c ****             pos = 6 - (x & 0x3) * 2;
 1651              		.loc 1 672 13 is_stmt 1 view .LVU565
 672:Drivers/lvgl/src/draw/lv_img_decoder.c ****             pos = 6 - (x & 0x3) * 2;
 1652              		.loc 1 672 17 is_stmt 0 view .LVU566
 1653 0092 0BF1100B 		add	fp, fp, #16
 1654              	.LVL200:
ARM GAS  /var/folders/lp/x54gwt890xv47sdkqj1k04q40000gn/T//ccgxl04X.s 			page 62


 673:Drivers/lvgl/src/draw/lv_img_decoder.c ****             break;
 1655              		.loc 1 673 13 is_stmt 1 view .LVU567
 673:Drivers/lvgl/src/draw/lv_img_decoder.c ****             break;
 1656              		.loc 1 673 21 is_stmt 0 view .LVU568
 1657 0096 A4B2     		uxth	r4, r4
 1658 0098 E443     		mvns	r4, r4
 673:Drivers/lvgl/src/draw/lv_img_decoder.c ****             break;
 1659              		.loc 1 673 17 view .LVU569
 1660 009a 04F00304 		and	r4, r4, #3
 1661 009e 6400     		lsls	r4, r4, #1
 1662              	.LVL201:
 674:Drivers/lvgl/src/draw/lv_img_decoder.c ****         case LV_IMG_CF_INDEXED_4BIT:
 1663              		.loc 1 674 13 is_stmt 1 view .LVU570
 1664 00a0 DBE7     		b	.L100
 1665              	.LVL202:
 1666              	.L103:
 676:Drivers/lvgl/src/draw/lv_img_decoder.c ****             ofs += w * y + (x >> 1); /*First pixel*/
 1667              		.loc 1 676 13 view .LVU571
 676:Drivers/lvgl/src/draw/lv_img_decoder.c ****             ofs += w * y + (x >> 1); /*First pixel*/
 1668              		.loc 1 676 29 is_stmt 0 view .LVU572
 1669 00a2 DAF81430 		ldr	r3, [r10, #20]
 1670 00a6 C3F38A20 		ubfx	r0, r3, #10, #11
 1671              	.LVL203:
 676:Drivers/lvgl/src/draw/lv_img_decoder.c ****             ofs += w * y + (x >> 1); /*First pixel*/
 1672              		.loc 1 676 32 view .LVU573
 1673 00aa 0130     		adds	r0, r0, #1
 676:Drivers/lvgl/src/draw/lv_img_decoder.c ****             ofs += w * y + (x >> 1); /*First pixel*/
 1674              		.loc 1 676 15 view .LVU574
 1675 00ac 4010     		asrs	r0, r0, #1
 1676              	.LVL204:
 677:Drivers/lvgl/src/draw/lv_img_decoder.c ****             ofs += 64;               /*Skip the palette*/
 1677              		.loc 1 677 13 is_stmt 1 view .LVU575
 677:Drivers/lvgl/src/draw/lv_img_decoder.c ****             ofs += 64;               /*Skip the palette*/
 1678              		.loc 1 677 31 is_stmt 0 view .LVU576
 1679 00ae 4FEA640B 		asr	fp, r4, #1
 677:Drivers/lvgl/src/draw/lv_img_decoder.c ****             ofs += 64;               /*Skip the palette*/
 1680              		.loc 1 677 26 view .LVU577
 1681 00b2 07FB00BB 		mla	fp, r7, r0, fp
 1682              	.LVL205:
 678:Drivers/lvgl/src/draw/lv_img_decoder.c ****             pos = 4 - (x & 0x1) * 4;
 1683              		.loc 1 678 13 is_stmt 1 view .LVU578
 678:Drivers/lvgl/src/draw/lv_img_decoder.c ****             pos = 4 - (x & 0x1) * 4;
 1684              		.loc 1 678 17 is_stmt 0 view .LVU579
 1685 00b6 0BF1400B 		add	fp, fp, #64
 1686              	.LVL206:
 679:Drivers/lvgl/src/draw/lv_img_decoder.c ****             break;
 1687              		.loc 1 679 13 is_stmt 1 view .LVU580
 679:Drivers/lvgl/src/draw/lv_img_decoder.c ****             break;
 1688              		.loc 1 679 17 is_stmt 0 view .LVU581
 1689 00ba 14F0010F 		tst	r4, #1
 1690 00be 11D1     		bne	.L113
 679:Drivers/lvgl/src/draw/lv_img_decoder.c ****             break;
 1691              		.loc 1 679 17 discriminator 1 view .LVU582
 1692 00c0 0424     		movs	r4, #4
 1693 00c2 CAE7     		b	.L100
 1694              	.LVL207:
 1695              	.L101:
ARM GAS  /var/folders/lp/x54gwt890xv47sdkqj1k04q40000gn/T//ccgxl04X.s 			page 63


 682:Drivers/lvgl/src/draw/lv_img_decoder.c ****             ofs += w * y + x;  /*First pixel*/
 1696              		.loc 1 682 13 is_stmt 1 view .LVU583
 682:Drivers/lvgl/src/draw/lv_img_decoder.c ****             ofs += w * y + x;  /*First pixel*/
 1697              		.loc 1 682 28 is_stmt 0 view .LVU584
 1698 00c4 DAF81400 		ldr	r0, [r10, #20]
 1699              	.LVL208:
 682:Drivers/lvgl/src/draw/lv_img_decoder.c ****             ofs += w * y + x;  /*First pixel*/
 1700              		.loc 1 682 28 view .LVU585
 1701 00c8 C0F38A23 		ubfx	r3, r0, #10, #11
 682:Drivers/lvgl/src/draw/lv_img_decoder.c ****             ofs += w * y + x;  /*First pixel*/
 1702              		.loc 1 682 15 view .LVU586
 1703 00cc 1846     		mov	r0, r3
 1704              	.LVL209:
 683:Drivers/lvgl/src/draw/lv_img_decoder.c ****             ofs += 1024;       /*Skip the palette*/
 1705              		.loc 1 683 13 is_stmt 1 view .LVU587
 683:Drivers/lvgl/src/draw/lv_img_decoder.c ****             ofs += 1024;       /*Skip the palette*/
 1706              		.loc 1 683 26 is_stmt 0 view .LVU588
 1707 00ce 07FB0344 		mla	r4, r7, r3, r4
 1708              	.LVL210:
 684:Drivers/lvgl/src/draw/lv_img_decoder.c ****             pos = 0;
 1709              		.loc 1 684 13 is_stmt 1 view .LVU589
 684:Drivers/lvgl/src/draw/lv_img_decoder.c ****             pos = 0;
 1710              		.loc 1 684 17 is_stmt 0 view .LVU590
 1711 00d2 04F5806B 		add	fp, r4, #1024
 1712              	.LVL211:
 685:Drivers/lvgl/src/draw/lv_img_decoder.c ****             break;
 1713              		.loc 1 685 13 is_stmt 1 view .LVU591
 686:Drivers/lvgl/src/draw/lv_img_decoder.c ****     }
 1714              		.loc 1 686 13 view .LVU592
 685:Drivers/lvgl/src/draw/lv_img_decoder.c ****             break;
 1715              		.loc 1 685 17 is_stmt 0 view .LVU593
 1716 00d6 0024     		movs	r4, #0
 686:Drivers/lvgl/src/draw/lv_img_decoder.c ****     }
 1717              		.loc 1 686 13 view .LVU594
 1718 00d8 BFE7     		b	.L100
 1719              	.LVL212:
 1720              	.L112:
 662:Drivers/lvgl/src/draw/lv_img_decoder.c ****         case LV_IMG_CF_INDEXED_1BIT:
 1721              		.loc 1 662 5 view .LVU595
 1722 00da 4FF0000B 		mov	fp, #0
 1723 00de 5C46     		mov	r4, fp
 1724 00e0 5846     		mov	r0, fp
 1725              	.LVL213:
 662:Drivers/lvgl/src/draw/lv_img_decoder.c ****         case LV_IMG_CF_INDEXED_1BIT:
 1726              		.loc 1 662 5 view .LVU596
 1727 00e2 BAE7     		b	.L100
 1728              	.LVL214:
 1729              	.L113:
 679:Drivers/lvgl/src/draw/lv_img_decoder.c ****             break;
 1730              		.loc 1 679 17 discriminator 2 view .LVU597
 1731 00e4 0024     		movs	r4, #0
 1732 00e6 B8E7     		b	.L100
 1733              	.LVL215:
 1734              	.L107:
 699:Drivers/lvgl/src/draw/lv_img_decoder.c ****         lv_fs_read(&user_data->f, fs_buf, w, NULL);
 1735              		.loc 1 699 9 is_stmt 1 view .LVU598
 1736 00e8 0022     		movs	r2, #0
ARM GAS  /var/folders/lp/x54gwt890xv47sdkqj1k04q40000gn/T//ccgxl04X.s 			page 64


 1737 00ea 0BF10401 		add	r1, fp, #4
 1738 00ee 3846     		mov	r0, r7
 1739              	.LVL216:
 699:Drivers/lvgl/src/draw/lv_img_decoder.c ****         lv_fs_read(&user_data->f, fs_buf, w, NULL);
 1740              		.loc 1 699 9 is_stmt 0 view .LVU599
 1741 00f0 FFF7FEFF 		bl	lv_fs_seek
 1742              	.LVL217:
 700:Drivers/lvgl/src/draw/lv_img_decoder.c ****         data_tmp = fs_buf;
 1743              		.loc 1 700 9 is_stmt 1 view .LVU600
 1744 00f4 0023     		movs	r3, #0
 1745 00f6 019A     		ldr	r2, [sp, #4]
 1746 00f8 DDF800A0 		ldr	r10, [sp]
 1747              	.LVL218:
 700:Drivers/lvgl/src/draw/lv_img_decoder.c ****         data_tmp = fs_buf;
 1748              		.loc 1 700 9 is_stmt 0 view .LVU601
 1749 00fc 5146     		mov	r1, r10
 1750 00fe 3846     		mov	r0, r7
 1751 0100 FFF7FEFF 		bl	lv_fs_read
 1752              	.LVL219:
 1753              		.loc 1 701 9 is_stmt 1 view .LVU602
 1754              		.loc 1 701 18 is_stmt 0 view .LVU603
 1755 0104 D446     		mov	ip, r10
 1756 0106 B8E7     		b	.L108
 1757              	.LVL220:
 1758              	.L109:
 702:Drivers/lvgl/src/draw/lv_img_decoder.c ****     }
 703:Drivers/lvgl/src/draw/lv_img_decoder.c **** 
 704:Drivers/lvgl/src/draw/lv_img_decoder.c ****     lv_coord_t i;
 705:Drivers/lvgl/src/draw/lv_img_decoder.c ****     for(i = 0; i < len; i++) {
 1759              		.loc 1 705 26 is_stmt 1 discriminator 2 view .LVU604
 1760 0108 0130     		adds	r0, r0, #1
 1761              	.LVL221:
 1762              		.loc 1 705 26 is_stmt 0 discriminator 2 view .LVU605
 1763 010a 00B2     		sxth	r0, r0
 1764              	.LVL222:
 1765              	.L110:
 1766              		.loc 1 705 18 is_stmt 1 discriminator 1 view .LVU606
 1767 010c 4845     		cmp	r0, r9
 1768 010e 1EDA     		bge	.L116
 1769              	.LBB35:
 706:Drivers/lvgl/src/draw/lv_img_decoder.c ****         uint8_t val_act = (*data_tmp >> pos) & mask;
 1770              		.loc 1 706 9 view .LVU607
 1771              		.loc 1 706 28 is_stmt 0 view .LVU608
 1772 0110 9CF80030 		ldrb	r3, [ip]	@ zero_extendqisi2
 1773              		.loc 1 706 38 view .LVU609
 1774 0114 2341     		asrs	r3, r3, r4
 1775              		.loc 1 706 46 view .LVU610
 1776 0116 3340     		ands	r3, r3, r6
 1777              		.loc 1 706 17 view .LVU611
 1778 0118 DBB2     		uxtb	r3, r3
 1779              	.LVL223:
 707:Drivers/lvgl/src/draw/lv_img_decoder.c **** 
 708:Drivers/lvgl/src/draw/lv_img_decoder.c ****         lv_color_t color = user_data->palette[val_act];
 1780              		.loc 1 708 9 is_stmt 1 view .LVU612
 1781              		.loc 1 708 37 is_stmt 0 view .LVU613
 1782 011a FA68     		ldr	r2, [r7, #12]
 709:Drivers/lvgl/src/draw/lv_img_decoder.c **** #if LV_COLOR_DEPTH == 8 || LV_COLOR_DEPTH == 1
ARM GAS  /var/folders/lp/x54gwt890xv47sdkqj1k04q40000gn/T//ccgxl04X.s 			page 65


 710:Drivers/lvgl/src/draw/lv_img_decoder.c ****         buf[i * LV_IMG_PX_SIZE_ALPHA_BYTE] = color.full;
 711:Drivers/lvgl/src/draw/lv_img_decoder.c **** #elif LV_COLOR_DEPTH == 16
 712:Drivers/lvgl/src/draw/lv_img_decoder.c ****         /*Because of Alpha byte 16 bit color can start on odd address which can cause crash*/
 713:Drivers/lvgl/src/draw/lv_img_decoder.c ****         buf[i * LV_IMG_PX_SIZE_ALPHA_BYTE] = color.full & 0xFF;
 1783              		.loc 1 713 9 is_stmt 1 view .LVU614
 1784              		.loc 1 713 51 is_stmt 0 view .LVU615
 1785 011c 32F81310 		ldrh	r1, [r2, r3, lsl #1]
 1786              		.loc 1 713 15 view .LVU616
 1787 0120 00EB4002 		add	r2, r0, r0, lsl #1
 1788              		.loc 1 713 44 view .LVU617
 1789 0124 A954     		strb	r1, [r5, r2]
 714:Drivers/lvgl/src/draw/lv_img_decoder.c ****         buf[i * LV_IMG_PX_SIZE_ALPHA_BYTE + 1] = (color.full >> 8) & 0xFF;
 1790              		.loc 1 714 9 is_stmt 1 view .LVU618
 1791              		.loc 1 714 12 is_stmt 0 view .LVU619
 1792 0126 02F1010E 		add	lr, r2, #1
 1793              		.loc 1 714 48 view .LVU620
 1794 012a 090A     		lsrs	r1, r1, #8
 1795 012c 05F80E10 		strb	r1, [r5, lr]
 715:Drivers/lvgl/src/draw/lv_img_decoder.c **** #elif LV_COLOR_DEPTH == 32
 716:Drivers/lvgl/src/draw/lv_img_decoder.c ****         *((uint32_t *)&buf[i * LV_IMG_PX_SIZE_ALPHA_BYTE]) = color.full;
 717:Drivers/lvgl/src/draw/lv_img_decoder.c **** #else
 718:Drivers/lvgl/src/draw/lv_img_decoder.c **** #error "Invalid LV_COLOR_DEPTH. Check it in lv_conf.h"
 719:Drivers/lvgl/src/draw/lv_img_decoder.c **** #endif
 720:Drivers/lvgl/src/draw/lv_img_decoder.c ****         buf[i * LV_IMG_PX_SIZE_ALPHA_BYTE + LV_IMG_PX_SIZE_ALPHA_BYTE - 1] = user_data->opa[val_act
 1796              		.loc 1 720 9 is_stmt 1 view .LVU621
 1797              		.loc 1 720 87 is_stmt 0 view .LVU622
 1798 0130 3969     		ldr	r1, [r7, #16]
 1799              		.loc 1 720 12 view .LVU623
 1800 0132 0232     		adds	r2, r2, #2
 1801              		.loc 1 720 92 view .LVU624
 1802 0134 CB5C     		ldrb	r3, [r1, r3]	@ zero_extendqisi2
 1803              	.LVL224:
 1804              		.loc 1 720 76 view .LVU625
 1805 0136 AB54     		strb	r3, [r5, r2]
 721:Drivers/lvgl/src/draw/lv_img_decoder.c **** 
 722:Drivers/lvgl/src/draw/lv_img_decoder.c ****         pos -= px_size;
 1806              		.loc 1 722 9 is_stmt 1 view .LVU626
 1807              		.loc 1 722 13 is_stmt 0 view .LVU627
 1808 0138 A4EB0804 		sub	r4, r4, r8
 1809              	.LVL225:
 1810              		.loc 1 722 13 view .LVU628
 1811 013c 64B2     		sxtb	r4, r4
 1812              	.LVL226:
 723:Drivers/lvgl/src/draw/lv_img_decoder.c ****         if(pos < 0) {
 1813              		.loc 1 723 9 is_stmt 1 view .LVU629
 1814              		.loc 1 723 11 is_stmt 0 view .LVU630
 1815 013e 002C     		cmp	r4, #0
 1816 0140 E2DA     		bge	.L109
 724:Drivers/lvgl/src/draw/lv_img_decoder.c ****             pos = 8 - px_size;
 1817              		.loc 1 724 13 is_stmt 1 view .LVU631
 1818              		.loc 1 724 21 is_stmt 0 view .LVU632
 1819 0142 C8F10804 		rsb	r4, r8, #8
 1820              	.LVL227:
 1821              		.loc 1 724 17 view .LVU633
 1822 0146 64B2     		sxtb	r4, r4
 1823              	.LVL228:
 725:Drivers/lvgl/src/draw/lv_img_decoder.c ****             data_tmp++;
ARM GAS  /var/folders/lp/x54gwt890xv47sdkqj1k04q40000gn/T//ccgxl04X.s 			page 66


 1824              		.loc 1 725 13 is_stmt 1 view .LVU634
 1825              		.loc 1 725 21 is_stmt 0 view .LVU635
 1826 0148 0CF1010C 		add	ip, ip, #1
 1827              	.LVL229:
 1828              		.loc 1 725 21 view .LVU636
 1829 014c DCE7     		b	.L109
 1830              	.LVL230:
 1831              	.L116:
 1832              		.loc 1 725 21 view .LVU637
 1833              	.LBE35:
 726:Drivers/lvgl/src/draw/lv_img_decoder.c ****         }
 727:Drivers/lvgl/src/draw/lv_img_decoder.c ****     }
 728:Drivers/lvgl/src/draw/lv_img_decoder.c ****     lv_mem_buf_release(fs_buf);
 1834              		.loc 1 728 5 is_stmt 1 view .LVU638
 1835 014e 0098     		ldr	r0, [sp]
 1836              	.LVL231:
 1837              		.loc 1 728 5 is_stmt 0 view .LVU639
 1838 0150 FFF7FEFF 		bl	lv_mem_buf_release
 1839              	.LVL232:
 729:Drivers/lvgl/src/draw/lv_img_decoder.c ****     return LV_RES_OK;
 1840              		.loc 1 729 5 is_stmt 1 view .LVU640
 1841              		.loc 1 729 12 is_stmt 0 view .LVU641
 1842 0154 0120     		movs	r0, #1
 1843              	.LVL233:
 1844              	.L106:
 730:Drivers/lvgl/src/draw/lv_img_decoder.c **** }
 1845              		.loc 1 730 1 view .LVU642
 1846 0156 03B0     		add	sp, sp, #12
 1847              		.cfi_remember_state
 1848              		.cfi_def_cfa_offset 36
 1849              	.LVL234:
 1850              		.loc 1 730 1 view .LVU643
 1851              		@ sp needed
 1852 0158 BDE8F08F 		pop	{r4, r5, r6, r7, r8, r9, r10, fp, pc}
 1853              	.LVL235:
 1854              	.L114:
 1855              		.cfi_restore_state
 692:Drivers/lvgl/src/draw/lv_img_decoder.c ****     const uint8_t * data_tmp = NULL;
 1856              		.loc 1 692 31 discriminator 1 view .LVU644
 1857 015c 0020     		movs	r0, #0
 1858              	.LVL236:
 692:Drivers/lvgl/src/draw/lv_img_decoder.c ****     const uint8_t * data_tmp = NULL;
 1859              		.loc 1 692 31 discriminator 1 view .LVU645
 1860 015e FAE7     		b	.L106
 1861              		.cfi_endproc
 1862              	.LFE73:
 1864              		.section	.text.lv_img_decoder_built_in_read_line,"ax",%progbits
 1865              		.align	1
 1866              		.global	lv_img_decoder_built_in_read_line
 1867              		.syntax unified
 1868              		.thumb
 1869              		.thumb_func
 1871              	lv_img_decoder_built_in_read_line:
 1872              	.LVL237:
 1873              	.LFB69:
 482:Drivers/lvgl/src/draw/lv_img_decoder.c ****     LV_UNUSED(decoder); /*Unused*/
 1874              		.loc 1 482 1 is_stmt 1 view -0
ARM GAS  /var/folders/lp/x54gwt890xv47sdkqj1k04q40000gn/T//ccgxl04X.s 			page 67


 1875              		.cfi_startproc
 1876              		@ args = 8, pretend = 0, frame = 0
 1877              		@ frame_needed = 0, uses_anonymous_args = 0
 482:Drivers/lvgl/src/draw/lv_img_decoder.c ****     LV_UNUSED(decoder); /*Unused*/
 1878              		.loc 1 482 1 is_stmt 0 view .LVU647
 1879 0000 10B5     		push	{r4, lr}
 1880              		.cfi_def_cfa_offset 8
 1881              		.cfi_offset 4, -8
 1882              		.cfi_offset 14, -4
 1883 0002 82B0     		sub	sp, sp, #8
 1884              		.cfi_def_cfa_offset 16
 1885 0004 0846     		mov	r0, r1
 1886              	.LVL238:
 482:Drivers/lvgl/src/draw/lv_img_decoder.c ****     LV_UNUSED(decoder); /*Unused*/
 1887              		.loc 1 482 1 view .LVU648
 1888 0006 1146     		mov	r1, r2
 1889              	.LVL239:
 482:Drivers/lvgl/src/draw/lv_img_decoder.c ****     LV_UNUSED(decoder); /*Unused*/
 1890              		.loc 1 482 1 view .LVU649
 1891 0008 1A46     		mov	r2, r3
 1892              	.LVL240:
 482:Drivers/lvgl/src/draw/lv_img_decoder.c ****     LV_UNUSED(decoder); /*Unused*/
 1893              		.loc 1 482 1 view .LVU650
 1894 000a BDF91030 		ldrsh	r3, [sp, #16]
 1895              	.LVL241:
 483:Drivers/lvgl/src/draw/lv_img_decoder.c **** 
 1896              		.loc 1 483 5 is_stmt 1 view .LVU651
 485:Drivers/lvgl/src/draw/lv_img_decoder.c **** 
 1897              		.loc 1 485 5 view .LVU652
 487:Drivers/lvgl/src/draw/lv_img_decoder.c ****        dsc->header.cf == LV_IMG_CF_TRUE_COLOR_CHROMA_KEYED) {
 1898              		.loc 1 487 5 view .LVU653
 487:Drivers/lvgl/src/draw/lv_img_decoder.c ****        dsc->header.cf == LV_IMG_CF_TRUE_COLOR_CHROMA_KEYED) {
 1899              		.loc 1 487 23 is_stmt 0 view .LVU654
 1900 000e 90F814C0 		ldrb	ip, [r0, #20]	@ zero_extendqisi2
 487:Drivers/lvgl/src/draw/lv_img_decoder.c ****        dsc->header.cf == LV_IMG_CF_TRUE_COLOR_CHROMA_KEYED) {
 1901              		.loc 1 487 47 view .LVU655
 1902 0012 0CF01E0E 		and	lr, ip, #30
 487:Drivers/lvgl/src/draw/lv_img_decoder.c ****        dsc->header.cf == LV_IMG_CF_TRUE_COLOR_CHROMA_KEYED) {
 1903              		.loc 1 487 7 view .LVU656
 1904 0016 BEF1040F 		cmp	lr, #4
 1905 001a 14D0     		beq	.L118
 488:Drivers/lvgl/src/draw/lv_img_decoder.c ****         /*For TRUE_COLOR images read line required only for files.
 1906              		.loc 1 488 23 view .LVU657
 1907 001c 0CF01F0C 		and	ip, ip, #31
 487:Drivers/lvgl/src/draw/lv_img_decoder.c ****        dsc->header.cf == LV_IMG_CF_TRUE_COLOR_CHROMA_KEYED) {
 1908              		.loc 1 487 95 discriminator 1 view .LVU658
 1909 0020 BCF1060F 		cmp	ip, #6
 1910 0024 0FD0     		beq	.L118
 495:Drivers/lvgl/src/draw/lv_img_decoder.c ****             dsc->header.cf == LV_IMG_CF_ALPHA_4BIT || dsc->header.cf == LV_IMG_CF_ALPHA_8BIT) {
 1911              		.loc 1 495 10 is_stmt 1 view .LVU659
 496:Drivers/lvgl/src/draw/lv_img_decoder.c ****         res = lv_img_decoder_built_in_line_alpha(dsc, x, y, len, buf);
 1912              		.loc 1 496 52 is_stmt 0 view .LVU660
 1913 0026 ACF10B0E 		sub	lr, ip, #11
 1914 002a 5FFA8EFE 		uxtb	lr, lr
 495:Drivers/lvgl/src/draw/lv_img_decoder.c ****             dsc->header.cf == LV_IMG_CF_ALPHA_4BIT || dsc->header.cf == LV_IMG_CF_ALPHA_8BIT) {
 1915              		.loc 1 495 12 view .LVU661
 1916 002e BEF1030F 		cmp	lr, #3
ARM GAS  /var/folders/lp/x54gwt890xv47sdkqj1k04q40000gn/T//ccgxl04X.s 			page 68


 1917 0032 15D9     		bls	.L125
 499:Drivers/lvgl/src/draw/lv_img_decoder.c ****             dsc->header.cf == LV_IMG_CF_INDEXED_4BIT || dsc->header.cf == LV_IMG_CF_INDEXED_8BIT) {
 1918              		.loc 1 499 10 is_stmt 1 view .LVU662
 500:Drivers/lvgl/src/draw/lv_img_decoder.c ****         res = lv_img_decoder_built_in_line_indexed(dsc, x, y, len, buf);
 1919              		.loc 1 500 54 is_stmt 0 view .LVU663
 1920 0034 ACF1070C 		sub	ip, ip, #7
 1921 0038 5FFA8CFC 		uxtb	ip, ip
 499:Drivers/lvgl/src/draw/lv_img_decoder.c ****             dsc->header.cf == LV_IMG_CF_INDEXED_4BIT || dsc->header.cf == LV_IMG_CF_INDEXED_8BIT) {
 1922              		.loc 1 499 12 view .LVU664
 1923 003c BCF1030F 		cmp	ip, #3
 1924 0040 13D9     		bls	.L126
 505:Drivers/lvgl/src/draw/lv_img_decoder.c ****     }
 1925              		.loc 1 505 16 view .LVU665
 1926 0042 0020     		movs	r0, #0
 1927              	.LVL242:
 505:Drivers/lvgl/src/draw/lv_img_decoder.c ****     }
 1928              		.loc 1 505 16 view .LVU666
 1929 0044 05E0     		b	.L120
 1930              	.LVL243:
 1931              	.L118:
 491:Drivers/lvgl/src/draw/lv_img_decoder.c ****             res = lv_img_decoder_built_in_line_true_color(dsc, x, y, len, buf);
 1932              		.loc 1 491 9 is_stmt 1 view .LVU667
 491:Drivers/lvgl/src/draw/lv_img_decoder.c ****             res = lv_img_decoder_built_in_line_true_color(dsc, x, y, len, buf);
 1933              		.loc 1 491 15 is_stmt 0 view .LVU668
 1934 0046 90F810C0 		ldrb	ip, [r0, #16]	@ zero_extendqisi2
 491:Drivers/lvgl/src/draw/lv_img_decoder.c ****             res = lv_img_decoder_built_in_line_true_color(dsc, x, y, len, buf);
 1935              		.loc 1 491 11 view .LVU669
 1936 004a BCF1010F 		cmp	ip, #1
 1937 004e 02D0     		beq	.L127
 485:Drivers/lvgl/src/draw/lv_img_decoder.c **** 
 1938              		.loc 1 485 14 view .LVU670
 1939 0050 0020     		movs	r0, #0
 1940              	.LVL244:
 1941              	.L120:
 509:Drivers/lvgl/src/draw/lv_img_decoder.c **** 
 1942              		.loc 1 509 1 view .LVU671
 1943 0052 02B0     		add	sp, sp, #8
 1944              		.cfi_remember_state
 1945              		.cfi_def_cfa_offset 8
 1946              		@ sp needed
 1947 0054 10BD     		pop	{r4, pc}
 1948              	.LVL245:
 1949              	.L127:
 1950              		.cfi_restore_state
