ARM GAS  /var/folders/lp/x54gwt890xv47sdkqj1k04q40000gn/T//ccXBSBZL.s 			page 1


   1              		.cpu cortex-m4
   2              		.arch armv7e-m
   3              		.fpu fpv4-sp-d16
   4              		.eabi_attribute 27, 1
   5              		.eabi_attribute 28, 1
   6              		.eabi_attribute 20, 1
   7              		.eabi_attribute 21, 1
   8              		.eabi_attribute 23, 3
   9              		.eabi_attribute 24, 1
  10              		.eabi_attribute 25, 1
  11              		.eabi_attribute 26, 1
  12              		.eabi_attribute 30, 1
  13              		.eabi_attribute 34, 1
  14              		.eabi_attribute 18, 4
  15              		.file	"lv_menu.c"
  16              		.text
  17              	.Ltext0:
  18              		.cfi_sections	.debug_frame
  19              		.file 1 "Drivers/lvgl/src/extra/widgets/menu/lv_menu.c"
  20              		.section	.text.lv_menu_destructor,"ax",%progbits
  21              		.align	1
  22              		.syntax unified
  23              		.thumb
  24              		.thumb_func
  26              	lv_menu_destructor:
  27              	.LVL0:
  28              	.LFB186:
   1:Drivers/lvgl/src/extra/widgets/menu/lv_menu.c **** /**
   2:Drivers/lvgl/src/extra/widgets/menu/lv_menu.c ****  * @file lv_menu.c
   3:Drivers/lvgl/src/extra/widgets/menu/lv_menu.c ****  *
   4:Drivers/lvgl/src/extra/widgets/menu/lv_menu.c ****  */
   5:Drivers/lvgl/src/extra/widgets/menu/lv_menu.c **** 
   6:Drivers/lvgl/src/extra/widgets/menu/lv_menu.c **** /*********************
   7:Drivers/lvgl/src/extra/widgets/menu/lv_menu.c ****  *      INCLUDES
   8:Drivers/lvgl/src/extra/widgets/menu/lv_menu.c ****  *********************/
   9:Drivers/lvgl/src/extra/widgets/menu/lv_menu.c **** #include "lv_menu.h"
  10:Drivers/lvgl/src/extra/widgets/menu/lv_menu.c **** 
  11:Drivers/lvgl/src/extra/widgets/menu/lv_menu.c **** #if LV_USE_MENU
  12:Drivers/lvgl/src/extra/widgets/menu/lv_menu.c **** 
  13:Drivers/lvgl/src/extra/widgets/menu/lv_menu.c **** /*********************
  14:Drivers/lvgl/src/extra/widgets/menu/lv_menu.c ****  *      DEFINES
  15:Drivers/lvgl/src/extra/widgets/menu/lv_menu.c ****  *********************/
  16:Drivers/lvgl/src/extra/widgets/menu/lv_menu.c **** #define MY_CLASS &lv_menu_class
  17:Drivers/lvgl/src/extra/widgets/menu/lv_menu.c **** 
  18:Drivers/lvgl/src/extra/widgets/menu/lv_menu.c **** #include "../../../core/lv_obj.h"
  19:Drivers/lvgl/src/extra/widgets/menu/lv_menu.c **** #include "../../layouts/flex/lv_flex.h"
  20:Drivers/lvgl/src/extra/widgets/menu/lv_menu.c **** #include "../../../widgets/lv_label.h"
  21:Drivers/lvgl/src/extra/widgets/menu/lv_menu.c **** #include "../../../widgets/lv_btn.h"
  22:Drivers/lvgl/src/extra/widgets/menu/lv_menu.c **** #include "../../../widgets/lv_img.h"
  23:Drivers/lvgl/src/extra/widgets/menu/lv_menu.c **** 
  24:Drivers/lvgl/src/extra/widgets/menu/lv_menu.c **** /**********************
  25:Drivers/lvgl/src/extra/widgets/menu/lv_menu.c ****  *      TYPEDEFS
  26:Drivers/lvgl/src/extra/widgets/menu/lv_menu.c ****  **********************/
  27:Drivers/lvgl/src/extra/widgets/menu/lv_menu.c **** 
  28:Drivers/lvgl/src/extra/widgets/menu/lv_menu.c **** /**********************
  29:Drivers/lvgl/src/extra/widgets/menu/lv_menu.c ****  *  STATIC PROTOTYPES
  30:Drivers/lvgl/src/extra/widgets/menu/lv_menu.c ****  **********************/
ARM GAS  /var/folders/lp/x54gwt890xv47sdkqj1k04q40000gn/T//ccXBSBZL.s 			page 2


  31:Drivers/lvgl/src/extra/widgets/menu/lv_menu.c **** static void lv_menu_constructor(const lv_obj_class_t * class_p, lv_obj_t * obj);
  32:Drivers/lvgl/src/extra/widgets/menu/lv_menu.c **** static void lv_menu_destructor(const lv_obj_class_t * class_p, lv_obj_t * obj);
  33:Drivers/lvgl/src/extra/widgets/menu/lv_menu.c **** static void lv_menu_page_constructor(const lv_obj_class_t * class_p, lv_obj_t * obj);
  34:Drivers/lvgl/src/extra/widgets/menu/lv_menu.c **** static void lv_menu_page_destructor(const lv_obj_class_t * class_p, lv_obj_t * obj);
  35:Drivers/lvgl/src/extra/widgets/menu/lv_menu.c **** static void lv_menu_cont_constructor(const lv_obj_class_t * class_p, lv_obj_t * obj);
  36:Drivers/lvgl/src/extra/widgets/menu/lv_menu.c **** static void lv_menu_section_constructor(const lv_obj_class_t * class_p, lv_obj_t * obj);
  37:Drivers/lvgl/src/extra/widgets/menu/lv_menu.c **** 
  38:Drivers/lvgl/src/extra/widgets/menu/lv_menu.c **** const lv_obj_class_t lv_menu_class = {
  39:Drivers/lvgl/src/extra/widgets/menu/lv_menu.c ****     .constructor_cb = lv_menu_constructor,
  40:Drivers/lvgl/src/extra/widgets/menu/lv_menu.c ****     .destructor_cb = lv_menu_destructor,
  41:Drivers/lvgl/src/extra/widgets/menu/lv_menu.c ****     .base_class = &lv_obj_class,
  42:Drivers/lvgl/src/extra/widgets/menu/lv_menu.c ****     .width_def = (LV_DPI_DEF * 3) / 2,
  43:Drivers/lvgl/src/extra/widgets/menu/lv_menu.c ****     .height_def = LV_DPI_DEF * 2,
  44:Drivers/lvgl/src/extra/widgets/menu/lv_menu.c ****     .instance_size = sizeof(lv_menu_t)
  45:Drivers/lvgl/src/extra/widgets/menu/lv_menu.c **** };
  46:Drivers/lvgl/src/extra/widgets/menu/lv_menu.c **** const lv_obj_class_t lv_menu_page_class = {
  47:Drivers/lvgl/src/extra/widgets/menu/lv_menu.c ****     .constructor_cb = lv_menu_page_constructor,
  48:Drivers/lvgl/src/extra/widgets/menu/lv_menu.c ****     .destructor_cb = lv_menu_page_destructor,
  49:Drivers/lvgl/src/extra/widgets/menu/lv_menu.c ****     .base_class = &lv_obj_class,
  50:Drivers/lvgl/src/extra/widgets/menu/lv_menu.c ****     .width_def = LV_PCT(100),
  51:Drivers/lvgl/src/extra/widgets/menu/lv_menu.c ****     .height_def = LV_SIZE_CONTENT,
  52:Drivers/lvgl/src/extra/widgets/menu/lv_menu.c ****     .instance_size = sizeof(lv_menu_page_t)
  53:Drivers/lvgl/src/extra/widgets/menu/lv_menu.c **** };
  54:Drivers/lvgl/src/extra/widgets/menu/lv_menu.c **** 
  55:Drivers/lvgl/src/extra/widgets/menu/lv_menu.c **** const lv_obj_class_t lv_menu_cont_class = {
  56:Drivers/lvgl/src/extra/widgets/menu/lv_menu.c ****     .constructor_cb = lv_menu_cont_constructor,
  57:Drivers/lvgl/src/extra/widgets/menu/lv_menu.c ****     .base_class = &lv_obj_class,
  58:Drivers/lvgl/src/extra/widgets/menu/lv_menu.c ****     .width_def = LV_PCT(100),
  59:Drivers/lvgl/src/extra/widgets/menu/lv_menu.c ****     .height_def = LV_SIZE_CONTENT
  60:Drivers/lvgl/src/extra/widgets/menu/lv_menu.c **** };
  61:Drivers/lvgl/src/extra/widgets/menu/lv_menu.c **** 
  62:Drivers/lvgl/src/extra/widgets/menu/lv_menu.c **** const lv_obj_class_t lv_menu_section_class = {
  63:Drivers/lvgl/src/extra/widgets/menu/lv_menu.c ****     .constructor_cb = lv_menu_section_constructor,
  64:Drivers/lvgl/src/extra/widgets/menu/lv_menu.c ****     .base_class = &lv_obj_class,
  65:Drivers/lvgl/src/extra/widgets/menu/lv_menu.c ****     .width_def = LV_PCT(100),
  66:Drivers/lvgl/src/extra/widgets/menu/lv_menu.c ****     .height_def = LV_SIZE_CONTENT
  67:Drivers/lvgl/src/extra/widgets/menu/lv_menu.c **** };
  68:Drivers/lvgl/src/extra/widgets/menu/lv_menu.c **** 
  69:Drivers/lvgl/src/extra/widgets/menu/lv_menu.c **** const lv_obj_class_t lv_menu_separator_class = {
  70:Drivers/lvgl/src/extra/widgets/menu/lv_menu.c ****     .base_class = &lv_obj_class,
  71:Drivers/lvgl/src/extra/widgets/menu/lv_menu.c ****     .width_def = LV_SIZE_CONTENT,
  72:Drivers/lvgl/src/extra/widgets/menu/lv_menu.c ****     .height_def = LV_SIZE_CONTENT
  73:Drivers/lvgl/src/extra/widgets/menu/lv_menu.c **** };
  74:Drivers/lvgl/src/extra/widgets/menu/lv_menu.c **** 
  75:Drivers/lvgl/src/extra/widgets/menu/lv_menu.c **** const lv_obj_class_t lv_menu_sidebar_cont_class = {
  76:Drivers/lvgl/src/extra/widgets/menu/lv_menu.c ****     .base_class = &lv_obj_class
  77:Drivers/lvgl/src/extra/widgets/menu/lv_menu.c **** };
  78:Drivers/lvgl/src/extra/widgets/menu/lv_menu.c **** 
  79:Drivers/lvgl/src/extra/widgets/menu/lv_menu.c **** const lv_obj_class_t lv_menu_main_cont_class = {
  80:Drivers/lvgl/src/extra/widgets/menu/lv_menu.c ****     .base_class = &lv_obj_class
  81:Drivers/lvgl/src/extra/widgets/menu/lv_menu.c **** };
  82:Drivers/lvgl/src/extra/widgets/menu/lv_menu.c **** 
  83:Drivers/lvgl/src/extra/widgets/menu/lv_menu.c **** const lv_obj_class_t lv_menu_main_header_cont_class = {
  84:Drivers/lvgl/src/extra/widgets/menu/lv_menu.c ****     .base_class = &lv_obj_class
  85:Drivers/lvgl/src/extra/widgets/menu/lv_menu.c **** };
  86:Drivers/lvgl/src/extra/widgets/menu/lv_menu.c **** 
  87:Drivers/lvgl/src/extra/widgets/menu/lv_menu.c **** const lv_obj_class_t lv_menu_sidebar_header_cont_class = {
ARM GAS  /var/folders/lp/x54gwt890xv47sdkqj1k04q40000gn/T//ccXBSBZL.s 			page 3


  88:Drivers/lvgl/src/extra/widgets/menu/lv_menu.c ****     .base_class = &lv_obj_class
  89:Drivers/lvgl/src/extra/widgets/menu/lv_menu.c **** };
  90:Drivers/lvgl/src/extra/widgets/menu/lv_menu.c **** 
  91:Drivers/lvgl/src/extra/widgets/menu/lv_menu.c **** static void lv_menu_refr(lv_obj_t * obj);
  92:Drivers/lvgl/src/extra/widgets/menu/lv_menu.c **** static void lv_menu_refr_sidebar_header_mode(lv_obj_t * obj);
  93:Drivers/lvgl/src/extra/widgets/menu/lv_menu.c **** static void lv_menu_refr_main_header_mode(lv_obj_t * obj);
  94:Drivers/lvgl/src/extra/widgets/menu/lv_menu.c **** static void lv_menu_load_page_event_cb(lv_event_t * e);
  95:Drivers/lvgl/src/extra/widgets/menu/lv_menu.c **** static void lv_menu_obj_del_event_cb(lv_event_t * e);
  96:Drivers/lvgl/src/extra/widgets/menu/lv_menu.c **** static void lv_menu_back_event_cb(lv_event_t * e);
  97:Drivers/lvgl/src/extra/widgets/menu/lv_menu.c **** static void lv_menu_value_changed_event_cb(lv_event_t * e);
  98:Drivers/lvgl/src/extra/widgets/menu/lv_menu.c **** /**********************
  99:Drivers/lvgl/src/extra/widgets/menu/lv_menu.c ****  *  STATIC VARIABLES
 100:Drivers/lvgl/src/extra/widgets/menu/lv_menu.c ****  **********************/
 101:Drivers/lvgl/src/extra/widgets/menu/lv_menu.c **** 
 102:Drivers/lvgl/src/extra/widgets/menu/lv_menu.c **** /**********************
 103:Drivers/lvgl/src/extra/widgets/menu/lv_menu.c ****  *      MACROS
 104:Drivers/lvgl/src/extra/widgets/menu/lv_menu.c ****  **********************/
 105:Drivers/lvgl/src/extra/widgets/menu/lv_menu.c **** 
 106:Drivers/lvgl/src/extra/widgets/menu/lv_menu.c **** /**********************
 107:Drivers/lvgl/src/extra/widgets/menu/lv_menu.c ****  *   GLOBAL FUNCTIONS
 108:Drivers/lvgl/src/extra/widgets/menu/lv_menu.c ****  **********************/
 109:Drivers/lvgl/src/extra/widgets/menu/lv_menu.c **** bool lv_menu_item_back_btn_is_root(lv_obj_t * menu, lv_obj_t * obj);
 110:Drivers/lvgl/src/extra/widgets/menu/lv_menu.c **** void lv_menu_clear_history(lv_obj_t * obj);
 111:Drivers/lvgl/src/extra/widgets/menu/lv_menu.c **** 
 112:Drivers/lvgl/src/extra/widgets/menu/lv_menu.c **** lv_obj_t * lv_menu_create(lv_obj_t * parent)
 113:Drivers/lvgl/src/extra/widgets/menu/lv_menu.c **** {
 114:Drivers/lvgl/src/extra/widgets/menu/lv_menu.c ****     LV_LOG_INFO("begin");
 115:Drivers/lvgl/src/extra/widgets/menu/lv_menu.c ****     lv_obj_t * obj = lv_obj_class_create_obj(MY_CLASS, parent);
 116:Drivers/lvgl/src/extra/widgets/menu/lv_menu.c ****     lv_obj_class_init_obj(obj);
 117:Drivers/lvgl/src/extra/widgets/menu/lv_menu.c ****     return obj;
 118:Drivers/lvgl/src/extra/widgets/menu/lv_menu.c **** }
 119:Drivers/lvgl/src/extra/widgets/menu/lv_menu.c **** 
 120:Drivers/lvgl/src/extra/widgets/menu/lv_menu.c **** lv_obj_t * lv_menu_page_create(lv_obj_t * parent, char * title)
 121:Drivers/lvgl/src/extra/widgets/menu/lv_menu.c **** {
 122:Drivers/lvgl/src/extra/widgets/menu/lv_menu.c ****     LV_LOG_INFO("begin");
 123:Drivers/lvgl/src/extra/widgets/menu/lv_menu.c ****     lv_obj_t * obj = lv_obj_class_create_obj(&lv_menu_page_class, parent);
 124:Drivers/lvgl/src/extra/widgets/menu/lv_menu.c ****     lv_obj_class_init_obj(obj);
 125:Drivers/lvgl/src/extra/widgets/menu/lv_menu.c **** 
 126:Drivers/lvgl/src/extra/widgets/menu/lv_menu.c ****     lv_menu_page_t * page = (lv_menu_page_t *)obj;
 127:Drivers/lvgl/src/extra/widgets/menu/lv_menu.c ****     if(title) {
 128:Drivers/lvgl/src/extra/widgets/menu/lv_menu.c ****         page->title = lv_mem_alloc(strlen(title) + 1);
 129:Drivers/lvgl/src/extra/widgets/menu/lv_menu.c ****         LV_ASSERT_MALLOC(page->title);
 130:Drivers/lvgl/src/extra/widgets/menu/lv_menu.c ****         if(page->title == NULL) return NULL;
 131:Drivers/lvgl/src/extra/widgets/menu/lv_menu.c ****         strcpy(page->title, title);
 132:Drivers/lvgl/src/extra/widgets/menu/lv_menu.c ****     }
 133:Drivers/lvgl/src/extra/widgets/menu/lv_menu.c ****     else {
 134:Drivers/lvgl/src/extra/widgets/menu/lv_menu.c ****         page->title = NULL;
 135:Drivers/lvgl/src/extra/widgets/menu/lv_menu.c ****     }
 136:Drivers/lvgl/src/extra/widgets/menu/lv_menu.c **** 
 137:Drivers/lvgl/src/extra/widgets/menu/lv_menu.c ****     return obj;
 138:Drivers/lvgl/src/extra/widgets/menu/lv_menu.c **** }
 139:Drivers/lvgl/src/extra/widgets/menu/lv_menu.c **** 
 140:Drivers/lvgl/src/extra/widgets/menu/lv_menu.c **** lv_obj_t * lv_menu_cont_create(lv_obj_t * parent)
 141:Drivers/lvgl/src/extra/widgets/menu/lv_menu.c **** {
 142:Drivers/lvgl/src/extra/widgets/menu/lv_menu.c ****     LV_LOG_INFO("begin");
 143:Drivers/lvgl/src/extra/widgets/menu/lv_menu.c ****     lv_obj_t * obj = lv_obj_class_create_obj(&lv_menu_cont_class, parent);
 144:Drivers/lvgl/src/extra/widgets/menu/lv_menu.c ****     lv_obj_class_init_obj(obj);
ARM GAS  /var/folders/lp/x54gwt890xv47sdkqj1k04q40000gn/T//ccXBSBZL.s 			page 4


 145:Drivers/lvgl/src/extra/widgets/menu/lv_menu.c ****     return obj;
 146:Drivers/lvgl/src/extra/widgets/menu/lv_menu.c **** }
 147:Drivers/lvgl/src/extra/widgets/menu/lv_menu.c **** 
 148:Drivers/lvgl/src/extra/widgets/menu/lv_menu.c **** lv_obj_t * lv_menu_section_create(lv_obj_t * parent)
 149:Drivers/lvgl/src/extra/widgets/menu/lv_menu.c **** {
 150:Drivers/lvgl/src/extra/widgets/menu/lv_menu.c ****     LV_LOG_INFO("begin");
 151:Drivers/lvgl/src/extra/widgets/menu/lv_menu.c ****     lv_obj_t * obj = lv_obj_class_create_obj(&lv_menu_section_class, parent);
 152:Drivers/lvgl/src/extra/widgets/menu/lv_menu.c ****     lv_obj_class_init_obj(obj);
 153:Drivers/lvgl/src/extra/widgets/menu/lv_menu.c ****     return obj;
 154:Drivers/lvgl/src/extra/widgets/menu/lv_menu.c **** }
 155:Drivers/lvgl/src/extra/widgets/menu/lv_menu.c **** 
 156:Drivers/lvgl/src/extra/widgets/menu/lv_menu.c **** lv_obj_t * lv_menu_separator_create(lv_obj_t * parent)
 157:Drivers/lvgl/src/extra/widgets/menu/lv_menu.c **** {
 158:Drivers/lvgl/src/extra/widgets/menu/lv_menu.c ****     LV_LOG_INFO("begin");
 159:Drivers/lvgl/src/extra/widgets/menu/lv_menu.c ****     lv_obj_t * obj = lv_obj_class_create_obj(&lv_menu_separator_class, parent);
 160:Drivers/lvgl/src/extra/widgets/menu/lv_menu.c ****     lv_obj_class_init_obj(obj);
 161:Drivers/lvgl/src/extra/widgets/menu/lv_menu.c ****     return obj;
 162:Drivers/lvgl/src/extra/widgets/menu/lv_menu.c **** }
 163:Drivers/lvgl/src/extra/widgets/menu/lv_menu.c **** 
 164:Drivers/lvgl/src/extra/widgets/menu/lv_menu.c **** void lv_menu_refr(lv_obj_t * obj)
 165:Drivers/lvgl/src/extra/widgets/menu/lv_menu.c **** {
 166:Drivers/lvgl/src/extra/widgets/menu/lv_menu.c ****     LV_ASSERT_OBJ(obj, MY_CLASS);
 167:Drivers/lvgl/src/extra/widgets/menu/lv_menu.c **** 
 168:Drivers/lvgl/src/extra/widgets/menu/lv_menu.c ****     lv_menu_t * menu = (lv_menu_t *)obj;
 169:Drivers/lvgl/src/extra/widgets/menu/lv_menu.c ****     lv_ll_t * history_ll = &(menu->history_ll);
 170:Drivers/lvgl/src/extra/widgets/menu/lv_menu.c **** 
 171:Drivers/lvgl/src/extra/widgets/menu/lv_menu.c ****     /* The current menu */
 172:Drivers/lvgl/src/extra/widgets/menu/lv_menu.c ****     lv_menu_history_t * act_hist = _lv_ll_get_head(history_ll);
 173:Drivers/lvgl/src/extra/widgets/menu/lv_menu.c **** 
 174:Drivers/lvgl/src/extra/widgets/menu/lv_menu.c ****     lv_obj_t * page = NULL;
 175:Drivers/lvgl/src/extra/widgets/menu/lv_menu.c **** 
 176:Drivers/lvgl/src/extra/widgets/menu/lv_menu.c ****     if(act_hist != NULL) {
 177:Drivers/lvgl/src/extra/widgets/menu/lv_menu.c ****         page = act_hist->page;
 178:Drivers/lvgl/src/extra/widgets/menu/lv_menu.c ****         /* Delete the current item from the history */
 179:Drivers/lvgl/src/extra/widgets/menu/lv_menu.c ****         _lv_ll_remove(history_ll, act_hist);
 180:Drivers/lvgl/src/extra/widgets/menu/lv_menu.c ****         lv_mem_free(act_hist);
 181:Drivers/lvgl/src/extra/widgets/menu/lv_menu.c ****         menu->cur_depth--;
 182:Drivers/lvgl/src/extra/widgets/menu/lv_menu.c ****     }
 183:Drivers/lvgl/src/extra/widgets/menu/lv_menu.c **** 
 184:Drivers/lvgl/src/extra/widgets/menu/lv_menu.c ****     /* Set it */
 185:Drivers/lvgl/src/extra/widgets/menu/lv_menu.c ****     lv_menu_set_page(obj, page);
 186:Drivers/lvgl/src/extra/widgets/menu/lv_menu.c **** }
 187:Drivers/lvgl/src/extra/widgets/menu/lv_menu.c **** 
 188:Drivers/lvgl/src/extra/widgets/menu/lv_menu.c **** /*=====================
 189:Drivers/lvgl/src/extra/widgets/menu/lv_menu.c ****  * Setter functions
 190:Drivers/lvgl/src/extra/widgets/menu/lv_menu.c ****  *====================*/
 191:Drivers/lvgl/src/extra/widgets/menu/lv_menu.c **** 
 192:Drivers/lvgl/src/extra/widgets/menu/lv_menu.c **** void lv_menu_set_page(lv_obj_t * obj, lv_obj_t * page)
 193:Drivers/lvgl/src/extra/widgets/menu/lv_menu.c **** {
 194:Drivers/lvgl/src/extra/widgets/menu/lv_menu.c ****     LV_ASSERT_OBJ(obj, MY_CLASS);
 195:Drivers/lvgl/src/extra/widgets/menu/lv_menu.c **** 
 196:Drivers/lvgl/src/extra/widgets/menu/lv_menu.c ****     lv_menu_t * menu = (lv_menu_t *)obj;
 197:Drivers/lvgl/src/extra/widgets/menu/lv_menu.c **** 
 198:Drivers/lvgl/src/extra/widgets/menu/lv_menu.c ****     /* Guard against setting the same page again */
 199:Drivers/lvgl/src/extra/widgets/menu/lv_menu.c ****     if(menu->main_page == page) {
 200:Drivers/lvgl/src/extra/widgets/menu/lv_menu.c ****         return;
 201:Drivers/lvgl/src/extra/widgets/menu/lv_menu.c ****     }
ARM GAS  /var/folders/lp/x54gwt890xv47sdkqj1k04q40000gn/T//ccXBSBZL.s 			page 5


 202:Drivers/lvgl/src/extra/widgets/menu/lv_menu.c **** 
 203:Drivers/lvgl/src/extra/widgets/menu/lv_menu.c ****     /* Hide previous page */
 204:Drivers/lvgl/src/extra/widgets/menu/lv_menu.c ****     if(menu->main_page != NULL) {
 205:Drivers/lvgl/src/extra/widgets/menu/lv_menu.c ****         lv_obj_set_parent(menu->main_page, menu->storage);
 206:Drivers/lvgl/src/extra/widgets/menu/lv_menu.c ****     }
 207:Drivers/lvgl/src/extra/widgets/menu/lv_menu.c **** 
 208:Drivers/lvgl/src/extra/widgets/menu/lv_menu.c ****     if(page != NULL) {
 209:Drivers/lvgl/src/extra/widgets/menu/lv_menu.c ****         /* Add a new node */
 210:Drivers/lvgl/src/extra/widgets/menu/lv_menu.c ****         lv_ll_t * history_ll = &(menu->history_ll);
 211:Drivers/lvgl/src/extra/widgets/menu/lv_menu.c ****         lv_menu_history_t * new_node = _lv_ll_ins_head(history_ll);
 212:Drivers/lvgl/src/extra/widgets/menu/lv_menu.c ****         LV_ASSERT_MALLOC(new_node);
 213:Drivers/lvgl/src/extra/widgets/menu/lv_menu.c ****         new_node->page = page;
 214:Drivers/lvgl/src/extra/widgets/menu/lv_menu.c ****         menu->cur_depth++;
 215:Drivers/lvgl/src/extra/widgets/menu/lv_menu.c **** 
 216:Drivers/lvgl/src/extra/widgets/menu/lv_menu.c ****         /* Place page in main */
 217:Drivers/lvgl/src/extra/widgets/menu/lv_menu.c ****         lv_obj_set_parent(page, menu->main);
 218:Drivers/lvgl/src/extra/widgets/menu/lv_menu.c ****     }
 219:Drivers/lvgl/src/extra/widgets/menu/lv_menu.c ****     else {
 220:Drivers/lvgl/src/extra/widgets/menu/lv_menu.c ****         /* Empty page, clear history */
 221:Drivers/lvgl/src/extra/widgets/menu/lv_menu.c ****         lv_menu_clear_history(obj);
 222:Drivers/lvgl/src/extra/widgets/menu/lv_menu.c ****     }
 223:Drivers/lvgl/src/extra/widgets/menu/lv_menu.c **** 
 224:Drivers/lvgl/src/extra/widgets/menu/lv_menu.c ****     menu->main_page = page;
 225:Drivers/lvgl/src/extra/widgets/menu/lv_menu.c **** 
 226:Drivers/lvgl/src/extra/widgets/menu/lv_menu.c ****     /* If there is a selected tab, update checked state */
 227:Drivers/lvgl/src/extra/widgets/menu/lv_menu.c ****     if(menu->selected_tab != NULL) {
 228:Drivers/lvgl/src/extra/widgets/menu/lv_menu.c ****         if(menu->sidebar_page != NULL) {
 229:Drivers/lvgl/src/extra/widgets/menu/lv_menu.c ****             lv_obj_add_state(menu->selected_tab, LV_STATE_CHECKED);
 230:Drivers/lvgl/src/extra/widgets/menu/lv_menu.c ****         }
 231:Drivers/lvgl/src/extra/widgets/menu/lv_menu.c ****         else {
 232:Drivers/lvgl/src/extra/widgets/menu/lv_menu.c ****             lv_obj_clear_state(menu->selected_tab, LV_STATE_CHECKED);
 233:Drivers/lvgl/src/extra/widgets/menu/lv_menu.c ****         }
 234:Drivers/lvgl/src/extra/widgets/menu/lv_menu.c ****     }
 235:Drivers/lvgl/src/extra/widgets/menu/lv_menu.c **** 
 236:Drivers/lvgl/src/extra/widgets/menu/lv_menu.c ****     /* Back btn management */
 237:Drivers/lvgl/src/extra/widgets/menu/lv_menu.c ****     if(menu->sidebar_page != NULL) {
 238:Drivers/lvgl/src/extra/widgets/menu/lv_menu.c ****         /* With sidebar enabled */
 239:Drivers/lvgl/src/extra/widgets/menu/lv_menu.c ****         if(menu->sidebar_generated) {
 240:Drivers/lvgl/src/extra/widgets/menu/lv_menu.c ****             if(menu->mode_root_back_btn == LV_MENU_ROOT_BACK_BTN_ENABLED) {
 241:Drivers/lvgl/src/extra/widgets/menu/lv_menu.c ****                 /* Root back btn is always shown if enabled*/
 242:Drivers/lvgl/src/extra/widgets/menu/lv_menu.c ****                 lv_obj_clear_flag(menu->sidebar_header_back_btn, LV_OBJ_FLAG_HIDDEN);
 243:Drivers/lvgl/src/extra/widgets/menu/lv_menu.c ****                 lv_obj_add_flag(menu->sidebar_header_back_btn, LV_OBJ_FLAG_CLICKABLE);
 244:Drivers/lvgl/src/extra/widgets/menu/lv_menu.c ****             }
 245:Drivers/lvgl/src/extra/widgets/menu/lv_menu.c ****             else {
 246:Drivers/lvgl/src/extra/widgets/menu/lv_menu.c ****                 lv_obj_add_flag(menu->sidebar_header_back_btn, LV_OBJ_FLAG_HIDDEN);
 247:Drivers/lvgl/src/extra/widgets/menu/lv_menu.c ****                 lv_obj_clear_flag(menu->sidebar_header_back_btn, LV_OBJ_FLAG_CLICKABLE);
 248:Drivers/lvgl/src/extra/widgets/menu/lv_menu.c ****             }
 249:Drivers/lvgl/src/extra/widgets/menu/lv_menu.c ****         }
 250:Drivers/lvgl/src/extra/widgets/menu/lv_menu.c **** 
 251:Drivers/lvgl/src/extra/widgets/menu/lv_menu.c ****         if(menu->cur_depth >= 2) {
 252:Drivers/lvgl/src/extra/widgets/menu/lv_menu.c ****             lv_obj_clear_flag(menu->main_header_back_btn, LV_OBJ_FLAG_HIDDEN);
 253:Drivers/lvgl/src/extra/widgets/menu/lv_menu.c ****             lv_obj_add_flag(menu->main_header_back_btn, LV_OBJ_FLAG_CLICKABLE);
 254:Drivers/lvgl/src/extra/widgets/menu/lv_menu.c ****         }
 255:Drivers/lvgl/src/extra/widgets/menu/lv_menu.c ****         else {
 256:Drivers/lvgl/src/extra/widgets/menu/lv_menu.c ****             lv_obj_add_flag(menu->main_header_back_btn, LV_OBJ_FLAG_HIDDEN);
 257:Drivers/lvgl/src/extra/widgets/menu/lv_menu.c ****             lv_obj_clear_flag(menu->main_header_back_btn, LV_OBJ_FLAG_CLICKABLE);
 258:Drivers/lvgl/src/extra/widgets/menu/lv_menu.c ****         }
ARM GAS  /var/folders/lp/x54gwt890xv47sdkqj1k04q40000gn/T//ccXBSBZL.s 			page 6


 259:Drivers/lvgl/src/extra/widgets/menu/lv_menu.c ****     }
 260:Drivers/lvgl/src/extra/widgets/menu/lv_menu.c ****     else {
 261:Drivers/lvgl/src/extra/widgets/menu/lv_menu.c ****         /* With sidebar disabled */
 262:Drivers/lvgl/src/extra/widgets/menu/lv_menu.c ****         if(menu->cur_depth >= 2 || menu->mode_root_back_btn == LV_MENU_ROOT_BACK_BTN_ENABLED) {
 263:Drivers/lvgl/src/extra/widgets/menu/lv_menu.c ****             lv_obj_clear_flag(menu->main_header_back_btn, LV_OBJ_FLAG_HIDDEN);
 264:Drivers/lvgl/src/extra/widgets/menu/lv_menu.c ****             lv_obj_add_flag(menu->main_header_back_btn, LV_OBJ_FLAG_CLICKABLE);
 265:Drivers/lvgl/src/extra/widgets/menu/lv_menu.c ****         }
 266:Drivers/lvgl/src/extra/widgets/menu/lv_menu.c ****         else {
 267:Drivers/lvgl/src/extra/widgets/menu/lv_menu.c ****             lv_obj_add_flag(menu->main_header_back_btn, LV_OBJ_FLAG_HIDDEN);
 268:Drivers/lvgl/src/extra/widgets/menu/lv_menu.c ****             lv_obj_clear_flag(menu->main_header_back_btn, LV_OBJ_FLAG_CLICKABLE);
 269:Drivers/lvgl/src/extra/widgets/menu/lv_menu.c ****         }
 270:Drivers/lvgl/src/extra/widgets/menu/lv_menu.c ****     }
 271:Drivers/lvgl/src/extra/widgets/menu/lv_menu.c **** 
 272:Drivers/lvgl/src/extra/widgets/menu/lv_menu.c ****     lv_event_send((lv_obj_t *)menu, LV_EVENT_VALUE_CHANGED, NULL);
 273:Drivers/lvgl/src/extra/widgets/menu/lv_menu.c **** 
 274:Drivers/lvgl/src/extra/widgets/menu/lv_menu.c ****     lv_menu_refr_main_header_mode(obj);
 275:Drivers/lvgl/src/extra/widgets/menu/lv_menu.c **** }
 276:Drivers/lvgl/src/extra/widgets/menu/lv_menu.c **** 
 277:Drivers/lvgl/src/extra/widgets/menu/lv_menu.c **** void lv_menu_set_sidebar_page(lv_obj_t * obj, lv_obj_t * page)
 278:Drivers/lvgl/src/extra/widgets/menu/lv_menu.c **** {
 279:Drivers/lvgl/src/extra/widgets/menu/lv_menu.c ****     LV_ASSERT_OBJ(obj, MY_CLASS);
 280:Drivers/lvgl/src/extra/widgets/menu/lv_menu.c **** 
 281:Drivers/lvgl/src/extra/widgets/menu/lv_menu.c ****     lv_menu_t * menu = (lv_menu_t *)obj;
 282:Drivers/lvgl/src/extra/widgets/menu/lv_menu.c **** 
 283:Drivers/lvgl/src/extra/widgets/menu/lv_menu.c ****     /* Sidebar management*/
 284:Drivers/lvgl/src/extra/widgets/menu/lv_menu.c ****     if(page != NULL) {
 285:Drivers/lvgl/src/extra/widgets/menu/lv_menu.c ****         /* Sidebar should be enabled */
 286:Drivers/lvgl/src/extra/widgets/menu/lv_menu.c ****         if(!menu->sidebar_generated) {
 287:Drivers/lvgl/src/extra/widgets/menu/lv_menu.c ****             /* Create sidebar */
 288:Drivers/lvgl/src/extra/widgets/menu/lv_menu.c ****             lv_obj_t * sidebar_cont = lv_obj_class_create_obj(&lv_menu_sidebar_cont_class, obj);
 289:Drivers/lvgl/src/extra/widgets/menu/lv_menu.c ****             lv_obj_class_init_obj(sidebar_cont);
 290:Drivers/lvgl/src/extra/widgets/menu/lv_menu.c ****             lv_obj_move_to_index(sidebar_cont, 1);
 291:Drivers/lvgl/src/extra/widgets/menu/lv_menu.c ****             lv_obj_set_size(sidebar_cont, LV_PCT(30), LV_PCT(100));
 292:Drivers/lvgl/src/extra/widgets/menu/lv_menu.c ****             lv_obj_set_flex_flow(sidebar_cont, LV_FLEX_FLOW_COLUMN);
 293:Drivers/lvgl/src/extra/widgets/menu/lv_menu.c ****             lv_obj_add_flag(sidebar_cont, LV_OBJ_FLAG_EVENT_BUBBLE);
 294:Drivers/lvgl/src/extra/widgets/menu/lv_menu.c ****             lv_obj_clear_flag(sidebar_cont, LV_OBJ_FLAG_CLICKABLE);
 295:Drivers/lvgl/src/extra/widgets/menu/lv_menu.c ****             menu->sidebar = sidebar_cont;
 296:Drivers/lvgl/src/extra/widgets/menu/lv_menu.c **** 
 297:Drivers/lvgl/src/extra/widgets/menu/lv_menu.c ****             lv_obj_t * sidebar_header = lv_obj_class_create_obj(&lv_menu_sidebar_header_cont_class,
 298:Drivers/lvgl/src/extra/widgets/menu/lv_menu.c ****             lv_obj_class_init_obj(sidebar_header);
 299:Drivers/lvgl/src/extra/widgets/menu/lv_menu.c ****             lv_obj_set_size(sidebar_header, LV_PCT(100), LV_SIZE_CONTENT);
 300:Drivers/lvgl/src/extra/widgets/menu/lv_menu.c ****             lv_obj_set_flex_flow(sidebar_header, LV_FLEX_FLOW_ROW);
 301:Drivers/lvgl/src/extra/widgets/menu/lv_menu.c ****             lv_obj_set_flex_align(sidebar_header, LV_FLEX_ALIGN_START, LV_FLEX_ALIGN_CENTER, LV_FLE
 302:Drivers/lvgl/src/extra/widgets/menu/lv_menu.c ****             lv_obj_clear_flag(sidebar_header, LV_OBJ_FLAG_CLICKABLE);
 303:Drivers/lvgl/src/extra/widgets/menu/lv_menu.c ****             lv_obj_add_flag(sidebar_header, LV_OBJ_FLAG_EVENT_BUBBLE);
 304:Drivers/lvgl/src/extra/widgets/menu/lv_menu.c ****             menu->sidebar_header = sidebar_header;
 305:Drivers/lvgl/src/extra/widgets/menu/lv_menu.c **** 
 306:Drivers/lvgl/src/extra/widgets/menu/lv_menu.c ****             lv_obj_t * sidebar_header_back_btn = lv_btn_create(menu->sidebar_header);
 307:Drivers/lvgl/src/extra/widgets/menu/lv_menu.c ****             lv_obj_add_event_cb(sidebar_header_back_btn, lv_menu_back_event_cb, LV_EVENT_CLICKED, m
 308:Drivers/lvgl/src/extra/widgets/menu/lv_menu.c ****             lv_obj_add_flag(sidebar_header_back_btn, LV_OBJ_FLAG_EVENT_BUBBLE);
 309:Drivers/lvgl/src/extra/widgets/menu/lv_menu.c ****             lv_obj_set_flex_flow(sidebar_header_back_btn, LV_FLEX_FLOW_ROW);
 310:Drivers/lvgl/src/extra/widgets/menu/lv_menu.c ****             menu->sidebar_header_back_btn = sidebar_header_back_btn;
 311:Drivers/lvgl/src/extra/widgets/menu/lv_menu.c **** 
 312:Drivers/lvgl/src/extra/widgets/menu/lv_menu.c ****             lv_obj_t * sidebar_header_back_icon = lv_img_create(menu->sidebar_header_back_btn);
 313:Drivers/lvgl/src/extra/widgets/menu/lv_menu.c ****             lv_img_set_src(sidebar_header_back_icon, LV_SYMBOL_LEFT);
 314:Drivers/lvgl/src/extra/widgets/menu/lv_menu.c **** 
 315:Drivers/lvgl/src/extra/widgets/menu/lv_menu.c ****             lv_obj_t * sidebar_header_title = lv_label_create(menu->sidebar_header);
ARM GAS  /var/folders/lp/x54gwt890xv47sdkqj1k04q40000gn/T//ccXBSBZL.s 			page 7


 316:Drivers/lvgl/src/extra/widgets/menu/lv_menu.c ****             lv_obj_add_flag(sidebar_header_title, LV_OBJ_FLAG_HIDDEN);
 317:Drivers/lvgl/src/extra/widgets/menu/lv_menu.c ****             menu->sidebar_header_title = sidebar_header_title;
 318:Drivers/lvgl/src/extra/widgets/menu/lv_menu.c **** 
 319:Drivers/lvgl/src/extra/widgets/menu/lv_menu.c ****             menu->sidebar_generated = true;
 320:Drivers/lvgl/src/extra/widgets/menu/lv_menu.c ****         }
 321:Drivers/lvgl/src/extra/widgets/menu/lv_menu.c **** 
 322:Drivers/lvgl/src/extra/widgets/menu/lv_menu.c ****         lv_obj_set_parent(page, menu->sidebar);
 323:Drivers/lvgl/src/extra/widgets/menu/lv_menu.c **** 
 324:Drivers/lvgl/src/extra/widgets/menu/lv_menu.c ****         lv_menu_refr_sidebar_header_mode(obj);
 325:Drivers/lvgl/src/extra/widgets/menu/lv_menu.c ****     }
 326:Drivers/lvgl/src/extra/widgets/menu/lv_menu.c ****     else {
 327:Drivers/lvgl/src/extra/widgets/menu/lv_menu.c ****         /* Sidebar should be disabled */
 328:Drivers/lvgl/src/extra/widgets/menu/lv_menu.c ****         if(menu->sidebar_generated) {
 329:Drivers/lvgl/src/extra/widgets/menu/lv_menu.c ****             lv_obj_set_parent(menu->sidebar_page, menu->storage);
 330:Drivers/lvgl/src/extra/widgets/menu/lv_menu.c ****             lv_obj_del(menu->sidebar);
 331:Drivers/lvgl/src/extra/widgets/menu/lv_menu.c **** 
 332:Drivers/lvgl/src/extra/widgets/menu/lv_menu.c ****             menu->sidebar_generated = false;
 333:Drivers/lvgl/src/extra/widgets/menu/lv_menu.c ****         }
 334:Drivers/lvgl/src/extra/widgets/menu/lv_menu.c ****     }
 335:Drivers/lvgl/src/extra/widgets/menu/lv_menu.c **** 
 336:Drivers/lvgl/src/extra/widgets/menu/lv_menu.c ****     menu->sidebar_page = page;
 337:Drivers/lvgl/src/extra/widgets/menu/lv_menu.c ****     lv_menu_refr(obj);
 338:Drivers/lvgl/src/extra/widgets/menu/lv_menu.c **** }
 339:Drivers/lvgl/src/extra/widgets/menu/lv_menu.c **** 
 340:Drivers/lvgl/src/extra/widgets/menu/lv_menu.c **** void lv_menu_set_mode_header(lv_obj_t * obj, lv_menu_mode_header_t mode_header)
 341:Drivers/lvgl/src/extra/widgets/menu/lv_menu.c **** {
 342:Drivers/lvgl/src/extra/widgets/menu/lv_menu.c ****     LV_ASSERT_OBJ(obj, MY_CLASS);
 343:Drivers/lvgl/src/extra/widgets/menu/lv_menu.c **** 
 344:Drivers/lvgl/src/extra/widgets/menu/lv_menu.c ****     lv_menu_t * menu = (lv_menu_t *)obj;
 345:Drivers/lvgl/src/extra/widgets/menu/lv_menu.c **** 
 346:Drivers/lvgl/src/extra/widgets/menu/lv_menu.c ****     if(menu->mode_header != mode_header) {
 347:Drivers/lvgl/src/extra/widgets/menu/lv_menu.c ****         menu->mode_header = mode_header;
 348:Drivers/lvgl/src/extra/widgets/menu/lv_menu.c ****         lv_menu_refr_main_header_mode(obj);
 349:Drivers/lvgl/src/extra/widgets/menu/lv_menu.c ****         if(menu->sidebar_generated) lv_menu_refr_sidebar_header_mode(obj);
 350:Drivers/lvgl/src/extra/widgets/menu/lv_menu.c ****     }
 351:Drivers/lvgl/src/extra/widgets/menu/lv_menu.c **** }
 352:Drivers/lvgl/src/extra/widgets/menu/lv_menu.c **** 
 353:Drivers/lvgl/src/extra/widgets/menu/lv_menu.c **** void lv_menu_set_mode_root_back_btn(lv_obj_t * obj, lv_menu_mode_root_back_btn_t mode_root_back_btn
 354:Drivers/lvgl/src/extra/widgets/menu/lv_menu.c **** {
 355:Drivers/lvgl/src/extra/widgets/menu/lv_menu.c ****     LV_ASSERT_OBJ(obj, MY_CLASS);
 356:Drivers/lvgl/src/extra/widgets/menu/lv_menu.c **** 
 357:Drivers/lvgl/src/extra/widgets/menu/lv_menu.c ****     lv_menu_t * menu = (lv_menu_t *)obj;
 358:Drivers/lvgl/src/extra/widgets/menu/lv_menu.c **** 
 359:Drivers/lvgl/src/extra/widgets/menu/lv_menu.c ****     if(menu->mode_root_back_btn != mode_root_back_btn) {
 360:Drivers/lvgl/src/extra/widgets/menu/lv_menu.c ****         menu->mode_root_back_btn = mode_root_back_btn;
 361:Drivers/lvgl/src/extra/widgets/menu/lv_menu.c ****         lv_menu_refr(obj);
 362:Drivers/lvgl/src/extra/widgets/menu/lv_menu.c ****     }
 363:Drivers/lvgl/src/extra/widgets/menu/lv_menu.c **** }
 364:Drivers/lvgl/src/extra/widgets/menu/lv_menu.c **** 
 365:Drivers/lvgl/src/extra/widgets/menu/lv_menu.c **** void lv_menu_set_load_page_event(lv_obj_t * menu, lv_obj_t * obj, lv_obj_t * page)
 366:Drivers/lvgl/src/extra/widgets/menu/lv_menu.c **** {
 367:Drivers/lvgl/src/extra/widgets/menu/lv_menu.c ****     LV_ASSERT_OBJ(menu, MY_CLASS);
 368:Drivers/lvgl/src/extra/widgets/menu/lv_menu.c **** 
 369:Drivers/lvgl/src/extra/widgets/menu/lv_menu.c ****     lv_obj_add_flag(obj, LV_OBJ_FLAG_CLICKABLE);
 370:Drivers/lvgl/src/extra/widgets/menu/lv_menu.c ****     lv_obj_clear_flag(obj, LV_OBJ_FLAG_SCROLLABLE);
 371:Drivers/lvgl/src/extra/widgets/menu/lv_menu.c ****     lv_obj_add_flag(obj, LV_OBJ_FLAG_SCROLL_ON_FOCUS);
 372:Drivers/lvgl/src/extra/widgets/menu/lv_menu.c **** 
ARM GAS  /var/folders/lp/x54gwt890xv47sdkqj1k04q40000gn/T//ccXBSBZL.s 			page 8


 373:Drivers/lvgl/src/extra/widgets/menu/lv_menu.c ****     /* Remove old event */
 374:Drivers/lvgl/src/extra/widgets/menu/lv_menu.c ****     if(lv_obj_remove_event_cb(obj, lv_menu_load_page_event_cb)) {
 375:Drivers/lvgl/src/extra/widgets/menu/lv_menu.c ****         lv_event_send(obj, LV_EVENT_DELETE, NULL);
 376:Drivers/lvgl/src/extra/widgets/menu/lv_menu.c ****         lv_obj_remove_event_cb(obj, lv_menu_obj_del_event_cb);
 377:Drivers/lvgl/src/extra/widgets/menu/lv_menu.c ****     }
 378:Drivers/lvgl/src/extra/widgets/menu/lv_menu.c **** 
 379:Drivers/lvgl/src/extra/widgets/menu/lv_menu.c ****     lv_menu_load_page_event_data_t * event_data = lv_mem_alloc(sizeof(lv_menu_load_page_event_data_
 380:Drivers/lvgl/src/extra/widgets/menu/lv_menu.c ****     event_data->menu = menu;
 381:Drivers/lvgl/src/extra/widgets/menu/lv_menu.c ****     event_data->page = page;
 382:Drivers/lvgl/src/extra/widgets/menu/lv_menu.c **** 
 383:Drivers/lvgl/src/extra/widgets/menu/lv_menu.c ****     lv_obj_add_event_cb(obj, lv_menu_load_page_event_cb, LV_EVENT_CLICKED, event_data);
 384:Drivers/lvgl/src/extra/widgets/menu/lv_menu.c ****     lv_obj_add_event_cb(obj, lv_menu_obj_del_event_cb, LV_EVENT_DELETE, event_data);
 385:Drivers/lvgl/src/extra/widgets/menu/lv_menu.c **** }
 386:Drivers/lvgl/src/extra/widgets/menu/lv_menu.c **** 
 387:Drivers/lvgl/src/extra/widgets/menu/lv_menu.c **** /*=====================
 388:Drivers/lvgl/src/extra/widgets/menu/lv_menu.c ****  * Getter functions
 389:Drivers/lvgl/src/extra/widgets/menu/lv_menu.c ****  *====================*/
 390:Drivers/lvgl/src/extra/widgets/menu/lv_menu.c **** lv_obj_t * lv_menu_get_cur_main_page(lv_obj_t * obj)
 391:Drivers/lvgl/src/extra/widgets/menu/lv_menu.c **** {
 392:Drivers/lvgl/src/extra/widgets/menu/lv_menu.c ****     LV_ASSERT_OBJ(obj, MY_CLASS);
 393:Drivers/lvgl/src/extra/widgets/menu/lv_menu.c **** 
 394:Drivers/lvgl/src/extra/widgets/menu/lv_menu.c ****     lv_menu_t * menu = (lv_menu_t *)obj;
 395:Drivers/lvgl/src/extra/widgets/menu/lv_menu.c ****     return menu->main_page;
 396:Drivers/lvgl/src/extra/widgets/menu/lv_menu.c **** }
 397:Drivers/lvgl/src/extra/widgets/menu/lv_menu.c **** 
 398:Drivers/lvgl/src/extra/widgets/menu/lv_menu.c **** lv_obj_t * lv_menu_get_cur_sidebar_page(lv_obj_t * obj)
 399:Drivers/lvgl/src/extra/widgets/menu/lv_menu.c **** {
 400:Drivers/lvgl/src/extra/widgets/menu/lv_menu.c ****     LV_ASSERT_OBJ(obj, MY_CLASS);
 401:Drivers/lvgl/src/extra/widgets/menu/lv_menu.c **** 
 402:Drivers/lvgl/src/extra/widgets/menu/lv_menu.c ****     lv_menu_t * menu = (lv_menu_t *)obj;
 403:Drivers/lvgl/src/extra/widgets/menu/lv_menu.c ****     return menu->sidebar_page;
 404:Drivers/lvgl/src/extra/widgets/menu/lv_menu.c **** }
 405:Drivers/lvgl/src/extra/widgets/menu/lv_menu.c **** 
 406:Drivers/lvgl/src/extra/widgets/menu/lv_menu.c **** lv_obj_t * lv_menu_get_main_header(lv_obj_t * obj)
 407:Drivers/lvgl/src/extra/widgets/menu/lv_menu.c **** {
 408:Drivers/lvgl/src/extra/widgets/menu/lv_menu.c ****     LV_ASSERT_OBJ(obj, MY_CLASS);
 409:Drivers/lvgl/src/extra/widgets/menu/lv_menu.c **** 
 410:Drivers/lvgl/src/extra/widgets/menu/lv_menu.c ****     lv_menu_t * menu = (lv_menu_t *)obj;
 411:Drivers/lvgl/src/extra/widgets/menu/lv_menu.c ****     return menu->main_header;
 412:Drivers/lvgl/src/extra/widgets/menu/lv_menu.c **** }
 413:Drivers/lvgl/src/extra/widgets/menu/lv_menu.c **** 
 414:Drivers/lvgl/src/extra/widgets/menu/lv_menu.c **** lv_obj_t * lv_menu_get_main_header_back_btn(lv_obj_t * obj)
 415:Drivers/lvgl/src/extra/widgets/menu/lv_menu.c **** {
 416:Drivers/lvgl/src/extra/widgets/menu/lv_menu.c ****     LV_ASSERT_OBJ(obj, MY_CLASS);
 417:Drivers/lvgl/src/extra/widgets/menu/lv_menu.c **** 
 418:Drivers/lvgl/src/extra/widgets/menu/lv_menu.c ****     lv_menu_t * menu = (lv_menu_t *)obj;
 419:Drivers/lvgl/src/extra/widgets/menu/lv_menu.c ****     return menu->main_header_back_btn;
 420:Drivers/lvgl/src/extra/widgets/menu/lv_menu.c **** }
 421:Drivers/lvgl/src/extra/widgets/menu/lv_menu.c **** 
 422:Drivers/lvgl/src/extra/widgets/menu/lv_menu.c **** lv_obj_t * lv_menu_get_sidebar_header(lv_obj_t * obj)
 423:Drivers/lvgl/src/extra/widgets/menu/lv_menu.c **** {
 424:Drivers/lvgl/src/extra/widgets/menu/lv_menu.c ****     LV_ASSERT_OBJ(obj, MY_CLASS);
 425:Drivers/lvgl/src/extra/widgets/menu/lv_menu.c **** 
 426:Drivers/lvgl/src/extra/widgets/menu/lv_menu.c ****     lv_menu_t * menu = (lv_menu_t *)obj;
 427:Drivers/lvgl/src/extra/widgets/menu/lv_menu.c ****     return menu->sidebar_header;
 428:Drivers/lvgl/src/extra/widgets/menu/lv_menu.c **** }
 429:Drivers/lvgl/src/extra/widgets/menu/lv_menu.c **** 
ARM GAS  /var/folders/lp/x54gwt890xv47sdkqj1k04q40000gn/T//ccXBSBZL.s 			page 9


 430:Drivers/lvgl/src/extra/widgets/menu/lv_menu.c **** lv_obj_t * lv_menu_get_sidebar_header_back_btn(lv_obj_t * obj)
 431:Drivers/lvgl/src/extra/widgets/menu/lv_menu.c **** {
 432:Drivers/lvgl/src/extra/widgets/menu/lv_menu.c ****     LV_ASSERT_OBJ(obj, MY_CLASS);
 433:Drivers/lvgl/src/extra/widgets/menu/lv_menu.c **** 
 434:Drivers/lvgl/src/extra/widgets/menu/lv_menu.c ****     lv_menu_t * menu = (lv_menu_t *)obj;
 435:Drivers/lvgl/src/extra/widgets/menu/lv_menu.c ****     return menu->sidebar_header_back_btn;
 436:Drivers/lvgl/src/extra/widgets/menu/lv_menu.c **** }
 437:Drivers/lvgl/src/extra/widgets/menu/lv_menu.c **** 
 438:Drivers/lvgl/src/extra/widgets/menu/lv_menu.c **** bool lv_menu_back_btn_is_root(lv_obj_t * menu, lv_obj_t * obj)
 439:Drivers/lvgl/src/extra/widgets/menu/lv_menu.c **** {
 440:Drivers/lvgl/src/extra/widgets/menu/lv_menu.c ****     LV_ASSERT_OBJ(menu, MY_CLASS);
 441:Drivers/lvgl/src/extra/widgets/menu/lv_menu.c **** 
 442:Drivers/lvgl/src/extra/widgets/menu/lv_menu.c ****     if(obj == ((lv_menu_t *)menu)->sidebar_header_back_btn) {
 443:Drivers/lvgl/src/extra/widgets/menu/lv_menu.c ****         return true;
 444:Drivers/lvgl/src/extra/widgets/menu/lv_menu.c ****     }
 445:Drivers/lvgl/src/extra/widgets/menu/lv_menu.c **** 
 446:Drivers/lvgl/src/extra/widgets/menu/lv_menu.c ****     if(obj == ((lv_menu_t *)menu)->main_header_back_btn && ((lv_menu_t *)menu)->prev_depth <= 1) {
 447:Drivers/lvgl/src/extra/widgets/menu/lv_menu.c ****         return true;
 448:Drivers/lvgl/src/extra/widgets/menu/lv_menu.c ****     }
 449:Drivers/lvgl/src/extra/widgets/menu/lv_menu.c **** 
 450:Drivers/lvgl/src/extra/widgets/menu/lv_menu.c ****     return false;
 451:Drivers/lvgl/src/extra/widgets/menu/lv_menu.c **** }
 452:Drivers/lvgl/src/extra/widgets/menu/lv_menu.c **** 
 453:Drivers/lvgl/src/extra/widgets/menu/lv_menu.c **** void lv_menu_clear_history(lv_obj_t * obj)
 454:Drivers/lvgl/src/extra/widgets/menu/lv_menu.c **** {
 455:Drivers/lvgl/src/extra/widgets/menu/lv_menu.c ****     LV_ASSERT_OBJ(obj, MY_CLASS);
 456:Drivers/lvgl/src/extra/widgets/menu/lv_menu.c **** 
 457:Drivers/lvgl/src/extra/widgets/menu/lv_menu.c ****     lv_menu_t * menu = (lv_menu_t *)obj;
 458:Drivers/lvgl/src/extra/widgets/menu/lv_menu.c ****     lv_ll_t * history_ll = &(menu->history_ll);
 459:Drivers/lvgl/src/extra/widgets/menu/lv_menu.c **** 
 460:Drivers/lvgl/src/extra/widgets/menu/lv_menu.c ****     _lv_ll_clear(history_ll);
 461:Drivers/lvgl/src/extra/widgets/menu/lv_menu.c **** 
 462:Drivers/lvgl/src/extra/widgets/menu/lv_menu.c ****     menu->cur_depth = 0;
 463:Drivers/lvgl/src/extra/widgets/menu/lv_menu.c **** }
 464:Drivers/lvgl/src/extra/widgets/menu/lv_menu.c **** 
 465:Drivers/lvgl/src/extra/widgets/menu/lv_menu.c **** /**********************
 466:Drivers/lvgl/src/extra/widgets/menu/lv_menu.c ****  *   STATIC FUNCTIONS
 467:Drivers/lvgl/src/extra/widgets/menu/lv_menu.c ****  **********************/
 468:Drivers/lvgl/src/extra/widgets/menu/lv_menu.c **** 
 469:Drivers/lvgl/src/extra/widgets/menu/lv_menu.c **** static void lv_menu_constructor(const lv_obj_class_t * class_p, lv_obj_t * obj)
 470:Drivers/lvgl/src/extra/widgets/menu/lv_menu.c **** {
 471:Drivers/lvgl/src/extra/widgets/menu/lv_menu.c ****     LV_UNUSED(class_p);
 472:Drivers/lvgl/src/extra/widgets/menu/lv_menu.c ****     LV_TRACE_OBJ_CREATE("begin");
 473:Drivers/lvgl/src/extra/widgets/menu/lv_menu.c **** 
 474:Drivers/lvgl/src/extra/widgets/menu/lv_menu.c ****     lv_obj_set_layout(obj, LV_LAYOUT_FLEX);
 475:Drivers/lvgl/src/extra/widgets/menu/lv_menu.c ****     lv_obj_set_flex_flow(obj, LV_FLEX_FLOW_ROW);
 476:Drivers/lvgl/src/extra/widgets/menu/lv_menu.c **** 
 477:Drivers/lvgl/src/extra/widgets/menu/lv_menu.c ****     lv_menu_t * menu = (lv_menu_t *)obj;
 478:Drivers/lvgl/src/extra/widgets/menu/lv_menu.c **** 
 479:Drivers/lvgl/src/extra/widgets/menu/lv_menu.c ****     menu->mode_header = LV_MENU_HEADER_TOP_FIXED;
 480:Drivers/lvgl/src/extra/widgets/menu/lv_menu.c ****     menu->mode_root_back_btn = LV_MENU_ROOT_BACK_BTN_DISABLED;
 481:Drivers/lvgl/src/extra/widgets/menu/lv_menu.c ****     menu->cur_depth = 0;
 482:Drivers/lvgl/src/extra/widgets/menu/lv_menu.c ****     menu->prev_depth = 0;
 483:Drivers/lvgl/src/extra/widgets/menu/lv_menu.c ****     menu->sidebar_generated = false;
 484:Drivers/lvgl/src/extra/widgets/menu/lv_menu.c **** 
 485:Drivers/lvgl/src/extra/widgets/menu/lv_menu.c ****     _lv_ll_init(&(menu->history_ll), sizeof(lv_menu_history_t));
 486:Drivers/lvgl/src/extra/widgets/menu/lv_menu.c **** 
ARM GAS  /var/folders/lp/x54gwt890xv47sdkqj1k04q40000gn/T//ccXBSBZL.s 			page 10


 487:Drivers/lvgl/src/extra/widgets/menu/lv_menu.c ****     menu->storage = lv_obj_create(obj);
 488:Drivers/lvgl/src/extra/widgets/menu/lv_menu.c ****     lv_obj_add_flag(menu->storage, LV_OBJ_FLAG_HIDDEN);
 489:Drivers/lvgl/src/extra/widgets/menu/lv_menu.c **** 
 490:Drivers/lvgl/src/extra/widgets/menu/lv_menu.c ****     menu->sidebar = NULL;
 491:Drivers/lvgl/src/extra/widgets/menu/lv_menu.c ****     menu->sidebar_header = NULL;
 492:Drivers/lvgl/src/extra/widgets/menu/lv_menu.c ****     menu->sidebar_header_back_btn = NULL;
 493:Drivers/lvgl/src/extra/widgets/menu/lv_menu.c ****     menu->sidebar_header_title = NULL;
 494:Drivers/lvgl/src/extra/widgets/menu/lv_menu.c ****     menu->sidebar_page = NULL;
 495:Drivers/lvgl/src/extra/widgets/menu/lv_menu.c **** 
 496:Drivers/lvgl/src/extra/widgets/menu/lv_menu.c ****     lv_obj_t * main_cont = lv_obj_class_create_obj(&lv_menu_main_cont_class, obj);
 497:Drivers/lvgl/src/extra/widgets/menu/lv_menu.c ****     lv_obj_class_init_obj(main_cont);
 498:Drivers/lvgl/src/extra/widgets/menu/lv_menu.c ****     lv_obj_set_height(main_cont, LV_PCT(100));
 499:Drivers/lvgl/src/extra/widgets/menu/lv_menu.c ****     lv_obj_set_flex_grow(main_cont, 1);
 500:Drivers/lvgl/src/extra/widgets/menu/lv_menu.c ****     lv_obj_set_flex_flow(main_cont, LV_FLEX_FLOW_COLUMN);
 501:Drivers/lvgl/src/extra/widgets/menu/lv_menu.c ****     lv_obj_add_flag(main_cont, LV_OBJ_FLAG_EVENT_BUBBLE);
 502:Drivers/lvgl/src/extra/widgets/menu/lv_menu.c ****     lv_obj_clear_flag(main_cont, LV_OBJ_FLAG_CLICKABLE);
 503:Drivers/lvgl/src/extra/widgets/menu/lv_menu.c ****     menu->main = main_cont;
 504:Drivers/lvgl/src/extra/widgets/menu/lv_menu.c **** 
 505:Drivers/lvgl/src/extra/widgets/menu/lv_menu.c ****     lv_obj_t * main_header = lv_obj_class_create_obj(&lv_menu_main_header_cont_class, main_cont);
 506:Drivers/lvgl/src/extra/widgets/menu/lv_menu.c ****     lv_obj_class_init_obj(main_header);
 507:Drivers/lvgl/src/extra/widgets/menu/lv_menu.c ****     lv_obj_set_size(main_header, LV_PCT(100), LV_SIZE_CONTENT);
 508:Drivers/lvgl/src/extra/widgets/menu/lv_menu.c ****     lv_obj_set_flex_flow(main_header, LV_FLEX_FLOW_ROW);
 509:Drivers/lvgl/src/extra/widgets/menu/lv_menu.c ****     lv_obj_set_flex_align(main_header, LV_FLEX_ALIGN_START, LV_FLEX_ALIGN_CENTER, LV_FLEX_ALIGN_CEN
 510:Drivers/lvgl/src/extra/widgets/menu/lv_menu.c ****     lv_obj_clear_flag(main_header, LV_OBJ_FLAG_CLICKABLE);
 511:Drivers/lvgl/src/extra/widgets/menu/lv_menu.c ****     lv_obj_add_flag(main_header, LV_OBJ_FLAG_EVENT_BUBBLE);
 512:Drivers/lvgl/src/extra/widgets/menu/lv_menu.c ****     menu->main_header = main_header;
 513:Drivers/lvgl/src/extra/widgets/menu/lv_menu.c **** 
 514:Drivers/lvgl/src/extra/widgets/menu/lv_menu.c ****     /* Create the default simple back btn and title */
 515:Drivers/lvgl/src/extra/widgets/menu/lv_menu.c ****     lv_obj_t * main_header_back_btn = lv_btn_create(menu->main_header);
 516:Drivers/lvgl/src/extra/widgets/menu/lv_menu.c ****     lv_obj_add_event_cb(main_header_back_btn, lv_menu_back_event_cb, LV_EVENT_CLICKED, menu);
 517:Drivers/lvgl/src/extra/widgets/menu/lv_menu.c ****     lv_obj_add_flag(main_header_back_btn, LV_OBJ_FLAG_EVENT_BUBBLE);
 518:Drivers/lvgl/src/extra/widgets/menu/lv_menu.c ****     lv_obj_set_flex_flow(main_header_back_btn, LV_FLEX_FLOW_ROW);
 519:Drivers/lvgl/src/extra/widgets/menu/lv_menu.c ****     menu->main_header_back_btn = main_header_back_btn;
 520:Drivers/lvgl/src/extra/widgets/menu/lv_menu.c **** 
 521:Drivers/lvgl/src/extra/widgets/menu/lv_menu.c ****     lv_obj_t * main_header_back_icon = lv_img_create(menu->main_header_back_btn);
 522:Drivers/lvgl/src/extra/widgets/menu/lv_menu.c ****     lv_img_set_src(main_header_back_icon, LV_SYMBOL_LEFT);
 523:Drivers/lvgl/src/extra/widgets/menu/lv_menu.c **** 
 524:Drivers/lvgl/src/extra/widgets/menu/lv_menu.c ****     lv_obj_t * main_header_title = lv_label_create(menu->main_header);
 525:Drivers/lvgl/src/extra/widgets/menu/lv_menu.c ****     lv_obj_add_flag(main_header_title, LV_OBJ_FLAG_HIDDEN);
 526:Drivers/lvgl/src/extra/widgets/menu/lv_menu.c ****     menu->main_header_title = main_header_title;
 527:Drivers/lvgl/src/extra/widgets/menu/lv_menu.c **** 
 528:Drivers/lvgl/src/extra/widgets/menu/lv_menu.c ****     menu->main_page = NULL;
 529:Drivers/lvgl/src/extra/widgets/menu/lv_menu.c ****     menu->selected_tab = NULL;
 530:Drivers/lvgl/src/extra/widgets/menu/lv_menu.c **** 
 531:Drivers/lvgl/src/extra/widgets/menu/lv_menu.c ****     lv_obj_add_event_cb(obj, lv_menu_value_changed_event_cb, LV_EVENT_VALUE_CHANGED, menu);
 532:Drivers/lvgl/src/extra/widgets/menu/lv_menu.c **** 
 533:Drivers/lvgl/src/extra/widgets/menu/lv_menu.c ****     LV_TRACE_OBJ_CREATE("finished");
 534:Drivers/lvgl/src/extra/widgets/menu/lv_menu.c **** }
 535:Drivers/lvgl/src/extra/widgets/menu/lv_menu.c **** 
 536:Drivers/lvgl/src/extra/widgets/menu/lv_menu.c **** static void lv_menu_destructor(const lv_obj_class_t * class_p, lv_obj_t * obj)
 537:Drivers/lvgl/src/extra/widgets/menu/lv_menu.c **** {
  29              		.loc 1 537 1 view -0
  30              		.cfi_startproc
  31              		@ args = 0, pretend = 0, frame = 0
  32              		@ frame_needed = 0, uses_anonymous_args = 0
  33              		.loc 1 537 1 is_stmt 0 view .LVU1
  34 0000 08B5     		push	{r3, lr}
ARM GAS  /var/folders/lp/x54gwt890xv47sdkqj1k04q40000gn/T//ccXBSBZL.s 			page 11


  35              		.cfi_def_cfa_offset 8
  36              		.cfi_offset 3, -8
  37              		.cfi_offset 14, -4
 538:Drivers/lvgl/src/extra/widgets/menu/lv_menu.c ****     LV_UNUSED(class_p);
  38              		.loc 1 538 5 is_stmt 1 view .LVU2
 539:Drivers/lvgl/src/extra/widgets/menu/lv_menu.c ****     LV_TRACE_OBJ_CREATE("begin");
  39              		.loc 1 539 33 view .LVU3
 540:Drivers/lvgl/src/extra/widgets/menu/lv_menu.c **** 
 541:Drivers/lvgl/src/extra/widgets/menu/lv_menu.c ****     lv_menu_t * menu = (lv_menu_t *)obj;
  40              		.loc 1 541 5 view .LVU4
  41              	.LVL1:
 542:Drivers/lvgl/src/extra/widgets/menu/lv_menu.c ****     lv_ll_t * history_ll = &(menu->history_ll);
  42              		.loc 1 542 5 view .LVU5
 543:Drivers/lvgl/src/extra/widgets/menu/lv_menu.c **** 
 544:Drivers/lvgl/src/extra/widgets/menu/lv_menu.c ****     _lv_ll_clear(history_ll);
  43              		.loc 1 544 5 view .LVU6
  44 0002 01F15400 		add	r0, r1, #84
  45              	.LVL2:
  46              		.loc 1 544 5 is_stmt 0 view .LVU7
  47 0006 FFF7FEFF 		bl	_lv_ll_clear
  48              	.LVL3:
 545:Drivers/lvgl/src/extra/widgets/menu/lv_menu.c **** 
 546:Drivers/lvgl/src/extra/widgets/menu/lv_menu.c ****     LV_TRACE_OBJ_CREATE("finished");
  49              		.loc 1 546 36 is_stmt 1 view .LVU8
 547:Drivers/lvgl/src/extra/widgets/menu/lv_menu.c **** }
  50              		.loc 1 547 1 is_stmt 0 view .LVU9
  51 000a 08BD     		pop	{r3, pc}
  52              		.cfi_endproc
  53              	.LFE186:
  55              		.section	.text.lv_menu_section_constructor,"ax",%progbits
  56              		.align	1
  57              		.syntax unified
  58              		.thumb
  59              		.thumb_func
  61              	lv_menu_section_constructor:
  62              	.LVL4:
  63              	.LFB190:
 548:Drivers/lvgl/src/extra/widgets/menu/lv_menu.c **** 
 549:Drivers/lvgl/src/extra/widgets/menu/lv_menu.c **** static void lv_menu_page_constructor(const lv_obj_class_t * class_p, lv_obj_t * obj)
 550:Drivers/lvgl/src/extra/widgets/menu/lv_menu.c **** {
 551:Drivers/lvgl/src/extra/widgets/menu/lv_menu.c ****     LV_UNUSED(class_p);
 552:Drivers/lvgl/src/extra/widgets/menu/lv_menu.c **** 
 553:Drivers/lvgl/src/extra/widgets/menu/lv_menu.c ****     lv_menu_t * menu = (lv_menu_t *)lv_obj_get_parent(obj);
 554:Drivers/lvgl/src/extra/widgets/menu/lv_menu.c **** 
 555:Drivers/lvgl/src/extra/widgets/menu/lv_menu.c ****     lv_obj_set_parent(obj, ((lv_menu_t *)menu)->storage);
 556:Drivers/lvgl/src/extra/widgets/menu/lv_menu.c ****     lv_obj_set_flex_flow(obj, LV_FLEX_FLOW_COLUMN);
 557:Drivers/lvgl/src/extra/widgets/menu/lv_menu.c ****     lv_obj_set_flex_align(obj, LV_FLEX_ALIGN_START, LV_FLEX_ALIGN_CENTER, LV_FLEX_ALIGN_CENTER);
 558:Drivers/lvgl/src/extra/widgets/menu/lv_menu.c ****     lv_obj_add_flag(obj, LV_OBJ_FLAG_EVENT_BUBBLE);
 559:Drivers/lvgl/src/extra/widgets/menu/lv_menu.c **** }
 560:Drivers/lvgl/src/extra/widgets/menu/lv_menu.c **** 
 561:Drivers/lvgl/src/extra/widgets/menu/lv_menu.c **** static void lv_menu_page_destructor(const lv_obj_class_t * class_p, lv_obj_t * obj)
 562:Drivers/lvgl/src/extra/widgets/menu/lv_menu.c **** {
 563:Drivers/lvgl/src/extra/widgets/menu/lv_menu.c ****     LV_UNUSED(class_p);
 564:Drivers/lvgl/src/extra/widgets/menu/lv_menu.c **** 
 565:Drivers/lvgl/src/extra/widgets/menu/lv_menu.c ****     lv_menu_page_t * page = (lv_menu_page_t *)obj;
 566:Drivers/lvgl/src/extra/widgets/menu/lv_menu.c **** 
 567:Drivers/lvgl/src/extra/widgets/menu/lv_menu.c ****     if(page->title != NULL) {
ARM GAS  /var/folders/lp/x54gwt890xv47sdkqj1k04q40000gn/T//ccXBSBZL.s 			page 12


 568:Drivers/lvgl/src/extra/widgets/menu/lv_menu.c ****         lv_mem_free(page->title);
 569:Drivers/lvgl/src/extra/widgets/menu/lv_menu.c ****         page->title = NULL;
 570:Drivers/lvgl/src/extra/widgets/menu/lv_menu.c ****     }
 571:Drivers/lvgl/src/extra/widgets/menu/lv_menu.c **** }
 572:Drivers/lvgl/src/extra/widgets/menu/lv_menu.c **** 
 573:Drivers/lvgl/src/extra/widgets/menu/lv_menu.c **** static void lv_menu_cont_constructor(const lv_obj_class_t * class_p, lv_obj_t * obj)
 574:Drivers/lvgl/src/extra/widgets/menu/lv_menu.c **** {
 575:Drivers/lvgl/src/extra/widgets/menu/lv_menu.c ****     LV_UNUSED(class_p);
 576:Drivers/lvgl/src/extra/widgets/menu/lv_menu.c ****     lv_obj_set_flex_flow(obj, LV_FLEX_FLOW_ROW);
 577:Drivers/lvgl/src/extra/widgets/menu/lv_menu.c ****     lv_obj_set_flex_align(obj, LV_FLEX_ALIGN_START, LV_FLEX_ALIGN_CENTER, LV_FLEX_ALIGN_CENTER);
 578:Drivers/lvgl/src/extra/widgets/menu/lv_menu.c ****     lv_obj_clear_flag(obj, LV_OBJ_FLAG_CLICKABLE);
 579:Drivers/lvgl/src/extra/widgets/menu/lv_menu.c **** }
 580:Drivers/lvgl/src/extra/widgets/menu/lv_menu.c **** 
 581:Drivers/lvgl/src/extra/widgets/menu/lv_menu.c **** static void lv_menu_section_constructor(const lv_obj_class_t * class_p, lv_obj_t * obj)
 582:Drivers/lvgl/src/extra/widgets/menu/lv_menu.c **** {
  64              		.loc 1 582 1 is_stmt 1 view -0
  65              		.cfi_startproc
  66              		@ args = 0, pretend = 0, frame = 0
  67              		@ frame_needed = 0, uses_anonymous_args = 0
  68              		.loc 1 582 1 is_stmt 0 view .LVU11
  69 0000 10B5     		push	{r4, lr}
  70              		.cfi_def_cfa_offset 8
  71              		.cfi_offset 4, -8
  72              		.cfi_offset 14, -4
  73 0002 0C46     		mov	r4, r1
 583:Drivers/lvgl/src/extra/widgets/menu/lv_menu.c ****     LV_UNUSED(class_p);
  74              		.loc 1 583 5 is_stmt 1 view .LVU12
 584:Drivers/lvgl/src/extra/widgets/menu/lv_menu.c ****     lv_obj_set_flex_flow(obj, LV_FLEX_FLOW_COLUMN);
  75              		.loc 1 584 5 view .LVU13
  76 0004 0121     		movs	r1, #1
  77              	.LVL5:
  78              		.loc 1 584 5 is_stmt 0 view .LVU14
  79 0006 2046     		mov	r0, r4
  80              	.LVL6:
  81              		.loc 1 584 5 view .LVU15
  82 0008 FFF7FEFF 		bl	lv_obj_set_flex_flow
  83              	.LVL7:
 585:Drivers/lvgl/src/extra/widgets/menu/lv_menu.c ****     lv_obj_clear_flag(obj, LV_OBJ_FLAG_CLICKABLE);
  84              		.loc 1 585 5 is_stmt 1 view .LVU16
  85 000c 0221     		movs	r1, #2
  86 000e 2046     		mov	r0, r4
  87 0010 FFF7FEFF 		bl	lv_obj_clear_flag
  88              	.LVL8:
 586:Drivers/lvgl/src/extra/widgets/menu/lv_menu.c **** }
  89              		.loc 1 586 1 is_stmt 0 view .LVU17
  90 0014 10BD     		pop	{r4, pc}
  91              		.loc 1 586 1 view .LVU18
  92              		.cfi_endproc
  93              	.LFE190:
  95              		.section	.text.lv_menu_cont_constructor,"ax",%progbits
  96              		.align	1
  97              		.syntax unified
  98              		.thumb
  99              		.thumb_func
 101              	lv_menu_cont_constructor:
 102              	.LVL9:
 103              	.LFB189:
ARM GAS  /var/folders/lp/x54gwt890xv47sdkqj1k04q40000gn/T//ccXBSBZL.s 			page 13


 574:Drivers/lvgl/src/extra/widgets/menu/lv_menu.c ****     LV_UNUSED(class_p);
 104              		.loc 1 574 1 is_stmt 1 view -0
 105              		.cfi_startproc
 106              		@ args = 0, pretend = 0, frame = 0
 107              		@ frame_needed = 0, uses_anonymous_args = 0
 574:Drivers/lvgl/src/extra/widgets/menu/lv_menu.c ****     LV_UNUSED(class_p);
 108              		.loc 1 574 1 is_stmt 0 view .LVU20
 109 0000 10B5     		push	{r4, lr}
 110              		.cfi_def_cfa_offset 8
 111              		.cfi_offset 4, -8
 112              		.cfi_offset 14, -4
 113 0002 0C46     		mov	r4, r1
 575:Drivers/lvgl/src/extra/widgets/menu/lv_menu.c ****     lv_obj_set_flex_flow(obj, LV_FLEX_FLOW_ROW);
 114              		.loc 1 575 5 is_stmt 1 view .LVU21
 576:Drivers/lvgl/src/extra/widgets/menu/lv_menu.c ****     lv_obj_set_flex_align(obj, LV_FLEX_ALIGN_START, LV_FLEX_ALIGN_CENTER, LV_FLEX_ALIGN_CENTER);
 115              		.loc 1 576 5 view .LVU22
 116 0004 0021     		movs	r1, #0
 117              	.LVL10:
 576:Drivers/lvgl/src/extra/widgets/menu/lv_menu.c ****     lv_obj_set_flex_align(obj, LV_FLEX_ALIGN_START, LV_FLEX_ALIGN_CENTER, LV_FLEX_ALIGN_CENTER);
 118              		.loc 1 576 5 is_stmt 0 view .LVU23
 119 0006 2046     		mov	r0, r4
 120              	.LVL11:
 576:Drivers/lvgl/src/extra/widgets/menu/lv_menu.c ****     lv_obj_set_flex_align(obj, LV_FLEX_ALIGN_START, LV_FLEX_ALIGN_CENTER, LV_FLEX_ALIGN_CENTER);
 121              		.loc 1 576 5 view .LVU24
 122 0008 FFF7FEFF 		bl	lv_obj_set_flex_flow
 123              	.LVL12:
 577:Drivers/lvgl/src/extra/widgets/menu/lv_menu.c ****     lv_obj_clear_flag(obj, LV_OBJ_FLAG_CLICKABLE);
 124              		.loc 1 577 5 is_stmt 1 view .LVU25
 125 000c 0223     		movs	r3, #2
 126 000e 1A46     		mov	r2, r3
 127 0010 0021     		movs	r1, #0
 128 0012 2046     		mov	r0, r4
 129 0014 FFF7FEFF 		bl	lv_obj_set_flex_align
 130              	.LVL13:
 578:Drivers/lvgl/src/extra/widgets/menu/lv_menu.c **** }
 131              		.loc 1 578 5 view .LVU26
 132 0018 0221     		movs	r1, #2
 133 001a 2046     		mov	r0, r4
 134 001c FFF7FEFF 		bl	lv_obj_clear_flag
 135              	.LVL14:
 579:Drivers/lvgl/src/extra/widgets/menu/lv_menu.c **** 
 136              		.loc 1 579 1 is_stmt 0 view .LVU27
 137 0020 10BD     		pop	{r4, pc}
 579:Drivers/lvgl/src/extra/widgets/menu/lv_menu.c **** 
 138              		.loc 1 579 1 view .LVU28
 139              		.cfi_endproc
 140              	.LFE189:
 142              		.section	.rodata.lv_menu_constructor.str1.4,"aMS",%progbits,1
 143              		.align	2
 144              	.LC0:
 145 0000 EF819300 		.ascii	"\357\201\223\000"
 146              		.section	.text.lv_menu_constructor,"ax",%progbits
 147              		.align	1
 148              		.syntax unified
 149              		.thumb
 150              		.thumb_func
 152              	lv_menu_constructor:
ARM GAS  /var/folders/lp/x54gwt890xv47sdkqj1k04q40000gn/T//ccXBSBZL.s 			page 14


 153              	.LVL15:
 154              	.LFB185:
 470:Drivers/lvgl/src/extra/widgets/menu/lv_menu.c ****     LV_UNUSED(class_p);
 155              		.loc 1 470 1 is_stmt 1 view -0
 156              		.cfi_startproc
 157              		@ args = 0, pretend = 0, frame = 0
 158              		@ frame_needed = 0, uses_anonymous_args = 0
 470:Drivers/lvgl/src/extra/widgets/menu/lv_menu.c ****     LV_UNUSED(class_p);
 159              		.loc 1 470 1 is_stmt 0 view .LVU30
 160 0000 70B5     		push	{r4, r5, r6, lr}
 161              		.cfi_def_cfa_offset 16
 162              		.cfi_offset 4, -16
 163              		.cfi_offset 5, -12
 164              		.cfi_offset 6, -8
 165              		.cfi_offset 14, -4
 166 0002 0C46     		mov	r4, r1
 471:Drivers/lvgl/src/extra/widgets/menu/lv_menu.c ****     LV_TRACE_OBJ_CREATE("begin");
 167              		.loc 1 471 5 is_stmt 1 view .LVU31
 472:Drivers/lvgl/src/extra/widgets/menu/lv_menu.c **** 
 168              		.loc 1 472 33 view .LVU32
 474:Drivers/lvgl/src/extra/widgets/menu/lv_menu.c ****     lv_obj_set_flex_flow(obj, LV_FLEX_FLOW_ROW);
 169              		.loc 1 474 5 view .LVU33
 170 0004 4C4B     		ldr	r3, .L9
 171 0006 1988     		ldrh	r1, [r3]
 172              	.LVL16:
 474:Drivers/lvgl/src/extra/widgets/menu/lv_menu.c ****     lv_obj_set_flex_flow(obj, LV_FLEX_FLOW_ROW);
 173              		.loc 1 474 5 is_stmt 0 view .LVU34
 174 0008 2046     		mov	r0, r4
 175              	.LVL17:
 474:Drivers/lvgl/src/extra/widgets/menu/lv_menu.c ****     lv_obj_set_flex_flow(obj, LV_FLEX_FLOW_ROW);
 176              		.loc 1 474 5 view .LVU35
 177 000a FFF7FEFF 		bl	lv_obj_set_layout
 178              	.LVL18:
 475:Drivers/lvgl/src/extra/widgets/menu/lv_menu.c **** 
 179              		.loc 1 475 5 is_stmt 1 view .LVU36
 180 000e 0021     		movs	r1, #0
 181 0010 2046     		mov	r0, r4
 182 0012 FFF7FEFF 		bl	lv_obj_set_flex_flow
 183              	.LVL19:
 477:Drivers/lvgl/src/extra/widgets/menu/lv_menu.c **** 
 184              		.loc 1 477 5 view .LVU37
 479:Drivers/lvgl/src/extra/widgets/menu/lv_menu.c ****     menu->mode_root_back_btn = LV_MENU_ROOT_BACK_BTN_DISABLED;
 185              		.loc 1 479 5 view .LVU38
 479:Drivers/lvgl/src/extra/widgets/menu/lv_menu.c ****     menu->mode_root_back_btn = LV_MENU_ROOT_BACK_BTN_DISABLED;
 186              		.loc 1 479 23 is_stmt 0 view .LVU39
 187 0016 94F86230 		ldrb	r3, [r4, #98]	@ zero_extendqisi2
 188 001a 23F00603 		bic	r3, r3, #6
 189 001e 84F86230 		strb	r3, [r4, #98]
 480:Drivers/lvgl/src/extra/widgets/menu/lv_menu.c ****     menu->cur_depth = 0;
 190              		.loc 1 480 5 is_stmt 1 view .LVU40
 480:Drivers/lvgl/src/extra/widgets/menu/lv_menu.c ****     menu->cur_depth = 0;
 191              		.loc 1 480 30 is_stmt 0 view .LVU41
 192 0022 DBB2     		uxtb	r3, r3
 193 0024 23F00803 		bic	r3, r3, #8
 194 0028 84F86230 		strb	r3, [r4, #98]
 481:Drivers/lvgl/src/extra/widgets/menu/lv_menu.c ****     menu->prev_depth = 0;
 195              		.loc 1 481 5 is_stmt 1 view .LVU42
ARM GAS  /var/folders/lp/x54gwt890xv47sdkqj1k04q40000gn/T//ccXBSBZL.s 			page 15


 481:Drivers/lvgl/src/extra/widgets/menu/lv_menu.c ****     menu->prev_depth = 0;
 196              		.loc 1 481 21 is_stmt 0 view .LVU43
 197 002c 0025     		movs	r5, #0
 198 002e 84F86050 		strb	r5, [r4, #96]
 482:Drivers/lvgl/src/extra/widgets/menu/lv_menu.c ****     menu->sidebar_generated = false;
 199              		.loc 1 482 5 is_stmt 1 view .LVU44
 482:Drivers/lvgl/src/extra/widgets/menu/lv_menu.c ****     menu->sidebar_generated = false;
 200              		.loc 1 482 22 is_stmt 0 view .LVU45
 201 0032 84F86150 		strb	r5, [r4, #97]
 483:Drivers/lvgl/src/extra/widgets/menu/lv_menu.c **** 
 202              		.loc 1 483 5 is_stmt 1 view .LVU46
 483:Drivers/lvgl/src/extra/widgets/menu/lv_menu.c **** 
 203              		.loc 1 483 29 is_stmt 0 view .LVU47
 204 0036 DBB2     		uxtb	r3, r3
 205 0038 65F30003 		bfi	r3, r5, #0, #1
 206 003c 84F86230 		strb	r3, [r4, #98]
 485:Drivers/lvgl/src/extra/widgets/menu/lv_menu.c **** 
 207              		.loc 1 485 5 is_stmt 1 view .LVU48
 208 0040 0421     		movs	r1, #4
 209 0042 04F15400 		add	r0, r4, #84
 210 0046 FFF7FEFF 		bl	_lv_ll_init
 211              	.LVL20:
 487:Drivers/lvgl/src/extra/widgets/menu/lv_menu.c ****     lv_obj_add_flag(menu->storage, LV_OBJ_FLAG_HIDDEN);
 212              		.loc 1 487 5 view .LVU49
 487:Drivers/lvgl/src/extra/widgets/menu/lv_menu.c ****     lv_obj_add_flag(menu->storage, LV_OBJ_FLAG_HIDDEN);
 213              		.loc 1 487 21 is_stmt 0 view .LVU50
 214 004a 2046     		mov	r0, r4
 215 004c FFF7FEFF 		bl	lv_obj_create
 216              	.LVL21:
 487:Drivers/lvgl/src/extra/widgets/menu/lv_menu.c ****     lv_obj_add_flag(menu->storage, LV_OBJ_FLAG_HIDDEN);
 217              		.loc 1 487 19 discriminator 1 view .LVU51
 218 0050 6062     		str	r0, [r4, #36]
 488:Drivers/lvgl/src/extra/widgets/menu/lv_menu.c **** 
 219              		.loc 1 488 5 is_stmt 1 view .LVU52
 220 0052 0121     		movs	r1, #1
 221 0054 FFF7FEFF 		bl	lv_obj_add_flag
 222              	.LVL22:
 490:Drivers/lvgl/src/extra/widgets/menu/lv_menu.c ****     menu->sidebar_header = NULL;
 223              		.loc 1 490 5 view .LVU53
 490:Drivers/lvgl/src/extra/widgets/menu/lv_menu.c ****     menu->sidebar_header = NULL;
 224              		.loc 1 490 19 is_stmt 0 view .LVU54
 225 0058 E563     		str	r5, [r4, #60]
 491:Drivers/lvgl/src/extra/widgets/menu/lv_menu.c ****     menu->sidebar_header_back_btn = NULL;
 226              		.loc 1 491 5 is_stmt 1 view .LVU55
 491:Drivers/lvgl/src/extra/widgets/menu/lv_menu.c ****     menu->sidebar_header_back_btn = NULL;
 227              		.loc 1 491 26 is_stmt 0 view .LVU56
 228 005a 6564     		str	r5, [r4, #68]
 492:Drivers/lvgl/src/extra/widgets/menu/lv_menu.c ****     menu->sidebar_header_title = NULL;
 229              		.loc 1 492 5 is_stmt 1 view .LVU57
 492:Drivers/lvgl/src/extra/widgets/menu/lv_menu.c ****     menu->sidebar_header_title = NULL;
 230              		.loc 1 492 35 is_stmt 0 view .LVU58
 231 005c A564     		str	r5, [r4, #72]
 493:Drivers/lvgl/src/extra/widgets/menu/lv_menu.c ****     menu->sidebar_page = NULL;
 232              		.loc 1 493 5 is_stmt 1 view .LVU59
 493:Drivers/lvgl/src/extra/widgets/menu/lv_menu.c ****     menu->sidebar_page = NULL;
 233              		.loc 1 493 32 is_stmt 0 view .LVU60
 234 005e E564     		str	r5, [r4, #76]
ARM GAS  /var/folders/lp/x54gwt890xv47sdkqj1k04q40000gn/T//ccXBSBZL.s 			page 16


 494:Drivers/lvgl/src/extra/widgets/menu/lv_menu.c **** 
 235              		.loc 1 494 5 is_stmt 1 view .LVU61
 494:Drivers/lvgl/src/extra/widgets/menu/lv_menu.c **** 
 236              		.loc 1 494 24 is_stmt 0 view .LVU62
 237 0060 2564     		str	r5, [r4, #64]
 496:Drivers/lvgl/src/extra/widgets/menu/lv_menu.c ****     lv_obj_class_init_obj(main_cont);
 238              		.loc 1 496 5 is_stmt 1 view .LVU63
 496:Drivers/lvgl/src/extra/widgets/menu/lv_menu.c ****     lv_obj_class_init_obj(main_cont);
 239              		.loc 1 496 28 is_stmt 0 view .LVU64
 240 0062 2146     		mov	r1, r4
 241 0064 3548     		ldr	r0, .L9+4
 242 0066 FFF7FEFF 		bl	lv_obj_class_create_obj
 243              	.LVL23:
 244 006a 0646     		mov	r6, r0
 245              	.LVL24:
 497:Drivers/lvgl/src/extra/widgets/menu/lv_menu.c ****     lv_obj_set_height(main_cont, LV_PCT(100));
 246              		.loc 1 497 5 is_stmt 1 view .LVU65
 247 006c FFF7FEFF 		bl	lv_obj_class_init_obj
 248              	.LVL25:
 498:Drivers/lvgl/src/extra/widgets/menu/lv_menu.c ****     lv_obj_set_flex_grow(main_cont, 1);
 249              		.loc 1 498 5 view .LVU66
 250 0070 42F26401 		movw	r1, #8292
 251 0074 3046     		mov	r0, r6
 252 0076 FFF7FEFF 		bl	lv_obj_set_height
 253              	.LVL26:
 499:Drivers/lvgl/src/extra/widgets/menu/lv_menu.c ****     lv_obj_set_flex_flow(main_cont, LV_FLEX_FLOW_COLUMN);
 254              		.loc 1 499 5 view .LVU67
 255 007a 0121     		movs	r1, #1
 256 007c 3046     		mov	r0, r6
 257 007e FFF7FEFF 		bl	lv_obj_set_flex_grow
 258              	.LVL27:
 500:Drivers/lvgl/src/extra/widgets/menu/lv_menu.c ****     lv_obj_add_flag(main_cont, LV_OBJ_FLAG_EVENT_BUBBLE);
 259              		.loc 1 500 5 view .LVU68
 260 0082 0121     		movs	r1, #1
 261 0084 3046     		mov	r0, r6
 262 0086 FFF7FEFF 		bl	lv_obj_set_flex_flow
 263              	.LVL28:
 501:Drivers/lvgl/src/extra/widgets/menu/lv_menu.c ****     lv_obj_clear_flag(main_cont, LV_OBJ_FLAG_CLICKABLE);
 264              		.loc 1 501 5 view .LVU69
 265 008a 4FF48041 		mov	r1, #16384
 266 008e 3046     		mov	r0, r6
 267 0090 FFF7FEFF 		bl	lv_obj_add_flag
 268              	.LVL29:
 502:Drivers/lvgl/src/extra/widgets/menu/lv_menu.c ****     menu->main = main_cont;
 269              		.loc 1 502 5 view .LVU70
 270 0094 0221     		movs	r1, #2
 271 0096 3046     		mov	r0, r6
 272 0098 FFF7FEFF 		bl	lv_obj_clear_flag
 273              	.LVL30:
 503:Drivers/lvgl/src/extra/widgets/menu/lv_menu.c **** 
 274              		.loc 1 503 5 view .LVU71
 503:Drivers/lvgl/src/extra/widgets/menu/lv_menu.c **** 
 275              		.loc 1 503 16 is_stmt 0 view .LVU72
 276 009c A662     		str	r6, [r4, #40]
 505:Drivers/lvgl/src/extra/widgets/menu/lv_menu.c ****     lv_obj_class_init_obj(main_header);
 277              		.loc 1 505 5 is_stmt 1 view .LVU73
 505:Drivers/lvgl/src/extra/widgets/menu/lv_menu.c ****     lv_obj_class_init_obj(main_header);
ARM GAS  /var/folders/lp/x54gwt890xv47sdkqj1k04q40000gn/T//ccXBSBZL.s 			page 17


 278              		.loc 1 505 30 is_stmt 0 view .LVU74
 279 009e 3146     		mov	r1, r6
 280 00a0 2748     		ldr	r0, .L9+8
 281 00a2 FFF7FEFF 		bl	lv_obj_class_create_obj
 282              	.LVL31:
 283 00a6 0646     		mov	r6, r0
 284              	.LVL32:
 506:Drivers/lvgl/src/extra/widgets/menu/lv_menu.c ****     lv_obj_set_size(main_header, LV_PCT(100), LV_SIZE_CONTENT);
 285              		.loc 1 506 5 is_stmt 1 view .LVU75
 286 00a8 FFF7FEFF 		bl	lv_obj_class_init_obj
 287              	.LVL33:
 507:Drivers/lvgl/src/extra/widgets/menu/lv_menu.c ****     lv_obj_set_flex_flow(main_header, LV_FLEX_FLOW_ROW);
 288              		.loc 1 507 5 view .LVU76
 289 00ac 42F2D172 		movw	r2, #10193
 290 00b0 42F26401 		movw	r1, #8292
 291 00b4 3046     		mov	r0, r6
 292 00b6 FFF7FEFF 		bl	lv_obj_set_size
 293              	.LVL34:
 508:Drivers/lvgl/src/extra/widgets/menu/lv_menu.c ****     lv_obj_set_flex_align(main_header, LV_FLEX_ALIGN_START, LV_FLEX_ALIGN_CENTER, LV_FLEX_ALIGN_CEN
 294              		.loc 1 508 5 view .LVU77
 295 00ba 2946     		mov	r1, r5
 296 00bc 3046     		mov	r0, r6
 297 00be FFF7FEFF 		bl	lv_obj_set_flex_flow
 298              	.LVL35:
 509:Drivers/lvgl/src/extra/widgets/menu/lv_menu.c ****     lv_obj_clear_flag(main_header, LV_OBJ_FLAG_CLICKABLE);
 299              		.loc 1 509 5 view .LVU78
 300 00c2 0223     		movs	r3, #2
 301 00c4 1A46     		mov	r2, r3
 302 00c6 2946     		mov	r1, r5
 303 00c8 3046     		mov	r0, r6
 304 00ca FFF7FEFF 		bl	lv_obj_set_flex_align
 305              	.LVL36:
 510:Drivers/lvgl/src/extra/widgets/menu/lv_menu.c ****     lv_obj_add_flag(main_header, LV_OBJ_FLAG_EVENT_BUBBLE);
 306              		.loc 1 510 5 view .LVU79
 307 00ce 0221     		movs	r1, #2
 308 00d0 3046     		mov	r0, r6
 309 00d2 FFF7FEFF 		bl	lv_obj_clear_flag
 310              	.LVL37:
 511:Drivers/lvgl/src/extra/widgets/menu/lv_menu.c ****     menu->main_header = main_header;
 311              		.loc 1 511 5 view .LVU80
 312 00d6 4FF48041 		mov	r1, #16384
 313 00da 3046     		mov	r0, r6
 314 00dc FFF7FEFF 		bl	lv_obj_add_flag
 315              	.LVL38:
 512:Drivers/lvgl/src/extra/widgets/menu/lv_menu.c **** 
 316              		.loc 1 512 5 view .LVU81
 512:Drivers/lvgl/src/extra/widgets/menu/lv_menu.c **** 
 317              		.loc 1 512 23 is_stmt 0 view .LVU82
 318 00e0 2663     		str	r6, [r4, #48]
 515:Drivers/lvgl/src/extra/widgets/menu/lv_menu.c ****     lv_obj_add_event_cb(main_header_back_btn, lv_menu_back_event_cb, LV_EVENT_CLICKED, menu);
 319              		.loc 1 515 5 is_stmt 1 view .LVU83
 515:Drivers/lvgl/src/extra/widgets/menu/lv_menu.c ****     lv_obj_add_event_cb(main_header_back_btn, lv_menu_back_event_cb, LV_EVENT_CLICKED, menu);
 320              		.loc 1 515 39 is_stmt 0 view .LVU84
 321 00e2 3046     		mov	r0, r6
 322 00e4 FFF7FEFF 		bl	lv_btn_create
 323              	.LVL39:
 324 00e8 0646     		mov	r6, r0
ARM GAS  /var/folders/lp/x54gwt890xv47sdkqj1k04q40000gn/T//ccXBSBZL.s 			page 18


 325              	.LVL40:
 516:Drivers/lvgl/src/extra/widgets/menu/lv_menu.c ****     lv_obj_add_flag(main_header_back_btn, LV_OBJ_FLAG_EVENT_BUBBLE);
 326              		.loc 1 516 5 is_stmt 1 view .LVU85
 327 00ea 2346     		mov	r3, r4
 328 00ec 0722     		movs	r2, #7
 329 00ee 1549     		ldr	r1, .L9+12
 330 00f0 FFF7FEFF 		bl	lv_obj_add_event_cb
 331              	.LVL41:
 517:Drivers/lvgl/src/extra/widgets/menu/lv_menu.c ****     lv_obj_set_flex_flow(main_header_back_btn, LV_FLEX_FLOW_ROW);
 332              		.loc 1 517 5 view .LVU86
 333 00f4 4FF48041 		mov	r1, #16384
 334 00f8 3046     		mov	r0, r6
 335 00fa FFF7FEFF 		bl	lv_obj_add_flag
 336              	.LVL42:
 518:Drivers/lvgl/src/extra/widgets/menu/lv_menu.c ****     menu->main_header_back_btn = main_header_back_btn;
 337              		.loc 1 518 5 view .LVU87
 338 00fe 2946     		mov	r1, r5
 339 0100 3046     		mov	r0, r6
 340 0102 FFF7FEFF 		bl	lv_obj_set_flex_flow
 341              	.LVL43:
 519:Drivers/lvgl/src/extra/widgets/menu/lv_menu.c **** 
 342              		.loc 1 519 5 view .LVU88
 519:Drivers/lvgl/src/extra/widgets/menu/lv_menu.c **** 
 343              		.loc 1 519 32 is_stmt 0 view .LVU89
 344 0106 6663     		str	r6, [r4, #52]
 521:Drivers/lvgl/src/extra/widgets/menu/lv_menu.c ****     lv_img_set_src(main_header_back_icon, LV_SYMBOL_LEFT);
 345              		.loc 1 521 5 is_stmt 1 view .LVU90
 521:Drivers/lvgl/src/extra/widgets/menu/lv_menu.c ****     lv_img_set_src(main_header_back_icon, LV_SYMBOL_LEFT);
 346              		.loc 1 521 40 is_stmt 0 view .LVU91
 347 0108 3046     		mov	r0, r6
 348 010a FFF7FEFF 		bl	lv_img_create
 349              	.LVL44:
 522:Drivers/lvgl/src/extra/widgets/menu/lv_menu.c **** 
 350              		.loc 1 522 5 is_stmt 1 view .LVU92
 351 010e 0E49     		ldr	r1, .L9+16
 352 0110 FFF7FEFF 		bl	lv_img_set_src
 353              	.LVL45:
 524:Drivers/lvgl/src/extra/widgets/menu/lv_menu.c ****     lv_obj_add_flag(main_header_title, LV_OBJ_FLAG_HIDDEN);
 354              		.loc 1 524 5 view .LVU93
 524:Drivers/lvgl/src/extra/widgets/menu/lv_menu.c ****     lv_obj_add_flag(main_header_title, LV_OBJ_FLAG_HIDDEN);
 355              		.loc 1 524 36 is_stmt 0 view .LVU94
 356 0114 206B     		ldr	r0, [r4, #48]
 357 0116 FFF7FEFF 		bl	lv_label_create
 358              	.LVL46:
 359 011a 0646     		mov	r6, r0
 360              	.LVL47:
 525:Drivers/lvgl/src/extra/widgets/menu/lv_menu.c ****     menu->main_header_title = main_header_title;
 361              		.loc 1 525 5 is_stmt 1 view .LVU95
 362 011c 0121     		movs	r1, #1
 363 011e FFF7FEFF 		bl	lv_obj_add_flag
 364              	.LVL48:
 526:Drivers/lvgl/src/extra/widgets/menu/lv_menu.c **** 
 365              		.loc 1 526 5 view .LVU96
 526:Drivers/lvgl/src/extra/widgets/menu/lv_menu.c **** 
 366              		.loc 1 526 29 is_stmt 0 view .LVU97
 367 0122 A663     		str	r6, [r4, #56]
 528:Drivers/lvgl/src/extra/widgets/menu/lv_menu.c ****     menu->selected_tab = NULL;
ARM GAS  /var/folders/lp/x54gwt890xv47sdkqj1k04q40000gn/T//ccXBSBZL.s 			page 19


 368              		.loc 1 528 5 is_stmt 1 view .LVU98
 528:Drivers/lvgl/src/extra/widgets/menu/lv_menu.c ****     menu->selected_tab = NULL;
 369              		.loc 1 528 21 is_stmt 0 view .LVU99
 370 0124 E562     		str	r5, [r4, #44]
 529:Drivers/lvgl/src/extra/widgets/menu/lv_menu.c **** 
 371              		.loc 1 529 5 is_stmt 1 view .LVU100
 529:Drivers/lvgl/src/extra/widgets/menu/lv_menu.c **** 
 372              		.loc 1 529 24 is_stmt 0 view .LVU101
 373 0126 2565     		str	r5, [r4, #80]
 531:Drivers/lvgl/src/extra/widgets/menu/lv_menu.c **** 
 374              		.loc 1 531 5 is_stmt 1 view .LVU102
 375 0128 2346     		mov	r3, r4
 376 012a 1C22     		movs	r2, #28
 377 012c 0749     		ldr	r1, .L9+20
 378 012e 2046     		mov	r0, r4
 379 0130 FFF7FEFF 		bl	lv_obj_add_event_cb
 380              	.LVL49:
 533:Drivers/lvgl/src/extra/widgets/menu/lv_menu.c **** }
 381              		.loc 1 533 36 view .LVU103
 534:Drivers/lvgl/src/extra/widgets/menu/lv_menu.c **** 
 382              		.loc 1 534 1 is_stmt 0 view .LVU104
 383 0134 70BD     		pop	{r4, r5, r6, pc}
 384              	.LVL50:
 385              	.L10:
 534:Drivers/lvgl/src/extra/widgets/menu/lv_menu.c **** 
 386              		.loc 1 534 1 view .LVU105
 387 0136 00BF     		.align	2
 388              	.L9:
 389 0138 00000000 		.word	LV_LAYOUT_FLEX
 390 013c 00000000 		.word	lv_menu_main_cont_class
 391 0140 00000000 		.word	lv_menu_main_header_cont_class
 392 0144 00000000 		.word	lv_menu_back_event_cb
 393 0148 00000000 		.word	.LC0
 394 014c 00000000 		.word	lv_menu_value_changed_event_cb
 395              		.cfi_endproc
 396              	.LFE185:
 398              		.section	.text.lv_menu_page_destructor,"ax",%progbits
 399              		.align	1
 400              		.syntax unified
 401              		.thumb
 402              		.thumb_func
 404              	lv_menu_page_destructor:
 405              	.LVL51:
 406              	.LFB188:
 562:Drivers/lvgl/src/extra/widgets/menu/lv_menu.c ****     LV_UNUSED(class_p);
 407              		.loc 1 562 1 is_stmt 1 view -0
 408              		.cfi_startproc
 409              		@ args = 0, pretend = 0, frame = 0
 410              		@ frame_needed = 0, uses_anonymous_args = 0
 563:Drivers/lvgl/src/extra/widgets/menu/lv_menu.c **** 
 411              		.loc 1 563 5 view .LVU107
 565:Drivers/lvgl/src/extra/widgets/menu/lv_menu.c **** 
 412              		.loc 1 565 5 view .LVU108
 567:Drivers/lvgl/src/extra/widgets/menu/lv_menu.c ****         lv_mem_free(page->title);
 413              		.loc 1 567 5 view .LVU109
 567:Drivers/lvgl/src/extra/widgets/menu/lv_menu.c ****         lv_mem_free(page->title);
 414              		.loc 1 567 12 is_stmt 0 view .LVU110
ARM GAS  /var/folders/lp/x54gwt890xv47sdkqj1k04q40000gn/T//ccXBSBZL.s 			page 20


 415 0000 486A     		ldr	r0, [r1, #36]
 416              	.LVL52:
 567:Drivers/lvgl/src/extra/widgets/menu/lv_menu.c ****         lv_mem_free(page->title);
 417              		.loc 1 567 7 view .LVU111
 418 0002 30B1     		cbz	r0, .L14
 562:Drivers/lvgl/src/extra/widgets/menu/lv_menu.c ****     LV_UNUSED(class_p);
 419              		.loc 1 562 1 view .LVU112
 420 0004 10B5     		push	{r4, lr}
 421              		.cfi_def_cfa_offset 8
 422              		.cfi_offset 4, -8
 423              		.cfi_offset 14, -4
 424 0006 0C46     		mov	r4, r1
 568:Drivers/lvgl/src/extra/widgets/menu/lv_menu.c ****         page->title = NULL;
 425              		.loc 1 568 9 is_stmt 1 view .LVU113
 426 0008 FFF7FEFF 		bl	lv_mem_free
 427              	.LVL53:
 569:Drivers/lvgl/src/extra/widgets/menu/lv_menu.c ****     }
 428              		.loc 1 569 9 view .LVU114
 569:Drivers/lvgl/src/extra/widgets/menu/lv_menu.c ****     }
 429              		.loc 1 569 21 is_stmt 0 view .LVU115
 430 000c 0023     		movs	r3, #0
 431 000e 6362     		str	r3, [r4, #36]
 571:Drivers/lvgl/src/extra/widgets/menu/lv_menu.c **** 
 432              		.loc 1 571 1 view .LVU116
 433 0010 10BD     		pop	{r4, pc}
 434              	.LVL54:
 435              	.L14:
 436              		.cfi_def_cfa_offset 0
 437              		.cfi_restore 4
 438              		.cfi_restore 14
 571:Drivers/lvgl/src/extra/widgets/menu/lv_menu.c **** 
 439              		.loc 1 571 1 view .LVU117
 440 0012 7047     		bx	lr
 441              		.cfi_endproc
 442              	.LFE188:
 444              		.section	.text.lv_menu_obj_del_event_cb,"ax",%progbits
 445              		.align	1
 446              		.syntax unified
 447              		.thumb
 448              		.thumb_func
 450              	lv_menu_obj_del_event_cb:
 451              	.LVL55:
 452              	.LFB194:
 587:Drivers/lvgl/src/extra/widgets/menu/lv_menu.c **** 
 588:Drivers/lvgl/src/extra/widgets/menu/lv_menu.c **** static void lv_menu_refr_sidebar_header_mode(lv_obj_t * obj)
 589:Drivers/lvgl/src/extra/widgets/menu/lv_menu.c **** {
 590:Drivers/lvgl/src/extra/widgets/menu/lv_menu.c ****     LV_ASSERT_OBJ(obj, MY_CLASS);
 591:Drivers/lvgl/src/extra/widgets/menu/lv_menu.c **** 
 592:Drivers/lvgl/src/extra/widgets/menu/lv_menu.c ****     lv_menu_t * menu = (lv_menu_t *)obj;
 593:Drivers/lvgl/src/extra/widgets/menu/lv_menu.c **** 
 594:Drivers/lvgl/src/extra/widgets/menu/lv_menu.c ****     if(menu->sidebar_header == NULL || menu->sidebar_page == NULL) return;
 595:Drivers/lvgl/src/extra/widgets/menu/lv_menu.c **** 
 596:Drivers/lvgl/src/extra/widgets/menu/lv_menu.c ****     switch(menu->mode_header) {
 597:Drivers/lvgl/src/extra/widgets/menu/lv_menu.c ****         case LV_MENU_HEADER_TOP_FIXED:
 598:Drivers/lvgl/src/extra/widgets/menu/lv_menu.c ****             /* Content should fill the remaining space */
 599:Drivers/lvgl/src/extra/widgets/menu/lv_menu.c ****             lv_obj_move_to_index(menu->sidebar_header, 0);
 600:Drivers/lvgl/src/extra/widgets/menu/lv_menu.c ****             lv_obj_set_flex_grow(menu->sidebar_page, 1);
ARM GAS  /var/folders/lp/x54gwt890xv47sdkqj1k04q40000gn/T//ccXBSBZL.s 			page 21


 601:Drivers/lvgl/src/extra/widgets/menu/lv_menu.c ****             break;
 602:Drivers/lvgl/src/extra/widgets/menu/lv_menu.c ****         case LV_MENU_HEADER_TOP_UNFIXED:
 603:Drivers/lvgl/src/extra/widgets/menu/lv_menu.c ****             lv_obj_move_to_index(menu->sidebar_header, 0);
 604:Drivers/lvgl/src/extra/widgets/menu/lv_menu.c ****             lv_obj_set_flex_grow(menu->sidebar_page, 0);
 605:Drivers/lvgl/src/extra/widgets/menu/lv_menu.c ****             break;
 606:Drivers/lvgl/src/extra/widgets/menu/lv_menu.c ****         case LV_MENU_HEADER_BOTTOM_FIXED:
 607:Drivers/lvgl/src/extra/widgets/menu/lv_menu.c ****             lv_obj_move_to_index(menu->sidebar_header, 1);
 608:Drivers/lvgl/src/extra/widgets/menu/lv_menu.c ****             lv_obj_set_flex_grow(menu->sidebar_page, 1);
 609:Drivers/lvgl/src/extra/widgets/menu/lv_menu.c ****             break;
 610:Drivers/lvgl/src/extra/widgets/menu/lv_menu.c ****     }
 611:Drivers/lvgl/src/extra/widgets/menu/lv_menu.c **** 
 612:Drivers/lvgl/src/extra/widgets/menu/lv_menu.c ****     lv_obj_refr_size(menu->sidebar_header);
 613:Drivers/lvgl/src/extra/widgets/menu/lv_menu.c ****     lv_obj_refr_size(menu->sidebar_page);
 614:Drivers/lvgl/src/extra/widgets/menu/lv_menu.c **** 
 615:Drivers/lvgl/src/extra/widgets/menu/lv_menu.c ****     if(lv_obj_get_content_height(menu->sidebar_header) == 0) {
 616:Drivers/lvgl/src/extra/widgets/menu/lv_menu.c ****         lv_obj_add_flag(menu->sidebar_header, LV_OBJ_FLAG_HIDDEN);
 617:Drivers/lvgl/src/extra/widgets/menu/lv_menu.c ****     }
 618:Drivers/lvgl/src/extra/widgets/menu/lv_menu.c ****     else {
 619:Drivers/lvgl/src/extra/widgets/menu/lv_menu.c ****         lv_obj_clear_flag(menu->sidebar_header, LV_OBJ_FLAG_HIDDEN);
 620:Drivers/lvgl/src/extra/widgets/menu/lv_menu.c ****     }
 621:Drivers/lvgl/src/extra/widgets/menu/lv_menu.c **** }
 622:Drivers/lvgl/src/extra/widgets/menu/lv_menu.c **** 
 623:Drivers/lvgl/src/extra/widgets/menu/lv_menu.c **** static void lv_menu_refr_main_header_mode(lv_obj_t * obj)
 624:Drivers/lvgl/src/extra/widgets/menu/lv_menu.c **** {
 625:Drivers/lvgl/src/extra/widgets/menu/lv_menu.c ****     LV_ASSERT_OBJ(obj, MY_CLASS);
 626:Drivers/lvgl/src/extra/widgets/menu/lv_menu.c **** 
 627:Drivers/lvgl/src/extra/widgets/menu/lv_menu.c ****     lv_menu_t * menu = (lv_menu_t *)obj;
 628:Drivers/lvgl/src/extra/widgets/menu/lv_menu.c **** 
 629:Drivers/lvgl/src/extra/widgets/menu/lv_menu.c ****     if(menu->main_header == NULL || menu->main_page == NULL) return;
 630:Drivers/lvgl/src/extra/widgets/menu/lv_menu.c **** 
 631:Drivers/lvgl/src/extra/widgets/menu/lv_menu.c ****     switch(menu->mode_header) {
 632:Drivers/lvgl/src/extra/widgets/menu/lv_menu.c ****         case LV_MENU_HEADER_TOP_FIXED:
 633:Drivers/lvgl/src/extra/widgets/menu/lv_menu.c ****             /* Content should fill the remaining space */
 634:Drivers/lvgl/src/extra/widgets/menu/lv_menu.c ****             lv_obj_move_to_index(menu->main_header, 0);
 635:Drivers/lvgl/src/extra/widgets/menu/lv_menu.c ****             lv_obj_set_flex_grow(menu->main_page, 1);
 636:Drivers/lvgl/src/extra/widgets/menu/lv_menu.c ****             break;
 637:Drivers/lvgl/src/extra/widgets/menu/lv_menu.c ****         case LV_MENU_HEADER_TOP_UNFIXED:
 638:Drivers/lvgl/src/extra/widgets/menu/lv_menu.c ****             lv_obj_move_to_index(menu->main_header, 0);
 639:Drivers/lvgl/src/extra/widgets/menu/lv_menu.c ****             lv_obj_set_flex_grow(menu->main_page, 0);
 640:Drivers/lvgl/src/extra/widgets/menu/lv_menu.c ****             break;
 641:Drivers/lvgl/src/extra/widgets/menu/lv_menu.c ****         case LV_MENU_HEADER_BOTTOM_FIXED:
 642:Drivers/lvgl/src/extra/widgets/menu/lv_menu.c ****             lv_obj_move_to_index(menu->main_header, 1);
 643:Drivers/lvgl/src/extra/widgets/menu/lv_menu.c ****             lv_obj_set_flex_grow(menu->main_page, 1);
 644:Drivers/lvgl/src/extra/widgets/menu/lv_menu.c ****             break;
 645:Drivers/lvgl/src/extra/widgets/menu/lv_menu.c ****     }
 646:Drivers/lvgl/src/extra/widgets/menu/lv_menu.c **** 
 647:Drivers/lvgl/src/extra/widgets/menu/lv_menu.c ****     lv_obj_refr_size(menu->main_header);
 648:Drivers/lvgl/src/extra/widgets/menu/lv_menu.c ****     lv_obj_refr_size(menu->main_page);
 649:Drivers/lvgl/src/extra/widgets/menu/lv_menu.c ****     lv_obj_update_layout(menu->main_header);
 650:Drivers/lvgl/src/extra/widgets/menu/lv_menu.c **** 
 651:Drivers/lvgl/src/extra/widgets/menu/lv_menu.c ****     if(lv_obj_get_content_height(menu->main_header) == 0) {
 652:Drivers/lvgl/src/extra/widgets/menu/lv_menu.c ****         lv_obj_add_flag(menu->main_header, LV_OBJ_FLAG_HIDDEN);
 653:Drivers/lvgl/src/extra/widgets/menu/lv_menu.c ****     }
 654:Drivers/lvgl/src/extra/widgets/menu/lv_menu.c ****     else {
 655:Drivers/lvgl/src/extra/widgets/menu/lv_menu.c ****         lv_obj_clear_flag(menu->main_header, LV_OBJ_FLAG_HIDDEN);
 656:Drivers/lvgl/src/extra/widgets/menu/lv_menu.c ****     }
 657:Drivers/lvgl/src/extra/widgets/menu/lv_menu.c **** }
ARM GAS  /var/folders/lp/x54gwt890xv47sdkqj1k04q40000gn/T//ccXBSBZL.s 			page 22


 658:Drivers/lvgl/src/extra/widgets/menu/lv_menu.c **** 
 659:Drivers/lvgl/src/extra/widgets/menu/lv_menu.c **** static void lv_menu_load_page_event_cb(lv_event_t * e)
 660:Drivers/lvgl/src/extra/widgets/menu/lv_menu.c **** {
 661:Drivers/lvgl/src/extra/widgets/menu/lv_menu.c ****     lv_obj_t * obj = lv_event_get_target(e);
 662:Drivers/lvgl/src/extra/widgets/menu/lv_menu.c ****     lv_menu_load_page_event_data_t * event_data = lv_event_get_user_data(e);
 663:Drivers/lvgl/src/extra/widgets/menu/lv_menu.c ****     lv_menu_t * menu = (lv_menu_t *)(event_data->menu);
 664:Drivers/lvgl/src/extra/widgets/menu/lv_menu.c ****     lv_obj_t * page = event_data->page;
 665:Drivers/lvgl/src/extra/widgets/menu/lv_menu.c **** 
 666:Drivers/lvgl/src/extra/widgets/menu/lv_menu.c ****     if(menu->sidebar_page != NULL) {
 667:Drivers/lvgl/src/extra/widgets/menu/lv_menu.c ****         /* Check if clicked obj is in the sidebar */
 668:Drivers/lvgl/src/extra/widgets/menu/lv_menu.c ****         bool sidebar = false;
 669:Drivers/lvgl/src/extra/widgets/menu/lv_menu.c ****         lv_obj_t * parent = obj;
 670:Drivers/lvgl/src/extra/widgets/menu/lv_menu.c **** 
 671:Drivers/lvgl/src/extra/widgets/menu/lv_menu.c ****         while(parent) {
 672:Drivers/lvgl/src/extra/widgets/menu/lv_menu.c ****             if(parent == (lv_obj_t *)menu) break;
 673:Drivers/lvgl/src/extra/widgets/menu/lv_menu.c ****             if(parent == menu->sidebar) {
 674:Drivers/lvgl/src/extra/widgets/menu/lv_menu.c ****                 sidebar = true;
 675:Drivers/lvgl/src/extra/widgets/menu/lv_menu.c ****                 break;
 676:Drivers/lvgl/src/extra/widgets/menu/lv_menu.c ****             }
 677:Drivers/lvgl/src/extra/widgets/menu/lv_menu.c ****             parent = lv_obj_get_parent(parent);
 678:Drivers/lvgl/src/extra/widgets/menu/lv_menu.c ****         }
 679:Drivers/lvgl/src/extra/widgets/menu/lv_menu.c **** 
 680:Drivers/lvgl/src/extra/widgets/menu/lv_menu.c ****         if(sidebar) {
 681:Drivers/lvgl/src/extra/widgets/menu/lv_menu.c ****             /* Clear checked state of previous obj */
 682:Drivers/lvgl/src/extra/widgets/menu/lv_menu.c ****             if(menu->selected_tab != obj && menu->selected_tab != NULL) {
 683:Drivers/lvgl/src/extra/widgets/menu/lv_menu.c ****                 lv_obj_clear_state(menu->selected_tab, LV_STATE_CHECKED);
 684:Drivers/lvgl/src/extra/widgets/menu/lv_menu.c ****             }
 685:Drivers/lvgl/src/extra/widgets/menu/lv_menu.c **** 
 686:Drivers/lvgl/src/extra/widgets/menu/lv_menu.c ****             lv_menu_clear_history((lv_obj_t *)menu);
 687:Drivers/lvgl/src/extra/widgets/menu/lv_menu.c **** 
 688:Drivers/lvgl/src/extra/widgets/menu/lv_menu.c ****             menu->selected_tab = obj;
 689:Drivers/lvgl/src/extra/widgets/menu/lv_menu.c ****         }
 690:Drivers/lvgl/src/extra/widgets/menu/lv_menu.c ****     }
 691:Drivers/lvgl/src/extra/widgets/menu/lv_menu.c **** 
 692:Drivers/lvgl/src/extra/widgets/menu/lv_menu.c ****     lv_menu_set_page((lv_obj_t *)menu, page);
 693:Drivers/lvgl/src/extra/widgets/menu/lv_menu.c **** 
 694:Drivers/lvgl/src/extra/widgets/menu/lv_menu.c ****     if(lv_group_get_default() != NULL && menu->sidebar_page == NULL) {
 695:Drivers/lvgl/src/extra/widgets/menu/lv_menu.c ****         /* Sidebar is not supported for now*/
 696:Drivers/lvgl/src/extra/widgets/menu/lv_menu.c ****         lv_group_focus_next(lv_group_get_default());
 697:Drivers/lvgl/src/extra/widgets/menu/lv_menu.c ****     }
 698:Drivers/lvgl/src/extra/widgets/menu/lv_menu.c **** }
 699:Drivers/lvgl/src/extra/widgets/menu/lv_menu.c **** 
 700:Drivers/lvgl/src/extra/widgets/menu/lv_menu.c **** static void lv_menu_obj_del_event_cb(lv_event_t * e)
 701:Drivers/lvgl/src/extra/widgets/menu/lv_menu.c **** {
 453              		.loc 1 701 1 is_stmt 1 view -0
 454              		.cfi_startproc
 455              		@ args = 0, pretend = 0, frame = 0
 456              		@ frame_needed = 0, uses_anonymous_args = 0
 457              		.loc 1 701 1 is_stmt 0 view .LVU119
 458 0000 08B5     		push	{r3, lr}
 459              		.cfi_def_cfa_offset 8
 460              		.cfi_offset 3, -8
 461              		.cfi_offset 14, -4
 702:Drivers/lvgl/src/extra/widgets/menu/lv_menu.c ****     lv_menu_load_page_event_data_t * event_data = lv_event_get_user_data(e);
 462              		.loc 1 702 5 is_stmt 1 view .LVU120
 463              		.loc 1 702 51 is_stmt 0 view .LVU121
 464 0002 FFF7FEFF 		bl	lv_event_get_user_data
ARM GAS  /var/folders/lp/x54gwt890xv47sdkqj1k04q40000gn/T//ccXBSBZL.s 			page 23


 465              	.LVL56:
 703:Drivers/lvgl/src/extra/widgets/menu/lv_menu.c ****     lv_mem_free(event_data);
 466              		.loc 1 703 5 is_stmt 1 view .LVU122
 467 0006 FFF7FEFF 		bl	lv_mem_free
 468              	.LVL57:
 704:Drivers/lvgl/src/extra/widgets/menu/lv_menu.c **** }
 469              		.loc 1 704 1 is_stmt 0 view .LVU123
 470 000a 08BD     		pop	{r3, pc}
 471              		.cfi_endproc
 472              	.LFE194:
 474              		.section	.text.lv_menu_page_constructor,"ax",%progbits
 475              		.align	1
 476              		.syntax unified
 477              		.thumb
 478              		.thumb_func
 480              	lv_menu_page_constructor:
 481              	.LVL58:
 482              	.LFB187:
 550:Drivers/lvgl/src/extra/widgets/menu/lv_menu.c ****     LV_UNUSED(class_p);
 483              		.loc 1 550 1 is_stmt 1 view -0
 484              		.cfi_startproc
 485              		@ args = 0, pretend = 0, frame = 0
 486              		@ frame_needed = 0, uses_anonymous_args = 0
 550:Drivers/lvgl/src/extra/widgets/menu/lv_menu.c ****     LV_UNUSED(class_p);
 487              		.loc 1 550 1 is_stmt 0 view .LVU125
 488 0000 10B5     		push	{r4, lr}
 489              		.cfi_def_cfa_offset 8
 490              		.cfi_offset 4, -8
 491              		.cfi_offset 14, -4
 492 0002 0C46     		mov	r4, r1
 551:Drivers/lvgl/src/extra/widgets/menu/lv_menu.c **** 
 493              		.loc 1 551 5 is_stmt 1 view .LVU126
 553:Drivers/lvgl/src/extra/widgets/menu/lv_menu.c **** 
 494              		.loc 1 553 5 view .LVU127
 553:Drivers/lvgl/src/extra/widgets/menu/lv_menu.c **** 
 495              		.loc 1 553 37 is_stmt 0 view .LVU128
 496 0004 0846     		mov	r0, r1
 497              	.LVL59:
 553:Drivers/lvgl/src/extra/widgets/menu/lv_menu.c **** 
 498              		.loc 1 553 37 view .LVU129
 499 0006 FFF7FEFF 		bl	lv_obj_get_parent
 500              	.LVL60:
 555:Drivers/lvgl/src/extra/widgets/menu/lv_menu.c ****     lv_obj_set_flex_flow(obj, LV_FLEX_FLOW_COLUMN);
 501              		.loc 1 555 5 is_stmt 1 view .LVU130
 502 000a 416A     		ldr	r1, [r0, #36]
 503 000c 2046     		mov	r0, r4
 504              	.LVL61:
 555:Drivers/lvgl/src/extra/widgets/menu/lv_menu.c ****     lv_obj_set_flex_flow(obj, LV_FLEX_FLOW_COLUMN);
 505              		.loc 1 555 5 is_stmt 0 view .LVU131
 506 000e FFF7FEFF 		bl	lv_obj_set_parent
 507              	.LVL62:
 556:Drivers/lvgl/src/extra/widgets/menu/lv_menu.c ****     lv_obj_set_flex_align(obj, LV_FLEX_ALIGN_START, LV_FLEX_ALIGN_CENTER, LV_FLEX_ALIGN_CENTER);
 508              		.loc 1 556 5 is_stmt 1 view .LVU132
 509 0012 0121     		movs	r1, #1
 510 0014 2046     		mov	r0, r4
 511 0016 FFF7FEFF 		bl	lv_obj_set_flex_flow
 512              	.LVL63:
ARM GAS  /var/folders/lp/x54gwt890xv47sdkqj1k04q40000gn/T//ccXBSBZL.s 			page 24


 557:Drivers/lvgl/src/extra/widgets/menu/lv_menu.c ****     lv_obj_add_flag(obj, LV_OBJ_FLAG_EVENT_BUBBLE);
 513              		.loc 1 557 5 view .LVU133
 514 001a 0223     		movs	r3, #2
 515 001c 1A46     		mov	r2, r3
 516 001e 0021     		movs	r1, #0
 517 0020 2046     		mov	r0, r4
 518 0022 FFF7FEFF 		bl	lv_obj_set_flex_align
 519              	.LVL64:
 558:Drivers/lvgl/src/extra/widgets/menu/lv_menu.c **** }
 520              		.loc 1 558 5 view .LVU134
 521 0026 4FF48041 		mov	r1, #16384
 522 002a 2046     		mov	r0, r4
 523 002c FFF7FEFF 		bl	lv_obj_add_flag
 524              	.LVL65:
 559:Drivers/lvgl/src/extra/widgets/menu/lv_menu.c **** 
 525              		.loc 1 559 1 is_stmt 0 view .LVU135
 526 0030 10BD     		pop	{r4, pc}
 559:Drivers/lvgl/src/extra/widgets/menu/lv_menu.c **** 
 527              		.loc 1 559 1 view .LVU136
 528              		.cfi_endproc
 529              	.LFE187:
 531              		.section	.text.lv_menu_refr_main_header_mode,"ax",%progbits
 532              		.align	1
 533              		.syntax unified
 534              		.thumb
 535              		.thumb_func
 537              	lv_menu_refr_main_header_mode:
 538              	.LVL66:
 539              	.LFB192:
 624:Drivers/lvgl/src/extra/widgets/menu/lv_menu.c ****     LV_ASSERT_OBJ(obj, MY_CLASS);
 540              		.loc 1 624 1 is_stmt 1 view -0
 541              		.cfi_startproc
 542              		@ args = 0, pretend = 0, frame = 0
 543              		@ frame_needed = 0, uses_anonymous_args = 0
 624:Drivers/lvgl/src/extra/widgets/menu/lv_menu.c ****     LV_ASSERT_OBJ(obj, MY_CLASS);
 544              		.loc 1 624 1 is_stmt 0 view .LVU138
 545 0000 10B5     		push	{r4, lr}
 546              		.cfi_def_cfa_offset 8
 547              		.cfi_offset 4, -8
 548              		.cfi_offset 14, -4
 549 0002 0446     		mov	r4, r0
 625:Drivers/lvgl/src/extra/widgets/menu/lv_menu.c **** 
 550              		.loc 1 625 5 is_stmt 1 view .LVU139
 625:Drivers/lvgl/src/extra/widgets/menu/lv_menu.c **** 
 551              		.loc 1 625 5 view .LVU140
 625:Drivers/lvgl/src/extra/widgets/menu/lv_menu.c **** 
 552              		.loc 1 625 5 view .LVU141
 627:Drivers/lvgl/src/extra/widgets/menu/lv_menu.c **** 
 553              		.loc 1 627 5 view .LVU142
 554              	.LVL67:
 629:Drivers/lvgl/src/extra/widgets/menu/lv_menu.c **** 
 555              		.loc 1 629 5 view .LVU143
 629:Drivers/lvgl/src/extra/widgets/menu/lv_menu.c **** 
 556              		.loc 1 629 12 is_stmt 0 view .LVU144
 557 0004 006B     		ldr	r0, [r0, #48]
 558              	.LVL68:
 629:Drivers/lvgl/src/extra/widgets/menu/lv_menu.c **** 
ARM GAS  /var/folders/lp/x54gwt890xv47sdkqj1k04q40000gn/T//ccXBSBZL.s 			page 25


 559              		.loc 1 629 7 view .LVU145
 560 0006 10B3     		cbz	r0, .L21
 629:Drivers/lvgl/src/extra/widgets/menu/lv_menu.c **** 
 561              		.loc 1 629 41 discriminator 2 view .LVU146
 562 0008 E36A     		ldr	r3, [r4, #44]
 629:Drivers/lvgl/src/extra/widgets/menu/lv_menu.c **** 
 563              		.loc 1 629 34 discriminator 2 view .LVU147
 564 000a 03B3     		cbz	r3, .L21
 631:Drivers/lvgl/src/extra/widgets/menu/lv_menu.c ****         case LV_MENU_HEADER_TOP_FIXED:
 565              		.loc 1 631 5 is_stmt 1 view .LVU148
 631:Drivers/lvgl/src/extra/widgets/menu/lv_menu.c ****         case LV_MENU_HEADER_TOP_FIXED:
 566              		.loc 1 631 16 is_stmt 0 view .LVU149
 567 000c 94F86230 		ldrb	r3, [r4, #98]	@ zero_extendqisi2
 568 0010 C3F34103 		ubfx	r3, r3, #1, #2
 631:Drivers/lvgl/src/extra/widgets/menu/lv_menu.c ****         case LV_MENU_HEADER_TOP_FIXED:
 569              		.loc 1 631 5 view .LVU150
 570 0014 012B     		cmp	r3, #1
 571 0016 1BD0     		beq	.L23
 572 0018 022B     		cmp	r3, #2
 573 001a 21D0     		beq	.L24
 574 001c 33B9     		cbnz	r3, .L25
 634:Drivers/lvgl/src/extra/widgets/menu/lv_menu.c ****             lv_obj_set_flex_grow(menu->main_page, 1);
 575              		.loc 1 634 13 is_stmt 1 view .LVU151
 576 001e 0021     		movs	r1, #0
 577 0020 FFF7FEFF 		bl	lv_obj_move_to_index
 578              	.LVL69:
 635:Drivers/lvgl/src/extra/widgets/menu/lv_menu.c ****             break;
 579              		.loc 1 635 13 view .LVU152
 580 0024 0121     		movs	r1, #1
 581 0026 E06A     		ldr	r0, [r4, #44]
 582 0028 FFF7FEFF 		bl	lv_obj_set_flex_grow
 583              	.LVL70:
 636:Drivers/lvgl/src/extra/widgets/menu/lv_menu.c ****         case LV_MENU_HEADER_TOP_UNFIXED:
 584              		.loc 1 636 13 view .LVU153
 585              	.L25:
 647:Drivers/lvgl/src/extra/widgets/menu/lv_menu.c ****     lv_obj_refr_size(menu->main_page);
 586              		.loc 1 647 5 view .LVU154
 587 002c 206B     		ldr	r0, [r4, #48]
 588 002e FFF7FEFF 		bl	lv_obj_refr_size
 589              	.LVL71:
 648:Drivers/lvgl/src/extra/widgets/menu/lv_menu.c ****     lv_obj_update_layout(menu->main_header);
 590              		.loc 1 648 5 view .LVU155
 591 0032 E06A     		ldr	r0, [r4, #44]
 592 0034 FFF7FEFF 		bl	lv_obj_refr_size
 593              	.LVL72:
 649:Drivers/lvgl/src/extra/widgets/menu/lv_menu.c **** 
 594              		.loc 1 649 5 view .LVU156
 595 0038 206B     		ldr	r0, [r4, #48]
 596 003a FFF7FEFF 		bl	lv_obj_update_layout
 597              	.LVL73:
 651:Drivers/lvgl/src/extra/widgets/menu/lv_menu.c ****         lv_obj_add_flag(menu->main_header, LV_OBJ_FLAG_HIDDEN);
 598              		.loc 1 651 5 view .LVU157
 651:Drivers/lvgl/src/extra/widgets/menu/lv_menu.c ****         lv_obj_add_flag(menu->main_header, LV_OBJ_FLAG_HIDDEN);
 599              		.loc 1 651 8 is_stmt 0 view .LVU158
 600 003e 206B     		ldr	r0, [r4, #48]
 601 0040 FFF7FEFF 		bl	lv_obj_get_content_height
 602              	.LVL74:
ARM GAS  /var/folders/lp/x54gwt890xv47sdkqj1k04q40000gn/T//ccXBSBZL.s 			page 26


 651:Drivers/lvgl/src/extra/widgets/menu/lv_menu.c ****         lv_obj_add_flag(menu->main_header, LV_OBJ_FLAG_HIDDEN);
 603              		.loc 1 651 7 discriminator 1 view .LVU159
 604 0044 A0B9     		cbnz	r0, .L26
 652:Drivers/lvgl/src/extra/widgets/menu/lv_menu.c ****     }
 605              		.loc 1 652 9 is_stmt 1 view .LVU160
 606 0046 0121     		movs	r1, #1
 607 0048 206B     		ldr	r0, [r4, #48]
 608 004a FFF7FEFF 		bl	lv_obj_add_flag
 609              	.LVL75:
 610              	.L21:
 657:Drivers/lvgl/src/extra/widgets/menu/lv_menu.c **** 
 611              		.loc 1 657 1 is_stmt 0 view .LVU161
 612 004e 10BD     		pop	{r4, pc}
 613              	.LVL76:
 614              	.L23:
 638:Drivers/lvgl/src/extra/widgets/menu/lv_menu.c ****             lv_obj_set_flex_grow(menu->main_page, 0);
 615              		.loc 1 638 13 is_stmt 1 view .LVU162
 616 0050 0021     		movs	r1, #0
 617 0052 FFF7FEFF 		bl	lv_obj_move_to_index
 618              	.LVL77:
 639:Drivers/lvgl/src/extra/widgets/menu/lv_menu.c ****             break;
 619              		.loc 1 639 13 view .LVU163
 620 0056 0021     		movs	r1, #0
 621 0058 E06A     		ldr	r0, [r4, #44]
 622 005a FFF7FEFF 		bl	lv_obj_set_flex_grow
 623              	.LVL78:
 640:Drivers/lvgl/src/extra/widgets/menu/lv_menu.c ****         case LV_MENU_HEADER_BOTTOM_FIXED:
 624              		.loc 1 640 13 view .LVU164
 625 005e E5E7     		b	.L25
 626              	.L24:
 642:Drivers/lvgl/src/extra/widgets/menu/lv_menu.c ****             lv_obj_set_flex_grow(menu->main_page, 1);
 627              		.loc 1 642 13 view .LVU165
 628 0060 0121     		movs	r1, #1
 629 0062 FFF7FEFF 		bl	lv_obj_move_to_index
 630              	.LVL79:
 643:Drivers/lvgl/src/extra/widgets/menu/lv_menu.c ****             break;
 631              		.loc 1 643 13 view .LVU166
 632 0066 0121     		movs	r1, #1
 633 0068 E06A     		ldr	r0, [r4, #44]
 634 006a FFF7FEFF 		bl	lv_obj_set_flex_grow
 635              	.LVL80:
 644:Drivers/lvgl/src/extra/widgets/menu/lv_menu.c ****     }
 636              		.loc 1 644 13 view .LVU167
 637 006e DDE7     		b	.L25
 638              	.L26:
 655:Drivers/lvgl/src/extra/widgets/menu/lv_menu.c ****     }
 639              		.loc 1 655 9 view .LVU168
 640 0070 0121     		movs	r1, #1
 641 0072 206B     		ldr	r0, [r4, #48]
 642 0074 FFF7FEFF 		bl	lv_obj_clear_flag
 643              	.LVL81:
 644 0078 E9E7     		b	.L21
 645              		.cfi_endproc
 646              	.LFE192:
 648              		.section	.text.lv_menu_refr_sidebar_header_mode,"ax",%progbits
 649              		.align	1
 650              		.syntax unified
ARM GAS  /var/folders/lp/x54gwt890xv47sdkqj1k04q40000gn/T//ccXBSBZL.s 			page 27


 651              		.thumb
 652              		.thumb_func
 654              	lv_menu_refr_sidebar_header_mode:
 655              	.LVL82:
 656              	.LFB191:
 589:Drivers/lvgl/src/extra/widgets/menu/lv_menu.c ****     LV_ASSERT_OBJ(obj, MY_CLASS);
 657              		.loc 1 589 1 view -0
 658              		.cfi_startproc
 659              		@ args = 0, pretend = 0, frame = 0
 660              		@ frame_needed = 0, uses_anonymous_args = 0
 589:Drivers/lvgl/src/extra/widgets/menu/lv_menu.c ****     LV_ASSERT_OBJ(obj, MY_CLASS);
 661              		.loc 1 589 1 is_stmt 0 view .LVU170
 662 0000 10B5     		push	{r4, lr}
 663              		.cfi_def_cfa_offset 8
 664              		.cfi_offset 4, -8
 665              		.cfi_offset 14, -4
 666 0002 0446     		mov	r4, r0
 590:Drivers/lvgl/src/extra/widgets/menu/lv_menu.c **** 
 667              		.loc 1 590 5 is_stmt 1 view .LVU171
 590:Drivers/lvgl/src/extra/widgets/menu/lv_menu.c **** 
 668              		.loc 1 590 5 view .LVU172
 590:Drivers/lvgl/src/extra/widgets/menu/lv_menu.c **** 
 669              		.loc 1 590 5 view .LVU173
 592:Drivers/lvgl/src/extra/widgets/menu/lv_menu.c **** 
 670              		.loc 1 592 5 view .LVU174
 671              	.LVL83:
 594:Drivers/lvgl/src/extra/widgets/menu/lv_menu.c **** 
 672              		.loc 1 594 5 view .LVU175
 594:Drivers/lvgl/src/extra/widgets/menu/lv_menu.c **** 
 673              		.loc 1 594 12 is_stmt 0 view .LVU176
 674 0004 406C     		ldr	r0, [r0, #68]
 675              	.LVL84:
 594:Drivers/lvgl/src/extra/widgets/menu/lv_menu.c **** 
 676              		.loc 1 594 7 view .LVU177
 677 0006 F8B1     		cbz	r0, .L28
 594:Drivers/lvgl/src/extra/widgets/menu/lv_menu.c **** 
 678              		.loc 1 594 44 discriminator 2 view .LVU178
 679 0008 236C     		ldr	r3, [r4, #64]
 594:Drivers/lvgl/src/extra/widgets/menu/lv_menu.c **** 
 680              		.loc 1 594 37 discriminator 2 view .LVU179
 681 000a EBB1     		cbz	r3, .L28
 596:Drivers/lvgl/src/extra/widgets/menu/lv_menu.c ****         case LV_MENU_HEADER_TOP_FIXED:
 682              		.loc 1 596 5 is_stmt 1 view .LVU180
 596:Drivers/lvgl/src/extra/widgets/menu/lv_menu.c ****         case LV_MENU_HEADER_TOP_FIXED:
 683              		.loc 1 596 16 is_stmt 0 view .LVU181
 684 000c 94F86230 		ldrb	r3, [r4, #98]	@ zero_extendqisi2
 685 0010 C3F34103 		ubfx	r3, r3, #1, #2
 596:Drivers/lvgl/src/extra/widgets/menu/lv_menu.c ****         case LV_MENU_HEADER_TOP_FIXED:
 686              		.loc 1 596 5 view .LVU182
 687 0014 012B     		cmp	r3, #1
 688 0016 18D0     		beq	.L30
 689 0018 022B     		cmp	r3, #2
 690 001a 1ED0     		beq	.L31
 691 001c 33B9     		cbnz	r3, .L32
 599:Drivers/lvgl/src/extra/widgets/menu/lv_menu.c ****             lv_obj_set_flex_grow(menu->sidebar_page, 1);
 692              		.loc 1 599 13 is_stmt 1 view .LVU183
 693 001e 0021     		movs	r1, #0
ARM GAS  /var/folders/lp/x54gwt890xv47sdkqj1k04q40000gn/T//ccXBSBZL.s 			page 28


 694 0020 FFF7FEFF 		bl	lv_obj_move_to_index
 695              	.LVL85:
 600:Drivers/lvgl/src/extra/widgets/menu/lv_menu.c ****             break;
 696              		.loc 1 600 13 view .LVU184
 697 0024 0121     		movs	r1, #1
 698 0026 206C     		ldr	r0, [r4, #64]
 699 0028 FFF7FEFF 		bl	lv_obj_set_flex_grow
 700              	.LVL86:
 601:Drivers/lvgl/src/extra/widgets/menu/lv_menu.c ****         case LV_MENU_HEADER_TOP_UNFIXED:
 701              		.loc 1 601 13 view .LVU185
 702              	.L32:
 612:Drivers/lvgl/src/extra/widgets/menu/lv_menu.c ****     lv_obj_refr_size(menu->sidebar_page);
 703              		.loc 1 612 5 view .LVU186
 704 002c 606C     		ldr	r0, [r4, #68]
 705 002e FFF7FEFF 		bl	lv_obj_refr_size
 706              	.LVL87:
 613:Drivers/lvgl/src/extra/widgets/menu/lv_menu.c **** 
 707              		.loc 1 613 5 view .LVU187
 708 0032 206C     		ldr	r0, [r4, #64]
 709 0034 FFF7FEFF 		bl	lv_obj_refr_size
 710              	.LVL88:
 615:Drivers/lvgl/src/extra/widgets/menu/lv_menu.c ****         lv_obj_add_flag(menu->sidebar_header, LV_OBJ_FLAG_HIDDEN);
 711              		.loc 1 615 5 view .LVU188
 615:Drivers/lvgl/src/extra/widgets/menu/lv_menu.c ****         lv_obj_add_flag(menu->sidebar_header, LV_OBJ_FLAG_HIDDEN);
 712              		.loc 1 615 8 is_stmt 0 view .LVU189
 713 0038 606C     		ldr	r0, [r4, #68]
 714 003a FFF7FEFF 		bl	lv_obj_get_content_height
 715              	.LVL89:
 615:Drivers/lvgl/src/extra/widgets/menu/lv_menu.c ****         lv_obj_add_flag(menu->sidebar_header, LV_OBJ_FLAG_HIDDEN);
 716              		.loc 1 615 7 discriminator 1 view .LVU190
 717 003e A0B9     		cbnz	r0, .L33
 616:Drivers/lvgl/src/extra/widgets/menu/lv_menu.c ****     }
 718              		.loc 1 616 9 is_stmt 1 view .LVU191
 719 0040 0121     		movs	r1, #1
 720 0042 606C     		ldr	r0, [r4, #68]
 721 0044 FFF7FEFF 		bl	lv_obj_add_flag
 722              	.LVL90:
 723              	.L28:
 621:Drivers/lvgl/src/extra/widgets/menu/lv_menu.c **** 
 724              		.loc 1 621 1 is_stmt 0 view .LVU192
 725 0048 10BD     		pop	{r4, pc}
 726              	.LVL91:
 727              	.L30:
 603:Drivers/lvgl/src/extra/widgets/menu/lv_menu.c ****             lv_obj_set_flex_grow(menu->sidebar_page, 0);
 728              		.loc 1 603 13 is_stmt 1 view .LVU193
 729 004a 0021     		movs	r1, #0
 730 004c FFF7FEFF 		bl	lv_obj_move_to_index
 731              	.LVL92:
 604:Drivers/lvgl/src/extra/widgets/menu/lv_menu.c ****             break;
 732              		.loc 1 604 13 view .LVU194
 733 0050 0021     		movs	r1, #0
 734 0052 206C     		ldr	r0, [r4, #64]
 735 0054 FFF7FEFF 		bl	lv_obj_set_flex_grow
 736              	.LVL93:
 605:Drivers/lvgl/src/extra/widgets/menu/lv_menu.c ****         case LV_MENU_HEADER_BOTTOM_FIXED:
 737              		.loc 1 605 13 view .LVU195
 738 0058 E8E7     		b	.L32
ARM GAS  /var/folders/lp/x54gwt890xv47sdkqj1k04q40000gn/T//ccXBSBZL.s 			page 29


 739              	.L31:
 607:Drivers/lvgl/src/extra/widgets/menu/lv_menu.c ****             lv_obj_set_flex_grow(menu->sidebar_page, 1);
 740              		.loc 1 607 13 view .LVU196
 741 005a 0121     		movs	r1, #1
 742 005c FFF7FEFF 		bl	lv_obj_move_to_index
 743              	.LVL94:
 608:Drivers/lvgl/src/extra/widgets/menu/lv_menu.c ****             break;
 744              		.loc 1 608 13 view .LVU197
 745 0060 0121     		movs	r1, #1
 746 0062 206C     		ldr	r0, [r4, #64]
 747 0064 FFF7FEFF 		bl	lv_obj_set_flex_grow
 748              	.LVL95:
 609:Drivers/lvgl/src/extra/widgets/menu/lv_menu.c ****     }
 749              		.loc 1 609 13 view .LVU198
 750 0068 E0E7     		b	.L32
 751              	.L33:
 619:Drivers/lvgl/src/extra/widgets/menu/lv_menu.c ****     }
 752              		.loc 1 619 9 view .LVU199
 753 006a 0121     		movs	r1, #1
 754 006c 606C     		ldr	r0, [r4, #68]
 755 006e FFF7FEFF 		bl	lv_obj_clear_flag
 756              	.LVL96:
 757 0072 E9E7     		b	.L28
 758              		.cfi_endproc
 759              	.LFE191:
 761              		.section	.text.lv_menu_create,"ax",%progbits
 762              		.align	1
 763              		.global	lv_menu_create
 764              		.syntax unified
 765              		.thumb
 766              		.thumb_func
 768              	lv_menu_create:
 769              	.LVL97:
 770              	.LFB166:
 113:Drivers/lvgl/src/extra/widgets/menu/lv_menu.c ****     LV_LOG_INFO("begin");
 771              		.loc 1 113 1 view -0
 772              		.cfi_startproc
 773              		@ args = 0, pretend = 0, frame = 0
 774              		@ frame_needed = 0, uses_anonymous_args = 0
 113:Drivers/lvgl/src/extra/widgets/menu/lv_menu.c ****     LV_LOG_INFO("begin");
 775              		.loc 1 113 1 is_stmt 0 view .LVU201
 776 0000 10B5     		push	{r4, lr}
 777              		.cfi_def_cfa_offset 8
 778              		.cfi_offset 4, -8
 779              		.cfi_offset 14, -4
 780 0002 0146     		mov	r1, r0
 114:Drivers/lvgl/src/extra/widgets/menu/lv_menu.c ****     lv_obj_t * obj = lv_obj_class_create_obj(MY_CLASS, parent);
 781              		.loc 1 114 5 is_stmt 1 view .LVU202
 114:Drivers/lvgl/src/extra/widgets/menu/lv_menu.c ****     lv_obj_t * obj = lv_obj_class_create_obj(MY_CLASS, parent);
 782              		.loc 1 114 5 view .LVU203
 114:Drivers/lvgl/src/extra/widgets/menu/lv_menu.c ****     lv_obj_t * obj = lv_obj_class_create_obj(MY_CLASS, parent);
 783              		.loc 1 114 5 view .LVU204
 115:Drivers/lvgl/src/extra/widgets/menu/lv_menu.c ****     lv_obj_class_init_obj(obj);
 784              		.loc 1 115 5 view .LVU205
 115:Drivers/lvgl/src/extra/widgets/menu/lv_menu.c ****     lv_obj_class_init_obj(obj);
 785              		.loc 1 115 22 is_stmt 0 view .LVU206
 786 0004 0348     		ldr	r0, .L37
ARM GAS  /var/folders/lp/x54gwt890xv47sdkqj1k04q40000gn/T//ccXBSBZL.s 			page 30


 787              	.LVL98:
 115:Drivers/lvgl/src/extra/widgets/menu/lv_menu.c ****     lv_obj_class_init_obj(obj);
 788              		.loc 1 115 22 view .LVU207
 789 0006 FFF7FEFF 		bl	lv_obj_class_create_obj
 790              	.LVL99:
 115:Drivers/lvgl/src/extra/widgets/menu/lv_menu.c ****     lv_obj_class_init_obj(obj);
 791              		.loc 1 115 22 view .LVU208
 792 000a 0446     		mov	r4, r0
 793              	.LVL100:
 116:Drivers/lvgl/src/extra/widgets/menu/lv_menu.c ****     return obj;
 794              		.loc 1 116 5 is_stmt 1 view .LVU209
 795 000c FFF7FEFF 		bl	lv_obj_class_init_obj
 796              	.LVL101:
 117:Drivers/lvgl/src/extra/widgets/menu/lv_menu.c **** }
 797              		.loc 1 117 5 view .LVU210
 118:Drivers/lvgl/src/extra/widgets/menu/lv_menu.c **** 
 798              		.loc 1 118 1 is_stmt 0 view .LVU211
 799 0010 2046     		mov	r0, r4
 800 0012 10BD     		pop	{r4, pc}
 801              	.LVL102:
 802              	.L38:
 118:Drivers/lvgl/src/extra/widgets/menu/lv_menu.c **** 
 803              		.loc 1 118 1 view .LVU212
 804              		.align	2
 805              	.L37:
 806 0014 00000000 		.word	lv_menu_class
 807              		.cfi_endproc
 808              	.LFE166:
 810              		.section	.text.lv_menu_page_create,"ax",%progbits
 811              		.align	1
 812              		.global	lv_menu_page_create
 813              		.syntax unified
 814              		.thumb
 815              		.thumb_func
 817              	lv_menu_page_create:
 818              	.LVL103:
 819              	.LFB167:
 121:Drivers/lvgl/src/extra/widgets/menu/lv_menu.c ****     LV_LOG_INFO("begin");
 820              		.loc 1 121 1 is_stmt 1 view -0
 821              		.cfi_startproc
 822              		@ args = 0, pretend = 0, frame = 0
 823              		@ frame_needed = 0, uses_anonymous_args = 0
 121:Drivers/lvgl/src/extra/widgets/menu/lv_menu.c ****     LV_LOG_INFO("begin");
 824              		.loc 1 121 1 is_stmt 0 view .LVU214
 825 0000 38B5     		push	{r3, r4, r5, lr}
 826              		.cfi_def_cfa_offset 16
 827              		.cfi_offset 3, -16
 828              		.cfi_offset 4, -12
 829              		.cfi_offset 5, -8
 830              		.cfi_offset 14, -4
 831 0002 0C46     		mov	r4, r1
 122:Drivers/lvgl/src/extra/widgets/menu/lv_menu.c ****     lv_obj_t * obj = lv_obj_class_create_obj(&lv_menu_page_class, parent);
 832              		.loc 1 122 5 is_stmt 1 view .LVU215
 122:Drivers/lvgl/src/extra/widgets/menu/lv_menu.c ****     lv_obj_t * obj = lv_obj_class_create_obj(&lv_menu_page_class, parent);
 833              		.loc 1 122 5 view .LVU216
 122:Drivers/lvgl/src/extra/widgets/menu/lv_menu.c ****     lv_obj_t * obj = lv_obj_class_create_obj(&lv_menu_page_class, parent);
 834              		.loc 1 122 5 view .LVU217
ARM GAS  /var/folders/lp/x54gwt890xv47sdkqj1k04q40000gn/T//ccXBSBZL.s 			page 31


 123:Drivers/lvgl/src/extra/widgets/menu/lv_menu.c ****     lv_obj_class_init_obj(obj);
 835              		.loc 1 123 5 view .LVU218
 123:Drivers/lvgl/src/extra/widgets/menu/lv_menu.c ****     lv_obj_class_init_obj(obj);
 836              		.loc 1 123 22 is_stmt 0 view .LVU219
 837 0004 0146     		mov	r1, r0
 838              	.LVL104:
 123:Drivers/lvgl/src/extra/widgets/menu/lv_menu.c ****     lv_obj_class_init_obj(obj);
 839              		.loc 1 123 22 view .LVU220
 840 0006 0C48     		ldr	r0, .L45
 841              	.LVL105:
 123:Drivers/lvgl/src/extra/widgets/menu/lv_menu.c ****     lv_obj_class_init_obj(obj);
 842              		.loc 1 123 22 view .LVU221
 843 0008 FFF7FEFF 		bl	lv_obj_class_create_obj
 844              	.LVL106:
 123:Drivers/lvgl/src/extra/widgets/menu/lv_menu.c ****     lv_obj_class_init_obj(obj);
 845              		.loc 1 123 22 view .LVU222
 846 000c 0546     		mov	r5, r0
 847              	.LVL107:
 124:Drivers/lvgl/src/extra/widgets/menu/lv_menu.c **** 
 848              		.loc 1 124 5 is_stmt 1 view .LVU223
 849 000e FFF7FEFF 		bl	lv_obj_class_init_obj
 850              	.LVL108:
 126:Drivers/lvgl/src/extra/widgets/menu/lv_menu.c ****     if(title) {
 851              		.loc 1 126 5 view .LVU224
 127:Drivers/lvgl/src/extra/widgets/menu/lv_menu.c ****         page->title = lv_mem_alloc(strlen(title) + 1);
 852              		.loc 1 127 5 view .LVU225
 127:Drivers/lvgl/src/extra/widgets/menu/lv_menu.c ****         page->title = lv_mem_alloc(strlen(title) + 1);
 853              		.loc 1 127 7 is_stmt 0 view .LVU226
 854 0012 64B1     		cbz	r4, .L40
 128:Drivers/lvgl/src/extra/widgets/menu/lv_menu.c ****         LV_ASSERT_MALLOC(page->title);
 855              		.loc 1 128 9 is_stmt 1 view .LVU227
 128:Drivers/lvgl/src/extra/widgets/menu/lv_menu.c ****         LV_ASSERT_MALLOC(page->title);
 856              		.loc 1 128 36 is_stmt 0 view .LVU228
 857 0014 2046     		mov	r0, r4
 858 0016 FFF7FEFF 		bl	strlen
 859              	.LVL109:
 128:Drivers/lvgl/src/extra/widgets/menu/lv_menu.c ****         LV_ASSERT_MALLOC(page->title);
 860              		.loc 1 128 23 discriminator 1 view .LVU229
 861 001a 0130     		adds	r0, r0, #1
 862 001c FFF7FEFF 		bl	lv_mem_alloc
 863              	.LVL110:
 128:Drivers/lvgl/src/extra/widgets/menu/lv_menu.c ****         LV_ASSERT_MALLOC(page->title);
 864              		.loc 1 128 21 discriminator 2 view .LVU230
 865 0020 6862     		str	r0, [r5, #36]
 129:Drivers/lvgl/src/extra/widgets/menu/lv_menu.c ****         if(page->title == NULL) return NULL;
 866              		.loc 1 129 9 is_stmt 1 view .LVU231
 129:Drivers/lvgl/src/extra/widgets/menu/lv_menu.c ****         if(page->title == NULL) return NULL;
 867              		.loc 1 129 9 view .LVU232
 868 0022 18B1     		cbz	r0, .L42
 129:Drivers/lvgl/src/extra/widgets/menu/lv_menu.c ****         if(page->title == NULL) return NULL;
 869              		.loc 1 129 9 discriminator 2 view .LVU233
 129:Drivers/lvgl/src/extra/widgets/menu/lv_menu.c ****         if(page->title == NULL) return NULL;
 870              		.loc 1 129 38 discriminator 2 view .LVU234
 130:Drivers/lvgl/src/extra/widgets/menu/lv_menu.c ****         strcpy(page->title, title);
 871              		.loc 1 130 9 view .LVU235
 131:Drivers/lvgl/src/extra/widgets/menu/lv_menu.c ****     }
 872              		.loc 1 131 9 view .LVU236
ARM GAS  /var/folders/lp/x54gwt890xv47sdkqj1k04q40000gn/T//ccXBSBZL.s 			page 32


 873 0024 2146     		mov	r1, r4
 874 0026 FFF7FEFF 		bl	strcpy
 875              	.LVL111:
 876 002a 02E0     		b	.L39
 877              	.L42:
 129:Drivers/lvgl/src/extra/widgets/menu/lv_menu.c ****         if(page->title == NULL) return NULL;
 878              		.loc 1 129 9 discriminator 1 view .LVU237
 129:Drivers/lvgl/src/extra/widgets/menu/lv_menu.c ****         if(page->title == NULL) return NULL;
 879              		.loc 1 129 9 discriminator 1 view .LVU238
 129:Drivers/lvgl/src/extra/widgets/menu/lv_menu.c ****         if(page->title == NULL) return NULL;
 880              		.loc 1 129 9 discriminator 1 view .LVU239
 129:Drivers/lvgl/src/extra/widgets/menu/lv_menu.c ****         if(page->title == NULL) return NULL;
 881              		.loc 1 129 9 discriminator 1 view .LVU240
 129:Drivers/lvgl/src/extra/widgets/menu/lv_menu.c ****         if(page->title == NULL) return NULL;
 882              		.loc 1 129 9 discriminator 1 view .LVU241
 883 002c FEE7     		b	.L42
 884              	.L40:
 134:Drivers/lvgl/src/extra/widgets/menu/lv_menu.c ****     }
 885              		.loc 1 134 9 view .LVU242
 134:Drivers/lvgl/src/extra/widgets/menu/lv_menu.c ****     }
 886              		.loc 1 134 21 is_stmt 0 view .LVU243
 887 002e 0023     		movs	r3, #0
 888 0030 6B62     		str	r3, [r5, #36]
 137:Drivers/lvgl/src/extra/widgets/menu/lv_menu.c **** }
 889              		.loc 1 137 5 is_stmt 1 view .LVU244
 890              	.L39:
 138:Drivers/lvgl/src/extra/widgets/menu/lv_menu.c **** 
 891              		.loc 1 138 1 is_stmt 0 view .LVU245
 892 0032 2846     		mov	r0, r5
 893 0034 38BD     		pop	{r3, r4, r5, pc}
 894              	.LVL112:
 895              	.L46:
 138:Drivers/lvgl/src/extra/widgets/menu/lv_menu.c **** 
 896              		.loc 1 138 1 view .LVU246
 897 0036 00BF     		.align	2
 898              	.L45:
 899 0038 00000000 		.word	lv_menu_page_class
 900              		.cfi_endproc
 901              	.LFE167:
 903              		.section	.text.lv_menu_cont_create,"ax",%progbits
 904              		.align	1
 905              		.global	lv_menu_cont_create
 906              		.syntax unified
 907              		.thumb
 908              		.thumb_func
 910              	lv_menu_cont_create:
 911              	.LVL113:
 912              	.LFB168:
 141:Drivers/lvgl/src/extra/widgets/menu/lv_menu.c ****     LV_LOG_INFO("begin");
 913              		.loc 1 141 1 is_stmt 1 view -0
 914              		.cfi_startproc
 915              		@ args = 0, pretend = 0, frame = 0
 916              		@ frame_needed = 0, uses_anonymous_args = 0
 141:Drivers/lvgl/src/extra/widgets/menu/lv_menu.c ****     LV_LOG_INFO("begin");
 917              		.loc 1 141 1 is_stmt 0 view .LVU248
 918 0000 10B5     		push	{r4, lr}
 919              		.cfi_def_cfa_offset 8
ARM GAS  /var/folders/lp/x54gwt890xv47sdkqj1k04q40000gn/T//ccXBSBZL.s 			page 33


 920              		.cfi_offset 4, -8
 921              		.cfi_offset 14, -4
 922 0002 0146     		mov	r1, r0
 142:Drivers/lvgl/src/extra/widgets/menu/lv_menu.c ****     lv_obj_t * obj = lv_obj_class_create_obj(&lv_menu_cont_class, parent);
 923              		.loc 1 142 5 is_stmt 1 view .LVU249
 142:Drivers/lvgl/src/extra/widgets/menu/lv_menu.c ****     lv_obj_t * obj = lv_obj_class_create_obj(&lv_menu_cont_class, parent);
 924              		.loc 1 142 5 view .LVU250
 142:Drivers/lvgl/src/extra/widgets/menu/lv_menu.c ****     lv_obj_t * obj = lv_obj_class_create_obj(&lv_menu_cont_class, parent);
 925              		.loc 1 142 5 view .LVU251
 143:Drivers/lvgl/src/extra/widgets/menu/lv_menu.c ****     lv_obj_class_init_obj(obj);
 926              		.loc 1 143 5 view .LVU252
 143:Drivers/lvgl/src/extra/widgets/menu/lv_menu.c ****     lv_obj_class_init_obj(obj);
 927              		.loc 1 143 22 is_stmt 0 view .LVU253
 928 0004 0348     		ldr	r0, .L49
 929              	.LVL114:
 143:Drivers/lvgl/src/extra/widgets/menu/lv_menu.c ****     lv_obj_class_init_obj(obj);
 930              		.loc 1 143 22 view .LVU254
 931 0006 FFF7FEFF 		bl	lv_obj_class_create_obj
 932              	.LVL115:
 143:Drivers/lvgl/src/extra/widgets/menu/lv_menu.c ****     lv_obj_class_init_obj(obj);
 933              		.loc 1 143 22 view .LVU255
 934 000a 0446     		mov	r4, r0
 935              	.LVL116:
 144:Drivers/lvgl/src/extra/widgets/menu/lv_menu.c ****     return obj;
 936              		.loc 1 144 5 is_stmt 1 view .LVU256
 937 000c FFF7FEFF 		bl	lv_obj_class_init_obj
 938              	.LVL117:
 145:Drivers/lvgl/src/extra/widgets/menu/lv_menu.c **** }
 939              		.loc 1 145 5 view .LVU257
 146:Drivers/lvgl/src/extra/widgets/menu/lv_menu.c **** 
 940              		.loc 1 146 1 is_stmt 0 view .LVU258
 941 0010 2046     		mov	r0, r4
 942 0012 10BD     		pop	{r4, pc}
 943              	.LVL118:
 944              	.L50:
 146:Drivers/lvgl/src/extra/widgets/menu/lv_menu.c **** 
 945              		.loc 1 146 1 view .LVU259
 946              		.align	2
 947              	.L49:
 948 0014 00000000 		.word	lv_menu_cont_class
 949              		.cfi_endproc
 950              	.LFE168:
 952              		.section	.text.lv_menu_section_create,"ax",%progbits
 953              		.align	1
 954              		.global	lv_menu_section_create
 955              		.syntax unified
 956              		.thumb
 957              		.thumb_func
 959              	lv_menu_section_create:
 960              	.LVL119:
 961              	.LFB169:
 149:Drivers/lvgl/src/extra/widgets/menu/lv_menu.c ****     LV_LOG_INFO("begin");
 962              		.loc 1 149 1 is_stmt 1 view -0
 963              		.cfi_startproc
 964              		@ args = 0, pretend = 0, frame = 0
 965              		@ frame_needed = 0, uses_anonymous_args = 0
 149:Drivers/lvgl/src/extra/widgets/menu/lv_menu.c ****     LV_LOG_INFO("begin");
ARM GAS  /var/folders/lp/x54gwt890xv47sdkqj1k04q40000gn/T//ccXBSBZL.s 			page 34


 966              		.loc 1 149 1 is_stmt 0 view .LVU261
 967 0000 10B5     		push	{r4, lr}
 968              		.cfi_def_cfa_offset 8
 969              		.cfi_offset 4, -8
 970              		.cfi_offset 14, -4
 971 0002 0146     		mov	r1, r0
 150:Drivers/lvgl/src/extra/widgets/menu/lv_menu.c ****     lv_obj_t * obj = lv_obj_class_create_obj(&lv_menu_section_class, parent);
 972              		.loc 1 150 5 is_stmt 1 view .LVU262
 150:Drivers/lvgl/src/extra/widgets/menu/lv_menu.c ****     lv_obj_t * obj = lv_obj_class_create_obj(&lv_menu_section_class, parent);
 973              		.loc 1 150 5 view .LVU263
 150:Drivers/lvgl/src/extra/widgets/menu/lv_menu.c ****     lv_obj_t * obj = lv_obj_class_create_obj(&lv_menu_section_class, parent);
 974              		.loc 1 150 5 view .LVU264
 151:Drivers/lvgl/src/extra/widgets/menu/lv_menu.c ****     lv_obj_class_init_obj(obj);
 975              		.loc 1 151 5 view .LVU265
 151:Drivers/lvgl/src/extra/widgets/menu/lv_menu.c ****     lv_obj_class_init_obj(obj);
 976              		.loc 1 151 22 is_stmt 0 view .LVU266
 977 0004 0348     		ldr	r0, .L53
 978              	.LVL120:
 151:Drivers/lvgl/src/extra/widgets/menu/lv_menu.c ****     lv_obj_class_init_obj(obj);
 979              		.loc 1 151 22 view .LVU267
 980 0006 FFF7FEFF 		bl	lv_obj_class_create_obj
 981              	.LVL121:
 151:Drivers/lvgl/src/extra/widgets/menu/lv_menu.c ****     lv_obj_class_init_obj(obj);
 982              		.loc 1 151 22 view .LVU268
 983 000a 0446     		mov	r4, r0
 984              	.LVL122:
 152:Drivers/lvgl/src/extra/widgets/menu/lv_menu.c ****     return obj;
 985              		.loc 1 152 5 is_stmt 1 view .LVU269
 986 000c FFF7FEFF 		bl	lv_obj_class_init_obj
 987              	.LVL123:
 153:Drivers/lvgl/src/extra/widgets/menu/lv_menu.c **** }
 988              		.loc 1 153 5 view .LVU270
 154:Drivers/lvgl/src/extra/widgets/menu/lv_menu.c **** 
 989              		.loc 1 154 1 is_stmt 0 view .LVU271
 990 0010 2046     		mov	r0, r4
 991 0012 10BD     		pop	{r4, pc}
 992              	.LVL124:
 993              	.L54:
 154:Drivers/lvgl/src/extra/widgets/menu/lv_menu.c **** 
 994              		.loc 1 154 1 view .LVU272
 995              		.align	2
 996              	.L53:
 997 0014 00000000 		.word	lv_menu_section_class
 998              		.cfi_endproc
 999              	.LFE169:
 1001              		.section	.text.lv_menu_separator_create,"ax",%progbits
 1002              		.align	1
 1003              		.global	lv_menu_separator_create
 1004              		.syntax unified
 1005              		.thumb
 1006              		.thumb_func
 1008              	lv_menu_separator_create:
 1009              	.LVL125:
 1010              	.LFB170:
 157:Drivers/lvgl/src/extra/widgets/menu/lv_menu.c ****     LV_LOG_INFO("begin");
 1011              		.loc 1 157 1 is_stmt 1 view -0
 1012              		.cfi_startproc
ARM GAS  /var/folders/lp/x54gwt890xv47sdkqj1k04q40000gn/T//ccXBSBZL.s 			page 35


 1013              		@ args = 0, pretend = 0, frame = 0
 1014              		@ frame_needed = 0, uses_anonymous_args = 0
 157:Drivers/lvgl/src/extra/widgets/menu/lv_menu.c ****     LV_LOG_INFO("begin");
 1015              		.loc 1 157 1 is_stmt 0 view .LVU274
 1016 0000 10B5     		push	{r4, lr}
 1017              		.cfi_def_cfa_offset 8
 1018              		.cfi_offset 4, -8
 1019              		.cfi_offset 14, -4
 1020 0002 0146     		mov	r1, r0
 158:Drivers/lvgl/src/extra/widgets/menu/lv_menu.c ****     lv_obj_t * obj = lv_obj_class_create_obj(&lv_menu_separator_class, parent);
 1021              		.loc 1 158 5 is_stmt 1 view .LVU275
 158:Drivers/lvgl/src/extra/widgets/menu/lv_menu.c ****     lv_obj_t * obj = lv_obj_class_create_obj(&lv_menu_separator_class, parent);
 1022              		.loc 1 158 5 view .LVU276
 158:Drivers/lvgl/src/extra/widgets/menu/lv_menu.c ****     lv_obj_t * obj = lv_obj_class_create_obj(&lv_menu_separator_class, parent);
 1023              		.loc 1 158 5 view .LVU277
 159:Drivers/lvgl/src/extra/widgets/menu/lv_menu.c ****     lv_obj_class_init_obj(obj);
 1024              		.loc 1 159 5 view .LVU278
 159:Drivers/lvgl/src/extra/widgets/menu/lv_menu.c ****     lv_obj_class_init_obj(obj);
 1025              		.loc 1 159 22 is_stmt 0 view .LVU279
 1026 0004 0348     		ldr	r0, .L57
 1027              	.LVL126:
 159:Drivers/lvgl/src/extra/widgets/menu/lv_menu.c ****     lv_obj_class_init_obj(obj);
 1028              		.loc 1 159 22 view .LVU280
 1029 0006 FFF7FEFF 		bl	lv_obj_class_create_obj
 1030              	.LVL127:
 159:Drivers/lvgl/src/extra/widgets/menu/lv_menu.c ****     lv_obj_class_init_obj(obj);
 1031              		.loc 1 159 22 view .LVU281
 1032 000a 0446     		mov	r4, r0
 1033              	.LVL128:
 160:Drivers/lvgl/src/extra/widgets/menu/lv_menu.c ****     return obj;
 1034              		.loc 1 160 5 is_stmt 1 view .LVU282
 1035 000c FFF7FEFF 		bl	lv_obj_class_init_obj
 1036              	.LVL129:
 161:Drivers/lvgl/src/extra/widgets/menu/lv_menu.c **** }
 1037              		.loc 1 161 5 view .LVU283
 162:Drivers/lvgl/src/extra/widgets/menu/lv_menu.c **** 
 1038              		.loc 1 162 1 is_stmt 0 view .LVU284
 1039 0010 2046     		mov	r0, r4
 1040 0012 10BD     		pop	{r4, pc}
 1041              	.LVL130:
 1042              	.L58:
 162:Drivers/lvgl/src/extra/widgets/menu/lv_menu.c **** 
 1043              		.loc 1 162 1 view .LVU285
 1044              		.align	2
 1045              	.L57:
 1046 0014 00000000 		.word	lv_menu_separator_class
 1047              		.cfi_endproc
 1048              	.LFE170:
 1050              		.section	.text.lv_menu_set_mode_header,"ax",%progbits
 1051              		.align	1
 1052              		.global	lv_menu_set_mode_header
 1053              		.syntax unified
 1054              		.thumb
 1055              		.thumb_func
 1057              	lv_menu_set_mode_header:
 1058              	.LVL131:
 1059              	.LFB174:
ARM GAS  /var/folders/lp/x54gwt890xv47sdkqj1k04q40000gn/T//ccXBSBZL.s 			page 36


 341:Drivers/lvgl/src/extra/widgets/menu/lv_menu.c ****     LV_ASSERT_OBJ(obj, MY_CLASS);
 1060              		.loc 1 341 1 is_stmt 1 view -0
 1061              		.cfi_startproc
 1062              		@ args = 0, pretend = 0, frame = 0
 1063              		@ frame_needed = 0, uses_anonymous_args = 0
 342:Drivers/lvgl/src/extra/widgets/menu/lv_menu.c **** 
 1064              		.loc 1 342 5 view .LVU287
 342:Drivers/lvgl/src/extra/widgets/menu/lv_menu.c **** 
 1065              		.loc 1 342 5 view .LVU288
 342:Drivers/lvgl/src/extra/widgets/menu/lv_menu.c **** 
 1066              		.loc 1 342 5 view .LVU289
 344:Drivers/lvgl/src/extra/widgets/menu/lv_menu.c **** 
 1067              		.loc 1 344 5 view .LVU290
 346:Drivers/lvgl/src/extra/widgets/menu/lv_menu.c ****         menu->mode_header = mode_header;
 1068              		.loc 1 346 5 view .LVU291
 346:Drivers/lvgl/src/extra/widgets/menu/lv_menu.c ****         menu->mode_header = mode_header;
 1069              		.loc 1 346 12 is_stmt 0 view .LVU292
 1070 0000 90F86230 		ldrb	r3, [r0, #98]	@ zero_extendqisi2
 1071 0004 C3F34103 		ubfx	r3, r3, #1, #2
 346:Drivers/lvgl/src/extra/widgets/menu/lv_menu.c ****         menu->mode_header = mode_header;
 1072              		.loc 1 346 7 view .LVU293
 1073 0008 8B42     		cmp	r3, r1
 1074 000a 00D1     		bne	.L65
 1075 000c 7047     		bx	lr
 1076              	.L65:
 341:Drivers/lvgl/src/extra/widgets/menu/lv_menu.c ****     LV_ASSERT_OBJ(obj, MY_CLASS);
 1077              		.loc 1 341 1 view .LVU294
 1078 000e 10B5     		push	{r4, lr}
 1079              		.cfi_def_cfa_offset 8
 1080              		.cfi_offset 4, -8
 1081              		.cfi_offset 14, -4
 1082 0010 0446     		mov	r4, r0
 347:Drivers/lvgl/src/extra/widgets/menu/lv_menu.c ****         lv_menu_refr_main_header_mode(obj);
 1083              		.loc 1 347 9 is_stmt 1 view .LVU295
 347:Drivers/lvgl/src/extra/widgets/menu/lv_menu.c ****         lv_menu_refr_main_header_mode(obj);
 1084              		.loc 1 347 27 is_stmt 0 view .LVU296
 1085 0012 90F86230 		ldrb	r3, [r0, #98]	@ zero_extendqisi2
 1086 0016 61F34203 		bfi	r3, r1, #1, #2
 1087 001a 80F86230 		strb	r3, [r0, #98]
 348:Drivers/lvgl/src/extra/widgets/menu/lv_menu.c ****         if(menu->sidebar_generated) lv_menu_refr_sidebar_header_mode(obj);
 1088              		.loc 1 348 9 is_stmt 1 view .LVU297
 1089 001e FFF7FEFF 		bl	lv_menu_refr_main_header_mode
 1090              	.LVL132:
 349:Drivers/lvgl/src/extra/widgets/menu/lv_menu.c ****     }
 1091              		.loc 1 349 9 view .LVU298
 349:Drivers/lvgl/src/extra/widgets/menu/lv_menu.c ****     }
 1092              		.loc 1 349 12 is_stmt 0 view .LVU299
 1093 0022 94F86230 		ldrb	r3, [r4, #98]	@ zero_extendqisi2
 349:Drivers/lvgl/src/extra/widgets/menu/lv_menu.c ****     }
 1094              		.loc 1 349 11 view .LVU300
 1095 0026 13F0010F 		tst	r3, #1
 1096 002a 00D1     		bne	.L66
 1097              	.L59:
 351:Drivers/lvgl/src/extra/widgets/menu/lv_menu.c **** 
 1098              		.loc 1 351 1 view .LVU301
 1099 002c 10BD     		pop	{r4, pc}
 1100              	.LVL133:
ARM GAS  /var/folders/lp/x54gwt890xv47sdkqj1k04q40000gn/T//ccXBSBZL.s 			page 37


 1101              	.L66:
 349:Drivers/lvgl/src/extra/widgets/menu/lv_menu.c ****     }
 1102              		.loc 1 349 37 is_stmt 1 discriminator 1 view .LVU302
 1103 002e 2046     		mov	r0, r4
 1104 0030 FFF7FEFF 		bl	lv_menu_refr_sidebar_header_mode
 1105              	.LVL134:
 351:Drivers/lvgl/src/extra/widgets/menu/lv_menu.c **** 
 1106              		.loc 1 351 1 is_stmt 0 view .LVU303
 1107 0034 FAE7     		b	.L59
 1108              		.cfi_endproc
 1109              	.LFE174:
 1111              		.section	.text.lv_menu_set_load_page_event,"ax",%progbits
 1112              		.align	1
 1113              		.global	lv_menu_set_load_page_event
 1114              		.syntax unified
 1115              		.thumb
 1116              		.thumb_func
 1118              	lv_menu_set_load_page_event:
 1119              	.LVL135:
 1120              	.LFB176:
 366:Drivers/lvgl/src/extra/widgets/menu/lv_menu.c ****     LV_ASSERT_OBJ(menu, MY_CLASS);
 1121              		.loc 1 366 1 is_stmt 1 view -0
 1122              		.cfi_startproc
 1123              		@ args = 0, pretend = 0, frame = 0
 1124              		@ frame_needed = 0, uses_anonymous_args = 0
 366:Drivers/lvgl/src/extra/widgets/menu/lv_menu.c ****     LV_ASSERT_OBJ(menu, MY_CLASS);
 1125              		.loc 1 366 1 is_stmt 0 view .LVU305
 1126 0000 F8B5     		push	{r3, r4, r5, r6, r7, lr}
 1127              		.cfi_def_cfa_offset 24
 1128              		.cfi_offset 3, -24
 1129              		.cfi_offset 4, -20
 1130              		.cfi_offset 5, -16
 1131              		.cfi_offset 6, -12
 1132              		.cfi_offset 7, -8
 1133              		.cfi_offset 14, -4
 1134 0002 0746     		mov	r7, r0
 1135 0004 0C46     		mov	r4, r1
 1136 0006 1646     		mov	r6, r2
 367:Drivers/lvgl/src/extra/widgets/menu/lv_menu.c **** 
 1137              		.loc 1 367 5 is_stmt 1 view .LVU306
 367:Drivers/lvgl/src/extra/widgets/menu/lv_menu.c **** 
 1138              		.loc 1 367 5 view .LVU307
 367:Drivers/lvgl/src/extra/widgets/menu/lv_menu.c **** 
 1139              		.loc 1 367 5 view .LVU308
 369:Drivers/lvgl/src/extra/widgets/menu/lv_menu.c ****     lv_obj_clear_flag(obj, LV_OBJ_FLAG_SCROLLABLE);
 1140              		.loc 1 369 5 view .LVU309
 1141 0008 0221     		movs	r1, #2
 1142              	.LVL136:
 369:Drivers/lvgl/src/extra/widgets/menu/lv_menu.c ****     lv_obj_clear_flag(obj, LV_OBJ_FLAG_SCROLLABLE);
 1143              		.loc 1 369 5 is_stmt 0 view .LVU310
 1144 000a 2046     		mov	r0, r4
 1145              	.LVL137:
 369:Drivers/lvgl/src/extra/widgets/menu/lv_menu.c ****     lv_obj_clear_flag(obj, LV_OBJ_FLAG_SCROLLABLE);
 1146              		.loc 1 369 5 view .LVU311
 1147 000c FFF7FEFF 		bl	lv_obj_add_flag
 1148              	.LVL138:
 370:Drivers/lvgl/src/extra/widgets/menu/lv_menu.c ****     lv_obj_add_flag(obj, LV_OBJ_FLAG_SCROLL_ON_FOCUS);
ARM GAS  /var/folders/lp/x54gwt890xv47sdkqj1k04q40000gn/T//ccXBSBZL.s 			page 38


 1149              		.loc 1 370 5 is_stmt 1 view .LVU312
 1150 0010 1021     		movs	r1, #16
 1151 0012 2046     		mov	r0, r4
 1152 0014 FFF7FEFF 		bl	lv_obj_clear_flag
 1153              	.LVL139:
 371:Drivers/lvgl/src/extra/widgets/menu/lv_menu.c **** 
 1154              		.loc 1 371 5 view .LVU313
 1155 0018 4FF48061 		mov	r1, #1024
 1156 001c 2046     		mov	r0, r4
 1157 001e FFF7FEFF 		bl	lv_obj_add_flag
 1158              	.LVL140:
 374:Drivers/lvgl/src/extra/widgets/menu/lv_menu.c ****         lv_event_send(obj, LV_EVENT_DELETE, NULL);
 1159              		.loc 1 374 5 view .LVU314
 374:Drivers/lvgl/src/extra/widgets/menu/lv_menu.c ****         lv_event_send(obj, LV_EVENT_DELETE, NULL);
 1160              		.loc 1 374 8 is_stmt 0 view .LVU315
 1161 0022 1149     		ldr	r1, .L71
 1162 0024 2046     		mov	r0, r4
 1163 0026 FFF7FEFF 		bl	lv_obj_remove_event_cb
 1164              	.LVL141:
 374:Drivers/lvgl/src/extra/widgets/menu/lv_menu.c ****         lv_event_send(obj, LV_EVENT_DELETE, NULL);
 1165              		.loc 1 374 7 discriminator 1 view .LVU316
 1166 002a 90B9     		cbnz	r0, .L70
 1167              	.L68:
 379:Drivers/lvgl/src/extra/widgets/menu/lv_menu.c ****     event_data->menu = menu;
 1168              		.loc 1 379 5 is_stmt 1 view .LVU317
 379:Drivers/lvgl/src/extra/widgets/menu/lv_menu.c ****     event_data->menu = menu;
 1169              		.loc 1 379 51 is_stmt 0 view .LVU318
 1170 002c 0820     		movs	r0, #8
 1171 002e FFF7FEFF 		bl	lv_mem_alloc
 1172              	.LVL142:
 1173 0032 0546     		mov	r5, r0
 1174              	.LVL143:
 380:Drivers/lvgl/src/extra/widgets/menu/lv_menu.c ****     event_data->page = page;
 1175              		.loc 1 380 5 is_stmt 1 view .LVU319
 380:Drivers/lvgl/src/extra/widgets/menu/lv_menu.c ****     event_data->page = page;
 1176              		.loc 1 380 22 is_stmt 0 view .LVU320
 1177 0034 0760     		str	r7, [r0]
 381:Drivers/lvgl/src/extra/widgets/menu/lv_menu.c **** 
 1178              		.loc 1 381 5 is_stmt 1 view .LVU321
 381:Drivers/lvgl/src/extra/widgets/menu/lv_menu.c **** 
 1179              		.loc 1 381 22 is_stmt 0 view .LVU322
 1180 0036 4660     		str	r6, [r0, #4]
 383:Drivers/lvgl/src/extra/widgets/menu/lv_menu.c ****     lv_obj_add_event_cb(obj, lv_menu_obj_del_event_cb, LV_EVENT_DELETE, event_data);
 1181              		.loc 1 383 5 is_stmt 1 view .LVU323
 1182 0038 0346     		mov	r3, r0
 1183 003a 0722     		movs	r2, #7
 1184 003c 0A49     		ldr	r1, .L71
 1185 003e 2046     		mov	r0, r4
 1186              	.LVL144:
 383:Drivers/lvgl/src/extra/widgets/menu/lv_menu.c ****     lv_obj_add_event_cb(obj, lv_menu_obj_del_event_cb, LV_EVENT_DELETE, event_data);
 1187              		.loc 1 383 5 is_stmt 0 view .LVU324
 1188 0040 FFF7FEFF 		bl	lv_obj_add_event_cb
 1189              	.LVL145:
 384:Drivers/lvgl/src/extra/widgets/menu/lv_menu.c **** }
 1190              		.loc 1 384 5 is_stmt 1 view .LVU325
 1191 0044 2B46     		mov	r3, r5
 1192 0046 2122     		movs	r2, #33
ARM GAS  /var/folders/lp/x54gwt890xv47sdkqj1k04q40000gn/T//ccXBSBZL.s 			page 39


 1193 0048 0849     		ldr	r1, .L71+4
 1194 004a 2046     		mov	r0, r4
 1195 004c FFF7FEFF 		bl	lv_obj_add_event_cb
 1196              	.LVL146:
 385:Drivers/lvgl/src/extra/widgets/menu/lv_menu.c **** 
 1197              		.loc 1 385 1 is_stmt 0 view .LVU326
 1198 0050 F8BD     		pop	{r3, r4, r5, r6, r7, pc}
 1199              	.LVL147:
 1200              	.L70:
 375:Drivers/lvgl/src/extra/widgets/menu/lv_menu.c ****         lv_obj_remove_event_cb(obj, lv_menu_obj_del_event_cb);
 1201              		.loc 1 375 9 is_stmt 1 view .LVU327
 1202 0052 0022     		movs	r2, #0
 1203 0054 2121     		movs	r1, #33
 1204 0056 2046     		mov	r0, r4
 1205 0058 FFF7FEFF 		bl	lv_event_send
 1206              	.LVL148:
 376:Drivers/lvgl/src/extra/widgets/menu/lv_menu.c ****     }
 1207              		.loc 1 376 9 view .LVU328
 1208 005c 0349     		ldr	r1, .L71+4
 1209 005e 2046     		mov	r0, r4
 1210 0060 FFF7FEFF 		bl	lv_obj_remove_event_cb
 1211              	.LVL149:
 1212 0064 E2E7     		b	.L68
 1213              	.L72:
 1214 0066 00BF     		.align	2
 1215              	.L71:
 1216 0068 00000000 		.word	lv_menu_load_page_event_cb
 1217 006c 00000000 		.word	lv_menu_obj_del_event_cb
 1218              		.cfi_endproc
 1219              	.LFE176:
 1221              		.section	.text.lv_menu_get_cur_main_page,"ax",%progbits
 1222              		.align	1
 1223              		.global	lv_menu_get_cur_main_page
 1224              		.syntax unified
 1225              		.thumb
 1226              		.thumb_func
 1228              	lv_menu_get_cur_main_page:
 1229              	.LVL150:
 1230              	.LFB177:
 391:Drivers/lvgl/src/extra/widgets/menu/lv_menu.c ****     LV_ASSERT_OBJ(obj, MY_CLASS);
 1231              		.loc 1 391 1 view -0
 1232              		.cfi_startproc
 1233              		@ args = 0, pretend = 0, frame = 0
 1234              		@ frame_needed = 0, uses_anonymous_args = 0
 1235              		@ link register save eliminated.
 392:Drivers/lvgl/src/extra/widgets/menu/lv_menu.c **** 
 1236              		.loc 1 392 5 view .LVU330
 392:Drivers/lvgl/src/extra/widgets/menu/lv_menu.c **** 
 1237              		.loc 1 392 5 view .LVU331
 392:Drivers/lvgl/src/extra/widgets/menu/lv_menu.c **** 
 1238              		.loc 1 392 5 view .LVU332
 394:Drivers/lvgl/src/extra/widgets/menu/lv_menu.c ****     return menu->main_page;
 1239              		.loc 1 394 5 view .LVU333
 395:Drivers/lvgl/src/extra/widgets/menu/lv_menu.c **** }
 1240              		.loc 1 395 5 view .LVU334
 396:Drivers/lvgl/src/extra/widgets/menu/lv_menu.c **** 
 1241              		.loc 1 396 1 is_stmt 0 view .LVU335
ARM GAS  /var/folders/lp/x54gwt890xv47sdkqj1k04q40000gn/T//ccXBSBZL.s 			page 40


 1242 0000 C06A     		ldr	r0, [r0, #44]
 1243              	.LVL151:
 396:Drivers/lvgl/src/extra/widgets/menu/lv_menu.c **** 
 1244              		.loc 1 396 1 view .LVU336
 1245 0002 7047     		bx	lr
 1246              		.cfi_endproc
 1247              	.LFE177:
 1249              		.section	.text.lv_menu_get_cur_sidebar_page,"ax",%progbits
 1250              		.align	1
 1251              		.global	lv_menu_get_cur_sidebar_page
 1252              		.syntax unified
 1253              		.thumb
 1254              		.thumb_func
 1256              	lv_menu_get_cur_sidebar_page:
 1257              	.LVL152:
 1258              	.LFB178:
 399:Drivers/lvgl/src/extra/widgets/menu/lv_menu.c ****     LV_ASSERT_OBJ(obj, MY_CLASS);
 1259              		.loc 1 399 1 is_stmt 1 view -0
 1260              		.cfi_startproc
 1261              		@ args = 0, pretend = 0, frame = 0
 1262              		@ frame_needed = 0, uses_anonymous_args = 0
 1263              		@ link register save eliminated.
 400:Drivers/lvgl/src/extra/widgets/menu/lv_menu.c **** 
 1264              		.loc 1 400 5 view .LVU338
 400:Drivers/lvgl/src/extra/widgets/menu/lv_menu.c **** 
 1265              		.loc 1 400 5 view .LVU339
 400:Drivers/lvgl/src/extra/widgets/menu/lv_menu.c **** 
 1266              		.loc 1 400 5 view .LVU340
 402:Drivers/lvgl/src/extra/widgets/menu/lv_menu.c ****     return menu->sidebar_page;
 1267              		.loc 1 402 5 view .LVU341
 403:Drivers/lvgl/src/extra/widgets/menu/lv_menu.c **** }
 1268              		.loc 1 403 5 view .LVU342
 404:Drivers/lvgl/src/extra/widgets/menu/lv_menu.c **** 
 1269              		.loc 1 404 1 is_stmt 0 view .LVU343
 1270 0000 006C     		ldr	r0, [r0, #64]
 1271              	.LVL153:
 404:Drivers/lvgl/src/extra/widgets/menu/lv_menu.c **** 
 1272              		.loc 1 404 1 view .LVU344
 1273 0002 7047     		bx	lr
 1274              		.cfi_endproc
 1275              	.LFE178:
 1277              		.section	.text.lv_menu_value_changed_event_cb,"ax",%progbits
 1278              		.align	1
 1279              		.syntax unified
 1280              		.thumb
 1281              		.thumb_func
 1283              	lv_menu_value_changed_event_cb:
 1284              	.LVL154:
 1285              	.LFB196:
 705:Drivers/lvgl/src/extra/widgets/menu/lv_menu.c **** 
 706:Drivers/lvgl/src/extra/widgets/menu/lv_menu.c **** static void lv_menu_back_event_cb(lv_event_t * e)
 707:Drivers/lvgl/src/extra/widgets/menu/lv_menu.c **** {
 708:Drivers/lvgl/src/extra/widgets/menu/lv_menu.c ****     lv_event_code_t code = lv_event_get_code(e);
 709:Drivers/lvgl/src/extra/widgets/menu/lv_menu.c ****     /* LV_EVENT_CLICKED */
 710:Drivers/lvgl/src/extra/widgets/menu/lv_menu.c ****     if(code == LV_EVENT_CLICKED) {
 711:Drivers/lvgl/src/extra/widgets/menu/lv_menu.c ****         lv_obj_t * obj = lv_event_get_target(e);
 712:Drivers/lvgl/src/extra/widgets/menu/lv_menu.c ****         lv_menu_t * menu = (lv_menu_t *)lv_event_get_user_data(e);
ARM GAS  /var/folders/lp/x54gwt890xv47sdkqj1k04q40000gn/T//ccXBSBZL.s 			page 41


 713:Drivers/lvgl/src/extra/widgets/menu/lv_menu.c **** 
 714:Drivers/lvgl/src/extra/widgets/menu/lv_menu.c ****         if(!(obj == menu->main_header_back_btn || obj == menu->sidebar_header_back_btn)) return;
 715:Drivers/lvgl/src/extra/widgets/menu/lv_menu.c **** 
 716:Drivers/lvgl/src/extra/widgets/menu/lv_menu.c ****         menu->prev_depth = menu->cur_depth; /* Save the previous value for user event handler */
 717:Drivers/lvgl/src/extra/widgets/menu/lv_menu.c **** 
 718:Drivers/lvgl/src/extra/widgets/menu/lv_menu.c ****         if(lv_menu_back_btn_is_root((lv_obj_t *)menu, obj)) return;
 719:Drivers/lvgl/src/extra/widgets/menu/lv_menu.c **** 
 720:Drivers/lvgl/src/extra/widgets/menu/lv_menu.c ****         lv_ll_t * history_ll = &(menu->history_ll);
 721:Drivers/lvgl/src/extra/widgets/menu/lv_menu.c **** 
 722:Drivers/lvgl/src/extra/widgets/menu/lv_menu.c ****         /* The current menu */
 723:Drivers/lvgl/src/extra/widgets/menu/lv_menu.c ****         lv_menu_history_t * act_hist = _lv_ll_get_head(history_ll);
 724:Drivers/lvgl/src/extra/widgets/menu/lv_menu.c **** 
 725:Drivers/lvgl/src/extra/widgets/menu/lv_menu.c ****         /* The previous menu */
 726:Drivers/lvgl/src/extra/widgets/menu/lv_menu.c ****         lv_menu_history_t * prev_hist = _lv_ll_get_next(history_ll, act_hist);
 727:Drivers/lvgl/src/extra/widgets/menu/lv_menu.c **** 
 728:Drivers/lvgl/src/extra/widgets/menu/lv_menu.c ****         if(prev_hist != NULL) {
 729:Drivers/lvgl/src/extra/widgets/menu/lv_menu.c ****             /* Previous menu exists */
 730:Drivers/lvgl/src/extra/widgets/menu/lv_menu.c ****             /* Delete the current item from the history */
 731:Drivers/lvgl/src/extra/widgets/menu/lv_menu.c ****             _lv_ll_remove(history_ll, act_hist);
 732:Drivers/lvgl/src/extra/widgets/menu/lv_menu.c ****             lv_mem_free(act_hist);
 733:Drivers/lvgl/src/extra/widgets/menu/lv_menu.c ****             menu->cur_depth--;
 734:Drivers/lvgl/src/extra/widgets/menu/lv_menu.c ****             /* Create the previous menu.
 735:Drivers/lvgl/src/extra/widgets/menu/lv_menu.c ****             *  Remove it from the history because `lv_menu_set_page` will add it again */
 736:Drivers/lvgl/src/extra/widgets/menu/lv_menu.c ****             _lv_ll_remove(history_ll, prev_hist);
 737:Drivers/lvgl/src/extra/widgets/menu/lv_menu.c ****             menu->cur_depth--;
 738:Drivers/lvgl/src/extra/widgets/menu/lv_menu.c ****             lv_menu_set_page(&(menu->obj), prev_hist->page);
 739:Drivers/lvgl/src/extra/widgets/menu/lv_menu.c **** 
 740:Drivers/lvgl/src/extra/widgets/menu/lv_menu.c ****             lv_mem_free(prev_hist);
 741:Drivers/lvgl/src/extra/widgets/menu/lv_menu.c ****         }
 742:Drivers/lvgl/src/extra/widgets/menu/lv_menu.c ****     }
 743:Drivers/lvgl/src/extra/widgets/menu/lv_menu.c **** }
 744:Drivers/lvgl/src/extra/widgets/menu/lv_menu.c **** 
 745:Drivers/lvgl/src/extra/widgets/menu/lv_menu.c **** static void lv_menu_value_changed_event_cb(lv_event_t * e)
 746:Drivers/lvgl/src/extra/widgets/menu/lv_menu.c **** {
 1286              		.loc 1 746 1 is_stmt 1 view -0
 1287              		.cfi_startproc
 1288              		@ args = 0, pretend = 0, frame = 0
 1289              		@ frame_needed = 0, uses_anonymous_args = 0
 1290              		.loc 1 746 1 is_stmt 0 view .LVU346
 1291 0000 10B5     		push	{r4, lr}
 1292              		.cfi_def_cfa_offset 8
 1293              		.cfi_offset 4, -8
 1294              		.cfi_offset 14, -4
 747:Drivers/lvgl/src/extra/widgets/menu/lv_menu.c ****     lv_obj_t * obj = lv_event_get_user_data(e);
 1295              		.loc 1 747 5 is_stmt 1 view .LVU347
 1296              		.loc 1 747 22 is_stmt 0 view .LVU348
 1297 0002 FFF7FEFF 		bl	lv_event_get_user_data
 1298              	.LVL155:
 1299              		.loc 1 747 22 view .LVU349
 1300 0006 0446     		mov	r4, r0
 1301              	.LVL156:
 748:Drivers/lvgl/src/extra/widgets/menu/lv_menu.c ****     lv_menu_t * menu = (lv_menu_t *)obj;
 1302              		.loc 1 748 5 is_stmt 1 view .LVU350
 749:Drivers/lvgl/src/extra/widgets/menu/lv_menu.c **** 
 750:Drivers/lvgl/src/extra/widgets/menu/lv_menu.c ****     lv_menu_page_t * main_page = (lv_menu_page_t *)lv_menu_get_cur_main_page(obj);
 1303              		.loc 1 750 5 view .LVU351
 1304              		.loc 1 750 52 is_stmt 0 view .LVU352
ARM GAS  /var/folders/lp/x54gwt890xv47sdkqj1k04q40000gn/T//ccXBSBZL.s 			page 42


 1305 0008 FFF7FEFF 		bl	lv_menu_get_cur_main_page
 1306              	.LVL157:
 751:Drivers/lvgl/src/extra/widgets/menu/lv_menu.c ****     if(main_page != NULL && menu->main_header_title != NULL) {
 1307              		.loc 1 751 5 is_stmt 1 view .LVU353
 1308              		.loc 1 751 7 is_stmt 0 view .LVU354
 1309 000c 50B1     		cbz	r0, .L76
 1310 000e 0346     		mov	r3, r0
 1311              		.loc 1 751 33 discriminator 1 view .LVU355
 1312 0010 A06B     		ldr	r0, [r4, #56]
 1313              	.LVL158:
 1314              		.loc 1 751 26 discriminator 1 view .LVU356
 1315 0012 38B1     		cbz	r0, .L76
 752:Drivers/lvgl/src/extra/widgets/menu/lv_menu.c ****         if(main_page->title != NULL) {
 1316              		.loc 1 752 9 is_stmt 1 view .LVU357
 1317              		.loc 1 752 21 is_stmt 0 view .LVU358
 1318 0014 596A     		ldr	r1, [r3, #36]
 1319              		.loc 1 752 11 view .LVU359
 1320 0016 A9B1     		cbz	r1, .L77
 753:Drivers/lvgl/src/extra/widgets/menu/lv_menu.c ****             lv_label_set_text(menu->main_header_title, main_page->title);
 1321              		.loc 1 753 13 is_stmt 1 view .LVU360
 1322 0018 FFF7FEFF 		bl	lv_label_set_text
 1323              	.LVL159:
 754:Drivers/lvgl/src/extra/widgets/menu/lv_menu.c ****             lv_obj_clear_flag(menu->main_header_title, LV_OBJ_FLAG_HIDDEN);
 1324              		.loc 1 754 13 view .LVU361
 1325 001c 0121     		movs	r1, #1
 1326 001e A06B     		ldr	r0, [r4, #56]
 1327 0020 FFF7FEFF 		bl	lv_obj_clear_flag
 1328              	.LVL160:
 1329              	.L76:
 755:Drivers/lvgl/src/extra/widgets/menu/lv_menu.c ****         }
 756:Drivers/lvgl/src/extra/widgets/menu/lv_menu.c ****         else {
 757:Drivers/lvgl/src/extra/widgets/menu/lv_menu.c ****             lv_obj_add_flag(menu->main_header_title, LV_OBJ_FLAG_HIDDEN);
 758:Drivers/lvgl/src/extra/widgets/menu/lv_menu.c ****         }
 759:Drivers/lvgl/src/extra/widgets/menu/lv_menu.c ****     }
 760:Drivers/lvgl/src/extra/widgets/menu/lv_menu.c **** 
 761:Drivers/lvgl/src/extra/widgets/menu/lv_menu.c ****     lv_menu_page_t * sidebar_page = (lv_menu_page_t *)lv_menu_get_cur_sidebar_page(obj);
 1330              		.loc 1 761 5 view .LVU362
 1331              		.loc 1 761 55 is_stmt 0 view .LVU363
 1332 0024 2046     		mov	r0, r4
 1333 0026 FFF7FEFF 		bl	lv_menu_get_cur_sidebar_page
 1334              	.LVL161:
 762:Drivers/lvgl/src/extra/widgets/menu/lv_menu.c ****     if(sidebar_page != NULL && menu->sidebar_header_title != NULL) {
 1335              		.loc 1 762 5 is_stmt 1 view .LVU364
 1336              		.loc 1 762 7 is_stmt 0 view .LVU365
 1337 002a 0346     		mov	r3, r0
 1338 002c 48B1     		cbz	r0, .L75
 1339              		.loc 1 762 36 discriminator 1 view .LVU366
 1340 002e E06C     		ldr	r0, [r4, #76]
 1341              	.LVL162:
 1342              		.loc 1 762 29 discriminator 1 view .LVU367
 1343 0030 38B1     		cbz	r0, .L75
 763:Drivers/lvgl/src/extra/widgets/menu/lv_menu.c ****         if(sidebar_page->title != NULL) {
 1344              		.loc 1 763 9 is_stmt 1 view .LVU368
 1345              		.loc 1 763 24 is_stmt 0 view .LVU369
 1346 0032 596A     		ldr	r1, [r3, #36]
 1347              		.loc 1 763 11 view .LVU370
 1348 0034 51B1     		cbz	r1, .L79
ARM GAS  /var/folders/lp/x54gwt890xv47sdkqj1k04q40000gn/T//ccXBSBZL.s 			page 43


 764:Drivers/lvgl/src/extra/widgets/menu/lv_menu.c ****             lv_label_set_text(menu->sidebar_header_title, sidebar_page->title);
 1349              		.loc 1 764 13 is_stmt 1 view .LVU371
 1350 0036 FFF7FEFF 		bl	lv_label_set_text
 1351              	.LVL163:
 765:Drivers/lvgl/src/extra/widgets/menu/lv_menu.c ****             lv_obj_clear_flag(menu->sidebar_header_title, LV_OBJ_FLAG_HIDDEN);
 1352              		.loc 1 765 13 view .LVU372
 1353 003a 0121     		movs	r1, #1
 1354 003c E06C     		ldr	r0, [r4, #76]
 1355 003e FFF7FEFF 		bl	lv_obj_clear_flag
 1356              	.LVL164:
 1357              	.L75:
 766:Drivers/lvgl/src/extra/widgets/menu/lv_menu.c ****         }
 767:Drivers/lvgl/src/extra/widgets/menu/lv_menu.c ****         else {
 768:Drivers/lvgl/src/extra/widgets/menu/lv_menu.c ****             lv_obj_add_flag(menu->sidebar_header_title, LV_OBJ_FLAG_HIDDEN);
 769:Drivers/lvgl/src/extra/widgets/menu/lv_menu.c ****         }
 770:Drivers/lvgl/src/extra/widgets/menu/lv_menu.c ****     }
 771:Drivers/lvgl/src/extra/widgets/menu/lv_menu.c **** }
 1358              		.loc 1 771 1 is_stmt 0 view .LVU373
 1359 0042 10BD     		pop	{r4, pc}
 1360              	.LVL165:
 1361              	.L77:
 757:Drivers/lvgl/src/extra/widgets/menu/lv_menu.c ****         }
 1362              		.loc 1 757 13 is_stmt 1 view .LVU374
 1363 0044 0121     		movs	r1, #1
 1364 0046 FFF7FEFF 		bl	lv_obj_add_flag
 1365              	.LVL166:
 757:Drivers/lvgl/src/extra/widgets/menu/lv_menu.c ****         }
 1366              		.loc 1 757 13 is_stmt 0 view .LVU375
 1367 004a EBE7     		b	.L76
 1368              	.LVL167:
 1369              	.L79:
 768:Drivers/lvgl/src/extra/widgets/menu/lv_menu.c ****         }
 1370              		.loc 1 768 13 is_stmt 1 view .LVU376
 1371 004c 0121     		movs	r1, #1
 1372 004e FFF7FEFF 		bl	lv_obj_add_flag
 1373              	.LVL168:
 1374              		.loc 1 771 1 is_stmt 0 view .LVU377
 1375 0052 F6E7     		b	.L75
 1376              		.cfi_endproc
 1377              	.LFE196:
 1379              		.section	.text.lv_menu_get_main_header,"ax",%progbits
 1380              		.align	1
 1381              		.global	lv_menu_get_main_header
 1382              		.syntax unified
 1383              		.thumb
 1384              		.thumb_func
 1386              	lv_menu_get_main_header:
 1387              	.LVL169:
 1388              	.LFB179:
 407:Drivers/lvgl/src/extra/widgets/menu/lv_menu.c ****     LV_ASSERT_OBJ(obj, MY_CLASS);
 1389              		.loc 1 407 1 is_stmt 1 view -0
 1390              		.cfi_startproc
 1391              		@ args = 0, pretend = 0, frame = 0
 1392              		@ frame_needed = 0, uses_anonymous_args = 0
 1393              		@ link register save eliminated.
 408:Drivers/lvgl/src/extra/widgets/menu/lv_menu.c **** 
 1394              		.loc 1 408 5 view .LVU379
ARM GAS  /var/folders/lp/x54gwt890xv47sdkqj1k04q40000gn/T//ccXBSBZL.s 			page 44


 408:Drivers/lvgl/src/extra/widgets/menu/lv_menu.c **** 
 1395              		.loc 1 408 5 view .LVU380
 408:Drivers/lvgl/src/extra/widgets/menu/lv_menu.c **** 
 1396              		.loc 1 408 5 view .LVU381
 410:Drivers/lvgl/src/extra/widgets/menu/lv_menu.c ****     return menu->main_header;
 1397              		.loc 1 410 5 view .LVU382
 411:Drivers/lvgl/src/extra/widgets/menu/lv_menu.c **** }
 1398              		.loc 1 411 5 view .LVU383
 412:Drivers/lvgl/src/extra/widgets/menu/lv_menu.c **** 
 1399              		.loc 1 412 1 is_stmt 0 view .LVU384
 1400 0000 006B     		ldr	r0, [r0, #48]
 1401              	.LVL170:
 412:Drivers/lvgl/src/extra/widgets/menu/lv_menu.c **** 
 1402              		.loc 1 412 1 view .LVU385
 1403 0002 7047     		bx	lr
 1404              		.cfi_endproc
 1405              	.LFE179:
 1407              		.section	.text.lv_menu_get_main_header_back_btn,"ax",%progbits
 1408              		.align	1
 1409              		.global	lv_menu_get_main_header_back_btn
 1410              		.syntax unified
 1411              		.thumb
 1412              		.thumb_func
 1414              	lv_menu_get_main_header_back_btn:
 1415              	.LVL171:
 1416              	.LFB180:
 415:Drivers/lvgl/src/extra/widgets/menu/lv_menu.c ****     LV_ASSERT_OBJ(obj, MY_CLASS);
 1417              		.loc 1 415 1 is_stmt 1 view -0
 1418              		.cfi_startproc
 1419              		@ args = 0, pretend = 0, frame = 0
 1420              		@ frame_needed = 0, uses_anonymous_args = 0
 1421              		@ link register save eliminated.
 416:Drivers/lvgl/src/extra/widgets/menu/lv_menu.c **** 
 1422              		.loc 1 416 5 view .LVU387
 416:Drivers/lvgl/src/extra/widgets/menu/lv_menu.c **** 
 1423              		.loc 1 416 5 view .LVU388
 416:Drivers/lvgl/src/extra/widgets/menu/lv_menu.c **** 
 1424              		.loc 1 416 5 view .LVU389
 418:Drivers/lvgl/src/extra/widgets/menu/lv_menu.c ****     return menu->main_header_back_btn;
 1425              		.loc 1 418 5 view .LVU390
 419:Drivers/lvgl/src/extra/widgets/menu/lv_menu.c **** }
 1426              		.loc 1 419 5 view .LVU391
 420:Drivers/lvgl/src/extra/widgets/menu/lv_menu.c **** 
 1427              		.loc 1 420 1 is_stmt 0 view .LVU392
 1428 0000 406B     		ldr	r0, [r0, #52]
 1429              	.LVL172:
 420:Drivers/lvgl/src/extra/widgets/menu/lv_menu.c **** 
 1430              		.loc 1 420 1 view .LVU393
 1431 0002 7047     		bx	lr
 1432              		.cfi_endproc
 1433              	.LFE180:
 1435              		.section	.text.lv_menu_get_sidebar_header,"ax",%progbits
 1436              		.align	1
 1437              		.global	lv_menu_get_sidebar_header
 1438              		.syntax unified
 1439              		.thumb
 1440              		.thumb_func
ARM GAS  /var/folders/lp/x54gwt890xv47sdkqj1k04q40000gn/T//ccXBSBZL.s 			page 45


 1442              	lv_menu_get_sidebar_header:
 1443              	.LVL173:
 1444              	.LFB181:
 423:Drivers/lvgl/src/extra/widgets/menu/lv_menu.c ****     LV_ASSERT_OBJ(obj, MY_CLASS);
 1445              		.loc 1 423 1 is_stmt 1 view -0
 1446              		.cfi_startproc
 1447              		@ args = 0, pretend = 0, frame = 0
 1448              		@ frame_needed = 0, uses_anonymous_args = 0
 1449              		@ link register save eliminated.
 424:Drivers/lvgl/src/extra/widgets/menu/lv_menu.c **** 
 1450              		.loc 1 424 5 view .LVU395
 424:Drivers/lvgl/src/extra/widgets/menu/lv_menu.c **** 
 1451              		.loc 1 424 5 view .LVU396
 424:Drivers/lvgl/src/extra/widgets/menu/lv_menu.c **** 
 1452              		.loc 1 424 5 view .LVU397
 426:Drivers/lvgl/src/extra/widgets/menu/lv_menu.c ****     return menu->sidebar_header;
 1453              		.loc 1 426 5 view .LVU398
 427:Drivers/lvgl/src/extra/widgets/menu/lv_menu.c **** }
 1454              		.loc 1 427 5 view .LVU399
 428:Drivers/lvgl/src/extra/widgets/menu/lv_menu.c **** 
 1455              		.loc 1 428 1 is_stmt 0 view .LVU400
 1456 0000 406C     		ldr	r0, [r0, #68]
 1457              	.LVL174:
 428:Drivers/lvgl/src/extra/widgets/menu/lv_menu.c **** 
 1458              		.loc 1 428 1 view .LVU401
 1459 0002 7047     		bx	lr
 1460              		.cfi_endproc
 1461              	.LFE181:
 1463              		.section	.text.lv_menu_get_sidebar_header_back_btn,"ax",%progbits
 1464              		.align	1
 1465              		.global	lv_menu_get_sidebar_header_back_btn
 1466              		.syntax unified
 1467              		.thumb
 1468              		.thumb_func
 1470              	lv_menu_get_sidebar_header_back_btn:
 1471              	.LVL175:
 1472              	.LFB182:
 431:Drivers/lvgl/src/extra/widgets/menu/lv_menu.c ****     LV_ASSERT_OBJ(obj, MY_CLASS);
 1473              		.loc 1 431 1 is_stmt 1 view -0
 1474              		.cfi_startproc
 1475              		@ args = 0, pretend = 0, frame = 0
 1476              		@ frame_needed = 0, uses_anonymous_args = 0
 1477              		@ link register save eliminated.
 432:Drivers/lvgl/src/extra/widgets/menu/lv_menu.c **** 
 1478              		.loc 1 432 5 view .LVU403
 432:Drivers/lvgl/src/extra/widgets/menu/lv_menu.c **** 
 1479              		.loc 1 432 5 view .LVU404
 432:Drivers/lvgl/src/extra/widgets/menu/lv_menu.c **** 
 1480              		.loc 1 432 5 view .LVU405
 434:Drivers/lvgl/src/extra/widgets/menu/lv_menu.c ****     return menu->sidebar_header_back_btn;
 1481              		.loc 1 434 5 view .LVU406
 435:Drivers/lvgl/src/extra/widgets/menu/lv_menu.c **** }
 1482              		.loc 1 435 5 view .LVU407
 436:Drivers/lvgl/src/extra/widgets/menu/lv_menu.c **** 
 1483              		.loc 1 436 1 is_stmt 0 view .LVU408
 1484 0000 806C     		ldr	r0, [r0, #72]
 1485              	.LVL176:
ARM GAS  /var/folders/lp/x54gwt890xv47sdkqj1k04q40000gn/T//ccXBSBZL.s 			page 46


 436:Drivers/lvgl/src/extra/widgets/menu/lv_menu.c **** 
 1486              		.loc 1 436 1 view .LVU409
 1487 0002 7047     		bx	lr
 1488              		.cfi_endproc
 1489              	.LFE182:
 1491              		.section	.text.lv_menu_back_btn_is_root,"ax",%progbits
 1492              		.align	1
 1493              		.global	lv_menu_back_btn_is_root
 1494              		.syntax unified
 1495              		.thumb
 1496              		.thumb_func
 1498              	lv_menu_back_btn_is_root:
 1499              	.LVL177:
 1500              	.LFB183:
 439:Drivers/lvgl/src/extra/widgets/menu/lv_menu.c ****     LV_ASSERT_OBJ(menu, MY_CLASS);
 1501              		.loc 1 439 1 is_stmt 1 view -0
 1502              		.cfi_startproc
 1503              		@ args = 0, pretend = 0, frame = 0
 1504              		@ frame_needed = 0, uses_anonymous_args = 0
 1505              		@ link register save eliminated.
 440:Drivers/lvgl/src/extra/widgets/menu/lv_menu.c **** 
 1506              		.loc 1 440 5 view .LVU411
 440:Drivers/lvgl/src/extra/widgets/menu/lv_menu.c **** 
 1507              		.loc 1 440 5 view .LVU412
 440:Drivers/lvgl/src/extra/widgets/menu/lv_menu.c **** 
 1508              		.loc 1 440 5 view .LVU413
 442:Drivers/lvgl/src/extra/widgets/menu/lv_menu.c ****         return true;
 1509              		.loc 1 442 5 view .LVU414
 442:Drivers/lvgl/src/extra/widgets/menu/lv_menu.c ****         return true;
 1510              		.loc 1 442 34 is_stmt 0 view .LVU415
 1511 0000 836C     		ldr	r3, [r0, #72]
 442:Drivers/lvgl/src/extra/widgets/menu/lv_menu.c ****         return true;
 1512              		.loc 1 442 7 view .LVU416
 1513 0002 8B42     		cmp	r3, r1
 1514 0004 0AD0     		beq	.L87
 446:Drivers/lvgl/src/extra/widgets/menu/lv_menu.c ****         return true;
 1515              		.loc 1 446 5 is_stmt 1 view .LVU417
 446:Drivers/lvgl/src/extra/widgets/menu/lv_menu.c ****         return true;
 1516              		.loc 1 446 34 is_stmt 0 view .LVU418
 1517 0006 436B     		ldr	r3, [r0, #52]
 446:Drivers/lvgl/src/extra/widgets/menu/lv_menu.c ****         return true;
 1518              		.loc 1 446 7 view .LVU419
 1519 0008 8B42     		cmp	r3, r1
 1520 000a 01D0     		beq	.L90
 450:Drivers/lvgl/src/extra/widgets/menu/lv_menu.c **** }
 1521              		.loc 1 450 12 view .LVU420
 1522 000c 0020     		movs	r0, #0
 1523              	.LVL178:
 450:Drivers/lvgl/src/extra/widgets/menu/lv_menu.c **** }
 1524              		.loc 1 450 12 view .LVU421
 1525 000e 7047     		bx	lr
 1526              	.LVL179:
 1527              	.L90:
 446:Drivers/lvgl/src/extra/widgets/menu/lv_menu.c ****         return true;
 1528              		.loc 1 446 79 discriminator 1 view .LVU422
 1529 0010 90F86130 		ldrb	r3, [r0, #97]	@ zero_extendqisi2
 446:Drivers/lvgl/src/extra/widgets/menu/lv_menu.c ****         return true;
ARM GAS  /var/folders/lp/x54gwt890xv47sdkqj1k04q40000gn/T//ccXBSBZL.s 			page 47


 1530              		.loc 1 446 57 discriminator 1 view .LVU423
 1531 0014 012B     		cmp	r3, #1
 1532 0016 03D9     		bls	.L89
 450:Drivers/lvgl/src/extra/widgets/menu/lv_menu.c **** }
 1533              		.loc 1 450 12 view .LVU424
 1534 0018 0020     		movs	r0, #0
 1535              	.LVL180:
 450:Drivers/lvgl/src/extra/widgets/menu/lv_menu.c **** }
 1536              		.loc 1 450 12 view .LVU425
 1537 001a 7047     		bx	lr
 1538              	.LVL181:
 1539              	.L87:
 443:Drivers/lvgl/src/extra/widgets/menu/lv_menu.c ****     }
 1540              		.loc 1 443 16 view .LVU426
 1541 001c 0120     		movs	r0, #1
 1542              	.LVL182:
 443:Drivers/lvgl/src/extra/widgets/menu/lv_menu.c ****     }
 1543              		.loc 1 443 16 view .LVU427
 1544 001e 7047     		bx	lr
 1545              	.LVL183:
 1546              	.L89:
 447:Drivers/lvgl/src/extra/widgets/menu/lv_menu.c ****     }
 1547              		.loc 1 447 16 view .LVU428
 1548 0020 0120     		movs	r0, #1
 1549              	.LVL184:
 451:Drivers/lvgl/src/extra/widgets/menu/lv_menu.c **** 
 1550              		.loc 1 451 1 view .LVU429
 1551 0022 7047     		bx	lr
 1552              		.cfi_endproc
 1553              	.LFE183:
 1555              		.section	.text.lv_menu_clear_history,"ax",%progbits
 1556              		.align	1
 1557              		.global	lv_menu_clear_history
 1558              		.syntax unified
 1559              		.thumb
 1560              		.thumb_func
 1562              	lv_menu_clear_history:
 1563              	.LVL185:
 1564              	.LFB184:
 454:Drivers/lvgl/src/extra/widgets/menu/lv_menu.c ****     LV_ASSERT_OBJ(obj, MY_CLASS);
 1565              		.loc 1 454 1 is_stmt 1 view -0
 1566              		.cfi_startproc
 1567              		@ args = 0, pretend = 0, frame = 0
 1568              		@ frame_needed = 0, uses_anonymous_args = 0
 454:Drivers/lvgl/src/extra/widgets/menu/lv_menu.c ****     LV_ASSERT_OBJ(obj, MY_CLASS);
 1569              		.loc 1 454 1 is_stmt 0 view .LVU431
 1570 0000 10B5     		push	{r4, lr}
 1571              		.cfi_def_cfa_offset 8
 1572              		.cfi_offset 4, -8
 1573              		.cfi_offset 14, -4
 1574 0002 0446     		mov	r4, r0
 455:Drivers/lvgl/src/extra/widgets/menu/lv_menu.c **** 
 1575              		.loc 1 455 5 is_stmt 1 view .LVU432
 455:Drivers/lvgl/src/extra/widgets/menu/lv_menu.c **** 
 1576              		.loc 1 455 5 view .LVU433
 455:Drivers/lvgl/src/extra/widgets/menu/lv_menu.c **** 
 1577              		.loc 1 455 5 view .LVU434
ARM GAS  /var/folders/lp/x54gwt890xv47sdkqj1k04q40000gn/T//ccXBSBZL.s 			page 48


 457:Drivers/lvgl/src/extra/widgets/menu/lv_menu.c ****     lv_ll_t * history_ll = &(menu->history_ll);
 1578              		.loc 1 457 5 view .LVU435
 1579              	.LVL186:
 458:Drivers/lvgl/src/extra/widgets/menu/lv_menu.c **** 
 1580              		.loc 1 458 5 view .LVU436
 460:Drivers/lvgl/src/extra/widgets/menu/lv_menu.c **** 
 1581              		.loc 1 460 5 view .LVU437
 1582 0004 5430     		adds	r0, r0, #84
 1583              	.LVL187:
 460:Drivers/lvgl/src/extra/widgets/menu/lv_menu.c **** 
 1584              		.loc 1 460 5 is_stmt 0 view .LVU438
 1585 0006 FFF7FEFF 		bl	_lv_ll_clear
 1586              	.LVL188:
 462:Drivers/lvgl/src/extra/widgets/menu/lv_menu.c **** }
 1587              		.loc 1 462 5 is_stmt 1 view .LVU439
 462:Drivers/lvgl/src/extra/widgets/menu/lv_menu.c **** }
 1588              		.loc 1 462 21 is_stmt 0 view .LVU440
 1589 000a 0023     		movs	r3, #0
 1590 000c 84F86030 		strb	r3, [r4, #96]
 463:Drivers/lvgl/src/extra/widgets/menu/lv_menu.c **** 
 1591              		.loc 1 463 1 view .LVU441
 1592 0010 10BD     		pop	{r4, pc}
 463:Drivers/lvgl/src/extra/widgets/menu/lv_menu.c **** 
 1593              		.loc 1 463 1 view .LVU442
 1594              		.cfi_endproc
 1595              	.LFE184:
 1597              		.section	.text.lv_menu_set_page,"ax",%progbits
 1598              		.align	1
 1599              		.global	lv_menu_set_page
 1600              		.syntax unified
 1601              		.thumb
 1602              		.thumb_func
 1604              	lv_menu_set_page:
 1605              	.LVL189:
 1606              	.LFB172:
 193:Drivers/lvgl/src/extra/widgets/menu/lv_menu.c ****     LV_ASSERT_OBJ(obj, MY_CLASS);
 1607              		.loc 1 193 1 is_stmt 1 view -0
 1608              		.cfi_startproc
 1609              		@ args = 0, pretend = 0, frame = 0
 1610              		@ frame_needed = 0, uses_anonymous_args = 0
 193:Drivers/lvgl/src/extra/widgets/menu/lv_menu.c ****     LV_ASSERT_OBJ(obj, MY_CLASS);
 1611              		.loc 1 193 1 is_stmt 0 view .LVU444
 1612 0000 38B5     		push	{r3, r4, r5, lr}
 1613              		.cfi_def_cfa_offset 16
 1614              		.cfi_offset 3, -16
 1615              		.cfi_offset 4, -12
 1616              		.cfi_offset 5, -8
 1617              		.cfi_offset 14, -4
 1618 0002 0446     		mov	r4, r0
 194:Drivers/lvgl/src/extra/widgets/menu/lv_menu.c **** 
 1619              		.loc 1 194 5 is_stmt 1 view .LVU445
 194:Drivers/lvgl/src/extra/widgets/menu/lv_menu.c **** 
 1620              		.loc 1 194 5 view .LVU446
 194:Drivers/lvgl/src/extra/widgets/menu/lv_menu.c **** 
 1621              		.loc 1 194 5 view .LVU447
 196:Drivers/lvgl/src/extra/widgets/menu/lv_menu.c **** 
 1622              		.loc 1 196 5 view .LVU448
ARM GAS  /var/folders/lp/x54gwt890xv47sdkqj1k04q40000gn/T//ccXBSBZL.s 			page 49


 1623              	.LVL190:
 199:Drivers/lvgl/src/extra/widgets/menu/lv_menu.c ****         return;
 1624              		.loc 1 199 5 view .LVU449
 199:Drivers/lvgl/src/extra/widgets/menu/lv_menu.c ****         return;
 1625              		.loc 1 199 12 is_stmt 0 view .LVU450
 1626 0004 C06A     		ldr	r0, [r0, #44]
 1627              	.LVL191:
 199:Drivers/lvgl/src/extra/widgets/menu/lv_menu.c ****         return;
 1628              		.loc 1 199 7 view .LVU451
 1629 0006 8842     		cmp	r0, r1
 1630 0008 45D0     		beq	.L93
 1631 000a 0D46     		mov	r5, r1
 204:Drivers/lvgl/src/extra/widgets/menu/lv_menu.c ****         lv_obj_set_parent(menu->main_page, menu->storage);
 1632              		.loc 1 204 5 is_stmt 1 view .LVU452
 204:Drivers/lvgl/src/extra/widgets/menu/lv_menu.c ****         lv_obj_set_parent(menu->main_page, menu->storage);
 1633              		.loc 1 204 7 is_stmt 0 view .LVU453
 1634 000c 10B1     		cbz	r0, .L95
 205:Drivers/lvgl/src/extra/widgets/menu/lv_menu.c ****     }
 1635              		.loc 1 205 9 is_stmt 1 view .LVU454
 1636 000e 616A     		ldr	r1, [r4, #36]
 1637              	.LVL192:
 205:Drivers/lvgl/src/extra/widgets/menu/lv_menu.c ****     }
 1638              		.loc 1 205 9 is_stmt 0 view .LVU455
 1639 0010 FFF7FEFF 		bl	lv_obj_set_parent
 1640              	.LVL193:
 1641              	.L95:
 208:Drivers/lvgl/src/extra/widgets/menu/lv_menu.c ****         /* Add a new node */
 1642              		.loc 1 208 5 is_stmt 1 view .LVU456
 208:Drivers/lvgl/src/extra/widgets/menu/lv_menu.c ****         /* Add a new node */
 1643              		.loc 1 208 7 is_stmt 0 view .LVU457
 1644 0014 002D     		cmp	r5, #0
 1645 0016 40D0     		beq	.L96
 1646              	.LBB2:
 210:Drivers/lvgl/src/extra/widgets/menu/lv_menu.c ****         lv_menu_history_t * new_node = _lv_ll_ins_head(history_ll);
 1647              		.loc 1 210 9 is_stmt 1 view .LVU458
 1648              	.LVL194:
 211:Drivers/lvgl/src/extra/widgets/menu/lv_menu.c ****         LV_ASSERT_MALLOC(new_node);
 1649              		.loc 1 211 9 view .LVU459
 211:Drivers/lvgl/src/extra/widgets/menu/lv_menu.c ****         LV_ASSERT_MALLOC(new_node);
 1650              		.loc 1 211 40 is_stmt 0 view .LVU460
 1651 0018 04F15400 		add	r0, r4, #84
 1652              	.LVL195:
 211:Drivers/lvgl/src/extra/widgets/menu/lv_menu.c ****         LV_ASSERT_MALLOC(new_node);
 1653              		.loc 1 211 40 view .LVU461
 1654 001c FFF7FEFF 		bl	_lv_ll_ins_head
 1655              	.LVL196:
 212:Drivers/lvgl/src/extra/widgets/menu/lv_menu.c ****         new_node->page = page;
 1656              		.loc 1 212 9 is_stmt 1 view .LVU462
 212:Drivers/lvgl/src/extra/widgets/menu/lv_menu.c ****         new_node->page = page;
 1657              		.loc 1 212 9 view .LVU463
 1658 0020 0028     		cmp	r0, #0
 1659 0022 39D0     		beq	.L98
 212:Drivers/lvgl/src/extra/widgets/menu/lv_menu.c ****         new_node->page = page;
 1660              		.loc 1 212 9 discriminator 2 view .LVU464
 212:Drivers/lvgl/src/extra/widgets/menu/lv_menu.c ****         new_node->page = page;
 1661              		.loc 1 212 35 discriminator 2 view .LVU465
 213:Drivers/lvgl/src/extra/widgets/menu/lv_menu.c ****         menu->cur_depth++;
ARM GAS  /var/folders/lp/x54gwt890xv47sdkqj1k04q40000gn/T//ccXBSBZL.s 			page 50


 1662              		.loc 1 213 9 view .LVU466
 213:Drivers/lvgl/src/extra/widgets/menu/lv_menu.c ****         menu->cur_depth++;
 1663              		.loc 1 213 24 is_stmt 0 view .LVU467
 1664 0024 0560     		str	r5, [r0]
 214:Drivers/lvgl/src/extra/widgets/menu/lv_menu.c **** 
 1665              		.loc 1 214 9 is_stmt 1 view .LVU468
 214:Drivers/lvgl/src/extra/widgets/menu/lv_menu.c **** 
 1666              		.loc 1 214 13 is_stmt 0 view .LVU469
 1667 0026 94F86030 		ldrb	r3, [r4, #96]	@ zero_extendqisi2
 214:Drivers/lvgl/src/extra/widgets/menu/lv_menu.c **** 
 1668              		.loc 1 214 24 view .LVU470
 1669 002a 0133     		adds	r3, r3, #1
 1670 002c 84F86030 		strb	r3, [r4, #96]
 217:Drivers/lvgl/src/extra/widgets/menu/lv_menu.c ****     }
 1671              		.loc 1 217 9 is_stmt 1 view .LVU471
 1672 0030 A16A     		ldr	r1, [r4, #40]
 1673 0032 2846     		mov	r0, r5
 1674              	.LVL197:
 217:Drivers/lvgl/src/extra/widgets/menu/lv_menu.c ****     }
 1675              		.loc 1 217 9 is_stmt 0 view .LVU472
 1676 0034 FFF7FEFF 		bl	lv_obj_set_parent
 1677              	.LVL198:
 1678              	.L99:
 217:Drivers/lvgl/src/extra/widgets/menu/lv_menu.c ****     }
 1679              		.loc 1 217 9 view .LVU473
 1680              	.LBE2:
 224:Drivers/lvgl/src/extra/widgets/menu/lv_menu.c **** 
 1681              		.loc 1 224 5 is_stmt 1 view .LVU474
 224:Drivers/lvgl/src/extra/widgets/menu/lv_menu.c **** 
 1682              		.loc 1 224 21 is_stmt 0 view .LVU475
 1683 0038 E562     		str	r5, [r4, #44]
 227:Drivers/lvgl/src/extra/widgets/menu/lv_menu.c ****         if(menu->sidebar_page != NULL) {
 1684              		.loc 1 227 5 is_stmt 1 view .LVU476
 227:Drivers/lvgl/src/extra/widgets/menu/lv_menu.c ****         if(menu->sidebar_page != NULL) {
 1685              		.loc 1 227 12 is_stmt 0 view .LVU477
 1686 003a 206D     		ldr	r0, [r4, #80]
 227:Drivers/lvgl/src/extra/widgets/menu/lv_menu.c ****         if(menu->sidebar_page != NULL) {
 1687              		.loc 1 227 7 view .LVU478
 1688 003c 20B1     		cbz	r0, .L100
 228:Drivers/lvgl/src/extra/widgets/menu/lv_menu.c ****             lv_obj_add_state(menu->selected_tab, LV_STATE_CHECKED);
 1689              		.loc 1 228 9 is_stmt 1 view .LVU479
 228:Drivers/lvgl/src/extra/widgets/menu/lv_menu.c ****             lv_obj_add_state(menu->selected_tab, LV_STATE_CHECKED);
 1690              		.loc 1 228 16 is_stmt 0 view .LVU480
 1691 003e 236C     		ldr	r3, [r4, #64]
 228:Drivers/lvgl/src/extra/widgets/menu/lv_menu.c ****             lv_obj_add_state(menu->selected_tab, LV_STATE_CHECKED);
 1692              		.loc 1 228 11 view .LVU481
 1693 0040 7BB3     		cbz	r3, .L101
 229:Drivers/lvgl/src/extra/widgets/menu/lv_menu.c ****         }
 1694              		.loc 1 229 13 is_stmt 1 view .LVU482
 1695 0042 0121     		movs	r1, #1
 1696 0044 FFF7FEFF 		bl	lv_obj_add_state
 1697              	.LVL199:
 1698              	.L100:
 237:Drivers/lvgl/src/extra/widgets/menu/lv_menu.c ****         /* With sidebar enabled */
 1699              		.loc 1 237 5 view .LVU483
 237:Drivers/lvgl/src/extra/widgets/menu/lv_menu.c ****         /* With sidebar enabled */
 1700              		.loc 1 237 12 is_stmt 0 view .LVU484
ARM GAS  /var/folders/lp/x54gwt890xv47sdkqj1k04q40000gn/T//ccXBSBZL.s 			page 51


 1701 0048 236C     		ldr	r3, [r4, #64]
 237:Drivers/lvgl/src/extra/widgets/menu/lv_menu.c ****         /* With sidebar enabled */
 1702              		.loc 1 237 7 view .LVU485
 1703 004a 002B     		cmp	r3, #0
 1704 004c 3FD0     		beq	.L102
 239:Drivers/lvgl/src/extra/widgets/menu/lv_menu.c ****             if(menu->mode_root_back_btn == LV_MENU_ROOT_BACK_BTN_ENABLED) {
 1705              		.loc 1 239 9 is_stmt 1 view .LVU486
 239:Drivers/lvgl/src/extra/widgets/menu/lv_menu.c ****             if(menu->mode_root_back_btn == LV_MENU_ROOT_BACK_BTN_ENABLED) {
 1706              		.loc 1 239 12 is_stmt 0 view .LVU487
 1707 004e 94F86230 		ldrb	r3, [r4, #98]	@ zero_extendqisi2
 239:Drivers/lvgl/src/extra/widgets/menu/lv_menu.c ****             if(menu->mode_root_back_btn == LV_MENU_ROOT_BACK_BTN_ENABLED) {
 1708              		.loc 1 239 11 view .LVU488
 1709 0052 13F0010F 		tst	r3, #1
 1710 0056 0AD0     		beq	.L103
 240:Drivers/lvgl/src/extra/widgets/menu/lv_menu.c ****                 /* Root back btn is always shown if enabled*/
 1711              		.loc 1 240 13 is_stmt 1 view .LVU489
 240:Drivers/lvgl/src/extra/widgets/menu/lv_menu.c ****                 /* Root back btn is always shown if enabled*/
 1712              		.loc 1 240 15 is_stmt 0 view .LVU490
 1713 0058 13F0080F 		tst	r3, #8
 1714 005c 25D0     		beq	.L104
 242:Drivers/lvgl/src/extra/widgets/menu/lv_menu.c ****                 lv_obj_add_flag(menu->sidebar_header_back_btn, LV_OBJ_FLAG_CLICKABLE);
 1715              		.loc 1 242 17 is_stmt 1 view .LVU491
 1716 005e 0121     		movs	r1, #1
 1717 0060 A06C     		ldr	r0, [r4, #72]
 1718 0062 FFF7FEFF 		bl	lv_obj_clear_flag
 1719              	.LVL200:
 243:Drivers/lvgl/src/extra/widgets/menu/lv_menu.c ****             }
 1720              		.loc 1 243 17 view .LVU492
 1721 0066 0221     		movs	r1, #2
 1722 0068 A06C     		ldr	r0, [r4, #72]
 1723 006a FFF7FEFF 		bl	lv_obj_add_flag
 1724              	.LVL201:
 1725              	.L103:
 251:Drivers/lvgl/src/extra/widgets/menu/lv_menu.c ****             lv_obj_clear_flag(menu->main_header_back_btn, LV_OBJ_FLAG_HIDDEN);
 1726              		.loc 1 251 9 view .LVU493
 251:Drivers/lvgl/src/extra/widgets/menu/lv_menu.c ****             lv_obj_clear_flag(menu->main_header_back_btn, LV_OBJ_FLAG_HIDDEN);
 1727              		.loc 1 251 16 is_stmt 0 view .LVU494
 1728 006e 94F86030 		ldrb	r3, [r4, #96]	@ zero_extendqisi2
 251:Drivers/lvgl/src/extra/widgets/menu/lv_menu.c ****             lv_obj_clear_flag(menu->main_header_back_btn, LV_OBJ_FLAG_HIDDEN);
 1729              		.loc 1 251 11 view .LVU495
 1730 0072 012B     		cmp	r3, #1
 1731 0074 22D9     		bls	.L105
 252:Drivers/lvgl/src/extra/widgets/menu/lv_menu.c ****             lv_obj_add_flag(menu->main_header_back_btn, LV_OBJ_FLAG_CLICKABLE);
 1732              		.loc 1 252 13 is_stmt 1 view .LVU496
 1733 0076 0121     		movs	r1, #1
 1734 0078 606B     		ldr	r0, [r4, #52]
 1735 007a FFF7FEFF 		bl	lv_obj_clear_flag
 1736              	.LVL202:
 253:Drivers/lvgl/src/extra/widgets/menu/lv_menu.c ****         }
 1737              		.loc 1 253 13 view .LVU497
 1738 007e 0221     		movs	r1, #2
 1739 0080 606B     		ldr	r0, [r4, #52]
 1740 0082 FFF7FEFF 		bl	lv_obj_add_flag
 1741              	.LVL203:
 1742              	.L106:
 272:Drivers/lvgl/src/extra/widgets/menu/lv_menu.c **** 
 1743              		.loc 1 272 5 view .LVU498
ARM GAS  /var/folders/lp/x54gwt890xv47sdkqj1k04q40000gn/T//ccXBSBZL.s 			page 52


 1744 0086 0022     		movs	r2, #0
 1745 0088 1C21     		movs	r1, #28
 1746 008a 2046     		mov	r0, r4
 1747 008c FFF7FEFF 		bl	lv_event_send
 1748              	.LVL204:
 274:Drivers/lvgl/src/extra/widgets/menu/lv_menu.c **** }
 1749              		.loc 1 274 5 view .LVU499
 1750 0090 2046     		mov	r0, r4
 1751 0092 FFF7FEFF 		bl	lv_menu_refr_main_header_mode
 1752              	.LVL205:
 1753              	.L93:
 275:Drivers/lvgl/src/extra/widgets/menu/lv_menu.c **** 
 1754              		.loc 1 275 1 is_stmt 0 view .LVU500
 1755 0096 38BD     		pop	{r3, r4, r5, pc}
 1756              	.LVL206:
 1757              	.L98:
 1758              	.LBB3:
 212:Drivers/lvgl/src/extra/widgets/menu/lv_menu.c ****         new_node->page = page;
 1759              		.loc 1 212 9 is_stmt 1 discriminator 1 view .LVU501
 212:Drivers/lvgl/src/extra/widgets/menu/lv_menu.c ****         new_node->page = page;
 1760              		.loc 1 212 9 discriminator 1 view .LVU502
 212:Drivers/lvgl/src/extra/widgets/menu/lv_menu.c ****         new_node->page = page;
 1761              		.loc 1 212 9 discriminator 1 view .LVU503
 212:Drivers/lvgl/src/extra/widgets/menu/lv_menu.c ****         new_node->page = page;
 1762              		.loc 1 212 9 discriminator 1 view .LVU504
 212:Drivers/lvgl/src/extra/widgets/menu/lv_menu.c ****         new_node->page = page;
 1763              		.loc 1 212 9 discriminator 1 view .LVU505
 1764 0098 FEE7     		b	.L98
 1765              	.LVL207:
 1766              	.L96:
 212:Drivers/lvgl/src/extra/widgets/menu/lv_menu.c ****         new_node->page = page;
 1767              		.loc 1 212 9 is_stmt 0 discriminator 1 view .LVU506
 1768              	.LBE3:
 221:Drivers/lvgl/src/extra/widgets/menu/lv_menu.c ****     }
 1769              		.loc 1 221 9 is_stmt 1 view .LVU507
 1770 009a 2046     		mov	r0, r4
 1771 009c FFF7FEFF 		bl	lv_menu_clear_history
 1772              	.LVL208:
 1773 00a0 CAE7     		b	.L99
 1774              	.L101:
 232:Drivers/lvgl/src/extra/widgets/menu/lv_menu.c ****         }
 1775              		.loc 1 232 13 view .LVU508
 1776 00a2 0121     		movs	r1, #1
 1777 00a4 FFF7FEFF 		bl	lv_obj_clear_state
 1778              	.LVL209:
 1779 00a8 CEE7     		b	.L100
 1780              	.L104:
 246:Drivers/lvgl/src/extra/widgets/menu/lv_menu.c ****                 lv_obj_clear_flag(menu->sidebar_header_back_btn, LV_OBJ_FLAG_CLICKABLE);
 1781              		.loc 1 246 17 view .LVU509
 1782 00aa 0121     		movs	r1, #1
 1783 00ac A06C     		ldr	r0, [r4, #72]
 1784 00ae FFF7FEFF 		bl	lv_obj_add_flag
 1785              	.LVL210:
 247:Drivers/lvgl/src/extra/widgets/menu/lv_menu.c ****             }
 1786              		.loc 1 247 17 view .LVU510
 1787 00b2 0221     		movs	r1, #2
 1788 00b4 A06C     		ldr	r0, [r4, #72]
ARM GAS  /var/folders/lp/x54gwt890xv47sdkqj1k04q40000gn/T//ccXBSBZL.s 			page 53


 1789 00b6 FFF7FEFF 		bl	lv_obj_clear_flag
 1790              	.LVL211:
 1791 00ba D8E7     		b	.L103
 1792              	.L105:
 256:Drivers/lvgl/src/extra/widgets/menu/lv_menu.c ****             lv_obj_clear_flag(menu->main_header_back_btn, LV_OBJ_FLAG_CLICKABLE);
 1793              		.loc 1 256 13 view .LVU511
 1794 00bc 0121     		movs	r1, #1
 1795 00be 606B     		ldr	r0, [r4, #52]
 1796 00c0 FFF7FEFF 		bl	lv_obj_add_flag
 1797              	.LVL212:
 257:Drivers/lvgl/src/extra/widgets/menu/lv_menu.c ****         }
 1798              		.loc 1 257 13 view .LVU512
 1799 00c4 0221     		movs	r1, #2
 1800 00c6 606B     		ldr	r0, [r4, #52]
 1801 00c8 FFF7FEFF 		bl	lv_obj_clear_flag
 1802              	.LVL213:
 1803 00cc DBE7     		b	.L106
 1804              	.L102:
 262:Drivers/lvgl/src/extra/widgets/menu/lv_menu.c ****             lv_obj_clear_flag(menu->main_header_back_btn, LV_OBJ_FLAG_HIDDEN);
 1805              		.loc 1 262 9 view .LVU513
 262:Drivers/lvgl/src/extra/widgets/menu/lv_menu.c ****             lv_obj_clear_flag(menu->main_header_back_btn, LV_OBJ_FLAG_HIDDEN);
 1806              		.loc 1 262 16 is_stmt 0 view .LVU514
 1807 00ce 94F86030 		ldrb	r3, [r4, #96]	@ zero_extendqisi2
 262:Drivers/lvgl/src/extra/widgets/menu/lv_menu.c ****             lv_obj_clear_flag(menu->main_header_back_btn, LV_OBJ_FLAG_HIDDEN);
 1808              		.loc 1 262 11 view .LVU515
 1809 00d2 012B     		cmp	r3, #1
 1810 00d4 04D8     		bhi	.L107
 262:Drivers/lvgl/src/extra/widgets/menu/lv_menu.c ****             lv_obj_clear_flag(menu->main_header_back_btn, LV_OBJ_FLAG_HIDDEN);
 1811              		.loc 1 262 61 discriminator 1 view .LVU516
 1812 00d6 94F86230 		ldrb	r3, [r4, #98]	@ zero_extendqisi2
 262:Drivers/lvgl/src/extra/widgets/menu/lv_menu.c ****             lv_obj_clear_flag(menu->main_header_back_btn, LV_OBJ_FLAG_HIDDEN);
 1813              		.loc 1 262 33 discriminator 1 view .LVU517
 1814 00da 13F0080F 		tst	r3, #8
 1815 00de 08D0     		beq	.L108
 1816              	.L107:
 263:Drivers/lvgl/src/extra/widgets/menu/lv_menu.c ****             lv_obj_add_flag(menu->main_header_back_btn, LV_OBJ_FLAG_CLICKABLE);
 1817              		.loc 1 263 13 is_stmt 1 view .LVU518
 1818 00e0 0121     		movs	r1, #1
 1819 00e2 606B     		ldr	r0, [r4, #52]
 1820 00e4 FFF7FEFF 		bl	lv_obj_clear_flag
 1821              	.LVL214:
 264:Drivers/lvgl/src/extra/widgets/menu/lv_menu.c ****         }
 1822              		.loc 1 264 13 view .LVU519
 1823 00e8 0221     		movs	r1, #2
 1824 00ea 606B     		ldr	r0, [r4, #52]
 1825 00ec FFF7FEFF 		bl	lv_obj_add_flag
 1826              	.LVL215:
 1827 00f0 C9E7     		b	.L106
 1828              	.L108:
 267:Drivers/lvgl/src/extra/widgets/menu/lv_menu.c ****             lv_obj_clear_flag(menu->main_header_back_btn, LV_OBJ_FLAG_CLICKABLE);
 1829              		.loc 1 267 13 view .LVU520
 1830 00f2 0121     		movs	r1, #1
 1831 00f4 606B     		ldr	r0, [r4, #52]
 1832 00f6 FFF7FEFF 		bl	lv_obj_add_flag
 1833              	.LVL216:
 268:Drivers/lvgl/src/extra/widgets/menu/lv_menu.c ****         }
 1834              		.loc 1 268 13 view .LVU521
ARM GAS  /var/folders/lp/x54gwt890xv47sdkqj1k04q40000gn/T//ccXBSBZL.s 			page 54


 1835 00fa 0221     		movs	r1, #2
 1836 00fc 606B     		ldr	r0, [r4, #52]
 1837 00fe FFF7FEFF 		bl	lv_obj_clear_flag
 1838              	.LVL217:
 1839 0102 C0E7     		b	.L106
 1840              		.cfi_endproc
 1841              	.LFE172:
 1843              		.section	.text.lv_menu_back_event_cb,"ax",%progbits
 1844              		.align	1
 1845              		.syntax unified
 1846              		.thumb
 1847              		.thumb_func
 1849              	lv_menu_back_event_cb:
 1850              	.LVL218:
 1851              	.LFB195:
 707:Drivers/lvgl/src/extra/widgets/menu/lv_menu.c ****     lv_event_code_t code = lv_event_get_code(e);
 1852              		.loc 1 707 1 view -0
 1853              		.cfi_startproc
 1854              		@ args = 0, pretend = 0, frame = 0
 1855              		@ frame_needed = 0, uses_anonymous_args = 0
 707:Drivers/lvgl/src/extra/widgets/menu/lv_menu.c ****     lv_event_code_t code = lv_event_get_code(e);
 1856              		.loc 1 707 1 is_stmt 0 view .LVU523
 1857 0000 F8B5     		push	{r3, r4, r5, r6, r7, lr}
 1858              		.cfi_def_cfa_offset 24
 1859              		.cfi_offset 3, -24
 1860              		.cfi_offset 4, -20
 1861              		.cfi_offset 5, -16
 1862              		.cfi_offset 6, -12
 1863              		.cfi_offset 7, -8
 1864              		.cfi_offset 14, -4
 1865 0002 0446     		mov	r4, r0
 708:Drivers/lvgl/src/extra/widgets/menu/lv_menu.c ****     /* LV_EVENT_CLICKED */
 1866              		.loc 1 708 5 is_stmt 1 view .LVU524
 708:Drivers/lvgl/src/extra/widgets/menu/lv_menu.c ****     /* LV_EVENT_CLICKED */
 1867              		.loc 1 708 28 is_stmt 0 view .LVU525
 1868 0004 FFF7FEFF 		bl	lv_event_get_code
 1869              	.LVL219:
 710:Drivers/lvgl/src/extra/widgets/menu/lv_menu.c ****         lv_obj_t * obj = lv_event_get_target(e);
 1870              		.loc 1 710 5 is_stmt 1 view .LVU526
 710:Drivers/lvgl/src/extra/widgets/menu/lv_menu.c ****         lv_obj_t * obj = lv_event_get_target(e);
 1871              		.loc 1 710 7 is_stmt 0 view .LVU527
 1872 0008 0728     		cmp	r0, #7
 1873 000a 00D0     		beq	.L114
 1874              	.LVL220:
 1875              	.L110:
 743:Drivers/lvgl/src/extra/widgets/menu/lv_menu.c **** 
 1876              		.loc 1 743 1 view .LVU528
 1877 000c F8BD     		pop	{r3, r4, r5, r6, r7, pc}
 1878              	.LVL221:
 1879              	.L114:
 1880              	.LBB4:
 711:Drivers/lvgl/src/extra/widgets/menu/lv_menu.c ****         lv_menu_t * menu = (lv_menu_t *)lv_event_get_user_data(e);
 1881              		.loc 1 711 9 is_stmt 1 view .LVU529
 711:Drivers/lvgl/src/extra/widgets/menu/lv_menu.c ****         lv_menu_t * menu = (lv_menu_t *)lv_event_get_user_data(e);
 1882              		.loc 1 711 26 is_stmt 0 view .LVU530
 1883 000e 2046     		mov	r0, r4
 1884              	.LVL222:
ARM GAS  /var/folders/lp/x54gwt890xv47sdkqj1k04q40000gn/T//ccXBSBZL.s 			page 55


 711:Drivers/lvgl/src/extra/widgets/menu/lv_menu.c ****         lv_menu_t * menu = (lv_menu_t *)lv_event_get_user_data(e);
 1885              		.loc 1 711 26 view .LVU531
 1886 0010 FFF7FEFF 		bl	lv_event_get_target
 1887              	.LVL223:
 1888 0014 0546     		mov	r5, r0
 1889              	.LVL224:
 712:Drivers/lvgl/src/extra/widgets/menu/lv_menu.c **** 
 1890              		.loc 1 712 9 is_stmt 1 view .LVU532
 712:Drivers/lvgl/src/extra/widgets/menu/lv_menu.c **** 
 1891              		.loc 1 712 41 is_stmt 0 view .LVU533
 1892 0016 2046     		mov	r0, r4
 1893              	.LVL225:
 712:Drivers/lvgl/src/extra/widgets/menu/lv_menu.c **** 
 1894              		.loc 1 712 41 view .LVU534
 1895 0018 FFF7FEFF 		bl	lv_event_get_user_data
 1896              	.LVL226:
 1897 001c 0446     		mov	r4, r0
 1898              	.LVL227:
 714:Drivers/lvgl/src/extra/widgets/menu/lv_menu.c **** 
 1899              		.loc 1 714 9 is_stmt 1 view .LVU535
 714:Drivers/lvgl/src/extra/widgets/menu/lv_menu.c **** 
 1900              		.loc 1 714 25 is_stmt 0 view .LVU536
 1901 001e 436B     		ldr	r3, [r0, #52]
 714:Drivers/lvgl/src/extra/widgets/menu/lv_menu.c **** 
 1902              		.loc 1 714 11 view .LVU537
 1903 0020 AB42     		cmp	r3, r5
 1904 0022 02D0     		beq	.L112
 714:Drivers/lvgl/src/extra/widgets/menu/lv_menu.c **** 
 1905              		.loc 1 714 62 discriminator 1 view .LVU538
 1906 0024 836C     		ldr	r3, [r0, #72]
 714:Drivers/lvgl/src/extra/widgets/menu/lv_menu.c **** 
 1907              		.loc 1 714 12 discriminator 1 view .LVU539
 1908 0026 AB42     		cmp	r3, r5
 1909 0028 F0D1     		bne	.L110
 1910              	.L112:
 716:Drivers/lvgl/src/extra/widgets/menu/lv_menu.c **** 
 1911              		.loc 1 716 9 is_stmt 1 view .LVU540
 716:Drivers/lvgl/src/extra/widgets/menu/lv_menu.c **** 
 1912              		.loc 1 716 32 is_stmt 0 view .LVU541
 1913 002a 94F86030 		ldrb	r3, [r4, #96]	@ zero_extendqisi2
 716:Drivers/lvgl/src/extra/widgets/menu/lv_menu.c **** 
 1914              		.loc 1 716 26 view .LVU542
 1915 002e 84F86130 		strb	r3, [r4, #97]
 718:Drivers/lvgl/src/extra/widgets/menu/lv_menu.c **** 
 1916              		.loc 1 718 9 is_stmt 1 view .LVU543
 718:Drivers/lvgl/src/extra/widgets/menu/lv_menu.c **** 
 1917              		.loc 1 718 12 is_stmt 0 view .LVU544
 1918 0032 2946     		mov	r1, r5
 1919 0034 2046     		mov	r0, r4
 1920              	.LVL228:
 718:Drivers/lvgl/src/extra/widgets/menu/lv_menu.c **** 
 1921              		.loc 1 718 12 view .LVU545
 1922 0036 FFF7FEFF 		bl	lv_menu_back_btn_is_root
 1923              	.LVL229:
 718:Drivers/lvgl/src/extra/widgets/menu/lv_menu.c **** 
 1924              		.loc 1 718 11 discriminator 1 view .LVU546
 1925 003a 0028     		cmp	r0, #0
ARM GAS  /var/folders/lp/x54gwt890xv47sdkqj1k04q40000gn/T//ccXBSBZL.s 			page 56


 1926 003c E6D1     		bne	.L110
 720:Drivers/lvgl/src/extra/widgets/menu/lv_menu.c **** 
 1927              		.loc 1 720 9 is_stmt 1 view .LVU547
 720:Drivers/lvgl/src/extra/widgets/menu/lv_menu.c **** 
 1928              		.loc 1 720 19 is_stmt 0 view .LVU548
 1929 003e 04F15406 		add	r6, r4, #84
 1930              	.LVL230:
 723:Drivers/lvgl/src/extra/widgets/menu/lv_menu.c **** 
 1931              		.loc 1 723 9 is_stmt 1 view .LVU549
 723:Drivers/lvgl/src/extra/widgets/menu/lv_menu.c **** 
 1932              		.loc 1 723 40 is_stmt 0 view .LVU550
 1933 0042 3046     		mov	r0, r6
 1934 0044 FFF7FEFF 		bl	_lv_ll_get_head
 1935              	.LVL231:
 1936 0048 0546     		mov	r5, r0
 1937              	.LVL232:
 726:Drivers/lvgl/src/extra/widgets/menu/lv_menu.c **** 
 1938              		.loc 1 726 9 is_stmt 1 view .LVU551
 726:Drivers/lvgl/src/extra/widgets/menu/lv_menu.c **** 
 1939              		.loc 1 726 41 is_stmt 0 view .LVU552
 1940 004a 0146     		mov	r1, r0
 1941 004c 3046     		mov	r0, r6
 1942              	.LVL233:
 726:Drivers/lvgl/src/extra/widgets/menu/lv_menu.c **** 
 1943              		.loc 1 726 41 view .LVU553
 1944 004e FFF7FEFF 		bl	_lv_ll_get_next
 1945              	.LVL234:
 728:Drivers/lvgl/src/extra/widgets/menu/lv_menu.c ****             /* Previous menu exists */
 1946              		.loc 1 728 9 is_stmt 1 view .LVU554
 728:Drivers/lvgl/src/extra/widgets/menu/lv_menu.c ****             /* Previous menu exists */
 1947              		.loc 1 728 11 is_stmt 0 view .LVU555
 1948 0052 0746     		mov	r7, r0
 1949 0054 0028     		cmp	r0, #0
 1950 0056 D9D0     		beq	.L110
 731:Drivers/lvgl/src/extra/widgets/menu/lv_menu.c ****             lv_mem_free(act_hist);
 1951              		.loc 1 731 13 is_stmt 1 view .LVU556
 1952 0058 2946     		mov	r1, r5
 1953 005a 3046     		mov	r0, r6
 1954              	.LVL235:
 731:Drivers/lvgl/src/extra/widgets/menu/lv_menu.c ****             lv_mem_free(act_hist);
 1955              		.loc 1 731 13 is_stmt 0 view .LVU557
 1956 005c FFF7FEFF 		bl	_lv_ll_remove
 1957              	.LVL236:
 732:Drivers/lvgl/src/extra/widgets/menu/lv_menu.c ****             menu->cur_depth--;
 1958              		.loc 1 732 13 is_stmt 1 view .LVU558
 1959 0060 2846     		mov	r0, r5
 1960 0062 FFF7FEFF 		bl	lv_mem_free
 1961              	.LVL237:
 733:Drivers/lvgl/src/extra/widgets/menu/lv_menu.c ****             /* Create the previous menu.
 1962              		.loc 1 733 13 view .LVU559
 733:Drivers/lvgl/src/extra/widgets/menu/lv_menu.c ****             /* Create the previous menu.
 1963              		.loc 1 733 17 is_stmt 0 view .LVU560
 1964 0066 94F86030 		ldrb	r3, [r4, #96]	@ zero_extendqisi2
 733:Drivers/lvgl/src/extra/widgets/menu/lv_menu.c ****             /* Create the previous menu.
 1965              		.loc 1 733 28 view .LVU561
 1966 006a 013B     		subs	r3, r3, #1
 1967 006c 84F86030 		strb	r3, [r4, #96]
ARM GAS  /var/folders/lp/x54gwt890xv47sdkqj1k04q40000gn/T//ccXBSBZL.s 			page 57


 736:Drivers/lvgl/src/extra/widgets/menu/lv_menu.c ****             menu->cur_depth--;
 1968              		.loc 1 736 13 is_stmt 1 view .LVU562
 1969 0070 3946     		mov	r1, r7
 1970 0072 3046     		mov	r0, r6
 1971 0074 FFF7FEFF 		bl	_lv_ll_remove
 1972              	.LVL238:
 737:Drivers/lvgl/src/extra/widgets/menu/lv_menu.c ****             lv_menu_set_page(&(menu->obj), prev_hist->page);
 1973              		.loc 1 737 13 view .LVU563
 737:Drivers/lvgl/src/extra/widgets/menu/lv_menu.c ****             lv_menu_set_page(&(menu->obj), prev_hist->page);
 1974              		.loc 1 737 17 is_stmt 0 view .LVU564
 1975 0078 94F86030 		ldrb	r3, [r4, #96]	@ zero_extendqisi2
 737:Drivers/lvgl/src/extra/widgets/menu/lv_menu.c ****             lv_menu_set_page(&(menu->obj), prev_hist->page);
 1976              		.loc 1 737 28 view .LVU565
 1977 007c 013B     		subs	r3, r3, #1
 1978 007e 84F86030 		strb	r3, [r4, #96]
 738:Drivers/lvgl/src/extra/widgets/menu/lv_menu.c **** 
 1979              		.loc 1 738 13 is_stmt 1 view .LVU566
 1980 0082 3968     		ldr	r1, [r7]
 1981 0084 2046     		mov	r0, r4
 1982 0086 FFF7FEFF 		bl	lv_menu_set_page
 1983              	.LVL239:
 740:Drivers/lvgl/src/extra/widgets/menu/lv_menu.c ****         }
 1984              		.loc 1 740 13 view .LVU567
 1985 008a 3846     		mov	r0, r7
 1986 008c FFF7FEFF 		bl	lv_mem_free
 1987              	.LVL240:
 1988 0090 BCE7     		b	.L110
 1989              	.LBE4:
 1990              		.cfi_endproc
 1991              	.LFE195:
 1993              		.section	.text.lv_menu_refr,"ax",%progbits
 1994              		.align	1
 1995              		.syntax unified
 1996              		.thumb
 1997              		.thumb_func
 1999              	lv_menu_refr:
 2000              	.LVL241:
 2001              	.LFB171:
 165:Drivers/lvgl/src/extra/widgets/menu/lv_menu.c ****     LV_ASSERT_OBJ(obj, MY_CLASS);
 2002              		.loc 1 165 1 view -0
 2003              		.cfi_startproc
 2004              		@ args = 0, pretend = 0, frame = 0
 2005              		@ frame_needed = 0, uses_anonymous_args = 0
 165:Drivers/lvgl/src/extra/widgets/menu/lv_menu.c ****     LV_ASSERT_OBJ(obj, MY_CLASS);
 2006              		.loc 1 165 1 is_stmt 0 view .LVU569
 2007 0000 F8B5     		push	{r3, r4, r5, r6, r7, lr}
 2008              		.cfi_def_cfa_offset 24
 2009              		.cfi_offset 3, -24
 2010              		.cfi_offset 4, -20
 2011              		.cfi_offset 5, -16
 2012              		.cfi_offset 6, -12
 2013              		.cfi_offset 7, -8
 2014              		.cfi_offset 14, -4
 2015 0002 0446     		mov	r4, r0
 166:Drivers/lvgl/src/extra/widgets/menu/lv_menu.c **** 
 2016              		.loc 1 166 5 is_stmt 1 view .LVU570
 166:Drivers/lvgl/src/extra/widgets/menu/lv_menu.c **** 
ARM GAS  /var/folders/lp/x54gwt890xv47sdkqj1k04q40000gn/T//ccXBSBZL.s 			page 58


 2017              		.loc 1 166 5 view .LVU571
 166:Drivers/lvgl/src/extra/widgets/menu/lv_menu.c **** 
 2018              		.loc 1 166 5 view .LVU572
 168:Drivers/lvgl/src/extra/widgets/menu/lv_menu.c ****     lv_ll_t * history_ll = &(menu->history_ll);
 2019              		.loc 1 168 5 view .LVU573
 2020              	.LVL242:
 169:Drivers/lvgl/src/extra/widgets/menu/lv_menu.c **** 
 2021              		.loc 1 169 5 view .LVU574
 169:Drivers/lvgl/src/extra/widgets/menu/lv_menu.c **** 
 2022              		.loc 1 169 15 is_stmt 0 view .LVU575
 2023 0004 00F15406 		add	r6, r0, #84
 2024              	.LVL243:
 172:Drivers/lvgl/src/extra/widgets/menu/lv_menu.c **** 
 2025              		.loc 1 172 5 is_stmt 1 view .LVU576
 172:Drivers/lvgl/src/extra/widgets/menu/lv_menu.c **** 
 2026              		.loc 1 172 36 is_stmt 0 view .LVU577
 2027 0008 3046     		mov	r0, r6
 2028              	.LVL244:
 172:Drivers/lvgl/src/extra/widgets/menu/lv_menu.c **** 
 2029              		.loc 1 172 36 view .LVU578
 2030 000a FFF7FEFF 		bl	_lv_ll_get_head
 2031              	.LVL245:
 174:Drivers/lvgl/src/extra/widgets/menu/lv_menu.c **** 
 2032              		.loc 1 174 5 is_stmt 1 view .LVU579
 176:Drivers/lvgl/src/extra/widgets/menu/lv_menu.c ****         page = act_hist->page;
 2033              		.loc 1 176 5 view .LVU580
 176:Drivers/lvgl/src/extra/widgets/menu/lv_menu.c ****         page = act_hist->page;
 2034              		.loc 1 176 7 is_stmt 0 view .LVU581
 2035 000e 0546     		mov	r5, r0
 2036 0010 68B1     		cbz	r0, .L116
 177:Drivers/lvgl/src/extra/widgets/menu/lv_menu.c ****         /* Delete the current item from the history */
 2037              		.loc 1 177 9 is_stmt 1 view .LVU582
 177:Drivers/lvgl/src/extra/widgets/menu/lv_menu.c ****         /* Delete the current item from the history */
 2038              		.loc 1 177 14 is_stmt 0 view .LVU583
 2039 0012 0768     		ldr	r7, [r0]
 2040              	.LVL246:
 179:Drivers/lvgl/src/extra/widgets/menu/lv_menu.c ****         lv_mem_free(act_hist);
 2041              		.loc 1 179 9 is_stmt 1 view .LVU584
 2042 0014 0146     		mov	r1, r0
 2043 0016 3046     		mov	r0, r6
 2044              	.LVL247:
 179:Drivers/lvgl/src/extra/widgets/menu/lv_menu.c ****         lv_mem_free(act_hist);
 2045              		.loc 1 179 9 is_stmt 0 view .LVU585
 2046 0018 FFF7FEFF 		bl	_lv_ll_remove
 2047              	.LVL248:
 180:Drivers/lvgl/src/extra/widgets/menu/lv_menu.c ****         menu->cur_depth--;
 2048              		.loc 1 180 9 is_stmt 1 view .LVU586
 2049 001c 2846     		mov	r0, r5
 2050 001e FFF7FEFF 		bl	lv_mem_free
 2051              	.LVL249:
 181:Drivers/lvgl/src/extra/widgets/menu/lv_menu.c ****     }
 2052              		.loc 1 181 9 view .LVU587
 181:Drivers/lvgl/src/extra/widgets/menu/lv_menu.c ****     }
 2053              		.loc 1 181 13 is_stmt 0 view .LVU588
 2054 0022 94F86030 		ldrb	r3, [r4, #96]	@ zero_extendqisi2
 181:Drivers/lvgl/src/extra/widgets/menu/lv_menu.c ****     }
 2055              		.loc 1 181 24 view .LVU589
ARM GAS  /var/folders/lp/x54gwt890xv47sdkqj1k04q40000gn/T//ccXBSBZL.s 			page 59


 2056 0026 013B     		subs	r3, r3, #1
 2057 0028 84F86030 		strb	r3, [r4, #96]
 177:Drivers/lvgl/src/extra/widgets/menu/lv_menu.c ****         /* Delete the current item from the history */
 2058              		.loc 1 177 14 view .LVU590
 2059 002c 3D46     		mov	r5, r7
 2060              	.LVL250:
 2061              	.L116:
 185:Drivers/lvgl/src/extra/widgets/menu/lv_menu.c **** }
 2062              		.loc 1 185 5 is_stmt 1 view .LVU591
 2063 002e 2946     		mov	r1, r5
 2064 0030 2046     		mov	r0, r4
 2065 0032 FFF7FEFF 		bl	lv_menu_set_page
 2066              	.LVL251:
 186:Drivers/lvgl/src/extra/widgets/menu/lv_menu.c **** 
 2067              		.loc 1 186 1 is_stmt 0 view .LVU592
 2068 0036 F8BD     		pop	{r3, r4, r5, r6, r7, pc}
 186:Drivers/lvgl/src/extra/widgets/menu/lv_menu.c **** 
 2069              		.loc 1 186 1 view .LVU593
 2070              		.cfi_endproc
 2071              	.LFE171:
 2073              		.section	.text.lv_menu_set_sidebar_page,"ax",%progbits
 2074              		.align	1
 2075              		.global	lv_menu_set_sidebar_page
 2076              		.syntax unified
 2077              		.thumb
 2078              		.thumb_func
 2080              	lv_menu_set_sidebar_page:
 2081              	.LVL252:
 2082              	.LFB173:
 278:Drivers/lvgl/src/extra/widgets/menu/lv_menu.c ****     LV_ASSERT_OBJ(obj, MY_CLASS);
 2083              		.loc 1 278 1 is_stmt 1 view -0
 2084              		.cfi_startproc
 2085              		@ args = 0, pretend = 0, frame = 0
 2086              		@ frame_needed = 0, uses_anonymous_args = 0
 278:Drivers/lvgl/src/extra/widgets/menu/lv_menu.c ****     LV_ASSERT_OBJ(obj, MY_CLASS);
 2087              		.loc 1 278 1 is_stmt 0 view .LVU595
 2088 0000 70B5     		push	{r4, r5, r6, lr}
 2089              		.cfi_def_cfa_offset 16
 2090              		.cfi_offset 4, -16
 2091              		.cfi_offset 5, -12
 2092              		.cfi_offset 6, -8
 2093              		.cfi_offset 14, -4
 2094 0002 0446     		mov	r4, r0
 279:Drivers/lvgl/src/extra/widgets/menu/lv_menu.c **** 
 2095              		.loc 1 279 5 is_stmt 1 view .LVU596
 279:Drivers/lvgl/src/extra/widgets/menu/lv_menu.c **** 
 2096              		.loc 1 279 5 view .LVU597
 279:Drivers/lvgl/src/extra/widgets/menu/lv_menu.c **** 
 2097              		.loc 1 279 5 view .LVU598
 281:Drivers/lvgl/src/extra/widgets/menu/lv_menu.c **** 
 2098              		.loc 1 281 5 view .LVU599
 2099              	.LVL253:
 284:Drivers/lvgl/src/extra/widgets/menu/lv_menu.c ****         /* Sidebar should be enabled */
 2100              		.loc 1 284 5 view .LVU600
 284:Drivers/lvgl/src/extra/widgets/menu/lv_menu.c ****         /* Sidebar should be enabled */
 2101              		.loc 1 284 7 is_stmt 0 view .LVU601
 2102 0004 0E46     		mov	r6, r1
ARM GAS  /var/folders/lp/x54gwt890xv47sdkqj1k04q40000gn/T//ccXBSBZL.s 			page 60


 2103 0006 0029     		cmp	r1, #0
 2104 0008 7AD0     		beq	.L119
 286:Drivers/lvgl/src/extra/widgets/menu/lv_menu.c ****             /* Create sidebar */
 2105              		.loc 1 286 9 is_stmt 1 view .LVU602
 286:Drivers/lvgl/src/extra/widgets/menu/lv_menu.c ****             /* Create sidebar */
 2106              		.loc 1 286 12 is_stmt 0 view .LVU603
 2107 000a 90F86230 		ldrb	r3, [r0, #98]	@ zero_extendqisi2
 286:Drivers/lvgl/src/extra/widgets/menu/lv_menu.c ****             /* Create sidebar */
 2108              		.loc 1 286 11 view .LVU604
 2109 000e 13F0010F 		tst	r3, #1
 2110 0012 0BD0     		beq	.L123
 2111              	.LVL254:
 2112              	.L120:
 322:Drivers/lvgl/src/extra/widgets/menu/lv_menu.c **** 
 2113              		.loc 1 322 9 is_stmt 1 view .LVU605
 2114 0014 E16B     		ldr	r1, [r4, #60]
 2115 0016 3046     		mov	r0, r6
 2116 0018 FFF7FEFF 		bl	lv_obj_set_parent
 2117              	.LVL255:
 324:Drivers/lvgl/src/extra/widgets/menu/lv_menu.c ****     }
 2118              		.loc 1 324 9 view .LVU606
 2119 001c 2046     		mov	r0, r4
 2120 001e FFF7FEFF 		bl	lv_menu_refr_sidebar_header_mode
 2121              	.LVL256:
 2122              	.L121:
 336:Drivers/lvgl/src/extra/widgets/menu/lv_menu.c ****     lv_menu_refr(obj);
 2123              		.loc 1 336 5 view .LVU607
 336:Drivers/lvgl/src/extra/widgets/menu/lv_menu.c ****     lv_menu_refr(obj);
 2124              		.loc 1 336 24 is_stmt 0 view .LVU608
 2125 0022 2664     		str	r6, [r4, #64]
 337:Drivers/lvgl/src/extra/widgets/menu/lv_menu.c **** }
 2126              		.loc 1 337 5 is_stmt 1 view .LVU609
 2127 0024 2046     		mov	r0, r4
 2128 0026 FFF7FEFF 		bl	lv_menu_refr
 2129              	.LVL257:
 338:Drivers/lvgl/src/extra/widgets/menu/lv_menu.c **** 
 2130              		.loc 1 338 1 is_stmt 0 view .LVU610
 2131 002a 70BD     		pop	{r4, r5, r6, pc}
 2132              	.LVL258:
 2133              	.L123:
 2134              	.LBB5:
 288:Drivers/lvgl/src/extra/widgets/menu/lv_menu.c ****             lv_obj_class_init_obj(sidebar_cont);
 2135              		.loc 1 288 13 is_stmt 1 view .LVU611
 288:Drivers/lvgl/src/extra/widgets/menu/lv_menu.c ****             lv_obj_class_init_obj(sidebar_cont);
 2136              		.loc 1 288 39 is_stmt 0 view .LVU612
 2137 002c 0146     		mov	r1, r0
 2138              	.LVL259:
 288:Drivers/lvgl/src/extra/widgets/menu/lv_menu.c ****             lv_obj_class_init_obj(sidebar_cont);
 2139              		.loc 1 288 39 view .LVU613
 2140 002e 3E48     		ldr	r0, .L124
 2141              	.LVL260:
 288:Drivers/lvgl/src/extra/widgets/menu/lv_menu.c ****             lv_obj_class_init_obj(sidebar_cont);
 2142              		.loc 1 288 39 view .LVU614
 2143 0030 FFF7FEFF 		bl	lv_obj_class_create_obj
 2144              	.LVL261:
 2145 0034 0546     		mov	r5, r0
 2146              	.LVL262:
ARM GAS  /var/folders/lp/x54gwt890xv47sdkqj1k04q40000gn/T//ccXBSBZL.s 			page 61


 289:Drivers/lvgl/src/extra/widgets/menu/lv_menu.c ****             lv_obj_move_to_index(sidebar_cont, 1);
 2147              		.loc 1 289 13 is_stmt 1 view .LVU615
 2148 0036 FFF7FEFF 		bl	lv_obj_class_init_obj
 2149              	.LVL263:
 290:Drivers/lvgl/src/extra/widgets/menu/lv_menu.c ****             lv_obj_set_size(sidebar_cont, LV_PCT(30), LV_PCT(100));
 2150              		.loc 1 290 13 view .LVU616
 2151 003a 0121     		movs	r1, #1
 2152 003c 2846     		mov	r0, r5
 2153 003e FFF7FEFF 		bl	lv_obj_move_to_index
 2154              	.LVL264:
 291:Drivers/lvgl/src/extra/widgets/menu/lv_menu.c ****             lv_obj_set_flex_flow(sidebar_cont, LV_FLEX_FLOW_COLUMN);
 2155              		.loc 1 291 13 view .LVU617
 2156 0042 42F26402 		movw	r2, #8292
 2157 0046 42F21E01 		movw	r1, #8222
 2158 004a 2846     		mov	r0, r5
 2159 004c FFF7FEFF 		bl	lv_obj_set_size
 2160              	.LVL265:
 292:Drivers/lvgl/src/extra/widgets/menu/lv_menu.c ****             lv_obj_add_flag(sidebar_cont, LV_OBJ_FLAG_EVENT_BUBBLE);
 2161              		.loc 1 292 13 view .LVU618
 2162 0050 0121     		movs	r1, #1
 2163 0052 2846     		mov	r0, r5
 2164 0054 FFF7FEFF 		bl	lv_obj_set_flex_flow
 2165              	.LVL266:
 293:Drivers/lvgl/src/extra/widgets/menu/lv_menu.c ****             lv_obj_clear_flag(sidebar_cont, LV_OBJ_FLAG_CLICKABLE);
 2166              		.loc 1 293 13 view .LVU619
 2167 0058 4FF48041 		mov	r1, #16384
 2168 005c 2846     		mov	r0, r5
 2169 005e FFF7FEFF 		bl	lv_obj_add_flag
 2170              	.LVL267:
 294:Drivers/lvgl/src/extra/widgets/menu/lv_menu.c ****             menu->sidebar = sidebar_cont;
 2171              		.loc 1 294 13 view .LVU620
 2172 0062 0221     		movs	r1, #2
 2173 0064 2846     		mov	r0, r5
 2174 0066 FFF7FEFF 		bl	lv_obj_clear_flag
 2175              	.LVL268:
 295:Drivers/lvgl/src/extra/widgets/menu/lv_menu.c **** 
 2176              		.loc 1 295 13 view .LVU621
 295:Drivers/lvgl/src/extra/widgets/menu/lv_menu.c **** 
 2177              		.loc 1 295 27 is_stmt 0 view .LVU622
 2178 006a E563     		str	r5, [r4, #60]
 297:Drivers/lvgl/src/extra/widgets/menu/lv_menu.c ****             lv_obj_class_init_obj(sidebar_header);
 2179              		.loc 1 297 13 is_stmt 1 view .LVU623
 297:Drivers/lvgl/src/extra/widgets/menu/lv_menu.c ****             lv_obj_class_init_obj(sidebar_header);
 2180              		.loc 1 297 41 is_stmt 0 view .LVU624
 2181 006c 2946     		mov	r1, r5
 2182 006e 2F48     		ldr	r0, .L124+4
 2183 0070 FFF7FEFF 		bl	lv_obj_class_create_obj
 2184              	.LVL269:
 2185 0074 0546     		mov	r5, r0
 2186              	.LVL270:
 298:Drivers/lvgl/src/extra/widgets/menu/lv_menu.c ****             lv_obj_set_size(sidebar_header, LV_PCT(100), LV_SIZE_CONTENT);
 2187              		.loc 1 298 13 is_stmt 1 view .LVU625
 2188 0076 FFF7FEFF 		bl	lv_obj_class_init_obj
 2189              	.LVL271:
 299:Drivers/lvgl/src/extra/widgets/menu/lv_menu.c ****             lv_obj_set_flex_flow(sidebar_header, LV_FLEX_FLOW_ROW);
 2190              		.loc 1 299 13 view .LVU626
 2191 007a 42F2D172 		movw	r2, #10193
ARM GAS  /var/folders/lp/x54gwt890xv47sdkqj1k04q40000gn/T//ccXBSBZL.s 			page 62


 2192 007e 42F26401 		movw	r1, #8292
 2193 0082 2846     		mov	r0, r5
 2194 0084 FFF7FEFF 		bl	lv_obj_set_size
 2195              	.LVL272:
 300:Drivers/lvgl/src/extra/widgets/menu/lv_menu.c ****             lv_obj_set_flex_align(sidebar_header, LV_FLEX_ALIGN_START, LV_FLEX_ALIGN_CENTER, LV_FLE
 2196              		.loc 1 300 13 view .LVU627
 2197 0088 0021     		movs	r1, #0
 2198 008a 2846     		mov	r0, r5
 2199 008c FFF7FEFF 		bl	lv_obj_set_flex_flow
 2200              	.LVL273:
 301:Drivers/lvgl/src/extra/widgets/menu/lv_menu.c ****             lv_obj_clear_flag(sidebar_header, LV_OBJ_FLAG_CLICKABLE);
 2201              		.loc 1 301 13 view .LVU628
 2202 0090 0223     		movs	r3, #2
 2203 0092 1A46     		mov	r2, r3
 2204 0094 0021     		movs	r1, #0
 2205 0096 2846     		mov	r0, r5
 2206 0098 FFF7FEFF 		bl	lv_obj_set_flex_align
 2207              	.LVL274:
 302:Drivers/lvgl/src/extra/widgets/menu/lv_menu.c ****             lv_obj_add_flag(sidebar_header, LV_OBJ_FLAG_EVENT_BUBBLE);
 2208              		.loc 1 302 13 view .LVU629
 2209 009c 0221     		movs	r1, #2
 2210 009e 2846     		mov	r0, r5
 2211 00a0 FFF7FEFF 		bl	lv_obj_clear_flag
 2212              	.LVL275:
 303:Drivers/lvgl/src/extra/widgets/menu/lv_menu.c ****             menu->sidebar_header = sidebar_header;
 2213              		.loc 1 303 13 view .LVU630
 2214 00a4 4FF48041 		mov	r1, #16384
 2215 00a8 2846     		mov	r0, r5
 2216 00aa FFF7FEFF 		bl	lv_obj_add_flag
 2217              	.LVL276:
 304:Drivers/lvgl/src/extra/widgets/menu/lv_menu.c **** 
 2218              		.loc 1 304 13 view .LVU631
 304:Drivers/lvgl/src/extra/widgets/menu/lv_menu.c **** 
 2219              		.loc 1 304 34 is_stmt 0 view .LVU632
 2220 00ae 6564     		str	r5, [r4, #68]
 306:Drivers/lvgl/src/extra/widgets/menu/lv_menu.c ****             lv_obj_add_event_cb(sidebar_header_back_btn, lv_menu_back_event_cb, LV_EVENT_CLICKED, m
 2221              		.loc 1 306 13 is_stmt 1 view .LVU633
 306:Drivers/lvgl/src/extra/widgets/menu/lv_menu.c ****             lv_obj_add_event_cb(sidebar_header_back_btn, lv_menu_back_event_cb, LV_EVENT_CLICKED, m
 2222              		.loc 1 306 50 is_stmt 0 view .LVU634
 2223 00b0 2846     		mov	r0, r5
 2224 00b2 FFF7FEFF 		bl	lv_btn_create
 2225              	.LVL277:
 2226 00b6 0546     		mov	r5, r0
 2227              	.LVL278:
 307:Drivers/lvgl/src/extra/widgets/menu/lv_menu.c ****             lv_obj_add_flag(sidebar_header_back_btn, LV_OBJ_FLAG_EVENT_BUBBLE);
 2228              		.loc 1 307 13 is_stmt 1 view .LVU635
 2229 00b8 2346     		mov	r3, r4
 2230 00ba 0722     		movs	r2, #7
 2231 00bc 1C49     		ldr	r1, .L124+8
 2232 00be FFF7FEFF 		bl	lv_obj_add_event_cb
 2233              	.LVL279:
 308:Drivers/lvgl/src/extra/widgets/menu/lv_menu.c ****             lv_obj_set_flex_flow(sidebar_header_back_btn, LV_FLEX_FLOW_ROW);
 2234              		.loc 1 308 13 view .LVU636
 2235 00c2 4FF48041 		mov	r1, #16384
 2236 00c6 2846     		mov	r0, r5
 2237 00c8 FFF7FEFF 		bl	lv_obj_add_flag
 2238              	.LVL280:
ARM GAS  /var/folders/lp/x54gwt890xv47sdkqj1k04q40000gn/T//ccXBSBZL.s 			page 63


 309:Drivers/lvgl/src/extra/widgets/menu/lv_menu.c ****             menu->sidebar_header_back_btn = sidebar_header_back_btn;
 2239              		.loc 1 309 13 view .LVU637
 2240 00cc 0021     		movs	r1, #0
 2241 00ce 2846     		mov	r0, r5
 2242 00d0 FFF7FEFF 		bl	lv_obj_set_flex_flow
 2243              	.LVL281:
 310:Drivers/lvgl/src/extra/widgets/menu/lv_menu.c **** 
 2244              		.loc 1 310 13 view .LVU638
 310:Drivers/lvgl/src/extra/widgets/menu/lv_menu.c **** 
 2245              		.loc 1 310 43 is_stmt 0 view .LVU639
 2246 00d4 A564     		str	r5, [r4, #72]
 312:Drivers/lvgl/src/extra/widgets/menu/lv_menu.c ****             lv_img_set_src(sidebar_header_back_icon, LV_SYMBOL_LEFT);
 2247              		.loc 1 312 13 is_stmt 1 view .LVU640
 312:Drivers/lvgl/src/extra/widgets/menu/lv_menu.c ****             lv_img_set_src(sidebar_header_back_icon, LV_SYMBOL_LEFT);
 2248              		.loc 1 312 51 is_stmt 0 view .LVU641
 2249 00d6 2846     		mov	r0, r5
 2250 00d8 FFF7FEFF 		bl	lv_img_create
 2251              	.LVL282:
 313:Drivers/lvgl/src/extra/widgets/menu/lv_menu.c **** 
 2252              		.loc 1 313 13 is_stmt 1 view .LVU642
 2253 00dc 1549     		ldr	r1, .L124+12
 2254 00de FFF7FEFF 		bl	lv_img_set_src
 2255              	.LVL283:
 315:Drivers/lvgl/src/extra/widgets/menu/lv_menu.c ****             lv_obj_add_flag(sidebar_header_title, LV_OBJ_FLAG_HIDDEN);
 2256              		.loc 1 315 13 view .LVU643
 315:Drivers/lvgl/src/extra/widgets/menu/lv_menu.c ****             lv_obj_add_flag(sidebar_header_title, LV_OBJ_FLAG_HIDDEN);
 2257              		.loc 1 315 47 is_stmt 0 view .LVU644
 2258 00e2 606C     		ldr	r0, [r4, #68]
 2259 00e4 FFF7FEFF 		bl	lv_label_create
 2260              	.LVL284:
 2261 00e8 0546     		mov	r5, r0
 2262              	.LVL285:
 316:Drivers/lvgl/src/extra/widgets/menu/lv_menu.c ****             menu->sidebar_header_title = sidebar_header_title;
 2263              		.loc 1 316 13 is_stmt 1 view .LVU645
 2264 00ea 0121     		movs	r1, #1
 2265 00ec FFF7FEFF 		bl	lv_obj_add_flag
 2266              	.LVL286:
 317:Drivers/lvgl/src/extra/widgets/menu/lv_menu.c **** 
 2267              		.loc 1 317 13 view .LVU646
 317:Drivers/lvgl/src/extra/widgets/menu/lv_menu.c **** 
 2268              		.loc 1 317 40 is_stmt 0 view .LVU647
 2269 00f0 E564     		str	r5, [r4, #76]
 319:Drivers/lvgl/src/extra/widgets/menu/lv_menu.c ****         }
 2270              		.loc 1 319 13 is_stmt 1 view .LVU648
 319:Drivers/lvgl/src/extra/widgets/menu/lv_menu.c ****         }
 2271              		.loc 1 319 37 is_stmt 0 view .LVU649
 2272 00f2 94F86230 		ldrb	r3, [r4, #98]	@ zero_extendqisi2
 2273 00f6 43F00103 		orr	r3, r3, #1
 2274 00fa 84F86230 		strb	r3, [r4, #98]
 2275 00fe 89E7     		b	.L120
 2276              	.LVL287:
 2277              	.L119:
 319:Drivers/lvgl/src/extra/widgets/menu/lv_menu.c ****         }
 2278              		.loc 1 319 37 view .LVU650
 2279              	.LBE5:
 328:Drivers/lvgl/src/extra/widgets/menu/lv_menu.c ****             lv_obj_set_parent(menu->sidebar_page, menu->storage);
 2280              		.loc 1 328 9 is_stmt 1 view .LVU651
ARM GAS  /var/folders/lp/x54gwt890xv47sdkqj1k04q40000gn/T//ccXBSBZL.s 			page 64


 328:Drivers/lvgl/src/extra/widgets/menu/lv_menu.c ****             lv_obj_set_parent(menu->sidebar_page, menu->storage);
 2281              		.loc 1 328 12 is_stmt 0 view .LVU652
 2282 0100 90F86230 		ldrb	r3, [r0, #98]	@ zero_extendqisi2
 328:Drivers/lvgl/src/extra/widgets/menu/lv_menu.c ****             lv_obj_set_parent(menu->sidebar_page, menu->storage);
 2283              		.loc 1 328 11 view .LVU653
 2284 0104 13F0010F 		tst	r3, #1
 2285 0108 8BD0     		beq	.L121
 329:Drivers/lvgl/src/extra/widgets/menu/lv_menu.c ****             lv_obj_del(menu->sidebar);
 2286              		.loc 1 329 13 is_stmt 1 view .LVU654
 2287 010a 416A     		ldr	r1, [r0, #36]
 2288              	.LVL288:
 329:Drivers/lvgl/src/extra/widgets/menu/lv_menu.c ****             lv_obj_del(menu->sidebar);
 2289              		.loc 1 329 13 is_stmt 0 view .LVU655
 2290 010c 006C     		ldr	r0, [r0, #64]
 2291              	.LVL289:
 329:Drivers/lvgl/src/extra/widgets/menu/lv_menu.c ****             lv_obj_del(menu->sidebar);
 2292              		.loc 1 329 13 view .LVU656
 2293 010e FFF7FEFF 		bl	lv_obj_set_parent
 2294              	.LVL290:
 330:Drivers/lvgl/src/extra/widgets/menu/lv_menu.c **** 
 2295              		.loc 1 330 13 is_stmt 1 view .LVU657
 2296 0112 E06B     		ldr	r0, [r4, #60]
 2297 0114 FFF7FEFF 		bl	lv_obj_del
 2298              	.LVL291:
 332:Drivers/lvgl/src/extra/widgets/menu/lv_menu.c ****         }
 2299              		.loc 1 332 13 view .LVU658
 332:Drivers/lvgl/src/extra/widgets/menu/lv_menu.c ****         }
 2300              		.loc 1 332 37 is_stmt 0 view .LVU659
 2301 0118 94F86230 		ldrb	r3, [r4, #98]	@ zero_extendqisi2
 2302 011c 23F00103 		bic	r3, r3, #1
 2303 0120 84F86230 		strb	r3, [r4, #98]
 2304 0124 7DE7     		b	.L121
 2305              	.L125:
 2306 0126 00BF     		.align	2
 2307              	.L124:
 2308 0128 00000000 		.word	lv_menu_sidebar_cont_class
 2309 012c 00000000 		.word	lv_menu_sidebar_header_cont_class
 2310 0130 00000000 		.word	lv_menu_back_event_cb
 2311 0134 00000000 		.word	.LC0
 2312              		.cfi_endproc
 2313              	.LFE173:
 2315              		.section	.text.lv_menu_set_mode_root_back_btn,"ax",%progbits
 2316              		.align	1
 2317              		.global	lv_menu_set_mode_root_back_btn
 2318              		.syntax unified
 2319              		.thumb
 2320              		.thumb_func
 2322              	lv_menu_set_mode_root_back_btn:
 2323              	.LVL292:
 2324              	.LFB175:
 354:Drivers/lvgl/src/extra/widgets/menu/lv_menu.c ****     LV_ASSERT_OBJ(obj, MY_CLASS);
 2325              		.loc 1 354 1 is_stmt 1 view -0
 2326              		.cfi_startproc
 2327              		@ args = 0, pretend = 0, frame = 0
 2328              		@ frame_needed = 0, uses_anonymous_args = 0
 354:Drivers/lvgl/src/extra/widgets/menu/lv_menu.c ****     LV_ASSERT_OBJ(obj, MY_CLASS);
 2329              		.loc 1 354 1 is_stmt 0 view .LVU661
ARM GAS  /var/folders/lp/x54gwt890xv47sdkqj1k04q40000gn/T//ccXBSBZL.s 			page 65


 2330 0000 08B5     		push	{r3, lr}
 2331              		.cfi_def_cfa_offset 8
 2332              		.cfi_offset 3, -8
 2333              		.cfi_offset 14, -4
 355:Drivers/lvgl/src/extra/widgets/menu/lv_menu.c **** 
 2334              		.loc 1 355 5 is_stmt 1 view .LVU662
 355:Drivers/lvgl/src/extra/widgets/menu/lv_menu.c **** 
 2335              		.loc 1 355 5 view .LVU663
 355:Drivers/lvgl/src/extra/widgets/menu/lv_menu.c **** 
 2336              		.loc 1 355 5 view .LVU664
 357:Drivers/lvgl/src/extra/widgets/menu/lv_menu.c **** 
 2337              		.loc 1 357 5 view .LVU665
 2338              	.LVL293:
 359:Drivers/lvgl/src/extra/widgets/menu/lv_menu.c ****         menu->mode_root_back_btn = mode_root_back_btn;
 2339              		.loc 1 359 5 view .LVU666
 359:Drivers/lvgl/src/extra/widgets/menu/lv_menu.c ****         menu->mode_root_back_btn = mode_root_back_btn;
 2340              		.loc 1 359 12 is_stmt 0 view .LVU667
 2341 0002 90F86230 		ldrb	r3, [r0, #98]	@ zero_extendqisi2
 2342 0006 C3F3C003 		ubfx	r3, r3, #3, #1
 359:Drivers/lvgl/src/extra/widgets/menu/lv_menu.c ****         menu->mode_root_back_btn = mode_root_back_btn;
 2343              		.loc 1 359 7 view .LVU668
 2344 000a 8B42     		cmp	r3, r1
 2345 000c 00D1     		bne	.L129
 2346              	.LVL294:
 2347              	.L126:
 363:Drivers/lvgl/src/extra/widgets/menu/lv_menu.c **** 
 2348              		.loc 1 363 1 view .LVU669
 2349 000e 08BD     		pop	{r3, pc}
 2350              	.LVL295:
 2351              	.L129:
 360:Drivers/lvgl/src/extra/widgets/menu/lv_menu.c ****         lv_menu_refr(obj);
 2352              		.loc 1 360 9 is_stmt 1 view .LVU670
 360:Drivers/lvgl/src/extra/widgets/menu/lv_menu.c ****         lv_menu_refr(obj);
 2353              		.loc 1 360 34 is_stmt 0 view .LVU671
 2354 0010 90F86230 		ldrb	r3, [r0, #98]	@ zero_extendqisi2
 2355 0014 61F3C303 		bfi	r3, r1, #3, #1
 2356 0018 80F86230 		strb	r3, [r0, #98]
 361:Drivers/lvgl/src/extra/widgets/menu/lv_menu.c ****     }
 2357              		.loc 1 361 9 is_stmt 1 view .LVU672
 2358 001c FFF7FEFF 		bl	lv_menu_refr
 2359              	.LVL296:
 363:Drivers/lvgl/src/extra/widgets/menu/lv_menu.c **** 
 2360              		.loc 1 363 1 is_stmt 0 view .LVU673
 2361 0020 F5E7     		b	.L126
 2362              		.cfi_endproc
 2363              	.LFE175:
 2365              		.section	.text.lv_menu_load_page_event_cb,"ax",%progbits
 2366              		.align	1
 2367              		.syntax unified
 2368              		.thumb
 2369              		.thumb_func
 2371              	lv_menu_load_page_event_cb:
 2372              	.LVL297:
 2373              	.LFB193:
 660:Drivers/lvgl/src/extra/widgets/menu/lv_menu.c ****     lv_obj_t * obj = lv_event_get_target(e);
 2374              		.loc 1 660 1 is_stmt 1 view -0
 2375              		.cfi_startproc
ARM GAS  /var/folders/lp/x54gwt890xv47sdkqj1k04q40000gn/T//ccXBSBZL.s 			page 66


 2376              		@ args = 0, pretend = 0, frame = 0
 2377              		@ frame_needed = 0, uses_anonymous_args = 0
 660:Drivers/lvgl/src/extra/widgets/menu/lv_menu.c ****     lv_obj_t * obj = lv_event_get_target(e);
 2378              		.loc 1 660 1 is_stmt 0 view .LVU675
 2379 0000 70B5     		push	{r4, r5, r6, lr}
 2380              		.cfi_def_cfa_offset 16
 2381              		.cfi_offset 4, -16
 2382              		.cfi_offset 5, -12
 2383              		.cfi_offset 6, -8
 2384              		.cfi_offset 14, -4
 2385 0002 0446     		mov	r4, r0
 661:Drivers/lvgl/src/extra/widgets/menu/lv_menu.c ****     lv_menu_load_page_event_data_t * event_data = lv_event_get_user_data(e);
 2386              		.loc 1 661 5 is_stmt 1 view .LVU676
 661:Drivers/lvgl/src/extra/widgets/menu/lv_menu.c ****     lv_menu_load_page_event_data_t * event_data = lv_event_get_user_data(e);
 2387              		.loc 1 661 22 is_stmt 0 view .LVU677
 2388 0004 FFF7FEFF 		bl	lv_event_get_target
 2389              	.LVL298:
 661:Drivers/lvgl/src/extra/widgets/menu/lv_menu.c ****     lv_menu_load_page_event_data_t * event_data = lv_event_get_user_data(e);
 2390              		.loc 1 661 22 view .LVU678
 2391 0008 0546     		mov	r5, r0
 2392              	.LVL299:
 662:Drivers/lvgl/src/extra/widgets/menu/lv_menu.c ****     lv_menu_t * menu = (lv_menu_t *)(event_data->menu);
 2393              		.loc 1 662 5 is_stmt 1 view .LVU679
 662:Drivers/lvgl/src/extra/widgets/menu/lv_menu.c ****     lv_menu_t * menu = (lv_menu_t *)(event_data->menu);
 2394              		.loc 1 662 51 is_stmt 0 view .LVU680
 2395 000a 2046     		mov	r0, r4
 2396              	.LVL300:
 662:Drivers/lvgl/src/extra/widgets/menu/lv_menu.c ****     lv_menu_t * menu = (lv_menu_t *)(event_data->menu);
 2397              		.loc 1 662 51 view .LVU681
 2398 000c FFF7FEFF 		bl	lv_event_get_user_data
 2399              	.LVL301:
 663:Drivers/lvgl/src/extra/widgets/menu/lv_menu.c ****     lv_obj_t * page = event_data->page;
 2400              		.loc 1 663 5 is_stmt 1 view .LVU682
 663:Drivers/lvgl/src/extra/widgets/menu/lv_menu.c ****     lv_obj_t * page = event_data->page;
 2401              		.loc 1 663 17 is_stmt 0 view .LVU683
 2402 0010 0468     		ldr	r4, [r0]
 2403              	.LVL302:
 664:Drivers/lvgl/src/extra/widgets/menu/lv_menu.c **** 
 2404              		.loc 1 664 5 is_stmt 1 view .LVU684
 664:Drivers/lvgl/src/extra/widgets/menu/lv_menu.c **** 
 2405              		.loc 1 664 16 is_stmt 0 view .LVU685
 2406 0012 4668     		ldr	r6, [r0, #4]
 2407              	.LVL303:
 666:Drivers/lvgl/src/extra/widgets/menu/lv_menu.c ****         /* Check if clicked obj is in the sidebar */
 2408              		.loc 1 666 5 is_stmt 1 view .LVU686
 666:Drivers/lvgl/src/extra/widgets/menu/lv_menu.c ****         /* Check if clicked obj is in the sidebar */
 2409              		.loc 1 666 12 is_stmt 0 view .LVU687
 2410 0014 236C     		ldr	r3, [r4, #64]
 666:Drivers/lvgl/src/extra/widgets/menu/lv_menu.c ****         /* Check if clicked obj is in the sidebar */
 2411              		.loc 1 666 7 view .LVU688
 2412 0016 C3B1     		cbz	r3, .L132
 2413              	.LBB6:
 669:Drivers/lvgl/src/extra/widgets/menu/lv_menu.c **** 
 2414              		.loc 1 669 20 view .LVU689
 2415 0018 2846     		mov	r0, r5
 2416              	.LVL304:
 669:Drivers/lvgl/src/extra/widgets/menu/lv_menu.c **** 
ARM GAS  /var/folders/lp/x54gwt890xv47sdkqj1k04q40000gn/T//ccXBSBZL.s 			page 67


 2417              		.loc 1 669 20 view .LVU690
 2418 001a 01E0     		b	.L131
 2419              	.LVL305:
 2420              	.L142:
 677:Drivers/lvgl/src/extra/widgets/menu/lv_menu.c ****         }
 2421              		.loc 1 677 13 is_stmt 1 view .LVU691
 677:Drivers/lvgl/src/extra/widgets/menu/lv_menu.c ****         }
 2422              		.loc 1 677 22 is_stmt 0 view .LVU692
 2423 001c FFF7FEFF 		bl	lv_obj_get_parent
 2424              	.LVL306:
 2425              	.L131:
 671:Drivers/lvgl/src/extra/widgets/menu/lv_menu.c ****             if(parent == (lv_obj_t *)menu) break;
 2426              		.loc 1 671 15 is_stmt 1 view .LVU693
 2427 0020 30B1     		cbz	r0, .L141
 672:Drivers/lvgl/src/extra/widgets/menu/lv_menu.c ****             if(parent == menu->sidebar) {
 2428              		.loc 1 672 13 view .LVU694
 672:Drivers/lvgl/src/extra/widgets/menu/lv_menu.c ****             if(parent == menu->sidebar) {
 2429              		.loc 1 672 15 is_stmt 0 view .LVU695
 2430 0022 A042     		cmp	r0, r4
 2431 0024 1BD0     		beq	.L138
 673:Drivers/lvgl/src/extra/widgets/menu/lv_menu.c ****                 sidebar = true;
 2432              		.loc 1 673 13 is_stmt 1 view .LVU696
 673:Drivers/lvgl/src/extra/widgets/menu/lv_menu.c ****                 sidebar = true;
 2433              		.loc 1 673 30 is_stmt 0 view .LVU697
 2434 0026 E36B     		ldr	r3, [r4, #60]
 673:Drivers/lvgl/src/extra/widgets/menu/lv_menu.c ****                 sidebar = true;
 2435              		.loc 1 673 15 view .LVU698
 2436 0028 8342     		cmp	r3, r0
 2437 002a F7D1     		bne	.L142
 674:Drivers/lvgl/src/extra/widgets/menu/lv_menu.c ****                 break;
 2438              		.loc 1 674 25 view .LVU699
 2439 002c 0123     		movs	r3, #1
 2440 002e 00E0     		b	.L133
 2441              	.L141:
 668:Drivers/lvgl/src/extra/widgets/menu/lv_menu.c ****         lv_obj_t * parent = obj;
 2442              		.loc 1 668 14 view .LVU700
 2443 0030 0023     		movs	r3, #0
 2444              	.L133:
 2445              	.LVL307:
 680:Drivers/lvgl/src/extra/widgets/menu/lv_menu.c ****             /* Clear checked state of previous obj */
 2446              		.loc 1 680 9 is_stmt 1 view .LVU701
 680:Drivers/lvgl/src/extra/widgets/menu/lv_menu.c ****             /* Clear checked state of previous obj */
 2447              		.loc 1 680 11 is_stmt 0 view .LVU702
 2448 0032 53B1     		cbz	r3, .L132
 682:Drivers/lvgl/src/extra/widgets/menu/lv_menu.c ****                 lv_obj_clear_state(menu->selected_tab, LV_STATE_CHECKED);
 2449              		.loc 1 682 13 is_stmt 1 view .LVU703
 682:Drivers/lvgl/src/extra/widgets/menu/lv_menu.c ****                 lv_obj_clear_state(menu->selected_tab, LV_STATE_CHECKED);
 2450              		.loc 1 682 20 is_stmt 0 view .LVU704
 2451 0034 206D     		ldr	r0, [r4, #80]
 2452              	.LVL308:
 682:Drivers/lvgl/src/extra/widgets/menu/lv_menu.c ****                 lv_obj_clear_state(menu->selected_tab, LV_STATE_CHECKED);
 2453              		.loc 1 682 15 view .LVU705
 2454 0036 A842     		cmp	r0, r5
 2455 0038 03D0     		beq	.L135
 682:Drivers/lvgl/src/extra/widgets/menu/lv_menu.c ****                 lv_obj_clear_state(menu->selected_tab, LV_STATE_CHECKED);
 2456              		.loc 1 682 42 discriminator 1 view .LVU706
 2457 003a 10B1     		cbz	r0, .L135
ARM GAS  /var/folders/lp/x54gwt890xv47sdkqj1k04q40000gn/T//ccXBSBZL.s 			page 68


 683:Drivers/lvgl/src/extra/widgets/menu/lv_menu.c ****             }
 2458              		.loc 1 683 17 is_stmt 1 view .LVU707
 2459 003c 0121     		movs	r1, #1
 2460 003e FFF7FEFF 		bl	lv_obj_clear_state
 2461              	.LVL309:
 2462              	.L135:
 686:Drivers/lvgl/src/extra/widgets/menu/lv_menu.c **** 
 2463              		.loc 1 686 13 view .LVU708
 2464 0042 2046     		mov	r0, r4
 2465 0044 FFF7FEFF 		bl	lv_menu_clear_history
 2466              	.LVL310:
 688:Drivers/lvgl/src/extra/widgets/menu/lv_menu.c ****         }
 2467              		.loc 1 688 13 view .LVU709
 688:Drivers/lvgl/src/extra/widgets/menu/lv_menu.c ****         }
 2468              		.loc 1 688 32 is_stmt 0 view .LVU710
 2469 0048 2565     		str	r5, [r4, #80]
 2470              	.LVL311:
 2471              	.L132:
 688:Drivers/lvgl/src/extra/widgets/menu/lv_menu.c ****         }
 2472              		.loc 1 688 32 view .LVU711
 2473              	.LBE6:
 692:Drivers/lvgl/src/extra/widgets/menu/lv_menu.c **** 
 2474              		.loc 1 692 5 is_stmt 1 view .LVU712
 2475 004a 3146     		mov	r1, r6
 2476 004c 2046     		mov	r0, r4
 2477 004e FFF7FEFF 		bl	lv_menu_set_page
 2478              	.LVL312:
 694:Drivers/lvgl/src/extra/widgets/menu/lv_menu.c ****         /* Sidebar is not supported for now*/
 2479              		.loc 1 694 5 view .LVU713
 694:Drivers/lvgl/src/extra/widgets/menu/lv_menu.c ****         /* Sidebar is not supported for now*/
 2480              		.loc 1 694 8 is_stmt 0 view .LVU714
 2481 0052 FFF7FEFF 		bl	lv_group_get_default
 2482              	.LVL313:
 694:Drivers/lvgl/src/extra/widgets/menu/lv_menu.c ****         /* Sidebar is not supported for now*/
 2483              		.loc 1 694 7 discriminator 1 view .LVU715
 2484 0056 08B1     		cbz	r0, .L130
 694:Drivers/lvgl/src/extra/widgets/menu/lv_menu.c ****         /* Sidebar is not supported for now*/
 2485              		.loc 1 694 46 discriminator 1 view .LVU716
 2486 0058 236C     		ldr	r3, [r4, #64]
 694:Drivers/lvgl/src/extra/widgets/menu/lv_menu.c ****         /* Sidebar is not supported for now*/
 2487              		.loc 1 694 39 discriminator 1 view .LVU717
 2488 005a 13B1     		cbz	r3, .L143
 2489              	.L130:
 698:Drivers/lvgl/src/extra/widgets/menu/lv_menu.c **** 
 2490              		.loc 1 698 1 view .LVU718
 2491 005c 70BD     		pop	{r4, r5, r6, pc}
 2492              	.LVL314:
 2493              	.L138:
 2494              	.LBB7:
 668:Drivers/lvgl/src/extra/widgets/menu/lv_menu.c ****         lv_obj_t * parent = obj;
 2495              		.loc 1 668 14 view .LVU719
 2496 005e 0023     		movs	r3, #0
 2497 0060 E7E7     		b	.L133
 2498              	.LVL315:
 2499              	.L143:
 668:Drivers/lvgl/src/extra/widgets/menu/lv_menu.c ****         lv_obj_t * parent = obj;
 2500              		.loc 1 668 14 view .LVU720
ARM GAS  /var/folders/lp/x54gwt890xv47sdkqj1k04q40000gn/T//ccXBSBZL.s 			page 69


 2501              	.LBE7:
 696:Drivers/lvgl/src/extra/widgets/menu/lv_menu.c ****     }
 2502              		.loc 1 696 9 is_stmt 1 view .LVU721
 2503 0062 FFF7FEFF 		bl	lv_group_get_default
 2504              	.LVL316:
 696:Drivers/lvgl/src/extra/widgets/menu/lv_menu.c ****     }
 2505              		.loc 1 696 9 is_stmt 0 discriminator 1 view .LVU722
 2506 0066 FFF7FEFF 		bl	lv_group_focus_next
 2507              	.LVL317:
 698:Drivers/lvgl/src/extra/widgets/menu/lv_menu.c **** 
 2508              		.loc 1 698 1 view .LVU723
 2509 006a F7E7     		b	.L130
 2510              		.cfi_endproc
 2511              	.LFE193:
 2513              		.global	lv_menu_sidebar_header_cont_class
 2514              		.section	.rodata.lv_menu_sidebar_header_cont_class,"a"
 2515              		.align	2
 2518              	lv_menu_sidebar_header_cont_class:
 2519 0000 00000000 		.word	lv_obj_class
 2520 0004 00000000 		.space	24
 2520      00000000 
 2520      00000000 
 2520      00000000 
 2520      00000000 
 2521              		.global	lv_menu_main_header_cont_class
 2522              		.section	.rodata.lv_menu_main_header_cont_class,"a"
 2523              		.align	2
 2526              	lv_menu_main_header_cont_class:
 2527 0000 00000000 		.word	lv_obj_class
 2528 0004 00000000 		.space	24
 2528      00000000 
 2528      00000000 
 2528      00000000 
 2528      00000000 
 2529              		.global	lv_menu_main_cont_class
 2530              		.section	.rodata.lv_menu_main_cont_class,"a"
 2531              		.align	2
 2534              	lv_menu_main_cont_class:
 2535 0000 00000000 		.word	lv_obj_class
 2536 0004 00000000 		.space	24
 2536      00000000 
 2536      00000000 
 2536      00000000 
 2536      00000000 
 2537              		.global	lv_menu_sidebar_cont_class
 2538              		.section	.rodata.lv_menu_sidebar_cont_class,"a"
 2539              		.align	2
 2542              	lv_menu_sidebar_cont_class:
 2543 0000 00000000 		.word	lv_obj_class
 2544 0004 00000000 		.space	24
 2544      00000000 
 2544      00000000 
 2544      00000000 
 2544      00000000 
 2545              		.global	lv_menu_separator_class
 2546              		.section	.rodata.lv_menu_separator_class,"a"
 2547              		.align	2
ARM GAS  /var/folders/lp/x54gwt890xv47sdkqj1k04q40000gn/T//ccXBSBZL.s 			page 70


 2550              	lv_menu_separator_class:
 2551 0000 00000000 		.word	lv_obj_class
 2552 0004 00000000 		.space	16
 2552      00000000 
 2552      00000000 
 2552      00000000 
 2553 0014 D127     		.short	10193
 2554 0016 D127     		.short	10193
 2555 0018 00000000 		.space	4
 2556              		.global	lv_menu_section_class
 2557              		.section	.rodata.lv_menu_section_class,"a"
 2558              		.align	2
 2561              	lv_menu_section_class:
 2562 0000 00000000 		.word	lv_obj_class
 2563 0004 00000000 		.word	lv_menu_section_constructor
 2564 0008 00000000 		.space	12
 2564      00000000 
 2564      00000000 
 2565 0014 6420     		.short	8292
 2566 0016 D127     		.short	10193
 2567 0018 00000000 		.space	4
 2568              		.global	lv_menu_cont_class
 2569              		.section	.rodata.lv_menu_cont_class,"a"
 2570              		.align	2
 2573              	lv_menu_cont_class:
 2574 0000 00000000 		.word	lv_obj_class
 2575 0004 00000000 		.word	lv_menu_cont_constructor
 2576 0008 00000000 		.space	12
 2576      00000000 
 2576      00000000 
 2577 0014 6420     		.short	8292
 2578 0016 D127     		.short	10193
 2579 0018 00000000 		.space	4
 2580              		.global	lv_menu_page_class
 2581              		.section	.rodata.lv_menu_page_class,"a"
 2582              		.align	2
 2585              	lv_menu_page_class:
 2586 0000 00000000 		.word	lv_obj_class
 2587 0004 00000000 		.word	lv_menu_page_constructor
 2588 0008 00000000 		.word	lv_menu_page_destructor
 2589 000c 00000000 		.space	8
 2589      00000000 
 2590 0014 6420     		.short	8292
 2591 0016 D127     		.short	10193
 2592 0018 80       		.byte	128
 2593 0019 02       		.byte	2
 2594 001a 00       		.byte	0
 2595 001b 00       		.space	1
 2596              		.global	lv_menu_class
 2597              		.section	.rodata.lv_menu_class,"a"
 2598              		.align	2
 2601              	lv_menu_class:
 2602 0000 00000000 		.word	lv_obj_class
 2603 0004 00000000 		.word	lv_menu_constructor
 2604 0008 00000000 		.word	lv_menu_destructor
 2605 000c 00000000 		.space	8
 2605      00000000 
ARM GAS  /var/folders/lp/x54gwt890xv47sdkqj1k04q40000gn/T//ccXBSBZL.s 			page 71


 2606 0014 C300     		.short	195
 2607 0016 0401     		.short	260
 2608 0018 40       		.byte	64
 2609 0019 06       		.byte	6
 2610 001a 00       		.byte	0
 2611 001b 00       		.space	1
 2612              		.text
 2613              	.Letext0:
 2614              		.file 2 "/Users/jr/Library/Application Support/Code/User/globalStorage/bmd.stm32-for-vscode/@xpack
 2615              		.file 3 "/Users/jr/Library/Application Support/Code/User/globalStorage/bmd.stm32-for-vscode/@xpack
 2616              		.file 4 "/Users/jr/Library/Application Support/Code/User/globalStorage/bmd.stm32-for-vscode/@xpack
 2617              		.file 5 "Drivers/lvgl/src/extra/widgets/menu/../../../core/../misc/../font/../misc/lv_area.h"
 2618              		.file 6 "Drivers/lvgl/src/extra/widgets/menu/../../../core/../misc/lv_types.h"
 2619              		.file 7 "Drivers/lvgl/src/extra/widgets/menu/../../../core/../misc/lv_color.h"
 2620              		.file 8 "Drivers/lvgl/src/extra/widgets/menu/../../../core/../misc/lv_style.h"
 2621              		.file 9 "Drivers/lvgl/src/extra/widgets/menu/../../../core/lv_obj.h"
 2622              		.file 10 "Drivers/lvgl/src/extra/widgets/menu/../../../core/../hal/../misc/lv_ll.h"
 2623              		.file 11 "Drivers/lvgl/src/extra/widgets/menu/../../../core/lv_group.h"
 2624              		.file 12 "Drivers/lvgl/src/extra/widgets/menu/../../../core/lv_obj_scroll.h"
 2625              		.file 13 "Drivers/lvgl/src/extra/widgets/menu/../../../core/lv_obj_style.h"
 2626              		.file 14 "Drivers/lvgl/src/extra/widgets/menu/../../../core/lv_obj_class.h"
 2627              		.file 15 "Drivers/lvgl/src/extra/widgets/menu/../../../core/lv_event.h"
 2628              		.file 16 "Drivers/lvgl/src/extra/widgets/menu/lv_menu.h"
 2629              		.file 17 "Drivers/lvgl/src/extra/widgets/menu/../../layouts/flex/lv_flex.h"
 2630              		.file 18 "Drivers/lvgl/src/extra/widgets/menu/../../../core/lv_obj_tree.h"
 2631              		.file 19 "Drivers/lvgl/src/extra/widgets/menu/../../../core/../hal/../draw/sw/../../core/lv_obj_po
 2632              		.file 20 "/Users/jr/Library/Application Support/Code/User/globalStorage/bmd.stm32-for-vscode/@xpac
 2633              		.file 21 "Drivers/lvgl/src/extra/widgets/menu/../../../core/../misc/lv_mem.h"
 2634              		.file 22 "Drivers/lvgl/src/extra/widgets/menu/../../../widgets/lv_label.h"
 2635              		.file 23 "Drivers/lvgl/src/extra/widgets/menu/../../../widgets/lv_img.h"
 2636              		.file 24 "Drivers/lvgl/src/extra/widgets/menu/../../../widgets/lv_btn.h"
ARM GAS  /var/folders/lp/x54gwt890xv47sdkqj1k04q40000gn/T//ccXBSBZL.s 			page 72

