ARM GAS  /var/folders/lp/x54gwt890xv47sdkqj1k04q40000gn/T//ccCdbJgg.s 			page 1


   1              		.cpu cortex-m4
   2              		.arch armv7e-m
   3              		.fpu fpv4-sp-d16
   4              		.eabi_attribute 27, 1
   5              		.eabi_attribute 28, 1
   6              		.eabi_attribute 20, 1
   7              		.eabi_attribute 21, 1
   8              		.eabi_attribute 23, 3
   9              		.eabi_attribute 24, 1
  10              		.eabi_attribute 25, 1
  11              		.eabi_attribute 26, 1
  12              		.eabi_attribute 30, 1
  13              		.eabi_attribute 34, 1
  14              		.eabi_attribute 18, 4
  15              		.file	"lv_obj_scroll.c"
  16              		.text
  17              	.Ltext0:
  18              		.cfi_sections	.debug_frame
  19              		.file 1 "Drivers/lvgl/src/core/lv_obj_scroll.c"
  20              		.section	.text.scroll_anim_ready_cb,"ax",%progbits
  21              		.align	1
  22              		.syntax unified
  23              		.thumb
  24              		.thumb_func
  26              	scroll_anim_ready_cb:
  27              	.LVL0:
  28              	.LFB197:
   1:Drivers/lvgl/src/core/lv_obj_scroll.c **** /**
   2:Drivers/lvgl/src/core/lv_obj_scroll.c ****  * @file lv_obj_scroll.c
   3:Drivers/lvgl/src/core/lv_obj_scroll.c ****  *
   4:Drivers/lvgl/src/core/lv_obj_scroll.c ****  */
   5:Drivers/lvgl/src/core/lv_obj_scroll.c **** 
   6:Drivers/lvgl/src/core/lv_obj_scroll.c **** /*********************
   7:Drivers/lvgl/src/core/lv_obj_scroll.c ****  *      INCLUDES
   8:Drivers/lvgl/src/core/lv_obj_scroll.c ****  *********************/
   9:Drivers/lvgl/src/core/lv_obj_scroll.c **** #include "lv_obj_scroll.h"
  10:Drivers/lvgl/src/core/lv_obj_scroll.c **** #include "lv_obj.h"
  11:Drivers/lvgl/src/core/lv_obj_scroll.c **** #include "lv_indev.h"
  12:Drivers/lvgl/src/core/lv_obj_scroll.c **** #include "lv_disp.h"
  13:Drivers/lvgl/src/core/lv_obj_scroll.c **** #include "lv_indev_scroll.h"
  14:Drivers/lvgl/src/core/lv_obj_scroll.c **** 
  15:Drivers/lvgl/src/core/lv_obj_scroll.c **** /*********************
  16:Drivers/lvgl/src/core/lv_obj_scroll.c ****  *      DEFINES
  17:Drivers/lvgl/src/core/lv_obj_scroll.c ****  *********************/
  18:Drivers/lvgl/src/core/lv_obj_scroll.c **** #define MY_CLASS &lv_obj_class
  19:Drivers/lvgl/src/core/lv_obj_scroll.c **** #define SCROLL_ANIM_TIME_MIN    200    /*ms*/
  20:Drivers/lvgl/src/core/lv_obj_scroll.c **** #define SCROLL_ANIM_TIME_MAX    400    /*ms*/
  21:Drivers/lvgl/src/core/lv_obj_scroll.c **** #define SCROLLBAR_MIN_SIZE      (LV_DPX(10))
  22:Drivers/lvgl/src/core/lv_obj_scroll.c **** 
  23:Drivers/lvgl/src/core/lv_obj_scroll.c **** /**********************
  24:Drivers/lvgl/src/core/lv_obj_scroll.c ****  *      TYPEDEFS
  25:Drivers/lvgl/src/core/lv_obj_scroll.c ****  **********************/
  26:Drivers/lvgl/src/core/lv_obj_scroll.c **** 
  27:Drivers/lvgl/src/core/lv_obj_scroll.c **** /**********************
  28:Drivers/lvgl/src/core/lv_obj_scroll.c ****  *  GLOBAL PROTOTYPES
  29:Drivers/lvgl/src/core/lv_obj_scroll.c ****  **********************/
  30:Drivers/lvgl/src/core/lv_obj_scroll.c **** 
ARM GAS  /var/folders/lp/x54gwt890xv47sdkqj1k04q40000gn/T//ccCdbJgg.s 			page 2


  31:Drivers/lvgl/src/core/lv_obj_scroll.c **** /**********************
  32:Drivers/lvgl/src/core/lv_obj_scroll.c ****  *  STATIC PROTOTYPES
  33:Drivers/lvgl/src/core/lv_obj_scroll.c ****  **********************/
  34:Drivers/lvgl/src/core/lv_obj_scroll.c **** static void scroll_x_anim(void * obj, int32_t v);
  35:Drivers/lvgl/src/core/lv_obj_scroll.c **** static void scroll_y_anim(void * obj, int32_t v);
  36:Drivers/lvgl/src/core/lv_obj_scroll.c **** static void scroll_anim_ready_cb(lv_anim_t * a);
  37:Drivers/lvgl/src/core/lv_obj_scroll.c **** static void scroll_area_into_view(const lv_area_t * area, lv_obj_t * child, lv_point_t * scroll_val
  38:Drivers/lvgl/src/core/lv_obj_scroll.c ****                                   lv_anim_enable_t anim_en);
  39:Drivers/lvgl/src/core/lv_obj_scroll.c **** 
  40:Drivers/lvgl/src/core/lv_obj_scroll.c **** /**********************
  41:Drivers/lvgl/src/core/lv_obj_scroll.c ****  *  STATIC VARIABLES
  42:Drivers/lvgl/src/core/lv_obj_scroll.c ****  **********************/
  43:Drivers/lvgl/src/core/lv_obj_scroll.c **** 
  44:Drivers/lvgl/src/core/lv_obj_scroll.c **** /**********************
  45:Drivers/lvgl/src/core/lv_obj_scroll.c ****  *      MACROS
  46:Drivers/lvgl/src/core/lv_obj_scroll.c ****  **********************/
  47:Drivers/lvgl/src/core/lv_obj_scroll.c **** 
  48:Drivers/lvgl/src/core/lv_obj_scroll.c **** /**********************
  49:Drivers/lvgl/src/core/lv_obj_scroll.c ****  *   GLOBAL FUNCTIONS
  50:Drivers/lvgl/src/core/lv_obj_scroll.c ****  **********************/
  51:Drivers/lvgl/src/core/lv_obj_scroll.c **** 
  52:Drivers/lvgl/src/core/lv_obj_scroll.c **** /*=====================
  53:Drivers/lvgl/src/core/lv_obj_scroll.c ****  * Setter functions
  54:Drivers/lvgl/src/core/lv_obj_scroll.c ****  *====================*/
  55:Drivers/lvgl/src/core/lv_obj_scroll.c **** 
  56:Drivers/lvgl/src/core/lv_obj_scroll.c **** void lv_obj_set_scrollbar_mode(lv_obj_t * obj, lv_scrollbar_mode_t mode)
  57:Drivers/lvgl/src/core/lv_obj_scroll.c **** {
  58:Drivers/lvgl/src/core/lv_obj_scroll.c ****     LV_ASSERT_OBJ(obj, MY_CLASS);
  59:Drivers/lvgl/src/core/lv_obj_scroll.c **** 
  60:Drivers/lvgl/src/core/lv_obj_scroll.c ****     lv_obj_allocate_spec_attr(obj);
  61:Drivers/lvgl/src/core/lv_obj_scroll.c **** 
  62:Drivers/lvgl/src/core/lv_obj_scroll.c ****     if(obj->spec_attr->scrollbar_mode == mode) return;
  63:Drivers/lvgl/src/core/lv_obj_scroll.c ****     obj->spec_attr->scrollbar_mode = mode;
  64:Drivers/lvgl/src/core/lv_obj_scroll.c ****     lv_obj_invalidate(obj);
  65:Drivers/lvgl/src/core/lv_obj_scroll.c **** }
  66:Drivers/lvgl/src/core/lv_obj_scroll.c **** 
  67:Drivers/lvgl/src/core/lv_obj_scroll.c **** void lv_obj_set_scroll_dir(lv_obj_t * obj, lv_dir_t dir)
  68:Drivers/lvgl/src/core/lv_obj_scroll.c **** {
  69:Drivers/lvgl/src/core/lv_obj_scroll.c ****     lv_obj_allocate_spec_attr(obj);
  70:Drivers/lvgl/src/core/lv_obj_scroll.c **** 
  71:Drivers/lvgl/src/core/lv_obj_scroll.c ****     if(dir != obj->spec_attr->scroll_dir) {
  72:Drivers/lvgl/src/core/lv_obj_scroll.c ****         obj->spec_attr->scroll_dir = dir;
  73:Drivers/lvgl/src/core/lv_obj_scroll.c ****     }
  74:Drivers/lvgl/src/core/lv_obj_scroll.c **** }
  75:Drivers/lvgl/src/core/lv_obj_scroll.c **** 
  76:Drivers/lvgl/src/core/lv_obj_scroll.c **** void lv_obj_set_scroll_snap_x(lv_obj_t * obj, lv_scroll_snap_t align)
  77:Drivers/lvgl/src/core/lv_obj_scroll.c **** {
  78:Drivers/lvgl/src/core/lv_obj_scroll.c ****     lv_obj_allocate_spec_attr(obj);
  79:Drivers/lvgl/src/core/lv_obj_scroll.c ****     obj->spec_attr->scroll_snap_x = align;
  80:Drivers/lvgl/src/core/lv_obj_scroll.c **** }
  81:Drivers/lvgl/src/core/lv_obj_scroll.c **** 
  82:Drivers/lvgl/src/core/lv_obj_scroll.c **** void lv_obj_set_scroll_snap_y(lv_obj_t * obj, lv_scroll_snap_t align)
  83:Drivers/lvgl/src/core/lv_obj_scroll.c **** {
  84:Drivers/lvgl/src/core/lv_obj_scroll.c ****     lv_obj_allocate_spec_attr(obj);
  85:Drivers/lvgl/src/core/lv_obj_scroll.c ****     obj->spec_attr->scroll_snap_y = align;
  86:Drivers/lvgl/src/core/lv_obj_scroll.c **** }
  87:Drivers/lvgl/src/core/lv_obj_scroll.c **** 
ARM GAS  /var/folders/lp/x54gwt890xv47sdkqj1k04q40000gn/T//ccCdbJgg.s 			page 3


  88:Drivers/lvgl/src/core/lv_obj_scroll.c **** /*=====================
  89:Drivers/lvgl/src/core/lv_obj_scroll.c ****  * Getter functions
  90:Drivers/lvgl/src/core/lv_obj_scroll.c ****  *====================*/
  91:Drivers/lvgl/src/core/lv_obj_scroll.c **** 
  92:Drivers/lvgl/src/core/lv_obj_scroll.c **** lv_scrollbar_mode_t lv_obj_get_scrollbar_mode(const lv_obj_t * obj)
  93:Drivers/lvgl/src/core/lv_obj_scroll.c **** {
  94:Drivers/lvgl/src/core/lv_obj_scroll.c ****     if(obj->spec_attr) return obj->spec_attr->scrollbar_mode;
  95:Drivers/lvgl/src/core/lv_obj_scroll.c ****     else return LV_SCROLLBAR_MODE_AUTO;
  96:Drivers/lvgl/src/core/lv_obj_scroll.c **** }
  97:Drivers/lvgl/src/core/lv_obj_scroll.c **** 
  98:Drivers/lvgl/src/core/lv_obj_scroll.c **** lv_dir_t lv_obj_get_scroll_dir(const lv_obj_t * obj)
  99:Drivers/lvgl/src/core/lv_obj_scroll.c **** {
 100:Drivers/lvgl/src/core/lv_obj_scroll.c ****     if(obj->spec_attr) return obj->spec_attr->scroll_dir;
 101:Drivers/lvgl/src/core/lv_obj_scroll.c ****     else return LV_DIR_ALL;
 102:Drivers/lvgl/src/core/lv_obj_scroll.c **** }
 103:Drivers/lvgl/src/core/lv_obj_scroll.c **** 
 104:Drivers/lvgl/src/core/lv_obj_scroll.c **** lv_scroll_snap_t lv_obj_get_scroll_snap_x(const lv_obj_t * obj)
 105:Drivers/lvgl/src/core/lv_obj_scroll.c **** {
 106:Drivers/lvgl/src/core/lv_obj_scroll.c ****     if(obj->spec_attr) return obj->spec_attr->scroll_snap_x;
 107:Drivers/lvgl/src/core/lv_obj_scroll.c ****     else return LV_SCROLL_SNAP_NONE;
 108:Drivers/lvgl/src/core/lv_obj_scroll.c **** }
 109:Drivers/lvgl/src/core/lv_obj_scroll.c **** 
 110:Drivers/lvgl/src/core/lv_obj_scroll.c **** lv_scroll_snap_t lv_obj_get_scroll_snap_y(const lv_obj_t * obj)
 111:Drivers/lvgl/src/core/lv_obj_scroll.c **** {
 112:Drivers/lvgl/src/core/lv_obj_scroll.c ****     if(obj->spec_attr) return obj->spec_attr->scroll_snap_y;
 113:Drivers/lvgl/src/core/lv_obj_scroll.c ****     else return LV_SCROLL_SNAP_NONE;
 114:Drivers/lvgl/src/core/lv_obj_scroll.c **** }
 115:Drivers/lvgl/src/core/lv_obj_scroll.c **** 
 116:Drivers/lvgl/src/core/lv_obj_scroll.c **** lv_coord_t lv_obj_get_scroll_x(const lv_obj_t * obj)
 117:Drivers/lvgl/src/core/lv_obj_scroll.c **** {
 118:Drivers/lvgl/src/core/lv_obj_scroll.c ****     if(obj->spec_attr == NULL) return 0;
 119:Drivers/lvgl/src/core/lv_obj_scroll.c ****     return -obj->spec_attr->scroll.x;
 120:Drivers/lvgl/src/core/lv_obj_scroll.c **** }
 121:Drivers/lvgl/src/core/lv_obj_scroll.c **** 
 122:Drivers/lvgl/src/core/lv_obj_scroll.c **** lv_coord_t lv_obj_get_scroll_y(const lv_obj_t * obj)
 123:Drivers/lvgl/src/core/lv_obj_scroll.c **** {
 124:Drivers/lvgl/src/core/lv_obj_scroll.c ****     if(obj->spec_attr == NULL) return 0;
 125:Drivers/lvgl/src/core/lv_obj_scroll.c ****     return -obj->spec_attr->scroll.y;
 126:Drivers/lvgl/src/core/lv_obj_scroll.c **** }
 127:Drivers/lvgl/src/core/lv_obj_scroll.c **** 
 128:Drivers/lvgl/src/core/lv_obj_scroll.c **** lv_coord_t lv_obj_get_scroll_top(lv_obj_t * obj)
 129:Drivers/lvgl/src/core/lv_obj_scroll.c **** {
 130:Drivers/lvgl/src/core/lv_obj_scroll.c ****     if(obj->spec_attr == NULL) return 0;
 131:Drivers/lvgl/src/core/lv_obj_scroll.c ****     return -obj->spec_attr->scroll.y;
 132:Drivers/lvgl/src/core/lv_obj_scroll.c **** }
 133:Drivers/lvgl/src/core/lv_obj_scroll.c **** 
 134:Drivers/lvgl/src/core/lv_obj_scroll.c **** lv_coord_t lv_obj_get_scroll_bottom(lv_obj_t * obj)
 135:Drivers/lvgl/src/core/lv_obj_scroll.c **** {
 136:Drivers/lvgl/src/core/lv_obj_scroll.c ****     LV_ASSERT_OBJ(obj, MY_CLASS);
 137:Drivers/lvgl/src/core/lv_obj_scroll.c **** 
 138:Drivers/lvgl/src/core/lv_obj_scroll.c ****     lv_coord_t child_res = LV_COORD_MIN;
 139:Drivers/lvgl/src/core/lv_obj_scroll.c ****     uint32_t i;
 140:Drivers/lvgl/src/core/lv_obj_scroll.c ****     uint32_t child_cnt = lv_obj_get_child_cnt(obj);
 141:Drivers/lvgl/src/core/lv_obj_scroll.c ****     for(i = 0; i < child_cnt; i++) {
 142:Drivers/lvgl/src/core/lv_obj_scroll.c ****         lv_obj_t * child = obj->spec_attr->children[i];
 143:Drivers/lvgl/src/core/lv_obj_scroll.c ****         if(lv_obj_has_flag_any(child,  LV_OBJ_FLAG_HIDDEN | LV_OBJ_FLAG_FLOATING)) continue;
 144:Drivers/lvgl/src/core/lv_obj_scroll.c ****         child_res = LV_MAX(child_res, child->coords.y2);
ARM GAS  /var/folders/lp/x54gwt890xv47sdkqj1k04q40000gn/T//ccCdbJgg.s 			page 4


 145:Drivers/lvgl/src/core/lv_obj_scroll.c ****     }
 146:Drivers/lvgl/src/core/lv_obj_scroll.c **** 
 147:Drivers/lvgl/src/core/lv_obj_scroll.c ****     lv_coord_t pad_top = lv_obj_get_style_pad_top(obj, LV_PART_MAIN);
 148:Drivers/lvgl/src/core/lv_obj_scroll.c ****     lv_coord_t pad_bottom = lv_obj_get_style_pad_bottom(obj, LV_PART_MAIN);
 149:Drivers/lvgl/src/core/lv_obj_scroll.c ****     lv_coord_t border_width = lv_obj_get_style_border_width(obj, LV_PART_MAIN);
 150:Drivers/lvgl/src/core/lv_obj_scroll.c **** 
 151:Drivers/lvgl/src/core/lv_obj_scroll.c ****     if(child_res != LV_COORD_MIN) {
 152:Drivers/lvgl/src/core/lv_obj_scroll.c ****         child_res -= (obj->coords.y2 - pad_bottom - border_width);
 153:Drivers/lvgl/src/core/lv_obj_scroll.c ****     }
 154:Drivers/lvgl/src/core/lv_obj_scroll.c **** 
 155:Drivers/lvgl/src/core/lv_obj_scroll.c ****     lv_coord_t self_h = lv_obj_get_self_height(obj);
 156:Drivers/lvgl/src/core/lv_obj_scroll.c ****     self_h = self_h - (lv_obj_get_height(obj) - pad_top - pad_bottom - 2 * border_width);
 157:Drivers/lvgl/src/core/lv_obj_scroll.c ****     self_h -= lv_obj_get_scroll_y(obj);
 158:Drivers/lvgl/src/core/lv_obj_scroll.c ****     return LV_MAX(child_res, self_h);
 159:Drivers/lvgl/src/core/lv_obj_scroll.c **** }
 160:Drivers/lvgl/src/core/lv_obj_scroll.c **** 
 161:Drivers/lvgl/src/core/lv_obj_scroll.c **** lv_coord_t lv_obj_get_scroll_left(lv_obj_t * obj)
 162:Drivers/lvgl/src/core/lv_obj_scroll.c **** {
 163:Drivers/lvgl/src/core/lv_obj_scroll.c ****     LV_ASSERT_OBJ(obj, MY_CLASS);
 164:Drivers/lvgl/src/core/lv_obj_scroll.c **** 
 165:Drivers/lvgl/src/core/lv_obj_scroll.c ****     /*Normally can't scroll the object out on the left.
 166:Drivers/lvgl/src/core/lv_obj_scroll.c ****      *So simply use the current scroll position as "left size"*/
 167:Drivers/lvgl/src/core/lv_obj_scroll.c ****     if(lv_obj_get_style_base_dir(obj, LV_PART_MAIN) != LV_BASE_DIR_RTL) {
 168:Drivers/lvgl/src/core/lv_obj_scroll.c ****         if(obj->spec_attr == NULL) return 0;
 169:Drivers/lvgl/src/core/lv_obj_scroll.c ****         return -obj->spec_attr->scroll.x;
 170:Drivers/lvgl/src/core/lv_obj_scroll.c ****     }
 171:Drivers/lvgl/src/core/lv_obj_scroll.c **** 
 172:Drivers/lvgl/src/core/lv_obj_scroll.c ****     /*With RTL base direction scrolling the left is normal so find the left most coordinate*/
 173:Drivers/lvgl/src/core/lv_obj_scroll.c ****     lv_coord_t pad_right = lv_obj_get_style_pad_right(obj, LV_PART_MAIN);
 174:Drivers/lvgl/src/core/lv_obj_scroll.c ****     lv_coord_t pad_left = lv_obj_get_style_pad_left(obj, LV_PART_MAIN);
 175:Drivers/lvgl/src/core/lv_obj_scroll.c ****     lv_coord_t border_width = lv_obj_get_style_border_width(obj, LV_PART_MAIN);
 176:Drivers/lvgl/src/core/lv_obj_scroll.c **** 
 177:Drivers/lvgl/src/core/lv_obj_scroll.c ****     lv_coord_t child_res = 0;
 178:Drivers/lvgl/src/core/lv_obj_scroll.c **** 
 179:Drivers/lvgl/src/core/lv_obj_scroll.c ****     uint32_t i;
 180:Drivers/lvgl/src/core/lv_obj_scroll.c ****     lv_coord_t x1 = LV_COORD_MAX;
 181:Drivers/lvgl/src/core/lv_obj_scroll.c ****     uint32_t child_cnt = lv_obj_get_child_cnt(obj);
 182:Drivers/lvgl/src/core/lv_obj_scroll.c ****     for(i = 0; i < child_cnt; i++) {
 183:Drivers/lvgl/src/core/lv_obj_scroll.c ****         lv_obj_t * child = obj->spec_attr->children[i];
 184:Drivers/lvgl/src/core/lv_obj_scroll.c ****         if(lv_obj_has_flag_any(child,  LV_OBJ_FLAG_HIDDEN | LV_OBJ_FLAG_FLOATING)) continue;
 185:Drivers/lvgl/src/core/lv_obj_scroll.c ****         x1 = LV_MIN(x1, child->coords.x1);
 186:Drivers/lvgl/src/core/lv_obj_scroll.c **** 
 187:Drivers/lvgl/src/core/lv_obj_scroll.c ****     }
 188:Drivers/lvgl/src/core/lv_obj_scroll.c **** 
 189:Drivers/lvgl/src/core/lv_obj_scroll.c ****     if(x1 != LV_COORD_MAX) {
 190:Drivers/lvgl/src/core/lv_obj_scroll.c ****         child_res = x1;
 191:Drivers/lvgl/src/core/lv_obj_scroll.c ****         child_res = (obj->coords.x1 + pad_left + border_width) - child_res;
 192:Drivers/lvgl/src/core/lv_obj_scroll.c ****     }
 193:Drivers/lvgl/src/core/lv_obj_scroll.c ****     else {
 194:Drivers/lvgl/src/core/lv_obj_scroll.c ****         child_res = LV_COORD_MIN;
 195:Drivers/lvgl/src/core/lv_obj_scroll.c ****     }
 196:Drivers/lvgl/src/core/lv_obj_scroll.c **** 
 197:Drivers/lvgl/src/core/lv_obj_scroll.c ****     lv_coord_t self_w = lv_obj_get_self_width(obj);
 198:Drivers/lvgl/src/core/lv_obj_scroll.c ****     self_w = self_w - (lv_obj_get_width(obj) - pad_right - pad_left - 2 * border_width);
 199:Drivers/lvgl/src/core/lv_obj_scroll.c ****     self_w += lv_obj_get_scroll_x(obj);
 200:Drivers/lvgl/src/core/lv_obj_scroll.c **** 
 201:Drivers/lvgl/src/core/lv_obj_scroll.c ****     return LV_MAX(child_res, self_w);
ARM GAS  /var/folders/lp/x54gwt890xv47sdkqj1k04q40000gn/T//ccCdbJgg.s 			page 5


 202:Drivers/lvgl/src/core/lv_obj_scroll.c **** }
 203:Drivers/lvgl/src/core/lv_obj_scroll.c **** 
 204:Drivers/lvgl/src/core/lv_obj_scroll.c **** lv_coord_t lv_obj_get_scroll_right(lv_obj_t * obj)
 205:Drivers/lvgl/src/core/lv_obj_scroll.c **** {
 206:Drivers/lvgl/src/core/lv_obj_scroll.c ****     LV_ASSERT_OBJ(obj, MY_CLASS);
 207:Drivers/lvgl/src/core/lv_obj_scroll.c **** 
 208:Drivers/lvgl/src/core/lv_obj_scroll.c ****     /*With RTL base dir can't scroll to the object out on the right.
 209:Drivers/lvgl/src/core/lv_obj_scroll.c ****      *So simply use the current scroll position as "right size"*/
 210:Drivers/lvgl/src/core/lv_obj_scroll.c ****     if(lv_obj_get_style_base_dir(obj, LV_PART_MAIN) == LV_BASE_DIR_RTL) {
 211:Drivers/lvgl/src/core/lv_obj_scroll.c ****         if(obj->spec_attr == NULL) return 0;
 212:Drivers/lvgl/src/core/lv_obj_scroll.c ****         return obj->spec_attr->scroll.x;
 213:Drivers/lvgl/src/core/lv_obj_scroll.c ****     }
 214:Drivers/lvgl/src/core/lv_obj_scroll.c **** 
 215:Drivers/lvgl/src/core/lv_obj_scroll.c ****     /*With other base direction (LTR) scrolling to the right is normal so find the right most coord
 216:Drivers/lvgl/src/core/lv_obj_scroll.c ****     lv_coord_t child_res = LV_COORD_MIN;
 217:Drivers/lvgl/src/core/lv_obj_scroll.c ****     uint32_t i;
 218:Drivers/lvgl/src/core/lv_obj_scroll.c ****     uint32_t child_cnt = lv_obj_get_child_cnt(obj);
 219:Drivers/lvgl/src/core/lv_obj_scroll.c ****     for(i = 0; i < child_cnt; i++) {
 220:Drivers/lvgl/src/core/lv_obj_scroll.c ****         lv_obj_t * child = obj->spec_attr->children[i];
 221:Drivers/lvgl/src/core/lv_obj_scroll.c ****         if(lv_obj_has_flag_any(child,  LV_OBJ_FLAG_HIDDEN | LV_OBJ_FLAG_FLOATING)) continue;
 222:Drivers/lvgl/src/core/lv_obj_scroll.c ****         child_res = LV_MAX(child_res, child->coords.x2);
 223:Drivers/lvgl/src/core/lv_obj_scroll.c ****     }
 224:Drivers/lvgl/src/core/lv_obj_scroll.c **** 
 225:Drivers/lvgl/src/core/lv_obj_scroll.c ****     lv_coord_t pad_right = lv_obj_get_style_pad_right(obj, LV_PART_MAIN);
 226:Drivers/lvgl/src/core/lv_obj_scroll.c ****     lv_coord_t pad_left = lv_obj_get_style_pad_left(obj, LV_PART_MAIN);
 227:Drivers/lvgl/src/core/lv_obj_scroll.c ****     lv_coord_t border_width = lv_obj_get_style_border_width(obj, LV_PART_MAIN);
 228:Drivers/lvgl/src/core/lv_obj_scroll.c **** 
 229:Drivers/lvgl/src/core/lv_obj_scroll.c ****     if(child_res != LV_COORD_MIN) {
 230:Drivers/lvgl/src/core/lv_obj_scroll.c ****         child_res -= (obj->coords.x2 - pad_right - border_width);
 231:Drivers/lvgl/src/core/lv_obj_scroll.c ****     }
 232:Drivers/lvgl/src/core/lv_obj_scroll.c **** 
 233:Drivers/lvgl/src/core/lv_obj_scroll.c ****     lv_coord_t self_w;
 234:Drivers/lvgl/src/core/lv_obj_scroll.c ****     self_w = lv_obj_get_self_width(obj);
 235:Drivers/lvgl/src/core/lv_obj_scroll.c ****     self_w = self_w - (lv_obj_get_width(obj) - pad_right - pad_left - 2 * border_width);
 236:Drivers/lvgl/src/core/lv_obj_scroll.c ****     self_w -= lv_obj_get_scroll_x(obj);
 237:Drivers/lvgl/src/core/lv_obj_scroll.c ****     return LV_MAX(child_res, self_w);
 238:Drivers/lvgl/src/core/lv_obj_scroll.c **** }
 239:Drivers/lvgl/src/core/lv_obj_scroll.c **** 
 240:Drivers/lvgl/src/core/lv_obj_scroll.c **** void lv_obj_get_scroll_end(struct _lv_obj_t  * obj, lv_point_t * end)
 241:Drivers/lvgl/src/core/lv_obj_scroll.c **** {
 242:Drivers/lvgl/src/core/lv_obj_scroll.c ****     lv_anim_t * a;
 243:Drivers/lvgl/src/core/lv_obj_scroll.c ****     a = lv_anim_get(obj, scroll_x_anim);
 244:Drivers/lvgl/src/core/lv_obj_scroll.c ****     end->x = a ? -a->end_value : lv_obj_get_scroll_x(obj);
 245:Drivers/lvgl/src/core/lv_obj_scroll.c **** 
 246:Drivers/lvgl/src/core/lv_obj_scroll.c ****     a = lv_anim_get(obj, scroll_y_anim);
 247:Drivers/lvgl/src/core/lv_obj_scroll.c ****     end->y = a ? -a->end_value : lv_obj_get_scroll_y(obj);
 248:Drivers/lvgl/src/core/lv_obj_scroll.c **** }
 249:Drivers/lvgl/src/core/lv_obj_scroll.c **** 
 250:Drivers/lvgl/src/core/lv_obj_scroll.c **** /*=====================
 251:Drivers/lvgl/src/core/lv_obj_scroll.c ****  * Other functions
 252:Drivers/lvgl/src/core/lv_obj_scroll.c ****  *====================*/
 253:Drivers/lvgl/src/core/lv_obj_scroll.c **** 
 254:Drivers/lvgl/src/core/lv_obj_scroll.c **** void lv_obj_scroll_by_bounded(lv_obj_t * obj, lv_coord_t dx, lv_coord_t dy, lv_anim_enable_t anim_e
 255:Drivers/lvgl/src/core/lv_obj_scroll.c **** {
 256:Drivers/lvgl/src/core/lv_obj_scroll.c ****     if(dx == 0 && dy == 0) return;
 257:Drivers/lvgl/src/core/lv_obj_scroll.c **** 
 258:Drivers/lvgl/src/core/lv_obj_scroll.c ****     /*We need to know the final sizes for bound check*/
ARM GAS  /var/folders/lp/x54gwt890xv47sdkqj1k04q40000gn/T//ccCdbJgg.s 			page 6


 259:Drivers/lvgl/src/core/lv_obj_scroll.c ****     lv_obj_update_layout(obj);
 260:Drivers/lvgl/src/core/lv_obj_scroll.c **** 
 261:Drivers/lvgl/src/core/lv_obj_scroll.c ****     /*Don't let scroll more then naturally possible by the size of the content*/
 262:Drivers/lvgl/src/core/lv_obj_scroll.c ****     lv_coord_t x_current = -lv_obj_get_scroll_x(obj);
 263:Drivers/lvgl/src/core/lv_obj_scroll.c ****     lv_coord_t x_bounded = x_current + dx;
 264:Drivers/lvgl/src/core/lv_obj_scroll.c **** 
 265:Drivers/lvgl/src/core/lv_obj_scroll.c ****     if(lv_obj_get_style_base_dir(obj, LV_PART_MAIN) != LV_BASE_DIR_RTL) {
 266:Drivers/lvgl/src/core/lv_obj_scroll.c ****         if(x_bounded > 0) x_bounded = 0;
 267:Drivers/lvgl/src/core/lv_obj_scroll.c ****         if(x_bounded < 0) {
 268:Drivers/lvgl/src/core/lv_obj_scroll.c ****             lv_coord_t  scroll_max = lv_obj_get_scroll_left(obj) + lv_obj_get_scroll_right(obj);
 269:Drivers/lvgl/src/core/lv_obj_scroll.c ****             if(scroll_max < 0) scroll_max = 0;
 270:Drivers/lvgl/src/core/lv_obj_scroll.c **** 
 271:Drivers/lvgl/src/core/lv_obj_scroll.c ****             if(x_bounded < -scroll_max) x_bounded = -scroll_max;
 272:Drivers/lvgl/src/core/lv_obj_scroll.c ****         }
 273:Drivers/lvgl/src/core/lv_obj_scroll.c ****     }
 274:Drivers/lvgl/src/core/lv_obj_scroll.c ****     else {
 275:Drivers/lvgl/src/core/lv_obj_scroll.c ****         if(x_bounded < 0) x_bounded = 0;
 276:Drivers/lvgl/src/core/lv_obj_scroll.c ****         if(x_bounded > 0) {
 277:Drivers/lvgl/src/core/lv_obj_scroll.c ****             lv_coord_t  scroll_max = lv_obj_get_scroll_left(obj) + lv_obj_get_scroll_right(obj);
 278:Drivers/lvgl/src/core/lv_obj_scroll.c ****             if(scroll_max < 0) scroll_max = 0;
 279:Drivers/lvgl/src/core/lv_obj_scroll.c **** 
 280:Drivers/lvgl/src/core/lv_obj_scroll.c ****             if(x_bounded > scroll_max) x_bounded = scroll_max;
 281:Drivers/lvgl/src/core/lv_obj_scroll.c ****         }
 282:Drivers/lvgl/src/core/lv_obj_scroll.c ****     }
 283:Drivers/lvgl/src/core/lv_obj_scroll.c **** 
 284:Drivers/lvgl/src/core/lv_obj_scroll.c ****     /*Don't let scroll more then naturally possible by the size of the content*/
 285:Drivers/lvgl/src/core/lv_obj_scroll.c ****     lv_coord_t y_current = -lv_obj_get_scroll_y(obj);
 286:Drivers/lvgl/src/core/lv_obj_scroll.c ****     lv_coord_t y_bounded = y_current + dy;
 287:Drivers/lvgl/src/core/lv_obj_scroll.c **** 
 288:Drivers/lvgl/src/core/lv_obj_scroll.c ****     if(y_bounded > 0) y_bounded = 0;
 289:Drivers/lvgl/src/core/lv_obj_scroll.c ****     if(y_bounded < 0) {
 290:Drivers/lvgl/src/core/lv_obj_scroll.c ****         lv_coord_t  scroll_max = lv_obj_get_scroll_top(obj) + lv_obj_get_scroll_bottom(obj);
 291:Drivers/lvgl/src/core/lv_obj_scroll.c ****         if(scroll_max < 0) scroll_max = 0;
 292:Drivers/lvgl/src/core/lv_obj_scroll.c ****         if(y_bounded < -scroll_max) y_bounded = -scroll_max;
 293:Drivers/lvgl/src/core/lv_obj_scroll.c ****     }
 294:Drivers/lvgl/src/core/lv_obj_scroll.c **** 
 295:Drivers/lvgl/src/core/lv_obj_scroll.c ****     dx = x_bounded - x_current;
 296:Drivers/lvgl/src/core/lv_obj_scroll.c ****     dy = y_bounded - y_current;
 297:Drivers/lvgl/src/core/lv_obj_scroll.c ****     if(dx || dy) {
 298:Drivers/lvgl/src/core/lv_obj_scroll.c ****         lv_obj_scroll_by(obj, dx, dy, anim_en);
 299:Drivers/lvgl/src/core/lv_obj_scroll.c ****     }
 300:Drivers/lvgl/src/core/lv_obj_scroll.c **** }
 301:Drivers/lvgl/src/core/lv_obj_scroll.c **** 
 302:Drivers/lvgl/src/core/lv_obj_scroll.c **** 
 303:Drivers/lvgl/src/core/lv_obj_scroll.c **** void lv_obj_scroll_by(lv_obj_t * obj, lv_coord_t dx, lv_coord_t dy, lv_anim_enable_t anim_en)
 304:Drivers/lvgl/src/core/lv_obj_scroll.c **** {
 305:Drivers/lvgl/src/core/lv_obj_scroll.c ****     if(dx == 0 && dy == 0) return;
 306:Drivers/lvgl/src/core/lv_obj_scroll.c ****     if(anim_en == LV_ANIM_ON) {
 307:Drivers/lvgl/src/core/lv_obj_scroll.c ****         lv_disp_t * d = lv_obj_get_disp(obj);
 308:Drivers/lvgl/src/core/lv_obj_scroll.c ****         lv_anim_t a;
 309:Drivers/lvgl/src/core/lv_obj_scroll.c ****         lv_anim_init(&a);
 310:Drivers/lvgl/src/core/lv_obj_scroll.c ****         lv_anim_set_var(&a, obj);
 311:Drivers/lvgl/src/core/lv_obj_scroll.c ****         lv_anim_set_ready_cb(&a, scroll_anim_ready_cb);
 312:Drivers/lvgl/src/core/lv_obj_scroll.c **** 
 313:Drivers/lvgl/src/core/lv_obj_scroll.c ****         if(dx) {
 314:Drivers/lvgl/src/core/lv_obj_scroll.c ****             uint32_t t = lv_anim_speed_to_time((lv_disp_get_hor_res(d) * 2) >> 2, 0, dx);
 315:Drivers/lvgl/src/core/lv_obj_scroll.c ****             if(t < SCROLL_ANIM_TIME_MIN) t = SCROLL_ANIM_TIME_MIN;
ARM GAS  /var/folders/lp/x54gwt890xv47sdkqj1k04q40000gn/T//ccCdbJgg.s 			page 7


 316:Drivers/lvgl/src/core/lv_obj_scroll.c ****             if(t > SCROLL_ANIM_TIME_MAX) t = SCROLL_ANIM_TIME_MAX;
 317:Drivers/lvgl/src/core/lv_obj_scroll.c ****             lv_anim_set_time(&a, t);
 318:Drivers/lvgl/src/core/lv_obj_scroll.c ****             lv_coord_t sx = lv_obj_get_scroll_x(obj);
 319:Drivers/lvgl/src/core/lv_obj_scroll.c ****             lv_anim_set_values(&a, -sx, -sx + dx);
 320:Drivers/lvgl/src/core/lv_obj_scroll.c ****             lv_anim_set_exec_cb(&a, scroll_x_anim);
 321:Drivers/lvgl/src/core/lv_obj_scroll.c ****             lv_anim_set_path_cb(&a, lv_anim_path_ease_out);
 322:Drivers/lvgl/src/core/lv_obj_scroll.c **** 
 323:Drivers/lvgl/src/core/lv_obj_scroll.c ****             lv_res_t res;
 324:Drivers/lvgl/src/core/lv_obj_scroll.c ****             res = lv_event_send(obj, LV_EVENT_SCROLL_BEGIN, &a);
 325:Drivers/lvgl/src/core/lv_obj_scroll.c ****             if(res != LV_RES_OK) return;
 326:Drivers/lvgl/src/core/lv_obj_scroll.c ****             lv_anim_start(&a);
 327:Drivers/lvgl/src/core/lv_obj_scroll.c ****         }
 328:Drivers/lvgl/src/core/lv_obj_scroll.c **** 
 329:Drivers/lvgl/src/core/lv_obj_scroll.c ****         if(dy) {
 330:Drivers/lvgl/src/core/lv_obj_scroll.c ****             uint32_t t = lv_anim_speed_to_time((lv_disp_get_ver_res(d) * 2) >> 2, 0, dy);
 331:Drivers/lvgl/src/core/lv_obj_scroll.c ****             if(t < SCROLL_ANIM_TIME_MIN) t = SCROLL_ANIM_TIME_MIN;
 332:Drivers/lvgl/src/core/lv_obj_scroll.c ****             if(t > SCROLL_ANIM_TIME_MAX) t = SCROLL_ANIM_TIME_MAX;
 333:Drivers/lvgl/src/core/lv_obj_scroll.c ****             lv_anim_set_time(&a, t);
 334:Drivers/lvgl/src/core/lv_obj_scroll.c ****             lv_coord_t sy = lv_obj_get_scroll_y(obj);
 335:Drivers/lvgl/src/core/lv_obj_scroll.c ****             lv_anim_set_values(&a, -sy, -sy + dy);
 336:Drivers/lvgl/src/core/lv_obj_scroll.c ****             lv_anim_set_exec_cb(&a,  scroll_y_anim);
 337:Drivers/lvgl/src/core/lv_obj_scroll.c ****             lv_anim_set_path_cb(&a, lv_anim_path_ease_out);
 338:Drivers/lvgl/src/core/lv_obj_scroll.c **** 
 339:Drivers/lvgl/src/core/lv_obj_scroll.c ****             lv_res_t res;
 340:Drivers/lvgl/src/core/lv_obj_scroll.c ****             res = lv_event_send(obj, LV_EVENT_SCROLL_BEGIN, &a);
 341:Drivers/lvgl/src/core/lv_obj_scroll.c ****             if(res != LV_RES_OK) return;
 342:Drivers/lvgl/src/core/lv_obj_scroll.c ****             lv_anim_start(&a);
 343:Drivers/lvgl/src/core/lv_obj_scroll.c ****         }
 344:Drivers/lvgl/src/core/lv_obj_scroll.c ****     }
 345:Drivers/lvgl/src/core/lv_obj_scroll.c ****     else {
 346:Drivers/lvgl/src/core/lv_obj_scroll.c ****         /*Remove pending animations*/
 347:Drivers/lvgl/src/core/lv_obj_scroll.c ****         lv_anim_del(obj, scroll_y_anim);
 348:Drivers/lvgl/src/core/lv_obj_scroll.c ****         lv_anim_del(obj, scroll_x_anim);
 349:Drivers/lvgl/src/core/lv_obj_scroll.c **** 
 350:Drivers/lvgl/src/core/lv_obj_scroll.c ****         lv_res_t res;
 351:Drivers/lvgl/src/core/lv_obj_scroll.c ****         res = lv_event_send(obj, LV_EVENT_SCROLL_BEGIN, NULL);
 352:Drivers/lvgl/src/core/lv_obj_scroll.c ****         if(res != LV_RES_OK) return;
 353:Drivers/lvgl/src/core/lv_obj_scroll.c **** 
 354:Drivers/lvgl/src/core/lv_obj_scroll.c ****         res = _lv_obj_scroll_by_raw(obj, dx, dy);
 355:Drivers/lvgl/src/core/lv_obj_scroll.c ****         if(res != LV_RES_OK) return;
 356:Drivers/lvgl/src/core/lv_obj_scroll.c **** 
 357:Drivers/lvgl/src/core/lv_obj_scroll.c ****         res = lv_event_send(obj, LV_EVENT_SCROLL_END, NULL);
 358:Drivers/lvgl/src/core/lv_obj_scroll.c ****         if(res != LV_RES_OK) return;
 359:Drivers/lvgl/src/core/lv_obj_scroll.c ****     }
 360:Drivers/lvgl/src/core/lv_obj_scroll.c **** }
 361:Drivers/lvgl/src/core/lv_obj_scroll.c **** 
 362:Drivers/lvgl/src/core/lv_obj_scroll.c **** void lv_obj_scroll_to(lv_obj_t * obj, lv_coord_t x, lv_coord_t y, lv_anim_enable_t anim_en)
 363:Drivers/lvgl/src/core/lv_obj_scroll.c **** {
 364:Drivers/lvgl/src/core/lv_obj_scroll.c ****     lv_obj_scroll_to_x(obj, x, anim_en);
 365:Drivers/lvgl/src/core/lv_obj_scroll.c ****     lv_obj_scroll_to_y(obj, y, anim_en);
 366:Drivers/lvgl/src/core/lv_obj_scroll.c **** }
 367:Drivers/lvgl/src/core/lv_obj_scroll.c **** 
 368:Drivers/lvgl/src/core/lv_obj_scroll.c **** void lv_obj_scroll_to_x(lv_obj_t * obj, lv_coord_t x, lv_anim_enable_t anim_en)
 369:Drivers/lvgl/src/core/lv_obj_scroll.c **** {
 370:Drivers/lvgl/src/core/lv_obj_scroll.c ****     lv_anim_del(obj, scroll_x_anim);
 371:Drivers/lvgl/src/core/lv_obj_scroll.c **** 
 372:Drivers/lvgl/src/core/lv_obj_scroll.c ****     lv_coord_t scroll_x = lv_obj_get_scroll_x(obj);
ARM GAS  /var/folders/lp/x54gwt890xv47sdkqj1k04q40000gn/T//ccCdbJgg.s 			page 8


 373:Drivers/lvgl/src/core/lv_obj_scroll.c ****     lv_coord_t diff = -x + scroll_x;
 374:Drivers/lvgl/src/core/lv_obj_scroll.c **** 
 375:Drivers/lvgl/src/core/lv_obj_scroll.c ****     lv_obj_scroll_by_bounded(obj, diff, 0, anim_en);
 376:Drivers/lvgl/src/core/lv_obj_scroll.c **** }
 377:Drivers/lvgl/src/core/lv_obj_scroll.c **** 
 378:Drivers/lvgl/src/core/lv_obj_scroll.c **** void lv_obj_scroll_to_y(lv_obj_t * obj, lv_coord_t y, lv_anim_enable_t anim_en)
 379:Drivers/lvgl/src/core/lv_obj_scroll.c **** {
 380:Drivers/lvgl/src/core/lv_obj_scroll.c ****     lv_anim_del(obj, scroll_y_anim);
 381:Drivers/lvgl/src/core/lv_obj_scroll.c **** 
 382:Drivers/lvgl/src/core/lv_obj_scroll.c ****     lv_coord_t scroll_y = lv_obj_get_scroll_y(obj);
 383:Drivers/lvgl/src/core/lv_obj_scroll.c ****     lv_coord_t diff = -y + scroll_y;
 384:Drivers/lvgl/src/core/lv_obj_scroll.c **** 
 385:Drivers/lvgl/src/core/lv_obj_scroll.c ****     lv_obj_scroll_by_bounded(obj, 0, diff, anim_en);
 386:Drivers/lvgl/src/core/lv_obj_scroll.c **** }
 387:Drivers/lvgl/src/core/lv_obj_scroll.c **** 
 388:Drivers/lvgl/src/core/lv_obj_scroll.c **** void lv_obj_scroll_to_view(lv_obj_t * obj, lv_anim_enable_t anim_en)
 389:Drivers/lvgl/src/core/lv_obj_scroll.c **** {
 390:Drivers/lvgl/src/core/lv_obj_scroll.c ****     /*Be sure the screens layout is correct*/
 391:Drivers/lvgl/src/core/lv_obj_scroll.c ****     lv_obj_update_layout(obj);
 392:Drivers/lvgl/src/core/lv_obj_scroll.c **** 
 393:Drivers/lvgl/src/core/lv_obj_scroll.c ****     lv_point_t p = {0, 0};
 394:Drivers/lvgl/src/core/lv_obj_scroll.c ****     scroll_area_into_view(&obj->coords, obj, &p, anim_en);
 395:Drivers/lvgl/src/core/lv_obj_scroll.c **** }
 396:Drivers/lvgl/src/core/lv_obj_scroll.c **** 
 397:Drivers/lvgl/src/core/lv_obj_scroll.c **** void lv_obj_scroll_to_view_recursive(lv_obj_t * obj, lv_anim_enable_t anim_en)
 398:Drivers/lvgl/src/core/lv_obj_scroll.c **** {
 399:Drivers/lvgl/src/core/lv_obj_scroll.c ****     /*Be sure the screens layout is correct*/
 400:Drivers/lvgl/src/core/lv_obj_scroll.c ****     lv_obj_update_layout(obj);
 401:Drivers/lvgl/src/core/lv_obj_scroll.c **** 
 402:Drivers/lvgl/src/core/lv_obj_scroll.c ****     lv_point_t p = {0, 0};
 403:Drivers/lvgl/src/core/lv_obj_scroll.c ****     lv_obj_t * child = obj;
 404:Drivers/lvgl/src/core/lv_obj_scroll.c ****     lv_obj_t * parent = lv_obj_get_parent(child);
 405:Drivers/lvgl/src/core/lv_obj_scroll.c ****     while(parent) {
 406:Drivers/lvgl/src/core/lv_obj_scroll.c ****         scroll_area_into_view(&obj->coords, child, &p, anim_en);
 407:Drivers/lvgl/src/core/lv_obj_scroll.c ****         child = parent;
 408:Drivers/lvgl/src/core/lv_obj_scroll.c ****         parent = lv_obj_get_parent(parent);
 409:Drivers/lvgl/src/core/lv_obj_scroll.c ****     }
 410:Drivers/lvgl/src/core/lv_obj_scroll.c **** }
 411:Drivers/lvgl/src/core/lv_obj_scroll.c **** 
 412:Drivers/lvgl/src/core/lv_obj_scroll.c **** lv_res_t _lv_obj_scroll_by_raw(lv_obj_t * obj, lv_coord_t x, lv_coord_t y)
 413:Drivers/lvgl/src/core/lv_obj_scroll.c **** {
 414:Drivers/lvgl/src/core/lv_obj_scroll.c ****     if(x == 0 && y == 0) return LV_RES_OK;
 415:Drivers/lvgl/src/core/lv_obj_scroll.c **** 
 416:Drivers/lvgl/src/core/lv_obj_scroll.c ****     lv_obj_allocate_spec_attr(obj);
 417:Drivers/lvgl/src/core/lv_obj_scroll.c **** 
 418:Drivers/lvgl/src/core/lv_obj_scroll.c ****     obj->spec_attr->scroll.x += x;
 419:Drivers/lvgl/src/core/lv_obj_scroll.c ****     obj->spec_attr->scroll.y += y;
 420:Drivers/lvgl/src/core/lv_obj_scroll.c **** 
 421:Drivers/lvgl/src/core/lv_obj_scroll.c ****     lv_obj_move_children_by(obj, x, y, true);
 422:Drivers/lvgl/src/core/lv_obj_scroll.c ****     lv_res_t res = lv_event_send(obj, LV_EVENT_SCROLL, NULL);
 423:Drivers/lvgl/src/core/lv_obj_scroll.c ****     if(res != LV_RES_OK) return res;
 424:Drivers/lvgl/src/core/lv_obj_scroll.c ****     lv_obj_invalidate(obj);
 425:Drivers/lvgl/src/core/lv_obj_scroll.c ****     return LV_RES_OK;
 426:Drivers/lvgl/src/core/lv_obj_scroll.c **** }
 427:Drivers/lvgl/src/core/lv_obj_scroll.c **** 
 428:Drivers/lvgl/src/core/lv_obj_scroll.c **** 
 429:Drivers/lvgl/src/core/lv_obj_scroll.c **** bool lv_obj_is_scrolling(const lv_obj_t * obj)
ARM GAS  /var/folders/lp/x54gwt890xv47sdkqj1k04q40000gn/T//ccCdbJgg.s 			page 9


 430:Drivers/lvgl/src/core/lv_obj_scroll.c **** {
 431:Drivers/lvgl/src/core/lv_obj_scroll.c ****     lv_indev_t * indev = lv_indev_get_next(NULL);
 432:Drivers/lvgl/src/core/lv_obj_scroll.c ****     while(indev) {
 433:Drivers/lvgl/src/core/lv_obj_scroll.c ****         if(lv_indev_get_scroll_obj(indev) == obj) return true;
 434:Drivers/lvgl/src/core/lv_obj_scroll.c ****         indev = lv_indev_get_next(indev);
 435:Drivers/lvgl/src/core/lv_obj_scroll.c ****     }
 436:Drivers/lvgl/src/core/lv_obj_scroll.c **** 
 437:Drivers/lvgl/src/core/lv_obj_scroll.c ****     return false;
 438:Drivers/lvgl/src/core/lv_obj_scroll.c **** }
 439:Drivers/lvgl/src/core/lv_obj_scroll.c **** 
 440:Drivers/lvgl/src/core/lv_obj_scroll.c **** void lv_obj_update_snap(lv_obj_t * obj, lv_anim_enable_t anim_en)
 441:Drivers/lvgl/src/core/lv_obj_scroll.c **** {
 442:Drivers/lvgl/src/core/lv_obj_scroll.c ****     lv_obj_update_layout(obj);
 443:Drivers/lvgl/src/core/lv_obj_scroll.c ****     lv_point_t p;
 444:Drivers/lvgl/src/core/lv_obj_scroll.c ****     lv_indev_scroll_get_snap_dist(obj, &p);
 445:Drivers/lvgl/src/core/lv_obj_scroll.c ****     lv_obj_scroll_by(obj, p.x, p.y, anim_en);
 446:Drivers/lvgl/src/core/lv_obj_scroll.c **** }
 447:Drivers/lvgl/src/core/lv_obj_scroll.c **** 
 448:Drivers/lvgl/src/core/lv_obj_scroll.c **** void lv_obj_get_scrollbar_area(lv_obj_t * obj, lv_area_t * hor_area, lv_area_t * ver_area)
 449:Drivers/lvgl/src/core/lv_obj_scroll.c **** {
 450:Drivers/lvgl/src/core/lv_obj_scroll.c ****     lv_area_set(hor_area, 0, 0, -1, -1);
 451:Drivers/lvgl/src/core/lv_obj_scroll.c ****     lv_area_set(ver_area, 0, 0, -1, -1);
 452:Drivers/lvgl/src/core/lv_obj_scroll.c **** 
 453:Drivers/lvgl/src/core/lv_obj_scroll.c ****     if(lv_obj_has_flag(obj, LV_OBJ_FLAG_SCROLLABLE) == false) return;
 454:Drivers/lvgl/src/core/lv_obj_scroll.c **** 
 455:Drivers/lvgl/src/core/lv_obj_scroll.c ****     lv_dir_t sm = lv_obj_get_scrollbar_mode(obj);
 456:Drivers/lvgl/src/core/lv_obj_scroll.c ****     if(sm == LV_SCROLLBAR_MODE_OFF)  return;
 457:Drivers/lvgl/src/core/lv_obj_scroll.c **** 
 458:Drivers/lvgl/src/core/lv_obj_scroll.c ****     /*If there is no indev scrolling this object but `mode==active` return*/
 459:Drivers/lvgl/src/core/lv_obj_scroll.c ****     lv_indev_t * indev = lv_indev_get_next(NULL);
 460:Drivers/lvgl/src/core/lv_obj_scroll.c ****     if(sm == LV_SCROLLBAR_MODE_ACTIVE) {
 461:Drivers/lvgl/src/core/lv_obj_scroll.c ****         while(indev) {
 462:Drivers/lvgl/src/core/lv_obj_scroll.c ****             if(lv_indev_get_scroll_obj(indev) == obj) break;
 463:Drivers/lvgl/src/core/lv_obj_scroll.c ****             indev = lv_indev_get_next(indev);
 464:Drivers/lvgl/src/core/lv_obj_scroll.c ****         }
 465:Drivers/lvgl/src/core/lv_obj_scroll.c ****         if(indev == NULL)  return;
 466:Drivers/lvgl/src/core/lv_obj_scroll.c ****     }
 467:Drivers/lvgl/src/core/lv_obj_scroll.c **** 
 468:Drivers/lvgl/src/core/lv_obj_scroll.c ****     lv_coord_t st = lv_obj_get_scroll_top(obj);
 469:Drivers/lvgl/src/core/lv_obj_scroll.c ****     lv_coord_t sb = lv_obj_get_scroll_bottom(obj);
 470:Drivers/lvgl/src/core/lv_obj_scroll.c ****     lv_coord_t sl = lv_obj_get_scroll_left(obj);
 471:Drivers/lvgl/src/core/lv_obj_scroll.c ****     lv_coord_t sr = lv_obj_get_scroll_right(obj);
 472:Drivers/lvgl/src/core/lv_obj_scroll.c **** 
 473:Drivers/lvgl/src/core/lv_obj_scroll.c ****     lv_dir_t dir = lv_obj_get_scroll_dir(obj);
 474:Drivers/lvgl/src/core/lv_obj_scroll.c **** 
 475:Drivers/lvgl/src/core/lv_obj_scroll.c ****     bool ver_draw = false;
 476:Drivers/lvgl/src/core/lv_obj_scroll.c ****     if((dir & LV_DIR_VER) &&
 477:Drivers/lvgl/src/core/lv_obj_scroll.c ****        ((sm == LV_SCROLLBAR_MODE_ON) ||
 478:Drivers/lvgl/src/core/lv_obj_scroll.c ****         (sm == LV_SCROLLBAR_MODE_AUTO && (st > 0 || sb > 0)) ||
 479:Drivers/lvgl/src/core/lv_obj_scroll.c ****         (sm == LV_SCROLLBAR_MODE_ACTIVE && lv_indev_get_scroll_dir(indev) == LV_DIR_VER))) {
 480:Drivers/lvgl/src/core/lv_obj_scroll.c ****         ver_draw = true;
 481:Drivers/lvgl/src/core/lv_obj_scroll.c ****     }
 482:Drivers/lvgl/src/core/lv_obj_scroll.c **** 
 483:Drivers/lvgl/src/core/lv_obj_scroll.c **** 
 484:Drivers/lvgl/src/core/lv_obj_scroll.c ****     bool hor_draw = false;
 485:Drivers/lvgl/src/core/lv_obj_scroll.c ****     if((dir & LV_DIR_HOR) &&
 486:Drivers/lvgl/src/core/lv_obj_scroll.c ****        ((sm == LV_SCROLLBAR_MODE_ON) ||
ARM GAS  /var/folders/lp/x54gwt890xv47sdkqj1k04q40000gn/T//ccCdbJgg.s 			page 10


 487:Drivers/lvgl/src/core/lv_obj_scroll.c ****         (sm == LV_SCROLLBAR_MODE_AUTO && (sl > 0 || sr > 0)) ||
 488:Drivers/lvgl/src/core/lv_obj_scroll.c ****         (sm == LV_SCROLLBAR_MODE_ACTIVE && lv_indev_get_scroll_dir(indev) == LV_DIR_HOR))) {
 489:Drivers/lvgl/src/core/lv_obj_scroll.c ****         hor_draw = true;
 490:Drivers/lvgl/src/core/lv_obj_scroll.c ****     }
 491:Drivers/lvgl/src/core/lv_obj_scroll.c **** 
 492:Drivers/lvgl/src/core/lv_obj_scroll.c ****     if(!hor_draw && !ver_draw) return;
 493:Drivers/lvgl/src/core/lv_obj_scroll.c **** 
 494:Drivers/lvgl/src/core/lv_obj_scroll.c ****     bool rtl = lv_obj_get_style_base_dir(obj, LV_PART_SCROLLBAR) == LV_BASE_DIR_RTL ? true : false;
 495:Drivers/lvgl/src/core/lv_obj_scroll.c **** 
 496:Drivers/lvgl/src/core/lv_obj_scroll.c ****     lv_coord_t top_space = lv_obj_get_style_pad_top(obj, LV_PART_SCROLLBAR);
 497:Drivers/lvgl/src/core/lv_obj_scroll.c ****     lv_coord_t bottom_space = lv_obj_get_style_pad_bottom(obj, LV_PART_SCROLLBAR);
 498:Drivers/lvgl/src/core/lv_obj_scroll.c ****     lv_coord_t left_space = lv_obj_get_style_pad_left(obj, LV_PART_SCROLLBAR);
 499:Drivers/lvgl/src/core/lv_obj_scroll.c ****     lv_coord_t right_space = lv_obj_get_style_pad_right(obj, LV_PART_SCROLLBAR);
 500:Drivers/lvgl/src/core/lv_obj_scroll.c ****     lv_coord_t tickness = lv_obj_get_style_width(obj, LV_PART_SCROLLBAR);
 501:Drivers/lvgl/src/core/lv_obj_scroll.c **** 
 502:Drivers/lvgl/src/core/lv_obj_scroll.c ****     lv_coord_t obj_h = lv_obj_get_height(obj);
 503:Drivers/lvgl/src/core/lv_obj_scroll.c ****     lv_coord_t obj_w = lv_obj_get_width(obj);
 504:Drivers/lvgl/src/core/lv_obj_scroll.c **** 
 505:Drivers/lvgl/src/core/lv_obj_scroll.c ****     /*Space required for the vertical and horizontal scrollbars*/
 506:Drivers/lvgl/src/core/lv_obj_scroll.c ****     lv_coord_t ver_reg_space = ver_draw ? tickness : 0;
 507:Drivers/lvgl/src/core/lv_obj_scroll.c ****     lv_coord_t hor_req_space = hor_draw ? tickness : 0;
 508:Drivers/lvgl/src/core/lv_obj_scroll.c ****     lv_coord_t rem;
 509:Drivers/lvgl/src/core/lv_obj_scroll.c **** 
 510:Drivers/lvgl/src/core/lv_obj_scroll.c ****     if(lv_obj_get_style_bg_opa(obj, LV_PART_SCROLLBAR) < LV_OPA_MIN &&
 511:Drivers/lvgl/src/core/lv_obj_scroll.c ****        lv_obj_get_style_border_opa(obj, LV_PART_SCROLLBAR) < LV_OPA_MIN) {
 512:Drivers/lvgl/src/core/lv_obj_scroll.c ****         return;
 513:Drivers/lvgl/src/core/lv_obj_scroll.c ****     }
 514:Drivers/lvgl/src/core/lv_obj_scroll.c **** 
 515:Drivers/lvgl/src/core/lv_obj_scroll.c ****     /*Draw vertical scrollbar if the mode is ON or can be scrolled in this direction*/
 516:Drivers/lvgl/src/core/lv_obj_scroll.c ****     lv_coord_t content_h = obj_h + st + sb;
 517:Drivers/lvgl/src/core/lv_obj_scroll.c ****     if(ver_draw && content_h) {
 518:Drivers/lvgl/src/core/lv_obj_scroll.c ****         ver_area->y1 = obj->coords.y1;
 519:Drivers/lvgl/src/core/lv_obj_scroll.c ****         ver_area->y2 = obj->coords.y2;
 520:Drivers/lvgl/src/core/lv_obj_scroll.c ****         if(rtl) {
 521:Drivers/lvgl/src/core/lv_obj_scroll.c ****             ver_area->x1 = obj->coords.x1 + left_space;
 522:Drivers/lvgl/src/core/lv_obj_scroll.c ****             ver_area->x2 = ver_area->x1 + tickness - 1;
 523:Drivers/lvgl/src/core/lv_obj_scroll.c ****         }
 524:Drivers/lvgl/src/core/lv_obj_scroll.c ****         else {
 525:Drivers/lvgl/src/core/lv_obj_scroll.c ****             ver_area->x2 = obj->coords.x2 - right_space;
 526:Drivers/lvgl/src/core/lv_obj_scroll.c ****             ver_area->x1 = ver_area->x2 - tickness + 1;
 527:Drivers/lvgl/src/core/lv_obj_scroll.c ****         }
 528:Drivers/lvgl/src/core/lv_obj_scroll.c **** 
 529:Drivers/lvgl/src/core/lv_obj_scroll.c ****         lv_coord_t sb_h = ((obj_h - top_space - bottom_space - hor_req_space) * obj_h) / content_h;
 530:Drivers/lvgl/src/core/lv_obj_scroll.c ****         sb_h = LV_MAX(sb_h, SCROLLBAR_MIN_SIZE);
 531:Drivers/lvgl/src/core/lv_obj_scroll.c ****         rem = (obj_h - top_space - bottom_space - hor_req_space) -
 532:Drivers/lvgl/src/core/lv_obj_scroll.c ****               sb_h;  /*Remaining size from the scrollbar track that is not the scrollbar itself*/
 533:Drivers/lvgl/src/core/lv_obj_scroll.c ****         lv_coord_t scroll_h = content_h - obj_h; /*The size of the content which can be really scro
 534:Drivers/lvgl/src/core/lv_obj_scroll.c ****         if(scroll_h <= 0) {
 535:Drivers/lvgl/src/core/lv_obj_scroll.c ****             ver_area->y1 = obj->coords.y1 + top_space;
 536:Drivers/lvgl/src/core/lv_obj_scroll.c ****             ver_area->y2 = obj->coords.y2 - bottom_space - hor_req_space - 1;
 537:Drivers/lvgl/src/core/lv_obj_scroll.c ****         }
 538:Drivers/lvgl/src/core/lv_obj_scroll.c ****         else {
 539:Drivers/lvgl/src/core/lv_obj_scroll.c ****             lv_coord_t sb_y = (rem * sb) / scroll_h;
 540:Drivers/lvgl/src/core/lv_obj_scroll.c ****             sb_y = rem - sb_y;
 541:Drivers/lvgl/src/core/lv_obj_scroll.c **** 
 542:Drivers/lvgl/src/core/lv_obj_scroll.c ****             ver_area->y1 = obj->coords.y1 + sb_y + top_space;
 543:Drivers/lvgl/src/core/lv_obj_scroll.c ****             ver_area->y2 = ver_area->y1 + sb_h - 1;
ARM GAS  /var/folders/lp/x54gwt890xv47sdkqj1k04q40000gn/T//ccCdbJgg.s 			page 11


 544:Drivers/lvgl/src/core/lv_obj_scroll.c ****             if(ver_area->y1 < obj->coords.y1 + top_space) {
 545:Drivers/lvgl/src/core/lv_obj_scroll.c ****                 ver_area->y1 = obj->coords.y1 + top_space;
 546:Drivers/lvgl/src/core/lv_obj_scroll.c ****                 if(ver_area->y1 + SCROLLBAR_MIN_SIZE > ver_area->y2) {
 547:Drivers/lvgl/src/core/lv_obj_scroll.c ****                     ver_area->y2 = ver_area->y1 + SCROLLBAR_MIN_SIZE;
 548:Drivers/lvgl/src/core/lv_obj_scroll.c ****                 }
 549:Drivers/lvgl/src/core/lv_obj_scroll.c ****             }
 550:Drivers/lvgl/src/core/lv_obj_scroll.c ****             if(ver_area->y2 > obj->coords.y2 - hor_req_space - bottom_space) {
 551:Drivers/lvgl/src/core/lv_obj_scroll.c ****                 ver_area->y2 = obj->coords.y2 - hor_req_space - bottom_space;
 552:Drivers/lvgl/src/core/lv_obj_scroll.c ****                 if(ver_area->y2 - SCROLLBAR_MIN_SIZE < ver_area->y1) {
 553:Drivers/lvgl/src/core/lv_obj_scroll.c ****                     ver_area->y1 = ver_area->y2 - SCROLLBAR_MIN_SIZE;
 554:Drivers/lvgl/src/core/lv_obj_scroll.c ****                 }
 555:Drivers/lvgl/src/core/lv_obj_scroll.c ****             }
 556:Drivers/lvgl/src/core/lv_obj_scroll.c ****         }
 557:Drivers/lvgl/src/core/lv_obj_scroll.c ****     }
 558:Drivers/lvgl/src/core/lv_obj_scroll.c **** 
 559:Drivers/lvgl/src/core/lv_obj_scroll.c ****     /*Draw horizontal scrollbar if the mode is ON or can be scrolled in this direction*/
 560:Drivers/lvgl/src/core/lv_obj_scroll.c ****     lv_coord_t content_w = obj_w + sl + sr;
 561:Drivers/lvgl/src/core/lv_obj_scroll.c ****     if(hor_draw && content_w) {
 562:Drivers/lvgl/src/core/lv_obj_scroll.c ****         hor_area->y2 = obj->coords.y2 - bottom_space;
 563:Drivers/lvgl/src/core/lv_obj_scroll.c ****         hor_area->y1 = hor_area->y2 - tickness + 1;
 564:Drivers/lvgl/src/core/lv_obj_scroll.c ****         hor_area->x1 = obj->coords.x1;
 565:Drivers/lvgl/src/core/lv_obj_scroll.c ****         hor_area->x2 = obj->coords.x2;
 566:Drivers/lvgl/src/core/lv_obj_scroll.c **** 
 567:Drivers/lvgl/src/core/lv_obj_scroll.c ****         lv_coord_t sb_w = ((obj_w - left_space - right_space - ver_reg_space) * obj_w) / content_w;
 568:Drivers/lvgl/src/core/lv_obj_scroll.c ****         sb_w = LV_MAX(sb_w, SCROLLBAR_MIN_SIZE);
 569:Drivers/lvgl/src/core/lv_obj_scroll.c ****         rem = (obj_w - left_space - right_space - ver_reg_space) -
 570:Drivers/lvgl/src/core/lv_obj_scroll.c ****               sb_w;  /*Remaining size from the scrollbar track that is not the scrollbar itself*/
 571:Drivers/lvgl/src/core/lv_obj_scroll.c ****         lv_coord_t scroll_w = content_w - obj_w; /*The size of the content which can be really scro
 572:Drivers/lvgl/src/core/lv_obj_scroll.c ****         if(scroll_w <= 0) {
 573:Drivers/lvgl/src/core/lv_obj_scroll.c ****             if(rtl) {
 574:Drivers/lvgl/src/core/lv_obj_scroll.c ****                 hor_area->x1 = obj->coords.x1 + left_space + ver_reg_space - 1;
 575:Drivers/lvgl/src/core/lv_obj_scroll.c ****                 hor_area->x2 = obj->coords.x2 - right_space;
 576:Drivers/lvgl/src/core/lv_obj_scroll.c ****             }
 577:Drivers/lvgl/src/core/lv_obj_scroll.c ****             else {
 578:Drivers/lvgl/src/core/lv_obj_scroll.c ****                 hor_area->x1 = obj->coords.x1 + left_space;
 579:Drivers/lvgl/src/core/lv_obj_scroll.c ****                 hor_area->x2 = obj->coords.x2 - right_space - ver_reg_space - 1;
 580:Drivers/lvgl/src/core/lv_obj_scroll.c ****             }
 581:Drivers/lvgl/src/core/lv_obj_scroll.c ****         }
 582:Drivers/lvgl/src/core/lv_obj_scroll.c ****         else {
 583:Drivers/lvgl/src/core/lv_obj_scroll.c ****             lv_coord_t sb_x = (rem * sr) / scroll_w;
 584:Drivers/lvgl/src/core/lv_obj_scroll.c ****             sb_x = rem - sb_x;
 585:Drivers/lvgl/src/core/lv_obj_scroll.c **** 
 586:Drivers/lvgl/src/core/lv_obj_scroll.c ****             if(rtl) {
 587:Drivers/lvgl/src/core/lv_obj_scroll.c ****                 hor_area->x1 = obj->coords.x1 + sb_x + left_space + ver_reg_space;
 588:Drivers/lvgl/src/core/lv_obj_scroll.c ****                 hor_area->x2 = hor_area->x1 + sb_w - 1;
 589:Drivers/lvgl/src/core/lv_obj_scroll.c ****                 if(hor_area->x1 < obj->coords.x1 + left_space + ver_reg_space) {
 590:Drivers/lvgl/src/core/lv_obj_scroll.c ****                     hor_area->x1 = obj->coords.x1 + left_space + ver_reg_space;
 591:Drivers/lvgl/src/core/lv_obj_scroll.c ****                     if(hor_area->x1 + SCROLLBAR_MIN_SIZE > hor_area->x2) {
 592:Drivers/lvgl/src/core/lv_obj_scroll.c ****                         hor_area->x2 = hor_area->x1 + SCROLLBAR_MIN_SIZE;
 593:Drivers/lvgl/src/core/lv_obj_scroll.c ****                     }
 594:Drivers/lvgl/src/core/lv_obj_scroll.c ****                 }
 595:Drivers/lvgl/src/core/lv_obj_scroll.c ****                 if(hor_area->x2 > obj->coords.x2 - right_space) {
 596:Drivers/lvgl/src/core/lv_obj_scroll.c ****                     hor_area->x2 = obj->coords.x2 - right_space;
 597:Drivers/lvgl/src/core/lv_obj_scroll.c ****                     if(hor_area->x2 - SCROLLBAR_MIN_SIZE < hor_area->x1) {
 598:Drivers/lvgl/src/core/lv_obj_scroll.c ****                         hor_area->x1 = hor_area->x2 - SCROLLBAR_MIN_SIZE;
 599:Drivers/lvgl/src/core/lv_obj_scroll.c ****                     }
 600:Drivers/lvgl/src/core/lv_obj_scroll.c ****                 }
ARM GAS  /var/folders/lp/x54gwt890xv47sdkqj1k04q40000gn/T//ccCdbJgg.s 			page 12


 601:Drivers/lvgl/src/core/lv_obj_scroll.c ****             }
 602:Drivers/lvgl/src/core/lv_obj_scroll.c ****             else {
 603:Drivers/lvgl/src/core/lv_obj_scroll.c ****                 hor_area->x1 = obj->coords.x1 + sb_x + left_space;
 604:Drivers/lvgl/src/core/lv_obj_scroll.c ****                 hor_area->x2 = hor_area->x1 + sb_w - 1;
 605:Drivers/lvgl/src/core/lv_obj_scroll.c ****                 if(hor_area->x1 < obj->coords.x1 + left_space) {
 606:Drivers/lvgl/src/core/lv_obj_scroll.c ****                     hor_area->x1 = obj->coords.x1 + left_space;
 607:Drivers/lvgl/src/core/lv_obj_scroll.c ****                     if(hor_area->x1 + SCROLLBAR_MIN_SIZE > hor_area->x2) {
 608:Drivers/lvgl/src/core/lv_obj_scroll.c ****                         hor_area->x2 = hor_area->x1 + SCROLLBAR_MIN_SIZE;
 609:Drivers/lvgl/src/core/lv_obj_scroll.c ****                     }
 610:Drivers/lvgl/src/core/lv_obj_scroll.c ****                 }
 611:Drivers/lvgl/src/core/lv_obj_scroll.c ****                 if(hor_area->x2 > obj->coords.x2 - ver_reg_space - right_space) {
 612:Drivers/lvgl/src/core/lv_obj_scroll.c ****                     hor_area->x2 = obj->coords.x2 - ver_reg_space - right_space;
 613:Drivers/lvgl/src/core/lv_obj_scroll.c ****                     if(hor_area->x2 - SCROLLBAR_MIN_SIZE < hor_area->x1) {
 614:Drivers/lvgl/src/core/lv_obj_scroll.c ****                         hor_area->x1 = hor_area->x2 - SCROLLBAR_MIN_SIZE;
 615:Drivers/lvgl/src/core/lv_obj_scroll.c ****                     }
 616:Drivers/lvgl/src/core/lv_obj_scroll.c ****                 }
 617:Drivers/lvgl/src/core/lv_obj_scroll.c ****             }
 618:Drivers/lvgl/src/core/lv_obj_scroll.c ****         }
 619:Drivers/lvgl/src/core/lv_obj_scroll.c ****     }
 620:Drivers/lvgl/src/core/lv_obj_scroll.c **** }
 621:Drivers/lvgl/src/core/lv_obj_scroll.c **** 
 622:Drivers/lvgl/src/core/lv_obj_scroll.c **** void lv_obj_scrollbar_invalidate(lv_obj_t * obj)
 623:Drivers/lvgl/src/core/lv_obj_scroll.c **** {
 624:Drivers/lvgl/src/core/lv_obj_scroll.c ****     lv_area_t hor_area;
 625:Drivers/lvgl/src/core/lv_obj_scroll.c ****     lv_area_t ver_area;
 626:Drivers/lvgl/src/core/lv_obj_scroll.c ****     lv_obj_get_scrollbar_area(obj, &hor_area, &ver_area);
 627:Drivers/lvgl/src/core/lv_obj_scroll.c **** 
 628:Drivers/lvgl/src/core/lv_obj_scroll.c ****     if(lv_area_get_size(&hor_area) <= 0 && lv_area_get_size(&ver_area) <= 0) return;
 629:Drivers/lvgl/src/core/lv_obj_scroll.c **** 
 630:Drivers/lvgl/src/core/lv_obj_scroll.c ****     if(lv_area_get_size(&hor_area) > 0) lv_obj_invalidate_area(obj, &hor_area);
 631:Drivers/lvgl/src/core/lv_obj_scroll.c ****     if(lv_area_get_size(&ver_area) > 0) lv_obj_invalidate_area(obj, &ver_area);
 632:Drivers/lvgl/src/core/lv_obj_scroll.c **** }
 633:Drivers/lvgl/src/core/lv_obj_scroll.c **** 
 634:Drivers/lvgl/src/core/lv_obj_scroll.c **** void lv_obj_readjust_scroll(lv_obj_t * obj, lv_anim_enable_t anim_en)
 635:Drivers/lvgl/src/core/lv_obj_scroll.c **** {
 636:Drivers/lvgl/src/core/lv_obj_scroll.c ****     /*Be sure the bottom side is not remains scrolled in*/
 637:Drivers/lvgl/src/core/lv_obj_scroll.c ****     /*With snapping the content can't be scrolled in*/
 638:Drivers/lvgl/src/core/lv_obj_scroll.c ****     if(lv_obj_get_scroll_snap_y(obj) == LV_SCROLL_SNAP_NONE) {
 639:Drivers/lvgl/src/core/lv_obj_scroll.c ****         lv_coord_t st = lv_obj_get_scroll_top(obj);
 640:Drivers/lvgl/src/core/lv_obj_scroll.c ****         lv_coord_t sb = lv_obj_get_scroll_bottom(obj);
 641:Drivers/lvgl/src/core/lv_obj_scroll.c ****         if(sb < 0 && st > 0) {
 642:Drivers/lvgl/src/core/lv_obj_scroll.c ****             sb = LV_MIN(st, -sb);
 643:Drivers/lvgl/src/core/lv_obj_scroll.c ****             lv_obj_scroll_by(obj, 0, sb, anim_en);
 644:Drivers/lvgl/src/core/lv_obj_scroll.c ****         }
 645:Drivers/lvgl/src/core/lv_obj_scroll.c ****     }
 646:Drivers/lvgl/src/core/lv_obj_scroll.c **** 
 647:Drivers/lvgl/src/core/lv_obj_scroll.c ****     if(lv_obj_get_scroll_snap_x(obj) == LV_SCROLL_SNAP_NONE) {
 648:Drivers/lvgl/src/core/lv_obj_scroll.c ****         lv_coord_t sl = lv_obj_get_scroll_left(obj);
 649:Drivers/lvgl/src/core/lv_obj_scroll.c ****         lv_coord_t sr = lv_obj_get_scroll_right(obj);
 650:Drivers/lvgl/src/core/lv_obj_scroll.c ****         if(lv_obj_get_style_base_dir(obj, LV_PART_MAIN) != LV_BASE_DIR_RTL) {
 651:Drivers/lvgl/src/core/lv_obj_scroll.c ****             /*Be sure the left side is not remains scrolled in*/
 652:Drivers/lvgl/src/core/lv_obj_scroll.c ****             if(sr < 0 && sl > 0) {
 653:Drivers/lvgl/src/core/lv_obj_scroll.c ****                 sr = LV_MIN(sl, -sr);
 654:Drivers/lvgl/src/core/lv_obj_scroll.c ****                 lv_obj_scroll_by(obj, sr, 0, anim_en);
 655:Drivers/lvgl/src/core/lv_obj_scroll.c ****             }
 656:Drivers/lvgl/src/core/lv_obj_scroll.c ****         }
 657:Drivers/lvgl/src/core/lv_obj_scroll.c ****         else {
ARM GAS  /var/folders/lp/x54gwt890xv47sdkqj1k04q40000gn/T//ccCdbJgg.s 			page 13


 658:Drivers/lvgl/src/core/lv_obj_scroll.c ****             /*Be sure the right side is not remains scrolled in*/
 659:Drivers/lvgl/src/core/lv_obj_scroll.c ****             if(sl < 0 && sr > 0) {
 660:Drivers/lvgl/src/core/lv_obj_scroll.c ****                 sr = LV_MIN(sr, -sl);
 661:Drivers/lvgl/src/core/lv_obj_scroll.c ****                 lv_obj_scroll_by(obj, sl, 0, anim_en);
 662:Drivers/lvgl/src/core/lv_obj_scroll.c ****             }
 663:Drivers/lvgl/src/core/lv_obj_scroll.c ****         }
 664:Drivers/lvgl/src/core/lv_obj_scroll.c ****     }
 665:Drivers/lvgl/src/core/lv_obj_scroll.c **** }
 666:Drivers/lvgl/src/core/lv_obj_scroll.c **** 
 667:Drivers/lvgl/src/core/lv_obj_scroll.c **** /**********************
 668:Drivers/lvgl/src/core/lv_obj_scroll.c ****  *   STATIC FUNCTIONS
 669:Drivers/lvgl/src/core/lv_obj_scroll.c ****  **********************/
 670:Drivers/lvgl/src/core/lv_obj_scroll.c **** 
 671:Drivers/lvgl/src/core/lv_obj_scroll.c **** 
 672:Drivers/lvgl/src/core/lv_obj_scroll.c **** static void scroll_x_anim(void * obj, int32_t v)
 673:Drivers/lvgl/src/core/lv_obj_scroll.c **** {
 674:Drivers/lvgl/src/core/lv_obj_scroll.c ****     _lv_obj_scroll_by_raw(obj, v + lv_obj_get_scroll_x(obj), 0);
 675:Drivers/lvgl/src/core/lv_obj_scroll.c **** }
 676:Drivers/lvgl/src/core/lv_obj_scroll.c **** 
 677:Drivers/lvgl/src/core/lv_obj_scroll.c **** static void scroll_y_anim(void * obj, int32_t v)
 678:Drivers/lvgl/src/core/lv_obj_scroll.c **** {
 679:Drivers/lvgl/src/core/lv_obj_scroll.c ****     _lv_obj_scroll_by_raw(obj, 0, v + lv_obj_get_scroll_y(obj));
 680:Drivers/lvgl/src/core/lv_obj_scroll.c **** }
 681:Drivers/lvgl/src/core/lv_obj_scroll.c **** 
 682:Drivers/lvgl/src/core/lv_obj_scroll.c **** static void scroll_anim_ready_cb(lv_anim_t * a)
 683:Drivers/lvgl/src/core/lv_obj_scroll.c **** {
  29              		.loc 1 683 1 view -0
  30              		.cfi_startproc
  31              		@ args = 0, pretend = 0, frame = 0
  32              		@ frame_needed = 0, uses_anonymous_args = 0
  33              		.loc 1 683 1 is_stmt 0 view .LVU1
  34 0000 08B5     		push	{r3, lr}
  35              		.cfi_def_cfa_offset 8
  36              		.cfi_offset 3, -8
  37              		.cfi_offset 14, -4
 684:Drivers/lvgl/src/core/lv_obj_scroll.c ****     lv_event_send(a->var, LV_EVENT_SCROLL_END, NULL);
  38              		.loc 1 684 5 is_stmt 1 view .LVU2
  39 0002 0022     		movs	r2, #0
  40 0004 0A21     		movs	r1, #10
  41 0006 0068     		ldr	r0, [r0]
  42              	.LVL1:
  43              		.loc 1 684 5 is_stmt 0 view .LVU3
  44 0008 FFF7FEFF 		bl	lv_event_send
  45              	.LVL2:
 685:Drivers/lvgl/src/core/lv_obj_scroll.c **** }
  46              		.loc 1 685 1 view .LVU4
  47 000c 08BD     		pop	{r3, pc}
  48              		.cfi_endproc
  49              	.LFE197:
  51              		.section	.text.lv_obj_set_scrollbar_mode,"ax",%progbits
  52              		.align	1
  53              		.global	lv_obj_set_scrollbar_mode
  54              		.syntax unified
  55              		.thumb
  56              		.thumb_func
  58              	lv_obj_set_scrollbar_mode:
  59              	.LVL3:
ARM GAS  /var/folders/lp/x54gwt890xv47sdkqj1k04q40000gn/T//ccCdbJgg.s 			page 14


  60              	.LFB167:
  57:Drivers/lvgl/src/core/lv_obj_scroll.c ****     LV_ASSERT_OBJ(obj, MY_CLASS);
  61              		.loc 1 57 1 is_stmt 1 view -0
  62              		.cfi_startproc
  63              		@ args = 0, pretend = 0, frame = 0
  64              		@ frame_needed = 0, uses_anonymous_args = 0
  57:Drivers/lvgl/src/core/lv_obj_scroll.c ****     LV_ASSERT_OBJ(obj, MY_CLASS);
  65              		.loc 1 57 1 is_stmt 0 view .LVU6
  66 0000 38B5     		push	{r3, r4, r5, lr}
  67              		.cfi_def_cfa_offset 16
  68              		.cfi_offset 3, -16
  69              		.cfi_offset 4, -12
  70              		.cfi_offset 5, -8
  71              		.cfi_offset 14, -4
  72 0002 0446     		mov	r4, r0
  73 0004 0D46     		mov	r5, r1
  58:Drivers/lvgl/src/core/lv_obj_scroll.c **** 
  74              		.loc 1 58 5 is_stmt 1 view .LVU7
  58:Drivers/lvgl/src/core/lv_obj_scroll.c **** 
  75              		.loc 1 58 5 view .LVU8
  58:Drivers/lvgl/src/core/lv_obj_scroll.c **** 
  76              		.loc 1 58 5 view .LVU9
  60:Drivers/lvgl/src/core/lv_obj_scroll.c **** 
  77              		.loc 1 60 5 view .LVU10
  78 0006 FFF7FEFF 		bl	lv_obj_allocate_spec_attr
  79              	.LVL4:
  62:Drivers/lvgl/src/core/lv_obj_scroll.c ****     obj->spec_attr->scrollbar_mode = mode;
  80              		.loc 1 62 5 view .LVU11
  62:Drivers/lvgl/src/core/lv_obj_scroll.c ****     obj->spec_attr->scrollbar_mode = mode;
  81              		.loc 1 62 11 is_stmt 0 view .LVU12
  82 000a A268     		ldr	r2, [r4, #8]
  62:Drivers/lvgl/src/core/lv_obj_scroll.c ****     obj->spec_attr->scrollbar_mode = mode;
  83              		.loc 1 62 22 view .LVU13
  84 000c 137E     		ldrb	r3, [r2, #24]	@ zero_extendqisi2
  85 000e 03F00303 		and	r3, r3, #3
  62:Drivers/lvgl/src/core/lv_obj_scroll.c ****     obj->spec_attr->scrollbar_mode = mode;
  86              		.loc 1 62 7 view .LVU14
  87 0012 AB42     		cmp	r3, r5
  88 0014 06D0     		beq	.L3
  63:Drivers/lvgl/src/core/lv_obj_scroll.c ****     lv_obj_invalidate(obj);
  89              		.loc 1 63 5 is_stmt 1 view .LVU15
  63:Drivers/lvgl/src/core/lv_obj_scroll.c ****     lv_obj_invalidate(obj);
  90              		.loc 1 63 36 is_stmt 0 view .LVU16
  91 0016 137E     		ldrb	r3, [r2, #24]	@ zero_extendqisi2
  92 0018 65F30103 		bfi	r3, r5, #0, #2
  93 001c 1376     		strb	r3, [r2, #24]
  64:Drivers/lvgl/src/core/lv_obj_scroll.c **** }
  94              		.loc 1 64 5 is_stmt 1 view .LVU17
  95 001e 2046     		mov	r0, r4
  96 0020 FFF7FEFF 		bl	lv_obj_invalidate
  97              	.LVL5:
  98              	.L3:
  65:Drivers/lvgl/src/core/lv_obj_scroll.c **** 
  99              		.loc 1 65 1 is_stmt 0 view .LVU18
 100 0024 38BD     		pop	{r3, r4, r5, pc}
  65:Drivers/lvgl/src/core/lv_obj_scroll.c **** 
 101              		.loc 1 65 1 view .LVU19
ARM GAS  /var/folders/lp/x54gwt890xv47sdkqj1k04q40000gn/T//ccCdbJgg.s 			page 15


 102              		.cfi_endproc
 103              	.LFE167:
 105              		.section	.text.lv_obj_set_scroll_dir,"ax",%progbits
 106              		.align	1
 107              		.global	lv_obj_set_scroll_dir
 108              		.syntax unified
 109              		.thumb
 110              		.thumb_func
 112              	lv_obj_set_scroll_dir:
 113              	.LVL6:
 114              	.LFB168:
  68:Drivers/lvgl/src/core/lv_obj_scroll.c ****     lv_obj_allocate_spec_attr(obj);
 115              		.loc 1 68 1 is_stmt 1 view -0
 116              		.cfi_startproc
 117              		@ args = 0, pretend = 0, frame = 0
 118              		@ frame_needed = 0, uses_anonymous_args = 0
  68:Drivers/lvgl/src/core/lv_obj_scroll.c ****     lv_obj_allocate_spec_attr(obj);
 119              		.loc 1 68 1 is_stmt 0 view .LVU21
 120 0000 38B5     		push	{r3, r4, r5, lr}
 121              		.cfi_def_cfa_offset 16
 122              		.cfi_offset 3, -16
 123              		.cfi_offset 4, -12
 124              		.cfi_offset 5, -8
 125              		.cfi_offset 14, -4
 126 0002 0546     		mov	r5, r0
 127 0004 0C46     		mov	r4, r1
  69:Drivers/lvgl/src/core/lv_obj_scroll.c **** 
 128              		.loc 1 69 5 is_stmt 1 view .LVU22
 129 0006 FFF7FEFF 		bl	lv_obj_allocate_spec_attr
 130              	.LVL7:
  71:Drivers/lvgl/src/core/lv_obj_scroll.c ****         obj->spec_attr->scroll_dir = dir;
 131              		.loc 1 71 5 view .LVU23
  71:Drivers/lvgl/src/core/lv_obj_scroll.c ****         obj->spec_attr->scroll_dir = dir;
 132              		.loc 1 71 18 is_stmt 0 view .LVU24
 133 000a AA68     		ldr	r2, [r5, #8]
  71:Drivers/lvgl/src/core/lv_obj_scroll.c ****         obj->spec_attr->scroll_dir = dir;
 134              		.loc 1 71 29 view .LVU25
 135 000c 537E     		ldrb	r3, [r2, #25]	@ zero_extendqisi2
 136 000e 03F00F03 		and	r3, r3, #15
  71:Drivers/lvgl/src/core/lv_obj_scroll.c ****         obj->spec_attr->scroll_dir = dir;
 137              		.loc 1 71 7 view .LVU26
 138 0012 A342     		cmp	r3, r4
 139 0014 03D0     		beq	.L6
  72:Drivers/lvgl/src/core/lv_obj_scroll.c ****     }
 140              		.loc 1 72 9 is_stmt 1 view .LVU27
  72:Drivers/lvgl/src/core/lv_obj_scroll.c ****     }
 141              		.loc 1 72 36 is_stmt 0 view .LVU28
 142 0016 537E     		ldrb	r3, [r2, #25]	@ zero_extendqisi2
 143 0018 64F30303 		bfi	r3, r4, #0, #4
 144              	.LVL8:
  72:Drivers/lvgl/src/core/lv_obj_scroll.c ****     }
 145              		.loc 1 72 36 view .LVU29
 146 001c 5376     		strb	r3, [r2, #25]
 147              	.L6:
  74:Drivers/lvgl/src/core/lv_obj_scroll.c **** 
 148              		.loc 1 74 1 view .LVU30
 149 001e 38BD     		pop	{r3, r4, r5, pc}
ARM GAS  /var/folders/lp/x54gwt890xv47sdkqj1k04q40000gn/T//ccCdbJgg.s 			page 16


  74:Drivers/lvgl/src/core/lv_obj_scroll.c **** 
 150              		.loc 1 74 1 view .LVU31
 151              		.cfi_endproc
 152              	.LFE168:
 154              		.section	.text.lv_obj_set_scroll_snap_x,"ax",%progbits
 155              		.align	1
 156              		.global	lv_obj_set_scroll_snap_x
 157              		.syntax unified
 158              		.thumb
 159              		.thumb_func
 161              	lv_obj_set_scroll_snap_x:
 162              	.LVL9:
 163              	.LFB169:
  77:Drivers/lvgl/src/core/lv_obj_scroll.c ****     lv_obj_allocate_spec_attr(obj);
 164              		.loc 1 77 1 is_stmt 1 view -0
 165              		.cfi_startproc
 166              		@ args = 0, pretend = 0, frame = 0
 167              		@ frame_needed = 0, uses_anonymous_args = 0
  77:Drivers/lvgl/src/core/lv_obj_scroll.c ****     lv_obj_allocate_spec_attr(obj);
 168              		.loc 1 77 1 is_stmt 0 view .LVU33
 169 0000 38B5     		push	{r3, r4, r5, lr}
 170              		.cfi_def_cfa_offset 16
 171              		.cfi_offset 3, -16
 172              		.cfi_offset 4, -12
 173              		.cfi_offset 5, -8
 174              		.cfi_offset 14, -4
 175 0002 0546     		mov	r5, r0
 176 0004 0C46     		mov	r4, r1
  78:Drivers/lvgl/src/core/lv_obj_scroll.c ****     obj->spec_attr->scroll_snap_x = align;
 177              		.loc 1 78 5 is_stmt 1 view .LVU34
 178 0006 FFF7FEFF 		bl	lv_obj_allocate_spec_attr
 179              	.LVL10:
  79:Drivers/lvgl/src/core/lv_obj_scroll.c **** }
 180              		.loc 1 79 5 view .LVU35
  79:Drivers/lvgl/src/core/lv_obj_scroll.c **** }
 181              		.loc 1 79 8 is_stmt 0 view .LVU36
 182 000a AB68     		ldr	r3, [r5, #8]
  79:Drivers/lvgl/src/core/lv_obj_scroll.c **** }
 183              		.loc 1 79 35 view .LVU37
 184 000c 1A7E     		ldrb	r2, [r3, #24]	@ zero_extendqisi2
 185 000e 64F38302 		bfi	r2, r4, #2, #2
 186 0012 1A76     		strb	r2, [r3, #24]
  80:Drivers/lvgl/src/core/lv_obj_scroll.c **** 
 187              		.loc 1 80 1 view .LVU38
 188 0014 38BD     		pop	{r3, r4, r5, pc}
  80:Drivers/lvgl/src/core/lv_obj_scroll.c **** 
 189              		.loc 1 80 1 view .LVU39
 190              		.cfi_endproc
 191              	.LFE169:
 193              		.section	.text.lv_obj_set_scroll_snap_y,"ax",%progbits
 194              		.align	1
 195              		.global	lv_obj_set_scroll_snap_y
 196              		.syntax unified
 197              		.thumb
 198              		.thumb_func
 200              	lv_obj_set_scroll_snap_y:
 201              	.LVL11:
ARM GAS  /var/folders/lp/x54gwt890xv47sdkqj1k04q40000gn/T//ccCdbJgg.s 			page 17


 202              	.LFB170:
  83:Drivers/lvgl/src/core/lv_obj_scroll.c ****     lv_obj_allocate_spec_attr(obj);
 203              		.loc 1 83 1 is_stmt 1 view -0
 204              		.cfi_startproc
 205              		@ args = 0, pretend = 0, frame = 0
 206              		@ frame_needed = 0, uses_anonymous_args = 0
  83:Drivers/lvgl/src/core/lv_obj_scroll.c ****     lv_obj_allocate_spec_attr(obj);
 207              		.loc 1 83 1 is_stmt 0 view .LVU41
 208 0000 38B5     		push	{r3, r4, r5, lr}
 209              		.cfi_def_cfa_offset 16
 210              		.cfi_offset 3, -16
 211              		.cfi_offset 4, -12
 212              		.cfi_offset 5, -8
 213              		.cfi_offset 14, -4
 214 0002 0546     		mov	r5, r0
 215 0004 0C46     		mov	r4, r1
  84:Drivers/lvgl/src/core/lv_obj_scroll.c ****     obj->spec_attr->scroll_snap_y = align;
 216              		.loc 1 84 5 is_stmt 1 view .LVU42
 217 0006 FFF7FEFF 		bl	lv_obj_allocate_spec_attr
 218              	.LVL12:
  85:Drivers/lvgl/src/core/lv_obj_scroll.c **** }
 219              		.loc 1 85 5 view .LVU43
  85:Drivers/lvgl/src/core/lv_obj_scroll.c **** }
 220              		.loc 1 85 8 is_stmt 0 view .LVU44
 221 000a AB68     		ldr	r3, [r5, #8]
  85:Drivers/lvgl/src/core/lv_obj_scroll.c **** }
 222              		.loc 1 85 35 view .LVU45
 223 000c 1A7E     		ldrb	r2, [r3, #24]	@ zero_extendqisi2
 224 000e 64F30512 		bfi	r2, r4, #4, #2
 225 0012 1A76     		strb	r2, [r3, #24]
  86:Drivers/lvgl/src/core/lv_obj_scroll.c **** 
 226              		.loc 1 86 1 view .LVU46
 227 0014 38BD     		pop	{r3, r4, r5, pc}
  86:Drivers/lvgl/src/core/lv_obj_scroll.c **** 
 228              		.loc 1 86 1 view .LVU47
 229              		.cfi_endproc
 230              	.LFE170:
 232              		.section	.text.lv_obj_get_scrollbar_mode,"ax",%progbits
 233              		.align	1
 234              		.global	lv_obj_get_scrollbar_mode
 235              		.syntax unified
 236              		.thumb
 237              		.thumb_func
 239              	lv_obj_get_scrollbar_mode:
 240              	.LVL13:
 241              	.LFB171:
  93:Drivers/lvgl/src/core/lv_obj_scroll.c ****     if(obj->spec_attr) return obj->spec_attr->scrollbar_mode;
 242              		.loc 1 93 1 is_stmt 1 view -0
 243              		.cfi_startproc
 244              		@ args = 0, pretend = 0, frame = 0
 245              		@ frame_needed = 0, uses_anonymous_args = 0
 246              		@ link register save eliminated.
  94:Drivers/lvgl/src/core/lv_obj_scroll.c ****     else return LV_SCROLLBAR_MODE_AUTO;
 247              		.loc 1 94 5 view .LVU49
  94:Drivers/lvgl/src/core/lv_obj_scroll.c ****     else return LV_SCROLLBAR_MODE_AUTO;
 248              		.loc 1 94 11 is_stmt 0 view .LVU50
 249 0000 8368     		ldr	r3, [r0, #8]
ARM GAS  /var/folders/lp/x54gwt890xv47sdkqj1k04q40000gn/T//ccCdbJgg.s 			page 18


  94:Drivers/lvgl/src/core/lv_obj_scroll.c ****     else return LV_SCROLLBAR_MODE_AUTO;
 250              		.loc 1 94 7 view .LVU51
 251 0002 1BB1     		cbz	r3, .L15
  94:Drivers/lvgl/src/core/lv_obj_scroll.c ****     else return LV_SCROLLBAR_MODE_AUTO;
 252              		.loc 1 94 24 is_stmt 1 discriminator 1 view .LVU52
  94:Drivers/lvgl/src/core/lv_obj_scroll.c ****     else return LV_SCROLLBAR_MODE_AUTO;
 253              		.loc 1 94 45 is_stmt 0 discriminator 1 view .LVU53
 254 0004 187E     		ldrb	r0, [r3, #24]	@ zero_extendqisi2
 255              	.LVL14:
  94:Drivers/lvgl/src/core/lv_obj_scroll.c ****     else return LV_SCROLLBAR_MODE_AUTO;
 256              		.loc 1 94 45 discriminator 1 view .LVU54
 257 0006 00F00300 		and	r0, r0, #3
  94:Drivers/lvgl/src/core/lv_obj_scroll.c ****     else return LV_SCROLLBAR_MODE_AUTO;
 258              		.loc 1 94 45 view .LVU55
 259 000a 7047     		bx	lr
 260              	.LVL15:
 261              	.L15:
  95:Drivers/lvgl/src/core/lv_obj_scroll.c **** }
 262              		.loc 1 95 17 view .LVU56
 263 000c 0320     		movs	r0, #3
 264              	.LVL16:
  96:Drivers/lvgl/src/core/lv_obj_scroll.c **** 
 265              		.loc 1 96 1 view .LVU57
 266 000e 7047     		bx	lr
 267              		.cfi_endproc
 268              	.LFE171:
 270              		.section	.text.lv_obj_get_scroll_dir,"ax",%progbits
 271              		.align	1
 272              		.global	lv_obj_get_scroll_dir
 273              		.syntax unified
 274              		.thumb
 275              		.thumb_func
 277              	lv_obj_get_scroll_dir:
 278              	.LVL17:
 279              	.LFB172:
  99:Drivers/lvgl/src/core/lv_obj_scroll.c ****     if(obj->spec_attr) return obj->spec_attr->scroll_dir;
 280              		.loc 1 99 1 is_stmt 1 view -0
 281              		.cfi_startproc
 282              		@ args = 0, pretend = 0, frame = 0
 283              		@ frame_needed = 0, uses_anonymous_args = 0
 284              		@ link register save eliminated.
 100:Drivers/lvgl/src/core/lv_obj_scroll.c ****     else return LV_DIR_ALL;
 285              		.loc 1 100 5 view .LVU59
 100:Drivers/lvgl/src/core/lv_obj_scroll.c ****     else return LV_DIR_ALL;
 286              		.loc 1 100 11 is_stmt 0 view .LVU60
 287 0000 8368     		ldr	r3, [r0, #8]
 100:Drivers/lvgl/src/core/lv_obj_scroll.c ****     else return LV_DIR_ALL;
 288              		.loc 1 100 7 view .LVU61
 289 0002 1BB1     		cbz	r3, .L18
 100:Drivers/lvgl/src/core/lv_obj_scroll.c ****     else return LV_DIR_ALL;
 290              		.loc 1 100 24 is_stmt 1 discriminator 1 view .LVU62
 100:Drivers/lvgl/src/core/lv_obj_scroll.c ****     else return LV_DIR_ALL;
 291              		.loc 1 100 45 is_stmt 0 discriminator 1 view .LVU63
 292 0004 587E     		ldrb	r0, [r3, #25]	@ zero_extendqisi2
 293              	.LVL18:
 100:Drivers/lvgl/src/core/lv_obj_scroll.c ****     else return LV_DIR_ALL;
 294              		.loc 1 100 45 discriminator 1 view .LVU64
ARM GAS  /var/folders/lp/x54gwt890xv47sdkqj1k04q40000gn/T//ccCdbJgg.s 			page 19


 295 0006 00F00F00 		and	r0, r0, #15
 100:Drivers/lvgl/src/core/lv_obj_scroll.c ****     else return LV_DIR_ALL;
 296              		.loc 1 100 45 view .LVU65
 297 000a 7047     		bx	lr
 298              	.LVL19:
 299              	.L18:
 101:Drivers/lvgl/src/core/lv_obj_scroll.c **** }
 300              		.loc 1 101 17 view .LVU66
 301 000c 0F20     		movs	r0, #15
 302              	.LVL20:
 102:Drivers/lvgl/src/core/lv_obj_scroll.c **** 
 303              		.loc 1 102 1 view .LVU67
 304 000e 7047     		bx	lr
 305              		.cfi_endproc
 306              	.LFE172:
 308              		.section	.text.lv_obj_get_scroll_snap_x,"ax",%progbits
 309              		.align	1
 310              		.global	lv_obj_get_scroll_snap_x
 311              		.syntax unified
 312              		.thumb
 313              		.thumb_func
 315              	lv_obj_get_scroll_snap_x:
 316              	.LVL21:
 317              	.LFB173:
 105:Drivers/lvgl/src/core/lv_obj_scroll.c ****     if(obj->spec_attr) return obj->spec_attr->scroll_snap_x;
 318              		.loc 1 105 1 is_stmt 1 view -0
 319              		.cfi_startproc
 320              		@ args = 0, pretend = 0, frame = 0
 321              		@ frame_needed = 0, uses_anonymous_args = 0
 322              		@ link register save eliminated.
 106:Drivers/lvgl/src/core/lv_obj_scroll.c ****     else return LV_SCROLL_SNAP_NONE;
 323              		.loc 1 106 5 view .LVU69
 106:Drivers/lvgl/src/core/lv_obj_scroll.c ****     else return LV_SCROLL_SNAP_NONE;
 324              		.loc 1 106 11 is_stmt 0 view .LVU70
 325 0000 8368     		ldr	r3, [r0, #8]
 106:Drivers/lvgl/src/core/lv_obj_scroll.c ****     else return LV_SCROLL_SNAP_NONE;
 326              		.loc 1 106 7 view .LVU71
 327 0002 1BB1     		cbz	r3, .L21
 106:Drivers/lvgl/src/core/lv_obj_scroll.c ****     else return LV_SCROLL_SNAP_NONE;
 328              		.loc 1 106 24 is_stmt 1 discriminator 1 view .LVU72
 106:Drivers/lvgl/src/core/lv_obj_scroll.c ****     else return LV_SCROLL_SNAP_NONE;
 329              		.loc 1 106 45 is_stmt 0 discriminator 1 view .LVU73
 330 0004 187E     		ldrb	r0, [r3, #24]	@ zero_extendqisi2
 331              	.LVL22:
 106:Drivers/lvgl/src/core/lv_obj_scroll.c ****     else return LV_SCROLL_SNAP_NONE;
 332              		.loc 1 106 45 discriminator 1 view .LVU74
 333 0006 C0F38100 		ubfx	r0, r0, #2, #2
 106:Drivers/lvgl/src/core/lv_obj_scroll.c ****     else return LV_SCROLL_SNAP_NONE;
 334              		.loc 1 106 45 view .LVU75
 335 000a 7047     		bx	lr
 336              	.LVL23:
 337              	.L21:
 107:Drivers/lvgl/src/core/lv_obj_scroll.c **** }
 338              		.loc 1 107 17 view .LVU76
 339 000c 0020     		movs	r0, #0
 340              	.LVL24:
 108:Drivers/lvgl/src/core/lv_obj_scroll.c **** 
ARM GAS  /var/folders/lp/x54gwt890xv47sdkqj1k04q40000gn/T//ccCdbJgg.s 			page 20


 341              		.loc 1 108 1 view .LVU77
 342 000e 7047     		bx	lr
 343              		.cfi_endproc
 344              	.LFE173:
 346              		.section	.text.lv_obj_get_scroll_snap_y,"ax",%progbits
 347              		.align	1
 348              		.global	lv_obj_get_scroll_snap_y
 349              		.syntax unified
 350              		.thumb
 351              		.thumb_func
 353              	lv_obj_get_scroll_snap_y:
 354              	.LVL25:
 355              	.LFB174:
 111:Drivers/lvgl/src/core/lv_obj_scroll.c ****     if(obj->spec_attr) return obj->spec_attr->scroll_snap_y;
 356              		.loc 1 111 1 is_stmt 1 view -0
 357              		.cfi_startproc
 358              		@ args = 0, pretend = 0, frame = 0
 359              		@ frame_needed = 0, uses_anonymous_args = 0
 360              		@ link register save eliminated.
 112:Drivers/lvgl/src/core/lv_obj_scroll.c ****     else return LV_SCROLL_SNAP_NONE;
 361              		.loc 1 112 5 view .LVU79
 112:Drivers/lvgl/src/core/lv_obj_scroll.c ****     else return LV_SCROLL_SNAP_NONE;
 362              		.loc 1 112 11 is_stmt 0 view .LVU80
 363 0000 8368     		ldr	r3, [r0, #8]
 112:Drivers/lvgl/src/core/lv_obj_scroll.c ****     else return LV_SCROLL_SNAP_NONE;
 364              		.loc 1 112 7 view .LVU81
 365 0002 1BB1     		cbz	r3, .L24
 112:Drivers/lvgl/src/core/lv_obj_scroll.c ****     else return LV_SCROLL_SNAP_NONE;
 366              		.loc 1 112 24 is_stmt 1 discriminator 1 view .LVU82
 112:Drivers/lvgl/src/core/lv_obj_scroll.c ****     else return LV_SCROLL_SNAP_NONE;
 367              		.loc 1 112 45 is_stmt 0 discriminator 1 view .LVU83
 368 0004 187E     		ldrb	r0, [r3, #24]	@ zero_extendqisi2
 369              	.LVL26:
 112:Drivers/lvgl/src/core/lv_obj_scroll.c ****     else return LV_SCROLL_SNAP_NONE;
 370              		.loc 1 112 45 discriminator 1 view .LVU84
 371 0006 C0F30110 		ubfx	r0, r0, #4, #2
 112:Drivers/lvgl/src/core/lv_obj_scroll.c ****     else return LV_SCROLL_SNAP_NONE;
 372              		.loc 1 112 45 view .LVU85
 373 000a 7047     		bx	lr
 374              	.LVL27:
 375              	.L24:
 113:Drivers/lvgl/src/core/lv_obj_scroll.c **** }
 376              		.loc 1 113 17 view .LVU86
 377 000c 0020     		movs	r0, #0
 378              	.LVL28:
 114:Drivers/lvgl/src/core/lv_obj_scroll.c **** 
 379              		.loc 1 114 1 view .LVU87
 380 000e 7047     		bx	lr
 381              		.cfi_endproc
 382              	.LFE174:
 384              		.section	.text.lv_obj_get_scroll_x,"ax",%progbits
 385              		.align	1
 386              		.global	lv_obj_get_scroll_x
 387              		.syntax unified
 388              		.thumb
 389              		.thumb_func
 391              	lv_obj_get_scroll_x:
ARM GAS  /var/folders/lp/x54gwt890xv47sdkqj1k04q40000gn/T//ccCdbJgg.s 			page 21


 392              	.LVL29:
 393              	.LFB175:
 117:Drivers/lvgl/src/core/lv_obj_scroll.c ****     if(obj->spec_attr == NULL) return 0;
 394              		.loc 1 117 1 is_stmt 1 view -0
 395              		.cfi_startproc
 396              		@ args = 0, pretend = 0, frame = 0
 397              		@ frame_needed = 0, uses_anonymous_args = 0
 398              		@ link register save eliminated.
 118:Drivers/lvgl/src/core/lv_obj_scroll.c ****     return -obj->spec_attr->scroll.x;
 399              		.loc 1 118 5 view .LVU89
 118:Drivers/lvgl/src/core/lv_obj_scroll.c ****     return -obj->spec_attr->scroll.x;
 400              		.loc 1 118 11 is_stmt 0 view .LVU90
 401 0000 8368     		ldr	r3, [r0, #8]
 118:Drivers/lvgl/src/core/lv_obj_scroll.c ****     return -obj->spec_attr->scroll.x;
 402              		.loc 1 118 7 view .LVU91
 403 0002 1BB1     		cbz	r3, .L27
 119:Drivers/lvgl/src/core/lv_obj_scroll.c **** }
 404              		.loc 1 119 5 is_stmt 1 view .LVU92
 119:Drivers/lvgl/src/core/lv_obj_scroll.c **** }
 405              		.loc 1 119 35 is_stmt 0 view .LVU93
 406 0004 188A     		ldrh	r0, [r3, #16]
 407              	.LVL30:
 119:Drivers/lvgl/src/core/lv_obj_scroll.c **** }
 408              		.loc 1 119 12 view .LVU94
 409 0006 4042     		rsbs	r0, r0, #0
 410 0008 00B2     		sxth	r0, r0
 411 000a 7047     		bx	lr
 412              	.LVL31:
 413              	.L27:
 118:Drivers/lvgl/src/core/lv_obj_scroll.c ****     return -obj->spec_attr->scroll.x;
 414              		.loc 1 118 39 discriminator 1 view .LVU95
 415 000c 0020     		movs	r0, #0
 416              	.LVL32:
 120:Drivers/lvgl/src/core/lv_obj_scroll.c **** 
 417              		.loc 1 120 1 view .LVU96
 418 000e 7047     		bx	lr
 419              		.cfi_endproc
 420              	.LFE175:
 422              		.section	.text.lv_obj_get_scroll_y,"ax",%progbits
 423              		.align	1
 424              		.global	lv_obj_get_scroll_y
 425              		.syntax unified
 426              		.thumb
 427              		.thumb_func
 429              	lv_obj_get_scroll_y:
 430              	.LVL33:
 431              	.LFB176:
 123:Drivers/lvgl/src/core/lv_obj_scroll.c ****     if(obj->spec_attr == NULL) return 0;
 432              		.loc 1 123 1 is_stmt 1 view -0
 433              		.cfi_startproc
 434              		@ args = 0, pretend = 0, frame = 0
 435              		@ frame_needed = 0, uses_anonymous_args = 0
 436              		@ link register save eliminated.
 124:Drivers/lvgl/src/core/lv_obj_scroll.c ****     return -obj->spec_attr->scroll.y;
 437              		.loc 1 124 5 view .LVU98
 124:Drivers/lvgl/src/core/lv_obj_scroll.c ****     return -obj->spec_attr->scroll.y;
 438              		.loc 1 124 11 is_stmt 0 view .LVU99
ARM GAS  /var/folders/lp/x54gwt890xv47sdkqj1k04q40000gn/T//ccCdbJgg.s 			page 22


 439 0000 8368     		ldr	r3, [r0, #8]
 124:Drivers/lvgl/src/core/lv_obj_scroll.c ****     return -obj->spec_attr->scroll.y;
 440              		.loc 1 124 7 view .LVU100
 441 0002 1BB1     		cbz	r3, .L30
 125:Drivers/lvgl/src/core/lv_obj_scroll.c **** }
 442              		.loc 1 125 5 is_stmt 1 view .LVU101
 125:Drivers/lvgl/src/core/lv_obj_scroll.c **** }
 443              		.loc 1 125 35 is_stmt 0 view .LVU102
 444 0004 588A     		ldrh	r0, [r3, #18]
 445              	.LVL34:
 125:Drivers/lvgl/src/core/lv_obj_scroll.c **** }
 446              		.loc 1 125 12 view .LVU103
 447 0006 4042     		rsbs	r0, r0, #0
 448 0008 00B2     		sxth	r0, r0
 449 000a 7047     		bx	lr
 450              	.LVL35:
 451              	.L30:
 124:Drivers/lvgl/src/core/lv_obj_scroll.c ****     return -obj->spec_attr->scroll.y;
 452              		.loc 1 124 39 discriminator 1 view .LVU104
 453 000c 0020     		movs	r0, #0
 454              	.LVL36:
 126:Drivers/lvgl/src/core/lv_obj_scroll.c **** 
 455              		.loc 1 126 1 view .LVU105
 456 000e 7047     		bx	lr
 457              		.cfi_endproc
 458              	.LFE176:
 460              		.section	.text.lv_obj_get_scroll_top,"ax",%progbits
 461              		.align	1
 462              		.global	lv_obj_get_scroll_top
 463              		.syntax unified
 464              		.thumb
 465              		.thumb_func
 467              	lv_obj_get_scroll_top:
 468              	.LVL37:
 469              	.LFB177:
 129:Drivers/lvgl/src/core/lv_obj_scroll.c ****     if(obj->spec_attr == NULL) return 0;
 470              		.loc 1 129 1 is_stmt 1 view -0
 471              		.cfi_startproc
 472              		@ args = 0, pretend = 0, frame = 0
 473              		@ frame_needed = 0, uses_anonymous_args = 0
 474              		@ link register save eliminated.
 130:Drivers/lvgl/src/core/lv_obj_scroll.c ****     return -obj->spec_attr->scroll.y;
 475              		.loc 1 130 5 view .LVU107
 130:Drivers/lvgl/src/core/lv_obj_scroll.c ****     return -obj->spec_attr->scroll.y;
 476              		.loc 1 130 11 is_stmt 0 view .LVU108
 477 0000 8368     		ldr	r3, [r0, #8]
 130:Drivers/lvgl/src/core/lv_obj_scroll.c ****     return -obj->spec_attr->scroll.y;
 478              		.loc 1 130 7 view .LVU109
 479 0002 1BB1     		cbz	r3, .L33
 131:Drivers/lvgl/src/core/lv_obj_scroll.c **** }
 480              		.loc 1 131 5 is_stmt 1 view .LVU110
 131:Drivers/lvgl/src/core/lv_obj_scroll.c **** }
 481              		.loc 1 131 35 is_stmt 0 view .LVU111
 482 0004 588A     		ldrh	r0, [r3, #18]
 483              	.LVL38:
 131:Drivers/lvgl/src/core/lv_obj_scroll.c **** }
 484              		.loc 1 131 12 view .LVU112
ARM GAS  /var/folders/lp/x54gwt890xv47sdkqj1k04q40000gn/T//ccCdbJgg.s 			page 23


 485 0006 4042     		rsbs	r0, r0, #0
 486 0008 00B2     		sxth	r0, r0
 487 000a 7047     		bx	lr
 488              	.LVL39:
 489              	.L33:
 130:Drivers/lvgl/src/core/lv_obj_scroll.c ****     return -obj->spec_attr->scroll.y;
 490              		.loc 1 130 39 discriminator 1 view .LVU113
 491 000c 0020     		movs	r0, #0
 492              	.LVL40:
 132:Drivers/lvgl/src/core/lv_obj_scroll.c **** 
 493              		.loc 1 132 1 view .LVU114
 494 000e 7047     		bx	lr
 495              		.cfi_endproc
 496              	.LFE177:
 498              		.section	.text.lv_obj_get_scroll_bottom,"ax",%progbits
 499              		.align	1
 500              		.global	lv_obj_get_scroll_bottom
 501              		.syntax unified
 502              		.thumb
 503              		.thumb_func
 505              	lv_obj_get_scroll_bottom:
 506              	.LVL41:
 507              	.LFB178:
 135:Drivers/lvgl/src/core/lv_obj_scroll.c ****     LV_ASSERT_OBJ(obj, MY_CLASS);
 508              		.loc 1 135 1 is_stmt 1 view -0
 509              		.cfi_startproc
 510              		@ args = 0, pretend = 0, frame = 0
 511              		@ frame_needed = 0, uses_anonymous_args = 0
 135:Drivers/lvgl/src/core/lv_obj_scroll.c ****     LV_ASSERT_OBJ(obj, MY_CLASS);
 512              		.loc 1 135 1 is_stmt 0 view .LVU116
 513 0000 2DE9F843 		push	{r3, r4, r5, r6, r7, r8, r9, lr}
 514              		.cfi_def_cfa_offset 32
 515              		.cfi_offset 3, -32
 516              		.cfi_offset 4, -28
 517              		.cfi_offset 5, -24
 518              		.cfi_offset 6, -20
 519              		.cfi_offset 7, -16
 520              		.cfi_offset 8, -12
 521              		.cfi_offset 9, -8
 522              		.cfi_offset 14, -4
 523 0004 0646     		mov	r6, r0
 136:Drivers/lvgl/src/core/lv_obj_scroll.c **** 
 524              		.loc 1 136 5 is_stmt 1 view .LVU117
 136:Drivers/lvgl/src/core/lv_obj_scroll.c **** 
 525              		.loc 1 136 5 view .LVU118
 136:Drivers/lvgl/src/core/lv_obj_scroll.c **** 
 526              		.loc 1 136 5 view .LVU119
 138:Drivers/lvgl/src/core/lv_obj_scroll.c ****     uint32_t i;
 527              		.loc 1 138 5 view .LVU120
 528              	.LVL42:
 139:Drivers/lvgl/src/core/lv_obj_scroll.c ****     uint32_t child_cnt = lv_obj_get_child_cnt(obj);
 529              		.loc 1 139 5 view .LVU121
 140:Drivers/lvgl/src/core/lv_obj_scroll.c ****     for(i = 0; i < child_cnt; i++) {
 530              		.loc 1 140 5 view .LVU122
 140:Drivers/lvgl/src/core/lv_obj_scroll.c ****     for(i = 0; i < child_cnt; i++) {
 531              		.loc 1 140 26 is_stmt 0 view .LVU123
 532 0006 FFF7FEFF 		bl	lv_obj_get_child_cnt
ARM GAS  /var/folders/lp/x54gwt890xv47sdkqj1k04q40000gn/T//ccCdbJgg.s 			page 24


 533              	.LVL43:
 140:Drivers/lvgl/src/core/lv_obj_scroll.c ****     for(i = 0; i < child_cnt; i++) {
 534              		.loc 1 140 26 view .LVU124
 535 000a 8046     		mov	r8, r0
 536              	.LVL44:
 141:Drivers/lvgl/src/core/lv_obj_scroll.c ****         lv_obj_t * child = obj->spec_attr->children[i];
 537              		.loc 1 141 5 is_stmt 1 view .LVU125
 141:Drivers/lvgl/src/core/lv_obj_scroll.c ****         lv_obj_t * child = obj->spec_attr->children[i];
 538              		.loc 1 141 11 is_stmt 0 view .LVU126
 539 000c 0024     		movs	r4, #0
 138:Drivers/lvgl/src/core/lv_obj_scroll.c ****     uint32_t i;
 540              		.loc 1 138 16 view .LVU127
 541 000e 264F     		ldr	r7, .L42
 141:Drivers/lvgl/src/core/lv_obj_scroll.c ****         lv_obj_t * child = obj->spec_attr->children[i];
 542              		.loc 1 141 5 view .LVU128
 543 0010 05E0     		b	.L35
 544              	.LVL45:
 545              	.L41:
 546              	.LBB99:
 144:Drivers/lvgl/src/core/lv_obj_scroll.c ****     }
 547              		.loc 1 144 9 is_stmt 1 view .LVU129
 144:Drivers/lvgl/src/core/lv_obj_scroll.c ****     }
 548              		.loc 1 144 21 is_stmt 0 view .LVU130
 549 0012 B5F91A30 		ldrsh	r3, [r5, #26]
 144:Drivers/lvgl/src/core/lv_obj_scroll.c ****     }
 550              		.loc 1 144 19 view .LVU131
 551 0016 9F42     		cmp	r7, r3
 552 0018 B8BF     		it	lt
 553 001a 1F46     		movlt	r7, r3
 554              	.LVL46:
 555              	.L36:
 144:Drivers/lvgl/src/core/lv_obj_scroll.c ****     }
 556              		.loc 1 144 19 view .LVU132
 557              	.LBE99:
 141:Drivers/lvgl/src/core/lv_obj_scroll.c ****         lv_obj_t * child = obj->spec_attr->children[i];
 558              		.loc 1 141 32 is_stmt 1 discriminator 2 view .LVU133
 559 001c 0134     		adds	r4, r4, #1
 560              	.LVL47:
 561              	.L35:
 141:Drivers/lvgl/src/core/lv_obj_scroll.c ****         lv_obj_t * child = obj->spec_attr->children[i];
 562              		.loc 1 141 18 discriminator 1 view .LVU134
 563 001e 4445     		cmp	r4, r8
 564 0020 0AD2     		bcs	.L40
 565              	.LBB100:
 142:Drivers/lvgl/src/core/lv_obj_scroll.c ****         if(lv_obj_has_flag_any(child,  LV_OBJ_FLAG_HIDDEN | LV_OBJ_FLAG_FLOATING)) continue;
 566              		.loc 1 142 9 view .LVU135
 142:Drivers/lvgl/src/core/lv_obj_scroll.c ****         if(lv_obj_has_flag_any(child,  LV_OBJ_FLAG_HIDDEN | LV_OBJ_FLAG_FLOATING)) continue;
 567              		.loc 1 142 31 is_stmt 0 view .LVU136
 568 0022 B368     		ldr	r3, [r6, #8]
 142:Drivers/lvgl/src/core/lv_obj_scroll.c ****         if(lv_obj_has_flag_any(child,  LV_OBJ_FLAG_HIDDEN | LV_OBJ_FLAG_FLOATING)) continue;
 569              		.loc 1 142 42 view .LVU137
 570 0024 1B68     		ldr	r3, [r3]
 142:Drivers/lvgl/src/core/lv_obj_scroll.c ****         if(lv_obj_has_flag_any(child,  LV_OBJ_FLAG_HIDDEN | LV_OBJ_FLAG_FLOATING)) continue;
 571              		.loc 1 142 20 view .LVU138
 572 0026 53F82450 		ldr	r5, [r3, r4, lsl #2]
 573              	.LVL48:
 143:Drivers/lvgl/src/core/lv_obj_scroll.c ****         child_res = LV_MAX(child_res, child->coords.y2);
ARM GAS  /var/folders/lp/x54gwt890xv47sdkqj1k04q40000gn/T//ccCdbJgg.s 			page 25


 574              		.loc 1 143 9 is_stmt 1 view .LVU139
 143:Drivers/lvgl/src/core/lv_obj_scroll.c ****         child_res = LV_MAX(child_res, child->coords.y2);
 575              		.loc 1 143 12 is_stmt 0 view .LVU140
 576 002a 2049     		ldr	r1, .L42+4
 577 002c 2846     		mov	r0, r5
 578 002e FFF7FEFF 		bl	lv_obj_has_flag_any
 579              	.LVL49:
 143:Drivers/lvgl/src/core/lv_obj_scroll.c ****         child_res = LV_MAX(child_res, child->coords.y2);
 580              		.loc 1 143 11 discriminator 1 view .LVU141
 581 0032 0028     		cmp	r0, #0
 582 0034 EDD0     		beq	.L41
 583 0036 F1E7     		b	.L36
 584              	.LVL50:
 585              	.L40:
 143:Drivers/lvgl/src/core/lv_obj_scroll.c ****         child_res = LV_MAX(child_res, child->coords.y2);
 586              		.loc 1 143 11 discriminator 1 view .LVU142
 587              	.LBE100:
 147:Drivers/lvgl/src/core/lv_obj_scroll.c ****     lv_coord_t pad_bottom = lv_obj_get_style_pad_bottom(obj, LV_PART_MAIN);
 588              		.loc 1 147 5 is_stmt 1 view .LVU143
 589              	.LBB101:
 590              	.LBI101:
 591              		.file 2 "Drivers/lvgl/src/core/lv_obj_style_gen.h"
   1:Drivers/lvgl/src/core/lv_obj_style_gen.h **** static inline lv_coord_t lv_obj_get_style_width(const struct _lv_obj_t * obj, uint32_t part)
   2:Drivers/lvgl/src/core/lv_obj_style_gen.h **** {
   3:Drivers/lvgl/src/core/lv_obj_style_gen.h ****     lv_style_value_t v = lv_obj_get_style_prop(obj, part, LV_STYLE_WIDTH);
   4:Drivers/lvgl/src/core/lv_obj_style_gen.h ****     return (lv_coord_t)v.num;
   5:Drivers/lvgl/src/core/lv_obj_style_gen.h **** }
   6:Drivers/lvgl/src/core/lv_obj_style_gen.h **** 
   7:Drivers/lvgl/src/core/lv_obj_style_gen.h **** static inline lv_coord_t lv_obj_get_style_min_width(const struct _lv_obj_t * obj, uint32_t part)
   8:Drivers/lvgl/src/core/lv_obj_style_gen.h **** {
   9:Drivers/lvgl/src/core/lv_obj_style_gen.h ****     lv_style_value_t v = lv_obj_get_style_prop(obj, part, LV_STYLE_MIN_WIDTH);
  10:Drivers/lvgl/src/core/lv_obj_style_gen.h ****     return (lv_coord_t)v.num;
  11:Drivers/lvgl/src/core/lv_obj_style_gen.h **** }
  12:Drivers/lvgl/src/core/lv_obj_style_gen.h **** 
  13:Drivers/lvgl/src/core/lv_obj_style_gen.h **** static inline lv_coord_t lv_obj_get_style_max_width(const struct _lv_obj_t * obj, uint32_t part)
  14:Drivers/lvgl/src/core/lv_obj_style_gen.h **** {
  15:Drivers/lvgl/src/core/lv_obj_style_gen.h ****     lv_style_value_t v = lv_obj_get_style_prop(obj, part, LV_STYLE_MAX_WIDTH);
  16:Drivers/lvgl/src/core/lv_obj_style_gen.h ****     return (lv_coord_t)v.num;
  17:Drivers/lvgl/src/core/lv_obj_style_gen.h **** }
  18:Drivers/lvgl/src/core/lv_obj_style_gen.h **** 
  19:Drivers/lvgl/src/core/lv_obj_style_gen.h **** static inline lv_coord_t lv_obj_get_style_height(const struct _lv_obj_t * obj, uint32_t part)
  20:Drivers/lvgl/src/core/lv_obj_style_gen.h **** {
  21:Drivers/lvgl/src/core/lv_obj_style_gen.h ****     lv_style_value_t v = lv_obj_get_style_prop(obj, part, LV_STYLE_HEIGHT);
  22:Drivers/lvgl/src/core/lv_obj_style_gen.h ****     return (lv_coord_t)v.num;
  23:Drivers/lvgl/src/core/lv_obj_style_gen.h **** }
  24:Drivers/lvgl/src/core/lv_obj_style_gen.h **** 
  25:Drivers/lvgl/src/core/lv_obj_style_gen.h **** static inline lv_coord_t lv_obj_get_style_min_height(const struct _lv_obj_t * obj, uint32_t part)
  26:Drivers/lvgl/src/core/lv_obj_style_gen.h **** {
  27:Drivers/lvgl/src/core/lv_obj_style_gen.h ****     lv_style_value_t v = lv_obj_get_style_prop(obj, part, LV_STYLE_MIN_HEIGHT);
  28:Drivers/lvgl/src/core/lv_obj_style_gen.h ****     return (lv_coord_t)v.num;
  29:Drivers/lvgl/src/core/lv_obj_style_gen.h **** }
  30:Drivers/lvgl/src/core/lv_obj_style_gen.h **** 
  31:Drivers/lvgl/src/core/lv_obj_style_gen.h **** static inline lv_coord_t lv_obj_get_style_max_height(const struct _lv_obj_t * obj, uint32_t part)
  32:Drivers/lvgl/src/core/lv_obj_style_gen.h **** {
  33:Drivers/lvgl/src/core/lv_obj_style_gen.h ****     lv_style_value_t v = lv_obj_get_style_prop(obj, part, LV_STYLE_MAX_HEIGHT);
  34:Drivers/lvgl/src/core/lv_obj_style_gen.h ****     return (lv_coord_t)v.num;
  35:Drivers/lvgl/src/core/lv_obj_style_gen.h **** }
ARM GAS  /var/folders/lp/x54gwt890xv47sdkqj1k04q40000gn/T//ccCdbJgg.s 			page 26


  36:Drivers/lvgl/src/core/lv_obj_style_gen.h **** 
  37:Drivers/lvgl/src/core/lv_obj_style_gen.h **** static inline lv_coord_t lv_obj_get_style_x(const struct _lv_obj_t * obj, uint32_t part)
  38:Drivers/lvgl/src/core/lv_obj_style_gen.h **** {
  39:Drivers/lvgl/src/core/lv_obj_style_gen.h ****     lv_style_value_t v = lv_obj_get_style_prop(obj, part, LV_STYLE_X);
  40:Drivers/lvgl/src/core/lv_obj_style_gen.h ****     return (lv_coord_t)v.num;
  41:Drivers/lvgl/src/core/lv_obj_style_gen.h **** }
  42:Drivers/lvgl/src/core/lv_obj_style_gen.h **** 
  43:Drivers/lvgl/src/core/lv_obj_style_gen.h **** static inline lv_coord_t lv_obj_get_style_y(const struct _lv_obj_t * obj, uint32_t part)
  44:Drivers/lvgl/src/core/lv_obj_style_gen.h **** {
  45:Drivers/lvgl/src/core/lv_obj_style_gen.h ****     lv_style_value_t v = lv_obj_get_style_prop(obj, part, LV_STYLE_Y);
  46:Drivers/lvgl/src/core/lv_obj_style_gen.h ****     return (lv_coord_t)v.num;
  47:Drivers/lvgl/src/core/lv_obj_style_gen.h **** }
  48:Drivers/lvgl/src/core/lv_obj_style_gen.h **** 
  49:Drivers/lvgl/src/core/lv_obj_style_gen.h **** static inline lv_align_t lv_obj_get_style_align(const struct _lv_obj_t * obj, uint32_t part)
  50:Drivers/lvgl/src/core/lv_obj_style_gen.h **** {
  51:Drivers/lvgl/src/core/lv_obj_style_gen.h ****     lv_style_value_t v = lv_obj_get_style_prop(obj, part, LV_STYLE_ALIGN);
  52:Drivers/lvgl/src/core/lv_obj_style_gen.h ****     return (lv_align_t)v.num;
  53:Drivers/lvgl/src/core/lv_obj_style_gen.h **** }
  54:Drivers/lvgl/src/core/lv_obj_style_gen.h **** 
  55:Drivers/lvgl/src/core/lv_obj_style_gen.h **** static inline lv_coord_t lv_obj_get_style_transform_width(const struct _lv_obj_t * obj, uint32_t pa
  56:Drivers/lvgl/src/core/lv_obj_style_gen.h **** {
  57:Drivers/lvgl/src/core/lv_obj_style_gen.h ****     lv_style_value_t v = lv_obj_get_style_prop(obj, part, LV_STYLE_TRANSFORM_WIDTH);
  58:Drivers/lvgl/src/core/lv_obj_style_gen.h ****     return (lv_coord_t)v.num;
  59:Drivers/lvgl/src/core/lv_obj_style_gen.h **** }
  60:Drivers/lvgl/src/core/lv_obj_style_gen.h **** 
  61:Drivers/lvgl/src/core/lv_obj_style_gen.h **** static inline lv_coord_t lv_obj_get_style_transform_height(const struct _lv_obj_t * obj, uint32_t p
  62:Drivers/lvgl/src/core/lv_obj_style_gen.h **** {
  63:Drivers/lvgl/src/core/lv_obj_style_gen.h ****     lv_style_value_t v = lv_obj_get_style_prop(obj, part, LV_STYLE_TRANSFORM_HEIGHT);
  64:Drivers/lvgl/src/core/lv_obj_style_gen.h ****     return (lv_coord_t)v.num;
  65:Drivers/lvgl/src/core/lv_obj_style_gen.h **** }
  66:Drivers/lvgl/src/core/lv_obj_style_gen.h **** 
  67:Drivers/lvgl/src/core/lv_obj_style_gen.h **** static inline lv_coord_t lv_obj_get_style_translate_x(const struct _lv_obj_t * obj, uint32_t part)
  68:Drivers/lvgl/src/core/lv_obj_style_gen.h **** {
  69:Drivers/lvgl/src/core/lv_obj_style_gen.h ****     lv_style_value_t v = lv_obj_get_style_prop(obj, part, LV_STYLE_TRANSLATE_X);
  70:Drivers/lvgl/src/core/lv_obj_style_gen.h ****     return (lv_coord_t)v.num;
  71:Drivers/lvgl/src/core/lv_obj_style_gen.h **** }
  72:Drivers/lvgl/src/core/lv_obj_style_gen.h **** 
  73:Drivers/lvgl/src/core/lv_obj_style_gen.h **** static inline lv_coord_t lv_obj_get_style_translate_y(const struct _lv_obj_t * obj, uint32_t part)
  74:Drivers/lvgl/src/core/lv_obj_style_gen.h **** {
  75:Drivers/lvgl/src/core/lv_obj_style_gen.h ****     lv_style_value_t v = lv_obj_get_style_prop(obj, part, LV_STYLE_TRANSLATE_Y);
  76:Drivers/lvgl/src/core/lv_obj_style_gen.h ****     return (lv_coord_t)v.num;
  77:Drivers/lvgl/src/core/lv_obj_style_gen.h **** }
  78:Drivers/lvgl/src/core/lv_obj_style_gen.h **** 
  79:Drivers/lvgl/src/core/lv_obj_style_gen.h **** static inline lv_coord_t lv_obj_get_style_transform_zoom(const struct _lv_obj_t * obj, uint32_t par
  80:Drivers/lvgl/src/core/lv_obj_style_gen.h **** {
  81:Drivers/lvgl/src/core/lv_obj_style_gen.h ****     lv_style_value_t v = lv_obj_get_style_prop(obj, part, LV_STYLE_TRANSFORM_ZOOM);
  82:Drivers/lvgl/src/core/lv_obj_style_gen.h ****     return (lv_coord_t)v.num;
  83:Drivers/lvgl/src/core/lv_obj_style_gen.h **** }
  84:Drivers/lvgl/src/core/lv_obj_style_gen.h **** 
  85:Drivers/lvgl/src/core/lv_obj_style_gen.h **** static inline lv_coord_t lv_obj_get_style_transform_angle(const struct _lv_obj_t * obj, uint32_t pa
  86:Drivers/lvgl/src/core/lv_obj_style_gen.h **** {
  87:Drivers/lvgl/src/core/lv_obj_style_gen.h ****     lv_style_value_t v = lv_obj_get_style_prop(obj, part, LV_STYLE_TRANSFORM_ANGLE);
  88:Drivers/lvgl/src/core/lv_obj_style_gen.h ****     return (lv_coord_t)v.num;
  89:Drivers/lvgl/src/core/lv_obj_style_gen.h **** }
  90:Drivers/lvgl/src/core/lv_obj_style_gen.h **** 
  91:Drivers/lvgl/src/core/lv_obj_style_gen.h **** static inline lv_coord_t lv_obj_get_style_transform_pivot_x(const struct _lv_obj_t * obj, uint32_t 
  92:Drivers/lvgl/src/core/lv_obj_style_gen.h **** {
ARM GAS  /var/folders/lp/x54gwt890xv47sdkqj1k04q40000gn/T//ccCdbJgg.s 			page 27


  93:Drivers/lvgl/src/core/lv_obj_style_gen.h ****     lv_style_value_t v = lv_obj_get_style_prop(obj, part, LV_STYLE_TRANSFORM_PIVOT_X);
  94:Drivers/lvgl/src/core/lv_obj_style_gen.h ****     return (lv_coord_t)v.num;
  95:Drivers/lvgl/src/core/lv_obj_style_gen.h **** }
  96:Drivers/lvgl/src/core/lv_obj_style_gen.h **** 
  97:Drivers/lvgl/src/core/lv_obj_style_gen.h **** static inline lv_coord_t lv_obj_get_style_transform_pivot_y(const struct _lv_obj_t * obj, uint32_t 
  98:Drivers/lvgl/src/core/lv_obj_style_gen.h **** {
  99:Drivers/lvgl/src/core/lv_obj_style_gen.h ****     lv_style_value_t v = lv_obj_get_style_prop(obj, part, LV_STYLE_TRANSFORM_PIVOT_Y);
 100:Drivers/lvgl/src/core/lv_obj_style_gen.h ****     return (lv_coord_t)v.num;
 101:Drivers/lvgl/src/core/lv_obj_style_gen.h **** }
 102:Drivers/lvgl/src/core/lv_obj_style_gen.h **** 
 103:Drivers/lvgl/src/core/lv_obj_style_gen.h **** static inline lv_coord_t lv_obj_get_style_pad_top(const struct _lv_obj_t * obj, uint32_t part)
 592              		.loc 2 103 26 view .LVU144
 593              	.LBB102:
 104:Drivers/lvgl/src/core/lv_obj_style_gen.h **** {
 105:Drivers/lvgl/src/core/lv_obj_style_gen.h ****     lv_style_value_t v = lv_obj_get_style_prop(obj, part, LV_STYLE_PAD_TOP);
 594              		.loc 2 105 5 view .LVU145
 595              		.loc 2 105 26 is_stmt 0 view .LVU146
 596 0038 1022     		movs	r2, #16
 597 003a 0021     		movs	r1, #0
 598 003c 3046     		mov	r0, r6
 599 003e FFF7FEFF 		bl	lv_obj_get_style_prop
 600              	.LVL51:
 601 0042 0446     		mov	r4, r0
 602              	.LVL52:
 106:Drivers/lvgl/src/core/lv_obj_style_gen.h ****     return (lv_coord_t)v.num;
 603              		.loc 2 106 5 is_stmt 1 view .LVU147
 604              		.loc 2 106 5 is_stmt 0 view .LVU148
 605              	.LBE102:
 606              	.LBE101:
 148:Drivers/lvgl/src/core/lv_obj_scroll.c ****     lv_coord_t border_width = lv_obj_get_style_border_width(obj, LV_PART_MAIN);
 607              		.loc 1 148 5 is_stmt 1 view .LVU149
 608              	.LBB103:
 609              	.LBI103:
 107:Drivers/lvgl/src/core/lv_obj_style_gen.h **** }
 108:Drivers/lvgl/src/core/lv_obj_style_gen.h **** 
 109:Drivers/lvgl/src/core/lv_obj_style_gen.h **** static inline lv_coord_t lv_obj_get_style_pad_bottom(const struct _lv_obj_t * obj, uint32_t part)
 610              		.loc 2 109 26 view .LVU150
 611              	.LBB104:
 110:Drivers/lvgl/src/core/lv_obj_style_gen.h **** {
 111:Drivers/lvgl/src/core/lv_obj_style_gen.h ****     lv_style_value_t v = lv_obj_get_style_prop(obj, part, LV_STYLE_PAD_BOTTOM);
 612              		.loc 2 111 5 view .LVU151
 613              		.loc 2 111 26 is_stmt 0 view .LVU152
 614 0044 1122     		movs	r2, #17
 615 0046 0021     		movs	r1, #0
 616 0048 3046     		mov	r0, r6
 617 004a FFF7FEFF 		bl	lv_obj_get_style_prop
 618              	.LVL53:
 619 004e 8146     		mov	r9, r0
 112:Drivers/lvgl/src/core/lv_obj_style_gen.h ****     return (lv_coord_t)v.num;
 620              		.loc 2 112 5 is_stmt 1 view .LVU153
 621              	.LVL54:
 622              		.loc 2 112 5 is_stmt 0 view .LVU154
 623              	.LBE104:
 624              	.LBE103:
 149:Drivers/lvgl/src/core/lv_obj_scroll.c **** 
 625              		.loc 1 149 5 is_stmt 1 view .LVU155
 626              	.LBB105:
ARM GAS  /var/folders/lp/x54gwt890xv47sdkqj1k04q40000gn/T//ccCdbJgg.s 			page 28


 627              	.LBI105:
 113:Drivers/lvgl/src/core/lv_obj_style_gen.h **** }
 114:Drivers/lvgl/src/core/lv_obj_style_gen.h **** 
 115:Drivers/lvgl/src/core/lv_obj_style_gen.h **** static inline lv_coord_t lv_obj_get_style_pad_left(const struct _lv_obj_t * obj, uint32_t part)
 116:Drivers/lvgl/src/core/lv_obj_style_gen.h **** {
 117:Drivers/lvgl/src/core/lv_obj_style_gen.h ****     lv_style_value_t v = lv_obj_get_style_prop(obj, part, LV_STYLE_PAD_LEFT);
 118:Drivers/lvgl/src/core/lv_obj_style_gen.h ****     return (lv_coord_t)v.num;
 119:Drivers/lvgl/src/core/lv_obj_style_gen.h **** }
 120:Drivers/lvgl/src/core/lv_obj_style_gen.h **** 
 121:Drivers/lvgl/src/core/lv_obj_style_gen.h **** static inline lv_coord_t lv_obj_get_style_pad_right(const struct _lv_obj_t * obj, uint32_t part)
 122:Drivers/lvgl/src/core/lv_obj_style_gen.h **** {
 123:Drivers/lvgl/src/core/lv_obj_style_gen.h ****     lv_style_value_t v = lv_obj_get_style_prop(obj, part, LV_STYLE_PAD_RIGHT);
 124:Drivers/lvgl/src/core/lv_obj_style_gen.h ****     return (lv_coord_t)v.num;
 125:Drivers/lvgl/src/core/lv_obj_style_gen.h **** }
 126:Drivers/lvgl/src/core/lv_obj_style_gen.h **** 
 127:Drivers/lvgl/src/core/lv_obj_style_gen.h **** static inline lv_coord_t lv_obj_get_style_pad_row(const struct _lv_obj_t * obj, uint32_t part)
 128:Drivers/lvgl/src/core/lv_obj_style_gen.h **** {
 129:Drivers/lvgl/src/core/lv_obj_style_gen.h ****     lv_style_value_t v = lv_obj_get_style_prop(obj, part, LV_STYLE_PAD_ROW);
 130:Drivers/lvgl/src/core/lv_obj_style_gen.h ****     return (lv_coord_t)v.num;
 131:Drivers/lvgl/src/core/lv_obj_style_gen.h **** }
 132:Drivers/lvgl/src/core/lv_obj_style_gen.h **** 
 133:Drivers/lvgl/src/core/lv_obj_style_gen.h **** static inline lv_coord_t lv_obj_get_style_pad_column(const struct _lv_obj_t * obj, uint32_t part)
 134:Drivers/lvgl/src/core/lv_obj_style_gen.h **** {
 135:Drivers/lvgl/src/core/lv_obj_style_gen.h ****     lv_style_value_t v = lv_obj_get_style_prop(obj, part, LV_STYLE_PAD_COLUMN);
 136:Drivers/lvgl/src/core/lv_obj_style_gen.h ****     return (lv_coord_t)v.num;
 137:Drivers/lvgl/src/core/lv_obj_style_gen.h **** }
 138:Drivers/lvgl/src/core/lv_obj_style_gen.h **** 
 139:Drivers/lvgl/src/core/lv_obj_style_gen.h **** static inline lv_color_t lv_obj_get_style_bg_color(const struct _lv_obj_t * obj, uint32_t part)
 140:Drivers/lvgl/src/core/lv_obj_style_gen.h **** {
 141:Drivers/lvgl/src/core/lv_obj_style_gen.h ****     lv_style_value_t v = lv_obj_get_style_prop(obj, part, LV_STYLE_BG_COLOR);
 142:Drivers/lvgl/src/core/lv_obj_style_gen.h ****     return v.color;
 143:Drivers/lvgl/src/core/lv_obj_style_gen.h **** }
 144:Drivers/lvgl/src/core/lv_obj_style_gen.h **** 
 145:Drivers/lvgl/src/core/lv_obj_style_gen.h **** static inline lv_color_t lv_obj_get_style_bg_color_filtered(const struct _lv_obj_t * obj, uint32_t 
 146:Drivers/lvgl/src/core/lv_obj_style_gen.h **** {
 147:Drivers/lvgl/src/core/lv_obj_style_gen.h ****     lv_style_value_t v = _lv_obj_style_apply_color_filter(obj, part, lv_obj_get_style_prop(obj, par
 148:Drivers/lvgl/src/core/lv_obj_style_gen.h ****     return v.color;
 149:Drivers/lvgl/src/core/lv_obj_style_gen.h **** }
 150:Drivers/lvgl/src/core/lv_obj_style_gen.h **** 
 151:Drivers/lvgl/src/core/lv_obj_style_gen.h **** static inline lv_opa_t lv_obj_get_style_bg_opa(const struct _lv_obj_t * obj, uint32_t part)
 152:Drivers/lvgl/src/core/lv_obj_style_gen.h **** {
 153:Drivers/lvgl/src/core/lv_obj_style_gen.h ****     lv_style_value_t v = lv_obj_get_style_prop(obj, part, LV_STYLE_BG_OPA);
 154:Drivers/lvgl/src/core/lv_obj_style_gen.h ****     return (lv_opa_t)v.num;
 155:Drivers/lvgl/src/core/lv_obj_style_gen.h **** }
 156:Drivers/lvgl/src/core/lv_obj_style_gen.h **** 
 157:Drivers/lvgl/src/core/lv_obj_style_gen.h **** static inline lv_color_t lv_obj_get_style_bg_grad_color(const struct _lv_obj_t * obj, uint32_t part
 158:Drivers/lvgl/src/core/lv_obj_style_gen.h **** {
 159:Drivers/lvgl/src/core/lv_obj_style_gen.h ****     lv_style_value_t v = lv_obj_get_style_prop(obj, part, LV_STYLE_BG_GRAD_COLOR);
 160:Drivers/lvgl/src/core/lv_obj_style_gen.h ****     return v.color;
 161:Drivers/lvgl/src/core/lv_obj_style_gen.h **** }
 162:Drivers/lvgl/src/core/lv_obj_style_gen.h **** 
 163:Drivers/lvgl/src/core/lv_obj_style_gen.h **** static inline lv_color_t lv_obj_get_style_bg_grad_color_filtered(const struct _lv_obj_t * obj, uint
 164:Drivers/lvgl/src/core/lv_obj_style_gen.h **** {
 165:Drivers/lvgl/src/core/lv_obj_style_gen.h ****     lv_style_value_t v = _lv_obj_style_apply_color_filter(obj, part, lv_obj_get_style_prop(obj, par
 166:Drivers/lvgl/src/core/lv_obj_style_gen.h ****     return v.color;
 167:Drivers/lvgl/src/core/lv_obj_style_gen.h **** }
 168:Drivers/lvgl/src/core/lv_obj_style_gen.h **** 
ARM GAS  /var/folders/lp/x54gwt890xv47sdkqj1k04q40000gn/T//ccCdbJgg.s 			page 29


 169:Drivers/lvgl/src/core/lv_obj_style_gen.h **** static inline lv_grad_dir_t lv_obj_get_style_bg_grad_dir(const struct _lv_obj_t * obj, uint32_t par
 170:Drivers/lvgl/src/core/lv_obj_style_gen.h **** {
 171:Drivers/lvgl/src/core/lv_obj_style_gen.h ****     lv_style_value_t v = lv_obj_get_style_prop(obj, part, LV_STYLE_BG_GRAD_DIR);
 172:Drivers/lvgl/src/core/lv_obj_style_gen.h ****     return (lv_grad_dir_t)v.num;
 173:Drivers/lvgl/src/core/lv_obj_style_gen.h **** }
 174:Drivers/lvgl/src/core/lv_obj_style_gen.h **** 
 175:Drivers/lvgl/src/core/lv_obj_style_gen.h **** static inline lv_coord_t lv_obj_get_style_bg_main_stop(const struct _lv_obj_t * obj, uint32_t part)
 176:Drivers/lvgl/src/core/lv_obj_style_gen.h **** {
 177:Drivers/lvgl/src/core/lv_obj_style_gen.h ****     lv_style_value_t v = lv_obj_get_style_prop(obj, part, LV_STYLE_BG_MAIN_STOP);
 178:Drivers/lvgl/src/core/lv_obj_style_gen.h ****     return (lv_coord_t)v.num;
 179:Drivers/lvgl/src/core/lv_obj_style_gen.h **** }
 180:Drivers/lvgl/src/core/lv_obj_style_gen.h **** 
 181:Drivers/lvgl/src/core/lv_obj_style_gen.h **** static inline lv_coord_t lv_obj_get_style_bg_grad_stop(const struct _lv_obj_t * obj, uint32_t part)
 182:Drivers/lvgl/src/core/lv_obj_style_gen.h **** {
 183:Drivers/lvgl/src/core/lv_obj_style_gen.h ****     lv_style_value_t v = lv_obj_get_style_prop(obj, part, LV_STYLE_BG_GRAD_STOP);
 184:Drivers/lvgl/src/core/lv_obj_style_gen.h ****     return (lv_coord_t)v.num;
 185:Drivers/lvgl/src/core/lv_obj_style_gen.h **** }
 186:Drivers/lvgl/src/core/lv_obj_style_gen.h **** 
 187:Drivers/lvgl/src/core/lv_obj_style_gen.h **** static inline const lv_grad_dsc_t * lv_obj_get_style_bg_grad(const struct _lv_obj_t * obj, uint32_t
 188:Drivers/lvgl/src/core/lv_obj_style_gen.h **** {
 189:Drivers/lvgl/src/core/lv_obj_style_gen.h ****     lv_style_value_t v = lv_obj_get_style_prop(obj, part, LV_STYLE_BG_GRAD);
 190:Drivers/lvgl/src/core/lv_obj_style_gen.h ****     return (const lv_grad_dsc_t *)v.ptr;
 191:Drivers/lvgl/src/core/lv_obj_style_gen.h **** }
 192:Drivers/lvgl/src/core/lv_obj_style_gen.h **** 
 193:Drivers/lvgl/src/core/lv_obj_style_gen.h **** static inline lv_dither_mode_t lv_obj_get_style_bg_dither_mode(const struct _lv_obj_t * obj, uint32
 194:Drivers/lvgl/src/core/lv_obj_style_gen.h **** {
 195:Drivers/lvgl/src/core/lv_obj_style_gen.h ****     lv_style_value_t v = lv_obj_get_style_prop(obj, part, LV_STYLE_BG_DITHER_MODE);
 196:Drivers/lvgl/src/core/lv_obj_style_gen.h ****     return (lv_dither_mode_t)v.num;
 197:Drivers/lvgl/src/core/lv_obj_style_gen.h **** }
 198:Drivers/lvgl/src/core/lv_obj_style_gen.h **** 
 199:Drivers/lvgl/src/core/lv_obj_style_gen.h **** static inline const void * lv_obj_get_style_bg_img_src(const struct _lv_obj_t * obj, uint32_t part)
 200:Drivers/lvgl/src/core/lv_obj_style_gen.h **** {
 201:Drivers/lvgl/src/core/lv_obj_style_gen.h ****     lv_style_value_t v = lv_obj_get_style_prop(obj, part, LV_STYLE_BG_IMG_SRC);
 202:Drivers/lvgl/src/core/lv_obj_style_gen.h ****     return (const void *)v.ptr;
 203:Drivers/lvgl/src/core/lv_obj_style_gen.h **** }
 204:Drivers/lvgl/src/core/lv_obj_style_gen.h **** 
 205:Drivers/lvgl/src/core/lv_obj_style_gen.h **** static inline lv_opa_t lv_obj_get_style_bg_img_opa(const struct _lv_obj_t * obj, uint32_t part)
 206:Drivers/lvgl/src/core/lv_obj_style_gen.h **** {
 207:Drivers/lvgl/src/core/lv_obj_style_gen.h ****     lv_style_value_t v = lv_obj_get_style_prop(obj, part, LV_STYLE_BG_IMG_OPA);
 208:Drivers/lvgl/src/core/lv_obj_style_gen.h ****     return (lv_opa_t)v.num;
 209:Drivers/lvgl/src/core/lv_obj_style_gen.h **** }
 210:Drivers/lvgl/src/core/lv_obj_style_gen.h **** 
 211:Drivers/lvgl/src/core/lv_obj_style_gen.h **** static inline lv_color_t lv_obj_get_style_bg_img_recolor(const struct _lv_obj_t * obj, uint32_t par
 212:Drivers/lvgl/src/core/lv_obj_style_gen.h **** {
 213:Drivers/lvgl/src/core/lv_obj_style_gen.h ****     lv_style_value_t v = lv_obj_get_style_prop(obj, part, LV_STYLE_BG_IMG_RECOLOR);
 214:Drivers/lvgl/src/core/lv_obj_style_gen.h ****     return v.color;
 215:Drivers/lvgl/src/core/lv_obj_style_gen.h **** }
 216:Drivers/lvgl/src/core/lv_obj_style_gen.h **** 
 217:Drivers/lvgl/src/core/lv_obj_style_gen.h **** static inline lv_color_t lv_obj_get_style_bg_img_recolor_filtered(const struct _lv_obj_t * obj, uin
 218:Drivers/lvgl/src/core/lv_obj_style_gen.h **** {
 219:Drivers/lvgl/src/core/lv_obj_style_gen.h ****     lv_style_value_t v = _lv_obj_style_apply_color_filter(obj, part, lv_obj_get_style_prop(obj, par
 220:Drivers/lvgl/src/core/lv_obj_style_gen.h ****     return v.color;
 221:Drivers/lvgl/src/core/lv_obj_style_gen.h **** }
 222:Drivers/lvgl/src/core/lv_obj_style_gen.h **** 
 223:Drivers/lvgl/src/core/lv_obj_style_gen.h **** static inline lv_opa_t lv_obj_get_style_bg_img_recolor_opa(const struct _lv_obj_t * obj, uint32_t p
 224:Drivers/lvgl/src/core/lv_obj_style_gen.h **** {
 225:Drivers/lvgl/src/core/lv_obj_style_gen.h ****     lv_style_value_t v = lv_obj_get_style_prop(obj, part, LV_STYLE_BG_IMG_RECOLOR_OPA);
ARM GAS  /var/folders/lp/x54gwt890xv47sdkqj1k04q40000gn/T//ccCdbJgg.s 			page 30


 226:Drivers/lvgl/src/core/lv_obj_style_gen.h ****     return (lv_opa_t)v.num;
 227:Drivers/lvgl/src/core/lv_obj_style_gen.h **** }
 228:Drivers/lvgl/src/core/lv_obj_style_gen.h **** 
 229:Drivers/lvgl/src/core/lv_obj_style_gen.h **** static inline bool lv_obj_get_style_bg_img_tiled(const struct _lv_obj_t * obj, uint32_t part)
 230:Drivers/lvgl/src/core/lv_obj_style_gen.h **** {
 231:Drivers/lvgl/src/core/lv_obj_style_gen.h ****     lv_style_value_t v = lv_obj_get_style_prop(obj, part, LV_STYLE_BG_IMG_TILED);
 232:Drivers/lvgl/src/core/lv_obj_style_gen.h ****     return (bool)v.num;
 233:Drivers/lvgl/src/core/lv_obj_style_gen.h **** }
 234:Drivers/lvgl/src/core/lv_obj_style_gen.h **** 
 235:Drivers/lvgl/src/core/lv_obj_style_gen.h **** static inline lv_color_t lv_obj_get_style_border_color(const struct _lv_obj_t * obj, uint32_t part)
 236:Drivers/lvgl/src/core/lv_obj_style_gen.h **** {
 237:Drivers/lvgl/src/core/lv_obj_style_gen.h ****     lv_style_value_t v = lv_obj_get_style_prop(obj, part, LV_STYLE_BORDER_COLOR);
 238:Drivers/lvgl/src/core/lv_obj_style_gen.h ****     return v.color;
 239:Drivers/lvgl/src/core/lv_obj_style_gen.h **** }
 240:Drivers/lvgl/src/core/lv_obj_style_gen.h **** 
 241:Drivers/lvgl/src/core/lv_obj_style_gen.h **** static inline lv_color_t lv_obj_get_style_border_color_filtered(const struct _lv_obj_t * obj, uint3
 242:Drivers/lvgl/src/core/lv_obj_style_gen.h **** {
 243:Drivers/lvgl/src/core/lv_obj_style_gen.h ****     lv_style_value_t v = _lv_obj_style_apply_color_filter(obj, part, lv_obj_get_style_prop(obj, par
 244:Drivers/lvgl/src/core/lv_obj_style_gen.h ****     return v.color;
 245:Drivers/lvgl/src/core/lv_obj_style_gen.h **** }
 246:Drivers/lvgl/src/core/lv_obj_style_gen.h **** 
 247:Drivers/lvgl/src/core/lv_obj_style_gen.h **** static inline lv_opa_t lv_obj_get_style_border_opa(const struct _lv_obj_t * obj, uint32_t part)
 248:Drivers/lvgl/src/core/lv_obj_style_gen.h **** {
 249:Drivers/lvgl/src/core/lv_obj_style_gen.h ****     lv_style_value_t v = lv_obj_get_style_prop(obj, part, LV_STYLE_BORDER_OPA);
 250:Drivers/lvgl/src/core/lv_obj_style_gen.h ****     return (lv_opa_t)v.num;
 251:Drivers/lvgl/src/core/lv_obj_style_gen.h **** }
 252:Drivers/lvgl/src/core/lv_obj_style_gen.h **** 
 253:Drivers/lvgl/src/core/lv_obj_style_gen.h **** static inline lv_coord_t lv_obj_get_style_border_width(const struct _lv_obj_t * obj, uint32_t part)
 628              		.loc 2 253 26 view .LVU156
 629              	.LBB106:
 254:Drivers/lvgl/src/core/lv_obj_style_gen.h **** {
 255:Drivers/lvgl/src/core/lv_obj_style_gen.h ****     lv_style_value_t v = lv_obj_get_style_prop(obj, part, LV_STYLE_BORDER_WIDTH);
 630              		.loc 2 255 5 view .LVU157
 631              		.loc 2 255 26 is_stmt 0 view .LVU158
 632 0050 3222     		movs	r2, #50
 633 0052 0021     		movs	r1, #0
 634 0054 3046     		mov	r0, r6
 635 0056 FFF7FEFF 		bl	lv_obj_get_style_prop
 636              	.LVL55:
 637 005a 0546     		mov	r5, r0
 256:Drivers/lvgl/src/core/lv_obj_style_gen.h ****     return (lv_coord_t)v.num;
 638              		.loc 2 256 5 is_stmt 1 view .LVU159
 639              	.LVL56:
 640              		.loc 2 256 5 is_stmt 0 view .LVU160
 641              	.LBE106:
 642              	.LBE105:
 151:Drivers/lvgl/src/core/lv_obj_scroll.c ****         child_res -= (obj->coords.y2 - pad_bottom - border_width);
 643              		.loc 1 151 5 is_stmt 1 view .LVU161
 151:Drivers/lvgl/src/core/lv_obj_scroll.c ****         child_res -= (obj->coords.y2 - pad_bottom - border_width);
 644              		.loc 1 151 7 is_stmt 0 view .LVU162
 645 005c 124B     		ldr	r3, .L42
 646 005e 9F42     		cmp	r7, r3
 647 0060 05D0     		beq	.L38
 152:Drivers/lvgl/src/core/lv_obj_scroll.c ****     }
 648              		.loc 1 152 9 is_stmt 1 view .LVU163
 152:Drivers/lvgl/src/core/lv_obj_scroll.c ****     }
 649              		.loc 1 152 34 is_stmt 0 view .LVU164
ARM GAS  /var/folders/lp/x54gwt890xv47sdkqj1k04q40000gn/T//ccCdbJgg.s 			page 31


 650 0062 738B     		ldrh	r3, [r6, #26]
 152:Drivers/lvgl/src/core/lv_obj_scroll.c ****     }
 651              		.loc 1 152 19 view .LVU165
 652 0064 A9EB0303 		sub	r3, r9, r3
 653 0068 0344     		add	r3, r3, r0
 654 006a 3B44     		add	r3, r3, r7
 655 006c 1FB2     		sxth	r7, r3
 656              	.LVL57:
 657              	.L38:
 155:Drivers/lvgl/src/core/lv_obj_scroll.c ****     self_h = self_h - (lv_obj_get_height(obj) - pad_top - pad_bottom - 2 * border_width);
 658              		.loc 1 155 5 is_stmt 1 view .LVU166
 155:Drivers/lvgl/src/core/lv_obj_scroll.c ****     self_h = self_h - (lv_obj_get_height(obj) - pad_top - pad_bottom - 2 * border_width);
 659              		.loc 1 155 25 is_stmt 0 view .LVU167
 660 006e 3046     		mov	r0, r6
 661              	.LVL58:
 155:Drivers/lvgl/src/core/lv_obj_scroll.c ****     self_h = self_h - (lv_obj_get_height(obj) - pad_top - pad_bottom - 2 * border_width);
 662              		.loc 1 155 25 view .LVU168
 663 0070 FFF7FEFF 		bl	lv_obj_get_self_height
 664              	.LVL59:
 665 0074 8046     		mov	r8, r0
 666              	.LVL60:
 156:Drivers/lvgl/src/core/lv_obj_scroll.c ****     self_h -= lv_obj_get_scroll_y(obj);
 667              		.loc 1 156 5 is_stmt 1 view .LVU169
 156:Drivers/lvgl/src/core/lv_obj_scroll.c ****     self_h -= lv_obj_get_scroll_y(obj);
 668              		.loc 1 156 74 is_stmt 0 view .LVU170
 669 0076 6D00     		lsls	r5, r5, #1
 670 0078 ADB2     		uxth	r5, r5
 156:Drivers/lvgl/src/core/lv_obj_scroll.c ****     self_h -= lv_obj_get_scroll_y(obj);
 671              		.loc 1 156 24 view .LVU171
 672 007a 3046     		mov	r0, r6
 673 007c FFF7FEFF 		bl	lv_obj_get_height
 674              	.LVL61:
 156:Drivers/lvgl/src/core/lv_obj_scroll.c ****     self_h -= lv_obj_get_scroll_y(obj);
 675              		.loc 1 156 24 discriminator 1 view .LVU172
 676 0080 80B2     		uxth	r0, r0
 156:Drivers/lvgl/src/core/lv_obj_scroll.c ****     self_h -= lv_obj_get_scroll_y(obj);
 677              		.loc 1 156 47 discriminator 1 view .LVU173
 678 0082 241A     		subs	r4, r4, r0
 679              	.LVL62:
 156:Drivers/lvgl/src/core/lv_obj_scroll.c ****     self_h -= lv_obj_get_scroll_y(obj);
 680              		.loc 1 156 57 discriminator 1 view .LVU174
 681 0084 19FA84F4 		uxtah	r4, r9, r4
 156:Drivers/lvgl/src/core/lv_obj_scroll.c ****     self_h -= lv_obj_get_scroll_y(obj);
 682              		.loc 1 156 70 discriminator 1 view .LVU175
 683 0088 15FA84F4 		uxtah	r4, r5, r4
 156:Drivers/lvgl/src/core/lv_obj_scroll.c ****     self_h -= lv_obj_get_scroll_y(obj);
 684              		.loc 1 156 21 discriminator 1 view .LVU176
 685 008c 18FA84F4 		uxtah	r4, r8, r4
 686 0090 A4B2     		uxth	r4, r4
 687              	.LVL63:
 157:Drivers/lvgl/src/core/lv_obj_scroll.c ****     return LV_MAX(child_res, self_h);
 688              		.loc 1 157 5 is_stmt 1 view .LVU177
 157:Drivers/lvgl/src/core/lv_obj_scroll.c ****     return LV_MAX(child_res, self_h);
 689              		.loc 1 157 15 is_stmt 0 view .LVU178
 690 0092 3046     		mov	r0, r6
 691 0094 FFF7FEFF 		bl	lv_obj_get_scroll_y
 692              	.LVL64:
ARM GAS  /var/folders/lp/x54gwt890xv47sdkqj1k04q40000gn/T//ccCdbJgg.s 			page 32


 157:Drivers/lvgl/src/core/lv_obj_scroll.c ****     return LV_MAX(child_res, self_h);
 693              		.loc 1 157 15 discriminator 1 view .LVU179
 694 0098 80B2     		uxth	r0, r0
 157:Drivers/lvgl/src/core/lv_obj_scroll.c ****     return LV_MAX(child_res, self_h);
 695              		.loc 1 157 12 discriminator 1 view .LVU180
 696 009a 201A     		subs	r0, r4, r0
 697 009c 00B2     		sxth	r0, r0
 698              	.LVL65:
 158:Drivers/lvgl/src/core/lv_obj_scroll.c **** }
 699              		.loc 1 158 5 is_stmt 1 view .LVU181
 159:Drivers/lvgl/src/core/lv_obj_scroll.c **** 
 700              		.loc 1 159 1 is_stmt 0 view .LVU182
 701 009e B842     		cmp	r0, r7
 702 00a0 B8BF     		it	lt
 703 00a2 3846     		movlt	r0, r7
 704              	.LVL66:
 159:Drivers/lvgl/src/core/lv_obj_scroll.c **** 
 705              		.loc 1 159 1 view .LVU183
 706 00a4 BDE8F883 		pop	{r3, r4, r5, r6, r7, r8, r9, pc}
 707              	.LVL67:
 708              	.L43:
 159:Drivers/lvgl/src/core/lv_obj_scroll.c **** 
 709              		.loc 1 159 1 view .LVU184
 710              		.align	2
 711              	.L42:
 712 00a8 01E0FFFF 		.word	-8191
 713 00ac 01000400 		.word	262145
 714              		.cfi_endproc
 715              	.LFE178:
 717              		.section	.text.lv_obj_get_scroll_left,"ax",%progbits
 718              		.align	1
 719              		.global	lv_obj_get_scroll_left
 720              		.syntax unified
 721              		.thumb
 722              		.thumb_func
 724              	lv_obj_get_scroll_left:
 725              	.LVL68:
 726              	.LFB179:
 162:Drivers/lvgl/src/core/lv_obj_scroll.c ****     LV_ASSERT_OBJ(obj, MY_CLASS);
 727              		.loc 1 162 1 is_stmt 1 view -0
 728              		.cfi_startproc
 729              		@ args = 0, pretend = 0, frame = 0
 730              		@ frame_needed = 0, uses_anonymous_args = 0
 162:Drivers/lvgl/src/core/lv_obj_scroll.c ****     LV_ASSERT_OBJ(obj, MY_CLASS);
 731              		.loc 1 162 1 is_stmt 0 view .LVU186
 732 0000 2DE9F84F 		push	{r3, r4, r5, r6, r7, r8, r9, r10, fp, lr}
 733              		.cfi_def_cfa_offset 40
 734              		.cfi_offset 3, -40
 735              		.cfi_offset 4, -36
 736              		.cfi_offset 5, -32
 737              		.cfi_offset 6, -28
 738              		.cfi_offset 7, -24
 739              		.cfi_offset 8, -20
 740              		.cfi_offset 9, -16
 741              		.cfi_offset 10, -12
 742              		.cfi_offset 11, -8
 743              		.cfi_offset 14, -4
ARM GAS  /var/folders/lp/x54gwt890xv47sdkqj1k04q40000gn/T//ccCdbJgg.s 			page 33


 744 0004 0446     		mov	r4, r0
 163:Drivers/lvgl/src/core/lv_obj_scroll.c **** 
 745              		.loc 1 163 5 is_stmt 1 view .LVU187
 163:Drivers/lvgl/src/core/lv_obj_scroll.c **** 
 746              		.loc 1 163 5 view .LVU188
 163:Drivers/lvgl/src/core/lv_obj_scroll.c **** 
 747              		.loc 1 163 5 view .LVU189
 167:Drivers/lvgl/src/core/lv_obj_scroll.c ****         if(obj->spec_attr == NULL) return 0;
 748              		.loc 1 167 5 view .LVU190
 749              	.LVL69:
 750              	.LBB107:
 751              	.LBI107:
 257:Drivers/lvgl/src/core/lv_obj_style_gen.h **** }
 258:Drivers/lvgl/src/core/lv_obj_style_gen.h **** 
 259:Drivers/lvgl/src/core/lv_obj_style_gen.h **** static inline lv_border_side_t lv_obj_get_style_border_side(const struct _lv_obj_t * obj, uint32_t 
 260:Drivers/lvgl/src/core/lv_obj_style_gen.h **** {
 261:Drivers/lvgl/src/core/lv_obj_style_gen.h ****     lv_style_value_t v = lv_obj_get_style_prop(obj, part, LV_STYLE_BORDER_SIDE);
 262:Drivers/lvgl/src/core/lv_obj_style_gen.h ****     return (lv_border_side_t)v.num;
 263:Drivers/lvgl/src/core/lv_obj_style_gen.h **** }
 264:Drivers/lvgl/src/core/lv_obj_style_gen.h **** 
 265:Drivers/lvgl/src/core/lv_obj_style_gen.h **** static inline bool lv_obj_get_style_border_post(const struct _lv_obj_t * obj, uint32_t part)
 266:Drivers/lvgl/src/core/lv_obj_style_gen.h **** {
 267:Drivers/lvgl/src/core/lv_obj_style_gen.h ****     lv_style_value_t v = lv_obj_get_style_prop(obj, part, LV_STYLE_BORDER_POST);
 268:Drivers/lvgl/src/core/lv_obj_style_gen.h ****     return (bool)v.num;
 269:Drivers/lvgl/src/core/lv_obj_style_gen.h **** }
 270:Drivers/lvgl/src/core/lv_obj_style_gen.h **** 
 271:Drivers/lvgl/src/core/lv_obj_style_gen.h **** static inline lv_coord_t lv_obj_get_style_outline_width(const struct _lv_obj_t * obj, uint32_t part
 272:Drivers/lvgl/src/core/lv_obj_style_gen.h **** {
 273:Drivers/lvgl/src/core/lv_obj_style_gen.h ****     lv_style_value_t v = lv_obj_get_style_prop(obj, part, LV_STYLE_OUTLINE_WIDTH);
 274:Drivers/lvgl/src/core/lv_obj_style_gen.h ****     return (lv_coord_t)v.num;
 275:Drivers/lvgl/src/core/lv_obj_style_gen.h **** }
 276:Drivers/lvgl/src/core/lv_obj_style_gen.h **** 
 277:Drivers/lvgl/src/core/lv_obj_style_gen.h **** static inline lv_color_t lv_obj_get_style_outline_color(const struct _lv_obj_t * obj, uint32_t part
 278:Drivers/lvgl/src/core/lv_obj_style_gen.h **** {
 279:Drivers/lvgl/src/core/lv_obj_style_gen.h ****     lv_style_value_t v = lv_obj_get_style_prop(obj, part, LV_STYLE_OUTLINE_COLOR);
 280:Drivers/lvgl/src/core/lv_obj_style_gen.h ****     return v.color;
 281:Drivers/lvgl/src/core/lv_obj_style_gen.h **** }
 282:Drivers/lvgl/src/core/lv_obj_style_gen.h **** 
 283:Drivers/lvgl/src/core/lv_obj_style_gen.h **** static inline lv_color_t lv_obj_get_style_outline_color_filtered(const struct _lv_obj_t * obj, uint
 284:Drivers/lvgl/src/core/lv_obj_style_gen.h **** {
 285:Drivers/lvgl/src/core/lv_obj_style_gen.h ****     lv_style_value_t v = _lv_obj_style_apply_color_filter(obj, part, lv_obj_get_style_prop(obj, par
 286:Drivers/lvgl/src/core/lv_obj_style_gen.h ****     return v.color;
 287:Drivers/lvgl/src/core/lv_obj_style_gen.h **** }
 288:Drivers/lvgl/src/core/lv_obj_style_gen.h **** 
 289:Drivers/lvgl/src/core/lv_obj_style_gen.h **** static inline lv_opa_t lv_obj_get_style_outline_opa(const struct _lv_obj_t * obj, uint32_t part)
 290:Drivers/lvgl/src/core/lv_obj_style_gen.h **** {
 291:Drivers/lvgl/src/core/lv_obj_style_gen.h ****     lv_style_value_t v = lv_obj_get_style_prop(obj, part, LV_STYLE_OUTLINE_OPA);
 292:Drivers/lvgl/src/core/lv_obj_style_gen.h ****     return (lv_opa_t)v.num;
 293:Drivers/lvgl/src/core/lv_obj_style_gen.h **** }
 294:Drivers/lvgl/src/core/lv_obj_style_gen.h **** 
 295:Drivers/lvgl/src/core/lv_obj_style_gen.h **** static inline lv_coord_t lv_obj_get_style_outline_pad(const struct _lv_obj_t * obj, uint32_t part)
 296:Drivers/lvgl/src/core/lv_obj_style_gen.h **** {
 297:Drivers/lvgl/src/core/lv_obj_style_gen.h ****     lv_style_value_t v = lv_obj_get_style_prop(obj, part, LV_STYLE_OUTLINE_PAD);
 298:Drivers/lvgl/src/core/lv_obj_style_gen.h ****     return (lv_coord_t)v.num;
 299:Drivers/lvgl/src/core/lv_obj_style_gen.h **** }
 300:Drivers/lvgl/src/core/lv_obj_style_gen.h **** 
 301:Drivers/lvgl/src/core/lv_obj_style_gen.h **** static inline lv_coord_t lv_obj_get_style_shadow_width(const struct _lv_obj_t * obj, uint32_t part)
ARM GAS  /var/folders/lp/x54gwt890xv47sdkqj1k04q40000gn/T//ccCdbJgg.s 			page 34


 302:Drivers/lvgl/src/core/lv_obj_style_gen.h **** {
 303:Drivers/lvgl/src/core/lv_obj_style_gen.h ****     lv_style_value_t v = lv_obj_get_style_prop(obj, part, LV_STYLE_SHADOW_WIDTH);
 304:Drivers/lvgl/src/core/lv_obj_style_gen.h ****     return (lv_coord_t)v.num;
 305:Drivers/lvgl/src/core/lv_obj_style_gen.h **** }
 306:Drivers/lvgl/src/core/lv_obj_style_gen.h **** 
 307:Drivers/lvgl/src/core/lv_obj_style_gen.h **** static inline lv_coord_t lv_obj_get_style_shadow_ofs_x(const struct _lv_obj_t * obj, uint32_t part)
 308:Drivers/lvgl/src/core/lv_obj_style_gen.h **** {
 309:Drivers/lvgl/src/core/lv_obj_style_gen.h ****     lv_style_value_t v = lv_obj_get_style_prop(obj, part, LV_STYLE_SHADOW_OFS_X);
 310:Drivers/lvgl/src/core/lv_obj_style_gen.h ****     return (lv_coord_t)v.num;
 311:Drivers/lvgl/src/core/lv_obj_style_gen.h **** }
 312:Drivers/lvgl/src/core/lv_obj_style_gen.h **** 
 313:Drivers/lvgl/src/core/lv_obj_style_gen.h **** static inline lv_coord_t lv_obj_get_style_shadow_ofs_y(const struct _lv_obj_t * obj, uint32_t part)
 314:Drivers/lvgl/src/core/lv_obj_style_gen.h **** {
 315:Drivers/lvgl/src/core/lv_obj_style_gen.h ****     lv_style_value_t v = lv_obj_get_style_prop(obj, part, LV_STYLE_SHADOW_OFS_Y);
 316:Drivers/lvgl/src/core/lv_obj_style_gen.h ****     return (lv_coord_t)v.num;
 317:Drivers/lvgl/src/core/lv_obj_style_gen.h **** }
 318:Drivers/lvgl/src/core/lv_obj_style_gen.h **** 
 319:Drivers/lvgl/src/core/lv_obj_style_gen.h **** static inline lv_coord_t lv_obj_get_style_shadow_spread(const struct _lv_obj_t * obj, uint32_t part
 320:Drivers/lvgl/src/core/lv_obj_style_gen.h **** {
 321:Drivers/lvgl/src/core/lv_obj_style_gen.h ****     lv_style_value_t v = lv_obj_get_style_prop(obj, part, LV_STYLE_SHADOW_SPREAD);
 322:Drivers/lvgl/src/core/lv_obj_style_gen.h ****     return (lv_coord_t)v.num;
 323:Drivers/lvgl/src/core/lv_obj_style_gen.h **** }
 324:Drivers/lvgl/src/core/lv_obj_style_gen.h **** 
 325:Drivers/lvgl/src/core/lv_obj_style_gen.h **** static inline lv_color_t lv_obj_get_style_shadow_color(const struct _lv_obj_t * obj, uint32_t part)
 326:Drivers/lvgl/src/core/lv_obj_style_gen.h **** {
 327:Drivers/lvgl/src/core/lv_obj_style_gen.h ****     lv_style_value_t v = lv_obj_get_style_prop(obj, part, LV_STYLE_SHADOW_COLOR);
 328:Drivers/lvgl/src/core/lv_obj_style_gen.h ****     return v.color;
 329:Drivers/lvgl/src/core/lv_obj_style_gen.h **** }
 330:Drivers/lvgl/src/core/lv_obj_style_gen.h **** 
 331:Drivers/lvgl/src/core/lv_obj_style_gen.h **** static inline lv_color_t lv_obj_get_style_shadow_color_filtered(const struct _lv_obj_t * obj, uint3
 332:Drivers/lvgl/src/core/lv_obj_style_gen.h **** {
 333:Drivers/lvgl/src/core/lv_obj_style_gen.h ****     lv_style_value_t v = _lv_obj_style_apply_color_filter(obj, part, lv_obj_get_style_prop(obj, par
 334:Drivers/lvgl/src/core/lv_obj_style_gen.h ****     return v.color;
 335:Drivers/lvgl/src/core/lv_obj_style_gen.h **** }
 336:Drivers/lvgl/src/core/lv_obj_style_gen.h **** 
 337:Drivers/lvgl/src/core/lv_obj_style_gen.h **** static inline lv_opa_t lv_obj_get_style_shadow_opa(const struct _lv_obj_t * obj, uint32_t part)
 338:Drivers/lvgl/src/core/lv_obj_style_gen.h **** {
 339:Drivers/lvgl/src/core/lv_obj_style_gen.h ****     lv_style_value_t v = lv_obj_get_style_prop(obj, part, LV_STYLE_SHADOW_OPA);
 340:Drivers/lvgl/src/core/lv_obj_style_gen.h ****     return (lv_opa_t)v.num;
 341:Drivers/lvgl/src/core/lv_obj_style_gen.h **** }
 342:Drivers/lvgl/src/core/lv_obj_style_gen.h **** 
 343:Drivers/lvgl/src/core/lv_obj_style_gen.h **** static inline lv_opa_t lv_obj_get_style_img_opa(const struct _lv_obj_t * obj, uint32_t part)
 344:Drivers/lvgl/src/core/lv_obj_style_gen.h **** {
 345:Drivers/lvgl/src/core/lv_obj_style_gen.h ****     lv_style_value_t v = lv_obj_get_style_prop(obj, part, LV_STYLE_IMG_OPA);
 346:Drivers/lvgl/src/core/lv_obj_style_gen.h ****     return (lv_opa_t)v.num;
 347:Drivers/lvgl/src/core/lv_obj_style_gen.h **** }
 348:Drivers/lvgl/src/core/lv_obj_style_gen.h **** 
 349:Drivers/lvgl/src/core/lv_obj_style_gen.h **** static inline lv_color_t lv_obj_get_style_img_recolor(const struct _lv_obj_t * obj, uint32_t part)
 350:Drivers/lvgl/src/core/lv_obj_style_gen.h **** {
 351:Drivers/lvgl/src/core/lv_obj_style_gen.h ****     lv_style_value_t v = lv_obj_get_style_prop(obj, part, LV_STYLE_IMG_RECOLOR);
 352:Drivers/lvgl/src/core/lv_obj_style_gen.h ****     return v.color;
 353:Drivers/lvgl/src/core/lv_obj_style_gen.h **** }
 354:Drivers/lvgl/src/core/lv_obj_style_gen.h **** 
 355:Drivers/lvgl/src/core/lv_obj_style_gen.h **** static inline lv_color_t lv_obj_get_style_img_recolor_filtered(const struct _lv_obj_t * obj, uint32
 356:Drivers/lvgl/src/core/lv_obj_style_gen.h **** {
 357:Drivers/lvgl/src/core/lv_obj_style_gen.h ****     lv_style_value_t v = _lv_obj_style_apply_color_filter(obj, part, lv_obj_get_style_prop(obj, par
 358:Drivers/lvgl/src/core/lv_obj_style_gen.h ****     return v.color;
ARM GAS  /var/folders/lp/x54gwt890xv47sdkqj1k04q40000gn/T//ccCdbJgg.s 			page 35


 359:Drivers/lvgl/src/core/lv_obj_style_gen.h **** }
 360:Drivers/lvgl/src/core/lv_obj_style_gen.h **** 
 361:Drivers/lvgl/src/core/lv_obj_style_gen.h **** static inline lv_opa_t lv_obj_get_style_img_recolor_opa(const struct _lv_obj_t * obj, uint32_t part
 362:Drivers/lvgl/src/core/lv_obj_style_gen.h **** {
 363:Drivers/lvgl/src/core/lv_obj_style_gen.h ****     lv_style_value_t v = lv_obj_get_style_prop(obj, part, LV_STYLE_IMG_RECOLOR_OPA);
 364:Drivers/lvgl/src/core/lv_obj_style_gen.h ****     return (lv_opa_t)v.num;
 365:Drivers/lvgl/src/core/lv_obj_style_gen.h **** }
 366:Drivers/lvgl/src/core/lv_obj_style_gen.h **** 
 367:Drivers/lvgl/src/core/lv_obj_style_gen.h **** static inline lv_coord_t lv_obj_get_style_line_width(const struct _lv_obj_t * obj, uint32_t part)
 368:Drivers/lvgl/src/core/lv_obj_style_gen.h **** {
 369:Drivers/lvgl/src/core/lv_obj_style_gen.h ****     lv_style_value_t v = lv_obj_get_style_prop(obj, part, LV_STYLE_LINE_WIDTH);
 370:Drivers/lvgl/src/core/lv_obj_style_gen.h ****     return (lv_coord_t)v.num;
 371:Drivers/lvgl/src/core/lv_obj_style_gen.h **** }
 372:Drivers/lvgl/src/core/lv_obj_style_gen.h **** 
 373:Drivers/lvgl/src/core/lv_obj_style_gen.h **** static inline lv_coord_t lv_obj_get_style_line_dash_width(const struct _lv_obj_t * obj, uint32_t pa
 374:Drivers/lvgl/src/core/lv_obj_style_gen.h **** {
 375:Drivers/lvgl/src/core/lv_obj_style_gen.h ****     lv_style_value_t v = lv_obj_get_style_prop(obj, part, LV_STYLE_LINE_DASH_WIDTH);
 376:Drivers/lvgl/src/core/lv_obj_style_gen.h ****     return (lv_coord_t)v.num;
 377:Drivers/lvgl/src/core/lv_obj_style_gen.h **** }
 378:Drivers/lvgl/src/core/lv_obj_style_gen.h **** 
 379:Drivers/lvgl/src/core/lv_obj_style_gen.h **** static inline lv_coord_t lv_obj_get_style_line_dash_gap(const struct _lv_obj_t * obj, uint32_t part
 380:Drivers/lvgl/src/core/lv_obj_style_gen.h **** {
 381:Drivers/lvgl/src/core/lv_obj_style_gen.h ****     lv_style_value_t v = lv_obj_get_style_prop(obj, part, LV_STYLE_LINE_DASH_GAP);
 382:Drivers/lvgl/src/core/lv_obj_style_gen.h ****     return (lv_coord_t)v.num;
 383:Drivers/lvgl/src/core/lv_obj_style_gen.h **** }
 384:Drivers/lvgl/src/core/lv_obj_style_gen.h **** 
 385:Drivers/lvgl/src/core/lv_obj_style_gen.h **** static inline bool lv_obj_get_style_line_rounded(const struct _lv_obj_t * obj, uint32_t part)
 386:Drivers/lvgl/src/core/lv_obj_style_gen.h **** {
 387:Drivers/lvgl/src/core/lv_obj_style_gen.h ****     lv_style_value_t v = lv_obj_get_style_prop(obj, part, LV_STYLE_LINE_ROUNDED);
 388:Drivers/lvgl/src/core/lv_obj_style_gen.h ****     return (bool)v.num;
 389:Drivers/lvgl/src/core/lv_obj_style_gen.h **** }
 390:Drivers/lvgl/src/core/lv_obj_style_gen.h **** 
 391:Drivers/lvgl/src/core/lv_obj_style_gen.h **** static inline lv_color_t lv_obj_get_style_line_color(const struct _lv_obj_t * obj, uint32_t part)
 392:Drivers/lvgl/src/core/lv_obj_style_gen.h **** {
 393:Drivers/lvgl/src/core/lv_obj_style_gen.h ****     lv_style_value_t v = lv_obj_get_style_prop(obj, part, LV_STYLE_LINE_COLOR);
 394:Drivers/lvgl/src/core/lv_obj_style_gen.h ****     return v.color;
 395:Drivers/lvgl/src/core/lv_obj_style_gen.h **** }
 396:Drivers/lvgl/src/core/lv_obj_style_gen.h **** 
 397:Drivers/lvgl/src/core/lv_obj_style_gen.h **** static inline lv_color_t lv_obj_get_style_line_color_filtered(const struct _lv_obj_t * obj, uint32_
 398:Drivers/lvgl/src/core/lv_obj_style_gen.h **** {
 399:Drivers/lvgl/src/core/lv_obj_style_gen.h ****     lv_style_value_t v = _lv_obj_style_apply_color_filter(obj, part, lv_obj_get_style_prop(obj, par
 400:Drivers/lvgl/src/core/lv_obj_style_gen.h ****     return v.color;
 401:Drivers/lvgl/src/core/lv_obj_style_gen.h **** }
 402:Drivers/lvgl/src/core/lv_obj_style_gen.h **** 
 403:Drivers/lvgl/src/core/lv_obj_style_gen.h **** static inline lv_opa_t lv_obj_get_style_line_opa(const struct _lv_obj_t * obj, uint32_t part)
 404:Drivers/lvgl/src/core/lv_obj_style_gen.h **** {
 405:Drivers/lvgl/src/core/lv_obj_style_gen.h ****     lv_style_value_t v = lv_obj_get_style_prop(obj, part, LV_STYLE_LINE_OPA);
 406:Drivers/lvgl/src/core/lv_obj_style_gen.h ****     return (lv_opa_t)v.num;
 407:Drivers/lvgl/src/core/lv_obj_style_gen.h **** }
 408:Drivers/lvgl/src/core/lv_obj_style_gen.h **** 
 409:Drivers/lvgl/src/core/lv_obj_style_gen.h **** static inline lv_coord_t lv_obj_get_style_arc_width(const struct _lv_obj_t * obj, uint32_t part)
 410:Drivers/lvgl/src/core/lv_obj_style_gen.h **** {
 411:Drivers/lvgl/src/core/lv_obj_style_gen.h ****     lv_style_value_t v = lv_obj_get_style_prop(obj, part, LV_STYLE_ARC_WIDTH);
 412:Drivers/lvgl/src/core/lv_obj_style_gen.h ****     return (lv_coord_t)v.num;
 413:Drivers/lvgl/src/core/lv_obj_style_gen.h **** }
 414:Drivers/lvgl/src/core/lv_obj_style_gen.h **** 
 415:Drivers/lvgl/src/core/lv_obj_style_gen.h **** static inline bool lv_obj_get_style_arc_rounded(const struct _lv_obj_t * obj, uint32_t part)
ARM GAS  /var/folders/lp/x54gwt890xv47sdkqj1k04q40000gn/T//ccCdbJgg.s 			page 36


 416:Drivers/lvgl/src/core/lv_obj_style_gen.h **** {
 417:Drivers/lvgl/src/core/lv_obj_style_gen.h ****     lv_style_value_t v = lv_obj_get_style_prop(obj, part, LV_STYLE_ARC_ROUNDED);
 418:Drivers/lvgl/src/core/lv_obj_style_gen.h ****     return (bool)v.num;
 419:Drivers/lvgl/src/core/lv_obj_style_gen.h **** }
 420:Drivers/lvgl/src/core/lv_obj_style_gen.h **** 
 421:Drivers/lvgl/src/core/lv_obj_style_gen.h **** static inline lv_color_t lv_obj_get_style_arc_color(const struct _lv_obj_t * obj, uint32_t part)
 422:Drivers/lvgl/src/core/lv_obj_style_gen.h **** {
 423:Drivers/lvgl/src/core/lv_obj_style_gen.h ****     lv_style_value_t v = lv_obj_get_style_prop(obj, part, LV_STYLE_ARC_COLOR);
 424:Drivers/lvgl/src/core/lv_obj_style_gen.h ****     return v.color;
 425:Drivers/lvgl/src/core/lv_obj_style_gen.h **** }
 426:Drivers/lvgl/src/core/lv_obj_style_gen.h **** 
 427:Drivers/lvgl/src/core/lv_obj_style_gen.h **** static inline lv_color_t lv_obj_get_style_arc_color_filtered(const struct _lv_obj_t * obj, uint32_t
 428:Drivers/lvgl/src/core/lv_obj_style_gen.h **** {
 429:Drivers/lvgl/src/core/lv_obj_style_gen.h ****     lv_style_value_t v = _lv_obj_style_apply_color_filter(obj, part, lv_obj_get_style_prop(obj, par
 430:Drivers/lvgl/src/core/lv_obj_style_gen.h ****     return v.color;
 431:Drivers/lvgl/src/core/lv_obj_style_gen.h **** }
 432:Drivers/lvgl/src/core/lv_obj_style_gen.h **** 
 433:Drivers/lvgl/src/core/lv_obj_style_gen.h **** static inline lv_opa_t lv_obj_get_style_arc_opa(const struct _lv_obj_t * obj, uint32_t part)
 434:Drivers/lvgl/src/core/lv_obj_style_gen.h **** {
 435:Drivers/lvgl/src/core/lv_obj_style_gen.h ****     lv_style_value_t v = lv_obj_get_style_prop(obj, part, LV_STYLE_ARC_OPA);
 436:Drivers/lvgl/src/core/lv_obj_style_gen.h ****     return (lv_opa_t)v.num;
 437:Drivers/lvgl/src/core/lv_obj_style_gen.h **** }
 438:Drivers/lvgl/src/core/lv_obj_style_gen.h **** 
 439:Drivers/lvgl/src/core/lv_obj_style_gen.h **** static inline const void * lv_obj_get_style_arc_img_src(const struct _lv_obj_t * obj, uint32_t part
 440:Drivers/lvgl/src/core/lv_obj_style_gen.h **** {
 441:Drivers/lvgl/src/core/lv_obj_style_gen.h ****     lv_style_value_t v = lv_obj_get_style_prop(obj, part, LV_STYLE_ARC_IMG_SRC);
 442:Drivers/lvgl/src/core/lv_obj_style_gen.h ****     return (const void *)v.ptr;
 443:Drivers/lvgl/src/core/lv_obj_style_gen.h **** }
 444:Drivers/lvgl/src/core/lv_obj_style_gen.h **** 
 445:Drivers/lvgl/src/core/lv_obj_style_gen.h **** static inline lv_color_t lv_obj_get_style_text_color(const struct _lv_obj_t * obj, uint32_t part)
 446:Drivers/lvgl/src/core/lv_obj_style_gen.h **** {
 447:Drivers/lvgl/src/core/lv_obj_style_gen.h ****     lv_style_value_t v = lv_obj_get_style_prop(obj, part, LV_STYLE_TEXT_COLOR);
 448:Drivers/lvgl/src/core/lv_obj_style_gen.h ****     return v.color;
 449:Drivers/lvgl/src/core/lv_obj_style_gen.h **** }
 450:Drivers/lvgl/src/core/lv_obj_style_gen.h **** 
 451:Drivers/lvgl/src/core/lv_obj_style_gen.h **** static inline lv_color_t lv_obj_get_style_text_color_filtered(const struct _lv_obj_t * obj, uint32_
 452:Drivers/lvgl/src/core/lv_obj_style_gen.h **** {
 453:Drivers/lvgl/src/core/lv_obj_style_gen.h ****     lv_style_value_t v = _lv_obj_style_apply_color_filter(obj, part, lv_obj_get_style_prop(obj, par
 454:Drivers/lvgl/src/core/lv_obj_style_gen.h ****     return v.color;
 455:Drivers/lvgl/src/core/lv_obj_style_gen.h **** }
 456:Drivers/lvgl/src/core/lv_obj_style_gen.h **** 
 457:Drivers/lvgl/src/core/lv_obj_style_gen.h **** static inline lv_opa_t lv_obj_get_style_text_opa(const struct _lv_obj_t * obj, uint32_t part)
 458:Drivers/lvgl/src/core/lv_obj_style_gen.h **** {
 459:Drivers/lvgl/src/core/lv_obj_style_gen.h ****     lv_style_value_t v = lv_obj_get_style_prop(obj, part, LV_STYLE_TEXT_OPA);
 460:Drivers/lvgl/src/core/lv_obj_style_gen.h ****     return (lv_opa_t)v.num;
 461:Drivers/lvgl/src/core/lv_obj_style_gen.h **** }
 462:Drivers/lvgl/src/core/lv_obj_style_gen.h **** 
 463:Drivers/lvgl/src/core/lv_obj_style_gen.h **** static inline const lv_font_t * lv_obj_get_style_text_font(const struct _lv_obj_t * obj, uint32_t p
 464:Drivers/lvgl/src/core/lv_obj_style_gen.h **** {
 465:Drivers/lvgl/src/core/lv_obj_style_gen.h ****     lv_style_value_t v = lv_obj_get_style_prop(obj, part, LV_STYLE_TEXT_FONT);
 466:Drivers/lvgl/src/core/lv_obj_style_gen.h ****     return (const lv_font_t *)v.ptr;
 467:Drivers/lvgl/src/core/lv_obj_style_gen.h **** }
 468:Drivers/lvgl/src/core/lv_obj_style_gen.h **** 
 469:Drivers/lvgl/src/core/lv_obj_style_gen.h **** static inline lv_coord_t lv_obj_get_style_text_letter_space(const struct _lv_obj_t * obj, uint32_t 
 470:Drivers/lvgl/src/core/lv_obj_style_gen.h **** {
 471:Drivers/lvgl/src/core/lv_obj_style_gen.h ****     lv_style_value_t v = lv_obj_get_style_prop(obj, part, LV_STYLE_TEXT_LETTER_SPACE);
 472:Drivers/lvgl/src/core/lv_obj_style_gen.h ****     return (lv_coord_t)v.num;
ARM GAS  /var/folders/lp/x54gwt890xv47sdkqj1k04q40000gn/T//ccCdbJgg.s 			page 37


 473:Drivers/lvgl/src/core/lv_obj_style_gen.h **** }
 474:Drivers/lvgl/src/core/lv_obj_style_gen.h **** 
 475:Drivers/lvgl/src/core/lv_obj_style_gen.h **** static inline lv_coord_t lv_obj_get_style_text_line_space(const struct _lv_obj_t * obj, uint32_t pa
 476:Drivers/lvgl/src/core/lv_obj_style_gen.h **** {
 477:Drivers/lvgl/src/core/lv_obj_style_gen.h ****     lv_style_value_t v = lv_obj_get_style_prop(obj, part, LV_STYLE_TEXT_LINE_SPACE);
 478:Drivers/lvgl/src/core/lv_obj_style_gen.h ****     return (lv_coord_t)v.num;
 479:Drivers/lvgl/src/core/lv_obj_style_gen.h **** }
 480:Drivers/lvgl/src/core/lv_obj_style_gen.h **** 
 481:Drivers/lvgl/src/core/lv_obj_style_gen.h **** static inline lv_text_decor_t lv_obj_get_style_text_decor(const struct _lv_obj_t * obj, uint32_t pa
 482:Drivers/lvgl/src/core/lv_obj_style_gen.h **** {
 483:Drivers/lvgl/src/core/lv_obj_style_gen.h ****     lv_style_value_t v = lv_obj_get_style_prop(obj, part, LV_STYLE_TEXT_DECOR);
 484:Drivers/lvgl/src/core/lv_obj_style_gen.h ****     return (lv_text_decor_t)v.num;
 485:Drivers/lvgl/src/core/lv_obj_style_gen.h **** }
 486:Drivers/lvgl/src/core/lv_obj_style_gen.h **** 
 487:Drivers/lvgl/src/core/lv_obj_style_gen.h **** static inline lv_text_align_t lv_obj_get_style_text_align(const struct _lv_obj_t * obj, uint32_t pa
 488:Drivers/lvgl/src/core/lv_obj_style_gen.h **** {
 489:Drivers/lvgl/src/core/lv_obj_style_gen.h ****     lv_style_value_t v = lv_obj_get_style_prop(obj, part, LV_STYLE_TEXT_ALIGN);
 490:Drivers/lvgl/src/core/lv_obj_style_gen.h ****     return (lv_text_align_t)v.num;
 491:Drivers/lvgl/src/core/lv_obj_style_gen.h **** }
 492:Drivers/lvgl/src/core/lv_obj_style_gen.h **** 
 493:Drivers/lvgl/src/core/lv_obj_style_gen.h **** static inline lv_coord_t lv_obj_get_style_radius(const struct _lv_obj_t * obj, uint32_t part)
 494:Drivers/lvgl/src/core/lv_obj_style_gen.h **** {
 495:Drivers/lvgl/src/core/lv_obj_style_gen.h ****     lv_style_value_t v = lv_obj_get_style_prop(obj, part, LV_STYLE_RADIUS);
 496:Drivers/lvgl/src/core/lv_obj_style_gen.h ****     return (lv_coord_t)v.num;
 497:Drivers/lvgl/src/core/lv_obj_style_gen.h **** }
 498:Drivers/lvgl/src/core/lv_obj_style_gen.h **** 
 499:Drivers/lvgl/src/core/lv_obj_style_gen.h **** static inline bool lv_obj_get_style_clip_corner(const struct _lv_obj_t * obj, uint32_t part)
 500:Drivers/lvgl/src/core/lv_obj_style_gen.h **** {
 501:Drivers/lvgl/src/core/lv_obj_style_gen.h ****     lv_style_value_t v = lv_obj_get_style_prop(obj, part, LV_STYLE_CLIP_CORNER);
 502:Drivers/lvgl/src/core/lv_obj_style_gen.h ****     return (bool)v.num;
 503:Drivers/lvgl/src/core/lv_obj_style_gen.h **** }
 504:Drivers/lvgl/src/core/lv_obj_style_gen.h **** 
 505:Drivers/lvgl/src/core/lv_obj_style_gen.h **** static inline lv_opa_t lv_obj_get_style_opa(const struct _lv_obj_t * obj, uint32_t part)
 506:Drivers/lvgl/src/core/lv_obj_style_gen.h **** {
 507:Drivers/lvgl/src/core/lv_obj_style_gen.h ****     lv_style_value_t v = lv_obj_get_style_prop(obj, part, LV_STYLE_OPA);
 508:Drivers/lvgl/src/core/lv_obj_style_gen.h ****     return (lv_opa_t)v.num;
 509:Drivers/lvgl/src/core/lv_obj_style_gen.h **** }
 510:Drivers/lvgl/src/core/lv_obj_style_gen.h **** 
 511:Drivers/lvgl/src/core/lv_obj_style_gen.h **** static inline lv_opa_t lv_obj_get_style_opa_layered(const struct _lv_obj_t * obj, uint32_t part)
 512:Drivers/lvgl/src/core/lv_obj_style_gen.h **** {
 513:Drivers/lvgl/src/core/lv_obj_style_gen.h ****     lv_style_value_t v = lv_obj_get_style_prop(obj, part, LV_STYLE_OPA_LAYERED);
 514:Drivers/lvgl/src/core/lv_obj_style_gen.h ****     return (lv_opa_t)v.num;
 515:Drivers/lvgl/src/core/lv_obj_style_gen.h **** }
 516:Drivers/lvgl/src/core/lv_obj_style_gen.h **** 
 517:Drivers/lvgl/src/core/lv_obj_style_gen.h **** static inline const lv_color_filter_dsc_t * lv_obj_get_style_color_filter_dsc(const struct _lv_obj_
 518:Drivers/lvgl/src/core/lv_obj_style_gen.h **** {
 519:Drivers/lvgl/src/core/lv_obj_style_gen.h ****     lv_style_value_t v = lv_obj_get_style_prop(obj, part, LV_STYLE_COLOR_FILTER_DSC);
 520:Drivers/lvgl/src/core/lv_obj_style_gen.h ****     return (const lv_color_filter_dsc_t *)v.ptr;
 521:Drivers/lvgl/src/core/lv_obj_style_gen.h **** }
 522:Drivers/lvgl/src/core/lv_obj_style_gen.h **** 
 523:Drivers/lvgl/src/core/lv_obj_style_gen.h **** static inline lv_opa_t lv_obj_get_style_color_filter_opa(const struct _lv_obj_t * obj, uint32_t par
 524:Drivers/lvgl/src/core/lv_obj_style_gen.h **** {
 525:Drivers/lvgl/src/core/lv_obj_style_gen.h ****     lv_style_value_t v = lv_obj_get_style_prop(obj, part, LV_STYLE_COLOR_FILTER_OPA);
 526:Drivers/lvgl/src/core/lv_obj_style_gen.h ****     return (lv_opa_t)v.num;
 527:Drivers/lvgl/src/core/lv_obj_style_gen.h **** }
 528:Drivers/lvgl/src/core/lv_obj_style_gen.h **** 
 529:Drivers/lvgl/src/core/lv_obj_style_gen.h **** static inline const lv_anim_t * lv_obj_get_style_anim(const struct _lv_obj_t * obj, uint32_t part)
ARM GAS  /var/folders/lp/x54gwt890xv47sdkqj1k04q40000gn/T//ccCdbJgg.s 			page 38


 530:Drivers/lvgl/src/core/lv_obj_style_gen.h **** {
 531:Drivers/lvgl/src/core/lv_obj_style_gen.h ****     lv_style_value_t v = lv_obj_get_style_prop(obj, part, LV_STYLE_ANIM);
 532:Drivers/lvgl/src/core/lv_obj_style_gen.h ****     return (const lv_anim_t *)v.ptr;
 533:Drivers/lvgl/src/core/lv_obj_style_gen.h **** }
 534:Drivers/lvgl/src/core/lv_obj_style_gen.h **** 
 535:Drivers/lvgl/src/core/lv_obj_style_gen.h **** static inline uint32_t lv_obj_get_style_anim_time(const struct _lv_obj_t * obj, uint32_t part)
 536:Drivers/lvgl/src/core/lv_obj_style_gen.h **** {
 537:Drivers/lvgl/src/core/lv_obj_style_gen.h ****     lv_style_value_t v = lv_obj_get_style_prop(obj, part, LV_STYLE_ANIM_TIME);
 538:Drivers/lvgl/src/core/lv_obj_style_gen.h ****     return (uint32_t)v.num;
 539:Drivers/lvgl/src/core/lv_obj_style_gen.h **** }
 540:Drivers/lvgl/src/core/lv_obj_style_gen.h **** 
 541:Drivers/lvgl/src/core/lv_obj_style_gen.h **** static inline uint32_t lv_obj_get_style_anim_speed(const struct _lv_obj_t * obj, uint32_t part)
 542:Drivers/lvgl/src/core/lv_obj_style_gen.h **** {
 543:Drivers/lvgl/src/core/lv_obj_style_gen.h ****     lv_style_value_t v = lv_obj_get_style_prop(obj, part, LV_STYLE_ANIM_SPEED);
 544:Drivers/lvgl/src/core/lv_obj_style_gen.h ****     return (uint32_t)v.num;
 545:Drivers/lvgl/src/core/lv_obj_style_gen.h **** }
 546:Drivers/lvgl/src/core/lv_obj_style_gen.h **** 
 547:Drivers/lvgl/src/core/lv_obj_style_gen.h **** static inline const lv_style_transition_dsc_t * lv_obj_get_style_transition(const struct _lv_obj_t 
 548:Drivers/lvgl/src/core/lv_obj_style_gen.h **** {
 549:Drivers/lvgl/src/core/lv_obj_style_gen.h ****     lv_style_value_t v = lv_obj_get_style_prop(obj, part, LV_STYLE_TRANSITION);
 550:Drivers/lvgl/src/core/lv_obj_style_gen.h ****     return (const lv_style_transition_dsc_t *)v.ptr;
 551:Drivers/lvgl/src/core/lv_obj_style_gen.h **** }
 552:Drivers/lvgl/src/core/lv_obj_style_gen.h **** 
 553:Drivers/lvgl/src/core/lv_obj_style_gen.h **** static inline lv_blend_mode_t lv_obj_get_style_blend_mode(const struct _lv_obj_t * obj, uint32_t pa
 554:Drivers/lvgl/src/core/lv_obj_style_gen.h **** {
 555:Drivers/lvgl/src/core/lv_obj_style_gen.h ****     lv_style_value_t v = lv_obj_get_style_prop(obj, part, LV_STYLE_BLEND_MODE);
 556:Drivers/lvgl/src/core/lv_obj_style_gen.h ****     return (lv_blend_mode_t)v.num;
 557:Drivers/lvgl/src/core/lv_obj_style_gen.h **** }
 558:Drivers/lvgl/src/core/lv_obj_style_gen.h **** 
 559:Drivers/lvgl/src/core/lv_obj_style_gen.h **** static inline uint16_t lv_obj_get_style_layout(const struct _lv_obj_t * obj, uint32_t part)
 560:Drivers/lvgl/src/core/lv_obj_style_gen.h **** {
 561:Drivers/lvgl/src/core/lv_obj_style_gen.h ****     lv_style_value_t v = lv_obj_get_style_prop(obj, part, LV_STYLE_LAYOUT);
 562:Drivers/lvgl/src/core/lv_obj_style_gen.h ****     return (uint16_t)v.num;
 563:Drivers/lvgl/src/core/lv_obj_style_gen.h **** }
 564:Drivers/lvgl/src/core/lv_obj_style_gen.h **** 
 565:Drivers/lvgl/src/core/lv_obj_style_gen.h **** static inline lv_base_dir_t lv_obj_get_style_base_dir(const struct _lv_obj_t * obj, uint32_t part)
 752              		.loc 2 565 29 view .LVU191
 753              	.LBB108:
 566:Drivers/lvgl/src/core/lv_obj_style_gen.h **** {
 567:Drivers/lvgl/src/core/lv_obj_style_gen.h ****     lv_style_value_t v = lv_obj_get_style_prop(obj, part, LV_STYLE_BASE_DIR);
 754              		.loc 2 567 5 view .LVU192
 755              		.loc 2 567 26 is_stmt 0 view .LVU193
 756 0006 1622     		movs	r2, #22
 757 0008 0021     		movs	r1, #0
 758 000a FFF7FEFF 		bl	lv_obj_get_style_prop
 759              	.LVL70:
 568:Drivers/lvgl/src/core/lv_obj_style_gen.h ****     return (lv_base_dir_t)v.num;
 760              		.loc 2 568 5 is_stmt 1 view .LVU194
 761              		.loc 2 568 12 is_stmt 0 view .LVU195
 762 000e C0B2     		uxtb	r0, r0
 763              	.LVL71:
 764              		.loc 2 568 12 view .LVU196
 765              	.LBE108:
 766              	.LBE107:
 167:Drivers/lvgl/src/core/lv_obj_scroll.c ****         if(obj->spec_attr == NULL) return 0;
 767              		.loc 1 167 7 discriminator 1 view .LVU197
 768 0010 0128     		cmp	r0, #1
ARM GAS  /var/folders/lp/x54gwt890xv47sdkqj1k04q40000gn/T//ccCdbJgg.s 			page 39


 769 0012 07D0     		beq	.L45
 168:Drivers/lvgl/src/core/lv_obj_scroll.c ****         return -obj->spec_attr->scroll.x;
 770              		.loc 1 168 9 is_stmt 1 view .LVU198
 168:Drivers/lvgl/src/core/lv_obj_scroll.c ****         return -obj->spec_attr->scroll.x;
 771              		.loc 1 168 15 is_stmt 0 view .LVU199
 772 0014 A368     		ldr	r3, [r4, #8]
 168:Drivers/lvgl/src/core/lv_obj_scroll.c ****         return -obj->spec_attr->scroll.x;
 773              		.loc 1 168 11 view .LVU200
 774 0016 002B     		cmp	r3, #0
 775 0018 5DD0     		beq	.L51
 169:Drivers/lvgl/src/core/lv_obj_scroll.c ****     }
 776              		.loc 1 169 9 is_stmt 1 view .LVU201
 169:Drivers/lvgl/src/core/lv_obj_scroll.c ****     }
 777              		.loc 1 169 39 is_stmt 0 view .LVU202
 778 001a 188A     		ldrh	r0, [r3, #16]
 169:Drivers/lvgl/src/core/lv_obj_scroll.c ****     }
 779              		.loc 1 169 16 view .LVU203
 780 001c 4042     		rsbs	r0, r0, #0
 781 001e 00B2     		sxth	r0, r0
 782              	.L46:
 202:Drivers/lvgl/src/core/lv_obj_scroll.c **** 
 783              		.loc 1 202 1 view .LVU204
 784 0020 BDE8F88F 		pop	{r3, r4, r5, r6, r7, r8, r9, r10, fp, pc}
 785              	.LVL72:
 786              	.L45:
 173:Drivers/lvgl/src/core/lv_obj_scroll.c ****     lv_coord_t pad_left = lv_obj_get_style_pad_left(obj, LV_PART_MAIN);
 787              		.loc 1 173 5 is_stmt 1 view .LVU205
 788              	.LBB109:
 789              	.LBI109:
 121:Drivers/lvgl/src/core/lv_obj_style_gen.h **** {
 790              		.loc 2 121 26 view .LVU206
 791              	.LBB110:
 123:Drivers/lvgl/src/core/lv_obj_style_gen.h ****     return (lv_coord_t)v.num;
 792              		.loc 2 123 5 view .LVU207
 123:Drivers/lvgl/src/core/lv_obj_style_gen.h ****     return (lv_coord_t)v.num;
 793              		.loc 2 123 26 is_stmt 0 view .LVU208
 794 0024 1322     		movs	r2, #19
 795 0026 0021     		movs	r1, #0
 796 0028 2046     		mov	r0, r4
 797 002a FFF7FEFF 		bl	lv_obj_get_style_prop
 798              	.LVL73:
 799 002e 0746     		mov	r7, r0
 124:Drivers/lvgl/src/core/lv_obj_style_gen.h **** }
 800              		.loc 2 124 5 is_stmt 1 view .LVU209
 801              	.LVL74:
 124:Drivers/lvgl/src/core/lv_obj_style_gen.h **** }
 802              		.loc 2 124 5 is_stmt 0 view .LVU210
 803              	.LBE110:
 804              	.LBE109:
 174:Drivers/lvgl/src/core/lv_obj_scroll.c ****     lv_coord_t border_width = lv_obj_get_style_border_width(obj, LV_PART_MAIN);
 805              		.loc 1 174 5 is_stmt 1 view .LVU211
 806              	.LBB111:
 807              	.LBI111:
 115:Drivers/lvgl/src/core/lv_obj_style_gen.h **** {
 808              		.loc 2 115 26 view .LVU212
 809              	.LBB112:
 117:Drivers/lvgl/src/core/lv_obj_style_gen.h ****     return (lv_coord_t)v.num;
ARM GAS  /var/folders/lp/x54gwt890xv47sdkqj1k04q40000gn/T//ccCdbJgg.s 			page 40


 810              		.loc 2 117 5 view .LVU213
 117:Drivers/lvgl/src/core/lv_obj_style_gen.h ****     return (lv_coord_t)v.num;
 811              		.loc 2 117 26 is_stmt 0 view .LVU214
 812 0030 1222     		movs	r2, #18
 813 0032 0021     		movs	r1, #0
 814 0034 2046     		mov	r0, r4
 815 0036 FFF7FEFF 		bl	lv_obj_get_style_prop
 816              	.LVL75:
 817 003a 8346     		mov	fp, r0
 118:Drivers/lvgl/src/core/lv_obj_style_gen.h **** }
 818              		.loc 2 118 5 is_stmt 1 view .LVU215
 819              	.LVL76:
 118:Drivers/lvgl/src/core/lv_obj_style_gen.h **** }
 820              		.loc 2 118 5 is_stmt 0 view .LVU216
 821              	.LBE112:
 822              	.LBE111:
 175:Drivers/lvgl/src/core/lv_obj_scroll.c **** 
 823              		.loc 1 175 5 is_stmt 1 view .LVU217
 824              	.LBB113:
 825              	.LBI113:
 253:Drivers/lvgl/src/core/lv_obj_style_gen.h **** {
 826              		.loc 2 253 26 view .LVU218
 827              	.LBB114:
 255:Drivers/lvgl/src/core/lv_obj_style_gen.h ****     return (lv_coord_t)v.num;
 828              		.loc 2 255 5 view .LVU219
 255:Drivers/lvgl/src/core/lv_obj_style_gen.h ****     return (lv_coord_t)v.num;
 829              		.loc 2 255 26 is_stmt 0 view .LVU220
 830 003c 3222     		movs	r2, #50
 831 003e 0021     		movs	r1, #0
 832 0040 2046     		mov	r0, r4
 833 0042 FFF7FEFF 		bl	lv_obj_get_style_prop
 834              	.LVL77:
 835 0046 8246     		mov	r10, r0
 256:Drivers/lvgl/src/core/lv_obj_style_gen.h **** }
 836              		.loc 2 256 5 is_stmt 1 view .LVU221
 837              	.LVL78:
 256:Drivers/lvgl/src/core/lv_obj_style_gen.h **** }
 838              		.loc 2 256 5 is_stmt 0 view .LVU222
 839              	.LBE114:
 840              	.LBE113:
 177:Drivers/lvgl/src/core/lv_obj_scroll.c **** 
 841              		.loc 1 177 5 is_stmt 1 view .LVU223
 179:Drivers/lvgl/src/core/lv_obj_scroll.c ****     lv_coord_t x1 = LV_COORD_MAX;
 842              		.loc 1 179 5 view .LVU224
 180:Drivers/lvgl/src/core/lv_obj_scroll.c ****     uint32_t child_cnt = lv_obj_get_child_cnt(obj);
 843              		.loc 1 180 5 view .LVU225
 181:Drivers/lvgl/src/core/lv_obj_scroll.c ****     for(i = 0; i < child_cnt; i++) {
 844              		.loc 1 181 5 view .LVU226
 181:Drivers/lvgl/src/core/lv_obj_scroll.c ****     for(i = 0; i < child_cnt; i++) {
 845              		.loc 1 181 26 is_stmt 0 view .LVU227
 846 0048 2046     		mov	r0, r4
 847 004a FFF7FEFF 		bl	lv_obj_get_child_cnt
 848              	.LVL79:
 849 004e 8146     		mov	r9, r0
 850              	.LVL80:
 182:Drivers/lvgl/src/core/lv_obj_scroll.c ****         lv_obj_t * child = obj->spec_attr->children[i];
 851              		.loc 1 182 5 is_stmt 1 view .LVU228
ARM GAS  /var/folders/lp/x54gwt890xv47sdkqj1k04q40000gn/T//ccCdbJgg.s 			page 41


 180:Drivers/lvgl/src/core/lv_obj_scroll.c ****     uint32_t child_cnt = lv_obj_get_child_cnt(obj);
 852              		.loc 1 180 16 is_stmt 0 view .LVU229
 853 0050 41F6FF78 		movw	r8, #8191
 182:Drivers/lvgl/src/core/lv_obj_scroll.c ****         lv_obj_t * child = obj->spec_attr->children[i];
 854              		.loc 1 182 11 view .LVU230
 855 0054 0025     		movs	r5, #0
 182:Drivers/lvgl/src/core/lv_obj_scroll.c ****         lv_obj_t * child = obj->spec_attr->children[i];
 856              		.loc 1 182 5 view .LVU231
 857 0056 05E0     		b	.L47
 858              	.LVL81:
 859              	.L55:
 860              	.LBB115:
 185:Drivers/lvgl/src/core/lv_obj_scroll.c **** 
 861              		.loc 1 185 9 is_stmt 1 view .LVU232
 185:Drivers/lvgl/src/core/lv_obj_scroll.c **** 
 862              		.loc 1 185 14 is_stmt 0 view .LVU233
 863 0058 B6F91430 		ldrsh	r3, [r6, #20]
 185:Drivers/lvgl/src/core/lv_obj_scroll.c **** 
 864              		.loc 1 185 12 view .LVU234
 865 005c 9845     		cmp	r8, r3
 866 005e A8BF     		it	ge
 867 0060 9846     		movge	r8, r3
 868              	.LVL82:
 869              	.L48:
 185:Drivers/lvgl/src/core/lv_obj_scroll.c **** 
 870              		.loc 1 185 12 view .LVU235
 871              	.LBE115:
 182:Drivers/lvgl/src/core/lv_obj_scroll.c ****         lv_obj_t * child = obj->spec_attr->children[i];
 872              		.loc 1 182 32 is_stmt 1 discriminator 2 view .LVU236
 873 0062 0135     		adds	r5, r5, #1
 874              	.LVL83:
 875              	.L47:
 182:Drivers/lvgl/src/core/lv_obj_scroll.c ****         lv_obj_t * child = obj->spec_attr->children[i];
 876              		.loc 1 182 18 discriminator 1 view .LVU237
 877 0064 4D45     		cmp	r5, r9
 878 0066 0AD2     		bcs	.L54
 879              	.LBB116:
 183:Drivers/lvgl/src/core/lv_obj_scroll.c ****         if(lv_obj_has_flag_any(child,  LV_OBJ_FLAG_HIDDEN | LV_OBJ_FLAG_FLOATING)) continue;
 880              		.loc 1 183 9 view .LVU238
 183:Drivers/lvgl/src/core/lv_obj_scroll.c ****         if(lv_obj_has_flag_any(child,  LV_OBJ_FLAG_HIDDEN | LV_OBJ_FLAG_FLOATING)) continue;
 881              		.loc 1 183 31 is_stmt 0 view .LVU239
 882 0068 A368     		ldr	r3, [r4, #8]
 183:Drivers/lvgl/src/core/lv_obj_scroll.c ****         if(lv_obj_has_flag_any(child,  LV_OBJ_FLAG_HIDDEN | LV_OBJ_FLAG_FLOATING)) continue;
 883              		.loc 1 183 42 view .LVU240
 884 006a 1B68     		ldr	r3, [r3]
 183:Drivers/lvgl/src/core/lv_obj_scroll.c ****         if(lv_obj_has_flag_any(child,  LV_OBJ_FLAG_HIDDEN | LV_OBJ_FLAG_FLOATING)) continue;
 885              		.loc 1 183 20 view .LVU241
 886 006c 53F82560 		ldr	r6, [r3, r5, lsl #2]
 887              	.LVL84:
 184:Drivers/lvgl/src/core/lv_obj_scroll.c ****         x1 = LV_MIN(x1, child->coords.x1);
 888              		.loc 1 184 9 is_stmt 1 view .LVU242
 184:Drivers/lvgl/src/core/lv_obj_scroll.c ****         x1 = LV_MIN(x1, child->coords.x1);
 889              		.loc 1 184 12 is_stmt 0 view .LVU243
 890 0070 1A49     		ldr	r1, .L56
 891 0072 3046     		mov	r0, r6
 892 0074 FFF7FEFF 		bl	lv_obj_has_flag_any
 893              	.LVL85:
ARM GAS  /var/folders/lp/x54gwt890xv47sdkqj1k04q40000gn/T//ccCdbJgg.s 			page 42


 184:Drivers/lvgl/src/core/lv_obj_scroll.c ****         x1 = LV_MIN(x1, child->coords.x1);
 894              		.loc 1 184 11 discriminator 1 view .LVU244
 895 0078 0028     		cmp	r0, #0
 896 007a EDD0     		beq	.L55
 897 007c F1E7     		b	.L48
 898              	.LVL86:
 899              	.L54:
 184:Drivers/lvgl/src/core/lv_obj_scroll.c ****         x1 = LV_MIN(x1, child->coords.x1);
 900              		.loc 1 184 11 discriminator 1 view .LVU245
 901              	.LBE116:
 189:Drivers/lvgl/src/core/lv_obj_scroll.c ****         child_res = x1;
 902              		.loc 1 189 5 is_stmt 1 view .LVU246
 189:Drivers/lvgl/src/core/lv_obj_scroll.c ****         child_res = x1;
 903              		.loc 1 189 7 is_stmt 0 view .LVU247
 904 007e 41F6FF73 		movw	r3, #8191
 905 0082 9845     		cmp	r8, r3
 906 0084 25D0     		beq	.L52
 190:Drivers/lvgl/src/core/lv_obj_scroll.c ****         child_res = (obj->coords.x1 + pad_left + border_width) - child_res;
 907              		.loc 1 190 9 is_stmt 1 view .LVU248
 908              	.LVL87:
 191:Drivers/lvgl/src/core/lv_obj_scroll.c ****     }
 909              		.loc 1 191 9 view .LVU249
 191:Drivers/lvgl/src/core/lv_obj_scroll.c ****     }
 910              		.loc 1 191 33 is_stmt 0 view .LVU250
 911 0086 A58A     		ldrh	r5, [r4, #20]
 912              	.LVL88:
 191:Drivers/lvgl/src/core/lv_obj_scroll.c ****     }
 913              		.loc 1 191 37 view .LVU251
 914 0088 5D44     		add	r5, r5, fp
 191:Drivers/lvgl/src/core/lv_obj_scroll.c ****     }
 915              		.loc 1 191 48 view .LVU252
 916 008a 1AFA85F5 		uxtah	r5, r10, r5
 917 008e ADB2     		uxth	r5, r5
 191:Drivers/lvgl/src/core/lv_obj_scroll.c ****     }
 918              		.loc 1 191 64 view .LVU253
 919 0090 A5EB0805 		sub	r5, r5, r8
 191:Drivers/lvgl/src/core/lv_obj_scroll.c ****     }
 920              		.loc 1 191 19 view .LVU254
 921 0094 2DB2     		sxth	r5, r5
 922              	.LVL89:
 923              	.L50:
 197:Drivers/lvgl/src/core/lv_obj_scroll.c ****     self_w = self_w - (lv_obj_get_width(obj) - pad_right - pad_left - 2 * border_width);
 924              		.loc 1 197 5 is_stmt 1 view .LVU255
 197:Drivers/lvgl/src/core/lv_obj_scroll.c ****     self_w = self_w - (lv_obj_get_width(obj) - pad_right - pad_left - 2 * border_width);
 925              		.loc 1 197 25 is_stmt 0 view .LVU256
 926 0096 2046     		mov	r0, r4
 927 0098 FFF7FEFF 		bl	lv_obj_get_self_width
 928              	.LVL90:
 929 009c 8046     		mov	r8, r0
 930              	.LVL91:
 198:Drivers/lvgl/src/core/lv_obj_scroll.c ****     self_w += lv_obj_get_scroll_x(obj);
 931              		.loc 1 198 5 is_stmt 1 view .LVU257
 198:Drivers/lvgl/src/core/lv_obj_scroll.c ****     self_w += lv_obj_get_scroll_x(obj);
 932              		.loc 1 198 73 is_stmt 0 view .LVU258
 933 009e 4FEA4A0A 		lsl	r10, r10, #1
 934              	.LVL92:
 198:Drivers/lvgl/src/core/lv_obj_scroll.c ****     self_w += lv_obj_get_scroll_x(obj);
ARM GAS  /var/folders/lp/x54gwt890xv47sdkqj1k04q40000gn/T//ccCdbJgg.s 			page 43


 935              		.loc 1 198 73 view .LVU259
 936 00a2 1FFA8AFA 		uxth	r10, r10
 198:Drivers/lvgl/src/core/lv_obj_scroll.c ****     self_w += lv_obj_get_scroll_x(obj);
 937              		.loc 1 198 24 view .LVU260
 938 00a6 2046     		mov	r0, r4
 939 00a8 FFF7FEFF 		bl	lv_obj_get_width
 940              	.LVL93:
 198:Drivers/lvgl/src/core/lv_obj_scroll.c ****     self_w += lv_obj_get_scroll_x(obj);
 941              		.loc 1 198 24 discriminator 1 view .LVU261
 942 00ac 80B2     		uxth	r0, r0
 198:Drivers/lvgl/src/core/lv_obj_scroll.c ****     self_w += lv_obj_get_scroll_x(obj);
 943              		.loc 1 198 46 discriminator 1 view .LVU262
 944 00ae 3E1A     		subs	r6, r7, r0
 198:Drivers/lvgl/src/core/lv_obj_scroll.c ****     self_w += lv_obj_get_scroll_x(obj);
 945              		.loc 1 198 58 discriminator 1 view .LVU263
 946 00b0 1BFA86F6 		uxtah	r6, fp, r6
 198:Drivers/lvgl/src/core/lv_obj_scroll.c ****     self_w += lv_obj_get_scroll_x(obj);
 947              		.loc 1 198 69 discriminator 1 view .LVU264
 948 00b4 1AFA86F6 		uxtah	r6, r10, r6
 198:Drivers/lvgl/src/core/lv_obj_scroll.c ****     self_w += lv_obj_get_scroll_x(obj);
 949              		.loc 1 198 21 discriminator 1 view .LVU265
 950 00b8 18FA86F6 		uxtah	r6, r8, r6
 951 00bc B6B2     		uxth	r6, r6
 952              	.LVL94:
 199:Drivers/lvgl/src/core/lv_obj_scroll.c **** 
 953              		.loc 1 199 5 is_stmt 1 view .LVU266
 199:Drivers/lvgl/src/core/lv_obj_scroll.c **** 
 954              		.loc 1 199 15 is_stmt 0 view .LVU267
 955 00be 2046     		mov	r0, r4
 956 00c0 FFF7FEFF 		bl	lv_obj_get_scroll_x
 957              	.LVL95:
 199:Drivers/lvgl/src/core/lv_obj_scroll.c **** 
 958              		.loc 1 199 12 discriminator 1 view .LVU268
 959 00c4 16FA80F0 		uxtah	r0, r6, r0
 960 00c8 00B2     		sxth	r0, r0
 961              	.LVL96:
 201:Drivers/lvgl/src/core/lv_obj_scroll.c **** }
 962              		.loc 1 201 5 is_stmt 1 view .LVU269
 201:Drivers/lvgl/src/core/lv_obj_scroll.c **** }
 963              		.loc 1 201 12 is_stmt 0 view .LVU270
 964 00ca A842     		cmp	r0, r5
 965 00cc B8BF     		it	lt
 966 00ce 2846     		movlt	r0, r5
 967              	.LVL97:
 201:Drivers/lvgl/src/core/lv_obj_scroll.c **** }
 968              		.loc 1 201 12 view .LVU271
 969 00d0 A6E7     		b	.L46
 970              	.LVL98:
 971              	.L52:
 194:Drivers/lvgl/src/core/lv_obj_scroll.c ****     }
 972              		.loc 1 194 19 view .LVU272
 973 00d2 034D     		ldr	r5, .L56+4
 974              	.LVL99:
 194:Drivers/lvgl/src/core/lv_obj_scroll.c ****     }
 975              		.loc 1 194 19 view .LVU273
 976 00d4 DFE7     		b	.L50
 977              	.LVL100:
ARM GAS  /var/folders/lp/x54gwt890xv47sdkqj1k04q40000gn/T//ccCdbJgg.s 			page 44


 978              	.L51:
 168:Drivers/lvgl/src/core/lv_obj_scroll.c ****         return -obj->spec_attr->scroll.x;
 979              		.loc 1 168 43 discriminator 1 view .LVU274
 980 00d6 0020     		movs	r0, #0
 981 00d8 A2E7     		b	.L46
 982              	.L57:
 983 00da 00BF     		.align	2
 984              	.L56:
 985 00dc 01000400 		.word	262145
 986 00e0 01E0FFFF 		.word	-8191
 987              		.cfi_endproc
 988              	.LFE179:
 990              		.section	.text.lv_obj_get_scroll_right,"ax",%progbits
 991              		.align	1
 992              		.global	lv_obj_get_scroll_right
 993              		.syntax unified
 994              		.thumb
 995              		.thumb_func
 997              	lv_obj_get_scroll_right:
 998              	.LVL101:
 999              	.LFB180:
 205:Drivers/lvgl/src/core/lv_obj_scroll.c ****     LV_ASSERT_OBJ(obj, MY_CLASS);
 1000              		.loc 1 205 1 is_stmt 1 view -0
 1001              		.cfi_startproc
 1002              		@ args = 0, pretend = 0, frame = 0
 1003              		@ frame_needed = 0, uses_anonymous_args = 0
 205:Drivers/lvgl/src/core/lv_obj_scroll.c ****     LV_ASSERT_OBJ(obj, MY_CLASS);
 1004              		.loc 1 205 1 is_stmt 0 view .LVU276
 1005 0000 2DE9F843 		push	{r3, r4, r5, r6, r7, r8, r9, lr}
 1006              		.cfi_def_cfa_offset 32
 1007              		.cfi_offset 3, -32
 1008              		.cfi_offset 4, -28
 1009              		.cfi_offset 5, -24
 1010              		.cfi_offset 6, -20
 1011              		.cfi_offset 7, -16
 1012              		.cfi_offset 8, -12
 1013              		.cfi_offset 9, -8
 1014              		.cfi_offset 14, -4
 1015 0004 0546     		mov	r5, r0
 206:Drivers/lvgl/src/core/lv_obj_scroll.c **** 
 1016              		.loc 1 206 5 is_stmt 1 view .LVU277
 206:Drivers/lvgl/src/core/lv_obj_scroll.c **** 
 1017              		.loc 1 206 5 view .LVU278
 206:Drivers/lvgl/src/core/lv_obj_scroll.c **** 
 1018              		.loc 1 206 5 view .LVU279
 210:Drivers/lvgl/src/core/lv_obj_scroll.c ****         if(obj->spec_attr == NULL) return 0;
 1019              		.loc 1 210 5 view .LVU280
 1020              	.LVL102:
 1021              	.LBB117:
 1022              	.LBI117:
 565:Drivers/lvgl/src/core/lv_obj_style_gen.h **** {
 1023              		.loc 2 565 29 view .LVU281
 1024              	.LBB118:
 567:Drivers/lvgl/src/core/lv_obj_style_gen.h ****     return (lv_base_dir_t)v.num;
 1025              		.loc 2 567 5 view .LVU282
 567:Drivers/lvgl/src/core/lv_obj_style_gen.h ****     return (lv_base_dir_t)v.num;
 1026              		.loc 2 567 26 is_stmt 0 view .LVU283
ARM GAS  /var/folders/lp/x54gwt890xv47sdkqj1k04q40000gn/T//ccCdbJgg.s 			page 45


 1027 0006 1622     		movs	r2, #22
 1028 0008 0021     		movs	r1, #0
 1029 000a FFF7FEFF 		bl	lv_obj_get_style_prop
 1030              	.LVL103:
 1031              		.loc 2 568 5 is_stmt 1 view .LVU284
 1032              		.loc 2 568 12 is_stmt 0 view .LVU285
 1033 000e C0B2     		uxtb	r0, r0
 1034              	.LVL104:
 1035              		.loc 2 568 12 view .LVU286
 1036              	.LBE118:
 1037              	.LBE117:
 210:Drivers/lvgl/src/core/lv_obj_scroll.c ****         if(obj->spec_attr == NULL) return 0;
 1038              		.loc 1 210 7 discriminator 1 view .LVU287
 1039 0010 0128     		cmp	r0, #1
 1040 0012 05D1     		bne	.L59
 211:Drivers/lvgl/src/core/lv_obj_scroll.c ****         return obj->spec_attr->scroll.x;
 1041              		.loc 1 211 9 is_stmt 1 view .LVU288
 211:Drivers/lvgl/src/core/lv_obj_scroll.c ****         return obj->spec_attr->scroll.x;
 1042              		.loc 1 211 15 is_stmt 0 view .LVU289
 1043 0014 AB68     		ldr	r3, [r5, #8]
 211:Drivers/lvgl/src/core/lv_obj_scroll.c ****         return obj->spec_attr->scroll.x;
 1044              		.loc 1 211 11 view .LVU290
 1045 0016 002B     		cmp	r3, #0
 1046 0018 53D0     		beq	.L65
 212:Drivers/lvgl/src/core/lv_obj_scroll.c ****     }
 1047              		.loc 1 212 9 is_stmt 1 view .LVU291
 212:Drivers/lvgl/src/core/lv_obj_scroll.c ****     }
 1048              		.loc 1 212 38 is_stmt 0 view .LVU292
 1049 001a B3F91000 		ldrsh	r0, [r3, #16]
 1050 001e 4EE0     		b	.L60
 1051              	.L59:
 216:Drivers/lvgl/src/core/lv_obj_scroll.c ****     uint32_t i;
 1052              		.loc 1 216 5 is_stmt 1 view .LVU293
 1053              	.LVL105:
 217:Drivers/lvgl/src/core/lv_obj_scroll.c ****     uint32_t child_cnt = lv_obj_get_child_cnt(obj);
 1054              		.loc 1 217 5 view .LVU294
 218:Drivers/lvgl/src/core/lv_obj_scroll.c ****     for(i = 0; i < child_cnt; i++) {
 1055              		.loc 1 218 5 view .LVU295
 218:Drivers/lvgl/src/core/lv_obj_scroll.c ****     for(i = 0; i < child_cnt; i++) {
 1056              		.loc 1 218 26 is_stmt 0 view .LVU296
 1057 0020 2846     		mov	r0, r5
 1058 0022 FFF7FEFF 		bl	lv_obj_get_child_cnt
 1059              	.LVL106:
 1060 0026 8046     		mov	r8, r0
 1061              	.LVL107:
 219:Drivers/lvgl/src/core/lv_obj_scroll.c ****         lv_obj_t * child = obj->spec_attr->children[i];
 1062              		.loc 1 219 5 is_stmt 1 view .LVU297
 219:Drivers/lvgl/src/core/lv_obj_scroll.c ****         lv_obj_t * child = obj->spec_attr->children[i];
 1063              		.loc 1 219 11 is_stmt 0 view .LVU298
 1064 0028 0024     		movs	r4, #0
 216:Drivers/lvgl/src/core/lv_obj_scroll.c ****     uint32_t i;
 1065              		.loc 1 216 16 view .LVU299
 1066 002a 274F     		ldr	r7, .L69
 219:Drivers/lvgl/src/core/lv_obj_scroll.c ****         lv_obj_t * child = obj->spec_attr->children[i];
 1067              		.loc 1 219 5 view .LVU300
 1068 002c 05E0     		b	.L61
 1069              	.LVL108:
ARM GAS  /var/folders/lp/x54gwt890xv47sdkqj1k04q40000gn/T//ccCdbJgg.s 			page 46


 1070              	.L68:
 1071              	.LBB119:
 222:Drivers/lvgl/src/core/lv_obj_scroll.c ****     }
 1072              		.loc 1 222 9 is_stmt 1 view .LVU301
 222:Drivers/lvgl/src/core/lv_obj_scroll.c ****     }
 1073              		.loc 1 222 21 is_stmt 0 view .LVU302
 1074 002e B6F91830 		ldrsh	r3, [r6, #24]
 222:Drivers/lvgl/src/core/lv_obj_scroll.c ****     }
 1075              		.loc 1 222 19 view .LVU303
 1076 0032 9F42     		cmp	r7, r3
 1077 0034 B8BF     		it	lt
 1078 0036 1F46     		movlt	r7, r3
 1079              	.LVL109:
 1080              	.L62:
 222:Drivers/lvgl/src/core/lv_obj_scroll.c ****     }
 1081              		.loc 1 222 19 view .LVU304
 1082              	.LBE119:
 219:Drivers/lvgl/src/core/lv_obj_scroll.c ****         lv_obj_t * child = obj->spec_attr->children[i];
 1083              		.loc 1 219 32 is_stmt 1 discriminator 2 view .LVU305
 1084 0038 0134     		adds	r4, r4, #1
 1085              	.LVL110:
 1086              	.L61:
 219:Drivers/lvgl/src/core/lv_obj_scroll.c ****         lv_obj_t * child = obj->spec_attr->children[i];
 1087              		.loc 1 219 18 discriminator 1 view .LVU306
 1088 003a 4445     		cmp	r4, r8
 1089 003c 0AD2     		bcs	.L67
 1090              	.LBB120:
 220:Drivers/lvgl/src/core/lv_obj_scroll.c ****         if(lv_obj_has_flag_any(child,  LV_OBJ_FLAG_HIDDEN | LV_OBJ_FLAG_FLOATING)) continue;
 1091              		.loc 1 220 9 view .LVU307
 220:Drivers/lvgl/src/core/lv_obj_scroll.c ****         if(lv_obj_has_flag_any(child,  LV_OBJ_FLAG_HIDDEN | LV_OBJ_FLAG_FLOATING)) continue;
 1092              		.loc 1 220 31 is_stmt 0 view .LVU308
 1093 003e AB68     		ldr	r3, [r5, #8]
 220:Drivers/lvgl/src/core/lv_obj_scroll.c ****         if(lv_obj_has_flag_any(child,  LV_OBJ_FLAG_HIDDEN | LV_OBJ_FLAG_FLOATING)) continue;
 1094              		.loc 1 220 42 view .LVU309
 1095 0040 1B68     		ldr	r3, [r3]
 220:Drivers/lvgl/src/core/lv_obj_scroll.c ****         if(lv_obj_has_flag_any(child,  LV_OBJ_FLAG_HIDDEN | LV_OBJ_FLAG_FLOATING)) continue;
 1096              		.loc 1 220 20 view .LVU310
 1097 0042 53F82460 		ldr	r6, [r3, r4, lsl #2]
 1098              	.LVL111:
 221:Drivers/lvgl/src/core/lv_obj_scroll.c ****         child_res = LV_MAX(child_res, child->coords.x2);
 1099              		.loc 1 221 9 is_stmt 1 view .LVU311
 221:Drivers/lvgl/src/core/lv_obj_scroll.c ****         child_res = LV_MAX(child_res, child->coords.x2);
 1100              		.loc 1 221 12 is_stmt 0 view .LVU312
 1101 0046 2149     		ldr	r1, .L69+4
 1102 0048 3046     		mov	r0, r6
 1103 004a FFF7FEFF 		bl	lv_obj_has_flag_any
 1104              	.LVL112:
 221:Drivers/lvgl/src/core/lv_obj_scroll.c ****         child_res = LV_MAX(child_res, child->coords.x2);
 1105              		.loc 1 221 11 discriminator 1 view .LVU313
 1106 004e 0028     		cmp	r0, #0
 1107 0050 EDD0     		beq	.L68
 1108 0052 F1E7     		b	.L62
 1109              	.LVL113:
 1110              	.L67:
 221:Drivers/lvgl/src/core/lv_obj_scroll.c ****         child_res = LV_MAX(child_res, child->coords.x2);
 1111              		.loc 1 221 11 discriminator 1 view .LVU314
 1112              	.LBE120:
ARM GAS  /var/folders/lp/x54gwt890xv47sdkqj1k04q40000gn/T//ccCdbJgg.s 			page 47


 225:Drivers/lvgl/src/core/lv_obj_scroll.c ****     lv_coord_t pad_left = lv_obj_get_style_pad_left(obj, LV_PART_MAIN);
 1113              		.loc 1 225 5 is_stmt 1 view .LVU315
 1114              	.LBB121:
 1115              	.LBI121:
 121:Drivers/lvgl/src/core/lv_obj_style_gen.h **** {
 1116              		.loc 2 121 26 view .LVU316
 1117              	.LBB122:
 123:Drivers/lvgl/src/core/lv_obj_style_gen.h ****     return (lv_coord_t)v.num;
 1118              		.loc 2 123 5 view .LVU317
 123:Drivers/lvgl/src/core/lv_obj_style_gen.h ****     return (lv_coord_t)v.num;
 1119              		.loc 2 123 26 is_stmt 0 view .LVU318
 1120 0054 1322     		movs	r2, #19
 1121 0056 0021     		movs	r1, #0
 1122 0058 2846     		mov	r0, r5
 1123 005a FFF7FEFF 		bl	lv_obj_get_style_prop
 1124              	.LVL114:
 1125 005e 0446     		mov	r4, r0
 1126              	.LVL115:
 124:Drivers/lvgl/src/core/lv_obj_style_gen.h **** }
 1127              		.loc 2 124 5 is_stmt 1 view .LVU319
 124:Drivers/lvgl/src/core/lv_obj_style_gen.h **** }
 1128              		.loc 2 124 5 is_stmt 0 view .LVU320
 1129              	.LBE122:
 1130              	.LBE121:
 226:Drivers/lvgl/src/core/lv_obj_scroll.c ****     lv_coord_t border_width = lv_obj_get_style_border_width(obj, LV_PART_MAIN);
 1131              		.loc 1 226 5 is_stmt 1 view .LVU321
 1132              	.LBB123:
 1133              	.LBI123:
 115:Drivers/lvgl/src/core/lv_obj_style_gen.h **** {
 1134              		.loc 2 115 26 view .LVU322
 1135              	.LBB124:
 117:Drivers/lvgl/src/core/lv_obj_style_gen.h ****     return (lv_coord_t)v.num;
 1136              		.loc 2 117 5 view .LVU323
 117:Drivers/lvgl/src/core/lv_obj_style_gen.h ****     return (lv_coord_t)v.num;
 1137              		.loc 2 117 26 is_stmt 0 view .LVU324
 1138 0060 1222     		movs	r2, #18
 1139 0062 0021     		movs	r1, #0
 1140 0064 2846     		mov	r0, r5
 1141 0066 FFF7FEFF 		bl	lv_obj_get_style_prop
 1142              	.LVL116:
 1143 006a 8146     		mov	r9, r0
 118:Drivers/lvgl/src/core/lv_obj_style_gen.h **** }
 1144              		.loc 2 118 5 is_stmt 1 view .LVU325
 1145              	.LVL117:
 118:Drivers/lvgl/src/core/lv_obj_style_gen.h **** }
 1146              		.loc 2 118 5 is_stmt 0 view .LVU326
 1147              	.LBE124:
 1148              	.LBE123:
 227:Drivers/lvgl/src/core/lv_obj_scroll.c **** 
 1149              		.loc 1 227 5 is_stmt 1 view .LVU327
 1150              	.LBB125:
 1151              	.LBI125:
 253:Drivers/lvgl/src/core/lv_obj_style_gen.h **** {
 1152              		.loc 2 253 26 view .LVU328
 1153              	.LBB126:
 255:Drivers/lvgl/src/core/lv_obj_style_gen.h ****     return (lv_coord_t)v.num;
 1154              		.loc 2 255 5 view .LVU329
ARM GAS  /var/folders/lp/x54gwt890xv47sdkqj1k04q40000gn/T//ccCdbJgg.s 			page 48


 255:Drivers/lvgl/src/core/lv_obj_style_gen.h ****     return (lv_coord_t)v.num;
 1155              		.loc 2 255 26 is_stmt 0 view .LVU330
 1156 006c 3222     		movs	r2, #50
 1157 006e 0021     		movs	r1, #0
 1158 0070 2846     		mov	r0, r5
 1159 0072 FFF7FEFF 		bl	lv_obj_get_style_prop
 1160              	.LVL118:
 1161 0076 0646     		mov	r6, r0
 256:Drivers/lvgl/src/core/lv_obj_style_gen.h **** }
 1162              		.loc 2 256 5 is_stmt 1 view .LVU331
 1163              	.LVL119:
 256:Drivers/lvgl/src/core/lv_obj_style_gen.h **** }
 1164              		.loc 2 256 5 is_stmt 0 view .LVU332
 1165              	.LBE126:
 1166              	.LBE125:
 229:Drivers/lvgl/src/core/lv_obj_scroll.c ****         child_res -= (obj->coords.x2 - pad_right - border_width);
 1167              		.loc 1 229 5 is_stmt 1 view .LVU333
 229:Drivers/lvgl/src/core/lv_obj_scroll.c ****         child_res -= (obj->coords.x2 - pad_right - border_width);
 1168              		.loc 1 229 7 is_stmt 0 view .LVU334
 1169 0078 134B     		ldr	r3, .L69
 1170 007a 9F42     		cmp	r7, r3
 1171 007c 04D0     		beq	.L64
 230:Drivers/lvgl/src/core/lv_obj_scroll.c ****     }
 1172              		.loc 1 230 9 is_stmt 1 view .LVU335
 230:Drivers/lvgl/src/core/lv_obj_scroll.c ****     }
 1173              		.loc 1 230 34 is_stmt 0 view .LVU336
 1174 007e 2B8B     		ldrh	r3, [r5, #24]
 230:Drivers/lvgl/src/core/lv_obj_scroll.c ****     }
 1175              		.loc 1 230 19 view .LVU337
 1176 0080 E31A     		subs	r3, r4, r3
 1177 0082 0344     		add	r3, r3, r0
 1178 0084 3B44     		add	r3, r3, r7
 1179 0086 1FB2     		sxth	r7, r3
 1180              	.LVL120:
 1181              	.L64:
 233:Drivers/lvgl/src/core/lv_obj_scroll.c ****     self_w = lv_obj_get_self_width(obj);
 1182              		.loc 1 233 5 is_stmt 1 view .LVU338
 234:Drivers/lvgl/src/core/lv_obj_scroll.c ****     self_w = self_w - (lv_obj_get_width(obj) - pad_right - pad_left - 2 * border_width);
 1183              		.loc 1 234 5 view .LVU339
 234:Drivers/lvgl/src/core/lv_obj_scroll.c ****     self_w = self_w - (lv_obj_get_width(obj) - pad_right - pad_left - 2 * border_width);
 1184              		.loc 1 234 14 is_stmt 0 view .LVU340
 1185 0088 2846     		mov	r0, r5
 1186              	.LVL121:
 234:Drivers/lvgl/src/core/lv_obj_scroll.c ****     self_w = self_w - (lv_obj_get_width(obj) - pad_right - pad_left - 2 * border_width);
 1187              		.loc 1 234 14 view .LVU341
 1188 008a FFF7FEFF 		bl	lv_obj_get_self_width
 1189              	.LVL122:
 1190 008e 8046     		mov	r8, r0
 1191              	.LVL123:
 235:Drivers/lvgl/src/core/lv_obj_scroll.c ****     self_w -= lv_obj_get_scroll_x(obj);
 1192              		.loc 1 235 5 is_stmt 1 view .LVU342
 235:Drivers/lvgl/src/core/lv_obj_scroll.c ****     self_w -= lv_obj_get_scroll_x(obj);
 1193              		.loc 1 235 73 is_stmt 0 view .LVU343
 1194 0090 7600     		lsls	r6, r6, #1
 1195 0092 B6B2     		uxth	r6, r6
 235:Drivers/lvgl/src/core/lv_obj_scroll.c ****     self_w -= lv_obj_get_scroll_x(obj);
 1196              		.loc 1 235 24 view .LVU344
ARM GAS  /var/folders/lp/x54gwt890xv47sdkqj1k04q40000gn/T//ccCdbJgg.s 			page 49


 1197 0094 2846     		mov	r0, r5
 1198 0096 FFF7FEFF 		bl	lv_obj_get_width
 1199              	.LVL124:
 235:Drivers/lvgl/src/core/lv_obj_scroll.c ****     self_w -= lv_obj_get_scroll_x(obj);
 1200              		.loc 1 235 24 discriminator 1 view .LVU345
 1201 009a 80B2     		uxth	r0, r0
 235:Drivers/lvgl/src/core/lv_obj_scroll.c ****     self_w -= lv_obj_get_scroll_x(obj);
 1202              		.loc 1 235 46 discriminator 1 view .LVU346
 1203 009c 241A     		subs	r4, r4, r0
 1204              	.LVL125:
 235:Drivers/lvgl/src/core/lv_obj_scroll.c ****     self_w -= lv_obj_get_scroll_x(obj);
 1205              		.loc 1 235 58 discriminator 1 view .LVU347
 1206 009e 19FA84F4 		uxtah	r4, r9, r4
 235:Drivers/lvgl/src/core/lv_obj_scroll.c ****     self_w -= lv_obj_get_scroll_x(obj);
 1207              		.loc 1 235 69 discriminator 1 view .LVU348
 1208 00a2 16FA84F4 		uxtah	r4, r6, r4
 235:Drivers/lvgl/src/core/lv_obj_scroll.c ****     self_w -= lv_obj_get_scroll_x(obj);
 1209              		.loc 1 235 21 discriminator 1 view .LVU349
 1210 00a6 18FA84F4 		uxtah	r4, r8, r4
 1211 00aa A4B2     		uxth	r4, r4
 1212              	.LVL126:
 236:Drivers/lvgl/src/core/lv_obj_scroll.c ****     return LV_MAX(child_res, self_w);
 1213              		.loc 1 236 5 is_stmt 1 view .LVU350
 236:Drivers/lvgl/src/core/lv_obj_scroll.c ****     return LV_MAX(child_res, self_w);
 1214              		.loc 1 236 15 is_stmt 0 view .LVU351
 1215 00ac 2846     		mov	r0, r5
 1216 00ae FFF7FEFF 		bl	lv_obj_get_scroll_x
 1217              	.LVL127:
 236:Drivers/lvgl/src/core/lv_obj_scroll.c ****     return LV_MAX(child_res, self_w);
 1218              		.loc 1 236 15 discriminator 1 view .LVU352
 1219 00b2 80B2     		uxth	r0, r0
 236:Drivers/lvgl/src/core/lv_obj_scroll.c ****     return LV_MAX(child_res, self_w);
 1220              		.loc 1 236 12 discriminator 1 view .LVU353
 1221 00b4 201A     		subs	r0, r4, r0
 1222 00b6 00B2     		sxth	r0, r0
 1223              	.LVL128:
 237:Drivers/lvgl/src/core/lv_obj_scroll.c **** }
 1224              		.loc 1 237 5 is_stmt 1 view .LVU354
 237:Drivers/lvgl/src/core/lv_obj_scroll.c **** }
 1225              		.loc 1 237 12 is_stmt 0 view .LVU355
 1226 00b8 B842     		cmp	r0, r7
 1227 00ba B8BF     		it	lt
 1228 00bc 3846     		movlt	r0, r7
 1229              	.LVL129:
 1230              	.L60:
 238:Drivers/lvgl/src/core/lv_obj_scroll.c **** 
 1231              		.loc 1 238 1 view .LVU356
 1232 00be BDE8F883 		pop	{r3, r4, r5, r6, r7, r8, r9, pc}
 1233              	.LVL130:
 1234              	.L65:
 211:Drivers/lvgl/src/core/lv_obj_scroll.c ****         return obj->spec_attr->scroll.x;
 1235              		.loc 1 211 43 discriminator 1 view .LVU357
 1236 00c2 0020     		movs	r0, #0
 1237 00c4 FBE7     		b	.L60
 1238              	.L70:
 1239 00c6 00BF     		.align	2
 1240              	.L69:
ARM GAS  /var/folders/lp/x54gwt890xv47sdkqj1k04q40000gn/T//ccCdbJgg.s 			page 50


 1241 00c8 01E0FFFF 		.word	-8191
 1242 00cc 01000400 		.word	262145
 1243              		.cfi_endproc
 1244              	.LFE180:
 1246              		.section	.text.lv_obj_get_scroll_end,"ax",%progbits
 1247              		.align	1
 1248              		.global	lv_obj_get_scroll_end
 1249              		.syntax unified
 1250              		.thumb
 1251              		.thumb_func
 1253              	lv_obj_get_scroll_end:
 1254              	.LVL131:
 1255              	.LFB181:
 241:Drivers/lvgl/src/core/lv_obj_scroll.c ****     lv_anim_t * a;
 1256              		.loc 1 241 1 is_stmt 1 view -0
 1257              		.cfi_startproc
 1258              		@ args = 0, pretend = 0, frame = 0
 1259              		@ frame_needed = 0, uses_anonymous_args = 0
 241:Drivers/lvgl/src/core/lv_obj_scroll.c ****     lv_anim_t * a;
 1260              		.loc 1 241 1 is_stmt 0 view .LVU359
 1261 0000 38B5     		push	{r3, r4, r5, lr}
 1262              		.cfi_def_cfa_offset 16
 1263              		.cfi_offset 3, -16
 1264              		.cfi_offset 4, -12
 1265              		.cfi_offset 5, -8
 1266              		.cfi_offset 14, -4
 1267 0002 0546     		mov	r5, r0
 1268 0004 0C46     		mov	r4, r1
 242:Drivers/lvgl/src/core/lv_obj_scroll.c ****     a = lv_anim_get(obj, scroll_x_anim);
 1269              		.loc 1 242 5 is_stmt 1 view .LVU360
 243:Drivers/lvgl/src/core/lv_obj_scroll.c ****     end->x = a ? -a->end_value : lv_obj_get_scroll_x(obj);
 1270              		.loc 1 243 5 view .LVU361
 243:Drivers/lvgl/src/core/lv_obj_scroll.c ****     end->x = a ? -a->end_value : lv_obj_get_scroll_x(obj);
 1271              		.loc 1 243 9 is_stmt 0 view .LVU362
 1272 0006 0D49     		ldr	r1, .L77
 1273              	.LVL132:
 243:Drivers/lvgl/src/core/lv_obj_scroll.c ****     end->x = a ? -a->end_value : lv_obj_get_scroll_x(obj);
 1274              		.loc 1 243 9 view .LVU363
 1275 0008 FFF7FEFF 		bl	lv_anim_get
 1276              	.LVL133:
 244:Drivers/lvgl/src/core/lv_obj_scroll.c **** 
 1277              		.loc 1 244 5 is_stmt 1 view .LVU364
 244:Drivers/lvgl/src/core/lv_obj_scroll.c **** 
 1278              		.loc 1 244 12 is_stmt 0 view .LVU365
 1279 000c 68B1     		cbz	r0, .L72
 244:Drivers/lvgl/src/core/lv_obj_scroll.c **** 
 1280              		.loc 1 244 20 discriminator 1 view .LVU366
 1281 000e 836A     		ldr	r3, [r0, #40]
 244:Drivers/lvgl/src/core/lv_obj_scroll.c **** 
 1282              		.loc 1 244 12 discriminator 1 view .LVU367
 1283 0010 5B42     		rsbs	r3, r3, #0
 1284 0012 1BB2     		sxth	r3, r3
 1285              	.LVL134:
 1286              	.L73:
 244:Drivers/lvgl/src/core/lv_obj_scroll.c **** 
 1287              		.loc 1 244 12 discriminator 4 view .LVU368
 1288 0014 2380     		strh	r3, [r4]	@ movhi
ARM GAS  /var/folders/lp/x54gwt890xv47sdkqj1k04q40000gn/T//ccCdbJgg.s 			page 51


 246:Drivers/lvgl/src/core/lv_obj_scroll.c ****     end->y = a ? -a->end_value : lv_obj_get_scroll_y(obj);
 1289              		.loc 1 246 5 is_stmt 1 view .LVU369
 246:Drivers/lvgl/src/core/lv_obj_scroll.c ****     end->y = a ? -a->end_value : lv_obj_get_scroll_y(obj);
 1290              		.loc 1 246 9 is_stmt 0 view .LVU370
 1291 0016 0A49     		ldr	r1, .L77+4
 1292 0018 2846     		mov	r0, r5
 1293 001a FFF7FEFF 		bl	lv_anim_get
 1294              	.LVL135:
 247:Drivers/lvgl/src/core/lv_obj_scroll.c **** }
 1295              		.loc 1 247 5 is_stmt 1 view .LVU371
 247:Drivers/lvgl/src/core/lv_obj_scroll.c **** }
 1296              		.loc 1 247 12 is_stmt 0 view .LVU372
 1297 001e 48B1     		cbz	r0, .L74
 247:Drivers/lvgl/src/core/lv_obj_scroll.c **** }
 1298              		.loc 1 247 20 discriminator 1 view .LVU373
 1299 0020 806A     		ldr	r0, [r0, #40]
 1300              	.LVL136:
 247:Drivers/lvgl/src/core/lv_obj_scroll.c **** }
 1301              		.loc 1 247 12 discriminator 1 view .LVU374
 1302 0022 4042     		rsbs	r0, r0, #0
 1303 0024 00B2     		sxth	r0, r0
 1304              	.L75:
 247:Drivers/lvgl/src/core/lv_obj_scroll.c **** }
 1305              		.loc 1 247 12 discriminator 4 view .LVU375
 1306 0026 6080     		strh	r0, [r4, #2]	@ movhi
 248:Drivers/lvgl/src/core/lv_obj_scroll.c **** 
 1307              		.loc 1 248 1 view .LVU376
 1308 0028 38BD     		pop	{r3, r4, r5, pc}
 1309              	.LVL137:
 1310              	.L72:
 244:Drivers/lvgl/src/core/lv_obj_scroll.c **** 
 1311              		.loc 1 244 34 discriminator 2 view .LVU377
 1312 002a 2846     		mov	r0, r5
 1313              	.LVL138:
 244:Drivers/lvgl/src/core/lv_obj_scroll.c **** 
 1314              		.loc 1 244 34 discriminator 2 view .LVU378
 1315 002c FFF7FEFF 		bl	lv_obj_get_scroll_x
 1316              	.LVL139:
 1317 0030 0346     		mov	r3, r0
 1318 0032 EFE7     		b	.L73
 1319              	.LVL140:
 1320              	.L74:
 247:Drivers/lvgl/src/core/lv_obj_scroll.c **** }
 1321              		.loc 1 247 34 discriminator 2 view .LVU379
 1322 0034 2846     		mov	r0, r5
 1323              	.LVL141:
 247:Drivers/lvgl/src/core/lv_obj_scroll.c **** }
 1324              		.loc 1 247 34 discriminator 2 view .LVU380
 1325 0036 FFF7FEFF 		bl	lv_obj_get_scroll_y
 1326              	.LVL142:
 1327 003a F4E7     		b	.L75
 1328              	.L78:
 1329              		.align	2
 1330              	.L77:
 1331 003c 00000000 		.word	scroll_x_anim
 1332 0040 00000000 		.word	scroll_y_anim
 1333              		.cfi_endproc
ARM GAS  /var/folders/lp/x54gwt890xv47sdkqj1k04q40000gn/T//ccCdbJgg.s 			page 52


 1334              	.LFE181:
 1336              		.section	.text._lv_obj_scroll_by_raw,"ax",%progbits
 1337              		.align	1
 1338              		.global	_lv_obj_scroll_by_raw
 1339              		.syntax unified
 1340              		.thumb
 1341              		.thumb_func
 1343              	_lv_obj_scroll_by_raw:
 1344              	.LVL143:
 1345              	.LFB189:
 413:Drivers/lvgl/src/core/lv_obj_scroll.c ****     if(x == 0 && y == 0) return LV_RES_OK;
 1346              		.loc 1 413 1 is_stmt 1 view -0
 1347              		.cfi_startproc
 1348              		@ args = 0, pretend = 0, frame = 0
 1349              		@ frame_needed = 0, uses_anonymous_args = 0
 413:Drivers/lvgl/src/core/lv_obj_scroll.c ****     if(x == 0 && y == 0) return LV_RES_OK;
 1350              		.loc 1 413 1 is_stmt 0 view .LVU382
 1351 0000 70B5     		push	{r4, r5, r6, lr}
 1352              		.cfi_def_cfa_offset 16
 1353              		.cfi_offset 4, -16
 1354              		.cfi_offset 5, -12
 1355              		.cfi_offset 6, -8
 1356              		.cfi_offset 14, -4
 1357 0002 0446     		mov	r4, r0
 1358 0004 1546     		mov	r5, r2
 414:Drivers/lvgl/src/core/lv_obj_scroll.c **** 
 1359              		.loc 1 414 5 is_stmt 1 view .LVU383
 414:Drivers/lvgl/src/core/lv_obj_scroll.c **** 
 1360              		.loc 1 414 7 is_stmt 0 view .LVU384
 1361 0006 0E46     		mov	r6, r1
 1362 0008 01B9     		cbnz	r1, .L80
 414:Drivers/lvgl/src/core/lv_obj_scroll.c **** 
 1363              		.loc 1 414 15 discriminator 1 view .LVU385
 1364 000a F2B1     		cbz	r2, .L82
 1365              	.L80:
 416:Drivers/lvgl/src/core/lv_obj_scroll.c **** 
 1366              		.loc 1 416 5 is_stmt 1 view .LVU386
 1367 000c 2046     		mov	r0, r4
 1368              	.LVL144:
 416:Drivers/lvgl/src/core/lv_obj_scroll.c **** 
 1369              		.loc 1 416 5 is_stmt 0 view .LVU387
 1370 000e FFF7FEFF 		bl	lv_obj_allocate_spec_attr
 1371              	.LVL145:
 418:Drivers/lvgl/src/core/lv_obj_scroll.c ****     obj->spec_attr->scroll.y += y;
 1372              		.loc 1 418 5 is_stmt 1 view .LVU388
 418:Drivers/lvgl/src/core/lv_obj_scroll.c ****     obj->spec_attr->scroll.y += y;
 1373              		.loc 1 418 8 is_stmt 0 view .LVU389
 1374 0012 A268     		ldr	r2, [r4, #8]
 418:Drivers/lvgl/src/core/lv_obj_scroll.c ****     obj->spec_attr->scroll.y += y;
 1375              		.loc 1 418 27 view .LVU390
 1376 0014 138A     		ldrh	r3, [r2, #16]
 418:Drivers/lvgl/src/core/lv_obj_scroll.c ****     obj->spec_attr->scroll.y += y;
 1377              		.loc 1 418 30 view .LVU391
 1378 0016 3344     		add	r3, r3, r6
 1379 0018 1382     		strh	r3, [r2, #16]	@ movhi
 419:Drivers/lvgl/src/core/lv_obj_scroll.c **** 
 1380              		.loc 1 419 5 is_stmt 1 view .LVU392
ARM GAS  /var/folders/lp/x54gwt890xv47sdkqj1k04q40000gn/T//ccCdbJgg.s 			page 53


 419:Drivers/lvgl/src/core/lv_obj_scroll.c **** 
 1381              		.loc 1 419 8 is_stmt 0 view .LVU393
 1382 001a A268     		ldr	r2, [r4, #8]
 419:Drivers/lvgl/src/core/lv_obj_scroll.c **** 
 1383              		.loc 1 419 27 view .LVU394
 1384 001c 538A     		ldrh	r3, [r2, #18]
 419:Drivers/lvgl/src/core/lv_obj_scroll.c **** 
 1385              		.loc 1 419 30 view .LVU395
 1386 001e 2B44     		add	r3, r3, r5
 1387 0020 5382     		strh	r3, [r2, #18]	@ movhi
 421:Drivers/lvgl/src/core/lv_obj_scroll.c ****     lv_res_t res = lv_event_send(obj, LV_EVENT_SCROLL, NULL);
 1388              		.loc 1 421 5 is_stmt 1 view .LVU396
 1389 0022 0123     		movs	r3, #1
 1390 0024 2A46     		mov	r2, r5
 1391 0026 3146     		mov	r1, r6
 1392 0028 2046     		mov	r0, r4
 1393 002a FFF7FEFF 		bl	lv_obj_move_children_by
 1394              	.LVL146:
 422:Drivers/lvgl/src/core/lv_obj_scroll.c ****     if(res != LV_RES_OK) return res;
 1395              		.loc 1 422 5 view .LVU397
 422:Drivers/lvgl/src/core/lv_obj_scroll.c ****     if(res != LV_RES_OK) return res;
 1396              		.loc 1 422 20 is_stmt 0 view .LVU398
 1397 002e 0022     		movs	r2, #0
 1398 0030 0B21     		movs	r1, #11
 1399 0032 2046     		mov	r0, r4
 1400 0034 FFF7FEFF 		bl	lv_event_send
 1401              	.LVL147:
 1402 0038 0546     		mov	r5, r0
 1403              	.LVL148:
 423:Drivers/lvgl/src/core/lv_obj_scroll.c ****     lv_obj_invalidate(obj);
 1404              		.loc 1 423 5 is_stmt 1 view .LVU399
 423:Drivers/lvgl/src/core/lv_obj_scroll.c ****     lv_obj_invalidate(obj);
 1405              		.loc 1 423 7 is_stmt 0 view .LVU400
 1406 003a 0128     		cmp	r0, #1
 1407 003c 01D0     		beq	.L84
 1408              	.LVL149:
 1409              	.L81:
 426:Drivers/lvgl/src/core/lv_obj_scroll.c **** 
 1410              		.loc 1 426 1 view .LVU401
 1411 003e 2846     		mov	r0, r5
 1412 0040 70BD     		pop	{r4, r5, r6, pc}
 1413              	.LVL150:
 1414              	.L84:
 424:Drivers/lvgl/src/core/lv_obj_scroll.c ****     return LV_RES_OK;
 1415              		.loc 1 424 5 is_stmt 1 view .LVU402
 1416 0042 2046     		mov	r0, r4
 1417              	.LVL151:
 424:Drivers/lvgl/src/core/lv_obj_scroll.c ****     return LV_RES_OK;
 1418              		.loc 1 424 5 is_stmt 0 view .LVU403
 1419 0044 FFF7FEFF 		bl	lv_obj_invalidate
 1420              	.LVL152:
 425:Drivers/lvgl/src/core/lv_obj_scroll.c **** }
 1421              		.loc 1 425 5 is_stmt 1 view .LVU404
 425:Drivers/lvgl/src/core/lv_obj_scroll.c **** }
 1422              		.loc 1 425 12 is_stmt 0 view .LVU405
 1423 0048 F9E7     		b	.L81
 1424              	.LVL153:
ARM GAS  /var/folders/lp/x54gwt890xv47sdkqj1k04q40000gn/T//ccCdbJgg.s 			page 54


 1425              	.L82:
 414:Drivers/lvgl/src/core/lv_obj_scroll.c **** 
 1426              		.loc 1 414 33 discriminator 2 view .LVU406
 1427 004a 0125     		movs	r5, #1
 1428 004c F7E7     		b	.L81
 1429              		.cfi_endproc
 1430              	.LFE189:
 1432              		.section	.text.scroll_y_anim,"ax",%progbits
 1433              		.align	1
 1434              		.syntax unified
 1435              		.thumb
 1436              		.thumb_func
 1438              	scroll_y_anim:
 1439              	.LVL154:
 1440              	.LFB196:
 678:Drivers/lvgl/src/core/lv_obj_scroll.c ****     _lv_obj_scroll_by_raw(obj, 0, v + lv_obj_get_scroll_y(obj));
 1441              		.loc 1 678 1 is_stmt 1 view -0
 1442              		.cfi_startproc
 1443              		@ args = 0, pretend = 0, frame = 0
 1444              		@ frame_needed = 0, uses_anonymous_args = 0
 678:Drivers/lvgl/src/core/lv_obj_scroll.c ****     _lv_obj_scroll_by_raw(obj, 0, v + lv_obj_get_scroll_y(obj));
 1445              		.loc 1 678 1 is_stmt 0 view .LVU408
 1446 0000 38B5     		push	{r3, r4, r5, lr}
 1447              		.cfi_def_cfa_offset 16
 1448              		.cfi_offset 3, -16
 1449              		.cfi_offset 4, -12
 1450              		.cfi_offset 5, -8
 1451              		.cfi_offset 14, -4
 1452 0002 0446     		mov	r4, r0
 1453 0004 0D46     		mov	r5, r1
 679:Drivers/lvgl/src/core/lv_obj_scroll.c **** }
 1454              		.loc 1 679 5 is_stmt 1 view .LVU409
 679:Drivers/lvgl/src/core/lv_obj_scroll.c **** }
 1455              		.loc 1 679 39 is_stmt 0 view .LVU410
 1456 0006 FFF7FEFF 		bl	lv_obj_get_scroll_y
 1457              	.LVL155:
 679:Drivers/lvgl/src/core/lv_obj_scroll.c **** }
 1458              		.loc 1 679 37 discriminator 1 view .LVU411
 1459 000a 15FA80F2 		uxtah	r2, r5, r0
 679:Drivers/lvgl/src/core/lv_obj_scroll.c **** }
 1460              		.loc 1 679 5 discriminator 1 view .LVU412
 1461 000e 12B2     		sxth	r2, r2
 1462 0010 0021     		movs	r1, #0
 1463 0012 2046     		mov	r0, r4
 1464 0014 FFF7FEFF 		bl	_lv_obj_scroll_by_raw
 1465              	.LVL156:
 680:Drivers/lvgl/src/core/lv_obj_scroll.c **** 
 1466              		.loc 1 680 1 view .LVU413
 1467 0018 38BD     		pop	{r3, r4, r5, pc}
 680:Drivers/lvgl/src/core/lv_obj_scroll.c **** 
 1468              		.loc 1 680 1 view .LVU414
 1469              		.cfi_endproc
 1470              	.LFE196:
 1472              		.section	.text.scroll_x_anim,"ax",%progbits
 1473              		.align	1
 1474              		.syntax unified
 1475              		.thumb
ARM GAS  /var/folders/lp/x54gwt890xv47sdkqj1k04q40000gn/T//ccCdbJgg.s 			page 55


 1476              		.thumb_func
 1478              	scroll_x_anim:
 1479              	.LVL157:
 1480              	.LFB195:
 673:Drivers/lvgl/src/core/lv_obj_scroll.c ****     _lv_obj_scroll_by_raw(obj, v + lv_obj_get_scroll_x(obj), 0);
 1481              		.loc 1 673 1 is_stmt 1 view -0
 1482              		.cfi_startproc
 1483              		@ args = 0, pretend = 0, frame = 0
 1484              		@ frame_needed = 0, uses_anonymous_args = 0
 673:Drivers/lvgl/src/core/lv_obj_scroll.c ****     _lv_obj_scroll_by_raw(obj, v + lv_obj_get_scroll_x(obj), 0);
 1485              		.loc 1 673 1 is_stmt 0 view .LVU416
 1486 0000 38B5     		push	{r3, r4, r5, lr}
 1487              		.cfi_def_cfa_offset 16
 1488              		.cfi_offset 3, -16
 1489              		.cfi_offset 4, -12
 1490              		.cfi_offset 5, -8
 1491              		.cfi_offset 14, -4
 1492 0002 0446     		mov	r4, r0
 1493 0004 0D46     		mov	r5, r1
 674:Drivers/lvgl/src/core/lv_obj_scroll.c **** }
 1494              		.loc 1 674 5 is_stmt 1 view .LVU417
 674:Drivers/lvgl/src/core/lv_obj_scroll.c **** }
 1495              		.loc 1 674 36 is_stmt 0 view .LVU418
 1496 0006 FFF7FEFF 		bl	lv_obj_get_scroll_x
 1497              	.LVL158:
 674:Drivers/lvgl/src/core/lv_obj_scroll.c **** }
 1498              		.loc 1 674 34 discriminator 1 view .LVU419
 1499 000a 15FA80F1 		uxtah	r1, r5, r0
 674:Drivers/lvgl/src/core/lv_obj_scroll.c **** }
 1500              		.loc 1 674 5 discriminator 1 view .LVU420
 1501 000e 0022     		movs	r2, #0
 1502 0010 09B2     		sxth	r1, r1
 1503 0012 2046     		mov	r0, r4
 1504 0014 FFF7FEFF 		bl	_lv_obj_scroll_by_raw
 1505              	.LVL159:
 675:Drivers/lvgl/src/core/lv_obj_scroll.c **** 
 1506              		.loc 1 675 1 view .LVU421
 1507 0018 38BD     		pop	{r3, r4, r5, pc}
 675:Drivers/lvgl/src/core/lv_obj_scroll.c **** 
 1508              		.loc 1 675 1 view .LVU422
 1509              		.cfi_endproc
 1510              	.LFE195:
 1512              		.section	.text.lv_obj_scroll_by,"ax",%progbits
 1513              		.align	1
 1514              		.global	lv_obj_scroll_by
 1515              		.syntax unified
 1516              		.thumb
 1517              		.thumb_func
 1519              	lv_obj_scroll_by:
 1520              	.LVL160:
 1521              	.LFB183:
 304:Drivers/lvgl/src/core/lv_obj_scroll.c ****     if(dx == 0 && dy == 0) return;
 1522              		.loc 1 304 1 is_stmt 1 view -0
 1523              		.cfi_startproc
 1524              		@ args = 0, pretend = 0, frame = 72
 1525              		@ frame_needed = 0, uses_anonymous_args = 0
 304:Drivers/lvgl/src/core/lv_obj_scroll.c ****     if(dx == 0 && dy == 0) return;
ARM GAS  /var/folders/lp/x54gwt890xv47sdkqj1k04q40000gn/T//ccCdbJgg.s 			page 56


 1526              		.loc 1 304 1 is_stmt 0 view .LVU424
 1527 0000 F0B5     		push	{r4, r5, r6, r7, lr}
 1528              		.cfi_def_cfa_offset 20
 1529              		.cfi_offset 4, -20
 1530              		.cfi_offset 5, -16
 1531              		.cfi_offset 6, -12
 1532              		.cfi_offset 7, -8
 1533              		.cfi_offset 14, -4
 1534 0002 93B0     		sub	sp, sp, #76
 1535              		.cfi_def_cfa_offset 96
 1536 0004 0446     		mov	r4, r0
 1537 0006 1546     		mov	r5, r2
 305:Drivers/lvgl/src/core/lv_obj_scroll.c ****     if(anim_en == LV_ANIM_ON) {
 1538              		.loc 1 305 5 is_stmt 1 view .LVU425
 305:Drivers/lvgl/src/core/lv_obj_scroll.c ****     if(anim_en == LV_ANIM_ON) {
 1539              		.loc 1 305 7 is_stmt 0 view .LVU426
 1540 0008 0E46     		mov	r6, r1
 1541 000a 01B9     		cbnz	r1, .L90
 305:Drivers/lvgl/src/core/lv_obj_scroll.c ****     if(anim_en == LV_ANIM_ON) {
 1542              		.loc 1 305 16 discriminator 1 view .LVU427
 1543 000c 82B1     		cbz	r2, .L89
 1544              	.L90:
 306:Drivers/lvgl/src/core/lv_obj_scroll.c ****         lv_disp_t * d = lv_obj_get_disp(obj);
 1545              		.loc 1 306 5 is_stmt 1 view .LVU428
 306:Drivers/lvgl/src/core/lv_obj_scroll.c ****         lv_disp_t * d = lv_obj_get_disp(obj);
 1546              		.loc 1 306 7 is_stmt 0 view .LVU429
 1547 000e 012B     		cmp	r3, #1
 1548 0010 10D0     		beq	.L103
 1549              	.LBB127:
 347:Drivers/lvgl/src/core/lv_obj_scroll.c ****         lv_anim_del(obj, scroll_x_anim);
 1550              		.loc 1 347 9 is_stmt 1 view .LVU430
 1551 0012 3F49     		ldr	r1, .L106
 1552              	.LVL161:
 347:Drivers/lvgl/src/core/lv_obj_scroll.c ****         lv_anim_del(obj, scroll_x_anim);
 1553              		.loc 1 347 9 is_stmt 0 view .LVU431
 1554 0014 2046     		mov	r0, r4
 1555              	.LVL162:
 347:Drivers/lvgl/src/core/lv_obj_scroll.c ****         lv_anim_del(obj, scroll_x_anim);
 1556              		.loc 1 347 9 view .LVU432
 1557 0016 FFF7FEFF 		bl	lv_anim_del
 1558              	.LVL163:
 348:Drivers/lvgl/src/core/lv_obj_scroll.c **** 
 1559              		.loc 1 348 9 is_stmt 1 view .LVU433
 1560 001a 3E49     		ldr	r1, .L106+4
 1561 001c 2046     		mov	r0, r4
 1562 001e FFF7FEFF 		bl	lv_anim_del
 1563              	.LVL164:
 350:Drivers/lvgl/src/core/lv_obj_scroll.c ****         res = lv_event_send(obj, LV_EVENT_SCROLL_BEGIN, NULL);
 1564              		.loc 1 350 9 view .LVU434
 351:Drivers/lvgl/src/core/lv_obj_scroll.c ****         if(res != LV_RES_OK) return;
 1565              		.loc 1 351 9 view .LVU435
 351:Drivers/lvgl/src/core/lv_obj_scroll.c ****         if(res != LV_RES_OK) return;
 1566              		.loc 1 351 15 is_stmt 0 view .LVU436
 1567 0022 0022     		movs	r2, #0
 1568 0024 0921     		movs	r1, #9
 1569 0026 2046     		mov	r0, r4
 1570 0028 FFF7FEFF 		bl	lv_event_send
ARM GAS  /var/folders/lp/x54gwt890xv47sdkqj1k04q40000gn/T//ccCdbJgg.s 			page 57


 1571              	.LVL165:
 352:Drivers/lvgl/src/core/lv_obj_scroll.c **** 
 1572              		.loc 1 352 9 is_stmt 1 view .LVU437
 352:Drivers/lvgl/src/core/lv_obj_scroll.c **** 
 1573              		.loc 1 352 11 is_stmt 0 view .LVU438
 1574 002c 0128     		cmp	r0, #1
 1575 002e 62D0     		beq	.L104
 1576              	.LVL166:
 1577              	.L89:
 352:Drivers/lvgl/src/core/lv_obj_scroll.c **** 
 1578              		.loc 1 352 11 view .LVU439
 1579              	.LBE127:
 360:Drivers/lvgl/src/core/lv_obj_scroll.c **** 
 1580              		.loc 1 360 1 view .LVU440
 1581 0030 13B0     		add	sp, sp, #76
 1582              		.cfi_remember_state
 1583              		.cfi_def_cfa_offset 20
 1584              		@ sp needed
 1585 0032 F0BD     		pop	{r4, r5, r6, r7, pc}
 1586              	.LVL167:
 1587              	.L103:
 1588              		.cfi_restore_state
 1589              	.LBB128:
 307:Drivers/lvgl/src/core/lv_obj_scroll.c ****         lv_anim_t a;
 1590              		.loc 1 307 9 is_stmt 1 view .LVU441
 307:Drivers/lvgl/src/core/lv_obj_scroll.c ****         lv_anim_t a;
 1591              		.loc 1 307 25 is_stmt 0 view .LVU442
 1592 0034 2046     		mov	r0, r4
 1593              	.LVL168:
 307:Drivers/lvgl/src/core/lv_obj_scroll.c ****         lv_anim_t a;
 1594              		.loc 1 307 25 view .LVU443
 1595 0036 FFF7FEFF 		bl	lv_obj_get_disp
 1596              	.LVL169:
 307:Drivers/lvgl/src/core/lv_obj_scroll.c ****         lv_anim_t a;
 1597              		.loc 1 307 25 view .LVU444
 1598 003a 0746     		mov	r7, r0
 1599              	.LVL170:
 308:Drivers/lvgl/src/core/lv_obj_scroll.c ****         lv_anim_init(&a);
 1600              		.loc 1 308 9 is_stmt 1 view .LVU445
 309:Drivers/lvgl/src/core/lv_obj_scroll.c ****         lv_anim_set_var(&a, obj);
 1601              		.loc 1 309 9 view .LVU446
 1602 003c 01A8     		add	r0, sp, #4
 1603              	.LVL171:
 309:Drivers/lvgl/src/core/lv_obj_scroll.c ****         lv_anim_set_var(&a, obj);
 1604              		.loc 1 309 9 is_stmt 0 view .LVU447
 1605 003e FFF7FEFF 		bl	lv_anim_init
 1606              	.LVL172:
 310:Drivers/lvgl/src/core/lv_obj_scroll.c ****         lv_anim_set_ready_cb(&a, scroll_anim_ready_cb);
 1607              		.loc 1 310 9 is_stmt 1 view .LVU448
 1608              	.LBB129:
 1609              	.LBI129:
 1610              		.file 3 "Drivers/lvgl/src/core/../misc/lv_anim.h"
   1:Drivers/lvgl/src/core/../misc/lv_anim.h **** /**
   2:Drivers/lvgl/src/core/../misc/lv_anim.h ****  * @file lv_anim.h
   3:Drivers/lvgl/src/core/../misc/lv_anim.h ****  *
   4:Drivers/lvgl/src/core/../misc/lv_anim.h ****  */
   5:Drivers/lvgl/src/core/../misc/lv_anim.h **** 
ARM GAS  /var/folders/lp/x54gwt890xv47sdkqj1k04q40000gn/T//ccCdbJgg.s 			page 58


   6:Drivers/lvgl/src/core/../misc/lv_anim.h **** #ifndef LV_ANIM_H
   7:Drivers/lvgl/src/core/../misc/lv_anim.h **** #define LV_ANIM_H
   8:Drivers/lvgl/src/core/../misc/lv_anim.h **** 
   9:Drivers/lvgl/src/core/../misc/lv_anim.h **** #ifdef __cplusplus
  10:Drivers/lvgl/src/core/../misc/lv_anim.h **** extern "C" {
  11:Drivers/lvgl/src/core/../misc/lv_anim.h **** #endif
  12:Drivers/lvgl/src/core/../misc/lv_anim.h **** 
  13:Drivers/lvgl/src/core/../misc/lv_anim.h **** /*********************
  14:Drivers/lvgl/src/core/../misc/lv_anim.h ****  *      INCLUDES
  15:Drivers/lvgl/src/core/../misc/lv_anim.h ****  *********************/
  16:Drivers/lvgl/src/core/../misc/lv_anim.h **** #include "../lv_conf_internal.h"
  17:Drivers/lvgl/src/core/../misc/lv_anim.h **** 
  18:Drivers/lvgl/src/core/../misc/lv_anim.h **** #include <stdint.h>
  19:Drivers/lvgl/src/core/../misc/lv_anim.h **** #include <stdbool.h>
  20:Drivers/lvgl/src/core/../misc/lv_anim.h **** #include <stddef.h>
  21:Drivers/lvgl/src/core/../misc/lv_anim.h **** 
  22:Drivers/lvgl/src/core/../misc/lv_anim.h **** /*********************
  23:Drivers/lvgl/src/core/../misc/lv_anim.h ****  *      DEFINES
  24:Drivers/lvgl/src/core/../misc/lv_anim.h ****  *********************/
  25:Drivers/lvgl/src/core/../misc/lv_anim.h **** 
  26:Drivers/lvgl/src/core/../misc/lv_anim.h **** #define LV_ANIM_REPEAT_INFINITE      0xFFFF
  27:Drivers/lvgl/src/core/../misc/lv_anim.h **** #define LV_ANIM_PLAYTIME_INFINITE    0xFFFFFFFF
  28:Drivers/lvgl/src/core/../misc/lv_anim.h **** 
  29:Drivers/lvgl/src/core/../misc/lv_anim.h **** LV_EXPORT_CONST_INT(LV_ANIM_REPEAT_INFINITE);
  30:Drivers/lvgl/src/core/../misc/lv_anim.h **** LV_EXPORT_CONST_INT(LV_ANIM_PLAYTIME_INFINITE);
  31:Drivers/lvgl/src/core/../misc/lv_anim.h **** 
  32:Drivers/lvgl/src/core/../misc/lv_anim.h **** /**********************
  33:Drivers/lvgl/src/core/../misc/lv_anim.h ****  *      TYPEDEFS
  34:Drivers/lvgl/src/core/../misc/lv_anim.h ****  **********************/
  35:Drivers/lvgl/src/core/../misc/lv_anim.h **** 
  36:Drivers/lvgl/src/core/../misc/lv_anim.h **** /** Can be used to indicate if animations are enabled or disabled in a case*/
  37:Drivers/lvgl/src/core/../misc/lv_anim.h **** typedef enum {
  38:Drivers/lvgl/src/core/../misc/lv_anim.h ****     LV_ANIM_OFF,
  39:Drivers/lvgl/src/core/../misc/lv_anim.h ****     LV_ANIM_ON,
  40:Drivers/lvgl/src/core/../misc/lv_anim.h **** } lv_anim_enable_t;
  41:Drivers/lvgl/src/core/../misc/lv_anim.h **** 
  42:Drivers/lvgl/src/core/../misc/lv_anim.h **** struct _lv_anim_t;
  43:Drivers/lvgl/src/core/../misc/lv_anim.h **** struct _lv_timer_t;
  44:Drivers/lvgl/src/core/../misc/lv_anim.h **** 
  45:Drivers/lvgl/src/core/../misc/lv_anim.h **** /** Get the current value during an animation*/
  46:Drivers/lvgl/src/core/../misc/lv_anim.h **** typedef int32_t (*lv_anim_path_cb_t)(const struct _lv_anim_t *);
  47:Drivers/lvgl/src/core/../misc/lv_anim.h **** 
  48:Drivers/lvgl/src/core/../misc/lv_anim.h **** /** Generic prototype of "animator" functions.
  49:Drivers/lvgl/src/core/../misc/lv_anim.h ****  * First parameter is the variable to animate.
  50:Drivers/lvgl/src/core/../misc/lv_anim.h ****  * Second parameter is the value to set.
  51:Drivers/lvgl/src/core/../misc/lv_anim.h ****  * Compatible with `lv_xxx_set_yyy(obj, value)` functions
  52:Drivers/lvgl/src/core/../misc/lv_anim.h ****  * The `x` in `_xcb_t` means it's not a fully generic prototype because
  53:Drivers/lvgl/src/core/../misc/lv_anim.h ****  * it doesn't receive `lv_anim_t *` as its first argument*/
  54:Drivers/lvgl/src/core/../misc/lv_anim.h **** typedef void (*lv_anim_exec_xcb_t)(void *, int32_t);
  55:Drivers/lvgl/src/core/../misc/lv_anim.h **** 
  56:Drivers/lvgl/src/core/../misc/lv_anim.h **** /** Same as `lv_anim_exec_xcb_t` but receives `lv_anim_t *` as the first parameter.
  57:Drivers/lvgl/src/core/../misc/lv_anim.h ****  * It's more consistent but less convenient. Might be used by binding generator functions.*/
  58:Drivers/lvgl/src/core/../misc/lv_anim.h **** typedef void (*lv_anim_custom_exec_cb_t)(struct _lv_anim_t *, int32_t);
  59:Drivers/lvgl/src/core/../misc/lv_anim.h **** 
  60:Drivers/lvgl/src/core/../misc/lv_anim.h **** /** Callback to call when the animation is ready*/
  61:Drivers/lvgl/src/core/../misc/lv_anim.h **** typedef void (*lv_anim_ready_cb_t)(struct _lv_anim_t *);
  62:Drivers/lvgl/src/core/../misc/lv_anim.h **** 
ARM GAS  /var/folders/lp/x54gwt890xv47sdkqj1k04q40000gn/T//ccCdbJgg.s 			page 59


  63:Drivers/lvgl/src/core/../misc/lv_anim.h **** /** Callback to call when the animation really stars (considering `delay`)*/
  64:Drivers/lvgl/src/core/../misc/lv_anim.h **** typedef void (*lv_anim_start_cb_t)(struct _lv_anim_t *);
  65:Drivers/lvgl/src/core/../misc/lv_anim.h **** 
  66:Drivers/lvgl/src/core/../misc/lv_anim.h **** /** Callback used when the animation values are relative to get the current value*/
  67:Drivers/lvgl/src/core/../misc/lv_anim.h **** typedef int32_t (*lv_anim_get_value_cb_t)(struct _lv_anim_t *);
  68:Drivers/lvgl/src/core/../misc/lv_anim.h **** 
  69:Drivers/lvgl/src/core/../misc/lv_anim.h **** /** Callback used when the animation is deleted*/
  70:Drivers/lvgl/src/core/../misc/lv_anim.h **** typedef void (*lv_anim_deleted_cb_t)(struct _lv_anim_t *);
  71:Drivers/lvgl/src/core/../misc/lv_anim.h **** 
  72:Drivers/lvgl/src/core/../misc/lv_anim.h **** /** Describes an animation*/
  73:Drivers/lvgl/src/core/../misc/lv_anim.h **** typedef struct _lv_anim_t {
  74:Drivers/lvgl/src/core/../misc/lv_anim.h ****     void * var;                          /**<Variable to animate*/
  75:Drivers/lvgl/src/core/../misc/lv_anim.h ****     lv_anim_exec_xcb_t exec_cb;          /**< Function to execute to animate*/
  76:Drivers/lvgl/src/core/../misc/lv_anim.h ****     lv_anim_start_cb_t start_cb;         /**< Call it when the animation is starts (considering `de
  77:Drivers/lvgl/src/core/../misc/lv_anim.h ****     lv_anim_ready_cb_t ready_cb;         /**< Call it when the animation is ready*/
  78:Drivers/lvgl/src/core/../misc/lv_anim.h ****     lv_anim_deleted_cb_t deleted_cb;     /**< Call it when the animation is deleted*/
  79:Drivers/lvgl/src/core/../misc/lv_anim.h ****     lv_anim_get_value_cb_t get_value_cb; /**< Get the current value in relative mode*/
  80:Drivers/lvgl/src/core/../misc/lv_anim.h **** #if LV_USE_USER_DATA
  81:Drivers/lvgl/src/core/../misc/lv_anim.h ****     void * user_data; /**< Custom user data*/
  82:Drivers/lvgl/src/core/../misc/lv_anim.h **** #endif
  83:Drivers/lvgl/src/core/../misc/lv_anim.h ****     lv_anim_path_cb_t path_cb;         /**< Describe the path (curve) of animations*/
  84:Drivers/lvgl/src/core/../misc/lv_anim.h ****     int32_t start_value;               /**< Start value*/
  85:Drivers/lvgl/src/core/../misc/lv_anim.h ****     int32_t current_value;             /**< Current value*/
  86:Drivers/lvgl/src/core/../misc/lv_anim.h ****     int32_t end_value;                 /**< End value*/
  87:Drivers/lvgl/src/core/../misc/lv_anim.h ****     int32_t time;                /**< Animation time in ms*/
  88:Drivers/lvgl/src/core/../misc/lv_anim.h ****     int32_t act_time;            /**< Current time in animation. Set to negative to make delay.*/
  89:Drivers/lvgl/src/core/../misc/lv_anim.h ****     uint32_t playback_delay;     /**< Wait before play back*/
  90:Drivers/lvgl/src/core/../misc/lv_anim.h ****     uint32_t playback_time;      /**< Duration of playback animation*/
  91:Drivers/lvgl/src/core/../misc/lv_anim.h ****     uint32_t repeat_delay;       /**< Wait before repeat*/
  92:Drivers/lvgl/src/core/../misc/lv_anim.h ****     uint16_t repeat_cnt;         /**< Repeat count for the animation*/
  93:Drivers/lvgl/src/core/../misc/lv_anim.h ****     uint8_t early_apply  : 1;    /**< 1: Apply start value immediately even is there is `delay`*/
  94:Drivers/lvgl/src/core/../misc/lv_anim.h **** 
  95:Drivers/lvgl/src/core/../misc/lv_anim.h ****     /*Animation system use these - user shouldn't set*/
  96:Drivers/lvgl/src/core/../misc/lv_anim.h ****     uint8_t playback_now : 1; /**< Play back is in progress*/
  97:Drivers/lvgl/src/core/../misc/lv_anim.h ****     uint8_t run_round : 1;    /**< Indicates the animation has run in this round*/
  98:Drivers/lvgl/src/core/../misc/lv_anim.h ****     uint8_t start_cb_called : 1;    /**< Indicates that the `start_cb` was already called*/
  99:Drivers/lvgl/src/core/../misc/lv_anim.h **** } lv_anim_t;
 100:Drivers/lvgl/src/core/../misc/lv_anim.h **** 
 101:Drivers/lvgl/src/core/../misc/lv_anim.h **** /**********************
 102:Drivers/lvgl/src/core/../misc/lv_anim.h ****  * GLOBAL PROTOTYPES
 103:Drivers/lvgl/src/core/../misc/lv_anim.h ****  **********************/
 104:Drivers/lvgl/src/core/../misc/lv_anim.h **** 
 105:Drivers/lvgl/src/core/../misc/lv_anim.h **** /**
 106:Drivers/lvgl/src/core/../misc/lv_anim.h ****  * Init. the animation module
 107:Drivers/lvgl/src/core/../misc/lv_anim.h ****  */
 108:Drivers/lvgl/src/core/../misc/lv_anim.h **** void _lv_anim_core_init(void);
 109:Drivers/lvgl/src/core/../misc/lv_anim.h **** 
 110:Drivers/lvgl/src/core/../misc/lv_anim.h **** /**
 111:Drivers/lvgl/src/core/../misc/lv_anim.h ****  * Initialize an animation variable.
 112:Drivers/lvgl/src/core/../misc/lv_anim.h ****  * E.g.:
 113:Drivers/lvgl/src/core/../misc/lv_anim.h ****  * lv_anim_t a;
 114:Drivers/lvgl/src/core/../misc/lv_anim.h ****  * lv_anim_init(&a);
 115:Drivers/lvgl/src/core/../misc/lv_anim.h ****  * lv_anim_set_...(&a);
 116:Drivers/lvgl/src/core/../misc/lv_anim.h ****  * lv_anim_start(&a);
 117:Drivers/lvgl/src/core/../misc/lv_anim.h ****  * @param a     pointer to an `lv_anim_t` variable to initialize
 118:Drivers/lvgl/src/core/../misc/lv_anim.h ****  */
 119:Drivers/lvgl/src/core/../misc/lv_anim.h **** void lv_anim_init(lv_anim_t * a);
ARM GAS  /var/folders/lp/x54gwt890xv47sdkqj1k04q40000gn/T//ccCdbJgg.s 			page 60


 120:Drivers/lvgl/src/core/../misc/lv_anim.h **** 
 121:Drivers/lvgl/src/core/../misc/lv_anim.h **** /**
 122:Drivers/lvgl/src/core/../misc/lv_anim.h ****  * Set a variable to animate
 123:Drivers/lvgl/src/core/../misc/lv_anim.h ****  * @param a     pointer to an initialized `lv_anim_t` variable
 124:Drivers/lvgl/src/core/../misc/lv_anim.h ****  * @param var   pointer to a variable to animate
 125:Drivers/lvgl/src/core/../misc/lv_anim.h ****  */
 126:Drivers/lvgl/src/core/../misc/lv_anim.h **** static inline void lv_anim_set_var(lv_anim_t * a, void * var)
 1611              		.loc 3 126 20 view .LVU449
 1612              	.LBB130:
 127:Drivers/lvgl/src/core/../misc/lv_anim.h **** {
 128:Drivers/lvgl/src/core/../misc/lv_anim.h ****     a->var = var;
 1613              		.loc 3 128 5 view .LVU450
 1614              		.loc 3 128 12 is_stmt 0 view .LVU451
 1615 0042 0194     		str	r4, [sp, #4]
 1616              	.LVL173:
 1617              		.loc 3 128 12 view .LVU452
 1618              	.LBE130:
 1619              	.LBE129:
 311:Drivers/lvgl/src/core/lv_obj_scroll.c **** 
 1620              		.loc 1 311 9 is_stmt 1 view .LVU453
 1621              	.LBB131:
 1622              	.LBI131:
 129:Drivers/lvgl/src/core/../misc/lv_anim.h **** }
 130:Drivers/lvgl/src/core/../misc/lv_anim.h **** 
 131:Drivers/lvgl/src/core/../misc/lv_anim.h **** /**
 132:Drivers/lvgl/src/core/../misc/lv_anim.h ****  * Set a function to animate `var`
 133:Drivers/lvgl/src/core/../misc/lv_anim.h ****  * @param a         pointer to an initialized `lv_anim_t` variable
 134:Drivers/lvgl/src/core/../misc/lv_anim.h ****  * @param exec_cb   a function to execute during animation
 135:Drivers/lvgl/src/core/../misc/lv_anim.h ****  *                  LVGL's built-in functions can be used.
 136:Drivers/lvgl/src/core/../misc/lv_anim.h ****  *                  E.g. lv_obj_set_x
 137:Drivers/lvgl/src/core/../misc/lv_anim.h ****  */
 138:Drivers/lvgl/src/core/../misc/lv_anim.h **** static inline void lv_anim_set_exec_cb(lv_anim_t * a, lv_anim_exec_xcb_t exec_cb)
 139:Drivers/lvgl/src/core/../misc/lv_anim.h **** {
 140:Drivers/lvgl/src/core/../misc/lv_anim.h ****     a->exec_cb = exec_cb;
 141:Drivers/lvgl/src/core/../misc/lv_anim.h **** }
 142:Drivers/lvgl/src/core/../misc/lv_anim.h **** 
 143:Drivers/lvgl/src/core/../misc/lv_anim.h **** /**
 144:Drivers/lvgl/src/core/../misc/lv_anim.h ****  * Set the duration of an animation
 145:Drivers/lvgl/src/core/../misc/lv_anim.h ****  * @param a         pointer to an initialized `lv_anim_t` variable
 146:Drivers/lvgl/src/core/../misc/lv_anim.h ****  * @param duration  duration of the animation in milliseconds
 147:Drivers/lvgl/src/core/../misc/lv_anim.h ****  */
 148:Drivers/lvgl/src/core/../misc/lv_anim.h **** static inline void lv_anim_set_time(lv_anim_t * a, uint32_t duration)
 149:Drivers/lvgl/src/core/../misc/lv_anim.h **** {
 150:Drivers/lvgl/src/core/../misc/lv_anim.h ****     a->time = duration;
 151:Drivers/lvgl/src/core/../misc/lv_anim.h **** }
 152:Drivers/lvgl/src/core/../misc/lv_anim.h **** 
 153:Drivers/lvgl/src/core/../misc/lv_anim.h **** /**
 154:Drivers/lvgl/src/core/../misc/lv_anim.h ****  * Set a delay before starting the animation
 155:Drivers/lvgl/src/core/../misc/lv_anim.h ****  * @param a         pointer to an initialized `lv_anim_t` variable
 156:Drivers/lvgl/src/core/../misc/lv_anim.h ****  * @param delay     delay before the animation in milliseconds
 157:Drivers/lvgl/src/core/../misc/lv_anim.h ****  */
 158:Drivers/lvgl/src/core/../misc/lv_anim.h **** static inline void lv_anim_set_delay(lv_anim_t * a, uint32_t delay)
 159:Drivers/lvgl/src/core/../misc/lv_anim.h **** {
 160:Drivers/lvgl/src/core/../misc/lv_anim.h ****     a->act_time = -(int32_t)(delay);
 161:Drivers/lvgl/src/core/../misc/lv_anim.h **** }
 162:Drivers/lvgl/src/core/../misc/lv_anim.h **** 
 163:Drivers/lvgl/src/core/../misc/lv_anim.h **** /**
ARM GAS  /var/folders/lp/x54gwt890xv47sdkqj1k04q40000gn/T//ccCdbJgg.s 			page 61


 164:Drivers/lvgl/src/core/../misc/lv_anim.h ****  * Set the start and end values of an animation
 165:Drivers/lvgl/src/core/../misc/lv_anim.h ****  * @param a         pointer to an initialized `lv_anim_t` variable
 166:Drivers/lvgl/src/core/../misc/lv_anim.h ****  * @param start     the start value
 167:Drivers/lvgl/src/core/../misc/lv_anim.h ****  * @param end       the end value
 168:Drivers/lvgl/src/core/../misc/lv_anim.h ****  */
 169:Drivers/lvgl/src/core/../misc/lv_anim.h **** static inline void lv_anim_set_values(lv_anim_t * a, int32_t start, int32_t end)
 170:Drivers/lvgl/src/core/../misc/lv_anim.h **** {
 171:Drivers/lvgl/src/core/../misc/lv_anim.h ****     a->start_value = start;
 172:Drivers/lvgl/src/core/../misc/lv_anim.h ****     a->current_value = start;
 173:Drivers/lvgl/src/core/../misc/lv_anim.h ****     a->end_value = end;
 174:Drivers/lvgl/src/core/../misc/lv_anim.h **** }
 175:Drivers/lvgl/src/core/../misc/lv_anim.h **** 
 176:Drivers/lvgl/src/core/../misc/lv_anim.h **** /**
 177:Drivers/lvgl/src/core/../misc/lv_anim.h ****  * Similar to `lv_anim_set_exec_cb` but `lv_anim_custom_exec_cb_t` receives
 178:Drivers/lvgl/src/core/../misc/lv_anim.h ****  * `lv_anim_t * ` as its first parameter instead of `void *`.
 179:Drivers/lvgl/src/core/../misc/lv_anim.h ****  * This function might be used when LVGL is bound to other languages because
 180:Drivers/lvgl/src/core/../misc/lv_anim.h ****  * it's more consistent to have `lv_anim_t *` as first parameter.
 181:Drivers/lvgl/src/core/../misc/lv_anim.h ****  * The variable to animate can be stored in the animation's `user_data`
 182:Drivers/lvgl/src/core/../misc/lv_anim.h ****  * @param a         pointer to an initialized `lv_anim_t` variable
 183:Drivers/lvgl/src/core/../misc/lv_anim.h ****  * @param exec_cb   a function to execute.
 184:Drivers/lvgl/src/core/../misc/lv_anim.h ****  */
 185:Drivers/lvgl/src/core/../misc/lv_anim.h **** static inline void lv_anim_set_custom_exec_cb(lv_anim_t * a, lv_anim_custom_exec_cb_t exec_cb)
 186:Drivers/lvgl/src/core/../misc/lv_anim.h **** {
 187:Drivers/lvgl/src/core/../misc/lv_anim.h ****     a->var     = a;
 188:Drivers/lvgl/src/core/../misc/lv_anim.h ****     a->exec_cb = (lv_anim_exec_xcb_t)exec_cb;
 189:Drivers/lvgl/src/core/../misc/lv_anim.h **** }
 190:Drivers/lvgl/src/core/../misc/lv_anim.h **** 
 191:Drivers/lvgl/src/core/../misc/lv_anim.h **** /**
 192:Drivers/lvgl/src/core/../misc/lv_anim.h ****  * Set the path (curve) of the animation.
 193:Drivers/lvgl/src/core/../misc/lv_anim.h ****  * @param a         pointer to an initialized `lv_anim_t` variable
 194:Drivers/lvgl/src/core/../misc/lv_anim.h ****  * @param path_cb a function to set the current value of the animation.
 195:Drivers/lvgl/src/core/../misc/lv_anim.h ****  */
 196:Drivers/lvgl/src/core/../misc/lv_anim.h **** static inline void lv_anim_set_path_cb(lv_anim_t * a, lv_anim_path_cb_t path_cb)
 197:Drivers/lvgl/src/core/../misc/lv_anim.h **** {
 198:Drivers/lvgl/src/core/../misc/lv_anim.h ****     a->path_cb = path_cb;
 199:Drivers/lvgl/src/core/../misc/lv_anim.h **** }
 200:Drivers/lvgl/src/core/../misc/lv_anim.h **** 
 201:Drivers/lvgl/src/core/../misc/lv_anim.h **** /**
 202:Drivers/lvgl/src/core/../misc/lv_anim.h ****  * Set a function call when the animation really starts (considering `delay`)
 203:Drivers/lvgl/src/core/../misc/lv_anim.h ****  * @param a         pointer to an initialized `lv_anim_t` variable
 204:Drivers/lvgl/src/core/../misc/lv_anim.h ****  * @param start_cb  a function call when the animation starts
 205:Drivers/lvgl/src/core/../misc/lv_anim.h ****  */
 206:Drivers/lvgl/src/core/../misc/lv_anim.h **** static inline void lv_anim_set_start_cb(lv_anim_t * a, lv_anim_start_cb_t start_cb)
 207:Drivers/lvgl/src/core/../misc/lv_anim.h **** {
 208:Drivers/lvgl/src/core/../misc/lv_anim.h ****     a->start_cb = start_cb;
 209:Drivers/lvgl/src/core/../misc/lv_anim.h **** }
 210:Drivers/lvgl/src/core/../misc/lv_anim.h **** 
 211:Drivers/lvgl/src/core/../misc/lv_anim.h **** /**
 212:Drivers/lvgl/src/core/../misc/lv_anim.h ****  * Set a function to use the current value of the variable and make start and end value
 213:Drivers/lvgl/src/core/../misc/lv_anim.h ****  * relative to the returned current value.
 214:Drivers/lvgl/src/core/../misc/lv_anim.h ****  * @param a             pointer to an initialized `lv_anim_t` variable
 215:Drivers/lvgl/src/core/../misc/lv_anim.h ****  * @param get_value_cb  a function call when the animation starts
 216:Drivers/lvgl/src/core/../misc/lv_anim.h ****  */
 217:Drivers/lvgl/src/core/../misc/lv_anim.h **** static inline void lv_anim_set_get_value_cb(lv_anim_t * a, lv_anim_get_value_cb_t get_value_cb)
 218:Drivers/lvgl/src/core/../misc/lv_anim.h **** {
 219:Drivers/lvgl/src/core/../misc/lv_anim.h ****     a->get_value_cb = get_value_cb;
 220:Drivers/lvgl/src/core/../misc/lv_anim.h **** }
ARM GAS  /var/folders/lp/x54gwt890xv47sdkqj1k04q40000gn/T//ccCdbJgg.s 			page 62


 221:Drivers/lvgl/src/core/../misc/lv_anim.h **** 
 222:Drivers/lvgl/src/core/../misc/lv_anim.h **** /**
 223:Drivers/lvgl/src/core/../misc/lv_anim.h ****  * Set a function call when the animation is ready
 224:Drivers/lvgl/src/core/../misc/lv_anim.h ****  * @param a         pointer to an initialized `lv_anim_t` variable
 225:Drivers/lvgl/src/core/../misc/lv_anim.h ****  * @param ready_cb  a function call when the animation is ready
 226:Drivers/lvgl/src/core/../misc/lv_anim.h ****  */
 227:Drivers/lvgl/src/core/../misc/lv_anim.h **** static inline void lv_anim_set_ready_cb(lv_anim_t * a, lv_anim_ready_cb_t ready_cb)
 1623              		.loc 3 227 20 view .LVU454
 1624              	.LBB132:
 228:Drivers/lvgl/src/core/../misc/lv_anim.h **** {
 229:Drivers/lvgl/src/core/../misc/lv_anim.h ****     a->ready_cb = ready_cb;
 1625              		.loc 3 229 5 view .LVU455
 1626              		.loc 3 229 17 is_stmt 0 view .LVU456
 1627 0044 344B     		ldr	r3, .L106+8
 1628 0046 0493     		str	r3, [sp, #16]
 1629              	.LVL174:
 1630              		.loc 3 229 17 view .LVU457
 1631              	.LBE132:
 1632              	.LBE131:
 313:Drivers/lvgl/src/core/lv_obj_scroll.c ****             uint32_t t = lv_anim_speed_to_time((lv_disp_get_hor_res(d) * 2) >> 2, 0, dx);
 1633              		.loc 1 313 9 is_stmt 1 view .LVU458
 313:Drivers/lvgl/src/core/lv_obj_scroll.c ****             uint32_t t = lv_anim_speed_to_time((lv_disp_get_hor_res(d) * 2) >> 2, 0, dx);
 1634              		.loc 1 313 11 is_stmt 0 view .LVU459
 1635 0048 96B9     		cbnz	r6, .L105
 1636              	.L93:
 329:Drivers/lvgl/src/core/lv_obj_scroll.c ****             uint32_t t = lv_anim_speed_to_time((lv_disp_get_ver_res(d) * 2) >> 2, 0, dy);
 1637              		.loc 1 329 9 is_stmt 1 view .LVU460
 329:Drivers/lvgl/src/core/lv_obj_scroll.c ****             uint32_t t = lv_anim_speed_to_time((lv_disp_get_ver_res(d) * 2) >> 2, 0, dy);
 1638              		.loc 1 329 11 is_stmt 0 view .LVU461
 1639 004a 002D     		cmp	r5, #0
 1640 004c F0D0     		beq	.L89
 1641              	.LBB133:
 330:Drivers/lvgl/src/core/lv_obj_scroll.c ****             if(t < SCROLL_ANIM_TIME_MIN) t = SCROLL_ANIM_TIME_MIN;
 1642              		.loc 1 330 13 is_stmt 1 view .LVU462
 330:Drivers/lvgl/src/core/lv_obj_scroll.c ****             if(t < SCROLL_ANIM_TIME_MIN) t = SCROLL_ANIM_TIME_MIN;
 1643              		.loc 1 330 49 is_stmt 0 view .LVU463
 1644 004e 3846     		mov	r0, r7
 1645 0050 FFF7FEFF 		bl	lv_disp_get_ver_res
 1646              	.LVL175:
 330:Drivers/lvgl/src/core/lv_obj_scroll.c ****             if(t < SCROLL_ANIM_TIME_MIN) t = SCROLL_ANIM_TIME_MIN;
 1647              		.loc 1 330 26 discriminator 1 view .LVU464
 1648 0054 2A46     		mov	r2, r5
 1649 0056 0021     		movs	r1, #0
 1650 0058 40F35D00 		sbfx	r0, r0, #1, #30
 1651 005c FFF7FEFF 		bl	lv_anim_speed_to_time
 1652              	.LVL176:
 331:Drivers/lvgl/src/core/lv_obj_scroll.c ****             if(t > SCROLL_ANIM_TIME_MAX) t = SCROLL_ANIM_TIME_MAX;
 1653              		.loc 1 331 13 is_stmt 1 view .LVU465
 331:Drivers/lvgl/src/core/lv_obj_scroll.c ****             if(t > SCROLL_ANIM_TIME_MAX) t = SCROLL_ANIM_TIME_MAX;
 1654              		.loc 1 331 15 is_stmt 0 view .LVU466
 1655 0060 C728     		cmp	r0, #199
 1656 0062 2FD9     		bls	.L100
 332:Drivers/lvgl/src/core/lv_obj_scroll.c ****             lv_anim_set_time(&a, t);
 1657              		.loc 1 332 13 is_stmt 1 view .LVU467
 332:Drivers/lvgl/src/core/lv_obj_scroll.c ****             lv_anim_set_time(&a, t);
 1658              		.loc 1 332 15 is_stmt 0 view .LVU468
 1659 0064 B0F5C87F 		cmp	r0, #400
ARM GAS  /var/folders/lp/x54gwt890xv47sdkqj1k04q40000gn/T//ccCdbJgg.s 			page 63


 1660 0068 2DD9     		bls	.L97
 332:Drivers/lvgl/src/core/lv_obj_scroll.c ****             lv_anim_set_time(&a, t);
 1661              		.loc 1 332 44 discriminator 1 view .LVU469
 1662 006a 4FF4C870 		mov	r0, #400
 1663              	.LVL177:
 332:Drivers/lvgl/src/core/lv_obj_scroll.c ****             lv_anim_set_time(&a, t);
 1664              		.loc 1 332 44 discriminator 1 view .LVU470
 1665 006e 2AE0     		b	.L97
 1666              	.LVL178:
 1667              	.L105:
 332:Drivers/lvgl/src/core/lv_obj_scroll.c ****             lv_anim_set_time(&a, t);
 1668              		.loc 1 332 44 discriminator 1 view .LVU471
 1669              	.LBE133:
 1670              	.LBB142:
 314:Drivers/lvgl/src/core/lv_obj_scroll.c ****             if(t < SCROLL_ANIM_TIME_MIN) t = SCROLL_ANIM_TIME_MIN;
 1671              		.loc 1 314 13 is_stmt 1 view .LVU472
 314:Drivers/lvgl/src/core/lv_obj_scroll.c ****             if(t < SCROLL_ANIM_TIME_MIN) t = SCROLL_ANIM_TIME_MIN;
 1672              		.loc 1 314 49 is_stmt 0 view .LVU473
 1673 0070 3846     		mov	r0, r7
 1674 0072 FFF7FEFF 		bl	lv_disp_get_hor_res
 1675              	.LVL179:
 314:Drivers/lvgl/src/core/lv_obj_scroll.c ****             if(t < SCROLL_ANIM_TIME_MIN) t = SCROLL_ANIM_TIME_MIN;
 1676              		.loc 1 314 26 discriminator 1 view .LVU474
 1677 0076 3246     		mov	r2, r6
 1678 0078 0021     		movs	r1, #0
 1679 007a 40F35D00 		sbfx	r0, r0, #1, #30
 1680 007e FFF7FEFF 		bl	lv_anim_speed_to_time
 1681              	.LVL180:
 315:Drivers/lvgl/src/core/lv_obj_scroll.c ****             if(t > SCROLL_ANIM_TIME_MAX) t = SCROLL_ANIM_TIME_MAX;
 1682              		.loc 1 315 13 is_stmt 1 view .LVU475
 315:Drivers/lvgl/src/core/lv_obj_scroll.c ****             if(t > SCROLL_ANIM_TIME_MAX) t = SCROLL_ANIM_TIME_MAX;
 1683              		.loc 1 315 15 is_stmt 0 view .LVU476
 1684 0082 C728     		cmp	r0, #199
 1685 0084 05D9     		bls	.L98
 316:Drivers/lvgl/src/core/lv_obj_scroll.c ****             lv_anim_set_time(&a, t);
 1686              		.loc 1 316 13 is_stmt 1 view .LVU477
 316:Drivers/lvgl/src/core/lv_obj_scroll.c ****             lv_anim_set_time(&a, t);
 1687              		.loc 1 316 15 is_stmt 0 view .LVU478
 1688 0086 B0F5C87F 		cmp	r0, #400
 1689 008a 03D9     		bls	.L94
 316:Drivers/lvgl/src/core/lv_obj_scroll.c ****             lv_anim_set_time(&a, t);
 1690              		.loc 1 316 44 discriminator 1 view .LVU479
 1691 008c 4FF4C870 		mov	r0, #400
 1692              	.LVL181:
 316:Drivers/lvgl/src/core/lv_obj_scroll.c ****             lv_anim_set_time(&a, t);
 1693              		.loc 1 316 44 discriminator 1 view .LVU480
 1694 0090 00E0     		b	.L94
 1695              	.LVL182:
 1696              	.L98:
 315:Drivers/lvgl/src/core/lv_obj_scroll.c ****             if(t > SCROLL_ANIM_TIME_MAX) t = SCROLL_ANIM_TIME_MAX;
 1697              		.loc 1 315 44 discriminator 1 view .LVU481
 1698 0092 C820     		movs	r0, #200
 1699              	.LVL183:
 1700              	.L94:
 317:Drivers/lvgl/src/core/lv_obj_scroll.c ****             lv_coord_t sx = lv_obj_get_scroll_x(obj);
 1701              		.loc 1 317 13 is_stmt 1 view .LVU482
 1702              	.LBB143:
ARM GAS  /var/folders/lp/x54gwt890xv47sdkqj1k04q40000gn/T//ccCdbJgg.s 			page 64


 1703              	.LBI143:
 148:Drivers/lvgl/src/core/../misc/lv_anim.h **** {
 1704              		.loc 3 148 20 view .LVU483
 1705              	.LBB144:
 150:Drivers/lvgl/src/core/../misc/lv_anim.h **** }
 1706              		.loc 3 150 5 view .LVU484
 150:Drivers/lvgl/src/core/../misc/lv_anim.h **** }
 1707              		.loc 3 150 13 is_stmt 0 view .LVU485
 1708 0094 0C90     		str	r0, [sp, #48]
 1709              	.LVL184:
 150:Drivers/lvgl/src/core/../misc/lv_anim.h **** }
 1710              		.loc 3 150 13 view .LVU486
 1711              	.LBE144:
 1712              	.LBE143:
 318:Drivers/lvgl/src/core/lv_obj_scroll.c ****             lv_anim_set_values(&a, -sx, -sx + dx);
 1713              		.loc 1 318 13 is_stmt 1 view .LVU487
 318:Drivers/lvgl/src/core/lv_obj_scroll.c ****             lv_anim_set_values(&a, -sx, -sx + dx);
 1714              		.loc 1 318 29 is_stmt 0 view .LVU488
 1715 0096 2046     		mov	r0, r4
 1716              	.LVL185:
 318:Drivers/lvgl/src/core/lv_obj_scroll.c ****             lv_anim_set_values(&a, -sx, -sx + dx);
 1717              		.loc 1 318 29 view .LVU489
 1718 0098 FFF7FEFF 		bl	lv_obj_get_scroll_x
 1719              	.LVL186:
 319:Drivers/lvgl/src/core/lv_obj_scroll.c ****             lv_anim_set_exec_cb(&a, scroll_x_anim);
 1720              		.loc 1 319 13 is_stmt 1 view .LVU490
 319:Drivers/lvgl/src/core/lv_obj_scroll.c ****             lv_anim_set_exec_cb(&a, scroll_x_anim);
 1721              		.loc 1 319 36 is_stmt 0 view .LVU491
 1722 009c 4342     		rsbs	r3, r0, #0
 319:Drivers/lvgl/src/core/lv_obj_scroll.c ****             lv_anim_set_exec_cb(&a, scroll_x_anim);
 1723              		.loc 1 319 45 view .LVU492
 1724 009e 301A     		subs	r0, r6, r0
 1725              	.LVL187:
 1726              	.LBB145:
 1727              	.LBI145:
 169:Drivers/lvgl/src/core/../misc/lv_anim.h **** {
 1728              		.loc 3 169 20 is_stmt 1 view .LVU493
 1729              	.LBB146:
 171:Drivers/lvgl/src/core/../misc/lv_anim.h ****     a->current_value = start;
 1730              		.loc 3 171 5 view .LVU494
 171:Drivers/lvgl/src/core/../misc/lv_anim.h ****     a->current_value = start;
 1731              		.loc 3 171 20 is_stmt 0 view .LVU495
 1732 00a0 0993     		str	r3, [sp, #36]
 172:Drivers/lvgl/src/core/../misc/lv_anim.h ****     a->end_value = end;
 1733              		.loc 3 172 5 is_stmt 1 view .LVU496
 172:Drivers/lvgl/src/core/../misc/lv_anim.h ****     a->end_value = end;
 1734              		.loc 3 172 22 is_stmt 0 view .LVU497
 1735 00a2 0A93     		str	r3, [sp, #40]
 173:Drivers/lvgl/src/core/../misc/lv_anim.h **** }
 1736              		.loc 3 173 5 is_stmt 1 view .LVU498
 173:Drivers/lvgl/src/core/../misc/lv_anim.h **** }
 1737              		.loc 3 173 18 is_stmt 0 view .LVU499
 1738 00a4 0B90     		str	r0, [sp, #44]
 1739              	.LVL188:
 173:Drivers/lvgl/src/core/../misc/lv_anim.h **** }
 1740              		.loc 3 173 18 view .LVU500
 1741              	.LBE146:
ARM GAS  /var/folders/lp/x54gwt890xv47sdkqj1k04q40000gn/T//ccCdbJgg.s 			page 65


 1742              	.LBE145:
 320:Drivers/lvgl/src/core/lv_obj_scroll.c ****             lv_anim_set_path_cb(&a, lv_anim_path_ease_out);
 1743              		.loc 1 320 13 is_stmt 1 view .LVU501
 1744              	.LBB147:
 1745              	.LBI147:
 138:Drivers/lvgl/src/core/../misc/lv_anim.h **** {
 1746              		.loc 3 138 20 view .LVU502
 1747              	.LBB148:
 140:Drivers/lvgl/src/core/../misc/lv_anim.h **** }
 1748              		.loc 3 140 5 view .LVU503
 140:Drivers/lvgl/src/core/../misc/lv_anim.h **** }
 1749              		.loc 3 140 16 is_stmt 0 view .LVU504
 1750 00a6 1B4B     		ldr	r3, .L106+4
 1751              	.LVL189:
 140:Drivers/lvgl/src/core/../misc/lv_anim.h **** }
 1752              		.loc 3 140 16 view .LVU505
 1753 00a8 0293     		str	r3, [sp, #8]
 1754              	.LVL190:
 140:Drivers/lvgl/src/core/../misc/lv_anim.h **** }
 1755              		.loc 3 140 16 view .LVU506
 1756              	.LBE148:
 1757              	.LBE147:
 321:Drivers/lvgl/src/core/lv_obj_scroll.c **** 
 1758              		.loc 1 321 13 is_stmt 1 view .LVU507
 1759              	.LBB149:
 1760              	.LBI149:
 196:Drivers/lvgl/src/core/../misc/lv_anim.h **** {
 1761              		.loc 3 196 20 view .LVU508
 1762              	.LBB150:
 198:Drivers/lvgl/src/core/../misc/lv_anim.h **** }
 1763              		.loc 3 198 5 view .LVU509
 198:Drivers/lvgl/src/core/../misc/lv_anim.h **** }
 1764              		.loc 3 198 16 is_stmt 0 view .LVU510
 1765 00aa 1C4B     		ldr	r3, .L106+12
 1766 00ac 0893     		str	r3, [sp, #32]
 1767              	.LVL191:
 198:Drivers/lvgl/src/core/../misc/lv_anim.h **** }
 1768              		.loc 3 198 16 view .LVU511
 1769              	.LBE150:
 1770              	.LBE149:
 323:Drivers/lvgl/src/core/lv_obj_scroll.c ****             res = lv_event_send(obj, LV_EVENT_SCROLL_BEGIN, &a);
 1771              		.loc 1 323 13 is_stmt 1 view .LVU512
 324:Drivers/lvgl/src/core/lv_obj_scroll.c ****             if(res != LV_RES_OK) return;
 1772              		.loc 1 324 13 view .LVU513
 324:Drivers/lvgl/src/core/lv_obj_scroll.c ****             if(res != LV_RES_OK) return;
 1773              		.loc 1 324 19 is_stmt 0 view .LVU514
 1774 00ae 01AA     		add	r2, sp, #4
 1775 00b0 0921     		movs	r1, #9
 1776 00b2 2046     		mov	r0, r4
 1777 00b4 FFF7FEFF 		bl	lv_event_send
 1778              	.LVL192:
 325:Drivers/lvgl/src/core/lv_obj_scroll.c ****             lv_anim_start(&a);
 1779              		.loc 1 325 13 is_stmt 1 view .LVU515
 325:Drivers/lvgl/src/core/lv_obj_scroll.c ****             lv_anim_start(&a);
 1780              		.loc 1 325 15 is_stmt 0 view .LVU516
 1781 00b8 0128     		cmp	r0, #1
 1782 00ba B9D1     		bne	.L89
ARM GAS  /var/folders/lp/x54gwt890xv47sdkqj1k04q40000gn/T//ccCdbJgg.s 			page 66


 326:Drivers/lvgl/src/core/lv_obj_scroll.c ****         }
 1783              		.loc 1 326 13 is_stmt 1 view .LVU517
 1784 00bc 01A8     		add	r0, sp, #4
 1785              	.LVL193:
 326:Drivers/lvgl/src/core/lv_obj_scroll.c ****         }
 1786              		.loc 1 326 13 is_stmt 0 view .LVU518
 1787 00be FFF7FEFF 		bl	lv_anim_start
 1788              	.LVL194:
 1789 00c2 C2E7     		b	.L93
 1790              	.LVL195:
 1791              	.L100:
 326:Drivers/lvgl/src/core/lv_obj_scroll.c ****         }
 1792              		.loc 1 326 13 view .LVU519
 1793              	.LBE142:
 1794              	.LBB151:
 331:Drivers/lvgl/src/core/lv_obj_scroll.c ****             if(t > SCROLL_ANIM_TIME_MAX) t = SCROLL_ANIM_TIME_MAX;
 1795              		.loc 1 331 44 discriminator 1 view .LVU520
 1796 00c4 C820     		movs	r0, #200
 1797              	.LVL196:
 1798              	.L97:
 333:Drivers/lvgl/src/core/lv_obj_scroll.c ****             lv_coord_t sy = lv_obj_get_scroll_y(obj);
 1799              		.loc 1 333 13 is_stmt 1 view .LVU521
 1800              	.LBB134:
 1801              	.LBI134:
 148:Drivers/lvgl/src/core/../misc/lv_anim.h **** {
 1802              		.loc 3 148 20 view .LVU522
 1803              	.LBB135:
 150:Drivers/lvgl/src/core/../misc/lv_anim.h **** }
 1804              		.loc 3 150 5 view .LVU523
 150:Drivers/lvgl/src/core/../misc/lv_anim.h **** }
 1805              		.loc 3 150 13 is_stmt 0 view .LVU524
 1806 00c6 0C90     		str	r0, [sp, #48]
 1807              	.LVL197:
 150:Drivers/lvgl/src/core/../misc/lv_anim.h **** }
 1808              		.loc 3 150 13 view .LVU525
 1809              	.LBE135:
 1810              	.LBE134:
 334:Drivers/lvgl/src/core/lv_obj_scroll.c ****             lv_anim_set_values(&a, -sy, -sy + dy);
 1811              		.loc 1 334 13 is_stmt 1 view .LVU526
 334:Drivers/lvgl/src/core/lv_obj_scroll.c ****             lv_anim_set_values(&a, -sy, -sy + dy);
 1812              		.loc 1 334 29 is_stmt 0 view .LVU527
 1813 00c8 2046     		mov	r0, r4
 1814              	.LVL198:
 334:Drivers/lvgl/src/core/lv_obj_scroll.c ****             lv_anim_set_values(&a, -sy, -sy + dy);
 1815              		.loc 1 334 29 view .LVU528
 1816 00ca FFF7FEFF 		bl	lv_obj_get_scroll_y
 1817              	.LVL199:
 335:Drivers/lvgl/src/core/lv_obj_scroll.c ****             lv_anim_set_exec_cb(&a,  scroll_y_anim);
 1818              		.loc 1 335 13 is_stmt 1 view .LVU529
 335:Drivers/lvgl/src/core/lv_obj_scroll.c ****             lv_anim_set_exec_cb(&a,  scroll_y_anim);
 1819              		.loc 1 335 36 is_stmt 0 view .LVU530
 1820 00ce 4342     		rsbs	r3, r0, #0
 335:Drivers/lvgl/src/core/lv_obj_scroll.c ****             lv_anim_set_exec_cb(&a,  scroll_y_anim);
 1821              		.loc 1 335 45 view .LVU531
 1822 00d0 281A     		subs	r0, r5, r0
 1823              	.LVL200:
 1824              	.LBB136:
ARM GAS  /var/folders/lp/x54gwt890xv47sdkqj1k04q40000gn/T//ccCdbJgg.s 			page 67


 1825              	.LBI136:
 169:Drivers/lvgl/src/core/../misc/lv_anim.h **** {
 1826              		.loc 3 169 20 is_stmt 1 view .LVU532
 1827              	.LBB137:
 171:Drivers/lvgl/src/core/../misc/lv_anim.h ****     a->current_value = start;
 1828              		.loc 3 171 5 view .LVU533
 171:Drivers/lvgl/src/core/../misc/lv_anim.h ****     a->current_value = start;
 1829              		.loc 3 171 20 is_stmt 0 view .LVU534
 1830 00d2 0993     		str	r3, [sp, #36]
 172:Drivers/lvgl/src/core/../misc/lv_anim.h ****     a->end_value = end;
 1831              		.loc 3 172 5 is_stmt 1 view .LVU535
 172:Drivers/lvgl/src/core/../misc/lv_anim.h ****     a->end_value = end;
 1832              		.loc 3 172 22 is_stmt 0 view .LVU536
 1833 00d4 0A93     		str	r3, [sp, #40]
 173:Drivers/lvgl/src/core/../misc/lv_anim.h **** }
 1834              		.loc 3 173 5 is_stmt 1 view .LVU537
 173:Drivers/lvgl/src/core/../misc/lv_anim.h **** }
 1835              		.loc 3 173 18 is_stmt 0 view .LVU538
 1836 00d6 0B90     		str	r0, [sp, #44]
 1837              	.LVL201:
 173:Drivers/lvgl/src/core/../misc/lv_anim.h **** }
 1838              		.loc 3 173 18 view .LVU539
 1839              	.LBE137:
 1840              	.LBE136:
 336:Drivers/lvgl/src/core/lv_obj_scroll.c ****             lv_anim_set_path_cb(&a, lv_anim_path_ease_out);
 1841              		.loc 1 336 13 is_stmt 1 view .LVU540
 1842              	.LBB138:
 1843              	.LBI138:
 138:Drivers/lvgl/src/core/../misc/lv_anim.h **** {
 1844              		.loc 3 138 20 view .LVU541
 1845              	.LBB139:
 140:Drivers/lvgl/src/core/../misc/lv_anim.h **** }
 1846              		.loc 3 140 5 view .LVU542
 140:Drivers/lvgl/src/core/../misc/lv_anim.h **** }
 1847              		.loc 3 140 16 is_stmt 0 view .LVU543
 1848 00d8 0D4B     		ldr	r3, .L106
 1849              	.LVL202:
 140:Drivers/lvgl/src/core/../misc/lv_anim.h **** }
 1850              		.loc 3 140 16 view .LVU544
 1851 00da 0293     		str	r3, [sp, #8]
 1852              	.LVL203:
 140:Drivers/lvgl/src/core/../misc/lv_anim.h **** }
 1853              		.loc 3 140 16 view .LVU545
 1854              	.LBE139:
 1855              	.LBE138:
 337:Drivers/lvgl/src/core/lv_obj_scroll.c **** 
 1856              		.loc 1 337 13 is_stmt 1 view .LVU546
 1857              	.LBB140:
 1858              	.LBI140:
 196:Drivers/lvgl/src/core/../misc/lv_anim.h **** {
 1859              		.loc 3 196 20 view .LVU547
 1860              	.LBB141:
 198:Drivers/lvgl/src/core/../misc/lv_anim.h **** }
 1861              		.loc 3 198 5 view .LVU548
 198:Drivers/lvgl/src/core/../misc/lv_anim.h **** }
 1862              		.loc 3 198 16 is_stmt 0 view .LVU549
 1863 00dc 0F4B     		ldr	r3, .L106+12
ARM GAS  /var/folders/lp/x54gwt890xv47sdkqj1k04q40000gn/T//ccCdbJgg.s 			page 68


 1864 00de 0893     		str	r3, [sp, #32]
 1865              	.LVL204:
 198:Drivers/lvgl/src/core/../misc/lv_anim.h **** }
 1866              		.loc 3 198 16 view .LVU550
 1867              	.LBE141:
 1868              	.LBE140:
 339:Drivers/lvgl/src/core/lv_obj_scroll.c ****             res = lv_event_send(obj, LV_EVENT_SCROLL_BEGIN, &a);
 1869              		.loc 1 339 13 is_stmt 1 view .LVU551
 340:Drivers/lvgl/src/core/lv_obj_scroll.c ****             if(res != LV_RES_OK) return;
 1870              		.loc 1 340 13 view .LVU552
 340:Drivers/lvgl/src/core/lv_obj_scroll.c ****             if(res != LV_RES_OK) return;
 1871              		.loc 1 340 19 is_stmt 0 view .LVU553
 1872 00e0 01AA     		add	r2, sp, #4
 1873 00e2 0921     		movs	r1, #9
 1874 00e4 2046     		mov	r0, r4
 1875 00e6 FFF7FEFF 		bl	lv_event_send
 1876              	.LVL205:
 341:Drivers/lvgl/src/core/lv_obj_scroll.c ****             lv_anim_start(&a);
 1877              		.loc 1 341 13 is_stmt 1 view .LVU554
 341:Drivers/lvgl/src/core/lv_obj_scroll.c ****             lv_anim_start(&a);
 1878              		.loc 1 341 15 is_stmt 0 view .LVU555
 1879 00ea 0128     		cmp	r0, #1
 1880 00ec A0D1     		bne	.L89
 342:Drivers/lvgl/src/core/lv_obj_scroll.c ****         }
 1881              		.loc 1 342 13 is_stmt 1 view .LVU556
 1882 00ee 01A8     		add	r0, sp, #4
 1883              	.LVL206:
 342:Drivers/lvgl/src/core/lv_obj_scroll.c ****         }
 1884              		.loc 1 342 13 is_stmt 0 view .LVU557
 1885 00f0 FFF7FEFF 		bl	lv_anim_start
 1886              	.LVL207:
 1887 00f4 9CE7     		b	.L89
 1888              	.LVL208:
 1889              	.L104:
 342:Drivers/lvgl/src/core/lv_obj_scroll.c ****         }
 1890              		.loc 1 342 13 view .LVU558
 1891              	.LBE151:
 1892              	.LBE128:
 1893              	.LBB152:
 354:Drivers/lvgl/src/core/lv_obj_scroll.c ****         if(res != LV_RES_OK) return;
 1894              		.loc 1 354 9 is_stmt 1 view .LVU559
 354:Drivers/lvgl/src/core/lv_obj_scroll.c ****         if(res != LV_RES_OK) return;
 1895              		.loc 1 354 15 is_stmt 0 view .LVU560
 1896 00f6 2A46     		mov	r2, r5
 1897 00f8 3146     		mov	r1, r6
 1898 00fa 2046     		mov	r0, r4
 1899              	.LVL209:
 354:Drivers/lvgl/src/core/lv_obj_scroll.c ****         if(res != LV_RES_OK) return;
 1900              		.loc 1 354 15 view .LVU561
 1901 00fc FFF7FEFF 		bl	_lv_obj_scroll_by_raw
 1902              	.LVL210:
 355:Drivers/lvgl/src/core/lv_obj_scroll.c **** 
 1903              		.loc 1 355 9 is_stmt 1 view .LVU562
 355:Drivers/lvgl/src/core/lv_obj_scroll.c **** 
 1904              		.loc 1 355 11 is_stmt 0 view .LVU563
 1905 0100 0128     		cmp	r0, #1
 1906 0102 95D1     		bne	.L89
ARM GAS  /var/folders/lp/x54gwt890xv47sdkqj1k04q40000gn/T//ccCdbJgg.s 			page 69


 357:Drivers/lvgl/src/core/lv_obj_scroll.c ****         if(res != LV_RES_OK) return;
 1907              		.loc 1 357 9 is_stmt 1 view .LVU564
 357:Drivers/lvgl/src/core/lv_obj_scroll.c ****         if(res != LV_RES_OK) return;
 1908              		.loc 1 357 15 is_stmt 0 view .LVU565
 1909 0104 0022     		movs	r2, #0
 1910 0106 0A21     		movs	r1, #10
 1911 0108 2046     		mov	r0, r4
 1912              	.LVL211:
 357:Drivers/lvgl/src/core/lv_obj_scroll.c ****         if(res != LV_RES_OK) return;
 1913              		.loc 1 357 15 view .LVU566
 1914 010a FFF7FEFF 		bl	lv_event_send
 1915              	.LVL212:
 358:Drivers/lvgl/src/core/lv_obj_scroll.c ****     }
 1916              		.loc 1 358 9 is_stmt 1 view .LVU567
 358:Drivers/lvgl/src/core/lv_obj_scroll.c ****     }
 1917              		.loc 1 358 30 discriminator 1 view .LVU568
 1918 010e 8FE7     		b	.L89
 1919              	.L107:
 1920              		.align	2
 1921              	.L106:
 1922 0110 00000000 		.word	scroll_y_anim
 1923 0114 00000000 		.word	scroll_x_anim
 1924 0118 00000000 		.word	scroll_anim_ready_cb
 1925 011c 00000000 		.word	lv_anim_path_ease_out
 1926              	.LBE152:
 1927              		.cfi_endproc
 1928              	.LFE183:
 1930              		.section	.text.lv_obj_scroll_by_bounded,"ax",%progbits
 1931              		.align	1
 1932              		.global	lv_obj_scroll_by_bounded
 1933              		.syntax unified
 1934              		.thumb
 1935              		.thumb_func
 1937              	lv_obj_scroll_by_bounded:
 1938              	.LVL213:
 1939              	.LFB182:
 255:Drivers/lvgl/src/core/lv_obj_scroll.c ****     if(dx == 0 && dy == 0) return;
 1940              		.loc 1 255 1 view -0
 1941              		.cfi_startproc
 1942              		@ args = 0, pretend = 0, frame = 0
 1943              		@ frame_needed = 0, uses_anonymous_args = 0
 255:Drivers/lvgl/src/core/lv_obj_scroll.c ****     if(dx == 0 && dy == 0) return;
 1944              		.loc 1 255 1 is_stmt 0 view .LVU570
 1945 0000 2DE9F047 		push	{r4, r5, r6, r7, r8, r9, r10, lr}
 1946              		.cfi_def_cfa_offset 32
 1947              		.cfi_offset 4, -32
 1948              		.cfi_offset 5, -28
 1949              		.cfi_offset 6, -24
 1950              		.cfi_offset 7, -20
 1951              		.cfi_offset 8, -16
 1952              		.cfi_offset 9, -12
 1953              		.cfi_offset 10, -8
 1954              		.cfi_offset 14, -4
 1955 0004 0546     		mov	r5, r0
 1956 0006 1446     		mov	r4, r2
 1957 0008 1E46     		mov	r6, r3
 256:Drivers/lvgl/src/core/lv_obj_scroll.c **** 
ARM GAS  /var/folders/lp/x54gwt890xv47sdkqj1k04q40000gn/T//ccCdbJgg.s 			page 70


 1958              		.loc 1 256 5 is_stmt 1 view .LVU571
 256:Drivers/lvgl/src/core/lv_obj_scroll.c **** 
 1959              		.loc 1 256 7 is_stmt 0 view .LVU572
 1960 000a 8846     		mov	r8, r1
 1961 000c 01B9     		cbnz	r1, .L109
 256:Drivers/lvgl/src/core/lv_obj_scroll.c **** 
