ARM GAS  /var/folders/lp/x54gwt890xv47sdkqj1k04q40000gn/T//ccmljrTB.s 			page 1


   1              		.cpu cortex-m4
   2              		.arch armv7e-m
   3              		.fpu fpv4-sp-d16
   4              		.eabi_attribute 27, 1
   5              		.eabi_attribute 28, 1
   6              		.eabi_attribute 20, 1
   7              		.eabi_attribute 21, 1
   8              		.eabi_attribute 23, 3
   9              		.eabi_attribute 24, 1
  10              		.eabi_attribute 25, 1
  11              		.eabi_attribute 26, 1
  12              		.eabi_attribute 30, 1
  13              		.eabi_attribute 34, 1
  14              		.eabi_attribute 18, 4
  15              		.file	"lv_printf.c"
  16              		.text
  17              	.Ltext0:
  18              		.cfi_sections	.debug_frame
  19              		.file 1 "Drivers/lvgl/src/misc/lv_printf.c"
  20              		.section	.text._out_buffer,"ax",%progbits
  21              		.align	1
  22              		.syntax unified
  23              		.thumb
  24              		.thumb_func
  26              	_out_buffer:
  27              	.LVL0:
  28              	.LFB0:
   1:Drivers/lvgl/src/misc/lv_printf.c **** ///////////////////////////////////////////////////////////////////////////////
   2:Drivers/lvgl/src/misc/lv_printf.c **** // \author (c) Marco Paland (info@paland.com)
   3:Drivers/lvgl/src/misc/lv_printf.c **** //             2014-2019, PALANDesign Hannover, Germany
   4:Drivers/lvgl/src/misc/lv_printf.c **** //
   5:Drivers/lvgl/src/misc/lv_printf.c **** // \license The MIT License (MIT)
   6:Drivers/lvgl/src/misc/lv_printf.c **** //
   7:Drivers/lvgl/src/misc/lv_printf.c **** // Permission is hereby granted, free of charge, to any person obtaining a copy
   8:Drivers/lvgl/src/misc/lv_printf.c **** // of this software and associated documentation files (the "Software"), to deal
   9:Drivers/lvgl/src/misc/lv_printf.c **** // in the Software without restriction, including without limitation the rights
  10:Drivers/lvgl/src/misc/lv_printf.c **** // to use, copy, modify, merge, publish, distribute, sublicense, and/or sell
  11:Drivers/lvgl/src/misc/lv_printf.c **** // copies of the Software, and to permit persons to whom the Software is
  12:Drivers/lvgl/src/misc/lv_printf.c **** // furnished to do so, subject to the following conditions:
  13:Drivers/lvgl/src/misc/lv_printf.c **** //
  14:Drivers/lvgl/src/misc/lv_printf.c **** // The above copyright notice and this permission notice shall be included in
  15:Drivers/lvgl/src/misc/lv_printf.c **** // all copies or substantial portions of the Software.
  16:Drivers/lvgl/src/misc/lv_printf.c **** //
  17:Drivers/lvgl/src/misc/lv_printf.c **** // THE SOFTWARE IS PROVIDED "AS IS", WITHOUT WARRANTY OF ANY KIND, EXPRESS OR
  18:Drivers/lvgl/src/misc/lv_printf.c **** // IMPLIED, INCLUDING BUT NOT LIMITED TO THE WARRANTIES OF MERCHANTABILITY,
  19:Drivers/lvgl/src/misc/lv_printf.c **** // FITNESS FOR A PARTICULAR PURPOSE AND NONINFRINGEMENT. IN NO EVENT SHALL THE
  20:Drivers/lvgl/src/misc/lv_printf.c **** // AUTHORS OR COPYRIGHT HOLDERS BE LIABLE FOR ANY CLAIM, DAMAGES OR OTHER
  21:Drivers/lvgl/src/misc/lv_printf.c **** // LIABILITY, WHETHER IN AN ACTION OF CONTRACT, TORT OR OTHERWISE, ARISING FROM,
  22:Drivers/lvgl/src/misc/lv_printf.c **** // OUT OF OR IN CONNECTION WITH THE SOFTWARE OR THE USE OR OTHER DEALINGS IN
  23:Drivers/lvgl/src/misc/lv_printf.c **** // THE SOFTWARE.
  24:Drivers/lvgl/src/misc/lv_printf.c **** //
  25:Drivers/lvgl/src/misc/lv_printf.c **** // \brief Tiny printf, sprintf and (v)snprintf implementation, optimized for speed on
  26:Drivers/lvgl/src/misc/lv_printf.c **** //        embedded systems with a very limited resources. These routines are thread
  27:Drivers/lvgl/src/misc/lv_printf.c **** //        safe and reentrant!
  28:Drivers/lvgl/src/misc/lv_printf.c **** //        Use this instead of the bloated standard/newlib printf cause these use
  29:Drivers/lvgl/src/misc/lv_printf.c **** //        malloc for printf (and may not be thread safe).
  30:Drivers/lvgl/src/misc/lv_printf.c **** //
ARM GAS  /var/folders/lp/x54gwt890xv47sdkqj1k04q40000gn/T//ccmljrTB.s 			page 2


  31:Drivers/lvgl/src/misc/lv_printf.c **** ///////////////////////////////////////////////////////////////////////////////
  32:Drivers/lvgl/src/misc/lv_printf.c **** 
  33:Drivers/lvgl/src/misc/lv_printf.c **** /*Original repository: https://github.com/mpaland/printf*/
  34:Drivers/lvgl/src/misc/lv_printf.c **** 
  35:Drivers/lvgl/src/misc/lv_printf.c **** #include "lv_printf.h"
  36:Drivers/lvgl/src/misc/lv_printf.c **** 
  37:Drivers/lvgl/src/misc/lv_printf.c **** #if LV_SPRINTF_CUSTOM == 0
  38:Drivers/lvgl/src/misc/lv_printf.c **** 
  39:Drivers/lvgl/src/misc/lv_printf.c **** #include <stdbool.h>
  40:Drivers/lvgl/src/misc/lv_printf.c **** 
  41:Drivers/lvgl/src/misc/lv_printf.c **** #define PRINTF_DISABLE_SUPPORT_FLOAT    (!LV_SPRINTF_USE_FLOAT)
  42:Drivers/lvgl/src/misc/lv_printf.c **** 
  43:Drivers/lvgl/src/misc/lv_printf.c **** // 'ntoa' conversion buffer size, this must be big enough to hold one converted
  44:Drivers/lvgl/src/misc/lv_printf.c **** // numeric number including padded zeros (dynamically created on stack)
  45:Drivers/lvgl/src/misc/lv_printf.c **** // default: 32 byte
  46:Drivers/lvgl/src/misc/lv_printf.c **** #ifndef PRINTF_NTOA_BUFFER_SIZE
  47:Drivers/lvgl/src/misc/lv_printf.c ****     #define PRINTF_NTOA_BUFFER_SIZE    32U
  48:Drivers/lvgl/src/misc/lv_printf.c **** #endif
  49:Drivers/lvgl/src/misc/lv_printf.c **** 
  50:Drivers/lvgl/src/misc/lv_printf.c **** // 'ftoa' conversion buffer size, this must be big enough to hold one converted
  51:Drivers/lvgl/src/misc/lv_printf.c **** // float number including padded zeros (dynamically created on stack)
  52:Drivers/lvgl/src/misc/lv_printf.c **** // default: 32 byte
  53:Drivers/lvgl/src/misc/lv_printf.c **** #ifndef PRINTF_FTOA_BUFFER_SIZE
  54:Drivers/lvgl/src/misc/lv_printf.c ****     #define PRINTF_FTOA_BUFFER_SIZE    32U
  55:Drivers/lvgl/src/misc/lv_printf.c **** #endif
  56:Drivers/lvgl/src/misc/lv_printf.c **** 
  57:Drivers/lvgl/src/misc/lv_printf.c **** // support for the floating point type (%f)
  58:Drivers/lvgl/src/misc/lv_printf.c **** // default: activated
  59:Drivers/lvgl/src/misc/lv_printf.c **** #if !PRINTF_DISABLE_SUPPORT_FLOAT
  60:Drivers/lvgl/src/misc/lv_printf.c ****     #define PRINTF_SUPPORT_FLOAT
  61:Drivers/lvgl/src/misc/lv_printf.c **** #endif
  62:Drivers/lvgl/src/misc/lv_printf.c **** 
  63:Drivers/lvgl/src/misc/lv_printf.c **** // support for exponential floating point notation (%e/%g)
  64:Drivers/lvgl/src/misc/lv_printf.c **** // default: activated
  65:Drivers/lvgl/src/misc/lv_printf.c **** #ifndef PRINTF_DISABLE_SUPPORT_EXPONENTIAL
  66:Drivers/lvgl/src/misc/lv_printf.c ****     #define PRINTF_SUPPORT_EXPONENTIAL
  67:Drivers/lvgl/src/misc/lv_printf.c **** #endif
  68:Drivers/lvgl/src/misc/lv_printf.c **** 
  69:Drivers/lvgl/src/misc/lv_printf.c **** // define the default floating point precision
  70:Drivers/lvgl/src/misc/lv_printf.c **** // default: 6 digits
  71:Drivers/lvgl/src/misc/lv_printf.c **** #ifndef PRINTF_DEFAULT_FLOAT_PRECISION
  72:Drivers/lvgl/src/misc/lv_printf.c ****     #define PRINTF_DEFAULT_FLOAT_PRECISION 6U
  73:Drivers/lvgl/src/misc/lv_printf.c **** #endif
  74:Drivers/lvgl/src/misc/lv_printf.c **** 
  75:Drivers/lvgl/src/misc/lv_printf.c **** // define the largest float suitable to print with %f
  76:Drivers/lvgl/src/misc/lv_printf.c **** // default: 1e9
  77:Drivers/lvgl/src/misc/lv_printf.c **** #ifndef PRINTF_MAX_FLOAT
  78:Drivers/lvgl/src/misc/lv_printf.c ****     #define PRINTF_MAX_FLOAT 1e9
  79:Drivers/lvgl/src/misc/lv_printf.c **** #endif
  80:Drivers/lvgl/src/misc/lv_printf.c **** 
  81:Drivers/lvgl/src/misc/lv_printf.c **** // support for the long long types (%llu or %p)
  82:Drivers/lvgl/src/misc/lv_printf.c **** // default: activated
  83:Drivers/lvgl/src/misc/lv_printf.c **** #ifndef PRINTF_DISABLE_SUPPORT_LONG_LONG
  84:Drivers/lvgl/src/misc/lv_printf.c ****     #define PRINTF_SUPPORT_LONG_LONG
  85:Drivers/lvgl/src/misc/lv_printf.c **** #endif
  86:Drivers/lvgl/src/misc/lv_printf.c **** 
  87:Drivers/lvgl/src/misc/lv_printf.c **** // support for the ptrdiff_t type (%t)
ARM GAS  /var/folders/lp/x54gwt890xv47sdkqj1k04q40000gn/T//ccmljrTB.s 			page 3


  88:Drivers/lvgl/src/misc/lv_printf.c **** // ptrdiff_t is normally defined in <stddef.h> as long or long long type
  89:Drivers/lvgl/src/misc/lv_printf.c **** // default: activated
  90:Drivers/lvgl/src/misc/lv_printf.c **** #ifndef PRINTF_DISABLE_SUPPORT_PTRDIFF_T
  91:Drivers/lvgl/src/misc/lv_printf.c ****     #define PRINTF_SUPPORT_PTRDIFF_T
  92:Drivers/lvgl/src/misc/lv_printf.c **** #endif
  93:Drivers/lvgl/src/misc/lv_printf.c **** 
  94:Drivers/lvgl/src/misc/lv_printf.c **** ///////////////////////////////////////////////////////////////////////////////
  95:Drivers/lvgl/src/misc/lv_printf.c **** 
  96:Drivers/lvgl/src/misc/lv_printf.c **** // internal flag definitions
  97:Drivers/lvgl/src/misc/lv_printf.c **** #define FLAGS_ZEROPAD   (1U <<  0U)
  98:Drivers/lvgl/src/misc/lv_printf.c **** #define FLAGS_LEFT      (1U <<  1U)
  99:Drivers/lvgl/src/misc/lv_printf.c **** #define FLAGS_PLUS      (1U <<  2U)
 100:Drivers/lvgl/src/misc/lv_printf.c **** #define FLAGS_SPACE     (1U <<  3U)
 101:Drivers/lvgl/src/misc/lv_printf.c **** #define FLAGS_HASH      (1U <<  4U)
 102:Drivers/lvgl/src/misc/lv_printf.c **** #define FLAGS_UPPERCASE (1U <<  5U)
 103:Drivers/lvgl/src/misc/lv_printf.c **** #define FLAGS_CHAR      (1U <<  6U)
 104:Drivers/lvgl/src/misc/lv_printf.c **** #define FLAGS_SHORT     (1U <<  7U)
 105:Drivers/lvgl/src/misc/lv_printf.c **** #define FLAGS_LONG      (1U <<  8U)
 106:Drivers/lvgl/src/misc/lv_printf.c **** #define FLAGS_LONG_LONG (1U <<  9U)
 107:Drivers/lvgl/src/misc/lv_printf.c **** #define FLAGS_PRECISION (1U << 10U)
 108:Drivers/lvgl/src/misc/lv_printf.c **** #define FLAGS_ADAPT_EXP (1U << 11U)
 109:Drivers/lvgl/src/misc/lv_printf.c **** 
 110:Drivers/lvgl/src/misc/lv_printf.c **** // import float.h for DBL_MAX
 111:Drivers/lvgl/src/misc/lv_printf.c **** #if defined(PRINTF_SUPPORT_FLOAT)
 112:Drivers/lvgl/src/misc/lv_printf.c ****     #include <float.h>
 113:Drivers/lvgl/src/misc/lv_printf.c **** #endif
 114:Drivers/lvgl/src/misc/lv_printf.c **** 
 115:Drivers/lvgl/src/misc/lv_printf.c **** // output function type
 116:Drivers/lvgl/src/misc/lv_printf.c **** typedef void (*out_fct_type)(char character, void * buffer, size_t idx, size_t maxlen);
 117:Drivers/lvgl/src/misc/lv_printf.c **** 
 118:Drivers/lvgl/src/misc/lv_printf.c **** // wrapper (used as buffer) for output function type
 119:Drivers/lvgl/src/misc/lv_printf.c **** typedef struct {
 120:Drivers/lvgl/src/misc/lv_printf.c ****     void (*fct)(char character, void * arg);
 121:Drivers/lvgl/src/misc/lv_printf.c ****     void * arg;
 122:Drivers/lvgl/src/misc/lv_printf.c **** } out_fct_wrap_type;
 123:Drivers/lvgl/src/misc/lv_printf.c **** 
 124:Drivers/lvgl/src/misc/lv_printf.c **** // internal buffer output
 125:Drivers/lvgl/src/misc/lv_printf.c **** static inline void _out_buffer(char character, void * buffer, size_t idx, size_t maxlen)
 126:Drivers/lvgl/src/misc/lv_printf.c **** {
  29              		.loc 1 126 1 view -0
  30              		.cfi_startproc
  31              		@ args = 0, pretend = 0, frame = 0
  32              		@ frame_needed = 0, uses_anonymous_args = 0
  33              		@ link register save eliminated.
 127:Drivers/lvgl/src/misc/lv_printf.c ****     if(idx < maxlen) {
  34              		.loc 1 127 5 view .LVU1
  35              		.loc 1 127 7 is_stmt 0 view .LVU2
  36 0000 9A42     		cmp	r2, r3
  37 0002 00D2     		bcs	.L1
 128:Drivers/lvgl/src/misc/lv_printf.c ****         ((char *)buffer)[idx] = character;
  38              		.loc 1 128 9 is_stmt 1 view .LVU3
  39              		.loc 1 128 31 is_stmt 0 view .LVU4
  40 0004 8854     		strb	r0, [r1, r2]
  41              	.L1:
 129:Drivers/lvgl/src/misc/lv_printf.c ****     }
 130:Drivers/lvgl/src/misc/lv_printf.c **** }
  42              		.loc 1 130 1 view .LVU5
ARM GAS  /var/folders/lp/x54gwt890xv47sdkqj1k04q40000gn/T//ccmljrTB.s 			page 4


  43 0006 7047     		bx	lr
  44              		.cfi_endproc
  45              	.LFE0:
  47              		.section	.text._out_null,"ax",%progbits
  48              		.align	1
  49              		.syntax unified
  50              		.thumb
  51              		.thumb_func
  53              	_out_null:
  54              	.LVL1:
  55              	.LFB1:
 131:Drivers/lvgl/src/misc/lv_printf.c **** 
 132:Drivers/lvgl/src/misc/lv_printf.c **** // internal null output
 133:Drivers/lvgl/src/misc/lv_printf.c **** static inline void _out_null(char character, void * buffer, size_t idx, size_t maxlen)
 134:Drivers/lvgl/src/misc/lv_printf.c **** {
  56              		.loc 1 134 1 is_stmt 1 view -0
  57              		.cfi_startproc
  58              		@ args = 0, pretend = 0, frame = 0
  59              		@ frame_needed = 0, uses_anonymous_args = 0
  60              		@ link register save eliminated.
 135:Drivers/lvgl/src/misc/lv_printf.c ****     LV_UNUSED(character);
  61              		.loc 1 135 5 view .LVU7
 136:Drivers/lvgl/src/misc/lv_printf.c ****     LV_UNUSED(buffer);
  62              		.loc 1 136 5 view .LVU8
 137:Drivers/lvgl/src/misc/lv_printf.c ****     LV_UNUSED(idx);
  63              		.loc 1 137 5 view .LVU9
 138:Drivers/lvgl/src/misc/lv_printf.c ****     LV_UNUSED(maxlen);
  64              		.loc 1 138 5 view .LVU10
 139:Drivers/lvgl/src/misc/lv_printf.c **** }
  65              		.loc 1 139 1 is_stmt 0 view .LVU11
  66 0000 7047     		bx	lr
  67              		.cfi_endproc
  68              	.LFE1:
  70              		.section	.text._atoi,"ax",%progbits
  71              		.align	1
  72              		.syntax unified
  73              		.thumb
  74              		.thumb_func
  76              	_atoi:
  77              	.LVL2:
  78              	.LFB4:
 140:Drivers/lvgl/src/misc/lv_printf.c **** 
 141:Drivers/lvgl/src/misc/lv_printf.c **** // internal secure strlen
 142:Drivers/lvgl/src/misc/lv_printf.c **** // \return The length of the string (excluding the terminating 0) limited by 'maxsize'
 143:Drivers/lvgl/src/misc/lv_printf.c **** static inline unsigned int _strnlen_s(const char * str, size_t maxsize)
 144:Drivers/lvgl/src/misc/lv_printf.c **** {
 145:Drivers/lvgl/src/misc/lv_printf.c ****     const char * s;
 146:Drivers/lvgl/src/misc/lv_printf.c ****     for(s = str; *s && maxsize--; ++s);
 147:Drivers/lvgl/src/misc/lv_printf.c ****     return (unsigned int)(s - str);
 148:Drivers/lvgl/src/misc/lv_printf.c **** }
 149:Drivers/lvgl/src/misc/lv_printf.c **** 
 150:Drivers/lvgl/src/misc/lv_printf.c **** // internal test if char is a digit (0-9)
 151:Drivers/lvgl/src/misc/lv_printf.c **** // \return true if char is a digit
 152:Drivers/lvgl/src/misc/lv_printf.c **** static inline bool _is_digit(char ch)
 153:Drivers/lvgl/src/misc/lv_printf.c **** {
 154:Drivers/lvgl/src/misc/lv_printf.c ****     return (ch >= '0') && (ch <= '9');
 155:Drivers/lvgl/src/misc/lv_printf.c **** }
ARM GAS  /var/folders/lp/x54gwt890xv47sdkqj1k04q40000gn/T//ccmljrTB.s 			page 5


 156:Drivers/lvgl/src/misc/lv_printf.c **** 
 157:Drivers/lvgl/src/misc/lv_printf.c **** // internal ASCII string to unsigned int conversion
 158:Drivers/lvgl/src/misc/lv_printf.c **** static unsigned int _atoi(const char ** str)
 159:Drivers/lvgl/src/misc/lv_printf.c **** {
  79              		.loc 1 159 1 is_stmt 1 view -0
  80              		.cfi_startproc
  81              		@ args = 0, pretend = 0, frame = 0
  82              		@ frame_needed = 0, uses_anonymous_args = 0
  83              		@ link register save eliminated.
  84              		.loc 1 159 1 is_stmt 0 view .LVU13
  85 0000 0146     		mov	r1, r0
 160:Drivers/lvgl/src/misc/lv_printf.c ****     unsigned int i = 0U;
  86              		.loc 1 160 5 is_stmt 1 view .LVU14
  87              	.LVL3:
 161:Drivers/lvgl/src/misc/lv_printf.c ****     while(_is_digit(**str)) {
  88              		.loc 1 161 5 view .LVU15
 160:Drivers/lvgl/src/misc/lv_printf.c ****     unsigned int i = 0U;
  89              		.loc 1 160 18 is_stmt 0 view .LVU16
  90 0002 0020     		movs	r0, #0
  91              	.LVL4:
  92              		.loc 1 161 10 view .LVU17
  93 0004 08E0     		b	.L5
  94              	.LVL5:
  95              	.L6:
 162:Drivers/lvgl/src/misc/lv_printf.c ****         i = i * 10U + (unsigned int)(*((*str)++) - '0');
  96              		.loc 1 162 9 is_stmt 1 view .LVU18
  97              		.loc 1 162 15 is_stmt 0 view .LVU19
  98 0006 00EB8000 		add	r0, r0, r0, lsl #2
  99              	.LVL6:
 100              		.loc 1 162 46 view .LVU20
 101 000a 531C     		adds	r3, r2, #1
 102 000c 0B60     		str	r3, [r1]
 103              		.loc 1 162 38 view .LVU21
 104 000e 1378     		ldrb	r3, [r2]	@ zero_extendqisi2
 105              		.loc 1 162 21 view .LVU22
 106 0010 03EB4003 		add	r3, r3, r0, lsl #1
 107              		.loc 1 162 11 view .LVU23
 108 0014 A3F13000 		sub	r0, r3, #48
 109              	.LVL7:
 110              	.L5:
 161:Drivers/lvgl/src/misc/lv_printf.c ****     while(_is_digit(**str)) {
 111              		.loc 1 161 11 is_stmt 1 view .LVU24
 161:Drivers/lvgl/src/misc/lv_printf.c ****     while(_is_digit(**str)) {
 112              		.loc 1 161 22 is_stmt 0 view .LVU25
 113 0018 0A68     		ldr	r2, [r1]
 161:Drivers/lvgl/src/misc/lv_printf.c ****     while(_is_digit(**str)) {
 114              		.loc 1 161 11 view .LVU26
 115 001a 1378     		ldrb	r3, [r2]	@ zero_extendqisi2
 116              	.LVL8:
 117              	.LBB20:
 118              	.LBI20:
 152:Drivers/lvgl/src/misc/lv_printf.c **** {
 119              		.loc 1 152 20 is_stmt 1 view .LVU27
 120              	.LBB21:
 154:Drivers/lvgl/src/misc/lv_printf.c **** }
 121              		.loc 1 154 5 view .LVU28
 154:Drivers/lvgl/src/misc/lv_printf.c **** }
ARM GAS  /var/folders/lp/x54gwt890xv47sdkqj1k04q40000gn/T//ccmljrTB.s 			page 6


 122              		.loc 1 154 24 is_stmt 0 view .LVU29
 123 001c 303B     		subs	r3, r3, #48
 124 001e DBB2     		uxtb	r3, r3
 125              	.LVL9:
 154:Drivers/lvgl/src/misc/lv_printf.c **** }
 126              		.loc 1 154 24 view .LVU30
 127              	.LBE21:
 128              	.LBE20:
 161:Drivers/lvgl/src/misc/lv_printf.c ****         i = i * 10U + (unsigned int)(*((*str)++) - '0');
 129              		.loc 1 161 11 discriminator 1 view .LVU31
 130 0020 092B     		cmp	r3, #9
 131 0022 F0D9     		bls	.L6
 163:Drivers/lvgl/src/misc/lv_printf.c ****     }
 164:Drivers/lvgl/src/misc/lv_printf.c ****     return i;
 132              		.loc 1 164 5 is_stmt 1 view .LVU32
 165:Drivers/lvgl/src/misc/lv_printf.c **** }
 133              		.loc 1 165 1 is_stmt 0 view .LVU33
 134 0024 7047     		bx	lr
 135              		.cfi_endproc
 136              	.LFE4:
 138              		.section	.text._out_rev,"ax",%progbits
 139              		.align	1
 140              		.syntax unified
 141              		.thumb
 142              		.thumb_func
 144              	_out_rev:
 145              	.LVL10:
 146              	.LFB5:
 166:Drivers/lvgl/src/misc/lv_printf.c **** 
 167:Drivers/lvgl/src/misc/lv_printf.c **** // output the specified string in reverse, taking care of any zero-padding
 168:Drivers/lvgl/src/misc/lv_printf.c **** static size_t _out_rev(out_fct_type out, char * buffer, size_t idx, size_t maxlen, const char * buf
 169:Drivers/lvgl/src/misc/lv_printf.c ****                        unsigned int width, unsigned int flags)
 170:Drivers/lvgl/src/misc/lv_printf.c **** {
 147              		.loc 1 170 1 is_stmt 1 view -0
 148              		.cfi_startproc
 149              		@ args = 16, pretend = 0, frame = 8
 150              		@ frame_needed = 0, uses_anonymous_args = 0
 151              		.loc 1 170 1 is_stmt 0 view .LVU35
 152 0000 2DE9F04F 		push	{r4, r5, r6, r7, r8, r9, r10, fp, lr}
 153              		.cfi_def_cfa_offset 36
 154              		.cfi_offset 4, -36
 155              		.cfi_offset 5, -32
 156              		.cfi_offset 6, -28
 157              		.cfi_offset 7, -24
 158              		.cfi_offset 8, -20
 159              		.cfi_offset 9, -16
 160              		.cfi_offset 10, -12
 161              		.cfi_offset 11, -8
 162              		.cfi_offset 14, -4
 163 0004 83B0     		sub	sp, sp, #12
 164              		.cfi_def_cfa_offset 48
 165 0006 0546     		mov	r5, r0
 166 0008 0E46     		mov	r6, r1
 167 000a 9346     		mov	fp, r2
 168 000c 1F46     		mov	r7, r3
 169 000e DDF830A0 		ldr	r10, [sp, #48]
 170 0012 0D9C     		ldr	r4, [sp, #52]
ARM GAS  /var/folders/lp/x54gwt890xv47sdkqj1k04q40000gn/T//ccmljrTB.s 			page 7


 171 0014 DDF83890 		ldr	r9, [sp, #56]
 171:Drivers/lvgl/src/misc/lv_printf.c ****     const size_t start_idx = idx;
 172              		.loc 1 171 5 is_stmt 1 view .LVU36
 173              	.LVL11:
 172:Drivers/lvgl/src/misc/lv_printf.c **** 
 173:Drivers/lvgl/src/misc/lv_printf.c ****     // pad spaces up to given width
 174:Drivers/lvgl/src/misc/lv_printf.c ****     if(!(flags & FLAGS_LEFT) && !(flags & FLAGS_ZEROPAD)) {
 174              		.loc 1 174 5 view .LVU37
 175              		.loc 1 174 7 is_stmt 0 view .LVU38
 176 0018 0F9B     		ldr	r3, [sp, #60]
 177              	.LVL12:
 178              		.loc 1 174 7 view .LVU39
 179 001a 13F0030F 		tst	r3, #3
 180 001e 19D1     		bne	.L9
 181              	.LBB22:
 175:Drivers/lvgl/src/misc/lv_printf.c ****         size_t i;
 176:Drivers/lvgl/src/misc/lv_printf.c ****         for(i = len; i < width; i++) {
 182              		.loc 1 176 15 view .LVU40
 183 0020 A046     		mov	r8, r4
 184              	.LBE22:
 185 0022 0192     		str	r2, [sp, #4]
 186              	.LVL13:
 187              	.L8:
 188              	.LBB23:
 189              		.loc 1 176 24 is_stmt 1 discriminator 1 view .LVU41
 190 0024 C845     		cmp	r8, r9
 191 0026 09D2     		bcs	.L19
 177:Drivers/lvgl/src/misc/lv_printf.c ****             out(' ', buffer, idx++, maxlen);
 192              		.loc 1 177 13 view .LVU42
 193 0028 02F1010B 		add	fp, r2, #1
 194              	.LVL14:
 195              		.loc 1 177 13 is_stmt 0 view .LVU43
 196 002c 3B46     		mov	r3, r7
 197 002e 3146     		mov	r1, r6
 198 0030 2020     		movs	r0, #32
 199 0032 A847     		blx	r5
 200              	.LVL15:
 176:Drivers/lvgl/src/misc/lv_printf.c ****             out(' ', buffer, idx++, maxlen);
 201              		.loc 1 176 34 is_stmt 1 discriminator 3 view .LVU44
 202 0034 08F10108 		add	r8, r8, #1
 203              	.LVL16:
 204              		.loc 1 177 13 is_stmt 0 view .LVU45
 205 0038 5A46     		mov	r2, fp
 206 003a F3E7     		b	.L8
 207              	.LVL17:
 208              	.L19:
 209              		.loc 1 177 13 view .LVU46
 210 003c DDF804B0 		ldr	fp, [sp, #4]
 211 0040 08E0     		b	.L9
 212              	.LVL18:
 213              	.L12:
 214              		.loc 1 177 13 view .LVU47
 215              	.LBE23:
 178:Drivers/lvgl/src/misc/lv_printf.c ****         }
 179:Drivers/lvgl/src/misc/lv_printf.c ****     }
 180:Drivers/lvgl/src/misc/lv_printf.c **** 
 181:Drivers/lvgl/src/misc/lv_printf.c ****     // reverse string
ARM GAS  /var/folders/lp/x54gwt890xv47sdkqj1k04q40000gn/T//ccmljrTB.s 			page 8


 182:Drivers/lvgl/src/misc/lv_printf.c ****     while(len) {
 183:Drivers/lvgl/src/misc/lv_printf.c ****         out(buf[--len], buffer, idx++, maxlen);
 216              		.loc 1 183 9 is_stmt 1 view .LVU48
 217 0042 013C     		subs	r4, r4, #1
 218              	.LVL19:
 219              		.loc 1 183 9 is_stmt 0 view .LVU49
 220 0044 02F10108 		add	r8, r2, #1
 221              	.LVL20:
 222              		.loc 1 183 9 view .LVU50
 223 0048 3B46     		mov	r3, r7
 224 004a 3146     		mov	r1, r6
 225 004c 1AF80400 		ldrb	r0, [r10, r4]	@ zero_extendqisi2
 226 0050 A847     		blx	r5
 227              	.LVL21:
 228 0052 4246     		mov	r2, r8
 229              	.LVL22:
 230              	.L9:
 182:Drivers/lvgl/src/misc/lv_printf.c ****         out(buf[--len], buffer, idx++, maxlen);
 231              		.loc 1 182 11 is_stmt 1 view .LVU51
 232 0054 002C     		cmp	r4, #0
 233 0056 F4D1     		bne	.L12
 184:Drivers/lvgl/src/misc/lv_printf.c ****     }
 185:Drivers/lvgl/src/misc/lv_printf.c **** 
 186:Drivers/lvgl/src/misc/lv_printf.c ****     // append pad spaces up to given width
 187:Drivers/lvgl/src/misc/lv_printf.c ****     if(flags & FLAGS_LEFT) {
 234              		.loc 1 187 5 view .LVU52
 235              		.loc 1 187 7 is_stmt 0 view .LVU53
 236 0058 0F9B     		ldr	r3, [sp, #60]
 237 005a 13F0020F 		tst	r3, #2
 238 005e 03D1     		bne	.L13
 239              	.LVL23:
 240              	.L7:
 188:Drivers/lvgl/src/misc/lv_printf.c ****         while(idx - start_idx < width) {
 189:Drivers/lvgl/src/misc/lv_printf.c ****             out(' ', buffer, idx++, maxlen);
 190:Drivers/lvgl/src/misc/lv_printf.c ****         }
 191:Drivers/lvgl/src/misc/lv_printf.c ****     }
 192:Drivers/lvgl/src/misc/lv_printf.c **** 
 193:Drivers/lvgl/src/misc/lv_printf.c ****     return idx;
 194:Drivers/lvgl/src/misc/lv_printf.c **** }
 241              		.loc 1 194 1 view .LVU54
 242 0060 1046     		mov	r0, r2
 243 0062 03B0     		add	sp, sp, #12
 244              		.cfi_remember_state
 245              		.cfi_def_cfa_offset 36
 246              		@ sp needed
 247 0064 BDE8F08F 		pop	{r4, r5, r6, r7, r8, r9, r10, fp, pc}
 248              	.LVL24:
 249              	.L13:
 250              		.cfi_restore_state
 188:Drivers/lvgl/src/misc/lv_printf.c ****         while(idx - start_idx < width) {
 251              		.loc 1 188 31 is_stmt 1 view .LVU55
 188:Drivers/lvgl/src/misc/lv_printf.c ****         while(idx - start_idx < width) {
 252              		.loc 1 188 19 is_stmt 0 view .LVU56
 253 0068 A2EB0B03 		sub	r3, r2, fp
 188:Drivers/lvgl/src/misc/lv_printf.c ****         while(idx - start_idx < width) {
 254              		.loc 1 188 31 view .LVU57
 255 006c 4B45     		cmp	r3, r9
ARM GAS  /var/folders/lp/x54gwt890xv47sdkqj1k04q40000gn/T//ccmljrTB.s 			page 9


 256 006e F7D2     		bcs	.L7
 189:Drivers/lvgl/src/misc/lv_printf.c ****         }
 257              		.loc 1 189 13 is_stmt 1 view .LVU58
 258 0070 541C     		adds	r4, r2, #1
 259              	.LVL25:
 189:Drivers/lvgl/src/misc/lv_printf.c ****         }
 260              		.loc 1 189 13 is_stmt 0 view .LVU59
 261 0072 3B46     		mov	r3, r7
 262 0074 3146     		mov	r1, r6
 263 0076 2020     		movs	r0, #32
 264 0078 A847     		blx	r5
 265              	.LVL26:
 266 007a 2246     		mov	r2, r4
 267 007c F4E7     		b	.L13
 268              		.cfi_endproc
 269              	.LFE5:
 271              		.section	.text._ntoa_format,"ax",%progbits
 272              		.align	1
 273              		.syntax unified
 274              		.thumb
 275              		.thumb_func
 277              	_ntoa_format:
 278              	.LVL27:
 279              	.LFB6:
 195:Drivers/lvgl/src/misc/lv_printf.c **** 
 196:Drivers/lvgl/src/misc/lv_printf.c **** // internal itoa format
 197:Drivers/lvgl/src/misc/lv_printf.c **** static size_t _ntoa_format(out_fct_type out, char * buffer, size_t idx, size_t maxlen, char * buf, 
 198:Drivers/lvgl/src/misc/lv_printf.c ****                            bool negative, unsigned int base, unsigned int prec, unsigned int width,
 199:Drivers/lvgl/src/misc/lv_printf.c **** {
 280              		.loc 1 199 1 is_stmt 1 view -0
 281              		.cfi_startproc
 282              		@ args = 28, pretend = 0, frame = 0
 283              		@ frame_needed = 0, uses_anonymous_args = 0
 284              		.loc 1 199 1 is_stmt 0 view .LVU61
 285 0000 2DE9F043 		push	{r4, r5, r6, r7, r8, r9, lr}
 286              		.cfi_def_cfa_offset 28
 287              		.cfi_offset 4, -28
 288              		.cfi_offset 5, -24
 289              		.cfi_offset 6, -20
 290              		.cfi_offset 7, -16
 291              		.cfi_offset 8, -12
 292              		.cfi_offset 9, -8
 293              		.cfi_offset 14, -4
 294 0004 85B0     		sub	sp, sp, #20
 295              		.cfi_def_cfa_offset 48
 296 0006 9946     		mov	r9, r3
 297 0008 0C9D     		ldr	r5, [sp, #48]
 298 000a 0D9C     		ldr	r4, [sp, #52]
 299 000c 9DF83880 		ldrb	r8, [sp, #56]	@ zero_extendqisi2
 300 0010 DDF840E0 		ldr	lr, [sp, #64]
 301 0014 119F     		ldr	r7, [sp, #68]
 302 0016 129E     		ldr	r6, [sp, #72]
 200:Drivers/lvgl/src/misc/lv_printf.c ****     // pad leading zeros
 201:Drivers/lvgl/src/misc/lv_printf.c ****     if(!(flags & FLAGS_LEFT)) {
 303              		.loc 1 201 5 is_stmt 1 view .LVU62
 304              		.loc 1 201 7 is_stmt 0 view .LVU63
 305 0018 16F0020F 		tst	r6, #2
ARM GAS  /var/folders/lp/x54gwt890xv47sdkqj1k04q40000gn/T//ccmljrTB.s 			page 10


 306 001c 21D1     		bne	.L21
 202:Drivers/lvgl/src/misc/lv_printf.c ****         if(width && (flags & FLAGS_ZEROPAD) && (negative || (flags & (FLAGS_PLUS | FLAGS_SPACE)))) 
 307              		.loc 1 202 9 is_stmt 1 view .LVU64
 308              		.loc 1 202 11 is_stmt 0 view .LVU65
 309 001e 7FB1     		cbz	r7, .L24
 310              		.loc 1 202 18 discriminator 1 view .LVU66
 311 0020 16F0010F 		tst	r6, #1
 312 0024 0CD0     		beq	.L24
 313              		.loc 1 202 45 discriminator 2 view .LVU67
 314 0026 B8F1000F 		cmp	r8, #0
 315 002a 02D1     		bne	.L23
 316              		.loc 1 202 58 discriminator 3 view .LVU68
 317 002c 16F00C0F 		tst	r6, #12
 318 0030 06D0     		beq	.L24
 319              	.L23:
 203:Drivers/lvgl/src/misc/lv_printf.c ****             width--;
 320              		.loc 1 203 13 is_stmt 1 view .LVU69
 321              		.loc 1 203 18 is_stmt 0 view .LVU70
 322 0032 013F     		subs	r7, r7, #1
 323              	.LVL28:
 324              		.loc 1 203 18 view .LVU71
 325 0034 04E0     		b	.L24
 326              	.LVL29:
 327              	.L26:
 204:Drivers/lvgl/src/misc/lv_printf.c ****         }
 205:Drivers/lvgl/src/misc/lv_printf.c ****         while((len < prec) && (len < PRINTF_NTOA_BUFFER_SIZE)) {
 206:Drivers/lvgl/src/misc/lv_printf.c ****             buf[len++] = '0';
 328              		.loc 1 206 13 is_stmt 1 view .LVU72
 329              		.loc 1 206 24 is_stmt 0 view .LVU73
 330 0036 4FF0300C 		mov	ip, #48
 331 003a 05F804C0 		strb	ip, [r5, r4]
 332              		.loc 1 206 20 view .LVU74
 333 003e 0134     		adds	r4, r4, #1
 334              	.LVL30:
 335              	.L24:
 205:Drivers/lvgl/src/misc/lv_printf.c ****             buf[len++] = '0';
 336              		.loc 1 205 28 is_stmt 1 view .LVU75
 337 0040 7445     		cmp	r4, lr
 338 0042 01D2     		bcs	.L27
 205:Drivers/lvgl/src/misc/lv_printf.c ****             buf[len++] = '0';
 339              		.loc 1 205 28 is_stmt 0 discriminator 1 view .LVU76
 340 0044 1F2C     		cmp	r4, #31
 341 0046 F6D9     		bls	.L26
 342              	.L27:
 207:Drivers/lvgl/src/misc/lv_printf.c ****         }
 208:Drivers/lvgl/src/misc/lv_printf.c ****         while((flags & FLAGS_ZEROPAD) && (len < width) && (len < PRINTF_NTOA_BUFFER_SIZE)) {
 343              		.loc 1 208 56 is_stmt 1 view .LVU77
 344 0048 16F0010F 		tst	r6, #1
 345 004c 09D0     		beq	.L21
 346              		.loc 1 208 39 is_stmt 0 discriminator 1 view .LVU78
 347 004e BC42     		cmp	r4, r7
 348 0050 07D2     		bcs	.L21
 349              		.loc 1 208 56 discriminator 2 view .LVU79
 350 0052 1F2C     		cmp	r4, #31
 351 0054 05D8     		bhi	.L21
 209:Drivers/lvgl/src/misc/lv_printf.c ****             buf[len++] = '0';
 352              		.loc 1 209 13 is_stmt 1 view .LVU80
ARM GAS  /var/folders/lp/x54gwt890xv47sdkqj1k04q40000gn/T//ccmljrTB.s 			page 11


 353              	.LVL31:
 354              		.loc 1 209 24 is_stmt 0 view .LVU81
 355 0056 4FF0300C 		mov	ip, #48
 356 005a 05F804C0 		strb	ip, [r5, r4]
 357              		.loc 1 209 20 view .LVU82
 358 005e 0134     		adds	r4, r4, #1
 359              	.LVL32:
 360              		.loc 1 209 20 view .LVU83
 361 0060 F2E7     		b	.L27
 362              	.LVL33:
 363              	.L21:
 210:Drivers/lvgl/src/misc/lv_printf.c ****         }
 211:Drivers/lvgl/src/misc/lv_printf.c ****     }
 212:Drivers/lvgl/src/misc/lv_printf.c **** 
 213:Drivers/lvgl/src/misc/lv_printf.c ****     // handle hash
 214:Drivers/lvgl/src/misc/lv_printf.c ****     if(flags & FLAGS_HASH) {
 364              		.loc 1 214 5 is_stmt 1 view .LVU84
 365              		.loc 1 214 7 is_stmt 0 view .LVU85
 366 0062 16F0100F 		tst	r6, #16
 367 0066 14D0     		beq	.L29
 215:Drivers/lvgl/src/misc/lv_printf.c ****         if(!(flags & FLAGS_PRECISION) && len && ((len == prec) || (len == width))) {
 368              		.loc 1 215 9 is_stmt 1 view .LVU86
 369              		.loc 1 215 11 is_stmt 0 view .LVU87
 370 0068 16F4806F 		tst	r6, #1024
 371 006c 04D1     		bne	.L30
 372              		.loc 1 215 39 discriminator 1 view .LVU88
 373 006e 1CB1     		cbz	r4, .L30
 374              		.loc 1 215 46 discriminator 2 view .LVU89
 375 0070 7445     		cmp	r4, lr
 376 0072 22D0     		beq	.L31
 377              		.loc 1 215 64 discriminator 3 view .LVU90
 378 0074 BC42     		cmp	r4, r7
 379 0076 20D0     		beq	.L31
 380              	.LVL34:
 381              	.L30:
 216:Drivers/lvgl/src/misc/lv_printf.c ****             len--;
 217:Drivers/lvgl/src/misc/lv_printf.c ****             if(len && (base == 16U)) {
 218:Drivers/lvgl/src/misc/lv_printf.c ****                 len--;
 219:Drivers/lvgl/src/misc/lv_printf.c ****             }
 220:Drivers/lvgl/src/misc/lv_printf.c ****         }
 221:Drivers/lvgl/src/misc/lv_printf.c ****         if((base == 16U) && !(flags & FLAGS_UPPERCASE) && (len < PRINTF_NTOA_BUFFER_SIZE)) {
 382              		.loc 1 221 9 is_stmt 1 view .LVU91
 383              		.loc 1 221 11 is_stmt 0 view .LVU92
 384 0078 0F9B     		ldr	r3, [sp, #60]
 385 007a 102B     		cmp	r3, #16
 386 007c 36D0     		beq	.L41
 387              	.LVL35:
 388              	.L33:
 222:Drivers/lvgl/src/misc/lv_printf.c ****             buf[len++] = 'x';
 223:Drivers/lvgl/src/misc/lv_printf.c ****         }
 224:Drivers/lvgl/src/misc/lv_printf.c ****         else if((base == 16U) && (flags & FLAGS_UPPERCASE) && (len < PRINTF_NTOA_BUFFER_SIZE)) {
 225:Drivers/lvgl/src/misc/lv_printf.c ****             buf[len++] = 'X';
 226:Drivers/lvgl/src/misc/lv_printf.c ****         }
 227:Drivers/lvgl/src/misc/lv_printf.c ****         else if((base == 2U) && (len < PRINTF_NTOA_BUFFER_SIZE)) {
 389              		.loc 1 227 14 is_stmt 1 view .LVU93
 390              		.loc 1 227 16 is_stmt 0 view .LVU94
 391 007e 0F9B     		ldr	r3, [sp, #60]
ARM GAS  /var/folders/lp/x54gwt890xv47sdkqj1k04q40000gn/T//ccmljrTB.s 			page 12


 392 0080 022B     		cmp	r3, #2
 393 0082 3ED0     		beq	.L42
 394              	.L34:
 395              	.LVL36:
 228:Drivers/lvgl/src/misc/lv_printf.c ****             buf[len++] = 'b';
 229:Drivers/lvgl/src/misc/lv_printf.c ****         }
 230:Drivers/lvgl/src/misc/lv_printf.c ****         if(len < PRINTF_NTOA_BUFFER_SIZE) {
 396              		.loc 1 230 9 is_stmt 1 view .LVU95
 397              		.loc 1 230 11 is_stmt 0 view .LVU96
 398 0084 1F2C     		cmp	r4, #31
 399 0086 0ED8     		bhi	.L35
 231:Drivers/lvgl/src/misc/lv_printf.c ****             buf[len++] = '0';
 400              		.loc 1 231 13 is_stmt 1 view .LVU97
 401              	.LVL37:
 402              		.loc 1 231 24 is_stmt 0 view .LVU98
 403 0088 4FF0300C 		mov	ip, #48
 404 008c 05F804C0 		strb	ip, [r5, r4]
 405              		.loc 1 231 20 view .LVU99
 406 0090 0134     		adds	r4, r4, #1
 407              	.LVL38:
 408              	.L29:
 232:Drivers/lvgl/src/misc/lv_printf.c ****         }
 233:Drivers/lvgl/src/misc/lv_printf.c ****     }
 234:Drivers/lvgl/src/misc/lv_printf.c **** 
 235:Drivers/lvgl/src/misc/lv_printf.c ****     if(len < PRINTF_NTOA_BUFFER_SIZE) {
 409              		.loc 1 235 5 is_stmt 1 view .LVU100
 410              		.loc 1 235 7 is_stmt 0 view .LVU101
 411 0092 1F2C     		cmp	r4, #31
 412 0094 07D8     		bhi	.L35
 236:Drivers/lvgl/src/misc/lv_printf.c ****         if(negative) {
 413              		.loc 1 236 9 is_stmt 1 view .LVU102
 414              		.loc 1 236 11 is_stmt 0 view .LVU103
 415 0096 B8F1000F 		cmp	r8, #0
 416 009a 3AD0     		beq	.L36
 237:Drivers/lvgl/src/misc/lv_printf.c ****             buf[len++] = '-';
 417              		.loc 1 237 13 is_stmt 1 view .LVU104
 418              	.LVL39:
 419              		.loc 1 237 24 is_stmt 0 view .LVU105
 420 009c 4FF02D0C 		mov	ip, #45
 421 00a0 05F804C0 		strb	ip, [r5, r4]
 422              		.loc 1 237 20 view .LVU106
 423 00a4 0134     		adds	r4, r4, #1
 424              	.LVL40:
 425              	.L35:
 238:Drivers/lvgl/src/misc/lv_printf.c ****         }
 239:Drivers/lvgl/src/misc/lv_printf.c ****         else if(flags & FLAGS_PLUS) {
 240:Drivers/lvgl/src/misc/lv_printf.c ****             buf[len++] = '+';  // ignore the space if the '+' exists
 241:Drivers/lvgl/src/misc/lv_printf.c ****         }
 242:Drivers/lvgl/src/misc/lv_printf.c ****         else if(flags & FLAGS_SPACE) {
 243:Drivers/lvgl/src/misc/lv_printf.c ****             buf[len++] = ' ';
 244:Drivers/lvgl/src/misc/lv_printf.c ****         }
 245:Drivers/lvgl/src/misc/lv_printf.c ****     }
 246:Drivers/lvgl/src/misc/lv_printf.c **** 
 247:Drivers/lvgl/src/misc/lv_printf.c ****     return _out_rev(out, buffer, idx, maxlen, buf, len, width, flags);
 426              		.loc 1 247 5 is_stmt 1 view .LVU107
 427              		.loc 1 247 12 is_stmt 0 view .LVU108
 428 00a6 0396     		str	r6, [sp, #12]
ARM GAS  /var/folders/lp/x54gwt890xv47sdkqj1k04q40000gn/T//ccmljrTB.s 			page 13


 429 00a8 0297     		str	r7, [sp, #8]
 430 00aa 0194     		str	r4, [sp, #4]
 431 00ac 0095     		str	r5, [sp]
 432 00ae 4B46     		mov	r3, r9
 433 00b0 FFF7FEFF 		bl	_out_rev
 434              	.LVL41:
 248:Drivers/lvgl/src/misc/lv_printf.c **** }
 435              		.loc 1 248 1 view .LVU109
 436 00b4 05B0     		add	sp, sp, #20
 437              		.cfi_remember_state
 438              		.cfi_def_cfa_offset 28
 439              		@ sp needed
 440 00b6 BDE8F083 		pop	{r4, r5, r6, r7, r8, r9, pc}
 441              	.LVL42:
 442              	.L31:
 443              		.cfi_restore_state
 216:Drivers/lvgl/src/misc/lv_printf.c ****             if(len && (base == 16U)) {
 444              		.loc 1 216 13 is_stmt 1 view .LVU110
 217:Drivers/lvgl/src/misc/lv_printf.c ****                 len--;
 445              		.loc 1 217 13 view .LVU111
 217:Drivers/lvgl/src/misc/lv_printf.c ****                 len--;
 446              		.loc 1 217 15 is_stmt 0 view .LVU112
 447 00ba B4F1010C 		subs	ip, r4, #1
 448              	.LVL43:
 217:Drivers/lvgl/src/misc/lv_printf.c ****                 len--;
 449              		.loc 1 217 15 view .LVU113
 450 00be 13D0     		beq	.L38
 217:Drivers/lvgl/src/misc/lv_printf.c ****                 len--;
 451              		.loc 1 217 20 discriminator 1 view .LVU114
 452 00c0 0F9B     		ldr	r3, [sp, #60]
 453              	.LVL44:
 217:Drivers/lvgl/src/misc/lv_printf.c ****                 len--;
 454              		.loc 1 217 20 discriminator 1 view .LVU115
 455 00c2 102B     		cmp	r3, #16
 456 00c4 0ED0     		beq	.L43
 216:Drivers/lvgl/src/misc/lv_printf.c ****             if(len && (base == 16U)) {
 457              		.loc 1 216 16 view .LVU116
 458 00c6 6446     		mov	r4, ip
 459              	.LVL45:
 460              	.L32:
 224:Drivers/lvgl/src/misc/lv_printf.c ****             buf[len++] = 'X';
 461              		.loc 1 224 14 is_stmt 1 view .LVU117
 224:Drivers/lvgl/src/misc/lv_printf.c ****             buf[len++] = 'X';
 462              		.loc 1 224 16 is_stmt 0 view .LVU118
 463 00c8 0F9B     		ldr	r3, [sp, #60]
 464 00ca 102B     		cmp	r3, #16
 465 00cc D7D1     		bne	.L33
 224:Drivers/lvgl/src/misc/lv_printf.c ****             buf[len++] = 'X';
 466              		.loc 1 224 31 discriminator 1 view .LVU119
 467 00ce 16F0200F 		tst	r6, #32
 468 00d2 D4D0     		beq	.L33
 224:Drivers/lvgl/src/misc/lv_printf.c ****             buf[len++] = 'X';
 469              		.loc 1 224 60 discriminator 2 view .LVU120
 470 00d4 1F2C     		cmp	r4, #31
 471 00d6 D2D8     		bhi	.L33
 225:Drivers/lvgl/src/misc/lv_printf.c ****         }
 472              		.loc 1 225 13 is_stmt 1 view .LVU121
ARM GAS  /var/folders/lp/x54gwt890xv47sdkqj1k04q40000gn/T//ccmljrTB.s 			page 14


 473              	.LVL46:
 225:Drivers/lvgl/src/misc/lv_printf.c ****         }
 474              		.loc 1 225 24 is_stmt 0 view .LVU122
 475 00d8 4FF0580C 		mov	ip, #88
 476 00dc 05F804C0 		strb	ip, [r5, r4]
 225:Drivers/lvgl/src/misc/lv_printf.c ****         }
 477              		.loc 1 225 20 view .LVU123
 478 00e0 0134     		adds	r4, r4, #1
 479              	.LVL47:
 225:Drivers/lvgl/src/misc/lv_printf.c ****         }
 480              		.loc 1 225 24 view .LVU124
 481 00e2 CFE7     		b	.L34
 482              	.LVL48:
 483              	.L43:
 218:Drivers/lvgl/src/misc/lv_printf.c ****             }
 484              		.loc 1 218 17 is_stmt 1 view .LVU125
 218:Drivers/lvgl/src/misc/lv_printf.c ****             }
 485              		.loc 1 218 20 is_stmt 0 view .LVU126
 486 00e4 023C     		subs	r4, r4, #2
 487              	.LVL49:
 218:Drivers/lvgl/src/misc/lv_printf.c ****             }
 488              		.loc 1 218 20 view .LVU127
 489 00e6 C7E7     		b	.L30
 490              	.LVL50:
 491              	.L38:
 216:Drivers/lvgl/src/misc/lv_printf.c ****             if(len && (base == 16U)) {
 492              		.loc 1 216 16 view .LVU128
 493 00e8 6446     		mov	r4, ip
 494 00ea C5E7     		b	.L30
 495              	.LVL51:
 496              	.L41:
 221:Drivers/lvgl/src/misc/lv_printf.c ****             buf[len++] = 'x';
 497              		.loc 1 221 26 discriminator 1 view .LVU129
 498 00ec 16F0200F 		tst	r6, #32
 499 00f0 EAD1     		bne	.L32
 221:Drivers/lvgl/src/misc/lv_printf.c ****             buf[len++] = 'x';
 500              		.loc 1 221 56 discriminator 2 view .LVU130
 501 00f2 1F2C     		cmp	r4, #31
 502 00f4 E8D8     		bhi	.L32
 222:Drivers/lvgl/src/misc/lv_printf.c ****         }
 503              		.loc 1 222 13 is_stmt 1 view .LVU131
 504              	.LVL52:
 222:Drivers/lvgl/src/misc/lv_printf.c ****         }
 505              		.loc 1 222 24 is_stmt 0 view .LVU132
 506 00f6 4FF0780C 		mov	ip, #120
 507 00fa 05F804C0 		strb	ip, [r5, r4]
 222:Drivers/lvgl/src/misc/lv_printf.c ****         }
 508              		.loc 1 222 20 view .LVU133
 509 00fe 0134     		adds	r4, r4, #1
 510              	.LVL53:
 222:Drivers/lvgl/src/misc/lv_printf.c ****         }
 511              		.loc 1 222 24 view .LVU134
 512 0100 C0E7     		b	.L34
 513              	.LVL54:
 514              	.L42:
 227:Drivers/lvgl/src/misc/lv_printf.c ****             buf[len++] = 'b';
 515              		.loc 1 227 30 discriminator 1 view .LVU135
ARM GAS  /var/folders/lp/x54gwt890xv47sdkqj1k04q40000gn/T//ccmljrTB.s 			page 15


 516 0102 1F2C     		cmp	r4, #31
 517 0104 CFD8     		bhi	.L35
 228:Drivers/lvgl/src/misc/lv_printf.c ****         }
 518              		.loc 1 228 13 is_stmt 1 view .LVU136
 519              	.LVL55:
 228:Drivers/lvgl/src/misc/lv_printf.c ****         }
 520              		.loc 1 228 24 is_stmt 0 view .LVU137
 521 0106 4FF0620C 		mov	ip, #98
 522 010a 05F804C0 		strb	ip, [r5, r4]
 228:Drivers/lvgl/src/misc/lv_printf.c ****         }
 523              		.loc 1 228 20 view .LVU138
 524 010e 0134     		adds	r4, r4, #1
 525              	.LVL56:
 228:Drivers/lvgl/src/misc/lv_printf.c ****         }
 526              		.loc 1 228 20 view .LVU139
 527 0110 B8E7     		b	.L34
 528              	.L36:
 239:Drivers/lvgl/src/misc/lv_printf.c ****             buf[len++] = '+';  // ignore the space if the '+' exists
 529              		.loc 1 239 14 is_stmt 1 view .LVU140
 239:Drivers/lvgl/src/misc/lv_printf.c ****             buf[len++] = '+';  // ignore the space if the '+' exists
 530              		.loc 1 239 16 is_stmt 0 view .LVU141
 531 0112 16F0040F 		tst	r6, #4
 532 0116 05D0     		beq	.L37
 240:Drivers/lvgl/src/misc/lv_printf.c ****         }
 533              		.loc 1 240 13 is_stmt 1 view .LVU142
 534              	.LVL57:
 240:Drivers/lvgl/src/misc/lv_printf.c ****         }
 535              		.loc 1 240 24 is_stmt 0 view .LVU143
 536 0118 4FF02B0C 		mov	ip, #43
 537 011c 05F804C0 		strb	ip, [r5, r4]
 240:Drivers/lvgl/src/misc/lv_printf.c ****         }
 538              		.loc 1 240 20 view .LVU144
 539 0120 0134     		adds	r4, r4, #1
 540              	.LVL58:
 240:Drivers/lvgl/src/misc/lv_printf.c ****         }
 541              		.loc 1 240 20 view .LVU145
 542 0122 C0E7     		b	.L35
 543              	.L37:
 242:Drivers/lvgl/src/misc/lv_printf.c ****             buf[len++] = ' ';
 544              		.loc 1 242 14 is_stmt 1 view .LVU146
 242:Drivers/lvgl/src/misc/lv_printf.c ****             buf[len++] = ' ';
 545              		.loc 1 242 16 is_stmt 0 view .LVU147
 546 0124 16F0080F 		tst	r6, #8
 547 0128 BDD0     		beq	.L35
 243:Drivers/lvgl/src/misc/lv_printf.c ****         }
 548              		.loc 1 243 13 is_stmt 1 view .LVU148
 549              	.LVL59:
 243:Drivers/lvgl/src/misc/lv_printf.c ****         }
 550              		.loc 1 243 24 is_stmt 0 view .LVU149
 551 012a 4FF0200C 		mov	ip, #32
 552 012e 05F804C0 		strb	ip, [r5, r4]
 243:Drivers/lvgl/src/misc/lv_printf.c ****         }
 553              		.loc 1 243 20 view .LVU150
 554 0132 0134     		adds	r4, r4, #1
 555              	.LVL60:
 243:Drivers/lvgl/src/misc/lv_printf.c ****         }
 556              		.loc 1 243 20 view .LVU151
ARM GAS  /var/folders/lp/x54gwt890xv47sdkqj1k04q40000gn/T//ccmljrTB.s 			page 16


 557 0134 B7E7     		b	.L35
 558              		.cfi_endproc
 559              	.LFE6:
 561              		.section	.text._ntoa_long,"ax",%progbits
 562              		.align	1
 563              		.syntax unified
 564              		.thumb
 565              		.thumb_func
 567              	_ntoa_long:
 568              	.LVL61:
 569              	.LFB7:
 249:Drivers/lvgl/src/misc/lv_printf.c **** 
 250:Drivers/lvgl/src/misc/lv_printf.c **** // internal itoa for 'long' type
 251:Drivers/lvgl/src/misc/lv_printf.c **** static size_t _ntoa_long(out_fct_type out, char * buffer, size_t idx, size_t maxlen, unsigned long 
 252:Drivers/lvgl/src/misc/lv_printf.c ****                          unsigned long base, unsigned int prec, unsigned int width, unsigned int fl
 253:Drivers/lvgl/src/misc/lv_printf.c **** {
 570              		.loc 1 253 1 is_stmt 1 view -0
 571              		.cfi_startproc
 572              		@ args = 24, pretend = 0, frame = 32
 573              		@ frame_needed = 0, uses_anonymous_args = 0
 574              		.loc 1 253 1 is_stmt 0 view .LVU153
 575 0000 F0B5     		push	{r4, r5, r6, r7, lr}
 576              		.cfi_def_cfa_offset 20
 577              		.cfi_offset 4, -20
 578              		.cfi_offset 5, -16
 579              		.cfi_offset 6, -12
 580              		.cfi_offset 7, -8
 581              		.cfi_offset 14, -4
 582 0002 91B0     		sub	sp, sp, #68
 583              		.cfi_def_cfa_offset 88
 584 0004 169C     		ldr	r4, [sp, #88]
 585 0006 189D     		ldr	r5, [sp, #96]
 586 0008 1B9E     		ldr	r6, [sp, #108]
 254:Drivers/lvgl/src/misc/lv_printf.c ****     char buf[PRINTF_NTOA_BUFFER_SIZE];
 587              		.loc 1 254 5 is_stmt 1 view .LVU154
 255:Drivers/lvgl/src/misc/lv_printf.c ****     size_t len = 0U;
 588              		.loc 1 255 5 view .LVU155
 589              	.LVL62:
 256:Drivers/lvgl/src/misc/lv_printf.c **** 
 257:Drivers/lvgl/src/misc/lv_printf.c ****     // no hash for 0 values
 258:Drivers/lvgl/src/misc/lv_printf.c ****     if(!value) {
 590              		.loc 1 258 5 view .LVU156
 591              		.loc 1 258 7 is_stmt 0 view .LVU157
 592 000a 0CB9     		cbnz	r4, .L45
 259:Drivers/lvgl/src/misc/lv_printf.c ****         flags &= ~FLAGS_HASH;
 593              		.loc 1 259 9 is_stmt 1 view .LVU158
 594              		.loc 1 259 15 is_stmt 0 view .LVU159
 595 000c 26F01006 		bic	r6, r6, #16
 596              	.LVL63:
 597              	.L45:
 260:Drivers/lvgl/src/misc/lv_printf.c ****     }
 261:Drivers/lvgl/src/misc/lv_printf.c **** 
 262:Drivers/lvgl/src/misc/lv_printf.c ****     // write if precision != 0 and value is != 0
 263:Drivers/lvgl/src/misc/lv_printf.c ****     if(!(flags & FLAGS_PRECISION) || value) {
 598              		.loc 1 263 5 is_stmt 1 view .LVU160
 599              		.loc 1 263 7 is_stmt 0 view .LVU161
 600 0010 16F4806E 		ands	lr, r6, #1024
ARM GAS  /var/folders/lp/x54gwt890xv47sdkqj1k04q40000gn/T//ccmljrTB.s 			page 17


 601 0014 16D0     		beq	.L51
 602              		.loc 1 263 35 discriminator 1 view .LVU162
 603 0016 64B3     		cbz	r4, .L52
 604 0018 4FF0000E 		mov	lr, #0
 605 001c 12E0     		b	.L51
 606              	.LVL64:
 607              	.L56:
 608              	.LBB24:
 264:Drivers/lvgl/src/misc/lv_printf.c ****         do {
 265:Drivers/lvgl/src/misc/lv_printf.c ****             const char digit = (char)(value % base);
 266:Drivers/lvgl/src/misc/lv_printf.c ****             buf[len++] = digit < 10 ? '0' + digit : (flags & FLAGS_UPPERCASE ? 'A' : 'a') + digit -
 609              		.loc 1 266 24 discriminator 1 view .LVU163
 610 001e 0CF1300C 		add	ip, ip, #48
 611              	.LVL65:
 612              		.loc 1 266 24 discriminator 1 view .LVU164
 613 0022 5FFA8CFC 		uxtb	ip, ip
 614              	.LVL66:
 615              	.L49:
 616              		.loc 1 266 20 discriminator 8 view .LVU165
 617 0026 0EF10107 		add	r7, lr, #1
 618              	.LVL67:
 619              		.loc 1 266 24 discriminator 8 view .LVU166
 620 002a 0EF1400E 		add	lr, lr, #64
 621 002e EE44     		add	lr, sp, lr
 622 0030 0EF820CC 		strb	ip, [lr, #-32]
 267:Drivers/lvgl/src/misc/lv_printf.c ****             value /= base;
 623              		.loc 1 267 13 is_stmt 1 view .LVU167
 624              		.loc 1 267 19 is_stmt 0 view .LVU168
 625 0034 B4FBF5FC 		udiv	ip, r4, r5
 626              	.LVL68:
 627              		.loc 1 267 19 view .LVU169
 628              	.LBE24:
 268:Drivers/lvgl/src/misc/lv_printf.c ****         } while(value && (len < PRINTF_NTOA_BUFFER_SIZE));
 629              		.loc 1 268 23 is_stmt 1 view .LVU170
 630 0038 AC42     		cmp	r4, r5
 631 003a 1BD3     		bcc	.L47
 632              		.loc 1 268 23 is_stmt 0 discriminator 1 view .LVU171
 633 003c 1F2F     		cmp	r7, #31
 634 003e 19D8     		bhi	.L47
 635              	.LBB25:
 266:Drivers/lvgl/src/misc/lv_printf.c ****             value /= base;
 636              		.loc 1 266 20 discriminator 8 view .LVU172
 637 0040 BE46     		mov	lr, r7
 267:Drivers/lvgl/src/misc/lv_printf.c ****             value /= base;
 638              		.loc 1 267 19 view .LVU173
 639 0042 6446     		mov	r4, ip
 640              	.LVL69:
 641              	.L51:
 267:Drivers/lvgl/src/misc/lv_printf.c ****             value /= base;
 642              		.loc 1 267 19 view .LVU174
 643              	.LBE25:
 264:Drivers/lvgl/src/misc/lv_printf.c ****             const char digit = (char)(value % base);
 644              		.loc 1 264 9 is_stmt 1 view .LVU175
 645              	.LBB26:
 265:Drivers/lvgl/src/misc/lv_printf.c ****             buf[len++] = digit < 10 ? '0' + digit : (flags & FLAGS_UPPERCASE ? 'A' : 'a') + digit -
 646              		.loc 1 265 13 view .LVU176
 265:Drivers/lvgl/src/misc/lv_printf.c ****             buf[len++] = digit < 10 ? '0' + digit : (flags & FLAGS_UPPERCASE ? 'A' : 'a') + digit -
ARM GAS  /var/folders/lp/x54gwt890xv47sdkqj1k04q40000gn/T//ccmljrTB.s 			page 18


 647              		.loc 1 265 45 is_stmt 0 view .LVU177
 648 0044 B4FBF5FC 		udiv	ip, r4, r5
 649 0048 05FB1C4C 		mls	ip, r5, ip, r4
 265:Drivers/lvgl/src/misc/lv_printf.c ****             buf[len++] = digit < 10 ? '0' + digit : (flags & FLAGS_UPPERCASE ? 'A' : 'a') + digit -
 650              		.loc 1 265 24 view .LVU178
 651 004c 5FFA8CFC 		uxtb	ip, ip
 652              	.LVL70:
 266:Drivers/lvgl/src/misc/lv_printf.c ****             value /= base;
 653              		.loc 1 266 13 is_stmt 1 view .LVU179
 266:Drivers/lvgl/src/misc/lv_printf.c ****             value /= base;
 654              		.loc 1 266 24 is_stmt 0 view .LVU180
 655 0050 BCF1090F 		cmp	ip, #9
 656 0054 E3D9     		bls	.L56
 266:Drivers/lvgl/src/misc/lv_printf.c ****             value /= base;
 657              		.loc 1 266 91 discriminator 2 view .LVU181
 658 0056 16F0200F 		tst	r6, #32
 659 005a 08D0     		beq	.L53
 266:Drivers/lvgl/src/misc/lv_printf.c ****             value /= base;
 660              		.loc 1 266 91 discriminator 4 view .LVU182
 661 005c 4127     		movs	r7, #65
 662              	.L50:
 266:Drivers/lvgl/src/misc/lv_printf.c ****             value /= base;
 663              		.loc 1 266 91 discriminator 7 view .LVU183
 664 005e BC44     		add	ip, ip, r7
 665              	.LVL71:
 266:Drivers/lvgl/src/misc/lv_printf.c ****             value /= base;
 666              		.loc 1 266 91 discriminator 7 view .LVU184
 667 0060 5FFA8CFC 		uxtb	ip, ip
 266:Drivers/lvgl/src/misc/lv_printf.c ****             value /= base;
 668              		.loc 1 266 24 discriminator 7 view .LVU185
 669 0064 ACF10A0C 		sub	ip, ip, #10
 670 0068 5FFA8CFC 		uxtb	ip, ip
 671 006c DBE7     		b	.L49
 672              	.LVL72:
 673              	.L53:
 266:Drivers/lvgl/src/misc/lv_printf.c ****             value /= base;
 674              		.loc 1 266 91 discriminator 5 view .LVU186
 675 006e 6127     		movs	r7, #97
 676 0070 F5E7     		b	.L50
 677              	.LVL73:
 678              	.L52:
 266:Drivers/lvgl/src/misc/lv_printf.c ****             value /= base;
 679              		.loc 1 266 91 discriminator 5 view .LVU187
 680              	.LBE26:
 255:Drivers/lvgl/src/misc/lv_printf.c **** 
 681              		.loc 1 255 12 view .LVU188
 682 0072 2746     		mov	r7, r4
 683              	.LVL74:
 684              	.L47:
 269:Drivers/lvgl/src/misc/lv_printf.c ****     }
 270:Drivers/lvgl/src/misc/lv_printf.c **** 
 271:Drivers/lvgl/src/misc/lv_printf.c ****     return _ntoa_format(out, buffer, idx, maxlen, buf, len, negative, (unsigned int)base, prec, wid
 685              		.loc 1 271 5 is_stmt 1 view .LVU189
 686              		.loc 1 271 12 is_stmt 0 view .LVU190
 687 0074 0696     		str	r6, [sp, #24]
 688 0076 1A9C     		ldr	r4, [sp, #104]
 689 0078 0594     		str	r4, [sp, #20]
ARM GAS  /var/folders/lp/x54gwt890xv47sdkqj1k04q40000gn/T//ccmljrTB.s 			page 19


 690 007a 199C     		ldr	r4, [sp, #100]
 691 007c 0494     		str	r4, [sp, #16]
 692 007e 0395     		str	r5, [sp, #12]
 693 0080 9DF85C40 		ldrb	r4, [sp, #92]	@ zero_extendqisi2
 694 0084 0294     		str	r4, [sp, #8]
 695 0086 0197     		str	r7, [sp, #4]
 696 0088 08AC     		add	r4, sp, #32
 697 008a 0094     		str	r4, [sp]
 698 008c FFF7FEFF 		bl	_ntoa_format
 699              	.LVL75:
 272:Drivers/lvgl/src/misc/lv_printf.c **** }
 700              		.loc 1 272 1 view .LVU191
 701 0090 11B0     		add	sp, sp, #68
 702              		.cfi_def_cfa_offset 20
 703              		@ sp needed
 704 0092 F0BD     		pop	{r4, r5, r6, r7, pc}
 705              		.loc 1 272 1 view .LVU192
 706              		.cfi_endproc
 707              	.LFE7:
 709              		.global	__aeabi_uldivmod
 710              		.section	.text._ntoa_long_long,"ax",%progbits
 711              		.align	1
 712              		.syntax unified
 713              		.thumb
 714              		.thumb_func
 716              	_ntoa_long_long:
 717              	.LVL76:
 718              	.LFB8:
 273:Drivers/lvgl/src/misc/lv_printf.c **** 
 274:Drivers/lvgl/src/misc/lv_printf.c **** // internal itoa for 'long long' type
 275:Drivers/lvgl/src/misc/lv_printf.c **** #if defined(PRINTF_SUPPORT_LONG_LONG)
 276:Drivers/lvgl/src/misc/lv_printf.c **** static size_t _ntoa_long_long(out_fct_type out, char * buffer, size_t idx, size_t maxlen, unsigned 
 277:Drivers/lvgl/src/misc/lv_printf.c ****                               bool negative, unsigned long long base, unsigned int prec, unsigned i
 278:Drivers/lvgl/src/misc/lv_printf.c **** {
 719              		.loc 1 278 1 is_stmt 1 view -0
 720              		.cfi_startproc
 721              		@ args = 36, pretend = 0, frame = 48
 722              		@ frame_needed = 0, uses_anonymous_args = 0
 723              		.loc 1 278 1 is_stmt 0 view .LVU194
 724 0000 2DE9F04F 		push	{r4, r5, r6, r7, r8, r9, r10, fp, lr}
 725              		.cfi_def_cfa_offset 36
 726              		.cfi_offset 4, -36
 727              		.cfi_offset 5, -32
 728              		.cfi_offset 6, -28
 729              		.cfi_offset 7, -24
 730              		.cfi_offset 8, -20
 731              		.cfi_offset 9, -16
 732              		.cfi_offset 10, -12
 733              		.cfi_offset 11, -8
 734              		.cfi_offset 14, -4
 735 0004 95B0     		sub	sp, sp, #84
 736              		.cfi_def_cfa_offset 120
 737 0006 0990     		str	r0, [sp, #36]
 738 0008 0A91     		str	r1, [sp, #40]
 739 000a 0B92     		str	r2, [sp, #44]
 740 000c 9846     		mov	r8, r3
 741 000e DDF878B0 		ldr	fp, [sp, #120]
ARM GAS  /var/folders/lp/x54gwt890xv47sdkqj1k04q40000gn/T//ccmljrTB.s 			page 20


 742 0012 DDF87C90 		ldr	r9, [sp, #124]
 743 0016 229D     		ldr	r5, [sp, #136]
 744 0018 239F     		ldr	r7, [sp, #140]
 745 001a 269E     		ldr	r6, [sp, #152]
 279:Drivers/lvgl/src/misc/lv_printf.c ****     char buf[PRINTF_NTOA_BUFFER_SIZE];
 746              		.loc 1 279 5 is_stmt 1 view .LVU195
 280:Drivers/lvgl/src/misc/lv_printf.c ****     size_t len = 0U;
 747              		.loc 1 280 5 view .LVU196
 748              	.LVL77:
 281:Drivers/lvgl/src/misc/lv_printf.c **** 
 282:Drivers/lvgl/src/misc/lv_printf.c ****     // no hash for 0 values
 283:Drivers/lvgl/src/misc/lv_printf.c ****     if(!value) {
 749              		.loc 1 283 5 view .LVU197
 750              		.loc 1 283 7 is_stmt 0 view .LVU198
 751 001c 5BEA0902 		orrs	r2, fp, r9
 752              	.LVL78:
 753              		.loc 1 283 7 view .LVU199
 754 0020 01D1     		bne	.L58
 284:Drivers/lvgl/src/misc/lv_printf.c ****         flags &= ~FLAGS_HASH;
 755              		.loc 1 284 9 is_stmt 1 view .LVU200
 756              		.loc 1 284 15 is_stmt 0 view .LVU201
 757 0022 26F01006 		bic	r6, r6, #16
 758              	.LVL79:
 759              	.L58:
 285:Drivers/lvgl/src/misc/lv_printf.c ****     }
 286:Drivers/lvgl/src/misc/lv_printf.c **** 
 287:Drivers/lvgl/src/misc/lv_printf.c ****     // write if precision != 0 and value is != 0
 288:Drivers/lvgl/src/misc/lv_printf.c ****     if(!(flags & FLAGS_PRECISION) || value) {
 760              		.loc 1 288 5 is_stmt 1 view .LVU202
 761              		.loc 1 288 7 is_stmt 0 view .LVU203
 762 0026 16F48064 		ands	r4, r6, #1024
 763 002a 1ED0     		beq	.L64
 764              		.loc 1 288 35 discriminator 1 view .LVU204
 765 002c 5BEA0902 		orrs	r2, fp, r9
 766 0030 2FD0     		beq	.L65
 767 0032 0024     		movs	r4, #0
 768 0034 19E0     		b	.L64
 769              	.LVL80:
 770              	.L71:
 771              	.LBB27:
 289:Drivers/lvgl/src/misc/lv_printf.c ****         do {
 290:Drivers/lvgl/src/misc/lv_printf.c ****             const char digit = (char)(value % base);
 291:Drivers/lvgl/src/misc/lv_printf.c ****             buf[len++] = digit < 10 ? '0' + digit : (flags & FLAGS_UPPERCASE ? 'A' : 'a') + digit -
 772              		.loc 1 291 24 discriminator 1 view .LVU205
 773 0036 3032     		adds	r2, r2, #48
 774              	.LVL81:
 775              		.loc 1 291 24 discriminator 1 view .LVU206
 776 0038 D3B2     		uxtb	r3, r2
 777              	.LVL82:
 778              	.L62:
 779              		.loc 1 291 20 discriminator 8 view .LVU207
 780 003a 04F1010A 		add	r10, r4, #1
 781              	.LVL83:
 782              		.loc 1 291 24 discriminator 8 view .LVU208
 783 003e 04F15002 		add	r2, r4, #80
 784 0042 0DEB0204 		add	r4, sp, r2
 785 0046 04F8203C 		strb	r3, [r4, #-32]
ARM GAS  /var/folders/lp/x54gwt890xv47sdkqj1k04q40000gn/T//ccmljrTB.s 			page 21


 292:Drivers/lvgl/src/misc/lv_printf.c ****             value /= base;
 786              		.loc 1 292 13 is_stmt 1 view .LVU209
 787              		.loc 1 292 19 is_stmt 0 view .LVU210
 788 004a 2A46     		mov	r2, r5
 789 004c 3B46     		mov	r3, r7
 790 004e 5846     		mov	r0, fp
 791 0050 4946     		mov	r1, r9
 792 0052 FFF7FEFF 		bl	__aeabi_uldivmod
 793              	.LVL84:
 794              		.loc 1 292 19 view .LVU211
 795              	.LBE27:
 293:Drivers/lvgl/src/misc/lv_printf.c ****         } while(value && (len < PRINTF_NTOA_BUFFER_SIZE));
 796              		.loc 1 293 23 is_stmt 1 view .LVU212
 797 0056 AB45     		cmp	fp, r5
 798 0058 79EB0709 		sbcs	r9, r9, r7
 799 005c 1BD3     		bcc	.L60
 800              		.loc 1 293 23 is_stmt 0 discriminator 1 view .LVU213
 801 005e BAF11F0F 		cmp	r10, #31
 802 0062 18D8     		bhi	.L60
 803              	.LBB28:
 291:Drivers/lvgl/src/misc/lv_printf.c ****             value /= base;
 804              		.loc 1 291 20 discriminator 8 view .LVU214
 805 0064 5446     		mov	r4, r10
 292:Drivers/lvgl/src/misc/lv_printf.c ****             value /= base;
 806              		.loc 1 292 19 view .LVU215
 807 0066 8346     		mov	fp, r0
 808 0068 8946     		mov	r9, r1
 809              	.LVL85:
 810              	.L64:
 292:Drivers/lvgl/src/misc/lv_printf.c ****             value /= base;
 811              		.loc 1 292 19 view .LVU216
 812              	.LBE28:
 289:Drivers/lvgl/src/misc/lv_printf.c ****             const char digit = (char)(value % base);
 813              		.loc 1 289 9 is_stmt 1 view .LVU217
 814              	.LBB29:
 290:Drivers/lvgl/src/misc/lv_printf.c ****             buf[len++] = digit < 10 ? '0' + digit : (flags & FLAGS_UPPERCASE ? 'A' : 'a') + digit -
 815              		.loc 1 290 13 view .LVU218
 290:Drivers/lvgl/src/misc/lv_printf.c ****             buf[len++] = digit < 10 ? '0' + digit : (flags & FLAGS_UPPERCASE ? 'A' : 'a') + digit -
 816              		.loc 1 290 45 is_stmt 0 view .LVU219
 817 006a 2A46     		mov	r2, r5
 818 006c 3B46     		mov	r3, r7
 819 006e 5846     		mov	r0, fp
 820 0070 4946     		mov	r1, r9
 821 0072 FFF7FEFF 		bl	__aeabi_uldivmod
 822              	.LVL86:
 290:Drivers/lvgl/src/misc/lv_printf.c ****             buf[len++] = digit < 10 ? '0' + digit : (flags & FLAGS_UPPERCASE ? 'A' : 'a') + digit -
 823              		.loc 1 290 24 view .LVU220
 824 0076 D2B2     		uxtb	r2, r2
 825              	.LVL87:
 291:Drivers/lvgl/src/misc/lv_printf.c ****             value /= base;
 826              		.loc 1 291 13 is_stmt 1 view .LVU221
 291:Drivers/lvgl/src/misc/lv_printf.c ****             value /= base;
 827              		.loc 1 291 24 is_stmt 0 view .LVU222
 828 0078 092A     		cmp	r2, #9
 829 007a DCD9     		bls	.L71
 291:Drivers/lvgl/src/misc/lv_printf.c ****             value /= base;
 830              		.loc 1 291 91 discriminator 2 view .LVU223
ARM GAS  /var/folders/lp/x54gwt890xv47sdkqj1k04q40000gn/T//ccmljrTB.s 			page 22


 831 007c 16F0200F 		tst	r6, #32
 832 0080 05D0     		beq	.L66
 291:Drivers/lvgl/src/misc/lv_printf.c ****             value /= base;
 833              		.loc 1 291 91 discriminator 4 view .LVU224
 834 0082 4123     		movs	r3, #65
 835              	.L63:
 291:Drivers/lvgl/src/misc/lv_printf.c ****             value /= base;
 836              		.loc 1 291 91 discriminator 7 view .LVU225
 837 0084 1344     		add	r3, r3, r2
 838 0086 DBB2     		uxtb	r3, r3
 291:Drivers/lvgl/src/misc/lv_printf.c ****             value /= base;
 839              		.loc 1 291 24 discriminator 7 view .LVU226
 840 0088 0A3B     		subs	r3, r3, #10
 841 008a DBB2     		uxtb	r3, r3
 842 008c D5E7     		b	.L62
 843              	.L66:
 291:Drivers/lvgl/src/misc/lv_printf.c ****             value /= base;
 844              		.loc 1 291 91 discriminator 5 view .LVU227
 845 008e 6123     		movs	r3, #97
 846 0090 F8E7     		b	.L63
 847              	.LVL88:
 848              	.L65:
 291:Drivers/lvgl/src/misc/lv_printf.c ****             value /= base;
 849              		.loc 1 291 91 discriminator 5 view .LVU228
 850              	.LBE29:
 280:Drivers/lvgl/src/misc/lv_printf.c **** 
 851              		.loc 1 280 12 view .LVU229
 852 0092 4FF0000A 		mov	r10, #0
 853              	.LVL89:
 854              	.L60:
 294:Drivers/lvgl/src/misc/lv_printf.c ****     }
 295:Drivers/lvgl/src/misc/lv_printf.c **** 
 296:Drivers/lvgl/src/misc/lv_printf.c ****     return _ntoa_format(out, buffer, idx, maxlen, buf, len, negative, (unsigned int)base, prec, wid
 855              		.loc 1 296 5 is_stmt 1 view .LVU230
 856              		.loc 1 296 12 is_stmt 0 view .LVU231
 857 0096 0696     		str	r6, [sp, #24]
 858 0098 259B     		ldr	r3, [sp, #148]
 859 009a 0593     		str	r3, [sp, #20]
 860 009c 249B     		ldr	r3, [sp, #144]
 861 009e 0493     		str	r3, [sp, #16]
 862 00a0 0395     		str	r5, [sp, #12]
 863 00a2 9DF88030 		ldrb	r3, [sp, #128]	@ zero_extendqisi2
 864 00a6 0293     		str	r3, [sp, #8]
 865 00a8 CDF804A0 		str	r10, [sp, #4]
 866 00ac 0CAB     		add	r3, sp, #48
 867 00ae 0093     		str	r3, [sp]
 868 00b0 4346     		mov	r3, r8
 869 00b2 0B9A     		ldr	r2, [sp, #44]
 870 00b4 0A99     		ldr	r1, [sp, #40]
 871 00b6 0998     		ldr	r0, [sp, #36]
 872 00b8 FFF7FEFF 		bl	_ntoa_format
 873              	.LVL90:
 297:Drivers/lvgl/src/misc/lv_printf.c **** }
 874              		.loc 1 297 1 view .LVU232
 875 00bc 15B0     		add	sp, sp, #84
 876              		.cfi_def_cfa_offset 36
 877              		@ sp needed
ARM GAS  /var/folders/lp/x54gwt890xv47sdkqj1k04q40000gn/T//ccmljrTB.s 			page 23


 878 00be BDE8F08F 		pop	{r4, r5, r6, r7, r8, r9, r10, fp, pc}
 879              		.loc 1 297 1 view .LVU233
 880              		.cfi_endproc
 881              	.LFE8:
 883              		.section	.text._vsnprintf,"ax",%progbits
 884              		.align	1
 885              		.syntax unified
 886              		.thumb
 887              		.thumb_func
 889              	_vsnprintf:
 890              	.LVL91:
 891              	.LFB9:
 298:Drivers/lvgl/src/misc/lv_printf.c **** #endif  // PRINTF_SUPPORT_LONG_LONG
 299:Drivers/lvgl/src/misc/lv_printf.c **** 
 300:Drivers/lvgl/src/misc/lv_printf.c **** #if defined(PRINTF_SUPPORT_FLOAT)
 301:Drivers/lvgl/src/misc/lv_printf.c **** 
 302:Drivers/lvgl/src/misc/lv_printf.c **** #if defined(PRINTF_SUPPORT_EXPONENTIAL)
 303:Drivers/lvgl/src/misc/lv_printf.c **** // forward declaration so that _ftoa can switch to exp notation for values > PRINTF_MAX_FLOAT
 304:Drivers/lvgl/src/misc/lv_printf.c **** static size_t _etoa(out_fct_type out, char * buffer, size_t idx, size_t maxlen, double value, unsig
 305:Drivers/lvgl/src/misc/lv_printf.c ****                     unsigned int width, unsigned int flags);
 306:Drivers/lvgl/src/misc/lv_printf.c **** #endif
 307:Drivers/lvgl/src/misc/lv_printf.c **** 
 308:Drivers/lvgl/src/misc/lv_printf.c **** // internal ftoa for fixed decimal floating point
 309:Drivers/lvgl/src/misc/lv_printf.c **** static size_t _ftoa(out_fct_type out, char * buffer, size_t idx, size_t maxlen, double value, unsig
 310:Drivers/lvgl/src/misc/lv_printf.c ****                     unsigned int width, unsigned int flags)
 311:Drivers/lvgl/src/misc/lv_printf.c **** {
 312:Drivers/lvgl/src/misc/lv_printf.c ****     char buf[PRINTF_FTOA_BUFFER_SIZE];
 313:Drivers/lvgl/src/misc/lv_printf.c ****     size_t len  = 0U;
 314:Drivers/lvgl/src/misc/lv_printf.c ****     double diff = 0.0;
 315:Drivers/lvgl/src/misc/lv_printf.c **** 
 316:Drivers/lvgl/src/misc/lv_printf.c ****     // powers of 10
 317:Drivers/lvgl/src/misc/lv_printf.c ****     static const double pow10[] = { 1, 10, 100, 1000, 10000, 100000, 1000000, 10000000, 100000000, 
 318:Drivers/lvgl/src/misc/lv_printf.c **** 
 319:Drivers/lvgl/src/misc/lv_printf.c ****     // test for special values
 320:Drivers/lvgl/src/misc/lv_printf.c ****     if(value != value)
 321:Drivers/lvgl/src/misc/lv_printf.c ****         return _out_rev(out, buffer, idx, maxlen, "nan", 3, width, flags);
 322:Drivers/lvgl/src/misc/lv_printf.c ****     if(value < -DBL_MAX)
 323:Drivers/lvgl/src/misc/lv_printf.c ****         return _out_rev(out, buffer, idx, maxlen, "fni-", 4, width, flags);
 324:Drivers/lvgl/src/misc/lv_printf.c ****     if(value > DBL_MAX)
 325:Drivers/lvgl/src/misc/lv_printf.c ****         return _out_rev(out, buffer, idx, maxlen, (flags & FLAGS_PLUS) ? "fni+" : "fni", (flags & F
 326:Drivers/lvgl/src/misc/lv_printf.c ****                         flags);
 327:Drivers/lvgl/src/misc/lv_printf.c **** 
 328:Drivers/lvgl/src/misc/lv_printf.c ****     // test for very large values
 329:Drivers/lvgl/src/misc/lv_printf.c ****     // standard printf behavior is to print EVERY whole number digit -- which could be 100s of char
 330:Drivers/lvgl/src/misc/lv_printf.c ****     if((value > PRINTF_MAX_FLOAT) || (value < -PRINTF_MAX_FLOAT)) {
 331:Drivers/lvgl/src/misc/lv_printf.c **** #if defined(PRINTF_SUPPORT_EXPONENTIAL)
 332:Drivers/lvgl/src/misc/lv_printf.c ****         return _etoa(out, buffer, idx, maxlen, value, prec, width, flags);
 333:Drivers/lvgl/src/misc/lv_printf.c **** #else
 334:Drivers/lvgl/src/misc/lv_printf.c ****         return 0U;
 335:Drivers/lvgl/src/misc/lv_printf.c **** #endif
 336:Drivers/lvgl/src/misc/lv_printf.c ****     }
 337:Drivers/lvgl/src/misc/lv_printf.c **** 
 338:Drivers/lvgl/src/misc/lv_printf.c ****     // test for negative
 339:Drivers/lvgl/src/misc/lv_printf.c ****     bool negative = false;
 340:Drivers/lvgl/src/misc/lv_printf.c ****     if(value < 0) {
 341:Drivers/lvgl/src/misc/lv_printf.c ****         negative = true;
 342:Drivers/lvgl/src/misc/lv_printf.c ****         value = 0 - value;
ARM GAS  /var/folders/lp/x54gwt890xv47sdkqj1k04q40000gn/T//ccmljrTB.s 			page 24


 343:Drivers/lvgl/src/misc/lv_printf.c ****     }
 344:Drivers/lvgl/src/misc/lv_printf.c **** 
 345:Drivers/lvgl/src/misc/lv_printf.c ****     // set default precision, if not set explicitly
 346:Drivers/lvgl/src/misc/lv_printf.c ****     if(!(flags & FLAGS_PRECISION)) {
 347:Drivers/lvgl/src/misc/lv_printf.c ****         prec = PRINTF_DEFAULT_FLOAT_PRECISION;
 348:Drivers/lvgl/src/misc/lv_printf.c ****     }
 349:Drivers/lvgl/src/misc/lv_printf.c ****     // limit precision to 9, cause a prec >= 10 can lead to overflow errors
 350:Drivers/lvgl/src/misc/lv_printf.c ****     while((len < PRINTF_FTOA_BUFFER_SIZE) && (prec > 9U)) {
 351:Drivers/lvgl/src/misc/lv_printf.c ****         buf[len++] = '0';
 352:Drivers/lvgl/src/misc/lv_printf.c ****         prec--;
 353:Drivers/lvgl/src/misc/lv_printf.c ****     }
 354:Drivers/lvgl/src/misc/lv_printf.c **** 
 355:Drivers/lvgl/src/misc/lv_printf.c ****     int whole = (int)value;
 356:Drivers/lvgl/src/misc/lv_printf.c ****     double tmp = (value - whole) * pow10[prec];
 357:Drivers/lvgl/src/misc/lv_printf.c ****     unsigned long frac = (unsigned long)tmp;
 358:Drivers/lvgl/src/misc/lv_printf.c ****     diff = tmp - frac;
 359:Drivers/lvgl/src/misc/lv_printf.c **** 
 360:Drivers/lvgl/src/misc/lv_printf.c ****     if(diff > 0.5) {
 361:Drivers/lvgl/src/misc/lv_printf.c ****         ++frac;
 362:Drivers/lvgl/src/misc/lv_printf.c ****         // handle rollover, e.g. case 0.99 with prec 1 is 1.0
 363:Drivers/lvgl/src/misc/lv_printf.c ****         if(frac >= pow10[prec]) {
 364:Drivers/lvgl/src/misc/lv_printf.c ****             frac = 0;
 365:Drivers/lvgl/src/misc/lv_printf.c ****             ++whole;
 366:Drivers/lvgl/src/misc/lv_printf.c ****         }
 367:Drivers/lvgl/src/misc/lv_printf.c ****     }
 368:Drivers/lvgl/src/misc/lv_printf.c ****     else if(diff < 0.5) {
 369:Drivers/lvgl/src/misc/lv_printf.c ****     }
 370:Drivers/lvgl/src/misc/lv_printf.c ****     else if((frac == 0U) || (frac & 1U)) {
 371:Drivers/lvgl/src/misc/lv_printf.c ****         // if halfway, round up if odd OR if last digit is 0
 372:Drivers/lvgl/src/misc/lv_printf.c ****         ++frac;
 373:Drivers/lvgl/src/misc/lv_printf.c ****     }
 374:Drivers/lvgl/src/misc/lv_printf.c **** 
 375:Drivers/lvgl/src/misc/lv_printf.c ****     if(prec == 0U) {
 376:Drivers/lvgl/src/misc/lv_printf.c ****         diff = value - (double)whole;
 377:Drivers/lvgl/src/misc/lv_printf.c ****         if((!(diff < 0.5) || (diff > 0.5)) && (whole & 1)) {
 378:Drivers/lvgl/src/misc/lv_printf.c ****             // exactly 0.5 and ODD, then round up
 379:Drivers/lvgl/src/misc/lv_printf.c ****             // 1.5 -> 2, but 2.5 -> 2
 380:Drivers/lvgl/src/misc/lv_printf.c ****             ++whole;
 381:Drivers/lvgl/src/misc/lv_printf.c ****         }
 382:Drivers/lvgl/src/misc/lv_printf.c ****     }
 383:Drivers/lvgl/src/misc/lv_printf.c ****     else {
 384:Drivers/lvgl/src/misc/lv_printf.c ****         unsigned int count = prec;
 385:Drivers/lvgl/src/misc/lv_printf.c ****         // now do fractional part, as an unsigned number
 386:Drivers/lvgl/src/misc/lv_printf.c ****         while(len < PRINTF_FTOA_BUFFER_SIZE) {
 387:Drivers/lvgl/src/misc/lv_printf.c ****             --count;
 388:Drivers/lvgl/src/misc/lv_printf.c ****             buf[len++] = (char)(48U + (frac % 10U));
 389:Drivers/lvgl/src/misc/lv_printf.c ****             if(!(frac /= 10U)) {
 390:Drivers/lvgl/src/misc/lv_printf.c ****                 break;
 391:Drivers/lvgl/src/misc/lv_printf.c ****             }
 392:Drivers/lvgl/src/misc/lv_printf.c ****         }
 393:Drivers/lvgl/src/misc/lv_printf.c ****         // add extra 0s
 394:Drivers/lvgl/src/misc/lv_printf.c ****         while((len < PRINTF_FTOA_BUFFER_SIZE) && (count-- > 0U)) {
 395:Drivers/lvgl/src/misc/lv_printf.c ****             buf[len++] = '0';
 396:Drivers/lvgl/src/misc/lv_printf.c ****         }
 397:Drivers/lvgl/src/misc/lv_printf.c ****         if(len < PRINTF_FTOA_BUFFER_SIZE) {
 398:Drivers/lvgl/src/misc/lv_printf.c ****             // add decimal
 399:Drivers/lvgl/src/misc/lv_printf.c ****             buf[len++] = '.';
ARM GAS  /var/folders/lp/x54gwt890xv47sdkqj1k04q40000gn/T//ccmljrTB.s 			page 25


 400:Drivers/lvgl/src/misc/lv_printf.c ****         }
 401:Drivers/lvgl/src/misc/lv_printf.c ****     }
 402:Drivers/lvgl/src/misc/lv_printf.c **** 
 403:Drivers/lvgl/src/misc/lv_printf.c ****     // do whole part, number is reversed
 404:Drivers/lvgl/src/misc/lv_printf.c ****     while(len < PRINTF_FTOA_BUFFER_SIZE) {
 405:Drivers/lvgl/src/misc/lv_printf.c ****         buf[len++] = (char)(48 + (whole % 10));
 406:Drivers/lvgl/src/misc/lv_printf.c ****         if(!(whole /= 10)) {
 407:Drivers/lvgl/src/misc/lv_printf.c ****             break;
 408:Drivers/lvgl/src/misc/lv_printf.c ****         }
 409:Drivers/lvgl/src/misc/lv_printf.c ****     }
 410:Drivers/lvgl/src/misc/lv_printf.c **** 
 411:Drivers/lvgl/src/misc/lv_printf.c ****     // pad leading zeros
 412:Drivers/lvgl/src/misc/lv_printf.c ****     if(!(flags & FLAGS_LEFT) && (flags & FLAGS_ZEROPAD)) {
 413:Drivers/lvgl/src/misc/lv_printf.c ****         if(width && (negative || (flags & (FLAGS_PLUS | FLAGS_SPACE)))) {
 414:Drivers/lvgl/src/misc/lv_printf.c ****             width--;
 415:Drivers/lvgl/src/misc/lv_printf.c ****         }
 416:Drivers/lvgl/src/misc/lv_printf.c ****         while((len < width) && (len < PRINTF_FTOA_BUFFER_SIZE)) {
 417:Drivers/lvgl/src/misc/lv_printf.c ****             buf[len++] = '0';
 418:Drivers/lvgl/src/misc/lv_printf.c ****         }
 419:Drivers/lvgl/src/misc/lv_printf.c ****     }
 420:Drivers/lvgl/src/misc/lv_printf.c **** 
 421:Drivers/lvgl/src/misc/lv_printf.c ****     if(len < PRINTF_FTOA_BUFFER_SIZE) {
 422:Drivers/lvgl/src/misc/lv_printf.c ****         if(negative) {
 423:Drivers/lvgl/src/misc/lv_printf.c ****             buf[len++] = '-';
 424:Drivers/lvgl/src/misc/lv_printf.c ****         }
 425:Drivers/lvgl/src/misc/lv_printf.c ****         else if(flags & FLAGS_PLUS) {
 426:Drivers/lvgl/src/misc/lv_printf.c ****             buf[len++] = '+';  // ignore the space if the '+' exists
 427:Drivers/lvgl/src/misc/lv_printf.c ****         }
 428:Drivers/lvgl/src/misc/lv_printf.c ****         else if(flags & FLAGS_SPACE) {
 429:Drivers/lvgl/src/misc/lv_printf.c ****             buf[len++] = ' ';
 430:Drivers/lvgl/src/misc/lv_printf.c ****         }
 431:Drivers/lvgl/src/misc/lv_printf.c ****     }
 432:Drivers/lvgl/src/misc/lv_printf.c **** 
 433:Drivers/lvgl/src/misc/lv_printf.c ****     return _out_rev(out, buffer, idx, maxlen, buf, len, width, flags);
 434:Drivers/lvgl/src/misc/lv_printf.c **** }
 435:Drivers/lvgl/src/misc/lv_printf.c **** 
 436:Drivers/lvgl/src/misc/lv_printf.c **** #if defined(PRINTF_SUPPORT_EXPONENTIAL)
 437:Drivers/lvgl/src/misc/lv_printf.c **** // internal ftoa variant for exponential floating-point type, contributed by Martijn Jasperse <m.ja
 438:Drivers/lvgl/src/misc/lv_printf.c **** static size_t _etoa(out_fct_type out, char * buffer, size_t idx, size_t maxlen, double value, unsig
 439:Drivers/lvgl/src/misc/lv_printf.c ****                     unsigned int width, unsigned int flags)
 440:Drivers/lvgl/src/misc/lv_printf.c **** {
 441:Drivers/lvgl/src/misc/lv_printf.c ****     // check for NaN and special values
 442:Drivers/lvgl/src/misc/lv_printf.c ****     if((value != value) || (value > DBL_MAX) || (value < -DBL_MAX)) {
 443:Drivers/lvgl/src/misc/lv_printf.c ****         return _ftoa(out, buffer, idx, maxlen, value, prec, width, flags);
 444:Drivers/lvgl/src/misc/lv_printf.c ****     }
 445:Drivers/lvgl/src/misc/lv_printf.c **** 
 446:Drivers/lvgl/src/misc/lv_printf.c ****     // determine the sign
 447:Drivers/lvgl/src/misc/lv_printf.c ****     const bool negative = value < 0;
 448:Drivers/lvgl/src/misc/lv_printf.c ****     if(negative) {
 449:Drivers/lvgl/src/misc/lv_printf.c ****         value = -value;
 450:Drivers/lvgl/src/misc/lv_printf.c ****     }
 451:Drivers/lvgl/src/misc/lv_printf.c **** 
 452:Drivers/lvgl/src/misc/lv_printf.c ****     // default precision
 453:Drivers/lvgl/src/misc/lv_printf.c ****     if(!(flags & FLAGS_PRECISION)) {
 454:Drivers/lvgl/src/misc/lv_printf.c ****         prec = PRINTF_DEFAULT_FLOAT_PRECISION;
 455:Drivers/lvgl/src/misc/lv_printf.c ****     }
 456:Drivers/lvgl/src/misc/lv_printf.c **** 
ARM GAS  /var/folders/lp/x54gwt890xv47sdkqj1k04q40000gn/T//ccmljrTB.s 			page 26


 457:Drivers/lvgl/src/misc/lv_printf.c ****     // determine the decimal exponent
 458:Drivers/lvgl/src/misc/lv_printf.c ****     // based on the algorithm by David Gay (https://www.ampl.com/netlib/fp/dtoa.c)
 459:Drivers/lvgl/src/misc/lv_printf.c ****     union {
 460:Drivers/lvgl/src/misc/lv_printf.c ****         uint64_t U;
 461:Drivers/lvgl/src/misc/lv_printf.c ****         double   F;
 462:Drivers/lvgl/src/misc/lv_printf.c ****     } conv;
 463:Drivers/lvgl/src/misc/lv_printf.c **** 
 464:Drivers/lvgl/src/misc/lv_printf.c ****     conv.F = value;
 465:Drivers/lvgl/src/misc/lv_printf.c ****     int exp2 = (int)((conv.U >> 52U) & 0x07FFU) - 1023;           // effectively log2
 466:Drivers/lvgl/src/misc/lv_printf.c ****     conv.U = (conv.U & ((1ULL << 52U) - 1U)) | (1023ULL << 52U);  // drop the exponent so conv.F is
 467:Drivers/lvgl/src/misc/lv_printf.c ****     // now approximate log10 from the log2 integer part and an expansion of ln around 1.5
 468:Drivers/lvgl/src/misc/lv_printf.c ****     int expval = (int)(0.1760912590558 + exp2 * 0.301029995663981 + (conv.F - 1.5) * 0.289529654602
 469:Drivers/lvgl/src/misc/lv_printf.c ****     // now we want to compute 10^expval but we want to be sure it won't overflow
 470:Drivers/lvgl/src/misc/lv_printf.c ****     exp2 = (int)(expval * 3.321928094887362 + 0.5);
 471:Drivers/lvgl/src/misc/lv_printf.c ****     const double z  = expval * 2.302585092994046 - exp2 * 0.6931471805599453;
 472:Drivers/lvgl/src/misc/lv_printf.c ****     const double z2 = z * z;
 473:Drivers/lvgl/src/misc/lv_printf.c ****     conv.U = (uint64_t)(exp2 + 1023) << 52U;
 474:Drivers/lvgl/src/misc/lv_printf.c ****     // compute exp(z) using continued fractions, see https://en.wikipedia.org/wiki/Exponential_func
 475:Drivers/lvgl/src/misc/lv_printf.c ****     conv.F *= 1 + 2 * z / (2 - z + (z2 / (6 + (z2 / (10 + z2 / 14)))));
 476:Drivers/lvgl/src/misc/lv_printf.c ****     // correct for rounding errors
 477:Drivers/lvgl/src/misc/lv_printf.c ****     if(value < conv.F) {
 478:Drivers/lvgl/src/misc/lv_printf.c ****         expval--;
 479:Drivers/lvgl/src/misc/lv_printf.c ****         conv.F /= 10;
 480:Drivers/lvgl/src/misc/lv_printf.c ****     }
 481:Drivers/lvgl/src/misc/lv_printf.c **** 
 482:Drivers/lvgl/src/misc/lv_printf.c ****     // the exponent format is "%+03d" and largest value is "307", so set aside 4-5 characters
 483:Drivers/lvgl/src/misc/lv_printf.c ****     unsigned int minwidth = ((expval < 100) && (expval > -100)) ? 4U : 5U;
 484:Drivers/lvgl/src/misc/lv_printf.c **** 
 485:Drivers/lvgl/src/misc/lv_printf.c ****     // in "%g" mode, "prec" is the number of *significant figures* not decimals
 486:Drivers/lvgl/src/misc/lv_printf.c ****     if(flags & FLAGS_ADAPT_EXP) {
 487:Drivers/lvgl/src/misc/lv_printf.c ****         // do we want to fall-back to "%f" mode?
 488:Drivers/lvgl/src/misc/lv_printf.c ****         if((value >= 1e-4) && (value < 1e6)) {
 489:Drivers/lvgl/src/misc/lv_printf.c ****             if((int)prec > expval) {
 490:Drivers/lvgl/src/misc/lv_printf.c ****                 prec = (unsigned)((int)prec - expval - 1);
 491:Drivers/lvgl/src/misc/lv_printf.c ****             }
 492:Drivers/lvgl/src/misc/lv_printf.c ****             else {
 493:Drivers/lvgl/src/misc/lv_printf.c ****                 prec = 0;
 494:Drivers/lvgl/src/misc/lv_printf.c ****             }
 495:Drivers/lvgl/src/misc/lv_printf.c ****             flags |= FLAGS_PRECISION;   // make sure _ftoa respects precision
 496:Drivers/lvgl/src/misc/lv_printf.c ****             // no characters in exponent
 497:Drivers/lvgl/src/misc/lv_printf.c ****             minwidth = 0U;
 498:Drivers/lvgl/src/misc/lv_printf.c ****             expval   = 0;
 499:Drivers/lvgl/src/misc/lv_printf.c ****         }
 500:Drivers/lvgl/src/misc/lv_printf.c ****         else {
 501:Drivers/lvgl/src/misc/lv_printf.c ****             // we use one sigfig for the whole part
 502:Drivers/lvgl/src/misc/lv_printf.c ****             if((prec > 0) && (flags & FLAGS_PRECISION)) {
 503:Drivers/lvgl/src/misc/lv_printf.c ****                 --prec;
 504:Drivers/lvgl/src/misc/lv_printf.c ****             }
 505:Drivers/lvgl/src/misc/lv_printf.c ****         }
 506:Drivers/lvgl/src/misc/lv_printf.c ****     }
 507:Drivers/lvgl/src/misc/lv_printf.c **** 
 508:Drivers/lvgl/src/misc/lv_printf.c ****     // will everything fit?
 509:Drivers/lvgl/src/misc/lv_printf.c ****     unsigned int fwidth = width;
 510:Drivers/lvgl/src/misc/lv_printf.c ****     if(width > minwidth) {
 511:Drivers/lvgl/src/misc/lv_printf.c ****         // we didn't fall-back so subtract the characters required for the exponent
 512:Drivers/lvgl/src/misc/lv_printf.c ****         fwidth -= minwidth;
 513:Drivers/lvgl/src/misc/lv_printf.c ****     }
ARM GAS  /var/folders/lp/x54gwt890xv47sdkqj1k04q40000gn/T//ccmljrTB.s 			page 27


 514:Drivers/lvgl/src/misc/lv_printf.c ****     else {
 515:Drivers/lvgl/src/misc/lv_printf.c ****         // not enough characters, so go back to default sizing
 516:Drivers/lvgl/src/misc/lv_printf.c ****         fwidth = 0U;
 517:Drivers/lvgl/src/misc/lv_printf.c ****     }
 518:Drivers/lvgl/src/misc/lv_printf.c ****     if((flags & FLAGS_LEFT) && minwidth) {
 519:Drivers/lvgl/src/misc/lv_printf.c ****         // if we're padding on the right, DON'T pad the floating part
 520:Drivers/lvgl/src/misc/lv_printf.c ****         fwidth = 0U;
 521:Drivers/lvgl/src/misc/lv_printf.c ****     }
 522:Drivers/lvgl/src/misc/lv_printf.c **** 
 523:Drivers/lvgl/src/misc/lv_printf.c ****     // rescale the float value
 524:Drivers/lvgl/src/misc/lv_printf.c ****     if(expval) {
 525:Drivers/lvgl/src/misc/lv_printf.c ****         value /= conv.F;
 526:Drivers/lvgl/src/misc/lv_printf.c ****     }
 527:Drivers/lvgl/src/misc/lv_printf.c **** 
 528:Drivers/lvgl/src/misc/lv_printf.c ****     // output the floating part
 529:Drivers/lvgl/src/misc/lv_printf.c ****     const size_t start_idx = idx;
 530:Drivers/lvgl/src/misc/lv_printf.c ****     idx = _ftoa(out, buffer, idx, maxlen, negative ? -value : value, prec, fwidth, flags & ~FLAGS_A
 531:Drivers/lvgl/src/misc/lv_printf.c **** 
 532:Drivers/lvgl/src/misc/lv_printf.c ****     // output the exponent part
 533:Drivers/lvgl/src/misc/lv_printf.c ****     if(minwidth) {
 534:Drivers/lvgl/src/misc/lv_printf.c ****         // output the exponential symbol
 535:Drivers/lvgl/src/misc/lv_printf.c ****         out((flags & FLAGS_UPPERCASE) ? 'E' : 'e', buffer, idx++, maxlen);
 536:Drivers/lvgl/src/misc/lv_printf.c ****         // output the exponent value
 537:Drivers/lvgl/src/misc/lv_printf.c ****         idx = _ntoa_long(out, buffer, idx, maxlen, (expval < 0) ? -expval : expval, expval < 0, 10,
 538:Drivers/lvgl/src/misc/lv_printf.c ****                          FLAGS_ZEROPAD | FLAGS_PLUS);
 539:Drivers/lvgl/src/misc/lv_printf.c ****         // might need to right-pad spaces
 540:Drivers/lvgl/src/misc/lv_printf.c ****         if(flags & FLAGS_LEFT) {
 541:Drivers/lvgl/src/misc/lv_printf.c ****             while(idx - start_idx < width) out(' ', buffer, idx++, maxlen);
 542:Drivers/lvgl/src/misc/lv_printf.c ****         }
 543:Drivers/lvgl/src/misc/lv_printf.c ****     }
 544:Drivers/lvgl/src/misc/lv_printf.c ****     return idx;
 545:Drivers/lvgl/src/misc/lv_printf.c **** }
 546:Drivers/lvgl/src/misc/lv_printf.c **** #endif  // PRINTF_SUPPORT_EXPONENTIAL
 547:Drivers/lvgl/src/misc/lv_printf.c **** #endif  // PRINTF_SUPPORT_FLOAT
 548:Drivers/lvgl/src/misc/lv_printf.c **** 
 549:Drivers/lvgl/src/misc/lv_printf.c **** // internal vsnprintf
 550:Drivers/lvgl/src/misc/lv_printf.c **** static int _vsnprintf(out_fct_type out, char * buffer, const size_t maxlen, const char * format, va
 551:Drivers/lvgl/src/misc/lv_printf.c **** {
 892              		.loc 1 551 1 is_stmt 1 view -0
 893              		.cfi_startproc
 894              		@ args = 4, pretend = 0, frame = 32
 895              		@ frame_needed = 0, uses_anonymous_args = 0
 896              		.loc 1 551 1 is_stmt 0 view .LVU235
 897 0000 2DE9F04F 		push	{r4, r5, r6, r7, r8, r9, r10, fp, lr}
 898              		.cfi_def_cfa_offset 36
 899              		.cfi_offset 4, -36
 900              		.cfi_offset 5, -32
 901              		.cfi_offset 6, -28
 902              		.cfi_offset 7, -24
 903              		.cfi_offset 8, -20
 904              		.cfi_offset 9, -16
 905              		.cfi_offset 10, -12
 906              		.cfi_offset 11, -8
 907              		.cfi_offset 14, -4
 908 0004 93B0     		sub	sp, sp, #76
 909              		.cfi_def_cfa_offset 112
 910 0006 8046     		mov	r8, r0
ARM GAS  /var/folders/lp/x54gwt890xv47sdkqj1k04q40000gn/T//ccmljrTB.s 			page 28


 911 0008 1746     		mov	r7, r2
 912 000a 0F93     		str	r3, [sp, #60]
 552:Drivers/lvgl/src/misc/lv_printf.c ****     unsigned int flags, width, precision, n;
 913              		.loc 1 552 5 is_stmt 1 view .LVU236
 553:Drivers/lvgl/src/misc/lv_printf.c ****     size_t idx = 0U;
 914              		.loc 1 553 5 view .LVU237
 915              	.LVL92:
 554:Drivers/lvgl/src/misc/lv_printf.c **** 
 555:Drivers/lvgl/src/misc/lv_printf.c ****     if(!buffer) {
 916              		.loc 1 555 5 view .LVU238
 917              		.loc 1 555 7 is_stmt 0 view .LVU239
 918 000c 8B46     		mov	fp, r1
 919 000e 0029     		cmp	r1, #0
 920 0010 00F0CF82 		beq	.L166
 921              	.L73:
 922              	.LVL93:
 556:Drivers/lvgl/src/misc/lv_printf.c ****         // use null output function
 557:Drivers/lvgl/src/misc/lv_printf.c ****         out = _out_null;
 558:Drivers/lvgl/src/misc/lv_printf.c ****     }
 559:Drivers/lvgl/src/misc/lv_printf.c **** 
 560:Drivers/lvgl/src/misc/lv_printf.c ****     while(*format) {
 561:Drivers/lvgl/src/misc/lv_printf.c ****         // format specifier?  %[flags][width][.precision][length]
 562:Drivers/lvgl/src/misc/lv_printf.c ****         if(*format != '%') {
 563:Drivers/lvgl/src/misc/lv_printf.c ****             // no
 564:Drivers/lvgl/src/misc/lv_printf.c ****             out(*format, buffer, idx++, maxlen);
 565:Drivers/lvgl/src/misc/lv_printf.c ****             format++;
 566:Drivers/lvgl/src/misc/lv_printf.c ****             continue;
 567:Drivers/lvgl/src/misc/lv_printf.c ****         }
 568:Drivers/lvgl/src/misc/lv_printf.c ****         else {
 569:Drivers/lvgl/src/misc/lv_printf.c ****             // yes, evaluate it
 570:Drivers/lvgl/src/misc/lv_printf.c ****             format++;
 571:Drivers/lvgl/src/misc/lv_printf.c ****         }
 572:Drivers/lvgl/src/misc/lv_printf.c **** 
 573:Drivers/lvgl/src/misc/lv_printf.c ****         // evaluate flags
 574:Drivers/lvgl/src/misc/lv_printf.c ****         flags = 0U;
 575:Drivers/lvgl/src/misc/lv_printf.c ****         do {
 576:Drivers/lvgl/src/misc/lv_printf.c ****             switch(*format) {
 577:Drivers/lvgl/src/misc/lv_printf.c ****                 case '0':
 578:Drivers/lvgl/src/misc/lv_printf.c ****                     flags |= FLAGS_ZEROPAD;
 579:Drivers/lvgl/src/misc/lv_printf.c ****                     format++;
 580:Drivers/lvgl/src/misc/lv_printf.c ****                     n = 1U;
 581:Drivers/lvgl/src/misc/lv_printf.c ****                     break;
 582:Drivers/lvgl/src/misc/lv_printf.c ****                 case '-':
 583:Drivers/lvgl/src/misc/lv_printf.c ****                     flags |= FLAGS_LEFT;
 584:Drivers/lvgl/src/misc/lv_printf.c ****                     format++;
 585:Drivers/lvgl/src/misc/lv_printf.c ****                     n = 1U;
 586:Drivers/lvgl/src/misc/lv_printf.c ****                     break;
 587:Drivers/lvgl/src/misc/lv_printf.c ****                 case '+':
 588:Drivers/lvgl/src/misc/lv_printf.c ****                     flags |= FLAGS_PLUS;
 589:Drivers/lvgl/src/misc/lv_printf.c ****                     format++;
 590:Drivers/lvgl/src/misc/lv_printf.c ****                     n = 1U;
 591:Drivers/lvgl/src/misc/lv_printf.c ****                     break;
 592:Drivers/lvgl/src/misc/lv_printf.c ****                 case ' ':
 593:Drivers/lvgl/src/misc/lv_printf.c ****                     flags |= FLAGS_SPACE;
 594:Drivers/lvgl/src/misc/lv_printf.c ****                     format++;
 595:Drivers/lvgl/src/misc/lv_printf.c ****                     n = 1U;
 596:Drivers/lvgl/src/misc/lv_printf.c ****                     break;
ARM GAS  /var/folders/lp/x54gwt890xv47sdkqj1k04q40000gn/T//ccmljrTB.s 			page 29


 597:Drivers/lvgl/src/misc/lv_printf.c ****                 case '#':
 598:Drivers/lvgl/src/misc/lv_printf.c ****                     flags |= FLAGS_HASH;
 599:Drivers/lvgl/src/misc/lv_printf.c ****                     format++;
 600:Drivers/lvgl/src/misc/lv_printf.c ****                     n = 1U;
 601:Drivers/lvgl/src/misc/lv_printf.c ****                     break;
 602:Drivers/lvgl/src/misc/lv_printf.c ****                 default :
 603:Drivers/lvgl/src/misc/lv_printf.c ****                     n = 0U;
 604:Drivers/lvgl/src/misc/lv_printf.c ****                     break;
 605:Drivers/lvgl/src/misc/lv_printf.c ****             }
 606:Drivers/lvgl/src/misc/lv_printf.c ****         } while(n);
 607:Drivers/lvgl/src/misc/lv_printf.c **** 
 608:Drivers/lvgl/src/misc/lv_printf.c ****         // evaluate width field
 609:Drivers/lvgl/src/misc/lv_printf.c ****         width = 0U;
 610:Drivers/lvgl/src/misc/lv_printf.c ****         if(_is_digit(*format)) {
 611:Drivers/lvgl/src/misc/lv_printf.c ****             width = _atoi(&format);
 612:Drivers/lvgl/src/misc/lv_printf.c ****         }
 613:Drivers/lvgl/src/misc/lv_printf.c ****         else if(*format == '*') {
 614:Drivers/lvgl/src/misc/lv_printf.c ****             const int w = va_arg(va, int);
 615:Drivers/lvgl/src/misc/lv_printf.c ****             if(w < 0) {
 616:Drivers/lvgl/src/misc/lv_printf.c ****                 flags |= FLAGS_LEFT;    // reverse padding
 617:Drivers/lvgl/src/misc/lv_printf.c ****                 width = (unsigned int) - w;
 618:Drivers/lvgl/src/misc/lv_printf.c ****             }
 619:Drivers/lvgl/src/misc/lv_printf.c ****             else {
 620:Drivers/lvgl/src/misc/lv_printf.c ****                 width = (unsigned int)w;
 621:Drivers/lvgl/src/misc/lv_printf.c ****             }
 622:Drivers/lvgl/src/misc/lv_printf.c ****             format++;
 623:Drivers/lvgl/src/misc/lv_printf.c ****         }
 624:Drivers/lvgl/src/misc/lv_printf.c **** 
 625:Drivers/lvgl/src/misc/lv_printf.c ****         // evaluate precision field
 626:Drivers/lvgl/src/misc/lv_printf.c ****         precision = 0U;
 627:Drivers/lvgl/src/misc/lv_printf.c ****         if(*format == '.') {
 628:Drivers/lvgl/src/misc/lv_printf.c ****             flags |= FLAGS_PRECISION;
 629:Drivers/lvgl/src/misc/lv_printf.c ****             format++;
 630:Drivers/lvgl/src/misc/lv_printf.c ****             if(_is_digit(*format)) {
 631:Drivers/lvgl/src/misc/lv_printf.c ****                 precision = _atoi(&format);
 632:Drivers/lvgl/src/misc/lv_printf.c ****             }
 633:Drivers/lvgl/src/misc/lv_printf.c ****             else if(*format == '*') {
 634:Drivers/lvgl/src/misc/lv_printf.c ****                 const int prec = (int)va_arg(va, int);
 635:Drivers/lvgl/src/misc/lv_printf.c ****                 precision = prec > 0 ? (unsigned int)prec : 0U;
 636:Drivers/lvgl/src/misc/lv_printf.c ****                 format++;
 637:Drivers/lvgl/src/misc/lv_printf.c ****             }
 638:Drivers/lvgl/src/misc/lv_printf.c ****         }
 639:Drivers/lvgl/src/misc/lv_printf.c **** 
 640:Drivers/lvgl/src/misc/lv_printf.c ****         // evaluate length field
 641:Drivers/lvgl/src/misc/lv_printf.c ****         switch(*format) {
 642:Drivers/lvgl/src/misc/lv_printf.c ****             case 'l' :
 643:Drivers/lvgl/src/misc/lv_printf.c ****                 flags |= FLAGS_LONG;
 644:Drivers/lvgl/src/misc/lv_printf.c ****                 format++;
 645:Drivers/lvgl/src/misc/lv_printf.c ****                 if(*format == 'l') {
 646:Drivers/lvgl/src/misc/lv_printf.c ****                     flags |= FLAGS_LONG_LONG;
 647:Drivers/lvgl/src/misc/lv_printf.c ****                     format++;
 648:Drivers/lvgl/src/misc/lv_printf.c ****                 }
 649:Drivers/lvgl/src/misc/lv_printf.c ****                 break;
 650:Drivers/lvgl/src/misc/lv_printf.c ****             case 'h' :
 651:Drivers/lvgl/src/misc/lv_printf.c ****                 flags |= FLAGS_SHORT;
 652:Drivers/lvgl/src/misc/lv_printf.c ****                 format++;
 653:Drivers/lvgl/src/misc/lv_printf.c ****                 if(*format == 'h') {
ARM GAS  /var/folders/lp/x54gwt890xv47sdkqj1k04q40000gn/T//ccmljrTB.s 			page 30


 654:Drivers/lvgl/src/misc/lv_printf.c ****                     flags |= FLAGS_CHAR;
 655:Drivers/lvgl/src/misc/lv_printf.c ****                     format++;
 656:Drivers/lvgl/src/misc/lv_printf.c ****                 }
 657:Drivers/lvgl/src/misc/lv_printf.c ****                 break;
 658:Drivers/lvgl/src/misc/lv_printf.c **** #if defined(PRINTF_SUPPORT_PTRDIFF_T)
 659:Drivers/lvgl/src/misc/lv_printf.c ****             case 't' :
 660:Drivers/lvgl/src/misc/lv_printf.c ****                 flags |= (sizeof(ptrdiff_t) == sizeof(long) ? FLAGS_LONG : FLAGS_LONG_LONG);
 661:Drivers/lvgl/src/misc/lv_printf.c ****                 format++;
 662:Drivers/lvgl/src/misc/lv_printf.c ****                 break;
 663:Drivers/lvgl/src/misc/lv_printf.c **** #endif
 664:Drivers/lvgl/src/misc/lv_printf.c ****             case 'j' :
 665:Drivers/lvgl/src/misc/lv_printf.c ****                 flags |= (sizeof(intmax_t) == sizeof(long) ? FLAGS_LONG : FLAGS_LONG_LONG);
 666:Drivers/lvgl/src/misc/lv_printf.c ****                 format++;
 667:Drivers/lvgl/src/misc/lv_printf.c ****                 break;
 668:Drivers/lvgl/src/misc/lv_printf.c ****             case 'z' :
 669:Drivers/lvgl/src/misc/lv_printf.c ****                 flags |= (sizeof(size_t) == sizeof(long) ? FLAGS_LONG : FLAGS_LONG_LONG);
 670:Drivers/lvgl/src/misc/lv_printf.c ****                 format++;
 671:Drivers/lvgl/src/misc/lv_printf.c ****                 break;
 672:Drivers/lvgl/src/misc/lv_printf.c ****             default :
 673:Drivers/lvgl/src/misc/lv_printf.c ****                 break;
 674:Drivers/lvgl/src/misc/lv_printf.c ****         }
 675:Drivers/lvgl/src/misc/lv_printf.c **** 
 676:Drivers/lvgl/src/misc/lv_printf.c ****         // evaluate specifier
 677:Drivers/lvgl/src/misc/lv_printf.c ****         switch(*format) {
 678:Drivers/lvgl/src/misc/lv_printf.c ****             case 'd' :
 679:Drivers/lvgl/src/misc/lv_printf.c ****             case 'i' :
 680:Drivers/lvgl/src/misc/lv_printf.c ****             case 'u' :
 681:Drivers/lvgl/src/misc/lv_printf.c ****             case 'x' :
 682:Drivers/lvgl/src/misc/lv_printf.c ****             case 'X' :
 683:Drivers/lvgl/src/misc/lv_printf.c ****             case 'p' :
 684:Drivers/lvgl/src/misc/lv_printf.c ****             case 'P' :
 685:Drivers/lvgl/src/misc/lv_printf.c ****             case 'o' :
 686:Drivers/lvgl/src/misc/lv_printf.c ****             case 'b' : {
 687:Drivers/lvgl/src/misc/lv_printf.c ****                     // set the base
 688:Drivers/lvgl/src/misc/lv_printf.c ****                     unsigned int base;
 689:Drivers/lvgl/src/misc/lv_printf.c ****                     if(*format == 'x' || *format == 'X') {
 690:Drivers/lvgl/src/misc/lv_printf.c ****                         base = 16U;
 691:Drivers/lvgl/src/misc/lv_printf.c ****                     }
 692:Drivers/lvgl/src/misc/lv_printf.c ****                     else if(*format == 'p' || *format == 'P') {
 693:Drivers/lvgl/src/misc/lv_printf.c ****                         base = 16U;
 694:Drivers/lvgl/src/misc/lv_printf.c ****                         flags |= FLAGS_HASH;   // always hash for pointer format
 695:Drivers/lvgl/src/misc/lv_printf.c **** #if defined(PRINTF_SUPPORT_LONG_LONG)
 696:Drivers/lvgl/src/misc/lv_printf.c ****                         if(sizeof(uintptr_t) == sizeof(long long))
 697:Drivers/lvgl/src/misc/lv_printf.c ****                             flags |= FLAGS_LONG_LONG;
 698:Drivers/lvgl/src/misc/lv_printf.c ****                         else
 699:Drivers/lvgl/src/misc/lv_printf.c **** #endif
 700:Drivers/lvgl/src/misc/lv_printf.c ****                             flags |= FLAGS_LONG;
 701:Drivers/lvgl/src/misc/lv_printf.c **** 
 702:Drivers/lvgl/src/misc/lv_printf.c ****                         if(*(format + 1) == 'V')
 703:Drivers/lvgl/src/misc/lv_printf.c ****                             format++;
 704:Drivers/lvgl/src/misc/lv_printf.c ****                     }
 705:Drivers/lvgl/src/misc/lv_printf.c ****                     else if(*format == 'o') {
 706:Drivers/lvgl/src/misc/lv_printf.c ****                         base =  8U;
 707:Drivers/lvgl/src/misc/lv_printf.c ****                     }
 708:Drivers/lvgl/src/misc/lv_printf.c ****                     else if(*format == 'b') {
 709:Drivers/lvgl/src/misc/lv_printf.c ****                         base =  2U;
 710:Drivers/lvgl/src/misc/lv_printf.c ****                     }
ARM GAS  /var/folders/lp/x54gwt890xv47sdkqj1k04q40000gn/T//ccmljrTB.s 			page 31


 711:Drivers/lvgl/src/misc/lv_printf.c ****                     else {
 712:Drivers/lvgl/src/misc/lv_printf.c ****                         base = 10U;
 713:Drivers/lvgl/src/misc/lv_printf.c ****                         flags &= ~FLAGS_HASH;   // no hash for dec format
 714:Drivers/lvgl/src/misc/lv_printf.c ****                     }
 715:Drivers/lvgl/src/misc/lv_printf.c ****                     // uppercase
 716:Drivers/lvgl/src/misc/lv_printf.c ****                     if(*format == 'X' || *format == 'P') {
 717:Drivers/lvgl/src/misc/lv_printf.c ****                         flags |= FLAGS_UPPERCASE;
 718:Drivers/lvgl/src/misc/lv_printf.c ****                     }
 719:Drivers/lvgl/src/misc/lv_printf.c **** 
 720:Drivers/lvgl/src/misc/lv_printf.c ****                     // no plus or space flag for u, x, X, o, b
 721:Drivers/lvgl/src/misc/lv_printf.c ****                     if((*format != 'i') && (*format != 'd')) {
 722:Drivers/lvgl/src/misc/lv_printf.c ****                         flags &= ~(FLAGS_PLUS | FLAGS_SPACE);
 723:Drivers/lvgl/src/misc/lv_printf.c ****                     }
 724:Drivers/lvgl/src/misc/lv_printf.c **** 
 725:Drivers/lvgl/src/misc/lv_printf.c ****                     // ignore '0' flag when precision is given
 726:Drivers/lvgl/src/misc/lv_printf.c ****                     if(flags & FLAGS_PRECISION) {
 727:Drivers/lvgl/src/misc/lv_printf.c ****                         flags &= ~FLAGS_ZEROPAD;
 728:Drivers/lvgl/src/misc/lv_printf.c ****                     }
 729:Drivers/lvgl/src/misc/lv_printf.c **** 
 730:Drivers/lvgl/src/misc/lv_printf.c ****                     // convert the integer
 731:Drivers/lvgl/src/misc/lv_printf.c ****                     if((*format == 'i') || (*format == 'd')) {
 732:Drivers/lvgl/src/misc/lv_printf.c ****                         // signed
 733:Drivers/lvgl/src/misc/lv_printf.c ****                         if(flags & FLAGS_LONG_LONG) {
 734:Drivers/lvgl/src/misc/lv_printf.c **** #if defined(PRINTF_SUPPORT_LONG_LONG)
 735:Drivers/lvgl/src/misc/lv_printf.c ****                             const long long value = va_arg(va, long long);
 736:Drivers/lvgl/src/misc/lv_printf.c ****                             idx = _ntoa_long_long(out, buffer, idx, maxlen, (unsigned long long)(va
 737:Drivers/lvgl/src/misc/lv_printf.c ****                                                   precision, width, flags);
 738:Drivers/lvgl/src/misc/lv_printf.c **** #endif
 739:Drivers/lvgl/src/misc/lv_printf.c ****                         }
 740:Drivers/lvgl/src/misc/lv_printf.c ****                         else if(flags & FLAGS_LONG) {
 741:Drivers/lvgl/src/misc/lv_printf.c ****                             const long value = va_arg(va, long);
 742:Drivers/lvgl/src/misc/lv_printf.c ****                             idx = _ntoa_long(out, buffer, idx, maxlen, (unsigned long)(value > 0 ? 
 743:Drivers/lvgl/src/misc/lv_printf.c ****                                              width, flags);
 744:Drivers/lvgl/src/misc/lv_printf.c ****                         }
 745:Drivers/lvgl/src/misc/lv_printf.c ****                         else {
 746:Drivers/lvgl/src/misc/lv_printf.c ****                             const int value = (flags & FLAGS_CHAR) ? (char)va_arg(va, int) : (flags
 747:Drivers/lvgl/src/misc/lv_printf.c ****                                                                                                    
 748:Drivers/lvgl/src/misc/lv_printf.c ****                             idx = _ntoa_long(out, buffer, idx, maxlen, (unsigned int)(value > 0 ? v
 749:Drivers/lvgl/src/misc/lv_printf.c ****                                              width, flags);
 750:Drivers/lvgl/src/misc/lv_printf.c ****                         }
 751:Drivers/lvgl/src/misc/lv_printf.c ****                     }
 752:Drivers/lvgl/src/misc/lv_printf.c ****                     else if(*format == 'V') {
 753:Drivers/lvgl/src/misc/lv_printf.c ****                         lv_vaformat_t * vaf = va_arg(va, lv_vaformat_t *);
 754:Drivers/lvgl/src/misc/lv_printf.c ****                         va_list copy;
 755:Drivers/lvgl/src/misc/lv_printf.c **** 
 756:Drivers/lvgl/src/misc/lv_printf.c ****                         va_copy(copy, *vaf->va);
 757:Drivers/lvgl/src/misc/lv_printf.c ****                         idx += _vsnprintf(out, buffer + idx, maxlen - idx, vaf->fmt, copy);
 758:Drivers/lvgl/src/misc/lv_printf.c ****                         va_end(copy);
 759:Drivers/lvgl/src/misc/lv_printf.c ****                     }
 760:Drivers/lvgl/src/misc/lv_printf.c ****                     else {
 761:Drivers/lvgl/src/misc/lv_printf.c ****                         // unsigned
 762:Drivers/lvgl/src/misc/lv_printf.c ****                         if(flags & FLAGS_LONG_LONG) {
 763:Drivers/lvgl/src/misc/lv_printf.c **** #if defined(PRINTF_SUPPORT_LONG_LONG)
 764:Drivers/lvgl/src/misc/lv_printf.c ****                             idx = _ntoa_long_long(out, buffer, idx, maxlen, va_arg(va, unsigned lon
 765:Drivers/lvgl/src/misc/lv_printf.c **** #endif
 766:Drivers/lvgl/src/misc/lv_printf.c ****                         }
 767:Drivers/lvgl/src/misc/lv_printf.c ****                         else if(flags & FLAGS_LONG) {
ARM GAS  /var/folders/lp/x54gwt890xv47sdkqj1k04q40000gn/T//ccmljrTB.s 			page 32


 768:Drivers/lvgl/src/misc/lv_printf.c ****                             idx = _ntoa_long(out, buffer, idx, maxlen, va_arg(va, unsigned long), f
 769:Drivers/lvgl/src/misc/lv_printf.c ****                         }
 770:Drivers/lvgl/src/misc/lv_printf.c ****                         else {
 771:Drivers/lvgl/src/misc/lv_printf.c ****                             const unsigned int value = (flags & FLAGS_CHAR) ? (unsigned char)va_arg
 772:Drivers/lvgl/src/misc/lv_printf.c ****                                                                                                    
 773:Drivers/lvgl/src/misc/lv_printf.c ****                             idx = _ntoa_long(out, buffer, idx, maxlen, value, false, base, precisio
 774:Drivers/lvgl/src/misc/lv_printf.c ****                         }
 775:Drivers/lvgl/src/misc/lv_printf.c ****                     }
 776:Drivers/lvgl/src/misc/lv_printf.c ****                     format++;
 777:Drivers/lvgl/src/misc/lv_printf.c ****                     break;
 778:Drivers/lvgl/src/misc/lv_printf.c ****                 }
 779:Drivers/lvgl/src/misc/lv_printf.c **** #if defined(PRINTF_SUPPORT_FLOAT)
 780:Drivers/lvgl/src/misc/lv_printf.c ****             case 'f' :
 781:Drivers/lvgl/src/misc/lv_printf.c ****             case 'F' :
 782:Drivers/lvgl/src/misc/lv_printf.c ****                 if(*format == 'F') flags |= FLAGS_UPPERCASE;
 783:Drivers/lvgl/src/misc/lv_printf.c ****                 idx = _ftoa(out, buffer, idx, maxlen, va_arg(va, double), precision, width, flags);
 784:Drivers/lvgl/src/misc/lv_printf.c ****                 format++;
 785:Drivers/lvgl/src/misc/lv_printf.c ****                 break;
 786:Drivers/lvgl/src/misc/lv_printf.c **** #if defined(PRINTF_SUPPORT_EXPONENTIAL)
 787:Drivers/lvgl/src/misc/lv_printf.c ****             case 'e':
 788:Drivers/lvgl/src/misc/lv_printf.c ****             case 'E':
 789:Drivers/lvgl/src/misc/lv_printf.c ****             case 'g':
 790:Drivers/lvgl/src/misc/lv_printf.c ****             case 'G':
 791:Drivers/lvgl/src/misc/lv_printf.c ****                 if((*format == 'g') || (*format == 'G')) flags |= FLAGS_ADAPT_EXP;
 792:Drivers/lvgl/src/misc/lv_printf.c ****                 if((*format == 'E') || (*format == 'G')) flags |= FLAGS_UPPERCASE;
 793:Drivers/lvgl/src/misc/lv_printf.c ****                 idx = _etoa(out, buffer, idx, maxlen, va_arg(va, double), precision, width, flags);
 794:Drivers/lvgl/src/misc/lv_printf.c ****                 format++;
 795:Drivers/lvgl/src/misc/lv_printf.c ****                 break;
 796:Drivers/lvgl/src/misc/lv_printf.c **** #endif  // PRINTF_SUPPORT_EXPONENTIAL
 797:Drivers/lvgl/src/misc/lv_printf.c **** #endif  // PRINTF_SUPPORT_FLOAT
 798:Drivers/lvgl/src/misc/lv_printf.c ****             case 'c' : {
 799:Drivers/lvgl/src/misc/lv_printf.c ****                     unsigned int l = 1U;
 800:Drivers/lvgl/src/misc/lv_printf.c ****                     // pre padding
 801:Drivers/lvgl/src/misc/lv_printf.c ****                     if(!(flags & FLAGS_LEFT)) {
 802:Drivers/lvgl/src/misc/lv_printf.c ****                         while(l++ < width) {
 803:Drivers/lvgl/src/misc/lv_printf.c ****                             out(' ', buffer, idx++, maxlen);
 804:Drivers/lvgl/src/misc/lv_printf.c ****                         }
 805:Drivers/lvgl/src/misc/lv_printf.c ****                     }
 806:Drivers/lvgl/src/misc/lv_printf.c ****                     // char output
 807:Drivers/lvgl/src/misc/lv_printf.c ****                     out((char)va_arg(va, int), buffer, idx++, maxlen);
 808:Drivers/lvgl/src/misc/lv_printf.c ****                     // post padding
 809:Drivers/lvgl/src/misc/lv_printf.c ****                     if(flags & FLAGS_LEFT) {
 810:Drivers/lvgl/src/misc/lv_printf.c ****                         while(l++ < width) {
 811:Drivers/lvgl/src/misc/lv_printf.c ****                             out(' ', buffer, idx++, maxlen);
 812:Drivers/lvgl/src/misc/lv_printf.c ****                         }
 813:Drivers/lvgl/src/misc/lv_printf.c ****                     }
 814:Drivers/lvgl/src/misc/lv_printf.c ****                     format++;
 815:Drivers/lvgl/src/misc/lv_printf.c ****                     break;
 816:Drivers/lvgl/src/misc/lv_printf.c ****                 }
 817:Drivers/lvgl/src/misc/lv_printf.c **** 
 818:Drivers/lvgl/src/misc/lv_printf.c ****             case 's' : {
 819:Drivers/lvgl/src/misc/lv_printf.c ****                     const char * p = va_arg(va, char *);
 820:Drivers/lvgl/src/misc/lv_printf.c ****                     unsigned int l = _strnlen_s(p, precision ? precision : (size_t) -1);
 821:Drivers/lvgl/src/misc/lv_printf.c ****                     // pre padding
 822:Drivers/lvgl/src/misc/lv_printf.c ****                     if(flags & FLAGS_PRECISION) {
 823:Drivers/lvgl/src/misc/lv_printf.c ****                         l = (l < precision ? l : precision);
 824:Drivers/lvgl/src/misc/lv_printf.c ****                     }
ARM GAS  /var/folders/lp/x54gwt890xv47sdkqj1k04q40000gn/T//ccmljrTB.s 			page 33


 825:Drivers/lvgl/src/misc/lv_printf.c ****                     if(!(flags & FLAGS_LEFT)) {
 826:Drivers/lvgl/src/misc/lv_printf.c ****                         while(l++ < width) {
 827:Drivers/lvgl/src/misc/lv_printf.c ****                             out(' ', buffer, idx++, maxlen);
 828:Drivers/lvgl/src/misc/lv_printf.c ****                         }
 829:Drivers/lvgl/src/misc/lv_printf.c ****                     }
 830:Drivers/lvgl/src/misc/lv_printf.c ****                     // string output
 831:Drivers/lvgl/src/misc/lv_printf.c ****                     while((*p != 0) && (!(flags & FLAGS_PRECISION) || precision--)) {
 832:Drivers/lvgl/src/misc/lv_printf.c ****                         out(*(p++), buffer, idx++, maxlen);
 833:Drivers/lvgl/src/misc/lv_printf.c ****                     }
 834:Drivers/lvgl/src/misc/lv_printf.c ****                     // post padding
 835:Drivers/lvgl/src/misc/lv_printf.c ****                     if(flags & FLAGS_LEFT) {
 836:Drivers/lvgl/src/misc/lv_printf.c ****                         while(l++ < width) {
 837:Drivers/lvgl/src/misc/lv_printf.c ****                             out(' ', buffer, idx++, maxlen);
 838:Drivers/lvgl/src/misc/lv_printf.c ****                         }
 839:Drivers/lvgl/src/misc/lv_printf.c ****                     }
 840:Drivers/lvgl/src/misc/lv_printf.c ****                     format++;
 841:Drivers/lvgl/src/misc/lv_printf.c ****                     break;
 842:Drivers/lvgl/src/misc/lv_printf.c ****                 }
 843:Drivers/lvgl/src/misc/lv_printf.c **** 
 844:Drivers/lvgl/src/misc/lv_printf.c ****             case '%' :
 845:Drivers/lvgl/src/misc/lv_printf.c ****                 out('%', buffer, idx++, maxlen);
 923              		.loc 1 845 17 view .LVU240
 924 0014 0025     		movs	r5, #0
 925              	.LVL94:
 926              	.L150:
 560:Drivers/lvgl/src/misc/lv_printf.c ****         // format specifier?  %[flags][width][.precision][length]
 927              		.loc 1 560 11 is_stmt 1 view .LVU241
 928 0016 0F9B     		ldr	r3, [sp, #60]
 929 0018 1878     		ldrb	r0, [r3]	@ zero_extendqisi2
 930 001a 0028     		cmp	r0, #0
 931 001c 00F0CC82 		beq	.L167
 562:Drivers/lvgl/src/misc/lv_printf.c ****             // no
 932              		.loc 1 562 9 view .LVU242
 562:Drivers/lvgl/src/misc/lv_printf.c ****             // no
 933              		.loc 1 562 11 is_stmt 0 view .LVU243
 934 0020 2528     		cmp	r0, #37
 935 0022 09D0     		beq	.L75
 564:Drivers/lvgl/src/misc/lv_printf.c ****             format++;
 936              		.loc 1 564 13 is_stmt 1 view .LVU244
 937 0024 6C1C     		adds	r4, r5, #1
 938              	.LVL95:
 564:Drivers/lvgl/src/misc/lv_printf.c ****             format++;
 939              		.loc 1 564 13 is_stmt 0 view .LVU245
 940 0026 3B46     		mov	r3, r7
 941 0028 2A46     		mov	r2, r5
 942 002a 5946     		mov	r1, fp
 943 002c C047     		blx	r8
 944              	.LVL96:
 565:Drivers/lvgl/src/misc/lv_printf.c ****             continue;
 945              		.loc 1 565 13 is_stmt 1 view .LVU246
 565:Drivers/lvgl/src/misc/lv_printf.c ****             continue;
 946              		.loc 1 565 19 is_stmt 0 view .LVU247
 947 002e 0F9B     		ldr	r3, [sp, #60]
 948 0030 0133     		adds	r3, r3, #1
 949 0032 0F93     		str	r3, [sp, #60]
 566:Drivers/lvgl/src/misc/lv_printf.c ****         }
 950              		.loc 1 566 13 is_stmt 1 view .LVU248
ARM GAS  /var/folders/lp/x54gwt890xv47sdkqj1k04q40000gn/T//ccmljrTB.s 			page 34


 564:Drivers/lvgl/src/misc/lv_printf.c ****             format++;
 951              		.loc 1 564 13 is_stmt 0 view .LVU249
 952 0034 2546     		mov	r5, r4
 566:Drivers/lvgl/src/misc/lv_printf.c ****         }
 953              		.loc 1 566 13 view .LVU250
 954 0036 EEE7     		b	.L150
 955              	.LVL97:
 956              	.L75:
 570:Drivers/lvgl/src/misc/lv_printf.c ****         }
 957              		.loc 1 570 13 is_stmt 1 view .LVU251
 570:Drivers/lvgl/src/misc/lv_printf.c ****         }
 958              		.loc 1 570 19 is_stmt 0 view .LVU252
 959 0038 0133     		adds	r3, r3, #1
 960 003a 0F93     		str	r3, [sp, #60]
 574:Drivers/lvgl/src/misc/lv_printf.c ****         do {
 961              		.loc 1 574 9 is_stmt 1 view .LVU253
 962              	.LVL98:
 574:Drivers/lvgl/src/misc/lv_printf.c ****         do {
 963              		.loc 1 574 15 is_stmt 0 view .LVU254
 964 003c 0026     		movs	r6, #0
 965 003e 1FE0     		b	.L84
 966              	.LVL99:
 967              	.L78:
 578:Drivers/lvgl/src/misc/lv_printf.c ****                     format++;
 968              		.loc 1 578 21 is_stmt 1 view .LVU255
 578:Drivers/lvgl/src/misc/lv_printf.c ****                     format++;
 969              		.loc 1 578 27 is_stmt 0 view .LVU256
 970 0040 46F00106 		orr	r6, r6, #1
 971              	.LVL100:
 579:Drivers/lvgl/src/misc/lv_printf.c ****                     n = 1U;
 972              		.loc 1 579 21 is_stmt 1 view .LVU257
 579:Drivers/lvgl/src/misc/lv_printf.c ****                     n = 1U;
 973              		.loc 1 579 27 is_stmt 0 view .LVU258
 974 0044 0132     		adds	r2, r2, #1
 975 0046 0F92     		str	r2, [sp, #60]
 580:Drivers/lvgl/src/misc/lv_printf.c ****                     break;
 976              		.loc 1 580 21 is_stmt 1 view .LVU259
 977              	.LVL101:
 581:Drivers/lvgl/src/misc/lv_printf.c ****                 case '-':
 978              		.loc 1 581 21 view .LVU260
 580:Drivers/lvgl/src/misc/lv_printf.c ****                     break;
 979              		.loc 1 580 23 is_stmt 0 view .LVU261
 980 0048 0123     		movs	r3, #1
 581:Drivers/lvgl/src/misc/lv_printf.c ****                 case '-':
 981              		.loc 1 581 21 view .LVU262
 982 004a 18E0     		b	.L77
 983              	.LVL102:
 984              	.L80:
 583:Drivers/lvgl/src/misc/lv_printf.c ****                     format++;
 985              		.loc 1 583 21 is_stmt 1 view .LVU263
 583:Drivers/lvgl/src/misc/lv_printf.c ****                     format++;
 986              		.loc 1 583 27 is_stmt 0 view .LVU264
 987 004c 46F00206 		orr	r6, r6, #2
 988              	.LVL103:
 584:Drivers/lvgl/src/misc/lv_printf.c ****                     n = 1U;
 989              		.loc 1 584 21 is_stmt 1 view .LVU265
 584:Drivers/lvgl/src/misc/lv_printf.c ****                     n = 1U;
ARM GAS  /var/folders/lp/x54gwt890xv47sdkqj1k04q40000gn/T//ccmljrTB.s 			page 35


 990              		.loc 1 584 27 is_stmt 0 view .LVU266
 991 0050 0132     		adds	r2, r2, #1
 992 0052 0F92     		str	r2, [sp, #60]
 585:Drivers/lvgl/src/misc/lv_printf.c ****                     break;
 993              		.loc 1 585 21 is_stmt 1 view .LVU267
 994              	.LVL104:
 586:Drivers/lvgl/src/misc/lv_printf.c ****                 case '+':
 995              		.loc 1 586 21 view .LVU268
 585:Drivers/lvgl/src/misc/lv_printf.c ****                     break;
 996              		.loc 1 585 23 is_stmt 0 view .LVU269
 997 0054 0123     		movs	r3, #1
 586:Drivers/lvgl/src/misc/lv_printf.c ****                 case '+':
 998              		.loc 1 586 21 view .LVU270
 999 0056 12E0     		b	.L77
 1000              	.LVL105:
 1001              	.L81:
 588:Drivers/lvgl/src/misc/lv_printf.c ****                     format++;
 1002              		.loc 1 588 21 is_stmt 1 view .LVU271
 588:Drivers/lvgl/src/misc/lv_printf.c ****                     format++;
 1003              		.loc 1 588 27 is_stmt 0 view .LVU272
 1004 0058 46F00406 		orr	r6, r6, #4
 1005              	.LVL106:
 589:Drivers/lvgl/src/misc/lv_printf.c ****                     n = 1U;
 1006              		.loc 1 589 21 is_stmt 1 view .LVU273
 589:Drivers/lvgl/src/misc/lv_printf.c ****                     n = 1U;
 1007              		.loc 1 589 27 is_stmt 0 view .LVU274
 1008 005c 0132     		adds	r2, r2, #1
 1009 005e 0F92     		str	r2, [sp, #60]
 590:Drivers/lvgl/src/misc/lv_printf.c ****                     break;
 1010              		.loc 1 590 21 is_stmt 1 view .LVU275
 1011              	.LVL107:
 591:Drivers/lvgl/src/misc/lv_printf.c ****                 case ' ':
 1012              		.loc 1 591 21 view .LVU276
 590:Drivers/lvgl/src/misc/lv_printf.c ****                     break;
 1013              		.loc 1 590 23 is_stmt 0 view .LVU277
 1014 0060 0123     		movs	r3, #1
 591:Drivers/lvgl/src/misc/lv_printf.c ****                 case ' ':
 1015              		.loc 1 591 21 view .LVU278
 1016 0062 0CE0     		b	.L77
 1017              	.LVL108:
 1018              	.L83:
 593:Drivers/lvgl/src/misc/lv_printf.c ****                     format++;
 1019              		.loc 1 593 21 is_stmt 1 view .LVU279
 593:Drivers/lvgl/src/misc/lv_printf.c ****                     format++;
 1020              		.loc 1 593 27 is_stmt 0 view .LVU280
 1021 0064 46F00806 		orr	r6, r6, #8
 1022              	.LVL109:
 594:Drivers/lvgl/src/misc/lv_printf.c ****                     n = 1U;
 1023              		.loc 1 594 21 is_stmt 1 view .LVU281
 594:Drivers/lvgl/src/misc/lv_printf.c ****                     n = 1U;
 1024              		.loc 1 594 27 is_stmt 0 view .LVU282
 1025 0068 0132     		adds	r2, r2, #1
 1026 006a 0F92     		str	r2, [sp, #60]
 595:Drivers/lvgl/src/misc/lv_printf.c ****                     break;
 1027              		.loc 1 595 21 is_stmt 1 view .LVU283
 1028              	.LVL110:
 596:Drivers/lvgl/src/misc/lv_printf.c ****                 case '#':
ARM GAS  /var/folders/lp/x54gwt890xv47sdkqj1k04q40000gn/T//ccmljrTB.s 			page 36


 1029              		.loc 1 596 21 view .LVU284
 595:Drivers/lvgl/src/misc/lv_printf.c ****                     break;
 1030              		.loc 1 595 23 is_stmt 0 view .LVU285
 1031 006c 0123     		movs	r3, #1
 596:Drivers/lvgl/src/misc/lv_printf.c ****                 case '#':
 1032              		.loc 1 596 21 view .LVU286
 1033 006e 06E0     		b	.L77
 1034              	.LVL111:
 1035              	.L82:
 598:Drivers/lvgl/src/misc/lv_printf.c ****                     format++;
 1036              		.loc 1 598 21 is_stmt 1 view .LVU287
 598:Drivers/lvgl/src/misc/lv_printf.c ****                     format++;
 1037              		.loc 1 598 27 is_stmt 0 view .LVU288
 1038 0070 46F01006 		orr	r6, r6, #16
 1039              	.LVL112:
 599:Drivers/lvgl/src/misc/lv_printf.c ****                     n = 1U;
 1040              		.loc 1 599 21 is_stmt 1 view .LVU289
 599:Drivers/lvgl/src/misc/lv_printf.c ****                     n = 1U;
 1041              		.loc 1 599 27 is_stmt 0 view .LVU290
 1042 0074 0132     		adds	r2, r2, #1
 1043 0076 0F92     		str	r2, [sp, #60]
 600:Drivers/lvgl/src/misc/lv_printf.c ****                     break;
 1044              		.loc 1 600 21 is_stmt 1 view .LVU291
 1045              	.LVL113:
 601:Drivers/lvgl/src/misc/lv_printf.c ****                 default :
 1046              		.loc 1 601 21 view .LVU292
 600:Drivers/lvgl/src/misc/lv_printf.c ****                     break;
 1047              		.loc 1 600 23 is_stmt 0 view .LVU293
 1048 0078 0123     		movs	r3, #1
 601:Drivers/lvgl/src/misc/lv_printf.c ****                 default :
 1049              		.loc 1 601 21 view .LVU294
 1050 007a 00E0     		b	.L77
 1051              	.LVL114:
 1052              	.L154:
 576:Drivers/lvgl/src/misc/lv_printf.c ****                 case '0':
 1053              		.loc 1 576 13 view .LVU295
 1054 007c 0023     		movs	r3, #0
 1055              	.L77:
 1056              	.LVL115:
 606:Drivers/lvgl/src/misc/lv_printf.c **** 
 1057              		.loc 1 606 17 is_stmt 1 view .LVU296
 1058 007e 4BB3     		cbz	r3, .L168
 1059              	.LVL116:
 1060              	.L84:
 575:Drivers/lvgl/src/misc/lv_printf.c ****             switch(*format) {
 1061              		.loc 1 575 9 view .LVU297
 576:Drivers/lvgl/src/misc/lv_printf.c ****                 case '0':
 1062              		.loc 1 576 13 view .LVU298
 576:Drivers/lvgl/src/misc/lv_printf.c ****                 case '0':
 1063              		.loc 1 576 20 is_stmt 0 view .LVU299
 1064 0080 0F9A     		ldr	r2, [sp, #60]
 1065 0082 1378     		ldrb	r3, [r2]	@ zero_extendqisi2
 576:Drivers/lvgl/src/misc/lv_printf.c ****                 case '0':
 1066              		.loc 1 576 13 view .LVU300
 1067 0084 203B     		subs	r3, r3, #32
 1068 0086 102B     		cmp	r3, #16
 1069 0088 F8D8     		bhi	.L154
ARM GAS  /var/folders/lp/x54gwt890xv47sdkqj1k04q40000gn/T//ccmljrTB.s 			page 37


 1070 008a 01A1     		adr	r1, .L79
 1071 008c 51F823F0 		ldr	pc, [r1, r3, lsl #2]
 1072              		.p2align 2
 1073              	.L79:
 1074 0090 65000000 		.word	.L83+1
 1075 0094 7D000000 		.word	.L154+1
 1076 0098 7D000000 		.word	.L154+1
 1077 009c 71000000 		.word	.L82+1
 1078 00a0 7D000000 		.word	.L154+1
 1079 00a4 7D000000 		.word	.L154+1
 1080 00a8 7D000000 		.word	.L154+1
 1081 00ac 7D000000 		.word	.L154+1
 1082 00b0 7D000000 		.word	.L154+1
 1083 00b4 7D000000 		.word	.L154+1
 1084 00b8 7D000000 		.word	.L154+1
 1085 00bc 59000000 		.word	.L81+1
 1086 00c0 7D000000 		.word	.L154+1
 1087 00c4 4D000000 		.word	.L80+1
 1088 00c8 7D000000 		.word	.L154+1
 1089 00cc 7D000000 		.word	.L154+1
 1090 00d0 41000000 		.word	.L78+1
 1091              	.LVL117:
 1092              		.p2align 1
 1093              	.L168:
 610:Drivers/lvgl/src/misc/lv_printf.c ****             width = _atoi(&format);
 1094              		.loc 1 610 12 view .LVU301
 1095 00d4 0B93     		str	r3, [sp, #44]
 609:Drivers/lvgl/src/misc/lv_printf.c ****         if(_is_digit(*format)) {
 1096              		.loc 1 609 9 is_stmt 1 view .LVU302
 1097              	.LVL118:
 610:Drivers/lvgl/src/misc/lv_printf.c ****             width = _atoi(&format);
 1098              		.loc 1 610 9 view .LVU303
 610:Drivers/lvgl/src/misc/lv_printf.c ****             width = _atoi(&format);
 1099              		.loc 1 610 12 is_stmt 0 view .LVU304
 1100 00d6 0F9B     		ldr	r3, [sp, #60]
 1101              	.LVL119:
 610:Drivers/lvgl/src/misc/lv_printf.c ****             width = _atoi(&format);
 1102              		.loc 1 610 12 view .LVU305
 1103 00d8 1A78     		ldrb	r2, [r3]	@ zero_extendqisi2
 1104              	.LVL120:
 1105              	.LBB30:
 1106              	.LBI30:
 152:Drivers/lvgl/src/misc/lv_printf.c **** {
 1107              		.loc 1 152 20 is_stmt 1 view .LVU306
 1108              	.LBB31:
 154:Drivers/lvgl/src/misc/lv_printf.c **** }
 1109              		.loc 1 154 5 view .LVU307
 154:Drivers/lvgl/src/misc/lv_printf.c **** }
 1110              		.loc 1 154 24 is_stmt 0 view .LVU308
 1111 00da A2F13003 		sub	r3, r2, #48
 1112 00de DBB2     		uxtb	r3, r3
 1113              	.LVL121:
 154:Drivers/lvgl/src/misc/lv_printf.c **** }
 1114              		.loc 1 154 24 view .LVU309
 1115              	.LBE31:
 1116              	.LBE30:
 610:Drivers/lvgl/src/misc/lv_printf.c ****             width = _atoi(&format);
ARM GAS  /var/folders/lp/x54gwt890xv47sdkqj1k04q40000gn/T//ccmljrTB.s 			page 38


 1117              		.loc 1 610 11 discriminator 1 view .LVU310
 1118 00e0 092B     		cmp	r3, #9
 1119 00e2 18D9     		bls	.L169
 613:Drivers/lvgl/src/misc/lv_printf.c ****             const int w = va_arg(va, int);
 1120              		.loc 1 613 14 is_stmt 1 view .LVU311
 613:Drivers/lvgl/src/misc/lv_printf.c ****             const int w = va_arg(va, int);
 1121              		.loc 1 613 16 is_stmt 0 view .LVU312
 1122 00e4 2A2A     		cmp	r2, #42
 1123 00e6 1BD0     		beq	.L170
 609:Drivers/lvgl/src/misc/lv_printf.c ****         if(_is_digit(*format)) {
 1124              		.loc 1 609 15 view .LVU313
 1125 00e8 DDF82CA0 		ldr	r10, [sp, #44]
 1126              	.LVL122:
 1127              	.L86:
 626:Drivers/lvgl/src/misc/lv_printf.c ****         if(*format == '.') {
 1128              		.loc 1 626 9 is_stmt 1 view .LVU314
 627:Drivers/lvgl/src/misc/lv_printf.c ****             flags |= FLAGS_PRECISION;
 1129              		.loc 1 627 9 view .LVU315
 627:Drivers/lvgl/src/misc/lv_printf.c ****             flags |= FLAGS_PRECISION;
 1130              		.loc 1 627 12 is_stmt 0 view .LVU316
 1131 00ec 0F9B     		ldr	r3, [sp, #60]
 1132 00ee 1A78     		ldrb	r2, [r3]	@ zero_extendqisi2
 627:Drivers/lvgl/src/misc/lv_printf.c ****             flags |= FLAGS_PRECISION;
 1133              		.loc 1 627 11 view .LVU317
 1134 00f0 2E2A     		cmp	r2, #46
 1135 00f2 25D0     		beq	.L171
 1136              	.LVL123:
 1137              	.L89:
 641:Drivers/lvgl/src/misc/lv_printf.c ****             case 'l' :
 1138              		.loc 1 641 9 is_stmt 1 view .LVU318
 641:Drivers/lvgl/src/misc/lv_printf.c ****             case 'l' :
 1139              		.loc 1 641 16 is_stmt 0 view .LVU319
 1140 00f4 0F9A     		ldr	r2, [sp, #60]
 1141 00f6 1378     		ldrb	r3, [r2]	@ zero_extendqisi2
 641:Drivers/lvgl/src/misc/lv_printf.c ****             case 'l' :
 1142              		.loc 1 641 9 view .LVU320
 1143 00f8 683B     		subs	r3, r3, #104
 1144 00fa 122B     		cmp	r3, #18
 1145 00fc 5CD8     		bhi	.L91
 1146 00fe DFE803F0 		tbb	[pc, r3]
 1147              	.L93:
 1148 0102 49       		.byte	(.L97-.L93)/2
 1149 0103 5B       		.byte	(.L91-.L93)/2
 1150 0104 7B       		.byte	(.L96-.L93)/2
 1151 0105 5B       		.byte	(.L91-.L93)/2
 1152 0106 3B       		.byte	(.L95-.L93)/2
 1153 0107 5B       		.byte	(.L91-.L93)/2
 1154 0108 5B       		.byte	(.L91-.L93)/2
 1155 0109 5B       		.byte	(.L91-.L93)/2
 1156 010a 5B       		.byte	(.L91-.L93)/2
 1157 010b 5B       		.byte	(.L91-.L93)/2
 1158 010c 5B       		.byte	(.L91-.L93)/2
 1159 010d 5B       		.byte	(.L91-.L93)/2
 1160 010e 57       		.byte	(.L94-.L93)/2
 1161 010f 5B       		.byte	(.L91-.L93)/2
 1162 0110 5B       		.byte	(.L91-.L93)/2
 1163 0111 5B       		.byte	(.L91-.L93)/2
ARM GAS  /var/folders/lp/x54gwt890xv47sdkqj1k04q40000gn/T//ccmljrTB.s 			page 39


 1164 0112 5B       		.byte	(.L91-.L93)/2
 1165 0113 5B       		.byte	(.L91-.L93)/2
 1166 0114 80       		.byte	(.L92-.L93)/2
 1167              	.LVL124:
 1168 0115 00       		.p2align 1
 1169              	.L169:
 611:Drivers/lvgl/src/misc/lv_printf.c ****         }
 1170              		.loc 1 611 13 is_stmt 1 view .LVU321
 611:Drivers/lvgl/src/misc/lv_printf.c ****         }
 1171              		.loc 1 611 21 is_stmt 0 view .LVU322
 1172 0116 0FA8     		add	r0, sp, #60
 1173 0118 FFF7FEFF 		bl	_atoi
 1174              	.LVL125:
 1175 011c 8246     		mov	r10, r0
 1176              	.LVL126:
 611:Drivers/lvgl/src/misc/lv_printf.c ****         }
 1177              		.loc 1 611 21 view .LVU323
 1178 011e E5E7     		b	.L86
 1179              	.LVL127:
 1180              	.L170:
 1181              	.LBB32:
 614:Drivers/lvgl/src/misc/lv_printf.c ****             if(w < 0) {
 1182              		.loc 1 614 13 is_stmt 1 view .LVU324
 614:Drivers/lvgl/src/misc/lv_printf.c ****             if(w < 0) {
 1183              		.loc 1 614 23 is_stmt 0 view .LVU325
 1184 0120 1C9B     		ldr	r3, [sp, #112]
 1185 0122 1A1D     		adds	r2, r3, #4
 1186 0124 1C92     		str	r2, [sp, #112]
 1187 0126 1B68     		ldr	r3, [r3]
 615:Drivers/lvgl/src/misc/lv_printf.c ****                 flags |= FLAGS_LEFT;    // reverse padding
 1188              		.loc 1 615 13 is_stmt 1 view .LVU326
 615:Drivers/lvgl/src/misc/lv_printf.c ****                 flags |= FLAGS_LEFT;    // reverse padding
 1189              		.loc 1 615 15 is_stmt 0 view .LVU327
 1190 0128 002B     		cmp	r3, #0
 1191 012a 04DB     		blt	.L172
 620:Drivers/lvgl/src/misc/lv_printf.c ****             }
 1192              		.loc 1 620 17 is_stmt 1 view .LVU328
 620:Drivers/lvgl/src/misc/lv_printf.c ****             }
 1193              		.loc 1 620 23 is_stmt 0 view .LVU329
 1194 012c 9A46     		mov	r10, r3
 1195              	.LVL128:
 1196              	.L88:
 622:Drivers/lvgl/src/misc/lv_printf.c ****         }
 1197              		.loc 1 622 13 is_stmt 1 view .LVU330
 622:Drivers/lvgl/src/misc/lv_printf.c ****         }
 1198              		.loc 1 622 19 is_stmt 0 view .LVU331
 1199 012e 0F9B     		ldr	r3, [sp, #60]
 1200 0130 0133     		adds	r3, r3, #1
 1201 0132 0F93     		str	r3, [sp, #60]
 1202 0134 DAE7     		b	.L86
 1203              	.LVL129:
 1204              	.L172:
 616:Drivers/lvgl/src/misc/lv_printf.c ****                 width = (unsigned int) - w;
 1205              		.loc 1 616 17 is_stmt 1 view .LVU332
 616:Drivers/lvgl/src/misc/lv_printf.c ****                 width = (unsigned int) - w;
 1206              		.loc 1 616 23 is_stmt 0 view .LVU333
 1207 0136 46F00206 		orr	r6, r6, #2
ARM GAS  /var/folders/lp/x54gwt890xv47sdkqj1k04q40000gn/T//ccmljrTB.s 			page 40


 1208              	.LVL130:
 617:Drivers/lvgl/src/misc/lv_printf.c ****             }
 1209              		.loc 1 617 17 is_stmt 1 view .LVU334
 617:Drivers/lvgl/src/misc/lv_printf.c ****             }
 1210              		.loc 1 617 40 is_stmt 0 view .LVU335
 1211 013a C3F1000A 		rsb	r10, r3, #0
 1212              	.LVL131:
 617:Drivers/lvgl/src/misc/lv_printf.c ****             }
 1213              		.loc 1 617 40 view .LVU336
 1214 013e F6E7     		b	.L88
 1215              	.LVL132:
 1216              	.L171:
 617:Drivers/lvgl/src/misc/lv_printf.c ****             }
 1217              		.loc 1 617 40 view .LVU337
 1218              	.LBE32:
 628:Drivers/lvgl/src/misc/lv_printf.c ****             format++;
 1219              		.loc 1 628 13 is_stmt 1 view .LVU338
 628:Drivers/lvgl/src/misc/lv_printf.c ****             format++;
 1220              		.loc 1 628 19 is_stmt 0 view .LVU339
 1221 0140 46F48066 		orr	r6, r6, #1024
 1222              	.LVL133:
 629:Drivers/lvgl/src/misc/lv_printf.c ****             if(_is_digit(*format)) {
 1223              		.loc 1 629 13 is_stmt 1 view .LVU340
 629:Drivers/lvgl/src/misc/lv_printf.c ****             if(_is_digit(*format)) {
 1224              		.loc 1 629 19 is_stmt 0 view .LVU341
 1225 0144 5A1C     		adds	r2, r3, #1
 1226 0146 0F92     		str	r2, [sp, #60]
 630:Drivers/lvgl/src/misc/lv_printf.c ****                 precision = _atoi(&format);
 1227              		.loc 1 630 13 is_stmt 1 view .LVU342
 630:Drivers/lvgl/src/misc/lv_printf.c ****                 precision = _atoi(&format);
 1228              		.loc 1 630 16 is_stmt 0 view .LVU343
 1229 0148 5A78     		ldrb	r2, [r3, #1]	@ zero_extendqisi2
 1230              	.LVL134:
 1231              	.LBB33:
 1232              	.LBI33:
 152:Drivers/lvgl/src/misc/lv_printf.c **** {
 1233              		.loc 1 152 20 is_stmt 1 view .LVU344
 1234              	.LBB34:
 154:Drivers/lvgl/src/misc/lv_printf.c **** }
 1235              		.loc 1 154 5 view .LVU345
 154:Drivers/lvgl/src/misc/lv_printf.c **** }
 1236              		.loc 1 154 24 is_stmt 0 view .LVU346
 1237 014a A2F13003 		sub	r3, r2, #48
 1238 014e DBB2     		uxtb	r3, r3
 1239              	.LVL135:
 154:Drivers/lvgl/src/misc/lv_printf.c **** }
 1240              		.loc 1 154 24 view .LVU347
 1241              	.LBE34:
 1242              	.LBE33:
 630:Drivers/lvgl/src/misc/lv_printf.c ****                 precision = _atoi(&format);
 1243              		.loc 1 630 15 discriminator 1 view .LVU348
 1244 0150 092B     		cmp	r3, #9
 1245 0152 0CD9     		bls	.L173
 633:Drivers/lvgl/src/misc/lv_printf.c ****                 const int prec = (int)va_arg(va, int);
 1246              		.loc 1 633 18 is_stmt 1 view .LVU349
 633:Drivers/lvgl/src/misc/lv_printf.c ****                 const int prec = (int)va_arg(va, int);
 1247              		.loc 1 633 20 is_stmt 0 view .LVU350
ARM GAS  /var/folders/lp/x54gwt890xv47sdkqj1k04q40000gn/T//ccmljrTB.s 			page 41


 1248 0154 2A2A     		cmp	r2, #42
 1249 0156 CDD1     		bne	.L89
 1250              	.LBB35:
 634:Drivers/lvgl/src/misc/lv_printf.c ****                 precision = prec > 0 ? (unsigned int)prec : 0U;
 1251              		.loc 1 634 17 is_stmt 1 view .LVU351
 634:Drivers/lvgl/src/misc/lv_printf.c ****                 precision = prec > 0 ? (unsigned int)prec : 0U;
 1252              		.loc 1 634 27 is_stmt 0 view .LVU352
 1253 0158 1C9B     		ldr	r3, [sp, #112]
 1254 015a 1A1D     		adds	r2, r3, #4
 1255 015c 1C92     		str	r2, [sp, #112]
 1256 015e 1C68     		ldr	r4, [r3]
 635:Drivers/lvgl/src/misc/lv_printf.c ****                 format++;
 1257              		.loc 1 635 17 is_stmt 1 view .LVU353
 635:Drivers/lvgl/src/misc/lv_printf.c ****                 format++;
 1258              		.loc 1 635 59 is_stmt 0 view .LVU354
 1259 0160 24EAE473 		bic	r3, r4, r4, asr #31
 1260 0164 0B93     		str	r3, [sp, #44]
 1261              	.LVL136:
 636:Drivers/lvgl/src/misc/lv_printf.c ****             }
 1262              		.loc 1 636 17 is_stmt 1 view .LVU355
 636:Drivers/lvgl/src/misc/lv_printf.c ****             }
 1263              		.loc 1 636 23 is_stmt 0 view .LVU356
 1264 0166 0F9B     		ldr	r3, [sp, #60]
 1265              	.LVL137:
 636:Drivers/lvgl/src/misc/lv_printf.c ****             }
 1266              		.loc 1 636 23 view .LVU357
 1267 0168 0133     		adds	r3, r3, #1
 1268 016a 0F93     		str	r3, [sp, #60]
 1269 016c C2E7     		b	.L89
 1270              	.LVL138:
 1271              	.L173:
 636:Drivers/lvgl/src/misc/lv_printf.c ****             }
 1272              		.loc 1 636 23 view .LVU358
 1273              	.LBE35:
 631:Drivers/lvgl/src/misc/lv_printf.c ****             }
 1274              		.loc 1 631 17 is_stmt 1 view .LVU359
 631:Drivers/lvgl/src/misc/lv_printf.c ****             }
 1275              		.loc 1 631 29 is_stmt 0 view .LVU360
 1276 016e 0FA8     		add	r0, sp, #60
 1277 0170 FFF7FEFF 		bl	_atoi
 1278              	.LVL139:
 1279 0174 0B90     		str	r0, [sp, #44]
 1280              	.LVL140:
 631:Drivers/lvgl/src/misc/lv_printf.c ****             }
 1281              		.loc 1 631 29 view .LVU361
 1282 0176 BDE7     		b	.L89
 1283              	.LVL141:
 1284              	.L95:
 643:Drivers/lvgl/src/misc/lv_printf.c ****                 format++;
 1285              		.loc 1 643 17 is_stmt 1 view .LVU362
 643:Drivers/lvgl/src/misc/lv_printf.c ****                 format++;
 1286              		.loc 1 643 23 is_stmt 0 view .LVU363
 1287 0178 46F48071 		orr	r1, r6, #256
 1288              	.LVL142:
 644:Drivers/lvgl/src/misc/lv_printf.c ****                 if(*format == 'l') {
 1289              		.loc 1 644 17 is_stmt 1 view .LVU364
 644:Drivers/lvgl/src/misc/lv_printf.c ****                 if(*format == 'l') {
ARM GAS  /var/folders/lp/x54gwt890xv47sdkqj1k04q40000gn/T//ccmljrTB.s 			page 42


 1290              		.loc 1 644 23 is_stmt 0 view .LVU365
 1291 017c 531C     		adds	r3, r2, #1
 1292 017e 0F93     		str	r3, [sp, #60]
 645:Drivers/lvgl/src/misc/lv_printf.c ****                     flags |= FLAGS_LONG_LONG;
 1293              		.loc 1 645 17 is_stmt 1 view .LVU366
 645:Drivers/lvgl/src/misc/lv_printf.c ****                     flags |= FLAGS_LONG_LONG;
 1294              		.loc 1 645 20 is_stmt 0 view .LVU367
 1295 0180 5378     		ldrb	r3, [r2, #1]	@ zero_extendqisi2
 645:Drivers/lvgl/src/misc/lv_printf.c ****                     flags |= FLAGS_LONG_LONG;
 1296              		.loc 1 645 19 view .LVU368
 1297 0182 6C2B     		cmp	r3, #108
 1298 0184 01D0     		beq	.L174
 643:Drivers/lvgl/src/misc/lv_printf.c ****                 format++;
 1299              		.loc 1 643 23 view .LVU369
 1300 0186 0E46     		mov	r6, r1
 1301 0188 16E0     		b	.L91
 1302              	.L174:
 646:Drivers/lvgl/src/misc/lv_printf.c ****                     format++;
 1303              		.loc 1 646 21 is_stmt 1 view .LVU370
 646:Drivers/lvgl/src/misc/lv_printf.c ****                     format++;
 1304              		.loc 1 646 27 is_stmt 0 view .LVU371
 1305 018a 46F44076 		orr	r6, r6, #768
 1306              	.LVL143:
 647:Drivers/lvgl/src/misc/lv_printf.c ****                 }
 1307              		.loc 1 647 21 is_stmt 1 view .LVU372
 647:Drivers/lvgl/src/misc/lv_printf.c ****                 }
 1308              		.loc 1 647 27 is_stmt 0 view .LVU373
 1309 018e 0232     		adds	r2, r2, #2
 1310 0190 0F92     		str	r2, [sp, #60]
 1311 0192 11E0     		b	.L91
 1312              	.L97:
 651:Drivers/lvgl/src/misc/lv_printf.c ****                 format++;
 1313              		.loc 1 651 17 is_stmt 1 view .LVU374
 651:Drivers/lvgl/src/misc/lv_printf.c ****                 format++;
 1314              		.loc 1 651 23 is_stmt 0 view .LVU375
 1315 0194 46F08001 		orr	r1, r6, #128
 1316              	.LVL144:
 652:Drivers/lvgl/src/misc/lv_printf.c ****                 if(*format == 'h') {
 1317              		.loc 1 652 17 is_stmt 1 view .LVU376
 652:Drivers/lvgl/src/misc/lv_printf.c ****                 if(*format == 'h') {
 1318              		.loc 1 652 23 is_stmt 0 view .LVU377
 1319 0198 531C     		adds	r3, r2, #1
 1320 019a 0F93     		str	r3, [sp, #60]
 653:Drivers/lvgl/src/misc/lv_printf.c ****                     flags |= FLAGS_CHAR;
 1321              		.loc 1 653 17 is_stmt 1 view .LVU378
 653:Drivers/lvgl/src/misc/lv_printf.c ****                     flags |= FLAGS_CHAR;
 1322              		.loc 1 653 20 is_stmt 0 view .LVU379
 1323 019c 5378     		ldrb	r3, [r2, #1]	@ zero_extendqisi2
 653:Drivers/lvgl/src/misc/lv_printf.c ****                     flags |= FLAGS_CHAR;
 1324              		.loc 1 653 19 view .LVU380
 1325 019e 682B     		cmp	r3, #104
 1326 01a0 01D0     		beq	.L175
 651:Drivers/lvgl/src/misc/lv_printf.c ****                 format++;
 1327              		.loc 1 651 23 view .LVU381
 1328 01a2 0E46     		mov	r6, r1
 1329 01a4 08E0     		b	.L91
 1330              	.L175:
ARM GAS  /var/folders/lp/x54gwt890xv47sdkqj1k04q40000gn/T//ccmljrTB.s 			page 43


 654:Drivers/lvgl/src/misc/lv_printf.c ****                     format++;
 1331              		.loc 1 654 21 is_stmt 1 view .LVU382
 654:Drivers/lvgl/src/misc/lv_printf.c ****                     format++;
 1332              		.loc 1 654 27 is_stmt 0 view .LVU383
 1333 01a6 46F0C006 		orr	r6, r6, #192
 1334              	.LVL145:
 655:Drivers/lvgl/src/misc/lv_printf.c ****                 }
 1335              		.loc 1 655 21 is_stmt 1 view .LVU384
 655:Drivers/lvgl/src/misc/lv_printf.c ****                 }
 1336              		.loc 1 655 27 is_stmt 0 view .LVU385
 1337 01aa 0232     		adds	r2, r2, #2
 1338 01ac 0F92     		str	r2, [sp, #60]
 1339 01ae 03E0     		b	.L91
 1340              	.L94:
 660:Drivers/lvgl/src/misc/lv_printf.c ****                 format++;
 1341              		.loc 1 660 17 is_stmt 1 view .LVU386
 660:Drivers/lvgl/src/misc/lv_printf.c ****                 format++;
 1342              		.loc 1 660 23 is_stmt 0 view .LVU387
 1343 01b0 46F48076 		orr	r6, r6, #256
 1344              	.LVL146:
 661:Drivers/lvgl/src/misc/lv_printf.c ****                 break;
 1345              		.loc 1 661 17 is_stmt 1 view .LVU388
 661:Drivers/lvgl/src/misc/lv_printf.c ****                 break;
 1346              		.loc 1 661 23 is_stmt 0 view .LVU389
 1347 01b4 0132     		adds	r2, r2, #1
 1348 01b6 0F92     		str	r2, [sp, #60]
 662:Drivers/lvgl/src/misc/lv_printf.c **** #endif
 1349              		.loc 1 662 17 is_stmt 1 view .LVU390
 1350              	.L91:
 677:Drivers/lvgl/src/misc/lv_printf.c ****             case 'd' :
 1351              		.loc 1 677 9 view .LVU391
 677:Drivers/lvgl/src/misc/lv_printf.c ****             case 'd' :
 1352              		.loc 1 677 16 is_stmt 0 view .LVU392
 1353 01b8 0F99     		ldr	r1, [sp, #60]
 1354 01ba 0878     		ldrb	r0, [r1]	@ zero_extendqisi2
 677:Drivers/lvgl/src/misc/lv_printf.c ****             case 'd' :
 1355              		.loc 1 677 9 view .LVU393
 1356 01bc 7828     		cmp	r0, #120
 1357 01be 11D8     		bhi	.L98
 677:Drivers/lvgl/src/misc/lv_printf.c ****             case 'd' :
 1358              		.loc 1 677 9 view .LVU394
 1359 01c0 6228     		cmp	r0, #98
 1360 01c2 23D3     		bcc	.L176
 1361 01c4 A0F16202 		sub	r2, r0, #98
 1362 01c8 D2B2     		uxtb	r2, r2
 1363 01ca 0123     		movs	r3, #1
 1364 01cc 9340     		lsls	r3, r3, r2
 1365 01ce 8D4A     		ldr	r2, .L188
 1366 01d0 1A40     		ands	r2, r2, r3
 1367 01d2 6ABB     		cbnz	r2, .L101
 1368 01d4 13F4003F 		tst	r3, #131072
 1369 01d8 40F08681 		bne	.L102
 1370 01dc 13F0020F 		tst	r3, #2
 1371 01e0 40F05081 		bne	.L177
 1372              	.L98:
 846:Drivers/lvgl/src/misc/lv_printf.c ****                 format++;
 847:Drivers/lvgl/src/misc/lv_printf.c ****                 break;
ARM GAS  /var/folders/lp/x54gwt890xv47sdkqj1k04q40000gn/T//ccmljrTB.s 			page 44


 848:Drivers/lvgl/src/misc/lv_printf.c **** 
 849:Drivers/lvgl/src/misc/lv_printf.c ****             default :
 850:Drivers/lvgl/src/misc/lv_printf.c ****                 out(*format, buffer, idx++, maxlen);
 1373              		.loc 1 850 17 is_stmt 1 view .LVU395
 1374 01e4 6C1C     		adds	r4, r5, #1
 1375              	.LVL147:
 1376              		.loc 1 850 17 is_stmt 0 view .LVU396
 1377 01e6 3B46     		mov	r3, r7
 1378 01e8 2A46     		mov	r2, r5
 1379 01ea 5946     		mov	r1, fp
 1380 01ec C047     		blx	r8
 1381              	.LVL148:
 851:Drivers/lvgl/src/misc/lv_printf.c ****                 format++;
 1382              		.loc 1 851 17 is_stmt 1 view .LVU397
 1383              		.loc 1 851 23 is_stmt 0 view .LVU398
 1384 01ee 0F9B     		ldr	r3, [sp, #60]
 1385 01f0 0133     		adds	r3, r3, #1
 1386 01f2 0F93     		str	r3, [sp, #60]
 852:Drivers/lvgl/src/misc/lv_printf.c ****                 break;
 1387              		.loc 1 852 17 is_stmt 1 view .LVU399
 850:Drivers/lvgl/src/misc/lv_printf.c ****                 format++;
 1388              		.loc 1 850 17 is_stmt 0 view .LVU400
 1389 01f4 2546     		mov	r5, r4
 1390              		.loc 1 852 17 view .LVU401
 1391 01f6 0EE7     		b	.L150
 1392              	.LVL149:
 1393              	.L96:
 665:Drivers/lvgl/src/misc/lv_printf.c ****                 format++;
 1394              		.loc 1 665 17 is_stmt 1 view .LVU402
 665:Drivers/lvgl/src/misc/lv_printf.c ****                 format++;
 1395              		.loc 1 665 23 is_stmt 0 view .LVU403
 1396 01f8 46F40076 		orr	r6, r6, #512
 1397              	.LVL150:
 666:Drivers/lvgl/src/misc/lv_printf.c ****                 break;
 1398              		.loc 1 666 17 is_stmt 1 view .LVU404
 666:Drivers/lvgl/src/misc/lv_printf.c ****                 break;
 1399              		.loc 1 666 23 is_stmt 0 view .LVU405
 1400 01fc 0132     		adds	r2, r2, #1
 1401 01fe 0F92     		str	r2, [sp, #60]
 667:Drivers/lvgl/src/misc/lv_printf.c ****             case 'z' :
 1402              		.loc 1 667 17 is_stmt 1 view .LVU406
 1403 0200 DAE7     		b	.L91
 1404              	.L92:
 669:Drivers/lvgl/src/misc/lv_printf.c ****                 format++;
 1405              		.loc 1 669 17 view .LVU407
 669:Drivers/lvgl/src/misc/lv_printf.c ****                 format++;
 1406              		.loc 1 669 23 is_stmt 0 view .LVU408
 1407 0202 46F48076 		orr	r6, r6, #256
 1408              	.LVL151:
 670:Drivers/lvgl/src/misc/lv_printf.c ****                 break;
 1409              		.loc 1 670 17 is_stmt 1 view .LVU409
 670:Drivers/lvgl/src/misc/lv_printf.c ****                 break;
 1410              		.loc 1 670 23 is_stmt 0 view .LVU410
 1411 0206 0132     		adds	r2, r2, #1
 1412 0208 0F92     		str	r2, [sp, #60]
 671:Drivers/lvgl/src/misc/lv_printf.c ****             default :
 1413              		.loc 1 671 17 is_stmt 1 view .LVU411
ARM GAS  /var/folders/lp/x54gwt890xv47sdkqj1k04q40000gn/T//ccmljrTB.s 			page 45


 1414 020a D5E7     		b	.L91
 1415              	.L176:
 677:Drivers/lvgl/src/misc/lv_printf.c ****             case 'd' :
 1416              		.loc 1 677 9 is_stmt 0 view .LVU412
 1417 020c 2528     		cmp	r0, #37
 1418 020e 0AD1     		bne	.L178
 845:Drivers/lvgl/src/misc/lv_printf.c ****                 format++;
 1419              		.loc 1 845 17 is_stmt 1 view .LVU413
 1420 0210 6C1C     		adds	r4, r5, #1
 1421              	.LVL152:
 845:Drivers/lvgl/src/misc/lv_printf.c ****                 format++;
 1422              		.loc 1 845 17 is_stmt 0 view .LVU414
 1423 0212 3B46     		mov	r3, r7
 1424 0214 2A46     		mov	r2, r5
 1425 0216 5946     		mov	r1, fp
 1426 0218 2520     		movs	r0, #37
 1427 021a C047     		blx	r8
 1428              	.LVL153:
 846:Drivers/lvgl/src/misc/lv_printf.c ****                 break;
 1429              		.loc 1 846 17 is_stmt 1 view .LVU415
 846:Drivers/lvgl/src/misc/lv_printf.c ****                 break;
 1430              		.loc 1 846 23 is_stmt 0 view .LVU416
 1431 021c 0F9B     		ldr	r3, [sp, #60]
 1432 021e 0133     		adds	r3, r3, #1
 1433 0220 0F93     		str	r3, [sp, #60]
 847:Drivers/lvgl/src/misc/lv_printf.c **** 
 1434              		.loc 1 847 17 is_stmt 1 view .LVU417
 845:Drivers/lvgl/src/misc/lv_printf.c ****                 format++;
 1435              		.loc 1 845 17 is_stmt 0 view .LVU418
 1436 0222 2546     		mov	r5, r4
 847:Drivers/lvgl/src/misc/lv_printf.c **** 
 1437              		.loc 1 847 17 view .LVU419
 1438 0224 F7E6     		b	.L150
 1439              	.LVL154:
 1440              	.L178:
 677:Drivers/lvgl/src/misc/lv_printf.c ****             case 'd' :
 1441              		.loc 1 677 9 view .LVU420
 1442 0226 DDD3     		bcc	.L98
 1443 0228 5028     		cmp	r0, #80
 1444 022a 01D0     		beq	.L101
 1445 022c 5828     		cmp	r0, #88
 1446 022e D9D1     		bne	.L98
 1447              	.L101:
 1448              	.LBB36:
 688:Drivers/lvgl/src/misc/lv_printf.c ****                     if(*format == 'x' || *format == 'X') {
 1449              		.loc 1 688 21 is_stmt 1 view .LVU421
 689:Drivers/lvgl/src/misc/lv_printf.c ****                         base = 16U;
 1450              		.loc 1 689 21 view .LVU422
 1451 0230 5038     		subs	r0, r0, #80
 1452 0232 2828     		cmp	r0, #40
 1453 0234 5FD8     		bhi	.L104
 1454 0236 DFE800F0 		tbb	[pc, r0]
 1455              	.L106:
 1456 023a 17       		.byte	(.L107-.L106)/2
 1457 023b 5E       		.byte	(.L104-.L106)/2
 1458 023c 5E       		.byte	(.L104-.L106)/2
 1459 023d 5E       		.byte	(.L104-.L106)/2
ARM GAS  /var/folders/lp/x54gwt890xv47sdkqj1k04q40000gn/T//ccmljrTB.s 			page 46


 1460 023e 5E       		.byte	(.L104-.L106)/2
 1461 023f 5E       		.byte	(.L104-.L106)/2
 1462 0240 5E       		.byte	(.L104-.L106)/2
 1463 0241 5E       		.byte	(.L104-.L106)/2
 1464 0242 15       		.byte	(.L105-.L106)/2
 1465 0243 5E       		.byte	(.L104-.L106)/2
 1466 0244 5E       		.byte	(.L104-.L106)/2
 1467 0245 5E       		.byte	(.L104-.L106)/2
 1468 0246 5E       		.byte	(.L104-.L106)/2
 1469 0247 5E       		.byte	(.L104-.L106)/2
 1470 0248 5E       		.byte	(.L104-.L106)/2
 1471 0249 5E       		.byte	(.L104-.L106)/2
 1472 024a 5E       		.byte	(.L104-.L106)/2
 1473 024b 5E       		.byte	(.L104-.L106)/2
 1474 024c 22       		.byte	(.L109-.L106)/2
 1475 024d 5E       		.byte	(.L104-.L106)/2
 1476 024e 5E       		.byte	(.L104-.L106)/2
 1477 024f 5E       		.byte	(.L104-.L106)/2
 1478 0250 5E       		.byte	(.L104-.L106)/2
 1479 0251 5E       		.byte	(.L104-.L106)/2
 1480 0252 5E       		.byte	(.L104-.L106)/2
 1481 0253 5E       		.byte	(.L104-.L106)/2
 1482 0254 5E       		.byte	(.L104-.L106)/2
 1483 0255 5E       		.byte	(.L104-.L106)/2
 1484 0256 5E       		.byte	(.L104-.L106)/2
 1485 0257 5E       		.byte	(.L104-.L106)/2
 1486 0258 5E       		.byte	(.L104-.L106)/2
 1487 0259 62       		.byte	(.L158-.L106)/2
 1488 025a 17       		.byte	(.L107-.L106)/2
 1489 025b 5E       		.byte	(.L104-.L106)/2
 1490 025c 5E       		.byte	(.L104-.L106)/2
 1491 025d 5E       		.byte	(.L104-.L106)/2
 1492 025e 5E       		.byte	(.L104-.L106)/2
 1493 025f 5E       		.byte	(.L104-.L106)/2
 1494 0260 5E       		.byte	(.L104-.L106)/2
 1495 0261 5E       		.byte	(.L104-.L106)/2
 1496 0262 15       		.byte	(.L105-.L106)/2
 1497 0263 00       		.p2align 1
 1498              	.L105:
 1499              	.LBE36:
 651:Drivers/lvgl/src/misc/lv_printf.c ****                 format++;
 1500              		.loc 1 651 23 is_stmt 0 view .LVU423
 1501 0264 1022     		movs	r2, #16
 1502 0266 0BE0     		b	.L108
 1503              	.L107:
 1504              	.LBB45:
 693:Drivers/lvgl/src/misc/lv_printf.c ****                         flags |= FLAGS_HASH;   // always hash for pointer format
 1505              		.loc 1 693 25 is_stmt 1 view .LVU424
 1506              	.LVL155:
 694:Drivers/lvgl/src/misc/lv_printf.c **** #if defined(PRINTF_SUPPORT_LONG_LONG)
 1507              		.loc 1 694 25 view .LVU425
 696:Drivers/lvgl/src/misc/lv_printf.c ****                             flags |= FLAGS_LONG_LONG;
 1508              		.loc 1 696 25 view .LVU426
 700:Drivers/lvgl/src/misc/lv_printf.c **** 
 1509              		.loc 1 700 29 view .LVU427
 700:Drivers/lvgl/src/misc/lv_printf.c **** 
 1510              		.loc 1 700 35 is_stmt 0 view .LVU428
ARM GAS  /var/folders/lp/x54gwt890xv47sdkqj1k04q40000gn/T//ccmljrTB.s 			page 47


 1511 0268 46F48876 		orr	r6, r6, #272
 1512              	.LVL156:
 702:Drivers/lvgl/src/misc/lv_printf.c ****                             format++;
 1513              		.loc 1 702 25 is_stmt 1 view .LVU429
 702:Drivers/lvgl/src/misc/lv_printf.c ****                             format++;
 1514              		.loc 1 702 28 is_stmt 0 view .LVU430
 1515 026c 4B78     		ldrb	r3, [r1, #1]	@ zero_extendqisi2
 702:Drivers/lvgl/src/misc/lv_printf.c ****                             format++;
 1516              		.loc 1 702 27 view .LVU431
 1517 026e 562B     		cmp	r3, #86
 1518 0270 01D0     		beq	.L179
 693:Drivers/lvgl/src/misc/lv_printf.c ****                         flags |= FLAGS_HASH;   // always hash for pointer format
 1519              		.loc 1 693 30 view .LVU432
 1520 0272 1022     		movs	r2, #16
 1521 0274 04E0     		b	.L108
 1522              	.L179:
 703:Drivers/lvgl/src/misc/lv_printf.c ****                     }
 1523              		.loc 1 703 29 is_stmt 1 view .LVU433
 703:Drivers/lvgl/src/misc/lv_printf.c ****                     }
 1524              		.loc 1 703 35 is_stmt 0 view .LVU434
 1525 0276 0131     		adds	r1, r1, #1
 1526 0278 0F91     		str	r1, [sp, #60]
 693:Drivers/lvgl/src/misc/lv_printf.c ****                         flags |= FLAGS_HASH;   // always hash for pointer format
 1527              		.loc 1 693 30 view .LVU435
 1528 027a 1022     		movs	r2, #16
 1529 027c 00E0     		b	.L108
 1530              	.LVL157:
 1531              	.L109:
 693:Drivers/lvgl/src/misc/lv_printf.c ****                         flags |= FLAGS_HASH;   // always hash for pointer format
 1532              		.loc 1 693 30 view .LVU436
 1533 027e 0222     		movs	r2, #2
 1534              	.L108:
 1535              	.LVL158:
 716:Drivers/lvgl/src/misc/lv_printf.c ****                         flags |= FLAGS_UPPERCASE;
 1536              		.loc 1 716 21 is_stmt 1 view .LVU437
 716:Drivers/lvgl/src/misc/lv_printf.c ****                         flags |= FLAGS_UPPERCASE;
 1537              		.loc 1 716 24 is_stmt 0 view .LVU438
 1538 0280 0F9B     		ldr	r3, [sp, #60]
 1539 0282 1B78     		ldrb	r3, [r3]	@ zero_extendqisi2
 716:Drivers/lvgl/src/misc/lv_printf.c ****                         flags |= FLAGS_UPPERCASE;
 1540              		.loc 1 716 23 view .LVU439
 1541 0284 582B     		cmp	r3, #88
 1542 0286 01D0     		beq	.L110
 716:Drivers/lvgl/src/misc/lv_printf.c ****                         flags |= FLAGS_UPPERCASE;
 1543              		.loc 1 716 39 discriminator 1 view .LVU440
 1544 0288 502B     		cmp	r3, #80
 1545 028a 01D1     		bne	.L111
 1546              	.L110:
 717:Drivers/lvgl/src/misc/lv_printf.c ****                     }
 1547              		.loc 1 717 25 is_stmt 1 view .LVU441
 717:Drivers/lvgl/src/misc/lv_printf.c ****                     }
 1548              		.loc 1 717 31 is_stmt 0 view .LVU442
 1549 028c 46F02006 		orr	r6, r6, #32
 1550              	.LVL159:
 1551              	.L111:
 721:Drivers/lvgl/src/misc/lv_printf.c ****                         flags &= ~(FLAGS_PLUS | FLAGS_SPACE);
 1552              		.loc 1 721 21 is_stmt 1 view .LVU443
ARM GAS  /var/folders/lp/x54gwt890xv47sdkqj1k04q40000gn/T//ccmljrTB.s 			page 48


 721:Drivers/lvgl/src/misc/lv_printf.c ****                         flags &= ~(FLAGS_PLUS | FLAGS_SPACE);
 1553              		.loc 1 721 23 is_stmt 0 view .LVU444
 1554 0290 692B     		cmp	r3, #105
 1555 0292 03D0     		beq	.L112
 721:Drivers/lvgl/src/misc/lv_printf.c ****                         flags &= ~(FLAGS_PLUS | FLAGS_SPACE);
 1556              		.loc 1 721 41 discriminator 1 view .LVU445
 1557 0294 642B     		cmp	r3, #100
 1558 0296 01D0     		beq	.L112
 722:Drivers/lvgl/src/misc/lv_printf.c ****                     }
 1559              		.loc 1 722 25 is_stmt 1 view .LVU446
 722:Drivers/lvgl/src/misc/lv_printf.c ****                     }
 1560              		.loc 1 722 31 is_stmt 0 view .LVU447
 1561 0298 26F00C06 		bic	r6, r6, #12
 1562              	.LVL160:
 1563              	.L112:
 726:Drivers/lvgl/src/misc/lv_printf.c ****                         flags &= ~FLAGS_ZEROPAD;
 1564              		.loc 1 726 21 is_stmt 1 view .LVU448
 726:Drivers/lvgl/src/misc/lv_printf.c ****                         flags &= ~FLAGS_ZEROPAD;
 1565              		.loc 1 726 23 is_stmt 0 view .LVU449
 1566 029c 16F4806F 		tst	r6, #1024
 1567 02a0 01D0     		beq	.L113
 727:Drivers/lvgl/src/misc/lv_printf.c ****                     }
 1568              		.loc 1 727 25 is_stmt 1 view .LVU450
 727:Drivers/lvgl/src/misc/lv_printf.c ****                     }
 1569              		.loc 1 727 31 is_stmt 0 view .LVU451
 1570 02a2 26F00106 		bic	r6, r6, #1
 1571              	.LVL161:
 1572              	.L113:
 731:Drivers/lvgl/src/misc/lv_printf.c ****                         // signed
 1573              		.loc 1 731 21 is_stmt 1 view .LVU452
 731:Drivers/lvgl/src/misc/lv_printf.c ****                         // signed
 1574              		.loc 1 731 23 is_stmt 0 view .LVU453
 1575 02a6 692B     		cmp	r3, #105
 1576 02a8 2BD0     		beq	.L114
 731:Drivers/lvgl/src/misc/lv_printf.c ****                         // signed
 1577              		.loc 1 731 41 discriminator 1 view .LVU454
 1578 02aa 642B     		cmp	r3, #100
 1579 02ac 29D0     		beq	.L114
 752:Drivers/lvgl/src/misc/lv_printf.c ****                         lv_vaformat_t * vaf = va_arg(va, lv_vaformat_t *);
 1580              		.loc 1 752 26 is_stmt 1 view .LVU455
 752:Drivers/lvgl/src/misc/lv_printf.c ****                         lv_vaformat_t * vaf = va_arg(va, lv_vaformat_t *);
 1581              		.loc 1 752 28 is_stmt 0 view .LVU456
 1582 02ae 562B     		cmp	r3, #86
 1583 02b0 00F09780 		beq	.L180
 762:Drivers/lvgl/src/misc/lv_printf.c **** #if defined(PRINTF_SUPPORT_LONG_LONG)
 1584              		.loc 1 762 25 is_stmt 1 view .LVU457
 762:Drivers/lvgl/src/misc/lv_printf.c **** #if defined(PRINTF_SUPPORT_LONG_LONG)
 1585              		.loc 1 762 27 is_stmt 0 view .LVU458
 1586 02b4 16F4007F 		tst	r6, #512
 1587 02b8 40F0A680 		bne	.L181
 767:Drivers/lvgl/src/misc/lv_printf.c ****                             idx = _ntoa_long(out, buffer, idx, maxlen, va_arg(va, unsigned long), f
 1588              		.loc 1 767 30 is_stmt 1 view .LVU459
 767:Drivers/lvgl/src/misc/lv_printf.c ****                             idx = _ntoa_long(out, buffer, idx, maxlen, va_arg(va, unsigned long), f
 1589              		.loc 1 767 32 is_stmt 0 view .LVU460
 1590 02bc 16F4807F 		tst	r6, #256
 1591 02c0 40F0BE80 		bne	.L182
 1592              	.LBB37:
ARM GAS  /var/folders/lp/x54gwt890xv47sdkqj1k04q40000gn/T//ccmljrTB.s 			page 49


 771:Drivers/lvgl/src/misc/lv_printf.c ****                                                                                                    
 1593              		.loc 1 771 29 is_stmt 1 view .LVU461
 772:Drivers/lvgl/src/misc/lv_printf.c ****                             idx = _ntoa_long(out, buffer, idx, maxlen, value, false, base, precisio
 1594              		.loc 1 772 115 is_stmt 0 view .LVU462
 1595 02c4 16F0400F 		tst	r6, #64
 1596 02c8 00F0CF80 		beq	.L126
 771:Drivers/lvgl/src/misc/lv_printf.c ****                                                                                                    
 1597              		.loc 1 771 94 view .LVU463
 1598 02cc 1C9B     		ldr	r3, [sp, #112]
 1599 02ce 191D     		adds	r1, r3, #4
 1600 02d0 1C91     		str	r1, [sp, #112]
 1601 02d2 1B78     		ldrb	r3, [r3]	@ zero_extendqisi2
 1602              	.L127:
 1603              	.LVL162:
 773:Drivers/lvgl/src/misc/lv_printf.c ****                         }
 1604              		.loc 1 773 29 is_stmt 1 view .LVU464
 773:Drivers/lvgl/src/misc/lv_printf.c ****                         }
 1605              		.loc 1 773 35 is_stmt 0 view .LVU465
 1606 02d4 0596     		str	r6, [sp, #20]
 1607 02d6 CDF810A0 		str	r10, [sp, #16]
 1608 02da 0B99     		ldr	r1, [sp, #44]
 1609 02dc 0391     		str	r1, [sp, #12]
 1610 02de 0292     		str	r2, [sp, #8]
 1611 02e0 0022     		movs	r2, #0
 1612              	.LVL163:
 773:Drivers/lvgl/src/misc/lv_printf.c ****                         }
 1613              		.loc 1 773 35 view .LVU466
 1614 02e2 0192     		str	r2, [sp, #4]
 1615 02e4 0093     		str	r3, [sp]
 1616 02e6 3B46     		mov	r3, r7
 1617              	.LVL164:
 773:Drivers/lvgl/src/misc/lv_printf.c ****                         }
 1618              		.loc 1 773 35 view .LVU467
 1619 02e8 2A46     		mov	r2, r5
 1620 02ea 5946     		mov	r1, fp
 1621 02ec 4046     		mov	r0, r8
 1622 02ee FFF7FEFF 		bl	_ntoa_long
 1623              	.LVL165:
 773:Drivers/lvgl/src/misc/lv_printf.c ****                         }
 1624              		.loc 1 773 35 view .LVU468
 1625 02f2 0546     		mov	r5, r0
 1626              	.LVL166:
 773:Drivers/lvgl/src/misc/lv_printf.c ****                         }
 1627              		.loc 1 773 35 view .LVU469
 1628 02f4 26E0     		b	.L118
 1629              	.LVL167:
 1630              	.L104:
 773:Drivers/lvgl/src/misc/lv_printf.c ****                         }
 1631              		.loc 1 773 35 view .LVU470
 1632              	.LBE37:
 712:Drivers/lvgl/src/misc/lv_printf.c ****                         flags &= ~FLAGS_HASH;   // no hash for dec format
 1633              		.loc 1 712 25 is_stmt 1 view .LVU471
 713:Drivers/lvgl/src/misc/lv_printf.c ****                     }
 1634              		.loc 1 713 25 view .LVU472
 713:Drivers/lvgl/src/misc/lv_printf.c ****                     }
 1635              		.loc 1 713 31 is_stmt 0 view .LVU473
 1636 02f6 26F01006 		bic	r6, r6, #16
ARM GAS  /var/folders/lp/x54gwt890xv47sdkqj1k04q40000gn/T//ccmljrTB.s 			page 50


 1637              	.LVL168:
 712:Drivers/lvgl/src/misc/lv_printf.c ****                         flags &= ~FLAGS_HASH;   // no hash for dec format
 1638              		.loc 1 712 30 view .LVU474
 1639 02fa 0A22     		movs	r2, #10
 1640 02fc C0E7     		b	.L108
 1641              	.LVL169:
 1642              	.L158:
 693:Drivers/lvgl/src/misc/lv_printf.c ****                         flags |= FLAGS_HASH;   // always hash for pointer format
 1643              		.loc 1 693 30 view .LVU475
 1644 02fe 0822     		movs	r2, #8
 1645 0300 BEE7     		b	.L108
 1646              	.LVL170:
 1647              	.L114:
 733:Drivers/lvgl/src/misc/lv_printf.c **** #if defined(PRINTF_SUPPORT_LONG_LONG)
 1648              		.loc 1 733 25 is_stmt 1 view .LVU476
 733:Drivers/lvgl/src/misc/lv_printf.c **** #if defined(PRINTF_SUPPORT_LONG_LONG)
 1649              		.loc 1 733 27 is_stmt 0 view .LVU477
 1650 0302 16F4007F 		tst	r6, #512
 1651 0306 21D1     		bne	.L183
 740:Drivers/lvgl/src/misc/lv_printf.c ****                             const long value = va_arg(va, long);
 1652              		.loc 1 740 30 is_stmt 1 view .LVU478
 740:Drivers/lvgl/src/misc/lv_printf.c ****                             const long value = va_arg(va, long);
 1653              		.loc 1 740 32 is_stmt 0 view .LVU479
 1654 0308 16F4807F 		tst	r6, #256
 1655 030c 42D1     		bne	.L184
 1656              	.LBB38:
 746:Drivers/lvgl/src/misc/lv_printf.c ****                                                                                                    
 1657              		.loc 1 746 29 is_stmt 1 view .LVU480
 746:Drivers/lvgl/src/misc/lv_printf.c ****                                                                                                    
 1658              		.loc 1 746 92 is_stmt 0 view .LVU481
 1659 030e 16F0400F 		tst	r6, #64
 1660 0312 58D0     		beq	.L120
 746:Drivers/lvgl/src/misc/lv_printf.c ****                                                                                                    
 1661              		.loc 1 746 76 discriminator 1 view .LVU482
 1662 0314 1C9B     		ldr	r3, [sp, #112]
 1663 0316 191D     		adds	r1, r3, #4
 1664 0318 1C91     		str	r1, [sp, #112]
 1665 031a 1B78     		ldrb	r3, [r3]	@ zero_extendqisi2
 1666              	.L121:
 1667              	.LVL171:
 748:Drivers/lvgl/src/misc/lv_printf.c ****                                              width, flags);
 1668              		.loc 1 748 29 is_stmt 1 view .LVU483
 748:Drivers/lvgl/src/misc/lv_printf.c ****                                              width, flags);
 1669              		.loc 1 748 72 is_stmt 0 view .LVU484
 1670 031c 83EAE371 		eor	r1, r3, r3, asr #31
 1671 0320 A1EBE371 		sub	r1, r1, r3, asr #31
 748:Drivers/lvgl/src/misc/lv_printf.c ****                                              width, flags);
 1672              		.loc 1 748 35 view .LVU485
 1673 0324 0596     		str	r6, [sp, #20]
 1674 0326 CDF810A0 		str	r10, [sp, #16]
 1675 032a 0B98     		ldr	r0, [sp, #44]
 1676 032c 0390     		str	r0, [sp, #12]
 1677 032e 0292     		str	r2, [sp, #8]
 1678 0330 DB0F     		lsrs	r3, r3, #31
 1679              	.LVL172:
 748:Drivers/lvgl/src/misc/lv_printf.c ****                                              width, flags);
 1680              		.loc 1 748 35 view .LVU486
ARM GAS  /var/folders/lp/x54gwt890xv47sdkqj1k04q40000gn/T//ccmljrTB.s 			page 51


 1681 0332 0193     		str	r3, [sp, #4]
 1682 0334 0091     		str	r1, [sp]
 1683 0336 3B46     		mov	r3, r7
 1684 0338 2A46     		mov	r2, r5
 1685              	.LVL173:
 748:Drivers/lvgl/src/misc/lv_printf.c ****                                              width, flags);
 1686              		.loc 1 748 35 view .LVU487
 1687 033a 5946     		mov	r1, fp
 1688 033c 4046     		mov	r0, r8
 1689 033e FFF7FEFF 		bl	_ntoa_long
 1690              	.LVL174:
 748:Drivers/lvgl/src/misc/lv_printf.c ****                                              width, flags);
 1691              		.loc 1 748 35 view .LVU488
 1692 0342 0546     		mov	r5, r0
 1693              	.LVL175:
 1694              	.L118:
 748:Drivers/lvgl/src/misc/lv_printf.c ****                                              width, flags);
 1695              		.loc 1 748 35 view .LVU489
 1696              	.LBE38:
 776:Drivers/lvgl/src/misc/lv_printf.c ****                     break;
 1697              		.loc 1 776 21 is_stmt 1 view .LVU490
 776:Drivers/lvgl/src/misc/lv_printf.c ****                     break;
 1698              		.loc 1 776 27 is_stmt 0 view .LVU491
 1699 0344 0F9B     		ldr	r3, [sp, #60]
 1700 0346 0133     		adds	r3, r3, #1
 1701 0348 0F93     		str	r3, [sp, #60]
 777:Drivers/lvgl/src/misc/lv_printf.c ****                 }
 1702              		.loc 1 777 21 is_stmt 1 view .LVU492
 1703 034a 64E6     		b	.L150
 1704              	.LVL176:
 1705              	.L183:
 1706              	.LBB39:
 735:Drivers/lvgl/src/misc/lv_printf.c ****                             idx = _ntoa_long_long(out, buffer, idx, maxlen, (unsigned long long)(va
 1707              		.loc 1 735 29 view .LVU493
 735:Drivers/lvgl/src/misc/lv_printf.c ****                             idx = _ntoa_long_long(out, buffer, idx, maxlen, (unsigned long long)(va
 1708              		.loc 1 735 45 is_stmt 0 view .LVU494
 1709 034c 1C9B     		ldr	r3, [sp, #112]
 1710 034e 0733     		adds	r3, r3, #7
 1711 0350 23F00703 		bic	r3, r3, #7
 1712 0354 03F10801 		add	r1, r3, #8
 1713 0358 1C91     		str	r1, [sp, #112]
 1714 035a 5968     		ldr	r1, [r3, #4]
 736:Drivers/lvgl/src/misc/lv_printf.c ****                                                   precision, width, flags);
 1715              		.loc 1 736 29 is_stmt 1 view .LVU495
 736:Drivers/lvgl/src/misc/lv_printf.c ****                                                   precision, width, flags);
 1716              		.loc 1 736 77 is_stmt 0 view .LVU496
 1717 035c 1B68     		ldr	r3, [r3]
 1718 035e 0846     		mov	r0, r1
 1719 0360 0029     		cmp	r1, #0
 1720 0362 13DB     		blt	.L185
 1721              	.L117:
 736:Drivers/lvgl/src/misc/lv_printf.c ****                                                   precision, width, flags);
 1722              		.loc 1 736 35 view .LVU497
 1723 0364 0896     		str	r6, [sp, #32]
 1724 0366 CDF81CA0 		str	r10, [sp, #28]
 1725 036a 0B9C     		ldr	r4, [sp, #44]
 1726 036c 0694     		str	r4, [sp, #24]
ARM GAS  /var/folders/lp/x54gwt890xv47sdkqj1k04q40000gn/T//ccmljrTB.s 			page 52


 1727 036e 0492     		str	r2, [sp, #16]
 1728 0370 0022     		movs	r2, #0
 1729              	.LVL177:
 736:Drivers/lvgl/src/misc/lv_printf.c ****                                                   precision, width, flags);
 1730              		.loc 1 736 35 view .LVU498
 1731 0372 0592     		str	r2, [sp, #20]
 1732 0374 C90F     		lsrs	r1, r1, #31
 1733 0376 0291     		str	r1, [sp, #8]
 1734 0378 0093     		str	r3, [sp]
 1735 037a 0190     		str	r0, [sp, #4]
 1736 037c 3B46     		mov	r3, r7
 1737 037e 2A46     		mov	r2, r5
 1738 0380 5946     		mov	r1, fp
 1739 0382 4046     		mov	r0, r8
 1740 0384 FFF7FEFF 		bl	_ntoa_long_long
 1741              	.LVL178:
 736:Drivers/lvgl/src/misc/lv_printf.c ****                                                   precision, width, flags);
 1742              		.loc 1 736 35 view .LVU499
 1743 0388 0546     		mov	r5, r0
 1744              	.LVL179:
 736:Drivers/lvgl/src/misc/lv_printf.c ****                                                   precision, width, flags);
 1745              		.loc 1 736 35 view .LVU500
 1746              	.LBE39:
 1747 038a DBE7     		b	.L118
 1748              	.LVL180:
 1749              	.L185:
 1750              	.LBB40:
 736:Drivers/lvgl/src/misc/lv_printf.c ****                                                   precision, width, flags);
 1751              		.loc 1 736 77 view .LVU501
 1752 038c 5B42     		negs	r3, r3
 1753 038e 61EB4100 		sbc	r0, r1, r1, lsl #1
 1754 0392 E7E7     		b	.L117
 1755              	.L184:
 1756              	.LBE40:
 1757              	.LBB41:
 741:Drivers/lvgl/src/misc/lv_printf.c ****                             idx = _ntoa_long(out, buffer, idx, maxlen, (unsigned long)(value > 0 ? 
 1758              		.loc 1 741 29 is_stmt 1 view .LVU502
 741:Drivers/lvgl/src/misc/lv_printf.c ****                             idx = _ntoa_long(out, buffer, idx, maxlen, (unsigned long)(value > 0 ? 
 1759              		.loc 1 741 40 is_stmt 0 view .LVU503
 1760 0394 1C9B     		ldr	r3, [sp, #112]
 1761 0396 191D     		adds	r1, r3, #4
 1762 0398 1C91     		str	r1, [sp, #112]
 1763 039a 1B68     		ldr	r3, [r3]
 742:Drivers/lvgl/src/misc/lv_printf.c ****                                              width, flags);
 1764              		.loc 1 742 29 is_stmt 1 view .LVU504
 742:Drivers/lvgl/src/misc/lv_printf.c ****                                              width, flags);
 1765              		.loc 1 742 72 is_stmt 0 view .LVU505
 1766 039c 83EAE371 		eor	r1, r3, r3, asr #31
 1767 03a0 A1EBE371 		sub	r1, r1, r3, asr #31
 742:Drivers/lvgl/src/misc/lv_printf.c ****                                              width, flags);
 1768              		.loc 1 742 35 view .LVU506
 1769 03a4 0596     		str	r6, [sp, #20]
 1770 03a6 CDF810A0 		str	r10, [sp, #16]
 1771 03aa 0B98     		ldr	r0, [sp, #44]
 1772 03ac 0390     		str	r0, [sp, #12]
 1773 03ae 0292     		str	r2, [sp, #8]
 1774 03b0 DB0F     		lsrs	r3, r3, #31
ARM GAS  /var/folders/lp/x54gwt890xv47sdkqj1k04q40000gn/T//ccmljrTB.s 			page 53


 1775 03b2 0193     		str	r3, [sp, #4]
 1776 03b4 0091     		str	r1, [sp]
 1777 03b6 3B46     		mov	r3, r7
 1778 03b8 2A46     		mov	r2, r5
 1779              	.LVL181:
 742:Drivers/lvgl/src/misc/lv_printf.c ****                                              width, flags);
 1780              		.loc 1 742 35 view .LVU507
 1781 03ba 5946     		mov	r1, fp
 1782 03bc 4046     		mov	r0, r8
 1783 03be FFF7FEFF 		bl	_ntoa_long
 1784              	.LVL182:
 742:Drivers/lvgl/src/misc/lv_printf.c ****                                              width, flags);
 1785              		.loc 1 742 35 view .LVU508
 1786 03c2 0546     		mov	r5, r0
 1787              	.LVL183:
 742:Drivers/lvgl/src/misc/lv_printf.c ****                                              width, flags);
 1788              		.loc 1 742 35 view .LVU509
 1789              	.LBE41:
 1790 03c4 BEE7     		b	.L118
 1791              	.LVL184:
 1792              	.L120:
 1793              	.LBB42:
 747:Drivers/lvgl/src/misc/lv_printf.c ****                             idx = _ntoa_long(out, buffer, idx, maxlen, (unsigned int)(value > 0 ? v
 1794              		.loc 1 747 141 view .LVU510
 1795 03c6 16F0800F 		tst	r6, #128
 1796 03ca 05D0     		beq	.L122
 746:Drivers/lvgl/src/misc/lv_printf.c ****                                                                                                    
 1797              		.loc 1 746 129 view .LVU511
 1798 03cc 1C9B     		ldr	r3, [sp, #112]
 1799 03ce 191D     		adds	r1, r3, #4
 1800 03d0 1C91     		str	r1, [sp, #112]
 746:Drivers/lvgl/src/misc/lv_printf.c ****                                                                                                    
 1801              		.loc 1 746 118 discriminator 1 view .LVU512
 1802 03d2 B3F90030 		ldrsh	r3, [r3]
 1803 03d6 A1E7     		b	.L121
 1804              	.L122:
 747:Drivers/lvgl/src/misc/lv_printf.c ****                             idx = _ntoa_long(out, buffer, idx, maxlen, (unsigned int)(value > 0 ? v
 1805              		.loc 1 747 141 discriminator 2 view .LVU513
 1806 03d8 1C9B     		ldr	r3, [sp, #112]
 1807 03da 191D     		adds	r1, r3, #4
 1808 03dc 1C91     		str	r1, [sp, #112]
 1809 03de 1B68     		ldr	r3, [r3]
 1810 03e0 9CE7     		b	.L121
 1811              	.L180:
 747:Drivers/lvgl/src/misc/lv_printf.c ****                             idx = _ntoa_long(out, buffer, idx, maxlen, (unsigned int)(value > 0 ? v
 1812              		.loc 1 747 141 discriminator 2 view .LVU514
 1813              	.LBE42:
 1814              	.LBB43:
 753:Drivers/lvgl/src/misc/lv_printf.c ****                         va_list copy;
 1815              		.loc 1 753 25 is_stmt 1 view .LVU515
 753:Drivers/lvgl/src/misc/lv_printf.c ****                         va_list copy;
 1816              		.loc 1 753 41 is_stmt 0 view .LVU516
 1817 03e2 1C9B     		ldr	r3, [sp, #112]
 1818 03e4 1A1D     		adds	r2, r3, #4
 1819              	.LVL185:
 753:Drivers/lvgl/src/misc/lv_printf.c ****                         va_list copy;
 1820              		.loc 1 753 41 view .LVU517
ARM GAS  /var/folders/lp/x54gwt890xv47sdkqj1k04q40000gn/T//ccmljrTB.s 			page 54


 1821 03e6 1C92     		str	r2, [sp, #112]
 1822 03e8 1B68     		ldr	r3, [r3]
 754:Drivers/lvgl/src/misc/lv_printf.c **** 
 1823              		.loc 1 754 25 is_stmt 1 view .LVU518
 756:Drivers/lvgl/src/misc/lv_printf.c ****                         idx += _vsnprintf(out, buffer + idx, maxlen - idx, vaf->fmt, copy);
 1824              		.loc 1 756 25 view .LVU519
 1825 03ea 5A68     		ldr	r2, [r3, #4]
 1826 03ec 1268     		ldr	r2, [r2]
 1827 03ee 1192     		str	r2, [sp, #68]
 757:Drivers/lvgl/src/misc/lv_printf.c ****                         va_end(copy);
 1828              		.loc 1 757 25 view .LVU520
 757:Drivers/lvgl/src/misc/lv_printf.c ****                         va_end(copy);
 1829              		.loc 1 757 32 is_stmt 0 view .LVU521
 1830 03f0 1B68     		ldr	r3, [r3]
 1831 03f2 0092     		str	r2, [sp]
 1832 03f4 7A1B     		subs	r2, r7, r5
 1833 03f6 0BEB0501 		add	r1, fp, r5
 1834 03fa 4046     		mov	r0, r8
 1835 03fc FFF700FE 		bl	_vsnprintf
 1836              	.LVL186:
 757:Drivers/lvgl/src/misc/lv_printf.c ****                         va_end(copy);
 1837              		.loc 1 757 29 discriminator 1 view .LVU522
 1838 0400 0544     		add	r5, r5, r0
 1839              	.LVL187:
 758:Drivers/lvgl/src/misc/lv_printf.c ****                     }
 1840              		.loc 1 758 25 is_stmt 1 view .LVU523
 1841              	.LBE43:
 1842 0402 9FE7     		b	.L118
 1843              	.L189:
 1844              		.align	2
 1845              	.L188:
 1846 0404 85604800 		.word	4743301
 1847              	.LVL188:
 1848              	.L181:
 764:Drivers/lvgl/src/misc/lv_printf.c **** #endif
 1849              		.loc 1 764 29 view .LVU524
 764:Drivers/lvgl/src/misc/lv_printf.c **** #endif
 1850              		.loc 1 764 35 is_stmt 0 view .LVU525
 1851 0408 1C9B     		ldr	r3, [sp, #112]
 1852 040a 0733     		adds	r3, r3, #7
 1853 040c 23F00703 		bic	r3, r3, #7
 1854 0410 03F10801 		add	r1, r3, #8
 1855 0414 1C91     		str	r1, [sp, #112]
 764:Drivers/lvgl/src/misc/lv_printf.c **** #endif
 1856              		.loc 1 764 35 discriminator 1 view .LVU526
 1857 0416 0896     		str	r6, [sp, #32]
 1858 0418 CDF81CA0 		str	r10, [sp, #28]
 1859 041c 0B99     		ldr	r1, [sp, #44]
 1860 041e 0691     		str	r1, [sp, #24]
 1861 0420 0021     		movs	r1, #0
 1862 0422 0492     		str	r2, [sp, #16]
 1863 0424 0591     		str	r1, [sp, #20]
 1864 0426 0291     		str	r1, [sp, #8]
 1865 0428 D3E90023 		ldrd	r2, [r3]
 1866              	.LVL189:
 764:Drivers/lvgl/src/misc/lv_printf.c **** #endif
 1867              		.loc 1 764 35 discriminator 1 view .LVU527
ARM GAS  /var/folders/lp/x54gwt890xv47sdkqj1k04q40000gn/T//ccmljrTB.s 			page 55


 1868 042c CDE90023 		strd	r2, [sp]
 1869 0430 3B46     		mov	r3, r7
 1870 0432 2A46     		mov	r2, r5
 1871 0434 5946     		mov	r1, fp
 1872 0436 4046     		mov	r0, r8
 1873 0438 FFF7FEFF 		bl	_ntoa_long_long
 1874              	.LVL190:
 764:Drivers/lvgl/src/misc/lv_printf.c **** #endif
 1875              		.loc 1 764 35 discriminator 1 view .LVU528
 1876 043c 0546     		mov	r5, r0
 1877              	.LVL191:
 764:Drivers/lvgl/src/misc/lv_printf.c **** #endif
 1878              		.loc 1 764 35 discriminator 1 view .LVU529
 1879 043e 81E7     		b	.L118
 1880              	.LVL192:
 1881              	.L182:
 768:Drivers/lvgl/src/misc/lv_printf.c ****                         }
 1882              		.loc 1 768 29 is_stmt 1 view .LVU530
 768:Drivers/lvgl/src/misc/lv_printf.c ****                         }
 1883              		.loc 1 768 35 is_stmt 0 view .LVU531
 1884 0440 1C9B     		ldr	r3, [sp, #112]
 1885 0442 191D     		adds	r1, r3, #4
 1886 0444 1C91     		str	r1, [sp, #112]
 768:Drivers/lvgl/src/misc/lv_printf.c ****                         }
 1887              		.loc 1 768 35 discriminator 1 view .LVU532
 1888 0446 0596     		str	r6, [sp, #20]
 1889 0448 CDF810A0 		str	r10, [sp, #16]
 1890 044c 0B99     		ldr	r1, [sp, #44]
 1891 044e 0391     		str	r1, [sp, #12]
 1892 0450 0292     		str	r2, [sp, #8]
 1893 0452 0022     		movs	r2, #0
 1894              	.LVL193:
 768:Drivers/lvgl/src/misc/lv_printf.c ****                         }
 1895              		.loc 1 768 35 discriminator 1 view .LVU533
 1896 0454 0192     		str	r2, [sp, #4]
 1897 0456 1B68     		ldr	r3, [r3]
 1898 0458 0093     		str	r3, [sp]
 1899 045a 3B46     		mov	r3, r7
 1900 045c 2A46     		mov	r2, r5
 1901 045e 5946     		mov	r1, fp
 1902 0460 4046     		mov	r0, r8
 1903 0462 FFF7FEFF 		bl	_ntoa_long
 1904              	.LVL194:
 768:Drivers/lvgl/src/misc/lv_printf.c ****                         }
 1905              		.loc 1 768 35 discriminator 1 view .LVU534
 1906 0466 0546     		mov	r5, r0
 1907              	.LVL195:
 768:Drivers/lvgl/src/misc/lv_printf.c ****                         }
 1908              		.loc 1 768 35 discriminator 1 view .LVU535
 1909 0468 6CE7     		b	.L118
 1910              	.LVL196:
 1911              	.L126:
 1912              	.LBB44:
 772:Drivers/lvgl/src/misc/lv_printf.c ****                             idx = _ntoa_long(out, buffer, idx, maxlen, value, false, base, precisio
 1913              		.loc 1 772 186 discriminator 2 view .LVU536
 1914 046a 16F0800F 		tst	r6, #128
 1915 046e 04D0     		beq	.L128
ARM GAS  /var/folders/lp/x54gwt890xv47sdkqj1k04q40000gn/T//ccmljrTB.s 			page 56


 772:Drivers/lvgl/src/misc/lv_printf.c ****                             idx = _ntoa_long(out, buffer, idx, maxlen, value, false, base, precisio
 1916              		.loc 1 772 161 discriminator 3 view .LVU537
 1917 0470 1C9B     		ldr	r3, [sp, #112]
 1918 0472 191D     		adds	r1, r3, #4
 1919 0474 1C91     		str	r1, [sp, #112]
 1920 0476 1B88     		ldrh	r3, [r3]
 1921 0478 2CE7     		b	.L127
 1922              	.L128:
 772:Drivers/lvgl/src/misc/lv_printf.c ****                             idx = _ntoa_long(out, buffer, idx, maxlen, value, false, base, precisio
 1923              		.loc 1 772 186 discriminator 4 view .LVU538
 1924 047a 1C9B     		ldr	r3, [sp, #112]
 1925 047c 191D     		adds	r1, r3, #4
 1926 047e 1C91     		str	r1, [sp, #112]
 1927 0480 1B68     		ldr	r3, [r3]
 1928 0482 27E7     		b	.L127
 1929              	.LVL197:
 1930              	.L177:
 772:Drivers/lvgl/src/misc/lv_printf.c ****                             idx = _ntoa_long(out, buffer, idx, maxlen, value, false, base, precisio
 1931              		.loc 1 772 186 discriminator 4 view .LVU539
 1932              	.LBE44:
 1933              	.LBE45:
 1934              	.LBB46:
 799:Drivers/lvgl/src/misc/lv_printf.c ****                     // pre padding
 1935              		.loc 1 799 21 is_stmt 1 view .LVU540
 801:Drivers/lvgl/src/misc/lv_printf.c ****                         while(l++ < width) {
 1936              		.loc 1 801 21 view .LVU541
 801:Drivers/lvgl/src/misc/lv_printf.c ****                         while(l++ < width) {
 1937              		.loc 1 801 23 is_stmt 0 view .LVU542
 1938 0484 16F00206 		ands	r6, r6, #2
 1939              	.LVL198:
 801:Drivers/lvgl/src/misc/lv_printf.c ****                         while(l++ < width) {
 1940              		.loc 1 801 23 view .LVU543
 1941 0488 1DD0     		beq	.L160
 799:Drivers/lvgl/src/misc/lv_printf.c ****                     // pre padding
 1942              		.loc 1 799 34 view .LVU544
 1943 048a 0124     		movs	r4, #1
 1944              	.LVL199:
 1945              	.L130:
 807:Drivers/lvgl/src/misc/lv_printf.c ****                     // post padding
 1946              		.loc 1 807 21 is_stmt 1 view .LVU545
 807:Drivers/lvgl/src/misc/lv_printf.c ****                     // post padding
 1947              		.loc 1 807 31 is_stmt 0 view .LVU546
 1948 048c 1C98     		ldr	r0, [sp, #112]
 1949 048e 031D     		adds	r3, r0, #4
 1950 0490 1C93     		str	r3, [sp, #112]
 807:Drivers/lvgl/src/misc/lv_printf.c ****                     // post padding
 1951              		.loc 1 807 21 discriminator 1 view .LVU547
 1952 0492 05F10109 		add	r9, r5, #1
 1953              	.LVL200:
 807:Drivers/lvgl/src/misc/lv_printf.c ****                     // post padding
 1954              		.loc 1 807 21 discriminator 1 view .LVU548
 1955 0496 3B46     		mov	r3, r7
 1956 0498 2A46     		mov	r2, r5
 1957 049a 5946     		mov	r1, fp
 1958 049c 0078     		ldrb	r0, [r0]	@ zero_extendqisi2
 1959 049e C047     		blx	r8
 1960              	.LVL201:
ARM GAS  /var/folders/lp/x54gwt890xv47sdkqj1k04q40000gn/T//ccmljrTB.s 			page 57


 809:Drivers/lvgl/src/misc/lv_printf.c ****                         while(l++ < width) {
 1961              		.loc 1 809 21 is_stmt 1 view .LVU549
 809:Drivers/lvgl/src/misc/lv_printf.c ****                         while(l++ < width) {
 1962              		.loc 1 809 23 is_stmt 0 view .LVU550
 1963 04a0 A6B9     		cbnz	r6, .L186
 1964              	.LVL202:
 1965              	.L133:
 814:Drivers/lvgl/src/misc/lv_printf.c ****                     break;
 1966              		.loc 1 814 21 is_stmt 1 view .LVU551
 814:Drivers/lvgl/src/misc/lv_printf.c ****                     break;
 1967              		.loc 1 814 27 is_stmt 0 view .LVU552
 1968 04a2 0F9B     		ldr	r3, [sp, #60]
 1969 04a4 0133     		adds	r3, r3, #1
 1970 04a6 0F93     		str	r3, [sp, #60]
 815:Drivers/lvgl/src/misc/lv_printf.c ****                 }
 1971              		.loc 1 815 21 is_stmt 1 view .LVU553
 1972 04a8 4D46     		mov	r5, r9
 1973 04aa B4E5     		b	.L150
 1974              	.LVL203:
 1975              	.L131:
 803:Drivers/lvgl/src/misc/lv_printf.c ****                         }
 1976              		.loc 1 803 29 view .LVU554
 1977 04ac 02F10109 		add	r9, r2, #1
 1978              	.LVL204:
 803:Drivers/lvgl/src/misc/lv_printf.c ****                         }
 1979              		.loc 1 803 29 is_stmt 0 view .LVU555
 1980 04b0 3B46     		mov	r3, r7
 1981 04b2 5946     		mov	r1, fp
 1982 04b4 2020     		movs	r0, #32
 1983 04b6 C047     		blx	r8
 1984              	.LVL205:
 802:Drivers/lvgl/src/misc/lv_printf.c ****                             out(' ', buffer, idx++, maxlen);
 1985              		.loc 1 802 32 view .LVU556
 1986 04b8 2346     		mov	r3, r4
 803:Drivers/lvgl/src/misc/lv_printf.c ****                         }
 1987              		.loc 1 803 29 view .LVU557
 1988 04ba 4A46     		mov	r2, r9
 1989              	.LVL206:
 1990              	.L129:
 802:Drivers/lvgl/src/misc/lv_printf.c ****                             out(' ', buffer, idx++, maxlen);
 1991              		.loc 1 802 35 is_stmt 1 view .LVU558
 802:Drivers/lvgl/src/misc/lv_printf.c ****                             out(' ', buffer, idx++, maxlen);
 1992              		.loc 1 802 32 is_stmt 0 view .LVU559
 1993 04bc 5C1C     		adds	r4, r3, #1
 1994              	.LVL207:
 802:Drivers/lvgl/src/misc/lv_printf.c ****                             out(' ', buffer, idx++, maxlen);
 1995              		.loc 1 802 35 view .LVU560
 1996 04be 9A45     		cmp	r10, r3
 1997 04c0 F4D8     		bhi	.L131
 802:Drivers/lvgl/src/misc/lv_printf.c ****                             out(' ', buffer, idx++, maxlen);
 1998              		.loc 1 802 35 view .LVU561
 1999 04c2 1546     		mov	r5, r2
 2000 04c4 E2E7     		b	.L130
 2001              	.LVL208:
 2002              	.L160:
 799:Drivers/lvgl/src/misc/lv_printf.c ****                     // pre padding
 2003              		.loc 1 799 34 view .LVU562
ARM GAS  /var/folders/lp/x54gwt890xv47sdkqj1k04q40000gn/T//ccmljrTB.s 			page 58


 2004 04c6 0123     		movs	r3, #1
 2005 04c8 2A46     		mov	r2, r5
 2006 04ca F7E7     		b	.L129
 2007              	.LVL209:
 2008              	.L186:
 799:Drivers/lvgl/src/misc/lv_printf.c ****                     // pre padding
 2009              		.loc 1 799 34 view .LVU563
 2010 04cc 4A46     		mov	r2, r9
 2011 04ce 06E0     		b	.L132
 2012              	.LVL210:
 2013              	.L134:
 811:Drivers/lvgl/src/misc/lv_printf.c ****                         }
 2014              		.loc 1 811 29 is_stmt 1 view .LVU564
 2015 04d0 561C     		adds	r6, r2, #1
 2016              	.LVL211:
 811:Drivers/lvgl/src/misc/lv_printf.c ****                         }
 2017              		.loc 1 811 29 is_stmt 0 view .LVU565
 2018 04d2 3B46     		mov	r3, r7
 2019 04d4 5946     		mov	r1, fp
 2020 04d6 2020     		movs	r0, #32
 2021 04d8 C047     		blx	r8
 2022              	.LVL212:
 810:Drivers/lvgl/src/misc/lv_printf.c ****                             out(' ', buffer, idx++, maxlen);
 2023              		.loc 1 810 32 view .LVU566
 2024 04da 2C46     		mov	r4, r5
 811:Drivers/lvgl/src/misc/lv_printf.c ****                         }
 2025              		.loc 1 811 29 view .LVU567
 2026 04dc 3246     		mov	r2, r6
 2027              	.LVL213:
 2028              	.L132:
 810:Drivers/lvgl/src/misc/lv_printf.c ****                             out(' ', buffer, idx++, maxlen);
 2029              		.loc 1 810 35 is_stmt 1 view .LVU568
 810:Drivers/lvgl/src/misc/lv_printf.c ****                             out(' ', buffer, idx++, maxlen);
 2030              		.loc 1 810 32 is_stmt 0 view .LVU569
 2031 04de 651C     		adds	r5, r4, #1
 2032              	.LVL214:
 810:Drivers/lvgl/src/misc/lv_printf.c ****                             out(' ', buffer, idx++, maxlen);
 2033              		.loc 1 810 35 view .LVU570
 2034 04e0 A245     		cmp	r10, r4
 2035 04e2 F5D8     		bhi	.L134
 810:Drivers/lvgl/src/misc/lv_printf.c ****                             out(' ', buffer, idx++, maxlen);
 2036              		.loc 1 810 35 view .LVU571
 2037 04e4 9146     		mov	r9, r2
 2038 04e6 DCE7     		b	.L133
 2039              	.LVL215:
 2040              	.L102:
 810:Drivers/lvgl/src/misc/lv_printf.c ****                             out(' ', buffer, idx++, maxlen);
 2041              		.loc 1 810 35 view .LVU572
 2042              	.LBE46:
 2043              	.LBB47:
 819:Drivers/lvgl/src/misc/lv_printf.c ****                     unsigned int l = _strnlen_s(p, precision ? precision : (size_t) -1);
 2044              		.loc 1 819 21 is_stmt 1 view .LVU573
 819:Drivers/lvgl/src/misc/lv_printf.c ****                     unsigned int l = _strnlen_s(p, precision ? precision : (size_t) -1);
 2045              		.loc 1 819 34 is_stmt 0 view .LVU574
 2046 04e8 1C9B     		ldr	r3, [sp, #112]
 2047 04ea 1A1D     		adds	r2, r3, #4
 2048 04ec 1C92     		str	r2, [sp, #112]
ARM GAS  /var/folders/lp/x54gwt890xv47sdkqj1k04q40000gn/T//ccmljrTB.s 			page 59


 2049 04ee D3F80090 		ldr	r9, [r3]
 820:Drivers/lvgl/src/misc/lv_printf.c ****                     // pre padding
 2050              		.loc 1 820 21 is_stmt 1 view .LVU575
 820:Drivers/lvgl/src/misc/lv_printf.c ****                     // pre padding
 2051              		.loc 1 820 38 is_stmt 0 view .LVU576
 2052 04f2 0B9B     		ldr	r3, [sp, #44]
 2053 04f4 FBB9     		cbnz	r3, .L135
 820:Drivers/lvgl/src/misc/lv_printf.c ****                     // pre padding
 2054              		.loc 1 820 38 discriminator 2 view .LVU577
 2055 04f6 4FF0FF32 		mov	r2, #-1
 2056              	.L136:
 820:Drivers/lvgl/src/misc/lv_printf.c ****                     // pre padding
 2057              		.loc 1 820 38 discriminator 1 view .LVU578
 2058 04fa 4B46     		mov	r3, r9
 2059 04fc 01E0     		b	.L137
 2060              	.LVL216:
 2061              	.L139:
 2062              	.LBB48:
 2063              	.LBB49:
 146:Drivers/lvgl/src/misc/lv_printf.c ****     return (unsigned int)(s - str);
 2064              		.loc 1 146 35 is_stmt 1 discriminator 4 view .LVU579
 2065 04fe 0133     		adds	r3, r3, #1
 2066              	.LVL217:
 146:Drivers/lvgl/src/misc/lv_printf.c ****     return (unsigned int)(s - str);
 2067              		.loc 1 146 31 is_stmt 0 discriminator 3 view .LVU580
 2068 0500 0A46     		mov	r2, r1
 2069              	.LVL218:
 2070              	.L137:
 146:Drivers/lvgl/src/misc/lv_printf.c ****     return (unsigned int)(s - str);
 2071              		.loc 1 146 21 is_stmt 1 discriminator 1 view .LVU581
 146:Drivers/lvgl/src/misc/lv_printf.c ****     return (unsigned int)(s - str);
 2072              		.loc 1 146 18 is_stmt 0 discriminator 1 view .LVU582
 2073 0502 1978     		ldrb	r1, [r3]	@ zero_extendqisi2
 146:Drivers/lvgl/src/misc/lv_printf.c ****     return (unsigned int)(s - str);
 2074              		.loc 1 146 21 discriminator 1 view .LVU583
 2075 0504 11B1     		cbz	r1, .L138
 146:Drivers/lvgl/src/misc/lv_printf.c ****     return (unsigned int)(s - str);
 2076              		.loc 1 146 31 discriminator 3 view .LVU584
 2077 0506 511E     		subs	r1, r2, #1
 2078              	.LVL219:
 146:Drivers/lvgl/src/misc/lv_printf.c ****     return (unsigned int)(s - str);
 2079              		.loc 1 146 21 discriminator 3 view .LVU585
 2080 0508 002A     		cmp	r2, #0
 2081 050a F8D1     		bne	.L139
 2082              	.LVL220:
 2083              	.L138:
 147:Drivers/lvgl/src/misc/lv_printf.c **** }
 2084              		.loc 1 147 5 is_stmt 1 view .LVU586
 147:Drivers/lvgl/src/misc/lv_printf.c **** }
 2085              		.loc 1 147 29 is_stmt 0 view .LVU587
 2086 050c A3EB0903 		sub	r3, r3, r9
 2087              	.LVL221:
 147:Drivers/lvgl/src/misc/lv_printf.c **** }
 2088              		.loc 1 147 29 view .LVU588
 2089              	.LBE49:
 2090              	.LBE48:
 822:Drivers/lvgl/src/misc/lv_printf.c ****                         l = (l < precision ? l : precision);
ARM GAS  /var/folders/lp/x54gwt890xv47sdkqj1k04q40000gn/T//ccmljrTB.s 			page 60


 2091              		.loc 1 822 21 is_stmt 1 view .LVU589
 822:Drivers/lvgl/src/misc/lv_printf.c ****                         l = (l < precision ? l : precision);
 2092              		.loc 1 822 23 is_stmt 0 view .LVU590
 2093 0510 16F48062 		ands	r2, r6, #1024
 2094 0514 0C92     		str	r2, [sp, #48]
 2095 0516 03D0     		beq	.L140
 823:Drivers/lvgl/src/misc/lv_printf.c ****                     }
 2096              		.loc 1 823 25 is_stmt 1 view .LVU591
 823:Drivers/lvgl/src/misc/lv_printf.c ****                     }
 2097              		.loc 1 823 27 is_stmt 0 view .LVU592
 2098 0518 0B9A     		ldr	r2, [sp, #44]
 2099 051a 9342     		cmp	r3, r2
 2100 051c 28BF     		it	cs
 2101 051e 1346     		movcs	r3, r2
 2102              	.LVL222:
 2103              	.L140:
 825:Drivers/lvgl/src/misc/lv_printf.c ****                         while(l++ < width) {
 2104              		.loc 1 825 21 is_stmt 1 view .LVU593
 825:Drivers/lvgl/src/misc/lv_printf.c ****                         while(l++ < width) {
 2105              		.loc 1 825 23 is_stmt 0 view .LVU594
 2106 0520 16F00204 		ands	r4, r6, #2
 2107 0524 09D0     		beq	.L187
 825:Drivers/lvgl/src/misc/lv_printf.c ****                         while(l++ < width) {
 2108              		.loc 1 825 23 view .LVU595
 2109 0526 0D94     		str	r4, [sp, #52]
 2110 0528 CDF838A0 		str	r10, [sp, #56]
 2111 052c 0B9E     		ldr	r6, [sp, #44]
 2112              	.LVL223:
 825:Drivers/lvgl/src/misc/lv_printf.c ****                         while(l++ < width) {
 2113              		.loc 1 825 23 view .LVU596
 2114 052e 2A46     		mov	r2, r5
 2115 0530 0C9D     		ldr	r5, [sp, #48]
 2116              	.LVL224:
 825:Drivers/lvgl/src/misc/lv_printf.c ****                         while(l++ < width) {
 2117              		.loc 1 825 23 view .LVU597
 2118 0532 9A46     		mov	r10, r3
 2119              	.LVL225:
 825:Drivers/lvgl/src/misc/lv_printf.c ****                         while(l++ < width) {
 2120              		.loc 1 825 23 view .LVU598
 2121 0534 1FE0     		b	.L144
 2122              	.LVL226:
 2123              	.L135:
 820:Drivers/lvgl/src/misc/lv_printf.c ****                     // pre padding
 2124              		.loc 1 820 38 discriminator 1 view .LVU599
 2125 0536 0B9A     		ldr	r2, [sp, #44]
 2126 0538 DFE7     		b	.L136
 2127              	.LVL227:
 2128              	.L187:
 820:Drivers/lvgl/src/misc/lv_printf.c ****                     // pre padding
 2129              		.loc 1 820 38 discriminator 1 view .LVU600
 2130 053a 2A46     		mov	r2, r5
 2131 053c 2546     		mov	r5, r4
 2132              	.LVL228:
 820:Drivers/lvgl/src/misc/lv_printf.c ****                     // pre padding
 2133              		.loc 1 820 38 discriminator 1 view .LVU601
 2134 053e 06E0     		b	.L141
 2135              	.LVL229:
ARM GAS  /var/folders/lp/x54gwt890xv47sdkqj1k04q40000gn/T//ccmljrTB.s 			page 61


 2136              	.L143:
 827:Drivers/lvgl/src/misc/lv_printf.c ****                         }
 2137              		.loc 1 827 29 is_stmt 1 view .LVU602
 2138 0540 541C     		adds	r4, r2, #1
 2139              	.LVL230:
 827:Drivers/lvgl/src/misc/lv_printf.c ****                         }
 2140              		.loc 1 827 29 is_stmt 0 view .LVU603
 2141 0542 3B46     		mov	r3, r7
 2142 0544 5946     		mov	r1, fp
 2143 0546 2020     		movs	r0, #32
 2144 0548 C047     		blx	r8
 2145              	.LVL231:
 826:Drivers/lvgl/src/misc/lv_printf.c ****                             out(' ', buffer, idx++, maxlen);
 2146              		.loc 1 826 32 view .LVU604
 2147 054a 3346     		mov	r3, r6
 827:Drivers/lvgl/src/misc/lv_printf.c ****                         }
 2148              		.loc 1 827 29 view .LVU605
 2149 054c 2246     		mov	r2, r4
 2150              	.LVL232:
 2151              	.L141:
 826:Drivers/lvgl/src/misc/lv_printf.c ****                             out(' ', buffer, idx++, maxlen);
 2152              		.loc 1 826 35 is_stmt 1 view .LVU606
 826:Drivers/lvgl/src/misc/lv_printf.c ****                             out(' ', buffer, idx++, maxlen);
 2153              		.loc 1 826 32 is_stmt 0 view .LVU607
 2154 054e 5E1C     		adds	r6, r3, #1
 2155              	.LVL233:
 826:Drivers/lvgl/src/misc/lv_printf.c ****                             out(' ', buffer, idx++, maxlen);
 2156              		.loc 1 826 35 view .LVU608
 2157 0550 9A45     		cmp	r10, r3
 2158 0552 F5D8     		bhi	.L143
 826:Drivers/lvgl/src/misc/lv_printf.c ****                             out(' ', buffer, idx++, maxlen);
 2159              		.loc 1 826 32 view .LVU609
 2160 0554 2C46     		mov	r4, r5
 2161 0556 3346     		mov	r3, r6
 2162 0558 0D94     		str	r4, [sp, #52]
 2163 055a CDF838A0 		str	r10, [sp, #56]
 2164 055e 0B9E     		ldr	r6, [sp, #44]
 2165              	.LVL234:
 826:Drivers/lvgl/src/misc/lv_printf.c ****                             out(' ', buffer, idx++, maxlen);
 2166              		.loc 1 826 32 view .LVU610
 2167 0560 0C9D     		ldr	r5, [sp, #48]
 2168 0562 9A46     		mov	r10, r3
 2169              	.LVL235:
 826:Drivers/lvgl/src/misc/lv_printf.c ****                             out(' ', buffer, idx++, maxlen);
 2170              		.loc 1 826 32 view .LVU611
 2171 0564 07E0     		b	.L144
 2172              	.LVL236:
 2173              	.L161:
 831:Drivers/lvgl/src/misc/lv_printf.c ****                         out(*(p++), buffer, idx++, maxlen);
 2174              		.loc 1 831 80 discriminator 2 view .LVU612
 2175 0566 1E46     		mov	r6, r3
 2176              	.LVL237:
 2177              	.L146:
 832:Drivers/lvgl/src/misc/lv_printf.c ****                     }
 2178              		.loc 1 832 25 is_stmt 1 view .LVU613
 832:Drivers/lvgl/src/misc/lv_printf.c ****                     }
 2179              		.loc 1 832 32 is_stmt 0 view .LVU614
ARM GAS  /var/folders/lp/x54gwt890xv47sdkqj1k04q40000gn/T//ccmljrTB.s 			page 62


 2180 0568 09F10109 		add	r9, r9, #1
 2181              	.LVL238:
 832:Drivers/lvgl/src/misc/lv_printf.c ****                     }
 2182              		.loc 1 832 25 view .LVU615
 2183 056c 541C     		adds	r4, r2, #1
 2184              	.LVL239:
 832:Drivers/lvgl/src/misc/lv_printf.c ****                     }
 2185              		.loc 1 832 25 view .LVU616
 2186 056e 3B46     		mov	r3, r7
 2187 0570 5946     		mov	r1, fp
 2188 0572 C047     		blx	r8
 2189              	.LVL240:
 2190 0574 2246     		mov	r2, r4
 2191              	.LVL241:
 2192              	.L144:
 831:Drivers/lvgl/src/misc/lv_printf.c ****                         out(*(p++), buffer, idx++, maxlen);
 2193              		.loc 1 831 37 is_stmt 1 view .LVU617
 831:Drivers/lvgl/src/misc/lv_printf.c ****                         out(*(p++), buffer, idx++, maxlen);
 2194              		.loc 1 831 28 is_stmt 0 view .LVU618
 2195 0576 99F80000 		ldrb	r0, [r9]	@ zero_extendqisi2
 831:Drivers/lvgl/src/misc/lv_printf.c ****                         out(*(p++), buffer, idx++, maxlen);
 2196              		.loc 1 831 37 view .LVU619
 2197 057a 20B1     		cbz	r0, .L145
 831:Drivers/lvgl/src/misc/lv_printf.c ****                         out(*(p++), buffer, idx++, maxlen);
 2198              		.loc 1 831 37 discriminator 1 view .LVU620
 2199 057c 002D     		cmp	r5, #0
 2200 057e F3D0     		beq	.L146
 831:Drivers/lvgl/src/misc/lv_printf.c ****                         out(*(p++), buffer, idx++, maxlen);
 2201              		.loc 1 831 80 discriminator 2 view .LVU621
 2202 0580 731E     		subs	r3, r6, #1
 2203              	.LVL242:
 831:Drivers/lvgl/src/misc/lv_printf.c ****                         out(*(p++), buffer, idx++, maxlen);
 2204              		.loc 1 831 68 discriminator 2 view .LVU622
 2205 0582 002E     		cmp	r6, #0
 2206 0584 EFD1     		bne	.L161
 2207              	.LVL243:
 2208              	.L145:
 835:Drivers/lvgl/src/misc/lv_printf.c ****                         while(l++ < width) {
 2209              		.loc 1 835 23 view .LVU623
 2210 0586 0D9C     		ldr	r4, [sp, #52]
 2211 0588 1546     		mov	r5, r2
 2212 058a 5346     		mov	r3, r10
 2213 058c DDF838A0 		ldr	r10, [sp, #56]
 2214              	.LVL244:
 835:Drivers/lvgl/src/misc/lv_printf.c ****                         while(l++ < width) {
 2215              		.loc 1 835 21 is_stmt 1 view .LVU624
 835:Drivers/lvgl/src/misc/lv_printf.c ****                         while(l++ < width) {
 2216              		.loc 1 835 23 is_stmt 0 view .LVU625
 2217 0590 54B9     		cbnz	r4, .L147
 2218              	.LVL245:
 2219              	.L148:
 840:Drivers/lvgl/src/misc/lv_printf.c ****                     break;
 2220              		.loc 1 840 21 is_stmt 1 view .LVU626
 840:Drivers/lvgl/src/misc/lv_printf.c ****                     break;
 2221              		.loc 1 840 27 is_stmt 0 view .LVU627
 2222 0592 0F9B     		ldr	r3, [sp, #60]
 2223 0594 0133     		adds	r3, r3, #1
ARM GAS  /var/folders/lp/x54gwt890xv47sdkqj1k04q40000gn/T//ccmljrTB.s 			page 63


 2224 0596 0F93     		str	r3, [sp, #60]
 841:Drivers/lvgl/src/misc/lv_printf.c ****                 }
 2225              		.loc 1 841 21 is_stmt 1 view .LVU628
 2226 0598 3DE5     		b	.L150
 2227              	.LVL246:
 2228              	.L149:
 837:Drivers/lvgl/src/misc/lv_printf.c ****                         }
 2229              		.loc 1 837 29 view .LVU629
 2230 059a 551C     		adds	r5, r2, #1
 2231              	.LVL247:
 837:Drivers/lvgl/src/misc/lv_printf.c ****                         }
 2232              		.loc 1 837 29 is_stmt 0 view .LVU630
 2233 059c 3B46     		mov	r3, r7
 2234 059e 5946     		mov	r1, fp
 2235 05a0 2020     		movs	r0, #32
 2236 05a2 C047     		blx	r8
 2237              	.LVL248:
 836:Drivers/lvgl/src/misc/lv_printf.c ****                             out(' ', buffer, idx++, maxlen);
 2238              		.loc 1 836 32 view .LVU631
 2239 05a4 2346     		mov	r3, r4
 837:Drivers/lvgl/src/misc/lv_printf.c ****                         }
 2240              		.loc 1 837 29 view .LVU632
 2241 05a6 2A46     		mov	r2, r5
 2242              	.LVL249:
 2243              	.L147:
 836:Drivers/lvgl/src/misc/lv_printf.c ****                             out(' ', buffer, idx++, maxlen);
 2244              		.loc 1 836 35 is_stmt 1 view .LVU633
 836:Drivers/lvgl/src/misc/lv_printf.c ****                             out(' ', buffer, idx++, maxlen);
 2245              		.loc 1 836 32 is_stmt 0 view .LVU634
 2246 05a8 5C1C     		adds	r4, r3, #1
 2247              	.LVL250:
 836:Drivers/lvgl/src/misc/lv_printf.c ****                             out(' ', buffer, idx++, maxlen);
 2248              		.loc 1 836 35 view .LVU635
 2249 05aa 9A45     		cmp	r10, r3
 2250 05ac F5D8     		bhi	.L149
 836:Drivers/lvgl/src/misc/lv_printf.c ****                             out(' ', buffer, idx++, maxlen);
 2251              		.loc 1 836 35 view .LVU636
 2252 05ae 1546     		mov	r5, r2
 2253 05b0 EFE7     		b	.L148
 2254              	.LVL251:
 2255              	.L166:
 836:Drivers/lvgl/src/misc/lv_printf.c ****                             out(' ', buffer, idx++, maxlen);
 2256              		.loc 1 836 35 view .LVU637
 2257              	.LBE47:
 557:Drivers/lvgl/src/misc/lv_printf.c ****     }
 2258              		.loc 1 557 13 view .LVU638
 2259 05b2 DFF82080 		ldr	r8, .L190
 2260 05b6 2DE5     		b	.L73
 2261              	.LVL252:
 2262              	.L167:
 853:Drivers/lvgl/src/misc/lv_printf.c ****         }
 854:Drivers/lvgl/src/misc/lv_printf.c ****     }
 855:Drivers/lvgl/src/misc/lv_printf.c **** 
 856:Drivers/lvgl/src/misc/lv_printf.c ****     // termination
 857:Drivers/lvgl/src/misc/lv_printf.c ****     out((char)0, buffer, idx < maxlen ? idx : maxlen - 1U, maxlen);
 2263              		.loc 1 857 5 is_stmt 1 view .LVU639
 2264 05b8 BD42     		cmp	r5, r7
ARM GAS  /var/folders/lp/x54gwt890xv47sdkqj1k04q40000gn/T//ccmljrTB.s 			page 64


 2265 05ba 08D3     		bcc	.L162
 2266              		.loc 1 857 5 is_stmt 0 discriminator 1 view .LVU640
 2267 05bc 7A1E     		subs	r2, r7, #1
 2268              	.L152:
 2269              		.loc 1 857 5 discriminator 4 view .LVU641
 2270 05be 3B46     		mov	r3, r7
 2271 05c0 5946     		mov	r1, fp
 2272 05c2 0020     		movs	r0, #0
 2273 05c4 C047     		blx	r8
 2274              	.LVL253:
 858:Drivers/lvgl/src/misc/lv_printf.c **** 
 859:Drivers/lvgl/src/misc/lv_printf.c ****     // return written chars without terminating \0
 860:Drivers/lvgl/src/misc/lv_printf.c ****     return (int)idx;
 2275              		.loc 1 860 5 is_stmt 1 view .LVU642
 861:Drivers/lvgl/src/misc/lv_printf.c **** }
 2276              		.loc 1 861 1 is_stmt 0 view .LVU643
 2277 05c6 2846     		mov	r0, r5
 2278 05c8 13B0     		add	sp, sp, #76
 2279              		.cfi_remember_state
 2280              		.cfi_def_cfa_offset 36
 2281              		@ sp needed
 2282 05ca BDE8F08F 		pop	{r4, r5, r6, r7, r8, r9, r10, fp, pc}
 2283              	.LVL254:
 2284              	.L162:
 2285              		.cfi_restore_state
 857:Drivers/lvgl/src/misc/lv_printf.c **** 
 2286              		.loc 1 857 5 discriminator 2 view .LVU644
 2287 05ce 2A46     		mov	r2, r5
 2288 05d0 F5E7     		b	.L152
 2289              	.L191:
 2290 05d2 00BF     		.align	2
 2291              	.L190:
 2292 05d4 00000000 		.word	_out_null
 2293              		.cfi_endproc
 2294              	.LFE9:
 2296              		.section	.text.lv_snprintf,"ax",%progbits
 2297              		.align	1
 2298              		.global	lv_snprintf
 2299              		.syntax unified
 2300              		.thumb
 2301              		.thumb_func
 2303              	lv_snprintf:
 2304              	.LVL255:
 2305              	.LFB10:
 862:Drivers/lvgl/src/misc/lv_printf.c **** 
 863:Drivers/lvgl/src/misc/lv_printf.c **** ///////////////////////////////////////////////////////////////////////////////
 864:Drivers/lvgl/src/misc/lv_printf.c **** 
 865:Drivers/lvgl/src/misc/lv_printf.c **** int lv_snprintf(char * buffer, size_t count, const char * format, ...)
 866:Drivers/lvgl/src/misc/lv_printf.c **** {
 2306              		.loc 1 866 1 is_stmt 1 view -0
 2307              		.cfi_startproc
 2308              		@ args = 4, pretend = 8, frame = 8
 2309              		@ frame_needed = 0, uses_anonymous_args = 1
 2310              		.loc 1 866 1 is_stmt 0 view .LVU646
 2311 0000 0CB4     		push	{r2, r3}
 2312              		.cfi_def_cfa_offset 8
 2313              		.cfi_offset 2, -8
ARM GAS  /var/folders/lp/x54gwt890xv47sdkqj1k04q40000gn/T//ccmljrTB.s 			page 65


 2314              		.cfi_offset 3, -4
 2315 0002 10B5     		push	{r4, lr}
 2316              		.cfi_def_cfa_offset 16
 2317              		.cfi_offset 4, -16
 2318              		.cfi_offset 14, -12
 2319 0004 84B0     		sub	sp, sp, #16
 2320              		.cfi_def_cfa_offset 32
 2321 0006 0A46     		mov	r2, r1
 2322 0008 06AC     		add	r4, sp, #24
 2323 000a 54F8043B 		ldr	r3, [r4], #4
 867:Drivers/lvgl/src/misc/lv_printf.c ****     va_list va;
 2324              		.loc 1 867 5 is_stmt 1 view .LVU647
 868:Drivers/lvgl/src/misc/lv_printf.c ****     va_start(va, format);
 2325              		.loc 1 868 5 view .LVU648
 2326 000e 0394     		str	r4, [sp, #12]
 869:Drivers/lvgl/src/misc/lv_printf.c ****     const int ret = _vsnprintf(_out_buffer, buffer, count, format, va);
 2327              		.loc 1 869 5 view .LVU649
 2328              		.loc 1 869 21 is_stmt 0 view .LVU650
 2329 0010 0094     		str	r4, [sp]
 2330 0012 0146     		mov	r1, r0
 2331              	.LVL256:
 2332              		.loc 1 869 21 view .LVU651
 2333 0014 0348     		ldr	r0, .L194
 2334              	.LVL257:
 2335              		.loc 1 869 21 view .LVU652
 2336 0016 FFF7FEFF 		bl	_vsnprintf
 2337              	.LVL258:
 870:Drivers/lvgl/src/misc/lv_printf.c ****     va_end(va);
 2338              		.loc 1 870 5 is_stmt 1 view .LVU653
 871:Drivers/lvgl/src/misc/lv_printf.c ****     return ret;
 2339              		.loc 1 871 5 view .LVU654
 872:Drivers/lvgl/src/misc/lv_printf.c **** }
 2340              		.loc 1 872 1 is_stmt 0 view .LVU655
 2341 001a 04B0     		add	sp, sp, #16
 2342              		.cfi_def_cfa_offset 16
 2343              		@ sp needed
 2344 001c BDE81040 		pop	{r4, lr}
 2345              		.cfi_restore 14
 2346              		.cfi_restore 4
 2347              		.cfi_def_cfa_offset 8
 2348 0020 02B0     		add	sp, sp, #8
 2349              		.cfi_restore 3
 2350              		.cfi_restore 2
 2351              		.cfi_def_cfa_offset 0
 2352 0022 7047     		bx	lr
 2353              	.L195:
 2354              		.align	2
 2355              	.L194:
 2356 0024 00000000 		.word	_out_buffer
 2357              		.cfi_endproc
 2358              	.LFE10:
 2360              		.section	.text.lv_vsnprintf,"ax",%progbits
 2361              		.align	1
 2362              		.global	lv_vsnprintf
 2363              		.syntax unified
 2364              		.thumb
 2365              		.thumb_func
ARM GAS  /var/folders/lp/x54gwt890xv47sdkqj1k04q40000gn/T//ccmljrTB.s 			page 66


 2367              	lv_vsnprintf:
 2368              	.LVL259:
 2369              	.LFB11:
 873:Drivers/lvgl/src/misc/lv_printf.c **** 
 874:Drivers/lvgl/src/misc/lv_printf.c **** int lv_vsnprintf(char * buffer, size_t count, const char * format, va_list va)
 875:Drivers/lvgl/src/misc/lv_printf.c **** {
 2370              		.loc 1 875 1 is_stmt 1 view -0
 2371              		.cfi_startproc
 2372              		@ args = 0, pretend = 0, frame = 0
 2373              		@ frame_needed = 0, uses_anonymous_args = 0
 2374              		.loc 1 875 1 is_stmt 0 view .LVU657
 2375 0000 00B5     		push	{lr}
 2376              		.cfi_def_cfa_offset 4
 2377              		.cfi_offset 14, -4
 2378 0002 83B0     		sub	sp, sp, #12
 2379              		.cfi_def_cfa_offset 16
 876:Drivers/lvgl/src/misc/lv_printf.c ****     return _vsnprintf(_out_buffer, buffer, count, format, va);
 2380              		.loc 1 876 5 is_stmt 1 view .LVU658
 2381              		.loc 1 876 12 is_stmt 0 view .LVU659
 2382 0004 0093     		str	r3, [sp]
 2383 0006 1346     		mov	r3, r2
 2384              	.LVL260:
 2385              		.loc 1 876 12 view .LVU660
 2386 0008 0A46     		mov	r2, r1
 2387              	.LVL261:
 2388              		.loc 1 876 12 view .LVU661
 2389 000a 0146     		mov	r1, r0
 2390              	.LVL262:
 2391              		.loc 1 876 12 view .LVU662
 2392 000c 0248     		ldr	r0, .L198
 2393              	.LVL263:
 2394              		.loc 1 876 12 view .LVU663
 2395 000e FFF7FEFF 		bl	_vsnprintf
 2396              	.LVL264:
 877:Drivers/lvgl/src/misc/lv_printf.c **** }
 2397              		.loc 1 877 1 view .LVU664
 2398 0012 03B0     		add	sp, sp, #12
 2399              		.cfi_def_cfa_offset 4
 2400              		@ sp needed
 2401 0014 5DF804FB 		ldr	pc, [sp], #4
 2402              	.L199:
 2403              		.align	2
 2404              	.L198:
 2405 0018 00000000 		.word	_out_buffer
 2406              		.cfi_endproc
 2407              	.LFE11:
 2409              		.text
 2410              	.Letext0:
 2411              		.file 2 "/Users/jr/Library/Application Support/Code/User/globalStorage/bmd.stm32-for-vscode/@xpack
 2412              		.file 3 "/Users/jr/Library/Application Support/Code/User/globalStorage/bmd.stm32-for-vscode/@xpack
 2413              		.file 4 "Drivers/lvgl/src/misc/lv_printf.h"
 2414              		.file 5 "<built-in>"
ARM GAS  /var/folders/lp/x54gwt890xv47sdkqj1k04q40000gn/T//ccmljrTB.s 			page 67

