ARM GAS  /var/folders/lp/x54gwt890xv47sdkqj1k04q40000gn/T//ccDzkxjV.s 			page 1


   1              		.cpu cortex-m4
   2              		.arch armv7e-m
   3              		.fpu fpv4-sp-d16
   4              		.eabi_attribute 27, 1
   5              		.eabi_attribute 28, 1
   6              		.eabi_attribute 20, 1
   7              		.eabi_attribute 21, 1
   8              		.eabi_attribute 23, 3
   9              		.eabi_attribute 24, 1
  10              		.eabi_attribute 25, 1
  11              		.eabi_attribute 26, 1
  12              		.eabi_attribute 30, 1
  13              		.eabi_attribute 34, 1
  14              		.eabi_attribute 18, 4
  15              		.file	"lv_slider.c"
  16              		.text
  17              	.Ltext0:
  18              		.cfi_sections	.debug_frame
  19              		.file 1 "Drivers/lvgl/src/widgets/lv_slider.c"
  20              		.section	.text.is_slider_horizontal,"ax",%progbits
  21              		.align	1
  22              		.syntax unified
  23              		.thumb
  24              		.thumb_func
  26              	is_slider_horizontal:
  27              	.LVL0:
  28              	.LFB182:
   1:Drivers/lvgl/src/widgets/lv_slider.c **** /**
   2:Drivers/lvgl/src/widgets/lv_slider.c ****  * @file lv_slider.c
   3:Drivers/lvgl/src/widgets/lv_slider.c ****  *
   4:Drivers/lvgl/src/widgets/lv_slider.c ****  */
   5:Drivers/lvgl/src/widgets/lv_slider.c **** 
   6:Drivers/lvgl/src/widgets/lv_slider.c **** /*********************
   7:Drivers/lvgl/src/widgets/lv_slider.c ****  *      INCLUDES
   8:Drivers/lvgl/src/widgets/lv_slider.c ****  *********************/
   9:Drivers/lvgl/src/widgets/lv_slider.c **** #include "lv_slider.h"
  10:Drivers/lvgl/src/widgets/lv_slider.c **** #if LV_USE_SLIDER != 0
  11:Drivers/lvgl/src/widgets/lv_slider.c **** 
  12:Drivers/lvgl/src/widgets/lv_slider.c **** #include "../misc/lv_assert.h"
  13:Drivers/lvgl/src/widgets/lv_slider.c **** #include "../core/lv_group.h"
  14:Drivers/lvgl/src/widgets/lv_slider.c **** #include "../core/lv_indev.h"
  15:Drivers/lvgl/src/widgets/lv_slider.c **** #include "../draw/lv_draw.h"
  16:Drivers/lvgl/src/widgets/lv_slider.c **** #include "../misc/lv_math.h"
  17:Drivers/lvgl/src/widgets/lv_slider.c **** #include "../core/lv_disp.h"
  18:Drivers/lvgl/src/widgets/lv_slider.c **** #include "lv_img.h"
  19:Drivers/lvgl/src/widgets/lv_slider.c **** 
  20:Drivers/lvgl/src/widgets/lv_slider.c **** /*********************
  21:Drivers/lvgl/src/widgets/lv_slider.c ****  *      DEFINES
  22:Drivers/lvgl/src/widgets/lv_slider.c ****  *********************/
  23:Drivers/lvgl/src/widgets/lv_slider.c **** #define MY_CLASS &lv_slider_class
  24:Drivers/lvgl/src/widgets/lv_slider.c **** 
  25:Drivers/lvgl/src/widgets/lv_slider.c **** #define LV_SLIDER_KNOB_COORD(is_rtl, area) (is_rtl ? area.x1 : area.x2)
  26:Drivers/lvgl/src/widgets/lv_slider.c **** 
  27:Drivers/lvgl/src/widgets/lv_slider.c **** /**********************
  28:Drivers/lvgl/src/widgets/lv_slider.c ****  *      TYPEDEFS
  29:Drivers/lvgl/src/widgets/lv_slider.c ****  **********************/
  30:Drivers/lvgl/src/widgets/lv_slider.c **** 
ARM GAS  /var/folders/lp/x54gwt890xv47sdkqj1k04q40000gn/T//ccDzkxjV.s 			page 2


  31:Drivers/lvgl/src/widgets/lv_slider.c **** /**********************
  32:Drivers/lvgl/src/widgets/lv_slider.c ****  *  STATIC PROTOTYPES
  33:Drivers/lvgl/src/widgets/lv_slider.c ****  **********************/
  34:Drivers/lvgl/src/widgets/lv_slider.c **** static void lv_slider_constructor(const lv_obj_class_t * class_p, lv_obj_t * obj);
  35:Drivers/lvgl/src/widgets/lv_slider.c **** static void lv_slider_event(const lv_obj_class_t * class_p, lv_event_t * e);
  36:Drivers/lvgl/src/widgets/lv_slider.c **** static void position_knob(lv_obj_t * obj, lv_area_t * knob_area, const lv_coord_t knob_size, const 
  37:Drivers/lvgl/src/widgets/lv_slider.c **** static void draw_knob(lv_event_t * e);
  38:Drivers/lvgl/src/widgets/lv_slider.c **** static bool is_slider_horizontal(lv_obj_t * obj);
  39:Drivers/lvgl/src/widgets/lv_slider.c **** 
  40:Drivers/lvgl/src/widgets/lv_slider.c **** /**********************
  41:Drivers/lvgl/src/widgets/lv_slider.c ****  *  STATIC VARIABLES
  42:Drivers/lvgl/src/widgets/lv_slider.c ****  **********************/
  43:Drivers/lvgl/src/widgets/lv_slider.c **** const lv_obj_class_t lv_slider_class = {
  44:Drivers/lvgl/src/widgets/lv_slider.c ****     .constructor_cb = lv_slider_constructor,
  45:Drivers/lvgl/src/widgets/lv_slider.c ****     .event_cb = lv_slider_event,
  46:Drivers/lvgl/src/widgets/lv_slider.c ****     .editable = LV_OBJ_CLASS_EDITABLE_TRUE,
  47:Drivers/lvgl/src/widgets/lv_slider.c ****     .group_def = LV_OBJ_CLASS_GROUP_DEF_TRUE,
  48:Drivers/lvgl/src/widgets/lv_slider.c ****     .instance_size = sizeof(lv_slider_t),
  49:Drivers/lvgl/src/widgets/lv_slider.c ****     .base_class = &lv_bar_class
  50:Drivers/lvgl/src/widgets/lv_slider.c **** };
  51:Drivers/lvgl/src/widgets/lv_slider.c **** 
  52:Drivers/lvgl/src/widgets/lv_slider.c **** /**********************
  53:Drivers/lvgl/src/widgets/lv_slider.c ****  *      MACROS
  54:Drivers/lvgl/src/widgets/lv_slider.c ****  **********************/
  55:Drivers/lvgl/src/widgets/lv_slider.c **** 
  56:Drivers/lvgl/src/widgets/lv_slider.c **** /**********************
  57:Drivers/lvgl/src/widgets/lv_slider.c ****  *   GLOBAL FUNCTIONS
  58:Drivers/lvgl/src/widgets/lv_slider.c ****  **********************/
  59:Drivers/lvgl/src/widgets/lv_slider.c **** 
  60:Drivers/lvgl/src/widgets/lv_slider.c **** lv_obj_t * lv_slider_create(lv_obj_t * parent)
  61:Drivers/lvgl/src/widgets/lv_slider.c **** {
  62:Drivers/lvgl/src/widgets/lv_slider.c ****     LV_LOG_INFO("begin");
  63:Drivers/lvgl/src/widgets/lv_slider.c ****     lv_obj_t * obj = lv_obj_class_create_obj(MY_CLASS, parent);
  64:Drivers/lvgl/src/widgets/lv_slider.c ****     lv_obj_class_init_obj(obj);
  65:Drivers/lvgl/src/widgets/lv_slider.c ****     return obj;
  66:Drivers/lvgl/src/widgets/lv_slider.c **** }
  67:Drivers/lvgl/src/widgets/lv_slider.c **** 
  68:Drivers/lvgl/src/widgets/lv_slider.c **** bool lv_slider_is_dragged(const lv_obj_t * obj)
  69:Drivers/lvgl/src/widgets/lv_slider.c **** {
  70:Drivers/lvgl/src/widgets/lv_slider.c ****     LV_ASSERT_OBJ(obj, MY_CLASS);
  71:Drivers/lvgl/src/widgets/lv_slider.c ****     lv_slider_t * slider = (lv_slider_t *)obj;
  72:Drivers/lvgl/src/widgets/lv_slider.c **** 
  73:Drivers/lvgl/src/widgets/lv_slider.c ****     return slider->dragging ? true : false;
  74:Drivers/lvgl/src/widgets/lv_slider.c **** }
  75:Drivers/lvgl/src/widgets/lv_slider.c **** 
  76:Drivers/lvgl/src/widgets/lv_slider.c **** /**********************
  77:Drivers/lvgl/src/widgets/lv_slider.c ****  *   STATIC FUNCTIONS
  78:Drivers/lvgl/src/widgets/lv_slider.c ****  **********************/
  79:Drivers/lvgl/src/widgets/lv_slider.c **** 
  80:Drivers/lvgl/src/widgets/lv_slider.c **** static void lv_slider_constructor(const lv_obj_class_t * class_p, lv_obj_t * obj)
  81:Drivers/lvgl/src/widgets/lv_slider.c **** {
  82:Drivers/lvgl/src/widgets/lv_slider.c ****     LV_UNUSED(class_p);
  83:Drivers/lvgl/src/widgets/lv_slider.c ****     lv_slider_t * slider = (lv_slider_t *)obj;
  84:Drivers/lvgl/src/widgets/lv_slider.c **** 
  85:Drivers/lvgl/src/widgets/lv_slider.c ****     /*Initialize the allocated 'slider'*/
  86:Drivers/lvgl/src/widgets/lv_slider.c ****     slider->value_to_set = NULL;
  87:Drivers/lvgl/src/widgets/lv_slider.c ****     slider->dragging = 0U;
ARM GAS  /var/folders/lp/x54gwt890xv47sdkqj1k04q40000gn/T//ccDzkxjV.s 			page 3


  88:Drivers/lvgl/src/widgets/lv_slider.c ****     slider->left_knob_focus = 0U;
  89:Drivers/lvgl/src/widgets/lv_slider.c **** 
  90:Drivers/lvgl/src/widgets/lv_slider.c ****     lv_obj_clear_flag(obj, LV_OBJ_FLAG_SCROLL_CHAIN);
  91:Drivers/lvgl/src/widgets/lv_slider.c ****     lv_obj_clear_flag(obj, LV_OBJ_FLAG_SCROLLABLE);
  92:Drivers/lvgl/src/widgets/lv_slider.c ****     lv_obj_set_ext_click_area(obj, LV_DPX(8));
  93:Drivers/lvgl/src/widgets/lv_slider.c **** }
  94:Drivers/lvgl/src/widgets/lv_slider.c **** 
  95:Drivers/lvgl/src/widgets/lv_slider.c **** static void lv_slider_event(const lv_obj_class_t * class_p, lv_event_t * e)
  96:Drivers/lvgl/src/widgets/lv_slider.c **** {
  97:Drivers/lvgl/src/widgets/lv_slider.c ****     LV_UNUSED(class_p);
  98:Drivers/lvgl/src/widgets/lv_slider.c **** 
  99:Drivers/lvgl/src/widgets/lv_slider.c ****     lv_res_t res;
 100:Drivers/lvgl/src/widgets/lv_slider.c **** 
 101:Drivers/lvgl/src/widgets/lv_slider.c ****     /*Call the ancestor's event handler*/
 102:Drivers/lvgl/src/widgets/lv_slider.c ****     res = lv_obj_event_base(MY_CLASS, e);
 103:Drivers/lvgl/src/widgets/lv_slider.c ****     if(res != LV_RES_OK) return;
 104:Drivers/lvgl/src/widgets/lv_slider.c **** 
 105:Drivers/lvgl/src/widgets/lv_slider.c ****     lv_event_code_t code = lv_event_get_code(e);
 106:Drivers/lvgl/src/widgets/lv_slider.c ****     lv_obj_t * obj = lv_event_get_target(e);
 107:Drivers/lvgl/src/widgets/lv_slider.c ****     lv_slider_t * slider = (lv_slider_t *)obj;
 108:Drivers/lvgl/src/widgets/lv_slider.c ****     lv_slider_mode_t type = lv_slider_get_mode(obj);
 109:Drivers/lvgl/src/widgets/lv_slider.c **** 
 110:Drivers/lvgl/src/widgets/lv_slider.c ****     /*Advanced hit testing: react only on dragging the knob(s)*/
 111:Drivers/lvgl/src/widgets/lv_slider.c ****     if(code == LV_EVENT_HIT_TEST) {
 112:Drivers/lvgl/src/widgets/lv_slider.c ****         lv_hit_test_info_t * info = lv_event_get_param(e);
 113:Drivers/lvgl/src/widgets/lv_slider.c ****         lv_coord_t ext_click_area = obj->spec_attr ? obj->spec_attr->ext_click_pad : 0;
 114:Drivers/lvgl/src/widgets/lv_slider.c **** 
 115:Drivers/lvgl/src/widgets/lv_slider.c ****         /*Ordinary slider: was the knob area hit?*/
 116:Drivers/lvgl/src/widgets/lv_slider.c ****         lv_area_t a;
 117:Drivers/lvgl/src/widgets/lv_slider.c ****         lv_area_copy(&a, &slider->right_knob_area);
 118:Drivers/lvgl/src/widgets/lv_slider.c ****         lv_area_increase(&a, ext_click_area, ext_click_area);
 119:Drivers/lvgl/src/widgets/lv_slider.c ****         info->res = _lv_area_is_point_on(&a, info->point, 0);
 120:Drivers/lvgl/src/widgets/lv_slider.c **** 
 121:Drivers/lvgl/src/widgets/lv_slider.c ****         /*There's still a chance that there is a hit if there is another knob*/
 122:Drivers/lvgl/src/widgets/lv_slider.c ****         if((info->res == false) && (type == LV_SLIDER_MODE_RANGE)) {
 123:Drivers/lvgl/src/widgets/lv_slider.c ****             lv_area_copy(&a, &slider->left_knob_area);
 124:Drivers/lvgl/src/widgets/lv_slider.c ****             lv_area_increase(&a, ext_click_area, ext_click_area);
 125:Drivers/lvgl/src/widgets/lv_slider.c ****             info->res = _lv_area_is_point_on(&a, info->point, 0);
 126:Drivers/lvgl/src/widgets/lv_slider.c ****         }
 127:Drivers/lvgl/src/widgets/lv_slider.c ****     }
 128:Drivers/lvgl/src/widgets/lv_slider.c ****     else if(code == LV_EVENT_PRESSED) {
 129:Drivers/lvgl/src/widgets/lv_slider.c ****         lv_obj_invalidate(obj);
 130:Drivers/lvgl/src/widgets/lv_slider.c **** 
 131:Drivers/lvgl/src/widgets/lv_slider.c ****         lv_point_t p;
 132:Drivers/lvgl/src/widgets/lv_slider.c ****         slider->dragging = true;
 133:Drivers/lvgl/src/widgets/lv_slider.c ****         if(type == LV_SLIDER_MODE_NORMAL || type == LV_SLIDER_MODE_SYMMETRICAL) {
 134:Drivers/lvgl/src/widgets/lv_slider.c ****             slider->value_to_set = &slider->bar.cur_value;
 135:Drivers/lvgl/src/widgets/lv_slider.c ****         }
 136:Drivers/lvgl/src/widgets/lv_slider.c ****         else if(type == LV_SLIDER_MODE_RANGE) {
 137:Drivers/lvgl/src/widgets/lv_slider.c ****             lv_indev_get_point(lv_indev_get_act(), &p);
 138:Drivers/lvgl/src/widgets/lv_slider.c ****             bool hor = lv_obj_get_width(obj) >= lv_obj_get_height(obj);
 139:Drivers/lvgl/src/widgets/lv_slider.c ****             lv_base_dir_t base_dir = lv_obj_get_style_base_dir(obj, LV_PART_MAIN);
 140:Drivers/lvgl/src/widgets/lv_slider.c **** 
 141:Drivers/lvgl/src/widgets/lv_slider.c ****             lv_coord_t dist_left, dist_right;
 142:Drivers/lvgl/src/widgets/lv_slider.c ****             if(hor) {
 143:Drivers/lvgl/src/widgets/lv_slider.c ****                 if((base_dir != LV_BASE_DIR_RTL && p.x > slider->right_knob_area.x2) || (base_dir =
 144:Drivers/lvgl/src/widgets/lv_slider.c ****                                                                                          p.x < slid
ARM GAS  /var/folders/lp/x54gwt890xv47sdkqj1k04q40000gn/T//ccDzkxjV.s 			page 4


 145:Drivers/lvgl/src/widgets/lv_slider.c ****                     slider->value_to_set = &slider->bar.cur_value;
 146:Drivers/lvgl/src/widgets/lv_slider.c ****                 }
 147:Drivers/lvgl/src/widgets/lv_slider.c ****                 else if((base_dir != LV_BASE_DIR_RTL && p.x < slider->left_knob_area.x1) || (base_d
 148:Drivers/lvgl/src/widgets/lv_slider.c ****                                                                                              p.x > 
 149:Drivers/lvgl/src/widgets/lv_slider.c ****                     slider->value_to_set = &slider->bar.start_value;
 150:Drivers/lvgl/src/widgets/lv_slider.c ****                 }
 151:Drivers/lvgl/src/widgets/lv_slider.c ****                 else {
 152:Drivers/lvgl/src/widgets/lv_slider.c ****                     /*Calculate the distance from each knob*/
 153:Drivers/lvgl/src/widgets/lv_slider.c ****                     dist_left = LV_ABS((slider->left_knob_area.x1 + (slider->left_knob_area.x2 - sl
 154:Drivers/lvgl/src/widgets/lv_slider.c ****                     dist_right = LV_ABS((slider->right_knob_area.x1 + (slider->right_knob_area.x2 -
 155:Drivers/lvgl/src/widgets/lv_slider.c **** 
 156:Drivers/lvgl/src/widgets/lv_slider.c ****                     /*Use whichever one is closer*/
 157:Drivers/lvgl/src/widgets/lv_slider.c ****                     if(dist_right < dist_left) {
 158:Drivers/lvgl/src/widgets/lv_slider.c ****                         slider->value_to_set = &slider->bar.cur_value;
 159:Drivers/lvgl/src/widgets/lv_slider.c ****                         slider->left_knob_focus = 0;
 160:Drivers/lvgl/src/widgets/lv_slider.c ****                     }
 161:Drivers/lvgl/src/widgets/lv_slider.c ****                     else {
 162:Drivers/lvgl/src/widgets/lv_slider.c ****                         slider->value_to_set = &slider->bar.start_value;
 163:Drivers/lvgl/src/widgets/lv_slider.c ****                         slider->left_knob_focus = 1;
 164:Drivers/lvgl/src/widgets/lv_slider.c ****                     }
 165:Drivers/lvgl/src/widgets/lv_slider.c ****                 }
 166:Drivers/lvgl/src/widgets/lv_slider.c ****             }
 167:Drivers/lvgl/src/widgets/lv_slider.c ****             else {
 168:Drivers/lvgl/src/widgets/lv_slider.c ****                 if(p.y < slider->right_knob_area.y1) {
 169:Drivers/lvgl/src/widgets/lv_slider.c ****                     slider->value_to_set = &slider->bar.cur_value;
 170:Drivers/lvgl/src/widgets/lv_slider.c ****                 }
 171:Drivers/lvgl/src/widgets/lv_slider.c ****                 else if(p.y > slider->left_knob_area.y2) {
 172:Drivers/lvgl/src/widgets/lv_slider.c ****                     slider->value_to_set = &slider->bar.start_value;
 173:Drivers/lvgl/src/widgets/lv_slider.c ****                 }
 174:Drivers/lvgl/src/widgets/lv_slider.c ****                 else {
 175:Drivers/lvgl/src/widgets/lv_slider.c ****                     /*Calculate the distance from each knob*/
 176:Drivers/lvgl/src/widgets/lv_slider.c ****                     dist_left = LV_ABS((slider->left_knob_area.y1 + (slider->left_knob_area.y2 - sl
 177:Drivers/lvgl/src/widgets/lv_slider.c ****                     dist_right = LV_ABS((slider->right_knob_area.y1 + (slider->right_knob_area.y2 -
 178:Drivers/lvgl/src/widgets/lv_slider.c **** 
 179:Drivers/lvgl/src/widgets/lv_slider.c ****                     /*Use whichever one is closer*/
 180:Drivers/lvgl/src/widgets/lv_slider.c ****                     if(dist_right < dist_left) {
 181:Drivers/lvgl/src/widgets/lv_slider.c ****                         slider->value_to_set = &slider->bar.cur_value;
 182:Drivers/lvgl/src/widgets/lv_slider.c ****                         slider->left_knob_focus = 0;
 183:Drivers/lvgl/src/widgets/lv_slider.c ****                     }
 184:Drivers/lvgl/src/widgets/lv_slider.c ****                     else {
 185:Drivers/lvgl/src/widgets/lv_slider.c ****                         slider->value_to_set = &slider->bar.start_value;
 186:Drivers/lvgl/src/widgets/lv_slider.c ****                         slider->left_knob_focus = 1;
 187:Drivers/lvgl/src/widgets/lv_slider.c ****                     }
 188:Drivers/lvgl/src/widgets/lv_slider.c ****                 }
 189:Drivers/lvgl/src/widgets/lv_slider.c ****             }
 190:Drivers/lvgl/src/widgets/lv_slider.c ****         }
 191:Drivers/lvgl/src/widgets/lv_slider.c ****     }
 192:Drivers/lvgl/src/widgets/lv_slider.c ****     else if(code == LV_EVENT_PRESSING && slider->value_to_set != NULL) {
 193:Drivers/lvgl/src/widgets/lv_slider.c ****         lv_indev_t * indev = lv_indev_get_act();
 194:Drivers/lvgl/src/widgets/lv_slider.c ****         if(lv_indev_get_type(indev) != LV_INDEV_TYPE_POINTER) return;
 195:Drivers/lvgl/src/widgets/lv_slider.c **** 
 196:Drivers/lvgl/src/widgets/lv_slider.c ****         lv_point_t p;
 197:Drivers/lvgl/src/widgets/lv_slider.c ****         lv_indev_get_point(indev, &p);
 198:Drivers/lvgl/src/widgets/lv_slider.c ****         int32_t new_value = 0;
 199:Drivers/lvgl/src/widgets/lv_slider.c **** 
 200:Drivers/lvgl/src/widgets/lv_slider.c ****         const int32_t range = slider->bar.max_value - slider->bar.min_value;
 201:Drivers/lvgl/src/widgets/lv_slider.c ****         if(is_slider_horizontal(obj)) {
ARM GAS  /var/folders/lp/x54gwt890xv47sdkqj1k04q40000gn/T//ccDzkxjV.s 			page 5


 202:Drivers/lvgl/src/widgets/lv_slider.c ****             const lv_coord_t bg_left = lv_obj_get_style_pad_left(obj, LV_PART_MAIN);
 203:Drivers/lvgl/src/widgets/lv_slider.c ****             const lv_coord_t bg_right = lv_obj_get_style_pad_right(obj, LV_PART_MAIN);
 204:Drivers/lvgl/src/widgets/lv_slider.c ****             const lv_coord_t w = lv_obj_get_width(obj);
 205:Drivers/lvgl/src/widgets/lv_slider.c ****             const lv_coord_t indic_w = w - bg_left - bg_right;
 206:Drivers/lvgl/src/widgets/lv_slider.c **** 
 207:Drivers/lvgl/src/widgets/lv_slider.c ****             if(lv_obj_get_style_base_dir(obj, LV_PART_MAIN) == LV_BASE_DIR_RTL) {
 208:Drivers/lvgl/src/widgets/lv_slider.c ****                 /*Make the point relative to the indicator*/
 209:Drivers/lvgl/src/widgets/lv_slider.c ****                 new_value = (obj->coords.x2 - bg_right) - p.x;
 210:Drivers/lvgl/src/widgets/lv_slider.c ****             }
 211:Drivers/lvgl/src/widgets/lv_slider.c ****             else {
 212:Drivers/lvgl/src/widgets/lv_slider.c ****                 /*Make the point relative to the indicator*/
 213:Drivers/lvgl/src/widgets/lv_slider.c ****                 new_value = p.x - (obj->coords.x1 + bg_left);
 214:Drivers/lvgl/src/widgets/lv_slider.c ****             }
 215:Drivers/lvgl/src/widgets/lv_slider.c ****             new_value = (new_value * range + indic_w / 2) / indic_w;
 216:Drivers/lvgl/src/widgets/lv_slider.c ****             new_value += slider->bar.min_value;
 217:Drivers/lvgl/src/widgets/lv_slider.c ****         }
 218:Drivers/lvgl/src/widgets/lv_slider.c ****         else {
 219:Drivers/lvgl/src/widgets/lv_slider.c ****             const lv_coord_t bg_top = lv_obj_get_style_pad_top(obj, LV_PART_MAIN);
 220:Drivers/lvgl/src/widgets/lv_slider.c ****             const lv_coord_t bg_bottom = lv_obj_get_style_pad_bottom(obj, LV_PART_MAIN);
 221:Drivers/lvgl/src/widgets/lv_slider.c ****             const lv_coord_t h = lv_obj_get_height(obj);
 222:Drivers/lvgl/src/widgets/lv_slider.c ****             const lv_coord_t indic_h = h - bg_bottom - bg_top;
 223:Drivers/lvgl/src/widgets/lv_slider.c **** 
 224:Drivers/lvgl/src/widgets/lv_slider.c ****             /*Make the point relative to the indicator*/
 225:Drivers/lvgl/src/widgets/lv_slider.c ****             new_value = p.y - (obj->coords.y2 + bg_bottom);
 226:Drivers/lvgl/src/widgets/lv_slider.c ****             new_value = (-new_value * range + indic_h / 2) / indic_h;
 227:Drivers/lvgl/src/widgets/lv_slider.c ****             new_value += slider->bar.min_value;
 228:Drivers/lvgl/src/widgets/lv_slider.c ****         }
 229:Drivers/lvgl/src/widgets/lv_slider.c **** 
 230:Drivers/lvgl/src/widgets/lv_slider.c ****         int32_t real_max_value = slider->bar.max_value;
 231:Drivers/lvgl/src/widgets/lv_slider.c ****         int32_t real_min_value = slider->bar.min_value;
 232:Drivers/lvgl/src/widgets/lv_slider.c ****         /*Figure out the min. and max. for this mode*/
 233:Drivers/lvgl/src/widgets/lv_slider.c ****         if(slider->value_to_set == &slider->bar.start_value) {
 234:Drivers/lvgl/src/widgets/lv_slider.c ****             real_max_value = slider->bar.cur_value;
 235:Drivers/lvgl/src/widgets/lv_slider.c ****         }
 236:Drivers/lvgl/src/widgets/lv_slider.c ****         else {
 237:Drivers/lvgl/src/widgets/lv_slider.c ****             real_min_value = slider->bar.start_value;
 238:Drivers/lvgl/src/widgets/lv_slider.c ****         }
 239:Drivers/lvgl/src/widgets/lv_slider.c **** 
 240:Drivers/lvgl/src/widgets/lv_slider.c ****         new_value = LV_CLAMP(real_min_value, new_value, real_max_value);
 241:Drivers/lvgl/src/widgets/lv_slider.c ****         if(*slider->value_to_set != new_value) {
 242:Drivers/lvgl/src/widgets/lv_slider.c ****             if(slider->value_to_set == &slider->bar.start_value) {
 243:Drivers/lvgl/src/widgets/lv_slider.c ****                 lv_bar_set_start_value(obj, new_value, LV_ANIM_ON);
 244:Drivers/lvgl/src/widgets/lv_slider.c ****             }
 245:Drivers/lvgl/src/widgets/lv_slider.c ****             else {
 246:Drivers/lvgl/src/widgets/lv_slider.c ****                 lv_bar_set_value(obj, new_value, LV_ANIM_ON);
 247:Drivers/lvgl/src/widgets/lv_slider.c ****             }
 248:Drivers/lvgl/src/widgets/lv_slider.c ****             res = lv_event_send(obj, LV_EVENT_VALUE_CHANGED, NULL);
 249:Drivers/lvgl/src/widgets/lv_slider.c ****             if(res != LV_RES_OK) return;
 250:Drivers/lvgl/src/widgets/lv_slider.c ****         }
 251:Drivers/lvgl/src/widgets/lv_slider.c **** 
 252:Drivers/lvgl/src/widgets/lv_slider.c ****     }
 253:Drivers/lvgl/src/widgets/lv_slider.c ****     else if(code == LV_EVENT_RELEASED || code == LV_EVENT_PRESS_LOST) {
 254:Drivers/lvgl/src/widgets/lv_slider.c ****         slider->dragging = false;
 255:Drivers/lvgl/src/widgets/lv_slider.c ****         slider->value_to_set = NULL;
 256:Drivers/lvgl/src/widgets/lv_slider.c **** 
 257:Drivers/lvgl/src/widgets/lv_slider.c ****         lv_obj_invalidate(obj);
 258:Drivers/lvgl/src/widgets/lv_slider.c **** 
ARM GAS  /var/folders/lp/x54gwt890xv47sdkqj1k04q40000gn/T//ccDzkxjV.s 			page 6


 259:Drivers/lvgl/src/widgets/lv_slider.c ****         /*Leave edit mode if released. (No need to wait for LONG_PRESS)*/
 260:Drivers/lvgl/src/widgets/lv_slider.c ****         lv_group_t * g   = lv_obj_get_group(obj);
 261:Drivers/lvgl/src/widgets/lv_slider.c ****         bool editing     = lv_group_get_editing(g);
 262:Drivers/lvgl/src/widgets/lv_slider.c ****         lv_indev_type_t indev_type = lv_indev_get_type(lv_indev_get_act());
 263:Drivers/lvgl/src/widgets/lv_slider.c ****         if(indev_type == LV_INDEV_TYPE_ENCODER) {
 264:Drivers/lvgl/src/widgets/lv_slider.c ****             if(editing) {
 265:Drivers/lvgl/src/widgets/lv_slider.c ****                 if(lv_slider_get_mode(obj) == LV_SLIDER_MODE_RANGE) {
 266:Drivers/lvgl/src/widgets/lv_slider.c ****                     if(slider->left_knob_focus == 0) slider->left_knob_focus = 1;
 267:Drivers/lvgl/src/widgets/lv_slider.c ****                     else {
 268:Drivers/lvgl/src/widgets/lv_slider.c ****                         slider->left_knob_focus = 0;
 269:Drivers/lvgl/src/widgets/lv_slider.c ****                         lv_group_set_editing(g, false);
 270:Drivers/lvgl/src/widgets/lv_slider.c ****                     }
 271:Drivers/lvgl/src/widgets/lv_slider.c ****                 }
 272:Drivers/lvgl/src/widgets/lv_slider.c ****                 else {
 273:Drivers/lvgl/src/widgets/lv_slider.c ****                     lv_group_set_editing(g, false);
 274:Drivers/lvgl/src/widgets/lv_slider.c ****                 }
 275:Drivers/lvgl/src/widgets/lv_slider.c ****             }
 276:Drivers/lvgl/src/widgets/lv_slider.c ****         }
 277:Drivers/lvgl/src/widgets/lv_slider.c **** 
 278:Drivers/lvgl/src/widgets/lv_slider.c ****     }
 279:Drivers/lvgl/src/widgets/lv_slider.c ****     else if(code == LV_EVENT_FOCUSED) {
 280:Drivers/lvgl/src/widgets/lv_slider.c ****         lv_indev_type_t indev_type = lv_indev_get_type(lv_indev_get_act());
 281:Drivers/lvgl/src/widgets/lv_slider.c ****         if(indev_type == LV_INDEV_TYPE_ENCODER || indev_type == LV_INDEV_TYPE_KEYPAD) {
 282:Drivers/lvgl/src/widgets/lv_slider.c ****             slider->left_knob_focus = 0;
 283:Drivers/lvgl/src/widgets/lv_slider.c ****         }
 284:Drivers/lvgl/src/widgets/lv_slider.c ****     }
 285:Drivers/lvgl/src/widgets/lv_slider.c ****     else if(code == LV_EVENT_SIZE_CHANGED) {
 286:Drivers/lvgl/src/widgets/lv_slider.c ****         lv_obj_refresh_ext_draw_size(obj);
 287:Drivers/lvgl/src/widgets/lv_slider.c ****     }
 288:Drivers/lvgl/src/widgets/lv_slider.c ****     else if(code == LV_EVENT_REFR_EXT_DRAW_SIZE) {
 289:Drivers/lvgl/src/widgets/lv_slider.c ****         lv_coord_t knob_left = lv_obj_get_style_pad_left(obj, LV_PART_KNOB);
 290:Drivers/lvgl/src/widgets/lv_slider.c ****         lv_coord_t knob_right = lv_obj_get_style_pad_right(obj, LV_PART_KNOB);
 291:Drivers/lvgl/src/widgets/lv_slider.c ****         lv_coord_t knob_top = lv_obj_get_style_pad_top(obj, LV_PART_KNOB);
 292:Drivers/lvgl/src/widgets/lv_slider.c ****         lv_coord_t knob_bottom = lv_obj_get_style_pad_bottom(obj, LV_PART_KNOB);
 293:Drivers/lvgl/src/widgets/lv_slider.c **** 
 294:Drivers/lvgl/src/widgets/lv_slider.c ****         /*The smaller size is the knob diameter*/
 295:Drivers/lvgl/src/widgets/lv_slider.c ****         lv_coord_t zoom = lv_obj_get_style_transform_zoom(obj, LV_PART_KNOB);
 296:Drivers/lvgl/src/widgets/lv_slider.c ****         lv_coord_t trans_w = lv_obj_get_style_transform_width(obj, LV_PART_KNOB);
 297:Drivers/lvgl/src/widgets/lv_slider.c ****         lv_coord_t trans_h = lv_obj_get_style_transform_height(obj, LV_PART_KNOB);
 298:Drivers/lvgl/src/widgets/lv_slider.c ****         lv_coord_t knob_size = LV_MIN(lv_obj_get_width(obj) + 2 * trans_w, lv_obj_get_height(obj) +
 299:Drivers/lvgl/src/widgets/lv_slider.c ****         knob_size = (knob_size * zoom) >> 8;
 300:Drivers/lvgl/src/widgets/lv_slider.c ****         knob_size += LV_MAX(LV_MAX(knob_left, knob_right), LV_MAX(knob_bottom, knob_top));
 301:Drivers/lvgl/src/widgets/lv_slider.c ****         knob_size += 2;         /*For rounding error*/
 302:Drivers/lvgl/src/widgets/lv_slider.c ****         knob_size += lv_obj_calculate_ext_draw_size(obj, LV_PART_KNOB);
 303:Drivers/lvgl/src/widgets/lv_slider.c **** 
 304:Drivers/lvgl/src/widgets/lv_slider.c ****         /*Indic. size is handled by bar*/
 305:Drivers/lvgl/src/widgets/lv_slider.c ****         lv_coord_t * s = lv_event_get_param(e);
 306:Drivers/lvgl/src/widgets/lv_slider.c ****         *s  = LV_MAX(*s, knob_size);
 307:Drivers/lvgl/src/widgets/lv_slider.c **** 
 308:Drivers/lvgl/src/widgets/lv_slider.c ****     }
 309:Drivers/lvgl/src/widgets/lv_slider.c ****     else if(code == LV_EVENT_KEY) {
 310:Drivers/lvgl/src/widgets/lv_slider.c ****         char c = *((char *)lv_event_get_param(e));
 311:Drivers/lvgl/src/widgets/lv_slider.c **** 
 312:Drivers/lvgl/src/widgets/lv_slider.c ****         if(c == LV_KEY_RIGHT || c == LV_KEY_UP) {
 313:Drivers/lvgl/src/widgets/lv_slider.c ****             if(!slider->left_knob_focus) lv_slider_set_value(obj, lv_slider_get_value(obj) + 1, LV_
 314:Drivers/lvgl/src/widgets/lv_slider.c ****             else lv_slider_set_left_value(obj, lv_slider_get_left_value(obj) + 1, LV_ANIM_ON);
 315:Drivers/lvgl/src/widgets/lv_slider.c ****         }
ARM GAS  /var/folders/lp/x54gwt890xv47sdkqj1k04q40000gn/T//ccDzkxjV.s 			page 7


 316:Drivers/lvgl/src/widgets/lv_slider.c ****         else if(c == LV_KEY_LEFT || c == LV_KEY_DOWN) {
 317:Drivers/lvgl/src/widgets/lv_slider.c ****             if(!slider->left_knob_focus) lv_slider_set_value(obj, lv_slider_get_value(obj) - 1, LV_
 318:Drivers/lvgl/src/widgets/lv_slider.c ****             else lv_slider_set_left_value(obj, lv_slider_get_left_value(obj) - 1, LV_ANIM_ON);
 319:Drivers/lvgl/src/widgets/lv_slider.c ****         }
 320:Drivers/lvgl/src/widgets/lv_slider.c ****         else {
 321:Drivers/lvgl/src/widgets/lv_slider.c ****             return;
 322:Drivers/lvgl/src/widgets/lv_slider.c ****         }
 323:Drivers/lvgl/src/widgets/lv_slider.c **** 
 324:Drivers/lvgl/src/widgets/lv_slider.c ****         res = lv_event_send(obj, LV_EVENT_VALUE_CHANGED, NULL);
 325:Drivers/lvgl/src/widgets/lv_slider.c ****         if(res != LV_RES_OK) return;
 326:Drivers/lvgl/src/widgets/lv_slider.c ****     }
 327:Drivers/lvgl/src/widgets/lv_slider.c ****     else if(code == LV_EVENT_DRAW_MAIN) {
 328:Drivers/lvgl/src/widgets/lv_slider.c ****         draw_knob(e);
 329:Drivers/lvgl/src/widgets/lv_slider.c ****     }
 330:Drivers/lvgl/src/widgets/lv_slider.c **** }
 331:Drivers/lvgl/src/widgets/lv_slider.c **** 
 332:Drivers/lvgl/src/widgets/lv_slider.c **** static void draw_knob(lv_event_t * e)
 333:Drivers/lvgl/src/widgets/lv_slider.c **** {
 334:Drivers/lvgl/src/widgets/lv_slider.c ****     lv_obj_t * obj = lv_event_get_target(e);
 335:Drivers/lvgl/src/widgets/lv_slider.c ****     lv_slider_t * slider = (lv_slider_t *)obj;
 336:Drivers/lvgl/src/widgets/lv_slider.c ****     lv_draw_ctx_t * draw_ctx = lv_event_get_draw_ctx(e);
 337:Drivers/lvgl/src/widgets/lv_slider.c **** 
 338:Drivers/lvgl/src/widgets/lv_slider.c ****     const bool is_rtl = LV_BASE_DIR_RTL == lv_obj_get_style_base_dir(obj, LV_PART_MAIN);
 339:Drivers/lvgl/src/widgets/lv_slider.c ****     const bool is_horizontal = is_slider_horizontal(obj);
 340:Drivers/lvgl/src/widgets/lv_slider.c **** 
 341:Drivers/lvgl/src/widgets/lv_slider.c ****     lv_area_t knob_area;
 342:Drivers/lvgl/src/widgets/lv_slider.c ****     lv_coord_t knob_size;
 343:Drivers/lvgl/src/widgets/lv_slider.c ****     bool is_symmetrical = false;
 344:Drivers/lvgl/src/widgets/lv_slider.c ****     if(slider->bar.mode == LV_BAR_MODE_SYMMETRICAL && slider->bar.min_value < 0 &&
 345:Drivers/lvgl/src/widgets/lv_slider.c ****        slider->bar.max_value > 0) is_symmetrical = true;
 346:Drivers/lvgl/src/widgets/lv_slider.c **** 
 347:Drivers/lvgl/src/widgets/lv_slider.c ****     if(is_horizontal) {
 348:Drivers/lvgl/src/widgets/lv_slider.c ****         knob_size = lv_obj_get_height(obj);
 349:Drivers/lvgl/src/widgets/lv_slider.c ****         if(is_symmetrical && slider->bar.cur_value < 0) knob_area.x1 = slider->bar.indic_area.x1;
 350:Drivers/lvgl/src/widgets/lv_slider.c ****         else knob_area.x1 = LV_SLIDER_KNOB_COORD(is_rtl, slider->bar.indic_area);
 351:Drivers/lvgl/src/widgets/lv_slider.c ****     }
 352:Drivers/lvgl/src/widgets/lv_slider.c ****     else {
 353:Drivers/lvgl/src/widgets/lv_slider.c ****         knob_size = lv_obj_get_width(obj);
 354:Drivers/lvgl/src/widgets/lv_slider.c ****         if(is_symmetrical && slider->bar.cur_value < 0) knob_area.y1 = slider->bar.indic_area.y2;
 355:Drivers/lvgl/src/widgets/lv_slider.c ****         else knob_area.y1 = slider->bar.indic_area.y1;
 356:Drivers/lvgl/src/widgets/lv_slider.c ****     }
 357:Drivers/lvgl/src/widgets/lv_slider.c **** 
 358:Drivers/lvgl/src/widgets/lv_slider.c ****     lv_draw_rect_dsc_t knob_rect_dsc;
 359:Drivers/lvgl/src/widgets/lv_slider.c ****     lv_draw_rect_dsc_init(&knob_rect_dsc);
 360:Drivers/lvgl/src/widgets/lv_slider.c ****     lv_obj_init_draw_rect_dsc(obj, LV_PART_KNOB, &knob_rect_dsc);
 361:Drivers/lvgl/src/widgets/lv_slider.c ****     /* Update knob area with knob style */
 362:Drivers/lvgl/src/widgets/lv_slider.c ****     position_knob(obj, &knob_area, knob_size, is_horizontal);
 363:Drivers/lvgl/src/widgets/lv_slider.c ****     /* Update right knob area with calculated knob area */
 364:Drivers/lvgl/src/widgets/lv_slider.c ****     lv_area_copy(&slider->right_knob_area, &knob_area);
 365:Drivers/lvgl/src/widgets/lv_slider.c **** 
 366:Drivers/lvgl/src/widgets/lv_slider.c ****     lv_obj_draw_part_dsc_t part_draw_dsc;
 367:Drivers/lvgl/src/widgets/lv_slider.c ****     lv_obj_draw_dsc_init(&part_draw_dsc, draw_ctx);
 368:Drivers/lvgl/src/widgets/lv_slider.c ****     part_draw_dsc.part = LV_PART_KNOB;
 369:Drivers/lvgl/src/widgets/lv_slider.c ****     part_draw_dsc.class_p = MY_CLASS;
 370:Drivers/lvgl/src/widgets/lv_slider.c ****     part_draw_dsc.type = LV_SLIDER_DRAW_PART_KNOB;
 371:Drivers/lvgl/src/widgets/lv_slider.c ****     part_draw_dsc.id = 0;
 372:Drivers/lvgl/src/widgets/lv_slider.c ****     part_draw_dsc.draw_area = &slider->right_knob_area;
ARM GAS  /var/folders/lp/x54gwt890xv47sdkqj1k04q40000gn/T//ccDzkxjV.s 			page 8


 373:Drivers/lvgl/src/widgets/lv_slider.c ****     part_draw_dsc.rect_dsc = &knob_rect_dsc;
 374:Drivers/lvgl/src/widgets/lv_slider.c **** 
 375:Drivers/lvgl/src/widgets/lv_slider.c ****     if(lv_slider_get_mode(obj) != LV_SLIDER_MODE_RANGE) {
 376:Drivers/lvgl/src/widgets/lv_slider.c ****         lv_event_send(obj, LV_EVENT_DRAW_PART_BEGIN, &part_draw_dsc);
 377:Drivers/lvgl/src/widgets/lv_slider.c ****         lv_draw_rect(draw_ctx, &knob_rect_dsc, &slider->right_knob_area);
 378:Drivers/lvgl/src/widgets/lv_slider.c ****         lv_event_send(obj, LV_EVENT_DRAW_PART_END, &part_draw_dsc);
 379:Drivers/lvgl/src/widgets/lv_slider.c ****     }
 380:Drivers/lvgl/src/widgets/lv_slider.c ****     else {
 381:Drivers/lvgl/src/widgets/lv_slider.c ****         /*Save the draw part_draw_dsc. because it can be modified in the event*/
 382:Drivers/lvgl/src/widgets/lv_slider.c ****         lv_draw_rect_dsc_t knob_rect_dsc_tmp;
 383:Drivers/lvgl/src/widgets/lv_slider.c ****         lv_memcpy(&knob_rect_dsc_tmp, &knob_rect_dsc, sizeof(lv_draw_rect_dsc_t));
 384:Drivers/lvgl/src/widgets/lv_slider.c ****         /* Draw the right knob */
 385:Drivers/lvgl/src/widgets/lv_slider.c ****         lv_event_send(obj, LV_EVENT_DRAW_PART_BEGIN, &part_draw_dsc);
 386:Drivers/lvgl/src/widgets/lv_slider.c ****         lv_draw_rect(draw_ctx, &knob_rect_dsc, &slider->right_knob_area);
 387:Drivers/lvgl/src/widgets/lv_slider.c ****         lv_event_send(obj, LV_EVENT_DRAW_PART_END, &part_draw_dsc);
 388:Drivers/lvgl/src/widgets/lv_slider.c **** 
 389:Drivers/lvgl/src/widgets/lv_slider.c ****         /*Calculate the second knob area*/
 390:Drivers/lvgl/src/widgets/lv_slider.c ****         if(is_horizontal) {
 391:Drivers/lvgl/src/widgets/lv_slider.c ****             /*use !is_rtl to get the other knob*/
 392:Drivers/lvgl/src/widgets/lv_slider.c ****             knob_area.x1 = LV_SLIDER_KNOB_COORD(!is_rtl, slider->bar.indic_area);
 393:Drivers/lvgl/src/widgets/lv_slider.c ****         }
 394:Drivers/lvgl/src/widgets/lv_slider.c ****         else {
 395:Drivers/lvgl/src/widgets/lv_slider.c ****             knob_area.y1 = slider->bar.indic_area.y2;
 396:Drivers/lvgl/src/widgets/lv_slider.c ****         }
 397:Drivers/lvgl/src/widgets/lv_slider.c ****         position_knob(obj, &knob_area, knob_size, is_horizontal);
 398:Drivers/lvgl/src/widgets/lv_slider.c ****         lv_area_copy(&slider->left_knob_area, &knob_area);
 399:Drivers/lvgl/src/widgets/lv_slider.c **** 
 400:Drivers/lvgl/src/widgets/lv_slider.c ****         lv_memcpy(&knob_rect_dsc, &knob_rect_dsc_tmp, sizeof(lv_draw_rect_dsc_t));
 401:Drivers/lvgl/src/widgets/lv_slider.c ****         part_draw_dsc.type = LV_SLIDER_DRAW_PART_KNOB_LEFT;
 402:Drivers/lvgl/src/widgets/lv_slider.c ****         part_draw_dsc.draw_area = &slider->left_knob_area;
 403:Drivers/lvgl/src/widgets/lv_slider.c ****         part_draw_dsc.rect_dsc = &knob_rect_dsc;
 404:Drivers/lvgl/src/widgets/lv_slider.c ****         part_draw_dsc.id = 1;
 405:Drivers/lvgl/src/widgets/lv_slider.c **** 
 406:Drivers/lvgl/src/widgets/lv_slider.c ****         lv_event_send(obj, LV_EVENT_DRAW_PART_BEGIN, &part_draw_dsc);
 407:Drivers/lvgl/src/widgets/lv_slider.c ****         lv_draw_rect(draw_ctx, &knob_rect_dsc, &slider->left_knob_area);
 408:Drivers/lvgl/src/widgets/lv_slider.c ****         lv_event_send(obj, LV_EVENT_DRAW_PART_END, &part_draw_dsc);
 409:Drivers/lvgl/src/widgets/lv_slider.c ****     }
 410:Drivers/lvgl/src/widgets/lv_slider.c **** }
 411:Drivers/lvgl/src/widgets/lv_slider.c **** 
 412:Drivers/lvgl/src/widgets/lv_slider.c **** static void position_knob(lv_obj_t * obj, lv_area_t * knob_area, const lv_coord_t knob_size, const 
 413:Drivers/lvgl/src/widgets/lv_slider.c **** {
 414:Drivers/lvgl/src/widgets/lv_slider.c ****     if(hor) {
 415:Drivers/lvgl/src/widgets/lv_slider.c ****         knob_area->x1 -= (knob_size >> 1);
 416:Drivers/lvgl/src/widgets/lv_slider.c ****         knob_area->x2 = knob_area->x1 + knob_size - 1;
 417:Drivers/lvgl/src/widgets/lv_slider.c ****         knob_area->y1 = obj->coords.y1;
 418:Drivers/lvgl/src/widgets/lv_slider.c ****         knob_area->y2 = obj->coords.y2;
 419:Drivers/lvgl/src/widgets/lv_slider.c ****     }
 420:Drivers/lvgl/src/widgets/lv_slider.c ****     else {
 421:Drivers/lvgl/src/widgets/lv_slider.c ****         knob_area->y1 -= (knob_size >> 1);
 422:Drivers/lvgl/src/widgets/lv_slider.c ****         knob_area->y2 = knob_area->y1 + knob_size - 1;
 423:Drivers/lvgl/src/widgets/lv_slider.c ****         knob_area->x1 = obj->coords.x1;
 424:Drivers/lvgl/src/widgets/lv_slider.c ****         knob_area->x2 = obj->coords.x2;
 425:Drivers/lvgl/src/widgets/lv_slider.c ****     }
 426:Drivers/lvgl/src/widgets/lv_slider.c **** 
 427:Drivers/lvgl/src/widgets/lv_slider.c ****     lv_coord_t knob_left = lv_obj_get_style_pad_left(obj, LV_PART_KNOB);
 428:Drivers/lvgl/src/widgets/lv_slider.c ****     lv_coord_t knob_right = lv_obj_get_style_pad_right(obj, LV_PART_KNOB);
 429:Drivers/lvgl/src/widgets/lv_slider.c ****     lv_coord_t knob_top = lv_obj_get_style_pad_top(obj, LV_PART_KNOB);
ARM GAS  /var/folders/lp/x54gwt890xv47sdkqj1k04q40000gn/T//ccDzkxjV.s 			page 9


 430:Drivers/lvgl/src/widgets/lv_slider.c ****     lv_coord_t knob_bottom = lv_obj_get_style_pad_bottom(obj, LV_PART_KNOB);
 431:Drivers/lvgl/src/widgets/lv_slider.c **** 
 432:Drivers/lvgl/src/widgets/lv_slider.c ****     lv_coord_t transf_w = lv_obj_get_style_transform_width(obj, LV_PART_KNOB);
 433:Drivers/lvgl/src/widgets/lv_slider.c ****     lv_coord_t transf_h = lv_obj_get_style_transform_height(obj, LV_PART_KNOB);
 434:Drivers/lvgl/src/widgets/lv_slider.c **** 
 435:Drivers/lvgl/src/widgets/lv_slider.c ****     /*Apply the paddings on the knob area*/
 436:Drivers/lvgl/src/widgets/lv_slider.c ****     knob_area->x1 -= knob_left + transf_w;
 437:Drivers/lvgl/src/widgets/lv_slider.c ****     knob_area->x2 += knob_right + transf_w;
 438:Drivers/lvgl/src/widgets/lv_slider.c ****     knob_area->y1 -= knob_top + transf_h;
 439:Drivers/lvgl/src/widgets/lv_slider.c ****     knob_area->y2 += knob_bottom + transf_h;
 440:Drivers/lvgl/src/widgets/lv_slider.c **** }
 441:Drivers/lvgl/src/widgets/lv_slider.c **** 
 442:Drivers/lvgl/src/widgets/lv_slider.c **** static bool is_slider_horizontal(lv_obj_t * obj)
 443:Drivers/lvgl/src/widgets/lv_slider.c **** {
  29              		.loc 1 443 1 view -0
  30              		.cfi_startproc
  31              		@ args = 0, pretend = 0, frame = 0
  32              		@ frame_needed = 0, uses_anonymous_args = 0
  33              		.loc 1 443 1 is_stmt 0 view .LVU1
  34 0000 38B5     		push	{r3, r4, r5, lr}
  35              		.cfi_def_cfa_offset 16
  36              		.cfi_offset 3, -16
  37              		.cfi_offset 4, -12
  38              		.cfi_offset 5, -8
  39              		.cfi_offset 14, -4
  40 0002 0546     		mov	r5, r0
 444:Drivers/lvgl/src/widgets/lv_slider.c ****     return lv_obj_get_width(obj) >= lv_obj_get_height(obj);
  41              		.loc 1 444 5 is_stmt 1 view .LVU2
  42              		.loc 1 444 12 is_stmt 0 view .LVU3
  43 0004 FFF7FEFF 		bl	lv_obj_get_width
  44              	.LVL1:
  45              		.loc 1 444 12 view .LVU4
  46 0008 0446     		mov	r4, r0
  47              		.loc 1 444 37 discriminator 1 view .LVU5
  48 000a 2846     		mov	r0, r5
  49 000c FFF7FEFF 		bl	lv_obj_get_height
  50              	.LVL2:
 445:Drivers/lvgl/src/widgets/lv_slider.c **** }
  51              		.loc 1 445 1 view .LVU6
  52 0010 8442     		cmp	r4, r0
  53 0012 B4BF     		ite	lt
  54 0014 0020     		movlt	r0, #0
  55 0016 0120     		movge	r0, #1
  56 0018 38BD     		pop	{r3, r4, r5, pc}
  57              		.loc 1 445 1 view .LVU7
  58              		.cfi_endproc
  59              	.LFE182:
  61              		.section	.text.position_knob,"ax",%progbits
  62              		.align	1
  63              		.syntax unified
  64              		.thumb
  65              		.thumb_func
  67              	position_knob:
  68              	.LVL3:
  69              	.LFB181:
 413:Drivers/lvgl/src/widgets/lv_slider.c ****     if(hor) {
  70              		.loc 1 413 1 is_stmt 1 view -0
ARM GAS  /var/folders/lp/x54gwt890xv47sdkqj1k04q40000gn/T//ccDzkxjV.s 			page 10


  71              		.cfi_startproc
  72              		@ args = 0, pretend = 0, frame = 0
  73              		@ frame_needed = 0, uses_anonymous_args = 0
 413:Drivers/lvgl/src/widgets/lv_slider.c ****     if(hor) {
  74              		.loc 1 413 1 is_stmt 0 view .LVU9
  75 0000 2DE9F047 		push	{r4, r5, r6, r7, r8, r9, r10, lr}
  76              		.cfi_def_cfa_offset 32
  77              		.cfi_offset 4, -32
  78              		.cfi_offset 5, -28
  79              		.cfi_offset 6, -24
  80              		.cfi_offset 7, -20
  81              		.cfi_offset 8, -16
  82              		.cfi_offset 9, -12
  83              		.cfi_offset 10, -8
  84              		.cfi_offset 14, -4
  85 0004 8246     		mov	r10, r0
  86 0006 0C46     		mov	r4, r1
 414:Drivers/lvgl/src/widgets/lv_slider.c ****         knob_area->x1 -= (knob_size >> 1);
  87              		.loc 1 414 5 is_stmt 1 view .LVU10
 414:Drivers/lvgl/src/widgets/lv_slider.c ****         knob_area->x1 -= (knob_size >> 1);
  88              		.loc 1 414 7 is_stmt 0 view .LVU11
  89 0008 002B     		cmp	r3, #0
  90 000a 51D0     		beq	.L4
 415:Drivers/lvgl/src/widgets/lv_slider.c ****         knob_area->x2 = knob_area->x1 + knob_size - 1;
  91              		.loc 1 415 9 is_stmt 1 view .LVU12
 415:Drivers/lvgl/src/widgets/lv_slider.c ****         knob_area->x2 = knob_area->x1 + knob_size - 1;
  92              		.loc 1 415 18 is_stmt 0 view .LVU13
  93 000c 0B88     		ldrh	r3, [r1]
  94              	.LVL4:
 415:Drivers/lvgl/src/widgets/lv_slider.c ****         knob_area->x2 = knob_area->x1 + knob_size - 1;
  95              		.loc 1 415 23 view .LVU14
  96 000e A3EB6203 		sub	r3, r3, r2, asr #1
  97 0012 9BB2     		uxth	r3, r3
  98 0014 0B80     		strh	r3, [r1]	@ movhi
 416:Drivers/lvgl/src/widgets/lv_slider.c ****         knob_area->y1 = obj->coords.y1;
  99              		.loc 1 416 9 is_stmt 1 view .LVU15
 416:Drivers/lvgl/src/widgets/lv_slider.c ****         knob_area->y1 = obj->coords.y1;
 100              		.loc 1 416 39 is_stmt 0 view .LVU16
 101 0016 1344     		add	r3, r3, r2
 102 0018 9BB2     		uxth	r3, r3
 416:Drivers/lvgl/src/widgets/lv_slider.c ****         knob_area->y1 = obj->coords.y1;
 103              		.loc 1 416 51 view .LVU17
 104 001a 013B     		subs	r3, r3, #1
 416:Drivers/lvgl/src/widgets/lv_slider.c ****         knob_area->y1 = obj->coords.y1;
 105              		.loc 1 416 23 view .LVU18
 106 001c 8B80     		strh	r3, [r1, #4]	@ movhi
 417:Drivers/lvgl/src/widgets/lv_slider.c ****         knob_area->y2 = obj->coords.y2;
 107              		.loc 1 417 9 is_stmt 1 view .LVU19
 417:Drivers/lvgl/src/widgets/lv_slider.c ****         knob_area->y2 = obj->coords.y2;
 108              		.loc 1 417 36 is_stmt 0 view .LVU20
 109 001e B0F91630 		ldrsh	r3, [r0, #22]
 417:Drivers/lvgl/src/widgets/lv_slider.c ****         knob_area->y2 = obj->coords.y2;
 110              		.loc 1 417 23 view .LVU21
 111 0022 4B80     		strh	r3, [r1, #2]	@ movhi
 418:Drivers/lvgl/src/widgets/lv_slider.c ****     }
 112              		.loc 1 418 9 is_stmt 1 view .LVU22
 418:Drivers/lvgl/src/widgets/lv_slider.c ****     }
ARM GAS  /var/folders/lp/x54gwt890xv47sdkqj1k04q40000gn/T//ccDzkxjV.s 			page 11


 113              		.loc 1 418 36 is_stmt 0 view .LVU23
 114 0024 B0F91A30 		ldrsh	r3, [r0, #26]
 418:Drivers/lvgl/src/widgets/lv_slider.c ****     }
 115              		.loc 1 418 23 view .LVU24
 116 0028 CB80     		strh	r3, [r1, #6]	@ movhi
 117              	.L5:
 427:Drivers/lvgl/src/widgets/lv_slider.c ****     lv_coord_t knob_right = lv_obj_get_style_pad_right(obj, LV_PART_KNOB);
 118              		.loc 1 427 5 is_stmt 1 view .LVU25
 119              	.LVL5:
 120              	.LBB77:
 121              	.LBI77:
 122              		.file 2 "Drivers/lvgl/src/widgets/../core/lv_obj_style_gen.h"
   1:Drivers/lvgl/src/widgets/../core/lv_obj_style_gen.h **** static inline lv_coord_t lv_obj_get_style_width(const struct _lv_obj_t * obj, uint32_t part)
   2:Drivers/lvgl/src/widgets/../core/lv_obj_style_gen.h **** {
   3:Drivers/lvgl/src/widgets/../core/lv_obj_style_gen.h ****     lv_style_value_t v = lv_obj_get_style_prop(obj, part, LV_STYLE_WIDTH);
   4:Drivers/lvgl/src/widgets/../core/lv_obj_style_gen.h ****     return (lv_coord_t)v.num;
   5:Drivers/lvgl/src/widgets/../core/lv_obj_style_gen.h **** }
   6:Drivers/lvgl/src/widgets/../core/lv_obj_style_gen.h **** 
   7:Drivers/lvgl/src/widgets/../core/lv_obj_style_gen.h **** static inline lv_coord_t lv_obj_get_style_min_width(const struct _lv_obj_t * obj, uint32_t part)
   8:Drivers/lvgl/src/widgets/../core/lv_obj_style_gen.h **** {
   9:Drivers/lvgl/src/widgets/../core/lv_obj_style_gen.h ****     lv_style_value_t v = lv_obj_get_style_prop(obj, part, LV_STYLE_MIN_WIDTH);
  10:Drivers/lvgl/src/widgets/../core/lv_obj_style_gen.h ****     return (lv_coord_t)v.num;
  11:Drivers/lvgl/src/widgets/../core/lv_obj_style_gen.h **** }
  12:Drivers/lvgl/src/widgets/../core/lv_obj_style_gen.h **** 
  13:Drivers/lvgl/src/widgets/../core/lv_obj_style_gen.h **** static inline lv_coord_t lv_obj_get_style_max_width(const struct _lv_obj_t * obj, uint32_t part)
  14:Drivers/lvgl/src/widgets/../core/lv_obj_style_gen.h **** {
  15:Drivers/lvgl/src/widgets/../core/lv_obj_style_gen.h ****     lv_style_value_t v = lv_obj_get_style_prop(obj, part, LV_STYLE_MAX_WIDTH);
  16:Drivers/lvgl/src/widgets/../core/lv_obj_style_gen.h ****     return (lv_coord_t)v.num;
  17:Drivers/lvgl/src/widgets/../core/lv_obj_style_gen.h **** }
  18:Drivers/lvgl/src/widgets/../core/lv_obj_style_gen.h **** 
  19:Drivers/lvgl/src/widgets/../core/lv_obj_style_gen.h **** static inline lv_coord_t lv_obj_get_style_height(const struct _lv_obj_t * obj, uint32_t part)
  20:Drivers/lvgl/src/widgets/../core/lv_obj_style_gen.h **** {
  21:Drivers/lvgl/src/widgets/../core/lv_obj_style_gen.h ****     lv_style_value_t v = lv_obj_get_style_prop(obj, part, LV_STYLE_HEIGHT);
  22:Drivers/lvgl/src/widgets/../core/lv_obj_style_gen.h ****     return (lv_coord_t)v.num;
  23:Drivers/lvgl/src/widgets/../core/lv_obj_style_gen.h **** }
  24:Drivers/lvgl/src/widgets/../core/lv_obj_style_gen.h **** 
  25:Drivers/lvgl/src/widgets/../core/lv_obj_style_gen.h **** static inline lv_coord_t lv_obj_get_style_min_height(const struct _lv_obj_t * obj, uint32_t part)
  26:Drivers/lvgl/src/widgets/../core/lv_obj_style_gen.h **** {
  27:Drivers/lvgl/src/widgets/../core/lv_obj_style_gen.h ****     lv_style_value_t v = lv_obj_get_style_prop(obj, part, LV_STYLE_MIN_HEIGHT);
  28:Drivers/lvgl/src/widgets/../core/lv_obj_style_gen.h ****     return (lv_coord_t)v.num;
  29:Drivers/lvgl/src/widgets/../core/lv_obj_style_gen.h **** }
  30:Drivers/lvgl/src/widgets/../core/lv_obj_style_gen.h **** 
  31:Drivers/lvgl/src/widgets/../core/lv_obj_style_gen.h **** static inline lv_coord_t lv_obj_get_style_max_height(const struct _lv_obj_t * obj, uint32_t part)
  32:Drivers/lvgl/src/widgets/../core/lv_obj_style_gen.h **** {
  33:Drivers/lvgl/src/widgets/../core/lv_obj_style_gen.h ****     lv_style_value_t v = lv_obj_get_style_prop(obj, part, LV_STYLE_MAX_HEIGHT);
  34:Drivers/lvgl/src/widgets/../core/lv_obj_style_gen.h ****     return (lv_coord_t)v.num;
  35:Drivers/lvgl/src/widgets/../core/lv_obj_style_gen.h **** }
  36:Drivers/lvgl/src/widgets/../core/lv_obj_style_gen.h **** 
  37:Drivers/lvgl/src/widgets/../core/lv_obj_style_gen.h **** static inline lv_coord_t lv_obj_get_style_x(const struct _lv_obj_t * obj, uint32_t part)
  38:Drivers/lvgl/src/widgets/../core/lv_obj_style_gen.h **** {
  39:Drivers/lvgl/src/widgets/../core/lv_obj_style_gen.h ****     lv_style_value_t v = lv_obj_get_style_prop(obj, part, LV_STYLE_X);
  40:Drivers/lvgl/src/widgets/../core/lv_obj_style_gen.h ****     return (lv_coord_t)v.num;
  41:Drivers/lvgl/src/widgets/../core/lv_obj_style_gen.h **** }
  42:Drivers/lvgl/src/widgets/../core/lv_obj_style_gen.h **** 
  43:Drivers/lvgl/src/widgets/../core/lv_obj_style_gen.h **** static inline lv_coord_t lv_obj_get_style_y(const struct _lv_obj_t * obj, uint32_t part)
  44:Drivers/lvgl/src/widgets/../core/lv_obj_style_gen.h **** {
  45:Drivers/lvgl/src/widgets/../core/lv_obj_style_gen.h ****     lv_style_value_t v = lv_obj_get_style_prop(obj, part, LV_STYLE_Y);
ARM GAS  /var/folders/lp/x54gwt890xv47sdkqj1k04q40000gn/T//ccDzkxjV.s 			page 12


  46:Drivers/lvgl/src/widgets/../core/lv_obj_style_gen.h ****     return (lv_coord_t)v.num;
  47:Drivers/lvgl/src/widgets/../core/lv_obj_style_gen.h **** }
  48:Drivers/lvgl/src/widgets/../core/lv_obj_style_gen.h **** 
  49:Drivers/lvgl/src/widgets/../core/lv_obj_style_gen.h **** static inline lv_align_t lv_obj_get_style_align(const struct _lv_obj_t * obj, uint32_t part)
  50:Drivers/lvgl/src/widgets/../core/lv_obj_style_gen.h **** {
  51:Drivers/lvgl/src/widgets/../core/lv_obj_style_gen.h ****     lv_style_value_t v = lv_obj_get_style_prop(obj, part, LV_STYLE_ALIGN);
  52:Drivers/lvgl/src/widgets/../core/lv_obj_style_gen.h ****     return (lv_align_t)v.num;
  53:Drivers/lvgl/src/widgets/../core/lv_obj_style_gen.h **** }
  54:Drivers/lvgl/src/widgets/../core/lv_obj_style_gen.h **** 
  55:Drivers/lvgl/src/widgets/../core/lv_obj_style_gen.h **** static inline lv_coord_t lv_obj_get_style_transform_width(const struct _lv_obj_t * obj, uint32_t pa
  56:Drivers/lvgl/src/widgets/../core/lv_obj_style_gen.h **** {
  57:Drivers/lvgl/src/widgets/../core/lv_obj_style_gen.h ****     lv_style_value_t v = lv_obj_get_style_prop(obj, part, LV_STYLE_TRANSFORM_WIDTH);
  58:Drivers/lvgl/src/widgets/../core/lv_obj_style_gen.h ****     return (lv_coord_t)v.num;
  59:Drivers/lvgl/src/widgets/../core/lv_obj_style_gen.h **** }
  60:Drivers/lvgl/src/widgets/../core/lv_obj_style_gen.h **** 
  61:Drivers/lvgl/src/widgets/../core/lv_obj_style_gen.h **** static inline lv_coord_t lv_obj_get_style_transform_height(const struct _lv_obj_t * obj, uint32_t p
  62:Drivers/lvgl/src/widgets/../core/lv_obj_style_gen.h **** {
  63:Drivers/lvgl/src/widgets/../core/lv_obj_style_gen.h ****     lv_style_value_t v = lv_obj_get_style_prop(obj, part, LV_STYLE_TRANSFORM_HEIGHT);
  64:Drivers/lvgl/src/widgets/../core/lv_obj_style_gen.h ****     return (lv_coord_t)v.num;
  65:Drivers/lvgl/src/widgets/../core/lv_obj_style_gen.h **** }
  66:Drivers/lvgl/src/widgets/../core/lv_obj_style_gen.h **** 
  67:Drivers/lvgl/src/widgets/../core/lv_obj_style_gen.h **** static inline lv_coord_t lv_obj_get_style_translate_x(const struct _lv_obj_t * obj, uint32_t part)
  68:Drivers/lvgl/src/widgets/../core/lv_obj_style_gen.h **** {
  69:Drivers/lvgl/src/widgets/../core/lv_obj_style_gen.h ****     lv_style_value_t v = lv_obj_get_style_prop(obj, part, LV_STYLE_TRANSLATE_X);
  70:Drivers/lvgl/src/widgets/../core/lv_obj_style_gen.h ****     return (lv_coord_t)v.num;
  71:Drivers/lvgl/src/widgets/../core/lv_obj_style_gen.h **** }
  72:Drivers/lvgl/src/widgets/../core/lv_obj_style_gen.h **** 
  73:Drivers/lvgl/src/widgets/../core/lv_obj_style_gen.h **** static inline lv_coord_t lv_obj_get_style_translate_y(const struct _lv_obj_t * obj, uint32_t part)
  74:Drivers/lvgl/src/widgets/../core/lv_obj_style_gen.h **** {
  75:Drivers/lvgl/src/widgets/../core/lv_obj_style_gen.h ****     lv_style_value_t v = lv_obj_get_style_prop(obj, part, LV_STYLE_TRANSLATE_Y);
  76:Drivers/lvgl/src/widgets/../core/lv_obj_style_gen.h ****     return (lv_coord_t)v.num;
  77:Drivers/lvgl/src/widgets/../core/lv_obj_style_gen.h **** }
  78:Drivers/lvgl/src/widgets/../core/lv_obj_style_gen.h **** 
  79:Drivers/lvgl/src/widgets/../core/lv_obj_style_gen.h **** static inline lv_coord_t lv_obj_get_style_transform_zoom(const struct _lv_obj_t * obj, uint32_t par
  80:Drivers/lvgl/src/widgets/../core/lv_obj_style_gen.h **** {
  81:Drivers/lvgl/src/widgets/../core/lv_obj_style_gen.h ****     lv_style_value_t v = lv_obj_get_style_prop(obj, part, LV_STYLE_TRANSFORM_ZOOM);
  82:Drivers/lvgl/src/widgets/../core/lv_obj_style_gen.h ****     return (lv_coord_t)v.num;
  83:Drivers/lvgl/src/widgets/../core/lv_obj_style_gen.h **** }
  84:Drivers/lvgl/src/widgets/../core/lv_obj_style_gen.h **** 
  85:Drivers/lvgl/src/widgets/../core/lv_obj_style_gen.h **** static inline lv_coord_t lv_obj_get_style_transform_angle(const struct _lv_obj_t * obj, uint32_t pa
  86:Drivers/lvgl/src/widgets/../core/lv_obj_style_gen.h **** {
  87:Drivers/lvgl/src/widgets/../core/lv_obj_style_gen.h ****     lv_style_value_t v = lv_obj_get_style_prop(obj, part, LV_STYLE_TRANSFORM_ANGLE);
  88:Drivers/lvgl/src/widgets/../core/lv_obj_style_gen.h ****     return (lv_coord_t)v.num;
  89:Drivers/lvgl/src/widgets/../core/lv_obj_style_gen.h **** }
  90:Drivers/lvgl/src/widgets/../core/lv_obj_style_gen.h **** 
  91:Drivers/lvgl/src/widgets/../core/lv_obj_style_gen.h **** static inline lv_coord_t lv_obj_get_style_transform_pivot_x(const struct _lv_obj_t * obj, uint32_t 
  92:Drivers/lvgl/src/widgets/../core/lv_obj_style_gen.h **** {
  93:Drivers/lvgl/src/widgets/../core/lv_obj_style_gen.h ****     lv_style_value_t v = lv_obj_get_style_prop(obj, part, LV_STYLE_TRANSFORM_PIVOT_X);
  94:Drivers/lvgl/src/widgets/../core/lv_obj_style_gen.h ****     return (lv_coord_t)v.num;
  95:Drivers/lvgl/src/widgets/../core/lv_obj_style_gen.h **** }
  96:Drivers/lvgl/src/widgets/../core/lv_obj_style_gen.h **** 
  97:Drivers/lvgl/src/widgets/../core/lv_obj_style_gen.h **** static inline lv_coord_t lv_obj_get_style_transform_pivot_y(const struct _lv_obj_t * obj, uint32_t 
  98:Drivers/lvgl/src/widgets/../core/lv_obj_style_gen.h **** {
  99:Drivers/lvgl/src/widgets/../core/lv_obj_style_gen.h ****     lv_style_value_t v = lv_obj_get_style_prop(obj, part, LV_STYLE_TRANSFORM_PIVOT_Y);
 100:Drivers/lvgl/src/widgets/../core/lv_obj_style_gen.h ****     return (lv_coord_t)v.num;
 101:Drivers/lvgl/src/widgets/../core/lv_obj_style_gen.h **** }
 102:Drivers/lvgl/src/widgets/../core/lv_obj_style_gen.h **** 
ARM GAS  /var/folders/lp/x54gwt890xv47sdkqj1k04q40000gn/T//ccDzkxjV.s 			page 13


 103:Drivers/lvgl/src/widgets/../core/lv_obj_style_gen.h **** static inline lv_coord_t lv_obj_get_style_pad_top(const struct _lv_obj_t * obj, uint32_t part)
 104:Drivers/lvgl/src/widgets/../core/lv_obj_style_gen.h **** {
 105:Drivers/lvgl/src/widgets/../core/lv_obj_style_gen.h ****     lv_style_value_t v = lv_obj_get_style_prop(obj, part, LV_STYLE_PAD_TOP);
 106:Drivers/lvgl/src/widgets/../core/lv_obj_style_gen.h ****     return (lv_coord_t)v.num;
 107:Drivers/lvgl/src/widgets/../core/lv_obj_style_gen.h **** }
 108:Drivers/lvgl/src/widgets/../core/lv_obj_style_gen.h **** 
 109:Drivers/lvgl/src/widgets/../core/lv_obj_style_gen.h **** static inline lv_coord_t lv_obj_get_style_pad_bottom(const struct _lv_obj_t * obj, uint32_t part)
 110:Drivers/lvgl/src/widgets/../core/lv_obj_style_gen.h **** {
 111:Drivers/lvgl/src/widgets/../core/lv_obj_style_gen.h ****     lv_style_value_t v = lv_obj_get_style_prop(obj, part, LV_STYLE_PAD_BOTTOM);
 112:Drivers/lvgl/src/widgets/../core/lv_obj_style_gen.h ****     return (lv_coord_t)v.num;
 113:Drivers/lvgl/src/widgets/../core/lv_obj_style_gen.h **** }
 114:Drivers/lvgl/src/widgets/../core/lv_obj_style_gen.h **** 
 115:Drivers/lvgl/src/widgets/../core/lv_obj_style_gen.h **** static inline lv_coord_t lv_obj_get_style_pad_left(const struct _lv_obj_t * obj, uint32_t part)
 123              		.loc 2 115 26 view .LVU26
 124              	.LBB78:
 116:Drivers/lvgl/src/widgets/../core/lv_obj_style_gen.h **** {
 117:Drivers/lvgl/src/widgets/../core/lv_obj_style_gen.h ****     lv_style_value_t v = lv_obj_get_style_prop(obj, part, LV_STYLE_PAD_LEFT);
 125              		.loc 2 117 5 view .LVU27
 126              		.loc 2 117 26 is_stmt 0 view .LVU28
 127 002a 1222     		movs	r2, #18
 128              	.LVL6:
 129              		.loc 2 117 26 view .LVU29
 130 002c 4FF44031 		mov	r1, #196608
 131              	.LVL7:
 132              		.loc 2 117 26 view .LVU30
 133 0030 5046     		mov	r0, r10
 134              	.LVL8:
 135              		.loc 2 117 26 view .LVU31
 136 0032 FFF7FEFF 		bl	lv_obj_get_style_prop
 137              	.LVL9:
 138              		.loc 2 117 26 view .LVU32
 139 0036 8046     		mov	r8, r0
 140              	.LVL10:
 118:Drivers/lvgl/src/widgets/../core/lv_obj_style_gen.h ****     return (lv_coord_t)v.num;
 141              		.loc 2 118 5 is_stmt 1 view .LVU33
 142              		.loc 2 118 5 is_stmt 0 view .LVU34
 143              	.LBE78:
 144              	.LBE77:
 428:Drivers/lvgl/src/widgets/lv_slider.c ****     lv_coord_t knob_top = lv_obj_get_style_pad_top(obj, LV_PART_KNOB);
 145              		.loc 1 428 5 is_stmt 1 view .LVU35
 146              	.LBB79:
 147              	.LBI79:
 119:Drivers/lvgl/src/widgets/../core/lv_obj_style_gen.h **** }
 120:Drivers/lvgl/src/widgets/../core/lv_obj_style_gen.h **** 
 121:Drivers/lvgl/src/widgets/../core/lv_obj_style_gen.h **** static inline lv_coord_t lv_obj_get_style_pad_right(const struct _lv_obj_t * obj, uint32_t part)
 148              		.loc 2 121 26 view .LVU36
 149              	.LBB80:
 122:Drivers/lvgl/src/widgets/../core/lv_obj_style_gen.h **** {
 123:Drivers/lvgl/src/widgets/../core/lv_obj_style_gen.h ****     lv_style_value_t v = lv_obj_get_style_prop(obj, part, LV_STYLE_PAD_RIGHT);
 150              		.loc 2 123 5 view .LVU37
 151              		.loc 2 123 26 is_stmt 0 view .LVU38
 152 0038 1322     		movs	r2, #19
 153 003a 4FF44031 		mov	r1, #196608
 154 003e 5046     		mov	r0, r10
 155 0040 FFF7FEFF 		bl	lv_obj_get_style_prop
 156              	.LVL11:
 157 0044 8146     		mov	r9, r0
ARM GAS  /var/folders/lp/x54gwt890xv47sdkqj1k04q40000gn/T//ccDzkxjV.s 			page 14


 158              	.LVL12:
 124:Drivers/lvgl/src/widgets/../core/lv_obj_style_gen.h ****     return (lv_coord_t)v.num;
 159              		.loc 2 124 5 is_stmt 1 view .LVU39
 160              		.loc 2 124 5 is_stmt 0 view .LVU40
 161              	.LBE80:
 162              	.LBE79:
 429:Drivers/lvgl/src/widgets/lv_slider.c ****     lv_coord_t knob_bottom = lv_obj_get_style_pad_bottom(obj, LV_PART_KNOB);
 163              		.loc 1 429 5 is_stmt 1 view .LVU41
 164              	.LBB81:
 165              	.LBI81:
 103:Drivers/lvgl/src/widgets/../core/lv_obj_style_gen.h **** {
 166              		.loc 2 103 26 view .LVU42
 167              	.LBB82:
 105:Drivers/lvgl/src/widgets/../core/lv_obj_style_gen.h ****     return (lv_coord_t)v.num;
 168              		.loc 2 105 5 view .LVU43
 105:Drivers/lvgl/src/widgets/../core/lv_obj_style_gen.h ****     return (lv_coord_t)v.num;
 169              		.loc 2 105 26 is_stmt 0 view .LVU44
 170 0046 1022     		movs	r2, #16
 171 0048 4FF44031 		mov	r1, #196608
 172 004c 5046     		mov	r0, r10
 173 004e FFF7FEFF 		bl	lv_obj_get_style_prop
 174              	.LVL13:
 175 0052 0646     		mov	r6, r0
 176              	.LVL14:
 106:Drivers/lvgl/src/widgets/../core/lv_obj_style_gen.h **** }
 177              		.loc 2 106 5 is_stmt 1 view .LVU45
 106:Drivers/lvgl/src/widgets/../core/lv_obj_style_gen.h **** }
 178              		.loc 2 106 5 is_stmt 0 view .LVU46
 179              	.LBE82:
 180              	.LBE81:
 430:Drivers/lvgl/src/widgets/lv_slider.c **** 
 181              		.loc 1 430 5 is_stmt 1 view .LVU47
 182              	.LBB83:
 183              	.LBI83:
 109:Drivers/lvgl/src/widgets/../core/lv_obj_style_gen.h **** {
 184              		.loc 2 109 26 view .LVU48
 185              	.LBB84:
 111:Drivers/lvgl/src/widgets/../core/lv_obj_style_gen.h ****     return (lv_coord_t)v.num;
 186              		.loc 2 111 5 view .LVU49
 111:Drivers/lvgl/src/widgets/../core/lv_obj_style_gen.h ****     return (lv_coord_t)v.num;
 187              		.loc 2 111 26 is_stmt 0 view .LVU50
 188 0054 1122     		movs	r2, #17
 189 0056 4FF44031 		mov	r1, #196608
 190 005a 5046     		mov	r0, r10
 191 005c FFF7FEFF 		bl	lv_obj_get_style_prop
 192              	.LVL15:
 193 0060 0746     		mov	r7, r0
 194              	.LVL16:
 112:Drivers/lvgl/src/widgets/../core/lv_obj_style_gen.h **** }
 195              		.loc 2 112 5 is_stmt 1 view .LVU51
 112:Drivers/lvgl/src/widgets/../core/lv_obj_style_gen.h **** }
 196              		.loc 2 112 5 is_stmt 0 view .LVU52
 197              	.LBE84:
 198              	.LBE83:
 432:Drivers/lvgl/src/widgets/lv_slider.c ****     lv_coord_t transf_h = lv_obj_get_style_transform_height(obj, LV_PART_KNOB);
 199              		.loc 1 432 5 is_stmt 1 view .LVU53
 200              	.LBB85:
ARM GAS  /var/folders/lp/x54gwt890xv47sdkqj1k04q40000gn/T//ccDzkxjV.s 			page 15


 201              	.LBI85:
  55:Drivers/lvgl/src/widgets/../core/lv_obj_style_gen.h **** {
 202              		.loc 2 55 26 view .LVU54
 203              	.LBB86:
  57:Drivers/lvgl/src/widgets/../core/lv_obj_style_gen.h ****     return (lv_coord_t)v.num;
 204              		.loc 2 57 5 view .LVU55
  57:Drivers/lvgl/src/widgets/../core/lv_obj_style_gen.h ****     return (lv_coord_t)v.num;
 205              		.loc 2 57 26 is_stmt 0 view .LVU56
 206 0062 6922     		movs	r2, #105
 207 0064 4FF44031 		mov	r1, #196608
 208 0068 5046     		mov	r0, r10
 209 006a FFF7FEFF 		bl	lv_obj_get_style_prop
 210              	.LVL17:
 211 006e 0546     		mov	r5, r0
 212              	.LVL18:
  58:Drivers/lvgl/src/widgets/../core/lv_obj_style_gen.h **** }
 213              		.loc 2 58 5 is_stmt 1 view .LVU57
  58:Drivers/lvgl/src/widgets/../core/lv_obj_style_gen.h **** }
 214              		.loc 2 58 5 is_stmt 0 view .LVU58
 215              	.LBE86:
 216              	.LBE85:
 433:Drivers/lvgl/src/widgets/lv_slider.c **** 
 217              		.loc 1 433 5 is_stmt 1 view .LVU59
 218              	.LBB87:
 219              	.LBI87:
  61:Drivers/lvgl/src/widgets/../core/lv_obj_style_gen.h **** {
 220              		.loc 2 61 26 view .LVU60
 221              	.LBB88:
  63:Drivers/lvgl/src/widgets/../core/lv_obj_style_gen.h ****     return (lv_coord_t)v.num;
 222              		.loc 2 63 5 view .LVU61
  63:Drivers/lvgl/src/widgets/../core/lv_obj_style_gen.h ****     return (lv_coord_t)v.num;
 223              		.loc 2 63 26 is_stmt 0 view .LVU62
 224 0070 6A22     		movs	r2, #106
 225 0072 4FF44031 		mov	r1, #196608
 226 0076 5046     		mov	r0, r10
 227 0078 FFF7FEFF 		bl	lv_obj_get_style_prop
 228              	.LVL19:
  64:Drivers/lvgl/src/widgets/../core/lv_obj_style_gen.h **** }
 229              		.loc 2 64 5 is_stmt 1 view .LVU63
  64:Drivers/lvgl/src/widgets/../core/lv_obj_style_gen.h **** }
 230              		.loc 2 64 5 is_stmt 0 view .LVU64
 231              	.LBE88:
 232              	.LBE87:
 436:Drivers/lvgl/src/widgets/lv_slider.c ****     knob_area->x2 += knob_right + transf_w;
 233              		.loc 1 436 5 is_stmt 1 view .LVU65
 436:Drivers/lvgl/src/widgets/lv_slider.c ****     knob_area->x2 += knob_right + transf_w;
 234              		.loc 1 436 14 is_stmt 0 view .LVU66
 235 007c 2288     		ldrh	r2, [r4]
 436:Drivers/lvgl/src/widgets/lv_slider.c ****     knob_area->x2 += knob_right + transf_w;
 236              		.loc 1 436 32 view .LVU67
 237 007e ABB2     		uxth	r3, r5
 238 0080 9844     		add	r8, r8, r3
 239              	.LVL20:
 436:Drivers/lvgl/src/widgets/lv_slider.c ****     knob_area->x2 += knob_right + transf_w;
 240              		.loc 1 436 32 view .LVU68
 241 0082 1FFA88F8 		uxth	r8, r8
 436:Drivers/lvgl/src/widgets/lv_slider.c ****     knob_area->x2 += knob_right + transf_w;
ARM GAS  /var/folders/lp/x54gwt890xv47sdkqj1k04q40000gn/T//ccDzkxjV.s 			page 16


 242              		.loc 1 436 19 view .LVU69
 243 0086 A2EB0802 		sub	r2, r2, r8
 244 008a 2280     		strh	r2, [r4]	@ movhi
 437:Drivers/lvgl/src/widgets/lv_slider.c ****     knob_area->y1 -= knob_top + transf_h;
 245              		.loc 1 437 5 is_stmt 1 view .LVU70
 437:Drivers/lvgl/src/widgets/lv_slider.c ****     knob_area->y1 -= knob_top + transf_h;
 246              		.loc 1 437 14 is_stmt 0 view .LVU71
 247 008c A288     		ldrh	r2, [r4, #4]
 437:Drivers/lvgl/src/widgets/lv_slider.c ****     knob_area->y1 -= knob_top + transf_h;
 248              		.loc 1 437 33 view .LVU72
 249 008e 4B44     		add	r3, r3, r9
 437:Drivers/lvgl/src/widgets/lv_slider.c ****     knob_area->y1 -= knob_top + transf_h;
 250              		.loc 1 437 19 view .LVU73
 251 0090 12FA83F3 		uxtah	r3, r2, r3
 252 0094 A380     		strh	r3, [r4, #4]	@ movhi
 438:Drivers/lvgl/src/widgets/lv_slider.c ****     knob_area->y2 += knob_bottom + transf_h;
 253              		.loc 1 438 5 is_stmt 1 view .LVU74
 438:Drivers/lvgl/src/widgets/lv_slider.c ****     knob_area->y2 += knob_bottom + transf_h;
 254              		.loc 1 438 14 is_stmt 0 view .LVU75
 255 0096 6288     		ldrh	r2, [r4, #2]
 438:Drivers/lvgl/src/widgets/lv_slider.c ****     knob_area->y2 += knob_bottom + transf_h;
 256              		.loc 1 438 31 view .LVU76
 257 0098 83B2     		uxth	r3, r0
 258 009a 1E44     		add	r6, r6, r3
 259              	.LVL21:
 438:Drivers/lvgl/src/widgets/lv_slider.c ****     knob_area->y2 += knob_bottom + transf_h;
 260              		.loc 1 438 31 view .LVU77
 261 009c B6B2     		uxth	r6, r6
 438:Drivers/lvgl/src/widgets/lv_slider.c ****     knob_area->y2 += knob_bottom + transf_h;
 262              		.loc 1 438 19 view .LVU78
 263 009e 921B     		subs	r2, r2, r6
 264 00a0 6280     		strh	r2, [r4, #2]	@ movhi
 439:Drivers/lvgl/src/widgets/lv_slider.c **** }
 265              		.loc 1 439 5 is_stmt 1 view .LVU79
 439:Drivers/lvgl/src/widgets/lv_slider.c **** }
 266              		.loc 1 439 14 is_stmt 0 view .LVU80
 267 00a2 E288     		ldrh	r2, [r4, #6]
 439:Drivers/lvgl/src/widgets/lv_slider.c **** }
 268              		.loc 1 439 34 view .LVU81
 269 00a4 3B44     		add	r3, r3, r7
 439:Drivers/lvgl/src/widgets/lv_slider.c **** }
 270              		.loc 1 439 19 view .LVU82
 271 00a6 12FA83F3 		uxtah	r3, r2, r3
 272 00aa E380     		strh	r3, [r4, #6]	@ movhi
 440:Drivers/lvgl/src/widgets/lv_slider.c **** 
 273              		.loc 1 440 1 view .LVU83
 274 00ac BDE8F087 		pop	{r4, r5, r6, r7, r8, r9, r10, pc}
 275              	.LVL22:
 276              	.L4:
 421:Drivers/lvgl/src/widgets/lv_slider.c ****         knob_area->y2 = knob_area->y1 + knob_size - 1;
 277              		.loc 1 421 9 is_stmt 1 view .LVU84
 421:Drivers/lvgl/src/widgets/lv_slider.c ****         knob_area->y2 = knob_area->y1 + knob_size - 1;
 278              		.loc 1 421 18 is_stmt 0 view .LVU85
 279 00b0 4B88     		ldrh	r3, [r1, #2]
 280              	.LVL23:
 421:Drivers/lvgl/src/widgets/lv_slider.c ****         knob_area->y2 = knob_area->y1 + knob_size - 1;
 281              		.loc 1 421 23 view .LVU86
ARM GAS  /var/folders/lp/x54gwt890xv47sdkqj1k04q40000gn/T//ccDzkxjV.s 			page 17


 282 00b2 A3EB6203 		sub	r3, r3, r2, asr #1
 283 00b6 9BB2     		uxth	r3, r3
 284 00b8 4B80     		strh	r3, [r1, #2]	@ movhi
 422:Drivers/lvgl/src/widgets/lv_slider.c ****         knob_area->x1 = obj->coords.x1;
 285              		.loc 1 422 9 is_stmt 1 view .LVU87
 422:Drivers/lvgl/src/widgets/lv_slider.c ****         knob_area->x1 = obj->coords.x1;
 286              		.loc 1 422 39 is_stmt 0 view .LVU88
 287 00ba 1344     		add	r3, r3, r2
 288 00bc 9BB2     		uxth	r3, r3
 422:Drivers/lvgl/src/widgets/lv_slider.c ****         knob_area->x1 = obj->coords.x1;
 289              		.loc 1 422 51 view .LVU89
 290 00be 013B     		subs	r3, r3, #1
 422:Drivers/lvgl/src/widgets/lv_slider.c ****         knob_area->x1 = obj->coords.x1;
 291              		.loc 1 422 23 view .LVU90
 292 00c0 CB80     		strh	r3, [r1, #6]	@ movhi
 423:Drivers/lvgl/src/widgets/lv_slider.c ****         knob_area->x2 = obj->coords.x2;
 293              		.loc 1 423 9 is_stmt 1 view .LVU91
 423:Drivers/lvgl/src/widgets/lv_slider.c ****         knob_area->x2 = obj->coords.x2;
 294              		.loc 1 423 36 is_stmt 0 view .LVU92
 295 00c2 B0F91430 		ldrsh	r3, [r0, #20]
 423:Drivers/lvgl/src/widgets/lv_slider.c ****         knob_area->x2 = obj->coords.x2;
 296              		.loc 1 423 23 view .LVU93
 297 00c6 0B80     		strh	r3, [r1]	@ movhi
 424:Drivers/lvgl/src/widgets/lv_slider.c ****     }
 298              		.loc 1 424 9 is_stmt 1 view .LVU94
 424:Drivers/lvgl/src/widgets/lv_slider.c ****     }
 299              		.loc 1 424 36 is_stmt 0 view .LVU95
 300 00c8 B0F91830 		ldrsh	r3, [r0, #24]
 424:Drivers/lvgl/src/widgets/lv_slider.c ****     }
 301              		.loc 1 424 23 view .LVU96
 302 00cc 8B80     		strh	r3, [r1, #4]	@ movhi
 303 00ce ACE7     		b	.L5
 304              		.cfi_endproc
 305              	.LFE181:
 307              		.section	.text.lv_slider_get_mode,"ax",%progbits
 308              		.align	1
 309              		.syntax unified
 310              		.thumb
 311              		.thumb_func
 313              	lv_slider_get_mode:
 314              	.LVL24:
 315              	.LFB169:
 316              		.file 3 "Drivers/lvgl/src/widgets/lv_slider.h"
   1:Drivers/lvgl/src/widgets/lv_slider.h **** /**
   2:Drivers/lvgl/src/widgets/lv_slider.h ****  * @file lv_slider.h
   3:Drivers/lvgl/src/widgets/lv_slider.h ****  *
   4:Drivers/lvgl/src/widgets/lv_slider.h ****  */
   5:Drivers/lvgl/src/widgets/lv_slider.h **** 
   6:Drivers/lvgl/src/widgets/lv_slider.h **** #ifndef LV_SLIDER_H
   7:Drivers/lvgl/src/widgets/lv_slider.h **** #define LV_SLIDER_H
   8:Drivers/lvgl/src/widgets/lv_slider.h **** 
   9:Drivers/lvgl/src/widgets/lv_slider.h **** #ifdef __cplusplus
  10:Drivers/lvgl/src/widgets/lv_slider.h **** extern "C" {
  11:Drivers/lvgl/src/widgets/lv_slider.h **** #endif
  12:Drivers/lvgl/src/widgets/lv_slider.h **** 
  13:Drivers/lvgl/src/widgets/lv_slider.h **** /*********************
  14:Drivers/lvgl/src/widgets/lv_slider.h ****  *      INCLUDES
ARM GAS  /var/folders/lp/x54gwt890xv47sdkqj1k04q40000gn/T//ccDzkxjV.s 			page 18


  15:Drivers/lvgl/src/widgets/lv_slider.h ****  *********************/
  16:Drivers/lvgl/src/widgets/lv_slider.h **** #include "../lv_conf_internal.h"
  17:Drivers/lvgl/src/widgets/lv_slider.h **** 
  18:Drivers/lvgl/src/widgets/lv_slider.h **** #if LV_USE_SLIDER != 0
  19:Drivers/lvgl/src/widgets/lv_slider.h **** 
  20:Drivers/lvgl/src/widgets/lv_slider.h **** /*Testing of dependencies*/
  21:Drivers/lvgl/src/widgets/lv_slider.h **** #if LV_USE_BAR == 0
  22:Drivers/lvgl/src/widgets/lv_slider.h **** #error "lv_slider: lv_bar is required. Enable it in lv_conf.h (LV_USE_BAR 1)"
  23:Drivers/lvgl/src/widgets/lv_slider.h **** #endif
  24:Drivers/lvgl/src/widgets/lv_slider.h **** 
  25:Drivers/lvgl/src/widgets/lv_slider.h **** #include "../core/lv_obj.h"
  26:Drivers/lvgl/src/widgets/lv_slider.h **** #include "lv_bar.h"
  27:Drivers/lvgl/src/widgets/lv_slider.h **** 
  28:Drivers/lvgl/src/widgets/lv_slider.h **** /*********************
  29:Drivers/lvgl/src/widgets/lv_slider.h ****  *      DEFINES
  30:Drivers/lvgl/src/widgets/lv_slider.h ****  *********************/
  31:Drivers/lvgl/src/widgets/lv_slider.h **** 
  32:Drivers/lvgl/src/widgets/lv_slider.h **** /**********************
  33:Drivers/lvgl/src/widgets/lv_slider.h ****  *      TYPEDEFS
  34:Drivers/lvgl/src/widgets/lv_slider.h ****  **********************/
  35:Drivers/lvgl/src/widgets/lv_slider.h **** 
  36:Drivers/lvgl/src/widgets/lv_slider.h **** enum {
  37:Drivers/lvgl/src/widgets/lv_slider.h ****     LV_SLIDER_MODE_NORMAL = LV_BAR_MODE_NORMAL,
  38:Drivers/lvgl/src/widgets/lv_slider.h ****     LV_SLIDER_MODE_SYMMETRICAL = LV_BAR_MODE_SYMMETRICAL,
  39:Drivers/lvgl/src/widgets/lv_slider.h ****     LV_SLIDER_MODE_RANGE = LV_BAR_MODE_RANGE
  40:Drivers/lvgl/src/widgets/lv_slider.h **** };
  41:Drivers/lvgl/src/widgets/lv_slider.h **** typedef uint8_t lv_slider_mode_t;
  42:Drivers/lvgl/src/widgets/lv_slider.h **** 
  43:Drivers/lvgl/src/widgets/lv_slider.h **** typedef struct {
  44:Drivers/lvgl/src/widgets/lv_slider.h ****     lv_bar_t bar;       /*Add the ancestor's type first*/
  45:Drivers/lvgl/src/widgets/lv_slider.h ****     lv_area_t left_knob_area;
  46:Drivers/lvgl/src/widgets/lv_slider.h ****     lv_area_t right_knob_area;
  47:Drivers/lvgl/src/widgets/lv_slider.h ****     int32_t * value_to_set; /*Which bar value to set*/
  48:Drivers/lvgl/src/widgets/lv_slider.h ****     uint8_t dragging : 1;       /*1: the slider is being dragged*/
  49:Drivers/lvgl/src/widgets/lv_slider.h ****     uint8_t left_knob_focus : 1; /*1: with encoder now the right knob can be adjusted*/
  50:Drivers/lvgl/src/widgets/lv_slider.h **** } lv_slider_t;
  51:Drivers/lvgl/src/widgets/lv_slider.h **** 
  52:Drivers/lvgl/src/widgets/lv_slider.h **** extern const lv_obj_class_t lv_slider_class;
  53:Drivers/lvgl/src/widgets/lv_slider.h **** 
  54:Drivers/lvgl/src/widgets/lv_slider.h **** /**
  55:Drivers/lvgl/src/widgets/lv_slider.h ****  * `type` field in `lv_obj_draw_part_dsc_t` if `class_p = lv_slider_class`
  56:Drivers/lvgl/src/widgets/lv_slider.h ****  * Used in `LV_EVENT_DRAW_PART_BEGIN` and `LV_EVENT_DRAW_PART_END`
  57:Drivers/lvgl/src/widgets/lv_slider.h ****  */
  58:Drivers/lvgl/src/widgets/lv_slider.h **** typedef enum {
  59:Drivers/lvgl/src/widgets/lv_slider.h ****     LV_SLIDER_DRAW_PART_KNOB,           /**< The main (right) knob's rectangle*/
  60:Drivers/lvgl/src/widgets/lv_slider.h ****     LV_SLIDER_DRAW_PART_KNOB_LEFT,      /**< The left knob's rectangle*/
  61:Drivers/lvgl/src/widgets/lv_slider.h **** } lv_slider_draw_part_type_t;
  62:Drivers/lvgl/src/widgets/lv_slider.h **** 
  63:Drivers/lvgl/src/widgets/lv_slider.h **** /**********************
  64:Drivers/lvgl/src/widgets/lv_slider.h ****  * GLOBAL PROTOTYPES
  65:Drivers/lvgl/src/widgets/lv_slider.h ****  **********************/
  66:Drivers/lvgl/src/widgets/lv_slider.h **** 
  67:Drivers/lvgl/src/widgets/lv_slider.h **** /**
  68:Drivers/lvgl/src/widgets/lv_slider.h ****  * Create a slider object
  69:Drivers/lvgl/src/widgets/lv_slider.h ****  * @param parent    pointer to an object, it will be the parent of the new slider.
  70:Drivers/lvgl/src/widgets/lv_slider.h ****  * @return          pointer to the created slider
  71:Drivers/lvgl/src/widgets/lv_slider.h ****  */
ARM GAS  /var/folders/lp/x54gwt890xv47sdkqj1k04q40000gn/T//ccDzkxjV.s 			page 19


  72:Drivers/lvgl/src/widgets/lv_slider.h **** lv_obj_t * lv_slider_create(lv_obj_t * parent);
  73:Drivers/lvgl/src/widgets/lv_slider.h **** 
  74:Drivers/lvgl/src/widgets/lv_slider.h **** /*=====================
  75:Drivers/lvgl/src/widgets/lv_slider.h ****  * Setter functions
  76:Drivers/lvgl/src/widgets/lv_slider.h ****  *====================*/
  77:Drivers/lvgl/src/widgets/lv_slider.h **** 
  78:Drivers/lvgl/src/widgets/lv_slider.h **** /**
  79:Drivers/lvgl/src/widgets/lv_slider.h ****  * Set a new value on the slider
  80:Drivers/lvgl/src/widgets/lv_slider.h ****  * @param obj       pointer to a slider object
  81:Drivers/lvgl/src/widgets/lv_slider.h ****  * @param value     the new value
  82:Drivers/lvgl/src/widgets/lv_slider.h ****  * @param anim      LV_ANIM_ON: set the value with an animation; LV_ANIM_OFF: change the value imme
  83:Drivers/lvgl/src/widgets/lv_slider.h ****  */
  84:Drivers/lvgl/src/widgets/lv_slider.h **** static inline void lv_slider_set_value(lv_obj_t * obj, int32_t value, lv_anim_enable_t anim)
  85:Drivers/lvgl/src/widgets/lv_slider.h **** {
  86:Drivers/lvgl/src/widgets/lv_slider.h ****     lv_bar_set_value(obj, value, anim);
  87:Drivers/lvgl/src/widgets/lv_slider.h **** }
  88:Drivers/lvgl/src/widgets/lv_slider.h **** 
  89:Drivers/lvgl/src/widgets/lv_slider.h **** /**
  90:Drivers/lvgl/src/widgets/lv_slider.h ****  * Set a new value for the left knob of a slider
  91:Drivers/lvgl/src/widgets/lv_slider.h ****  * @param obj       pointer to a slider object
  92:Drivers/lvgl/src/widgets/lv_slider.h ****  * @param value     new value
  93:Drivers/lvgl/src/widgets/lv_slider.h ****  * @param anim      LV_ANIM_ON: set the value with an animation; LV_ANIM_OFF: change the value imme
  94:Drivers/lvgl/src/widgets/lv_slider.h ****  */
  95:Drivers/lvgl/src/widgets/lv_slider.h **** static inline void lv_slider_set_left_value(lv_obj_t * obj, int32_t value, lv_anim_enable_t anim)
  96:Drivers/lvgl/src/widgets/lv_slider.h **** {
  97:Drivers/lvgl/src/widgets/lv_slider.h ****     lv_bar_set_start_value(obj, value, anim);
  98:Drivers/lvgl/src/widgets/lv_slider.h **** }
  99:Drivers/lvgl/src/widgets/lv_slider.h **** 
 100:Drivers/lvgl/src/widgets/lv_slider.h **** /**
 101:Drivers/lvgl/src/widgets/lv_slider.h ****  * Set minimum and the maximum values of a bar
 102:Drivers/lvgl/src/widgets/lv_slider.h ****  * @param obj       pointer to the slider object
 103:Drivers/lvgl/src/widgets/lv_slider.h ****  * @param min       minimum value
 104:Drivers/lvgl/src/widgets/lv_slider.h ****  * @param max       maximum value
 105:Drivers/lvgl/src/widgets/lv_slider.h ****  */
 106:Drivers/lvgl/src/widgets/lv_slider.h **** static inline void lv_slider_set_range(lv_obj_t * obj, int32_t min, int32_t max)
 107:Drivers/lvgl/src/widgets/lv_slider.h **** {
 108:Drivers/lvgl/src/widgets/lv_slider.h ****     lv_bar_set_range(obj, min, max);
 109:Drivers/lvgl/src/widgets/lv_slider.h **** }
 110:Drivers/lvgl/src/widgets/lv_slider.h **** 
 111:Drivers/lvgl/src/widgets/lv_slider.h **** /**
 112:Drivers/lvgl/src/widgets/lv_slider.h ****  * Set the mode of slider.
 113:Drivers/lvgl/src/widgets/lv_slider.h ****  * @param obj       pointer to a slider object
 114:Drivers/lvgl/src/widgets/lv_slider.h ****  * @param mode      the mode of the slider. See ::lv_slider_mode_t
 115:Drivers/lvgl/src/widgets/lv_slider.h ****  */
 116:Drivers/lvgl/src/widgets/lv_slider.h **** static inline void lv_slider_set_mode(lv_obj_t * obj, lv_slider_mode_t mode)
 117:Drivers/lvgl/src/widgets/lv_slider.h **** {
 118:Drivers/lvgl/src/widgets/lv_slider.h ****     lv_bar_set_mode(obj, (lv_bar_mode_t)mode);
 119:Drivers/lvgl/src/widgets/lv_slider.h **** }
 120:Drivers/lvgl/src/widgets/lv_slider.h **** 
 121:Drivers/lvgl/src/widgets/lv_slider.h **** /*=====================
 122:Drivers/lvgl/src/widgets/lv_slider.h ****  * Getter functions
 123:Drivers/lvgl/src/widgets/lv_slider.h ****  *====================*/
 124:Drivers/lvgl/src/widgets/lv_slider.h **** 
 125:Drivers/lvgl/src/widgets/lv_slider.h **** /**
 126:Drivers/lvgl/src/widgets/lv_slider.h ****  * Get the value of the main knob of a slider
 127:Drivers/lvgl/src/widgets/lv_slider.h ****  * @param obj       pointer to a slider object
 128:Drivers/lvgl/src/widgets/lv_slider.h ****  * @return          the value of the main knob of the slider
ARM GAS  /var/folders/lp/x54gwt890xv47sdkqj1k04q40000gn/T//ccDzkxjV.s 			page 20


 129:Drivers/lvgl/src/widgets/lv_slider.h ****  */
 130:Drivers/lvgl/src/widgets/lv_slider.h **** static inline int32_t lv_slider_get_value(const lv_obj_t * obj)
 131:Drivers/lvgl/src/widgets/lv_slider.h **** {
 132:Drivers/lvgl/src/widgets/lv_slider.h ****     return lv_bar_get_value(obj);
 133:Drivers/lvgl/src/widgets/lv_slider.h **** }
 134:Drivers/lvgl/src/widgets/lv_slider.h **** 
 135:Drivers/lvgl/src/widgets/lv_slider.h **** /**
 136:Drivers/lvgl/src/widgets/lv_slider.h ****  * Get the value of the left knob of a slider
 137:Drivers/lvgl/src/widgets/lv_slider.h ****  * @param obj       pointer to a slider object
 138:Drivers/lvgl/src/widgets/lv_slider.h ****  * @return          the value of the left knob of the slider
 139:Drivers/lvgl/src/widgets/lv_slider.h ****  */
 140:Drivers/lvgl/src/widgets/lv_slider.h **** static inline int32_t lv_slider_get_left_value(const lv_obj_t * obj)
 141:Drivers/lvgl/src/widgets/lv_slider.h **** {
 142:Drivers/lvgl/src/widgets/lv_slider.h ****     return lv_bar_get_start_value(obj);
 143:Drivers/lvgl/src/widgets/lv_slider.h **** }
 144:Drivers/lvgl/src/widgets/lv_slider.h **** 
 145:Drivers/lvgl/src/widgets/lv_slider.h **** /**
 146:Drivers/lvgl/src/widgets/lv_slider.h ****  * Get the minimum value of a slider
 147:Drivers/lvgl/src/widgets/lv_slider.h ****  * @param obj       pointer to a slider object
 148:Drivers/lvgl/src/widgets/lv_slider.h ****  * @return          the minimum value of the slider
 149:Drivers/lvgl/src/widgets/lv_slider.h ****  */
 150:Drivers/lvgl/src/widgets/lv_slider.h **** static inline int32_t lv_slider_get_min_value(const lv_obj_t * obj)
 151:Drivers/lvgl/src/widgets/lv_slider.h **** {
 152:Drivers/lvgl/src/widgets/lv_slider.h ****     return lv_bar_get_min_value(obj);
 153:Drivers/lvgl/src/widgets/lv_slider.h **** }
 154:Drivers/lvgl/src/widgets/lv_slider.h **** 
 155:Drivers/lvgl/src/widgets/lv_slider.h **** /**
 156:Drivers/lvgl/src/widgets/lv_slider.h ****  * Get the maximum value of a slider
 157:Drivers/lvgl/src/widgets/lv_slider.h ****  * @param obj       pointer to a slider object
 158:Drivers/lvgl/src/widgets/lv_slider.h ****  * @return          the maximum value of the slider
 159:Drivers/lvgl/src/widgets/lv_slider.h ****  */
 160:Drivers/lvgl/src/widgets/lv_slider.h **** static inline int32_t lv_slider_get_max_value(const lv_obj_t * obj)
 161:Drivers/lvgl/src/widgets/lv_slider.h **** {
 162:Drivers/lvgl/src/widgets/lv_slider.h ****     return lv_bar_get_max_value(obj);
 163:Drivers/lvgl/src/widgets/lv_slider.h **** }
 164:Drivers/lvgl/src/widgets/lv_slider.h **** 
 165:Drivers/lvgl/src/widgets/lv_slider.h **** /**
 166:Drivers/lvgl/src/widgets/lv_slider.h ****  * Give the slider is being dragged or not
 167:Drivers/lvgl/src/widgets/lv_slider.h ****  * @param obj       pointer to a slider object
 168:Drivers/lvgl/src/widgets/lv_slider.h ****  * @return          true: drag in progress false: not dragged
 169:Drivers/lvgl/src/widgets/lv_slider.h ****  */
 170:Drivers/lvgl/src/widgets/lv_slider.h **** bool lv_slider_is_dragged(const lv_obj_t * obj);
 171:Drivers/lvgl/src/widgets/lv_slider.h **** 
 172:Drivers/lvgl/src/widgets/lv_slider.h **** /**
 173:Drivers/lvgl/src/widgets/lv_slider.h ****  * Get the mode of the slider.
 174:Drivers/lvgl/src/widgets/lv_slider.h ****  * @param obj       pointer to a bar object
 175:Drivers/lvgl/src/widgets/lv_slider.h ****  * @return          see ::lv_slider_mode_t
 176:Drivers/lvgl/src/widgets/lv_slider.h ****  */
 177:Drivers/lvgl/src/widgets/lv_slider.h **** static inline lv_slider_mode_t lv_slider_get_mode(lv_obj_t * slider)
 178:Drivers/lvgl/src/widgets/lv_slider.h **** {
 317              		.loc 3 178 1 is_stmt 1 view -0
 318              		.cfi_startproc
 319              		@ args = 0, pretend = 0, frame = 0
 320              		@ frame_needed = 0, uses_anonymous_args = 0
 321              		.loc 3 178 1 is_stmt 0 view .LVU98
 322 0000 08B5     		push	{r3, lr}
 323              		.cfi_def_cfa_offset 8
ARM GAS  /var/folders/lp/x54gwt890xv47sdkqj1k04q40000gn/T//ccDzkxjV.s 			page 21


 324              		.cfi_offset 3, -8
 325              		.cfi_offset 14, -4
 179:Drivers/lvgl/src/widgets/lv_slider.h ****     lv_bar_mode_t mode = lv_bar_get_mode(slider);
 326              		.loc 3 179 5 is_stmt 1 view .LVU99
 327              		.loc 3 179 26 is_stmt 0 view .LVU100
 328 0002 FFF7FEFF 		bl	lv_bar_get_mode
 329              	.LVL25:
 180:Drivers/lvgl/src/widgets/lv_slider.h ****     if(mode == LV_BAR_MODE_SYMMETRICAL) return LV_SLIDER_MODE_SYMMETRICAL;
 330              		.loc 3 180 5 is_stmt 1 view .LVU101
 331              		.loc 3 180 7 is_stmt 0 view .LVU102
 332 0006 0128     		cmp	r0, #1
 333 0008 02D0     		beq	.L8
 181:Drivers/lvgl/src/widgets/lv_slider.h ****     else if(mode == LV_BAR_MODE_RANGE) return LV_SLIDER_MODE_RANGE;
 334              		.loc 3 181 10 is_stmt 1 view .LVU103
 335              		.loc 3 181 12 is_stmt 0 view .LVU104
 336 000a 0228     		cmp	r0, #2
 337 000c 00D0     		beq	.L8
 182:Drivers/lvgl/src/widgets/lv_slider.h ****     else return LV_SLIDER_MODE_NORMAL;
 338              		.loc 3 182 17 view .LVU105
 339 000e 0020     		movs	r0, #0
 340              	.LVL26:
 341              	.L8:
 183:Drivers/lvgl/src/widgets/lv_slider.h **** }
 342              		.loc 3 183 1 view .LVU106
 343 0010 08BD     		pop	{r3, pc}
 344              		.cfi_endproc
 345              	.LFE169:
 347              		.section	.text.draw_knob,"ax",%progbits
 348              		.align	1
 349              		.syntax unified
 350              		.thumb
 351              		.thumb_func
 353              	draw_knob:
 354              	.LVL27:
 355              	.LFB180:
 333:Drivers/lvgl/src/widgets/lv_slider.c ****     lv_obj_t * obj = lv_event_get_target(e);
 356              		.loc 1 333 1 is_stmt 1 view -0
 357              		.cfi_startproc
 358              		@ args = 0, pretend = 0, frame = 192
 359              		@ frame_needed = 0, uses_anonymous_args = 0
 333:Drivers/lvgl/src/widgets/lv_slider.c ****     lv_obj_t * obj = lv_event_get_target(e);
 360              		.loc 1 333 1 is_stmt 0 view .LVU108
 361 0000 2DE9F047 		push	{r4, r5, r6, r7, r8, r9, r10, lr}
 362              		.cfi_def_cfa_offset 32
 363              		.cfi_offset 4, -32
 364              		.cfi_offset 5, -28
 365              		.cfi_offset 6, -24
 366              		.cfi_offset 7, -20
 367              		.cfi_offset 8, -16
 368              		.cfi_offset 9, -12
 369              		.cfi_offset 10, -8
 370              		.cfi_offset 14, -4
 371 0004 B0B0     		sub	sp, sp, #192
 372              		.cfi_def_cfa_offset 224
 373 0006 0546     		mov	r5, r0
 334:Drivers/lvgl/src/widgets/lv_slider.c ****     lv_slider_t * slider = (lv_slider_t *)obj;
 374              		.loc 1 334 5 is_stmt 1 view .LVU109
ARM GAS  /var/folders/lp/x54gwt890xv47sdkqj1k04q40000gn/T//ccDzkxjV.s 			page 22


 334:Drivers/lvgl/src/widgets/lv_slider.c ****     lv_slider_t * slider = (lv_slider_t *)obj;
 375              		.loc 1 334 22 is_stmt 0 view .LVU110
 376 0008 FFF7FEFF 		bl	lv_event_get_target
 377              	.LVL28:
 334:Drivers/lvgl/src/widgets/lv_slider.c ****     lv_slider_t * slider = (lv_slider_t *)obj;
 378              		.loc 1 334 22 view .LVU111
 379 000c 0446     		mov	r4, r0
 380              	.LVL29:
 335:Drivers/lvgl/src/widgets/lv_slider.c ****     lv_draw_ctx_t * draw_ctx = lv_event_get_draw_ctx(e);
 381              		.loc 1 335 5 is_stmt 1 view .LVU112
 336:Drivers/lvgl/src/widgets/lv_slider.c **** 
 382              		.loc 1 336 5 view .LVU113
 336:Drivers/lvgl/src/widgets/lv_slider.c **** 
 383              		.loc 1 336 32 is_stmt 0 view .LVU114
 384 000e 2846     		mov	r0, r5
 385              	.LVL30:
 336:Drivers/lvgl/src/widgets/lv_slider.c **** 
 386              		.loc 1 336 32 view .LVU115
 387 0010 FFF7FEFF 		bl	lv_event_get_draw_ctx
 388              	.LVL31:
 389 0014 0646     		mov	r6, r0
 390              	.LVL32:
 338:Drivers/lvgl/src/widgets/lv_slider.c ****     const bool is_horizontal = is_slider_horizontal(obj);
 391              		.loc 1 338 5 is_stmt 1 view .LVU116
 392              	.LBB89:
 393              	.LBI89:
 125:Drivers/lvgl/src/widgets/../core/lv_obj_style_gen.h **** }
 126:Drivers/lvgl/src/widgets/../core/lv_obj_style_gen.h **** 
 127:Drivers/lvgl/src/widgets/../core/lv_obj_style_gen.h **** static inline lv_coord_t lv_obj_get_style_pad_row(const struct _lv_obj_t * obj, uint32_t part)
 128:Drivers/lvgl/src/widgets/../core/lv_obj_style_gen.h **** {
 129:Drivers/lvgl/src/widgets/../core/lv_obj_style_gen.h ****     lv_style_value_t v = lv_obj_get_style_prop(obj, part, LV_STYLE_PAD_ROW);
 130:Drivers/lvgl/src/widgets/../core/lv_obj_style_gen.h ****     return (lv_coord_t)v.num;
 131:Drivers/lvgl/src/widgets/../core/lv_obj_style_gen.h **** }
 132:Drivers/lvgl/src/widgets/../core/lv_obj_style_gen.h **** 
 133:Drivers/lvgl/src/widgets/../core/lv_obj_style_gen.h **** static inline lv_coord_t lv_obj_get_style_pad_column(const struct _lv_obj_t * obj, uint32_t part)
 134:Drivers/lvgl/src/widgets/../core/lv_obj_style_gen.h **** {
 135:Drivers/lvgl/src/widgets/../core/lv_obj_style_gen.h ****     lv_style_value_t v = lv_obj_get_style_prop(obj, part, LV_STYLE_PAD_COLUMN);
 136:Drivers/lvgl/src/widgets/../core/lv_obj_style_gen.h ****     return (lv_coord_t)v.num;
 137:Drivers/lvgl/src/widgets/../core/lv_obj_style_gen.h **** }
 138:Drivers/lvgl/src/widgets/../core/lv_obj_style_gen.h **** 
 139:Drivers/lvgl/src/widgets/../core/lv_obj_style_gen.h **** static inline lv_color_t lv_obj_get_style_bg_color(const struct _lv_obj_t * obj, uint32_t part)
 140:Drivers/lvgl/src/widgets/../core/lv_obj_style_gen.h **** {
 141:Drivers/lvgl/src/widgets/../core/lv_obj_style_gen.h ****     lv_style_value_t v = lv_obj_get_style_prop(obj, part, LV_STYLE_BG_COLOR);
 142:Drivers/lvgl/src/widgets/../core/lv_obj_style_gen.h ****     return v.color;
 143:Drivers/lvgl/src/widgets/../core/lv_obj_style_gen.h **** }
 144:Drivers/lvgl/src/widgets/../core/lv_obj_style_gen.h **** 
 145:Drivers/lvgl/src/widgets/../core/lv_obj_style_gen.h **** static inline lv_color_t lv_obj_get_style_bg_color_filtered(const struct _lv_obj_t * obj, uint32_t 
 146:Drivers/lvgl/src/widgets/../core/lv_obj_style_gen.h **** {
 147:Drivers/lvgl/src/widgets/../core/lv_obj_style_gen.h ****     lv_style_value_t v = _lv_obj_style_apply_color_filter(obj, part, lv_obj_get_style_prop(obj, par
 148:Drivers/lvgl/src/widgets/../core/lv_obj_style_gen.h ****     return v.color;
 149:Drivers/lvgl/src/widgets/../core/lv_obj_style_gen.h **** }
 150:Drivers/lvgl/src/widgets/../core/lv_obj_style_gen.h **** 
 151:Drivers/lvgl/src/widgets/../core/lv_obj_style_gen.h **** static inline lv_opa_t lv_obj_get_style_bg_opa(const struct _lv_obj_t * obj, uint32_t part)
 152:Drivers/lvgl/src/widgets/../core/lv_obj_style_gen.h **** {
 153:Drivers/lvgl/src/widgets/../core/lv_obj_style_gen.h ****     lv_style_value_t v = lv_obj_get_style_prop(obj, part, LV_STYLE_BG_OPA);
 154:Drivers/lvgl/src/widgets/../core/lv_obj_style_gen.h ****     return (lv_opa_t)v.num;
 155:Drivers/lvgl/src/widgets/../core/lv_obj_style_gen.h **** }
ARM GAS  /var/folders/lp/x54gwt890xv47sdkqj1k04q40000gn/T//ccDzkxjV.s 			page 23


 156:Drivers/lvgl/src/widgets/../core/lv_obj_style_gen.h **** 
 157:Drivers/lvgl/src/widgets/../core/lv_obj_style_gen.h **** static inline lv_color_t lv_obj_get_style_bg_grad_color(const struct _lv_obj_t * obj, uint32_t part
 158:Drivers/lvgl/src/widgets/../core/lv_obj_style_gen.h **** {
 159:Drivers/lvgl/src/widgets/../core/lv_obj_style_gen.h ****     lv_style_value_t v = lv_obj_get_style_prop(obj, part, LV_STYLE_BG_GRAD_COLOR);
 160:Drivers/lvgl/src/widgets/../core/lv_obj_style_gen.h ****     return v.color;
 161:Drivers/lvgl/src/widgets/../core/lv_obj_style_gen.h **** }
 162:Drivers/lvgl/src/widgets/../core/lv_obj_style_gen.h **** 
 163:Drivers/lvgl/src/widgets/../core/lv_obj_style_gen.h **** static inline lv_color_t lv_obj_get_style_bg_grad_color_filtered(const struct _lv_obj_t * obj, uint
 164:Drivers/lvgl/src/widgets/../core/lv_obj_style_gen.h **** {
 165:Drivers/lvgl/src/widgets/../core/lv_obj_style_gen.h ****     lv_style_value_t v = _lv_obj_style_apply_color_filter(obj, part, lv_obj_get_style_prop(obj, par
 166:Drivers/lvgl/src/widgets/../core/lv_obj_style_gen.h ****     return v.color;
 167:Drivers/lvgl/src/widgets/../core/lv_obj_style_gen.h **** }
 168:Drivers/lvgl/src/widgets/../core/lv_obj_style_gen.h **** 
 169:Drivers/lvgl/src/widgets/../core/lv_obj_style_gen.h **** static inline lv_grad_dir_t lv_obj_get_style_bg_grad_dir(const struct _lv_obj_t * obj, uint32_t par
 170:Drivers/lvgl/src/widgets/../core/lv_obj_style_gen.h **** {
 171:Drivers/lvgl/src/widgets/../core/lv_obj_style_gen.h ****     lv_style_value_t v = lv_obj_get_style_prop(obj, part, LV_STYLE_BG_GRAD_DIR);
 172:Drivers/lvgl/src/widgets/../core/lv_obj_style_gen.h ****     return (lv_grad_dir_t)v.num;
 173:Drivers/lvgl/src/widgets/../core/lv_obj_style_gen.h **** }
 174:Drivers/lvgl/src/widgets/../core/lv_obj_style_gen.h **** 
 175:Drivers/lvgl/src/widgets/../core/lv_obj_style_gen.h **** static inline lv_coord_t lv_obj_get_style_bg_main_stop(const struct _lv_obj_t * obj, uint32_t part)
 176:Drivers/lvgl/src/widgets/../core/lv_obj_style_gen.h **** {
 177:Drivers/lvgl/src/widgets/../core/lv_obj_style_gen.h ****     lv_style_value_t v = lv_obj_get_style_prop(obj, part, LV_STYLE_BG_MAIN_STOP);
 178:Drivers/lvgl/src/widgets/../core/lv_obj_style_gen.h ****     return (lv_coord_t)v.num;
 179:Drivers/lvgl/src/widgets/../core/lv_obj_style_gen.h **** }
 180:Drivers/lvgl/src/widgets/../core/lv_obj_style_gen.h **** 
 181:Drivers/lvgl/src/widgets/../core/lv_obj_style_gen.h **** static inline lv_coord_t lv_obj_get_style_bg_grad_stop(const struct _lv_obj_t * obj, uint32_t part)
 182:Drivers/lvgl/src/widgets/../core/lv_obj_style_gen.h **** {
 183:Drivers/lvgl/src/widgets/../core/lv_obj_style_gen.h ****     lv_style_value_t v = lv_obj_get_style_prop(obj, part, LV_STYLE_BG_GRAD_STOP);
 184:Drivers/lvgl/src/widgets/../core/lv_obj_style_gen.h ****     return (lv_coord_t)v.num;
 185:Drivers/lvgl/src/widgets/../core/lv_obj_style_gen.h **** }
 186:Drivers/lvgl/src/widgets/../core/lv_obj_style_gen.h **** 
 187:Drivers/lvgl/src/widgets/../core/lv_obj_style_gen.h **** static inline const lv_grad_dsc_t * lv_obj_get_style_bg_grad(const struct _lv_obj_t * obj, uint32_t
 188:Drivers/lvgl/src/widgets/../core/lv_obj_style_gen.h **** {
 189:Drivers/lvgl/src/widgets/../core/lv_obj_style_gen.h ****     lv_style_value_t v = lv_obj_get_style_prop(obj, part, LV_STYLE_BG_GRAD);
 190:Drivers/lvgl/src/widgets/../core/lv_obj_style_gen.h ****     return (const lv_grad_dsc_t *)v.ptr;
 191:Drivers/lvgl/src/widgets/../core/lv_obj_style_gen.h **** }
 192:Drivers/lvgl/src/widgets/../core/lv_obj_style_gen.h **** 
 193:Drivers/lvgl/src/widgets/../core/lv_obj_style_gen.h **** static inline lv_dither_mode_t lv_obj_get_style_bg_dither_mode(const struct _lv_obj_t * obj, uint32
 194:Drivers/lvgl/src/widgets/../core/lv_obj_style_gen.h **** {
 195:Drivers/lvgl/src/widgets/../core/lv_obj_style_gen.h ****     lv_style_value_t v = lv_obj_get_style_prop(obj, part, LV_STYLE_BG_DITHER_MODE);
 196:Drivers/lvgl/src/widgets/../core/lv_obj_style_gen.h ****     return (lv_dither_mode_t)v.num;
 197:Drivers/lvgl/src/widgets/../core/lv_obj_style_gen.h **** }
 198:Drivers/lvgl/src/widgets/../core/lv_obj_style_gen.h **** 
 199:Drivers/lvgl/src/widgets/../core/lv_obj_style_gen.h **** static inline const void * lv_obj_get_style_bg_img_src(const struct _lv_obj_t * obj, uint32_t part)
 200:Drivers/lvgl/src/widgets/../core/lv_obj_style_gen.h **** {
 201:Drivers/lvgl/src/widgets/../core/lv_obj_style_gen.h ****     lv_style_value_t v = lv_obj_get_style_prop(obj, part, LV_STYLE_BG_IMG_SRC);
 202:Drivers/lvgl/src/widgets/../core/lv_obj_style_gen.h ****     return (const void *)v.ptr;
 203:Drivers/lvgl/src/widgets/../core/lv_obj_style_gen.h **** }
 204:Drivers/lvgl/src/widgets/../core/lv_obj_style_gen.h **** 
 205:Drivers/lvgl/src/widgets/../core/lv_obj_style_gen.h **** static inline lv_opa_t lv_obj_get_style_bg_img_opa(const struct _lv_obj_t * obj, uint32_t part)
 206:Drivers/lvgl/src/widgets/../core/lv_obj_style_gen.h **** {
 207:Drivers/lvgl/src/widgets/../core/lv_obj_style_gen.h ****     lv_style_value_t v = lv_obj_get_style_prop(obj, part, LV_STYLE_BG_IMG_OPA);
 208:Drivers/lvgl/src/widgets/../core/lv_obj_style_gen.h ****     return (lv_opa_t)v.num;
 209:Drivers/lvgl/src/widgets/../core/lv_obj_style_gen.h **** }
 210:Drivers/lvgl/src/widgets/../core/lv_obj_style_gen.h **** 
 211:Drivers/lvgl/src/widgets/../core/lv_obj_style_gen.h **** static inline lv_color_t lv_obj_get_style_bg_img_recolor(const struct _lv_obj_t * obj, uint32_t par
 212:Drivers/lvgl/src/widgets/../core/lv_obj_style_gen.h **** {
ARM GAS  /var/folders/lp/x54gwt890xv47sdkqj1k04q40000gn/T//ccDzkxjV.s 			page 24


 213:Drivers/lvgl/src/widgets/../core/lv_obj_style_gen.h ****     lv_style_value_t v = lv_obj_get_style_prop(obj, part, LV_STYLE_BG_IMG_RECOLOR);
 214:Drivers/lvgl/src/widgets/../core/lv_obj_style_gen.h ****     return v.color;
 215:Drivers/lvgl/src/widgets/../core/lv_obj_style_gen.h **** }
 216:Drivers/lvgl/src/widgets/../core/lv_obj_style_gen.h **** 
 217:Drivers/lvgl/src/widgets/../core/lv_obj_style_gen.h **** static inline lv_color_t lv_obj_get_style_bg_img_recolor_filtered(const struct _lv_obj_t * obj, uin
 218:Drivers/lvgl/src/widgets/../core/lv_obj_style_gen.h **** {
 219:Drivers/lvgl/src/widgets/../core/lv_obj_style_gen.h ****     lv_style_value_t v = _lv_obj_style_apply_color_filter(obj, part, lv_obj_get_style_prop(obj, par
 220:Drivers/lvgl/src/widgets/../core/lv_obj_style_gen.h ****     return v.color;
 221:Drivers/lvgl/src/widgets/../core/lv_obj_style_gen.h **** }
 222:Drivers/lvgl/src/widgets/../core/lv_obj_style_gen.h **** 
 223:Drivers/lvgl/src/widgets/../core/lv_obj_style_gen.h **** static inline lv_opa_t lv_obj_get_style_bg_img_recolor_opa(const struct _lv_obj_t * obj, uint32_t p
 224:Drivers/lvgl/src/widgets/../core/lv_obj_style_gen.h **** {
 225:Drivers/lvgl/src/widgets/../core/lv_obj_style_gen.h ****     lv_style_value_t v = lv_obj_get_style_prop(obj, part, LV_STYLE_BG_IMG_RECOLOR_OPA);
 226:Drivers/lvgl/src/widgets/../core/lv_obj_style_gen.h ****     return (lv_opa_t)v.num;
 227:Drivers/lvgl/src/widgets/../core/lv_obj_style_gen.h **** }
 228:Drivers/lvgl/src/widgets/../core/lv_obj_style_gen.h **** 
 229:Drivers/lvgl/src/widgets/../core/lv_obj_style_gen.h **** static inline bool lv_obj_get_style_bg_img_tiled(const struct _lv_obj_t * obj, uint32_t part)
 230:Drivers/lvgl/src/widgets/../core/lv_obj_style_gen.h **** {
 231:Drivers/lvgl/src/widgets/../core/lv_obj_style_gen.h ****     lv_style_value_t v = lv_obj_get_style_prop(obj, part, LV_STYLE_BG_IMG_TILED);
 232:Drivers/lvgl/src/widgets/../core/lv_obj_style_gen.h ****     return (bool)v.num;
 233:Drivers/lvgl/src/widgets/../core/lv_obj_style_gen.h **** }
 234:Drivers/lvgl/src/widgets/../core/lv_obj_style_gen.h **** 
 235:Drivers/lvgl/src/widgets/../core/lv_obj_style_gen.h **** static inline lv_color_t lv_obj_get_style_border_color(const struct _lv_obj_t * obj, uint32_t part)
 236:Drivers/lvgl/src/widgets/../core/lv_obj_style_gen.h **** {
 237:Drivers/lvgl/src/widgets/../core/lv_obj_style_gen.h ****     lv_style_value_t v = lv_obj_get_style_prop(obj, part, LV_STYLE_BORDER_COLOR);
 238:Drivers/lvgl/src/widgets/../core/lv_obj_style_gen.h ****     return v.color;
 239:Drivers/lvgl/src/widgets/../core/lv_obj_style_gen.h **** }
 240:Drivers/lvgl/src/widgets/../core/lv_obj_style_gen.h **** 
 241:Drivers/lvgl/src/widgets/../core/lv_obj_style_gen.h **** static inline lv_color_t lv_obj_get_style_border_color_filtered(const struct _lv_obj_t * obj, uint3
 242:Drivers/lvgl/src/widgets/../core/lv_obj_style_gen.h **** {
 243:Drivers/lvgl/src/widgets/../core/lv_obj_style_gen.h ****     lv_style_value_t v = _lv_obj_style_apply_color_filter(obj, part, lv_obj_get_style_prop(obj, par
 244:Drivers/lvgl/src/widgets/../core/lv_obj_style_gen.h ****     return v.color;
 245:Drivers/lvgl/src/widgets/../core/lv_obj_style_gen.h **** }
 246:Drivers/lvgl/src/widgets/../core/lv_obj_style_gen.h **** 
 247:Drivers/lvgl/src/widgets/../core/lv_obj_style_gen.h **** static inline lv_opa_t lv_obj_get_style_border_opa(const struct _lv_obj_t * obj, uint32_t part)
 248:Drivers/lvgl/src/widgets/../core/lv_obj_style_gen.h **** {
 249:Drivers/lvgl/src/widgets/../core/lv_obj_style_gen.h ****     lv_style_value_t v = lv_obj_get_style_prop(obj, part, LV_STYLE_BORDER_OPA);
 250:Drivers/lvgl/src/widgets/../core/lv_obj_style_gen.h ****     return (lv_opa_t)v.num;
 251:Drivers/lvgl/src/widgets/../core/lv_obj_style_gen.h **** }
 252:Drivers/lvgl/src/widgets/../core/lv_obj_style_gen.h **** 
 253:Drivers/lvgl/src/widgets/../core/lv_obj_style_gen.h **** static inline lv_coord_t lv_obj_get_style_border_width(const struct _lv_obj_t * obj, uint32_t part)
 254:Drivers/lvgl/src/widgets/../core/lv_obj_style_gen.h **** {
 255:Drivers/lvgl/src/widgets/../core/lv_obj_style_gen.h ****     lv_style_value_t v = lv_obj_get_style_prop(obj, part, LV_STYLE_BORDER_WIDTH);
 256:Drivers/lvgl/src/widgets/../core/lv_obj_style_gen.h ****     return (lv_coord_t)v.num;
 257:Drivers/lvgl/src/widgets/../core/lv_obj_style_gen.h **** }
 258:Drivers/lvgl/src/widgets/../core/lv_obj_style_gen.h **** 
 259:Drivers/lvgl/src/widgets/../core/lv_obj_style_gen.h **** static inline lv_border_side_t lv_obj_get_style_border_side(const struct _lv_obj_t * obj, uint32_t 
 260:Drivers/lvgl/src/widgets/../core/lv_obj_style_gen.h **** {
 261:Drivers/lvgl/src/widgets/../core/lv_obj_style_gen.h ****     lv_style_value_t v = lv_obj_get_style_prop(obj, part, LV_STYLE_BORDER_SIDE);
 262:Drivers/lvgl/src/widgets/../core/lv_obj_style_gen.h ****     return (lv_border_side_t)v.num;
 263:Drivers/lvgl/src/widgets/../core/lv_obj_style_gen.h **** }
 264:Drivers/lvgl/src/widgets/../core/lv_obj_style_gen.h **** 
 265:Drivers/lvgl/src/widgets/../core/lv_obj_style_gen.h **** static inline bool lv_obj_get_style_border_post(const struct _lv_obj_t * obj, uint32_t part)
 266:Drivers/lvgl/src/widgets/../core/lv_obj_style_gen.h **** {
 267:Drivers/lvgl/src/widgets/../core/lv_obj_style_gen.h ****     lv_style_value_t v = lv_obj_get_style_prop(obj, part, LV_STYLE_BORDER_POST);
 268:Drivers/lvgl/src/widgets/../core/lv_obj_style_gen.h ****     return (bool)v.num;
 269:Drivers/lvgl/src/widgets/../core/lv_obj_style_gen.h **** }
ARM GAS  /var/folders/lp/x54gwt890xv47sdkqj1k04q40000gn/T//ccDzkxjV.s 			page 25


 270:Drivers/lvgl/src/widgets/../core/lv_obj_style_gen.h **** 
 271:Drivers/lvgl/src/widgets/../core/lv_obj_style_gen.h **** static inline lv_coord_t lv_obj_get_style_outline_width(const struct _lv_obj_t * obj, uint32_t part
 272:Drivers/lvgl/src/widgets/../core/lv_obj_style_gen.h **** {
 273:Drivers/lvgl/src/widgets/../core/lv_obj_style_gen.h ****     lv_style_value_t v = lv_obj_get_style_prop(obj, part, LV_STYLE_OUTLINE_WIDTH);
 274:Drivers/lvgl/src/widgets/../core/lv_obj_style_gen.h ****     return (lv_coord_t)v.num;
 275:Drivers/lvgl/src/widgets/../core/lv_obj_style_gen.h **** }
 276:Drivers/lvgl/src/widgets/../core/lv_obj_style_gen.h **** 
 277:Drivers/lvgl/src/widgets/../core/lv_obj_style_gen.h **** static inline lv_color_t lv_obj_get_style_outline_color(const struct _lv_obj_t * obj, uint32_t part
 278:Drivers/lvgl/src/widgets/../core/lv_obj_style_gen.h **** {
 279:Drivers/lvgl/src/widgets/../core/lv_obj_style_gen.h ****     lv_style_value_t v = lv_obj_get_style_prop(obj, part, LV_STYLE_OUTLINE_COLOR);
 280:Drivers/lvgl/src/widgets/../core/lv_obj_style_gen.h ****     return v.color;
 281:Drivers/lvgl/src/widgets/../core/lv_obj_style_gen.h **** }
 282:Drivers/lvgl/src/widgets/../core/lv_obj_style_gen.h **** 
 283:Drivers/lvgl/src/widgets/../core/lv_obj_style_gen.h **** static inline lv_color_t lv_obj_get_style_outline_color_filtered(const struct _lv_obj_t * obj, uint
 284:Drivers/lvgl/src/widgets/../core/lv_obj_style_gen.h **** {
 285:Drivers/lvgl/src/widgets/../core/lv_obj_style_gen.h ****     lv_style_value_t v = _lv_obj_style_apply_color_filter(obj, part, lv_obj_get_style_prop(obj, par
 286:Drivers/lvgl/src/widgets/../core/lv_obj_style_gen.h ****     return v.color;
 287:Drivers/lvgl/src/widgets/../core/lv_obj_style_gen.h **** }
 288:Drivers/lvgl/src/widgets/../core/lv_obj_style_gen.h **** 
 289:Drivers/lvgl/src/widgets/../core/lv_obj_style_gen.h **** static inline lv_opa_t lv_obj_get_style_outline_opa(const struct _lv_obj_t * obj, uint32_t part)
 290:Drivers/lvgl/src/widgets/../core/lv_obj_style_gen.h **** {
 291:Drivers/lvgl/src/widgets/../core/lv_obj_style_gen.h ****     lv_style_value_t v = lv_obj_get_style_prop(obj, part, LV_STYLE_OUTLINE_OPA);
 292:Drivers/lvgl/src/widgets/../core/lv_obj_style_gen.h ****     return (lv_opa_t)v.num;
 293:Drivers/lvgl/src/widgets/../core/lv_obj_style_gen.h **** }
 294:Drivers/lvgl/src/widgets/../core/lv_obj_style_gen.h **** 
 295:Drivers/lvgl/src/widgets/../core/lv_obj_style_gen.h **** static inline lv_coord_t lv_obj_get_style_outline_pad(const struct _lv_obj_t * obj, uint32_t part)
 296:Drivers/lvgl/src/widgets/../core/lv_obj_style_gen.h **** {
 297:Drivers/lvgl/src/widgets/../core/lv_obj_style_gen.h ****     lv_style_value_t v = lv_obj_get_style_prop(obj, part, LV_STYLE_OUTLINE_PAD);
 298:Drivers/lvgl/src/widgets/../core/lv_obj_style_gen.h ****     return (lv_coord_t)v.num;
 299:Drivers/lvgl/src/widgets/../core/lv_obj_style_gen.h **** }
 300:Drivers/lvgl/src/widgets/../core/lv_obj_style_gen.h **** 
 301:Drivers/lvgl/src/widgets/../core/lv_obj_style_gen.h **** static inline lv_coord_t lv_obj_get_style_shadow_width(const struct _lv_obj_t * obj, uint32_t part)
 302:Drivers/lvgl/src/widgets/../core/lv_obj_style_gen.h **** {
 303:Drivers/lvgl/src/widgets/../core/lv_obj_style_gen.h ****     lv_style_value_t v = lv_obj_get_style_prop(obj, part, LV_STYLE_SHADOW_WIDTH);
 304:Drivers/lvgl/src/widgets/../core/lv_obj_style_gen.h ****     return (lv_coord_t)v.num;
 305:Drivers/lvgl/src/widgets/../core/lv_obj_style_gen.h **** }
 306:Drivers/lvgl/src/widgets/../core/lv_obj_style_gen.h **** 
 307:Drivers/lvgl/src/widgets/../core/lv_obj_style_gen.h **** static inline lv_coord_t lv_obj_get_style_shadow_ofs_x(const struct _lv_obj_t * obj, uint32_t part)
 308:Drivers/lvgl/src/widgets/../core/lv_obj_style_gen.h **** {
 309:Drivers/lvgl/src/widgets/../core/lv_obj_style_gen.h ****     lv_style_value_t v = lv_obj_get_style_prop(obj, part, LV_STYLE_SHADOW_OFS_X);
 310:Drivers/lvgl/src/widgets/../core/lv_obj_style_gen.h ****     return (lv_coord_t)v.num;
 311:Drivers/lvgl/src/widgets/../core/lv_obj_style_gen.h **** }
 312:Drivers/lvgl/src/widgets/../core/lv_obj_style_gen.h **** 
 313:Drivers/lvgl/src/widgets/../core/lv_obj_style_gen.h **** static inline lv_coord_t lv_obj_get_style_shadow_ofs_y(const struct _lv_obj_t * obj, uint32_t part)
 314:Drivers/lvgl/src/widgets/../core/lv_obj_style_gen.h **** {
 315:Drivers/lvgl/src/widgets/../core/lv_obj_style_gen.h ****     lv_style_value_t v = lv_obj_get_style_prop(obj, part, LV_STYLE_SHADOW_OFS_Y);
 316:Drivers/lvgl/src/widgets/../core/lv_obj_style_gen.h ****     return (lv_coord_t)v.num;
 317:Drivers/lvgl/src/widgets/../core/lv_obj_style_gen.h **** }
 318:Drivers/lvgl/src/widgets/../core/lv_obj_style_gen.h **** 
 319:Drivers/lvgl/src/widgets/../core/lv_obj_style_gen.h **** static inline lv_coord_t lv_obj_get_style_shadow_spread(const struct _lv_obj_t * obj, uint32_t part
 320:Drivers/lvgl/src/widgets/../core/lv_obj_style_gen.h **** {
 321:Drivers/lvgl/src/widgets/../core/lv_obj_style_gen.h ****     lv_style_value_t v = lv_obj_get_style_prop(obj, part, LV_STYLE_SHADOW_SPREAD);
 322:Drivers/lvgl/src/widgets/../core/lv_obj_style_gen.h ****     return (lv_coord_t)v.num;
 323:Drivers/lvgl/src/widgets/../core/lv_obj_style_gen.h **** }
 324:Drivers/lvgl/src/widgets/../core/lv_obj_style_gen.h **** 
 325:Drivers/lvgl/src/widgets/../core/lv_obj_style_gen.h **** static inline lv_color_t lv_obj_get_style_shadow_color(const struct _lv_obj_t * obj, uint32_t part)
 326:Drivers/lvgl/src/widgets/../core/lv_obj_style_gen.h **** {
ARM GAS  /var/folders/lp/x54gwt890xv47sdkqj1k04q40000gn/T//ccDzkxjV.s 			page 26


 327:Drivers/lvgl/src/widgets/../core/lv_obj_style_gen.h ****     lv_style_value_t v = lv_obj_get_style_prop(obj, part, LV_STYLE_SHADOW_COLOR);
 328:Drivers/lvgl/src/widgets/../core/lv_obj_style_gen.h ****     return v.color;
 329:Drivers/lvgl/src/widgets/../core/lv_obj_style_gen.h **** }
 330:Drivers/lvgl/src/widgets/../core/lv_obj_style_gen.h **** 
 331:Drivers/lvgl/src/widgets/../core/lv_obj_style_gen.h **** static inline lv_color_t lv_obj_get_style_shadow_color_filtered(const struct _lv_obj_t * obj, uint3
 332:Drivers/lvgl/src/widgets/../core/lv_obj_style_gen.h **** {
 333:Drivers/lvgl/src/widgets/../core/lv_obj_style_gen.h ****     lv_style_value_t v = _lv_obj_style_apply_color_filter(obj, part, lv_obj_get_style_prop(obj, par
 334:Drivers/lvgl/src/widgets/../core/lv_obj_style_gen.h ****     return v.color;
 335:Drivers/lvgl/src/widgets/../core/lv_obj_style_gen.h **** }
 336:Drivers/lvgl/src/widgets/../core/lv_obj_style_gen.h **** 
 337:Drivers/lvgl/src/widgets/../core/lv_obj_style_gen.h **** static inline lv_opa_t lv_obj_get_style_shadow_opa(const struct _lv_obj_t * obj, uint32_t part)
 338:Drivers/lvgl/src/widgets/../core/lv_obj_style_gen.h **** {
 339:Drivers/lvgl/src/widgets/../core/lv_obj_style_gen.h ****     lv_style_value_t v = lv_obj_get_style_prop(obj, part, LV_STYLE_SHADOW_OPA);
 340:Drivers/lvgl/src/widgets/../core/lv_obj_style_gen.h ****     return (lv_opa_t)v.num;
 341:Drivers/lvgl/src/widgets/../core/lv_obj_style_gen.h **** }
 342:Drivers/lvgl/src/widgets/../core/lv_obj_style_gen.h **** 
 343:Drivers/lvgl/src/widgets/../core/lv_obj_style_gen.h **** static inline lv_opa_t lv_obj_get_style_img_opa(const struct _lv_obj_t * obj, uint32_t part)
 344:Drivers/lvgl/src/widgets/../core/lv_obj_style_gen.h **** {
 345:Drivers/lvgl/src/widgets/../core/lv_obj_style_gen.h ****     lv_style_value_t v = lv_obj_get_style_prop(obj, part, LV_STYLE_IMG_OPA);
 346:Drivers/lvgl/src/widgets/../core/lv_obj_style_gen.h ****     return (lv_opa_t)v.num;
 347:Drivers/lvgl/src/widgets/../core/lv_obj_style_gen.h **** }
 348:Drivers/lvgl/src/widgets/../core/lv_obj_style_gen.h **** 
 349:Drivers/lvgl/src/widgets/../core/lv_obj_style_gen.h **** static inline lv_color_t lv_obj_get_style_img_recolor(const struct _lv_obj_t * obj, uint32_t part)
 350:Drivers/lvgl/src/widgets/../core/lv_obj_style_gen.h **** {
 351:Drivers/lvgl/src/widgets/../core/lv_obj_style_gen.h ****     lv_style_value_t v = lv_obj_get_style_prop(obj, part, LV_STYLE_IMG_RECOLOR);
 352:Drivers/lvgl/src/widgets/../core/lv_obj_style_gen.h ****     return v.color;
 353:Drivers/lvgl/src/widgets/../core/lv_obj_style_gen.h **** }
 354:Drivers/lvgl/src/widgets/../core/lv_obj_style_gen.h **** 
 355:Drivers/lvgl/src/widgets/../core/lv_obj_style_gen.h **** static inline lv_color_t lv_obj_get_style_img_recolor_filtered(const struct _lv_obj_t * obj, uint32
 356:Drivers/lvgl/src/widgets/../core/lv_obj_style_gen.h **** {
 357:Drivers/lvgl/src/widgets/../core/lv_obj_style_gen.h ****     lv_style_value_t v = _lv_obj_style_apply_color_filter(obj, part, lv_obj_get_style_prop(obj, par
 358:Drivers/lvgl/src/widgets/../core/lv_obj_style_gen.h ****     return v.color;
 359:Drivers/lvgl/src/widgets/../core/lv_obj_style_gen.h **** }
 360:Drivers/lvgl/src/widgets/../core/lv_obj_style_gen.h **** 
 361:Drivers/lvgl/src/widgets/../core/lv_obj_style_gen.h **** static inline lv_opa_t lv_obj_get_style_img_recolor_opa(const struct _lv_obj_t * obj, uint32_t part
 362:Drivers/lvgl/src/widgets/../core/lv_obj_style_gen.h **** {
 363:Drivers/lvgl/src/widgets/../core/lv_obj_style_gen.h ****     lv_style_value_t v = lv_obj_get_style_prop(obj, part, LV_STYLE_IMG_RECOLOR_OPA);
 364:Drivers/lvgl/src/widgets/../core/lv_obj_style_gen.h ****     return (lv_opa_t)v.num;
 365:Drivers/lvgl/src/widgets/../core/lv_obj_style_gen.h **** }
 366:Drivers/lvgl/src/widgets/../core/lv_obj_style_gen.h **** 
 367:Drivers/lvgl/src/widgets/../core/lv_obj_style_gen.h **** static inline lv_coord_t lv_obj_get_style_line_width(const struct _lv_obj_t * obj, uint32_t part)
 368:Drivers/lvgl/src/widgets/../core/lv_obj_style_gen.h **** {
 369:Drivers/lvgl/src/widgets/../core/lv_obj_style_gen.h ****     lv_style_value_t v = lv_obj_get_style_prop(obj, part, LV_STYLE_LINE_WIDTH);
 370:Drivers/lvgl/src/widgets/../core/lv_obj_style_gen.h ****     return (lv_coord_t)v.num;
 371:Drivers/lvgl/src/widgets/../core/lv_obj_style_gen.h **** }
 372:Drivers/lvgl/src/widgets/../core/lv_obj_style_gen.h **** 
 373:Drivers/lvgl/src/widgets/../core/lv_obj_style_gen.h **** static inline lv_coord_t lv_obj_get_style_line_dash_width(const struct _lv_obj_t * obj, uint32_t pa
 374:Drivers/lvgl/src/widgets/../core/lv_obj_style_gen.h **** {
 375:Drivers/lvgl/src/widgets/../core/lv_obj_style_gen.h ****     lv_style_value_t v = lv_obj_get_style_prop(obj, part, LV_STYLE_LINE_DASH_WIDTH);
 376:Drivers/lvgl/src/widgets/../core/lv_obj_style_gen.h ****     return (lv_coord_t)v.num;
 377:Drivers/lvgl/src/widgets/../core/lv_obj_style_gen.h **** }
 378:Drivers/lvgl/src/widgets/../core/lv_obj_style_gen.h **** 
 379:Drivers/lvgl/src/widgets/../core/lv_obj_style_gen.h **** static inline lv_coord_t lv_obj_get_style_line_dash_gap(const struct _lv_obj_t * obj, uint32_t part
 380:Drivers/lvgl/src/widgets/../core/lv_obj_style_gen.h **** {
 381:Drivers/lvgl/src/widgets/../core/lv_obj_style_gen.h ****     lv_style_value_t v = lv_obj_get_style_prop(obj, part, LV_STYLE_LINE_DASH_GAP);
 382:Drivers/lvgl/src/widgets/../core/lv_obj_style_gen.h ****     return (lv_coord_t)v.num;
 383:Drivers/lvgl/src/widgets/../core/lv_obj_style_gen.h **** }
ARM GAS  /var/folders/lp/x54gwt890xv47sdkqj1k04q40000gn/T//ccDzkxjV.s 			page 27


 384:Drivers/lvgl/src/widgets/../core/lv_obj_style_gen.h **** 
 385:Drivers/lvgl/src/widgets/../core/lv_obj_style_gen.h **** static inline bool lv_obj_get_style_line_rounded(const struct _lv_obj_t * obj, uint32_t part)
 386:Drivers/lvgl/src/widgets/../core/lv_obj_style_gen.h **** {
 387:Drivers/lvgl/src/widgets/../core/lv_obj_style_gen.h ****     lv_style_value_t v = lv_obj_get_style_prop(obj, part, LV_STYLE_LINE_ROUNDED);
 388:Drivers/lvgl/src/widgets/../core/lv_obj_style_gen.h ****     return (bool)v.num;
 389:Drivers/lvgl/src/widgets/../core/lv_obj_style_gen.h **** }
 390:Drivers/lvgl/src/widgets/../core/lv_obj_style_gen.h **** 
 391:Drivers/lvgl/src/widgets/../core/lv_obj_style_gen.h **** static inline lv_color_t lv_obj_get_style_line_color(const struct _lv_obj_t * obj, uint32_t part)
 392:Drivers/lvgl/src/widgets/../core/lv_obj_style_gen.h **** {
 393:Drivers/lvgl/src/widgets/../core/lv_obj_style_gen.h ****     lv_style_value_t v = lv_obj_get_style_prop(obj, part, LV_STYLE_LINE_COLOR);
 394:Drivers/lvgl/src/widgets/../core/lv_obj_style_gen.h ****     return v.color;
 395:Drivers/lvgl/src/widgets/../core/lv_obj_style_gen.h **** }
 396:Drivers/lvgl/src/widgets/../core/lv_obj_style_gen.h **** 
 397:Drivers/lvgl/src/widgets/../core/lv_obj_style_gen.h **** static inline lv_color_t lv_obj_get_style_line_color_filtered(const struct _lv_obj_t * obj, uint32_
 398:Drivers/lvgl/src/widgets/../core/lv_obj_style_gen.h **** {
 399:Drivers/lvgl/src/widgets/../core/lv_obj_style_gen.h ****     lv_style_value_t v = _lv_obj_style_apply_color_filter(obj, part, lv_obj_get_style_prop(obj, par
 400:Drivers/lvgl/src/widgets/../core/lv_obj_style_gen.h ****     return v.color;
 401:Drivers/lvgl/src/widgets/../core/lv_obj_style_gen.h **** }
 402:Drivers/lvgl/src/widgets/../core/lv_obj_style_gen.h **** 
 403:Drivers/lvgl/src/widgets/../core/lv_obj_style_gen.h **** static inline lv_opa_t lv_obj_get_style_line_opa(const struct _lv_obj_t * obj, uint32_t part)
 404:Drivers/lvgl/src/widgets/../core/lv_obj_style_gen.h **** {
 405:Drivers/lvgl/src/widgets/../core/lv_obj_style_gen.h ****     lv_style_value_t v = lv_obj_get_style_prop(obj, part, LV_STYLE_LINE_OPA);
 406:Drivers/lvgl/src/widgets/../core/lv_obj_style_gen.h ****     return (lv_opa_t)v.num;
 407:Drivers/lvgl/src/widgets/../core/lv_obj_style_gen.h **** }
 408:Drivers/lvgl/src/widgets/../core/lv_obj_style_gen.h **** 
 409:Drivers/lvgl/src/widgets/../core/lv_obj_style_gen.h **** static inline lv_coord_t lv_obj_get_style_arc_width(const struct _lv_obj_t * obj, uint32_t part)
 410:Drivers/lvgl/src/widgets/../core/lv_obj_style_gen.h **** {
 411:Drivers/lvgl/src/widgets/../core/lv_obj_style_gen.h ****     lv_style_value_t v = lv_obj_get_style_prop(obj, part, LV_STYLE_ARC_WIDTH);
 412:Drivers/lvgl/src/widgets/../core/lv_obj_style_gen.h ****     return (lv_coord_t)v.num;
 413:Drivers/lvgl/src/widgets/../core/lv_obj_style_gen.h **** }
 414:Drivers/lvgl/src/widgets/../core/lv_obj_style_gen.h **** 
 415:Drivers/lvgl/src/widgets/../core/lv_obj_style_gen.h **** static inline bool lv_obj_get_style_arc_rounded(const struct _lv_obj_t * obj, uint32_t part)
 416:Drivers/lvgl/src/widgets/../core/lv_obj_style_gen.h **** {
 417:Drivers/lvgl/src/widgets/../core/lv_obj_style_gen.h ****     lv_style_value_t v = lv_obj_get_style_prop(obj, part, LV_STYLE_ARC_ROUNDED);
 418:Drivers/lvgl/src/widgets/../core/lv_obj_style_gen.h ****     return (bool)v.num;
 419:Drivers/lvgl/src/widgets/../core/lv_obj_style_gen.h **** }
 420:Drivers/lvgl/src/widgets/../core/lv_obj_style_gen.h **** 
 421:Drivers/lvgl/src/widgets/../core/lv_obj_style_gen.h **** static inline lv_color_t lv_obj_get_style_arc_color(const struct _lv_obj_t * obj, uint32_t part)
 422:Drivers/lvgl/src/widgets/../core/lv_obj_style_gen.h **** {
 423:Drivers/lvgl/src/widgets/../core/lv_obj_style_gen.h ****     lv_style_value_t v = lv_obj_get_style_prop(obj, part, LV_STYLE_ARC_COLOR);
 424:Drivers/lvgl/src/widgets/../core/lv_obj_style_gen.h ****     return v.color;
 425:Drivers/lvgl/src/widgets/../core/lv_obj_style_gen.h **** }
 426:Drivers/lvgl/src/widgets/../core/lv_obj_style_gen.h **** 
 427:Drivers/lvgl/src/widgets/../core/lv_obj_style_gen.h **** static inline lv_color_t lv_obj_get_style_arc_color_filtered(const struct _lv_obj_t * obj, uint32_t
 428:Drivers/lvgl/src/widgets/../core/lv_obj_style_gen.h **** {
 429:Drivers/lvgl/src/widgets/../core/lv_obj_style_gen.h ****     lv_style_value_t v = _lv_obj_style_apply_color_filter(obj, part, lv_obj_get_style_prop(obj, par
 430:Drivers/lvgl/src/widgets/../core/lv_obj_style_gen.h ****     return v.color;
 431:Drivers/lvgl/src/widgets/../core/lv_obj_style_gen.h **** }
 432:Drivers/lvgl/src/widgets/../core/lv_obj_style_gen.h **** 
 433:Drivers/lvgl/src/widgets/../core/lv_obj_style_gen.h **** static inline lv_opa_t lv_obj_get_style_arc_opa(const struct _lv_obj_t * obj, uint32_t part)
 434:Drivers/lvgl/src/widgets/../core/lv_obj_style_gen.h **** {
 435:Drivers/lvgl/src/widgets/../core/lv_obj_style_gen.h ****     lv_style_value_t v = lv_obj_get_style_prop(obj, part, LV_STYLE_ARC_OPA);
 436:Drivers/lvgl/src/widgets/../core/lv_obj_style_gen.h ****     return (lv_opa_t)v.num;
 437:Drivers/lvgl/src/widgets/../core/lv_obj_style_gen.h **** }
 438:Drivers/lvgl/src/widgets/../core/lv_obj_style_gen.h **** 
 439:Drivers/lvgl/src/widgets/../core/lv_obj_style_gen.h **** static inline const void * lv_obj_get_style_arc_img_src(const struct _lv_obj_t * obj, uint32_t part
 440:Drivers/lvgl/src/widgets/../core/lv_obj_style_gen.h **** {
ARM GAS  /var/folders/lp/x54gwt890xv47sdkqj1k04q40000gn/T//ccDzkxjV.s 			page 28


 441:Drivers/lvgl/src/widgets/../core/lv_obj_style_gen.h ****     lv_style_value_t v = lv_obj_get_style_prop(obj, part, LV_STYLE_ARC_IMG_SRC);
 442:Drivers/lvgl/src/widgets/../core/lv_obj_style_gen.h ****     return (const void *)v.ptr;
 443:Drivers/lvgl/src/widgets/../core/lv_obj_style_gen.h **** }
 444:Drivers/lvgl/src/widgets/../core/lv_obj_style_gen.h **** 
 445:Drivers/lvgl/src/widgets/../core/lv_obj_style_gen.h **** static inline lv_color_t lv_obj_get_style_text_color(const struct _lv_obj_t * obj, uint32_t part)
 446:Drivers/lvgl/src/widgets/../core/lv_obj_style_gen.h **** {
 447:Drivers/lvgl/src/widgets/../core/lv_obj_style_gen.h ****     lv_style_value_t v = lv_obj_get_style_prop(obj, part, LV_STYLE_TEXT_COLOR);
 448:Drivers/lvgl/src/widgets/../core/lv_obj_style_gen.h ****     return v.color;
 449:Drivers/lvgl/src/widgets/../core/lv_obj_style_gen.h **** }
 450:Drivers/lvgl/src/widgets/../core/lv_obj_style_gen.h **** 
 451:Drivers/lvgl/src/widgets/../core/lv_obj_style_gen.h **** static inline lv_color_t lv_obj_get_style_text_color_filtered(const struct _lv_obj_t * obj, uint32_
 452:Drivers/lvgl/src/widgets/../core/lv_obj_style_gen.h **** {
 453:Drivers/lvgl/src/widgets/../core/lv_obj_style_gen.h ****     lv_style_value_t v = _lv_obj_style_apply_color_filter(obj, part, lv_obj_get_style_prop(obj, par
 454:Drivers/lvgl/src/widgets/../core/lv_obj_style_gen.h ****     return v.color;
 455:Drivers/lvgl/src/widgets/../core/lv_obj_style_gen.h **** }
 456:Drivers/lvgl/src/widgets/../core/lv_obj_style_gen.h **** 
 457:Drivers/lvgl/src/widgets/../core/lv_obj_style_gen.h **** static inline lv_opa_t lv_obj_get_style_text_opa(const struct _lv_obj_t * obj, uint32_t part)
 458:Drivers/lvgl/src/widgets/../core/lv_obj_style_gen.h **** {
 459:Drivers/lvgl/src/widgets/../core/lv_obj_style_gen.h ****     lv_style_value_t v = lv_obj_get_style_prop(obj, part, LV_STYLE_TEXT_OPA);
 460:Drivers/lvgl/src/widgets/../core/lv_obj_style_gen.h ****     return (lv_opa_t)v.num;
 461:Drivers/lvgl/src/widgets/../core/lv_obj_style_gen.h **** }
 462:Drivers/lvgl/src/widgets/../core/lv_obj_style_gen.h **** 
 463:Drivers/lvgl/src/widgets/../core/lv_obj_style_gen.h **** static inline const lv_font_t * lv_obj_get_style_text_font(const struct _lv_obj_t * obj, uint32_t p
 464:Drivers/lvgl/src/widgets/../core/lv_obj_style_gen.h **** {
 465:Drivers/lvgl/src/widgets/../core/lv_obj_style_gen.h ****     lv_style_value_t v = lv_obj_get_style_prop(obj, part, LV_STYLE_TEXT_FONT);
 466:Drivers/lvgl/src/widgets/../core/lv_obj_style_gen.h ****     return (const lv_font_t *)v.ptr;
 467:Drivers/lvgl/src/widgets/../core/lv_obj_style_gen.h **** }
 468:Drivers/lvgl/src/widgets/../core/lv_obj_style_gen.h **** 
 469:Drivers/lvgl/src/widgets/../core/lv_obj_style_gen.h **** static inline lv_coord_t lv_obj_get_style_text_letter_space(const struct _lv_obj_t * obj, uint32_t 
 470:Drivers/lvgl/src/widgets/../core/lv_obj_style_gen.h **** {
 471:Drivers/lvgl/src/widgets/../core/lv_obj_style_gen.h ****     lv_style_value_t v = lv_obj_get_style_prop(obj, part, LV_STYLE_TEXT_LETTER_SPACE);
 472:Drivers/lvgl/src/widgets/../core/lv_obj_style_gen.h ****     return (lv_coord_t)v.num;
 473:Drivers/lvgl/src/widgets/../core/lv_obj_style_gen.h **** }
 474:Drivers/lvgl/src/widgets/../core/lv_obj_style_gen.h **** 
 475:Drivers/lvgl/src/widgets/../core/lv_obj_style_gen.h **** static inline lv_coord_t lv_obj_get_style_text_line_space(const struct _lv_obj_t * obj, uint32_t pa
 476:Drivers/lvgl/src/widgets/../core/lv_obj_style_gen.h **** {
 477:Drivers/lvgl/src/widgets/../core/lv_obj_style_gen.h ****     lv_style_value_t v = lv_obj_get_style_prop(obj, part, LV_STYLE_TEXT_LINE_SPACE);
 478:Drivers/lvgl/src/widgets/../core/lv_obj_style_gen.h ****     return (lv_coord_t)v.num;
 479:Drivers/lvgl/src/widgets/../core/lv_obj_style_gen.h **** }
 480:Drivers/lvgl/src/widgets/../core/lv_obj_style_gen.h **** 
 481:Drivers/lvgl/src/widgets/../core/lv_obj_style_gen.h **** static inline lv_text_decor_t lv_obj_get_style_text_decor(const struct _lv_obj_t * obj, uint32_t pa
 482:Drivers/lvgl/src/widgets/../core/lv_obj_style_gen.h **** {
 483:Drivers/lvgl/src/widgets/../core/lv_obj_style_gen.h ****     lv_style_value_t v = lv_obj_get_style_prop(obj, part, LV_STYLE_TEXT_DECOR);
 484:Drivers/lvgl/src/widgets/../core/lv_obj_style_gen.h ****     return (lv_text_decor_t)v.num;
 485:Drivers/lvgl/src/widgets/../core/lv_obj_style_gen.h **** }
 486:Drivers/lvgl/src/widgets/../core/lv_obj_style_gen.h **** 
 487:Drivers/lvgl/src/widgets/../core/lv_obj_style_gen.h **** static inline lv_text_align_t lv_obj_get_style_text_align(const struct _lv_obj_t * obj, uint32_t pa
 488:Drivers/lvgl/src/widgets/../core/lv_obj_style_gen.h **** {
 489:Drivers/lvgl/src/widgets/../core/lv_obj_style_gen.h ****     lv_style_value_t v = lv_obj_get_style_prop(obj, part, LV_STYLE_TEXT_ALIGN);
 490:Drivers/lvgl/src/widgets/../core/lv_obj_style_gen.h ****     return (lv_text_align_t)v.num;
 491:Drivers/lvgl/src/widgets/../core/lv_obj_style_gen.h **** }
 492:Drivers/lvgl/src/widgets/../core/lv_obj_style_gen.h **** 
 493:Drivers/lvgl/src/widgets/../core/lv_obj_style_gen.h **** static inline lv_coord_t lv_obj_get_style_radius(const struct _lv_obj_t * obj, uint32_t part)
 494:Drivers/lvgl/src/widgets/../core/lv_obj_style_gen.h **** {
 495:Drivers/lvgl/src/widgets/../core/lv_obj_style_gen.h ****     lv_style_value_t v = lv_obj_get_style_prop(obj, part, LV_STYLE_RADIUS);
 496:Drivers/lvgl/src/widgets/../core/lv_obj_style_gen.h ****     return (lv_coord_t)v.num;
 497:Drivers/lvgl/src/widgets/../core/lv_obj_style_gen.h **** }
ARM GAS  /var/folders/lp/x54gwt890xv47sdkqj1k04q40000gn/T//ccDzkxjV.s 			page 29


 498:Drivers/lvgl/src/widgets/../core/lv_obj_style_gen.h **** 
 499:Drivers/lvgl/src/widgets/../core/lv_obj_style_gen.h **** static inline bool lv_obj_get_style_clip_corner(const struct _lv_obj_t * obj, uint32_t part)
 500:Drivers/lvgl/src/widgets/../core/lv_obj_style_gen.h **** {
 501:Drivers/lvgl/src/widgets/../core/lv_obj_style_gen.h ****     lv_style_value_t v = lv_obj_get_style_prop(obj, part, LV_STYLE_CLIP_CORNER);
 502:Drivers/lvgl/src/widgets/../core/lv_obj_style_gen.h ****     return (bool)v.num;
 503:Drivers/lvgl/src/widgets/../core/lv_obj_style_gen.h **** }
 504:Drivers/lvgl/src/widgets/../core/lv_obj_style_gen.h **** 
 505:Drivers/lvgl/src/widgets/../core/lv_obj_style_gen.h **** static inline lv_opa_t lv_obj_get_style_opa(const struct _lv_obj_t * obj, uint32_t part)
 506:Drivers/lvgl/src/widgets/../core/lv_obj_style_gen.h **** {
 507:Drivers/lvgl/src/widgets/../core/lv_obj_style_gen.h ****     lv_style_value_t v = lv_obj_get_style_prop(obj, part, LV_STYLE_OPA);
 508:Drivers/lvgl/src/widgets/../core/lv_obj_style_gen.h ****     return (lv_opa_t)v.num;
 509:Drivers/lvgl/src/widgets/../core/lv_obj_style_gen.h **** }
 510:Drivers/lvgl/src/widgets/../core/lv_obj_style_gen.h **** 
 511:Drivers/lvgl/src/widgets/../core/lv_obj_style_gen.h **** static inline lv_opa_t lv_obj_get_style_opa_layered(const struct _lv_obj_t * obj, uint32_t part)
 512:Drivers/lvgl/src/widgets/../core/lv_obj_style_gen.h **** {
 513:Drivers/lvgl/src/widgets/../core/lv_obj_style_gen.h ****     lv_style_value_t v = lv_obj_get_style_prop(obj, part, LV_STYLE_OPA_LAYERED);
 514:Drivers/lvgl/src/widgets/../core/lv_obj_style_gen.h ****     return (lv_opa_t)v.num;
 515:Drivers/lvgl/src/widgets/../core/lv_obj_style_gen.h **** }
 516:Drivers/lvgl/src/widgets/../core/lv_obj_style_gen.h **** 
 517:Drivers/lvgl/src/widgets/../core/lv_obj_style_gen.h **** static inline const lv_color_filter_dsc_t * lv_obj_get_style_color_filter_dsc(const struct _lv_obj_
 518:Drivers/lvgl/src/widgets/../core/lv_obj_style_gen.h **** {
 519:Drivers/lvgl/src/widgets/../core/lv_obj_style_gen.h ****     lv_style_value_t v = lv_obj_get_style_prop(obj, part, LV_STYLE_COLOR_FILTER_DSC);
 520:Drivers/lvgl/src/widgets/../core/lv_obj_style_gen.h ****     return (const lv_color_filter_dsc_t *)v.ptr;
 521:Drivers/lvgl/src/widgets/../core/lv_obj_style_gen.h **** }
 522:Drivers/lvgl/src/widgets/../core/lv_obj_style_gen.h **** 
 523:Drivers/lvgl/src/widgets/../core/lv_obj_style_gen.h **** static inline lv_opa_t lv_obj_get_style_color_filter_opa(const struct _lv_obj_t * obj, uint32_t par
 524:Drivers/lvgl/src/widgets/../core/lv_obj_style_gen.h **** {
 525:Drivers/lvgl/src/widgets/../core/lv_obj_style_gen.h ****     lv_style_value_t v = lv_obj_get_style_prop(obj, part, LV_STYLE_COLOR_FILTER_OPA);
 526:Drivers/lvgl/src/widgets/../core/lv_obj_style_gen.h ****     return (lv_opa_t)v.num;
 527:Drivers/lvgl/src/widgets/../core/lv_obj_style_gen.h **** }
 528:Drivers/lvgl/src/widgets/../core/lv_obj_style_gen.h **** 
 529:Drivers/lvgl/src/widgets/../core/lv_obj_style_gen.h **** static inline const lv_anim_t * lv_obj_get_style_anim(const struct _lv_obj_t * obj, uint32_t part)
 530:Drivers/lvgl/src/widgets/../core/lv_obj_style_gen.h **** {
 531:Drivers/lvgl/src/widgets/../core/lv_obj_style_gen.h ****     lv_style_value_t v = lv_obj_get_style_prop(obj, part, LV_STYLE_ANIM);
 532:Drivers/lvgl/src/widgets/../core/lv_obj_style_gen.h ****     return (const lv_anim_t *)v.ptr;
 533:Drivers/lvgl/src/widgets/../core/lv_obj_style_gen.h **** }
 534:Drivers/lvgl/src/widgets/../core/lv_obj_style_gen.h **** 
 535:Drivers/lvgl/src/widgets/../core/lv_obj_style_gen.h **** static inline uint32_t lv_obj_get_style_anim_time(const struct _lv_obj_t * obj, uint32_t part)
 536:Drivers/lvgl/src/widgets/../core/lv_obj_style_gen.h **** {
 537:Drivers/lvgl/src/widgets/../core/lv_obj_style_gen.h ****     lv_style_value_t v = lv_obj_get_style_prop(obj, part, LV_STYLE_ANIM_TIME);
 538:Drivers/lvgl/src/widgets/../core/lv_obj_style_gen.h ****     return (uint32_t)v.num;
 539:Drivers/lvgl/src/widgets/../core/lv_obj_style_gen.h **** }
 540:Drivers/lvgl/src/widgets/../core/lv_obj_style_gen.h **** 
 541:Drivers/lvgl/src/widgets/../core/lv_obj_style_gen.h **** static inline uint32_t lv_obj_get_style_anim_speed(const struct _lv_obj_t * obj, uint32_t part)
 542:Drivers/lvgl/src/widgets/../core/lv_obj_style_gen.h **** {
 543:Drivers/lvgl/src/widgets/../core/lv_obj_style_gen.h ****     lv_style_value_t v = lv_obj_get_style_prop(obj, part, LV_STYLE_ANIM_SPEED);
 544:Drivers/lvgl/src/widgets/../core/lv_obj_style_gen.h ****     return (uint32_t)v.num;
 545:Drivers/lvgl/src/widgets/../core/lv_obj_style_gen.h **** }
 546:Drivers/lvgl/src/widgets/../core/lv_obj_style_gen.h **** 
 547:Drivers/lvgl/src/widgets/../core/lv_obj_style_gen.h **** static inline const lv_style_transition_dsc_t * lv_obj_get_style_transition(const struct _lv_obj_t 
 548:Drivers/lvgl/src/widgets/../core/lv_obj_style_gen.h **** {
 549:Drivers/lvgl/src/widgets/../core/lv_obj_style_gen.h ****     lv_style_value_t v = lv_obj_get_style_prop(obj, part, LV_STYLE_TRANSITION);
 550:Drivers/lvgl/src/widgets/../core/lv_obj_style_gen.h ****     return (const lv_style_transition_dsc_t *)v.ptr;
 551:Drivers/lvgl/src/widgets/../core/lv_obj_style_gen.h **** }
 552:Drivers/lvgl/src/widgets/../core/lv_obj_style_gen.h **** 
 553:Drivers/lvgl/src/widgets/../core/lv_obj_style_gen.h **** static inline lv_blend_mode_t lv_obj_get_style_blend_mode(const struct _lv_obj_t * obj, uint32_t pa
 554:Drivers/lvgl/src/widgets/../core/lv_obj_style_gen.h **** {
ARM GAS  /var/folders/lp/x54gwt890xv47sdkqj1k04q40000gn/T//ccDzkxjV.s 			page 30


 555:Drivers/lvgl/src/widgets/../core/lv_obj_style_gen.h ****     lv_style_value_t v = lv_obj_get_style_prop(obj, part, LV_STYLE_BLEND_MODE);
 556:Drivers/lvgl/src/widgets/../core/lv_obj_style_gen.h ****     return (lv_blend_mode_t)v.num;
 557:Drivers/lvgl/src/widgets/../core/lv_obj_style_gen.h **** }
 558:Drivers/lvgl/src/widgets/../core/lv_obj_style_gen.h **** 
 559:Drivers/lvgl/src/widgets/../core/lv_obj_style_gen.h **** static inline uint16_t lv_obj_get_style_layout(const struct _lv_obj_t * obj, uint32_t part)
 560:Drivers/lvgl/src/widgets/../core/lv_obj_style_gen.h **** {
 561:Drivers/lvgl/src/widgets/../core/lv_obj_style_gen.h ****     lv_style_value_t v = lv_obj_get_style_prop(obj, part, LV_STYLE_LAYOUT);
 562:Drivers/lvgl/src/widgets/../core/lv_obj_style_gen.h ****     return (uint16_t)v.num;
 563:Drivers/lvgl/src/widgets/../core/lv_obj_style_gen.h **** }
 564:Drivers/lvgl/src/widgets/../core/lv_obj_style_gen.h **** 
 565:Drivers/lvgl/src/widgets/../core/lv_obj_style_gen.h **** static inline lv_base_dir_t lv_obj_get_style_base_dir(const struct _lv_obj_t * obj, uint32_t part)
 394              		.loc 2 565 29 view .LVU117
 395              	.LBB90:
 566:Drivers/lvgl/src/widgets/../core/lv_obj_style_gen.h **** {
 567:Drivers/lvgl/src/widgets/../core/lv_obj_style_gen.h ****     lv_style_value_t v = lv_obj_get_style_prop(obj, part, LV_STYLE_BASE_DIR);
 396              		.loc 2 567 5 view .LVU118
 397              		.loc 2 567 26 is_stmt 0 view .LVU119
 398 0016 1622     		movs	r2, #22
 399 0018 0021     		movs	r1, #0
 400 001a 2046     		mov	r0, r4
 401              	.LVL33:
 402              		.loc 2 567 26 view .LVU120
 403 001c FFF7FEFF 		bl	lv_obj_get_style_prop
 404              	.LVL34:
 568:Drivers/lvgl/src/widgets/../core/lv_obj_style_gen.h ****     return (lv_base_dir_t)v.num;
 405              		.loc 2 568 5 is_stmt 1 view .LVU121
 406              		.loc 2 568 12 is_stmt 0 view .LVU122
 407 0020 5FFA80F9 		uxtb	r9, r0
 408              	.LVL35:
 409              		.loc 2 568 12 view .LVU123
 410              	.LBE90:
 411              	.LBE89:
 339:Drivers/lvgl/src/widgets/lv_slider.c **** 
 412              		.loc 1 339 5 is_stmt 1 view .LVU124
 339:Drivers/lvgl/src/widgets/lv_slider.c **** 
 413              		.loc 1 339 32 is_stmt 0 view .LVU125
 414 0024 2046     		mov	r0, r4
 415 0026 FFF7FEFF 		bl	is_slider_horizontal
 416              	.LVL36:
 417 002a 0546     		mov	r5, r0
 418              	.LVL37:
 341:Drivers/lvgl/src/widgets/lv_slider.c ****     lv_coord_t knob_size;
 419              		.loc 1 341 5 is_stmt 1 view .LVU126
 342:Drivers/lvgl/src/widgets/lv_slider.c ****     bool is_symmetrical = false;
 420              		.loc 1 342 5 view .LVU127
 343:Drivers/lvgl/src/widgets/lv_slider.c ****     if(slider->bar.mode == LV_BAR_MODE_SYMMETRICAL && slider->bar.min_value < 0 &&
 421              		.loc 1 343 5 view .LVU128
 344:Drivers/lvgl/src/widgets/lv_slider.c ****        slider->bar.max_value > 0) is_symmetrical = true;
 422              		.loc 1 344 5 view .LVU129
 344:Drivers/lvgl/src/widgets/lv_slider.c ****        slider->bar.max_value > 0) is_symmetrical = true;
 423              		.loc 1 344 25 is_stmt 0 view .LVU130
 424 002c 94F85C30 		ldrb	r3, [r4, #92]	@ zero_extendqisi2
 425 0030 03F00303 		and	r3, r3, #3
 344:Drivers/lvgl/src/widgets/lv_slider.c ****        slider->bar.max_value > 0) is_symmetrical = true;
 426              		.loc 1 344 7 view .LVU131
 427 0034 012B     		cmp	r3, #1
 428 0036 5ED0     		beq	.L29
ARM GAS  /var/folders/lp/x54gwt890xv47sdkqj1k04q40000gn/T//ccDzkxjV.s 			page 31


 343:Drivers/lvgl/src/widgets/lv_slider.c ****     if(slider->bar.mode == LV_BAR_MODE_SYMMETRICAL && slider->bar.min_value < 0 &&
 429              		.loc 1 343 10 view .LVU132
 430 0038 4FF00008 		mov	r8, #0
 431              	.L12:
 432              	.LVL38:
 347:Drivers/lvgl/src/widgets/lv_slider.c ****         knob_size = lv_obj_get_height(obj);
 433              		.loc 1 347 5 is_stmt 1 view .LVU133
 347:Drivers/lvgl/src/widgets/lv_slider.c ****         knob_size = lv_obj_get_height(obj);
 434              		.loc 1 347 7 is_stmt 0 view .LVU134
 435 003c 002D     		cmp	r5, #0
 436 003e 71D0     		beq	.L13
 348:Drivers/lvgl/src/widgets/lv_slider.c ****         if(is_symmetrical && slider->bar.cur_value < 0) knob_area.x1 = slider->bar.indic_area.x1;
 437              		.loc 1 348 9 is_stmt 1 view .LVU135
 348:Drivers/lvgl/src/widgets/lv_slider.c ****         if(is_symmetrical && slider->bar.cur_value < 0) knob_area.x1 = slider->bar.indic_area.x1;
 438              		.loc 1 348 21 is_stmt 0 view .LVU136
 439 0040 2046     		mov	r0, r4
 440 0042 FFF7FEFF 		bl	lv_obj_get_height
 441              	.LVL39:
 442 0046 0746     		mov	r7, r0
 443              	.LVL40:
 349:Drivers/lvgl/src/widgets/lv_slider.c ****         else knob_area.x1 = LV_SLIDER_KNOB_COORD(is_rtl, slider->bar.indic_area);
 444              		.loc 1 349 9 is_stmt 1 view .LVU137
 349:Drivers/lvgl/src/widgets/lv_slider.c ****         else knob_area.x1 = LV_SLIDER_KNOB_COORD(is_rtl, slider->bar.indic_area);
 445              		.loc 1 349 11 is_stmt 0 view .LVU138
 446 0048 B8F1000F 		cmp	r8, #0
 447 004c 02D0     		beq	.L14
 349:Drivers/lvgl/src/widgets/lv_slider.c ****         else knob_area.x1 = LV_SLIDER_KNOB_COORD(is_rtl, slider->bar.indic_area);
 448              		.loc 1 349 41 discriminator 1 view .LVU139
 449 004e 636A     		ldr	r3, [r4, #36]
 349:Drivers/lvgl/src/widgets/lv_slider.c ****         else knob_area.x1 = LV_SLIDER_KNOB_COORD(is_rtl, slider->bar.indic_area);
 450              		.loc 1 349 27 discriminator 1 view .LVU140
 451 0050 002B     		cmp	r3, #0
 452 0052 5FDB     		blt	.L30
 453              	.L14:
 350:Drivers/lvgl/src/widgets/lv_slider.c ****     }
 454              		.loc 1 350 14 is_stmt 1 view .LVU141
 350:Drivers/lvgl/src/widgets/lv_slider.c ****     }
 455              		.loc 1 350 27 is_stmt 0 view .LVU142
 456 0054 B9F1010F 		cmp	r9, #1
 457 0058 61D0     		beq	.L31
 350:Drivers/lvgl/src/widgets/lv_slider.c ****     }
 458              		.loc 1 350 27 discriminator 2 view .LVU143
 459 005a B4F93830 		ldrsh	r3, [r4, #56]
 460              	.L17:
 350:Drivers/lvgl/src/widgets/lv_slider.c ****     }
 461              		.loc 1 350 27 discriminator 4 view .LVU144
 462 005e ADF8B830 		strh	r3, [sp, #184]	@ movhi
 463              	.L15:
 358:Drivers/lvgl/src/widgets/lv_slider.c ****     lv_draw_rect_dsc_init(&knob_rect_dsc);
 464              		.loc 1 358 5 is_stmt 1 view .LVU145
 359:Drivers/lvgl/src/widgets/lv_slider.c ****     lv_obj_init_draw_rect_dsc(obj, LV_PART_KNOB, &knob_rect_dsc);
 465              		.loc 1 359 5 view .LVU146
 466 0062 0DF18008 		add	r8, sp, #128
 467              	.LVL41:
 359:Drivers/lvgl/src/widgets/lv_slider.c ****     lv_obj_init_draw_rect_dsc(obj, LV_PART_KNOB, &knob_rect_dsc);
 468              		.loc 1 359 5 is_stmt 0 view .LVU147
 469 0066 4046     		mov	r0, r8
ARM GAS  /var/folders/lp/x54gwt890xv47sdkqj1k04q40000gn/T//ccDzkxjV.s 			page 32


 470 0068 FFF7FEFF 		bl	lv_draw_rect_dsc_init
 471              	.LVL42:
 360:Drivers/lvgl/src/widgets/lv_slider.c ****     /* Update knob area with knob style */
 472              		.loc 1 360 5 is_stmt 1 view .LVU148
 473 006c 4246     		mov	r2, r8
 474 006e 4FF44031 		mov	r1, #196608
 475 0072 2046     		mov	r0, r4
 476 0074 FFF7FEFF 		bl	lv_obj_init_draw_rect_dsc
 477              	.LVL43:
 362:Drivers/lvgl/src/widgets/lv_slider.c ****     /* Update right knob area with calculated knob area */
 478              		.loc 1 362 5 view .LVU149
 479 0078 2B46     		mov	r3, r5
 480 007a 3A46     		mov	r2, r7
 481 007c 2EA9     		add	r1, sp, #184
 482 007e 2046     		mov	r0, r4
 483 0080 FFF7FEFF 		bl	position_knob
 484              	.LVL44:
 364:Drivers/lvgl/src/widgets/lv_slider.c **** 
 485              		.loc 1 364 5 view .LVU150
 486              	.LBB91:
 487              	.LBI91:
 488              		.file 4 "Drivers/lvgl/src/widgets/../core/../misc/../font/../misc/lv_area.h"
   1:Drivers/lvgl/src/widgets/../core/../misc/../font/../misc/lv_area.h **** /**
   2:Drivers/lvgl/src/widgets/../core/../misc/../font/../misc/lv_area.h ****  * @file lv_area.h
   3:Drivers/lvgl/src/widgets/../core/../misc/../font/../misc/lv_area.h ****  *
   4:Drivers/lvgl/src/widgets/../core/../misc/../font/../misc/lv_area.h ****  */
   5:Drivers/lvgl/src/widgets/../core/../misc/../font/../misc/lv_area.h **** 
   6:Drivers/lvgl/src/widgets/../core/../misc/../font/../misc/lv_area.h **** #ifndef LV_AREA_H
   7:Drivers/lvgl/src/widgets/../core/../misc/../font/../misc/lv_area.h **** #define LV_AREA_H
   8:Drivers/lvgl/src/widgets/../core/../misc/../font/../misc/lv_area.h **** 
   9:Drivers/lvgl/src/widgets/../core/../misc/../font/../misc/lv_area.h **** #ifdef __cplusplus
  10:Drivers/lvgl/src/widgets/../core/../misc/../font/../misc/lv_area.h **** extern "C" {
  11:Drivers/lvgl/src/widgets/../core/../misc/../font/../misc/lv_area.h **** #endif
  12:Drivers/lvgl/src/widgets/../core/../misc/../font/../misc/lv_area.h **** 
  13:Drivers/lvgl/src/widgets/../core/../misc/../font/../misc/lv_area.h **** /*********************
  14:Drivers/lvgl/src/widgets/../core/../misc/../font/../misc/lv_area.h ****  *      INCLUDES
  15:Drivers/lvgl/src/widgets/../core/../misc/../font/../misc/lv_area.h ****  *********************/
  16:Drivers/lvgl/src/widgets/../core/../misc/../font/../misc/lv_area.h **** #include "../lv_conf_internal.h"
  17:Drivers/lvgl/src/widgets/../core/../misc/../font/../misc/lv_area.h **** #include <stdbool.h>
  18:Drivers/lvgl/src/widgets/../core/../misc/../font/../misc/lv_area.h **** #include <stdint.h>
  19:Drivers/lvgl/src/widgets/../core/../misc/../font/../misc/lv_area.h **** 
  20:Drivers/lvgl/src/widgets/../core/../misc/../font/../misc/lv_area.h **** /*********************
  21:Drivers/lvgl/src/widgets/../core/../misc/../font/../misc/lv_area.h ****  *      DEFINES
  22:Drivers/lvgl/src/widgets/../core/../misc/../font/../misc/lv_area.h ****  *********************/
  23:Drivers/lvgl/src/widgets/../core/../misc/../font/../misc/lv_area.h **** 
  24:Drivers/lvgl/src/widgets/../core/../misc/../font/../misc/lv_area.h **** #if LV_USE_LARGE_COORD
  25:Drivers/lvgl/src/widgets/../core/../misc/../font/../misc/lv_area.h **** typedef int32_t lv_coord_t;
  26:Drivers/lvgl/src/widgets/../core/../misc/../font/../misc/lv_area.h **** #else
  27:Drivers/lvgl/src/widgets/../core/../misc/../font/../misc/lv_area.h **** typedef int16_t lv_coord_t;
  28:Drivers/lvgl/src/widgets/../core/../misc/../font/../misc/lv_area.h **** #endif
  29:Drivers/lvgl/src/widgets/../core/../misc/../font/../misc/lv_area.h **** 
  30:Drivers/lvgl/src/widgets/../core/../misc/../font/../misc/lv_area.h **** /**********************
  31:Drivers/lvgl/src/widgets/../core/../misc/../font/../misc/lv_area.h ****  *      TYPEDEFS
  32:Drivers/lvgl/src/widgets/../core/../misc/../font/../misc/lv_area.h ****  **********************/
  33:Drivers/lvgl/src/widgets/../core/../misc/../font/../misc/lv_area.h **** 
  34:Drivers/lvgl/src/widgets/../core/../misc/../font/../misc/lv_area.h **** /**
  35:Drivers/lvgl/src/widgets/../core/../misc/../font/../misc/lv_area.h ****  * Represents a point on the screen.
ARM GAS  /var/folders/lp/x54gwt890xv47sdkqj1k04q40000gn/T//ccDzkxjV.s 			page 33


  36:Drivers/lvgl/src/widgets/../core/../misc/../font/../misc/lv_area.h ****  */
  37:Drivers/lvgl/src/widgets/../core/../misc/../font/../misc/lv_area.h **** typedef struct {
  38:Drivers/lvgl/src/widgets/../core/../misc/../font/../misc/lv_area.h ****     lv_coord_t x;
  39:Drivers/lvgl/src/widgets/../core/../misc/../font/../misc/lv_area.h ****     lv_coord_t y;
  40:Drivers/lvgl/src/widgets/../core/../misc/../font/../misc/lv_area.h **** } lv_point_t;
  41:Drivers/lvgl/src/widgets/../core/../misc/../font/../misc/lv_area.h **** 
  42:Drivers/lvgl/src/widgets/../core/../misc/../font/../misc/lv_area.h **** /** Represents an area of the screen.*/
  43:Drivers/lvgl/src/widgets/../core/../misc/../font/../misc/lv_area.h **** typedef struct {
  44:Drivers/lvgl/src/widgets/../core/../misc/../font/../misc/lv_area.h ****     lv_coord_t x1;
  45:Drivers/lvgl/src/widgets/../core/../misc/../font/../misc/lv_area.h ****     lv_coord_t y1;
  46:Drivers/lvgl/src/widgets/../core/../misc/../font/../misc/lv_area.h ****     lv_coord_t x2;
  47:Drivers/lvgl/src/widgets/../core/../misc/../font/../misc/lv_area.h ****     lv_coord_t y2;
  48:Drivers/lvgl/src/widgets/../core/../misc/../font/../misc/lv_area.h **** } lv_area_t;
  49:Drivers/lvgl/src/widgets/../core/../misc/../font/../misc/lv_area.h **** 
  50:Drivers/lvgl/src/widgets/../core/../misc/../font/../misc/lv_area.h **** /** Alignments*/
  51:Drivers/lvgl/src/widgets/../core/../misc/../font/../misc/lv_area.h **** enum {
  52:Drivers/lvgl/src/widgets/../core/../misc/../font/../misc/lv_area.h ****     LV_ALIGN_DEFAULT = 0,
  53:Drivers/lvgl/src/widgets/../core/../misc/../font/../misc/lv_area.h ****     LV_ALIGN_TOP_LEFT,
  54:Drivers/lvgl/src/widgets/../core/../misc/../font/../misc/lv_area.h ****     LV_ALIGN_TOP_MID,
  55:Drivers/lvgl/src/widgets/../core/../misc/../font/../misc/lv_area.h ****     LV_ALIGN_TOP_RIGHT,
  56:Drivers/lvgl/src/widgets/../core/../misc/../font/../misc/lv_area.h ****     LV_ALIGN_BOTTOM_LEFT,
  57:Drivers/lvgl/src/widgets/../core/../misc/../font/../misc/lv_area.h ****     LV_ALIGN_BOTTOM_MID,
  58:Drivers/lvgl/src/widgets/../core/../misc/../font/../misc/lv_area.h ****     LV_ALIGN_BOTTOM_RIGHT,
  59:Drivers/lvgl/src/widgets/../core/../misc/../font/../misc/lv_area.h ****     LV_ALIGN_LEFT_MID,
  60:Drivers/lvgl/src/widgets/../core/../misc/../font/../misc/lv_area.h ****     LV_ALIGN_RIGHT_MID,
  61:Drivers/lvgl/src/widgets/../core/../misc/../font/../misc/lv_area.h ****     LV_ALIGN_CENTER,
  62:Drivers/lvgl/src/widgets/../core/../misc/../font/../misc/lv_area.h **** 
  63:Drivers/lvgl/src/widgets/../core/../misc/../font/../misc/lv_area.h ****     LV_ALIGN_OUT_TOP_LEFT,
  64:Drivers/lvgl/src/widgets/../core/../misc/../font/../misc/lv_area.h ****     LV_ALIGN_OUT_TOP_MID,
  65:Drivers/lvgl/src/widgets/../core/../misc/../font/../misc/lv_area.h ****     LV_ALIGN_OUT_TOP_RIGHT,
  66:Drivers/lvgl/src/widgets/../core/../misc/../font/../misc/lv_area.h ****     LV_ALIGN_OUT_BOTTOM_LEFT,
  67:Drivers/lvgl/src/widgets/../core/../misc/../font/../misc/lv_area.h ****     LV_ALIGN_OUT_BOTTOM_MID,
  68:Drivers/lvgl/src/widgets/../core/../misc/../font/../misc/lv_area.h ****     LV_ALIGN_OUT_BOTTOM_RIGHT,
  69:Drivers/lvgl/src/widgets/../core/../misc/../font/../misc/lv_area.h ****     LV_ALIGN_OUT_LEFT_TOP,
  70:Drivers/lvgl/src/widgets/../core/../misc/../font/../misc/lv_area.h ****     LV_ALIGN_OUT_LEFT_MID,
  71:Drivers/lvgl/src/widgets/../core/../misc/../font/../misc/lv_area.h ****     LV_ALIGN_OUT_LEFT_BOTTOM,
  72:Drivers/lvgl/src/widgets/../core/../misc/../font/../misc/lv_area.h ****     LV_ALIGN_OUT_RIGHT_TOP,
  73:Drivers/lvgl/src/widgets/../core/../misc/../font/../misc/lv_area.h ****     LV_ALIGN_OUT_RIGHT_MID,
  74:Drivers/lvgl/src/widgets/../core/../misc/../font/../misc/lv_area.h ****     LV_ALIGN_OUT_RIGHT_BOTTOM,
  75:Drivers/lvgl/src/widgets/../core/../misc/../font/../misc/lv_area.h **** };
  76:Drivers/lvgl/src/widgets/../core/../misc/../font/../misc/lv_area.h **** typedef uint8_t lv_align_t;
  77:Drivers/lvgl/src/widgets/../core/../misc/../font/../misc/lv_area.h **** 
  78:Drivers/lvgl/src/widgets/../core/../misc/../font/../misc/lv_area.h **** enum {
  79:Drivers/lvgl/src/widgets/../core/../misc/../font/../misc/lv_area.h ****     LV_DIR_NONE     = 0x00,
  80:Drivers/lvgl/src/widgets/../core/../misc/../font/../misc/lv_area.h ****     LV_DIR_LEFT     = (1 << 0),
  81:Drivers/lvgl/src/widgets/../core/../misc/../font/../misc/lv_area.h ****     LV_DIR_RIGHT    = (1 << 1),
  82:Drivers/lvgl/src/widgets/../core/../misc/../font/../misc/lv_area.h ****     LV_DIR_TOP      = (1 << 2),
  83:Drivers/lvgl/src/widgets/../core/../misc/../font/../misc/lv_area.h ****     LV_DIR_BOTTOM   = (1 << 3),
  84:Drivers/lvgl/src/widgets/../core/../misc/../font/../misc/lv_area.h ****     LV_DIR_HOR      = LV_DIR_LEFT | LV_DIR_RIGHT,
  85:Drivers/lvgl/src/widgets/../core/../misc/../font/../misc/lv_area.h ****     LV_DIR_VER      = LV_DIR_TOP | LV_DIR_BOTTOM,
  86:Drivers/lvgl/src/widgets/../core/../misc/../font/../misc/lv_area.h ****     LV_DIR_ALL      = LV_DIR_HOR | LV_DIR_VER,
  87:Drivers/lvgl/src/widgets/../core/../misc/../font/../misc/lv_area.h **** };
  88:Drivers/lvgl/src/widgets/../core/../misc/../font/../misc/lv_area.h **** 
  89:Drivers/lvgl/src/widgets/../core/../misc/../font/../misc/lv_area.h **** typedef uint8_t lv_dir_t;
  90:Drivers/lvgl/src/widgets/../core/../misc/../font/../misc/lv_area.h **** 
  91:Drivers/lvgl/src/widgets/../core/../misc/../font/../misc/lv_area.h **** /**********************
  92:Drivers/lvgl/src/widgets/../core/../misc/../font/../misc/lv_area.h ****  * GLOBAL PROTOTYPES
ARM GAS  /var/folders/lp/x54gwt890xv47sdkqj1k04q40000gn/T//ccDzkxjV.s 			page 34


  93:Drivers/lvgl/src/widgets/../core/../misc/../font/../misc/lv_area.h ****  **********************/
  94:Drivers/lvgl/src/widgets/../core/../misc/../font/../misc/lv_area.h **** 
  95:Drivers/lvgl/src/widgets/../core/../misc/../font/../misc/lv_area.h **** /**
  96:Drivers/lvgl/src/widgets/../core/../misc/../font/../misc/lv_area.h ****  * Initialize an area
  97:Drivers/lvgl/src/widgets/../core/../misc/../font/../misc/lv_area.h ****  * @param area_p pointer to an area
  98:Drivers/lvgl/src/widgets/../core/../misc/../font/../misc/lv_area.h ****  * @param x1 left coordinate of the area
  99:Drivers/lvgl/src/widgets/../core/../misc/../font/../misc/lv_area.h ****  * @param y1 top coordinate of the area
 100:Drivers/lvgl/src/widgets/../core/../misc/../font/../misc/lv_area.h ****  * @param x2 right coordinate of the area
 101:Drivers/lvgl/src/widgets/../core/../misc/../font/../misc/lv_area.h ****  * @param y2 bottom coordinate of the area
 102:Drivers/lvgl/src/widgets/../core/../misc/../font/../misc/lv_area.h ****  */
 103:Drivers/lvgl/src/widgets/../core/../misc/../font/../misc/lv_area.h **** void lv_area_set(lv_area_t * area_p, lv_coord_t x1, lv_coord_t y1, lv_coord_t x2, lv_coord_t y2);
 104:Drivers/lvgl/src/widgets/../core/../misc/../font/../misc/lv_area.h **** 
 105:Drivers/lvgl/src/widgets/../core/../misc/../font/../misc/lv_area.h **** /**
 106:Drivers/lvgl/src/widgets/../core/../misc/../font/../misc/lv_area.h ****  * Copy an area
 107:Drivers/lvgl/src/widgets/../core/../misc/../font/../misc/lv_area.h ****  * @param dest pointer to the destination area
 108:Drivers/lvgl/src/widgets/../core/../misc/../font/../misc/lv_area.h ****  * @param src pointer to the source area
 109:Drivers/lvgl/src/widgets/../core/../misc/../font/../misc/lv_area.h ****  */
 110:Drivers/lvgl/src/widgets/../core/../misc/../font/../misc/lv_area.h **** inline static void lv_area_copy(lv_area_t * dest, const lv_area_t * src)
 489              		.loc 4 110 20 view .LVU151
 490              	.LBB92:
 111:Drivers/lvgl/src/widgets/../core/../misc/../font/../misc/lv_area.h **** {
 112:Drivers/lvgl/src/widgets/../core/../misc/../font/../misc/lv_area.h ****     dest->x1 = src->x1;
 491              		.loc 4 112 5 view .LVU152
 492              		.loc 4 112 19 is_stmt 0 view .LVU153
 493 0084 BDF9B830 		ldrsh	r3, [sp, #184]
 494              		.loc 4 112 14 view .LVU154
 495 0088 A4F86830 		strh	r3, [r4, #104]	@ movhi
 113:Drivers/lvgl/src/widgets/../core/../misc/../font/../misc/lv_area.h ****     dest->y1 = src->y1;
 496              		.loc 4 113 5 is_stmt 1 view .LVU155
 497              		.loc 4 113 19 is_stmt 0 view .LVU156
 498 008c BDF9BA30 		ldrsh	r3, [sp, #186]
 499              		.loc 4 113 14 view .LVU157
 500 0090 A4F86A30 		strh	r3, [r4, #106]	@ movhi
 114:Drivers/lvgl/src/widgets/../core/../misc/../font/../misc/lv_area.h ****     dest->x2 = src->x2;
 501              		.loc 4 114 5 is_stmt 1 view .LVU158
 502              		.loc 4 114 19 is_stmt 0 view .LVU159
 503 0094 BDF9BC30 		ldrsh	r3, [sp, #188]
 504              		.loc 4 114 14 view .LVU160
 505 0098 A4F86C30 		strh	r3, [r4, #108]	@ movhi
 115:Drivers/lvgl/src/widgets/../core/../misc/../font/../misc/lv_area.h ****     dest->y2 = src->y2;
 506              		.loc 4 115 5 is_stmt 1 view .LVU161
 507              		.loc 4 115 19 is_stmt 0 view .LVU162
 508 009c BDF9BE30 		ldrsh	r3, [sp, #190]
 509              		.loc 4 115 14 view .LVU163
 510 00a0 A4F86E30 		strh	r3, [r4, #110]	@ movhi
 511              	.LVL45:
 512              		.loc 4 115 14 view .LVU164
 513              	.LBE92:
 514              	.LBE91:
 366:Drivers/lvgl/src/widgets/lv_slider.c ****     lv_obj_draw_dsc_init(&part_draw_dsc, draw_ctx);
 515              		.loc 1 366 5 is_stmt 1 view .LVU165
 367:Drivers/lvgl/src/widgets/lv_slider.c ****     part_draw_dsc.part = LV_PART_KNOB;
 516              		.loc 1 367 5 view .LVU166
 517 00a4 3146     		mov	r1, r6
 518 00a6 0EA8     		add	r0, sp, #56
 519 00a8 FFF7FEFF 		bl	lv_obj_draw_dsc_init
 520              	.LVL46:
ARM GAS  /var/folders/lp/x54gwt890xv47sdkqj1k04q40000gn/T//ccDzkxjV.s 			page 35


 368:Drivers/lvgl/src/widgets/lv_slider.c ****     part_draw_dsc.class_p = MY_CLASS;
 521              		.loc 1 368 5 view .LVU167
 368:Drivers/lvgl/src/widgets/lv_slider.c ****     part_draw_dsc.class_p = MY_CLASS;
 522              		.loc 1 368 24 is_stmt 0 view .LVU168
 523 00ac 4FF44033 		mov	r3, #196608
 524 00b0 1B93     		str	r3, [sp, #108]
 369:Drivers/lvgl/src/widgets/lv_slider.c ****     part_draw_dsc.type = LV_SLIDER_DRAW_PART_KNOB;
 525              		.loc 1 369 5 is_stmt 1 view .LVU169
 369:Drivers/lvgl/src/widgets/lv_slider.c ****     part_draw_dsc.type = LV_SLIDER_DRAW_PART_KNOB;
 526              		.loc 1 369 27 is_stmt 0 view .LVU170
 527 00b2 524B     		ldr	r3, .L35
 528 00b4 0F93     		str	r3, [sp, #60]
 370:Drivers/lvgl/src/widgets/lv_slider.c ****     part_draw_dsc.id = 0;
 529              		.loc 1 370 5 is_stmt 1 view .LVU171
 370:Drivers/lvgl/src/widgets/lv_slider.c ****     part_draw_dsc.id = 0;
 530              		.loc 1 370 24 is_stmt 0 view .LVU172
 531 00b6 0023     		movs	r3, #0
 532 00b8 1093     		str	r3, [sp, #64]
 371:Drivers/lvgl/src/widgets/lv_slider.c ****     part_draw_dsc.draw_area = &slider->right_knob_area;
 533              		.loc 1 371 5 is_stmt 1 view .LVU173
 371:Drivers/lvgl/src/widgets/lv_slider.c ****     part_draw_dsc.draw_area = &slider->right_knob_area;
 534              		.loc 1 371 22 is_stmt 0 view .LVU174
 535 00ba 1C93     		str	r3, [sp, #112]
 372:Drivers/lvgl/src/widgets/lv_slider.c ****     part_draw_dsc.rect_dsc = &knob_rect_dsc;
 536              		.loc 1 372 5 is_stmt 1 view .LVU175
 372:Drivers/lvgl/src/widgets/lv_slider.c ****     part_draw_dsc.rect_dsc = &knob_rect_dsc;
 537              		.loc 1 372 31 is_stmt 0 view .LVU176
 538 00bc 04F1680A 		add	r10, r4, #104
 372:Drivers/lvgl/src/widgets/lv_slider.c ****     part_draw_dsc.rect_dsc = &knob_rect_dsc;
 539              		.loc 1 372 29 view .LVU177
 540 00c0 CDF844A0 		str	r10, [sp, #68]
 373:Drivers/lvgl/src/widgets/lv_slider.c **** 
 541              		.loc 1 373 5 is_stmt 1 view .LVU178
 373:Drivers/lvgl/src/widgets/lv_slider.c **** 
 542              		.loc 1 373 28 is_stmt 0 view .LVU179
 543 00c4 CDF84880 		str	r8, [sp, #72]
 375:Drivers/lvgl/src/widgets/lv_slider.c ****         lv_event_send(obj, LV_EVENT_DRAW_PART_BEGIN, &part_draw_dsc);
 544              		.loc 1 375 5 is_stmt 1 view .LVU180
 375:Drivers/lvgl/src/widgets/lv_slider.c ****         lv_event_send(obj, LV_EVENT_DRAW_PART_BEGIN, &part_draw_dsc);
 545              		.loc 1 375 8 is_stmt 0 view .LVU181
 546 00c8 2046     		mov	r0, r4
 547 00ca FFF7FEFF 		bl	lv_slider_get_mode
 548              	.LVL47:
 375:Drivers/lvgl/src/widgets/lv_slider.c ****         lv_event_send(obj, LV_EVENT_DRAW_PART_BEGIN, &part_draw_dsc);
 549              		.loc 1 375 7 discriminator 1 view .LVU182
 550 00ce 0228     		cmp	r0, #2
 551 00d0 3CD0     		beq	.L19
 376:Drivers/lvgl/src/widgets/lv_slider.c ****         lv_draw_rect(draw_ctx, &knob_rect_dsc, &slider->right_knob_area);
 552              		.loc 1 376 9 is_stmt 1 view .LVU183
 553 00d2 0EAA     		add	r2, sp, #56
 554 00d4 1A21     		movs	r1, #26
 555 00d6 2046     		mov	r0, r4
 556 00d8 FFF7FEFF 		bl	lv_event_send
 557              	.LVL48:
 377:Drivers/lvgl/src/widgets/lv_slider.c ****         lv_event_send(obj, LV_EVENT_DRAW_PART_END, &part_draw_dsc);
 558              		.loc 1 377 9 view .LVU184
 559 00dc 5246     		mov	r2, r10
ARM GAS  /var/folders/lp/x54gwt890xv47sdkqj1k04q40000gn/T//ccDzkxjV.s 			page 36


 560 00de 4146     		mov	r1, r8
 561 00e0 3046     		mov	r0, r6
 562 00e2 FFF7FEFF 		bl	lv_draw_rect
 563              	.LVL49:
 378:Drivers/lvgl/src/widgets/lv_slider.c ****     }
 564              		.loc 1 378 9 view .LVU185
 565 00e6 0EAA     		add	r2, sp, #56
 566 00e8 1B21     		movs	r1, #27
 567 00ea 2046     		mov	r0, r4
 568 00ec FFF7FEFF 		bl	lv_event_send
 569              	.LVL50:
 570              	.L11:
 410:Drivers/lvgl/src/widgets/lv_slider.c **** 
 571              		.loc 1 410 1 is_stmt 0 view .LVU186
 572 00f0 30B0     		add	sp, sp, #192
 573              		.cfi_remember_state
 574              		.cfi_def_cfa_offset 32
 575              		@ sp needed
 576 00f2 BDE8F087 		pop	{r4, r5, r6, r7, r8, r9, r10, pc}
 577              	.LVL51:
 578              	.L29:
 579              		.cfi_restore_state
 344:Drivers/lvgl/src/widgets/lv_slider.c ****        slider->bar.max_value > 0) is_symmetrical = true;
 580              		.loc 1 344 66 discriminator 1 view .LVU187
 581 00f6 A36A     		ldr	r3, [r4, #40]
 344:Drivers/lvgl/src/widgets/lv_slider.c ****        slider->bar.max_value > 0) is_symmetrical = true;
 582              		.loc 1 344 52 discriminator 1 view .LVU188
 583 00f8 002B     		cmp	r3, #0
 584 00fa 02DB     		blt	.L32
 343:Drivers/lvgl/src/widgets/lv_slider.c ****     if(slider->bar.mode == LV_BAR_MODE_SYMMETRICAL && slider->bar.min_value < 0 &&
 585              		.loc 1 343 10 view .LVU189
 586 00fc 4FF00008 		mov	r8, #0
 587 0100 9CE7     		b	.L12
 588              	.L32:
 345:Drivers/lvgl/src/widgets/lv_slider.c **** 
 589              		.loc 1 345 19 view .LVU190
 590 0102 E36A     		ldr	r3, [r4, #44]
 344:Drivers/lvgl/src/widgets/lv_slider.c ****        slider->bar.max_value > 0) is_symmetrical = true;
 591              		.loc 1 344 81 discriminator 2 view .LVU191
 592 0104 002B     		cmp	r3, #0
 593 0106 02DD     		ble	.L33
 345:Drivers/lvgl/src/widgets/lv_slider.c **** 
 594              		.loc 1 345 50 view .LVU192
 595 0108 4FF00108 		mov	r8, #1
 596 010c 96E7     		b	.L12
 597              	.L33:
 343:Drivers/lvgl/src/widgets/lv_slider.c ****     if(slider->bar.mode == LV_BAR_MODE_SYMMETRICAL && slider->bar.min_value < 0 &&
 598              		.loc 1 343 10 view .LVU193
 599 010e 4FF00008 		mov	r8, #0
 600 0112 93E7     		b	.L12
 601              	.LVL52:
 602              	.L30:
 349:Drivers/lvgl/src/widgets/lv_slider.c ****         else knob_area.x1 = LV_SLIDER_KNOB_COORD(is_rtl, slider->bar.indic_area);
 603              		.loc 1 349 57 is_stmt 1 discriminator 2 view .LVU194
 349:Drivers/lvgl/src/widgets/lv_slider.c ****         else knob_area.x1 = LV_SLIDER_KNOB_COORD(is_rtl, slider->bar.indic_area);
 604              		.loc 1 349 94 is_stmt 0 discriminator 2 view .LVU195
 605 0114 B4F93430 		ldrsh	r3, [r4, #52]
ARM GAS  /var/folders/lp/x54gwt890xv47sdkqj1k04q40000gn/T//ccDzkxjV.s 			page 37


 349:Drivers/lvgl/src/widgets/lv_slider.c ****         else knob_area.x1 = LV_SLIDER_KNOB_COORD(is_rtl, slider->bar.indic_area);
 606              		.loc 1 349 70 discriminator 2 view .LVU196
 607 0118 ADF8B830 		strh	r3, [sp, #184]	@ movhi
 349:Drivers/lvgl/src/widgets/lv_slider.c ****         else knob_area.x1 = LV_SLIDER_KNOB_COORD(is_rtl, slider->bar.indic_area);
 608              		.loc 1 349 70 view .LVU197
 609 011c A1E7     		b	.L15
 610              	.L31:
 350:Drivers/lvgl/src/widgets/lv_slider.c ****     }
 611              		.loc 1 350 27 discriminator 1 view .LVU198
 612 011e B4F93430 		ldrsh	r3, [r4, #52]
 613 0122 9CE7     		b	.L17
 614              	.LVL53:
 615              	.L13:
 353:Drivers/lvgl/src/widgets/lv_slider.c ****         if(is_symmetrical && slider->bar.cur_value < 0) knob_area.y1 = slider->bar.indic_area.y2;
 616              		.loc 1 353 9 is_stmt 1 view .LVU199
 353:Drivers/lvgl/src/widgets/lv_slider.c ****         if(is_symmetrical && slider->bar.cur_value < 0) knob_area.y1 = slider->bar.indic_area.y2;
 617              		.loc 1 353 21 is_stmt 0 view .LVU200
 618 0124 2046     		mov	r0, r4
 619 0126 FFF7FEFF 		bl	lv_obj_get_width
 620              	.LVL54:
 621 012a 0746     		mov	r7, r0
 622              	.LVL55:
 354:Drivers/lvgl/src/widgets/lv_slider.c ****         else knob_area.y1 = slider->bar.indic_area.y1;
 623              		.loc 1 354 9 is_stmt 1 view .LVU201
 354:Drivers/lvgl/src/widgets/lv_slider.c ****         else knob_area.y1 = slider->bar.indic_area.y1;
 624              		.loc 1 354 11 is_stmt 0 view .LVU202
 625 012c B8F1000F 		cmp	r8, #0
 626 0130 02D0     		beq	.L18
 354:Drivers/lvgl/src/widgets/lv_slider.c ****         else knob_area.y1 = slider->bar.indic_area.y1;
 627              		.loc 1 354 41 discriminator 1 view .LVU203
 628 0132 636A     		ldr	r3, [r4, #36]
 354:Drivers/lvgl/src/widgets/lv_slider.c ****         else knob_area.y1 = slider->bar.indic_area.y1;
 629              		.loc 1 354 27 discriminator 1 view .LVU204
 630 0134 002B     		cmp	r3, #0
 631 0136 04DB     		blt	.L34
 632              	.L18:
 355:Drivers/lvgl/src/widgets/lv_slider.c ****     }
 633              		.loc 1 355 14 is_stmt 1 view .LVU205
 355:Drivers/lvgl/src/widgets/lv_slider.c ****     }
 634              		.loc 1 355 51 is_stmt 0 view .LVU206
 635 0138 B4F93630 		ldrsh	r3, [r4, #54]
 355:Drivers/lvgl/src/widgets/lv_slider.c ****     }
 636              		.loc 1 355 27 view .LVU207
 637 013c ADF8BA30 		strh	r3, [sp, #186]	@ movhi
 638 0140 8FE7     		b	.L15
 639              	.L34:
 354:Drivers/lvgl/src/widgets/lv_slider.c ****         else knob_area.y1 = slider->bar.indic_area.y1;
 640              		.loc 1 354 57 is_stmt 1 discriminator 2 view .LVU208
 354:Drivers/lvgl/src/widgets/lv_slider.c ****         else knob_area.y1 = slider->bar.indic_area.y1;
 641              		.loc 1 354 94 is_stmt 0 discriminator 2 view .LVU209
 642 0142 B4F93A30 		ldrsh	r3, [r4, #58]
 354:Drivers/lvgl/src/widgets/lv_slider.c ****         else knob_area.y1 = slider->bar.indic_area.y1;
 643              		.loc 1 354 70 discriminator 2 view .LVU210
 644 0146 ADF8BA30 		strh	r3, [sp, #186]	@ movhi
 354:Drivers/lvgl/src/widgets/lv_slider.c ****         else knob_area.y1 = slider->bar.indic_area.y1;
 645              		.loc 1 354 70 view .LVU211
 646 014a 8AE7     		b	.L15
ARM GAS  /var/folders/lp/x54gwt890xv47sdkqj1k04q40000gn/T//ccDzkxjV.s 			page 38


 647              	.LVL56:
 648              	.L19:
 649              	.LBB93:
 382:Drivers/lvgl/src/widgets/lv_slider.c ****         lv_memcpy(&knob_rect_dsc_tmp, &knob_rect_dsc, sizeof(lv_draw_rect_dsc_t));
 650              		.loc 1 382 9 is_stmt 1 view .LVU212
 383:Drivers/lvgl/src/widgets/lv_slider.c ****         /* Draw the right knob */
 651              		.loc 1 383 9 view .LVU213
 652 014c 3822     		movs	r2, #56
 653 014e 20A9     		add	r1, sp, #128
 654 0150 6846     		mov	r0, sp
 655 0152 FFF7FEFF 		bl	lv_memcpy
 656              	.LVL57:
 385:Drivers/lvgl/src/widgets/lv_slider.c ****         lv_draw_rect(draw_ctx, &knob_rect_dsc, &slider->right_knob_area);
 657              		.loc 1 385 9 view .LVU214
 658 0156 0EAA     		add	r2, sp, #56
 659 0158 1A21     		movs	r1, #26
 660 015a 2046     		mov	r0, r4
 661 015c FFF7FEFF 		bl	lv_event_send
 662              	.LVL58:
 386:Drivers/lvgl/src/widgets/lv_slider.c ****         lv_event_send(obj, LV_EVENT_DRAW_PART_END, &part_draw_dsc);
 663              		.loc 1 386 9 view .LVU215
 664 0160 5246     		mov	r2, r10
 665 0162 20A9     		add	r1, sp, #128
 666 0164 3046     		mov	r0, r6
 667 0166 FFF7FEFF 		bl	lv_draw_rect
 668              	.LVL59:
 387:Drivers/lvgl/src/widgets/lv_slider.c **** 
 669              		.loc 1 387 9 view .LVU216
 670 016a 0EAA     		add	r2, sp, #56
 671 016c 1B21     		movs	r1, #27
 672 016e 2046     		mov	r0, r4
 673 0170 FFF7FEFF 		bl	lv_event_send
 674              	.LVL60:
 390:Drivers/lvgl/src/widgets/lv_slider.c ****             /*use !is_rtl to get the other knob*/
 675              		.loc 1 390 9 view .LVU217
 390:Drivers/lvgl/src/widgets/lv_slider.c ****             /*use !is_rtl to get the other knob*/
 676              		.loc 1 390 11 is_stmt 0 view .LVU218
 677 0174 002D     		cmp	r5, #0
 678 0176 3CD0     		beq	.L21
 392:Drivers/lvgl/src/widgets/lv_slider.c ****         }
 679              		.loc 1 392 13 is_stmt 1 view .LVU219
 392:Drivers/lvgl/src/widgets/lv_slider.c ****         }
 680              		.loc 1 392 26 is_stmt 0 view .LVU220
 681 0178 B9F1010F 		cmp	r9, #1
 682 017c 36D0     		beq	.L22
 392:Drivers/lvgl/src/widgets/lv_slider.c ****         }
 683              		.loc 1 392 26 discriminator 1 view .LVU221
 684 017e B4F93430 		ldrsh	r3, [r4, #52]
 685              	.L23:
 392:Drivers/lvgl/src/widgets/lv_slider.c ****         }
 686              		.loc 1 392 26 discriminator 4 view .LVU222
 687 0182 ADF8B830 		strh	r3, [sp, #184]	@ movhi
 688              	.L24:
 397:Drivers/lvgl/src/widgets/lv_slider.c ****         lv_area_copy(&slider->left_knob_area, &knob_area);
 689              		.loc 1 397 9 is_stmt 1 view .LVU223
 690 0186 2B46     		mov	r3, r5
 691 0188 3A46     		mov	r2, r7
ARM GAS  /var/folders/lp/x54gwt890xv47sdkqj1k04q40000gn/T//ccDzkxjV.s 			page 39


 692 018a 2EA9     		add	r1, sp, #184
 693 018c 2046     		mov	r0, r4
 694 018e FFF7FEFF 		bl	position_knob
 695              	.LVL61:
 398:Drivers/lvgl/src/widgets/lv_slider.c **** 
 696              		.loc 1 398 9 view .LVU224
 697              	.LBB94:
 698              	.LBI94:
 110:Drivers/lvgl/src/widgets/../core/../misc/../font/../misc/lv_area.h **** {
 699              		.loc 4 110 20 view .LVU225
 700              	.LBB95:
 112:Drivers/lvgl/src/widgets/../core/../misc/../font/../misc/lv_area.h ****     dest->y1 = src->y1;
 701              		.loc 4 112 5 view .LVU226
 112:Drivers/lvgl/src/widgets/../core/../misc/../font/../misc/lv_area.h ****     dest->y1 = src->y1;
 702              		.loc 4 112 19 is_stmt 0 view .LVU227
 703 0192 BDF9B830 		ldrsh	r3, [sp, #184]
 112:Drivers/lvgl/src/widgets/../core/../misc/../font/../misc/lv_area.h ****     dest->y1 = src->y1;
 704              		.loc 4 112 14 view .LVU228
 705 0196 A4F86030 		strh	r3, [r4, #96]	@ movhi
 113:Drivers/lvgl/src/widgets/../core/../misc/../font/../misc/lv_area.h ****     dest->x2 = src->x2;
 706              		.loc 4 113 5 is_stmt 1 view .LVU229
 113:Drivers/lvgl/src/widgets/../core/../misc/../font/../misc/lv_area.h ****     dest->x2 = src->x2;
 707              		.loc 4 113 19 is_stmt 0 view .LVU230
 708 019a BDF9BA30 		ldrsh	r3, [sp, #186]
 113:Drivers/lvgl/src/widgets/../core/../misc/../font/../misc/lv_area.h ****     dest->x2 = src->x2;
 709              		.loc 4 113 14 view .LVU231
 710 019e A4F86230 		strh	r3, [r4, #98]	@ movhi
 114:Drivers/lvgl/src/widgets/../core/../misc/../font/../misc/lv_area.h ****     dest->y2 = src->y2;
 711              		.loc 4 114 5 is_stmt 1 view .LVU232
 114:Drivers/lvgl/src/widgets/../core/../misc/../font/../misc/lv_area.h ****     dest->y2 = src->y2;
 712              		.loc 4 114 19 is_stmt 0 view .LVU233
 713 01a2 BDF9BC30 		ldrsh	r3, [sp, #188]
 114:Drivers/lvgl/src/widgets/../core/../misc/../font/../misc/lv_area.h ****     dest->y2 = src->y2;
 714              		.loc 4 114 14 view .LVU234
 715 01a6 A4F86430 		strh	r3, [r4, #100]	@ movhi
 716              		.loc 4 115 5 is_stmt 1 view .LVU235
 717              		.loc 4 115 19 is_stmt 0 view .LVU236
 718 01aa BDF9BE30 		ldrsh	r3, [sp, #190]
 719              		.loc 4 115 14 view .LVU237
 720 01ae A4F86630 		strh	r3, [r4, #102]	@ movhi
 721              	.LVL62:
 722              		.loc 4 115 14 view .LVU238
 723              	.LBE95:
 724              	.LBE94:
 400:Drivers/lvgl/src/widgets/lv_slider.c ****         part_draw_dsc.type = LV_SLIDER_DRAW_PART_KNOB_LEFT;
 725              		.loc 1 400 9 is_stmt 1 view .LVU239
 726 01b2 20AD     		add	r5, sp, #128
 727              	.LVL63:
 400:Drivers/lvgl/src/widgets/lv_slider.c ****         part_draw_dsc.type = LV_SLIDER_DRAW_PART_KNOB_LEFT;
 728              		.loc 1 400 9 is_stmt 0 view .LVU240
 729 01b4 3822     		movs	r2, #56
 730 01b6 6946     		mov	r1, sp
 731 01b8 2846     		mov	r0, r5
 732 01ba FFF7FEFF 		bl	lv_memcpy
 733              	.LVL64:
 401:Drivers/lvgl/src/widgets/lv_slider.c ****         part_draw_dsc.draw_area = &slider->left_knob_area;
 734              		.loc 1 401 9 is_stmt 1 view .LVU241
ARM GAS  /var/folders/lp/x54gwt890xv47sdkqj1k04q40000gn/T//ccDzkxjV.s 			page 40


 401:Drivers/lvgl/src/widgets/lv_slider.c ****         part_draw_dsc.draw_area = &slider->left_knob_area;
 735              		.loc 1 401 28 is_stmt 0 view .LVU242
 736 01be 0123     		movs	r3, #1
 737 01c0 1093     		str	r3, [sp, #64]
 402:Drivers/lvgl/src/widgets/lv_slider.c ****         part_draw_dsc.rect_dsc = &knob_rect_dsc;
 738              		.loc 1 402 9 is_stmt 1 view .LVU243
 402:Drivers/lvgl/src/widgets/lv_slider.c ****         part_draw_dsc.rect_dsc = &knob_rect_dsc;
 739              		.loc 1 402 35 is_stmt 0 view .LVU244
 740 01c2 04F16007 		add	r7, r4, #96
 741              	.LVL65:
 402:Drivers/lvgl/src/widgets/lv_slider.c ****         part_draw_dsc.rect_dsc = &knob_rect_dsc;
 742              		.loc 1 402 33 view .LVU245
 743 01c6 1197     		str	r7, [sp, #68]
 403:Drivers/lvgl/src/widgets/lv_slider.c ****         part_draw_dsc.id = 1;
 744              		.loc 1 403 9 is_stmt 1 view .LVU246
 403:Drivers/lvgl/src/widgets/lv_slider.c ****         part_draw_dsc.id = 1;
 745              		.loc 1 403 32 is_stmt 0 view .LVU247
 746 01c8 1295     		str	r5, [sp, #72]
 404:Drivers/lvgl/src/widgets/lv_slider.c **** 
 747              		.loc 1 404 9 is_stmt 1 view .LVU248
 404:Drivers/lvgl/src/widgets/lv_slider.c **** 
 748              		.loc 1 404 26 is_stmt 0 view .LVU249
 749 01ca 1C93     		str	r3, [sp, #112]
 406:Drivers/lvgl/src/widgets/lv_slider.c ****         lv_draw_rect(draw_ctx, &knob_rect_dsc, &slider->left_knob_area);
 750              		.loc 1 406 9 is_stmt 1 view .LVU250
 751 01cc 0EAA     		add	r2, sp, #56
 752 01ce 1A21     		movs	r1, #26
 753 01d0 2046     		mov	r0, r4
 754 01d2 FFF7FEFF 		bl	lv_event_send
 755              	.LVL66:
 407:Drivers/lvgl/src/widgets/lv_slider.c ****         lv_event_send(obj, LV_EVENT_DRAW_PART_END, &part_draw_dsc);
 756              		.loc 1 407 9 view .LVU251
 757 01d6 3A46     		mov	r2, r7
 758 01d8 2946     		mov	r1, r5
 759 01da 3046     		mov	r0, r6
 760 01dc FFF7FEFF 		bl	lv_draw_rect
 761              	.LVL67:
 408:Drivers/lvgl/src/widgets/lv_slider.c ****     }
 762              		.loc 1 408 9 view .LVU252
 763 01e0 0EAA     		add	r2, sp, #56
 764 01e2 1B21     		movs	r1, #27
 765 01e4 2046     		mov	r0, r4
 766 01e6 FFF7FEFF 		bl	lv_event_send
 767              	.LVL68:
 768              	.LBE93:
 410:Drivers/lvgl/src/widgets/lv_slider.c **** 
 769              		.loc 1 410 1 is_stmt 0 view .LVU253
 770 01ea 81E7     		b	.L11
 771              	.LVL69:
 772              	.L22:
 773              	.LBB96:
 392:Drivers/lvgl/src/widgets/lv_slider.c ****         }
 774              		.loc 1 392 26 discriminator 2 view .LVU254
 775 01ec B4F93830 		ldrsh	r3, [r4, #56]
 776 01f0 C7E7     		b	.L23
 777              	.L21:
 395:Drivers/lvgl/src/widgets/lv_slider.c ****         }
ARM GAS  /var/folders/lp/x54gwt890xv47sdkqj1k04q40000gn/T//ccDzkxjV.s 			page 41


 778              		.loc 1 395 13 is_stmt 1 view .LVU255
 395:Drivers/lvgl/src/widgets/lv_slider.c ****         }
 779              		.loc 1 395 50 is_stmt 0 view .LVU256
 780 01f2 B4F93A30 		ldrsh	r3, [r4, #58]
 395:Drivers/lvgl/src/widgets/lv_slider.c ****         }
 781              		.loc 1 395 26 view .LVU257
 782 01f6 ADF8BA30 		strh	r3, [sp, #186]	@ movhi
 783 01fa C4E7     		b	.L24
 784              	.L36:
 785              		.align	2
 786              	.L35:
 787 01fc 00000000 		.word	lv_slider_class
 788              	.LBE96:
 789              		.cfi_endproc
 790              	.LFE180:
 792              		.section	.text.lv_slider_event,"ax",%progbits
 793              		.align	1
 794              		.syntax unified
 795              		.thumb
 796              		.thumb_func
 798              	lv_slider_event:
 799              	.LVL70:
 800              	.LFB179:
  96:Drivers/lvgl/src/widgets/lv_slider.c ****     LV_UNUSED(class_p);
 801              		.loc 1 96 1 is_stmt 1 view -0
 802              		.cfi_startproc
 803              		@ args = 0, pretend = 0, frame = 24
 804              		@ frame_needed = 0, uses_anonymous_args = 0
  96:Drivers/lvgl/src/widgets/lv_slider.c ****     LV_UNUSED(class_p);
 805              		.loc 1 96 1 is_stmt 0 view .LVU259
 806 0000 2DE9F04F 		push	{r4, r5, r6, r7, r8, r9, r10, fp, lr}
 807              		.cfi_def_cfa_offset 36
 808              		.cfi_offset 4, -36
 809              		.cfi_offset 5, -32
 810              		.cfi_offset 6, -28
 811              		.cfi_offset 7, -24
 812              		.cfi_offset 8, -20
 813              		.cfi_offset 9, -16
 814              		.cfi_offset 10, -12
 815              		.cfi_offset 11, -8
 816              		.cfi_offset 14, -4
 817 0004 87B0     		sub	sp, sp, #28
 818              		.cfi_def_cfa_offset 64
 819 0006 0C46     		mov	r4, r1
  97:Drivers/lvgl/src/widgets/lv_slider.c **** 
 820              		.loc 1 97 5 is_stmt 1 view .LVU260
  99:Drivers/lvgl/src/widgets/lv_slider.c **** 
 821              		.loc 1 99 5 view .LVU261
 102:Drivers/lvgl/src/widgets/lv_slider.c ****     if(res != LV_RES_OK) return;
 822              		.loc 1 102 5 view .LVU262
 102:Drivers/lvgl/src/widgets/lv_slider.c ****     if(res != LV_RES_OK) return;
 823              		.loc 1 102 11 is_stmt 0 view .LVU263
 824 0008 BC48     		ldr	r0, .L98
 825              	.LVL71:
 102:Drivers/lvgl/src/widgets/lv_slider.c ****     if(res != LV_RES_OK) return;
 826              		.loc 1 102 11 view .LVU264
 827 000a FFF7FEFF 		bl	lv_obj_event_base
ARM GAS  /var/folders/lp/x54gwt890xv47sdkqj1k04q40000gn/T//ccDzkxjV.s 			page 42


 828              	.LVL72:
 103:Drivers/lvgl/src/widgets/lv_slider.c **** 
 829              		.loc 1 103 5 is_stmt 1 view .LVU265
 103:Drivers/lvgl/src/widgets/lv_slider.c **** 
 830              		.loc 1 103 7 is_stmt 0 view .LVU266
 831 000e 0128     		cmp	r0, #1
 832 0010 02D0     		beq	.L90
 833              	.LVL73:
 834              	.L37:
 330:Drivers/lvgl/src/widgets/lv_slider.c **** 
 835              		.loc 1 330 1 view .LVU267
 836 0012 07B0     		add	sp, sp, #28
 837              		.cfi_remember_state
 838              		.cfi_def_cfa_offset 36
 839              		@ sp needed
 840 0014 BDE8F08F 		pop	{r4, r5, r6, r7, r8, r9, r10, fp, pc}
 841              	.LVL74:
 842              	.L90:
 843              		.cfi_restore_state
 105:Drivers/lvgl/src/widgets/lv_slider.c ****     lv_obj_t * obj = lv_event_get_target(e);
 844              		.loc 1 105 5 is_stmt 1 view .LVU268
 105:Drivers/lvgl/src/widgets/lv_slider.c ****     lv_obj_t * obj = lv_event_get_target(e);
 845              		.loc 1 105 28 is_stmt 0 view .LVU269
 846 0018 2046     		mov	r0, r4
 847              	.LVL75:
 105:Drivers/lvgl/src/widgets/lv_slider.c ****     lv_obj_t * obj = lv_event_get_target(e);
 848              		.loc 1 105 28 view .LVU270
 849 001a FFF7FEFF 		bl	lv_event_get_code
 850              	.LVL76:
 851 001e 0646     		mov	r6, r0
 852              	.LVL77:
 106:Drivers/lvgl/src/widgets/lv_slider.c ****     lv_slider_t * slider = (lv_slider_t *)obj;
 853              		.loc 1 106 5 is_stmt 1 view .LVU271
 106:Drivers/lvgl/src/widgets/lv_slider.c ****     lv_slider_t * slider = (lv_slider_t *)obj;
 854              		.loc 1 106 22 is_stmt 0 view .LVU272
 855 0020 2046     		mov	r0, r4
 856 0022 FFF7FEFF 		bl	lv_event_get_target
 857              	.LVL78:
 858 0026 0546     		mov	r5, r0
 859              	.LVL79:
 107:Drivers/lvgl/src/widgets/lv_slider.c ****     lv_slider_mode_t type = lv_slider_get_mode(obj);
 860              		.loc 1 107 5 is_stmt 1 view .LVU273
 108:Drivers/lvgl/src/widgets/lv_slider.c **** 
 861              		.loc 1 108 5 view .LVU274
 108:Drivers/lvgl/src/widgets/lv_slider.c **** 
 862              		.loc 1 108 29 is_stmt 0 view .LVU275
 863 0028 FFF7FEFF 		bl	lv_slider_get_mode
 864              	.LVL80:
 108:Drivers/lvgl/src/widgets/lv_slider.c **** 
 865              		.loc 1 108 29 view .LVU276
 866 002c 0746     		mov	r7, r0
 867              	.LVL81:
 111:Drivers/lvgl/src/widgets/lv_slider.c ****         lv_hit_test_info_t * info = lv_event_get_param(e);
 868              		.loc 1 111 5 is_stmt 1 view .LVU277
 111:Drivers/lvgl/src/widgets/lv_slider.c ****         lv_hit_test_info_t * info = lv_event_get_param(e);
 869              		.loc 1 111 7 is_stmt 0 view .LVU278
 870 002e 112E     		cmp	r6, #17
ARM GAS  /var/folders/lp/x54gwt890xv47sdkqj1k04q40000gn/T//ccDzkxjV.s 			page 43


 871 0030 5AD0     		beq	.L91
 128:Drivers/lvgl/src/widgets/lv_slider.c ****         lv_obj_invalidate(obj);
 872              		.loc 1 128 10 is_stmt 1 view .LVU279
 128:Drivers/lvgl/src/widgets/lv_slider.c ****         lv_obj_invalidate(obj);
 873              		.loc 1 128 12 is_stmt 0 view .LVU280
 874 0032 012E     		cmp	r6, #1
 875 0034 00F0A080 		beq	.L92
 192:Drivers/lvgl/src/widgets/lv_slider.c ****         lv_indev_t * indev = lv_indev_get_act();
 876              		.loc 1 192 10 is_stmt 1 view .LVU281
 192:Drivers/lvgl/src/widgets/lv_slider.c ****         lv_indev_t * indev = lv_indev_get_act();
 877              		.loc 1 192 12 is_stmt 0 view .LVU282
 878 0038 022E     		cmp	r6, #2
 879 003a 00F06181 		beq	.L93
 880              	.L57:
 253:Drivers/lvgl/src/widgets/lv_slider.c ****         slider->dragging = false;
 881              		.loc 1 253 10 is_stmt 1 view .LVU283
 882 003e 033E     		subs	r6, r6, #3
 883              	.LVL82:
 253:Drivers/lvgl/src/widgets/lv_slider.c ****         slider->dragging = false;
 884              		.loc 1 253 10 is_stmt 0 view .LVU284
 885 0040 262E     		cmp	r6, #38
 886 0042 E6D8     		bhi	.L37
 887 0044 01A3     		adr	r3, .L69
 888 0046 53F826F0 		ldr	pc, [r3, r6, lsl #2]
 889 004a 00BF     		.p2align 2
 890              	.L69:
 891 004c 33040000 		.word	.L74+1
 892 0050 13000000 		.word	.L37+1
 893 0054 13000000 		.word	.L37+1
 894 0058 13000000 		.word	.L37+1
 895 005c 13000000 		.word	.L37+1
 896 0060 33040000 		.word	.L74+1
 897 0064 13000000 		.word	.L37+1
 898 0068 13000000 		.word	.L37+1
 899 006c 13000000 		.word	.L37+1
 900 0070 13000000 		.word	.L37+1
 901 0074 C7050000 		.word	.L73+1
 902 0078 A9040000 		.word	.L72+1
 903 007c 13000000 		.word	.L37+1
 904 0080 13000000 		.word	.L37+1
 905 0084 13000000 		.word	.L37+1
 906 0088 13000000 		.word	.L37+1
 907 008c D1040000 		.word	.L71+1
 908 0090 13000000 		.word	.L37+1
 909 0094 45060000 		.word	.L70+1
 910 0098 13000000 		.word	.L37+1
 911 009c 13000000 		.word	.L37+1
 912 00a0 13000000 		.word	.L37+1
 913 00a4 13000000 		.word	.L37+1
 914 00a8 13000000 		.word	.L37+1
 915 00ac 13000000 		.word	.L37+1
 916 00b0 13000000 		.word	.L37+1
 917 00b4 13000000 		.word	.L37+1
 918 00b8 13000000 		.word	.L37+1
 919 00bc 13000000 		.word	.L37+1
 920 00c0 13000000 		.word	.L37+1
 921 00c4 13000000 		.word	.L37+1
ARM GAS  /var/folders/lp/x54gwt890xv47sdkqj1k04q40000gn/T//ccDzkxjV.s 			page 44


 922 00c8 13000000 		.word	.L37+1
 923 00cc 13000000 		.word	.L37+1
 924 00d0 13000000 		.word	.L37+1
 925 00d4 13000000 		.word	.L37+1
 926 00d8 13000000 		.word	.L37+1
 927 00dc 13000000 		.word	.L37+1
 928 00e0 13000000 		.word	.L37+1
 929 00e4 C9040000 		.word	.L68+1
 930              	.LVL83:
 931              		.p2align 1
 932              	.L91:
 933              	.LBB97:
 112:Drivers/lvgl/src/widgets/lv_slider.c ****         lv_coord_t ext_click_area = obj->spec_attr ? obj->spec_attr->ext_click_pad : 0;
 934              		.loc 1 112 9 is_stmt 1 view .LVU285
 112:Drivers/lvgl/src/widgets/lv_slider.c ****         lv_coord_t ext_click_area = obj->spec_attr ? obj->spec_attr->ext_click_pad : 0;
 935              		.loc 1 112 37 is_stmt 0 view .LVU286
 936 00e8 2046     		mov	r0, r4
 937 00ea FFF7FEFF 		bl	lv_event_get_param
 938              	.LVL84:
 939 00ee 0446     		mov	r4, r0
 940              	.LVL85:
 113:Drivers/lvgl/src/widgets/lv_slider.c **** 
 941              		.loc 1 113 9 is_stmt 1 view .LVU287
 113:Drivers/lvgl/src/widgets/lv_slider.c **** 
 942              		.loc 1 113 40 is_stmt 0 view .LVU288
 943 00f0 AB68     		ldr	r3, [r5, #8]
 113:Drivers/lvgl/src/widgets/lv_slider.c **** 
 944              		.loc 1 113 20 view .LVU289
 945 00f2 002B     		cmp	r3, #0
 946 00f4 3ED0     		beq	.L86
 113:Drivers/lvgl/src/widgets/lv_slider.c **** 
 947              		.loc 1 113 20 discriminator 1 view .LVU290
 948 00f6 B3F91460 		ldrsh	r6, [r3, #20]
 949              	.LVL86:
 950              	.L40:
 116:Drivers/lvgl/src/widgets/lv_slider.c ****         lv_area_copy(&a, &slider->right_knob_area);
 951              		.loc 1 116 9 is_stmt 1 view .LVU291
 117:Drivers/lvgl/src/widgets/lv_slider.c ****         lv_area_increase(&a, ext_click_area, ext_click_area);
 952              		.loc 1 117 9 view .LVU292
 953              	.LBB98:
 954              	.LBI98:
 110:Drivers/lvgl/src/widgets/../core/../misc/../font/../misc/lv_area.h **** {
 955              		.loc 4 110 20 view .LVU293
 956              	.LBB99:
 112:Drivers/lvgl/src/widgets/../core/../misc/../font/../misc/lv_area.h ****     dest->y1 = src->y1;
 957              		.loc 4 112 5 view .LVU294
 112:Drivers/lvgl/src/widgets/../core/../misc/../font/../misc/lv_area.h ****     dest->y1 = src->y1;
 958              		.loc 4 112 19 is_stmt 0 view .LVU295
 959 00fa B5F96830 		ldrsh	r3, [r5, #104]
 112:Drivers/lvgl/src/widgets/../core/../misc/../font/../misc/lv_area.h ****     dest->y1 = src->y1;
 960              		.loc 4 112 14 view .LVU296
 961 00fe ADF81030 		strh	r3, [sp, #16]	@ movhi
 113:Drivers/lvgl/src/widgets/../core/../misc/../font/../misc/lv_area.h ****     dest->x2 = src->x2;
 962              		.loc 4 113 5 is_stmt 1 view .LVU297
 113:Drivers/lvgl/src/widgets/../core/../misc/../font/../misc/lv_area.h ****     dest->x2 = src->x2;
 963              		.loc 4 113 19 is_stmt 0 view .LVU298
 964 0102 B5F96A30 		ldrsh	r3, [r5, #106]
ARM GAS  /var/folders/lp/x54gwt890xv47sdkqj1k04q40000gn/T//ccDzkxjV.s 			page 45


 113:Drivers/lvgl/src/widgets/../core/../misc/../font/../misc/lv_area.h ****     dest->x2 = src->x2;
 965              		.loc 4 113 14 view .LVU299
 966 0106 ADF81230 		strh	r3, [sp, #18]	@ movhi
 114:Drivers/lvgl/src/widgets/../core/../misc/../font/../misc/lv_area.h ****     dest->y2 = src->y2;
 967              		.loc 4 114 5 is_stmt 1 view .LVU300
 114:Drivers/lvgl/src/widgets/../core/../misc/../font/../misc/lv_area.h ****     dest->y2 = src->y2;
 968              		.loc 4 114 19 is_stmt 0 view .LVU301
 969 010a B5F96C30 		ldrsh	r3, [r5, #108]
 114:Drivers/lvgl/src/widgets/../core/../misc/../font/../misc/lv_area.h ****     dest->y2 = src->y2;
 970              		.loc 4 114 14 view .LVU302
 971 010e ADF81430 		strh	r3, [sp, #20]	@ movhi
 972              		.loc 4 115 5 is_stmt 1 view .LVU303
 973              		.loc 4 115 19 is_stmt 0 view .LVU304
 974 0112 B5F96E30 		ldrsh	r3, [r5, #110]
 975              		.loc 4 115 14 view .LVU305
 976 0116 ADF81630 		strh	r3, [sp, #22]	@ movhi
 977              	.LVL87:
 978              		.loc 4 115 14 view .LVU306
 979              	.LBE99:
 980              	.LBE98:
 118:Drivers/lvgl/src/widgets/lv_slider.c ****         info->res = _lv_area_is_point_on(&a, info->point, 0);
 981              		.loc 1 118 9 is_stmt 1 view .LVU307
 982 011a 3246     		mov	r2, r6
 983 011c 3146     		mov	r1, r6
 984 011e 04A8     		add	r0, sp, #16
 985              	.LVL88:
 118:Drivers/lvgl/src/widgets/lv_slider.c ****         info->res = _lv_area_is_point_on(&a, info->point, 0);
 986              		.loc 1 118 9 is_stmt 0 view .LVU308
 987 0120 FFF7FEFF 		bl	lv_area_increase
 988              	.LVL89:
 119:Drivers/lvgl/src/widgets/lv_slider.c **** 
 989              		.loc 1 119 9 is_stmt 1 view .LVU309
 119:Drivers/lvgl/src/widgets/lv_slider.c **** 
 990              		.loc 1 119 21 is_stmt 0 view .LVU310
 991 0124 0022     		movs	r2, #0
 992 0126 2168     		ldr	r1, [r4]
 993 0128 04A8     		add	r0, sp, #16
 994 012a FFF7FEFF 		bl	_lv_area_is_point_on
 995              	.LVL90:
 119:Drivers/lvgl/src/widgets/lv_slider.c **** 
 996              		.loc 1 119 19 discriminator 1 view .LVU311
 997 012e 2071     		strb	r0, [r4, #4]
 122:Drivers/lvgl/src/widgets/lv_slider.c ****             lv_area_copy(&a, &slider->left_knob_area);
 998              		.loc 1 122 9 is_stmt 1 view .LVU312
 122:Drivers/lvgl/src/widgets/lv_slider.c ****             lv_area_copy(&a, &slider->left_knob_area);
 999              		.loc 1 122 11 is_stmt 0 view .LVU313
 1000 0130 0028     		cmp	r0, #0
 1001 0132 7FF46EAF 		bne	.L37
 122:Drivers/lvgl/src/widgets/lv_slider.c ****             lv_area_copy(&a, &slider->left_knob_area);
 1002              		.loc 1 122 33 discriminator 1 view .LVU314
 1003 0136 022F     		cmp	r7, #2
 1004 0138 7FF46BAF 		bne	.L37
 123:Drivers/lvgl/src/widgets/lv_slider.c ****             lv_area_increase(&a, ext_click_area, ext_click_area);
 1005              		.loc 1 123 13 is_stmt 1 view .LVU315
 1006              	.LVL91:
 1007              	.LBB100:
 1008              	.LBI100:
ARM GAS  /var/folders/lp/x54gwt890xv47sdkqj1k04q40000gn/T//ccDzkxjV.s 			page 46


 110:Drivers/lvgl/src/widgets/../core/../misc/../font/../misc/lv_area.h **** {
 1009              		.loc 4 110 20 view .LVU316
 1010              	.LBB101:
 112:Drivers/lvgl/src/widgets/../core/../misc/../font/../misc/lv_area.h ****     dest->y1 = src->y1;
 1011              		.loc 4 112 5 view .LVU317
 112:Drivers/lvgl/src/widgets/../core/../misc/../font/../misc/lv_area.h ****     dest->y1 = src->y1;
 1012              		.loc 4 112 19 is_stmt 0 view .LVU318
 1013 013c B5F96030 		ldrsh	r3, [r5, #96]
 112:Drivers/lvgl/src/widgets/../core/../misc/../font/../misc/lv_area.h ****     dest->y1 = src->y1;
 1014              		.loc 4 112 14 view .LVU319
 1015 0140 ADF81030 		strh	r3, [sp, #16]	@ movhi
 113:Drivers/lvgl/src/widgets/../core/../misc/../font/../misc/lv_area.h ****     dest->x2 = src->x2;
 1016              		.loc 4 113 5 is_stmt 1 view .LVU320
 113:Drivers/lvgl/src/widgets/../core/../misc/../font/../misc/lv_area.h ****     dest->x2 = src->x2;
 1017              		.loc 4 113 19 is_stmt 0 view .LVU321
 1018 0144 B5F96230 		ldrsh	r3, [r5, #98]
 113:Drivers/lvgl/src/widgets/../core/../misc/../font/../misc/lv_area.h ****     dest->x2 = src->x2;
 1019              		.loc 4 113 14 view .LVU322
 1020 0148 ADF81230 		strh	r3, [sp, #18]	@ movhi
 114:Drivers/lvgl/src/widgets/../core/../misc/../font/../misc/lv_area.h ****     dest->y2 = src->y2;
 1021              		.loc 4 114 5 is_stmt 1 view .LVU323
 114:Drivers/lvgl/src/widgets/../core/../misc/../font/../misc/lv_area.h ****     dest->y2 = src->y2;
 1022              		.loc 4 114 19 is_stmt 0 view .LVU324
 1023 014c B5F96430 		ldrsh	r3, [r5, #100]
 114:Drivers/lvgl/src/widgets/../core/../misc/../font/../misc/lv_area.h ****     dest->y2 = src->y2;
 1024              		.loc 4 114 14 view .LVU325
 1025 0150 ADF81430 		strh	r3, [sp, #20]	@ movhi
 1026              		.loc 4 115 5 is_stmt 1 view .LVU326
 1027              		.loc 4 115 19 is_stmt 0 view .LVU327
 1028 0154 B5F96630 		ldrsh	r3, [r5, #102]
 1029              		.loc 4 115 14 view .LVU328
 1030 0158 ADF81630 		strh	r3, [sp, #22]	@ movhi
 1031              	.LVL92:
 1032              		.loc 4 115 14 view .LVU329
 1033              	.LBE101:
 1034              	.LBE100:
 124:Drivers/lvgl/src/widgets/lv_slider.c ****             info->res = _lv_area_is_point_on(&a, info->point, 0);
 1035              		.loc 1 124 13 is_stmt 1 view .LVU330
 1036 015c 3246     		mov	r2, r6
 1037 015e 3146     		mov	r1, r6
 1038 0160 04A8     		add	r0, sp, #16
 1039 0162 FFF7FEFF 		bl	lv_area_increase
 1040              	.LVL93:
 125:Drivers/lvgl/src/widgets/lv_slider.c ****         }
 1041              		.loc 1 125 13 view .LVU331
 125:Drivers/lvgl/src/widgets/lv_slider.c ****         }
 1042              		.loc 1 125 25 is_stmt 0 view .LVU332
 1043 0166 0022     		movs	r2, #0
 1044 0168 2168     		ldr	r1, [r4]
 1045 016a 04A8     		add	r0, sp, #16
 1046 016c FFF7FEFF 		bl	_lv_area_is_point_on
 1047              	.LVL94:
 125:Drivers/lvgl/src/widgets/lv_slider.c ****         }
 1048              		.loc 1 125 23 discriminator 1 view .LVU333
 1049 0170 2071     		strb	r0, [r4, #4]
 1050 0172 4EE7     		b	.L37
 1051              	.LVL95:
ARM GAS  /var/folders/lp/x54gwt890xv47sdkqj1k04q40000gn/T//ccDzkxjV.s 			page 47


 1052              	.L86:
 113:Drivers/lvgl/src/widgets/lv_slider.c **** 
 1053              		.loc 1 113 20 discriminator 2 view .LVU334
 1054 0174 0026     		movs	r6, #0
 1055              	.LVL96:
 113:Drivers/lvgl/src/widgets/lv_slider.c **** 
 1056              		.loc 1 113 20 discriminator 2 view .LVU335
 1057 0176 C0E7     		b	.L40
 1058              	.LVL97:
 1059              	.L92:
 113:Drivers/lvgl/src/widgets/lv_slider.c **** 
 1060              		.loc 1 113 20 discriminator 2 view .LVU336
 1061              	.LBE97:
 1062              	.LBB102:
 129:Drivers/lvgl/src/widgets/lv_slider.c **** 
 1063              		.loc 1 129 9 is_stmt 1 view .LVU337
 1064 0178 2846     		mov	r0, r5
 1065 017a FFF7FEFF 		bl	lv_obj_invalidate
 1066              	.LVL98:
 131:Drivers/lvgl/src/widgets/lv_slider.c ****         slider->dragging = true;
 1067              		.loc 1 131 9 view .LVU338
 132:Drivers/lvgl/src/widgets/lv_slider.c ****         if(type == LV_SLIDER_MODE_NORMAL || type == LV_SLIDER_MODE_SYMMETRICAL) {
 1068              		.loc 1 132 9 view .LVU339
 132:Drivers/lvgl/src/widgets/lv_slider.c ****         if(type == LV_SLIDER_MODE_NORMAL || type == LV_SLIDER_MODE_SYMMETRICAL) {
 1069              		.loc 1 132 26 is_stmt 0 view .LVU340
 1070 017e 95F87430 		ldrb	r3, [r5, #116]	@ zero_extendqisi2
 1071 0182 43F00103 		orr	r3, r3, #1
 1072 0186 85F87430 		strb	r3, [r5, #116]
 133:Drivers/lvgl/src/widgets/lv_slider.c ****             slider->value_to_set = &slider->bar.cur_value;
 1073              		.loc 1 133 9 is_stmt 1 view .LVU341
 133:Drivers/lvgl/src/widgets/lv_slider.c ****             slider->value_to_set = &slider->bar.cur_value;
 1074              		.loc 1 133 11 is_stmt 0 view .LVU342
 1075 018a 012F     		cmp	r7, #1
 1076 018c 51D9     		bls	.L94
 136:Drivers/lvgl/src/widgets/lv_slider.c ****             lv_indev_get_point(lv_indev_get_act(), &p);
 1077              		.loc 1 136 14 is_stmt 1 view .LVU343
 136:Drivers/lvgl/src/widgets/lv_slider.c ****             lv_indev_get_point(lv_indev_get_act(), &p);
 1078              		.loc 1 136 16 is_stmt 0 view .LVU344
 1079 018e 022F     		cmp	r7, #2
 1080 0190 7FF43FAF 		bne	.L37
 1081              	.LBB103:
 137:Drivers/lvgl/src/widgets/lv_slider.c ****             bool hor = lv_obj_get_width(obj) >= lv_obj_get_height(obj);
 1082              		.loc 1 137 13 is_stmt 1 view .LVU345
 137:Drivers/lvgl/src/widgets/lv_slider.c ****             bool hor = lv_obj_get_width(obj) >= lv_obj_get_height(obj);
 1083              		.loc 1 137 32 is_stmt 0 view .LVU346
 1084 0194 FFF7FEFF 		bl	lv_indev_get_act
 1085              	.LVL99:
 137:Drivers/lvgl/src/widgets/lv_slider.c ****             bool hor = lv_obj_get_width(obj) >= lv_obj_get_height(obj);
 1086              		.loc 1 137 13 discriminator 1 view .LVU347
 1087 0198 04A9     		add	r1, sp, #16
 1088 019a FFF7FEFF 		bl	lv_indev_get_point
 1089              	.LVL100:
 138:Drivers/lvgl/src/widgets/lv_slider.c ****             lv_base_dir_t base_dir = lv_obj_get_style_base_dir(obj, LV_PART_MAIN);
 1090              		.loc 1 138 13 is_stmt 1 view .LVU348
 138:Drivers/lvgl/src/widgets/lv_slider.c ****             lv_base_dir_t base_dir = lv_obj_get_style_base_dir(obj, LV_PART_MAIN);
 1091              		.loc 1 138 24 is_stmt 0 view .LVU349
 1092 019e 2846     		mov	r0, r5
ARM GAS  /var/folders/lp/x54gwt890xv47sdkqj1k04q40000gn/T//ccDzkxjV.s 			page 48


 1093 01a0 FFF7FEFF 		bl	lv_obj_get_width
 1094              	.LVL101:
 1095 01a4 0646     		mov	r6, r0
 1096              	.LVL102:
 138:Drivers/lvgl/src/widgets/lv_slider.c ****             lv_base_dir_t base_dir = lv_obj_get_style_base_dir(obj, LV_PART_MAIN);
 1097              		.loc 1 138 49 discriminator 1 view .LVU350
 1098 01a6 2846     		mov	r0, r5
 1099 01a8 FFF7FEFF 		bl	lv_obj_get_height
 1100              	.LVL103:
 1101 01ac 0446     		mov	r4, r0
 1102              	.LVL104:
 139:Drivers/lvgl/src/widgets/lv_slider.c **** 
 1103              		.loc 1 139 13 is_stmt 1 view .LVU351
 1104              	.LBB104:
 1105              	.LBI104:
 565:Drivers/lvgl/src/widgets/../core/lv_obj_style_gen.h **** {
 1106              		.loc 2 565 29 view .LVU352
 1107              	.LBB105:
 567:Drivers/lvgl/src/widgets/../core/lv_obj_style_gen.h ****     return (lv_base_dir_t)v.num;
 1108              		.loc 2 567 5 view .LVU353
 567:Drivers/lvgl/src/widgets/../core/lv_obj_style_gen.h ****     return (lv_base_dir_t)v.num;
 1109              		.loc 2 567 26 is_stmt 0 view .LVU354
 1110 01ae 1622     		movs	r2, #22
 1111 01b0 0021     		movs	r1, #0
 1112 01b2 2846     		mov	r0, r5
 1113 01b4 FFF7FEFF 		bl	lv_obj_get_style_prop
 1114              	.LVL105:
 1115              		.loc 2 568 5 is_stmt 1 view .LVU355
 1116              		.loc 2 568 12 is_stmt 0 view .LVU356
 1117 01b8 C0B2     		uxtb	r0, r0
 1118              	.LVL106:
 1119              		.loc 2 568 12 view .LVU357
 1120              	.LBE105:
 1121              	.LBE104:
 141:Drivers/lvgl/src/widgets/lv_slider.c ****             if(hor) {
 1122              		.loc 1 141 13 is_stmt 1 view .LVU358
 142:Drivers/lvgl/src/widgets/lv_slider.c ****                 if((base_dir != LV_BASE_DIR_RTL && p.x > slider->right_knob_area.x2) || (base_dir =
 1123              		.loc 1 142 13 view .LVU359
 142:Drivers/lvgl/src/widgets/lv_slider.c ****                 if((base_dir != LV_BASE_DIR_RTL && p.x > slider->right_knob_area.x2) || (base_dir =
 1124              		.loc 1 142 15 is_stmt 0 view .LVU360
 1125 01ba A642     		cmp	r6, r4
 1126 01bc 5DDB     		blt	.L45
 143:Drivers/lvgl/src/widgets/lv_slider.c ****                                                                                          p.x < slid
 1127              		.loc 1 143 17 is_stmt 1 view .LVU361
 143:Drivers/lvgl/src/widgets/lv_slider.c ****                                                                                          p.x < slid
 1128              		.loc 1 143 19 is_stmt 0 view .LVU362
 1129 01be 0128     		cmp	r0, #1
 1130 01c0 3BD0     		beq	.L46
 143:Drivers/lvgl/src/widgets/lv_slider.c ****                                                                                          p.x < slid
 1131              		.loc 1 143 53 discriminator 1 view .LVU363
 1132 01c2 BDF91020 		ldrsh	r2, [sp, #16]
 143:Drivers/lvgl/src/widgets/lv_slider.c ****                                                                                          p.x < slid
 1133              		.loc 1 143 81 discriminator 1 view .LVU364
 1134 01c6 B5F96C30 		ldrsh	r3, [r5, #108]
 143:Drivers/lvgl/src/widgets/lv_slider.c ****                                                                                          p.x < slid
 1135              		.loc 1 143 49 discriminator 1 view .LVU365
 1136 01ca 9A42     		cmp	r2, r3
ARM GAS  /var/folders/lp/x54gwt890xv47sdkqj1k04q40000gn/T//ccDzkxjV.s 			page 49


 1137 01cc 3BDC     		bgt	.L47
 1138              	.L48:
 147:Drivers/lvgl/src/widgets/lv_slider.c ****                                                                                              p.x > 
 1139              		.loc 1 147 58 discriminator 1 view .LVU366
 1140 01ce BDF91020 		ldrsh	r2, [sp, #16]
 147:Drivers/lvgl/src/widgets/lv_slider.c ****                                                                                              p.x > 
 1141              		.loc 1 147 85 discriminator 1 view .LVU367
 1142 01d2 B5F96030 		ldrsh	r3, [r5, #96]
 147:Drivers/lvgl/src/widgets/lv_slider.c ****                                                                                              p.x > 
 1143              		.loc 1 147 54 discriminator 1 view .LVU368
 1144 01d6 9A42     		cmp	r2, r3
 1145 01d8 41DB     		blt	.L51
 147:Drivers/lvgl/src/widgets/lv_slider.c ****                                                                                              p.x > 
 1146              		.loc 1 147 90 discriminator 3 view .LVU369
 1147 01da 0128     		cmp	r0, #1
 1148 01dc 39D0     		beq	.L50
 1149              	.L52:
 153:Drivers/lvgl/src/widgets/lv_slider.c ****                     dist_right = LV_ABS((slider->right_knob_area.x1 + (slider->right_knob_area.x2 -
 1150              		.loc 1 153 21 is_stmt 1 view .LVU370
 153:Drivers/lvgl/src/widgets/lv_slider.c ****                     dist_right = LV_ABS((slider->right_knob_area.x1 + (slider->right_knob_area.x2 -
 1151              		.loc 1 153 33 is_stmt 0 view .LVU371
 1152 01de B5F96030 		ldrsh	r3, [r5, #96]
 1153 01e2 B5F96420 		ldrsh	r2, [r5, #100]
 1154 01e6 D21A     		subs	r2, r2, r3
 1155 01e8 02EBD272 		add	r2, r2, r2, lsr #31
 1156 01ec 03EB6202 		add	r2, r3, r2, asr #1
 1157 01f0 BDF91000 		ldrsh	r0, [sp, #16]
 1158              	.LVL107:
 153:Drivers/lvgl/src/widgets/lv_slider.c ****                     dist_right = LV_ABS((slider->right_knob_area.x1 + (slider->right_knob_area.x2 -
 1159              		.loc 1 153 33 view .LVU372
 1160 01f4 121A     		subs	r2, r2, r0
 1161 01f6 002A     		cmp	r2, #0
 1162 01f8 B8BF     		it	lt
 1163 01fa 5242     		rsblt	r2, r2, #0
 153:Drivers/lvgl/src/widgets/lv_slider.c ****                     dist_right = LV_ABS((slider->right_knob_area.x1 + (slider->right_knob_area.x2 -
 1164              		.loc 1 153 31 view .LVU373
 1165 01fc 12B2     		sxth	r2, r2
 1166              	.LVL108:
 154:Drivers/lvgl/src/widgets/lv_slider.c **** 
 1167              		.loc 1 154 21 is_stmt 1 view .LVU374
 154:Drivers/lvgl/src/widgets/lv_slider.c **** 
 1168              		.loc 1 154 34 is_stmt 0 view .LVU375
 1169 01fe B5F96830 		ldrsh	r3, [r5, #104]
 1170 0202 B5F96C10 		ldrsh	r1, [r5, #108]
 1171 0206 C91A     		subs	r1, r1, r3
 1172 0208 01EBD171 		add	r1, r1, r1, lsr #31
 1173 020c 03EB6103 		add	r3, r3, r1, asr #1
 1174 0210 1B1A     		subs	r3, r3, r0
 1175 0212 002B     		cmp	r3, #0
 1176 0214 B8BF     		it	lt
 1177 0216 5B42     		rsblt	r3, r3, #0
 154:Drivers/lvgl/src/widgets/lv_slider.c **** 
 1178              		.loc 1 154 32 view .LVU376
 1179 0218 1BB2     		sxth	r3, r3
 1180              	.LVL109:
 157:Drivers/lvgl/src/widgets/lv_slider.c ****                         slider->value_to_set = &slider->bar.cur_value;
 1181              		.loc 1 157 21 is_stmt 1 view .LVU377
ARM GAS  /var/folders/lp/x54gwt890xv47sdkqj1k04q40000gn/T//ccDzkxjV.s 			page 50


 157:Drivers/lvgl/src/widgets/lv_slider.c ****                         slider->value_to_set = &slider->bar.cur_value;
 1182              		.loc 1 157 23 is_stmt 0 view .LVU378
 1183 021a 9A42     		cmp	r2, r3
 1184 021c 23DD     		ble	.L53
 158:Drivers/lvgl/src/widgets/lv_slider.c ****                         slider->left_knob_focus = 0;
 1185              		.loc 1 158 25 is_stmt 1 view .LVU379
 158:Drivers/lvgl/src/widgets/lv_slider.c ****                         slider->left_knob_focus = 0;
 1186              		.loc 1 158 48 is_stmt 0 view .LVU380
 1187 021e 05F12403 		add	r3, r5, #36
 1188              	.LVL110:
 158:Drivers/lvgl/src/widgets/lv_slider.c ****                         slider->left_knob_focus = 0;
 1189              		.loc 1 158 46 view .LVU381
 1190 0222 2B67     		str	r3, [r5, #112]
 159:Drivers/lvgl/src/widgets/lv_slider.c ****                     }
 1191              		.loc 1 159 25 is_stmt 1 view .LVU382
 159:Drivers/lvgl/src/widgets/lv_slider.c ****                     }
 1192              		.loc 1 159 49 is_stmt 0 view .LVU383
 1193 0224 95F87430 		ldrb	r3, [r5, #116]	@ zero_extendqisi2
 1194 0228 23F00203 		bic	r3, r3, #2
 1195 022c 85F87430 		strb	r3, [r5, #116]
 1196 0230 EFE6     		b	.L37
 1197              	.LVL111:
 1198              	.L94:
 159:Drivers/lvgl/src/widgets/lv_slider.c ****                     }
 1199              		.loc 1 159 49 view .LVU384
 1200              	.LBE103:
 134:Drivers/lvgl/src/widgets/lv_slider.c ****         }
 1201              		.loc 1 134 13 is_stmt 1 view .LVU385
 134:Drivers/lvgl/src/widgets/lv_slider.c ****         }
 1202              		.loc 1 134 36 is_stmt 0 view .LVU386
 1203 0232 05F12403 		add	r3, r5, #36
 134:Drivers/lvgl/src/widgets/lv_slider.c ****         }
 1204              		.loc 1 134 34 view .LVU387
 1205 0236 2B67     		str	r3, [r5, #112]
 1206 0238 EBE6     		b	.L37
 1207              	.LVL112:
 1208              	.L46:
 1209              	.LBB106:
 144:Drivers/lvgl/src/widgets/lv_slider.c ****                     slider->value_to_set = &slider->bar.cur_value;
 1210              		.loc 1 144 91 view .LVU388
 1211 023a BDF91020 		ldrsh	r2, [sp, #16]
 144:Drivers/lvgl/src/widgets/lv_slider.c ****                     slider->value_to_set = &slider->bar.cur_value;
 1212              		.loc 1 144 119 view .LVU389
 1213 023e B5F96830 		ldrsh	r3, [r5, #104]
 143:Drivers/lvgl/src/widgets/lv_slider.c ****                                                                                          p.x < slid
 1214              		.loc 1 143 118 discriminator 4 view .LVU390
 1215 0242 9A42     		cmp	r2, r3
 1216 0244 03DA     		bge	.L49
 1217              	.L47:
 145:Drivers/lvgl/src/widgets/lv_slider.c ****                 }
 1218              		.loc 1 145 21 is_stmt 1 view .LVU391
 145:Drivers/lvgl/src/widgets/lv_slider.c ****                 }
 1219              		.loc 1 145 44 is_stmt 0 view .LVU392
 1220 0246 05F12403 		add	r3, r5, #36
 145:Drivers/lvgl/src/widgets/lv_slider.c ****                 }
 1221              		.loc 1 145 42 view .LVU393
 1222 024a 2B67     		str	r3, [r5, #112]
ARM GAS  /var/folders/lp/x54gwt890xv47sdkqj1k04q40000gn/T//ccDzkxjV.s 			page 51


 1223 024c E1E6     		b	.L37
 1224              	.L49:
 147:Drivers/lvgl/src/widgets/lv_slider.c ****                                                                                              p.x > 
 1225              		.loc 1 147 22 is_stmt 1 view .LVU394
 147:Drivers/lvgl/src/widgets/lv_slider.c ****                                                                                              p.x > 
 1226              		.loc 1 147 24 is_stmt 0 view .LVU395
 1227 024e 0128     		cmp	r0, #1
 1228 0250 BDD1     		bne	.L48
 1229              	.L50:
 148:Drivers/lvgl/src/widgets/lv_slider.c ****                     slider->value_to_set = &slider->bar.start_value;
 1230              		.loc 1 148 95 view .LVU396
 1231 0252 BDF91020 		ldrsh	r2, [sp, #16]
 148:Drivers/lvgl/src/widgets/lv_slider.c ****                     slider->value_to_set = &slider->bar.start_value;
 1232              		.loc 1 148 122 view .LVU397
 1233 0256 B5F96430 		ldrsh	r3, [r5, #100]
 147:Drivers/lvgl/src/widgets/lv_slider.c ****                                                                                              p.x > 
 1234              		.loc 1 147 122 discriminator 4 view .LVU398
 1235 025a 9A42     		cmp	r2, r3
 1236 025c BFDD     		ble	.L52
 1237              	.L51:
 149:Drivers/lvgl/src/widgets/lv_slider.c ****                 }
 1238              		.loc 1 149 21 is_stmt 1 view .LVU399
 149:Drivers/lvgl/src/widgets/lv_slider.c ****                 }
 1239              		.loc 1 149 44 is_stmt 0 view .LVU400
 1240 025e 05F13003 		add	r3, r5, #48
 149:Drivers/lvgl/src/widgets/lv_slider.c ****                 }
 1241              		.loc 1 149 42 view .LVU401
 1242 0262 2B67     		str	r3, [r5, #112]
 1243 0264 D5E6     		b	.L37
 1244              	.LVL113:
 1245              	.L53:
 162:Drivers/lvgl/src/widgets/lv_slider.c ****                         slider->left_knob_focus = 1;
 1246              		.loc 1 162 25 is_stmt 1 view .LVU402
 162:Drivers/lvgl/src/widgets/lv_slider.c ****                         slider->left_knob_focus = 1;
 1247              		.loc 1 162 48 is_stmt 0 view .LVU403
 1248 0266 05F13003 		add	r3, r5, #48
 1249              	.LVL114:
 162:Drivers/lvgl/src/widgets/lv_slider.c ****                         slider->left_knob_focus = 1;
 1250              		.loc 1 162 46 view .LVU404
 1251 026a 2B67     		str	r3, [r5, #112]
 163:Drivers/lvgl/src/widgets/lv_slider.c ****                     }
 1252              		.loc 1 163 25 is_stmt 1 view .LVU405
 163:Drivers/lvgl/src/widgets/lv_slider.c ****                     }
 1253              		.loc 1 163 49 is_stmt 0 view .LVU406
 1254 026c 95F87430 		ldrb	r3, [r5, #116]	@ zero_extendqisi2
 1255 0270 43F00203 		orr	r3, r3, #2
 1256 0274 85F87430 		strb	r3, [r5, #116]
 1257 0278 CBE6     		b	.L37
 1258              	.LVL115:
 1259              	.L45:
 168:Drivers/lvgl/src/widgets/lv_slider.c ****                     slider->value_to_set = &slider->bar.cur_value;
 1260              		.loc 1 168 17 is_stmt 1 view .LVU407
 168:Drivers/lvgl/src/widgets/lv_slider.c ****                     slider->value_to_set = &slider->bar.cur_value;
 1261              		.loc 1 168 21 is_stmt 0 view .LVU408
 1262 027a BDF91210 		ldrsh	r1, [sp, #18]
 168:Drivers/lvgl/src/widgets/lv_slider.c ****                     slider->value_to_set = &slider->bar.cur_value;
 1263              		.loc 1 168 49 view .LVU409
ARM GAS  /var/folders/lp/x54gwt890xv47sdkqj1k04q40000gn/T//ccDzkxjV.s 			page 52


 1264 027e B5F96A30 		ldrsh	r3, [r5, #106]
 168:Drivers/lvgl/src/widgets/lv_slider.c ****                     slider->value_to_set = &slider->bar.cur_value;
 1265              		.loc 1 168 19 view .LVU410
 1266 0282 9942     		cmp	r1, r3
 1267 0284 03DA     		bge	.L54
 169:Drivers/lvgl/src/widgets/lv_slider.c ****                 }
 1268              		.loc 1 169 21 is_stmt 1 view .LVU411
 169:Drivers/lvgl/src/widgets/lv_slider.c ****                 }
 1269              		.loc 1 169 44 is_stmt 0 view .LVU412
 1270 0286 05F12403 		add	r3, r5, #36
 169:Drivers/lvgl/src/widgets/lv_slider.c ****                 }
 1271              		.loc 1 169 42 view .LVU413
 1272 028a 2B67     		str	r3, [r5, #112]
 1273 028c C1E6     		b	.L37
 1274              	.L54:
 171:Drivers/lvgl/src/widgets/lv_slider.c ****                     slider->value_to_set = &slider->bar.start_value;
 1275              		.loc 1 171 22 is_stmt 1 view .LVU414
 171:Drivers/lvgl/src/widgets/lv_slider.c ****                     slider->value_to_set = &slider->bar.start_value;
 1276              		.loc 1 171 53 is_stmt 0 view .LVU415
 1277 028e B5F96600 		ldrsh	r0, [r5, #102]
 1278              	.LVL116:
 171:Drivers/lvgl/src/widgets/lv_slider.c ****                     slider->value_to_set = &slider->bar.start_value;
 1279              		.loc 1 171 24 view .LVU416
 1280 0292 8142     		cmp	r1, r0
 1281 0294 03DD     		ble	.L55
 172:Drivers/lvgl/src/widgets/lv_slider.c ****                 }
 1282              		.loc 1 172 21 is_stmt 1 view .LVU417
 172:Drivers/lvgl/src/widgets/lv_slider.c ****                 }
 1283              		.loc 1 172 44 is_stmt 0 view .LVU418
 1284 0296 05F13003 		add	r3, r5, #48
 172:Drivers/lvgl/src/widgets/lv_slider.c ****                 }
 1285              		.loc 1 172 42 view .LVU419
 1286 029a 2B67     		str	r3, [r5, #112]
 1287 029c B9E6     		b	.L37
 1288              	.L55:
 176:Drivers/lvgl/src/widgets/lv_slider.c ****                     dist_right = LV_ABS((slider->right_knob_area.y1 + (slider->right_knob_area.y2 -
 1289              		.loc 1 176 21 is_stmt 1 view .LVU420
 176:Drivers/lvgl/src/widgets/lv_slider.c ****                     dist_right = LV_ABS((slider->right_knob_area.y1 + (slider->right_knob_area.y2 -
 1290              		.loc 1 176 33 is_stmt 0 view .LVU421
 1291 029e B5F96220 		ldrsh	r2, [r5, #98]
 1292 02a2 801A     		subs	r0, r0, r2
 1293 02a4 00EBD070 		add	r0, r0, r0, lsr #31
 1294 02a8 02EB6002 		add	r2, r2, r0, asr #1
 1295 02ac 521A     		subs	r2, r2, r1
 1296 02ae 002A     		cmp	r2, #0
 1297 02b0 B8BF     		it	lt
 1298 02b2 5242     		rsblt	r2, r2, #0
 176:Drivers/lvgl/src/widgets/lv_slider.c ****                     dist_right = LV_ABS((slider->right_knob_area.y1 + (slider->right_knob_area.y2 -
 1299              		.loc 1 176 31 view .LVU422
 1300 02b4 12B2     		sxth	r2, r2
 1301              	.LVL117:
 177:Drivers/lvgl/src/widgets/lv_slider.c **** 
 1302              		.loc 1 177 21 is_stmt 1 view .LVU423
 177:Drivers/lvgl/src/widgets/lv_slider.c **** 
 1303              		.loc 1 177 34 is_stmt 0 view .LVU424
 1304 02b6 B5F96E00 		ldrsh	r0, [r5, #110]
 1305 02ba C01A     		subs	r0, r0, r3
ARM GAS  /var/folders/lp/x54gwt890xv47sdkqj1k04q40000gn/T//ccDzkxjV.s 			page 53


 1306 02bc 00EBD070 		add	r0, r0, r0, lsr #31
 1307 02c0 03EB6003 		add	r3, r3, r0, asr #1
 1308 02c4 5B1A     		subs	r3, r3, r1
 1309 02c6 002B     		cmp	r3, #0
 1310 02c8 B8BF     		it	lt
 1311 02ca 5B42     		rsblt	r3, r3, #0
 177:Drivers/lvgl/src/widgets/lv_slider.c **** 
 1312              		.loc 1 177 32 view .LVU425
 1313 02cc 1BB2     		sxth	r3, r3
 1314              	.LVL118:
 180:Drivers/lvgl/src/widgets/lv_slider.c ****                         slider->value_to_set = &slider->bar.cur_value;
 1315              		.loc 1 180 21 is_stmt 1 view .LVU426
 180:Drivers/lvgl/src/widgets/lv_slider.c ****                         slider->value_to_set = &slider->bar.cur_value;
 1316              		.loc 1 180 23 is_stmt 0 view .LVU427
 1317 02ce 9A42     		cmp	r2, r3
 1318 02d0 09DD     		ble	.L56
 181:Drivers/lvgl/src/widgets/lv_slider.c ****                         slider->left_knob_focus = 0;
 1319              		.loc 1 181 25 is_stmt 1 view .LVU428
 181:Drivers/lvgl/src/widgets/lv_slider.c ****                         slider->left_knob_focus = 0;
 1320              		.loc 1 181 48 is_stmt 0 view .LVU429
 1321 02d2 05F12403 		add	r3, r5, #36
 1322              	.LVL119:
 181:Drivers/lvgl/src/widgets/lv_slider.c ****                         slider->left_knob_focus = 0;
 1323              		.loc 1 181 46 view .LVU430
 1324 02d6 2B67     		str	r3, [r5, #112]
 182:Drivers/lvgl/src/widgets/lv_slider.c ****                     }
 1325              		.loc 1 182 25 is_stmt 1 view .LVU431
 182:Drivers/lvgl/src/widgets/lv_slider.c ****                     }
 1326              		.loc 1 182 49 is_stmt 0 view .LVU432
 1327 02d8 95F87430 		ldrb	r3, [r5, #116]	@ zero_extendqisi2
 1328 02dc 23F00203 		bic	r3, r3, #2
 1329 02e0 85F87430 		strb	r3, [r5, #116]
 1330 02e4 95E6     		b	.L37
 1331              	.LVL120:
 1332              	.L56:
 185:Drivers/lvgl/src/widgets/lv_slider.c ****                         slider->left_knob_focus = 1;
 1333              		.loc 1 185 25 is_stmt 1 view .LVU433
 185:Drivers/lvgl/src/widgets/lv_slider.c ****                         slider->left_knob_focus = 1;
 1334              		.loc 1 185 48 is_stmt 0 view .LVU434
 1335 02e6 05F13003 		add	r3, r5, #48
 1336              	.LVL121:
 185:Drivers/lvgl/src/widgets/lv_slider.c ****                         slider->left_knob_focus = 1;
 1337              		.loc 1 185 46 view .LVU435
 1338 02ea 2B67     		str	r3, [r5, #112]
 186:Drivers/lvgl/src/widgets/lv_slider.c ****                     }
 1339              		.loc 1 186 25 is_stmt 1 view .LVU436
 186:Drivers/lvgl/src/widgets/lv_slider.c ****                     }
 1340              		.loc 1 186 49 is_stmt 0 view .LVU437
 1341 02ec 95F87430 		ldrb	r3, [r5, #116]	@ zero_extendqisi2
 1342 02f0 43F00203 		orr	r3, r3, #2
 1343 02f4 85F87430 		strb	r3, [r5, #116]
 1344 02f8 8BE6     		b	.L37
 1345              	.L99:
 1346 02fa 00BF     		.align	2
 1347              	.L98:
 1348 02fc 00000000 		.word	lv_slider_class
 1349              	.LVL122:
ARM GAS  /var/folders/lp/x54gwt890xv47sdkqj1k04q40000gn/T//ccDzkxjV.s 			page 54


 1350              	.L93:
 186:Drivers/lvgl/src/widgets/lv_slider.c ****                     }
 1351              		.loc 1 186 49 view .LVU438
 1352              	.LBE106:
 1353              	.LBE102:
 192:Drivers/lvgl/src/widgets/lv_slider.c ****         lv_indev_t * indev = lv_indev_get_act();
 1354              		.loc 1 192 48 discriminator 1 view .LVU439
 1355 0300 2B6F     		ldr	r3, [r5, #112]
 192:Drivers/lvgl/src/widgets/lv_slider.c ****         lv_indev_t * indev = lv_indev_get_act();
 1356              		.loc 1 192 39 discriminator 1 view .LVU440
 1357 0302 002B     		cmp	r3, #0
 1358 0304 3FF49BAE 		beq	.L57
 1359              	.LBB107:
 193:Drivers/lvgl/src/widgets/lv_slider.c ****         if(lv_indev_get_type(indev) != LV_INDEV_TYPE_POINTER) return;
 1360              		.loc 1 193 9 is_stmt 1 view .LVU441
 193:Drivers/lvgl/src/widgets/lv_slider.c ****         if(lv_indev_get_type(indev) != LV_INDEV_TYPE_POINTER) return;
 1361              		.loc 1 193 30 is_stmt 0 view .LVU442
 1362 0308 FFF7FEFF 		bl	lv_indev_get_act
 1363              	.LVL123:
 1364 030c 0446     		mov	r4, r0
 1365              	.LVL124:
 194:Drivers/lvgl/src/widgets/lv_slider.c **** 
 1366              		.loc 1 194 9 is_stmt 1 view .LVU443
 194:Drivers/lvgl/src/widgets/lv_slider.c **** 
 1367              		.loc 1 194 12 is_stmt 0 view .LVU444
 1368 030e FFF7FEFF 		bl	lv_indev_get_type
 1369              	.LVL125:
 194:Drivers/lvgl/src/widgets/lv_slider.c **** 
 1370              		.loc 1 194 11 discriminator 1 view .LVU445
 1371 0312 0128     		cmp	r0, #1
 1372 0314 7FF47DAE 		bne	.L37
 196:Drivers/lvgl/src/widgets/lv_slider.c ****         lv_indev_get_point(indev, &p);
 1373              		.loc 1 196 9 is_stmt 1 view .LVU446
 197:Drivers/lvgl/src/widgets/lv_slider.c ****         int32_t new_value = 0;
 1374              		.loc 1 197 9 view .LVU447
 1375 0318 04A9     		add	r1, sp, #16
 1376 031a 2046     		mov	r0, r4
 1377 031c FFF7FEFF 		bl	lv_indev_get_point
 1378              	.LVL126:
 198:Drivers/lvgl/src/widgets/lv_slider.c **** 
 1379              		.loc 1 198 9 view .LVU448
 200:Drivers/lvgl/src/widgets/lv_slider.c ****         if(is_slider_horizontal(obj)) {
 1380              		.loc 1 200 9 view .LVU449
 200:Drivers/lvgl/src/widgets/lv_slider.c ****         if(is_slider_horizontal(obj)) {
 1381              		.loc 1 200 42 is_stmt 0 view .LVU450
 1382 0320 EC6A     		ldr	r4, [r5, #44]
 1383              	.LVL127:
 200:Drivers/lvgl/src/widgets/lv_slider.c ****         if(is_slider_horizontal(obj)) {
 1384              		.loc 1 200 66 view .LVU451
 1385 0322 AB6A     		ldr	r3, [r5, #40]
 200:Drivers/lvgl/src/widgets/lv_slider.c ****         if(is_slider_horizontal(obj)) {
 1386              		.loc 1 200 23 view .LVU452
 1387 0324 E41A     		subs	r4, r4, r3
 1388              	.LVL128:
 201:Drivers/lvgl/src/widgets/lv_slider.c ****             const lv_coord_t bg_left = lv_obj_get_style_pad_left(obj, LV_PART_MAIN);
 1389              		.loc 1 201 9 is_stmt 1 view .LVU453
 201:Drivers/lvgl/src/widgets/lv_slider.c ****             const lv_coord_t bg_left = lv_obj_get_style_pad_left(obj, LV_PART_MAIN);
ARM GAS  /var/folders/lp/x54gwt890xv47sdkqj1k04q40000gn/T//ccDzkxjV.s 			page 55


 1390              		.loc 1 201 12 is_stmt 0 view .LVU454
 1391 0326 2846     		mov	r0, r5
 1392 0328 FFF7FEFF 		bl	is_slider_horizontal
 1393              	.LVL129:
 201:Drivers/lvgl/src/widgets/lv_slider.c ****             const lv_coord_t bg_left = lv_obj_get_style_pad_left(obj, LV_PART_MAIN);
 1394              		.loc 1 201 11 discriminator 1 view .LVU455
 1395 032c 0028     		cmp	r0, #0
 1396 032e 53D0     		beq	.L59
 1397              	.LBB108:
 202:Drivers/lvgl/src/widgets/lv_slider.c ****             const lv_coord_t bg_right = lv_obj_get_style_pad_right(obj, LV_PART_MAIN);
 1398              		.loc 1 202 13 is_stmt 1 view .LVU456
 1399              	.LVL130:
 1400              	.LBB109:
 1401              	.LBI109:
 115:Drivers/lvgl/src/widgets/../core/lv_obj_style_gen.h **** {
 1402              		.loc 2 115 26 view .LVU457
 1403              	.LBB110:
 117:Drivers/lvgl/src/widgets/../core/lv_obj_style_gen.h ****     return (lv_coord_t)v.num;
 1404              		.loc 2 117 5 view .LVU458
 117:Drivers/lvgl/src/widgets/../core/lv_obj_style_gen.h ****     return (lv_coord_t)v.num;
 1405              		.loc 2 117 26 is_stmt 0 view .LVU459
 1406 0330 1222     		movs	r2, #18
 1407 0332 0021     		movs	r1, #0
 1408 0334 2846     		mov	r0, r5
 1409 0336 FFF7FEFF 		bl	lv_obj_get_style_prop
 1410              	.LVL131:
 1411 033a 0646     		mov	r6, r0
 1412              	.LVL132:
 118:Drivers/lvgl/src/widgets/../core/lv_obj_style_gen.h **** }
 1413              		.loc 2 118 5 is_stmt 1 view .LVU460
 118:Drivers/lvgl/src/widgets/../core/lv_obj_style_gen.h **** }
 1414              		.loc 2 118 12 is_stmt 0 view .LVU461
 1415 033c 07B2     		sxth	r7, r0
 1416              	.LVL133:
 118:Drivers/lvgl/src/widgets/../core/lv_obj_style_gen.h **** }
 1417              		.loc 2 118 12 view .LVU462
 1418              	.LBE110:
 1419              	.LBE109:
 203:Drivers/lvgl/src/widgets/lv_slider.c ****             const lv_coord_t w = lv_obj_get_width(obj);
 1420              		.loc 1 203 13 is_stmt 1 view .LVU463
 1421              	.LBB111:
 1422              	.LBI111:
 121:Drivers/lvgl/src/widgets/../core/lv_obj_style_gen.h **** {
 1423              		.loc 2 121 26 view .LVU464
 1424              	.LBB112:
 123:Drivers/lvgl/src/widgets/../core/lv_obj_style_gen.h ****     return (lv_coord_t)v.num;
 1425              		.loc 2 123 5 view .LVU465
 123:Drivers/lvgl/src/widgets/../core/lv_obj_style_gen.h ****     return (lv_coord_t)v.num;
 1426              		.loc 2 123 26 is_stmt 0 view .LVU466
 1427 033e 1322     		movs	r2, #19
 1428 0340 0021     		movs	r1, #0
 1429 0342 2846     		mov	r0, r5
 123:Drivers/lvgl/src/widgets/../core/lv_obj_style_gen.h ****     return (lv_coord_t)v.num;
 1430              		.loc 2 123 26 view .LVU467
 1431 0344 FFF7FEFF 		bl	lv_obj_get_style_prop
 1432              	.LVL134:
 1433 0348 8146     		mov	r9, r0
ARM GAS  /var/folders/lp/x54gwt890xv47sdkqj1k04q40000gn/T//ccDzkxjV.s 			page 56


 124:Drivers/lvgl/src/widgets/../core/lv_obj_style_gen.h **** }
 1434              		.loc 2 124 5 is_stmt 1 view .LVU468
 124:Drivers/lvgl/src/widgets/../core/lv_obj_style_gen.h **** }
 1435              		.loc 2 124 12 is_stmt 0 view .LVU469
 1436 034a 0FFA80F8 		sxth	r8, r0
 1437              	.LVL135:
 124:Drivers/lvgl/src/widgets/../core/lv_obj_style_gen.h **** }
 1438              		.loc 2 124 12 view .LVU470
 1439              	.LBE112:
 1440              	.LBE111:
 204:Drivers/lvgl/src/widgets/lv_slider.c ****             const lv_coord_t indic_w = w - bg_left - bg_right;
 1441              		.loc 1 204 13 is_stmt 1 view .LVU471
 204:Drivers/lvgl/src/widgets/lv_slider.c ****             const lv_coord_t indic_w = w - bg_left - bg_right;
 1442              		.loc 1 204 34 is_stmt 0 view .LVU472
 1443 034e 2846     		mov	r0, r5
 204:Drivers/lvgl/src/widgets/lv_slider.c ****             const lv_coord_t indic_w = w - bg_left - bg_right;
 1444              		.loc 1 204 34 view .LVU473
 1445 0350 FFF7FEFF 		bl	lv_obj_get_width
 1446              	.LVL136:
 205:Drivers/lvgl/src/widgets/lv_slider.c **** 
 1447              		.loc 1 205 13 is_stmt 1 view .LVU474
 205:Drivers/lvgl/src/widgets/lv_slider.c **** 
 1448              		.loc 1 205 42 is_stmt 0 view .LVU475
 1449 0354 861B     		subs	r6, r0, r6
 1450              	.LVL137:
 205:Drivers/lvgl/src/widgets/lv_slider.c **** 
 1451              		.loc 1 205 42 view .LVU476
 1452 0356 B6B2     		uxth	r6, r6
 1453              	.LVL138:
 205:Drivers/lvgl/src/widgets/lv_slider.c **** 
 1454              		.loc 1 205 52 view .LVU477
 1455 0358 A6EB0906 		sub	r6, r6, r9
 205:Drivers/lvgl/src/widgets/lv_slider.c **** 
 1456              		.loc 1 205 30 view .LVU478
 1457 035c 36B2     		sxth	r6, r6
 1458              	.LVL139:
 207:Drivers/lvgl/src/widgets/lv_slider.c ****                 /*Make the point relative to the indicator*/
 1459              		.loc 1 207 13 is_stmt 1 view .LVU479
 1460              	.LBB113:
 1461              	.LBI113:
 565:Drivers/lvgl/src/widgets/../core/lv_obj_style_gen.h **** {
 1462              		.loc 2 565 29 view .LVU480
 1463              	.LBB114:
 567:Drivers/lvgl/src/widgets/../core/lv_obj_style_gen.h ****     return (lv_base_dir_t)v.num;
 1464              		.loc 2 567 5 view .LVU481
 567:Drivers/lvgl/src/widgets/../core/lv_obj_style_gen.h ****     return (lv_base_dir_t)v.num;
 1465              		.loc 2 567 26 is_stmt 0 view .LVU482
 1466 035e 1622     		movs	r2, #22
 1467 0360 0021     		movs	r1, #0
 1468 0362 2846     		mov	r0, r5
 1469              	.LVL140:
 567:Drivers/lvgl/src/widgets/../core/lv_obj_style_gen.h ****     return (lv_base_dir_t)v.num;
 1470              		.loc 2 567 26 view .LVU483
 1471 0364 FFF7FEFF 		bl	lv_obj_get_style_prop
 1472              	.LVL141:
 1473              		.loc 2 568 5 is_stmt 1 view .LVU484
 1474              		.loc 2 568 12 is_stmt 0 view .LVU485
ARM GAS  /var/folders/lp/x54gwt890xv47sdkqj1k04q40000gn/T//ccDzkxjV.s 			page 57


 1475 0368 C3B2     		uxtb	r3, r0
 1476              	.LVL142:
 1477              		.loc 2 568 12 view .LVU486
 1478              	.LBE114:
 1479              	.LBE113:
 207:Drivers/lvgl/src/widgets/lv_slider.c ****                 /*Make the point relative to the indicator*/
 1480              		.loc 1 207 15 discriminator 1 view .LVU487
 1481 036a 012B     		cmp	r3, #1
 1482 036c 2CD0     		beq	.L95
 213:Drivers/lvgl/src/widgets/lv_slider.c ****             }
 1483              		.loc 1 213 17 is_stmt 1 view .LVU488
 213:Drivers/lvgl/src/widgets/lv_slider.c ****             }
 1484              		.loc 1 213 30 is_stmt 0 view .LVU489
 1485 036e BDF91020 		ldrsh	r2, [sp, #16]
 213:Drivers/lvgl/src/widgets/lv_slider.c ****             }
 1486              		.loc 1 213 47 view .LVU490
 1487 0372 B5F91430 		ldrsh	r3, [r5, #20]
 213:Drivers/lvgl/src/widgets/lv_slider.c ****             }
 1488              		.loc 1 213 51 view .LVU491
 1489 0376 1F44     		add	r7, r7, r3
 1490              	.LVL143:
 213:Drivers/lvgl/src/widgets/lv_slider.c ****             }
 1491              		.loc 1 213 27 view .LVU492
 1492 0378 D21B     		subs	r2, r2, r7
 1493              	.LVL144:
 1494              	.L61:
 215:Drivers/lvgl/src/widgets/lv_slider.c ****             new_value += slider->bar.min_value;
 1495              		.loc 1 215 13 is_stmt 1 view .LVU493
 215:Drivers/lvgl/src/widgets/lv_slider.c ****             new_value += slider->bar.min_value;
 1496              		.loc 1 215 54 is_stmt 0 view .LVU494
 1497 037a 06EBD673 		add	r3, r6, r6, lsr #31
 1498 037e 5B10     		asrs	r3, r3, #1
 215:Drivers/lvgl/src/widgets/lv_slider.c ****             new_value += slider->bar.min_value;
 1499              		.loc 1 215 44 view .LVU495
 1500 0380 04FB0233 		mla	r3, r4, r2, r3
 215:Drivers/lvgl/src/widgets/lv_slider.c ****             new_value += slider->bar.min_value;
 1501              		.loc 1 215 23 view .LVU496
 1502 0384 93FBF6F3 		sdiv	r3, r3, r6
 1503              	.LVL145:
 216:Drivers/lvgl/src/widgets/lv_slider.c ****         }
 1504              		.loc 1 216 13 is_stmt 1 view .LVU497
 216:Drivers/lvgl/src/widgets/lv_slider.c ****         }
 1505              		.loc 1 216 37 is_stmt 0 view .LVU498
 1506 0388 A96A     		ldr	r1, [r5, #40]
 216:Drivers/lvgl/src/widgets/lv_slider.c ****         }
 1507              		.loc 1 216 23 view .LVU499
 1508 038a 1944     		add	r1, r1, r3
 1509              	.LVL146:
 1510              	.L62:
 216:Drivers/lvgl/src/widgets/lv_slider.c ****         }
 1511              		.loc 1 216 23 view .LVU500
 1512              	.LBE108:
 230:Drivers/lvgl/src/widgets/lv_slider.c ****         int32_t real_min_value = slider->bar.min_value;
 1513              		.loc 1 230 9 is_stmt 1 view .LVU501
 230:Drivers/lvgl/src/widgets/lv_slider.c ****         int32_t real_min_value = slider->bar.min_value;
 1514              		.loc 1 230 17 is_stmt 0 view .LVU502
 1515 038c EC6A     		ldr	r4, [r5, #44]
ARM GAS  /var/folders/lp/x54gwt890xv47sdkqj1k04q40000gn/T//ccDzkxjV.s 			page 58


 1516              	.LVL147:
 231:Drivers/lvgl/src/widgets/lv_slider.c ****         /*Figure out the min. and max. for this mode*/
 1517              		.loc 1 231 9 is_stmt 1 view .LVU503
 231:Drivers/lvgl/src/widgets/lv_slider.c ****         /*Figure out the min. and max. for this mode*/
 1518              		.loc 1 231 17 is_stmt 0 view .LVU504
 1519 038e A86A     		ldr	r0, [r5, #40]
 1520              	.LVL148:
 233:Drivers/lvgl/src/widgets/lv_slider.c ****             real_max_value = slider->bar.cur_value;
 1521              		.loc 1 233 9 is_stmt 1 view .LVU505
 233:Drivers/lvgl/src/widgets/lv_slider.c ****             real_max_value = slider->bar.cur_value;
 1522              		.loc 1 233 18 is_stmt 0 view .LVU506
 1523 0390 2B6F     		ldr	r3, [r5, #112]
 233:Drivers/lvgl/src/widgets/lv_slider.c ****             real_max_value = slider->bar.cur_value;
 1524              		.loc 1 233 36 view .LVU507
 1525 0392 05F13002 		add	r2, r5, #48
 233:Drivers/lvgl/src/widgets/lv_slider.c ****             real_max_value = slider->bar.cur_value;
 1526              		.loc 1 233 11 view .LVU508
 1527 0396 9342     		cmp	r3, r2
 1528 0398 44D0     		beq	.L96
 237:Drivers/lvgl/src/widgets/lv_slider.c ****         }
 1529              		.loc 1 237 13 is_stmt 1 view .LVU509
 237:Drivers/lvgl/src/widgets/lv_slider.c ****         }
 1530              		.loc 1 237 28 is_stmt 0 view .LVU510
 1531 039a 286B     		ldr	r0, [r5, #48]
 1532              	.LVL149:
 1533              	.L64:
 240:Drivers/lvgl/src/widgets/lv_slider.c ****         if(*slider->value_to_set != new_value) {
 1534              		.loc 1 240 9 is_stmt 1 view .LVU511
 240:Drivers/lvgl/src/widgets/lv_slider.c ****         if(*slider->value_to_set != new_value) {
 1535              		.loc 1 240 21 is_stmt 0 view .LVU512
 1536 039c A142     		cmp	r1, r4
 1537 039e A8BF     		it	ge
 1538 03a0 2146     		movge	r1, r4
 1539              	.LVL150:
 240:Drivers/lvgl/src/widgets/lv_slider.c ****         if(*slider->value_to_set != new_value) {
 1540              		.loc 1 240 19 view .LVU513
 1541 03a2 8142     		cmp	r1, r0
 1542 03a4 B8BF     		it	lt
 1543 03a6 0146     		movlt	r1, r0
 1544              	.LVL151:
 241:Drivers/lvgl/src/widgets/lv_slider.c ****             if(slider->value_to_set == &slider->bar.start_value) {
 1545              		.loc 1 241 9 is_stmt 1 view .LVU514
 241:Drivers/lvgl/src/widgets/lv_slider.c ****             if(slider->value_to_set == &slider->bar.start_value) {
 1546              		.loc 1 241 12 is_stmt 0 view .LVU515
 1547 03a8 1868     		ldr	r0, [r3]
 1548              	.LVL152:
 241:Drivers/lvgl/src/widgets/lv_slider.c ****             if(slider->value_to_set == &slider->bar.start_value) {
 1549              		.loc 1 241 11 view .LVU516
 1550 03aa 8842     		cmp	r0, r1
 1551 03ac 3FF431AE 		beq	.L37
 242:Drivers/lvgl/src/widgets/lv_slider.c ****                 lv_bar_set_start_value(obj, new_value, LV_ANIM_ON);
 1552              		.loc 1 242 13 is_stmt 1 view .LVU517
 242:Drivers/lvgl/src/widgets/lv_slider.c ****                 lv_bar_set_start_value(obj, new_value, LV_ANIM_ON);
 1553              		.loc 1 242 15 is_stmt 0 view .LVU518
 1554 03b0 9342     		cmp	r3, r2
 1555 03b2 39D0     		beq	.L97
 246:Drivers/lvgl/src/widgets/lv_slider.c ****             }
ARM GAS  /var/folders/lp/x54gwt890xv47sdkqj1k04q40000gn/T//ccDzkxjV.s 			page 59


 1556              		.loc 1 246 17 is_stmt 1 view .LVU519
 1557 03b4 0122     		movs	r2, #1
 1558 03b6 2846     		mov	r0, r5
 1559 03b8 FFF7FEFF 		bl	lv_bar_set_value
 1560              	.LVL153:
 1561              	.L67:
 248:Drivers/lvgl/src/widgets/lv_slider.c ****             if(res != LV_RES_OK) return;
 1562              		.loc 1 248 13 view .LVU520
 248:Drivers/lvgl/src/widgets/lv_slider.c ****             if(res != LV_RES_OK) return;
 1563              		.loc 1 248 19 is_stmt 0 view .LVU521
 1564 03bc 0022     		movs	r2, #0
 1565 03be 1C21     		movs	r1, #28
 1566 03c0 2846     		mov	r0, r5
 1567 03c2 FFF7FEFF 		bl	lv_event_send
 1568              	.LVL154:
 249:Drivers/lvgl/src/widgets/lv_slider.c ****         }
 1569              		.loc 1 249 13 is_stmt 1 view .LVU522
 1570 03c6 24E6     		b	.L37
 1571              	.LVL155:
 1572              	.L95:
 1573              	.LBB115:
 209:Drivers/lvgl/src/widgets/lv_slider.c ****             }
 1574              		.loc 1 209 17 view .LVU523
 209:Drivers/lvgl/src/widgets/lv_slider.c ****             }
 1575              		.loc 1 209 41 is_stmt 0 view .LVU524
 1576 03c8 B5F91820 		ldrsh	r2, [r5, #24]
 209:Drivers/lvgl/src/widgets/lv_slider.c ****             }
 1577              		.loc 1 209 45 view .LVU525
 1578 03cc A2EB0802 		sub	r2, r2, r8
 209:Drivers/lvgl/src/widgets/lv_slider.c ****             }
 1579              		.loc 1 209 60 view .LVU526
 1580 03d0 BDF91030 		ldrsh	r3, [sp, #16]
 209:Drivers/lvgl/src/widgets/lv_slider.c ****             }
 1581              		.loc 1 209 27 view .LVU527
 1582 03d4 D21A     		subs	r2, r2, r3
 1583              	.LVL156:
 209:Drivers/lvgl/src/widgets/lv_slider.c ****             }
 1584              		.loc 1 209 27 view .LVU528
 1585 03d6 D0E7     		b	.L61
 1586              	.LVL157:
 1587              	.L59:
 209:Drivers/lvgl/src/widgets/lv_slider.c ****             }
 1588              		.loc 1 209 27 view .LVU529
 1589              	.LBE115:
 1590              	.LBB116:
 219:Drivers/lvgl/src/widgets/lv_slider.c ****             const lv_coord_t bg_bottom = lv_obj_get_style_pad_bottom(obj, LV_PART_MAIN);
 1591              		.loc 1 219 13 is_stmt 1 view .LVU530
 1592              	.LBB117:
 1593              	.LBI117:
 103:Drivers/lvgl/src/widgets/../core/lv_obj_style_gen.h **** {
 1594              		.loc 2 103 26 view .LVU531
 1595              	.LBB118:
 105:Drivers/lvgl/src/widgets/../core/lv_obj_style_gen.h ****     return (lv_coord_t)v.num;
 1596              		.loc 2 105 5 view .LVU532
 105:Drivers/lvgl/src/widgets/../core/lv_obj_style_gen.h ****     return (lv_coord_t)v.num;
 1597              		.loc 2 105 26 is_stmt 0 view .LVU533
 1598 03d8 1022     		movs	r2, #16
ARM GAS  /var/folders/lp/x54gwt890xv47sdkqj1k04q40000gn/T//ccDzkxjV.s 			page 60


 1599 03da 0021     		movs	r1, #0
 1600 03dc 2846     		mov	r0, r5
 1601 03de FFF7FEFF 		bl	lv_obj_get_style_prop
 1602              	.LVL158:
 1603 03e2 8046     		mov	r8, r0
 106:Drivers/lvgl/src/widgets/../core/lv_obj_style_gen.h **** }
 1604              		.loc 2 106 5 is_stmt 1 view .LVU534
 1605              	.LVL159:
 106:Drivers/lvgl/src/widgets/../core/lv_obj_style_gen.h **** }
 1606              		.loc 2 106 5 is_stmt 0 view .LVU535
 1607              	.LBE118:
 1608              	.LBE117:
 220:Drivers/lvgl/src/widgets/lv_slider.c ****             const lv_coord_t h = lv_obj_get_height(obj);
 1609              		.loc 1 220 13 is_stmt 1 view .LVU536
 1610              	.LBB119:
 1611              	.LBI119:
 109:Drivers/lvgl/src/widgets/../core/lv_obj_style_gen.h **** {
 1612              		.loc 2 109 26 view .LVU537
 1613              	.LBB120:
 111:Drivers/lvgl/src/widgets/../core/lv_obj_style_gen.h ****     return (lv_coord_t)v.num;
 1614              		.loc 2 111 5 view .LVU538
 111:Drivers/lvgl/src/widgets/../core/lv_obj_style_gen.h ****     return (lv_coord_t)v.num;
 1615              		.loc 2 111 26 is_stmt 0 view .LVU539
 1616 03e4 1122     		movs	r2, #17
 1617 03e6 0021     		movs	r1, #0
 1618 03e8 2846     		mov	r0, r5
 1619 03ea FFF7FEFF 		bl	lv_obj_get_style_prop
 1620              	.LVL160:
 1621 03ee 0746     		mov	r7, r0
 1622              	.LVL161:
 112:Drivers/lvgl/src/widgets/../core/lv_obj_style_gen.h **** }
 1623              		.loc 2 112 5 is_stmt 1 view .LVU540
 112:Drivers/lvgl/src/widgets/../core/lv_obj_style_gen.h **** }
 1624              		.loc 2 112 12 is_stmt 0 view .LVU541
 1625 03f0 06B2     		sxth	r6, r0
 1626              	.LVL162:
 112:Drivers/lvgl/src/widgets/../core/lv_obj_style_gen.h **** }
 1627              		.loc 2 112 12 view .LVU542
 1628              	.LBE120:
 1629              	.LBE119:
 221:Drivers/lvgl/src/widgets/lv_slider.c ****             const lv_coord_t indic_h = h - bg_bottom - bg_top;
 1630              		.loc 1 221 13 is_stmt 1 view .LVU543
 221:Drivers/lvgl/src/widgets/lv_slider.c ****             const lv_coord_t indic_h = h - bg_bottom - bg_top;
 1631              		.loc 1 221 34 is_stmt 0 view .LVU544
 1632 03f2 2846     		mov	r0, r5
 221:Drivers/lvgl/src/widgets/lv_slider.c ****             const lv_coord_t indic_h = h - bg_bottom - bg_top;
 1633              		.loc 1 221 34 view .LVU545
 1634 03f4 FFF7FEFF 		bl	lv_obj_get_height
 1635              	.LVL163:
 222:Drivers/lvgl/src/widgets/lv_slider.c **** 
 1636              		.loc 1 222 13 is_stmt 1 view .LVU546
 222:Drivers/lvgl/src/widgets/lv_slider.c **** 
 1637              		.loc 1 222 42 is_stmt 0 view .LVU547
 1638 03f8 C31B     		subs	r3, r0, r7
 1639 03fa 9BB2     		uxth	r3, r3
 222:Drivers/lvgl/src/widgets/lv_slider.c **** 
 1640              		.loc 1 222 54 view .LVU548
ARM GAS  /var/folders/lp/x54gwt890xv47sdkqj1k04q40000gn/T//ccDzkxjV.s 			page 61


 1641 03fc A3EB0803 		sub	r3, r3, r8
 222:Drivers/lvgl/src/widgets/lv_slider.c **** 
 1642              		.loc 1 222 30 view .LVU549
 1643 0400 19B2     		sxth	r1, r3
 1644              	.LVL164:
 225:Drivers/lvgl/src/widgets/lv_slider.c ****             new_value = (-new_value * range + indic_h / 2) / indic_h;
 1645              		.loc 1 225 13 is_stmt 1 view .LVU550
 225:Drivers/lvgl/src/widgets/lv_slider.c ****             new_value = (-new_value * range + indic_h / 2) / indic_h;
 1646              		.loc 1 225 26 is_stmt 0 view .LVU551
 1647 0402 BDF91200 		ldrsh	r0, [sp, #18]
 1648              	.LVL165:
 225:Drivers/lvgl/src/widgets/lv_slider.c ****             new_value = (-new_value * range + indic_h / 2) / indic_h;
 1649              		.loc 1 225 43 view .LVU552
 1650 0406 B5F91A20 		ldrsh	r2, [r5, #26]
 225:Drivers/lvgl/src/widgets/lv_slider.c ****             new_value = (-new_value * range + indic_h / 2) / indic_h;
 1651              		.loc 1 225 47 view .LVU553
 1652 040a 3244     		add	r2, r2, r6
 1653              	.LVL166:
 226:Drivers/lvgl/src/widgets/lv_slider.c ****             new_value += slider->bar.min_value;
 1654              		.loc 1 226 13 is_stmt 1 view .LVU554
 226:Drivers/lvgl/src/widgets/lv_slider.c ****             new_value += slider->bar.min_value;
 1655              		.loc 1 226 26 is_stmt 0 view .LVU555
 1656 040c 121A     		subs	r2, r2, r0
 1657              	.LVL167:
 226:Drivers/lvgl/src/widgets/lv_slider.c ****             new_value += slider->bar.min_value;
 1658              		.loc 1 226 55 view .LVU556
 1659 040e C3F3C033 		ubfx	r3, r3, #15, #1
 1660 0412 0B44     		add	r3, r3, r1
 1661 0414 5B10     		asrs	r3, r3, #1
 226:Drivers/lvgl/src/widgets/lv_slider.c ****             new_value += slider->bar.min_value;
 1662              		.loc 1 226 45 view .LVU557
 1663 0416 04FB0233 		mla	r3, r4, r2, r3
 226:Drivers/lvgl/src/widgets/lv_slider.c ****             new_value += slider->bar.min_value;
 1664              		.loc 1 226 23 view .LVU558
 1665 041a 93FBF1F3 		sdiv	r3, r3, r1
 1666              	.LVL168:
 227:Drivers/lvgl/src/widgets/lv_slider.c ****         }
 1667              		.loc 1 227 13 is_stmt 1 view .LVU559
 227:Drivers/lvgl/src/widgets/lv_slider.c ****         }
 1668              		.loc 1 227 37 is_stmt 0 view .LVU560
 1669 041e A96A     		ldr	r1, [r5, #40]
 1670              	.LVL169:
 227:Drivers/lvgl/src/widgets/lv_slider.c ****         }
 1671              		.loc 1 227 23 view .LVU561
 1672 0420 1944     		add	r1, r1, r3
 1673              	.LVL170:
 227:Drivers/lvgl/src/widgets/lv_slider.c ****         }
 1674              		.loc 1 227 23 view .LVU562
 1675 0422 B3E7     		b	.L62
 1676              	.LVL171:
 1677              	.L96:
 227:Drivers/lvgl/src/widgets/lv_slider.c ****         }
 1678              		.loc 1 227 23 view .LVU563
 1679              	.LBE116:
 234:Drivers/lvgl/src/widgets/lv_slider.c ****         }
 1680              		.loc 1 234 13 is_stmt 1 view .LVU564
 234:Drivers/lvgl/src/widgets/lv_slider.c ****         }
ARM GAS  /var/folders/lp/x54gwt890xv47sdkqj1k04q40000gn/T//ccDzkxjV.s 			page 62


 1681              		.loc 1 234 28 is_stmt 0 view .LVU565
 1682 0424 6C6A     		ldr	r4, [r5, #36]
 1683              	.LVL172:
 234:Drivers/lvgl/src/widgets/lv_slider.c ****         }
 1684              		.loc 1 234 28 view .LVU566
 1685 0426 B9E7     		b	.L64
 1686              	.LVL173:
 1687              	.L97:
 243:Drivers/lvgl/src/widgets/lv_slider.c ****             }
 1688              		.loc 1 243 17 is_stmt 1 view .LVU567
 1689 0428 0122     		movs	r2, #1
 1690 042a 2846     		mov	r0, r5
 1691 042c FFF7FEFF 		bl	lv_bar_set_start_value
 1692              	.LVL174:
 243:Drivers/lvgl/src/widgets/lv_slider.c ****             }
 1693              		.loc 1 243 17 is_stmt 0 view .LVU568
 1694 0430 C4E7     		b	.L67
 1695              	.LVL175:
 1696              	.L74:
 243:Drivers/lvgl/src/widgets/lv_slider.c ****             }
 1697              		.loc 1 243 17 view .LVU569
 1698              	.LBE107:
 1699              	.LBB121:
 254:Drivers/lvgl/src/widgets/lv_slider.c ****         slider->value_to_set = NULL;
 1700              		.loc 1 254 9 is_stmt 1 view .LVU570
 254:Drivers/lvgl/src/widgets/lv_slider.c ****         slider->value_to_set = NULL;
 1701              		.loc 1 254 26 is_stmt 0 view .LVU571
 1702 0432 95F87430 		ldrb	r3, [r5, #116]	@ zero_extendqisi2
 1703 0436 23F00103 		bic	r3, r3, #1
 1704 043a 85F87430 		strb	r3, [r5, #116]
 255:Drivers/lvgl/src/widgets/lv_slider.c **** 
 1705              		.loc 1 255 9 is_stmt 1 view .LVU572
 255:Drivers/lvgl/src/widgets/lv_slider.c **** 
 1706              		.loc 1 255 30 is_stmt 0 view .LVU573
 1707 043e 0023     		movs	r3, #0
 1708 0440 2B67     		str	r3, [r5, #112]
 257:Drivers/lvgl/src/widgets/lv_slider.c **** 
 1709              		.loc 1 257 9 is_stmt 1 view .LVU574
 1710 0442 2846     		mov	r0, r5
 1711 0444 FFF7FEFF 		bl	lv_obj_invalidate
 1712              	.LVL176:
 260:Drivers/lvgl/src/widgets/lv_slider.c ****         bool editing     = lv_group_get_editing(g);
 1713              		.loc 1 260 9 view .LVU575
 260:Drivers/lvgl/src/widgets/lv_slider.c ****         bool editing     = lv_group_get_editing(g);
 1714              		.loc 1 260 28 is_stmt 0 view .LVU576
 1715 0448 2846     		mov	r0, r5
 1716 044a FFF7FEFF 		bl	lv_obj_get_group
 1717              	.LVL177:
 1718 044e 0646     		mov	r6, r0
 1719              	.LVL178:
 261:Drivers/lvgl/src/widgets/lv_slider.c ****         lv_indev_type_t indev_type = lv_indev_get_type(lv_indev_get_act());
 1720              		.loc 1 261 9 is_stmt 1 view .LVU577
 261:Drivers/lvgl/src/widgets/lv_slider.c ****         lv_indev_type_t indev_type = lv_indev_get_type(lv_indev_get_act());
 1721              		.loc 1 261 28 is_stmt 0 view .LVU578
 1722 0450 FFF7FEFF 		bl	lv_group_get_editing
 1723              	.LVL179:
 261:Drivers/lvgl/src/widgets/lv_slider.c ****         lv_indev_type_t indev_type = lv_indev_get_type(lv_indev_get_act());
ARM GAS  /var/folders/lp/x54gwt890xv47sdkqj1k04q40000gn/T//ccDzkxjV.s 			page 63


 1724              		.loc 1 261 28 view .LVU579
 1725 0454 0446     		mov	r4, r0
 1726              	.LVL180:
 262:Drivers/lvgl/src/widgets/lv_slider.c ****         if(indev_type == LV_INDEV_TYPE_ENCODER) {
 1727              		.loc 1 262 9 is_stmt 1 view .LVU580
 262:Drivers/lvgl/src/widgets/lv_slider.c ****         if(indev_type == LV_INDEV_TYPE_ENCODER) {
 1728              		.loc 1 262 56 is_stmt 0 view .LVU581
 1729 0456 FFF7FEFF 		bl	lv_indev_get_act
 1730              	.LVL181:
 262:Drivers/lvgl/src/widgets/lv_slider.c ****         if(indev_type == LV_INDEV_TYPE_ENCODER) {
 1731              		.loc 1 262 38 discriminator 1 view .LVU582
 1732 045a FFF7FEFF 		bl	lv_indev_get_type
 1733              	.LVL182:
 263:Drivers/lvgl/src/widgets/lv_slider.c ****             if(editing) {
 1734              		.loc 1 263 9 is_stmt 1 view .LVU583
 263:Drivers/lvgl/src/widgets/lv_slider.c ****             if(editing) {
 1735              		.loc 1 263 11 is_stmt 0 view .LVU584
 1736 045e 0428     		cmp	r0, #4
 1737 0460 7FF4D7AD 		bne	.L37
 264:Drivers/lvgl/src/widgets/lv_slider.c ****                 if(lv_slider_get_mode(obj) == LV_SLIDER_MODE_RANGE) {
 1738              		.loc 1 264 13 is_stmt 1 view .LVU585
 264:Drivers/lvgl/src/widgets/lv_slider.c ****                 if(lv_slider_get_mode(obj) == LV_SLIDER_MODE_RANGE) {
 1739              		.loc 1 264 15 is_stmt 0 view .LVU586
 1740 0464 002C     		cmp	r4, #0
 1741 0466 3FF4D4AD 		beq	.L37
 265:Drivers/lvgl/src/widgets/lv_slider.c ****                     if(slider->left_knob_focus == 0) slider->left_knob_focus = 1;
 1742              		.loc 1 265 17 is_stmt 1 view .LVU587
 265:Drivers/lvgl/src/widgets/lv_slider.c ****                     if(slider->left_knob_focus == 0) slider->left_knob_focus = 1;
 1743              		.loc 1 265 20 is_stmt 0 view .LVU588
 1744 046a 2846     		mov	r0, r5
 1745              	.LVL183:
 265:Drivers/lvgl/src/widgets/lv_slider.c ****                     if(slider->left_knob_focus == 0) slider->left_knob_focus = 1;
 1746              		.loc 1 265 20 view .LVU589
 1747 046c FFF7FEFF 		bl	lv_slider_get_mode
 1748              	.LVL184:
 265:Drivers/lvgl/src/widgets/lv_slider.c ****                     if(slider->left_knob_focus == 0) slider->left_knob_focus = 1;
 1749              		.loc 1 265 19 discriminator 1 view .LVU590
 1750 0470 0228     		cmp	r0, #2
 1751 0472 14D1     		bne	.L75
 266:Drivers/lvgl/src/widgets/lv_slider.c ****                     else {
 1752              		.loc 1 266 21 is_stmt 1 view .LVU591
 266:Drivers/lvgl/src/widgets/lv_slider.c ****                     else {
 1753              		.loc 1 266 48 is_stmt 0 view .LVU592
 1754 0474 95F87430 		ldrb	r3, [r5, #116]	@ zero_extendqisi2
 266:Drivers/lvgl/src/widgets/lv_slider.c ****                     else {
 1755              		.loc 1 266 23 view .LVU593
 1756 0478 13F0020F 		tst	r3, #2
 1757 047c 04D1     		bne	.L76
 266:Drivers/lvgl/src/widgets/lv_slider.c ****                     else {
 1758              		.loc 1 266 54 is_stmt 1 discriminator 1 view .LVU594
 266:Drivers/lvgl/src/widgets/lv_slider.c ****                     else {
 1759              		.loc 1 266 78 is_stmt 0 discriminator 1 view .LVU595
 1760 047e 43F00203 		orr	r3, r3, #2
 1761 0482 85F87430 		strb	r3, [r5, #116]
 1762 0486 C4E5     		b	.L37
 1763              	.L76:
 268:Drivers/lvgl/src/widgets/lv_slider.c ****                         lv_group_set_editing(g, false);
ARM GAS  /var/folders/lp/x54gwt890xv47sdkqj1k04q40000gn/T//ccDzkxjV.s 			page 64


 1764              		.loc 1 268 25 is_stmt 1 view .LVU596
 268:Drivers/lvgl/src/widgets/lv_slider.c ****                         lv_group_set_editing(g, false);
 1765              		.loc 1 268 49 is_stmt 0 view .LVU597
 1766 0488 95F87430 		ldrb	r3, [r5, #116]	@ zero_extendqisi2
 1767 048c 23F00203 		bic	r3, r3, #2
 1768 0490 85F87430 		strb	r3, [r5, #116]
 269:Drivers/lvgl/src/widgets/lv_slider.c ****                     }
 1769              		.loc 1 269 25 is_stmt 1 view .LVU598
 1770 0494 0021     		movs	r1, #0
 1771 0496 3046     		mov	r0, r6
 1772 0498 FFF7FEFF 		bl	lv_group_set_editing
 1773              	.LVL185:
 1774 049c B9E5     		b	.L37
 1775              	.L75:
 273:Drivers/lvgl/src/widgets/lv_slider.c ****                 }
 1776              		.loc 1 273 21 view .LVU599
 1777 049e 0021     		movs	r1, #0
 1778 04a0 3046     		mov	r0, r6
 1779 04a2 FFF7FEFF 		bl	lv_group_set_editing
 1780              	.LVL186:
 1781 04a6 B4E5     		b	.L37
 1782              	.LVL187:
 1783              	.L72:
 273:Drivers/lvgl/src/widgets/lv_slider.c ****                 }
 1784              		.loc 1 273 21 is_stmt 0 view .LVU600
 1785              	.LBE121:
 1786              	.LBB122:
 280:Drivers/lvgl/src/widgets/lv_slider.c ****         if(indev_type == LV_INDEV_TYPE_ENCODER || indev_type == LV_INDEV_TYPE_KEYPAD) {
 1787              		.loc 1 280 9 is_stmt 1 view .LVU601
 280:Drivers/lvgl/src/widgets/lv_slider.c ****         if(indev_type == LV_INDEV_TYPE_ENCODER || indev_type == LV_INDEV_TYPE_KEYPAD) {
 1788              		.loc 1 280 56 is_stmt 0 view .LVU602
 1789 04a8 FFF7FEFF 		bl	lv_indev_get_act
 1790              	.LVL188:
 280:Drivers/lvgl/src/widgets/lv_slider.c ****         if(indev_type == LV_INDEV_TYPE_ENCODER || indev_type == LV_INDEV_TYPE_KEYPAD) {
 1791              		.loc 1 280 38 discriminator 1 view .LVU603
 1792 04ac FFF7FEFF 		bl	lv_indev_get_type
 1793              	.LVL189:
 281:Drivers/lvgl/src/widgets/lv_slider.c ****             slider->left_knob_focus = 0;
 1794              		.loc 1 281 9 is_stmt 1 view .LVU604
 281:Drivers/lvgl/src/widgets/lv_slider.c ****             slider->left_knob_focus = 0;
 1795              		.loc 1 281 11 is_stmt 0 view .LVU605
 1796 04b0 0428     		cmp	r0, #4
 1797 04b2 02D0     		beq	.L77
 281:Drivers/lvgl/src/widgets/lv_slider.c ****             slider->left_knob_focus = 0;
 1798              		.loc 1 281 48 discriminator 1 view .LVU606
 1799 04b4 0228     		cmp	r0, #2
 1800 04b6 7FF4ACAD 		bne	.L37
 1801              	.L77:
 282:Drivers/lvgl/src/widgets/lv_slider.c ****         }
 1802              		.loc 1 282 13 is_stmt 1 view .LVU607
 282:Drivers/lvgl/src/widgets/lv_slider.c ****         }
 1803              		.loc 1 282 37 is_stmt 0 view .LVU608
 1804 04ba 95F87430 		ldrb	r3, [r5, #116]	@ zero_extendqisi2
 1805 04be 23F00203 		bic	r3, r3, #2
 1806 04c2 85F87430 		strb	r3, [r5, #116]
 1807 04c6 A4E5     		b	.L37
 1808              	.LVL190:
ARM GAS  /var/folders/lp/x54gwt890xv47sdkqj1k04q40000gn/T//ccDzkxjV.s 			page 65


 1809              	.L68:
 282:Drivers/lvgl/src/widgets/lv_slider.c ****         }
 1810              		.loc 1 282 37 view .LVU609
 1811              	.LBE122:
 286:Drivers/lvgl/src/widgets/lv_slider.c ****     }
 1812              		.loc 1 286 9 is_stmt 1 view .LVU610
 1813 04c8 2846     		mov	r0, r5
 1814 04ca FFF7FEFF 		bl	lv_obj_refresh_ext_draw_size
 1815              	.LVL191:
 1816 04ce A0E5     		b	.L37
 1817              	.L71:
 1818              	.LBB123:
 289:Drivers/lvgl/src/widgets/lv_slider.c ****         lv_coord_t knob_right = lv_obj_get_style_pad_right(obj, LV_PART_KNOB);
 1819              		.loc 1 289 9 view .LVU611
 1820              	.LVL192:
 1821              	.LBB124:
 1822              	.LBI124:
 115:Drivers/lvgl/src/widgets/../core/lv_obj_style_gen.h **** {
 1823              		.loc 2 115 26 view .LVU612
 1824              	.LBB125:
 117:Drivers/lvgl/src/widgets/../core/lv_obj_style_gen.h ****     return (lv_coord_t)v.num;
 1825              		.loc 2 117 5 view .LVU613
 117:Drivers/lvgl/src/widgets/../core/lv_obj_style_gen.h ****     return (lv_coord_t)v.num;
 1826              		.loc 2 117 26 is_stmt 0 view .LVU614
 1827 04d0 1222     		movs	r2, #18
 1828 04d2 4FF44031 		mov	r1, #196608
 1829 04d6 2846     		mov	r0, r5
 1830 04d8 FFF7FEFF 		bl	lv_obj_get_style_prop
 1831              	.LVL193:
 118:Drivers/lvgl/src/widgets/../core/lv_obj_style_gen.h **** }
 1832              		.loc 2 118 5 is_stmt 1 view .LVU615
 118:Drivers/lvgl/src/widgets/../core/lv_obj_style_gen.h **** }
 1833              		.loc 2 118 12 is_stmt 0 view .LVU616
 1834 04dc 03B2     		sxth	r3, r0
 1835 04de 0193     		str	r3, [sp, #4]
 1836              	.LVL194:
 118:Drivers/lvgl/src/widgets/../core/lv_obj_style_gen.h **** }
 1837              		.loc 2 118 12 view .LVU617
 1838              	.LBE125:
 1839              	.LBE124:
 290:Drivers/lvgl/src/widgets/lv_slider.c ****         lv_coord_t knob_top = lv_obj_get_style_pad_top(obj, LV_PART_KNOB);
 1840              		.loc 1 290 9 is_stmt 1 view .LVU618
 1841              	.LBB126:
 1842              	.LBI126:
 121:Drivers/lvgl/src/widgets/../core/lv_obj_style_gen.h **** {
 1843              		.loc 2 121 26 view .LVU619
 1844              	.LBB127:
 123:Drivers/lvgl/src/widgets/../core/lv_obj_style_gen.h ****     return (lv_coord_t)v.num;
 1845              		.loc 2 123 5 view .LVU620
 123:Drivers/lvgl/src/widgets/../core/lv_obj_style_gen.h ****     return (lv_coord_t)v.num;
 1846              		.loc 2 123 26 is_stmt 0 view .LVU621
 1847 04e0 1322     		movs	r2, #19
 1848 04e2 4FF44031 		mov	r1, #196608
 1849 04e6 2846     		mov	r0, r5
 1850 04e8 FFF7FEFF 		bl	lv_obj_get_style_prop
 1851              	.LVL195:
 124:Drivers/lvgl/src/widgets/../core/lv_obj_style_gen.h **** }
ARM GAS  /var/folders/lp/x54gwt890xv47sdkqj1k04q40000gn/T//ccDzkxjV.s 			page 66


 1852              		.loc 2 124 5 is_stmt 1 view .LVU622
 124:Drivers/lvgl/src/widgets/../core/lv_obj_style_gen.h **** }
 1853              		.loc 2 124 12 is_stmt 0 view .LVU623
 1854 04ec 07B2     		sxth	r7, r0
 1855              	.LVL196:
 124:Drivers/lvgl/src/widgets/../core/lv_obj_style_gen.h **** }
 1856              		.loc 2 124 12 view .LVU624
 1857              	.LBE127:
 1858              	.LBE126:
 291:Drivers/lvgl/src/widgets/lv_slider.c ****         lv_coord_t knob_bottom = lv_obj_get_style_pad_bottom(obj, LV_PART_KNOB);
 1859              		.loc 1 291 9 is_stmt 1 view .LVU625
 1860              	.LBB128:
 1861              	.LBI128:
 103:Drivers/lvgl/src/widgets/../core/lv_obj_style_gen.h **** {
 1862              		.loc 2 103 26 view .LVU626
 1863              	.LBB129:
 105:Drivers/lvgl/src/widgets/../core/lv_obj_style_gen.h ****     return (lv_coord_t)v.num;
 1864              		.loc 2 105 5 view .LVU627
 105:Drivers/lvgl/src/widgets/../core/lv_obj_style_gen.h ****     return (lv_coord_t)v.num;
 1865              		.loc 2 105 26 is_stmt 0 view .LVU628
 1866 04ee 1022     		movs	r2, #16
 1867 04f0 4FF44031 		mov	r1, #196608
 1868 04f4 2846     		mov	r0, r5
 1869 04f6 FFF7FEFF 		bl	lv_obj_get_style_prop
 1870              	.LVL197:
 106:Drivers/lvgl/src/widgets/../core/lv_obj_style_gen.h **** }
 1871              		.loc 2 106 5 is_stmt 1 view .LVU629
 106:Drivers/lvgl/src/widgets/../core/lv_obj_style_gen.h **** }
 1872              		.loc 2 106 12 is_stmt 0 view .LVU630
 1873 04fa 0FFA80FA 		sxth	r10, r0
 1874              	.LVL198:
