ARM GAS  /var/folders/lp/x54gwt890xv47sdkqj1k04q40000gn/T//cc7THuQy.s 			page 1


   1              		.cpu cortex-m4
   2              		.arch armv7e-m
   3              		.fpu fpv4-sp-d16
   4              		.eabi_attribute 27, 1
   5              		.eabi_attribute 28, 1
   6              		.eabi_attribute 20, 1
   7              		.eabi_attribute 21, 1
   8              		.eabi_attribute 23, 3
   9              		.eabi_attribute 24, 1
  10              		.eabi_attribute 25, 1
  11              		.eabi_attribute 26, 1
  12              		.eabi_attribute 30, 1
  13              		.eabi_attribute 34, 1
  14              		.eabi_attribute 18, 4
  15              		.file	"lv_theme_mono.c"
  16              		.text
  17              	.Ltext0:
  18              		.cfi_sections	.debug_frame
  19              		.file 1 "Drivers/lvgl/src/extra/themes/mono/lv_theme_mono.c"
  20              		.section	.text.theme_apply,"ax",%progbits
  21              		.align	1
  22              		.syntax unified
  23              		.thumb
  24              		.thumb_func
  26              	theme_apply:
  27              	.LVL0:
  28              	.LFB207:
   1:Drivers/lvgl/src/extra/themes/mono/lv_theme_mono.c **** /**
   2:Drivers/lvgl/src/extra/themes/mono/lv_theme_mono.c ****  * @file lv_theme_mono.c
   3:Drivers/lvgl/src/extra/themes/mono/lv_theme_mono.c ****  *
   4:Drivers/lvgl/src/extra/themes/mono/lv_theme_mono.c ****  */
   5:Drivers/lvgl/src/extra/themes/mono/lv_theme_mono.c **** 
   6:Drivers/lvgl/src/extra/themes/mono/lv_theme_mono.c **** /*********************
   7:Drivers/lvgl/src/extra/themes/mono/lv_theme_mono.c ****  *      INCLUDES
   8:Drivers/lvgl/src/extra/themes/mono/lv_theme_mono.c ****  *********************/
   9:Drivers/lvgl/src/extra/themes/mono/lv_theme_mono.c **** #include "../../../lvgl.h"
  10:Drivers/lvgl/src/extra/themes/mono/lv_theme_mono.c **** 
  11:Drivers/lvgl/src/extra/themes/mono/lv_theme_mono.c **** #if LV_USE_THEME_MONO
  12:Drivers/lvgl/src/extra/themes/mono/lv_theme_mono.c **** 
  13:Drivers/lvgl/src/extra/themes/mono/lv_theme_mono.c **** #include "lv_theme_mono.h"
  14:Drivers/lvgl/src/extra/themes/mono/lv_theme_mono.c **** #include "../../../misc/lv_gc.h"
  15:Drivers/lvgl/src/extra/themes/mono/lv_theme_mono.c **** 
  16:Drivers/lvgl/src/extra/themes/mono/lv_theme_mono.c **** /*********************
  17:Drivers/lvgl/src/extra/themes/mono/lv_theme_mono.c ****  *      DEFINES
  18:Drivers/lvgl/src/extra/themes/mono/lv_theme_mono.c ****  *********************/
  19:Drivers/lvgl/src/extra/themes/mono/lv_theme_mono.c **** 
  20:Drivers/lvgl/src/extra/themes/mono/lv_theme_mono.c **** #define COLOR_FG      dark_bg ? lv_color_white() : lv_color_black()
  21:Drivers/lvgl/src/extra/themes/mono/lv_theme_mono.c **** #define COLOR_BG      dark_bg ? lv_color_black() : lv_color_white()
  22:Drivers/lvgl/src/extra/themes/mono/lv_theme_mono.c **** 
  23:Drivers/lvgl/src/extra/themes/mono/lv_theme_mono.c **** #define BORDER_W_NORMAL  1
  24:Drivers/lvgl/src/extra/themes/mono/lv_theme_mono.c **** #define BORDER_W_PR      3
  25:Drivers/lvgl/src/extra/themes/mono/lv_theme_mono.c **** #define BORDER_W_DIS     0
  26:Drivers/lvgl/src/extra/themes/mono/lv_theme_mono.c **** #define BORDER_W_FOCUS   1
  27:Drivers/lvgl/src/extra/themes/mono/lv_theme_mono.c **** #define BORDER_W_EDIT    2
  28:Drivers/lvgl/src/extra/themes/mono/lv_theme_mono.c **** #define PAD_DEF          4
  29:Drivers/lvgl/src/extra/themes/mono/lv_theme_mono.c **** 
  30:Drivers/lvgl/src/extra/themes/mono/lv_theme_mono.c **** /**********************
ARM GAS  /var/folders/lp/x54gwt890xv47sdkqj1k04q40000gn/T//cc7THuQy.s 			page 2


  31:Drivers/lvgl/src/extra/themes/mono/lv_theme_mono.c ****  *      TYPEDEFS
  32:Drivers/lvgl/src/extra/themes/mono/lv_theme_mono.c ****  **********************/
  33:Drivers/lvgl/src/extra/themes/mono/lv_theme_mono.c **** typedef struct {
  34:Drivers/lvgl/src/extra/themes/mono/lv_theme_mono.c ****     lv_style_t scr;
  35:Drivers/lvgl/src/extra/themes/mono/lv_theme_mono.c ****     lv_style_t card;
  36:Drivers/lvgl/src/extra/themes/mono/lv_theme_mono.c ****     lv_style_t scrollbar;
  37:Drivers/lvgl/src/extra/themes/mono/lv_theme_mono.c ****     lv_style_t btn;
  38:Drivers/lvgl/src/extra/themes/mono/lv_theme_mono.c ****     lv_style_t pr;
  39:Drivers/lvgl/src/extra/themes/mono/lv_theme_mono.c ****     lv_style_t inv;
  40:Drivers/lvgl/src/extra/themes/mono/lv_theme_mono.c ****     lv_style_t disabled;
  41:Drivers/lvgl/src/extra/themes/mono/lv_theme_mono.c ****     lv_style_t focus;
  42:Drivers/lvgl/src/extra/themes/mono/lv_theme_mono.c ****     lv_style_t edit;
  43:Drivers/lvgl/src/extra/themes/mono/lv_theme_mono.c ****     lv_style_t pad_gap;
  44:Drivers/lvgl/src/extra/themes/mono/lv_theme_mono.c ****     lv_style_t pad_zero;
  45:Drivers/lvgl/src/extra/themes/mono/lv_theme_mono.c ****     lv_style_t no_radius;
  46:Drivers/lvgl/src/extra/themes/mono/lv_theme_mono.c ****     lv_style_t radius_circle;
  47:Drivers/lvgl/src/extra/themes/mono/lv_theme_mono.c ****     lv_style_t large_border;
  48:Drivers/lvgl/src/extra/themes/mono/lv_theme_mono.c ****     lv_style_t large_line_space;
  49:Drivers/lvgl/src/extra/themes/mono/lv_theme_mono.c ****     lv_style_t underline;
  50:Drivers/lvgl/src/extra/themes/mono/lv_theme_mono.c **** #if LV_USE_TEXTAREA
  51:Drivers/lvgl/src/extra/themes/mono/lv_theme_mono.c ****     lv_style_t ta_cursor;
  52:Drivers/lvgl/src/extra/themes/mono/lv_theme_mono.c **** #endif
  53:Drivers/lvgl/src/extra/themes/mono/lv_theme_mono.c **** } my_theme_styles_t;
  54:Drivers/lvgl/src/extra/themes/mono/lv_theme_mono.c **** 
  55:Drivers/lvgl/src/extra/themes/mono/lv_theme_mono.c **** 
  56:Drivers/lvgl/src/extra/themes/mono/lv_theme_mono.c **** /**********************
  57:Drivers/lvgl/src/extra/themes/mono/lv_theme_mono.c ****  *  STATIC PROTOTYPES
  58:Drivers/lvgl/src/extra/themes/mono/lv_theme_mono.c ****  **********************/
  59:Drivers/lvgl/src/extra/themes/mono/lv_theme_mono.c **** static void style_init_reset(lv_style_t * style);
  60:Drivers/lvgl/src/extra/themes/mono/lv_theme_mono.c **** static void theme_apply(lv_theme_t * th, lv_obj_t * obj);
  61:Drivers/lvgl/src/extra/themes/mono/lv_theme_mono.c **** 
  62:Drivers/lvgl/src/extra/themes/mono/lv_theme_mono.c **** /**********************
  63:Drivers/lvgl/src/extra/themes/mono/lv_theme_mono.c ****  *  STATIC VARIABLES
  64:Drivers/lvgl/src/extra/themes/mono/lv_theme_mono.c ****  **********************/
  65:Drivers/lvgl/src/extra/themes/mono/lv_theme_mono.c **** static my_theme_styles_t * styles;
  66:Drivers/lvgl/src/extra/themes/mono/lv_theme_mono.c **** static lv_theme_t theme;
  67:Drivers/lvgl/src/extra/themes/mono/lv_theme_mono.c **** static bool inited;
  68:Drivers/lvgl/src/extra/themes/mono/lv_theme_mono.c **** 
  69:Drivers/lvgl/src/extra/themes/mono/lv_theme_mono.c **** /**********************
  70:Drivers/lvgl/src/extra/themes/mono/lv_theme_mono.c ****  *      MACROS
  71:Drivers/lvgl/src/extra/themes/mono/lv_theme_mono.c ****  **********************/
  72:Drivers/lvgl/src/extra/themes/mono/lv_theme_mono.c **** 
  73:Drivers/lvgl/src/extra/themes/mono/lv_theme_mono.c **** /**********************
  74:Drivers/lvgl/src/extra/themes/mono/lv_theme_mono.c ****  *   STATIC FUNCTIONS
  75:Drivers/lvgl/src/extra/themes/mono/lv_theme_mono.c ****  **********************/
  76:Drivers/lvgl/src/extra/themes/mono/lv_theme_mono.c **** 
  77:Drivers/lvgl/src/extra/themes/mono/lv_theme_mono.c **** static void style_init(bool dark_bg, const lv_font_t * font)
  78:Drivers/lvgl/src/extra/themes/mono/lv_theme_mono.c **** {
  79:Drivers/lvgl/src/extra/themes/mono/lv_theme_mono.c ****     style_init_reset(&styles->scrollbar);
  80:Drivers/lvgl/src/extra/themes/mono/lv_theme_mono.c ****     lv_style_set_bg_opa(&styles->scrollbar, LV_OPA_COVER);
  81:Drivers/lvgl/src/extra/themes/mono/lv_theme_mono.c ****     lv_style_set_bg_color(&styles->scrollbar, COLOR_FG);
  82:Drivers/lvgl/src/extra/themes/mono/lv_theme_mono.c ****     lv_style_set_width(&styles->scrollbar,  PAD_DEF);
  83:Drivers/lvgl/src/extra/themes/mono/lv_theme_mono.c **** 
  84:Drivers/lvgl/src/extra/themes/mono/lv_theme_mono.c ****     style_init_reset(&styles->scr);
  85:Drivers/lvgl/src/extra/themes/mono/lv_theme_mono.c ****     lv_style_set_bg_opa(&styles->scr, LV_OPA_COVER);
  86:Drivers/lvgl/src/extra/themes/mono/lv_theme_mono.c ****     lv_style_set_bg_color(&styles->scr, COLOR_BG);
  87:Drivers/lvgl/src/extra/themes/mono/lv_theme_mono.c ****     lv_style_set_text_color(&styles->scr, COLOR_FG);
ARM GAS  /var/folders/lp/x54gwt890xv47sdkqj1k04q40000gn/T//cc7THuQy.s 			page 3


  88:Drivers/lvgl/src/extra/themes/mono/lv_theme_mono.c ****     lv_style_set_pad_row(&styles->scr, PAD_DEF);
  89:Drivers/lvgl/src/extra/themes/mono/lv_theme_mono.c ****     lv_style_set_pad_column(&styles->scr, PAD_DEF);
  90:Drivers/lvgl/src/extra/themes/mono/lv_theme_mono.c ****     lv_style_set_text_font(&styles->scr, font);
  91:Drivers/lvgl/src/extra/themes/mono/lv_theme_mono.c **** 
  92:Drivers/lvgl/src/extra/themes/mono/lv_theme_mono.c ****     style_init_reset(&styles->card);
  93:Drivers/lvgl/src/extra/themes/mono/lv_theme_mono.c ****     lv_style_set_bg_opa(&styles->card, LV_OPA_COVER);
  94:Drivers/lvgl/src/extra/themes/mono/lv_theme_mono.c ****     lv_style_set_bg_color(&styles->card, COLOR_BG);
  95:Drivers/lvgl/src/extra/themes/mono/lv_theme_mono.c ****     lv_style_set_border_color(&styles->card, COLOR_FG);
  96:Drivers/lvgl/src/extra/themes/mono/lv_theme_mono.c ****     lv_style_set_radius(&styles->card, 2);
  97:Drivers/lvgl/src/extra/themes/mono/lv_theme_mono.c ****     lv_style_set_border_width(&styles->card, BORDER_W_NORMAL);
  98:Drivers/lvgl/src/extra/themes/mono/lv_theme_mono.c ****     lv_style_set_pad_all(&styles->card, PAD_DEF);
  99:Drivers/lvgl/src/extra/themes/mono/lv_theme_mono.c ****     lv_style_set_pad_gap(&styles->card, PAD_DEF);
 100:Drivers/lvgl/src/extra/themes/mono/lv_theme_mono.c ****     lv_style_set_text_color(&styles->card, COLOR_FG);
 101:Drivers/lvgl/src/extra/themes/mono/lv_theme_mono.c ****     lv_style_set_line_width(&styles->card, 2);
 102:Drivers/lvgl/src/extra/themes/mono/lv_theme_mono.c ****     lv_style_set_line_color(&styles->card, COLOR_FG);
 103:Drivers/lvgl/src/extra/themes/mono/lv_theme_mono.c ****     lv_style_set_arc_width(&styles->card, 2);
 104:Drivers/lvgl/src/extra/themes/mono/lv_theme_mono.c ****     lv_style_set_arc_color(&styles->card, COLOR_FG);
 105:Drivers/lvgl/src/extra/themes/mono/lv_theme_mono.c ****     lv_style_set_outline_color(&styles->card, COLOR_FG);
 106:Drivers/lvgl/src/extra/themes/mono/lv_theme_mono.c ****     lv_style_set_anim_time(&styles->card, 300);
 107:Drivers/lvgl/src/extra/themes/mono/lv_theme_mono.c **** 
 108:Drivers/lvgl/src/extra/themes/mono/lv_theme_mono.c ****     style_init_reset(&styles->pr);
 109:Drivers/lvgl/src/extra/themes/mono/lv_theme_mono.c ****     lv_style_set_border_width(&styles->pr, BORDER_W_PR);
 110:Drivers/lvgl/src/extra/themes/mono/lv_theme_mono.c **** 
 111:Drivers/lvgl/src/extra/themes/mono/lv_theme_mono.c ****     style_init_reset(&styles->inv);
 112:Drivers/lvgl/src/extra/themes/mono/lv_theme_mono.c ****     lv_style_set_bg_opa(&styles->inv, LV_OPA_COVER);
 113:Drivers/lvgl/src/extra/themes/mono/lv_theme_mono.c ****     lv_style_set_bg_color(&styles->inv, COLOR_FG);
 114:Drivers/lvgl/src/extra/themes/mono/lv_theme_mono.c ****     lv_style_set_border_color(&styles->inv, COLOR_BG);
 115:Drivers/lvgl/src/extra/themes/mono/lv_theme_mono.c ****     lv_style_set_line_color(&styles->inv, COLOR_BG);
 116:Drivers/lvgl/src/extra/themes/mono/lv_theme_mono.c ****     lv_style_set_arc_color(&styles->inv, COLOR_BG);
 117:Drivers/lvgl/src/extra/themes/mono/lv_theme_mono.c ****     lv_style_set_text_color(&styles->inv, COLOR_BG);
 118:Drivers/lvgl/src/extra/themes/mono/lv_theme_mono.c ****     lv_style_set_outline_color(&styles->inv, COLOR_BG);
 119:Drivers/lvgl/src/extra/themes/mono/lv_theme_mono.c **** 
 120:Drivers/lvgl/src/extra/themes/mono/lv_theme_mono.c ****     style_init_reset(&styles->disabled);
 121:Drivers/lvgl/src/extra/themes/mono/lv_theme_mono.c ****     lv_style_set_border_width(&styles->disabled, BORDER_W_DIS);
 122:Drivers/lvgl/src/extra/themes/mono/lv_theme_mono.c **** 
 123:Drivers/lvgl/src/extra/themes/mono/lv_theme_mono.c ****     style_init_reset(&styles->focus);
 124:Drivers/lvgl/src/extra/themes/mono/lv_theme_mono.c ****     lv_style_set_outline_width(&styles->focus, 1);
 125:Drivers/lvgl/src/extra/themes/mono/lv_theme_mono.c ****     lv_style_set_outline_pad(&styles->focus, BORDER_W_FOCUS);
 126:Drivers/lvgl/src/extra/themes/mono/lv_theme_mono.c **** 
 127:Drivers/lvgl/src/extra/themes/mono/lv_theme_mono.c ****     style_init_reset(&styles->edit);
 128:Drivers/lvgl/src/extra/themes/mono/lv_theme_mono.c ****     lv_style_set_outline_width(&styles->edit, BORDER_W_EDIT);
 129:Drivers/lvgl/src/extra/themes/mono/lv_theme_mono.c **** 
 130:Drivers/lvgl/src/extra/themes/mono/lv_theme_mono.c ****     style_init_reset(&styles->large_border);
 131:Drivers/lvgl/src/extra/themes/mono/lv_theme_mono.c ****     lv_style_set_border_width(&styles->large_border, BORDER_W_EDIT);
 132:Drivers/lvgl/src/extra/themes/mono/lv_theme_mono.c **** 
 133:Drivers/lvgl/src/extra/themes/mono/lv_theme_mono.c ****     style_init_reset(&styles->pad_gap);
 134:Drivers/lvgl/src/extra/themes/mono/lv_theme_mono.c ****     lv_style_set_pad_gap(&styles->pad_gap, PAD_DEF);
 135:Drivers/lvgl/src/extra/themes/mono/lv_theme_mono.c **** 
 136:Drivers/lvgl/src/extra/themes/mono/lv_theme_mono.c ****     style_init_reset(&styles->pad_zero);
 137:Drivers/lvgl/src/extra/themes/mono/lv_theme_mono.c ****     lv_style_set_pad_all(&styles->pad_zero, 0);
 138:Drivers/lvgl/src/extra/themes/mono/lv_theme_mono.c ****     lv_style_set_pad_gap(&styles->pad_zero, 0);
 139:Drivers/lvgl/src/extra/themes/mono/lv_theme_mono.c **** 
 140:Drivers/lvgl/src/extra/themes/mono/lv_theme_mono.c ****     style_init_reset(&styles->no_radius);
 141:Drivers/lvgl/src/extra/themes/mono/lv_theme_mono.c ****     lv_style_set_radius(&styles->no_radius, 0);
 142:Drivers/lvgl/src/extra/themes/mono/lv_theme_mono.c **** 
 143:Drivers/lvgl/src/extra/themes/mono/lv_theme_mono.c ****     style_init_reset(&styles->radius_circle);
 144:Drivers/lvgl/src/extra/themes/mono/lv_theme_mono.c ****     lv_style_set_radius(&styles->radius_circle, LV_RADIUS_CIRCLE);
ARM GAS  /var/folders/lp/x54gwt890xv47sdkqj1k04q40000gn/T//cc7THuQy.s 			page 4


 145:Drivers/lvgl/src/extra/themes/mono/lv_theme_mono.c **** 
 146:Drivers/lvgl/src/extra/themes/mono/lv_theme_mono.c ****     style_init_reset(&styles->large_line_space);
 147:Drivers/lvgl/src/extra/themes/mono/lv_theme_mono.c ****     lv_style_set_text_line_space(&styles->large_line_space, 6);
 148:Drivers/lvgl/src/extra/themes/mono/lv_theme_mono.c **** 
 149:Drivers/lvgl/src/extra/themes/mono/lv_theme_mono.c ****     style_init_reset(&styles->underline);
 150:Drivers/lvgl/src/extra/themes/mono/lv_theme_mono.c ****     lv_style_set_text_decor(&styles->underline, LV_TEXT_DECOR_UNDERLINE);
 151:Drivers/lvgl/src/extra/themes/mono/lv_theme_mono.c **** 
 152:Drivers/lvgl/src/extra/themes/mono/lv_theme_mono.c **** #if LV_USE_TEXTAREA
 153:Drivers/lvgl/src/extra/themes/mono/lv_theme_mono.c ****     style_init_reset(&styles->ta_cursor);
 154:Drivers/lvgl/src/extra/themes/mono/lv_theme_mono.c ****     lv_style_set_border_side(&styles->ta_cursor, LV_BORDER_SIDE_LEFT);
 155:Drivers/lvgl/src/extra/themes/mono/lv_theme_mono.c ****     lv_style_set_border_color(&styles->ta_cursor, COLOR_FG);
 156:Drivers/lvgl/src/extra/themes/mono/lv_theme_mono.c ****     lv_style_set_border_width(&styles->ta_cursor, 2);
 157:Drivers/lvgl/src/extra/themes/mono/lv_theme_mono.c ****     lv_style_set_bg_opa(&styles->ta_cursor, LV_OPA_TRANSP);
 158:Drivers/lvgl/src/extra/themes/mono/lv_theme_mono.c ****     lv_style_set_anim_time(&styles->ta_cursor, 500);
 159:Drivers/lvgl/src/extra/themes/mono/lv_theme_mono.c **** #endif
 160:Drivers/lvgl/src/extra/themes/mono/lv_theme_mono.c **** }
 161:Drivers/lvgl/src/extra/themes/mono/lv_theme_mono.c **** 
 162:Drivers/lvgl/src/extra/themes/mono/lv_theme_mono.c **** 
 163:Drivers/lvgl/src/extra/themes/mono/lv_theme_mono.c **** /**********************
 164:Drivers/lvgl/src/extra/themes/mono/lv_theme_mono.c ****  *   GLOBAL FUNCTIONS
 165:Drivers/lvgl/src/extra/themes/mono/lv_theme_mono.c ****  **********************/
 166:Drivers/lvgl/src/extra/themes/mono/lv_theme_mono.c **** 
 167:Drivers/lvgl/src/extra/themes/mono/lv_theme_mono.c **** bool lv_theme_mono_is_inited(void)
 168:Drivers/lvgl/src/extra/themes/mono/lv_theme_mono.c **** {
 169:Drivers/lvgl/src/extra/themes/mono/lv_theme_mono.c ****     return  LV_GC_ROOT(_lv_theme_default_styles) == NULL ? false : true;
 170:Drivers/lvgl/src/extra/themes/mono/lv_theme_mono.c **** }
 171:Drivers/lvgl/src/extra/themes/mono/lv_theme_mono.c **** 
 172:Drivers/lvgl/src/extra/themes/mono/lv_theme_mono.c **** lv_theme_t * lv_theme_mono_init(lv_disp_t * disp, bool dark_bg, const lv_font_t * font)
 173:Drivers/lvgl/src/extra/themes/mono/lv_theme_mono.c **** {
 174:Drivers/lvgl/src/extra/themes/mono/lv_theme_mono.c **** 
 175:Drivers/lvgl/src/extra/themes/mono/lv_theme_mono.c ****     /*This trick is required only to avoid the garbage collection of
 176:Drivers/lvgl/src/extra/themes/mono/lv_theme_mono.c ****      *styles' data if LVGL is used in a binding (e.g. Micropython)
 177:Drivers/lvgl/src/extra/themes/mono/lv_theme_mono.c ****      *In a general case styles could be in simple `static lv_style_t my_style...` variables*/
 178:Drivers/lvgl/src/extra/themes/mono/lv_theme_mono.c ****     if(!inited) {
 179:Drivers/lvgl/src/extra/themes/mono/lv_theme_mono.c ****         inited = false;
 180:Drivers/lvgl/src/extra/themes/mono/lv_theme_mono.c ****         LV_GC_ROOT(_lv_theme_default_styles) = lv_mem_alloc(sizeof(my_theme_styles_t));
 181:Drivers/lvgl/src/extra/themes/mono/lv_theme_mono.c ****         styles = (my_theme_styles_t *)LV_GC_ROOT(_lv_theme_default_styles);
 182:Drivers/lvgl/src/extra/themes/mono/lv_theme_mono.c ****     }
 183:Drivers/lvgl/src/extra/themes/mono/lv_theme_mono.c **** 
 184:Drivers/lvgl/src/extra/themes/mono/lv_theme_mono.c ****     theme.disp = disp;
 185:Drivers/lvgl/src/extra/themes/mono/lv_theme_mono.c ****     theme.font_small = LV_FONT_DEFAULT;
 186:Drivers/lvgl/src/extra/themes/mono/lv_theme_mono.c ****     theme.font_normal = LV_FONT_DEFAULT;
 187:Drivers/lvgl/src/extra/themes/mono/lv_theme_mono.c ****     theme.font_large = LV_FONT_DEFAULT;
 188:Drivers/lvgl/src/extra/themes/mono/lv_theme_mono.c ****     theme.apply_cb = theme_apply;
 189:Drivers/lvgl/src/extra/themes/mono/lv_theme_mono.c **** 
 190:Drivers/lvgl/src/extra/themes/mono/lv_theme_mono.c ****     style_init(dark_bg, font);
 191:Drivers/lvgl/src/extra/themes/mono/lv_theme_mono.c **** 
 192:Drivers/lvgl/src/extra/themes/mono/lv_theme_mono.c ****     if(disp == NULL || lv_disp_get_theme(disp) == &theme) lv_obj_report_style_change(NULL);
 193:Drivers/lvgl/src/extra/themes/mono/lv_theme_mono.c **** 
 194:Drivers/lvgl/src/extra/themes/mono/lv_theme_mono.c ****     inited = true;
 195:Drivers/lvgl/src/extra/themes/mono/lv_theme_mono.c **** 
 196:Drivers/lvgl/src/extra/themes/mono/lv_theme_mono.c ****     return (lv_theme_t *)&theme;
 197:Drivers/lvgl/src/extra/themes/mono/lv_theme_mono.c **** }
 198:Drivers/lvgl/src/extra/themes/mono/lv_theme_mono.c **** 
 199:Drivers/lvgl/src/extra/themes/mono/lv_theme_mono.c **** 
 200:Drivers/lvgl/src/extra/themes/mono/lv_theme_mono.c **** static void theme_apply(lv_theme_t * th, lv_obj_t * obj)
 201:Drivers/lvgl/src/extra/themes/mono/lv_theme_mono.c **** {
ARM GAS  /var/folders/lp/x54gwt890xv47sdkqj1k04q40000gn/T//cc7THuQy.s 			page 5


  29              		.loc 1 201 1 view -0
  30              		.cfi_startproc
  31              		@ args = 0, pretend = 0, frame = 0
  32              		@ frame_needed = 0, uses_anonymous_args = 0
  33              		.loc 1 201 1 is_stmt 0 view .LVU1
  34 0000 70B5     		push	{r4, r5, r6, lr}
  35              		.cfi_def_cfa_offset 16
  36              		.cfi_offset 4, -16
  37              		.cfi_offset 5, -12
  38              		.cfi_offset 6, -8
  39              		.cfi_offset 14, -4
  40 0002 0C46     		mov	r4, r1
 202:Drivers/lvgl/src/extra/themes/mono/lv_theme_mono.c ****     LV_UNUSED(th);
  41              		.loc 1 202 5 is_stmt 1 view .LVU2
 203:Drivers/lvgl/src/extra/themes/mono/lv_theme_mono.c **** 
 204:Drivers/lvgl/src/extra/themes/mono/lv_theme_mono.c ****     if(lv_obj_get_parent(obj) == NULL) {
  42              		.loc 1 204 5 view .LVU3
  43              		.loc 1 204 8 is_stmt 0 view .LVU4
  44 0004 0846     		mov	r0, r1
  45              	.LVL1:
  46              		.loc 1 204 8 view .LVU5
  47 0006 FFF7FEFF 		bl	lv_obj_get_parent
  48              	.LVL2:
  49              		.loc 1 204 7 discriminator 1 view .LVU6
  50 000a 70B1     		cbz	r0, .L33
 205:Drivers/lvgl/src/extra/themes/mono/lv_theme_mono.c ****         lv_obj_add_style(obj, &styles->scr, 0);
 206:Drivers/lvgl/src/extra/themes/mono/lv_theme_mono.c ****         lv_obj_add_style(obj, &styles->scrollbar, LV_PART_SCROLLBAR);
 207:Drivers/lvgl/src/extra/themes/mono/lv_theme_mono.c ****         return;
 208:Drivers/lvgl/src/extra/themes/mono/lv_theme_mono.c ****     }
 209:Drivers/lvgl/src/extra/themes/mono/lv_theme_mono.c **** 
 210:Drivers/lvgl/src/extra/themes/mono/lv_theme_mono.c ****     if(lv_obj_check_type(obj, &lv_obj_class)) {
  51              		.loc 1 210 5 is_stmt 1 view .LVU7
  52              		.loc 1 210 8 is_stmt 0 view .LVU8
  53 000c BA49     		ldr	r1, .L42
  54 000e 2046     		mov	r0, r4
  55 0010 FFF7FEFF 		bl	lv_obj_check_type
  56              	.LVL3:
  57              		.loc 1 210 7 discriminator 1 view .LVU9
  58 0014 0028     		cmp	r0, #0
  59 0016 7CD0     		beq	.L4
  60              	.LBB134:
 211:Drivers/lvgl/src/extra/themes/mono/lv_theme_mono.c **** #if LV_USE_TABVIEW
 212:Drivers/lvgl/src/extra/themes/mono/lv_theme_mono.c ****         lv_obj_t * parent = lv_obj_get_parent(obj);
  61              		.loc 1 212 9 is_stmt 1 view .LVU10
  62              		.loc 1 212 29 is_stmt 0 view .LVU11
  63 0018 2046     		mov	r0, r4
  64 001a FFF7FEFF 		bl	lv_obj_get_parent
  65              	.LVL4:
  66 001e 0546     		mov	r5, r0
  67              	.LVL5:
 213:Drivers/lvgl/src/extra/themes/mono/lv_theme_mono.c ****         /*Tabview content area*/
 214:Drivers/lvgl/src/extra/themes/mono/lv_theme_mono.c ****         if(lv_obj_check_type(parent, &lv_tabview_class)) {
  68              		.loc 1 214 9 is_stmt 1 view .LVU12
  69              		.loc 1 214 12 is_stmt 0 view .LVU13
  70 0020 B649     		ldr	r1, .L42+4
  71 0022 FFF7FEFF 		bl	lv_obj_check_type
  72              	.LVL6:
ARM GAS  /var/folders/lp/x54gwt890xv47sdkqj1k04q40000gn/T//cc7THuQy.s 			page 6


  73              		.loc 1 214 11 discriminator 1 view .LVU14
  74 0026 70B1     		cbz	r0, .L34
  75              	.LVL7:
  76              	.L1:
  77              		.loc 1 214 11 discriminator 1 view .LVU15
  78              	.LBE134:
 215:Drivers/lvgl/src/extra/themes/mono/lv_theme_mono.c ****             return;
 216:Drivers/lvgl/src/extra/themes/mono/lv_theme_mono.c ****         }
 217:Drivers/lvgl/src/extra/themes/mono/lv_theme_mono.c ****         /*Tabview pages*/
 218:Drivers/lvgl/src/extra/themes/mono/lv_theme_mono.c ****         else if(lv_obj_check_type(lv_obj_get_parent(parent), &lv_tabview_class)) {
 219:Drivers/lvgl/src/extra/themes/mono/lv_theme_mono.c ****             lv_obj_add_style(obj, &styles->card, 0);
 220:Drivers/lvgl/src/extra/themes/mono/lv_theme_mono.c ****             lv_obj_add_style(obj, &styles->no_radius, 0);
 221:Drivers/lvgl/src/extra/themes/mono/lv_theme_mono.c ****             lv_obj_add_style(obj, &styles->scrollbar, LV_PART_SCROLLBAR);
 222:Drivers/lvgl/src/extra/themes/mono/lv_theme_mono.c ****             return;
 223:Drivers/lvgl/src/extra/themes/mono/lv_theme_mono.c ****         }
 224:Drivers/lvgl/src/extra/themes/mono/lv_theme_mono.c **** #endif
 225:Drivers/lvgl/src/extra/themes/mono/lv_theme_mono.c **** 
 226:Drivers/lvgl/src/extra/themes/mono/lv_theme_mono.c **** #if LV_USE_WIN
 227:Drivers/lvgl/src/extra/themes/mono/lv_theme_mono.c ****         /*Header*/
 228:Drivers/lvgl/src/extra/themes/mono/lv_theme_mono.c ****         if(lv_obj_get_index(obj) == 0 && lv_obj_check_type(lv_obj_get_parent(obj), &lv_win_class)) 
 229:Drivers/lvgl/src/extra/themes/mono/lv_theme_mono.c ****             lv_obj_add_style(obj, &styles->card, 0);
 230:Drivers/lvgl/src/extra/themes/mono/lv_theme_mono.c ****             lv_obj_add_style(obj, &styles->no_radius, 0);
 231:Drivers/lvgl/src/extra/themes/mono/lv_theme_mono.c ****             return;
 232:Drivers/lvgl/src/extra/themes/mono/lv_theme_mono.c ****         }
 233:Drivers/lvgl/src/extra/themes/mono/lv_theme_mono.c ****         /*Content*/
 234:Drivers/lvgl/src/extra/themes/mono/lv_theme_mono.c ****         else if(lv_obj_get_index(obj) == 1 && lv_obj_check_type(lv_obj_get_parent(obj), &lv_win_cla
 235:Drivers/lvgl/src/extra/themes/mono/lv_theme_mono.c ****             lv_obj_add_style(obj, &styles->card, 0);
 236:Drivers/lvgl/src/extra/themes/mono/lv_theme_mono.c ****             lv_obj_add_style(obj, &styles->no_radius, 0);
 237:Drivers/lvgl/src/extra/themes/mono/lv_theme_mono.c ****             lv_obj_add_style(obj, &styles->scrollbar, LV_PART_SCROLLBAR);
 238:Drivers/lvgl/src/extra/themes/mono/lv_theme_mono.c ****             return;
 239:Drivers/lvgl/src/extra/themes/mono/lv_theme_mono.c ****         }
 240:Drivers/lvgl/src/extra/themes/mono/lv_theme_mono.c **** #endif
 241:Drivers/lvgl/src/extra/themes/mono/lv_theme_mono.c ****         lv_obj_add_style(obj, &styles->card, 0);
 242:Drivers/lvgl/src/extra/themes/mono/lv_theme_mono.c ****         lv_obj_add_style(obj, &styles->scrollbar, LV_PART_SCROLLBAR);
 243:Drivers/lvgl/src/extra/themes/mono/lv_theme_mono.c ****     }
 244:Drivers/lvgl/src/extra/themes/mono/lv_theme_mono.c **** #if LV_USE_BTN
 245:Drivers/lvgl/src/extra/themes/mono/lv_theme_mono.c ****     else if(lv_obj_check_type(obj, &lv_btn_class)) {
 246:Drivers/lvgl/src/extra/themes/mono/lv_theme_mono.c ****         lv_obj_add_style(obj, &styles->card, 0);
 247:Drivers/lvgl/src/extra/themes/mono/lv_theme_mono.c ****         lv_obj_add_style(obj, &styles->pr, LV_STATE_PRESSED);
 248:Drivers/lvgl/src/extra/themes/mono/lv_theme_mono.c ****         lv_obj_add_style(obj, &styles->inv, LV_STATE_CHECKED);
 249:Drivers/lvgl/src/extra/themes/mono/lv_theme_mono.c ****         lv_obj_add_style(obj, &styles->disabled, LV_STATE_DISABLED);
 250:Drivers/lvgl/src/extra/themes/mono/lv_theme_mono.c ****         lv_obj_add_style(obj, &styles->focus, LV_STATE_FOCUS_KEY);
 251:Drivers/lvgl/src/extra/themes/mono/lv_theme_mono.c ****         lv_obj_add_style(obj, &styles->edit, LV_STATE_EDITED);
 252:Drivers/lvgl/src/extra/themes/mono/lv_theme_mono.c ****     }
 253:Drivers/lvgl/src/extra/themes/mono/lv_theme_mono.c **** #endif
 254:Drivers/lvgl/src/extra/themes/mono/lv_theme_mono.c **** 
 255:Drivers/lvgl/src/extra/themes/mono/lv_theme_mono.c **** #if LV_USE_BTNMATRIX
 256:Drivers/lvgl/src/extra/themes/mono/lv_theme_mono.c ****     else if(lv_obj_check_type(obj, &lv_btnmatrix_class)) {
 257:Drivers/lvgl/src/extra/themes/mono/lv_theme_mono.c **** #if LV_USE_MSGBOX
 258:Drivers/lvgl/src/extra/themes/mono/lv_theme_mono.c ****         if(lv_obj_check_type(lv_obj_get_parent(obj), &lv_msgbox_class)) {
 259:Drivers/lvgl/src/extra/themes/mono/lv_theme_mono.c ****             lv_obj_add_style(obj, &styles->pad_gap, 0);
 260:Drivers/lvgl/src/extra/themes/mono/lv_theme_mono.c ****             lv_obj_add_style(obj, &styles->card, LV_PART_ITEMS);
 261:Drivers/lvgl/src/extra/themes/mono/lv_theme_mono.c ****             lv_obj_add_style(obj, &styles->pr, LV_PART_ITEMS | LV_STATE_PRESSED);
 262:Drivers/lvgl/src/extra/themes/mono/lv_theme_mono.c ****             lv_obj_add_style(obj, &styles->disabled, LV_PART_ITEMS | LV_STATE_DISABLED);
 263:Drivers/lvgl/src/extra/themes/mono/lv_theme_mono.c ****             lv_obj_add_style(obj, &styles->underline, LV_PART_ITEMS | LV_STATE_FOCUS_KEY);
 264:Drivers/lvgl/src/extra/themes/mono/lv_theme_mono.c ****             lv_obj_add_style(obj, &styles->large_border, LV_PART_ITEMS | LV_STATE_FOCUS_KEY);
 265:Drivers/lvgl/src/extra/themes/mono/lv_theme_mono.c ****             return;
ARM GAS  /var/folders/lp/x54gwt890xv47sdkqj1k04q40000gn/T//cc7THuQy.s 			page 7


 266:Drivers/lvgl/src/extra/themes/mono/lv_theme_mono.c ****         }
 267:Drivers/lvgl/src/extra/themes/mono/lv_theme_mono.c **** #endif
 268:Drivers/lvgl/src/extra/themes/mono/lv_theme_mono.c **** #if LV_USE_TABVIEW
 269:Drivers/lvgl/src/extra/themes/mono/lv_theme_mono.c ****         if(lv_obj_check_type(lv_obj_get_parent(obj), &lv_tabview_class)) {
 270:Drivers/lvgl/src/extra/themes/mono/lv_theme_mono.c ****             lv_obj_add_style(obj, &styles->pad_gap, 0);
 271:Drivers/lvgl/src/extra/themes/mono/lv_theme_mono.c ****             lv_obj_add_style(obj, &styles->card, LV_PART_ITEMS);
 272:Drivers/lvgl/src/extra/themes/mono/lv_theme_mono.c ****             lv_obj_add_style(obj, &styles->pr, LV_PART_ITEMS | LV_STATE_PRESSED);
 273:Drivers/lvgl/src/extra/themes/mono/lv_theme_mono.c ****             lv_obj_add_style(obj, &styles->inv, LV_PART_ITEMS | LV_STATE_CHECKED);
 274:Drivers/lvgl/src/extra/themes/mono/lv_theme_mono.c ****             lv_obj_add_style(obj, &styles->disabled, LV_PART_ITEMS | LV_STATE_DISABLED);
 275:Drivers/lvgl/src/extra/themes/mono/lv_theme_mono.c ****             lv_obj_add_style(obj, &styles->focus, LV_STATE_FOCUS_KEY);
 276:Drivers/lvgl/src/extra/themes/mono/lv_theme_mono.c ****             lv_obj_add_style(obj, &styles->underline, LV_PART_ITEMS | LV_STATE_FOCUS_KEY);
 277:Drivers/lvgl/src/extra/themes/mono/lv_theme_mono.c ****             lv_obj_add_style(obj, &styles->large_border, LV_PART_ITEMS | LV_STATE_FOCUS_KEY);
 278:Drivers/lvgl/src/extra/themes/mono/lv_theme_mono.c ****             return;
 279:Drivers/lvgl/src/extra/themes/mono/lv_theme_mono.c ****         }
 280:Drivers/lvgl/src/extra/themes/mono/lv_theme_mono.c **** #endif
 281:Drivers/lvgl/src/extra/themes/mono/lv_theme_mono.c ****         lv_obj_add_style(obj, &styles->card, 0);
 282:Drivers/lvgl/src/extra/themes/mono/lv_theme_mono.c ****         lv_obj_add_style(obj, &styles->focus, LV_STATE_FOCUS_KEY);
 283:Drivers/lvgl/src/extra/themes/mono/lv_theme_mono.c ****         lv_obj_add_style(obj, &styles->card, LV_PART_ITEMS);
 284:Drivers/lvgl/src/extra/themes/mono/lv_theme_mono.c ****         lv_obj_add_style(obj, &styles->pr, LV_PART_ITEMS | LV_STATE_PRESSED);
 285:Drivers/lvgl/src/extra/themes/mono/lv_theme_mono.c ****         lv_obj_add_style(obj, &styles->inv, LV_PART_ITEMS | LV_STATE_CHECKED);
 286:Drivers/lvgl/src/extra/themes/mono/lv_theme_mono.c ****         lv_obj_add_style(obj, &styles->disabled, LV_PART_ITEMS | LV_STATE_DISABLED);
 287:Drivers/lvgl/src/extra/themes/mono/lv_theme_mono.c ****         lv_obj_add_style(obj, &styles->underline, LV_PART_ITEMS | LV_STATE_FOCUS_KEY);
 288:Drivers/lvgl/src/extra/themes/mono/lv_theme_mono.c ****         lv_obj_add_style(obj, &styles->large_border, LV_PART_ITEMS | LV_STATE_FOCUS_KEY);
 289:Drivers/lvgl/src/extra/themes/mono/lv_theme_mono.c ****     }
 290:Drivers/lvgl/src/extra/themes/mono/lv_theme_mono.c **** #endif
 291:Drivers/lvgl/src/extra/themes/mono/lv_theme_mono.c **** 
 292:Drivers/lvgl/src/extra/themes/mono/lv_theme_mono.c **** #if LV_USE_BAR
 293:Drivers/lvgl/src/extra/themes/mono/lv_theme_mono.c ****     else if(lv_obj_check_type(obj, &lv_bar_class)) {
 294:Drivers/lvgl/src/extra/themes/mono/lv_theme_mono.c ****         lv_obj_add_style(obj, &styles->card, 0);
 295:Drivers/lvgl/src/extra/themes/mono/lv_theme_mono.c ****         lv_obj_add_style(obj, &styles->pad_zero, 0);
 296:Drivers/lvgl/src/extra/themes/mono/lv_theme_mono.c ****         lv_obj_add_style(obj, &styles->inv, LV_PART_INDICATOR);
 297:Drivers/lvgl/src/extra/themes/mono/lv_theme_mono.c ****         lv_obj_add_style(obj, &styles->focus, LV_STATE_FOCUS_KEY);
 298:Drivers/lvgl/src/extra/themes/mono/lv_theme_mono.c ****     }
 299:Drivers/lvgl/src/extra/themes/mono/lv_theme_mono.c **** #endif
 300:Drivers/lvgl/src/extra/themes/mono/lv_theme_mono.c **** 
 301:Drivers/lvgl/src/extra/themes/mono/lv_theme_mono.c **** #if LV_USE_SLIDER
 302:Drivers/lvgl/src/extra/themes/mono/lv_theme_mono.c ****     else if(lv_obj_check_type(obj, &lv_slider_class)) {
 303:Drivers/lvgl/src/extra/themes/mono/lv_theme_mono.c ****         lv_obj_add_style(obj, &styles->card, 0);
 304:Drivers/lvgl/src/extra/themes/mono/lv_theme_mono.c ****         lv_obj_add_style(obj, &styles->pad_zero, 0);
 305:Drivers/lvgl/src/extra/themes/mono/lv_theme_mono.c ****         lv_obj_add_style(obj, &styles->inv, LV_PART_INDICATOR);
 306:Drivers/lvgl/src/extra/themes/mono/lv_theme_mono.c ****         lv_obj_add_style(obj, &styles->card, LV_PART_KNOB);
 307:Drivers/lvgl/src/extra/themes/mono/lv_theme_mono.c ****         lv_obj_add_style(obj, &styles->radius_circle, LV_PART_KNOB);
 308:Drivers/lvgl/src/extra/themes/mono/lv_theme_mono.c ****         lv_obj_add_style(obj, &styles->focus, LV_STATE_FOCUS_KEY);
 309:Drivers/lvgl/src/extra/themes/mono/lv_theme_mono.c ****         lv_obj_add_style(obj, &styles->edit, LV_STATE_EDITED);
 310:Drivers/lvgl/src/extra/themes/mono/lv_theme_mono.c ****     }
 311:Drivers/lvgl/src/extra/themes/mono/lv_theme_mono.c **** #endif
 312:Drivers/lvgl/src/extra/themes/mono/lv_theme_mono.c **** 
 313:Drivers/lvgl/src/extra/themes/mono/lv_theme_mono.c **** #if LV_USE_TABLE
 314:Drivers/lvgl/src/extra/themes/mono/lv_theme_mono.c ****     else if(lv_obj_check_type(obj, &lv_table_class)) {
 315:Drivers/lvgl/src/extra/themes/mono/lv_theme_mono.c ****         lv_obj_add_style(obj, &styles->scrollbar, LV_PART_SCROLLBAR);
 316:Drivers/lvgl/src/extra/themes/mono/lv_theme_mono.c ****         lv_obj_add_style(obj, &styles->card, LV_PART_ITEMS);
 317:Drivers/lvgl/src/extra/themes/mono/lv_theme_mono.c ****         lv_obj_add_style(obj, &styles->no_radius, LV_PART_ITEMS);
 318:Drivers/lvgl/src/extra/themes/mono/lv_theme_mono.c ****         lv_obj_add_style(obj, &styles->pr, LV_PART_ITEMS | LV_STATE_PRESSED);
 319:Drivers/lvgl/src/extra/themes/mono/lv_theme_mono.c ****         lv_obj_add_style(obj, &styles->focus, LV_STATE_FOCUS_KEY);
 320:Drivers/lvgl/src/extra/themes/mono/lv_theme_mono.c ****         lv_obj_add_style(obj, &styles->inv, LV_PART_ITEMS | LV_STATE_FOCUS_KEY);
 321:Drivers/lvgl/src/extra/themes/mono/lv_theme_mono.c ****         lv_obj_add_style(obj, &styles->edit, LV_STATE_EDITED);
 322:Drivers/lvgl/src/extra/themes/mono/lv_theme_mono.c ****     }
ARM GAS  /var/folders/lp/x54gwt890xv47sdkqj1k04q40000gn/T//cc7THuQy.s 			page 8


 323:Drivers/lvgl/src/extra/themes/mono/lv_theme_mono.c **** #endif
 324:Drivers/lvgl/src/extra/themes/mono/lv_theme_mono.c **** 
 325:Drivers/lvgl/src/extra/themes/mono/lv_theme_mono.c **** #if LV_USE_CHECKBOX
 326:Drivers/lvgl/src/extra/themes/mono/lv_theme_mono.c ****     else if(lv_obj_check_type(obj, &lv_checkbox_class)) {
 327:Drivers/lvgl/src/extra/themes/mono/lv_theme_mono.c ****         lv_obj_add_style(obj, &styles->pad_gap, LV_PART_MAIN);
 328:Drivers/lvgl/src/extra/themes/mono/lv_theme_mono.c ****         lv_obj_add_style(obj, &styles->card, LV_PART_INDICATOR);
 329:Drivers/lvgl/src/extra/themes/mono/lv_theme_mono.c ****         lv_obj_add_style(obj, &styles->disabled, LV_PART_INDICATOR | LV_STATE_DISABLED);
 330:Drivers/lvgl/src/extra/themes/mono/lv_theme_mono.c ****         lv_obj_add_style(obj, &styles->inv, LV_PART_INDICATOR | LV_STATE_CHECKED);
 331:Drivers/lvgl/src/extra/themes/mono/lv_theme_mono.c ****         lv_obj_add_style(obj, &styles->pr, LV_PART_INDICATOR | LV_STATE_PRESSED);
 332:Drivers/lvgl/src/extra/themes/mono/lv_theme_mono.c ****         lv_obj_add_style(obj, &styles->focus, LV_STATE_FOCUS_KEY);
 333:Drivers/lvgl/src/extra/themes/mono/lv_theme_mono.c ****         lv_obj_add_style(obj, &styles->edit, LV_STATE_EDITED);
 334:Drivers/lvgl/src/extra/themes/mono/lv_theme_mono.c ****     }
 335:Drivers/lvgl/src/extra/themes/mono/lv_theme_mono.c **** #endif
 336:Drivers/lvgl/src/extra/themes/mono/lv_theme_mono.c **** 
 337:Drivers/lvgl/src/extra/themes/mono/lv_theme_mono.c **** #if LV_USE_SWITCH
 338:Drivers/lvgl/src/extra/themes/mono/lv_theme_mono.c ****     else if(lv_obj_check_type(obj, &lv_switch_class)) {
 339:Drivers/lvgl/src/extra/themes/mono/lv_theme_mono.c ****         lv_obj_add_style(obj, &styles->card, 0);
 340:Drivers/lvgl/src/extra/themes/mono/lv_theme_mono.c ****         lv_obj_add_style(obj, &styles->radius_circle, 0);
 341:Drivers/lvgl/src/extra/themes/mono/lv_theme_mono.c ****         lv_obj_add_style(obj, &styles->pad_zero, 0);
 342:Drivers/lvgl/src/extra/themes/mono/lv_theme_mono.c ****         lv_obj_add_style(obj, &styles->inv, LV_PART_INDICATOR);
 343:Drivers/lvgl/src/extra/themes/mono/lv_theme_mono.c ****         lv_obj_add_style(obj, &styles->radius_circle, LV_PART_INDICATOR);
 344:Drivers/lvgl/src/extra/themes/mono/lv_theme_mono.c ****         lv_obj_add_style(obj, &styles->card, LV_PART_KNOB);
 345:Drivers/lvgl/src/extra/themes/mono/lv_theme_mono.c ****         lv_obj_add_style(obj, &styles->radius_circle, LV_PART_KNOB);
 346:Drivers/lvgl/src/extra/themes/mono/lv_theme_mono.c ****         lv_obj_add_style(obj, &styles->pad_zero, LV_PART_KNOB);
 347:Drivers/lvgl/src/extra/themes/mono/lv_theme_mono.c ****         lv_obj_add_style(obj, &styles->focus, LV_STATE_FOCUS_KEY);
 348:Drivers/lvgl/src/extra/themes/mono/lv_theme_mono.c ****         lv_obj_add_style(obj, &styles->edit, LV_STATE_EDITED);
 349:Drivers/lvgl/src/extra/themes/mono/lv_theme_mono.c ****     }
 350:Drivers/lvgl/src/extra/themes/mono/lv_theme_mono.c **** #endif
 351:Drivers/lvgl/src/extra/themes/mono/lv_theme_mono.c **** 
 352:Drivers/lvgl/src/extra/themes/mono/lv_theme_mono.c **** #if LV_USE_CHART
 353:Drivers/lvgl/src/extra/themes/mono/lv_theme_mono.c ****     else if(lv_obj_check_type(obj, &lv_chart_class)) {
 354:Drivers/lvgl/src/extra/themes/mono/lv_theme_mono.c ****         lv_obj_add_style(obj, &styles->card, 0);
 355:Drivers/lvgl/src/extra/themes/mono/lv_theme_mono.c ****         lv_obj_add_style(obj, &styles->scrollbar, LV_PART_SCROLLBAR);
 356:Drivers/lvgl/src/extra/themes/mono/lv_theme_mono.c ****         lv_obj_add_style(obj, &styles->card, LV_PART_ITEMS);
 357:Drivers/lvgl/src/extra/themes/mono/lv_theme_mono.c ****         lv_obj_add_style(obj, &styles->card, LV_PART_TICKS);
 358:Drivers/lvgl/src/extra/themes/mono/lv_theme_mono.c ****         lv_obj_add_style(obj, &styles->card, LV_PART_CURSOR);
 359:Drivers/lvgl/src/extra/themes/mono/lv_theme_mono.c ****         lv_obj_add_style(obj, &styles->focus, LV_STATE_FOCUS_KEY);
 360:Drivers/lvgl/src/extra/themes/mono/lv_theme_mono.c ****     }
 361:Drivers/lvgl/src/extra/themes/mono/lv_theme_mono.c **** #endif
 362:Drivers/lvgl/src/extra/themes/mono/lv_theme_mono.c **** 
 363:Drivers/lvgl/src/extra/themes/mono/lv_theme_mono.c **** #if LV_USE_ROLLER
 364:Drivers/lvgl/src/extra/themes/mono/lv_theme_mono.c ****     else if(lv_obj_check_type(obj, &lv_roller_class)) {
 365:Drivers/lvgl/src/extra/themes/mono/lv_theme_mono.c ****         lv_obj_add_style(obj, &styles->card, 0);
 366:Drivers/lvgl/src/extra/themes/mono/lv_theme_mono.c ****         lv_obj_add_style(obj, &styles->large_line_space, 0);
 367:Drivers/lvgl/src/extra/themes/mono/lv_theme_mono.c ****         lv_obj_add_style(obj, &styles->inv, LV_PART_SELECTED);
 368:Drivers/lvgl/src/extra/themes/mono/lv_theme_mono.c ****         lv_obj_add_style(obj, &styles->focus, LV_STATE_FOCUS_KEY);
 369:Drivers/lvgl/src/extra/themes/mono/lv_theme_mono.c ****         lv_obj_add_style(obj, &styles->edit, LV_STATE_EDITED);
 370:Drivers/lvgl/src/extra/themes/mono/lv_theme_mono.c ****     }
 371:Drivers/lvgl/src/extra/themes/mono/lv_theme_mono.c **** #endif
 372:Drivers/lvgl/src/extra/themes/mono/lv_theme_mono.c **** 
 373:Drivers/lvgl/src/extra/themes/mono/lv_theme_mono.c **** #if LV_USE_DROPDOWN
 374:Drivers/lvgl/src/extra/themes/mono/lv_theme_mono.c ****     else if(lv_obj_check_type(obj, &lv_dropdown_class)) {
 375:Drivers/lvgl/src/extra/themes/mono/lv_theme_mono.c ****         lv_obj_add_style(obj, &styles->card, 0);
 376:Drivers/lvgl/src/extra/themes/mono/lv_theme_mono.c ****         lv_obj_add_style(obj, &styles->pr, LV_STATE_PRESSED);
 377:Drivers/lvgl/src/extra/themes/mono/lv_theme_mono.c ****         lv_obj_add_style(obj, &styles->focus, LV_STATE_FOCUS_KEY);
 378:Drivers/lvgl/src/extra/themes/mono/lv_theme_mono.c ****         lv_obj_add_style(obj, &styles->edit, LV_STATE_EDITED);
 379:Drivers/lvgl/src/extra/themes/mono/lv_theme_mono.c ****     }
ARM GAS  /var/folders/lp/x54gwt890xv47sdkqj1k04q40000gn/T//cc7THuQy.s 			page 9


 380:Drivers/lvgl/src/extra/themes/mono/lv_theme_mono.c ****     else if(lv_obj_check_type(obj, &lv_dropdownlist_class)) {
 381:Drivers/lvgl/src/extra/themes/mono/lv_theme_mono.c ****         lv_obj_add_style(obj, &styles->card, 0);
 382:Drivers/lvgl/src/extra/themes/mono/lv_theme_mono.c ****         lv_obj_add_style(obj, &styles->large_line_space, 0);
 383:Drivers/lvgl/src/extra/themes/mono/lv_theme_mono.c ****         lv_obj_add_style(obj, &styles->scrollbar, LV_PART_SCROLLBAR);
 384:Drivers/lvgl/src/extra/themes/mono/lv_theme_mono.c ****         lv_obj_add_style(obj, &styles->inv, LV_PART_SELECTED | LV_STATE_CHECKED);
 385:Drivers/lvgl/src/extra/themes/mono/lv_theme_mono.c ****         lv_obj_add_style(obj, &styles->pr, LV_PART_SELECTED | LV_STATE_PRESSED);
 386:Drivers/lvgl/src/extra/themes/mono/lv_theme_mono.c ****         lv_obj_add_style(obj, &styles->focus, LV_STATE_FOCUS_KEY);
 387:Drivers/lvgl/src/extra/themes/mono/lv_theme_mono.c ****         lv_obj_add_style(obj, &styles->edit, LV_STATE_EDITED);
 388:Drivers/lvgl/src/extra/themes/mono/lv_theme_mono.c ****     }
 389:Drivers/lvgl/src/extra/themes/mono/lv_theme_mono.c **** #endif
 390:Drivers/lvgl/src/extra/themes/mono/lv_theme_mono.c **** 
 391:Drivers/lvgl/src/extra/themes/mono/lv_theme_mono.c **** #if LV_USE_ARC
 392:Drivers/lvgl/src/extra/themes/mono/lv_theme_mono.c ****     else if(lv_obj_check_type(obj, &lv_arc_class)) {
 393:Drivers/lvgl/src/extra/themes/mono/lv_theme_mono.c ****         lv_obj_add_style(obj, &styles->card, 0);
 394:Drivers/lvgl/src/extra/themes/mono/lv_theme_mono.c ****         lv_obj_add_style(obj, &styles->inv, LV_PART_INDICATOR);
 395:Drivers/lvgl/src/extra/themes/mono/lv_theme_mono.c ****         lv_obj_add_style(obj, &styles->pad_zero, LV_PART_INDICATOR);
 396:Drivers/lvgl/src/extra/themes/mono/lv_theme_mono.c ****         lv_obj_add_style(obj, &styles->card, LV_PART_KNOB);
 397:Drivers/lvgl/src/extra/themes/mono/lv_theme_mono.c ****         lv_obj_add_style(obj, &styles->radius_circle, LV_PART_KNOB);
 398:Drivers/lvgl/src/extra/themes/mono/lv_theme_mono.c ****         lv_obj_add_style(obj, &styles->focus, LV_STATE_FOCUS_KEY);
 399:Drivers/lvgl/src/extra/themes/mono/lv_theme_mono.c ****         lv_obj_add_style(obj, &styles->edit, LV_STATE_EDITED);
 400:Drivers/lvgl/src/extra/themes/mono/lv_theme_mono.c ****     }
 401:Drivers/lvgl/src/extra/themes/mono/lv_theme_mono.c **** #endif
 402:Drivers/lvgl/src/extra/themes/mono/lv_theme_mono.c **** 
 403:Drivers/lvgl/src/extra/themes/mono/lv_theme_mono.c **** #if LV_USE_METER
 404:Drivers/lvgl/src/extra/themes/mono/lv_theme_mono.c ****     else if(lv_obj_check_type(obj, &lv_meter_class)) {
 405:Drivers/lvgl/src/extra/themes/mono/lv_theme_mono.c ****         lv_obj_add_style(obj, &styles->card, 0);
 406:Drivers/lvgl/src/extra/themes/mono/lv_theme_mono.c ****     }
 407:Drivers/lvgl/src/extra/themes/mono/lv_theme_mono.c **** #endif
 408:Drivers/lvgl/src/extra/themes/mono/lv_theme_mono.c **** 
 409:Drivers/lvgl/src/extra/themes/mono/lv_theme_mono.c **** #if LV_USE_TEXTAREA
 410:Drivers/lvgl/src/extra/themes/mono/lv_theme_mono.c ****     else if(lv_obj_check_type(obj, &lv_textarea_class)) {
 411:Drivers/lvgl/src/extra/themes/mono/lv_theme_mono.c ****         lv_obj_add_style(obj, &styles->card, 0);
 412:Drivers/lvgl/src/extra/themes/mono/lv_theme_mono.c ****         lv_obj_add_style(obj, &styles->scrollbar, LV_PART_SCROLLBAR);
 413:Drivers/lvgl/src/extra/themes/mono/lv_theme_mono.c ****         lv_obj_add_style(obj, &styles->ta_cursor, LV_PART_CURSOR | LV_STATE_FOCUSED);
 414:Drivers/lvgl/src/extra/themes/mono/lv_theme_mono.c ****         lv_obj_add_style(obj, &styles->focus, LV_STATE_FOCUSED);
 415:Drivers/lvgl/src/extra/themes/mono/lv_theme_mono.c ****         lv_obj_add_style(obj, &styles->edit, LV_STATE_EDITED);
 416:Drivers/lvgl/src/extra/themes/mono/lv_theme_mono.c ****     }
 417:Drivers/lvgl/src/extra/themes/mono/lv_theme_mono.c **** #endif
 418:Drivers/lvgl/src/extra/themes/mono/lv_theme_mono.c **** 
 419:Drivers/lvgl/src/extra/themes/mono/lv_theme_mono.c **** #if LV_USE_CALENDAR
 420:Drivers/lvgl/src/extra/themes/mono/lv_theme_mono.c ****     else if(lv_obj_check_type(obj, &lv_calendar_class)) {
 421:Drivers/lvgl/src/extra/themes/mono/lv_theme_mono.c ****         lv_obj_add_style(obj, &styles->card, 0);
 422:Drivers/lvgl/src/extra/themes/mono/lv_theme_mono.c ****         lv_obj_add_style(obj, &styles->no_radius, 0);
 423:Drivers/lvgl/src/extra/themes/mono/lv_theme_mono.c ****         lv_obj_add_style(obj, &styles->pr, LV_PART_ITEMS | LV_STATE_PRESSED);
 424:Drivers/lvgl/src/extra/themes/mono/lv_theme_mono.c ****         lv_obj_add_style(obj, &styles->disabled, LV_PART_ITEMS | LV_STATE_DISABLED);
 425:Drivers/lvgl/src/extra/themes/mono/lv_theme_mono.c ****         lv_obj_add_style(obj, &styles->focus, LV_STATE_FOCUS_KEY);
 426:Drivers/lvgl/src/extra/themes/mono/lv_theme_mono.c ****         lv_obj_add_style(obj, &styles->edit, LV_STATE_EDITED);
 427:Drivers/lvgl/src/extra/themes/mono/lv_theme_mono.c ****         lv_obj_add_style(obj, &styles->large_border, LV_PART_ITEMS | LV_STATE_FOCUS_KEY);
 428:Drivers/lvgl/src/extra/themes/mono/lv_theme_mono.c ****     }
 429:Drivers/lvgl/src/extra/themes/mono/lv_theme_mono.c **** #endif
 430:Drivers/lvgl/src/extra/themes/mono/lv_theme_mono.c **** 
 431:Drivers/lvgl/src/extra/themes/mono/lv_theme_mono.c **** #if LV_USE_KEYBOARD
 432:Drivers/lvgl/src/extra/themes/mono/lv_theme_mono.c ****     else if(lv_obj_check_type(obj, &lv_keyboard_class)) {
 433:Drivers/lvgl/src/extra/themes/mono/lv_theme_mono.c ****         lv_obj_add_style(obj, &styles->card, 0);
 434:Drivers/lvgl/src/extra/themes/mono/lv_theme_mono.c ****         lv_obj_add_style(obj, &styles->card, LV_PART_ITEMS);
 435:Drivers/lvgl/src/extra/themes/mono/lv_theme_mono.c ****         lv_obj_add_style(obj, &styles->pr, LV_PART_ITEMS | LV_STATE_PRESSED);
 436:Drivers/lvgl/src/extra/themes/mono/lv_theme_mono.c ****         lv_obj_add_style(obj, &styles->inv, LV_PART_ITEMS | LV_STATE_CHECKED);
ARM GAS  /var/folders/lp/x54gwt890xv47sdkqj1k04q40000gn/T//cc7THuQy.s 			page 10


 437:Drivers/lvgl/src/extra/themes/mono/lv_theme_mono.c ****         lv_obj_add_style(obj, &styles->focus, LV_STATE_FOCUS_KEY);
 438:Drivers/lvgl/src/extra/themes/mono/lv_theme_mono.c ****         lv_obj_add_style(obj, &styles->edit, LV_STATE_EDITED);
 439:Drivers/lvgl/src/extra/themes/mono/lv_theme_mono.c ****         lv_obj_add_style(obj, &styles->large_border, LV_PART_ITEMS | LV_STATE_EDITED);
 440:Drivers/lvgl/src/extra/themes/mono/lv_theme_mono.c ****     }
 441:Drivers/lvgl/src/extra/themes/mono/lv_theme_mono.c **** #endif
 442:Drivers/lvgl/src/extra/themes/mono/lv_theme_mono.c **** #if LV_USE_LIST
 443:Drivers/lvgl/src/extra/themes/mono/lv_theme_mono.c ****     else if(lv_obj_check_type(obj, &lv_list_class)) {
 444:Drivers/lvgl/src/extra/themes/mono/lv_theme_mono.c ****         lv_obj_add_style(obj, &styles->card, 0);
 445:Drivers/lvgl/src/extra/themes/mono/lv_theme_mono.c ****         lv_obj_add_style(obj, &styles->scrollbar, LV_PART_SCROLLBAR);
 446:Drivers/lvgl/src/extra/themes/mono/lv_theme_mono.c ****         return;
 447:Drivers/lvgl/src/extra/themes/mono/lv_theme_mono.c ****     }
 448:Drivers/lvgl/src/extra/themes/mono/lv_theme_mono.c ****     else if(lv_obj_check_type(obj, &lv_list_text_class)) {
 449:Drivers/lvgl/src/extra/themes/mono/lv_theme_mono.c **** 
 450:Drivers/lvgl/src/extra/themes/mono/lv_theme_mono.c ****     }
 451:Drivers/lvgl/src/extra/themes/mono/lv_theme_mono.c ****     else if(lv_obj_check_type(obj, &lv_list_btn_class)) {
 452:Drivers/lvgl/src/extra/themes/mono/lv_theme_mono.c ****         lv_obj_add_style(obj, &styles->card, 0);
 453:Drivers/lvgl/src/extra/themes/mono/lv_theme_mono.c ****         lv_obj_add_style(obj, &styles->pr, LV_STATE_PRESSED);
 454:Drivers/lvgl/src/extra/themes/mono/lv_theme_mono.c ****         lv_obj_add_style(obj, &styles->focus, LV_STATE_FOCUS_KEY);
 455:Drivers/lvgl/src/extra/themes/mono/lv_theme_mono.c ****         lv_obj_add_style(obj, &styles->large_border, LV_STATE_EDITED);
 456:Drivers/lvgl/src/extra/themes/mono/lv_theme_mono.c **** 
 457:Drivers/lvgl/src/extra/themes/mono/lv_theme_mono.c ****     }
 458:Drivers/lvgl/src/extra/themes/mono/lv_theme_mono.c **** #endif
 459:Drivers/lvgl/src/extra/themes/mono/lv_theme_mono.c **** #if LV_USE_MSGBOX
 460:Drivers/lvgl/src/extra/themes/mono/lv_theme_mono.c ****     else if(lv_obj_check_type(obj, &lv_msgbox_class)) {
 461:Drivers/lvgl/src/extra/themes/mono/lv_theme_mono.c ****         lv_obj_add_style(obj, &styles->card, 0);
 462:Drivers/lvgl/src/extra/themes/mono/lv_theme_mono.c ****         return;
 463:Drivers/lvgl/src/extra/themes/mono/lv_theme_mono.c ****     }
 464:Drivers/lvgl/src/extra/themes/mono/lv_theme_mono.c **** #endif
 465:Drivers/lvgl/src/extra/themes/mono/lv_theme_mono.c **** #if LV_USE_SPINBOX
 466:Drivers/lvgl/src/extra/themes/mono/lv_theme_mono.c ****     else if(lv_obj_check_type(obj, &lv_spinbox_class)) {
 467:Drivers/lvgl/src/extra/themes/mono/lv_theme_mono.c ****         lv_obj_add_style(obj, &styles->card, 0);
 468:Drivers/lvgl/src/extra/themes/mono/lv_theme_mono.c ****         lv_obj_add_style(obj, &styles->inv, LV_PART_CURSOR);
 469:Drivers/lvgl/src/extra/themes/mono/lv_theme_mono.c ****         lv_obj_add_style(obj, &styles->focus, LV_STATE_FOCUS_KEY);
 470:Drivers/lvgl/src/extra/themes/mono/lv_theme_mono.c ****         lv_obj_add_style(obj, &styles->edit, LV_STATE_EDITED);
 471:Drivers/lvgl/src/extra/themes/mono/lv_theme_mono.c ****     }
 472:Drivers/lvgl/src/extra/themes/mono/lv_theme_mono.c **** #endif
 473:Drivers/lvgl/src/extra/themes/mono/lv_theme_mono.c **** #if LV_USE_TILEVIEW
 474:Drivers/lvgl/src/extra/themes/mono/lv_theme_mono.c ****     else if(lv_obj_check_type(obj, &lv_tileview_class)) {
 475:Drivers/lvgl/src/extra/themes/mono/lv_theme_mono.c ****         lv_obj_add_style(obj, &styles->scr, 0);
 476:Drivers/lvgl/src/extra/themes/mono/lv_theme_mono.c ****         lv_obj_add_style(obj, &styles->scrollbar, LV_PART_SCROLLBAR);
 477:Drivers/lvgl/src/extra/themes/mono/lv_theme_mono.c ****     }
 478:Drivers/lvgl/src/extra/themes/mono/lv_theme_mono.c ****     else if(lv_obj_check_type(obj, &lv_tileview_tile_class)) {
 479:Drivers/lvgl/src/extra/themes/mono/lv_theme_mono.c ****         lv_obj_add_style(obj, &styles->scrollbar, LV_PART_SCROLLBAR);
 480:Drivers/lvgl/src/extra/themes/mono/lv_theme_mono.c ****     }
 481:Drivers/lvgl/src/extra/themes/mono/lv_theme_mono.c **** #endif
 482:Drivers/lvgl/src/extra/themes/mono/lv_theme_mono.c **** 
 483:Drivers/lvgl/src/extra/themes/mono/lv_theme_mono.c **** #if LV_USE_LED
 484:Drivers/lvgl/src/extra/themes/mono/lv_theme_mono.c ****     else if(lv_obj_check_type(obj, &lv_led_class)) {
 485:Drivers/lvgl/src/extra/themes/mono/lv_theme_mono.c ****         lv_obj_add_style(obj, &styles->card, 0);
 486:Drivers/lvgl/src/extra/themes/mono/lv_theme_mono.c ****     }
 487:Drivers/lvgl/src/extra/themes/mono/lv_theme_mono.c **** #endif
 488:Drivers/lvgl/src/extra/themes/mono/lv_theme_mono.c **** }
  79              		.loc 1 488 1 view .LVU16
  80 0028 70BD     		pop	{r4, r5, r6, pc}
  81              	.LVL8:
  82              	.L33:
 205:Drivers/lvgl/src/extra/themes/mono/lv_theme_mono.c ****         lv_obj_add_style(obj, &styles->scrollbar, LV_PART_SCROLLBAR);
ARM GAS  /var/folders/lp/x54gwt890xv47sdkqj1k04q40000gn/T//cc7THuQy.s 			page 11


  83              		.loc 1 205 9 is_stmt 1 view .LVU17
 205:Drivers/lvgl/src/extra/themes/mono/lv_theme_mono.c ****         lv_obj_add_style(obj, &styles->scrollbar, LV_PART_SCROLLBAR);
  84              		.loc 1 205 38 is_stmt 0 view .LVU18
  85 002a B54D     		ldr	r5, .L42+8
 205:Drivers/lvgl/src/extra/themes/mono/lv_theme_mono.c ****         lv_obj_add_style(obj, &styles->scrollbar, LV_PART_SCROLLBAR);
  86              		.loc 1 205 9 view .LVU19
  87 002c 0022     		movs	r2, #0
  88 002e 2968     		ldr	r1, [r5]
  89 0030 2046     		mov	r0, r4
  90 0032 FFF7FEFF 		bl	lv_obj_add_style
  91              	.LVL9:
 206:Drivers/lvgl/src/extra/themes/mono/lv_theme_mono.c ****         return;
  92              		.loc 1 206 9 is_stmt 1 view .LVU20
 206:Drivers/lvgl/src/extra/themes/mono/lv_theme_mono.c ****         return;
  93              		.loc 1 206 38 is_stmt 0 view .LVU21
  94 0036 2968     		ldr	r1, [r5]
 206:Drivers/lvgl/src/extra/themes/mono/lv_theme_mono.c ****         return;
  95              		.loc 1 206 9 view .LVU22
  96 0038 4FF48032 		mov	r2, #65536
  97 003c 1031     		adds	r1, r1, #16
  98 003e 2046     		mov	r0, r4
  99 0040 FFF7FEFF 		bl	lv_obj_add_style
 100              	.LVL10:
 207:Drivers/lvgl/src/extra/themes/mono/lv_theme_mono.c ****     }
 101              		.loc 1 207 9 is_stmt 1 view .LVU23
 102 0044 F0E7     		b	.L1
 103              	.LVL11:
 104              	.L34:
 105              	.LBB135:
 218:Drivers/lvgl/src/extra/themes/mono/lv_theme_mono.c ****             lv_obj_add_style(obj, &styles->card, 0);
 106              		.loc 1 218 14 view .LVU24
 218:Drivers/lvgl/src/extra/themes/mono/lv_theme_mono.c ****             lv_obj_add_style(obj, &styles->card, 0);
 107              		.loc 1 218 35 is_stmt 0 view .LVU25
 108 0046 2846     		mov	r0, r5
 109 0048 FFF7FEFF 		bl	lv_obj_get_parent
 110              	.LVL12:
 218:Drivers/lvgl/src/extra/themes/mono/lv_theme_mono.c ****             lv_obj_add_style(obj, &styles->card, 0);
 111              		.loc 1 218 17 discriminator 1 view .LVU26
 112 004c AB49     		ldr	r1, .L42+4
 113 004e FFF7FEFF 		bl	lv_obj_check_type
 114              	.LVL13:
 218:Drivers/lvgl/src/extra/themes/mono/lv_theme_mono.c ****             lv_obj_add_style(obj, &styles->card, 0);
 115              		.loc 1 218 16 discriminator 2 view .LVU27
 116 0052 F0B9     		cbnz	r0, .L35
 228:Drivers/lvgl/src/extra/themes/mono/lv_theme_mono.c ****             lv_obj_add_style(obj, &styles->card, 0);
 117              		.loc 1 228 9 is_stmt 1 view .LVU28
 228:Drivers/lvgl/src/extra/themes/mono/lv_theme_mono.c ****             lv_obj_add_style(obj, &styles->card, 0);
 118              		.loc 1 228 12 is_stmt 0 view .LVU29
 119 0054 2046     		mov	r0, r4
 120 0056 FFF7FEFF 		bl	lv_obj_get_index
 121              	.LVL14:
 228:Drivers/lvgl/src/extra/themes/mono/lv_theme_mono.c ****             lv_obj_add_style(obj, &styles->card, 0);
 122              		.loc 1 228 11 discriminator 1 view .LVU30
 123 005a 30B9     		cbnz	r0, .L6
 228:Drivers/lvgl/src/extra/themes/mono/lv_theme_mono.c ****             lv_obj_add_style(obj, &styles->card, 0);
 124              		.loc 1 228 60 discriminator 1 view .LVU31
 125 005c 2046     		mov	r0, r4
ARM GAS  /var/folders/lp/x54gwt890xv47sdkqj1k04q40000gn/T//cc7THuQy.s 			page 12


 126 005e FFF7FEFF 		bl	lv_obj_get_parent
 127              	.LVL15:
 228:Drivers/lvgl/src/extra/themes/mono/lv_theme_mono.c ****             lv_obj_add_style(obj, &styles->card, 0);
 128              		.loc 1 228 42 discriminator 1 view .LVU32
 129 0062 A849     		ldr	r1, .L42+12
 130 0064 FFF7FEFF 		bl	lv_obj_check_type
 131              	.LVL16:
 228:Drivers/lvgl/src/extra/themes/mono/lv_theme_mono.c ****             lv_obj_add_style(obj, &styles->card, 0);
 132              		.loc 1 228 39 discriminator 2 view .LVU33
 133 0068 40BB     		cbnz	r0, .L36
 134              	.L6:
 234:Drivers/lvgl/src/extra/themes/mono/lv_theme_mono.c ****             lv_obj_add_style(obj, &styles->card, 0);
 135              		.loc 1 234 14 is_stmt 1 view .LVU34
 234:Drivers/lvgl/src/extra/themes/mono/lv_theme_mono.c ****             lv_obj_add_style(obj, &styles->card, 0);
 136              		.loc 1 234 17 is_stmt 0 view .LVU35
 137 006a 2046     		mov	r0, r4
 138 006c FFF7FEFF 		bl	lv_obj_get_index
 139              	.LVL17:
 234:Drivers/lvgl/src/extra/themes/mono/lv_theme_mono.c ****             lv_obj_add_style(obj, &styles->card, 0);
 140              		.loc 1 234 16 discriminator 1 view .LVU36
 141 0070 0128     		cmp	r0, #1
 142 0072 31D0     		beq	.L37
 143              	.L7:
 241:Drivers/lvgl/src/extra/themes/mono/lv_theme_mono.c ****         lv_obj_add_style(obj, &styles->scrollbar, LV_PART_SCROLLBAR);
 144              		.loc 1 241 9 is_stmt 1 view .LVU37
 241:Drivers/lvgl/src/extra/themes/mono/lv_theme_mono.c ****         lv_obj_add_style(obj, &styles->scrollbar, LV_PART_SCROLLBAR);
 145              		.loc 1 241 38 is_stmt 0 view .LVU38
 146 0074 A24D     		ldr	r5, .L42+8
 147              	.LVL18:
 241:Drivers/lvgl/src/extra/themes/mono/lv_theme_mono.c ****         lv_obj_add_style(obj, &styles->scrollbar, LV_PART_SCROLLBAR);
 148              		.loc 1 241 38 view .LVU39
 149 0076 2968     		ldr	r1, [r5]
 241:Drivers/lvgl/src/extra/themes/mono/lv_theme_mono.c ****         lv_obj_add_style(obj, &styles->scrollbar, LV_PART_SCROLLBAR);
 150              		.loc 1 241 9 view .LVU40
 151 0078 0022     		movs	r2, #0
 152 007a 0831     		adds	r1, r1, #8
 153 007c 2046     		mov	r0, r4
 154 007e FFF7FEFF 		bl	lv_obj_add_style
 155              	.LVL19:
 242:Drivers/lvgl/src/extra/themes/mono/lv_theme_mono.c ****     }
 156              		.loc 1 242 9 is_stmt 1 view .LVU41
 242:Drivers/lvgl/src/extra/themes/mono/lv_theme_mono.c ****     }
 157              		.loc 1 242 38 is_stmt 0 view .LVU42
 158 0082 2968     		ldr	r1, [r5]
 242:Drivers/lvgl/src/extra/themes/mono/lv_theme_mono.c ****     }
 159              		.loc 1 242 9 view .LVU43
 160 0084 4FF48032 		mov	r2, #65536
 161 0088 1031     		adds	r1, r1, #16
 162 008a 2046     		mov	r0, r4
 163 008c FFF7FEFF 		bl	lv_obj_add_style
 164              	.LVL20:
 165              	.LBE135:
 166 0090 CAE7     		b	.L1
 167              	.LVL21:
 168              	.L35:
 169              	.LBB136:
 219:Drivers/lvgl/src/extra/themes/mono/lv_theme_mono.c ****             lv_obj_add_style(obj, &styles->no_radius, 0);
ARM GAS  /var/folders/lp/x54gwt890xv47sdkqj1k04q40000gn/T//cc7THuQy.s 			page 13


 170              		.loc 1 219 13 is_stmt 1 view .LVU44
 219:Drivers/lvgl/src/extra/themes/mono/lv_theme_mono.c ****             lv_obj_add_style(obj, &styles->no_radius, 0);
 171              		.loc 1 219 42 is_stmt 0 view .LVU45
 172 0092 9B4D     		ldr	r5, .L42+8
 173              	.LVL22:
 219:Drivers/lvgl/src/extra/themes/mono/lv_theme_mono.c ****             lv_obj_add_style(obj, &styles->no_radius, 0);
 174              		.loc 1 219 42 view .LVU46
 175 0094 2968     		ldr	r1, [r5]
 219:Drivers/lvgl/src/extra/themes/mono/lv_theme_mono.c ****             lv_obj_add_style(obj, &styles->no_radius, 0);
 176              		.loc 1 219 13 view .LVU47
 177 0096 0022     		movs	r2, #0
 178 0098 0831     		adds	r1, r1, #8
 179 009a 2046     		mov	r0, r4
 180 009c FFF7FEFF 		bl	lv_obj_add_style
 181              	.LVL23:
 220:Drivers/lvgl/src/extra/themes/mono/lv_theme_mono.c ****             lv_obj_add_style(obj, &styles->scrollbar, LV_PART_SCROLLBAR);
 182              		.loc 1 220 13 is_stmt 1 view .LVU48
 220:Drivers/lvgl/src/extra/themes/mono/lv_theme_mono.c ****             lv_obj_add_style(obj, &styles->scrollbar, LV_PART_SCROLLBAR);
 183              		.loc 1 220 42 is_stmt 0 view .LVU49
 184 00a0 2968     		ldr	r1, [r5]
 220:Drivers/lvgl/src/extra/themes/mono/lv_theme_mono.c ****             lv_obj_add_style(obj, &styles->scrollbar, LV_PART_SCROLLBAR);
 185              		.loc 1 220 13 view .LVU50
 186 00a2 0022     		movs	r2, #0
 187 00a4 5831     		adds	r1, r1, #88
 188 00a6 2046     		mov	r0, r4
 189 00a8 FFF7FEFF 		bl	lv_obj_add_style
 190              	.LVL24:
 221:Drivers/lvgl/src/extra/themes/mono/lv_theme_mono.c ****             return;
 191              		.loc 1 221 13 is_stmt 1 view .LVU51
 221:Drivers/lvgl/src/extra/themes/mono/lv_theme_mono.c ****             return;
 192              		.loc 1 221 42 is_stmt 0 view .LVU52
 193 00ac 2968     		ldr	r1, [r5]
 221:Drivers/lvgl/src/extra/themes/mono/lv_theme_mono.c ****             return;
 194              		.loc 1 221 13 view .LVU53
 195 00ae 4FF48032 		mov	r2, #65536
 196 00b2 1031     		adds	r1, r1, #16
 197 00b4 2046     		mov	r0, r4
 198 00b6 FFF7FEFF 		bl	lv_obj_add_style
 199              	.LVL25:
 222:Drivers/lvgl/src/extra/themes/mono/lv_theme_mono.c ****         }
 200              		.loc 1 222 13 is_stmt 1 view .LVU54
 201 00ba B5E7     		b	.L1
 202              	.LVL26:
 203              	.L36:
 229:Drivers/lvgl/src/extra/themes/mono/lv_theme_mono.c ****             lv_obj_add_style(obj, &styles->no_radius, 0);
 204              		.loc 1 229 13 view .LVU55
 229:Drivers/lvgl/src/extra/themes/mono/lv_theme_mono.c ****             lv_obj_add_style(obj, &styles->no_radius, 0);
 205              		.loc 1 229 42 is_stmt 0 view .LVU56
 206 00bc 904D     		ldr	r5, .L42+8
 207              	.LVL27:
 229:Drivers/lvgl/src/extra/themes/mono/lv_theme_mono.c ****             lv_obj_add_style(obj, &styles->no_radius, 0);
 208              		.loc 1 229 42 view .LVU57
 209 00be 2968     		ldr	r1, [r5]
 229:Drivers/lvgl/src/extra/themes/mono/lv_theme_mono.c ****             lv_obj_add_style(obj, &styles->no_radius, 0);
 210              		.loc 1 229 13 view .LVU58
 211 00c0 0022     		movs	r2, #0
 212 00c2 0831     		adds	r1, r1, #8
ARM GAS  /var/folders/lp/x54gwt890xv47sdkqj1k04q40000gn/T//cc7THuQy.s 			page 14


 213 00c4 2046     		mov	r0, r4
 214 00c6 FFF7FEFF 		bl	lv_obj_add_style
 215              	.LVL28:
 230:Drivers/lvgl/src/extra/themes/mono/lv_theme_mono.c ****             return;
 216              		.loc 1 230 13 is_stmt 1 view .LVU59
 230:Drivers/lvgl/src/extra/themes/mono/lv_theme_mono.c ****             return;
 217              		.loc 1 230 42 is_stmt 0 view .LVU60
 218 00ca 2968     		ldr	r1, [r5]
 230:Drivers/lvgl/src/extra/themes/mono/lv_theme_mono.c ****             return;
 219              		.loc 1 230 13 view .LVU61
 220 00cc 0022     		movs	r2, #0
 221 00ce 5831     		adds	r1, r1, #88
 222 00d0 2046     		mov	r0, r4
 223 00d2 FFF7FEFF 		bl	lv_obj_add_style
 224              	.LVL29:
 231:Drivers/lvgl/src/extra/themes/mono/lv_theme_mono.c ****         }
 225              		.loc 1 231 13 is_stmt 1 view .LVU62
 226 00d6 A7E7     		b	.L1
 227              	.LVL30:
 228              	.L37:
 234:Drivers/lvgl/src/extra/themes/mono/lv_theme_mono.c ****             lv_obj_add_style(obj, &styles->card, 0);
 229              		.loc 1 234 65 is_stmt 0 discriminator 1 view .LVU63
 230 00d8 2046     		mov	r0, r4
 231 00da FFF7FEFF 		bl	lv_obj_get_parent
 232              	.LVL31:
 234:Drivers/lvgl/src/extra/themes/mono/lv_theme_mono.c ****             lv_obj_add_style(obj, &styles->card, 0);
 233              		.loc 1 234 47 discriminator 1 view .LVU64
 234 00de 8949     		ldr	r1, .L42+12
 235 00e0 FFF7FEFF 		bl	lv_obj_check_type
 236              	.LVL32:
 234:Drivers/lvgl/src/extra/themes/mono/lv_theme_mono.c ****             lv_obj_add_style(obj, &styles->card, 0);
 237              		.loc 1 234 44 discriminator 2 view .LVU65
 238 00e4 0028     		cmp	r0, #0
 239 00e6 C5D0     		beq	.L7
 235:Drivers/lvgl/src/extra/themes/mono/lv_theme_mono.c ****             lv_obj_add_style(obj, &styles->no_radius, 0);
 240              		.loc 1 235 13 is_stmt 1 view .LVU66
 235:Drivers/lvgl/src/extra/themes/mono/lv_theme_mono.c ****             lv_obj_add_style(obj, &styles->no_radius, 0);
 241              		.loc 1 235 42 is_stmt 0 view .LVU67
 242 00e8 854D     		ldr	r5, .L42+8
 243              	.LVL33:
 235:Drivers/lvgl/src/extra/themes/mono/lv_theme_mono.c ****             lv_obj_add_style(obj, &styles->no_radius, 0);
 244              		.loc 1 235 42 view .LVU68
 245 00ea 2968     		ldr	r1, [r5]
 235:Drivers/lvgl/src/extra/themes/mono/lv_theme_mono.c ****             lv_obj_add_style(obj, &styles->no_radius, 0);
 246              		.loc 1 235 13 view .LVU69
 247 00ec 0022     		movs	r2, #0
 248 00ee 0831     		adds	r1, r1, #8
 249 00f0 2046     		mov	r0, r4
 250 00f2 FFF7FEFF 		bl	lv_obj_add_style
 251              	.LVL34:
 236:Drivers/lvgl/src/extra/themes/mono/lv_theme_mono.c ****             lv_obj_add_style(obj, &styles->scrollbar, LV_PART_SCROLLBAR);
 252              		.loc 1 236 13 is_stmt 1 view .LVU70
 236:Drivers/lvgl/src/extra/themes/mono/lv_theme_mono.c ****             lv_obj_add_style(obj, &styles->scrollbar, LV_PART_SCROLLBAR);
 253              		.loc 1 236 42 is_stmt 0 view .LVU71
 254 00f6 2968     		ldr	r1, [r5]
 236:Drivers/lvgl/src/extra/themes/mono/lv_theme_mono.c ****             lv_obj_add_style(obj, &styles->scrollbar, LV_PART_SCROLLBAR);
 255              		.loc 1 236 13 view .LVU72
ARM GAS  /var/folders/lp/x54gwt890xv47sdkqj1k04q40000gn/T//cc7THuQy.s 			page 15


 256 00f8 0022     		movs	r2, #0
 257 00fa 5831     		adds	r1, r1, #88
 258 00fc 2046     		mov	r0, r4
 259 00fe FFF7FEFF 		bl	lv_obj_add_style
 260              	.LVL35:
 237:Drivers/lvgl/src/extra/themes/mono/lv_theme_mono.c ****             return;
 261              		.loc 1 237 13 is_stmt 1 view .LVU73
 237:Drivers/lvgl/src/extra/themes/mono/lv_theme_mono.c ****             return;
 262              		.loc 1 237 42 is_stmt 0 view .LVU74
 263 0102 2968     		ldr	r1, [r5]
 237:Drivers/lvgl/src/extra/themes/mono/lv_theme_mono.c ****             return;
 264              		.loc 1 237 13 view .LVU75
 265 0104 4FF48032 		mov	r2, #65536
 266 0108 1031     		adds	r1, r1, #16
 267 010a 2046     		mov	r0, r4
 268 010c FFF7FEFF 		bl	lv_obj_add_style
 269              	.LVL36:
 238:Drivers/lvgl/src/extra/themes/mono/lv_theme_mono.c ****         }
 270              		.loc 1 238 13 is_stmt 1 view .LVU76
 271 0110 8AE7     		b	.L1
 272              	.LVL37:
 273              	.L4:
 238:Drivers/lvgl/src/extra/themes/mono/lv_theme_mono.c ****         }
 274              		.loc 1 238 13 is_stmt 0 view .LVU77
 275              	.LBE136:
 245:Drivers/lvgl/src/extra/themes/mono/lv_theme_mono.c ****         lv_obj_add_style(obj, &styles->card, 0);
 276              		.loc 1 245 10 is_stmt 1 view .LVU78
 245:Drivers/lvgl/src/extra/themes/mono/lv_theme_mono.c ****         lv_obj_add_style(obj, &styles->card, 0);
 277              		.loc 1 245 13 is_stmt 0 view .LVU79
 278 0112 7D49     		ldr	r1, .L42+16
 279 0114 2046     		mov	r0, r4
 280 0116 FFF7FEFF 		bl	lv_obj_check_type
 281              	.LVL38:
 245:Drivers/lvgl/src/extra/themes/mono/lv_theme_mono.c ****         lv_obj_add_style(obj, &styles->card, 0);
 282              		.loc 1 245 12 discriminator 1 view .LVU80
 283 011a 28B3     		cbz	r0, .L8
 246:Drivers/lvgl/src/extra/themes/mono/lv_theme_mono.c ****         lv_obj_add_style(obj, &styles->pr, LV_STATE_PRESSED);
 284              		.loc 1 246 9 is_stmt 1 view .LVU81
 246:Drivers/lvgl/src/extra/themes/mono/lv_theme_mono.c ****         lv_obj_add_style(obj, &styles->pr, LV_STATE_PRESSED);
 285              		.loc 1 246 38 is_stmt 0 view .LVU82
 286 011c 784D     		ldr	r5, .L42+8
 287 011e 2968     		ldr	r1, [r5]
 246:Drivers/lvgl/src/extra/themes/mono/lv_theme_mono.c ****         lv_obj_add_style(obj, &styles->pr, LV_STATE_PRESSED);
 288              		.loc 1 246 9 view .LVU83
 289 0120 0022     		movs	r2, #0
 290 0122 0831     		adds	r1, r1, #8
 291 0124 2046     		mov	r0, r4
 292 0126 FFF7FEFF 		bl	lv_obj_add_style
 293              	.LVL39:
 247:Drivers/lvgl/src/extra/themes/mono/lv_theme_mono.c ****         lv_obj_add_style(obj, &styles->inv, LV_STATE_CHECKED);
 294              		.loc 1 247 9 is_stmt 1 view .LVU84
 247:Drivers/lvgl/src/extra/themes/mono/lv_theme_mono.c ****         lv_obj_add_style(obj, &styles->inv, LV_STATE_CHECKED);
 295              		.loc 1 247 38 is_stmt 0 view .LVU85
 296 012a 2968     		ldr	r1, [r5]
 247:Drivers/lvgl/src/extra/themes/mono/lv_theme_mono.c ****         lv_obj_add_style(obj, &styles->inv, LV_STATE_CHECKED);
 297              		.loc 1 247 9 view .LVU86
 298 012c 2022     		movs	r2, #32
ARM GAS  /var/folders/lp/x54gwt890xv47sdkqj1k04q40000gn/T//cc7THuQy.s 			page 16


 299 012e 1144     		add	r1, r1, r2
 300 0130 2046     		mov	r0, r4
 301 0132 FFF7FEFF 		bl	lv_obj_add_style
 302              	.LVL40:
 248:Drivers/lvgl/src/extra/themes/mono/lv_theme_mono.c ****         lv_obj_add_style(obj, &styles->disabled, LV_STATE_DISABLED);
 303              		.loc 1 248 9 is_stmt 1 view .LVU87
 248:Drivers/lvgl/src/extra/themes/mono/lv_theme_mono.c ****         lv_obj_add_style(obj, &styles->disabled, LV_STATE_DISABLED);
 304              		.loc 1 248 38 is_stmt 0 view .LVU88
 305 0136 2968     		ldr	r1, [r5]
 248:Drivers/lvgl/src/extra/themes/mono/lv_theme_mono.c ****         lv_obj_add_style(obj, &styles->disabled, LV_STATE_DISABLED);
 306              		.loc 1 248 9 view .LVU89
 307 0138 0122     		movs	r2, #1
 308 013a 2831     		adds	r1, r1, #40
 309 013c 2046     		mov	r0, r4
 310 013e FFF7FEFF 		bl	lv_obj_add_style
 311              	.LVL41:
 249:Drivers/lvgl/src/extra/themes/mono/lv_theme_mono.c ****         lv_obj_add_style(obj, &styles->focus, LV_STATE_FOCUS_KEY);
 312              		.loc 1 249 9 is_stmt 1 view .LVU90
 249:Drivers/lvgl/src/extra/themes/mono/lv_theme_mono.c ****         lv_obj_add_style(obj, &styles->focus, LV_STATE_FOCUS_KEY);
 313              		.loc 1 249 38 is_stmt 0 view .LVU91
 314 0142 2968     		ldr	r1, [r5]
 249:Drivers/lvgl/src/extra/themes/mono/lv_theme_mono.c ****         lv_obj_add_style(obj, &styles->focus, LV_STATE_FOCUS_KEY);
 315              		.loc 1 249 9 view .LVU92
 316 0144 8022     		movs	r2, #128
 317 0146 3031     		adds	r1, r1, #48
 318 0148 2046     		mov	r0, r4
 319 014a FFF7FEFF 		bl	lv_obj_add_style
 320              	.LVL42:
 250:Drivers/lvgl/src/extra/themes/mono/lv_theme_mono.c ****         lv_obj_add_style(obj, &styles->edit, LV_STATE_EDITED);
 321              		.loc 1 250 9 is_stmt 1 view .LVU93
 250:Drivers/lvgl/src/extra/themes/mono/lv_theme_mono.c ****         lv_obj_add_style(obj, &styles->edit, LV_STATE_EDITED);
 322              		.loc 1 250 38 is_stmt 0 view .LVU94
 323 014e 2968     		ldr	r1, [r5]
 250:Drivers/lvgl/src/extra/themes/mono/lv_theme_mono.c ****         lv_obj_add_style(obj, &styles->edit, LV_STATE_EDITED);
 324              		.loc 1 250 9 view .LVU95
 325 0150 0422     		movs	r2, #4
 326 0152 3831     		adds	r1, r1, #56
 327 0154 2046     		mov	r0, r4
 328 0156 FFF7FEFF 		bl	lv_obj_add_style
 329              	.LVL43:
 251:Drivers/lvgl/src/extra/themes/mono/lv_theme_mono.c ****     }
 330              		.loc 1 251 9 is_stmt 1 view .LVU96
 251:Drivers/lvgl/src/extra/themes/mono/lv_theme_mono.c ****     }
 331              		.loc 1 251 38 is_stmt 0 view .LVU97
 332 015a 2968     		ldr	r1, [r5]
 251:Drivers/lvgl/src/extra/themes/mono/lv_theme_mono.c ****     }
 333              		.loc 1 251 9 view .LVU98
 334 015c 0822     		movs	r2, #8
 335 015e 4031     		adds	r1, r1, #64
 336 0160 2046     		mov	r0, r4
 337 0162 FFF7FEFF 		bl	lv_obj_add_style
 338              	.LVL44:
 339 0166 5FE7     		b	.L1
 340              	.L8:
 256:Drivers/lvgl/src/extra/themes/mono/lv_theme_mono.c **** #if LV_USE_MSGBOX
 341              		.loc 1 256 10 is_stmt 1 view .LVU99
 256:Drivers/lvgl/src/extra/themes/mono/lv_theme_mono.c **** #if LV_USE_MSGBOX
ARM GAS  /var/folders/lp/x54gwt890xv47sdkqj1k04q40000gn/T//cc7THuQy.s 			page 17


 342              		.loc 1 256 13 is_stmt 0 view .LVU100
 343 0168 6849     		ldr	r1, .L42+20
 344 016a 2046     		mov	r0, r4
 345 016c FFF7FEFF 		bl	lv_obj_check_type
 346              	.LVL45:
 256:Drivers/lvgl/src/extra/themes/mono/lv_theme_mono.c **** #if LV_USE_MSGBOX
 347              		.loc 1 256 12 discriminator 1 view .LVU101
 348 0170 0028     		cmp	r0, #0
 349 0172 00F0A080 		beq	.L9
 258:Drivers/lvgl/src/extra/themes/mono/lv_theme_mono.c ****             lv_obj_add_style(obj, &styles->pad_gap, 0);
 350              		.loc 1 258 9 is_stmt 1 view .LVU102
 258:Drivers/lvgl/src/extra/themes/mono/lv_theme_mono.c ****             lv_obj_add_style(obj, &styles->pad_gap, 0);
 351              		.loc 1 258 30 is_stmt 0 view .LVU103
 352 0176 2046     		mov	r0, r4
 353 0178 FFF7FEFF 		bl	lv_obj_get_parent
 354              	.LVL46:
 258:Drivers/lvgl/src/extra/themes/mono/lv_theme_mono.c ****             lv_obj_add_style(obj, &styles->pad_gap, 0);
 355              		.loc 1 258 12 discriminator 1 view .LVU104
 356 017c 6449     		ldr	r1, .L42+24
 357 017e FFF7FEFF 		bl	lv_obj_check_type
 358              	.LVL47:
 258:Drivers/lvgl/src/extra/themes/mono/lv_theme_mono.c ****             lv_obj_add_style(obj, &styles->pad_gap, 0);
 359              		.loc 1 258 11 discriminator 2 view .LVU105
 360 0182 0028     		cmp	r0, #0
 361 0184 3BD1     		bne	.L38
 269:Drivers/lvgl/src/extra/themes/mono/lv_theme_mono.c ****             lv_obj_add_style(obj, &styles->pad_gap, 0);
 362              		.loc 1 269 9 is_stmt 1 view .LVU106
 269:Drivers/lvgl/src/extra/themes/mono/lv_theme_mono.c ****             lv_obj_add_style(obj, &styles->pad_gap, 0);
 363              		.loc 1 269 30 is_stmt 0 view .LVU107
 364 0186 2046     		mov	r0, r4
 365 0188 FFF7FEFF 		bl	lv_obj_get_parent
 366              	.LVL48:
 269:Drivers/lvgl/src/extra/themes/mono/lv_theme_mono.c ****             lv_obj_add_style(obj, &styles->pad_gap, 0);
 367              		.loc 1 269 12 discriminator 1 view .LVU108
 368 018c 5B49     		ldr	r1, .L42+4
 369 018e FFF7FEFF 		bl	lv_obj_check_type
 370              	.LVL49:
 269:Drivers/lvgl/src/extra/themes/mono/lv_theme_mono.c ****             lv_obj_add_style(obj, &styles->pad_gap, 0);
 371              		.loc 1 269 11 discriminator 2 view .LVU109
 372 0192 0028     		cmp	r0, #0
 373 0194 5BD1     		bne	.L39
 281:Drivers/lvgl/src/extra/themes/mono/lv_theme_mono.c ****         lv_obj_add_style(obj, &styles->focus, LV_STATE_FOCUS_KEY);
 374              		.loc 1 281 9 is_stmt 1 view .LVU110
 281:Drivers/lvgl/src/extra/themes/mono/lv_theme_mono.c ****         lv_obj_add_style(obj, &styles->focus, LV_STATE_FOCUS_KEY);
 375              		.loc 1 281 38 is_stmt 0 view .LVU111
 376 0196 5A4D     		ldr	r5, .L42+8
 377 0198 2968     		ldr	r1, [r5]
 281:Drivers/lvgl/src/extra/themes/mono/lv_theme_mono.c ****         lv_obj_add_style(obj, &styles->focus, LV_STATE_FOCUS_KEY);
 378              		.loc 1 281 9 view .LVU112
 379 019a 0022     		movs	r2, #0
 380 019c 0831     		adds	r1, r1, #8
 381 019e 2046     		mov	r0, r4
 382 01a0 FFF7FEFF 		bl	lv_obj_add_style
 383              	.LVL50:
 282:Drivers/lvgl/src/extra/themes/mono/lv_theme_mono.c ****         lv_obj_add_style(obj, &styles->card, LV_PART_ITEMS);
 384              		.loc 1 282 9 is_stmt 1 view .LVU113
 282:Drivers/lvgl/src/extra/themes/mono/lv_theme_mono.c ****         lv_obj_add_style(obj, &styles->card, LV_PART_ITEMS);
ARM GAS  /var/folders/lp/x54gwt890xv47sdkqj1k04q40000gn/T//cc7THuQy.s 			page 18


 385              		.loc 1 282 38 is_stmt 0 view .LVU114
 386 01a4 2968     		ldr	r1, [r5]
 282:Drivers/lvgl/src/extra/themes/mono/lv_theme_mono.c ****         lv_obj_add_style(obj, &styles->card, LV_PART_ITEMS);
 387              		.loc 1 282 9 view .LVU115
 388 01a6 0422     		movs	r2, #4
 389 01a8 3831     		adds	r1, r1, #56
 390 01aa 2046     		mov	r0, r4
 391 01ac FFF7FEFF 		bl	lv_obj_add_style
 392              	.LVL51:
 283:Drivers/lvgl/src/extra/themes/mono/lv_theme_mono.c ****         lv_obj_add_style(obj, &styles->pr, LV_PART_ITEMS | LV_STATE_PRESSED);
 393              		.loc 1 283 9 is_stmt 1 view .LVU116
 283:Drivers/lvgl/src/extra/themes/mono/lv_theme_mono.c ****         lv_obj_add_style(obj, &styles->pr, LV_PART_ITEMS | LV_STATE_PRESSED);
 394              		.loc 1 283 38 is_stmt 0 view .LVU117
 395 01b0 2968     		ldr	r1, [r5]
 283:Drivers/lvgl/src/extra/themes/mono/lv_theme_mono.c ****         lv_obj_add_style(obj, &styles->pr, LV_PART_ITEMS | LV_STATE_PRESSED);
 396              		.loc 1 283 9 view .LVU118
 397 01b2 4FF4A022 		mov	r2, #327680
 398 01b6 0831     		adds	r1, r1, #8
 399 01b8 2046     		mov	r0, r4
 400 01ba FFF7FEFF 		bl	lv_obj_add_style
 401              	.LVL52:
 284:Drivers/lvgl/src/extra/themes/mono/lv_theme_mono.c ****         lv_obj_add_style(obj, &styles->inv, LV_PART_ITEMS | LV_STATE_CHECKED);
 402              		.loc 1 284 9 is_stmt 1 view .LVU119
 284:Drivers/lvgl/src/extra/themes/mono/lv_theme_mono.c ****         lv_obj_add_style(obj, &styles->inv, LV_PART_ITEMS | LV_STATE_CHECKED);
 403              		.loc 1 284 38 is_stmt 0 view .LVU120
 404 01be 2968     		ldr	r1, [r5]
 284:Drivers/lvgl/src/extra/themes/mono/lv_theme_mono.c ****         lv_obj_add_style(obj, &styles->inv, LV_PART_ITEMS | LV_STATE_CHECKED);
 405              		.loc 1 284 9 view .LVU121
 406 01c0 544A     		ldr	r2, .L42+28
 407 01c2 2031     		adds	r1, r1, #32
 408 01c4 2046     		mov	r0, r4
 409 01c6 FFF7FEFF 		bl	lv_obj_add_style
 410              	.LVL53:
 285:Drivers/lvgl/src/extra/themes/mono/lv_theme_mono.c ****         lv_obj_add_style(obj, &styles->disabled, LV_PART_ITEMS | LV_STATE_DISABLED);
 411              		.loc 1 285 9 is_stmt 1 view .LVU122
 285:Drivers/lvgl/src/extra/themes/mono/lv_theme_mono.c ****         lv_obj_add_style(obj, &styles->disabled, LV_PART_ITEMS | LV_STATE_DISABLED);
 412              		.loc 1 285 38 is_stmt 0 view .LVU123
 413 01ca 2968     		ldr	r1, [r5]
 285:Drivers/lvgl/src/extra/themes/mono/lv_theme_mono.c ****         lv_obj_add_style(obj, &styles->disabled, LV_PART_ITEMS | LV_STATE_DISABLED);
 414              		.loc 1 285 9 view .LVU124
 415 01cc 524A     		ldr	r2, .L42+32
 416 01ce 2831     		adds	r1, r1, #40
 417 01d0 2046     		mov	r0, r4
 418 01d2 FFF7FEFF 		bl	lv_obj_add_style
 419              	.LVL54:
 286:Drivers/lvgl/src/extra/themes/mono/lv_theme_mono.c ****         lv_obj_add_style(obj, &styles->underline, LV_PART_ITEMS | LV_STATE_FOCUS_KEY);
 420              		.loc 1 286 9 is_stmt 1 view .LVU125
 286:Drivers/lvgl/src/extra/themes/mono/lv_theme_mono.c ****         lv_obj_add_style(obj, &styles->underline, LV_PART_ITEMS | LV_STATE_FOCUS_KEY);
 421              		.loc 1 286 38 is_stmt 0 view .LVU126
 422 01d6 2968     		ldr	r1, [r5]
 286:Drivers/lvgl/src/extra/themes/mono/lv_theme_mono.c ****         lv_obj_add_style(obj, &styles->underline, LV_PART_ITEMS | LV_STATE_FOCUS_KEY);
 423              		.loc 1 286 9 view .LVU127
 424 01d8 504A     		ldr	r2, .L42+36
 425 01da 3031     		adds	r1, r1, #48
 426 01dc 2046     		mov	r0, r4
 427 01de FFF7FEFF 		bl	lv_obj_add_style
 428              	.LVL55:
ARM GAS  /var/folders/lp/x54gwt890xv47sdkqj1k04q40000gn/T//cc7THuQy.s 			page 19


 287:Drivers/lvgl/src/extra/themes/mono/lv_theme_mono.c ****         lv_obj_add_style(obj, &styles->large_border, LV_PART_ITEMS | LV_STATE_FOCUS_KEY);
 429              		.loc 1 287 9 is_stmt 1 view .LVU128
 287:Drivers/lvgl/src/extra/themes/mono/lv_theme_mono.c ****         lv_obj_add_style(obj, &styles->large_border, LV_PART_ITEMS | LV_STATE_FOCUS_KEY);
 430              		.loc 1 287 38 is_stmt 0 view .LVU129
 431 01e2 2968     		ldr	r1, [r5]
 287:Drivers/lvgl/src/extra/themes/mono/lv_theme_mono.c ****         lv_obj_add_style(obj, &styles->large_border, LV_PART_ITEMS | LV_STATE_FOCUS_KEY);
 432              		.loc 1 287 9 view .LVU130
 433 01e4 4E4E     		ldr	r6, .L42+40
 434 01e6 3246     		mov	r2, r6
 435 01e8 7831     		adds	r1, r1, #120
 436 01ea 2046     		mov	r0, r4
 437 01ec FFF7FEFF 		bl	lv_obj_add_style
 438              	.LVL56:
 288:Drivers/lvgl/src/extra/themes/mono/lv_theme_mono.c ****     }
 439              		.loc 1 288 9 is_stmt 1 view .LVU131
 288:Drivers/lvgl/src/extra/themes/mono/lv_theme_mono.c ****     }
 440              		.loc 1 288 38 is_stmt 0 view .LVU132
 441 01f0 2968     		ldr	r1, [r5]
 288:Drivers/lvgl/src/extra/themes/mono/lv_theme_mono.c ****     }
 442              		.loc 1 288 9 view .LVU133
 443 01f2 3246     		mov	r2, r6
 444 01f4 6831     		adds	r1, r1, #104
 445 01f6 2046     		mov	r0, r4
 446 01f8 FFF7FEFF 		bl	lv_obj_add_style
 447              	.LVL57:
 448 01fc 14E7     		b	.L1
 449              	.L38:
 259:Drivers/lvgl/src/extra/themes/mono/lv_theme_mono.c ****             lv_obj_add_style(obj, &styles->card, LV_PART_ITEMS);
 450              		.loc 1 259 13 is_stmt 1 view .LVU134
 259:Drivers/lvgl/src/extra/themes/mono/lv_theme_mono.c ****             lv_obj_add_style(obj, &styles->card, LV_PART_ITEMS);
 451              		.loc 1 259 42 is_stmt 0 view .LVU135
 452 01fe 404D     		ldr	r5, .L42+8
 453 0200 2968     		ldr	r1, [r5]
 259:Drivers/lvgl/src/extra/themes/mono/lv_theme_mono.c ****             lv_obj_add_style(obj, &styles->card, LV_PART_ITEMS);
 454              		.loc 1 259 13 view .LVU136
 455 0202 0022     		movs	r2, #0
 456 0204 4831     		adds	r1, r1, #72
 457 0206 2046     		mov	r0, r4
 458 0208 FFF7FEFF 		bl	lv_obj_add_style
 459              	.LVL58:
 260:Drivers/lvgl/src/extra/themes/mono/lv_theme_mono.c ****             lv_obj_add_style(obj, &styles->pr, LV_PART_ITEMS | LV_STATE_PRESSED);
 460              		.loc 1 260 13 is_stmt 1 view .LVU137
 260:Drivers/lvgl/src/extra/themes/mono/lv_theme_mono.c ****             lv_obj_add_style(obj, &styles->pr, LV_PART_ITEMS | LV_STATE_PRESSED);
 461              		.loc 1 260 42 is_stmt 0 view .LVU138
 462 020c 2968     		ldr	r1, [r5]
 260:Drivers/lvgl/src/extra/themes/mono/lv_theme_mono.c ****             lv_obj_add_style(obj, &styles->pr, LV_PART_ITEMS | LV_STATE_PRESSED);
 463              		.loc 1 260 13 view .LVU139
 464 020e 4FF4A022 		mov	r2, #327680
 465 0212 0831     		adds	r1, r1, #8
 466 0214 2046     		mov	r0, r4
 467 0216 FFF7FEFF 		bl	lv_obj_add_style
 468              	.LVL59:
 261:Drivers/lvgl/src/extra/themes/mono/lv_theme_mono.c ****             lv_obj_add_style(obj, &styles->disabled, LV_PART_ITEMS | LV_STATE_DISABLED);
 469              		.loc 1 261 13 is_stmt 1 view .LVU140
 261:Drivers/lvgl/src/extra/themes/mono/lv_theme_mono.c ****             lv_obj_add_style(obj, &styles->disabled, LV_PART_ITEMS | LV_STATE_DISABLED);
 470              		.loc 1 261 42 is_stmt 0 view .LVU141
 471 021a 2968     		ldr	r1, [r5]
ARM GAS  /var/folders/lp/x54gwt890xv47sdkqj1k04q40000gn/T//cc7THuQy.s 			page 20


 261:Drivers/lvgl/src/extra/themes/mono/lv_theme_mono.c ****             lv_obj_add_style(obj, &styles->disabled, LV_PART_ITEMS | LV_STATE_DISABLED);
 472              		.loc 1 261 13 view .LVU142
 473 021c 3D4A     		ldr	r2, .L42+28
 474 021e 2031     		adds	r1, r1, #32
 475 0220 2046     		mov	r0, r4
 476 0222 FFF7FEFF 		bl	lv_obj_add_style
 477              	.LVL60:
 262:Drivers/lvgl/src/extra/themes/mono/lv_theme_mono.c ****             lv_obj_add_style(obj, &styles->underline, LV_PART_ITEMS | LV_STATE_FOCUS_KEY);
 478              		.loc 1 262 13 is_stmt 1 view .LVU143
 262:Drivers/lvgl/src/extra/themes/mono/lv_theme_mono.c ****             lv_obj_add_style(obj, &styles->underline, LV_PART_ITEMS | LV_STATE_FOCUS_KEY);
 479              		.loc 1 262 42 is_stmt 0 view .LVU144
 480 0226 2968     		ldr	r1, [r5]
 262:Drivers/lvgl/src/extra/themes/mono/lv_theme_mono.c ****             lv_obj_add_style(obj, &styles->underline, LV_PART_ITEMS | LV_STATE_FOCUS_KEY);
 481              		.loc 1 262 13 view .LVU145
 482 0228 3C4A     		ldr	r2, .L42+36
 483 022a 3031     		adds	r1, r1, #48
 484 022c 2046     		mov	r0, r4
 485 022e FFF7FEFF 		bl	lv_obj_add_style
 486              	.LVL61:
 263:Drivers/lvgl/src/extra/themes/mono/lv_theme_mono.c ****             lv_obj_add_style(obj, &styles->large_border, LV_PART_ITEMS | LV_STATE_FOCUS_KEY);
 487              		.loc 1 263 13 is_stmt 1 view .LVU146
 263:Drivers/lvgl/src/extra/themes/mono/lv_theme_mono.c ****             lv_obj_add_style(obj, &styles->large_border, LV_PART_ITEMS | LV_STATE_FOCUS_KEY);
 488              		.loc 1 263 42 is_stmt 0 view .LVU147
 489 0232 2968     		ldr	r1, [r5]
 263:Drivers/lvgl/src/extra/themes/mono/lv_theme_mono.c ****             lv_obj_add_style(obj, &styles->large_border, LV_PART_ITEMS | LV_STATE_FOCUS_KEY);
 490              		.loc 1 263 13 view .LVU148
 491 0234 3A4E     		ldr	r6, .L42+40
 492 0236 3246     		mov	r2, r6
 493 0238 7831     		adds	r1, r1, #120
 494 023a 2046     		mov	r0, r4
 495 023c FFF7FEFF 		bl	lv_obj_add_style
 496              	.LVL62:
 264:Drivers/lvgl/src/extra/themes/mono/lv_theme_mono.c ****             return;
 497              		.loc 1 264 13 is_stmt 1 view .LVU149
 264:Drivers/lvgl/src/extra/themes/mono/lv_theme_mono.c ****             return;
 498              		.loc 1 264 42 is_stmt 0 view .LVU150
 499 0240 2968     		ldr	r1, [r5]
 264:Drivers/lvgl/src/extra/themes/mono/lv_theme_mono.c ****             return;
 500              		.loc 1 264 13 view .LVU151
 501 0242 3246     		mov	r2, r6
 502 0244 6831     		adds	r1, r1, #104
 503 0246 2046     		mov	r0, r4
 504 0248 FFF7FEFF 		bl	lv_obj_add_style
 505              	.LVL63:
 265:Drivers/lvgl/src/extra/themes/mono/lv_theme_mono.c ****         }
 506              		.loc 1 265 13 is_stmt 1 view .LVU152
 507 024c ECE6     		b	.L1
 508              	.L39:
 270:Drivers/lvgl/src/extra/themes/mono/lv_theme_mono.c ****             lv_obj_add_style(obj, &styles->card, LV_PART_ITEMS);
 509              		.loc 1 270 13 view .LVU153
 270:Drivers/lvgl/src/extra/themes/mono/lv_theme_mono.c ****             lv_obj_add_style(obj, &styles->card, LV_PART_ITEMS);
 510              		.loc 1 270 42 is_stmt 0 view .LVU154
 511 024e 2C4D     		ldr	r5, .L42+8
 512 0250 2968     		ldr	r1, [r5]
 270:Drivers/lvgl/src/extra/themes/mono/lv_theme_mono.c ****             lv_obj_add_style(obj, &styles->card, LV_PART_ITEMS);
 513              		.loc 1 270 13 view .LVU155
 514 0252 0022     		movs	r2, #0
ARM GAS  /var/folders/lp/x54gwt890xv47sdkqj1k04q40000gn/T//cc7THuQy.s 			page 21


 515 0254 4831     		adds	r1, r1, #72
 516 0256 2046     		mov	r0, r4
 517 0258 FFF7FEFF 		bl	lv_obj_add_style
 518              	.LVL64:
 271:Drivers/lvgl/src/extra/themes/mono/lv_theme_mono.c ****             lv_obj_add_style(obj, &styles->pr, LV_PART_ITEMS | LV_STATE_PRESSED);
 519              		.loc 1 271 13 is_stmt 1 view .LVU156
 271:Drivers/lvgl/src/extra/themes/mono/lv_theme_mono.c ****             lv_obj_add_style(obj, &styles->pr, LV_PART_ITEMS | LV_STATE_PRESSED);
 520              		.loc 1 271 42 is_stmt 0 view .LVU157
 521 025c 2968     		ldr	r1, [r5]
 271:Drivers/lvgl/src/extra/themes/mono/lv_theme_mono.c ****             lv_obj_add_style(obj, &styles->pr, LV_PART_ITEMS | LV_STATE_PRESSED);
 522              		.loc 1 271 13 view .LVU158
 523 025e 4FF4A022 		mov	r2, #327680
 524 0262 0831     		adds	r1, r1, #8
 525 0264 2046     		mov	r0, r4
 526 0266 FFF7FEFF 		bl	lv_obj_add_style
 527              	.LVL65:
 272:Drivers/lvgl/src/extra/themes/mono/lv_theme_mono.c ****             lv_obj_add_style(obj, &styles->inv, LV_PART_ITEMS | LV_STATE_CHECKED);
 528              		.loc 1 272 13 is_stmt 1 view .LVU159
 272:Drivers/lvgl/src/extra/themes/mono/lv_theme_mono.c ****             lv_obj_add_style(obj, &styles->inv, LV_PART_ITEMS | LV_STATE_CHECKED);
 529              		.loc 1 272 42 is_stmt 0 view .LVU160
 530 026a 2968     		ldr	r1, [r5]
 272:Drivers/lvgl/src/extra/themes/mono/lv_theme_mono.c ****             lv_obj_add_style(obj, &styles->inv, LV_PART_ITEMS | LV_STATE_CHECKED);
 531              		.loc 1 272 13 view .LVU161
 532 026c 294A     		ldr	r2, .L42+28
 533 026e 2031     		adds	r1, r1, #32
 534 0270 2046     		mov	r0, r4
 535 0272 FFF7FEFF 		bl	lv_obj_add_style
 536              	.LVL66:
 273:Drivers/lvgl/src/extra/themes/mono/lv_theme_mono.c ****             lv_obj_add_style(obj, &styles->disabled, LV_PART_ITEMS | LV_STATE_DISABLED);
 537              		.loc 1 273 13 is_stmt 1 view .LVU162
 273:Drivers/lvgl/src/extra/themes/mono/lv_theme_mono.c ****             lv_obj_add_style(obj, &styles->disabled, LV_PART_ITEMS | LV_STATE_DISABLED);
 538              		.loc 1 273 42 is_stmt 0 view .LVU163
 539 0276 2968     		ldr	r1, [r5]
 273:Drivers/lvgl/src/extra/themes/mono/lv_theme_mono.c ****             lv_obj_add_style(obj, &styles->disabled, LV_PART_ITEMS | LV_STATE_DISABLED);
 540              		.loc 1 273 13 view .LVU164
 541 0278 274A     		ldr	r2, .L42+32
 542 027a 2831     		adds	r1, r1, #40
 543 027c 2046     		mov	r0, r4
 544 027e FFF7FEFF 		bl	lv_obj_add_style
 545              	.LVL67:
 274:Drivers/lvgl/src/extra/themes/mono/lv_theme_mono.c ****             lv_obj_add_style(obj, &styles->focus, LV_STATE_FOCUS_KEY);
 546              		.loc 1 274 13 is_stmt 1 view .LVU165
 274:Drivers/lvgl/src/extra/themes/mono/lv_theme_mono.c ****             lv_obj_add_style(obj, &styles->focus, LV_STATE_FOCUS_KEY);
 547              		.loc 1 274 42 is_stmt 0 view .LVU166
 548 0282 2968     		ldr	r1, [r5]
 274:Drivers/lvgl/src/extra/themes/mono/lv_theme_mono.c ****             lv_obj_add_style(obj, &styles->focus, LV_STATE_FOCUS_KEY);
 549              		.loc 1 274 13 view .LVU167
 550 0284 254A     		ldr	r2, .L42+36
 551 0286 3031     		adds	r1, r1, #48
 552 0288 2046     		mov	r0, r4
 553 028a FFF7FEFF 		bl	lv_obj_add_style
 554              	.LVL68:
 275:Drivers/lvgl/src/extra/themes/mono/lv_theme_mono.c ****             lv_obj_add_style(obj, &styles->underline, LV_PART_ITEMS | LV_STATE_FOCUS_KEY);
 555              		.loc 1 275 13 is_stmt 1 view .LVU168
 275:Drivers/lvgl/src/extra/themes/mono/lv_theme_mono.c ****             lv_obj_add_style(obj, &styles->underline, LV_PART_ITEMS | LV_STATE_FOCUS_KEY);
 556              		.loc 1 275 42 is_stmt 0 view .LVU169
 557 028e 2968     		ldr	r1, [r5]
ARM GAS  /var/folders/lp/x54gwt890xv47sdkqj1k04q40000gn/T//cc7THuQy.s 			page 22


 275:Drivers/lvgl/src/extra/themes/mono/lv_theme_mono.c ****             lv_obj_add_style(obj, &styles->underline, LV_PART_ITEMS | LV_STATE_FOCUS_KEY);
 558              		.loc 1 275 13 view .LVU170
 559 0290 0422     		movs	r2, #4
 560 0292 3831     		adds	r1, r1, #56
 561 0294 2046     		mov	r0, r4
 562 0296 FFF7FEFF 		bl	lv_obj_add_style
 563              	.LVL69:
 276:Drivers/lvgl/src/extra/themes/mono/lv_theme_mono.c ****             lv_obj_add_style(obj, &styles->large_border, LV_PART_ITEMS | LV_STATE_FOCUS_KEY);
 564              		.loc 1 276 13 is_stmt 1 view .LVU171
 276:Drivers/lvgl/src/extra/themes/mono/lv_theme_mono.c ****             lv_obj_add_style(obj, &styles->large_border, LV_PART_ITEMS | LV_STATE_FOCUS_KEY);
 565              		.loc 1 276 42 is_stmt 0 view .LVU172
 566 029a 2968     		ldr	r1, [r5]
 276:Drivers/lvgl/src/extra/themes/mono/lv_theme_mono.c ****             lv_obj_add_style(obj, &styles->large_border, LV_PART_ITEMS | LV_STATE_FOCUS_KEY);
 567              		.loc 1 276 13 view .LVU173
 568 029c 204E     		ldr	r6, .L42+40
 569 029e 3246     		mov	r2, r6
 570 02a0 7831     		adds	r1, r1, #120
 571 02a2 2046     		mov	r0, r4
 572 02a4 FFF7FEFF 		bl	lv_obj_add_style
 573              	.LVL70:
 277:Drivers/lvgl/src/extra/themes/mono/lv_theme_mono.c ****             return;
 574              		.loc 1 277 13 is_stmt 1 view .LVU174
 277:Drivers/lvgl/src/extra/themes/mono/lv_theme_mono.c ****             return;
 575              		.loc 1 277 42 is_stmt 0 view .LVU175
 576 02a8 2968     		ldr	r1, [r5]
 277:Drivers/lvgl/src/extra/themes/mono/lv_theme_mono.c ****             return;
 577              		.loc 1 277 13 view .LVU176
 578 02aa 3246     		mov	r2, r6
 579 02ac 6831     		adds	r1, r1, #104
 580 02ae 2046     		mov	r0, r4
 581 02b0 FFF7FEFF 		bl	lv_obj_add_style
 582              	.LVL71:
 278:Drivers/lvgl/src/extra/themes/mono/lv_theme_mono.c ****         }
 583              		.loc 1 278 13 is_stmt 1 view .LVU177
 584 02b4 B8E6     		b	.L1
 585              	.L9:
 293:Drivers/lvgl/src/extra/themes/mono/lv_theme_mono.c ****         lv_obj_add_style(obj, &styles->card, 0);
 586              		.loc 1 293 10 view .LVU178
 293:Drivers/lvgl/src/extra/themes/mono/lv_theme_mono.c ****         lv_obj_add_style(obj, &styles->card, 0);
 587              		.loc 1 293 13 is_stmt 0 view .LVU179
 588 02b6 1B49     		ldr	r1, .L42+44
 589 02b8 2046     		mov	r0, r4
 590 02ba FFF7FEFF 		bl	lv_obj_check_type
 591              	.LVL72:
 293:Drivers/lvgl/src/extra/themes/mono/lv_theme_mono.c ****         lv_obj_add_style(obj, &styles->card, 0);
 592              		.loc 1 293 12 discriminator 1 view .LVU180
 593 02be 98B3     		cbz	r0, .L12
 294:Drivers/lvgl/src/extra/themes/mono/lv_theme_mono.c ****         lv_obj_add_style(obj, &styles->pad_zero, 0);
 594              		.loc 1 294 9 is_stmt 1 view .LVU181
 294:Drivers/lvgl/src/extra/themes/mono/lv_theme_mono.c ****         lv_obj_add_style(obj, &styles->pad_zero, 0);
 595              		.loc 1 294 38 is_stmt 0 view .LVU182
 596 02c0 0F4D     		ldr	r5, .L42+8
 597 02c2 2968     		ldr	r1, [r5]
 294:Drivers/lvgl/src/extra/themes/mono/lv_theme_mono.c ****         lv_obj_add_style(obj, &styles->pad_zero, 0);
 598              		.loc 1 294 9 view .LVU183
 599 02c4 0022     		movs	r2, #0
 600 02c6 0831     		adds	r1, r1, #8
ARM GAS  /var/folders/lp/x54gwt890xv47sdkqj1k04q40000gn/T//cc7THuQy.s 			page 23


 601 02c8 2046     		mov	r0, r4
 602 02ca FFF7FEFF 		bl	lv_obj_add_style
 603              	.LVL73:
 295:Drivers/lvgl/src/extra/themes/mono/lv_theme_mono.c ****         lv_obj_add_style(obj, &styles->inv, LV_PART_INDICATOR);
 604              		.loc 1 295 9 is_stmt 1 view .LVU184
 295:Drivers/lvgl/src/extra/themes/mono/lv_theme_mono.c ****         lv_obj_add_style(obj, &styles->inv, LV_PART_INDICATOR);
 605              		.loc 1 295 38 is_stmt 0 view .LVU185
 606 02ce 2968     		ldr	r1, [r5]
 295:Drivers/lvgl/src/extra/themes/mono/lv_theme_mono.c ****         lv_obj_add_style(obj, &styles->inv, LV_PART_INDICATOR);
 607              		.loc 1 295 9 view .LVU186
 608 02d0 0022     		movs	r2, #0
 609 02d2 5031     		adds	r1, r1, #80
 610 02d4 2046     		mov	r0, r4
 611 02d6 FFF7FEFF 		bl	lv_obj_add_style
 612              	.LVL74:
 296:Drivers/lvgl/src/extra/themes/mono/lv_theme_mono.c ****         lv_obj_add_style(obj, &styles->focus, LV_STATE_FOCUS_KEY);
 613              		.loc 1 296 9 is_stmt 1 view .LVU187
 296:Drivers/lvgl/src/extra/themes/mono/lv_theme_mono.c ****         lv_obj_add_style(obj, &styles->focus, LV_STATE_FOCUS_KEY);
 614              		.loc 1 296 38 is_stmt 0 view .LVU188
 615 02da 2968     		ldr	r1, [r5]
 296:Drivers/lvgl/src/extra/themes/mono/lv_theme_mono.c ****         lv_obj_add_style(obj, &styles->focus, LV_STATE_FOCUS_KEY);
 616              		.loc 1 296 9 view .LVU189
 617 02dc 4FF40032 		mov	r2, #131072
 618 02e0 2831     		adds	r1, r1, #40
 619 02e2 2046     		mov	r0, r4
 620 02e4 FFF7FEFF 		bl	lv_obj_add_style
 621              	.LVL75:
 297:Drivers/lvgl/src/extra/themes/mono/lv_theme_mono.c ****     }
 622              		.loc 1 297 9 is_stmt 1 view .LVU190
 297:Drivers/lvgl/src/extra/themes/mono/lv_theme_mono.c ****     }
 623              		.loc 1 297 38 is_stmt 0 view .LVU191
 624 02e8 2968     		ldr	r1, [r5]
 297:Drivers/lvgl/src/extra/themes/mono/lv_theme_mono.c ****     }
 625              		.loc 1 297 9 view .LVU192
 626 02ea 0422     		movs	r2, #4
 627 02ec 3831     		adds	r1, r1, #56
 628 02ee 2046     		mov	r0, r4
 629 02f0 FFF7FEFF 		bl	lv_obj_add_style
 630              	.LVL76:
 631 02f4 98E6     		b	.L1
 632              	.L43:
 633 02f6 00BF     		.align	2
 634              	.L42:
 635 02f8 00000000 		.word	lv_obj_class
 636 02fc 00000000 		.word	lv_tabview_class
 637 0300 00000000 		.word	styles
 638 0304 00000000 		.word	lv_win_class
 639 0308 00000000 		.word	lv_btn_class
 640 030c 00000000 		.word	lv_btnmatrix_class
 641 0310 00000000 		.word	lv_msgbox_class
 642 0314 20000500 		.word	327712
 643 0318 01000500 		.word	327681
 644 031c 80000500 		.word	327808
 645 0320 04000500 		.word	327684
 646 0324 00000000 		.word	lv_bar_class
 647              	.L12:
 302:Drivers/lvgl/src/extra/themes/mono/lv_theme_mono.c ****         lv_obj_add_style(obj, &styles->card, 0);
ARM GAS  /var/folders/lp/x54gwt890xv47sdkqj1k04q40000gn/T//cc7THuQy.s 			page 24


 648              		.loc 1 302 10 is_stmt 1 view .LVU193
 302:Drivers/lvgl/src/extra/themes/mono/lv_theme_mono.c ****         lv_obj_add_style(obj, &styles->card, 0);
 649              		.loc 1 302 13 is_stmt 0 view .LVU194
 650 0328 C449     		ldr	r1, .L44
 651 032a 2046     		mov	r0, r4
 652 032c FFF7FEFF 		bl	lv_obj_check_type
 653              	.LVL77:
 302:Drivers/lvgl/src/extra/themes/mono/lv_theme_mono.c ****         lv_obj_add_style(obj, &styles->card, 0);
 654              		.loc 1 302 12 discriminator 1 view .LVU195
 655 0330 70B3     		cbz	r0, .L13
 303:Drivers/lvgl/src/extra/themes/mono/lv_theme_mono.c ****         lv_obj_add_style(obj, &styles->pad_zero, 0);
 656              		.loc 1 303 9 is_stmt 1 view .LVU196
 303:Drivers/lvgl/src/extra/themes/mono/lv_theme_mono.c ****         lv_obj_add_style(obj, &styles->pad_zero, 0);
 657              		.loc 1 303 38 is_stmt 0 view .LVU197
 658 0332 C34D     		ldr	r5, .L44+4
 659 0334 2968     		ldr	r1, [r5]
 303:Drivers/lvgl/src/extra/themes/mono/lv_theme_mono.c ****         lv_obj_add_style(obj, &styles->pad_zero, 0);
 660              		.loc 1 303 9 view .LVU198
 661 0336 0022     		movs	r2, #0
 662 0338 0831     		adds	r1, r1, #8
 663 033a 2046     		mov	r0, r4
 664 033c FFF7FEFF 		bl	lv_obj_add_style
 665              	.LVL78:
 304:Drivers/lvgl/src/extra/themes/mono/lv_theme_mono.c ****         lv_obj_add_style(obj, &styles->inv, LV_PART_INDICATOR);
 666              		.loc 1 304 9 is_stmt 1 view .LVU199
 304:Drivers/lvgl/src/extra/themes/mono/lv_theme_mono.c ****         lv_obj_add_style(obj, &styles->inv, LV_PART_INDICATOR);
 667              		.loc 1 304 38 is_stmt 0 view .LVU200
 668 0340 2968     		ldr	r1, [r5]
 304:Drivers/lvgl/src/extra/themes/mono/lv_theme_mono.c ****         lv_obj_add_style(obj, &styles->inv, LV_PART_INDICATOR);
 669              		.loc 1 304 9 view .LVU201
 670 0342 0022     		movs	r2, #0
 671 0344 5031     		adds	r1, r1, #80
 672 0346 2046     		mov	r0, r4
 673 0348 FFF7FEFF 		bl	lv_obj_add_style
 674              	.LVL79:
 305:Drivers/lvgl/src/extra/themes/mono/lv_theme_mono.c ****         lv_obj_add_style(obj, &styles->card, LV_PART_KNOB);
 675              		.loc 1 305 9 is_stmt 1 view .LVU202
 305:Drivers/lvgl/src/extra/themes/mono/lv_theme_mono.c ****         lv_obj_add_style(obj, &styles->card, LV_PART_KNOB);
 676              		.loc 1 305 38 is_stmt 0 view .LVU203
 677 034c 2968     		ldr	r1, [r5]
 305:Drivers/lvgl/src/extra/themes/mono/lv_theme_mono.c ****         lv_obj_add_style(obj, &styles->card, LV_PART_KNOB);
 678              		.loc 1 305 9 view .LVU204
 679 034e 4FF40032 		mov	r2, #131072
 680 0352 2831     		adds	r1, r1, #40
 681 0354 2046     		mov	r0, r4
 682 0356 FFF7FEFF 		bl	lv_obj_add_style
 683              	.LVL80:
 306:Drivers/lvgl/src/extra/themes/mono/lv_theme_mono.c ****         lv_obj_add_style(obj, &styles->radius_circle, LV_PART_KNOB);
 684              		.loc 1 306 9 is_stmt 1 view .LVU205
 306:Drivers/lvgl/src/extra/themes/mono/lv_theme_mono.c ****         lv_obj_add_style(obj, &styles->radius_circle, LV_PART_KNOB);
 685              		.loc 1 306 38 is_stmt 0 view .LVU206
 686 035a 2968     		ldr	r1, [r5]
 306:Drivers/lvgl/src/extra/themes/mono/lv_theme_mono.c ****         lv_obj_add_style(obj, &styles->radius_circle, LV_PART_KNOB);
 687              		.loc 1 306 9 view .LVU207
 688 035c 4FF44032 		mov	r2, #196608
 689 0360 0831     		adds	r1, r1, #8
 690 0362 2046     		mov	r0, r4
ARM GAS  /var/folders/lp/x54gwt890xv47sdkqj1k04q40000gn/T//cc7THuQy.s 			page 25


 691 0364 FFF7FEFF 		bl	lv_obj_add_style
 692              	.LVL81:
 307:Drivers/lvgl/src/extra/themes/mono/lv_theme_mono.c ****         lv_obj_add_style(obj, &styles->focus, LV_STATE_FOCUS_KEY);
 693              		.loc 1 307 9 is_stmt 1 view .LVU208
 307:Drivers/lvgl/src/extra/themes/mono/lv_theme_mono.c ****         lv_obj_add_style(obj, &styles->focus, LV_STATE_FOCUS_KEY);
 694              		.loc 1 307 38 is_stmt 0 view .LVU209
 695 0368 2968     		ldr	r1, [r5]
 307:Drivers/lvgl/src/extra/themes/mono/lv_theme_mono.c ****         lv_obj_add_style(obj, &styles->focus, LV_STATE_FOCUS_KEY);
 696              		.loc 1 307 9 view .LVU210
 697 036a 4FF44032 		mov	r2, #196608
 698 036e 6031     		adds	r1, r1, #96
 699 0370 2046     		mov	r0, r4
 700 0372 FFF7FEFF 		bl	lv_obj_add_style
 701              	.LVL82:
 308:Drivers/lvgl/src/extra/themes/mono/lv_theme_mono.c ****         lv_obj_add_style(obj, &styles->edit, LV_STATE_EDITED);
 702              		.loc 1 308 9 is_stmt 1 view .LVU211
 308:Drivers/lvgl/src/extra/themes/mono/lv_theme_mono.c ****         lv_obj_add_style(obj, &styles->edit, LV_STATE_EDITED);
 703              		.loc 1 308 38 is_stmt 0 view .LVU212
 704 0376 2968     		ldr	r1, [r5]
 308:Drivers/lvgl/src/extra/themes/mono/lv_theme_mono.c ****         lv_obj_add_style(obj, &styles->edit, LV_STATE_EDITED);
 705              		.loc 1 308 9 view .LVU213
 706 0378 0422     		movs	r2, #4
 707 037a 3831     		adds	r1, r1, #56
 708 037c 2046     		mov	r0, r4
 709 037e FFF7FEFF 		bl	lv_obj_add_style
 710              	.LVL83:
 309:Drivers/lvgl/src/extra/themes/mono/lv_theme_mono.c ****     }
 711              		.loc 1 309 9 is_stmt 1 view .LVU214
 309:Drivers/lvgl/src/extra/themes/mono/lv_theme_mono.c ****     }
 712              		.loc 1 309 38 is_stmt 0 view .LVU215
 713 0382 2968     		ldr	r1, [r5]
 309:Drivers/lvgl/src/extra/themes/mono/lv_theme_mono.c ****     }
 714              		.loc 1 309 9 view .LVU216
 715 0384 0822     		movs	r2, #8
 716 0386 4031     		adds	r1, r1, #64
 717 0388 2046     		mov	r0, r4
 718 038a FFF7FEFF 		bl	lv_obj_add_style
 719              	.LVL84:
 720 038e 4BE6     		b	.L1
 721              	.L13:
 314:Drivers/lvgl/src/extra/themes/mono/lv_theme_mono.c ****         lv_obj_add_style(obj, &styles->scrollbar, LV_PART_SCROLLBAR);
 722              		.loc 1 314 10 is_stmt 1 view .LVU217
 314:Drivers/lvgl/src/extra/themes/mono/lv_theme_mono.c ****         lv_obj_add_style(obj, &styles->scrollbar, LV_PART_SCROLLBAR);
 723              		.loc 1 314 13 is_stmt 0 view .LVU218
 724 0390 AC49     		ldr	r1, .L44+8
 725 0392 2046     		mov	r0, r4
 726 0394 FFF7FEFF 		bl	lv_obj_check_type
 727              	.LVL85:
 314:Drivers/lvgl/src/extra/themes/mono/lv_theme_mono.c ****         lv_obj_add_style(obj, &styles->scrollbar, LV_PART_SCROLLBAR);
 728              		.loc 1 314 12 discriminator 1 view .LVU219
 729 0398 70B3     		cbz	r0, .L14
 315:Drivers/lvgl/src/extra/themes/mono/lv_theme_mono.c ****         lv_obj_add_style(obj, &styles->card, LV_PART_ITEMS);
 730              		.loc 1 315 9 is_stmt 1 view .LVU220
 315:Drivers/lvgl/src/extra/themes/mono/lv_theme_mono.c ****         lv_obj_add_style(obj, &styles->card, LV_PART_ITEMS);
 731              		.loc 1 315 38 is_stmt 0 view .LVU221
 732 039a A94D     		ldr	r5, .L44+4
 733 039c 2968     		ldr	r1, [r5]
ARM GAS  /var/folders/lp/x54gwt890xv47sdkqj1k04q40000gn/T//cc7THuQy.s 			page 26


 315:Drivers/lvgl/src/extra/themes/mono/lv_theme_mono.c ****         lv_obj_add_style(obj, &styles->card, LV_PART_ITEMS);
 734              		.loc 1 315 9 view .LVU222
 735 039e 4FF48032 		mov	r2, #65536
 736 03a2 1031     		adds	r1, r1, #16
 737 03a4 2046     		mov	r0, r4
 738 03a6 FFF7FEFF 		bl	lv_obj_add_style
 739              	.LVL86:
 316:Drivers/lvgl/src/extra/themes/mono/lv_theme_mono.c ****         lv_obj_add_style(obj, &styles->no_radius, LV_PART_ITEMS);
 740              		.loc 1 316 9 is_stmt 1 view .LVU223
 316:Drivers/lvgl/src/extra/themes/mono/lv_theme_mono.c ****         lv_obj_add_style(obj, &styles->no_radius, LV_PART_ITEMS);
 741              		.loc 1 316 38 is_stmt 0 view .LVU224
 742 03aa 2968     		ldr	r1, [r5]
 316:Drivers/lvgl/src/extra/themes/mono/lv_theme_mono.c ****         lv_obj_add_style(obj, &styles->no_radius, LV_PART_ITEMS);
 743              		.loc 1 316 9 view .LVU225
 744 03ac 4FF4A022 		mov	r2, #327680
 745 03b0 0831     		adds	r1, r1, #8
 746 03b2 2046     		mov	r0, r4
 747 03b4 FFF7FEFF 		bl	lv_obj_add_style
 748              	.LVL87:
 317:Drivers/lvgl/src/extra/themes/mono/lv_theme_mono.c ****         lv_obj_add_style(obj, &styles->pr, LV_PART_ITEMS | LV_STATE_PRESSED);
 749              		.loc 1 317 9 is_stmt 1 view .LVU226
 317:Drivers/lvgl/src/extra/themes/mono/lv_theme_mono.c ****         lv_obj_add_style(obj, &styles->pr, LV_PART_ITEMS | LV_STATE_PRESSED);
 750              		.loc 1 317 38 is_stmt 0 view .LVU227
 751 03b8 2968     		ldr	r1, [r5]
 317:Drivers/lvgl/src/extra/themes/mono/lv_theme_mono.c ****         lv_obj_add_style(obj, &styles->pr, LV_PART_ITEMS | LV_STATE_PRESSED);
 752              		.loc 1 317 9 view .LVU228
 753 03ba 4FF4A022 		mov	r2, #327680
 754 03be 5831     		adds	r1, r1, #88
 755 03c0 2046     		mov	r0, r4
 756 03c2 FFF7FEFF 		bl	lv_obj_add_style
 757              	.LVL88:
 318:Drivers/lvgl/src/extra/themes/mono/lv_theme_mono.c ****         lv_obj_add_style(obj, &styles->focus, LV_STATE_FOCUS_KEY);
 758              		.loc 1 318 9 is_stmt 1 view .LVU229
 318:Drivers/lvgl/src/extra/themes/mono/lv_theme_mono.c ****         lv_obj_add_style(obj, &styles->focus, LV_STATE_FOCUS_KEY);
 759              		.loc 1 318 38 is_stmt 0 view .LVU230
 760 03c6 2968     		ldr	r1, [r5]
 318:Drivers/lvgl/src/extra/themes/mono/lv_theme_mono.c ****         lv_obj_add_style(obj, &styles->focus, LV_STATE_FOCUS_KEY);
 761              		.loc 1 318 9 view .LVU231
 762 03c8 9F4A     		ldr	r2, .L44+12
 763 03ca 2031     		adds	r1, r1, #32
 764 03cc 2046     		mov	r0, r4
 765 03ce FFF7FEFF 		bl	lv_obj_add_style
 766              	.LVL89:
 319:Drivers/lvgl/src/extra/themes/mono/lv_theme_mono.c ****         lv_obj_add_style(obj, &styles->inv, LV_PART_ITEMS | LV_STATE_FOCUS_KEY);
 767              		.loc 1 319 9 is_stmt 1 view .LVU232
 319:Drivers/lvgl/src/extra/themes/mono/lv_theme_mono.c ****         lv_obj_add_style(obj, &styles->inv, LV_PART_ITEMS | LV_STATE_FOCUS_KEY);
 768              		.loc 1 319 38 is_stmt 0 view .LVU233
 769 03d2 2968     		ldr	r1, [r5]
 319:Drivers/lvgl/src/extra/themes/mono/lv_theme_mono.c ****         lv_obj_add_style(obj, &styles->inv, LV_PART_ITEMS | LV_STATE_FOCUS_KEY);
 770              		.loc 1 319 9 view .LVU234
 771 03d4 0422     		movs	r2, #4
 772 03d6 3831     		adds	r1, r1, #56
 773 03d8 2046     		mov	r0, r4
 774 03da FFF7FEFF 		bl	lv_obj_add_style
 775              	.LVL90:
 320:Drivers/lvgl/src/extra/themes/mono/lv_theme_mono.c ****         lv_obj_add_style(obj, &styles->edit, LV_STATE_EDITED);
 776              		.loc 1 320 9 is_stmt 1 view .LVU235
ARM GAS  /var/folders/lp/x54gwt890xv47sdkqj1k04q40000gn/T//cc7THuQy.s 			page 27


 320:Drivers/lvgl/src/extra/themes/mono/lv_theme_mono.c ****         lv_obj_add_style(obj, &styles->edit, LV_STATE_EDITED);
 777              		.loc 1 320 38 is_stmt 0 view .LVU236
 778 03de 2968     		ldr	r1, [r5]
 320:Drivers/lvgl/src/extra/themes/mono/lv_theme_mono.c ****         lv_obj_add_style(obj, &styles->edit, LV_STATE_EDITED);
 779              		.loc 1 320 9 view .LVU237
 780 03e0 9A4A     		ldr	r2, .L44+16
 781 03e2 2831     		adds	r1, r1, #40
 782 03e4 2046     		mov	r0, r4
 783 03e6 FFF7FEFF 		bl	lv_obj_add_style
 784              	.LVL91:
 321:Drivers/lvgl/src/extra/themes/mono/lv_theme_mono.c ****     }
 785              		.loc 1 321 9 is_stmt 1 view .LVU238
 321:Drivers/lvgl/src/extra/themes/mono/lv_theme_mono.c ****     }
 786              		.loc 1 321 38 is_stmt 0 view .LVU239
 787 03ea 2968     		ldr	r1, [r5]
 321:Drivers/lvgl/src/extra/themes/mono/lv_theme_mono.c ****     }
 788              		.loc 1 321 9 view .LVU240
 789 03ec 0822     		movs	r2, #8
 790 03ee 4031     		adds	r1, r1, #64
 791 03f0 2046     		mov	r0, r4
 792 03f2 FFF7FEFF 		bl	lv_obj_add_style
 793              	.LVL92:
 794 03f6 17E6     		b	.L1
 795              	.L14:
 326:Drivers/lvgl/src/extra/themes/mono/lv_theme_mono.c ****         lv_obj_add_style(obj, &styles->pad_gap, LV_PART_MAIN);
 796              		.loc 1 326 10 is_stmt 1 view .LVU241
 326:Drivers/lvgl/src/extra/themes/mono/lv_theme_mono.c ****         lv_obj_add_style(obj, &styles->pad_gap, LV_PART_MAIN);
 797              		.loc 1 326 13 is_stmt 0 view .LVU242
 798 03f8 9549     		ldr	r1, .L44+20
 799 03fa 2046     		mov	r0, r4
 800 03fc FFF7FEFF 		bl	lv_obj_check_type
 801              	.LVL93:
 326:Drivers/lvgl/src/extra/themes/mono/lv_theme_mono.c ****         lv_obj_add_style(obj, &styles->pad_gap, LV_PART_MAIN);
 802              		.loc 1 326 12 discriminator 1 view .LVU243
 803 0400 60B3     		cbz	r0, .L15
 327:Drivers/lvgl/src/extra/themes/mono/lv_theme_mono.c ****         lv_obj_add_style(obj, &styles->card, LV_PART_INDICATOR);
 804              		.loc 1 327 9 is_stmt 1 view .LVU244
 327:Drivers/lvgl/src/extra/themes/mono/lv_theme_mono.c ****         lv_obj_add_style(obj, &styles->card, LV_PART_INDICATOR);
 805              		.loc 1 327 38 is_stmt 0 view .LVU245
 806 0402 8F4D     		ldr	r5, .L44+4
 807 0404 2968     		ldr	r1, [r5]
 327:Drivers/lvgl/src/extra/themes/mono/lv_theme_mono.c ****         lv_obj_add_style(obj, &styles->card, LV_PART_INDICATOR);
 808              		.loc 1 327 9 view .LVU246
 809 0406 0022     		movs	r2, #0
 810 0408 4831     		adds	r1, r1, #72
 811 040a 2046     		mov	r0, r4
 812 040c FFF7FEFF 		bl	lv_obj_add_style
 813              	.LVL94:
 328:Drivers/lvgl/src/extra/themes/mono/lv_theme_mono.c ****         lv_obj_add_style(obj, &styles->disabled, LV_PART_INDICATOR | LV_STATE_DISABLED);
 814              		.loc 1 328 9 is_stmt 1 view .LVU247
 328:Drivers/lvgl/src/extra/themes/mono/lv_theme_mono.c ****         lv_obj_add_style(obj, &styles->disabled, LV_PART_INDICATOR | LV_STATE_DISABLED);
 815              		.loc 1 328 38 is_stmt 0 view .LVU248
 816 0410 2968     		ldr	r1, [r5]
 328:Drivers/lvgl/src/extra/themes/mono/lv_theme_mono.c ****         lv_obj_add_style(obj, &styles->disabled, LV_PART_INDICATOR | LV_STATE_DISABLED);
 817              		.loc 1 328 9 view .LVU249
 818 0412 4FF40032 		mov	r2, #131072
 819 0416 0831     		adds	r1, r1, #8
ARM GAS  /var/folders/lp/x54gwt890xv47sdkqj1k04q40000gn/T//cc7THuQy.s 			page 28


 820 0418 2046     		mov	r0, r4
 821 041a FFF7FEFF 		bl	lv_obj_add_style
 822              	.LVL95:
 329:Drivers/lvgl/src/extra/themes/mono/lv_theme_mono.c ****         lv_obj_add_style(obj, &styles->inv, LV_PART_INDICATOR | LV_STATE_CHECKED);
 823              		.loc 1 329 9 is_stmt 1 view .LVU250
 329:Drivers/lvgl/src/extra/themes/mono/lv_theme_mono.c ****         lv_obj_add_style(obj, &styles->inv, LV_PART_INDICATOR | LV_STATE_CHECKED);
 824              		.loc 1 329 38 is_stmt 0 view .LVU251
 825 041e 2968     		ldr	r1, [r5]
 329:Drivers/lvgl/src/extra/themes/mono/lv_theme_mono.c ****         lv_obj_add_style(obj, &styles->inv, LV_PART_INDICATOR | LV_STATE_CHECKED);
 826              		.loc 1 329 9 view .LVU252
 827 0420 8C4A     		ldr	r2, .L44+24
 828 0422 3031     		adds	r1, r1, #48
 829 0424 2046     		mov	r0, r4
 830 0426 FFF7FEFF 		bl	lv_obj_add_style
 831              	.LVL96:
 330:Drivers/lvgl/src/extra/themes/mono/lv_theme_mono.c ****         lv_obj_add_style(obj, &styles->pr, LV_PART_INDICATOR | LV_STATE_PRESSED);
 832              		.loc 1 330 9 is_stmt 1 view .LVU253
 330:Drivers/lvgl/src/extra/themes/mono/lv_theme_mono.c ****         lv_obj_add_style(obj, &styles->pr, LV_PART_INDICATOR | LV_STATE_PRESSED);
 833              		.loc 1 330 38 is_stmt 0 view .LVU254
 834 042a 2968     		ldr	r1, [r5]
 330:Drivers/lvgl/src/extra/themes/mono/lv_theme_mono.c ****         lv_obj_add_style(obj, &styles->pr, LV_PART_INDICATOR | LV_STATE_PRESSED);
 835              		.loc 1 330 9 view .LVU255
 836 042c 8A4A     		ldr	r2, .L44+28
 837 042e 2831     		adds	r1, r1, #40
 838 0430 2046     		mov	r0, r4
 839 0432 FFF7FEFF 		bl	lv_obj_add_style
 840              	.LVL97:
 331:Drivers/lvgl/src/extra/themes/mono/lv_theme_mono.c ****         lv_obj_add_style(obj, &styles->focus, LV_STATE_FOCUS_KEY);
 841              		.loc 1 331 9 is_stmt 1 view .LVU256
 331:Drivers/lvgl/src/extra/themes/mono/lv_theme_mono.c ****         lv_obj_add_style(obj, &styles->focus, LV_STATE_FOCUS_KEY);
 842              		.loc 1 331 38 is_stmt 0 view .LVU257
 843 0436 2968     		ldr	r1, [r5]
 331:Drivers/lvgl/src/extra/themes/mono/lv_theme_mono.c ****         lv_obj_add_style(obj, &styles->focus, LV_STATE_FOCUS_KEY);
 844              		.loc 1 331 9 view .LVU258
 845 0438 884A     		ldr	r2, .L44+32
 846 043a 2031     		adds	r1, r1, #32
 847 043c 2046     		mov	r0, r4
 848 043e FFF7FEFF 		bl	lv_obj_add_style
 849              	.LVL98:
 332:Drivers/lvgl/src/extra/themes/mono/lv_theme_mono.c ****         lv_obj_add_style(obj, &styles->edit, LV_STATE_EDITED);
 850              		.loc 1 332 9 is_stmt 1 view .LVU259
 332:Drivers/lvgl/src/extra/themes/mono/lv_theme_mono.c ****         lv_obj_add_style(obj, &styles->edit, LV_STATE_EDITED);
 851              		.loc 1 332 38 is_stmt 0 view .LVU260
 852 0442 2968     		ldr	r1, [r5]
 332:Drivers/lvgl/src/extra/themes/mono/lv_theme_mono.c ****         lv_obj_add_style(obj, &styles->edit, LV_STATE_EDITED);
 853              		.loc 1 332 9 view .LVU261
 854 0444 0422     		movs	r2, #4
 855 0446 3831     		adds	r1, r1, #56
 856 0448 2046     		mov	r0, r4
 857 044a FFF7FEFF 		bl	lv_obj_add_style
 858              	.LVL99:
 333:Drivers/lvgl/src/extra/themes/mono/lv_theme_mono.c ****     }
 859              		.loc 1 333 9 is_stmt 1 view .LVU262
 333:Drivers/lvgl/src/extra/themes/mono/lv_theme_mono.c ****     }
 860              		.loc 1 333 38 is_stmt 0 view .LVU263
 861 044e 2968     		ldr	r1, [r5]
 333:Drivers/lvgl/src/extra/themes/mono/lv_theme_mono.c ****     }
ARM GAS  /var/folders/lp/x54gwt890xv47sdkqj1k04q40000gn/T//cc7THuQy.s 			page 29


 862              		.loc 1 333 9 view .LVU264
 863 0450 0822     		movs	r2, #8
 864 0452 4031     		adds	r1, r1, #64
 865 0454 2046     		mov	r0, r4
 866 0456 FFF7FEFF 		bl	lv_obj_add_style
 867              	.LVL100:
 868 045a E5E5     		b	.L1
 869              	.L15:
 338:Drivers/lvgl/src/extra/themes/mono/lv_theme_mono.c ****         lv_obj_add_style(obj, &styles->card, 0);
 870              		.loc 1 338 10 is_stmt 1 view .LVU265
 338:Drivers/lvgl/src/extra/themes/mono/lv_theme_mono.c ****         lv_obj_add_style(obj, &styles->card, 0);
 871              		.loc 1 338 13 is_stmt 0 view .LVU266
 872 045c 8049     		ldr	r1, .L44+36
 873 045e 2046     		mov	r0, r4
 874 0460 FFF7FEFF 		bl	lv_obj_check_type
 875              	.LVL101:
 338:Drivers/lvgl/src/extra/themes/mono/lv_theme_mono.c ****         lv_obj_add_style(obj, &styles->card, 0);
 876              		.loc 1 338 12 discriminator 1 view .LVU267
 877 0464 0028     		cmp	r0, #0
 878 0466 42D0     		beq	.L16
 339:Drivers/lvgl/src/extra/themes/mono/lv_theme_mono.c ****         lv_obj_add_style(obj, &styles->radius_circle, 0);
 879              		.loc 1 339 9 is_stmt 1 view .LVU268
 339:Drivers/lvgl/src/extra/themes/mono/lv_theme_mono.c ****         lv_obj_add_style(obj, &styles->radius_circle, 0);
 880              		.loc 1 339 38 is_stmt 0 view .LVU269
 881 0468 754D     		ldr	r5, .L44+4
 882 046a 2968     		ldr	r1, [r5]
 339:Drivers/lvgl/src/extra/themes/mono/lv_theme_mono.c ****         lv_obj_add_style(obj, &styles->radius_circle, 0);
 883              		.loc 1 339 9 view .LVU270
 884 046c 0022     		movs	r2, #0
 885 046e 0831     		adds	r1, r1, #8
 886 0470 2046     		mov	r0, r4
 887 0472 FFF7FEFF 		bl	lv_obj_add_style
 888              	.LVL102:
 340:Drivers/lvgl/src/extra/themes/mono/lv_theme_mono.c ****         lv_obj_add_style(obj, &styles->pad_zero, 0);
 889              		.loc 1 340 9 is_stmt 1 view .LVU271
 340:Drivers/lvgl/src/extra/themes/mono/lv_theme_mono.c ****         lv_obj_add_style(obj, &styles->pad_zero, 0);
 890              		.loc 1 340 38 is_stmt 0 view .LVU272
 891 0476 2968     		ldr	r1, [r5]
 340:Drivers/lvgl/src/extra/themes/mono/lv_theme_mono.c ****         lv_obj_add_style(obj, &styles->pad_zero, 0);
 892              		.loc 1 340 9 view .LVU273
 893 0478 0022     		movs	r2, #0
 894 047a 6031     		adds	r1, r1, #96
 895 047c 2046     		mov	r0, r4
 896 047e FFF7FEFF 		bl	lv_obj_add_style
 897              	.LVL103:
 341:Drivers/lvgl/src/extra/themes/mono/lv_theme_mono.c ****         lv_obj_add_style(obj, &styles->inv, LV_PART_INDICATOR);
 898              		.loc 1 341 9 is_stmt 1 view .LVU274
 341:Drivers/lvgl/src/extra/themes/mono/lv_theme_mono.c ****         lv_obj_add_style(obj, &styles->inv, LV_PART_INDICATOR);
 899              		.loc 1 341 38 is_stmt 0 view .LVU275
 900 0482 2968     		ldr	r1, [r5]
 341:Drivers/lvgl/src/extra/themes/mono/lv_theme_mono.c ****         lv_obj_add_style(obj, &styles->inv, LV_PART_INDICATOR);
 901              		.loc 1 341 9 view .LVU276
 902 0484 0022     		movs	r2, #0
 903 0486 5031     		adds	r1, r1, #80
 904 0488 2046     		mov	r0, r4
 905 048a FFF7FEFF 		bl	lv_obj_add_style
 906              	.LVL104:
ARM GAS  /var/folders/lp/x54gwt890xv47sdkqj1k04q40000gn/T//cc7THuQy.s 			page 30


 342:Drivers/lvgl/src/extra/themes/mono/lv_theme_mono.c ****         lv_obj_add_style(obj, &styles->radius_circle, LV_PART_INDICATOR);
 907              		.loc 1 342 9 is_stmt 1 view .LVU277
 342:Drivers/lvgl/src/extra/themes/mono/lv_theme_mono.c ****         lv_obj_add_style(obj, &styles->radius_circle, LV_PART_INDICATOR);
 908              		.loc 1 342 38 is_stmt 0 view .LVU278
 909 048e 2968     		ldr	r1, [r5]
 342:Drivers/lvgl/src/extra/themes/mono/lv_theme_mono.c ****         lv_obj_add_style(obj, &styles->radius_circle, LV_PART_INDICATOR);
 910              		.loc 1 342 9 view .LVU279
 911 0490 4FF40032 		mov	r2, #131072
 912 0494 2831     		adds	r1, r1, #40
 913 0496 2046     		mov	r0, r4
 914 0498 FFF7FEFF 		bl	lv_obj_add_style
 915              	.LVL105:
 343:Drivers/lvgl/src/extra/themes/mono/lv_theme_mono.c ****         lv_obj_add_style(obj, &styles->card, LV_PART_KNOB);
 916              		.loc 1 343 9 is_stmt 1 view .LVU280
 343:Drivers/lvgl/src/extra/themes/mono/lv_theme_mono.c ****         lv_obj_add_style(obj, &styles->card, LV_PART_KNOB);
 917              		.loc 1 343 38 is_stmt 0 view .LVU281
 918 049c 2968     		ldr	r1, [r5]
 343:Drivers/lvgl/src/extra/themes/mono/lv_theme_mono.c ****         lv_obj_add_style(obj, &styles->card, LV_PART_KNOB);
 919              		.loc 1 343 9 view .LVU282
 920 049e 4FF40032 		mov	r2, #131072
 921 04a2 6031     		adds	r1, r1, #96
 922 04a4 2046     		mov	r0, r4
 923 04a6 FFF7FEFF 		bl	lv_obj_add_style
 924              	.LVL106:
 344:Drivers/lvgl/src/extra/themes/mono/lv_theme_mono.c ****         lv_obj_add_style(obj, &styles->radius_circle, LV_PART_KNOB);
 925              		.loc 1 344 9 is_stmt 1 view .LVU283
 344:Drivers/lvgl/src/extra/themes/mono/lv_theme_mono.c ****         lv_obj_add_style(obj, &styles->radius_circle, LV_PART_KNOB);
 926              		.loc 1 344 38 is_stmt 0 view .LVU284
 927 04aa 2968     		ldr	r1, [r5]
 344:Drivers/lvgl/src/extra/themes/mono/lv_theme_mono.c ****         lv_obj_add_style(obj, &styles->radius_circle, LV_PART_KNOB);
 928              		.loc 1 344 9 view .LVU285
 929 04ac 4FF44032 		mov	r2, #196608
 930 04b0 0831     		adds	r1, r1, #8
 931 04b2 2046     		mov	r0, r4
 932 04b4 FFF7FEFF 		bl	lv_obj_add_style
 933              	.LVL107:
 345:Drivers/lvgl/src/extra/themes/mono/lv_theme_mono.c ****         lv_obj_add_style(obj, &styles->pad_zero, LV_PART_KNOB);
 934              		.loc 1 345 9 is_stmt 1 view .LVU286
 345:Drivers/lvgl/src/extra/themes/mono/lv_theme_mono.c ****         lv_obj_add_style(obj, &styles->pad_zero, LV_PART_KNOB);
 935              		.loc 1 345 38 is_stmt 0 view .LVU287
 936 04b8 2968     		ldr	r1, [r5]
 345:Drivers/lvgl/src/extra/themes/mono/lv_theme_mono.c ****         lv_obj_add_style(obj, &styles->pad_zero, LV_PART_KNOB);
 937              		.loc 1 345 9 view .LVU288
 938 04ba 4FF44032 		mov	r2, #196608
 939 04be 6031     		adds	r1, r1, #96
 940 04c0 2046     		mov	r0, r4
 941 04c2 FFF7FEFF 		bl	lv_obj_add_style
 942              	.LVL108:
 346:Drivers/lvgl/src/extra/themes/mono/lv_theme_mono.c ****         lv_obj_add_style(obj, &styles->focus, LV_STATE_FOCUS_KEY);
 943              		.loc 1 346 9 is_stmt 1 view .LVU289
 346:Drivers/lvgl/src/extra/themes/mono/lv_theme_mono.c ****         lv_obj_add_style(obj, &styles->focus, LV_STATE_FOCUS_KEY);
 944              		.loc 1 346 38 is_stmt 0 view .LVU290
 945 04c6 2968     		ldr	r1, [r5]
 346:Drivers/lvgl/src/extra/themes/mono/lv_theme_mono.c ****         lv_obj_add_style(obj, &styles->focus, LV_STATE_FOCUS_KEY);
 946              		.loc 1 346 9 view .LVU291
 947 04c8 4FF44032 		mov	r2, #196608
 948 04cc 5031     		adds	r1, r1, #80
ARM GAS  /var/folders/lp/x54gwt890xv47sdkqj1k04q40000gn/T//cc7THuQy.s 			page 31


 949 04ce 2046     		mov	r0, r4
 950 04d0 FFF7FEFF 		bl	lv_obj_add_style
 951              	.LVL109:
 347:Drivers/lvgl/src/extra/themes/mono/lv_theme_mono.c ****         lv_obj_add_style(obj, &styles->edit, LV_STATE_EDITED);
 952              		.loc 1 347 9 is_stmt 1 view .LVU292
 347:Drivers/lvgl/src/extra/themes/mono/lv_theme_mono.c ****         lv_obj_add_style(obj, &styles->edit, LV_STATE_EDITED);
 953              		.loc 1 347 38 is_stmt 0 view .LVU293
 954 04d4 2968     		ldr	r1, [r5]
 347:Drivers/lvgl/src/extra/themes/mono/lv_theme_mono.c ****         lv_obj_add_style(obj, &styles->edit, LV_STATE_EDITED);
 955              		.loc 1 347 9 view .LVU294
 956 04d6 0422     		movs	r2, #4
 957 04d8 3831     		adds	r1, r1, #56
 958 04da 2046     		mov	r0, r4
 959 04dc FFF7FEFF 		bl	lv_obj_add_style
 960              	.LVL110:
 348:Drivers/lvgl/src/extra/themes/mono/lv_theme_mono.c ****     }
 961              		.loc 1 348 9 is_stmt 1 view .LVU295
 348:Drivers/lvgl/src/extra/themes/mono/lv_theme_mono.c ****     }
 962              		.loc 1 348 38 is_stmt 0 view .LVU296
 963 04e0 2968     		ldr	r1, [r5]
 348:Drivers/lvgl/src/extra/themes/mono/lv_theme_mono.c ****     }
 964              		.loc 1 348 9 view .LVU297
 965 04e2 0822     		movs	r2, #8
 966 04e4 4031     		adds	r1, r1, #64
 967 04e6 2046     		mov	r0, r4
 968 04e8 FFF7FEFF 		bl	lv_obj_add_style
 969              	.LVL111:
 970 04ec 9CE5     		b	.L1
 971              	.L16:
 353:Drivers/lvgl/src/extra/themes/mono/lv_theme_mono.c ****         lv_obj_add_style(obj, &styles->card, 0);
 972              		.loc 1 353 10 is_stmt 1 view .LVU298
 353:Drivers/lvgl/src/extra/themes/mono/lv_theme_mono.c ****         lv_obj_add_style(obj, &styles->card, 0);
 973              		.loc 1 353 13 is_stmt 0 view .LVU299
 974 04ee 5D49     		ldr	r1, .L44+40
 975 04f0 2046     		mov	r0, r4
 976 04f2 FFF7FEFF 		bl	lv_obj_check_type
 977              	.LVL112:
 353:Drivers/lvgl/src/extra/themes/mono/lv_theme_mono.c ****         lv_obj_add_style(obj, &styles->card, 0);
 978              		.loc 1 353 12 discriminator 1 view .LVU300
 979 04f6 48B3     		cbz	r0, .L17
 354:Drivers/lvgl/src/extra/themes/mono/lv_theme_mono.c ****         lv_obj_add_style(obj, &styles->scrollbar, LV_PART_SCROLLBAR);
 980              		.loc 1 354 9 is_stmt 1 view .LVU301
 354:Drivers/lvgl/src/extra/themes/mono/lv_theme_mono.c ****         lv_obj_add_style(obj, &styles->scrollbar, LV_PART_SCROLLBAR);
 981              		.loc 1 354 38 is_stmt 0 view .LVU302
 982 04f8 514D     		ldr	r5, .L44+4
 983 04fa 2968     		ldr	r1, [r5]
 354:Drivers/lvgl/src/extra/themes/mono/lv_theme_mono.c ****         lv_obj_add_style(obj, &styles->scrollbar, LV_PART_SCROLLBAR);
 984              		.loc 1 354 9 view .LVU303
 985 04fc 0022     		movs	r2, #0
 986 04fe 0831     		adds	r1, r1, #8
 987 0500 2046     		mov	r0, r4
 988 0502 FFF7FEFF 		bl	lv_obj_add_style
 989              	.LVL113:
 355:Drivers/lvgl/src/extra/themes/mono/lv_theme_mono.c ****         lv_obj_add_style(obj, &styles->card, LV_PART_ITEMS);
 990              		.loc 1 355 9 is_stmt 1 view .LVU304
 355:Drivers/lvgl/src/extra/themes/mono/lv_theme_mono.c ****         lv_obj_add_style(obj, &styles->card, LV_PART_ITEMS);
 991              		.loc 1 355 38 is_stmt 0 view .LVU305
ARM GAS  /var/folders/lp/x54gwt890xv47sdkqj1k04q40000gn/T//cc7THuQy.s 			page 32


 992 0506 2968     		ldr	r1, [r5]
 355:Drivers/lvgl/src/extra/themes/mono/lv_theme_mono.c ****         lv_obj_add_style(obj, &styles->card, LV_PART_ITEMS);
 993              		.loc 1 355 9 view .LVU306
 994 0508 4FF48032 		mov	r2, #65536
 995 050c 1031     		adds	r1, r1, #16
 996 050e 2046     		mov	r0, r4
 997 0510 FFF7FEFF 		bl	lv_obj_add_style
 998              	.LVL114:
 356:Drivers/lvgl/src/extra/themes/mono/lv_theme_mono.c ****         lv_obj_add_style(obj, &styles->card, LV_PART_TICKS);
 999              		.loc 1 356 9 is_stmt 1 view .LVU307
 356:Drivers/lvgl/src/extra/themes/mono/lv_theme_mono.c ****         lv_obj_add_style(obj, &styles->card, LV_PART_TICKS);
 1000              		.loc 1 356 38 is_stmt 0 view .LVU308
 1001 0514 2968     		ldr	r1, [r5]
 356:Drivers/lvgl/src/extra/themes/mono/lv_theme_mono.c ****         lv_obj_add_style(obj, &styles->card, LV_PART_TICKS);
 1002              		.loc 1 356 9 view .LVU309
 1003 0516 4FF4A022 		mov	r2, #327680
 1004 051a 0831     		adds	r1, r1, #8
 1005 051c 2046     		mov	r0, r4
 1006 051e FFF7FEFF 		bl	lv_obj_add_style
 1007              	.LVL115:
 357:Drivers/lvgl/src/extra/themes/mono/lv_theme_mono.c ****         lv_obj_add_style(obj, &styles->card, LV_PART_CURSOR);
 1008              		.loc 1 357 9 is_stmt 1 view .LVU310
 357:Drivers/lvgl/src/extra/themes/mono/lv_theme_mono.c ****         lv_obj_add_style(obj, &styles->card, LV_PART_CURSOR);
 1009              		.loc 1 357 38 is_stmt 0 view .LVU311
 1010 0522 2968     		ldr	r1, [r5]
 357:Drivers/lvgl/src/extra/themes/mono/lv_theme_mono.c ****         lv_obj_add_style(obj, &styles->card, LV_PART_CURSOR);
 1011              		.loc 1 357 9 view .LVU312
 1012 0524 4FF4C022 		mov	r2, #393216
 1013 0528 0831     		adds	r1, r1, #8
 1014 052a 2046     		mov	r0, r4
 1015 052c FFF7FEFF 		bl	lv_obj_add_style
 1016              	.LVL116:
 358:Drivers/lvgl/src/extra/themes/mono/lv_theme_mono.c ****         lv_obj_add_style(obj, &styles->focus, LV_STATE_FOCUS_KEY);
 1017              		.loc 1 358 9 is_stmt 1 view .LVU313
 358:Drivers/lvgl/src/extra/themes/mono/lv_theme_mono.c ****         lv_obj_add_style(obj, &styles->focus, LV_STATE_FOCUS_KEY);
 1018              		.loc 1 358 38 is_stmt 0 view .LVU314
 1019 0530 2968     		ldr	r1, [r5]
 358:Drivers/lvgl/src/extra/themes/mono/lv_theme_mono.c ****         lv_obj_add_style(obj, &styles->focus, LV_STATE_FOCUS_KEY);
 1020              		.loc 1 358 9 view .LVU315
 1021 0532 4FF4E022 		mov	r2, #458752
 1022 0536 0831     		adds	r1, r1, #8
 1023 0538 2046     		mov	r0, r4
 1024 053a FFF7FEFF 		bl	lv_obj_add_style
 1025              	.LVL117:
 359:Drivers/lvgl/src/extra/themes/mono/lv_theme_mono.c ****     }
 1026              		.loc 1 359 9 is_stmt 1 view .LVU316
 359:Drivers/lvgl/src/extra/themes/mono/lv_theme_mono.c ****     }
 1027              		.loc 1 359 38 is_stmt 0 view .LVU317
 1028 053e 2968     		ldr	r1, [r5]
 359:Drivers/lvgl/src/extra/themes/mono/lv_theme_mono.c ****     }
 1029              		.loc 1 359 9 view .LVU318
 1030 0540 0422     		movs	r2, #4
 1031 0542 3831     		adds	r1, r1, #56
 1032 0544 2046     		mov	r0, r4
 1033 0546 FFF7FEFF 		bl	lv_obj_add_style
 1034              	.LVL118:
 1035 054a 6DE5     		b	.L1
ARM GAS  /var/folders/lp/x54gwt890xv47sdkqj1k04q40000gn/T//cc7THuQy.s 			page 33


 1036              	.L17:
 364:Drivers/lvgl/src/extra/themes/mono/lv_theme_mono.c ****         lv_obj_add_style(obj, &styles->card, 0);
 1037              		.loc 1 364 10 is_stmt 1 view .LVU319
 364:Drivers/lvgl/src/extra/themes/mono/lv_theme_mono.c ****         lv_obj_add_style(obj, &styles->card, 0);
 1038              		.loc 1 364 13 is_stmt 0 view .LVU320
 1039 054c 4649     		ldr	r1, .L44+44
 1040 054e 2046     		mov	r0, r4
 1041 0550 FFF7FEFF 		bl	lv_obj_check_type
 1042              	.LVL119:
 364:Drivers/lvgl/src/extra/themes/mono/lv_theme_mono.c ****         lv_obj_add_style(obj, &styles->card, 0);
 1043              		.loc 1 364 12 discriminator 1 view .LVU321
 1044 0554 00B3     		cbz	r0, .L18
 365:Drivers/lvgl/src/extra/themes/mono/lv_theme_mono.c ****         lv_obj_add_style(obj, &styles->large_line_space, 0);
 1045              		.loc 1 365 9 is_stmt 1 view .LVU322
 365:Drivers/lvgl/src/extra/themes/mono/lv_theme_mono.c ****         lv_obj_add_style(obj, &styles->large_line_space, 0);
 1046              		.loc 1 365 38 is_stmt 0 view .LVU323
 1047 0556 3A4D     		ldr	r5, .L44+4
 1048 0558 2968     		ldr	r1, [r5]
 365:Drivers/lvgl/src/extra/themes/mono/lv_theme_mono.c ****         lv_obj_add_style(obj, &styles->large_line_space, 0);
 1049              		.loc 1 365 9 view .LVU324
 1050 055a 0022     		movs	r2, #0
 1051 055c 0831     		adds	r1, r1, #8
 1052 055e 2046     		mov	r0, r4
 1053 0560 FFF7FEFF 		bl	lv_obj_add_style
 1054              	.LVL120:
 366:Drivers/lvgl/src/extra/themes/mono/lv_theme_mono.c ****         lv_obj_add_style(obj, &styles->inv, LV_PART_SELECTED);
 1055              		.loc 1 366 9 is_stmt 1 view .LVU325
 366:Drivers/lvgl/src/extra/themes/mono/lv_theme_mono.c ****         lv_obj_add_style(obj, &styles->inv, LV_PART_SELECTED);
 1056              		.loc 1 366 38 is_stmt 0 view .LVU326
 1057 0564 2968     		ldr	r1, [r5]
 366:Drivers/lvgl/src/extra/themes/mono/lv_theme_mono.c ****         lv_obj_add_style(obj, &styles->inv, LV_PART_SELECTED);
 1058              		.loc 1 366 9 view .LVU327
 1059 0566 0022     		movs	r2, #0
 1060 0568 7031     		adds	r1, r1, #112
 1061 056a 2046     		mov	r0, r4
 1062 056c FFF7FEFF 		bl	lv_obj_add_style
 1063              	.LVL121:
 367:Drivers/lvgl/src/extra/themes/mono/lv_theme_mono.c ****         lv_obj_add_style(obj, &styles->focus, LV_STATE_FOCUS_KEY);
 1064              		.loc 1 367 9 is_stmt 1 view .LVU328
 367:Drivers/lvgl/src/extra/themes/mono/lv_theme_mono.c ****         lv_obj_add_style(obj, &styles->focus, LV_STATE_FOCUS_KEY);
 1065              		.loc 1 367 38 is_stmt 0 view .LVU329
 1066 0570 2968     		ldr	r1, [r5]
 367:Drivers/lvgl/src/extra/themes/mono/lv_theme_mono.c ****         lv_obj_add_style(obj, &styles->focus, LV_STATE_FOCUS_KEY);
 1067              		.loc 1 367 9 view .LVU330
 1068 0572 4FF48022 		mov	r2, #262144
 1069 0576 2831     		adds	r1, r1, #40
 1070 0578 2046     		mov	r0, r4
 1071 057a FFF7FEFF 		bl	lv_obj_add_style
 1072              	.LVL122:
 368:Drivers/lvgl/src/extra/themes/mono/lv_theme_mono.c ****         lv_obj_add_style(obj, &styles->edit, LV_STATE_EDITED);
 1073              		.loc 1 368 9 is_stmt 1 view .LVU331
 368:Drivers/lvgl/src/extra/themes/mono/lv_theme_mono.c ****         lv_obj_add_style(obj, &styles->edit, LV_STATE_EDITED);
 1074              		.loc 1 368 38 is_stmt 0 view .LVU332
 1075 057e 2968     		ldr	r1, [r5]
 368:Drivers/lvgl/src/extra/themes/mono/lv_theme_mono.c ****         lv_obj_add_style(obj, &styles->edit, LV_STATE_EDITED);
 1076              		.loc 1 368 9 view .LVU333
 1077 0580 0422     		movs	r2, #4
ARM GAS  /var/folders/lp/x54gwt890xv47sdkqj1k04q40000gn/T//cc7THuQy.s 			page 34


 1078 0582 3831     		adds	r1, r1, #56
 1079 0584 2046     		mov	r0, r4
 1080 0586 FFF7FEFF 		bl	lv_obj_add_style
 1081              	.LVL123:
 369:Drivers/lvgl/src/extra/themes/mono/lv_theme_mono.c ****     }
 1082              		.loc 1 369 9 is_stmt 1 view .LVU334
 369:Drivers/lvgl/src/extra/themes/mono/lv_theme_mono.c ****     }
 1083              		.loc 1 369 38 is_stmt 0 view .LVU335
 1084 058a 2968     		ldr	r1, [r5]
 369:Drivers/lvgl/src/extra/themes/mono/lv_theme_mono.c ****     }
 1085              		.loc 1 369 9 view .LVU336
 1086 058c 0822     		movs	r2, #8
 1087 058e 4031     		adds	r1, r1, #64
 1088 0590 2046     		mov	r0, r4
 1089 0592 FFF7FEFF 		bl	lv_obj_add_style
 1090              	.LVL124:
 1091 0596 47E5     		b	.L1
 1092              	.L18:
 374:Drivers/lvgl/src/extra/themes/mono/lv_theme_mono.c ****         lv_obj_add_style(obj, &styles->card, 0);
 1093              		.loc 1 374 10 is_stmt 1 view .LVU337
 374:Drivers/lvgl/src/extra/themes/mono/lv_theme_mono.c ****         lv_obj_add_style(obj, &styles->card, 0);
 1094              		.loc 1 374 13 is_stmt 0 view .LVU338
 1095 0598 3449     		ldr	r1, .L44+48
 1096 059a 2046     		mov	r0, r4
 1097 059c FFF7FEFF 		bl	lv_obj_check_type
 1098              	.LVL125:
 374:Drivers/lvgl/src/extra/themes/mono/lv_theme_mono.c ****         lv_obj_add_style(obj, &styles->card, 0);
 1099              		.loc 1 374 12 discriminator 1 view .LVU339
 1100 05a0 C8B1     		cbz	r0, .L19
 375:Drivers/lvgl/src/extra/themes/mono/lv_theme_mono.c ****         lv_obj_add_style(obj, &styles->pr, LV_STATE_PRESSED);
 1101              		.loc 1 375 9 is_stmt 1 view .LVU340
 375:Drivers/lvgl/src/extra/themes/mono/lv_theme_mono.c ****         lv_obj_add_style(obj, &styles->pr, LV_STATE_PRESSED);
 1102              		.loc 1 375 38 is_stmt 0 view .LVU341
 1103 05a2 274D     		ldr	r5, .L44+4
 1104 05a4 2968     		ldr	r1, [r5]
 375:Drivers/lvgl/src/extra/themes/mono/lv_theme_mono.c ****         lv_obj_add_style(obj, &styles->pr, LV_STATE_PRESSED);
 1105              		.loc 1 375 9 view .LVU342
 1106 05a6 0022     		movs	r2, #0
 1107 05a8 0831     		adds	r1, r1, #8
 1108 05aa 2046     		mov	r0, r4
 1109 05ac FFF7FEFF 		bl	lv_obj_add_style
 1110              	.LVL126:
 376:Drivers/lvgl/src/extra/themes/mono/lv_theme_mono.c ****         lv_obj_add_style(obj, &styles->focus, LV_STATE_FOCUS_KEY);
 1111              		.loc 1 376 9 is_stmt 1 view .LVU343
 376:Drivers/lvgl/src/extra/themes/mono/lv_theme_mono.c ****         lv_obj_add_style(obj, &styles->focus, LV_STATE_FOCUS_KEY);
 1112              		.loc 1 376 38 is_stmt 0 view .LVU344
 1113 05b0 2968     		ldr	r1, [r5]
 376:Drivers/lvgl/src/extra/themes/mono/lv_theme_mono.c ****         lv_obj_add_style(obj, &styles->focus, LV_STATE_FOCUS_KEY);
 1114              		.loc 1 376 9 view .LVU345
 1115 05b2 2022     		movs	r2, #32
 1116 05b4 1144     		add	r1, r1, r2
 1117 05b6 2046     		mov	r0, r4
 1118 05b8 FFF7FEFF 		bl	lv_obj_add_style
 1119              	.LVL127:
 377:Drivers/lvgl/src/extra/themes/mono/lv_theme_mono.c ****         lv_obj_add_style(obj, &styles->edit, LV_STATE_EDITED);
 1120              		.loc 1 377 9 is_stmt 1 view .LVU346
 377:Drivers/lvgl/src/extra/themes/mono/lv_theme_mono.c ****         lv_obj_add_style(obj, &styles->edit, LV_STATE_EDITED);
ARM GAS  /var/folders/lp/x54gwt890xv47sdkqj1k04q40000gn/T//cc7THuQy.s 			page 35


 1121              		.loc 1 377 38 is_stmt 0 view .LVU347
 1122 05bc 2968     		ldr	r1, [r5]
 377:Drivers/lvgl/src/extra/themes/mono/lv_theme_mono.c ****         lv_obj_add_style(obj, &styles->edit, LV_STATE_EDITED);
 1123              		.loc 1 377 9 view .LVU348
 1124 05be 0422     		movs	r2, #4
 1125 05c0 3831     		adds	r1, r1, #56
 1126 05c2 2046     		mov	r0, r4
 1127 05c4 FFF7FEFF 		bl	lv_obj_add_style
 1128              	.LVL128:
 378:Drivers/lvgl/src/extra/themes/mono/lv_theme_mono.c ****     }
 1129              		.loc 1 378 9 is_stmt 1 view .LVU349
 378:Drivers/lvgl/src/extra/themes/mono/lv_theme_mono.c ****     }
 1130              		.loc 1 378 38 is_stmt 0 view .LVU350
 1131 05c8 2968     		ldr	r1, [r5]
 378:Drivers/lvgl/src/extra/themes/mono/lv_theme_mono.c ****     }
 1132              		.loc 1 378 9 view .LVU351
 1133 05ca 0822     		movs	r2, #8
 1134 05cc 4031     		adds	r1, r1, #64
 1135 05ce 2046     		mov	r0, r4
 1136 05d0 FFF7FEFF 		bl	lv_obj_add_style
 1137              	.LVL129:
 1138 05d4 28E5     		b	.L1
 1139              	.L19:
 380:Drivers/lvgl/src/extra/themes/mono/lv_theme_mono.c ****         lv_obj_add_style(obj, &styles->card, 0);
 1140              		.loc 1 380 10 is_stmt 1 view .LVU352
 380:Drivers/lvgl/src/extra/themes/mono/lv_theme_mono.c ****         lv_obj_add_style(obj, &styles->card, 0);
 1141              		.loc 1 380 13 is_stmt 0 view .LVU353
 1142 05d6 2649     		ldr	r1, .L44+52
 1143 05d8 2046     		mov	r0, r4
 1144 05da FFF7FEFF 		bl	lv_obj_check_type
 1145              	.LVL130:
 380:Drivers/lvgl/src/extra/themes/mono/lv_theme_mono.c ****         lv_obj_add_style(obj, &styles->card, 0);
 1146              		.loc 1 380 12 discriminator 1 view .LVU354
 1147 05de 0028     		cmp	r0, #0
 1148 05e0 4CD0     		beq	.L20
 381:Drivers/lvgl/src/extra/themes/mono/lv_theme_mono.c ****         lv_obj_add_style(obj, &styles->large_line_space, 0);
 1149              		.loc 1 381 9 is_stmt 1 view .LVU355
 381:Drivers/lvgl/src/extra/themes/mono/lv_theme_mono.c ****         lv_obj_add_style(obj, &styles->large_line_space, 0);
 1150              		.loc 1 381 38 is_stmt 0 view .LVU356
 1151 05e2 174D     		ldr	r5, .L44+4
 1152 05e4 2968     		ldr	r1, [r5]
 381:Drivers/lvgl/src/extra/themes/mono/lv_theme_mono.c ****         lv_obj_add_style(obj, &styles->large_line_space, 0);
 1153              		.loc 1 381 9 view .LVU357
 1154 05e6 0022     		movs	r2, #0
 1155 05e8 0831     		adds	r1, r1, #8
 1156 05ea 2046     		mov	r0, r4
 1157 05ec FFF7FEFF 		bl	lv_obj_add_style
 1158              	.LVL131:
 382:Drivers/lvgl/src/extra/themes/mono/lv_theme_mono.c ****         lv_obj_add_style(obj, &styles->scrollbar, LV_PART_SCROLLBAR);
 1159              		.loc 1 382 9 is_stmt 1 view .LVU358
 382:Drivers/lvgl/src/extra/themes/mono/lv_theme_mono.c ****         lv_obj_add_style(obj, &styles->scrollbar, LV_PART_SCROLLBAR);
 1160              		.loc 1 382 38 is_stmt 0 view .LVU359
 1161 05f0 2968     		ldr	r1, [r5]
 382:Drivers/lvgl/src/extra/themes/mono/lv_theme_mono.c ****         lv_obj_add_style(obj, &styles->scrollbar, LV_PART_SCROLLBAR);
 1162              		.loc 1 382 9 view .LVU360
 1163 05f2 0022     		movs	r2, #0
 1164 05f4 7031     		adds	r1, r1, #112
ARM GAS  /var/folders/lp/x54gwt890xv47sdkqj1k04q40000gn/T//cc7THuQy.s 			page 36


 1165 05f6 2046     		mov	r0, r4
 1166 05f8 FFF7FEFF 		bl	lv_obj_add_style
 1167              	.LVL132:
 383:Drivers/lvgl/src/extra/themes/mono/lv_theme_mono.c ****         lv_obj_add_style(obj, &styles->inv, LV_PART_SELECTED | LV_STATE_CHECKED);
 1168              		.loc 1 383 9 is_stmt 1 view .LVU361
 383:Drivers/lvgl/src/extra/themes/mono/lv_theme_mono.c ****         lv_obj_add_style(obj, &styles->inv, LV_PART_SELECTED | LV_STATE_CHECKED);
 1169              		.loc 1 383 38 is_stmt 0 view .LVU362
 1170 05fc 2968     		ldr	r1, [r5]
 383:Drivers/lvgl/src/extra/themes/mono/lv_theme_mono.c ****         lv_obj_add_style(obj, &styles->inv, LV_PART_SELECTED | LV_STATE_CHECKED);
 1171              		.loc 1 383 9 view .LVU363
 1172 05fe 4FF48032 		mov	r2, #65536
 1173 0602 1031     		adds	r1, r1, #16
 1174 0604 2046     		mov	r0, r4
 1175 0606 FFF7FEFF 		bl	lv_obj_add_style
 1176              	.LVL133:
 384:Drivers/lvgl/src/extra/themes/mono/lv_theme_mono.c ****         lv_obj_add_style(obj, &styles->pr, LV_PART_SELECTED | LV_STATE_PRESSED);
 1177              		.loc 1 384 9 is_stmt 1 view .LVU364
 384:Drivers/lvgl/src/extra/themes/mono/lv_theme_mono.c ****         lv_obj_add_style(obj, &styles->pr, LV_PART_SELECTED | LV_STATE_PRESSED);
 1178              		.loc 1 384 38 is_stmt 0 view .LVU365
 1179 060a 2968     		ldr	r1, [r5]
 384:Drivers/lvgl/src/extra/themes/mono/lv_theme_mono.c ****         lv_obj_add_style(obj, &styles->pr, LV_PART_SELECTED | LV_STATE_PRESSED);
 1180              		.loc 1 384 9 view .LVU366
 1181 060c 194A     		ldr	r2, .L44+56
 1182 060e 2831     		adds	r1, r1, #40
 1183 0610 2046     		mov	r0, r4
 1184 0612 FFF7FEFF 		bl	lv_obj_add_style
 1185              	.LVL134:
 385:Drivers/lvgl/src/extra/themes/mono/lv_theme_mono.c ****         lv_obj_add_style(obj, &styles->focus, LV_STATE_FOCUS_KEY);
 1186              		.loc 1 385 9 is_stmt 1 view .LVU367
 385:Drivers/lvgl/src/extra/themes/mono/lv_theme_mono.c ****         lv_obj_add_style(obj, &styles->focus, LV_STATE_FOCUS_KEY);
 1187              		.loc 1 385 38 is_stmt 0 view .LVU368
 1188 0616 2968     		ldr	r1, [r5]
 385:Drivers/lvgl/src/extra/themes/mono/lv_theme_mono.c ****         lv_obj_add_style(obj, &styles->focus, LV_STATE_FOCUS_KEY);
 1189              		.loc 1 385 9 view .LVU369
 1190 0618 174A     		ldr	r2, .L44+60
 1191 061a 2031     		adds	r1, r1, #32
 1192 061c 2046     		mov	r0, r4
 1193 061e FFF7FEFF 		bl	lv_obj_add_style
 1194              	.LVL135:
 386:Drivers/lvgl/src/extra/themes/mono/lv_theme_mono.c ****         lv_obj_add_style(obj, &styles->edit, LV_STATE_EDITED);
 1195              		.loc 1 386 9 is_stmt 1 view .LVU370
 386:Drivers/lvgl/src/extra/themes/mono/lv_theme_mono.c ****         lv_obj_add_style(obj, &styles->edit, LV_STATE_EDITED);
 1196              		.loc 1 386 38 is_stmt 0 view .LVU371
 1197 0622 2968     		ldr	r1, [r5]
 386:Drivers/lvgl/src/extra/themes/mono/lv_theme_mono.c ****         lv_obj_add_style(obj, &styles->edit, LV_STATE_EDITED);
 1198              		.loc 1 386 9 view .LVU372
 1199 0624 0422     		movs	r2, #4
 1200 0626 3831     		adds	r1, r1, #56
 1201 0628 2046     		mov	r0, r4
 1202 062a FFF7FEFF 		bl	lv_obj_add_style
 1203              	.LVL136:
 387:Drivers/lvgl/src/extra/themes/mono/lv_theme_mono.c ****     }
 1204              		.loc 1 387 9 is_stmt 1 view .LVU373
 387:Drivers/lvgl/src/extra/themes/mono/lv_theme_mono.c ****     }
 1205              		.loc 1 387 38 is_stmt 0 view .LVU374
 1206 062e 2968     		ldr	r1, [r5]
 387:Drivers/lvgl/src/extra/themes/mono/lv_theme_mono.c ****     }
ARM GAS  /var/folders/lp/x54gwt890xv47sdkqj1k04q40000gn/T//cc7THuQy.s 			page 37


 1207              		.loc 1 387 9 view .LVU375
 1208 0630 0822     		movs	r2, #8
 1209 0632 4031     		adds	r1, r1, #64
 1210 0634 2046     		mov	r0, r4
 1211 0636 FFF7FEFF 		bl	lv_obj_add_style
 1212              	.LVL137:
 1213 063a F5E4     		b	.L1
 1214              	.L45:
 1215              		.align	2
 1216              	.L44:
 1217 063c 00000000 		.word	lv_slider_class
 1218 0640 00000000 		.word	styles
 1219 0644 00000000 		.word	lv_table_class
 1220 0648 20000500 		.word	327712
 1221 064c 04000500 		.word	327684
 1222 0650 00000000 		.word	lv_checkbox_class
 1223 0654 80000200 		.word	131200
 1224 0658 01000200 		.word	131073
 1225 065c 20000200 		.word	131104
 1226 0660 00000000 		.word	lv_switch_class
 1227 0664 00000000 		.word	lv_chart_class
 1228 0668 00000000 		.word	lv_roller_class
 1229 066c 00000000 		.word	lv_dropdown_class
 1230 0670 00000000 		.word	lv_dropdownlist_class
 1231 0674 01000400 		.word	262145
 1232 0678 20000400 		.word	262176
 1233              	.L20:
 392:Drivers/lvgl/src/extra/themes/mono/lv_theme_mono.c ****         lv_obj_add_style(obj, &styles->card, 0);
 1234              		.loc 1 392 10 is_stmt 1 view .LVU376
 392:Drivers/lvgl/src/extra/themes/mono/lv_theme_mono.c ****         lv_obj_add_style(obj, &styles->card, 0);
 1235              		.loc 1 392 13 is_stmt 0 view .LVU377
 1236 067c B449     		ldr	r1, .L46
 1237 067e 2046     		mov	r0, r4
 1238 0680 FFF7FEFF 		bl	lv_obj_check_type
 1239              	.LVL138:
 392:Drivers/lvgl/src/extra/themes/mono/lv_theme_mono.c ****         lv_obj_add_style(obj, &styles->card, 0);
 1240              		.loc 1 392 12 discriminator 1 view .LVU378
 1241 0684 78B3     		cbz	r0, .L21
 393:Drivers/lvgl/src/extra/themes/mono/lv_theme_mono.c ****         lv_obj_add_style(obj, &styles->inv, LV_PART_INDICATOR);
 1242              		.loc 1 393 9 is_stmt 1 view .LVU379
 393:Drivers/lvgl/src/extra/themes/mono/lv_theme_mono.c ****         lv_obj_add_style(obj, &styles->inv, LV_PART_INDICATOR);
 1243              		.loc 1 393 38 is_stmt 0 view .LVU380
 1244 0686 B34D     		ldr	r5, .L46+4
 1245 0688 2968     		ldr	r1, [r5]
 393:Drivers/lvgl/src/extra/themes/mono/lv_theme_mono.c ****         lv_obj_add_style(obj, &styles->inv, LV_PART_INDICATOR);
 1246              		.loc 1 393 9 view .LVU381
 1247 068a 0022     		movs	r2, #0
 1248 068c 0831     		adds	r1, r1, #8
 1249 068e 2046     		mov	r0, r4
 1250 0690 FFF7FEFF 		bl	lv_obj_add_style
 1251              	.LVL139:
 394:Drivers/lvgl/src/extra/themes/mono/lv_theme_mono.c ****         lv_obj_add_style(obj, &styles->pad_zero, LV_PART_INDICATOR);
 1252              		.loc 1 394 9 is_stmt 1 view .LVU382
 394:Drivers/lvgl/src/extra/themes/mono/lv_theme_mono.c ****         lv_obj_add_style(obj, &styles->pad_zero, LV_PART_INDICATOR);
 1253              		.loc 1 394 38 is_stmt 0 view .LVU383
 1254 0694 2968     		ldr	r1, [r5]
 394:Drivers/lvgl/src/extra/themes/mono/lv_theme_mono.c ****         lv_obj_add_style(obj, &styles->pad_zero, LV_PART_INDICATOR);
ARM GAS  /var/folders/lp/x54gwt890xv47sdkqj1k04q40000gn/T//cc7THuQy.s 			page 38


 1255              		.loc 1 394 9 view .LVU384
 1256 0696 4FF40032 		mov	r2, #131072
 1257 069a 2831     		adds	r1, r1, #40
 1258 069c 2046     		mov	r0, r4
 1259 069e FFF7FEFF 		bl	lv_obj_add_style
 1260              	.LVL140:
 395:Drivers/lvgl/src/extra/themes/mono/lv_theme_mono.c ****         lv_obj_add_style(obj, &styles->card, LV_PART_KNOB);
 1261              		.loc 1 395 9 is_stmt 1 view .LVU385
 395:Drivers/lvgl/src/extra/themes/mono/lv_theme_mono.c ****         lv_obj_add_style(obj, &styles->card, LV_PART_KNOB);
 1262              		.loc 1 395 38 is_stmt 0 view .LVU386
 1263 06a2 2968     		ldr	r1, [r5]
 395:Drivers/lvgl/src/extra/themes/mono/lv_theme_mono.c ****         lv_obj_add_style(obj, &styles->card, LV_PART_KNOB);
 1264              		.loc 1 395 9 view .LVU387
 1265 06a4 4FF40032 		mov	r2, #131072
 1266 06a8 5031     		adds	r1, r1, #80
 1267 06aa 2046     		mov	r0, r4
 1268 06ac FFF7FEFF 		bl	lv_obj_add_style
 1269              	.LVL141:
 396:Drivers/lvgl/src/extra/themes/mono/lv_theme_mono.c ****         lv_obj_add_style(obj, &styles->radius_circle, LV_PART_KNOB);
 1270              		.loc 1 396 9 is_stmt 1 view .LVU388
 396:Drivers/lvgl/src/extra/themes/mono/lv_theme_mono.c ****         lv_obj_add_style(obj, &styles->radius_circle, LV_PART_KNOB);
 1271              		.loc 1 396 38 is_stmt 0 view .LVU389
 1272 06b0 2968     		ldr	r1, [r5]
 396:Drivers/lvgl/src/extra/themes/mono/lv_theme_mono.c ****         lv_obj_add_style(obj, &styles->radius_circle, LV_PART_KNOB);
 1273              		.loc 1 396 9 view .LVU390
 1274 06b2 4FF44032 		mov	r2, #196608
 1275 06b6 0831     		adds	r1, r1, #8
 1276 06b8 2046     		mov	r0, r4
 1277 06ba FFF7FEFF 		bl	lv_obj_add_style
 1278              	.LVL142:
 397:Drivers/lvgl/src/extra/themes/mono/lv_theme_mono.c ****         lv_obj_add_style(obj, &styles->focus, LV_STATE_FOCUS_KEY);
 1279              		.loc 1 397 9 is_stmt 1 view .LVU391
 397:Drivers/lvgl/src/extra/themes/mono/lv_theme_mono.c ****         lv_obj_add_style(obj, &styles->focus, LV_STATE_FOCUS_KEY);
 1280              		.loc 1 397 38 is_stmt 0 view .LVU392
 1281 06be 2968     		ldr	r1, [r5]
 397:Drivers/lvgl/src/extra/themes/mono/lv_theme_mono.c ****         lv_obj_add_style(obj, &styles->focus, LV_STATE_FOCUS_KEY);
 1282              		.loc 1 397 9 view .LVU393
 1283 06c0 4FF44032 		mov	r2, #196608
 1284 06c4 6031     		adds	r1, r1, #96
 1285 06c6 2046     		mov	r0, r4
 1286 06c8 FFF7FEFF 		bl	lv_obj_add_style
 1287              	.LVL143:
 398:Drivers/lvgl/src/extra/themes/mono/lv_theme_mono.c ****         lv_obj_add_style(obj, &styles->edit, LV_STATE_EDITED);
 1288              		.loc 1 398 9 is_stmt 1 view .LVU394
 398:Drivers/lvgl/src/extra/themes/mono/lv_theme_mono.c ****         lv_obj_add_style(obj, &styles->edit, LV_STATE_EDITED);
 1289              		.loc 1 398 38 is_stmt 0 view .LVU395
 1290 06cc 2968     		ldr	r1, [r5]
 398:Drivers/lvgl/src/extra/themes/mono/lv_theme_mono.c ****         lv_obj_add_style(obj, &styles->edit, LV_STATE_EDITED);
 1291              		.loc 1 398 9 view .LVU396
 1292 06ce 0422     		movs	r2, #4
 1293 06d0 3831     		adds	r1, r1, #56
 1294 06d2 2046     		mov	r0, r4
 1295 06d4 FFF7FEFF 		bl	lv_obj_add_style
 1296              	.LVL144:
 399:Drivers/lvgl/src/extra/themes/mono/lv_theme_mono.c ****     }
 1297              		.loc 1 399 9 is_stmt 1 view .LVU397
 399:Drivers/lvgl/src/extra/themes/mono/lv_theme_mono.c ****     }
ARM GAS  /var/folders/lp/x54gwt890xv47sdkqj1k04q40000gn/T//cc7THuQy.s 			page 39


 1298              		.loc 1 399 38 is_stmt 0 view .LVU398
 1299 06d8 2968     		ldr	r1, [r5]
 399:Drivers/lvgl/src/extra/themes/mono/lv_theme_mono.c ****     }
 1300              		.loc 1 399 9 view .LVU399
 1301 06da 0822     		movs	r2, #8
 1302 06dc 4031     		adds	r1, r1, #64
 1303 06de 2046     		mov	r0, r4
 1304 06e0 FFF7FEFF 		bl	lv_obj_add_style
 1305              	.LVL145:
 1306 06e4 A0E4     		b	.L1
 1307              	.L21:
 404:Drivers/lvgl/src/extra/themes/mono/lv_theme_mono.c ****         lv_obj_add_style(obj, &styles->card, 0);
 1308              		.loc 1 404 10 is_stmt 1 view .LVU400
 404:Drivers/lvgl/src/extra/themes/mono/lv_theme_mono.c ****         lv_obj_add_style(obj, &styles->card, 0);
 1309              		.loc 1 404 13 is_stmt 0 view .LVU401
 1310 06e6 9C49     		ldr	r1, .L46+8
 1311 06e8 2046     		mov	r0, r4
 1312 06ea FFF7FEFF 		bl	lv_obj_check_type
 1313              	.LVL146:
 404:Drivers/lvgl/src/extra/themes/mono/lv_theme_mono.c ****         lv_obj_add_style(obj, &styles->card, 0);
 1314              		.loc 1 404 12 discriminator 1 view .LVU402
 1315 06ee 38B1     		cbz	r0, .L22
 405:Drivers/lvgl/src/extra/themes/mono/lv_theme_mono.c ****     }
 1316              		.loc 1 405 9 is_stmt 1 view .LVU403
 405:Drivers/lvgl/src/extra/themes/mono/lv_theme_mono.c ****     }
 1317              		.loc 1 405 38 is_stmt 0 view .LVU404
 1318 06f0 984B     		ldr	r3, .L46+4
 1319 06f2 1968     		ldr	r1, [r3]
 405:Drivers/lvgl/src/extra/themes/mono/lv_theme_mono.c ****     }
 1320              		.loc 1 405 9 view .LVU405
 1321 06f4 0022     		movs	r2, #0
 1322 06f6 0831     		adds	r1, r1, #8
 1323 06f8 2046     		mov	r0, r4
 1324 06fa FFF7FEFF 		bl	lv_obj_add_style
 1325              	.LVL147:
 1326 06fe 93E4     		b	.L1
 1327              	.L22:
 410:Drivers/lvgl/src/extra/themes/mono/lv_theme_mono.c ****         lv_obj_add_style(obj, &styles->card, 0);
 1328              		.loc 1 410 10 is_stmt 1 view .LVU406
 410:Drivers/lvgl/src/extra/themes/mono/lv_theme_mono.c ****         lv_obj_add_style(obj, &styles->card, 0);
 1329              		.loc 1 410 13 is_stmt 0 view .LVU407
 1330 0700 9649     		ldr	r1, .L46+12
 1331 0702 2046     		mov	r0, r4
 1332 0704 FFF7FEFF 		bl	lv_obj_check_type
 1333              	.LVL148:
 410:Drivers/lvgl/src/extra/themes/mono/lv_theme_mono.c ****         lv_obj_add_style(obj, &styles->card, 0);
 1334              		.loc 1 410 12 discriminator 1 view .LVU408
 1335 0708 00B3     		cbz	r0, .L23
 411:Drivers/lvgl/src/extra/themes/mono/lv_theme_mono.c ****         lv_obj_add_style(obj, &styles->scrollbar, LV_PART_SCROLLBAR);
 1336              		.loc 1 411 9 is_stmt 1 view .LVU409
 411:Drivers/lvgl/src/extra/themes/mono/lv_theme_mono.c ****         lv_obj_add_style(obj, &styles->scrollbar, LV_PART_SCROLLBAR);
 1337              		.loc 1 411 38 is_stmt 0 view .LVU410
 1338 070a 924D     		ldr	r5, .L46+4
 1339 070c 2968     		ldr	r1, [r5]
 411:Drivers/lvgl/src/extra/themes/mono/lv_theme_mono.c ****         lv_obj_add_style(obj, &styles->scrollbar, LV_PART_SCROLLBAR);
 1340              		.loc 1 411 9 view .LVU411
 1341 070e 0022     		movs	r2, #0
ARM GAS  /var/folders/lp/x54gwt890xv47sdkqj1k04q40000gn/T//cc7THuQy.s 			page 40


 1342 0710 0831     		adds	r1, r1, #8
 1343 0712 2046     		mov	r0, r4
 1344 0714 FFF7FEFF 		bl	lv_obj_add_style
 1345              	.LVL149:
 412:Drivers/lvgl/src/extra/themes/mono/lv_theme_mono.c ****         lv_obj_add_style(obj, &styles->ta_cursor, LV_PART_CURSOR | LV_STATE_FOCUSED);
 1346              		.loc 1 412 9 is_stmt 1 view .LVU412
 412:Drivers/lvgl/src/extra/themes/mono/lv_theme_mono.c ****         lv_obj_add_style(obj, &styles->ta_cursor, LV_PART_CURSOR | LV_STATE_FOCUSED);
 1347              		.loc 1 412 38 is_stmt 0 view .LVU413
 1348 0718 2968     		ldr	r1, [r5]
 412:Drivers/lvgl/src/extra/themes/mono/lv_theme_mono.c ****         lv_obj_add_style(obj, &styles->ta_cursor, LV_PART_CURSOR | LV_STATE_FOCUSED);
 1349              		.loc 1 412 9 view .LVU414
 1350 071a 4FF48032 		mov	r2, #65536
 1351 071e 1031     		adds	r1, r1, #16
 1352 0720 2046     		mov	r0, r4
 1353 0722 FFF7FEFF 		bl	lv_obj_add_style
 1354              	.LVL150:
 413:Drivers/lvgl/src/extra/themes/mono/lv_theme_mono.c ****         lv_obj_add_style(obj, &styles->focus, LV_STATE_FOCUSED);
 1355              		.loc 1 413 9 is_stmt 1 view .LVU415
 413:Drivers/lvgl/src/extra/themes/mono/lv_theme_mono.c ****         lv_obj_add_style(obj, &styles->focus, LV_STATE_FOCUSED);
 1356              		.loc 1 413 38 is_stmt 0 view .LVU416
 1357 0726 2968     		ldr	r1, [r5]
 413:Drivers/lvgl/src/extra/themes/mono/lv_theme_mono.c ****         lv_obj_add_style(obj, &styles->focus, LV_STATE_FOCUSED);
 1358              		.loc 1 413 9 view .LVU417
 1359 0728 8D4A     		ldr	r2, .L46+16
 1360 072a 8031     		adds	r1, r1, #128
 1361 072c 2046     		mov	r0, r4
 1362 072e FFF7FEFF 		bl	lv_obj_add_style
 1363              	.LVL151:
 414:Drivers/lvgl/src/extra/themes/mono/lv_theme_mono.c ****         lv_obj_add_style(obj, &styles->edit, LV_STATE_EDITED);
 1364              		.loc 1 414 9 is_stmt 1 view .LVU418
 414:Drivers/lvgl/src/extra/themes/mono/lv_theme_mono.c ****         lv_obj_add_style(obj, &styles->edit, LV_STATE_EDITED);
 1365              		.loc 1 414 38 is_stmt 0 view .LVU419
 1366 0732 2968     		ldr	r1, [r5]
 414:Drivers/lvgl/src/extra/themes/mono/lv_theme_mono.c ****         lv_obj_add_style(obj, &styles->edit, LV_STATE_EDITED);
 1367              		.loc 1 414 9 view .LVU420
 1368 0734 0222     		movs	r2, #2
 1369 0736 3831     		adds	r1, r1, #56
 1370 0738 2046     		mov	r0, r4
 1371 073a FFF7FEFF 		bl	lv_obj_add_style
 1372              	.LVL152:
 415:Drivers/lvgl/src/extra/themes/mono/lv_theme_mono.c ****     }
 1373              		.loc 1 415 9 is_stmt 1 view .LVU421
 415:Drivers/lvgl/src/extra/themes/mono/lv_theme_mono.c ****     }
 1374              		.loc 1 415 38 is_stmt 0 view .LVU422
 1375 073e 2968     		ldr	r1, [r5]
 415:Drivers/lvgl/src/extra/themes/mono/lv_theme_mono.c ****     }
 1376              		.loc 1 415 9 view .LVU423
 1377 0740 0822     		movs	r2, #8
 1378 0742 4031     		adds	r1, r1, #64
 1379 0744 2046     		mov	r0, r4
 1380 0746 FFF7FEFF 		bl	lv_obj_add_style
 1381              	.LVL153:
 1382 074a 6DE4     		b	.L1
 1383              	.L23:
 420:Drivers/lvgl/src/extra/themes/mono/lv_theme_mono.c ****         lv_obj_add_style(obj, &styles->card, 0);
 1384              		.loc 1 420 10 is_stmt 1 view .LVU424
 420:Drivers/lvgl/src/extra/themes/mono/lv_theme_mono.c ****         lv_obj_add_style(obj, &styles->card, 0);
ARM GAS  /var/folders/lp/x54gwt890xv47sdkqj1k04q40000gn/T//cc7THuQy.s 			page 41


 1385              		.loc 1 420 13 is_stmt 0 view .LVU425
 1386 074c 8549     		ldr	r1, .L46+20
 1387 074e 2046     		mov	r0, r4
 1388 0750 FFF7FEFF 		bl	lv_obj_check_type
 1389              	.LVL154:
 420:Drivers/lvgl/src/extra/themes/mono/lv_theme_mono.c ****         lv_obj_add_style(obj, &styles->card, 0);
 1390              		.loc 1 420 12 discriminator 1 view .LVU426
 1391 0754 58B3     		cbz	r0, .L24
 421:Drivers/lvgl/src/extra/themes/mono/lv_theme_mono.c ****         lv_obj_add_style(obj, &styles->no_radius, 0);
 1392              		.loc 1 421 9 is_stmt 1 view .LVU427
 421:Drivers/lvgl/src/extra/themes/mono/lv_theme_mono.c ****         lv_obj_add_style(obj, &styles->no_radius, 0);
 1393              		.loc 1 421 38 is_stmt 0 view .LVU428
 1394 0756 7F4D     		ldr	r5, .L46+4
 1395 0758 2968     		ldr	r1, [r5]
 421:Drivers/lvgl/src/extra/themes/mono/lv_theme_mono.c ****         lv_obj_add_style(obj, &styles->no_radius, 0);
 1396              		.loc 1 421 9 view .LVU429
 1397 075a 0022     		movs	r2, #0
 1398 075c 0831     		adds	r1, r1, #8
 1399 075e 2046     		mov	r0, r4
 1400 0760 FFF7FEFF 		bl	lv_obj_add_style
 1401              	.LVL155:
 422:Drivers/lvgl/src/extra/themes/mono/lv_theme_mono.c ****         lv_obj_add_style(obj, &styles->pr, LV_PART_ITEMS | LV_STATE_PRESSED);
 1402              		.loc 1 422 9 is_stmt 1 view .LVU430
 422:Drivers/lvgl/src/extra/themes/mono/lv_theme_mono.c ****         lv_obj_add_style(obj, &styles->pr, LV_PART_ITEMS | LV_STATE_PRESSED);
 1403              		.loc 1 422 38 is_stmt 0 view .LVU431
 1404 0764 2968     		ldr	r1, [r5]
 422:Drivers/lvgl/src/extra/themes/mono/lv_theme_mono.c ****         lv_obj_add_style(obj, &styles->pr, LV_PART_ITEMS | LV_STATE_PRESSED);
 1405              		.loc 1 422 9 view .LVU432
 1406 0766 0022     		movs	r2, #0
 1407 0768 5831     		adds	r1, r1, #88
 1408 076a 2046     		mov	r0, r4
 1409 076c FFF7FEFF 		bl	lv_obj_add_style
 1410              	.LVL156:
 423:Drivers/lvgl/src/extra/themes/mono/lv_theme_mono.c ****         lv_obj_add_style(obj, &styles->disabled, LV_PART_ITEMS | LV_STATE_DISABLED);
 1411              		.loc 1 423 9 is_stmt 1 view .LVU433
 423:Drivers/lvgl/src/extra/themes/mono/lv_theme_mono.c ****         lv_obj_add_style(obj, &styles->disabled, LV_PART_ITEMS | LV_STATE_DISABLED);
 1412              		.loc 1 423 38 is_stmt 0 view .LVU434
 1413 0770 2968     		ldr	r1, [r5]
 423:Drivers/lvgl/src/extra/themes/mono/lv_theme_mono.c ****         lv_obj_add_style(obj, &styles->disabled, LV_PART_ITEMS | LV_STATE_DISABLED);
 1414              		.loc 1 423 9 view .LVU435
 1415 0772 7D4A     		ldr	r2, .L46+24
 1416 0774 2031     		adds	r1, r1, #32
 1417 0776 2046     		mov	r0, r4
 1418 0778 FFF7FEFF 		bl	lv_obj_add_style
 1419              	.LVL157:
 424:Drivers/lvgl/src/extra/themes/mono/lv_theme_mono.c ****         lv_obj_add_style(obj, &styles->focus, LV_STATE_FOCUS_KEY);
 1420              		.loc 1 424 9 is_stmt 1 view .LVU436
 424:Drivers/lvgl/src/extra/themes/mono/lv_theme_mono.c ****         lv_obj_add_style(obj, &styles->focus, LV_STATE_FOCUS_KEY);
 1421              		.loc 1 424 38 is_stmt 0 view .LVU437
 1422 077c 2968     		ldr	r1, [r5]
 424:Drivers/lvgl/src/extra/themes/mono/lv_theme_mono.c ****         lv_obj_add_style(obj, &styles->focus, LV_STATE_FOCUS_KEY);
 1423              		.loc 1 424 9 view .LVU438
 1424 077e 7B4A     		ldr	r2, .L46+28
 1425 0780 3031     		adds	r1, r1, #48
 1426 0782 2046     		mov	r0, r4
 1427 0784 FFF7FEFF 		bl	lv_obj_add_style
 1428              	.LVL158:
ARM GAS  /var/folders/lp/x54gwt890xv47sdkqj1k04q40000gn/T//cc7THuQy.s 			page 42


 425:Drivers/lvgl/src/extra/themes/mono/lv_theme_mono.c ****         lv_obj_add_style(obj, &styles->edit, LV_STATE_EDITED);
 1429              		.loc 1 425 9 is_stmt 1 view .LVU439
 425:Drivers/lvgl/src/extra/themes/mono/lv_theme_mono.c ****         lv_obj_add_style(obj, &styles->edit, LV_STATE_EDITED);
 1430              		.loc 1 425 38 is_stmt 0 view .LVU440
 1431 0788 2968     		ldr	r1, [r5]
 425:Drivers/lvgl/src/extra/themes/mono/lv_theme_mono.c ****         lv_obj_add_style(obj, &styles->edit, LV_STATE_EDITED);
 1432              		.loc 1 425 9 view .LVU441
 1433 078a 0422     		movs	r2, #4
 1434 078c 3831     		adds	r1, r1, #56
 1435 078e 2046     		mov	r0, r4
 1436 0790 FFF7FEFF 		bl	lv_obj_add_style
 1437              	.LVL159:
 426:Drivers/lvgl/src/extra/themes/mono/lv_theme_mono.c ****         lv_obj_add_style(obj, &styles->large_border, LV_PART_ITEMS | LV_STATE_FOCUS_KEY);
 1438              		.loc 1 426 9 is_stmt 1 view .LVU442
 426:Drivers/lvgl/src/extra/themes/mono/lv_theme_mono.c ****         lv_obj_add_style(obj, &styles->large_border, LV_PART_ITEMS | LV_STATE_FOCUS_KEY);
 1439              		.loc 1 426 38 is_stmt 0 view .LVU443
 1440 0794 2968     		ldr	r1, [r5]
 426:Drivers/lvgl/src/extra/themes/mono/lv_theme_mono.c ****         lv_obj_add_style(obj, &styles->large_border, LV_PART_ITEMS | LV_STATE_FOCUS_KEY);
 1441              		.loc 1 426 9 view .LVU444
 1442 0796 0822     		movs	r2, #8
 1443 0798 4031     		adds	r1, r1, #64
 1444 079a 2046     		mov	r0, r4
 1445 079c FFF7FEFF 		bl	lv_obj_add_style
 1446              	.LVL160:
 427:Drivers/lvgl/src/extra/themes/mono/lv_theme_mono.c ****     }
 1447              		.loc 1 427 9 is_stmt 1 view .LVU445
 427:Drivers/lvgl/src/extra/themes/mono/lv_theme_mono.c ****     }
 1448              		.loc 1 427 38 is_stmt 0 view .LVU446
 1449 07a0 2968     		ldr	r1, [r5]
 427:Drivers/lvgl/src/extra/themes/mono/lv_theme_mono.c ****     }
 1450              		.loc 1 427 9 view .LVU447
 1451 07a2 734A     		ldr	r2, .L46+32
 1452 07a4 6831     		adds	r1, r1, #104
 1453 07a6 2046     		mov	r0, r4
 1454 07a8 FFF7FEFF 		bl	lv_obj_add_style
 1455              	.LVL161:
 1456 07ac 3CE4     		b	.L1
 1457              	.L24:
 432:Drivers/lvgl/src/extra/themes/mono/lv_theme_mono.c ****         lv_obj_add_style(obj, &styles->card, 0);
 1458              		.loc 1 432 10 is_stmt 1 view .LVU448
 432:Drivers/lvgl/src/extra/themes/mono/lv_theme_mono.c ****         lv_obj_add_style(obj, &styles->card, 0);
 1459              		.loc 1 432 13 is_stmt 0 view .LVU449
 1460 07ae 7149     		ldr	r1, .L46+36
 1461 07b0 2046     		mov	r0, r4
 1462 07b2 FFF7FEFF 		bl	lv_obj_check_type
 1463              	.LVL162:
 432:Drivers/lvgl/src/extra/themes/mono/lv_theme_mono.c ****         lv_obj_add_style(obj, &styles->card, 0);
 1464              		.loc 1 432 12 discriminator 1 view .LVU450
 1465 07b6 60B3     		cbz	r0, .L25
 433:Drivers/lvgl/src/extra/themes/mono/lv_theme_mono.c ****         lv_obj_add_style(obj, &styles->card, LV_PART_ITEMS);
 1466              		.loc 1 433 9 is_stmt 1 view .LVU451
 433:Drivers/lvgl/src/extra/themes/mono/lv_theme_mono.c ****         lv_obj_add_style(obj, &styles->card, LV_PART_ITEMS);
 1467              		.loc 1 433 38 is_stmt 0 view .LVU452
 1468 07b8 664D     		ldr	r5, .L46+4
 1469 07ba 2968     		ldr	r1, [r5]
 433:Drivers/lvgl/src/extra/themes/mono/lv_theme_mono.c ****         lv_obj_add_style(obj, &styles->card, LV_PART_ITEMS);
 1470              		.loc 1 433 9 view .LVU453
ARM GAS  /var/folders/lp/x54gwt890xv47sdkqj1k04q40000gn/T//cc7THuQy.s 			page 43


 1471 07bc 0022     		movs	r2, #0
 1472 07be 0831     		adds	r1, r1, #8
 1473 07c0 2046     		mov	r0, r4
 1474 07c2 FFF7FEFF 		bl	lv_obj_add_style
 1475              	.LVL163:
 434:Drivers/lvgl/src/extra/themes/mono/lv_theme_mono.c ****         lv_obj_add_style(obj, &styles->pr, LV_PART_ITEMS | LV_STATE_PRESSED);
 1476              		.loc 1 434 9 is_stmt 1 view .LVU454
 434:Drivers/lvgl/src/extra/themes/mono/lv_theme_mono.c ****         lv_obj_add_style(obj, &styles->pr, LV_PART_ITEMS | LV_STATE_PRESSED);
 1477              		.loc 1 434 38 is_stmt 0 view .LVU455
 1478 07c6 2968     		ldr	r1, [r5]
 434:Drivers/lvgl/src/extra/themes/mono/lv_theme_mono.c ****         lv_obj_add_style(obj, &styles->pr, LV_PART_ITEMS | LV_STATE_PRESSED);
 1479              		.loc 1 434 9 view .LVU456
 1480 07c8 4FF4A022 		mov	r2, #327680
 1481 07cc 0831     		adds	r1, r1, #8
 1482 07ce 2046     		mov	r0, r4
 1483 07d0 FFF7FEFF 		bl	lv_obj_add_style
 1484              	.LVL164:
 435:Drivers/lvgl/src/extra/themes/mono/lv_theme_mono.c ****         lv_obj_add_style(obj, &styles->inv, LV_PART_ITEMS | LV_STATE_CHECKED);
 1485              		.loc 1 435 9 is_stmt 1 view .LVU457
 435:Drivers/lvgl/src/extra/themes/mono/lv_theme_mono.c ****         lv_obj_add_style(obj, &styles->inv, LV_PART_ITEMS | LV_STATE_CHECKED);
 1486              		.loc 1 435 38 is_stmt 0 view .LVU458
 1487 07d4 2968     		ldr	r1, [r5]
 435:Drivers/lvgl/src/extra/themes/mono/lv_theme_mono.c ****         lv_obj_add_style(obj, &styles->inv, LV_PART_ITEMS | LV_STATE_CHECKED);
 1488              		.loc 1 435 9 view .LVU459
 1489 07d6 644A     		ldr	r2, .L46+24
 1490 07d8 2031     		adds	r1, r1, #32
 1491 07da 2046     		mov	r0, r4
 1492 07dc FFF7FEFF 		bl	lv_obj_add_style
 1493              	.LVL165:
 436:Drivers/lvgl/src/extra/themes/mono/lv_theme_mono.c ****         lv_obj_add_style(obj, &styles->focus, LV_STATE_FOCUS_KEY);
 1494              		.loc 1 436 9 is_stmt 1 view .LVU460
 436:Drivers/lvgl/src/extra/themes/mono/lv_theme_mono.c ****         lv_obj_add_style(obj, &styles->focus, LV_STATE_FOCUS_KEY);
 1495              		.loc 1 436 38 is_stmt 0 view .LVU461
 1496 07e0 2968     		ldr	r1, [r5]
 436:Drivers/lvgl/src/extra/themes/mono/lv_theme_mono.c ****         lv_obj_add_style(obj, &styles->focus, LV_STATE_FOCUS_KEY);
 1497              		.loc 1 436 9 view .LVU462
 1498 07e2 654A     		ldr	r2, .L46+40
 1499 07e4 2831     		adds	r1, r1, #40
 1500 07e6 2046     		mov	r0, r4
 1501 07e8 FFF7FEFF 		bl	lv_obj_add_style
 1502              	.LVL166:
 437:Drivers/lvgl/src/extra/themes/mono/lv_theme_mono.c ****         lv_obj_add_style(obj, &styles->edit, LV_STATE_EDITED);
 1503              		.loc 1 437 9 is_stmt 1 view .LVU463
 437:Drivers/lvgl/src/extra/themes/mono/lv_theme_mono.c ****         lv_obj_add_style(obj, &styles->edit, LV_STATE_EDITED);
 1504              		.loc 1 437 38 is_stmt 0 view .LVU464
 1505 07ec 2968     		ldr	r1, [r5]
 437:Drivers/lvgl/src/extra/themes/mono/lv_theme_mono.c ****         lv_obj_add_style(obj, &styles->edit, LV_STATE_EDITED);
 1506              		.loc 1 437 9 view .LVU465
 1507 07ee 0422     		movs	r2, #4
 1508 07f0 3831     		adds	r1, r1, #56
 1509 07f2 2046     		mov	r0, r4
 1510 07f4 FFF7FEFF 		bl	lv_obj_add_style
 1511              	.LVL167:
 438:Drivers/lvgl/src/extra/themes/mono/lv_theme_mono.c ****         lv_obj_add_style(obj, &styles->large_border, LV_PART_ITEMS | LV_STATE_EDITED);
 1512              		.loc 1 438 9 is_stmt 1 view .LVU466
 438:Drivers/lvgl/src/extra/themes/mono/lv_theme_mono.c ****         lv_obj_add_style(obj, &styles->large_border, LV_PART_ITEMS | LV_STATE_EDITED);
 1513              		.loc 1 438 38 is_stmt 0 view .LVU467
ARM GAS  /var/folders/lp/x54gwt890xv47sdkqj1k04q40000gn/T//cc7THuQy.s 			page 44


 1514 07f8 2968     		ldr	r1, [r5]
 438:Drivers/lvgl/src/extra/themes/mono/lv_theme_mono.c ****         lv_obj_add_style(obj, &styles->large_border, LV_PART_ITEMS | LV_STATE_EDITED);
 1515              		.loc 1 438 9 view .LVU468
 1516 07fa 0822     		movs	r2, #8
 1517 07fc 4031     		adds	r1, r1, #64
 1518 07fe 2046     		mov	r0, r4
 1519 0800 FFF7FEFF 		bl	lv_obj_add_style
 1520              	.LVL168:
 439:Drivers/lvgl/src/extra/themes/mono/lv_theme_mono.c ****     }
 1521              		.loc 1 439 9 is_stmt 1 view .LVU469
 439:Drivers/lvgl/src/extra/themes/mono/lv_theme_mono.c ****     }
 1522              		.loc 1 439 38 is_stmt 0 view .LVU470
 1523 0804 2968     		ldr	r1, [r5]
 439:Drivers/lvgl/src/extra/themes/mono/lv_theme_mono.c ****     }
 1524              		.loc 1 439 9 view .LVU471
 1525 0806 5D4A     		ldr	r2, .L46+44
 1526 0808 6831     		adds	r1, r1, #104
 1527 080a 2046     		mov	r0, r4
 1528 080c FFF7FEFF 		bl	lv_obj_add_style
 1529              	.LVL169:
 1530 0810 0AE4     		b	.L1
 1531              	.L25:
 443:Drivers/lvgl/src/extra/themes/mono/lv_theme_mono.c ****         lv_obj_add_style(obj, &styles->card, 0);
 1532              		.loc 1 443 10 is_stmt 1 view .LVU472
 443:Drivers/lvgl/src/extra/themes/mono/lv_theme_mono.c ****         lv_obj_add_style(obj, &styles->card, 0);
 1533              		.loc 1 443 13 is_stmt 0 view .LVU473
 1534 0812 5B49     		ldr	r1, .L46+48
 1535 0814 2046     		mov	r0, r4
 1536 0816 FFF7FEFF 		bl	lv_obj_check_type
 1537              	.LVL170:
 443:Drivers/lvgl/src/extra/themes/mono/lv_theme_mono.c ****         lv_obj_add_style(obj, &styles->card, 0);
 1538              		.loc 1 443 12 discriminator 1 view .LVU474
 1539 081a 30BB     		cbnz	r0, .L40
 448:Drivers/lvgl/src/extra/themes/mono/lv_theme_mono.c **** 
 1540              		.loc 1 448 10 is_stmt 1 view .LVU475
 448:Drivers/lvgl/src/extra/themes/mono/lv_theme_mono.c **** 
 1541              		.loc 1 448 13 is_stmt 0 view .LVU476
 1542 081c 5949     		ldr	r1, .L46+52
 1543 081e 2046     		mov	r0, r4
 1544 0820 FFF7FEFF 		bl	lv_obj_check_type
 1545              	.LVL171:
 448:Drivers/lvgl/src/extra/themes/mono/lv_theme_mono.c **** 
 1546              		.loc 1 448 12 discriminator 1 view .LVU477
 1547 0824 0028     		cmp	r0, #0
 1548 0826 7FF4FFAB 		bne	.L1
 451:Drivers/lvgl/src/extra/themes/mono/lv_theme_mono.c ****         lv_obj_add_style(obj, &styles->card, 0);
 1549              		.loc 1 451 10 is_stmt 1 view .LVU478
 451:Drivers/lvgl/src/extra/themes/mono/lv_theme_mono.c ****         lv_obj_add_style(obj, &styles->card, 0);
 1550              		.loc 1 451 13 is_stmt 0 view .LVU479
 1551 082a 5749     		ldr	r1, .L46+56
 1552 082c 2046     		mov	r0, r4
 1553 082e FFF7FEFF 		bl	lv_obj_check_type
 1554              	.LVL172:
 451:Drivers/lvgl/src/extra/themes/mono/lv_theme_mono.c ****         lv_obj_add_style(obj, &styles->card, 0);
 1555              		.loc 1 451 12 discriminator 1 view .LVU480
 1556 0832 50B3     		cbz	r0, .L27
 452:Drivers/lvgl/src/extra/themes/mono/lv_theme_mono.c ****         lv_obj_add_style(obj, &styles->pr, LV_STATE_PRESSED);
ARM GAS  /var/folders/lp/x54gwt890xv47sdkqj1k04q40000gn/T//cc7THuQy.s 			page 45


 1557              		.loc 1 452 9 is_stmt 1 view .LVU481
 452:Drivers/lvgl/src/extra/themes/mono/lv_theme_mono.c ****         lv_obj_add_style(obj, &styles->pr, LV_STATE_PRESSED);
 1558              		.loc 1 452 38 is_stmt 0 view .LVU482
 1559 0834 474D     		ldr	r5, .L46+4
 1560 0836 2968     		ldr	r1, [r5]
 452:Drivers/lvgl/src/extra/themes/mono/lv_theme_mono.c ****         lv_obj_add_style(obj, &styles->pr, LV_STATE_PRESSED);
 1561              		.loc 1 452 9 view .LVU483
 1562 0838 0022     		movs	r2, #0
 1563 083a 0831     		adds	r1, r1, #8
 1564 083c 2046     		mov	r0, r4
 1565 083e FFF7FEFF 		bl	lv_obj_add_style
 1566              	.LVL173:
 453:Drivers/lvgl/src/extra/themes/mono/lv_theme_mono.c ****         lv_obj_add_style(obj, &styles->focus, LV_STATE_FOCUS_KEY);
 1567              		.loc 1 453 9 is_stmt 1 view .LVU484
 453:Drivers/lvgl/src/extra/themes/mono/lv_theme_mono.c ****         lv_obj_add_style(obj, &styles->focus, LV_STATE_FOCUS_KEY);
 1568              		.loc 1 453 38 is_stmt 0 view .LVU485
 1569 0842 2968     		ldr	r1, [r5]
 453:Drivers/lvgl/src/extra/themes/mono/lv_theme_mono.c ****         lv_obj_add_style(obj, &styles->focus, LV_STATE_FOCUS_KEY);
 1570              		.loc 1 453 9 view .LVU486
 1571 0844 2022     		movs	r2, #32
 1572 0846 1144     		add	r1, r1, r2
 1573 0848 2046     		mov	r0, r4
 1574 084a FFF7FEFF 		bl	lv_obj_add_style
 1575              	.LVL174:
 454:Drivers/lvgl/src/extra/themes/mono/lv_theme_mono.c ****         lv_obj_add_style(obj, &styles->large_border, LV_STATE_EDITED);
 1576              		.loc 1 454 9 is_stmt 1 view .LVU487
 454:Drivers/lvgl/src/extra/themes/mono/lv_theme_mono.c ****         lv_obj_add_style(obj, &styles->large_border, LV_STATE_EDITED);
 1577              		.loc 1 454 38 is_stmt 0 view .LVU488
 1578 084e 2968     		ldr	r1, [r5]
 454:Drivers/lvgl/src/extra/themes/mono/lv_theme_mono.c ****         lv_obj_add_style(obj, &styles->large_border, LV_STATE_EDITED);
 1579              		.loc 1 454 9 view .LVU489
 1580 0850 0422     		movs	r2, #4
 1581 0852 3831     		adds	r1, r1, #56
 1582 0854 2046     		mov	r0, r4
 1583 0856 FFF7FEFF 		bl	lv_obj_add_style
 1584              	.LVL175:
 455:Drivers/lvgl/src/extra/themes/mono/lv_theme_mono.c **** 
 1585              		.loc 1 455 9 is_stmt 1 view .LVU490
 455:Drivers/lvgl/src/extra/themes/mono/lv_theme_mono.c **** 
 1586              		.loc 1 455 38 is_stmt 0 view .LVU491
 1587 085a 2968     		ldr	r1, [r5]
 455:Drivers/lvgl/src/extra/themes/mono/lv_theme_mono.c **** 
 1588              		.loc 1 455 9 view .LVU492
 1589 085c 0822     		movs	r2, #8
 1590 085e 6831     		adds	r1, r1, #104
 1591 0860 2046     		mov	r0, r4
 1592 0862 FFF7FEFF 		bl	lv_obj_add_style
 1593              	.LVL176:
 1594 0866 FFF7DFBB 		b	.L1
 1595              	.L40:
 444:Drivers/lvgl/src/extra/themes/mono/lv_theme_mono.c ****         lv_obj_add_style(obj, &styles->scrollbar, LV_PART_SCROLLBAR);
 1596              		.loc 1 444 9 is_stmt 1 view .LVU493
 444:Drivers/lvgl/src/extra/themes/mono/lv_theme_mono.c ****         lv_obj_add_style(obj, &styles->scrollbar, LV_PART_SCROLLBAR);
 1597              		.loc 1 444 38 is_stmt 0 view .LVU494
 1598 086a 3A4D     		ldr	r5, .L46+4
 1599 086c 2968     		ldr	r1, [r5]
 444:Drivers/lvgl/src/extra/themes/mono/lv_theme_mono.c ****         lv_obj_add_style(obj, &styles->scrollbar, LV_PART_SCROLLBAR);
ARM GAS  /var/folders/lp/x54gwt890xv47sdkqj1k04q40000gn/T//cc7THuQy.s 			page 46


 1600              		.loc 1 444 9 view .LVU495
 1601 086e 0022     		movs	r2, #0
 1602 0870 0831     		adds	r1, r1, #8
 1603 0872 2046     		mov	r0, r4
 1604 0874 FFF7FEFF 		bl	lv_obj_add_style
 1605              	.LVL177:
 445:Drivers/lvgl/src/extra/themes/mono/lv_theme_mono.c ****         return;
 1606              		.loc 1 445 9 is_stmt 1 view .LVU496
 445:Drivers/lvgl/src/extra/themes/mono/lv_theme_mono.c ****         return;
 1607              		.loc 1 445 38 is_stmt 0 view .LVU497
 1608 0878 2968     		ldr	r1, [r5]
 445:Drivers/lvgl/src/extra/themes/mono/lv_theme_mono.c ****         return;
 1609              		.loc 1 445 9 view .LVU498
 1610 087a 4FF48032 		mov	r2, #65536
 1611 087e 1031     		adds	r1, r1, #16
 1612 0880 2046     		mov	r0, r4
 1613 0882 FFF7FEFF 		bl	lv_obj_add_style
 1614              	.LVL178:
 446:Drivers/lvgl/src/extra/themes/mono/lv_theme_mono.c ****     }
 1615              		.loc 1 446 9 is_stmt 1 view .LVU499
 1616 0886 FFF7CFBB 		b	.L1
 1617              	.L27:
 460:Drivers/lvgl/src/extra/themes/mono/lv_theme_mono.c ****         lv_obj_add_style(obj, &styles->card, 0);
 1618              		.loc 1 460 10 view .LVU500
 460:Drivers/lvgl/src/extra/themes/mono/lv_theme_mono.c ****         lv_obj_add_style(obj, &styles->card, 0);
 1619              		.loc 1 460 13 is_stmt 0 view .LVU501
 1620 088a 4049     		ldr	r1, .L46+60
 1621 088c 2046     		mov	r0, r4
 1622 088e FFF7FEFF 		bl	lv_obj_check_type
 1623              	.LVL179:
 460:Drivers/lvgl/src/extra/themes/mono/lv_theme_mono.c ****         lv_obj_add_style(obj, &styles->card, 0);
 1624              		.loc 1 460 12 discriminator 1 view .LVU502
 1625 0892 00BB     		cbnz	r0, .L41
 466:Drivers/lvgl/src/extra/themes/mono/lv_theme_mono.c ****         lv_obj_add_style(obj, &styles->card, 0);
 1626              		.loc 1 466 10 is_stmt 1 view .LVU503
 466:Drivers/lvgl/src/extra/themes/mono/lv_theme_mono.c ****         lv_obj_add_style(obj, &styles->card, 0);
 1627              		.loc 1 466 13 is_stmt 0 view .LVU504
 1628 0894 3E49     		ldr	r1, .L46+64
 1629 0896 2046     		mov	r0, r4
 1630 0898 FFF7FEFF 		bl	lv_obj_check_type
 1631              	.LVL180:
 466:Drivers/lvgl/src/extra/themes/mono/lv_theme_mono.c ****         lv_obj_add_style(obj, &styles->card, 0);
 1632              		.loc 1 466 12 discriminator 1 view .LVU505
 1633 089c 20B3     		cbz	r0, .L29
 467:Drivers/lvgl/src/extra/themes/mono/lv_theme_mono.c ****         lv_obj_add_style(obj, &styles->inv, LV_PART_CURSOR);
 1634              		.loc 1 467 9 is_stmt 1 view .LVU506
 467:Drivers/lvgl/src/extra/themes/mono/lv_theme_mono.c ****         lv_obj_add_style(obj, &styles->inv, LV_PART_CURSOR);
 1635              		.loc 1 467 38 is_stmt 0 view .LVU507
 1636 089e 2D4D     		ldr	r5, .L46+4
 1637 08a0 2968     		ldr	r1, [r5]
 467:Drivers/lvgl/src/extra/themes/mono/lv_theme_mono.c ****         lv_obj_add_style(obj, &styles->inv, LV_PART_CURSOR);
 1638              		.loc 1 467 9 view .LVU508
 1639 08a2 0022     		movs	r2, #0
 1640 08a4 0831     		adds	r1, r1, #8
 1641 08a6 2046     		mov	r0, r4
 1642 08a8 FFF7FEFF 		bl	lv_obj_add_style
 1643              	.LVL181:
ARM GAS  /var/folders/lp/x54gwt890xv47sdkqj1k04q40000gn/T//cc7THuQy.s 			page 47


 468:Drivers/lvgl/src/extra/themes/mono/lv_theme_mono.c ****         lv_obj_add_style(obj, &styles->focus, LV_STATE_FOCUS_KEY);
 1644              		.loc 1 468 9 is_stmt 1 view .LVU509
 468:Drivers/lvgl/src/extra/themes/mono/lv_theme_mono.c ****         lv_obj_add_style(obj, &styles->focus, LV_STATE_FOCUS_KEY);
 1645              		.loc 1 468 38 is_stmt 0 view .LVU510
 1646 08ac 2968     		ldr	r1, [r5]
 468:Drivers/lvgl/src/extra/themes/mono/lv_theme_mono.c ****         lv_obj_add_style(obj, &styles->focus, LV_STATE_FOCUS_KEY);
 1647              		.loc 1 468 9 view .LVU511
 1648 08ae 4FF4E022 		mov	r2, #458752
 1649 08b2 2831     		adds	r1, r1, #40
 1650 08b4 2046     		mov	r0, r4
 1651 08b6 FFF7FEFF 		bl	lv_obj_add_style
 1652              	.LVL182:
 469:Drivers/lvgl/src/extra/themes/mono/lv_theme_mono.c ****         lv_obj_add_style(obj, &styles->edit, LV_STATE_EDITED);
 1653              		.loc 1 469 9 is_stmt 1 view .LVU512
 469:Drivers/lvgl/src/extra/themes/mono/lv_theme_mono.c ****         lv_obj_add_style(obj, &styles->edit, LV_STATE_EDITED);
 1654              		.loc 1 469 38 is_stmt 0 view .LVU513
 1655 08ba 2968     		ldr	r1, [r5]
 469:Drivers/lvgl/src/extra/themes/mono/lv_theme_mono.c ****         lv_obj_add_style(obj, &styles->edit, LV_STATE_EDITED);
 1656              		.loc 1 469 9 view .LVU514
 1657 08bc 0422     		movs	r2, #4
 1658 08be 3831     		adds	r1, r1, #56
 1659 08c0 2046     		mov	r0, r4
 1660 08c2 FFF7FEFF 		bl	lv_obj_add_style
 1661              	.LVL183:
 470:Drivers/lvgl/src/extra/themes/mono/lv_theme_mono.c ****     }
 1662              		.loc 1 470 9 is_stmt 1 view .LVU515
 470:Drivers/lvgl/src/extra/themes/mono/lv_theme_mono.c ****     }
 1663              		.loc 1 470 38 is_stmt 0 view .LVU516
 1664 08c6 2968     		ldr	r1, [r5]
 470:Drivers/lvgl/src/extra/themes/mono/lv_theme_mono.c ****     }
 1665              		.loc 1 470 9 view .LVU517
 1666 08c8 0822     		movs	r2, #8
 1667 08ca 4031     		adds	r1, r1, #64
 1668 08cc 2046     		mov	r0, r4
 1669 08ce FFF7FEFF 		bl	lv_obj_add_style
 1670              	.LVL184:
 1671 08d2 FFF7A9BB 		b	.L1
 1672              	.L41:
 461:Drivers/lvgl/src/extra/themes/mono/lv_theme_mono.c ****         return;
 1673              		.loc 1 461 9 is_stmt 1 view .LVU518
 461:Drivers/lvgl/src/extra/themes/mono/lv_theme_mono.c ****         return;
 1674              		.loc 1 461 38 is_stmt 0 view .LVU519
 1675 08d6 1F4B     		ldr	r3, .L46+4
 1676 08d8 1968     		ldr	r1, [r3]
 461:Drivers/lvgl/src/extra/themes/mono/lv_theme_mono.c ****         return;
 1677              		.loc 1 461 9 view .LVU520
 1678 08da 0022     		movs	r2, #0
 1679 08dc 0831     		adds	r1, r1, #8
 1680 08de 2046     		mov	r0, r4
 1681 08e0 FFF7FEFF 		bl	lv_obj_add_style
 1682              	.LVL185:
 462:Drivers/lvgl/src/extra/themes/mono/lv_theme_mono.c ****     }
 1683              		.loc 1 462 9 is_stmt 1 view .LVU521
 1684 08e4 FFF7A0BB 		b	.L1
 1685              	.L29:
 474:Drivers/lvgl/src/extra/themes/mono/lv_theme_mono.c ****         lv_obj_add_style(obj, &styles->scr, 0);
 1686              		.loc 1 474 10 view .LVU522
ARM GAS  /var/folders/lp/x54gwt890xv47sdkqj1k04q40000gn/T//cc7THuQy.s 			page 48


 474:Drivers/lvgl/src/extra/themes/mono/lv_theme_mono.c ****         lv_obj_add_style(obj, &styles->scr, 0);
 1687              		.loc 1 474 13 is_stmt 0 view .LVU523
 1688 08e8 2A49     		ldr	r1, .L46+68
 1689 08ea 2046     		mov	r0, r4
 1690 08ec FFF7FEFF 		bl	lv_obj_check_type
 1691              	.LVL186:
 474:Drivers/lvgl/src/extra/themes/mono/lv_theme_mono.c ****         lv_obj_add_style(obj, &styles->scr, 0);
 1692              		.loc 1 474 12 discriminator 1 view .LVU524
 1693 08f0 70B1     		cbz	r0, .L30
 475:Drivers/lvgl/src/extra/themes/mono/lv_theme_mono.c ****         lv_obj_add_style(obj, &styles->scrollbar, LV_PART_SCROLLBAR);
 1694              		.loc 1 475 9 is_stmt 1 view .LVU525
 475:Drivers/lvgl/src/extra/themes/mono/lv_theme_mono.c ****         lv_obj_add_style(obj, &styles->scrollbar, LV_PART_SCROLLBAR);
 1695              		.loc 1 475 38 is_stmt 0 view .LVU526
 1696 08f2 184D     		ldr	r5, .L46+4
 475:Drivers/lvgl/src/extra/themes/mono/lv_theme_mono.c ****         lv_obj_add_style(obj, &styles->scrollbar, LV_PART_SCROLLBAR);
 1697              		.loc 1 475 9 view .LVU527
 1698 08f4 0022     		movs	r2, #0
 1699 08f6 2968     		ldr	r1, [r5]
 1700 08f8 2046     		mov	r0, r4
 1701 08fa FFF7FEFF 		bl	lv_obj_add_style
 1702              	.LVL187:
 476:Drivers/lvgl/src/extra/themes/mono/lv_theme_mono.c ****     }
 1703              		.loc 1 476 9 is_stmt 1 view .LVU528
 476:Drivers/lvgl/src/extra/themes/mono/lv_theme_mono.c ****     }
 1704              		.loc 1 476 38 is_stmt 0 view .LVU529
 1705 08fe 2968     		ldr	r1, [r5]
 476:Drivers/lvgl/src/extra/themes/mono/lv_theme_mono.c ****     }
 1706              		.loc 1 476 9 view .LVU530
 1707 0900 4FF48032 		mov	r2, #65536
 1708 0904 1031     		adds	r1, r1, #16
 1709 0906 2046     		mov	r0, r4
 1710 0908 FFF7FEFF 		bl	lv_obj_add_style
 1711              	.LVL188:
 1712 090c FFF78CBB 		b	.L1
 1713              	.L30:
 478:Drivers/lvgl/src/extra/themes/mono/lv_theme_mono.c ****         lv_obj_add_style(obj, &styles->scrollbar, LV_PART_SCROLLBAR);
 1714              		.loc 1 478 10 is_stmt 1 view .LVU531
 478:Drivers/lvgl/src/extra/themes/mono/lv_theme_mono.c ****         lv_obj_add_style(obj, &styles->scrollbar, LV_PART_SCROLLBAR);
 1715              		.loc 1 478 13 is_stmt 0 view .LVU532
 1716 0910 2149     		ldr	r1, .L46+72
 1717 0912 2046     		mov	r0, r4
 1718 0914 FFF7FEFF 		bl	lv_obj_check_type
 1719              	.LVL189:
 478:Drivers/lvgl/src/extra/themes/mono/lv_theme_mono.c ****         lv_obj_add_style(obj, &styles->scrollbar, LV_PART_SCROLLBAR);
 1720              		.loc 1 478 12 discriminator 1 view .LVU533
 1721 0918 48B1     		cbz	r0, .L31
 479:Drivers/lvgl/src/extra/themes/mono/lv_theme_mono.c ****     }
 1722              		.loc 1 479 9 is_stmt 1 view .LVU534
 479:Drivers/lvgl/src/extra/themes/mono/lv_theme_mono.c ****     }
 1723              		.loc 1 479 38 is_stmt 0 view .LVU535
 1724 091a 0E4B     		ldr	r3, .L46+4
 1725 091c 1968     		ldr	r1, [r3]
 479:Drivers/lvgl/src/extra/themes/mono/lv_theme_mono.c ****     }
 1726              		.loc 1 479 9 view .LVU536
 1727 091e 4FF48032 		mov	r2, #65536
 1728 0922 1031     		adds	r1, r1, #16
 1729 0924 2046     		mov	r0, r4
ARM GAS  /var/folders/lp/x54gwt890xv47sdkqj1k04q40000gn/T//cc7THuQy.s 			page 49


 1730 0926 FFF7FEFF 		bl	lv_obj_add_style
 1731              	.LVL190:
 1732 092a FFF77DBB 		b	.L1
 1733              	.L31:
 484:Drivers/lvgl/src/extra/themes/mono/lv_theme_mono.c ****         lv_obj_add_style(obj, &styles->card, 0);
 1734              		.loc 1 484 10 is_stmt 1 view .LVU537
 484:Drivers/lvgl/src/extra/themes/mono/lv_theme_mono.c ****         lv_obj_add_style(obj, &styles->card, 0);
 1735              		.loc 1 484 13 is_stmt 0 view .LVU538
 1736 092e 1B49     		ldr	r1, .L46+76
 1737 0930 2046     		mov	r0, r4
 1738 0932 FFF7FEFF 		bl	lv_obj_check_type
 1739              	.LVL191:
 484:Drivers/lvgl/src/extra/themes/mono/lv_theme_mono.c ****         lv_obj_add_style(obj, &styles->card, 0);
 1740              		.loc 1 484 12 discriminator 1 view .LVU539
 1741 0936 0028     		cmp	r0, #0
 1742 0938 3FF476AB 		beq	.L1
 485:Drivers/lvgl/src/extra/themes/mono/lv_theme_mono.c ****     }
 1743              		.loc 1 485 9 is_stmt 1 view .LVU540
 485:Drivers/lvgl/src/extra/themes/mono/lv_theme_mono.c ****     }
 1744              		.loc 1 485 38 is_stmt 0 view .LVU541
 1745 093c 054B     		ldr	r3, .L46+4
 1746 093e 1968     		ldr	r1, [r3]
 485:Drivers/lvgl/src/extra/themes/mono/lv_theme_mono.c ****     }
 1747              		.loc 1 485 9 view .LVU542
 1748 0940 0022     		movs	r2, #0
 1749 0942 0831     		adds	r1, r1, #8
 1750 0944 2046     		mov	r0, r4
 1751 0946 FFF7FEFF 		bl	lv_obj_add_style
 1752              	.LVL192:
 1753 094a FFF76DBB 		b	.L1
 1754              	.L47:
 1755 094e 00BF     		.align	2
 1756              	.L46:
 1757 0950 00000000 		.word	lv_arc_class
 1758 0954 00000000 		.word	styles
 1759 0958 00000000 		.word	lv_meter_class
 1760 095c 00000000 		.word	lv_textarea_class
 1761 0960 02000700 		.word	458754
 1762 0964 00000000 		.word	lv_calendar_class
 1763 0968 20000500 		.word	327712
 1764 096c 80000500 		.word	327808
 1765 0970 04000500 		.word	327684
 1766 0974 00000000 		.word	lv_keyboard_class
 1767 0978 01000500 		.word	327681
 1768 097c 08000500 		.word	327688
 1769 0980 00000000 		.word	lv_list_class
 1770 0984 00000000 		.word	lv_list_text_class
 1771 0988 00000000 		.word	lv_list_btn_class
 1772 098c 00000000 		.word	lv_msgbox_class
 1773 0990 00000000 		.word	lv_spinbox_class
 1774 0994 00000000 		.word	lv_tileview_class
 1775 0998 00000000 		.word	lv_tileview_tile_class
 1776 099c 00000000 		.word	lv_led_class
 1777              		.cfi_endproc
 1778              	.LFE207:
 1780              		.section	.text.lv_style_set_pad_gap,"ax",%progbits
 1781              		.align	1
ARM GAS  /var/folders/lp/x54gwt890xv47sdkqj1k04q40000gn/T//cc7THuQy.s 			page 50


 1782              		.syntax unified
 1783              		.thumb
 1784              		.thumb_func
 1786              	lv_style_set_pad_gap:
 1787              	.LVL193:
 1788              	.LFB53:
 1789              		.file 2 "Drivers/lvgl/src/extra/themes/mono/../../../../src/hal/../draw/../misc/lv_style.h"
   1:Drivers/lvgl/src/extra/themes/mono/../../../../src/hal/../draw/../misc/lv_style.h **** /**
   2:Drivers/lvgl/src/extra/themes/mono/../../../../src/hal/../draw/../misc/lv_style.h ****  * @file lv_style.h
   3:Drivers/lvgl/src/extra/themes/mono/../../../../src/hal/../draw/../misc/lv_style.h ****  *
   4:Drivers/lvgl/src/extra/themes/mono/../../../../src/hal/../draw/../misc/lv_style.h ****  */
   5:Drivers/lvgl/src/extra/themes/mono/../../../../src/hal/../draw/../misc/lv_style.h **** 
   6:Drivers/lvgl/src/extra/themes/mono/../../../../src/hal/../draw/../misc/lv_style.h **** #ifndef LV_STYLE_H
   7:Drivers/lvgl/src/extra/themes/mono/../../../../src/hal/../draw/../misc/lv_style.h **** #define LV_STYLE_H
   8:Drivers/lvgl/src/extra/themes/mono/../../../../src/hal/../draw/../misc/lv_style.h **** 
   9:Drivers/lvgl/src/extra/themes/mono/../../../../src/hal/../draw/../misc/lv_style.h **** #ifdef __cplusplus
  10:Drivers/lvgl/src/extra/themes/mono/../../../../src/hal/../draw/../misc/lv_style.h **** extern "C" {
  11:Drivers/lvgl/src/extra/themes/mono/../../../../src/hal/../draw/../misc/lv_style.h **** #endif
  12:Drivers/lvgl/src/extra/themes/mono/../../../../src/hal/../draw/../misc/lv_style.h **** 
  13:Drivers/lvgl/src/extra/themes/mono/../../../../src/hal/../draw/../misc/lv_style.h **** /*********************
  14:Drivers/lvgl/src/extra/themes/mono/../../../../src/hal/../draw/../misc/lv_style.h ****  *      INCLUDES
  15:Drivers/lvgl/src/extra/themes/mono/../../../../src/hal/../draw/../misc/lv_style.h ****  *********************/
  16:Drivers/lvgl/src/extra/themes/mono/../../../../src/hal/../draw/../misc/lv_style.h **** #include <stdbool.h>
  17:Drivers/lvgl/src/extra/themes/mono/../../../../src/hal/../draw/../misc/lv_style.h **** #include <stdint.h>
  18:Drivers/lvgl/src/extra/themes/mono/../../../../src/hal/../draw/../misc/lv_style.h **** #include "../font/lv_font.h"
  19:Drivers/lvgl/src/extra/themes/mono/../../../../src/hal/../draw/../misc/lv_style.h **** #include "lv_color.h"
  20:Drivers/lvgl/src/extra/themes/mono/../../../../src/hal/../draw/../misc/lv_style.h **** #include "lv_area.h"
  21:Drivers/lvgl/src/extra/themes/mono/../../../../src/hal/../draw/../misc/lv_style.h **** #include "lv_anim.h"
  22:Drivers/lvgl/src/extra/themes/mono/../../../../src/hal/../draw/../misc/lv_style.h **** #include "lv_txt.h"
  23:Drivers/lvgl/src/extra/themes/mono/../../../../src/hal/../draw/../misc/lv_style.h **** #include "lv_types.h"
  24:Drivers/lvgl/src/extra/themes/mono/../../../../src/hal/../draw/../misc/lv_style.h **** #include "lv_assert.h"
  25:Drivers/lvgl/src/extra/themes/mono/../../../../src/hal/../draw/../misc/lv_style.h **** #include "lv_bidi.h"
  26:Drivers/lvgl/src/extra/themes/mono/../../../../src/hal/../draw/../misc/lv_style.h **** 
  27:Drivers/lvgl/src/extra/themes/mono/../../../../src/hal/../draw/../misc/lv_style.h **** /*********************
  28:Drivers/lvgl/src/extra/themes/mono/../../../../src/hal/../draw/../misc/lv_style.h ****  *      DEFINES
  29:Drivers/lvgl/src/extra/themes/mono/../../../../src/hal/../draw/../misc/lv_style.h ****  *********************/
  30:Drivers/lvgl/src/extra/themes/mono/../../../../src/hal/../draw/../misc/lv_style.h **** 
  31:Drivers/lvgl/src/extra/themes/mono/../../../../src/hal/../draw/../misc/lv_style.h **** #define LV_STYLE_SENTINEL_VALUE     0xAABBCCDD
  32:Drivers/lvgl/src/extra/themes/mono/../../../../src/hal/../draw/../misc/lv_style.h **** 
  33:Drivers/lvgl/src/extra/themes/mono/../../../../src/hal/../draw/../misc/lv_style.h **** /**
  34:Drivers/lvgl/src/extra/themes/mono/../../../../src/hal/../draw/../misc/lv_style.h ****  * Flags for style behavior
  35:Drivers/lvgl/src/extra/themes/mono/../../../../src/hal/../draw/../misc/lv_style.h ****  *
  36:Drivers/lvgl/src/extra/themes/mono/../../../../src/hal/../draw/../misc/lv_style.h ****  * The rest of the flags will have _FLAG added to their name in v9.
  37:Drivers/lvgl/src/extra/themes/mono/../../../../src/hal/../draw/../misc/lv_style.h ****  */
  38:Drivers/lvgl/src/extra/themes/mono/../../../../src/hal/../draw/../misc/lv_style.h **** #define LV_STYLE_PROP_FLAG_NONE             (0)
  39:Drivers/lvgl/src/extra/themes/mono/../../../../src/hal/../draw/../misc/lv_style.h **** #define LV_STYLE_PROP_INHERIT               (1 << 0)  /*Inherited*/
  40:Drivers/lvgl/src/extra/themes/mono/../../../../src/hal/../draw/../misc/lv_style.h **** #define LV_STYLE_PROP_EXT_DRAW              (1 << 1)  /*Requires ext. draw size update when changed
  41:Drivers/lvgl/src/extra/themes/mono/../../../../src/hal/../draw/../misc/lv_style.h **** #define LV_STYLE_PROP_LAYOUT_REFR           (1 << 2)  /*Requires layout update when changed*/
  42:Drivers/lvgl/src/extra/themes/mono/../../../../src/hal/../draw/../misc/lv_style.h **** #define LV_STYLE_PROP_PARENT_LAYOUT_REFR    (1 << 3)  /*Requires layout update on parent when chang
  43:Drivers/lvgl/src/extra/themes/mono/../../../../src/hal/../draw/../misc/lv_style.h **** #define LV_STYLE_PROP_LAYER_REFR            (1 << 4)  /*Affects layer handling*/
  44:Drivers/lvgl/src/extra/themes/mono/../../../../src/hal/../draw/../misc/lv_style.h **** #define LV_STYLE_PROP_ALL                   (0x1F)     /*Indicating all flags*/
  45:Drivers/lvgl/src/extra/themes/mono/../../../../src/hal/../draw/../misc/lv_style.h **** 
  46:Drivers/lvgl/src/extra/themes/mono/../../../../src/hal/../draw/../misc/lv_style.h **** /**
  47:Drivers/lvgl/src/extra/themes/mono/../../../../src/hal/../draw/../misc/lv_style.h ****  * Other constants
  48:Drivers/lvgl/src/extra/themes/mono/../../../../src/hal/../draw/../misc/lv_style.h ****  */
  49:Drivers/lvgl/src/extra/themes/mono/../../../../src/hal/../draw/../misc/lv_style.h **** #define LV_IMG_ZOOM_NONE            256        /*Value for not zooming the image*/
  50:Drivers/lvgl/src/extra/themes/mono/../../../../src/hal/../draw/../misc/lv_style.h **** LV_EXPORT_CONST_INT(LV_IMG_ZOOM_NONE);
ARM GAS  /var/folders/lp/x54gwt890xv47sdkqj1k04q40000gn/T//cc7THuQy.s 			page 51


  51:Drivers/lvgl/src/extra/themes/mono/../../../../src/hal/../draw/../misc/lv_style.h **** 
  52:Drivers/lvgl/src/extra/themes/mono/../../../../src/hal/../draw/../misc/lv_style.h **** // *INDENT-OFF*
  53:Drivers/lvgl/src/extra/themes/mono/../../../../src/hal/../draw/../misc/lv_style.h **** #if LV_USE_ASSERT_STYLE
  54:Drivers/lvgl/src/extra/themes/mono/../../../../src/hal/../draw/../misc/lv_style.h **** #define LV_STYLE_CONST_INIT(var_name, prop_array)                       \
  55:Drivers/lvgl/src/extra/themes/mono/../../../../src/hal/../draw/../misc/lv_style.h ****     const lv_style_t var_name = {                                       \
  56:Drivers/lvgl/src/extra/themes/mono/../../../../src/hal/../draw/../misc/lv_style.h ****         .sentinel = LV_STYLE_SENTINEL_VALUE,                            \
  57:Drivers/lvgl/src/extra/themes/mono/../../../../src/hal/../draw/../misc/lv_style.h ****         .v_p = { .const_props = prop_array },                           \
  58:Drivers/lvgl/src/extra/themes/mono/../../../../src/hal/../draw/../misc/lv_style.h ****         .has_group = 0xFF,                                              \
  59:Drivers/lvgl/src/extra/themes/mono/../../../../src/hal/../draw/../misc/lv_style.h ****         .prop1 = LV_STYLE_PROP_ANY,                                     \
  60:Drivers/lvgl/src/extra/themes/mono/../../../../src/hal/../draw/../misc/lv_style.h ****         .prop_cnt = (sizeof(prop_array) / sizeof((prop_array)[0])),     \
  61:Drivers/lvgl/src/extra/themes/mono/../../../../src/hal/../draw/../misc/lv_style.h ****     }
  62:Drivers/lvgl/src/extra/themes/mono/../../../../src/hal/../draw/../misc/lv_style.h **** #else
  63:Drivers/lvgl/src/extra/themes/mono/../../../../src/hal/../draw/../misc/lv_style.h **** #define LV_STYLE_CONST_INIT(var_name, prop_array)                       \
  64:Drivers/lvgl/src/extra/themes/mono/../../../../src/hal/../draw/../misc/lv_style.h ****     const lv_style_t var_name = {                                       \
  65:Drivers/lvgl/src/extra/themes/mono/../../../../src/hal/../draw/../misc/lv_style.h ****         .v_p = { .const_props = prop_array },                           \
  66:Drivers/lvgl/src/extra/themes/mono/../../../../src/hal/../draw/../misc/lv_style.h ****         .has_group = 0xFF,                                              \
  67:Drivers/lvgl/src/extra/themes/mono/../../../../src/hal/../draw/../misc/lv_style.h ****         .prop1 = LV_STYLE_PROP_ANY,                                     \
  68:Drivers/lvgl/src/extra/themes/mono/../../../../src/hal/../draw/../misc/lv_style.h ****         .prop_cnt = (sizeof(prop_array) / sizeof((prop_array)[0])),     \
  69:Drivers/lvgl/src/extra/themes/mono/../../../../src/hal/../draw/../misc/lv_style.h ****     }
  70:Drivers/lvgl/src/extra/themes/mono/../../../../src/hal/../draw/../misc/lv_style.h **** #endif
  71:Drivers/lvgl/src/extra/themes/mono/../../../../src/hal/../draw/../misc/lv_style.h **** // *INDENT-ON*
  72:Drivers/lvgl/src/extra/themes/mono/../../../../src/hal/../draw/../misc/lv_style.h **** 
  73:Drivers/lvgl/src/extra/themes/mono/../../../../src/hal/../draw/../misc/lv_style.h **** #define LV_STYLE_PROP_META_INHERIT 0x8000
  74:Drivers/lvgl/src/extra/themes/mono/../../../../src/hal/../draw/../misc/lv_style.h **** #define LV_STYLE_PROP_META_INITIAL 0x4000
  75:Drivers/lvgl/src/extra/themes/mono/../../../../src/hal/../draw/../misc/lv_style.h **** #define LV_STYLE_PROP_META_MASK (LV_STYLE_PROP_META_INHERIT | LV_STYLE_PROP_META_INITIAL)
  76:Drivers/lvgl/src/extra/themes/mono/../../../../src/hal/../draw/../misc/lv_style.h **** 
  77:Drivers/lvgl/src/extra/themes/mono/../../../../src/hal/../draw/../misc/lv_style.h **** #define LV_STYLE_PROP_ID_MASK(prop) ((lv_style_prop_t)((prop) & ~LV_STYLE_PROP_META_MASK))
  78:Drivers/lvgl/src/extra/themes/mono/../../../../src/hal/../draw/../misc/lv_style.h **** 
  79:Drivers/lvgl/src/extra/themes/mono/../../../../src/hal/../draw/../misc/lv_style.h **** /**********************
  80:Drivers/lvgl/src/extra/themes/mono/../../../../src/hal/../draw/../misc/lv_style.h ****  *      TYPEDEFS
  81:Drivers/lvgl/src/extra/themes/mono/../../../../src/hal/../draw/../misc/lv_style.h ****  **********************/
  82:Drivers/lvgl/src/extra/themes/mono/../../../../src/hal/../draw/../misc/lv_style.h **** 
  83:Drivers/lvgl/src/extra/themes/mono/../../../../src/hal/../draw/../misc/lv_style.h **** /**
  84:Drivers/lvgl/src/extra/themes/mono/../../../../src/hal/../draw/../misc/lv_style.h ****  * Possible options how to blend opaque drawings
  85:Drivers/lvgl/src/extra/themes/mono/../../../../src/hal/../draw/../misc/lv_style.h ****  */
  86:Drivers/lvgl/src/extra/themes/mono/../../../../src/hal/../draw/../misc/lv_style.h **** enum {
  87:Drivers/lvgl/src/extra/themes/mono/../../../../src/hal/../draw/../misc/lv_style.h ****     LV_BLEND_MODE_NORMAL,     /**< Simply mix according to the opacity value*/
  88:Drivers/lvgl/src/extra/themes/mono/../../../../src/hal/../draw/../misc/lv_style.h ****     LV_BLEND_MODE_ADDITIVE,   /**< Add the respective color channels*/
  89:Drivers/lvgl/src/extra/themes/mono/../../../../src/hal/../draw/../misc/lv_style.h ****     LV_BLEND_MODE_SUBTRACTIVE,/**< Subtract the foreground from the background*/
  90:Drivers/lvgl/src/extra/themes/mono/../../../../src/hal/../draw/../misc/lv_style.h ****     LV_BLEND_MODE_MULTIPLY,   /**< Multiply the foreground and background*/
  91:Drivers/lvgl/src/extra/themes/mono/../../../../src/hal/../draw/../misc/lv_style.h ****     LV_BLEND_MODE_REPLACE,    /**< Replace background with foreground in the area*/
  92:Drivers/lvgl/src/extra/themes/mono/../../../../src/hal/../draw/../misc/lv_style.h **** };
  93:Drivers/lvgl/src/extra/themes/mono/../../../../src/hal/../draw/../misc/lv_style.h **** 
  94:Drivers/lvgl/src/extra/themes/mono/../../../../src/hal/../draw/../misc/lv_style.h **** typedef uint8_t lv_blend_mode_t;
  95:Drivers/lvgl/src/extra/themes/mono/../../../../src/hal/../draw/../misc/lv_style.h **** 
  96:Drivers/lvgl/src/extra/themes/mono/../../../../src/hal/../draw/../misc/lv_style.h **** /**
  97:Drivers/lvgl/src/extra/themes/mono/../../../../src/hal/../draw/../misc/lv_style.h ****  * Some options to apply decorations on texts.
  98:Drivers/lvgl/src/extra/themes/mono/../../../../src/hal/../draw/../misc/lv_style.h ****  * 'OR'ed values can be used.
  99:Drivers/lvgl/src/extra/themes/mono/../../../../src/hal/../draw/../misc/lv_style.h ****  */
 100:Drivers/lvgl/src/extra/themes/mono/../../../../src/hal/../draw/../misc/lv_style.h **** enum {
 101:Drivers/lvgl/src/extra/themes/mono/../../../../src/hal/../draw/../misc/lv_style.h ****     LV_TEXT_DECOR_NONE          = 0x00,
 102:Drivers/lvgl/src/extra/themes/mono/../../../../src/hal/../draw/../misc/lv_style.h ****     LV_TEXT_DECOR_UNDERLINE     = 0x01,
 103:Drivers/lvgl/src/extra/themes/mono/../../../../src/hal/../draw/../misc/lv_style.h ****     LV_TEXT_DECOR_STRIKETHROUGH = 0x02,
 104:Drivers/lvgl/src/extra/themes/mono/../../../../src/hal/../draw/../misc/lv_style.h **** };
 105:Drivers/lvgl/src/extra/themes/mono/../../../../src/hal/../draw/../misc/lv_style.h **** 
 106:Drivers/lvgl/src/extra/themes/mono/../../../../src/hal/../draw/../misc/lv_style.h **** typedef uint8_t lv_text_decor_t;
 107:Drivers/lvgl/src/extra/themes/mono/../../../../src/hal/../draw/../misc/lv_style.h **** 
ARM GAS  /var/folders/lp/x54gwt890xv47sdkqj1k04q40000gn/T//cc7THuQy.s 			page 52


 108:Drivers/lvgl/src/extra/themes/mono/../../../../src/hal/../draw/../misc/lv_style.h **** /**
 109:Drivers/lvgl/src/extra/themes/mono/../../../../src/hal/../draw/../misc/lv_style.h ****  * Selects on which sides border should be drawn
 110:Drivers/lvgl/src/extra/themes/mono/../../../../src/hal/../draw/../misc/lv_style.h ****  * 'OR'ed values can be used.
 111:Drivers/lvgl/src/extra/themes/mono/../../../../src/hal/../draw/../misc/lv_style.h ****  */
 112:Drivers/lvgl/src/extra/themes/mono/../../../../src/hal/../draw/../misc/lv_style.h **** enum {
 113:Drivers/lvgl/src/extra/themes/mono/../../../../src/hal/../draw/../misc/lv_style.h ****     LV_BORDER_SIDE_NONE     = 0x00,
 114:Drivers/lvgl/src/extra/themes/mono/../../../../src/hal/../draw/../misc/lv_style.h ****     LV_BORDER_SIDE_BOTTOM   = 0x01,
 115:Drivers/lvgl/src/extra/themes/mono/../../../../src/hal/../draw/../misc/lv_style.h ****     LV_BORDER_SIDE_TOP      = 0x02,
 116:Drivers/lvgl/src/extra/themes/mono/../../../../src/hal/../draw/../misc/lv_style.h ****     LV_BORDER_SIDE_LEFT     = 0x04,
 117:Drivers/lvgl/src/extra/themes/mono/../../../../src/hal/../draw/../misc/lv_style.h ****     LV_BORDER_SIDE_RIGHT    = 0x08,
 118:Drivers/lvgl/src/extra/themes/mono/../../../../src/hal/../draw/../misc/lv_style.h ****     LV_BORDER_SIDE_FULL     = 0x0F,
 119:Drivers/lvgl/src/extra/themes/mono/../../../../src/hal/../draw/../misc/lv_style.h ****     LV_BORDER_SIDE_INTERNAL = 0x10, /**< FOR matrix-like objects (e.g. Button matrix)*/
 120:Drivers/lvgl/src/extra/themes/mono/../../../../src/hal/../draw/../misc/lv_style.h **** };
 121:Drivers/lvgl/src/extra/themes/mono/../../../../src/hal/../draw/../misc/lv_style.h **** typedef uint8_t lv_border_side_t;
 122:Drivers/lvgl/src/extra/themes/mono/../../../../src/hal/../draw/../misc/lv_style.h **** 
 123:Drivers/lvgl/src/extra/themes/mono/../../../../src/hal/../draw/../misc/lv_style.h **** /**
 124:Drivers/lvgl/src/extra/themes/mono/../../../../src/hal/../draw/../misc/lv_style.h ****  * The direction of the gradient.
 125:Drivers/lvgl/src/extra/themes/mono/../../../../src/hal/../draw/../misc/lv_style.h ****  */
 126:Drivers/lvgl/src/extra/themes/mono/../../../../src/hal/../draw/../misc/lv_style.h **** enum {
 127:Drivers/lvgl/src/extra/themes/mono/../../../../src/hal/../draw/../misc/lv_style.h ****     LV_GRAD_DIR_NONE, /**< No gradient (the `grad_color` property is ignored)*/
 128:Drivers/lvgl/src/extra/themes/mono/../../../../src/hal/../draw/../misc/lv_style.h ****     LV_GRAD_DIR_VER,  /**< Vertical (top to bottom) gradient*/
 129:Drivers/lvgl/src/extra/themes/mono/../../../../src/hal/../draw/../misc/lv_style.h ****     LV_GRAD_DIR_HOR,  /**< Horizontal (left to right) gradient*/
 130:Drivers/lvgl/src/extra/themes/mono/../../../../src/hal/../draw/../misc/lv_style.h **** };
 131:Drivers/lvgl/src/extra/themes/mono/../../../../src/hal/../draw/../misc/lv_style.h **** 
 132:Drivers/lvgl/src/extra/themes/mono/../../../../src/hal/../draw/../misc/lv_style.h **** typedef uint8_t lv_grad_dir_t;
 133:Drivers/lvgl/src/extra/themes/mono/../../../../src/hal/../draw/../misc/lv_style.h **** 
 134:Drivers/lvgl/src/extra/themes/mono/../../../../src/hal/../draw/../misc/lv_style.h **** /**
 135:Drivers/lvgl/src/extra/themes/mono/../../../../src/hal/../draw/../misc/lv_style.h ****  * The dithering algorithm for the gradient
 136:Drivers/lvgl/src/extra/themes/mono/../../../../src/hal/../draw/../misc/lv_style.h ****  * Depends on LV_DITHER_GRADIENT
 137:Drivers/lvgl/src/extra/themes/mono/../../../../src/hal/../draw/../misc/lv_style.h ****  */
 138:Drivers/lvgl/src/extra/themes/mono/../../../../src/hal/../draw/../misc/lv_style.h **** enum {
 139:Drivers/lvgl/src/extra/themes/mono/../../../../src/hal/../draw/../misc/lv_style.h ****     LV_DITHER_NONE,     /**< No dithering, colors are just quantized to the output resolution*/
 140:Drivers/lvgl/src/extra/themes/mono/../../../../src/hal/../draw/../misc/lv_style.h ****     LV_DITHER_ORDERED,  /**< Ordered dithering. Faster to compute and use less memory but lower qua
 141:Drivers/lvgl/src/extra/themes/mono/../../../../src/hal/../draw/../misc/lv_style.h ****     LV_DITHER_ERR_DIFF, /**< Error diffusion mode. Slower to compute and use more memory but give h
 142:Drivers/lvgl/src/extra/themes/mono/../../../../src/hal/../draw/../misc/lv_style.h **** };
 143:Drivers/lvgl/src/extra/themes/mono/../../../../src/hal/../draw/../misc/lv_style.h **** 
 144:Drivers/lvgl/src/extra/themes/mono/../../../../src/hal/../draw/../misc/lv_style.h **** typedef uint8_t lv_dither_mode_t;
 145:Drivers/lvgl/src/extra/themes/mono/../../../../src/hal/../draw/../misc/lv_style.h **** 
 146:Drivers/lvgl/src/extra/themes/mono/../../../../src/hal/../draw/../misc/lv_style.h **** /** A gradient stop definition.
 147:Drivers/lvgl/src/extra/themes/mono/../../../../src/hal/../draw/../misc/lv_style.h ****  *  This matches a color and a position in a virtual 0-255 scale.
 148:Drivers/lvgl/src/extra/themes/mono/../../../../src/hal/../draw/../misc/lv_style.h ****  */
 149:Drivers/lvgl/src/extra/themes/mono/../../../../src/hal/../draw/../misc/lv_style.h **** typedef struct {
 150:Drivers/lvgl/src/extra/themes/mono/../../../../src/hal/../draw/../misc/lv_style.h ****     lv_color_t color;   /**< The stop color */
 151:Drivers/lvgl/src/extra/themes/mono/../../../../src/hal/../draw/../misc/lv_style.h ****     uint8_t    frac;    /**< The stop position in 1/255 unit */
 152:Drivers/lvgl/src/extra/themes/mono/../../../../src/hal/../draw/../misc/lv_style.h **** } lv_gradient_stop_t;
 153:Drivers/lvgl/src/extra/themes/mono/../../../../src/hal/../draw/../misc/lv_style.h **** 
 154:Drivers/lvgl/src/extra/themes/mono/../../../../src/hal/../draw/../misc/lv_style.h **** /** A descriptor of a gradient. */
 155:Drivers/lvgl/src/extra/themes/mono/../../../../src/hal/../draw/../misc/lv_style.h **** typedef struct {
 156:Drivers/lvgl/src/extra/themes/mono/../../../../src/hal/../draw/../misc/lv_style.h ****     lv_gradient_stop_t   stops[LV_GRADIENT_MAX_STOPS]; /**< A gradient stop array */
 157:Drivers/lvgl/src/extra/themes/mono/../../../../src/hal/../draw/../misc/lv_style.h ****     uint8_t              stops_count;                  /**< The number of used stops in the array *
 158:Drivers/lvgl/src/extra/themes/mono/../../../../src/hal/../draw/../misc/lv_style.h ****     lv_grad_dir_t        dir : 3;                      /**< The gradient direction.
 159:Drivers/lvgl/src/extra/themes/mono/../../../../src/hal/../draw/../misc/lv_style.h ****                                                         * Any of LV_GRAD_DIR_HOR, LV_GRAD_DIR_VER, 
 160:Drivers/lvgl/src/extra/themes/mono/../../../../src/hal/../draw/../misc/lv_style.h ****     lv_dither_mode_t     dither : 3;                   /**< Whether to dither the gradient or not.
 161:Drivers/lvgl/src/extra/themes/mono/../../../../src/hal/../draw/../misc/lv_style.h ****                                                         * Any of LV_DITHER_NONE, LV_DITHER_ORDERED,
 162:Drivers/lvgl/src/extra/themes/mono/../../../../src/hal/../draw/../misc/lv_style.h **** } lv_grad_dsc_t;
 163:Drivers/lvgl/src/extra/themes/mono/../../../../src/hal/../draw/../misc/lv_style.h **** 
 164:Drivers/lvgl/src/extra/themes/mono/../../../../src/hal/../draw/../misc/lv_style.h **** /**
ARM GAS  /var/folders/lp/x54gwt890xv47sdkqj1k04q40000gn/T//cc7THuQy.s 			page 53


 165:Drivers/lvgl/src/extra/themes/mono/../../../../src/hal/../draw/../misc/lv_style.h ****  * A common type to handle all the property types in the same way.
 166:Drivers/lvgl/src/extra/themes/mono/../../../../src/hal/../draw/../misc/lv_style.h ****  */
 167:Drivers/lvgl/src/extra/themes/mono/../../../../src/hal/../draw/../misc/lv_style.h **** typedef union {
 168:Drivers/lvgl/src/extra/themes/mono/../../../../src/hal/../draw/../misc/lv_style.h ****     int32_t num;         /**< Number integer number (opacity, enums, booleans or "normal" numbers)*
 169:Drivers/lvgl/src/extra/themes/mono/../../../../src/hal/../draw/../misc/lv_style.h ****     const void * ptr;    /**< Constant pointers  (font, cone text, etc)*/
 170:Drivers/lvgl/src/extra/themes/mono/../../../../src/hal/../draw/../misc/lv_style.h ****     lv_color_t color;    /**< Colors*/
 171:Drivers/lvgl/src/extra/themes/mono/../../../../src/hal/../draw/../misc/lv_style.h **** } lv_style_value_t;
 172:Drivers/lvgl/src/extra/themes/mono/../../../../src/hal/../draw/../misc/lv_style.h **** 
 173:Drivers/lvgl/src/extra/themes/mono/../../../../src/hal/../draw/../misc/lv_style.h **** /**
 174:Drivers/lvgl/src/extra/themes/mono/../../../../src/hal/../draw/../misc/lv_style.h ****  * Enumeration of all built in style properties
 175:Drivers/lvgl/src/extra/themes/mono/../../../../src/hal/../draw/../misc/lv_style.h ****  *
 176:Drivers/lvgl/src/extra/themes/mono/../../../../src/hal/../draw/../misc/lv_style.h ****  * Props are split into groups of 16. When adding a new prop to a group, ensure it does not overflo
 177:Drivers/lvgl/src/extra/themes/mono/../../../../src/hal/../draw/../misc/lv_style.h ****  */
 178:Drivers/lvgl/src/extra/themes/mono/../../../../src/hal/../draw/../misc/lv_style.h **** typedef enum {
 179:Drivers/lvgl/src/extra/themes/mono/../../../../src/hal/../draw/../misc/lv_style.h ****     LV_STYLE_PROP_INV               = 0,
 180:Drivers/lvgl/src/extra/themes/mono/../../../../src/hal/../draw/../misc/lv_style.h **** 
 181:Drivers/lvgl/src/extra/themes/mono/../../../../src/hal/../draw/../misc/lv_style.h ****     /*Group 0*/
 182:Drivers/lvgl/src/extra/themes/mono/../../../../src/hal/../draw/../misc/lv_style.h ****     LV_STYLE_WIDTH                  = 1,
 183:Drivers/lvgl/src/extra/themes/mono/../../../../src/hal/../draw/../misc/lv_style.h ****     LV_STYLE_MIN_WIDTH              = 2,
 184:Drivers/lvgl/src/extra/themes/mono/../../../../src/hal/../draw/../misc/lv_style.h ****     LV_STYLE_MAX_WIDTH              = 3,
 185:Drivers/lvgl/src/extra/themes/mono/../../../../src/hal/../draw/../misc/lv_style.h ****     LV_STYLE_HEIGHT                 = 4,
 186:Drivers/lvgl/src/extra/themes/mono/../../../../src/hal/../draw/../misc/lv_style.h ****     LV_STYLE_MIN_HEIGHT             = 5,
 187:Drivers/lvgl/src/extra/themes/mono/../../../../src/hal/../draw/../misc/lv_style.h ****     LV_STYLE_MAX_HEIGHT             = 6,
 188:Drivers/lvgl/src/extra/themes/mono/../../../../src/hal/../draw/../misc/lv_style.h ****     LV_STYLE_X                      = 7,
 189:Drivers/lvgl/src/extra/themes/mono/../../../../src/hal/../draw/../misc/lv_style.h ****     LV_STYLE_Y                      = 8,
 190:Drivers/lvgl/src/extra/themes/mono/../../../../src/hal/../draw/../misc/lv_style.h ****     LV_STYLE_ALIGN                  = 9,
 191:Drivers/lvgl/src/extra/themes/mono/../../../../src/hal/../draw/../misc/lv_style.h ****     LV_STYLE_LAYOUT                 = 10,
 192:Drivers/lvgl/src/extra/themes/mono/../../../../src/hal/../draw/../misc/lv_style.h ****     LV_STYLE_RADIUS                 = 11,
 193:Drivers/lvgl/src/extra/themes/mono/../../../../src/hal/../draw/../misc/lv_style.h **** 
 194:Drivers/lvgl/src/extra/themes/mono/../../../../src/hal/../draw/../misc/lv_style.h ****     /*Group 1*/
 195:Drivers/lvgl/src/extra/themes/mono/../../../../src/hal/../draw/../misc/lv_style.h ****     LV_STYLE_PAD_TOP                = 16,
 196:Drivers/lvgl/src/extra/themes/mono/../../../../src/hal/../draw/../misc/lv_style.h ****     LV_STYLE_PAD_BOTTOM             = 17,
 197:Drivers/lvgl/src/extra/themes/mono/../../../../src/hal/../draw/../misc/lv_style.h ****     LV_STYLE_PAD_LEFT               = 18,
 198:Drivers/lvgl/src/extra/themes/mono/../../../../src/hal/../draw/../misc/lv_style.h ****     LV_STYLE_PAD_RIGHT              = 19,
 199:Drivers/lvgl/src/extra/themes/mono/../../../../src/hal/../draw/../misc/lv_style.h ****     LV_STYLE_PAD_ROW                = 20,
 200:Drivers/lvgl/src/extra/themes/mono/../../../../src/hal/../draw/../misc/lv_style.h ****     LV_STYLE_PAD_COLUMN             = 21,
 201:Drivers/lvgl/src/extra/themes/mono/../../../../src/hal/../draw/../misc/lv_style.h ****     LV_STYLE_BASE_DIR               = 22,
 202:Drivers/lvgl/src/extra/themes/mono/../../../../src/hal/../draw/../misc/lv_style.h ****     LV_STYLE_CLIP_CORNER            = 23,
 203:Drivers/lvgl/src/extra/themes/mono/../../../../src/hal/../draw/../misc/lv_style.h **** 
 204:Drivers/lvgl/src/extra/themes/mono/../../../../src/hal/../draw/../misc/lv_style.h ****     /*Group 2*/
 205:Drivers/lvgl/src/extra/themes/mono/../../../../src/hal/../draw/../misc/lv_style.h ****     LV_STYLE_BG_COLOR               = 32,
 206:Drivers/lvgl/src/extra/themes/mono/../../../../src/hal/../draw/../misc/lv_style.h ****     LV_STYLE_BG_OPA                 = 33,
 207:Drivers/lvgl/src/extra/themes/mono/../../../../src/hal/../draw/../misc/lv_style.h ****     LV_STYLE_BG_GRAD_COLOR          = 34,
 208:Drivers/lvgl/src/extra/themes/mono/../../../../src/hal/../draw/../misc/lv_style.h ****     LV_STYLE_BG_GRAD_DIR            = 35,
 209:Drivers/lvgl/src/extra/themes/mono/../../../../src/hal/../draw/../misc/lv_style.h ****     LV_STYLE_BG_MAIN_STOP           = 36,
 210:Drivers/lvgl/src/extra/themes/mono/../../../../src/hal/../draw/../misc/lv_style.h ****     LV_STYLE_BG_GRAD_STOP           = 37,
 211:Drivers/lvgl/src/extra/themes/mono/../../../../src/hal/../draw/../misc/lv_style.h ****     LV_STYLE_BG_GRAD                = 38,
 212:Drivers/lvgl/src/extra/themes/mono/../../../../src/hal/../draw/../misc/lv_style.h ****     LV_STYLE_BG_DITHER_MODE         = 39,
 213:Drivers/lvgl/src/extra/themes/mono/../../../../src/hal/../draw/../misc/lv_style.h ****     LV_STYLE_BG_IMG_SRC             = 40,
 214:Drivers/lvgl/src/extra/themes/mono/../../../../src/hal/../draw/../misc/lv_style.h ****     LV_STYLE_BG_IMG_OPA             = 41,
 215:Drivers/lvgl/src/extra/themes/mono/../../../../src/hal/../draw/../misc/lv_style.h ****     LV_STYLE_BG_IMG_RECOLOR         = 42,
 216:Drivers/lvgl/src/extra/themes/mono/../../../../src/hal/../draw/../misc/lv_style.h ****     LV_STYLE_BG_IMG_RECOLOR_OPA     = 43,
 217:Drivers/lvgl/src/extra/themes/mono/../../../../src/hal/../draw/../misc/lv_style.h ****     LV_STYLE_BG_IMG_TILED           = 44,
 218:Drivers/lvgl/src/extra/themes/mono/../../../../src/hal/../draw/../misc/lv_style.h **** 
 219:Drivers/lvgl/src/extra/themes/mono/../../../../src/hal/../draw/../misc/lv_style.h ****     /*Group 3*/
 220:Drivers/lvgl/src/extra/themes/mono/../../../../src/hal/../draw/../misc/lv_style.h ****     LV_STYLE_BORDER_COLOR           = 48,
 221:Drivers/lvgl/src/extra/themes/mono/../../../../src/hal/../draw/../misc/lv_style.h ****     LV_STYLE_BORDER_OPA             = 49,
ARM GAS  /var/folders/lp/x54gwt890xv47sdkqj1k04q40000gn/T//cc7THuQy.s 			page 54


 222:Drivers/lvgl/src/extra/themes/mono/../../../../src/hal/../draw/../misc/lv_style.h ****     LV_STYLE_BORDER_WIDTH           = 50,
 223:Drivers/lvgl/src/extra/themes/mono/../../../../src/hal/../draw/../misc/lv_style.h ****     LV_STYLE_BORDER_SIDE            = 51,
 224:Drivers/lvgl/src/extra/themes/mono/../../../../src/hal/../draw/../misc/lv_style.h ****     LV_STYLE_BORDER_POST            = 52,
 225:Drivers/lvgl/src/extra/themes/mono/../../../../src/hal/../draw/../misc/lv_style.h ****     LV_STYLE_OUTLINE_WIDTH          = 53,
 226:Drivers/lvgl/src/extra/themes/mono/../../../../src/hal/../draw/../misc/lv_style.h ****     LV_STYLE_OUTLINE_COLOR          = 54,
 227:Drivers/lvgl/src/extra/themes/mono/../../../../src/hal/../draw/../misc/lv_style.h ****     LV_STYLE_OUTLINE_OPA            = 55,
 228:Drivers/lvgl/src/extra/themes/mono/../../../../src/hal/../draw/../misc/lv_style.h ****     LV_STYLE_OUTLINE_PAD            = 56,
 229:Drivers/lvgl/src/extra/themes/mono/../../../../src/hal/../draw/../misc/lv_style.h **** 
 230:Drivers/lvgl/src/extra/themes/mono/../../../../src/hal/../draw/../misc/lv_style.h ****     /*Group 4*/
 231:Drivers/lvgl/src/extra/themes/mono/../../../../src/hal/../draw/../misc/lv_style.h ****     LV_STYLE_SHADOW_WIDTH           = 64,
 232:Drivers/lvgl/src/extra/themes/mono/../../../../src/hal/../draw/../misc/lv_style.h ****     LV_STYLE_SHADOW_OFS_X           = 65,
 233:Drivers/lvgl/src/extra/themes/mono/../../../../src/hal/../draw/../misc/lv_style.h ****     LV_STYLE_SHADOW_OFS_Y           = 66,
 234:Drivers/lvgl/src/extra/themes/mono/../../../../src/hal/../draw/../misc/lv_style.h ****     LV_STYLE_SHADOW_SPREAD          = 67,
 235:Drivers/lvgl/src/extra/themes/mono/../../../../src/hal/../draw/../misc/lv_style.h ****     LV_STYLE_SHADOW_COLOR           = 68,
 236:Drivers/lvgl/src/extra/themes/mono/../../../../src/hal/../draw/../misc/lv_style.h ****     LV_STYLE_SHADOW_OPA             = 69,
 237:Drivers/lvgl/src/extra/themes/mono/../../../../src/hal/../draw/../misc/lv_style.h ****     LV_STYLE_IMG_OPA                = 70,
 238:Drivers/lvgl/src/extra/themes/mono/../../../../src/hal/../draw/../misc/lv_style.h ****     LV_STYLE_IMG_RECOLOR            = 71,
 239:Drivers/lvgl/src/extra/themes/mono/../../../../src/hal/../draw/../misc/lv_style.h ****     LV_STYLE_IMG_RECOLOR_OPA        = 72,
 240:Drivers/lvgl/src/extra/themes/mono/../../../../src/hal/../draw/../misc/lv_style.h ****     LV_STYLE_LINE_WIDTH             = 73,
 241:Drivers/lvgl/src/extra/themes/mono/../../../../src/hal/../draw/../misc/lv_style.h ****     LV_STYLE_LINE_DASH_WIDTH        = 74,
 242:Drivers/lvgl/src/extra/themes/mono/../../../../src/hal/../draw/../misc/lv_style.h ****     LV_STYLE_LINE_DASH_GAP          = 75,
 243:Drivers/lvgl/src/extra/themes/mono/../../../../src/hal/../draw/../misc/lv_style.h ****     LV_STYLE_LINE_ROUNDED           = 76,
 244:Drivers/lvgl/src/extra/themes/mono/../../../../src/hal/../draw/../misc/lv_style.h ****     LV_STYLE_LINE_COLOR             = 77,
 245:Drivers/lvgl/src/extra/themes/mono/../../../../src/hal/../draw/../misc/lv_style.h ****     LV_STYLE_LINE_OPA               = 78,
 246:Drivers/lvgl/src/extra/themes/mono/../../../../src/hal/../draw/../misc/lv_style.h **** 
 247:Drivers/lvgl/src/extra/themes/mono/../../../../src/hal/../draw/../misc/lv_style.h ****     /*Group 5*/
 248:Drivers/lvgl/src/extra/themes/mono/../../../../src/hal/../draw/../misc/lv_style.h ****     LV_STYLE_ARC_WIDTH              = 80,
 249:Drivers/lvgl/src/extra/themes/mono/../../../../src/hal/../draw/../misc/lv_style.h ****     LV_STYLE_ARC_ROUNDED            = 81,
 250:Drivers/lvgl/src/extra/themes/mono/../../../../src/hal/../draw/../misc/lv_style.h ****     LV_STYLE_ARC_COLOR              = 82,
 251:Drivers/lvgl/src/extra/themes/mono/../../../../src/hal/../draw/../misc/lv_style.h ****     LV_STYLE_ARC_OPA                = 83,
 252:Drivers/lvgl/src/extra/themes/mono/../../../../src/hal/../draw/../misc/lv_style.h ****     LV_STYLE_ARC_IMG_SRC            = 84,
 253:Drivers/lvgl/src/extra/themes/mono/../../../../src/hal/../draw/../misc/lv_style.h ****     LV_STYLE_TEXT_COLOR             = 85,
 254:Drivers/lvgl/src/extra/themes/mono/../../../../src/hal/../draw/../misc/lv_style.h ****     LV_STYLE_TEXT_OPA               = 86,
 255:Drivers/lvgl/src/extra/themes/mono/../../../../src/hal/../draw/../misc/lv_style.h ****     LV_STYLE_TEXT_FONT              = 87,
 256:Drivers/lvgl/src/extra/themes/mono/../../../../src/hal/../draw/../misc/lv_style.h ****     LV_STYLE_TEXT_LETTER_SPACE      = 88,
 257:Drivers/lvgl/src/extra/themes/mono/../../../../src/hal/../draw/../misc/lv_style.h ****     LV_STYLE_TEXT_LINE_SPACE        = 89,
 258:Drivers/lvgl/src/extra/themes/mono/../../../../src/hal/../draw/../misc/lv_style.h ****     LV_STYLE_TEXT_DECOR             = 90,
 259:Drivers/lvgl/src/extra/themes/mono/../../../../src/hal/../draw/../misc/lv_style.h ****     LV_STYLE_TEXT_ALIGN             = 91,
 260:Drivers/lvgl/src/extra/themes/mono/../../../../src/hal/../draw/../misc/lv_style.h **** 
 261:Drivers/lvgl/src/extra/themes/mono/../../../../src/hal/../draw/../misc/lv_style.h ****     /*Group 6*/
 262:Drivers/lvgl/src/extra/themes/mono/../../../../src/hal/../draw/../misc/lv_style.h ****     LV_STYLE_OPA                    = 96,
 263:Drivers/lvgl/src/extra/themes/mono/../../../../src/hal/../draw/../misc/lv_style.h ****     LV_STYLE_OPA_LAYERED            = 97,
 264:Drivers/lvgl/src/extra/themes/mono/../../../../src/hal/../draw/../misc/lv_style.h ****     LV_STYLE_COLOR_FILTER_DSC       = 98,
 265:Drivers/lvgl/src/extra/themes/mono/../../../../src/hal/../draw/../misc/lv_style.h ****     LV_STYLE_COLOR_FILTER_OPA       = 99,
 266:Drivers/lvgl/src/extra/themes/mono/../../../../src/hal/../draw/../misc/lv_style.h ****     LV_STYLE_ANIM                   = 100,
 267:Drivers/lvgl/src/extra/themes/mono/../../../../src/hal/../draw/../misc/lv_style.h ****     LV_STYLE_ANIM_TIME              = 101,
 268:Drivers/lvgl/src/extra/themes/mono/../../../../src/hal/../draw/../misc/lv_style.h ****     LV_STYLE_ANIM_SPEED             = 102,
 269:Drivers/lvgl/src/extra/themes/mono/../../../../src/hal/../draw/../misc/lv_style.h ****     LV_STYLE_TRANSITION             = 103,
 270:Drivers/lvgl/src/extra/themes/mono/../../../../src/hal/../draw/../misc/lv_style.h ****     LV_STYLE_BLEND_MODE             = 104,
 271:Drivers/lvgl/src/extra/themes/mono/../../../../src/hal/../draw/../misc/lv_style.h ****     LV_STYLE_TRANSFORM_WIDTH        = 105,
 272:Drivers/lvgl/src/extra/themes/mono/../../../../src/hal/../draw/../misc/lv_style.h ****     LV_STYLE_TRANSFORM_HEIGHT       = 106,
 273:Drivers/lvgl/src/extra/themes/mono/../../../../src/hal/../draw/../misc/lv_style.h ****     LV_STYLE_TRANSLATE_X            = 107,
 274:Drivers/lvgl/src/extra/themes/mono/../../../../src/hal/../draw/../misc/lv_style.h ****     LV_STYLE_TRANSLATE_Y            = 108,
 275:Drivers/lvgl/src/extra/themes/mono/../../../../src/hal/../draw/../misc/lv_style.h ****     LV_STYLE_TRANSFORM_ZOOM         = 109,
 276:Drivers/lvgl/src/extra/themes/mono/../../../../src/hal/../draw/../misc/lv_style.h ****     LV_STYLE_TRANSFORM_ANGLE        = 110,
 277:Drivers/lvgl/src/extra/themes/mono/../../../../src/hal/../draw/../misc/lv_style.h ****     LV_STYLE_TRANSFORM_PIVOT_X      = 111,
 278:Drivers/lvgl/src/extra/themes/mono/../../../../src/hal/../draw/../misc/lv_style.h ****     LV_STYLE_TRANSFORM_PIVOT_Y      = 112,
ARM GAS  /var/folders/lp/x54gwt890xv47sdkqj1k04q40000gn/T//cc7THuQy.s 			page 55


 279:Drivers/lvgl/src/extra/themes/mono/../../../../src/hal/../draw/../misc/lv_style.h **** 
 280:Drivers/lvgl/src/extra/themes/mono/../../../../src/hal/../draw/../misc/lv_style.h ****     _LV_STYLE_LAST_BUILT_IN_PROP     = 112,
 281:Drivers/lvgl/src/extra/themes/mono/../../../../src/hal/../draw/../misc/lv_style.h ****     _LV_STYLE_NUM_BUILT_IN_PROPS     = _LV_STYLE_LAST_BUILT_IN_PROP + 1,
 282:Drivers/lvgl/src/extra/themes/mono/../../../../src/hal/../draw/../misc/lv_style.h **** 
 283:Drivers/lvgl/src/extra/themes/mono/../../../../src/hal/../draw/../misc/lv_style.h ****     LV_STYLE_PROP_ANY                = 0xFFFF,
 284:Drivers/lvgl/src/extra/themes/mono/../../../../src/hal/../draw/../misc/lv_style.h ****     _LV_STYLE_PROP_CONST             = 0xFFFF /* magic value for const styles */
 285:Drivers/lvgl/src/extra/themes/mono/../../../../src/hal/../draw/../misc/lv_style.h **** } lv_style_prop_t;
 286:Drivers/lvgl/src/extra/themes/mono/../../../../src/hal/../draw/../misc/lv_style.h **** 
 287:Drivers/lvgl/src/extra/themes/mono/../../../../src/hal/../draw/../misc/lv_style.h **** enum {
 288:Drivers/lvgl/src/extra/themes/mono/../../../../src/hal/../draw/../misc/lv_style.h ****     LV_STYLE_RES_NOT_FOUND,
 289:Drivers/lvgl/src/extra/themes/mono/../../../../src/hal/../draw/../misc/lv_style.h ****     LV_STYLE_RES_FOUND,
 290:Drivers/lvgl/src/extra/themes/mono/../../../../src/hal/../draw/../misc/lv_style.h ****     LV_STYLE_RES_INHERIT
 291:Drivers/lvgl/src/extra/themes/mono/../../../../src/hal/../draw/../misc/lv_style.h **** };
 292:Drivers/lvgl/src/extra/themes/mono/../../../../src/hal/../draw/../misc/lv_style.h **** 
 293:Drivers/lvgl/src/extra/themes/mono/../../../../src/hal/../draw/../misc/lv_style.h **** typedef uint8_t lv_style_res_t;
 294:Drivers/lvgl/src/extra/themes/mono/../../../../src/hal/../draw/../misc/lv_style.h **** 
 295:Drivers/lvgl/src/extra/themes/mono/../../../../src/hal/../draw/../misc/lv_style.h **** /**
 296:Drivers/lvgl/src/extra/themes/mono/../../../../src/hal/../draw/../misc/lv_style.h ****  * Descriptor for style transitions
 297:Drivers/lvgl/src/extra/themes/mono/../../../../src/hal/../draw/../misc/lv_style.h ****  */
 298:Drivers/lvgl/src/extra/themes/mono/../../../../src/hal/../draw/../misc/lv_style.h **** typedef struct {
 299:Drivers/lvgl/src/extra/themes/mono/../../../../src/hal/../draw/../misc/lv_style.h ****     const lv_style_prop_t * props; /**< An array with the properties to animate.*/
 300:Drivers/lvgl/src/extra/themes/mono/../../../../src/hal/../draw/../misc/lv_style.h **** #if LV_USE_USER_DATA
 301:Drivers/lvgl/src/extra/themes/mono/../../../../src/hal/../draw/../misc/lv_style.h ****     void * user_data;              /**< A custom user data that will be passed to the animation's u
 302:Drivers/lvgl/src/extra/themes/mono/../../../../src/hal/../draw/../misc/lv_style.h **** #endif
 303:Drivers/lvgl/src/extra/themes/mono/../../../../src/hal/../draw/../misc/lv_style.h ****     lv_anim_path_cb_t path_xcb;     /**< A path for the animation.*/
 304:Drivers/lvgl/src/extra/themes/mono/../../../../src/hal/../draw/../misc/lv_style.h ****     uint32_t time;                 /**< Duration of the transition in [ms]*/
 305:Drivers/lvgl/src/extra/themes/mono/../../../../src/hal/../draw/../misc/lv_style.h ****     uint32_t delay;                /**< Delay before the transition in [ms]*/
 306:Drivers/lvgl/src/extra/themes/mono/../../../../src/hal/../draw/../misc/lv_style.h **** } lv_style_transition_dsc_t;
 307:Drivers/lvgl/src/extra/themes/mono/../../../../src/hal/../draw/../misc/lv_style.h **** 
 308:Drivers/lvgl/src/extra/themes/mono/../../../../src/hal/../draw/../misc/lv_style.h **** /**
 309:Drivers/lvgl/src/extra/themes/mono/../../../../src/hal/../draw/../misc/lv_style.h ****  * Descriptor of a constant style property.
 310:Drivers/lvgl/src/extra/themes/mono/../../../../src/hal/../draw/../misc/lv_style.h ****  */
 311:Drivers/lvgl/src/extra/themes/mono/../../../../src/hal/../draw/../misc/lv_style.h **** typedef struct {
 312:Drivers/lvgl/src/extra/themes/mono/../../../../src/hal/../draw/../misc/lv_style.h ****     lv_style_prop_t prop;
 313:Drivers/lvgl/src/extra/themes/mono/../../../../src/hal/../draw/../misc/lv_style.h ****     lv_style_value_t value;
 314:Drivers/lvgl/src/extra/themes/mono/../../../../src/hal/../draw/../misc/lv_style.h **** } lv_style_const_prop_t;
 315:Drivers/lvgl/src/extra/themes/mono/../../../../src/hal/../draw/../misc/lv_style.h **** 
 316:Drivers/lvgl/src/extra/themes/mono/../../../../src/hal/../draw/../misc/lv_style.h **** /**
 317:Drivers/lvgl/src/extra/themes/mono/../../../../src/hal/../draw/../misc/lv_style.h ****  * Descriptor of a style (a collection of properties and values).
 318:Drivers/lvgl/src/extra/themes/mono/../../../../src/hal/../draw/../misc/lv_style.h ****  */
 319:Drivers/lvgl/src/extra/themes/mono/../../../../src/hal/../draw/../misc/lv_style.h **** typedef struct {
 320:Drivers/lvgl/src/extra/themes/mono/../../../../src/hal/../draw/../misc/lv_style.h **** 
 321:Drivers/lvgl/src/extra/themes/mono/../../../../src/hal/../draw/../misc/lv_style.h **** #if LV_USE_ASSERT_STYLE
 322:Drivers/lvgl/src/extra/themes/mono/../../../../src/hal/../draw/../misc/lv_style.h ****     uint32_t sentinel;
 323:Drivers/lvgl/src/extra/themes/mono/../../../../src/hal/../draw/../misc/lv_style.h **** #endif
 324:Drivers/lvgl/src/extra/themes/mono/../../../../src/hal/../draw/../misc/lv_style.h **** 
 325:Drivers/lvgl/src/extra/themes/mono/../../../../src/hal/../draw/../misc/lv_style.h ****     /*If there is only one property store it directly.
 326:Drivers/lvgl/src/extra/themes/mono/../../../../src/hal/../draw/../misc/lv_style.h ****      *For more properties allocate an array*/
 327:Drivers/lvgl/src/extra/themes/mono/../../../../src/hal/../draw/../misc/lv_style.h ****     union {
 328:Drivers/lvgl/src/extra/themes/mono/../../../../src/hal/../draw/../misc/lv_style.h ****         lv_style_value_t value1;
 329:Drivers/lvgl/src/extra/themes/mono/../../../../src/hal/../draw/../misc/lv_style.h ****         uint8_t * values_and_props;
 330:Drivers/lvgl/src/extra/themes/mono/../../../../src/hal/../draw/../misc/lv_style.h ****         const lv_style_const_prop_t * const_props;
 331:Drivers/lvgl/src/extra/themes/mono/../../../../src/hal/../draw/../misc/lv_style.h ****     } v_p;
 332:Drivers/lvgl/src/extra/themes/mono/../../../../src/hal/../draw/../misc/lv_style.h **** 
 333:Drivers/lvgl/src/extra/themes/mono/../../../../src/hal/../draw/../misc/lv_style.h ****     uint16_t prop1;
 334:Drivers/lvgl/src/extra/themes/mono/../../../../src/hal/../draw/../misc/lv_style.h ****     uint8_t has_group;
 335:Drivers/lvgl/src/extra/themes/mono/../../../../src/hal/../draw/../misc/lv_style.h ****     uint8_t prop_cnt;
ARM GAS  /var/folders/lp/x54gwt890xv47sdkqj1k04q40000gn/T//cc7THuQy.s 			page 56


 336:Drivers/lvgl/src/extra/themes/mono/../../../../src/hal/../draw/../misc/lv_style.h **** } lv_style_t;
 337:Drivers/lvgl/src/extra/themes/mono/../../../../src/hal/../draw/../misc/lv_style.h **** 
 338:Drivers/lvgl/src/extra/themes/mono/../../../../src/hal/../draw/../misc/lv_style.h **** /**********************
 339:Drivers/lvgl/src/extra/themes/mono/../../../../src/hal/../draw/../misc/lv_style.h ****  * GLOBAL PROTOTYPES
 340:Drivers/lvgl/src/extra/themes/mono/../../../../src/hal/../draw/../misc/lv_style.h ****  **********************/
 341:Drivers/lvgl/src/extra/themes/mono/../../../../src/hal/../draw/../misc/lv_style.h **** 
 342:Drivers/lvgl/src/extra/themes/mono/../../../../src/hal/../draw/../misc/lv_style.h **** 
 343:Drivers/lvgl/src/extra/themes/mono/../../../../src/hal/../draw/../misc/lv_style.h **** /**
 344:Drivers/lvgl/src/extra/themes/mono/../../../../src/hal/../draw/../misc/lv_style.h ****  * Initialize a style
 345:Drivers/lvgl/src/extra/themes/mono/../../../../src/hal/../draw/../misc/lv_style.h ****  * @param style pointer to a style to initialize
 346:Drivers/lvgl/src/extra/themes/mono/../../../../src/hal/../draw/../misc/lv_style.h ****  * @note Do not call `lv_style_init` on styles that already have some properties
 347:Drivers/lvgl/src/extra/themes/mono/../../../../src/hal/../draw/../misc/lv_style.h ****  *       because this function won't free the used memory, just sets a default state for the style.
 348:Drivers/lvgl/src/extra/themes/mono/../../../../src/hal/../draw/../misc/lv_style.h ****  *       In other words be sure to initialize styles only once!
 349:Drivers/lvgl/src/extra/themes/mono/../../../../src/hal/../draw/../misc/lv_style.h ****  */
 350:Drivers/lvgl/src/extra/themes/mono/../../../../src/hal/../draw/../misc/lv_style.h **** void lv_style_init(lv_style_t * style);
 351:Drivers/lvgl/src/extra/themes/mono/../../../../src/hal/../draw/../misc/lv_style.h **** 
 352:Drivers/lvgl/src/extra/themes/mono/../../../../src/hal/../draw/../misc/lv_style.h **** /**
 353:Drivers/lvgl/src/extra/themes/mono/../../../../src/hal/../draw/../misc/lv_style.h ****  * Clear all properties from a style and free all allocated memories.
 354:Drivers/lvgl/src/extra/themes/mono/../../../../src/hal/../draw/../misc/lv_style.h ****  * @param style pointer to a style
 355:Drivers/lvgl/src/extra/themes/mono/../../../../src/hal/../draw/../misc/lv_style.h ****  */
 356:Drivers/lvgl/src/extra/themes/mono/../../../../src/hal/../draw/../misc/lv_style.h **** void lv_style_reset(lv_style_t * style);
 357:Drivers/lvgl/src/extra/themes/mono/../../../../src/hal/../draw/../misc/lv_style.h **** 
 358:Drivers/lvgl/src/extra/themes/mono/../../../../src/hal/../draw/../misc/lv_style.h **** /**
 359:Drivers/lvgl/src/extra/themes/mono/../../../../src/hal/../draw/../misc/lv_style.h ****  * Register a new style property for custom usage
 360:Drivers/lvgl/src/extra/themes/mono/../../../../src/hal/../draw/../misc/lv_style.h ****  * @return a new property ID, or LV_STYLE_PROP_INV if there are no more available.
 361:Drivers/lvgl/src/extra/themes/mono/../../../../src/hal/../draw/../misc/lv_style.h ****  * @example
 362:Drivers/lvgl/src/extra/themes/mono/../../../../src/hal/../draw/../misc/lv_style.h ****  * lv_style_prop_t MY_PROP;
 363:Drivers/lvgl/src/extra/themes/mono/../../../../src/hal/../draw/../misc/lv_style.h ****  * static inline void lv_style_set_my_prop(lv_style_t * style, lv_color_t value) {
 364:Drivers/lvgl/src/extra/themes/mono/../../../../src/hal/../draw/../misc/lv_style.h ****  * lv_style_value_t v = {.color = value}; lv_style_set_prop(style, MY_PROP, v); }
 365:Drivers/lvgl/src/extra/themes/mono/../../../../src/hal/../draw/../misc/lv_style.h ****  *
 366:Drivers/lvgl/src/extra/themes/mono/../../../../src/hal/../draw/../misc/lv_style.h ****  * ...
 367:Drivers/lvgl/src/extra/themes/mono/../../../../src/hal/../draw/../misc/lv_style.h ****  * MY_PROP = lv_style_register_prop();
 368:Drivers/lvgl/src/extra/themes/mono/../../../../src/hal/../draw/../misc/lv_style.h ****  * ...
 369:Drivers/lvgl/src/extra/themes/mono/../../../../src/hal/../draw/../misc/lv_style.h ****  * lv_style_set_my_prop(&style1, lv_palette_main(LV_PALETTE_RED));
 370:Drivers/lvgl/src/extra/themes/mono/../../../../src/hal/../draw/../misc/lv_style.h ****  */
 371:Drivers/lvgl/src/extra/themes/mono/../../../../src/hal/../draw/../misc/lv_style.h **** lv_style_prop_t lv_style_register_prop(uint8_t flag);
 372:Drivers/lvgl/src/extra/themes/mono/../../../../src/hal/../draw/../misc/lv_style.h **** 
 373:Drivers/lvgl/src/extra/themes/mono/../../../../src/hal/../draw/../misc/lv_style.h **** /**
 374:Drivers/lvgl/src/extra/themes/mono/../../../../src/hal/../draw/../misc/lv_style.h ****  * Get the number of custom properties that have been registered thus far.
 375:Drivers/lvgl/src/extra/themes/mono/../../../../src/hal/../draw/../misc/lv_style.h ****  */
 376:Drivers/lvgl/src/extra/themes/mono/../../../../src/hal/../draw/../misc/lv_style.h **** lv_style_prop_t lv_style_get_num_custom_props(void);
 377:Drivers/lvgl/src/extra/themes/mono/../../../../src/hal/../draw/../misc/lv_style.h **** 
 378:Drivers/lvgl/src/extra/themes/mono/../../../../src/hal/../draw/../misc/lv_style.h **** /**
 379:Drivers/lvgl/src/extra/themes/mono/../../../../src/hal/../draw/../misc/lv_style.h ****  * Remove a property from a style
 380:Drivers/lvgl/src/extra/themes/mono/../../../../src/hal/../draw/../misc/lv_style.h ****  * @param style pointer to a style
 381:Drivers/lvgl/src/extra/themes/mono/../../../../src/hal/../draw/../misc/lv_style.h ****  * @param prop  a style property ORed with a state.
 382:Drivers/lvgl/src/extra/themes/mono/../../../../src/hal/../draw/../misc/lv_style.h ****  * @return true: the property was found and removed; false: the property wasn't found
 383:Drivers/lvgl/src/extra/themes/mono/../../../../src/hal/../draw/../misc/lv_style.h ****  */
 384:Drivers/lvgl/src/extra/themes/mono/../../../../src/hal/../draw/../misc/lv_style.h **** bool lv_style_remove_prop(lv_style_t * style, lv_style_prop_t prop);
 385:Drivers/lvgl/src/extra/themes/mono/../../../../src/hal/../draw/../misc/lv_style.h **** 
 386:Drivers/lvgl/src/extra/themes/mono/../../../../src/hal/../draw/../misc/lv_style.h **** /**
 387:Drivers/lvgl/src/extra/themes/mono/../../../../src/hal/../draw/../misc/lv_style.h ****  * Set the value of property in a style.
 388:Drivers/lvgl/src/extra/themes/mono/../../../../src/hal/../draw/../misc/lv_style.h ****  * This function shouldn't be used directly by the user.
 389:Drivers/lvgl/src/extra/themes/mono/../../../../src/hal/../draw/../misc/lv_style.h ****  * Instead use `lv_style_set_<prop_name>()`. E.g. `lv_style_set_bg_color()`
 390:Drivers/lvgl/src/extra/themes/mono/../../../../src/hal/../draw/../misc/lv_style.h ****  * @param style pointer to style
 391:Drivers/lvgl/src/extra/themes/mono/../../../../src/hal/../draw/../misc/lv_style.h ****  * @param prop the ID of a property (e.g. `LV_STYLE_BG_COLOR`)
 392:Drivers/lvgl/src/extra/themes/mono/../../../../src/hal/../draw/../misc/lv_style.h ****  * @param value `lv_style_value_t` variable in which a field is set according to the type of `prop`
ARM GAS  /var/folders/lp/x54gwt890xv47sdkqj1k04q40000gn/T//cc7THuQy.s 			page 57


 393:Drivers/lvgl/src/extra/themes/mono/../../../../src/hal/../draw/../misc/lv_style.h ****  */
 394:Drivers/lvgl/src/extra/themes/mono/../../../../src/hal/../draw/../misc/lv_style.h **** void lv_style_set_prop(lv_style_t * style, lv_style_prop_t prop, lv_style_value_t value);
 395:Drivers/lvgl/src/extra/themes/mono/../../../../src/hal/../draw/../misc/lv_style.h **** 
 396:Drivers/lvgl/src/extra/themes/mono/../../../../src/hal/../draw/../misc/lv_style.h **** /**
 397:Drivers/lvgl/src/extra/themes/mono/../../../../src/hal/../draw/../misc/lv_style.h ****  * Set a special meta state for a property in a style.
 398:Drivers/lvgl/src/extra/themes/mono/../../../../src/hal/../draw/../misc/lv_style.h ****  * This function shouldn't be used directly by the user.
 399:Drivers/lvgl/src/extra/themes/mono/../../../../src/hal/../draw/../misc/lv_style.h ****  * @param style pointer to style
 400:Drivers/lvgl/src/extra/themes/mono/../../../../src/hal/../draw/../misc/lv_style.h ****  * @param prop the ID of a property (e.g. `LV_STYLE_BG_COLOR`)
 401:Drivers/lvgl/src/extra/themes/mono/../../../../src/hal/../draw/../misc/lv_style.h ****  * @param meta the meta value to attach to the property in the style
 402:Drivers/lvgl/src/extra/themes/mono/../../../../src/hal/../draw/../misc/lv_style.h ****  */
 403:Drivers/lvgl/src/extra/themes/mono/../../../../src/hal/../draw/../misc/lv_style.h **** void lv_style_set_prop_meta(lv_style_t * style, lv_style_prop_t prop, uint16_t meta);
 404:Drivers/lvgl/src/extra/themes/mono/../../../../src/hal/../draw/../misc/lv_style.h **** 
 405:Drivers/lvgl/src/extra/themes/mono/../../../../src/hal/../draw/../misc/lv_style.h **** /**
 406:Drivers/lvgl/src/extra/themes/mono/../../../../src/hal/../draw/../misc/lv_style.h ****  * Get the value of a property
 407:Drivers/lvgl/src/extra/themes/mono/../../../../src/hal/../draw/../misc/lv_style.h ****  * @param style pointer to a style
 408:Drivers/lvgl/src/extra/themes/mono/../../../../src/hal/../draw/../misc/lv_style.h ****  * @param prop  the ID of a property
 409:Drivers/lvgl/src/extra/themes/mono/../../../../src/hal/../draw/../misc/lv_style.h ****  * @param value pointer to a `lv_style_value_t` variable to store the value
 410:Drivers/lvgl/src/extra/themes/mono/../../../../src/hal/../draw/../misc/lv_style.h ****  * @return LV_RES_INV: the property wasn't found in the style (`value` is unchanged)
 411:Drivers/lvgl/src/extra/themes/mono/../../../../src/hal/../draw/../misc/lv_style.h ****  *         LV_RES_OK: the property was fond, and `value` is set accordingly
 412:Drivers/lvgl/src/extra/themes/mono/../../../../src/hal/../draw/../misc/lv_style.h ****  * @note For performance reasons there are no sanity check on `style`
 413:Drivers/lvgl/src/extra/themes/mono/../../../../src/hal/../draw/../misc/lv_style.h ****  */
 414:Drivers/lvgl/src/extra/themes/mono/../../../../src/hal/../draw/../misc/lv_style.h **** lv_style_res_t lv_style_get_prop(const lv_style_t * style, lv_style_prop_t prop, lv_style_value_t *
 415:Drivers/lvgl/src/extra/themes/mono/../../../../src/hal/../draw/../misc/lv_style.h **** 
 416:Drivers/lvgl/src/extra/themes/mono/../../../../src/hal/../draw/../misc/lv_style.h **** /**
 417:Drivers/lvgl/src/extra/themes/mono/../../../../src/hal/../draw/../misc/lv_style.h ****  * Initialize a transition descriptor.
 418:Drivers/lvgl/src/extra/themes/mono/../../../../src/hal/../draw/../misc/lv_style.h ****  * @param tr        pointer to a transition descriptor to initialize
 419:Drivers/lvgl/src/extra/themes/mono/../../../../src/hal/../draw/../misc/lv_style.h ****  * @param props     an array with the properties to transition. The last element must be zero.
 420:Drivers/lvgl/src/extra/themes/mono/../../../../src/hal/../draw/../misc/lv_style.h ****  * @param path_cb   an animation path (ease) callback. If `NULL` liner path will be used.
 421:Drivers/lvgl/src/extra/themes/mono/../../../../src/hal/../draw/../misc/lv_style.h ****  * @param time      duration of the transition in [ms]
 422:Drivers/lvgl/src/extra/themes/mono/../../../../src/hal/../draw/../misc/lv_style.h ****  * @param delay     delay before the transition in [ms]
 423:Drivers/lvgl/src/extra/themes/mono/../../../../src/hal/../draw/../misc/lv_style.h ****  * @param user_data any custom data that will be saved in the transition animation and will be avai
 424:Drivers/lvgl/src/extra/themes/mono/../../../../src/hal/../draw/../misc/lv_style.h ****  * @example
 425:Drivers/lvgl/src/extra/themes/mono/../../../../src/hal/../draw/../misc/lv_style.h ****  * const static lv_style_prop_t trans_props[] = { LV_STYLE_BG_OPA, LV_STYLE_BG_COLOR, 0 };
 426:Drivers/lvgl/src/extra/themes/mono/../../../../src/hal/../draw/../misc/lv_style.h ****  *  static lv_style_transition_dsc_t trans1;
 427:Drivers/lvgl/src/extra/themes/mono/../../../../src/hal/../draw/../misc/lv_style.h ****  *  lv_style_transition_dsc_init(&trans1, trans_props, NULL, 300, 0, NULL);
 428:Drivers/lvgl/src/extra/themes/mono/../../../../src/hal/../draw/../misc/lv_style.h ****  */
 429:Drivers/lvgl/src/extra/themes/mono/../../../../src/hal/../draw/../misc/lv_style.h **** void lv_style_transition_dsc_init(lv_style_transition_dsc_t * tr, const lv_style_prop_t props[],
 430:Drivers/lvgl/src/extra/themes/mono/../../../../src/hal/../draw/../misc/lv_style.h ****                                   lv_anim_path_cb_t path_cb, uint32_t time, uint32_t delay, void * 
 431:Drivers/lvgl/src/extra/themes/mono/../../../../src/hal/../draw/../misc/lv_style.h **** 
 432:Drivers/lvgl/src/extra/themes/mono/../../../../src/hal/../draw/../misc/lv_style.h **** /**
 433:Drivers/lvgl/src/extra/themes/mono/../../../../src/hal/../draw/../misc/lv_style.h ****  * Get the default value of a property
 434:Drivers/lvgl/src/extra/themes/mono/../../../../src/hal/../draw/../misc/lv_style.h ****  * @param prop the ID of a property
 435:Drivers/lvgl/src/extra/themes/mono/../../../../src/hal/../draw/../misc/lv_style.h ****  * @return the default value
 436:Drivers/lvgl/src/extra/themes/mono/../../../../src/hal/../draw/../misc/lv_style.h ****  */
 437:Drivers/lvgl/src/extra/themes/mono/../../../../src/hal/../draw/../misc/lv_style.h **** lv_style_value_t lv_style_prop_get_default(lv_style_prop_t prop);
 438:Drivers/lvgl/src/extra/themes/mono/../../../../src/hal/../draw/../misc/lv_style.h **** 
 439:Drivers/lvgl/src/extra/themes/mono/../../../../src/hal/../draw/../misc/lv_style.h **** /**
 440:Drivers/lvgl/src/extra/themes/mono/../../../../src/hal/../draw/../misc/lv_style.h ****  * Get the value of a property
 441:Drivers/lvgl/src/extra/themes/mono/../../../../src/hal/../draw/../misc/lv_style.h ****  * @param style pointer to a style
 442:Drivers/lvgl/src/extra/themes/mono/../../../../src/hal/../draw/../misc/lv_style.h ****  * @param prop  the ID of a property
 443:Drivers/lvgl/src/extra/themes/mono/../../../../src/hal/../draw/../misc/lv_style.h ****  * @param value pointer to a `lv_style_value_t` variable to store the value
 444:Drivers/lvgl/src/extra/themes/mono/../../../../src/hal/../draw/../misc/lv_style.h ****  * @return LV_RES_INV: the property wasn't found in the style (`value` is unchanged)
 445:Drivers/lvgl/src/extra/themes/mono/../../../../src/hal/../draw/../misc/lv_style.h ****  *         LV_RES_OK: the property was fond, and `value` is set accordingly
 446:Drivers/lvgl/src/extra/themes/mono/../../../../src/hal/../draw/../misc/lv_style.h ****  * @note For performance reasons there are no sanity check on `style`
 447:Drivers/lvgl/src/extra/themes/mono/../../../../src/hal/../draw/../misc/lv_style.h ****  * @note This function is the same as ::lv_style_get_prop but inlined. Use it only on performance c
 448:Drivers/lvgl/src/extra/themes/mono/../../../../src/hal/../draw/../misc/lv_style.h ****  */
 449:Drivers/lvgl/src/extra/themes/mono/../../../../src/hal/../draw/../misc/lv_style.h **** static inline lv_style_res_t lv_style_get_prop_inlined(const lv_style_t * style, lv_style_prop_t pr
ARM GAS  /var/folders/lp/x54gwt890xv47sdkqj1k04q40000gn/T//cc7THuQy.s 			page 58


 450:Drivers/lvgl/src/extra/themes/mono/../../../../src/hal/../draw/../misc/lv_style.h ****                                                        lv_style_value_t * value)
 451:Drivers/lvgl/src/extra/themes/mono/../../../../src/hal/../draw/../misc/lv_style.h **** {
 452:Drivers/lvgl/src/extra/themes/mono/../../../../src/hal/../draw/../misc/lv_style.h ****     if(style->prop1 == LV_STYLE_PROP_ANY) {
 453:Drivers/lvgl/src/extra/themes/mono/../../../../src/hal/../draw/../misc/lv_style.h ****         const lv_style_const_prop_t * const_prop;
 454:Drivers/lvgl/src/extra/themes/mono/../../../../src/hal/../draw/../misc/lv_style.h ****         uint32_t i;
 455:Drivers/lvgl/src/extra/themes/mono/../../../../src/hal/../draw/../misc/lv_style.h ****         for(i = 0; i < style->prop_cnt; i++) {
 456:Drivers/lvgl/src/extra/themes/mono/../../../../src/hal/../draw/../misc/lv_style.h ****             const_prop = style->v_p.const_props + i;
 457:Drivers/lvgl/src/extra/themes/mono/../../../../src/hal/../draw/../misc/lv_style.h ****             lv_style_prop_t prop_id = LV_STYLE_PROP_ID_MASK(const_prop->prop);
 458:Drivers/lvgl/src/extra/themes/mono/../../../../src/hal/../draw/../misc/lv_style.h ****             if(prop_id == prop) {
 459:Drivers/lvgl/src/extra/themes/mono/../../../../src/hal/../draw/../misc/lv_style.h ****                 if(const_prop->prop & LV_STYLE_PROP_META_INHERIT)
 460:Drivers/lvgl/src/extra/themes/mono/../../../../src/hal/../draw/../misc/lv_style.h ****                     return LV_STYLE_RES_INHERIT;
 461:Drivers/lvgl/src/extra/themes/mono/../../../../src/hal/../draw/../misc/lv_style.h ****                 *value = (const_prop->prop & LV_STYLE_PROP_META_INITIAL) ? lv_style_prop_get_defaul
 462:Drivers/lvgl/src/extra/themes/mono/../../../../src/hal/../draw/../misc/lv_style.h ****                 return LV_STYLE_RES_FOUND;
 463:Drivers/lvgl/src/extra/themes/mono/../../../../src/hal/../draw/../misc/lv_style.h ****             }
 464:Drivers/lvgl/src/extra/themes/mono/../../../../src/hal/../draw/../misc/lv_style.h ****         }
 465:Drivers/lvgl/src/extra/themes/mono/../../../../src/hal/../draw/../misc/lv_style.h ****         return LV_STYLE_RES_NOT_FOUND;
 466:Drivers/lvgl/src/extra/themes/mono/../../../../src/hal/../draw/../misc/lv_style.h ****     }
 467:Drivers/lvgl/src/extra/themes/mono/../../../../src/hal/../draw/../misc/lv_style.h **** 
 468:Drivers/lvgl/src/extra/themes/mono/../../../../src/hal/../draw/../misc/lv_style.h ****     if(style->prop_cnt == 0) return LV_STYLE_RES_NOT_FOUND;
 469:Drivers/lvgl/src/extra/themes/mono/../../../../src/hal/../draw/../misc/lv_style.h **** 
 470:Drivers/lvgl/src/extra/themes/mono/../../../../src/hal/../draw/../misc/lv_style.h ****     if(style->prop_cnt > 1) {
 471:Drivers/lvgl/src/extra/themes/mono/../../../../src/hal/../draw/../misc/lv_style.h ****         uint8_t * tmp = style->v_p.values_and_props + style->prop_cnt * sizeof(lv_style_value_t);
 472:Drivers/lvgl/src/extra/themes/mono/../../../../src/hal/../draw/../misc/lv_style.h ****         uint16_t * props = (uint16_t *)tmp;
 473:Drivers/lvgl/src/extra/themes/mono/../../../../src/hal/../draw/../misc/lv_style.h ****         uint32_t i;
 474:Drivers/lvgl/src/extra/themes/mono/../../../../src/hal/../draw/../misc/lv_style.h ****         for(i = 0; i < style->prop_cnt; i++) {
 475:Drivers/lvgl/src/extra/themes/mono/../../../../src/hal/../draw/../misc/lv_style.h ****             lv_style_prop_t prop_id = LV_STYLE_PROP_ID_MASK(props[i]);
 476:Drivers/lvgl/src/extra/themes/mono/../../../../src/hal/../draw/../misc/lv_style.h ****             if(prop_id == prop) {
 477:Drivers/lvgl/src/extra/themes/mono/../../../../src/hal/../draw/../misc/lv_style.h ****                 if(props[i] & LV_STYLE_PROP_META_INHERIT)
 478:Drivers/lvgl/src/extra/themes/mono/../../../../src/hal/../draw/../misc/lv_style.h ****                     return LV_STYLE_RES_INHERIT;
 479:Drivers/lvgl/src/extra/themes/mono/../../../../src/hal/../draw/../misc/lv_style.h ****                 if(props[i] & LV_STYLE_PROP_META_INITIAL)
 480:Drivers/lvgl/src/extra/themes/mono/../../../../src/hal/../draw/../misc/lv_style.h ****                     *value = lv_style_prop_get_default(prop_id);
 481:Drivers/lvgl/src/extra/themes/mono/../../../../src/hal/../draw/../misc/lv_style.h ****                 else {
 482:Drivers/lvgl/src/extra/themes/mono/../../../../src/hal/../draw/../misc/lv_style.h ****                     lv_style_value_t * values = (lv_style_value_t *)style->v_p.values_and_props;
 483:Drivers/lvgl/src/extra/themes/mono/../../../../src/hal/../draw/../misc/lv_style.h ****                     *value = values[i];
 484:Drivers/lvgl/src/extra/themes/mono/../../../../src/hal/../draw/../misc/lv_style.h ****                 }
 485:Drivers/lvgl/src/extra/themes/mono/../../../../src/hal/../draw/../misc/lv_style.h ****                 return LV_STYLE_RES_FOUND;
 486:Drivers/lvgl/src/extra/themes/mono/../../../../src/hal/../draw/../misc/lv_style.h ****             }
 487:Drivers/lvgl/src/extra/themes/mono/../../../../src/hal/../draw/../misc/lv_style.h ****         }
 488:Drivers/lvgl/src/extra/themes/mono/../../../../src/hal/../draw/../misc/lv_style.h ****     }
 489:Drivers/lvgl/src/extra/themes/mono/../../../../src/hal/../draw/../misc/lv_style.h ****     else if(LV_STYLE_PROP_ID_MASK(style->prop1) == prop) {
 490:Drivers/lvgl/src/extra/themes/mono/../../../../src/hal/../draw/../misc/lv_style.h ****         if(style->prop1 & LV_STYLE_PROP_META_INHERIT)
 491:Drivers/lvgl/src/extra/themes/mono/../../../../src/hal/../draw/../misc/lv_style.h ****             return LV_STYLE_RES_INHERIT;
 492:Drivers/lvgl/src/extra/themes/mono/../../../../src/hal/../draw/../misc/lv_style.h ****         *value = (style->prop1 & LV_STYLE_PROP_META_INITIAL) ? lv_style_prop_get_default(LV_STYLE_P
 493:Drivers/lvgl/src/extra/themes/mono/../../../../src/hal/../draw/../misc/lv_style.h ****                                                                                              style-
 494:Drivers/lvgl/src/extra/themes/mono/../../../../src/hal/../draw/../misc/lv_style.h ****         return LV_STYLE_RES_FOUND;
 495:Drivers/lvgl/src/extra/themes/mono/../../../../src/hal/../draw/../misc/lv_style.h ****     }
 496:Drivers/lvgl/src/extra/themes/mono/../../../../src/hal/../draw/../misc/lv_style.h ****     return LV_STYLE_RES_NOT_FOUND;
 497:Drivers/lvgl/src/extra/themes/mono/../../../../src/hal/../draw/../misc/lv_style.h **** }
 498:Drivers/lvgl/src/extra/themes/mono/../../../../src/hal/../draw/../misc/lv_style.h **** 
 499:Drivers/lvgl/src/extra/themes/mono/../../../../src/hal/../draw/../misc/lv_style.h **** /**
 500:Drivers/lvgl/src/extra/themes/mono/../../../../src/hal/../draw/../misc/lv_style.h ****  * Checks if a style is empty (has no properties)
 501:Drivers/lvgl/src/extra/themes/mono/../../../../src/hal/../draw/../misc/lv_style.h ****  * @param style pointer to a style
 502:Drivers/lvgl/src/extra/themes/mono/../../../../src/hal/../draw/../misc/lv_style.h ****  * @return true if the style is empty
 503:Drivers/lvgl/src/extra/themes/mono/../../../../src/hal/../draw/../misc/lv_style.h ****  */
 504:Drivers/lvgl/src/extra/themes/mono/../../../../src/hal/../draw/../misc/lv_style.h **** bool lv_style_is_empty(const lv_style_t * style);
 505:Drivers/lvgl/src/extra/themes/mono/../../../../src/hal/../draw/../misc/lv_style.h **** 
 506:Drivers/lvgl/src/extra/themes/mono/../../../../src/hal/../draw/../misc/lv_style.h **** /**
ARM GAS  /var/folders/lp/x54gwt890xv47sdkqj1k04q40000gn/T//cc7THuQy.s 			page 59


 507:Drivers/lvgl/src/extra/themes/mono/../../../../src/hal/../draw/../misc/lv_style.h ****  * Tell the group of a property. If the a property from a group is set in a style the (1 << group) 
 508:Drivers/lvgl/src/extra/themes/mono/../../../../src/hal/../draw/../misc/lv_style.h ****  * It allows early skipping the style if the property is not exists in the style at all.
 509:Drivers/lvgl/src/extra/themes/mono/../../../../src/hal/../draw/../misc/lv_style.h ****  * @param prop a style property
 510:Drivers/lvgl/src/extra/themes/mono/../../../../src/hal/../draw/../misc/lv_style.h ****  * @return the group [0..7] 7 means all the custom properties with index > 112
 511:Drivers/lvgl/src/extra/themes/mono/../../../../src/hal/../draw/../misc/lv_style.h ****  */
 512:Drivers/lvgl/src/extra/themes/mono/../../../../src/hal/../draw/../misc/lv_style.h **** uint8_t _lv_style_get_prop_group(lv_style_prop_t prop);
 513:Drivers/lvgl/src/extra/themes/mono/../../../../src/hal/../draw/../misc/lv_style.h **** 
 514:Drivers/lvgl/src/extra/themes/mono/../../../../src/hal/../draw/../misc/lv_style.h **** /**
 515:Drivers/lvgl/src/extra/themes/mono/../../../../src/hal/../draw/../misc/lv_style.h ****  * Get the flags of a built-in or custom property.
 516:Drivers/lvgl/src/extra/themes/mono/../../../../src/hal/../draw/../misc/lv_style.h ****  *
 517:Drivers/lvgl/src/extra/themes/mono/../../../../src/hal/../draw/../misc/lv_style.h ****  * @param prop a style property
 518:Drivers/lvgl/src/extra/themes/mono/../../../../src/hal/../draw/../misc/lv_style.h ****  * @return the flags of the property
 519:Drivers/lvgl/src/extra/themes/mono/../../../../src/hal/../draw/../misc/lv_style.h ****  */
 520:Drivers/lvgl/src/extra/themes/mono/../../../../src/hal/../draw/../misc/lv_style.h **** uint8_t _lv_style_prop_lookup_flags(lv_style_prop_t prop);
 521:Drivers/lvgl/src/extra/themes/mono/../../../../src/hal/../draw/../misc/lv_style.h **** 
 522:Drivers/lvgl/src/extra/themes/mono/../../../../src/hal/../draw/../misc/lv_style.h **** #include "lv_style_gen.h"
 523:Drivers/lvgl/src/extra/themes/mono/../../../../src/hal/../draw/../misc/lv_style.h **** 
 524:Drivers/lvgl/src/extra/themes/mono/../../../../src/hal/../draw/../misc/lv_style.h **** static inline void lv_style_set_size(lv_style_t * style, lv_coord_t value)
 525:Drivers/lvgl/src/extra/themes/mono/../../../../src/hal/../draw/../misc/lv_style.h **** {
 526:Drivers/lvgl/src/extra/themes/mono/../../../../src/hal/../draw/../misc/lv_style.h ****     lv_style_set_width(style, value);
 527:Drivers/lvgl/src/extra/themes/mono/../../../../src/hal/../draw/../misc/lv_style.h ****     lv_style_set_height(style, value);
 528:Drivers/lvgl/src/extra/themes/mono/../../../../src/hal/../draw/../misc/lv_style.h **** }
 529:Drivers/lvgl/src/extra/themes/mono/../../../../src/hal/../draw/../misc/lv_style.h **** 
 530:Drivers/lvgl/src/extra/themes/mono/../../../../src/hal/../draw/../misc/lv_style.h **** static inline void lv_style_set_pad_all(lv_style_t * style, lv_coord_t value)
 531:Drivers/lvgl/src/extra/themes/mono/../../../../src/hal/../draw/../misc/lv_style.h **** {
 532:Drivers/lvgl/src/extra/themes/mono/../../../../src/hal/../draw/../misc/lv_style.h ****     lv_style_set_pad_left(style, value);
 533:Drivers/lvgl/src/extra/themes/mono/../../../../src/hal/../draw/../misc/lv_style.h ****     lv_style_set_pad_right(style, value);
 534:Drivers/lvgl/src/extra/themes/mono/../../../../src/hal/../draw/../misc/lv_style.h ****     lv_style_set_pad_top(style, value);
 535:Drivers/lvgl/src/extra/themes/mono/../../../../src/hal/../draw/../misc/lv_style.h ****     lv_style_set_pad_bottom(style, value);
 536:Drivers/lvgl/src/extra/themes/mono/../../../../src/hal/../draw/../misc/lv_style.h **** }
 537:Drivers/lvgl/src/extra/themes/mono/../../../../src/hal/../draw/../misc/lv_style.h **** 
 538:Drivers/lvgl/src/extra/themes/mono/../../../../src/hal/../draw/../misc/lv_style.h **** static inline void lv_style_set_pad_hor(lv_style_t * style, lv_coord_t value)
 539:Drivers/lvgl/src/extra/themes/mono/../../../../src/hal/../draw/../misc/lv_style.h **** {
 540:Drivers/lvgl/src/extra/themes/mono/../../../../src/hal/../draw/../misc/lv_style.h ****     lv_style_set_pad_left(style, value);
 541:Drivers/lvgl/src/extra/themes/mono/../../../../src/hal/../draw/../misc/lv_style.h ****     lv_style_set_pad_right(style, value);
 542:Drivers/lvgl/src/extra/themes/mono/../../../../src/hal/../draw/../misc/lv_style.h **** }
 543:Drivers/lvgl/src/extra/themes/mono/../../../../src/hal/../draw/../misc/lv_style.h **** 
 544:Drivers/lvgl/src/extra/themes/mono/../../../../src/hal/../draw/../misc/lv_style.h **** static inline void lv_style_set_pad_ver(lv_style_t * style, lv_coord_t value)
 545:Drivers/lvgl/src/extra/themes/mono/../../../../src/hal/../draw/../misc/lv_style.h **** {
 546:Drivers/lvgl/src/extra/themes/mono/../../../../src/hal/../draw/../misc/lv_style.h ****     lv_style_set_pad_top(style, value);
 547:Drivers/lvgl/src/extra/themes/mono/../../../../src/hal/../draw/../misc/lv_style.h ****     lv_style_set_pad_bottom(style, value);
 548:Drivers/lvgl/src/extra/themes/mono/../../../../src/hal/../draw/../misc/lv_style.h **** }
 549:Drivers/lvgl/src/extra/themes/mono/../../../../src/hal/../draw/../misc/lv_style.h **** 
 550:Drivers/lvgl/src/extra/themes/mono/../../../../src/hal/../draw/../misc/lv_style.h **** static inline void lv_style_set_pad_gap(lv_style_t * style, lv_coord_t value)
 551:Drivers/lvgl/src/extra/themes/mono/../../../../src/hal/../draw/../misc/lv_style.h **** {
 1790              		.loc 2 551 1 is_stmt 1 view -0
 1791              		.cfi_startproc
 1792              		@ args = 0, pretend = 0, frame = 0
 1793              		@ frame_needed = 0, uses_anonymous_args = 0
 1794              		.loc 2 551 1 is_stmt 0 view .LVU544
 1795 0000 38B5     		push	{r3, r4, r5, lr}
 1796              		.cfi_def_cfa_offset 16
 1797              		.cfi_offset 3, -16
 1798              		.cfi_offset 4, -12
 1799              		.cfi_offset 5, -8
 1800              		.cfi_offset 14, -4
 1801 0002 0446     		mov	r4, r0
ARM GAS  /var/folders/lp/x54gwt890xv47sdkqj1k04q40000gn/T//cc7THuQy.s 			page 60


 1802 0004 0D46     		mov	r5, r1
 552:Drivers/lvgl/src/extra/themes/mono/../../../../src/hal/../draw/../misc/lv_style.h ****     lv_style_set_pad_row(style, value);
 1803              		.loc 2 552 5 is_stmt 1 view .LVU545
 1804 0006 FFF7FEFF 		bl	lv_style_set_pad_row
 1805              	.LVL194:
 553:Drivers/lvgl/src/extra/themes/mono/../../../../src/hal/../draw/../misc/lv_style.h ****     lv_style_set_pad_column(style, value);
 1806              		.loc 2 553 5 view .LVU546
 1807 000a 2946     		mov	r1, r5
 1808 000c 2046     		mov	r0, r4
 1809 000e FFF7FEFF 		bl	lv_style_set_pad_column
 1810              	.LVL195:
 554:Drivers/lvgl/src/extra/themes/mono/../../../../src/hal/../draw/../misc/lv_style.h **** }
 1811              		.loc 2 554 1 is_stmt 0 view .LVU547
 1812 0012 38BD     		pop	{r3, r4, r5, pc}
 1813              		.loc 2 554 1 view .LVU548
 1814              		.cfi_endproc
 1815              	.LFE53:
 1817              		.section	.text.lv_style_set_pad_all,"ax",%progbits
 1818              		.align	1
 1819              		.syntax unified
 1820              		.thumb
 1821              		.thumb_func
 1823              	lv_style_set_pad_all:
 1824              	.LVL196:
 1825              	.LFB50:
 531:Drivers/lvgl/src/extra/themes/mono/../../../../src/hal/../draw/../misc/lv_style.h ****     lv_style_set_pad_left(style, value);
 1826              		.loc 2 531 1 is_stmt 1 view -0
 1827              		.cfi_startproc
 1828              		@ args = 0, pretend = 0, frame = 0
 1829              		@ frame_needed = 0, uses_anonymous_args = 0
 531:Drivers/lvgl/src/extra/themes/mono/../../../../src/hal/../draw/../misc/lv_style.h ****     lv_style_set_pad_left(style, value);
 1830              		.loc 2 531 1 is_stmt 0 view .LVU550
 1831 0000 38B5     		push	{r3, r4, r5, lr}
 1832              		.cfi_def_cfa_offset 16
 1833              		.cfi_offset 3, -16
 1834              		.cfi_offset 4, -12
 1835              		.cfi_offset 5, -8
 1836              		.cfi_offset 14, -4
 1837 0002 0446     		mov	r4, r0
 1838 0004 0D46     		mov	r5, r1
 532:Drivers/lvgl/src/extra/themes/mono/../../../../src/hal/../draw/../misc/lv_style.h ****     lv_style_set_pad_right(style, value);
 1839              		.loc 2 532 5 is_stmt 1 view .LVU551
 1840 0006 FFF7FEFF 		bl	lv_style_set_pad_left
 1841              	.LVL197:
 533:Drivers/lvgl/src/extra/themes/mono/../../../../src/hal/../draw/../misc/lv_style.h ****     lv_style_set_pad_top(style, value);
 1842              		.loc 2 533 5 view .LVU552
 1843 000a 2946     		mov	r1, r5
 1844 000c 2046     		mov	r0, r4
 1845 000e FFF7FEFF 		bl	lv_style_set_pad_right
 1846              	.LVL198:
 534:Drivers/lvgl/src/extra/themes/mono/../../../../src/hal/../draw/../misc/lv_style.h ****     lv_style_set_pad_bottom(style, value);
 1847              		.loc 2 534 5 view .LVU553
 1848 0012 2946     		mov	r1, r5
 1849 0014 2046     		mov	r0, r4
 1850 0016 FFF7FEFF 		bl	lv_style_set_pad_top
 1851              	.LVL199:
 535:Drivers/lvgl/src/extra/themes/mono/../../../../src/hal/../draw/../misc/lv_style.h **** }
ARM GAS  /var/folders/lp/x54gwt890xv47sdkqj1k04q40000gn/T//cc7THuQy.s 			page 61


 1852              		.loc 2 535 5 view .LVU554
 1853 001a 2946     		mov	r1, r5
 1854 001c 2046     		mov	r0, r4
 1855 001e FFF7FEFF 		bl	lv_style_set_pad_bottom
 1856              	.LVL200:
 536:Drivers/lvgl/src/extra/themes/mono/../../../../src/hal/../draw/../misc/lv_style.h **** 
 1857              		.loc 2 536 1 is_stmt 0 view .LVU555
 1858 0022 38BD     		pop	{r3, r4, r5, pc}
 536:Drivers/lvgl/src/extra/themes/mono/../../../../src/hal/../draw/../misc/lv_style.h **** 
 1859              		.loc 2 536 1 view .LVU556
 1860              		.cfi_endproc
 1861              	.LFE50:
 1863              		.section	.text.style_init_reset,"ax",%progbits
 1864              		.align	1
 1865              		.syntax unified
 1866              		.thumb
 1867              		.thumb_func
 1869              	style_init_reset:
 1870              	.LVL201:
 1871              	.LFB208:
 489:Drivers/lvgl/src/extra/themes/mono/lv_theme_mono.c **** 
 490:Drivers/lvgl/src/extra/themes/mono/lv_theme_mono.c **** /**********************
 491:Drivers/lvgl/src/extra/themes/mono/lv_theme_mono.c ****  *   STATIC FUNCTIONS
 492:Drivers/lvgl/src/extra/themes/mono/lv_theme_mono.c ****  **********************/
 493:Drivers/lvgl/src/extra/themes/mono/lv_theme_mono.c **** 
 494:Drivers/lvgl/src/extra/themes/mono/lv_theme_mono.c **** static void style_init_reset(lv_style_t * style)
 495:Drivers/lvgl/src/extra/themes/mono/lv_theme_mono.c **** {
 1872              		.loc 1 495 1 is_stmt 1 view -0
 1873              		.cfi_startproc
 1874              		@ args = 0, pretend = 0, frame = 0
 1875              		@ frame_needed = 0, uses_anonymous_args = 0
 1876              		.loc 1 495 1 is_stmt 0 view .LVU558
 1877 0000 08B5     		push	{r3, lr}
 1878              		.cfi_def_cfa_offset 8
 1879              		.cfi_offset 3, -8
 1880              		.cfi_offset 14, -4
 496:Drivers/lvgl/src/extra/themes/mono/lv_theme_mono.c ****     if(inited) {
 1881              		.loc 1 496 5 is_stmt 1 view .LVU559
 1882              		.loc 1 496 8 is_stmt 0 view .LVU560
 1883 0002 044B     		ldr	r3, .L56
 1884 0004 1B78     		ldrb	r3, [r3]	@ zero_extendqisi2
 1885              		.loc 1 496 7 view .LVU561
 1886 0006 13B1     		cbz	r3, .L53
 497:Drivers/lvgl/src/extra/themes/mono/lv_theme_mono.c ****         lv_style_reset(style);
 1887              		.loc 1 497 9 is_stmt 1 view .LVU562
 1888 0008 FFF7FEFF 		bl	lv_style_reset
 1889              	.LVL202:
 1890              	.L52:
 498:Drivers/lvgl/src/extra/themes/mono/lv_theme_mono.c ****     }
 499:Drivers/lvgl/src/extra/themes/mono/lv_theme_mono.c ****     else {
 500:Drivers/lvgl/src/extra/themes/mono/lv_theme_mono.c ****         lv_style_init(style);
 501:Drivers/lvgl/src/extra/themes/mono/lv_theme_mono.c ****     }
 502:Drivers/lvgl/src/extra/themes/mono/lv_theme_mono.c **** }
 1891              		.loc 1 502 1 is_stmt 0 view .LVU563
 1892 000c 08BD     		pop	{r3, pc}
 1893              	.LVL203:
 1894              	.L53:
ARM GAS  /var/folders/lp/x54gwt890xv47sdkqj1k04q40000gn/T//cc7THuQy.s 			page 62


 500:Drivers/lvgl/src/extra/themes/mono/lv_theme_mono.c ****     }
 1895              		.loc 1 500 9 is_stmt 1 view .LVU564
 1896 000e FFF7FEFF 		bl	lv_style_init
 1897              	.LVL204:
 1898              		.loc 1 502 1 is_stmt 0 view .LVU565
 1899 0012 FBE7     		b	.L52
 1900              	.L57:
 1901              		.align	2
 1902              	.L56:
 1903 0014 00000000 		.word	inited
 1904              		.cfi_endproc
 1905              	.LFE208:
 1907              		.section	.text.style_init,"ax",%progbits
 1908              		.align	1
 1909              		.syntax unified
 1910              		.thumb
 1911              		.thumb_func
 1913              	style_init:
 1914              	.LVL205:
 1915              	.LFB204:
  78:Drivers/lvgl/src/extra/themes/mono/lv_theme_mono.c ****     style_init_reset(&styles->scrollbar);
 1916              		.loc 1 78 1 is_stmt 1 view -0
 1917              		.cfi_startproc
 1918              		@ args = 0, pretend = 0, frame = 0
 1919              		@ frame_needed = 0, uses_anonymous_args = 0
  78:Drivers/lvgl/src/extra/themes/mono/lv_theme_mono.c ****     style_init_reset(&styles->scrollbar);
 1920              		.loc 1 78 1 is_stmt 0 view .LVU567
 1921 0000 70B5     		push	{r4, r5, r6, lr}
 1922              		.cfi_def_cfa_offset 16
 1923              		.cfi_offset 4, -16
 1924              		.cfi_offset 5, -12
 1925              		.cfi_offset 6, -8
 1926              		.cfi_offset 14, -4
 1927 0002 0546     		mov	r5, r0
 1928 0004 0E46     		mov	r6, r1
  79:Drivers/lvgl/src/extra/themes/mono/lv_theme_mono.c ****     lv_style_set_bg_opa(&styles->scrollbar, LV_OPA_COVER);
 1929              		.loc 1 79 5 is_stmt 1 view .LVU568
  79:Drivers/lvgl/src/extra/themes/mono/lv_theme_mono.c ****     lv_style_set_bg_opa(&styles->scrollbar, LV_OPA_COVER);
 1930              		.loc 1 79 29 is_stmt 0 view .LVU569
 1931 0006 CF4C     		ldr	r4, .L92
 1932 0008 2068     		ldr	r0, [r4]
 1933              	.LVL206:
  79:Drivers/lvgl/src/extra/themes/mono/lv_theme_mono.c ****     lv_style_set_bg_opa(&styles->scrollbar, LV_OPA_COVER);
 1934              		.loc 1 79 5 view .LVU570
 1935 000a 1030     		adds	r0, r0, #16
 1936 000c FFF7FEFF 		bl	style_init_reset
 1937              	.LVL207:
  80:Drivers/lvgl/src/extra/themes/mono/lv_theme_mono.c ****     lv_style_set_bg_color(&styles->scrollbar, COLOR_FG);
 1938              		.loc 1 80 5 is_stmt 1 view .LVU571
  80:Drivers/lvgl/src/extra/themes/mono/lv_theme_mono.c ****     lv_style_set_bg_color(&styles->scrollbar, COLOR_FG);
 1939              		.loc 1 80 32 is_stmt 0 view .LVU572
 1940 0010 2068     		ldr	r0, [r4]
  80:Drivers/lvgl/src/extra/themes/mono/lv_theme_mono.c ****     lv_style_set_bg_color(&styles->scrollbar, COLOR_FG);
 1941              		.loc 1 80 5 view .LVU573
 1942 0012 FF21     		movs	r1, #255
 1943 0014 1030     		adds	r0, r0, #16
 1944 0016 FFF7FEFF 		bl	lv_style_set_bg_opa
ARM GAS  /var/folders/lp/x54gwt890xv47sdkqj1k04q40000gn/T//cc7THuQy.s 			page 63


 1945              	.LVL208:
  81:Drivers/lvgl/src/extra/themes/mono/lv_theme_mono.c ****     lv_style_set_width(&styles->scrollbar,  PAD_DEF);
 1946              		.loc 1 81 5 is_stmt 1 view .LVU574
  81:Drivers/lvgl/src/extra/themes/mono/lv_theme_mono.c ****     lv_style_set_width(&styles->scrollbar,  PAD_DEF);
 1947              		.loc 1 81 34 is_stmt 0 view .LVU575
 1948 001a 2068     		ldr	r0, [r4]
  81:Drivers/lvgl/src/extra/themes/mono/lv_theme_mono.c ****     lv_style_set_width(&styles->scrollbar,  PAD_DEF);
 1949              		.loc 1 81 5 view .LVU576
 1950 001c 1030     		adds	r0, r0, #16
 1951 001e 002D     		cmp	r5, #0
 1952 0020 00F0AB81 		beq	.L59
 1953              	.LBB137:
 1954              	.LBI137:
 1955              		.file 3 "Drivers/lvgl/src/extra/themes/mono/../../../../src/hal/../draw/../misc/lv_color.h"
   1:Drivers/lvgl/src/extra/themes/mono/../../../../src/hal/../draw/../misc/lv_color.h **** /**
   2:Drivers/lvgl/src/extra/themes/mono/../../../../src/hal/../draw/../misc/lv_color.h ****  * @file lv_color.h
   3:Drivers/lvgl/src/extra/themes/mono/../../../../src/hal/../draw/../misc/lv_color.h ****  *
   4:Drivers/lvgl/src/extra/themes/mono/../../../../src/hal/../draw/../misc/lv_color.h ****  */
   5:Drivers/lvgl/src/extra/themes/mono/../../../../src/hal/../draw/../misc/lv_color.h **** 
   6:Drivers/lvgl/src/extra/themes/mono/../../../../src/hal/../draw/../misc/lv_color.h **** #ifndef LV_COLOR_H
   7:Drivers/lvgl/src/extra/themes/mono/../../../../src/hal/../draw/../misc/lv_color.h **** #define LV_COLOR_H
   8:Drivers/lvgl/src/extra/themes/mono/../../../../src/hal/../draw/../misc/lv_color.h **** 
   9:Drivers/lvgl/src/extra/themes/mono/../../../../src/hal/../draw/../misc/lv_color.h **** #ifdef __cplusplus
  10:Drivers/lvgl/src/extra/themes/mono/../../../../src/hal/../draw/../misc/lv_color.h **** extern "C" {
  11:Drivers/lvgl/src/extra/themes/mono/../../../../src/hal/../draw/../misc/lv_color.h **** #endif
  12:Drivers/lvgl/src/extra/themes/mono/../../../../src/hal/../draw/../misc/lv_color.h **** 
  13:Drivers/lvgl/src/extra/themes/mono/../../../../src/hal/../draw/../misc/lv_color.h **** /*********************
  14:Drivers/lvgl/src/extra/themes/mono/../../../../src/hal/../draw/../misc/lv_color.h ****  *      INCLUDES
  15:Drivers/lvgl/src/extra/themes/mono/../../../../src/hal/../draw/../misc/lv_color.h ****  *********************/
  16:Drivers/lvgl/src/extra/themes/mono/../../../../src/hal/../draw/../misc/lv_color.h **** #include "../lv_conf_internal.h"
  17:Drivers/lvgl/src/extra/themes/mono/../../../../src/hal/../draw/../misc/lv_color.h **** #include "lv_assert.h"
  18:Drivers/lvgl/src/extra/themes/mono/../../../../src/hal/../draw/../misc/lv_color.h **** #include "lv_math.h"
  19:Drivers/lvgl/src/extra/themes/mono/../../../../src/hal/../draw/../misc/lv_color.h **** #include "lv_types.h"
  20:Drivers/lvgl/src/extra/themes/mono/../../../../src/hal/../draw/../misc/lv_color.h **** 
  21:Drivers/lvgl/src/extra/themes/mono/../../../../src/hal/../draw/../misc/lv_color.h **** /*Error checking*/
  22:Drivers/lvgl/src/extra/themes/mono/../../../../src/hal/../draw/../misc/lv_color.h **** #if LV_COLOR_DEPTH == 24
  23:Drivers/lvgl/src/extra/themes/mono/../../../../src/hal/../draw/../misc/lv_color.h **** #error "LV_COLOR_DEPTH 24 is deprecated. Use LV_COLOR_DEPTH 32 instead (lv_conf.h)"
  24:Drivers/lvgl/src/extra/themes/mono/../../../../src/hal/../draw/../misc/lv_color.h **** #endif
  25:Drivers/lvgl/src/extra/themes/mono/../../../../src/hal/../draw/../misc/lv_color.h **** 
  26:Drivers/lvgl/src/extra/themes/mono/../../../../src/hal/../draw/../misc/lv_color.h **** #if LV_COLOR_DEPTH != 16 && LV_COLOR_16_SWAP != 0
  27:Drivers/lvgl/src/extra/themes/mono/../../../../src/hal/../draw/../misc/lv_color.h **** #error "LV_COLOR_16_SWAP requires LV_COLOR_DEPTH == 16. Set it in lv_conf.h"
  28:Drivers/lvgl/src/extra/themes/mono/../../../../src/hal/../draw/../misc/lv_color.h **** #endif
  29:Drivers/lvgl/src/extra/themes/mono/../../../../src/hal/../draw/../misc/lv_color.h **** 
  30:Drivers/lvgl/src/extra/themes/mono/../../../../src/hal/../draw/../misc/lv_color.h **** #include <stdint.h>
  31:Drivers/lvgl/src/extra/themes/mono/../../../../src/hal/../draw/../misc/lv_color.h **** 
  32:Drivers/lvgl/src/extra/themes/mono/../../../../src/hal/../draw/../misc/lv_color.h **** /*********************
  33:Drivers/lvgl/src/extra/themes/mono/../../../../src/hal/../draw/../misc/lv_color.h ****  *      DEFINES
  34:Drivers/lvgl/src/extra/themes/mono/../../../../src/hal/../draw/../misc/lv_color.h ****  *********************/
  35:Drivers/lvgl/src/extra/themes/mono/../../../../src/hal/../draw/../misc/lv_color.h **** LV_EXPORT_CONST_INT(LV_COLOR_DEPTH);
  36:Drivers/lvgl/src/extra/themes/mono/../../../../src/hal/../draw/../misc/lv_color.h **** LV_EXPORT_CONST_INT(LV_COLOR_16_SWAP);
  37:Drivers/lvgl/src/extra/themes/mono/../../../../src/hal/../draw/../misc/lv_color.h **** 
  38:Drivers/lvgl/src/extra/themes/mono/../../../../src/hal/../draw/../misc/lv_color.h **** /**
  39:Drivers/lvgl/src/extra/themes/mono/../../../../src/hal/../draw/../misc/lv_color.h ****  * Opacity percentages.
  40:Drivers/lvgl/src/extra/themes/mono/../../../../src/hal/../draw/../misc/lv_color.h ****  */
  41:Drivers/lvgl/src/extra/themes/mono/../../../../src/hal/../draw/../misc/lv_color.h **** enum {
  42:Drivers/lvgl/src/extra/themes/mono/../../../../src/hal/../draw/../misc/lv_color.h ****     LV_OPA_TRANSP = 0,
  43:Drivers/lvgl/src/extra/themes/mono/../../../../src/hal/../draw/../misc/lv_color.h ****     LV_OPA_0      = 0,
ARM GAS  /var/folders/lp/x54gwt890xv47sdkqj1k04q40000gn/T//cc7THuQy.s 			page 64


  44:Drivers/lvgl/src/extra/themes/mono/../../../../src/hal/../draw/../misc/lv_color.h ****     LV_OPA_10     = 25,
  45:Drivers/lvgl/src/extra/themes/mono/../../../../src/hal/../draw/../misc/lv_color.h ****     LV_OPA_20     = 51,
  46:Drivers/lvgl/src/extra/themes/mono/../../../../src/hal/../draw/../misc/lv_color.h ****     LV_OPA_30     = 76,
  47:Drivers/lvgl/src/extra/themes/mono/../../../../src/hal/../draw/../misc/lv_color.h ****     LV_OPA_40     = 102,
  48:Drivers/lvgl/src/extra/themes/mono/../../../../src/hal/../draw/../misc/lv_color.h ****     LV_OPA_50     = 127,
  49:Drivers/lvgl/src/extra/themes/mono/../../../../src/hal/../draw/../misc/lv_color.h ****     LV_OPA_60     = 153,
  50:Drivers/lvgl/src/extra/themes/mono/../../../../src/hal/../draw/../misc/lv_color.h ****     LV_OPA_70     = 178,
  51:Drivers/lvgl/src/extra/themes/mono/../../../../src/hal/../draw/../misc/lv_color.h ****     LV_OPA_80     = 204,
  52:Drivers/lvgl/src/extra/themes/mono/../../../../src/hal/../draw/../misc/lv_color.h ****     LV_OPA_90     = 229,
  53:Drivers/lvgl/src/extra/themes/mono/../../../../src/hal/../draw/../misc/lv_color.h ****     LV_OPA_100    = 255,
  54:Drivers/lvgl/src/extra/themes/mono/../../../../src/hal/../draw/../misc/lv_color.h ****     LV_OPA_COVER  = 255,
  55:Drivers/lvgl/src/extra/themes/mono/../../../../src/hal/../draw/../misc/lv_color.h **** };
  56:Drivers/lvgl/src/extra/themes/mono/../../../../src/hal/../draw/../misc/lv_color.h **** 
  57:Drivers/lvgl/src/extra/themes/mono/../../../../src/hal/../draw/../misc/lv_color.h **** #define LV_OPA_MIN 2    /*Opacities below this will be transparent*/
  58:Drivers/lvgl/src/extra/themes/mono/../../../../src/hal/../draw/../misc/lv_color.h **** #define LV_OPA_MAX 253  /*Opacities above this will fully cover*/
  59:Drivers/lvgl/src/extra/themes/mono/../../../../src/hal/../draw/../misc/lv_color.h **** 
  60:Drivers/lvgl/src/extra/themes/mono/../../../../src/hal/../draw/../misc/lv_color.h **** #if LV_COLOR_DEPTH == 1
  61:Drivers/lvgl/src/extra/themes/mono/../../../../src/hal/../draw/../misc/lv_color.h **** #define LV_COLOR_SIZE 8
  62:Drivers/lvgl/src/extra/themes/mono/../../../../src/hal/../draw/../misc/lv_color.h **** #elif LV_COLOR_DEPTH == 8
  63:Drivers/lvgl/src/extra/themes/mono/../../../../src/hal/../draw/../misc/lv_color.h **** #define LV_COLOR_SIZE 8
  64:Drivers/lvgl/src/extra/themes/mono/../../../../src/hal/../draw/../misc/lv_color.h **** #elif LV_COLOR_DEPTH == 16
  65:Drivers/lvgl/src/extra/themes/mono/../../../../src/hal/../draw/../misc/lv_color.h **** #define LV_COLOR_SIZE 16
  66:Drivers/lvgl/src/extra/themes/mono/../../../../src/hal/../draw/../misc/lv_color.h **** #elif LV_COLOR_DEPTH == 32
  67:Drivers/lvgl/src/extra/themes/mono/../../../../src/hal/../draw/../misc/lv_color.h **** #define LV_COLOR_SIZE 32
  68:Drivers/lvgl/src/extra/themes/mono/../../../../src/hal/../draw/../misc/lv_color.h **** #else
  69:Drivers/lvgl/src/extra/themes/mono/../../../../src/hal/../draw/../misc/lv_color.h **** #error "Invalid LV_COLOR_DEPTH in lv_conf.h! Set it to 1, 8, 16 or 32!"
  70:Drivers/lvgl/src/extra/themes/mono/../../../../src/hal/../draw/../misc/lv_color.h **** #endif
  71:Drivers/lvgl/src/extra/themes/mono/../../../../src/hal/../draw/../misc/lv_color.h **** 
  72:Drivers/lvgl/src/extra/themes/mono/../../../../src/hal/../draw/../misc/lv_color.h **** #if defined(__cplusplus) && !defined(_LV_COLOR_HAS_MODERN_CPP)
  73:Drivers/lvgl/src/extra/themes/mono/../../../../src/hal/../draw/../misc/lv_color.h **** /**
  74:Drivers/lvgl/src/extra/themes/mono/../../../../src/hal/../draw/../misc/lv_color.h **** * MSVC compiler's definition of the __cplusplus indicating 199711L regardless to C++ standard versi
  75:Drivers/lvgl/src/extra/themes/mono/../../../../src/hal/../draw/../misc/lv_color.h **** * see https://devblogs.microsoft.com/cppblog/msvc-now-correctly-reports-cplusplus
  76:Drivers/lvgl/src/extra/themes/mono/../../../../src/hal/../draw/../misc/lv_color.h **** * so we use _MSC_VER macro instead of __cplusplus
  77:Drivers/lvgl/src/extra/themes/mono/../../../../src/hal/../draw/../misc/lv_color.h **** */
  78:Drivers/lvgl/src/extra/themes/mono/../../../../src/hal/../draw/../misc/lv_color.h **** #ifdef _MSC_VER
  79:Drivers/lvgl/src/extra/themes/mono/../../../../src/hal/../draw/../misc/lv_color.h **** #if _MSC_VER >= 1900 /*Visual Studio 2015*/
  80:Drivers/lvgl/src/extra/themes/mono/../../../../src/hal/../draw/../misc/lv_color.h **** #define _LV_COLOR_HAS_MODERN_CPP 1
  81:Drivers/lvgl/src/extra/themes/mono/../../../../src/hal/../draw/../misc/lv_color.h **** #endif
  82:Drivers/lvgl/src/extra/themes/mono/../../../../src/hal/../draw/../misc/lv_color.h **** #else
  83:Drivers/lvgl/src/extra/themes/mono/../../../../src/hal/../draw/../misc/lv_color.h **** #if __cplusplus >= 201103L
  84:Drivers/lvgl/src/extra/themes/mono/../../../../src/hal/../draw/../misc/lv_color.h **** #define _LV_COLOR_HAS_MODERN_CPP 1
  85:Drivers/lvgl/src/extra/themes/mono/../../../../src/hal/../draw/../misc/lv_color.h **** #endif
  86:Drivers/lvgl/src/extra/themes/mono/../../../../src/hal/../draw/../misc/lv_color.h **** #endif
  87:Drivers/lvgl/src/extra/themes/mono/../../../../src/hal/../draw/../misc/lv_color.h **** #endif /*__cplusplus*/
  88:Drivers/lvgl/src/extra/themes/mono/../../../../src/hal/../draw/../misc/lv_color.h **** 
  89:Drivers/lvgl/src/extra/themes/mono/../../../../src/hal/../draw/../misc/lv_color.h **** #ifndef _LV_COLOR_HAS_MODERN_CPP
  90:Drivers/lvgl/src/extra/themes/mono/../../../../src/hal/../draw/../misc/lv_color.h **** #define _LV_COLOR_HAS_MODERN_CPP 0
  91:Drivers/lvgl/src/extra/themes/mono/../../../../src/hal/../draw/../misc/lv_color.h **** #endif
  92:Drivers/lvgl/src/extra/themes/mono/../../../../src/hal/../draw/../misc/lv_color.h **** 
  93:Drivers/lvgl/src/extra/themes/mono/../../../../src/hal/../draw/../misc/lv_color.h **** #if _LV_COLOR_HAS_MODERN_CPP
  94:Drivers/lvgl/src/extra/themes/mono/../../../../src/hal/../draw/../misc/lv_color.h **** /*Fix msvc compiler error C4576 inside C++ code*/
  95:Drivers/lvgl/src/extra/themes/mono/../../../../src/hal/../draw/../misc/lv_color.h **** #define _LV_COLOR_MAKE_TYPE_HELPER lv_color_t
  96:Drivers/lvgl/src/extra/themes/mono/../../../../src/hal/../draw/../misc/lv_color.h **** #else
  97:Drivers/lvgl/src/extra/themes/mono/../../../../src/hal/../draw/../misc/lv_color.h **** #define _LV_COLOR_MAKE_TYPE_HELPER (lv_color_t)
  98:Drivers/lvgl/src/extra/themes/mono/../../../../src/hal/../draw/../misc/lv_color.h **** #endif
  99:Drivers/lvgl/src/extra/themes/mono/../../../../src/hal/../draw/../misc/lv_color.h **** 
 100:Drivers/lvgl/src/extra/themes/mono/../../../../src/hal/../draw/../misc/lv_color.h **** /*---------------------------------------
ARM GAS  /var/folders/lp/x54gwt890xv47sdkqj1k04q40000gn/T//cc7THuQy.s 			page 65


 101:Drivers/lvgl/src/extra/themes/mono/../../../../src/hal/../draw/../misc/lv_color.h ****  * Macros for all existing color depths
 102:Drivers/lvgl/src/extra/themes/mono/../../../../src/hal/../draw/../misc/lv_color.h ****  * to set/get values of the color channels
 103:Drivers/lvgl/src/extra/themes/mono/../../../../src/hal/../draw/../misc/lv_color.h ****  *------------------------------------------*/
 104:Drivers/lvgl/src/extra/themes/mono/../../../../src/hal/../draw/../misc/lv_color.h **** # define LV_COLOR_SET_R1(c, v) (c).ch.red = (uint8_t)((v) & 0x1)
 105:Drivers/lvgl/src/extra/themes/mono/../../../../src/hal/../draw/../misc/lv_color.h **** # define LV_COLOR_SET_G1(c, v) (c).ch.green = (uint8_t)((v) & 0x1)
 106:Drivers/lvgl/src/extra/themes/mono/../../../../src/hal/../draw/../misc/lv_color.h **** # define LV_COLOR_SET_B1(c, v) (c).ch.blue = (uint8_t)((v) & 0x1)
 107:Drivers/lvgl/src/extra/themes/mono/../../../../src/hal/../draw/../misc/lv_color.h **** # define LV_COLOR_SET_A1(c, v) do {} while(0)
 108:Drivers/lvgl/src/extra/themes/mono/../../../../src/hal/../draw/../misc/lv_color.h **** 
 109:Drivers/lvgl/src/extra/themes/mono/../../../../src/hal/../draw/../misc/lv_color.h **** # define LV_COLOR_GET_R1(c) (c).ch.red
 110:Drivers/lvgl/src/extra/themes/mono/../../../../src/hal/../draw/../misc/lv_color.h **** # define LV_COLOR_GET_G1(c) (c).ch.green
 111:Drivers/lvgl/src/extra/themes/mono/../../../../src/hal/../draw/../misc/lv_color.h **** # define LV_COLOR_GET_B1(c) (c).ch.blue
 112:Drivers/lvgl/src/extra/themes/mono/../../../../src/hal/../draw/../misc/lv_color.h **** # define LV_COLOR_GET_A1(c) 0xFF
 113:Drivers/lvgl/src/extra/themes/mono/../../../../src/hal/../draw/../misc/lv_color.h **** 
 114:Drivers/lvgl/src/extra/themes/mono/../../../../src/hal/../draw/../misc/lv_color.h **** # define _LV_COLOR_ZERO_INITIALIZER1 {0x00}
 115:Drivers/lvgl/src/extra/themes/mono/../../../../src/hal/../draw/../misc/lv_color.h **** # define LV_COLOR_MAKE1(r8, g8, b8)  {(uint8_t)((b8 >> 7) | (g8 >> 7) | (r8 >> 7))}
 116:Drivers/lvgl/src/extra/themes/mono/../../../../src/hal/../draw/../misc/lv_color.h **** 
 117:Drivers/lvgl/src/extra/themes/mono/../../../../src/hal/../draw/../misc/lv_color.h **** # define LV_COLOR_SET_R8(c, v) (c).ch.red = (uint8_t)((v) & 0x7U)
 118:Drivers/lvgl/src/extra/themes/mono/../../../../src/hal/../draw/../misc/lv_color.h **** # define LV_COLOR_SET_G8(c, v) (c).ch.green = (uint8_t)((v) & 0x7U)
 119:Drivers/lvgl/src/extra/themes/mono/../../../../src/hal/../draw/../misc/lv_color.h **** # define LV_COLOR_SET_B8(c, v) (c).ch.blue = (uint8_t)((v) & 0x3U)
 120:Drivers/lvgl/src/extra/themes/mono/../../../../src/hal/../draw/../misc/lv_color.h **** # define LV_COLOR_SET_A8(c, v) do {} while(0)
 121:Drivers/lvgl/src/extra/themes/mono/../../../../src/hal/../draw/../misc/lv_color.h **** 
 122:Drivers/lvgl/src/extra/themes/mono/../../../../src/hal/../draw/../misc/lv_color.h **** # define LV_COLOR_GET_R8(c) (c).ch.red
 123:Drivers/lvgl/src/extra/themes/mono/../../../../src/hal/../draw/../misc/lv_color.h **** # define LV_COLOR_GET_G8(c) (c).ch.green
 124:Drivers/lvgl/src/extra/themes/mono/../../../../src/hal/../draw/../misc/lv_color.h **** # define LV_COLOR_GET_B8(c) (c).ch.blue
 125:Drivers/lvgl/src/extra/themes/mono/../../../../src/hal/../draw/../misc/lv_color.h **** # define LV_COLOR_GET_A8(c) 0xFF
 126:Drivers/lvgl/src/extra/themes/mono/../../../../src/hal/../draw/../misc/lv_color.h **** 
 127:Drivers/lvgl/src/extra/themes/mono/../../../../src/hal/../draw/../misc/lv_color.h **** # define _LV_COLOR_ZERO_INITIALIZER8 {{0x00, 0x00, 0x00}}
 128:Drivers/lvgl/src/extra/themes/mono/../../../../src/hal/../draw/../misc/lv_color.h **** # define LV_COLOR_MAKE8(r8, g8, b8) {{(uint8_t)((b8 >> 6) & 0x3U), (uint8_t)((g8 >> 5) & 0x7U), (ui
 129:Drivers/lvgl/src/extra/themes/mono/../../../../src/hal/../draw/../misc/lv_color.h **** 
 130:Drivers/lvgl/src/extra/themes/mono/../../../../src/hal/../draw/../misc/lv_color.h **** # define LV_COLOR_SET_R16(c, v) (c).ch.red = (uint8_t)((v) & 0x1FU)
 131:Drivers/lvgl/src/extra/themes/mono/../../../../src/hal/../draw/../misc/lv_color.h **** #if LV_COLOR_16_SWAP == 0
 132:Drivers/lvgl/src/extra/themes/mono/../../../../src/hal/../draw/../misc/lv_color.h **** # define LV_COLOR_SET_G16(c, v) (c).ch.green = (uint8_t)((v) & 0x3FU)
 133:Drivers/lvgl/src/extra/themes/mono/../../../../src/hal/../draw/../misc/lv_color.h **** #else
 134:Drivers/lvgl/src/extra/themes/mono/../../../../src/hal/../draw/../misc/lv_color.h **** # define LV_COLOR_SET_G16(c, v) {(c).ch.green_h = (uint8_t)(((v) >> 3) & 0x7); (c).ch.green_l = (ui
 135:Drivers/lvgl/src/extra/themes/mono/../../../../src/hal/../draw/../misc/lv_color.h **** #endif
 136:Drivers/lvgl/src/extra/themes/mono/../../../../src/hal/../draw/../misc/lv_color.h **** # define LV_COLOR_SET_B16(c, v) (c).ch.blue = (uint8_t)((v) & 0x1FU)
 137:Drivers/lvgl/src/extra/themes/mono/../../../../src/hal/../draw/../misc/lv_color.h **** # define LV_COLOR_SET_A16(c, v) do {} while(0)
 138:Drivers/lvgl/src/extra/themes/mono/../../../../src/hal/../draw/../misc/lv_color.h **** 
 139:Drivers/lvgl/src/extra/themes/mono/../../../../src/hal/../draw/../misc/lv_color.h **** # define LV_COLOR_GET_R16(c) (c).ch.red
 140:Drivers/lvgl/src/extra/themes/mono/../../../../src/hal/../draw/../misc/lv_color.h **** #if LV_COLOR_16_SWAP == 0
 141:Drivers/lvgl/src/extra/themes/mono/../../../../src/hal/../draw/../misc/lv_color.h **** # define LV_COLOR_GET_G16(c) (c).ch.green
 142:Drivers/lvgl/src/extra/themes/mono/../../../../src/hal/../draw/../misc/lv_color.h **** #else
 143:Drivers/lvgl/src/extra/themes/mono/../../../../src/hal/../draw/../misc/lv_color.h **** # define LV_COLOR_GET_G16(c) (((c).ch.green_h << 3) + (c).ch.green_l)
 144:Drivers/lvgl/src/extra/themes/mono/../../../../src/hal/../draw/../misc/lv_color.h **** #endif
 145:Drivers/lvgl/src/extra/themes/mono/../../../../src/hal/../draw/../misc/lv_color.h **** # define LV_COLOR_GET_B16(c) (c).ch.blue
 146:Drivers/lvgl/src/extra/themes/mono/../../../../src/hal/../draw/../misc/lv_color.h **** # define LV_COLOR_GET_A16(c) 0xFF
 147:Drivers/lvgl/src/extra/themes/mono/../../../../src/hal/../draw/../misc/lv_color.h **** 
 148:Drivers/lvgl/src/extra/themes/mono/../../../../src/hal/../draw/../misc/lv_color.h **** #if LV_COLOR_16_SWAP == 0
 149:Drivers/lvgl/src/extra/themes/mono/../../../../src/hal/../draw/../misc/lv_color.h **** # define _LV_COLOR_ZERO_INITIALIZER16  {{0x00, 0x00, 0x00}}
 150:Drivers/lvgl/src/extra/themes/mono/../../../../src/hal/../draw/../misc/lv_color.h **** # define LV_COLOR_MAKE16(r8, g8, b8) {{(uint8_t)((b8 >> 3) & 0x1FU), (uint8_t)((g8 >> 2) & 0x3FU), 
 151:Drivers/lvgl/src/extra/themes/mono/../../../../src/hal/../draw/../misc/lv_color.h **** #else
 152:Drivers/lvgl/src/extra/themes/mono/../../../../src/hal/../draw/../misc/lv_color.h **** # define _LV_COLOR_ZERO_INITIALIZER16 {{0x00, 0x00, 0x00, 0x00}}
 153:Drivers/lvgl/src/extra/themes/mono/../../../../src/hal/../draw/../misc/lv_color.h **** # define LV_COLOR_MAKE16(r8, g8, b8) {{(uint8_t)((g8 >> 5) & 0x7U), (uint8_t)((r8 >> 3) & 0x1FU), (
 154:Drivers/lvgl/src/extra/themes/mono/../../../../src/hal/../draw/../misc/lv_color.h **** #endif
 155:Drivers/lvgl/src/extra/themes/mono/../../../../src/hal/../draw/../misc/lv_color.h **** 
 156:Drivers/lvgl/src/extra/themes/mono/../../../../src/hal/../draw/../misc/lv_color.h **** # define LV_COLOR_SET_R32(c, v) (c).ch.red = (uint8_t)((v) & 0xFF)
 157:Drivers/lvgl/src/extra/themes/mono/../../../../src/hal/../draw/../misc/lv_color.h **** # define LV_COLOR_SET_G32(c, v) (c).ch.green = (uint8_t)((v) & 0xFF)
ARM GAS  /var/folders/lp/x54gwt890xv47sdkqj1k04q40000gn/T//cc7THuQy.s 			page 66


 158:Drivers/lvgl/src/extra/themes/mono/../../../../src/hal/../draw/../misc/lv_color.h **** # define LV_COLOR_SET_B32(c, v) (c).ch.blue = (uint8_t)((v) & 0xFF)
 159:Drivers/lvgl/src/extra/themes/mono/../../../../src/hal/../draw/../misc/lv_color.h **** # define LV_COLOR_SET_A32(c, v) (c).ch.alpha = (uint8_t)((v) & 0xFF)
 160:Drivers/lvgl/src/extra/themes/mono/../../../../src/hal/../draw/../misc/lv_color.h **** 
 161:Drivers/lvgl/src/extra/themes/mono/../../../../src/hal/../draw/../misc/lv_color.h **** # define LV_COLOR_GET_R32(c) (c).ch.red
 162:Drivers/lvgl/src/extra/themes/mono/../../../../src/hal/../draw/../misc/lv_color.h **** # define LV_COLOR_GET_G32(c) (c).ch.green
 163:Drivers/lvgl/src/extra/themes/mono/../../../../src/hal/../draw/../misc/lv_color.h **** # define LV_COLOR_GET_B32(c) (c).ch.blue
 164:Drivers/lvgl/src/extra/themes/mono/../../../../src/hal/../draw/../misc/lv_color.h **** # define LV_COLOR_GET_A32(c) (c).ch.alpha
 165:Drivers/lvgl/src/extra/themes/mono/../../../../src/hal/../draw/../misc/lv_color.h **** 
 166:Drivers/lvgl/src/extra/themes/mono/../../../../src/hal/../draw/../misc/lv_color.h **** # define _LV_COLOR_ZERO_INITIALIZER32  {{0x00, 0x00, 0x00, 0x00}}
 167:Drivers/lvgl/src/extra/themes/mono/../../../../src/hal/../draw/../misc/lv_color.h **** # define LV_COLOR_MAKE32(r8, g8, b8) {{b8, g8, r8, 0xff}} /*Fix 0xff alpha*/
 168:Drivers/lvgl/src/extra/themes/mono/../../../../src/hal/../draw/../misc/lv_color.h **** 
 169:Drivers/lvgl/src/extra/themes/mono/../../../../src/hal/../draw/../misc/lv_color.h **** /*---------------------------------------
 170:Drivers/lvgl/src/extra/themes/mono/../../../../src/hal/../draw/../misc/lv_color.h ****  * Macros for the current color depth
 171:Drivers/lvgl/src/extra/themes/mono/../../../../src/hal/../draw/../misc/lv_color.h ****  * to set/get values of the color channels
 172:Drivers/lvgl/src/extra/themes/mono/../../../../src/hal/../draw/../misc/lv_color.h ****  *------------------------------------------*/
 173:Drivers/lvgl/src/extra/themes/mono/../../../../src/hal/../draw/../misc/lv_color.h **** #define LV_COLOR_SET_R(c, v) LV_CONCAT(LV_COLOR_SET_R, LV_COLOR_DEPTH)(c, v)
 174:Drivers/lvgl/src/extra/themes/mono/../../../../src/hal/../draw/../misc/lv_color.h **** #define LV_COLOR_SET_G(c, v) LV_CONCAT(LV_COLOR_SET_G, LV_COLOR_DEPTH)(c, v)
 175:Drivers/lvgl/src/extra/themes/mono/../../../../src/hal/../draw/../misc/lv_color.h **** #define LV_COLOR_SET_B(c, v) LV_CONCAT(LV_COLOR_SET_B, LV_COLOR_DEPTH)(c, v)
 176:Drivers/lvgl/src/extra/themes/mono/../../../../src/hal/../draw/../misc/lv_color.h **** #define LV_COLOR_SET_A(c, v) LV_CONCAT(LV_COLOR_SET_A, LV_COLOR_DEPTH)(c, v)
 177:Drivers/lvgl/src/extra/themes/mono/../../../../src/hal/../draw/../misc/lv_color.h **** 
 178:Drivers/lvgl/src/extra/themes/mono/../../../../src/hal/../draw/../misc/lv_color.h **** #define LV_COLOR_GET_R(c) LV_CONCAT(LV_COLOR_GET_R, LV_COLOR_DEPTH)(c)
 179:Drivers/lvgl/src/extra/themes/mono/../../../../src/hal/../draw/../misc/lv_color.h **** #define LV_COLOR_GET_G(c) LV_CONCAT(LV_COLOR_GET_G, LV_COLOR_DEPTH)(c)
 180:Drivers/lvgl/src/extra/themes/mono/../../../../src/hal/../draw/../misc/lv_color.h **** #define LV_COLOR_GET_B(c) LV_CONCAT(LV_COLOR_GET_B, LV_COLOR_DEPTH)(c)
 181:Drivers/lvgl/src/extra/themes/mono/../../../../src/hal/../draw/../misc/lv_color.h **** #define LV_COLOR_GET_A(c) LV_CONCAT(LV_COLOR_GET_A, LV_COLOR_DEPTH)(c)
 182:Drivers/lvgl/src/extra/themes/mono/../../../../src/hal/../draw/../misc/lv_color.h **** 
 183:Drivers/lvgl/src/extra/themes/mono/../../../../src/hal/../draw/../misc/lv_color.h **** #define _LV_COLOR_ZERO_INITIALIZER LV_CONCAT(_LV_COLOR_ZERO_INITIALIZER, LV_COLOR_DEPTH)
 184:Drivers/lvgl/src/extra/themes/mono/../../../../src/hal/../draw/../misc/lv_color.h **** #define LV_COLOR_MAKE(r8, g8, b8) LV_CONCAT(LV_COLOR_MAKE, LV_COLOR_DEPTH)(r8, g8, b8)
 185:Drivers/lvgl/src/extra/themes/mono/../../../../src/hal/../draw/../misc/lv_color.h **** 
 186:Drivers/lvgl/src/extra/themes/mono/../../../../src/hal/../draw/../misc/lv_color.h **** /**********************
 187:Drivers/lvgl/src/extra/themes/mono/../../../../src/hal/../draw/../misc/lv_color.h ****  *      TYPEDEFS
 188:Drivers/lvgl/src/extra/themes/mono/../../../../src/hal/../draw/../misc/lv_color.h ****  **********************/
 189:Drivers/lvgl/src/extra/themes/mono/../../../../src/hal/../draw/../misc/lv_color.h **** 
 190:Drivers/lvgl/src/extra/themes/mono/../../../../src/hal/../draw/../misc/lv_color.h **** typedef union {
 191:Drivers/lvgl/src/extra/themes/mono/../../../../src/hal/../draw/../misc/lv_color.h ****     uint8_t full; /*must be declared first to set all bits of byte via initializer list*/
 192:Drivers/lvgl/src/extra/themes/mono/../../../../src/hal/../draw/../misc/lv_color.h ****     union {
 193:Drivers/lvgl/src/extra/themes/mono/../../../../src/hal/../draw/../misc/lv_color.h ****         uint8_t blue : 1;
 194:Drivers/lvgl/src/extra/themes/mono/../../../../src/hal/../draw/../misc/lv_color.h ****         uint8_t green : 1;
 195:Drivers/lvgl/src/extra/themes/mono/../../../../src/hal/../draw/../misc/lv_color.h ****         uint8_t red : 1;
 196:Drivers/lvgl/src/extra/themes/mono/../../../../src/hal/../draw/../misc/lv_color.h ****     } ch;
 197:Drivers/lvgl/src/extra/themes/mono/../../../../src/hal/../draw/../misc/lv_color.h **** } lv_color1_t;
 198:Drivers/lvgl/src/extra/themes/mono/../../../../src/hal/../draw/../misc/lv_color.h **** 
 199:Drivers/lvgl/src/extra/themes/mono/../../../../src/hal/../draw/../misc/lv_color.h **** typedef union {
 200:Drivers/lvgl/src/extra/themes/mono/../../../../src/hal/../draw/../misc/lv_color.h ****     struct {
 201:Drivers/lvgl/src/extra/themes/mono/../../../../src/hal/../draw/../misc/lv_color.h ****         uint8_t blue : 2;
 202:Drivers/lvgl/src/extra/themes/mono/../../../../src/hal/../draw/../misc/lv_color.h ****         uint8_t green : 3;
 203:Drivers/lvgl/src/extra/themes/mono/../../../../src/hal/../draw/../misc/lv_color.h ****         uint8_t red : 3;
 204:Drivers/lvgl/src/extra/themes/mono/../../../../src/hal/../draw/../misc/lv_color.h ****     } ch;
 205:Drivers/lvgl/src/extra/themes/mono/../../../../src/hal/../draw/../misc/lv_color.h ****     uint8_t full;
 206:Drivers/lvgl/src/extra/themes/mono/../../../../src/hal/../draw/../misc/lv_color.h **** } lv_color8_t;
 207:Drivers/lvgl/src/extra/themes/mono/../../../../src/hal/../draw/../misc/lv_color.h **** 
 208:Drivers/lvgl/src/extra/themes/mono/../../../../src/hal/../draw/../misc/lv_color.h **** typedef union {
 209:Drivers/lvgl/src/extra/themes/mono/../../../../src/hal/../draw/../misc/lv_color.h ****     struct {
 210:Drivers/lvgl/src/extra/themes/mono/../../../../src/hal/../draw/../misc/lv_color.h **** #if LV_COLOR_16_SWAP == 0
 211:Drivers/lvgl/src/extra/themes/mono/../../../../src/hal/../draw/../misc/lv_color.h ****         uint16_t blue : 5;
 212:Drivers/lvgl/src/extra/themes/mono/../../../../src/hal/../draw/../misc/lv_color.h ****         uint16_t green : 6;
 213:Drivers/lvgl/src/extra/themes/mono/../../../../src/hal/../draw/../misc/lv_color.h ****         uint16_t red : 5;
 214:Drivers/lvgl/src/extra/themes/mono/../../../../src/hal/../draw/../misc/lv_color.h **** #else
ARM GAS  /var/folders/lp/x54gwt890xv47sdkqj1k04q40000gn/T//cc7THuQy.s 			page 67


 215:Drivers/lvgl/src/extra/themes/mono/../../../../src/hal/../draw/../misc/lv_color.h ****         uint16_t green_h : 3;
 216:Drivers/lvgl/src/extra/themes/mono/../../../../src/hal/../draw/../misc/lv_color.h ****         uint16_t red : 5;
 217:Drivers/lvgl/src/extra/themes/mono/../../../../src/hal/../draw/../misc/lv_color.h ****         uint16_t blue : 5;
 218:Drivers/lvgl/src/extra/themes/mono/../../../../src/hal/../draw/../misc/lv_color.h ****         uint16_t green_l : 3;
 219:Drivers/lvgl/src/extra/themes/mono/../../../../src/hal/../draw/../misc/lv_color.h **** #endif
 220:Drivers/lvgl/src/extra/themes/mono/../../../../src/hal/../draw/../misc/lv_color.h ****     } ch;
 221:Drivers/lvgl/src/extra/themes/mono/../../../../src/hal/../draw/../misc/lv_color.h ****     uint16_t full;
 222:Drivers/lvgl/src/extra/themes/mono/../../../../src/hal/../draw/../misc/lv_color.h **** } lv_color16_t;
 223:Drivers/lvgl/src/extra/themes/mono/../../../../src/hal/../draw/../misc/lv_color.h **** 
 224:Drivers/lvgl/src/extra/themes/mono/../../../../src/hal/../draw/../misc/lv_color.h **** typedef union {
 225:Drivers/lvgl/src/extra/themes/mono/../../../../src/hal/../draw/../misc/lv_color.h ****     struct {
 226:Drivers/lvgl/src/extra/themes/mono/../../../../src/hal/../draw/../misc/lv_color.h ****         uint8_t blue;
 227:Drivers/lvgl/src/extra/themes/mono/../../../../src/hal/../draw/../misc/lv_color.h ****         uint8_t green;
 228:Drivers/lvgl/src/extra/themes/mono/../../../../src/hal/../draw/../misc/lv_color.h ****         uint8_t red;
 229:Drivers/lvgl/src/extra/themes/mono/../../../../src/hal/../draw/../misc/lv_color.h ****         uint8_t alpha;
 230:Drivers/lvgl/src/extra/themes/mono/../../../../src/hal/../draw/../misc/lv_color.h ****     } ch;
 231:Drivers/lvgl/src/extra/themes/mono/../../../../src/hal/../draw/../misc/lv_color.h ****     uint32_t full;
 232:Drivers/lvgl/src/extra/themes/mono/../../../../src/hal/../draw/../misc/lv_color.h **** } lv_color32_t;
 233:Drivers/lvgl/src/extra/themes/mono/../../../../src/hal/../draw/../misc/lv_color.h **** 
 234:Drivers/lvgl/src/extra/themes/mono/../../../../src/hal/../draw/../misc/lv_color.h **** typedef LV_CONCAT3(uint, LV_COLOR_SIZE, _t) lv_color_int_t;
 235:Drivers/lvgl/src/extra/themes/mono/../../../../src/hal/../draw/../misc/lv_color.h **** typedef LV_CONCAT3(lv_color, LV_COLOR_DEPTH, _t) lv_color_t;
 236:Drivers/lvgl/src/extra/themes/mono/../../../../src/hal/../draw/../misc/lv_color.h **** 
 237:Drivers/lvgl/src/extra/themes/mono/../../../../src/hal/../draw/../misc/lv_color.h **** typedef struct {
 238:Drivers/lvgl/src/extra/themes/mono/../../../../src/hal/../draw/../misc/lv_color.h ****     uint16_t h;
 239:Drivers/lvgl/src/extra/themes/mono/../../../../src/hal/../draw/../misc/lv_color.h ****     uint8_t s;
 240:Drivers/lvgl/src/extra/themes/mono/../../../../src/hal/../draw/../misc/lv_color.h ****     uint8_t v;
 241:Drivers/lvgl/src/extra/themes/mono/../../../../src/hal/../draw/../misc/lv_color.h **** } lv_color_hsv_t;
 242:Drivers/lvgl/src/extra/themes/mono/../../../../src/hal/../draw/../misc/lv_color.h **** 
 243:Drivers/lvgl/src/extra/themes/mono/../../../../src/hal/../draw/../misc/lv_color.h **** //! @cond Doxygen_Suppress
 244:Drivers/lvgl/src/extra/themes/mono/../../../../src/hal/../draw/../misc/lv_color.h **** /*No idea where the guard is required but else throws warnings in the docs*/
 245:Drivers/lvgl/src/extra/themes/mono/../../../../src/hal/../draw/../misc/lv_color.h **** typedef uint8_t lv_opa_t;
 246:Drivers/lvgl/src/extra/themes/mono/../../../../src/hal/../draw/../misc/lv_color.h **** //! @endcond
 247:Drivers/lvgl/src/extra/themes/mono/../../../../src/hal/../draw/../misc/lv_color.h **** 
 248:Drivers/lvgl/src/extra/themes/mono/../../../../src/hal/../draw/../misc/lv_color.h **** struct _lv_color_filter_dsc_t;
 249:Drivers/lvgl/src/extra/themes/mono/../../../../src/hal/../draw/../misc/lv_color.h **** 
 250:Drivers/lvgl/src/extra/themes/mono/../../../../src/hal/../draw/../misc/lv_color.h **** typedef lv_color_t (*lv_color_filter_cb_t)(const struct _lv_color_filter_dsc_t *, lv_color_t, lv_op
 251:Drivers/lvgl/src/extra/themes/mono/../../../../src/hal/../draw/../misc/lv_color.h **** 
 252:Drivers/lvgl/src/extra/themes/mono/../../../../src/hal/../draw/../misc/lv_color.h **** typedef struct _lv_color_filter_dsc_t {
 253:Drivers/lvgl/src/extra/themes/mono/../../../../src/hal/../draw/../misc/lv_color.h ****     lv_color_filter_cb_t filter_cb;
 254:Drivers/lvgl/src/extra/themes/mono/../../../../src/hal/../draw/../misc/lv_color.h ****     void * user_data;
 255:Drivers/lvgl/src/extra/themes/mono/../../../../src/hal/../draw/../misc/lv_color.h **** } lv_color_filter_dsc_t;
 256:Drivers/lvgl/src/extra/themes/mono/../../../../src/hal/../draw/../misc/lv_color.h **** 
 257:Drivers/lvgl/src/extra/themes/mono/../../../../src/hal/../draw/../misc/lv_color.h **** 
 258:Drivers/lvgl/src/extra/themes/mono/../../../../src/hal/../draw/../misc/lv_color.h **** typedef enum {
 259:Drivers/lvgl/src/extra/themes/mono/../../../../src/hal/../draw/../misc/lv_color.h ****     LV_PALETTE_RED,
 260:Drivers/lvgl/src/extra/themes/mono/../../../../src/hal/../draw/../misc/lv_color.h ****     LV_PALETTE_PINK,
 261:Drivers/lvgl/src/extra/themes/mono/../../../../src/hal/../draw/../misc/lv_color.h ****     LV_PALETTE_PURPLE,
 262:Drivers/lvgl/src/extra/themes/mono/../../../../src/hal/../draw/../misc/lv_color.h ****     LV_PALETTE_DEEP_PURPLE,
 263:Drivers/lvgl/src/extra/themes/mono/../../../../src/hal/../draw/../misc/lv_color.h ****     LV_PALETTE_INDIGO,
 264:Drivers/lvgl/src/extra/themes/mono/../../../../src/hal/../draw/../misc/lv_color.h ****     LV_PALETTE_BLUE,
 265:Drivers/lvgl/src/extra/themes/mono/../../../../src/hal/../draw/../misc/lv_color.h ****     LV_PALETTE_LIGHT_BLUE,
 266:Drivers/lvgl/src/extra/themes/mono/../../../../src/hal/../draw/../misc/lv_color.h ****     LV_PALETTE_CYAN,
 267:Drivers/lvgl/src/extra/themes/mono/../../../../src/hal/../draw/../misc/lv_color.h ****     LV_PALETTE_TEAL,
 268:Drivers/lvgl/src/extra/themes/mono/../../../../src/hal/../draw/../misc/lv_color.h ****     LV_PALETTE_GREEN,
 269:Drivers/lvgl/src/extra/themes/mono/../../../../src/hal/../draw/../misc/lv_color.h ****     LV_PALETTE_LIGHT_GREEN,
 270:Drivers/lvgl/src/extra/themes/mono/../../../../src/hal/../draw/../misc/lv_color.h ****     LV_PALETTE_LIME,
 271:Drivers/lvgl/src/extra/themes/mono/../../../../src/hal/../draw/../misc/lv_color.h ****     LV_PALETTE_YELLOW,
ARM GAS  /var/folders/lp/x54gwt890xv47sdkqj1k04q40000gn/T//cc7THuQy.s 			page 68


 272:Drivers/lvgl/src/extra/themes/mono/../../../../src/hal/../draw/../misc/lv_color.h ****     LV_PALETTE_AMBER,
 273:Drivers/lvgl/src/extra/themes/mono/../../../../src/hal/../draw/../misc/lv_color.h ****     LV_PALETTE_ORANGE,
 274:Drivers/lvgl/src/extra/themes/mono/../../../../src/hal/../draw/../misc/lv_color.h ****     LV_PALETTE_DEEP_ORANGE,
 275:Drivers/lvgl/src/extra/themes/mono/../../../../src/hal/../draw/../misc/lv_color.h ****     LV_PALETTE_BROWN,
 276:Drivers/lvgl/src/extra/themes/mono/../../../../src/hal/../draw/../misc/lv_color.h ****     LV_PALETTE_BLUE_GREY,
 277:Drivers/lvgl/src/extra/themes/mono/../../../../src/hal/../draw/../misc/lv_color.h ****     LV_PALETTE_GREY,
 278:Drivers/lvgl/src/extra/themes/mono/../../../../src/hal/../draw/../misc/lv_color.h ****     _LV_PALETTE_LAST,
 279:Drivers/lvgl/src/extra/themes/mono/../../../../src/hal/../draw/../misc/lv_color.h ****     LV_PALETTE_NONE = 0xff,
 280:Drivers/lvgl/src/extra/themes/mono/../../../../src/hal/../draw/../misc/lv_color.h **** } lv_palette_t;
 281:Drivers/lvgl/src/extra/themes/mono/../../../../src/hal/../draw/../misc/lv_color.h **** 
 282:Drivers/lvgl/src/extra/themes/mono/../../../../src/hal/../draw/../misc/lv_color.h **** /**********************
 283:Drivers/lvgl/src/extra/themes/mono/../../../../src/hal/../draw/../misc/lv_color.h ****  * GLOBAL PROTOTYPES
 284:Drivers/lvgl/src/extra/themes/mono/../../../../src/hal/../draw/../misc/lv_color.h ****  **********************/
 285:Drivers/lvgl/src/extra/themes/mono/../../../../src/hal/../draw/../misc/lv_color.h **** 
 286:Drivers/lvgl/src/extra/themes/mono/../../../../src/hal/../draw/../misc/lv_color.h **** /*In color conversations:
 287:Drivers/lvgl/src/extra/themes/mono/../../../../src/hal/../draw/../misc/lv_color.h ****  * - When converting to bigger color type the LSB weight of 1 LSB is calculated
 288:Drivers/lvgl/src/extra/themes/mono/../../../../src/hal/../draw/../misc/lv_color.h ****  *   E.g. 16 bit Red has 5 bits
 289:Drivers/lvgl/src/extra/themes/mono/../../../../src/hal/../draw/../misc/lv_color.h ****  *         8 bit Red has 3 bits
 290:Drivers/lvgl/src/extra/themes/mono/../../../../src/hal/../draw/../misc/lv_color.h ****  *        ----------------------
 291:Drivers/lvgl/src/extra/themes/mono/../../../../src/hal/../draw/../misc/lv_color.h ****  *        8 bit red LSB = (2^5 - 1) / (2^3 - 1) = 31 / 7 = 4
 292:Drivers/lvgl/src/extra/themes/mono/../../../../src/hal/../draw/../misc/lv_color.h ****  *
 293:Drivers/lvgl/src/extra/themes/mono/../../../../src/hal/../draw/../misc/lv_color.h ****  * - When calculating to smaller color type simply shift out the LSBs
 294:Drivers/lvgl/src/extra/themes/mono/../../../../src/hal/../draw/../misc/lv_color.h ****  *   E.g.  8 bit Red has 3 bits
 295:Drivers/lvgl/src/extra/themes/mono/../../../../src/hal/../draw/../misc/lv_color.h ****  *        16 bit Red has 5 bits
 296:Drivers/lvgl/src/extra/themes/mono/../../../../src/hal/../draw/../misc/lv_color.h ****  *        ----------------------
 297:Drivers/lvgl/src/extra/themes/mono/../../../../src/hal/../draw/../misc/lv_color.h ****  *         Shift right with 5 - 3 = 2
 298:Drivers/lvgl/src/extra/themes/mono/../../../../src/hal/../draw/../misc/lv_color.h ****  */
 299:Drivers/lvgl/src/extra/themes/mono/../../../../src/hal/../draw/../misc/lv_color.h **** static inline uint8_t lv_color_to1(lv_color_t color)
 300:Drivers/lvgl/src/extra/themes/mono/../../../../src/hal/../draw/../misc/lv_color.h **** {
 301:Drivers/lvgl/src/extra/themes/mono/../../../../src/hal/../draw/../misc/lv_color.h **** #if LV_COLOR_DEPTH == 1
 302:Drivers/lvgl/src/extra/themes/mono/../../../../src/hal/../draw/../misc/lv_color.h ****     return color.full;
 303:Drivers/lvgl/src/extra/themes/mono/../../../../src/hal/../draw/../misc/lv_color.h **** #elif LV_COLOR_DEPTH == 8
 304:Drivers/lvgl/src/extra/themes/mono/../../../../src/hal/../draw/../misc/lv_color.h ****     if((LV_COLOR_GET_R(color) & 0x4) || (LV_COLOR_GET_G(color) & 0x4) || (LV_COLOR_GET_B(color) & 0
 305:Drivers/lvgl/src/extra/themes/mono/../../../../src/hal/../draw/../misc/lv_color.h ****         return 1;
 306:Drivers/lvgl/src/extra/themes/mono/../../../../src/hal/../draw/../misc/lv_color.h ****     }
 307:Drivers/lvgl/src/extra/themes/mono/../../../../src/hal/../draw/../misc/lv_color.h ****     else {
 308:Drivers/lvgl/src/extra/themes/mono/../../../../src/hal/../draw/../misc/lv_color.h ****         return 0;
 309:Drivers/lvgl/src/extra/themes/mono/../../../../src/hal/../draw/../misc/lv_color.h ****     }
 310:Drivers/lvgl/src/extra/themes/mono/../../../../src/hal/../draw/../misc/lv_color.h **** #elif LV_COLOR_DEPTH == 16
 311:Drivers/lvgl/src/extra/themes/mono/../../../../src/hal/../draw/../misc/lv_color.h ****     if((LV_COLOR_GET_R(color) & 0x10) || (LV_COLOR_GET_G(color) & 0x20) || (LV_COLOR_GET_B(color) &
 312:Drivers/lvgl/src/extra/themes/mono/../../../../src/hal/../draw/../misc/lv_color.h ****         return 1;
 313:Drivers/lvgl/src/extra/themes/mono/../../../../src/hal/../draw/../misc/lv_color.h ****     }
 314:Drivers/lvgl/src/extra/themes/mono/../../../../src/hal/../draw/../misc/lv_color.h ****     else {
 315:Drivers/lvgl/src/extra/themes/mono/../../../../src/hal/../draw/../misc/lv_color.h ****         return 0;
 316:Drivers/lvgl/src/extra/themes/mono/../../../../src/hal/../draw/../misc/lv_color.h ****     }
 317:Drivers/lvgl/src/extra/themes/mono/../../../../src/hal/../draw/../misc/lv_color.h **** #elif LV_COLOR_DEPTH == 32
 318:Drivers/lvgl/src/extra/themes/mono/../../../../src/hal/../draw/../misc/lv_color.h ****     if((LV_COLOR_GET_R(color) & 0x80) || (LV_COLOR_GET_G(color) & 0x80) || (LV_COLOR_GET_B(color) &
 319:Drivers/lvgl/src/extra/themes/mono/../../../../src/hal/../draw/../misc/lv_color.h ****         return 1;
 320:Drivers/lvgl/src/extra/themes/mono/../../../../src/hal/../draw/../misc/lv_color.h ****     }
 321:Drivers/lvgl/src/extra/themes/mono/../../../../src/hal/../draw/../misc/lv_color.h ****     else {
 322:Drivers/lvgl/src/extra/themes/mono/../../../../src/hal/../draw/../misc/lv_color.h ****         return 0;
 323:Drivers/lvgl/src/extra/themes/mono/../../../../src/hal/../draw/../misc/lv_color.h ****     }
 324:Drivers/lvgl/src/extra/themes/mono/../../../../src/hal/../draw/../misc/lv_color.h **** #endif
 325:Drivers/lvgl/src/extra/themes/mono/../../../../src/hal/../draw/../misc/lv_color.h **** }
 326:Drivers/lvgl/src/extra/themes/mono/../../../../src/hal/../draw/../misc/lv_color.h **** 
 327:Drivers/lvgl/src/extra/themes/mono/../../../../src/hal/../draw/../misc/lv_color.h **** static inline uint8_t lv_color_to8(lv_color_t color)
 328:Drivers/lvgl/src/extra/themes/mono/../../../../src/hal/../draw/../misc/lv_color.h **** {
ARM GAS  /var/folders/lp/x54gwt890xv47sdkqj1k04q40000gn/T//cc7THuQy.s 			page 69


 329:Drivers/lvgl/src/extra/themes/mono/../../../../src/hal/../draw/../misc/lv_color.h **** #if LV_COLOR_DEPTH == 1
 330:Drivers/lvgl/src/extra/themes/mono/../../../../src/hal/../draw/../misc/lv_color.h ****     if(color.full == 0)
 331:Drivers/lvgl/src/extra/themes/mono/../../../../src/hal/../draw/../misc/lv_color.h ****         return 0;
 332:Drivers/lvgl/src/extra/themes/mono/../../../../src/hal/../draw/../misc/lv_color.h ****     else
 333:Drivers/lvgl/src/extra/themes/mono/../../../../src/hal/../draw/../misc/lv_color.h ****         return 0xFF;
 334:Drivers/lvgl/src/extra/themes/mono/../../../../src/hal/../draw/../misc/lv_color.h **** #elif LV_COLOR_DEPTH == 8
 335:Drivers/lvgl/src/extra/themes/mono/../../../../src/hal/../draw/../misc/lv_color.h ****     return color.full;
 336:Drivers/lvgl/src/extra/themes/mono/../../../../src/hal/../draw/../misc/lv_color.h **** #elif LV_COLOR_DEPTH == 16
 337:Drivers/lvgl/src/extra/themes/mono/../../../../src/hal/../draw/../misc/lv_color.h ****     lv_color8_t ret;
 338:Drivers/lvgl/src/extra/themes/mono/../../../../src/hal/../draw/../misc/lv_color.h ****     LV_COLOR_SET_R8(ret, LV_COLOR_GET_R(color) >> 2); /*5 - 3  = 2*/
 339:Drivers/lvgl/src/extra/themes/mono/../../../../src/hal/../draw/../misc/lv_color.h ****     LV_COLOR_SET_G8(ret, LV_COLOR_GET_G(color) >> 3); /*6 - 3  = 3*/
 340:Drivers/lvgl/src/extra/themes/mono/../../../../src/hal/../draw/../misc/lv_color.h ****     LV_COLOR_SET_B8(ret, LV_COLOR_GET_B(color) >> 3); /*5 - 2  = 3*/
 341:Drivers/lvgl/src/extra/themes/mono/../../../../src/hal/../draw/../misc/lv_color.h ****     return ret.full;
 342:Drivers/lvgl/src/extra/themes/mono/../../../../src/hal/../draw/../misc/lv_color.h **** #elif LV_COLOR_DEPTH == 32
 343:Drivers/lvgl/src/extra/themes/mono/../../../../src/hal/../draw/../misc/lv_color.h ****     lv_color8_t ret;
 344:Drivers/lvgl/src/extra/themes/mono/../../../../src/hal/../draw/../misc/lv_color.h ****     LV_COLOR_SET_R8(ret, LV_COLOR_GET_R(color) >> 5); /*8 - 3  = 5*/
 345:Drivers/lvgl/src/extra/themes/mono/../../../../src/hal/../draw/../misc/lv_color.h ****     LV_COLOR_SET_G8(ret, LV_COLOR_GET_G(color) >> 5); /*8 - 3  = 5*/
 346:Drivers/lvgl/src/extra/themes/mono/../../../../src/hal/../draw/../misc/lv_color.h ****     LV_COLOR_SET_B8(ret, LV_COLOR_GET_B(color) >> 6); /*8 - 2  = 6*/
 347:Drivers/lvgl/src/extra/themes/mono/../../../../src/hal/../draw/../misc/lv_color.h ****     return ret.full;
 348:Drivers/lvgl/src/extra/themes/mono/../../../../src/hal/../draw/../misc/lv_color.h **** #endif
 349:Drivers/lvgl/src/extra/themes/mono/../../../../src/hal/../draw/../misc/lv_color.h **** }
 350:Drivers/lvgl/src/extra/themes/mono/../../../../src/hal/../draw/../misc/lv_color.h **** 
 351:Drivers/lvgl/src/extra/themes/mono/../../../../src/hal/../draw/../misc/lv_color.h **** static inline uint16_t lv_color_to16(lv_color_t color)
 352:Drivers/lvgl/src/extra/themes/mono/../../../../src/hal/../draw/../misc/lv_color.h **** {
 353:Drivers/lvgl/src/extra/themes/mono/../../../../src/hal/../draw/../misc/lv_color.h **** #if LV_COLOR_DEPTH == 1
 354:Drivers/lvgl/src/extra/themes/mono/../../../../src/hal/../draw/../misc/lv_color.h ****     if(color.full == 0)
 355:Drivers/lvgl/src/extra/themes/mono/../../../../src/hal/../draw/../misc/lv_color.h ****         return 0;
 356:Drivers/lvgl/src/extra/themes/mono/../../../../src/hal/../draw/../misc/lv_color.h ****     else
 357:Drivers/lvgl/src/extra/themes/mono/../../../../src/hal/../draw/../misc/lv_color.h ****         return 0xFFFF;
 358:Drivers/lvgl/src/extra/themes/mono/../../../../src/hal/../draw/../misc/lv_color.h **** #elif LV_COLOR_DEPTH == 8
 359:Drivers/lvgl/src/extra/themes/mono/../../../../src/hal/../draw/../misc/lv_color.h ****     lv_color16_t ret;
 360:Drivers/lvgl/src/extra/themes/mono/../../../../src/hal/../draw/../misc/lv_color.h ****     LV_COLOR_SET_R16(ret, LV_COLOR_GET_R(color) * 4);  /*(2^5 - 1)/(2^3 - 1) = 31/7 = 4*/
 361:Drivers/lvgl/src/extra/themes/mono/../../../../src/hal/../draw/../misc/lv_color.h ****     LV_COLOR_SET_G16(ret, LV_COLOR_GET_G(color) * 9);  /*(2^6 - 1)/(2^3 - 1) = 63/7 = 9*/
 362:Drivers/lvgl/src/extra/themes/mono/../../../../src/hal/../draw/../misc/lv_color.h ****     LV_COLOR_SET_B16(ret, LV_COLOR_GET_B(color) * 10); /*(2^5 - 1)/(2^2 - 1) = 31/3 = 10*/
 363:Drivers/lvgl/src/extra/themes/mono/../../../../src/hal/../draw/../misc/lv_color.h ****     return ret.full;
 364:Drivers/lvgl/src/extra/themes/mono/../../../../src/hal/../draw/../misc/lv_color.h **** #elif LV_COLOR_DEPTH == 16
 365:Drivers/lvgl/src/extra/themes/mono/../../../../src/hal/../draw/../misc/lv_color.h ****     return color.full;
 366:Drivers/lvgl/src/extra/themes/mono/../../../../src/hal/../draw/../misc/lv_color.h **** #elif LV_COLOR_DEPTH == 32
 367:Drivers/lvgl/src/extra/themes/mono/../../../../src/hal/../draw/../misc/lv_color.h ****     lv_color16_t ret;
 368:Drivers/lvgl/src/extra/themes/mono/../../../../src/hal/../draw/../misc/lv_color.h ****     LV_COLOR_SET_R16(ret, LV_COLOR_GET_R(color) >> 3); /*8 - 5  = 3*/
 369:Drivers/lvgl/src/extra/themes/mono/../../../../src/hal/../draw/../misc/lv_color.h ****     LV_COLOR_SET_G16(ret, LV_COLOR_GET_G(color) >> 2); /*8 - 6  = 2*/
 370:Drivers/lvgl/src/extra/themes/mono/../../../../src/hal/../draw/../misc/lv_color.h ****     LV_COLOR_SET_B16(ret, LV_COLOR_GET_B(color) >> 3); /*8 - 5  = 3*/
 371:Drivers/lvgl/src/extra/themes/mono/../../../../src/hal/../draw/../misc/lv_color.h ****     return ret.full;
 372:Drivers/lvgl/src/extra/themes/mono/../../../../src/hal/../draw/../misc/lv_color.h **** #endif
 373:Drivers/lvgl/src/extra/themes/mono/../../../../src/hal/../draw/../misc/lv_color.h **** }
 374:Drivers/lvgl/src/extra/themes/mono/../../../../src/hal/../draw/../misc/lv_color.h **** 
 375:Drivers/lvgl/src/extra/themes/mono/../../../../src/hal/../draw/../misc/lv_color.h **** static inline uint32_t lv_color_to32(lv_color_t color)
 376:Drivers/lvgl/src/extra/themes/mono/../../../../src/hal/../draw/../misc/lv_color.h **** {
 377:Drivers/lvgl/src/extra/themes/mono/../../../../src/hal/../draw/../misc/lv_color.h **** #if LV_COLOR_DEPTH == 1
 378:Drivers/lvgl/src/extra/themes/mono/../../../../src/hal/../draw/../misc/lv_color.h ****     if(color.full == 0)
 379:Drivers/lvgl/src/extra/themes/mono/../../../../src/hal/../draw/../misc/lv_color.h ****         return 0xFF000000;
 380:Drivers/lvgl/src/extra/themes/mono/../../../../src/hal/../draw/../misc/lv_color.h ****     else
 381:Drivers/lvgl/src/extra/themes/mono/../../../../src/hal/../draw/../misc/lv_color.h ****         return 0xFFFFFFFF;
 382:Drivers/lvgl/src/extra/themes/mono/../../../../src/hal/../draw/../misc/lv_color.h **** #elif LV_COLOR_DEPTH == 8
 383:Drivers/lvgl/src/extra/themes/mono/../../../../src/hal/../draw/../misc/lv_color.h ****     lv_color32_t ret;
 384:Drivers/lvgl/src/extra/themes/mono/../../../../src/hal/../draw/../misc/lv_color.h ****     LV_COLOR_SET_R32(ret, LV_COLOR_GET_R(color) * 36); /*(2^8 - 1)/(2^3 - 1) = 255/7 = 36*/
 385:Drivers/lvgl/src/extra/themes/mono/../../../../src/hal/../draw/../misc/lv_color.h ****     LV_COLOR_SET_G32(ret, LV_COLOR_GET_G(color) * 36); /*(2^8 - 1)/(2^3 - 1) = 255/7 = 36*/
ARM GAS  /var/folders/lp/x54gwt890xv47sdkqj1k04q40000gn/T//cc7THuQy.s 			page 70


 386:Drivers/lvgl/src/extra/themes/mono/../../../../src/hal/../draw/../misc/lv_color.h ****     LV_COLOR_SET_B32(ret, LV_COLOR_GET_B(color) * 85); /*(2^8 - 1)/(2^2 - 1) = 255/3 = 85*/
 387:Drivers/lvgl/src/extra/themes/mono/../../../../src/hal/../draw/../misc/lv_color.h ****     LV_COLOR_SET_A32(ret, 0xFF);
 388:Drivers/lvgl/src/extra/themes/mono/../../../../src/hal/../draw/../misc/lv_color.h ****     return ret.full;
 389:Drivers/lvgl/src/extra/themes/mono/../../../../src/hal/../draw/../misc/lv_color.h **** #elif LV_COLOR_DEPTH == 16
 390:Drivers/lvgl/src/extra/themes/mono/../../../../src/hal/../draw/../misc/lv_color.h ****     /**
 391:Drivers/lvgl/src/extra/themes/mono/../../../../src/hal/../draw/../misc/lv_color.h ****      * The floating point math for conversion is:
 392:Drivers/lvgl/src/extra/themes/mono/../../../../src/hal/../draw/../misc/lv_color.h ****      *  valueto = valuefrom * ( (2^bitsto - 1) / (float)(2^bitsfrom - 1) )
 393:Drivers/lvgl/src/extra/themes/mono/../../../../src/hal/../draw/../misc/lv_color.h ****      * The faster integer math for conversion is:
 394:Drivers/lvgl/src/extra/themes/mono/../../../../src/hal/../draw/../misc/lv_color.h ****      *  valueto = ( valuefrom * multiplier + adder ) >> divisor
 395:Drivers/lvgl/src/extra/themes/mono/../../../../src/hal/../draw/../misc/lv_color.h ****      *   multiplier = FLOOR( ( (2^bitsto - 1) << divisor ) / (float)(2^bitsfrom - 1) )
 396:Drivers/lvgl/src/extra/themes/mono/../../../../src/hal/../draw/../misc/lv_color.h ****      *
 397:Drivers/lvgl/src/extra/themes/mono/../../../../src/hal/../draw/../misc/lv_color.h ****      * Find the first divisor where ( adder >> divisor ) <= 0
 398:Drivers/lvgl/src/extra/themes/mono/../../../../src/hal/../draw/../misc/lv_color.h ****      *
 399:Drivers/lvgl/src/extra/themes/mono/../../../../src/hal/../draw/../misc/lv_color.h ****      * 5-bit to 8-bit: ( 31 * multiplier + adder ) >> divisor = 255
 400:Drivers/lvgl/src/extra/themes/mono/../../../../src/hal/../draw/../misc/lv_color.h ****      * divisor  multiplier  adder  min (0)  max (31)
 401:Drivers/lvgl/src/extra/themes/mono/../../../../src/hal/../draw/../misc/lv_color.h ****      *       0           8      7        7       255
 402:Drivers/lvgl/src/extra/themes/mono/../../../../src/hal/../draw/../misc/lv_color.h ****      *       1          16     14        7       255
 403:Drivers/lvgl/src/extra/themes/mono/../../../../src/hal/../draw/../misc/lv_color.h ****      *       2          32     28        7       255
 404:Drivers/lvgl/src/extra/themes/mono/../../../../src/hal/../draw/../misc/lv_color.h ****      *       3          65     25        3       255
 405:Drivers/lvgl/src/extra/themes/mono/../../../../src/hal/../draw/../misc/lv_color.h ****      *       4         131     19        1       255
 406:Drivers/lvgl/src/extra/themes/mono/../../../../src/hal/../draw/../misc/lv_color.h ****      *       5         263      7        0       255
 407:Drivers/lvgl/src/extra/themes/mono/../../../../src/hal/../draw/../misc/lv_color.h ****      *
 408:Drivers/lvgl/src/extra/themes/mono/../../../../src/hal/../draw/../misc/lv_color.h ****      * 6-bit to 8-bit: 255 = ( 63 * multiplier + adder ) >> divisor
 409:Drivers/lvgl/src/extra/themes/mono/../../../../src/hal/../draw/../misc/lv_color.h ****      * divisor  multiplier  adder  min (0)  max (63)
 410:Drivers/lvgl/src/extra/themes/mono/../../../../src/hal/../draw/../misc/lv_color.h ****      *       0           4      3        3       255
 411:Drivers/lvgl/src/extra/themes/mono/../../../../src/hal/../draw/../misc/lv_color.h ****      *       1           8      6        3       255
 412:Drivers/lvgl/src/extra/themes/mono/../../../../src/hal/../draw/../misc/lv_color.h ****      *       2          16     12        3       255
 413:Drivers/lvgl/src/extra/themes/mono/../../../../src/hal/../draw/../misc/lv_color.h ****      *       3          32     24        3       255
 414:Drivers/lvgl/src/extra/themes/mono/../../../../src/hal/../draw/../misc/lv_color.h ****      *       4          64     48        3       255
 415:Drivers/lvgl/src/extra/themes/mono/../../../../src/hal/../draw/../misc/lv_color.h ****      *       5         129     33        1       255
 416:Drivers/lvgl/src/extra/themes/mono/../../../../src/hal/../draw/../misc/lv_color.h ****      *       6         259      3        0       255
 417:Drivers/lvgl/src/extra/themes/mono/../../../../src/hal/../draw/../misc/lv_color.h ****      */
 418:Drivers/lvgl/src/extra/themes/mono/../../../../src/hal/../draw/../misc/lv_color.h **** 
 419:Drivers/lvgl/src/extra/themes/mono/../../../../src/hal/../draw/../misc/lv_color.h ****     lv_color32_t ret;
 420:Drivers/lvgl/src/extra/themes/mono/../../../../src/hal/../draw/../misc/lv_color.h ****     LV_COLOR_SET_R32(ret, (LV_COLOR_GET_R(color) * 263 + 7) >> 5);
 421:Drivers/lvgl/src/extra/themes/mono/../../../../src/hal/../draw/../misc/lv_color.h ****     LV_COLOR_SET_G32(ret, (LV_COLOR_GET_G(color) * 259 + 3) >> 6);
 422:Drivers/lvgl/src/extra/themes/mono/../../../../src/hal/../draw/../misc/lv_color.h ****     LV_COLOR_SET_B32(ret, (LV_COLOR_GET_B(color) * 263 + 7) >> 5);
 423:Drivers/lvgl/src/extra/themes/mono/../../../../src/hal/../draw/../misc/lv_color.h ****     LV_COLOR_SET_A32(ret, 0xFF);
 424:Drivers/lvgl/src/extra/themes/mono/../../../../src/hal/../draw/../misc/lv_color.h ****     return ret.full;
 425:Drivers/lvgl/src/extra/themes/mono/../../../../src/hal/../draw/../misc/lv_color.h **** #elif LV_COLOR_DEPTH == 32
 426:Drivers/lvgl/src/extra/themes/mono/../../../../src/hal/../draw/../misc/lv_color.h ****     return color.full;
 427:Drivers/lvgl/src/extra/themes/mono/../../../../src/hal/../draw/../misc/lv_color.h **** #endif
 428:Drivers/lvgl/src/extra/themes/mono/../../../../src/hal/../draw/../misc/lv_color.h **** }
 429:Drivers/lvgl/src/extra/themes/mono/../../../../src/hal/../draw/../misc/lv_color.h **** 
 430:Drivers/lvgl/src/extra/themes/mono/../../../../src/hal/../draw/../misc/lv_color.h **** //! @cond Doxygen_Suppress
 431:Drivers/lvgl/src/extra/themes/mono/../../../../src/hal/../draw/../misc/lv_color.h **** 
 432:Drivers/lvgl/src/extra/themes/mono/../../../../src/hal/../draw/../misc/lv_color.h **** /**
 433:Drivers/lvgl/src/extra/themes/mono/../../../../src/hal/../draw/../misc/lv_color.h ****  * Mix two colors with a given ratio.
 434:Drivers/lvgl/src/extra/themes/mono/../../../../src/hal/../draw/../misc/lv_color.h ****  * @param c1 the first color to mix (usually the foreground)
 435:Drivers/lvgl/src/extra/themes/mono/../../../../src/hal/../draw/../misc/lv_color.h ****  * @param c2 the second color to mix (usually the background)
 436:Drivers/lvgl/src/extra/themes/mono/../../../../src/hal/../draw/../misc/lv_color.h ****  * @param mix The ratio of the colors. 0: full `c2`, 255: full `c1`, 127: half `c1` and half`c2`
 437:Drivers/lvgl/src/extra/themes/mono/../../../../src/hal/../draw/../misc/lv_color.h ****  * @return the mixed color
 438:Drivers/lvgl/src/extra/themes/mono/../../../../src/hal/../draw/../misc/lv_color.h ****  */
 439:Drivers/lvgl/src/extra/themes/mono/../../../../src/hal/../draw/../misc/lv_color.h **** static inline lv_color_t LV_ATTRIBUTE_FAST_MEM lv_color_mix(lv_color_t c1, lv_color_t c2, uint8_t m
 440:Drivers/lvgl/src/extra/themes/mono/../../../../src/hal/../draw/../misc/lv_color.h **** {
 441:Drivers/lvgl/src/extra/themes/mono/../../../../src/hal/../draw/../misc/lv_color.h ****     lv_color_t ret;
 442:Drivers/lvgl/src/extra/themes/mono/../../../../src/hal/../draw/../misc/lv_color.h **** 
ARM GAS  /var/folders/lp/x54gwt890xv47sdkqj1k04q40000gn/T//cc7THuQy.s 			page 71


 443:Drivers/lvgl/src/extra/themes/mono/../../../../src/hal/../draw/../misc/lv_color.h **** #if LV_COLOR_DEPTH == 16 && LV_COLOR_MIX_ROUND_OFS == 0
 444:Drivers/lvgl/src/extra/themes/mono/../../../../src/hal/../draw/../misc/lv_color.h **** #if LV_COLOR_16_SWAP == 1
 445:Drivers/lvgl/src/extra/themes/mono/../../../../src/hal/../draw/../misc/lv_color.h ****     c1.full = c1.full << 8 | c1.full >> 8;
 446:Drivers/lvgl/src/extra/themes/mono/../../../../src/hal/../draw/../misc/lv_color.h ****     c2.full = c2.full << 8 | c2.full >> 8;
 447:Drivers/lvgl/src/extra/themes/mono/../../../../src/hal/../draw/../misc/lv_color.h **** #endif
 448:Drivers/lvgl/src/extra/themes/mono/../../../../src/hal/../draw/../misc/lv_color.h ****     /*Source: https://stackoverflow.com/a/50012418/1999969*/
 449:Drivers/lvgl/src/extra/themes/mono/../../../../src/hal/../draw/../misc/lv_color.h ****     mix = (uint32_t)((uint32_t)mix + 4) >> 3;
 450:Drivers/lvgl/src/extra/themes/mono/../../../../src/hal/../draw/../misc/lv_color.h ****     uint32_t bg = (uint32_t)((uint32_t)c2.full | ((uint32_t)c2.full << 16)) &
 451:Drivers/lvgl/src/extra/themes/mono/../../../../src/hal/../draw/../misc/lv_color.h ****                   0x7E0F81F; /*0b00000111111000001111100000011111*/
 452:Drivers/lvgl/src/extra/themes/mono/../../../../src/hal/../draw/../misc/lv_color.h ****     uint32_t fg = (uint32_t)((uint32_t)c1.full | ((uint32_t)c1.full << 16)) & 0x7E0F81F;
 453:Drivers/lvgl/src/extra/themes/mono/../../../../src/hal/../draw/../misc/lv_color.h ****     uint32_t result = ((((fg - bg) * mix) >> 5) + bg) & 0x7E0F81F;
 454:Drivers/lvgl/src/extra/themes/mono/../../../../src/hal/../draw/../misc/lv_color.h ****     ret.full = (uint16_t)((result >> 16) | result);
 455:Drivers/lvgl/src/extra/themes/mono/../../../../src/hal/../draw/../misc/lv_color.h **** #if LV_COLOR_16_SWAP == 1
 456:Drivers/lvgl/src/extra/themes/mono/../../../../src/hal/../draw/../misc/lv_color.h ****     ret.full = ret.full << 8 | ret.full >> 8;
 457:Drivers/lvgl/src/extra/themes/mono/../../../../src/hal/../draw/../misc/lv_color.h **** #endif
 458:Drivers/lvgl/src/extra/themes/mono/../../../../src/hal/../draw/../misc/lv_color.h **** #elif LV_COLOR_DEPTH != 1
 459:Drivers/lvgl/src/extra/themes/mono/../../../../src/hal/../draw/../misc/lv_color.h ****     /*LV_COLOR_DEPTH == 8, 16 or 32*/
 460:Drivers/lvgl/src/extra/themes/mono/../../../../src/hal/../draw/../misc/lv_color.h ****     LV_COLOR_SET_R(ret, LV_UDIV255((uint16_t)LV_COLOR_GET_R(c1) * mix + LV_COLOR_GET_R(c2) *
 461:Drivers/lvgl/src/extra/themes/mono/../../../../src/hal/../draw/../misc/lv_color.h ****                                    (255 - mix) + LV_COLOR_MIX_ROUND_OFS));
 462:Drivers/lvgl/src/extra/themes/mono/../../../../src/hal/../draw/../misc/lv_color.h ****     LV_COLOR_SET_G(ret, LV_UDIV255((uint16_t)LV_COLOR_GET_G(c1) * mix + LV_COLOR_GET_G(c2) *
 463:Drivers/lvgl/src/extra/themes/mono/../../../../src/hal/../draw/../misc/lv_color.h ****                                    (255 - mix) + LV_COLOR_MIX_ROUND_OFS));
 464:Drivers/lvgl/src/extra/themes/mono/../../../../src/hal/../draw/../misc/lv_color.h ****     LV_COLOR_SET_B(ret, LV_UDIV255((uint16_t)LV_COLOR_GET_B(c1) * mix + LV_COLOR_GET_B(c2) *
 465:Drivers/lvgl/src/extra/themes/mono/../../../../src/hal/../draw/../misc/lv_color.h ****                                    (255 - mix) + LV_COLOR_MIX_ROUND_OFS));
 466:Drivers/lvgl/src/extra/themes/mono/../../../../src/hal/../draw/../misc/lv_color.h ****     LV_COLOR_SET_A(ret, 0xFF);
 467:Drivers/lvgl/src/extra/themes/mono/../../../../src/hal/../draw/../misc/lv_color.h **** #else
 468:Drivers/lvgl/src/extra/themes/mono/../../../../src/hal/../draw/../misc/lv_color.h ****     /*LV_COLOR_DEPTH == 1*/
 469:Drivers/lvgl/src/extra/themes/mono/../../../../src/hal/../draw/../misc/lv_color.h ****     ret.full = mix > LV_OPA_50 ? c1.full : c2.full;
 470:Drivers/lvgl/src/extra/themes/mono/../../../../src/hal/../draw/../misc/lv_color.h **** #endif
 471:Drivers/lvgl/src/extra/themes/mono/../../../../src/hal/../draw/../misc/lv_color.h **** 
 472:Drivers/lvgl/src/extra/themes/mono/../../../../src/hal/../draw/../misc/lv_color.h ****     return ret;
 473:Drivers/lvgl/src/extra/themes/mono/../../../../src/hal/../draw/../misc/lv_color.h **** }
 474:Drivers/lvgl/src/extra/themes/mono/../../../../src/hal/../draw/../misc/lv_color.h **** 
 475:Drivers/lvgl/src/extra/themes/mono/../../../../src/hal/../draw/../misc/lv_color.h **** static inline void LV_ATTRIBUTE_FAST_MEM lv_color_premult(lv_color_t c, uint8_t mix, uint16_t * out
 476:Drivers/lvgl/src/extra/themes/mono/../../../../src/hal/../draw/../misc/lv_color.h **** {
 477:Drivers/lvgl/src/extra/themes/mono/../../../../src/hal/../draw/../misc/lv_color.h **** #if LV_COLOR_DEPTH != 1
 478:Drivers/lvgl/src/extra/themes/mono/../../../../src/hal/../draw/../misc/lv_color.h ****     out[0] = (uint16_t)LV_COLOR_GET_R(c) * mix;
 479:Drivers/lvgl/src/extra/themes/mono/../../../../src/hal/../draw/../misc/lv_color.h ****     out[1] = (uint16_t)LV_COLOR_GET_G(c) * mix;
 480:Drivers/lvgl/src/extra/themes/mono/../../../../src/hal/../draw/../misc/lv_color.h ****     out[2] = (uint16_t)LV_COLOR_GET_B(c) * mix;
 481:Drivers/lvgl/src/extra/themes/mono/../../../../src/hal/../draw/../misc/lv_color.h **** #else
 482:Drivers/lvgl/src/extra/themes/mono/../../../../src/hal/../draw/../misc/lv_color.h ****     (void) mix;
 483:Drivers/lvgl/src/extra/themes/mono/../../../../src/hal/../draw/../misc/lv_color.h ****     /*Pre-multiplication can't be used with 1 bpp*/
 484:Drivers/lvgl/src/extra/themes/mono/../../../../src/hal/../draw/../misc/lv_color.h ****     out[0] = LV_COLOR_GET_R(c);
 485:Drivers/lvgl/src/extra/themes/mono/../../../../src/hal/../draw/../misc/lv_color.h ****     out[1] = LV_COLOR_GET_G(c);
 486:Drivers/lvgl/src/extra/themes/mono/../../../../src/hal/../draw/../misc/lv_color.h ****     out[2] = LV_COLOR_GET_B(c);
 487:Drivers/lvgl/src/extra/themes/mono/../../../../src/hal/../draw/../misc/lv_color.h **** #endif
 488:Drivers/lvgl/src/extra/themes/mono/../../../../src/hal/../draw/../misc/lv_color.h **** 
 489:Drivers/lvgl/src/extra/themes/mono/../../../../src/hal/../draw/../misc/lv_color.h **** }
 490:Drivers/lvgl/src/extra/themes/mono/../../../../src/hal/../draw/../misc/lv_color.h **** 
 491:Drivers/lvgl/src/extra/themes/mono/../../../../src/hal/../draw/../misc/lv_color.h **** /**
 492:Drivers/lvgl/src/extra/themes/mono/../../../../src/hal/../draw/../misc/lv_color.h ****  * Mix two colors with a given ratio. It runs faster then `lv_color_mix` but requires some pre comp
 493:Drivers/lvgl/src/extra/themes/mono/../../../../src/hal/../draw/../misc/lv_color.h ****  * @param premult_c1 The first color. Should be preprocessed with `lv_color_premult(c1)`
 494:Drivers/lvgl/src/extra/themes/mono/../../../../src/hal/../draw/../misc/lv_color.h ****  * @param c2 The second color. As it is no pre computation required on it
 495:Drivers/lvgl/src/extra/themes/mono/../../../../src/hal/../draw/../misc/lv_color.h ****  * @param mix The ratio of the colors. 0: full `c1`, 255: full `c2`, 127: half `c1` and half `c2`.
 496:Drivers/lvgl/src/extra/themes/mono/../../../../src/hal/../draw/../misc/lv_color.h ****  *            Should be modified like mix = `255 - mix`
 497:Drivers/lvgl/src/extra/themes/mono/../../../../src/hal/../draw/../misc/lv_color.h ****  * @return the mixed color
 498:Drivers/lvgl/src/extra/themes/mono/../../../../src/hal/../draw/../misc/lv_color.h ****  * @note 255 won't give clearly `c1`.
 499:Drivers/lvgl/src/extra/themes/mono/../../../../src/hal/../draw/../misc/lv_color.h ****  */
ARM GAS  /var/folders/lp/x54gwt890xv47sdkqj1k04q40000gn/T//cc7THuQy.s 			page 72


 500:Drivers/lvgl/src/extra/themes/mono/../../../../src/hal/../draw/../misc/lv_color.h **** static inline lv_color_t LV_ATTRIBUTE_FAST_MEM lv_color_mix_premult(uint16_t * premult_c1, lv_color
 501:Drivers/lvgl/src/extra/themes/mono/../../../../src/hal/../draw/../misc/lv_color.h **** {
 502:Drivers/lvgl/src/extra/themes/mono/../../../../src/hal/../draw/../misc/lv_color.h ****     lv_color_t ret;
 503:Drivers/lvgl/src/extra/themes/mono/../../../../src/hal/../draw/../misc/lv_color.h **** #if LV_COLOR_DEPTH != 1
 504:Drivers/lvgl/src/extra/themes/mono/../../../../src/hal/../draw/../misc/lv_color.h ****     /*LV_COLOR_DEPTH == 8 or 32*/
 505:Drivers/lvgl/src/extra/themes/mono/../../../../src/hal/../draw/../misc/lv_color.h ****     LV_COLOR_SET_R(ret, LV_UDIV255(premult_c1[0] + LV_COLOR_GET_R(c2) * mix + LV_COLOR_MIX_ROUND_OF
 506:Drivers/lvgl/src/extra/themes/mono/../../../../src/hal/../draw/../misc/lv_color.h ****     LV_COLOR_SET_G(ret, LV_UDIV255(premult_c1[1] + LV_COLOR_GET_G(c2) * mix + LV_COLOR_MIX_ROUND_OF
 507:Drivers/lvgl/src/extra/themes/mono/../../../../src/hal/../draw/../misc/lv_color.h ****     LV_COLOR_SET_B(ret, LV_UDIV255(premult_c1[2] + LV_COLOR_GET_B(c2) * mix + LV_COLOR_MIX_ROUND_OF
 508:Drivers/lvgl/src/extra/themes/mono/../../../../src/hal/../draw/../misc/lv_color.h ****     LV_COLOR_SET_A(ret, 0xFF);
 509:Drivers/lvgl/src/extra/themes/mono/../../../../src/hal/../draw/../misc/lv_color.h **** #else
 510:Drivers/lvgl/src/extra/themes/mono/../../../../src/hal/../draw/../misc/lv_color.h ****     /*LV_COLOR_DEPTH == 1*/
 511:Drivers/lvgl/src/extra/themes/mono/../../../../src/hal/../draw/../misc/lv_color.h ****     /*Restore color1*/
 512:Drivers/lvgl/src/extra/themes/mono/../../../../src/hal/../draw/../misc/lv_color.h ****     lv_color_t c1;
 513:Drivers/lvgl/src/extra/themes/mono/../../../../src/hal/../draw/../misc/lv_color.h ****     LV_COLOR_SET_R(c1, premult_c1[0]);
 514:Drivers/lvgl/src/extra/themes/mono/../../../../src/hal/../draw/../misc/lv_color.h ****     LV_COLOR_SET_G(c1, premult_c1[1]);
 515:Drivers/lvgl/src/extra/themes/mono/../../../../src/hal/../draw/../misc/lv_color.h ****     LV_COLOR_SET_B(c1, premult_c1[2]);
 516:Drivers/lvgl/src/extra/themes/mono/../../../../src/hal/../draw/../misc/lv_color.h ****     ret.full = mix > LV_OPA_50 ? c2.full : c1.full;
 517:Drivers/lvgl/src/extra/themes/mono/../../../../src/hal/../draw/../misc/lv_color.h **** #endif
 518:Drivers/lvgl/src/extra/themes/mono/../../../../src/hal/../draw/../misc/lv_color.h **** 
 519:Drivers/lvgl/src/extra/themes/mono/../../../../src/hal/../draw/../misc/lv_color.h ****     return ret;
 520:Drivers/lvgl/src/extra/themes/mono/../../../../src/hal/../draw/../misc/lv_color.h **** }
 521:Drivers/lvgl/src/extra/themes/mono/../../../../src/hal/../draw/../misc/lv_color.h **** 
 522:Drivers/lvgl/src/extra/themes/mono/../../../../src/hal/../draw/../misc/lv_color.h **** /**
 523:Drivers/lvgl/src/extra/themes/mono/../../../../src/hal/../draw/../misc/lv_color.h ****  * Mix two colors. Both color can have alpha value.
 524:Drivers/lvgl/src/extra/themes/mono/../../../../src/hal/../draw/../misc/lv_color.h ****  * @param bg_color background color
 525:Drivers/lvgl/src/extra/themes/mono/../../../../src/hal/../draw/../misc/lv_color.h ****  * @param bg_opa alpha of the background color
 526:Drivers/lvgl/src/extra/themes/mono/../../../../src/hal/../draw/../misc/lv_color.h ****  * @param fg_color foreground color
 527:Drivers/lvgl/src/extra/themes/mono/../../../../src/hal/../draw/../misc/lv_color.h ****  * @param fg_opa alpha of the foreground color
 528:Drivers/lvgl/src/extra/themes/mono/../../../../src/hal/../draw/../misc/lv_color.h ****  * @param res_color the result color
 529:Drivers/lvgl/src/extra/themes/mono/../../../../src/hal/../draw/../misc/lv_color.h ****  * @param res_opa the result opacity
 530:Drivers/lvgl/src/extra/themes/mono/../../../../src/hal/../draw/../misc/lv_color.h ****  */
 531:Drivers/lvgl/src/extra/themes/mono/../../../../src/hal/../draw/../misc/lv_color.h **** static inline void LV_ATTRIBUTE_FAST_MEM lv_color_mix_with_alpha(lv_color_t bg_color, lv_opa_t bg_o
 532:Drivers/lvgl/src/extra/themes/mono/../../../../src/hal/../draw/../misc/lv_color.h ****                                                                  lv_color_t fg_color, lv_opa_t fg_o
 533:Drivers/lvgl/src/extra/themes/mono/../../../../src/hal/../draw/../misc/lv_color.h ****                                                                  lv_color_t * res_color, lv_opa_t *
 534:Drivers/lvgl/src/extra/themes/mono/../../../../src/hal/../draw/../misc/lv_color.h **** {
 535:Drivers/lvgl/src/extra/themes/mono/../../../../src/hal/../draw/../misc/lv_color.h ****     /*Pick the foreground if it's fully opaque or the Background is fully transparent*/
 536:Drivers/lvgl/src/extra/themes/mono/../../../../src/hal/../draw/../misc/lv_color.h ****     if(fg_opa >= LV_OPA_MAX || bg_opa <= LV_OPA_MIN) {
 537:Drivers/lvgl/src/extra/themes/mono/../../../../src/hal/../draw/../misc/lv_color.h ****         res_color->full = fg_color.full;
 538:Drivers/lvgl/src/extra/themes/mono/../../../../src/hal/../draw/../misc/lv_color.h ****         *res_opa = fg_opa;
 539:Drivers/lvgl/src/extra/themes/mono/../../../../src/hal/../draw/../misc/lv_color.h ****     }
 540:Drivers/lvgl/src/extra/themes/mono/../../../../src/hal/../draw/../misc/lv_color.h ****     /*Transparent foreground: use the Background*/
 541:Drivers/lvgl/src/extra/themes/mono/../../../../src/hal/../draw/../misc/lv_color.h ****     else if(fg_opa <= LV_OPA_MIN) {
 542:Drivers/lvgl/src/extra/themes/mono/../../../../src/hal/../draw/../misc/lv_color.h ****         res_color->full = bg_color.full;
 543:Drivers/lvgl/src/extra/themes/mono/../../../../src/hal/../draw/../misc/lv_color.h ****         *res_opa = bg_opa;
 544:Drivers/lvgl/src/extra/themes/mono/../../../../src/hal/../draw/../misc/lv_color.h ****     }
 545:Drivers/lvgl/src/extra/themes/mono/../../../../src/hal/../draw/../misc/lv_color.h ****     /*Opaque background: use simple mix*/
 546:Drivers/lvgl/src/extra/themes/mono/../../../../src/hal/../draw/../misc/lv_color.h ****     else if(bg_opa >= LV_OPA_MAX) {
 547:Drivers/lvgl/src/extra/themes/mono/../../../../src/hal/../draw/../misc/lv_color.h ****         *res_color = lv_color_mix(fg_color, bg_color, fg_opa);
 548:Drivers/lvgl/src/extra/themes/mono/../../../../src/hal/../draw/../misc/lv_color.h ****         *res_opa = LV_OPA_COVER;
 549:Drivers/lvgl/src/extra/themes/mono/../../../../src/hal/../draw/../misc/lv_color.h ****     }
 550:Drivers/lvgl/src/extra/themes/mono/../../../../src/hal/../draw/../misc/lv_color.h ****     /*Both colors have alpha. Expensive calculation need to be applied*/
 551:Drivers/lvgl/src/extra/themes/mono/../../../../src/hal/../draw/../misc/lv_color.h ****     else {
 552:Drivers/lvgl/src/extra/themes/mono/../../../../src/hal/../draw/../misc/lv_color.h ****         /*Save the parameters and the result. If they will be asked again don't compute again*/
 553:Drivers/lvgl/src/extra/themes/mono/../../../../src/hal/../draw/../misc/lv_color.h ****         static lv_opa_t fg_opa_save     = 0;
 554:Drivers/lvgl/src/extra/themes/mono/../../../../src/hal/../draw/../misc/lv_color.h ****         static lv_opa_t bg_opa_save     = 0;
 555:Drivers/lvgl/src/extra/themes/mono/../../../../src/hal/../draw/../misc/lv_color.h ****         static lv_color_t fg_color_save = _LV_COLOR_ZERO_INITIALIZER;
 556:Drivers/lvgl/src/extra/themes/mono/../../../../src/hal/../draw/../misc/lv_color.h ****         static lv_color_t bg_color_save = _LV_COLOR_ZERO_INITIALIZER;
ARM GAS  /var/folders/lp/x54gwt890xv47sdkqj1k04q40000gn/T//cc7THuQy.s 			page 73


 557:Drivers/lvgl/src/extra/themes/mono/../../../../src/hal/../draw/../misc/lv_color.h ****         static lv_color_t res_color_saved = _LV_COLOR_ZERO_INITIALIZER;
 558:Drivers/lvgl/src/extra/themes/mono/../../../../src/hal/../draw/../misc/lv_color.h ****         static lv_opa_t res_opa_saved = 0;
 559:Drivers/lvgl/src/extra/themes/mono/../../../../src/hal/../draw/../misc/lv_color.h **** 
 560:Drivers/lvgl/src/extra/themes/mono/../../../../src/hal/../draw/../misc/lv_color.h ****         if(fg_opa != fg_opa_save || bg_opa != bg_opa_save || fg_color.full != fg_color_save.full ||
 561:Drivers/lvgl/src/extra/themes/mono/../../../../src/hal/../draw/../misc/lv_color.h ****            bg_color.full != bg_color_save.full) {
 562:Drivers/lvgl/src/extra/themes/mono/../../../../src/hal/../draw/../misc/lv_color.h ****             fg_opa_save        = fg_opa;
 563:Drivers/lvgl/src/extra/themes/mono/../../../../src/hal/../draw/../misc/lv_color.h ****             bg_opa_save        = bg_opa;
 564:Drivers/lvgl/src/extra/themes/mono/../../../../src/hal/../draw/../misc/lv_color.h ****             fg_color_save.full = fg_color.full;
 565:Drivers/lvgl/src/extra/themes/mono/../../../../src/hal/../draw/../misc/lv_color.h ****             bg_color_save.full = bg_color.full;
 566:Drivers/lvgl/src/extra/themes/mono/../../../../src/hal/../draw/../misc/lv_color.h ****             /*Info:
 567:Drivers/lvgl/src/extra/themes/mono/../../../../src/hal/../draw/../misc/lv_color.h ****              * https://en.wikipedia.org/wiki/Alpha_compositing#Analytical_derivation_of_the_over_op
 568:Drivers/lvgl/src/extra/themes/mono/../../../../src/hal/../draw/../misc/lv_color.h ****             res_opa_saved = 255 - ((uint16_t)((uint16_t)(255 - fg_opa) * (255 - bg_opa)) >> 8);
 569:Drivers/lvgl/src/extra/themes/mono/../../../../src/hal/../draw/../misc/lv_color.h ****             LV_ASSERT(res_opa_saved != 0);
 570:Drivers/lvgl/src/extra/themes/mono/../../../../src/hal/../draw/../misc/lv_color.h ****             lv_opa_t ratio = (uint16_t)((uint16_t)fg_opa * 255) / res_opa_saved;
 571:Drivers/lvgl/src/extra/themes/mono/../../../../src/hal/../draw/../misc/lv_color.h ****             res_color_saved = lv_color_mix(fg_color, bg_color, ratio);
 572:Drivers/lvgl/src/extra/themes/mono/../../../../src/hal/../draw/../misc/lv_color.h **** 
 573:Drivers/lvgl/src/extra/themes/mono/../../../../src/hal/../draw/../misc/lv_color.h ****         }
 574:Drivers/lvgl/src/extra/themes/mono/../../../../src/hal/../draw/../misc/lv_color.h **** 
 575:Drivers/lvgl/src/extra/themes/mono/../../../../src/hal/../draw/../misc/lv_color.h ****         res_color->full = res_color_saved.full;
 576:Drivers/lvgl/src/extra/themes/mono/../../../../src/hal/../draw/../misc/lv_color.h ****         *res_opa = res_opa_saved;
 577:Drivers/lvgl/src/extra/themes/mono/../../../../src/hal/../draw/../misc/lv_color.h ****     }
 578:Drivers/lvgl/src/extra/themes/mono/../../../../src/hal/../draw/../misc/lv_color.h **** }
 579:Drivers/lvgl/src/extra/themes/mono/../../../../src/hal/../draw/../misc/lv_color.h **** 
 580:Drivers/lvgl/src/extra/themes/mono/../../../../src/hal/../draw/../misc/lv_color.h **** //! @endcond
 581:Drivers/lvgl/src/extra/themes/mono/../../../../src/hal/../draw/../misc/lv_color.h **** 
 582:Drivers/lvgl/src/extra/themes/mono/../../../../src/hal/../draw/../misc/lv_color.h **** /**
 583:Drivers/lvgl/src/extra/themes/mono/../../../../src/hal/../draw/../misc/lv_color.h ****  * Get the brightness of a color
 584:Drivers/lvgl/src/extra/themes/mono/../../../../src/hal/../draw/../misc/lv_color.h ****  * @param color a color
 585:Drivers/lvgl/src/extra/themes/mono/../../../../src/hal/../draw/../misc/lv_color.h ****  * @return the brightness [0..255]
 586:Drivers/lvgl/src/extra/themes/mono/../../../../src/hal/../draw/../misc/lv_color.h ****  */
 587:Drivers/lvgl/src/extra/themes/mono/../../../../src/hal/../draw/../misc/lv_color.h **** static inline uint8_t lv_color_brightness(lv_color_t color)
 588:Drivers/lvgl/src/extra/themes/mono/../../../../src/hal/../draw/../misc/lv_color.h **** {
 589:Drivers/lvgl/src/extra/themes/mono/../../../../src/hal/../draw/../misc/lv_color.h ****     lv_color32_t c32;
 590:Drivers/lvgl/src/extra/themes/mono/../../../../src/hal/../draw/../misc/lv_color.h ****     c32.full        = lv_color_to32(color);
 591:Drivers/lvgl/src/extra/themes/mono/../../../../src/hal/../draw/../misc/lv_color.h ****     uint16_t bright = (uint16_t)(3u * LV_COLOR_GET_R32(c32) + LV_COLOR_GET_B32(c32) + 4u * LV_COLOR
 592:Drivers/lvgl/src/extra/themes/mono/../../../../src/hal/../draw/../misc/lv_color.h ****     return (uint8_t)(bright >> 3);
 593:Drivers/lvgl/src/extra/themes/mono/../../../../src/hal/../draw/../misc/lv_color.h **** }
 594:Drivers/lvgl/src/extra/themes/mono/../../../../src/hal/../draw/../misc/lv_color.h **** 
 595:Drivers/lvgl/src/extra/themes/mono/../../../../src/hal/../draw/../misc/lv_color.h **** static inline lv_color_t lv_color_make(uint8_t r, uint8_t g, uint8_t b)
 596:Drivers/lvgl/src/extra/themes/mono/../../../../src/hal/../draw/../misc/lv_color.h **** {
 597:Drivers/lvgl/src/extra/themes/mono/../../../../src/hal/../draw/../misc/lv_color.h ****     return _LV_COLOR_MAKE_TYPE_HELPER LV_COLOR_MAKE(r, g, b);
 598:Drivers/lvgl/src/extra/themes/mono/../../../../src/hal/../draw/../misc/lv_color.h **** }
 599:Drivers/lvgl/src/extra/themes/mono/../../../../src/hal/../draw/../misc/lv_color.h **** 
 600:Drivers/lvgl/src/extra/themes/mono/../../../../src/hal/../draw/../misc/lv_color.h **** static inline lv_color_t lv_color_hex(uint32_t c)
 601:Drivers/lvgl/src/extra/themes/mono/../../../../src/hal/../draw/../misc/lv_color.h **** {
 602:Drivers/lvgl/src/extra/themes/mono/../../../../src/hal/../draw/../misc/lv_color.h **** #if LV_COLOR_DEPTH == 16
 603:Drivers/lvgl/src/extra/themes/mono/../../../../src/hal/../draw/../misc/lv_color.h ****     lv_color_t r;
 604:Drivers/lvgl/src/extra/themes/mono/../../../../src/hal/../draw/../misc/lv_color.h **** #if LV_COLOR_16_SWAP == 0
 605:Drivers/lvgl/src/extra/themes/mono/../../../../src/hal/../draw/../misc/lv_color.h ****     /* Convert a 4 bytes per pixel in format ARGB32 to R5G6B5 format
 606:Drivers/lvgl/src/extra/themes/mono/../../../../src/hal/../draw/../misc/lv_color.h ****         naive way (by calling lv_color_make with components):
 607:Drivers/lvgl/src/extra/themes/mono/../../../../src/hal/../draw/../misc/lv_color.h ****                     r = ((c & 0xFF0000) >> 19)
 608:Drivers/lvgl/src/extra/themes/mono/../../../../src/hal/../draw/../misc/lv_color.h ****                     g = ((c & 0xFF00) >> 10)
 609:Drivers/lvgl/src/extra/themes/mono/../../../../src/hal/../draw/../misc/lv_color.h ****                     b = ((c & 0xFF) >> 3)
 610:Drivers/lvgl/src/extra/themes/mono/../../../../src/hal/../draw/../misc/lv_color.h ****                     rgb565 = (r << 11) | (g << 5) | b
 611:Drivers/lvgl/src/extra/themes/mono/../../../../src/hal/../draw/../misc/lv_color.h ****         That's 3 mask, 5 bitshift and 2 or operations
 612:Drivers/lvgl/src/extra/themes/mono/../../../../src/hal/../draw/../misc/lv_color.h **** 
 613:Drivers/lvgl/src/extra/themes/mono/../../../../src/hal/../draw/../misc/lv_color.h ****         A bit better:
ARM GAS  /var/folders/lp/x54gwt890xv47sdkqj1k04q40000gn/T//cc7THuQy.s 			page 74


 614:Drivers/lvgl/src/extra/themes/mono/../../../../src/hal/../draw/../misc/lv_color.h ****                     r = ((c & 0xF80000) >> 8)
 615:Drivers/lvgl/src/extra/themes/mono/../../../../src/hal/../draw/../misc/lv_color.h ****                     g = ((c & 0xFC00) >> 5)
 616:Drivers/lvgl/src/extra/themes/mono/../../../../src/hal/../draw/../misc/lv_color.h ****                     b = ((c & 0xFF) >> 3)
 617:Drivers/lvgl/src/extra/themes/mono/../../../../src/hal/../draw/../misc/lv_color.h ****                     rgb565 = r | g | b
 618:Drivers/lvgl/src/extra/themes/mono/../../../../src/hal/../draw/../misc/lv_color.h ****         That's 3 mask, 3 bitshifts and 2 or operations */
 619:Drivers/lvgl/src/extra/themes/mono/../../../../src/hal/../draw/../misc/lv_color.h ****     r.full = (uint16_t)(((c & 0xF80000) >> 8) | ((c & 0xFC00) >> 5) | ((c & 0xFF) >> 3));
 620:Drivers/lvgl/src/extra/themes/mono/../../../../src/hal/../draw/../misc/lv_color.h **** #else
 621:Drivers/lvgl/src/extra/themes/mono/../../../../src/hal/../draw/../misc/lv_color.h ****     /* We want: rrrr rrrr GGGg gggg bbbb bbbb => gggb bbbb rrrr rGGG */
 622:Drivers/lvgl/src/extra/themes/mono/../../../../src/hal/../draw/../misc/lv_color.h ****     r.full = (uint16_t)(((c & 0xF80000) >> 16) | ((c & 0xFC00) >> 13) | ((c & 0x1C00) << 3) | ((c &
 623:Drivers/lvgl/src/extra/themes/mono/../../../../src/hal/../draw/../misc/lv_color.h **** #endif
 624:Drivers/lvgl/src/extra/themes/mono/../../../../src/hal/../draw/../misc/lv_color.h ****     return r;
 625:Drivers/lvgl/src/extra/themes/mono/../../../../src/hal/../draw/../misc/lv_color.h **** #elif LV_COLOR_DEPTH == 32
 626:Drivers/lvgl/src/extra/themes/mono/../../../../src/hal/../draw/../misc/lv_color.h ****     lv_color_t r;
 627:Drivers/lvgl/src/extra/themes/mono/../../../../src/hal/../draw/../misc/lv_color.h ****     r.full = c | 0xFF000000;
 628:Drivers/lvgl/src/extra/themes/mono/../../../../src/hal/../draw/../misc/lv_color.h ****     return r;
 629:Drivers/lvgl/src/extra/themes/mono/../../../../src/hal/../draw/../misc/lv_color.h **** #else /*LV_COLOR_DEPTH == 8*/
 630:Drivers/lvgl/src/extra/themes/mono/../../../../src/hal/../draw/../misc/lv_color.h ****     return lv_color_make((uint8_t)((c >> 16) & 0xFF), (uint8_t)((c >> 8) & 0xFF), (uint8_t)(c & 0xF
 631:Drivers/lvgl/src/extra/themes/mono/../../../../src/hal/../draw/../misc/lv_color.h **** #endif
 632:Drivers/lvgl/src/extra/themes/mono/../../../../src/hal/../draw/../misc/lv_color.h **** }
 633:Drivers/lvgl/src/extra/themes/mono/../../../../src/hal/../draw/../misc/lv_color.h **** 
 634:Drivers/lvgl/src/extra/themes/mono/../../../../src/hal/../draw/../misc/lv_color.h **** static inline lv_color_t lv_color_hex3(uint32_t c)
 635:Drivers/lvgl/src/extra/themes/mono/../../../../src/hal/../draw/../misc/lv_color.h **** {
 636:Drivers/lvgl/src/extra/themes/mono/../../../../src/hal/../draw/../misc/lv_color.h ****     return lv_color_make((uint8_t)(((c >> 4) & 0xF0) | ((c >> 8) & 0xF)), (uint8_t)((c & 0xF0) | ((
 637:Drivers/lvgl/src/extra/themes/mono/../../../../src/hal/../draw/../misc/lv_color.h ****                          (uint8_t)((c & 0xF) | ((c & 0xF) << 4)));
 638:Drivers/lvgl/src/extra/themes/mono/../../../../src/hal/../draw/../misc/lv_color.h **** }
 639:Drivers/lvgl/src/extra/themes/mono/../../../../src/hal/../draw/../misc/lv_color.h **** 
 640:Drivers/lvgl/src/extra/themes/mono/../../../../src/hal/../draw/../misc/lv_color.h **** static inline void lv_color_filter_dsc_init(lv_color_filter_dsc_t * dsc, lv_color_filter_cb_t cb)
 641:Drivers/lvgl/src/extra/themes/mono/../../../../src/hal/../draw/../misc/lv_color.h **** {
 642:Drivers/lvgl/src/extra/themes/mono/../../../../src/hal/../draw/../misc/lv_color.h ****     dsc->filter_cb = cb;
 643:Drivers/lvgl/src/extra/themes/mono/../../../../src/hal/../draw/../misc/lv_color.h **** }
 644:Drivers/lvgl/src/extra/themes/mono/../../../../src/hal/../draw/../misc/lv_color.h **** 
 645:Drivers/lvgl/src/extra/themes/mono/../../../../src/hal/../draw/../misc/lv_color.h **** //! @cond Doxygen_Suppress
 646:Drivers/lvgl/src/extra/themes/mono/../../../../src/hal/../draw/../misc/lv_color.h **** //!
 647:Drivers/lvgl/src/extra/themes/mono/../../../../src/hal/../draw/../misc/lv_color.h **** void /* LV_ATTRIBUTE_FAST_MEM */ lv_color_fill(lv_color_t * buf, lv_color_t color, uint32_t px_num)
 648:Drivers/lvgl/src/extra/themes/mono/../../../../src/hal/../draw/../misc/lv_color.h **** 
 649:Drivers/lvgl/src/extra/themes/mono/../../../../src/hal/../draw/../misc/lv_color.h **** //! @endcond
 650:Drivers/lvgl/src/extra/themes/mono/../../../../src/hal/../draw/../misc/lv_color.h **** lv_color_t lv_color_lighten(lv_color_t c, lv_opa_t lvl);
 651:Drivers/lvgl/src/extra/themes/mono/../../../../src/hal/../draw/../misc/lv_color.h **** 
 652:Drivers/lvgl/src/extra/themes/mono/../../../../src/hal/../draw/../misc/lv_color.h **** lv_color_t lv_color_darken(lv_color_t c, lv_opa_t lvl);
 653:Drivers/lvgl/src/extra/themes/mono/../../../../src/hal/../draw/../misc/lv_color.h **** 
 654:Drivers/lvgl/src/extra/themes/mono/../../../../src/hal/../draw/../misc/lv_color.h **** lv_color_t lv_color_change_lightness(lv_color_t c, lv_opa_t lvl);
 655:Drivers/lvgl/src/extra/themes/mono/../../../../src/hal/../draw/../misc/lv_color.h **** 
 656:Drivers/lvgl/src/extra/themes/mono/../../../../src/hal/../draw/../misc/lv_color.h **** /**
 657:Drivers/lvgl/src/extra/themes/mono/../../../../src/hal/../draw/../misc/lv_color.h ****  * Convert a HSV color to RGB
 658:Drivers/lvgl/src/extra/themes/mono/../../../../src/hal/../draw/../misc/lv_color.h ****  * @param h hue [0..359]
 659:Drivers/lvgl/src/extra/themes/mono/../../../../src/hal/../draw/../misc/lv_color.h ****  * @param s saturation [0..100]
 660:Drivers/lvgl/src/extra/themes/mono/../../../../src/hal/../draw/../misc/lv_color.h ****  * @param v value [0..100]
 661:Drivers/lvgl/src/extra/themes/mono/../../../../src/hal/../draw/../misc/lv_color.h ****  * @return the given RGB color in RGB (with LV_COLOR_DEPTH depth)
 662:Drivers/lvgl/src/extra/themes/mono/../../../../src/hal/../draw/../misc/lv_color.h ****  */
 663:Drivers/lvgl/src/extra/themes/mono/../../../../src/hal/../draw/../misc/lv_color.h **** lv_color_t lv_color_hsv_to_rgb(uint16_t h, uint8_t s, uint8_t v);
 664:Drivers/lvgl/src/extra/themes/mono/../../../../src/hal/../draw/../misc/lv_color.h **** 
 665:Drivers/lvgl/src/extra/themes/mono/../../../../src/hal/../draw/../misc/lv_color.h **** /**
 666:Drivers/lvgl/src/extra/themes/mono/../../../../src/hal/../draw/../misc/lv_color.h ****  * Convert a 32-bit RGB color to HSV
 667:Drivers/lvgl/src/extra/themes/mono/../../../../src/hal/../draw/../misc/lv_color.h ****  * @param r8 8-bit red
 668:Drivers/lvgl/src/extra/themes/mono/../../../../src/hal/../draw/../misc/lv_color.h ****  * @param g8 8-bit green
 669:Drivers/lvgl/src/extra/themes/mono/../../../../src/hal/../draw/../misc/lv_color.h ****  * @param b8 8-bit blue
 670:Drivers/lvgl/src/extra/themes/mono/../../../../src/hal/../draw/../misc/lv_color.h ****  * @return the given RGB color in HSV
ARM GAS  /var/folders/lp/x54gwt890xv47sdkqj1k04q40000gn/T//cc7THuQy.s 			page 75


 671:Drivers/lvgl/src/extra/themes/mono/../../../../src/hal/../draw/../misc/lv_color.h ****  */
 672:Drivers/lvgl/src/extra/themes/mono/../../../../src/hal/../draw/../misc/lv_color.h **** lv_color_hsv_t lv_color_rgb_to_hsv(uint8_t r8, uint8_t g8, uint8_t b8);
 673:Drivers/lvgl/src/extra/themes/mono/../../../../src/hal/../draw/../misc/lv_color.h **** 
 674:Drivers/lvgl/src/extra/themes/mono/../../../../src/hal/../draw/../misc/lv_color.h **** /**
 675:Drivers/lvgl/src/extra/themes/mono/../../../../src/hal/../draw/../misc/lv_color.h ****  * Convert a color to HSV
 676:Drivers/lvgl/src/extra/themes/mono/../../../../src/hal/../draw/../misc/lv_color.h ****  * @param color color
 677:Drivers/lvgl/src/extra/themes/mono/../../../../src/hal/../draw/../misc/lv_color.h ****  * @return the given color in HSV
 678:Drivers/lvgl/src/extra/themes/mono/../../../../src/hal/../draw/../misc/lv_color.h ****  */
 679:Drivers/lvgl/src/extra/themes/mono/../../../../src/hal/../draw/../misc/lv_color.h **** lv_color_hsv_t lv_color_to_hsv(lv_color_t color);
 680:Drivers/lvgl/src/extra/themes/mono/../../../../src/hal/../draw/../misc/lv_color.h **** 
 681:Drivers/lvgl/src/extra/themes/mono/../../../../src/hal/../draw/../misc/lv_color.h **** /**
 682:Drivers/lvgl/src/extra/themes/mono/../../../../src/hal/../draw/../misc/lv_color.h ****  * Just a wrapper around LV_COLOR_CHROMA_KEY because it might be more convenient to use a function 
 683:Drivers/lvgl/src/extra/themes/mono/../../../../src/hal/../draw/../misc/lv_color.h ****  * @return LV_COLOR_CHROMA_KEY
 684:Drivers/lvgl/src/extra/themes/mono/../../../../src/hal/../draw/../misc/lv_color.h ****  */
 685:Drivers/lvgl/src/extra/themes/mono/../../../../src/hal/../draw/../misc/lv_color.h **** static inline lv_color_t lv_color_chroma_key(void)
 686:Drivers/lvgl/src/extra/themes/mono/../../../../src/hal/../draw/../misc/lv_color.h **** {
 687:Drivers/lvgl/src/extra/themes/mono/../../../../src/hal/../draw/../misc/lv_color.h ****     return LV_COLOR_CHROMA_KEY;
 688:Drivers/lvgl/src/extra/themes/mono/../../../../src/hal/../draw/../misc/lv_color.h **** }
 689:Drivers/lvgl/src/extra/themes/mono/../../../../src/hal/../draw/../misc/lv_color.h **** 
 690:Drivers/lvgl/src/extra/themes/mono/../../../../src/hal/../draw/../misc/lv_color.h **** /**********************
 691:Drivers/lvgl/src/extra/themes/mono/../../../../src/hal/../draw/../misc/lv_color.h ****  *  PREDEFINED COLORS
 692:Drivers/lvgl/src/extra/themes/mono/../../../../src/hal/../draw/../misc/lv_color.h ****  **********************/
 693:Drivers/lvgl/src/extra/themes/mono/../../../../src/hal/../draw/../misc/lv_color.h **** /*Source: https://vuetifyjs.com/en/styles/colors/#material-colors*/
 694:Drivers/lvgl/src/extra/themes/mono/../../../../src/hal/../draw/../misc/lv_color.h **** 
 695:Drivers/lvgl/src/extra/themes/mono/../../../../src/hal/../draw/../misc/lv_color.h **** lv_color_t lv_palette_main(lv_palette_t p);
 696:Drivers/lvgl/src/extra/themes/mono/../../../../src/hal/../draw/../misc/lv_color.h **** static inline lv_color_t lv_color_white(void)
 1956              		.loc 3 696 26 is_stmt 1 view .LVU577
 1957              	.LBB138:
 697:Drivers/lvgl/src/extra/themes/mono/../../../../src/hal/../draw/../misc/lv_color.h **** {
 698:Drivers/lvgl/src/extra/themes/mono/../../../../src/hal/../draw/../misc/lv_color.h ****     return lv_color_make(0xff, 0xff, 0xff);
 1958              		.loc 3 698 5 view .LVU578
 1959              	.LVL209:
 1960              	.LBB139:
 1961              	.LBI139:
 595:Drivers/lvgl/src/extra/themes/mono/../../../../src/hal/../draw/../misc/lv_color.h **** {
 1962              		.loc 3 595 26 view .LVU579
 1963              	.LBB140:
 597:Drivers/lvgl/src/extra/themes/mono/../../../../src/hal/../draw/../misc/lv_color.h **** }
 1964              		.loc 3 597 5 view .LVU580
 597:Drivers/lvgl/src/extra/themes/mono/../../../../src/hal/../draw/../misc/lv_color.h **** }
 1965              		.loc 3 597 5 is_stmt 0 view .LVU581
 1966 0024 4FF0FF31 		mov	r1, #-1	@ movhi
 1967              	.L60:
 1968              	.LBE140:
 1969              	.LBE139:
 1970              	.LBE138:
 1971              	.LBE137:
  81:Drivers/lvgl/src/extra/themes/mono/lv_theme_mono.c ****     lv_style_set_width(&styles->scrollbar,  PAD_DEF);
 1972              		.loc 1 81 5 discriminator 4 view .LVU582
 1973 0028 FFF7FEFF 		bl	lv_style_set_bg_color
 1974              	.LVL210:
  82:Drivers/lvgl/src/extra/themes/mono/lv_theme_mono.c **** 
 1975              		.loc 1 82 5 is_stmt 1 view .LVU583
  82:Drivers/lvgl/src/extra/themes/mono/lv_theme_mono.c **** 
 1976              		.loc 1 82 31 is_stmt 0 view .LVU584
 1977 002c C54C     		ldr	r4, .L92
 1978 002e 2068     		ldr	r0, [r4]
ARM GAS  /var/folders/lp/x54gwt890xv47sdkqj1k04q40000gn/T//cc7THuQy.s 			page 76


  82:Drivers/lvgl/src/extra/themes/mono/lv_theme_mono.c **** 
 1979              		.loc 1 82 5 view .LVU585
 1980 0030 0421     		movs	r1, #4
 1981 0032 1030     		adds	r0, r0, #16
 1982 0034 FFF7FEFF 		bl	lv_style_set_width
 1983              	.LVL211:
  84:Drivers/lvgl/src/extra/themes/mono/lv_theme_mono.c ****     lv_style_set_bg_opa(&styles->scr, LV_OPA_COVER);
 1984              		.loc 1 84 5 is_stmt 1 view .LVU586
 1985 0038 2068     		ldr	r0, [r4]
 1986 003a FFF7FEFF 		bl	style_init_reset
 1987              	.LVL212:
  85:Drivers/lvgl/src/extra/themes/mono/lv_theme_mono.c ****     lv_style_set_bg_color(&styles->scr, COLOR_BG);
 1988              		.loc 1 85 5 view .LVU587
 1989 003e FF21     		movs	r1, #255
 1990 0040 2068     		ldr	r0, [r4]
 1991 0042 FFF7FEFF 		bl	lv_style_set_bg_opa
 1992              	.LVL213:
  86:Drivers/lvgl/src/extra/themes/mono/lv_theme_mono.c ****     lv_style_set_text_color(&styles->scr, COLOR_FG);
 1993              		.loc 1 86 5 view .LVU588
  86:Drivers/lvgl/src/extra/themes/mono/lv_theme_mono.c ****     lv_style_set_text_color(&styles->scr, COLOR_FG);
 1994              		.loc 1 86 34 is_stmt 0 view .LVU589
 1995 0046 2068     		ldr	r0, [r4]
  86:Drivers/lvgl/src/extra/themes/mono/lv_theme_mono.c ****     lv_style_set_text_color(&styles->scr, COLOR_FG);
 1996              		.loc 1 86 5 view .LVU590
 1997 0048 002D     		cmp	r5, #0
 1998 004a 00F0A281 		beq	.L61
 1999              	.LBB141:
 2000              	.LBI141:
 699:Drivers/lvgl/src/extra/themes/mono/../../../../src/hal/../draw/../misc/lv_color.h **** }
 700:Drivers/lvgl/src/extra/themes/mono/../../../../src/hal/../draw/../misc/lv_color.h **** static inline lv_color_t lv_color_black(void)
 2001              		.loc 3 700 26 is_stmt 1 view .LVU591
 2002              	.LBB142:
 701:Drivers/lvgl/src/extra/themes/mono/../../../../src/hal/../draw/../misc/lv_color.h **** {
 702:Drivers/lvgl/src/extra/themes/mono/../../../../src/hal/../draw/../misc/lv_color.h ****     return lv_color_make(0x00, 0x0, 0x00);
 2003              		.loc 3 702 5 view .LVU592
 2004              	.LVL214:
 2005              	.LBB143:
 2006              	.LBI143:
 595:Drivers/lvgl/src/extra/themes/mono/../../../../src/hal/../draw/../misc/lv_color.h **** {
 2007              		.loc 3 595 26 view .LVU593
 2008              	.LBB144:
 597:Drivers/lvgl/src/extra/themes/mono/../../../../src/hal/../draw/../misc/lv_color.h **** }
 2009              		.loc 3 597 5 view .LVU594
 597:Drivers/lvgl/src/extra/themes/mono/../../../../src/hal/../draw/../misc/lv_color.h **** }
 2010              		.loc 3 597 12 is_stmt 0 view .LVU595
 2011 004e 4FF00003 		mov	r3, #0	@ movhi
 2012 0052 23F00703 		bic	r3, r3, #7
 2013 0056 23F0F803 		bic	r3, r3, #248
 2014 005a 23F4F853 		bic	r3, r3, #7936
 2015 005e 23F46043 		bic	r3, r3, #57344
 2016              	.LVL215:
 597:Drivers/lvgl/src/extra/themes/mono/../../../../src/hal/../draw/../misc/lv_color.h **** }
 2017              		.loc 3 597 12 view .LVU596
 2018 0062 1946     		mov	r1, r3	@ movhi
 2019              	.L62:
 2020              	.LBE144:
 2021              	.LBE143:
ARM GAS  /var/folders/lp/x54gwt890xv47sdkqj1k04q40000gn/T//cc7THuQy.s 			page 77


 2022              	.LBE142:
 2023              	.LBE141:
  86:Drivers/lvgl/src/extra/themes/mono/lv_theme_mono.c ****     lv_style_set_text_color(&styles->scr, COLOR_FG);
 2024              		.loc 1 86 5 discriminator 4 view .LVU597
 2025 0064 FFF7FEFF 		bl	lv_style_set_bg_color
 2026              	.LVL216:
  87:Drivers/lvgl/src/extra/themes/mono/lv_theme_mono.c ****     lv_style_set_pad_row(&styles->scr, PAD_DEF);
 2027              		.loc 1 87 5 is_stmt 1 view .LVU598
  87:Drivers/lvgl/src/extra/themes/mono/lv_theme_mono.c ****     lv_style_set_pad_row(&styles->scr, PAD_DEF);
 2028              		.loc 1 87 36 is_stmt 0 view .LVU599
 2029 0068 B64B     		ldr	r3, .L92
 2030 006a 1868     		ldr	r0, [r3]
  87:Drivers/lvgl/src/extra/themes/mono/lv_theme_mono.c ****     lv_style_set_pad_row(&styles->scr, PAD_DEF);
 2031              		.loc 1 87 5 view .LVU600
 2032 006c 002D     		cmp	r5, #0
 2033 006e 00F09381 		beq	.L63
 2034              	.LBB145:
 2035              	.LBI145:
 696:Drivers/lvgl/src/extra/themes/mono/../../../../src/hal/../draw/../misc/lv_color.h **** {
 2036              		.loc 3 696 26 is_stmt 1 view .LVU601
 2037              	.LBB146:
 698:Drivers/lvgl/src/extra/themes/mono/../../../../src/hal/../draw/../misc/lv_color.h **** }
 2038              		.loc 3 698 5 view .LVU602
 2039              	.LVL217:
 2040              	.LBB147:
 2041              	.LBI147:
 595:Drivers/lvgl/src/extra/themes/mono/../../../../src/hal/../draw/../misc/lv_color.h **** {
 2042              		.loc 3 595 26 view .LVU603
 2043              	.LBB148:
 597:Drivers/lvgl/src/extra/themes/mono/../../../../src/hal/../draw/../misc/lv_color.h **** }
 2044              		.loc 3 597 5 view .LVU604
 597:Drivers/lvgl/src/extra/themes/mono/../../../../src/hal/../draw/../misc/lv_color.h **** }
 2045              		.loc 3 597 5 is_stmt 0 view .LVU605
 2046 0072 4FF0FF31 		mov	r1, #-1	@ movhi
 2047              	.L64:
 2048              	.LBE148:
 2049              	.LBE147:
 2050              	.LBE146:
 2051              	.LBE145:
  87:Drivers/lvgl/src/extra/themes/mono/lv_theme_mono.c ****     lv_style_set_pad_row(&styles->scr, PAD_DEF);
 2052              		.loc 1 87 5 discriminator 4 view .LVU606
 2053 0076 FFF7FEFF 		bl	lv_style_set_text_color
 2054              	.LVL218:
  88:Drivers/lvgl/src/extra/themes/mono/lv_theme_mono.c ****     lv_style_set_pad_column(&styles->scr, PAD_DEF);
 2055              		.loc 1 88 5 is_stmt 1 view .LVU607
  88:Drivers/lvgl/src/extra/themes/mono/lv_theme_mono.c ****     lv_style_set_pad_column(&styles->scr, PAD_DEF);
 2056              		.loc 1 88 33 is_stmt 0 view .LVU608
 2057 007a B24C     		ldr	r4, .L92
  88:Drivers/lvgl/src/extra/themes/mono/lv_theme_mono.c ****     lv_style_set_pad_column(&styles->scr, PAD_DEF);
 2058              		.loc 1 88 5 view .LVU609
 2059 007c 0421     		movs	r1, #4
 2060 007e 2068     		ldr	r0, [r4]
 2061 0080 FFF7FEFF 		bl	lv_style_set_pad_row
 2062              	.LVL219:
  89:Drivers/lvgl/src/extra/themes/mono/lv_theme_mono.c ****     lv_style_set_text_font(&styles->scr, font);
 2063              		.loc 1 89 5 is_stmt 1 view .LVU610
 2064 0084 0421     		movs	r1, #4
ARM GAS  /var/folders/lp/x54gwt890xv47sdkqj1k04q40000gn/T//cc7THuQy.s 			page 78


 2065 0086 2068     		ldr	r0, [r4]
 2066 0088 FFF7FEFF 		bl	lv_style_set_pad_column
 2067              	.LVL220:
  90:Drivers/lvgl/src/extra/themes/mono/lv_theme_mono.c **** 
 2068              		.loc 1 90 5 view .LVU611
 2069 008c 3146     		mov	r1, r6
 2070 008e 2068     		ldr	r0, [r4]
 2071 0090 FFF7FEFF 		bl	lv_style_set_text_font
 2072              	.LVL221:
  92:Drivers/lvgl/src/extra/themes/mono/lv_theme_mono.c ****     lv_style_set_bg_opa(&styles->card, LV_OPA_COVER);
 2073              		.loc 1 92 5 view .LVU612
  92:Drivers/lvgl/src/extra/themes/mono/lv_theme_mono.c ****     lv_style_set_bg_opa(&styles->card, LV_OPA_COVER);
 2074              		.loc 1 92 29 is_stmt 0 view .LVU613
 2075 0094 2068     		ldr	r0, [r4]
  92:Drivers/lvgl/src/extra/themes/mono/lv_theme_mono.c ****     lv_style_set_bg_opa(&styles->card, LV_OPA_COVER);
 2076              		.loc 1 92 5 view .LVU614
 2077 0096 0830     		adds	r0, r0, #8
 2078 0098 FFF7FEFF 		bl	style_init_reset
 2079              	.LVL222:
  93:Drivers/lvgl/src/extra/themes/mono/lv_theme_mono.c ****     lv_style_set_bg_color(&styles->card, COLOR_BG);
 2080              		.loc 1 93 5 is_stmt 1 view .LVU615
  93:Drivers/lvgl/src/extra/themes/mono/lv_theme_mono.c ****     lv_style_set_bg_color(&styles->card, COLOR_BG);
 2081              		.loc 1 93 32 is_stmt 0 view .LVU616
 2082 009c 2068     		ldr	r0, [r4]
  93:Drivers/lvgl/src/extra/themes/mono/lv_theme_mono.c ****     lv_style_set_bg_color(&styles->card, COLOR_BG);
 2083              		.loc 1 93 5 view .LVU617
 2084 009e FF21     		movs	r1, #255
 2085 00a0 0830     		adds	r0, r0, #8
 2086 00a2 FFF7FEFF 		bl	lv_style_set_bg_opa
 2087              	.LVL223:
  94:Drivers/lvgl/src/extra/themes/mono/lv_theme_mono.c ****     lv_style_set_border_color(&styles->card, COLOR_FG);
 2088              		.loc 1 94 5 is_stmt 1 view .LVU618
  94:Drivers/lvgl/src/extra/themes/mono/lv_theme_mono.c ****     lv_style_set_border_color(&styles->card, COLOR_FG);
 2089              		.loc 1 94 34 is_stmt 0 view .LVU619
 2090 00a6 2068     		ldr	r0, [r4]
  94:Drivers/lvgl/src/extra/themes/mono/lv_theme_mono.c ****     lv_style_set_border_color(&styles->card, COLOR_FG);
 2091              		.loc 1 94 5 view .LVU620
 2092 00a8 0830     		adds	r0, r0, #8
 2093 00aa 002D     		cmp	r5, #0
 2094 00ac 00F08081 		beq	.L65
 2095              	.LBB149:
 2096              	.LBI149:
 700:Drivers/lvgl/src/extra/themes/mono/../../../../src/hal/../draw/../misc/lv_color.h **** {
 2097              		.loc 3 700 26 is_stmt 1 view .LVU621
 2098              	.LBB150:
 2099              		.loc 3 702 5 view .LVU622
 2100              	.LVL224:
 2101              	.LBB151:
 2102              	.LBI151:
 595:Drivers/lvgl/src/extra/themes/mono/../../../../src/hal/../draw/../misc/lv_color.h **** {
 2103              		.loc 3 595 26 view .LVU623
 2104              	.LBB152:
 597:Drivers/lvgl/src/extra/themes/mono/../../../../src/hal/../draw/../misc/lv_color.h **** }
 2105              		.loc 3 597 5 view .LVU624
 597:Drivers/lvgl/src/extra/themes/mono/../../../../src/hal/../draw/../misc/lv_color.h **** }
 2106              		.loc 3 597 12 is_stmt 0 view .LVU625
 2107 00b0 4FF00001 		mov	r1, #0	@ movhi
ARM GAS  /var/folders/lp/x54gwt890xv47sdkqj1k04q40000gn/T//cc7THuQy.s 			page 79


 2108 00b4 21F00701 		bic	r1, r1, #7
 2109 00b8 21F0F801 		bic	r1, r1, #248
 2110 00bc 21F4F851 		bic	r1, r1, #7936
 2111 00c0 21F46041 		bic	r1, r1, #57344
 2112              	.LVL225:
 2113              	.L66:
 597:Drivers/lvgl/src/extra/themes/mono/../../../../src/hal/../draw/../misc/lv_color.h **** }
 2114              		.loc 3 597 12 view .LVU626
 2115              	.LBE152:
 2116              	.LBE151:
 2117              	.LBE150:
 2118              	.LBE149:
  94:Drivers/lvgl/src/extra/themes/mono/lv_theme_mono.c ****     lv_style_set_border_color(&styles->card, COLOR_FG);
 2119              		.loc 1 94 5 discriminator 4 view .LVU627
 2120 00c4 FFF7FEFF 		bl	lv_style_set_bg_color
 2121              	.LVL226:
  95:Drivers/lvgl/src/extra/themes/mono/lv_theme_mono.c ****     lv_style_set_radius(&styles->card, 2);
 2122              		.loc 1 95 5 is_stmt 1 view .LVU628
  95:Drivers/lvgl/src/extra/themes/mono/lv_theme_mono.c ****     lv_style_set_radius(&styles->card, 2);
 2123              		.loc 1 95 38 is_stmt 0 view .LVU629
 2124 00c8 9E4B     		ldr	r3, .L92
 2125 00ca 1868     		ldr	r0, [r3]
  95:Drivers/lvgl/src/extra/themes/mono/lv_theme_mono.c ****     lv_style_set_radius(&styles->card, 2);
 2126              		.loc 1 95 5 view .LVU630
 2127 00cc 0830     		adds	r0, r0, #8
 2128 00ce 002D     		cmp	r5, #0
 2129 00d0 00F07181 		beq	.L67
 2130              	.LBB153:
 2131              	.LBI153:
 696:Drivers/lvgl/src/extra/themes/mono/../../../../src/hal/../draw/../misc/lv_color.h **** {
 2132              		.loc 3 696 26 is_stmt 1 view .LVU631
 2133              	.LBB154:
 698:Drivers/lvgl/src/extra/themes/mono/../../../../src/hal/../draw/../misc/lv_color.h **** }
 2134              		.loc 3 698 5 view .LVU632
 2135              	.LVL227:
 2136              	.LBB155:
 2137              	.LBI155:
 595:Drivers/lvgl/src/extra/themes/mono/../../../../src/hal/../draw/../misc/lv_color.h **** {
 2138              		.loc 3 595 26 view .LVU633
 2139              	.LBB156:
 597:Drivers/lvgl/src/extra/themes/mono/../../../../src/hal/../draw/../misc/lv_color.h **** }
 2140              		.loc 3 597 5 view .LVU634
 597:Drivers/lvgl/src/extra/themes/mono/../../../../src/hal/../draw/../misc/lv_color.h **** }
 2141              		.loc 3 597 5 is_stmt 0 view .LVU635
 2142 00d4 4FF0FF31 		mov	r1, #-1	@ movhi
 2143              	.L68:
 2144              	.LBE156:
 2145              	.LBE155:
 2146              	.LBE154:
 2147              	.LBE153:
  95:Drivers/lvgl/src/extra/themes/mono/lv_theme_mono.c ****     lv_style_set_radius(&styles->card, 2);
 2148              		.loc 1 95 5 discriminator 4 view .LVU636
 2149 00d8 FFF7FEFF 		bl	lv_style_set_border_color
 2150              	.LVL228:
  96:Drivers/lvgl/src/extra/themes/mono/lv_theme_mono.c ****     lv_style_set_border_width(&styles->card, BORDER_W_NORMAL);
 2151              		.loc 1 96 5 is_stmt 1 view .LVU637
  96:Drivers/lvgl/src/extra/themes/mono/lv_theme_mono.c ****     lv_style_set_border_width(&styles->card, BORDER_W_NORMAL);
ARM GAS  /var/folders/lp/x54gwt890xv47sdkqj1k04q40000gn/T//cc7THuQy.s 			page 80


 2152              		.loc 1 96 32 is_stmt 0 view .LVU638
 2153 00dc 994C     		ldr	r4, .L92
 2154 00de 2068     		ldr	r0, [r4]
  96:Drivers/lvgl/src/extra/themes/mono/lv_theme_mono.c ****     lv_style_set_border_width(&styles->card, BORDER_W_NORMAL);
 2155              		.loc 1 96 5 view .LVU639
 2156 00e0 0221     		movs	r1, #2
 2157 00e2 0830     		adds	r0, r0, #8
 2158 00e4 FFF7FEFF 		bl	lv_style_set_radius
 2159              	.LVL229:
  97:Drivers/lvgl/src/extra/themes/mono/lv_theme_mono.c ****     lv_style_set_pad_all(&styles->card, PAD_DEF);
 2160              		.loc 1 97 5 is_stmt 1 view .LVU640
  97:Drivers/lvgl/src/extra/themes/mono/lv_theme_mono.c ****     lv_style_set_pad_all(&styles->card, PAD_DEF);
 2161              		.loc 1 97 38 is_stmt 0 view .LVU641
 2162 00e8 2068     		ldr	r0, [r4]
  97:Drivers/lvgl/src/extra/themes/mono/lv_theme_mono.c ****     lv_style_set_pad_all(&styles->card, PAD_DEF);
 2163              		.loc 1 97 5 view .LVU642
 2164 00ea 0121     		movs	r1, #1
 2165 00ec 0830     		adds	r0, r0, #8
 2166 00ee FFF7FEFF 		bl	lv_style_set_border_width
 2167              	.LVL230:
  98:Drivers/lvgl/src/extra/themes/mono/lv_theme_mono.c ****     lv_style_set_pad_gap(&styles->card, PAD_DEF);
 2168              		.loc 1 98 5 is_stmt 1 view .LVU643
  98:Drivers/lvgl/src/extra/themes/mono/lv_theme_mono.c ****     lv_style_set_pad_gap(&styles->card, PAD_DEF);
 2169              		.loc 1 98 33 is_stmt 0 view .LVU644
 2170 00f2 2068     		ldr	r0, [r4]
  98:Drivers/lvgl/src/extra/themes/mono/lv_theme_mono.c ****     lv_style_set_pad_gap(&styles->card, PAD_DEF);
 2171              		.loc 1 98 5 view .LVU645
 2172 00f4 0421     		movs	r1, #4
 2173 00f6 0830     		adds	r0, r0, #8
 2174 00f8 FFF7FEFF 		bl	lv_style_set_pad_all
 2175              	.LVL231:
  99:Drivers/lvgl/src/extra/themes/mono/lv_theme_mono.c ****     lv_style_set_text_color(&styles->card, COLOR_FG);
 2176              		.loc 1 99 5 is_stmt 1 view .LVU646
  99:Drivers/lvgl/src/extra/themes/mono/lv_theme_mono.c ****     lv_style_set_text_color(&styles->card, COLOR_FG);
 2177              		.loc 1 99 33 is_stmt 0 view .LVU647
 2178 00fc 2068     		ldr	r0, [r4]
  99:Drivers/lvgl/src/extra/themes/mono/lv_theme_mono.c ****     lv_style_set_text_color(&styles->card, COLOR_FG);
 2179              		.loc 1 99 5 view .LVU648
 2180 00fe 0421     		movs	r1, #4
 2181 0100 0830     		adds	r0, r0, #8
 2182 0102 FFF7FEFF 		bl	lv_style_set_pad_gap
 2183              	.LVL232:
 100:Drivers/lvgl/src/extra/themes/mono/lv_theme_mono.c ****     lv_style_set_line_width(&styles->card, 2);
 2184              		.loc 1 100 5 is_stmt 1 view .LVU649
 100:Drivers/lvgl/src/extra/themes/mono/lv_theme_mono.c ****     lv_style_set_line_width(&styles->card, 2);
 2185              		.loc 1 100 36 is_stmt 0 view .LVU650
 2186 0106 2068     		ldr	r0, [r4]
 100:Drivers/lvgl/src/extra/themes/mono/lv_theme_mono.c ****     lv_style_set_line_width(&styles->card, 2);
 2187              		.loc 1 100 5 view .LVU651
 2188 0108 0830     		adds	r0, r0, #8
 2189 010a 002D     		cmp	r5, #0
 2190 010c 00F05E81 		beq	.L69
 2191              	.LBB157:
 2192              	.LBI157:
 696:Drivers/lvgl/src/extra/themes/mono/../../../../src/hal/../draw/../misc/lv_color.h **** {
 2193              		.loc 3 696 26 is_stmt 1 view .LVU652
 2194              	.LBB158:
ARM GAS  /var/folders/lp/x54gwt890xv47sdkqj1k04q40000gn/T//cc7THuQy.s 			page 81


 698:Drivers/lvgl/src/extra/themes/mono/../../../../src/hal/../draw/../misc/lv_color.h **** }
 2195              		.loc 3 698 5 view .LVU653
 2196              	.LVL233:
 2197              	.LBB159:
 2198              	.LBI159:
 595:Drivers/lvgl/src/extra/themes/mono/../../../../src/hal/../draw/../misc/lv_color.h **** {
 2199              		.loc 3 595 26 view .LVU654
 2200              	.LBB160:
 597:Drivers/lvgl/src/extra/themes/mono/../../../../src/hal/../draw/../misc/lv_color.h **** }
 2201              		.loc 3 597 5 view .LVU655
 597:Drivers/lvgl/src/extra/themes/mono/../../../../src/hal/../draw/../misc/lv_color.h **** }
 2202              		.loc 3 597 5 is_stmt 0 view .LVU656
 2203 0110 4FF0FF31 		mov	r1, #-1	@ movhi
 2204              	.L70:
 2205              	.LBE160:
 2206              	.LBE159:
 2207              	.LBE158:
 2208              	.LBE157:
 100:Drivers/lvgl/src/extra/themes/mono/lv_theme_mono.c ****     lv_style_set_line_width(&styles->card, 2);
 2209              		.loc 1 100 5 discriminator 4 view .LVU657
 2210 0114 FFF7FEFF 		bl	lv_style_set_text_color
 2211              	.LVL234:
 101:Drivers/lvgl/src/extra/themes/mono/lv_theme_mono.c ****     lv_style_set_line_color(&styles->card, COLOR_FG);
 2212              		.loc 1 101 5 is_stmt 1 view .LVU658
 101:Drivers/lvgl/src/extra/themes/mono/lv_theme_mono.c ****     lv_style_set_line_color(&styles->card, COLOR_FG);
 2213              		.loc 1 101 36 is_stmt 0 view .LVU659
 2214 0118 8A4C     		ldr	r4, .L92
 2215 011a 2068     		ldr	r0, [r4]
 101:Drivers/lvgl/src/extra/themes/mono/lv_theme_mono.c ****     lv_style_set_line_color(&styles->card, COLOR_FG);
 2216              		.loc 1 101 5 view .LVU660
 2217 011c 0221     		movs	r1, #2
 2218 011e 0830     		adds	r0, r0, #8
 2219 0120 FFF7FEFF 		bl	lv_style_set_line_width
 2220              	.LVL235:
 102:Drivers/lvgl/src/extra/themes/mono/lv_theme_mono.c ****     lv_style_set_arc_width(&styles->card, 2);
 2221              		.loc 1 102 5 is_stmt 1 view .LVU661
 102:Drivers/lvgl/src/extra/themes/mono/lv_theme_mono.c ****     lv_style_set_arc_width(&styles->card, 2);
 2222              		.loc 1 102 36 is_stmt 0 view .LVU662
 2223 0124 2068     		ldr	r0, [r4]
 102:Drivers/lvgl/src/extra/themes/mono/lv_theme_mono.c ****     lv_style_set_arc_width(&styles->card, 2);
 2224              		.loc 1 102 5 view .LVU663
 2225 0126 0830     		adds	r0, r0, #8
 2226 0128 002D     		cmp	r5, #0
 2227 012a 00F05A81 		beq	.L71
 2228              	.LBB161:
 2229              	.LBI161:
 696:Drivers/lvgl/src/extra/themes/mono/../../../../src/hal/../draw/../misc/lv_color.h **** {
 2230              		.loc 3 696 26 is_stmt 1 view .LVU664
 2231              	.LBB162:
 698:Drivers/lvgl/src/extra/themes/mono/../../../../src/hal/../draw/../misc/lv_color.h **** }
 2232              		.loc 3 698 5 view .LVU665
 2233              	.LVL236:
 2234              	.LBB163:
 2235              	.LBI163:
 595:Drivers/lvgl/src/extra/themes/mono/../../../../src/hal/../draw/../misc/lv_color.h **** {
 2236              		.loc 3 595 26 view .LVU666
 2237              	.LBB164:
ARM GAS  /var/folders/lp/x54gwt890xv47sdkqj1k04q40000gn/T//cc7THuQy.s 			page 82


 597:Drivers/lvgl/src/extra/themes/mono/../../../../src/hal/../draw/../misc/lv_color.h **** }
 2238              		.loc 3 597 5 view .LVU667
 597:Drivers/lvgl/src/extra/themes/mono/../../../../src/hal/../draw/../misc/lv_color.h **** }
 2239              		.loc 3 597 5 is_stmt 0 view .LVU668
 2240 012e 4FF0FF31 		mov	r1, #-1	@ movhi
 2241              	.L72:
 2242              	.LBE164:
 2243              	.LBE163:
 2244              	.LBE162:
 2245              	.LBE161:
 102:Drivers/lvgl/src/extra/themes/mono/lv_theme_mono.c ****     lv_style_set_arc_width(&styles->card, 2);
 2246              		.loc 1 102 5 discriminator 4 view .LVU669
 2247 0132 FFF7FEFF 		bl	lv_style_set_line_color
 2248              	.LVL237:
 103:Drivers/lvgl/src/extra/themes/mono/lv_theme_mono.c ****     lv_style_set_arc_color(&styles->card, COLOR_FG);
 2249              		.loc 1 103 5 is_stmt 1 view .LVU670
 103:Drivers/lvgl/src/extra/themes/mono/lv_theme_mono.c ****     lv_style_set_arc_color(&styles->card, COLOR_FG);
 2250              		.loc 1 103 35 is_stmt 0 view .LVU671
 2251 0136 834C     		ldr	r4, .L92
 2252 0138 2068     		ldr	r0, [r4]
 103:Drivers/lvgl/src/extra/themes/mono/lv_theme_mono.c ****     lv_style_set_arc_color(&styles->card, COLOR_FG);
 2253              		.loc 1 103 5 view .LVU672
 2254 013a 0221     		movs	r1, #2
 2255 013c 0830     		adds	r0, r0, #8
 2256 013e FFF7FEFF 		bl	lv_style_set_arc_width
 2257              	.LVL238:
 104:Drivers/lvgl/src/extra/themes/mono/lv_theme_mono.c ****     lv_style_set_outline_color(&styles->card, COLOR_FG);
 2258              		.loc 1 104 5 is_stmt 1 view .LVU673
 104:Drivers/lvgl/src/extra/themes/mono/lv_theme_mono.c ****     lv_style_set_outline_color(&styles->card, COLOR_FG);
 2259              		.loc 1 104 35 is_stmt 0 view .LVU674
 2260 0142 2068     		ldr	r0, [r4]
 104:Drivers/lvgl/src/extra/themes/mono/lv_theme_mono.c ****     lv_style_set_outline_color(&styles->card, COLOR_FG);
 2261              		.loc 1 104 5 view .LVU675
 2262 0144 0830     		adds	r0, r0, #8
 2263 0146 002D     		cmp	r5, #0
 2264 0148 00F05681 		beq	.L73
 2265              	.LBB165:
 2266              	.LBI165:
 696:Drivers/lvgl/src/extra/themes/mono/../../../../src/hal/../draw/../misc/lv_color.h **** {
 2267              		.loc 3 696 26 is_stmt 1 view .LVU676
 2268              	.LBB166:
 698:Drivers/lvgl/src/extra/themes/mono/../../../../src/hal/../draw/../misc/lv_color.h **** }
 2269              		.loc 3 698 5 view .LVU677
 2270              	.LVL239:
 2271              	.LBB167:
 2272              	.LBI167:
 595:Drivers/lvgl/src/extra/themes/mono/../../../../src/hal/../draw/../misc/lv_color.h **** {
 2273              		.loc 3 595 26 view .LVU678
 2274              	.LBB168:
 597:Drivers/lvgl/src/extra/themes/mono/../../../../src/hal/../draw/../misc/lv_color.h **** }
 2275              		.loc 3 597 5 view .LVU679
 597:Drivers/lvgl/src/extra/themes/mono/../../../../src/hal/../draw/../misc/lv_color.h **** }
 2276              		.loc 3 597 5 is_stmt 0 view .LVU680
 2277 014c 4FF0FF31 		mov	r1, #-1	@ movhi
 2278              	.L74:
 2279              	.LBE168:
 2280              	.LBE167:
ARM GAS  /var/folders/lp/x54gwt890xv47sdkqj1k04q40000gn/T//cc7THuQy.s 			page 83


 2281              	.LBE166:
 2282              	.LBE165:
 104:Drivers/lvgl/src/extra/themes/mono/lv_theme_mono.c ****     lv_style_set_outline_color(&styles->card, COLOR_FG);
 2283              		.loc 1 104 5 discriminator 4 view .LVU681
 2284 0150 FFF7FEFF 		bl	lv_style_set_arc_color
 2285              	.LVL240:
 105:Drivers/lvgl/src/extra/themes/mono/lv_theme_mono.c ****     lv_style_set_anim_time(&styles->card, 300);
 2286              		.loc 1 105 5 is_stmt 1 view .LVU682
 105:Drivers/lvgl/src/extra/themes/mono/lv_theme_mono.c ****     lv_style_set_anim_time(&styles->card, 300);
 2287              		.loc 1 105 39 is_stmt 0 view .LVU683
 2288 0154 7B4B     		ldr	r3, .L92
 2289 0156 1868     		ldr	r0, [r3]
 105:Drivers/lvgl/src/extra/themes/mono/lv_theme_mono.c ****     lv_style_set_anim_time(&styles->card, 300);
 2290              		.loc 1 105 5 view .LVU684
 2291 0158 0830     		adds	r0, r0, #8
 2292 015a 002D     		cmp	r5, #0
 2293 015c 00F05781 		beq	.L75
 2294              	.LBB169:
 2295              	.LBI169:
 696:Drivers/lvgl/src/extra/themes/mono/../../../../src/hal/../draw/../misc/lv_color.h **** {
 2296              		.loc 3 696 26 is_stmt 1 view .LVU685
 2297              	.LBB170:
 698:Drivers/lvgl/src/extra/themes/mono/../../../../src/hal/../draw/../misc/lv_color.h **** }
 2298              		.loc 3 698 5 view .LVU686
 2299              	.LVL241:
 2300              	.LBB171:
 2301              	.LBI171:
 595:Drivers/lvgl/src/extra/themes/mono/../../../../src/hal/../draw/../misc/lv_color.h **** {
 2302              		.loc 3 595 26 view .LVU687
 2303              	.LBB172:
 597:Drivers/lvgl/src/extra/themes/mono/../../../../src/hal/../draw/../misc/lv_color.h **** }
 2304              		.loc 3 597 5 view .LVU688
 597:Drivers/lvgl/src/extra/themes/mono/../../../../src/hal/../draw/../misc/lv_color.h **** }
 2305              		.loc 3 597 5 is_stmt 0 view .LVU689
 2306 0160 4FF0FF31 		mov	r1, #-1	@ movhi
 2307              	.L76:
 2308              	.LBE172:
 2309              	.LBE171:
 2310              	.LBE170:
 2311              	.LBE169:
 105:Drivers/lvgl/src/extra/themes/mono/lv_theme_mono.c ****     lv_style_set_anim_time(&styles->card, 300);
 2312              		.loc 1 105 5 discriminator 4 view .LVU690
 2313 0164 FFF7FEFF 		bl	lv_style_set_outline_color
 2314              	.LVL242:
 106:Drivers/lvgl/src/extra/themes/mono/lv_theme_mono.c **** 
 2315              		.loc 1 106 5 is_stmt 1 view .LVU691
 106:Drivers/lvgl/src/extra/themes/mono/lv_theme_mono.c **** 
 2316              		.loc 1 106 35 is_stmt 0 view .LVU692
 2317 0168 764C     		ldr	r4, .L92
 2318 016a 2068     		ldr	r0, [r4]
 106:Drivers/lvgl/src/extra/themes/mono/lv_theme_mono.c **** 
 2319              		.loc 1 106 5 view .LVU693
 2320 016c 4FF49671 		mov	r1, #300
 2321 0170 0830     		adds	r0, r0, #8
 2322 0172 FFF7FEFF 		bl	lv_style_set_anim_time
 2323              	.LVL243:
 108:Drivers/lvgl/src/extra/themes/mono/lv_theme_mono.c ****     lv_style_set_border_width(&styles->pr, BORDER_W_PR);
ARM GAS  /var/folders/lp/x54gwt890xv47sdkqj1k04q40000gn/T//cc7THuQy.s 			page 84


 2324              		.loc 1 108 5 is_stmt 1 view .LVU694
 108:Drivers/lvgl/src/extra/themes/mono/lv_theme_mono.c ****     lv_style_set_border_width(&styles->pr, BORDER_W_PR);
 2325              		.loc 1 108 29 is_stmt 0 view .LVU695
 2326 0176 2068     		ldr	r0, [r4]
 108:Drivers/lvgl/src/extra/themes/mono/lv_theme_mono.c ****     lv_style_set_border_width(&styles->pr, BORDER_W_PR);
 2327              		.loc 1 108 5 view .LVU696
 2328 0178 2030     		adds	r0, r0, #32
 2329 017a FFF7FEFF 		bl	style_init_reset
 2330              	.LVL244:
 109:Drivers/lvgl/src/extra/themes/mono/lv_theme_mono.c **** 
 2331              		.loc 1 109 5 is_stmt 1 view .LVU697
 109:Drivers/lvgl/src/extra/themes/mono/lv_theme_mono.c **** 
 2332              		.loc 1 109 38 is_stmt 0 view .LVU698
 2333 017e 2068     		ldr	r0, [r4]
 109:Drivers/lvgl/src/extra/themes/mono/lv_theme_mono.c **** 
 2334              		.loc 1 109 5 view .LVU699
 2335 0180 0321     		movs	r1, #3
 2336 0182 2030     		adds	r0, r0, #32
 2337 0184 FFF7FEFF 		bl	lv_style_set_border_width
 2338              	.LVL245:
 111:Drivers/lvgl/src/extra/themes/mono/lv_theme_mono.c ****     lv_style_set_bg_opa(&styles->inv, LV_OPA_COVER);
 2339              		.loc 1 111 5 is_stmt 1 view .LVU700
 111:Drivers/lvgl/src/extra/themes/mono/lv_theme_mono.c ****     lv_style_set_bg_opa(&styles->inv, LV_OPA_COVER);
 2340              		.loc 1 111 29 is_stmt 0 view .LVU701
 2341 0188 2068     		ldr	r0, [r4]
 111:Drivers/lvgl/src/extra/themes/mono/lv_theme_mono.c ****     lv_style_set_bg_opa(&styles->inv, LV_OPA_COVER);
 2342              		.loc 1 111 5 view .LVU702
 2343 018a 2830     		adds	r0, r0, #40
 2344 018c FFF7FEFF 		bl	style_init_reset
 2345              	.LVL246:
 112:Drivers/lvgl/src/extra/themes/mono/lv_theme_mono.c ****     lv_style_set_bg_color(&styles->inv, COLOR_FG);
 2346              		.loc 1 112 5 is_stmt 1 view .LVU703
 112:Drivers/lvgl/src/extra/themes/mono/lv_theme_mono.c ****     lv_style_set_bg_color(&styles->inv, COLOR_FG);
 2347              		.loc 1 112 32 is_stmt 0 view .LVU704
 2348 0190 2068     		ldr	r0, [r4]
 112:Drivers/lvgl/src/extra/themes/mono/lv_theme_mono.c ****     lv_style_set_bg_color(&styles->inv, COLOR_FG);
 2349              		.loc 1 112 5 view .LVU705
 2350 0192 FF21     		movs	r1, #255
 2351 0194 2830     		adds	r0, r0, #40
 2352 0196 FFF7FEFF 		bl	lv_style_set_bg_opa
 2353              	.LVL247:
 113:Drivers/lvgl/src/extra/themes/mono/lv_theme_mono.c ****     lv_style_set_border_color(&styles->inv, COLOR_BG);
 2354              		.loc 1 113 5 is_stmt 1 view .LVU706
 113:Drivers/lvgl/src/extra/themes/mono/lv_theme_mono.c ****     lv_style_set_border_color(&styles->inv, COLOR_BG);
 2355              		.loc 1 113 34 is_stmt 0 view .LVU707
 2356 019a 2068     		ldr	r0, [r4]
 113:Drivers/lvgl/src/extra/themes/mono/lv_theme_mono.c ****     lv_style_set_border_color(&styles->inv, COLOR_BG);
 2357              		.loc 1 113 5 view .LVU708
 2358 019c 2830     		adds	r0, r0, #40
 2359 019e 002D     		cmp	r5, #0
 2360 01a0 00F04081 		beq	.L77
 2361              	.LBB173:
 2362              	.LBI173:
 696:Drivers/lvgl/src/extra/themes/mono/../../../../src/hal/../draw/../misc/lv_color.h **** {
 2363              		.loc 3 696 26 is_stmt 1 view .LVU709
 2364              	.LBB174:
 698:Drivers/lvgl/src/extra/themes/mono/../../../../src/hal/../draw/../misc/lv_color.h **** }
ARM GAS  /var/folders/lp/x54gwt890xv47sdkqj1k04q40000gn/T//cc7THuQy.s 			page 85


 2365              		.loc 3 698 5 view .LVU710
 2366              	.LVL248:
 2367              	.LBB175:
 2368              	.LBI175:
 595:Drivers/lvgl/src/extra/themes/mono/../../../../src/hal/../draw/../misc/lv_color.h **** {
 2369              		.loc 3 595 26 view .LVU711
 2370              	.LBB176:
 597:Drivers/lvgl/src/extra/themes/mono/../../../../src/hal/../draw/../misc/lv_color.h **** }
 2371              		.loc 3 597 5 view .LVU712
 597:Drivers/lvgl/src/extra/themes/mono/../../../../src/hal/../draw/../misc/lv_color.h **** }
 2372              		.loc 3 597 5 is_stmt 0 view .LVU713
 2373 01a4 4FF0FF31 		mov	r1, #-1	@ movhi
 2374              	.L78:
 2375              	.LBE176:
 2376              	.LBE175:
 2377              	.LBE174:
 2378              	.LBE173:
 113:Drivers/lvgl/src/extra/themes/mono/lv_theme_mono.c ****     lv_style_set_border_color(&styles->inv, COLOR_BG);
 2379              		.loc 1 113 5 discriminator 4 view .LVU714
 2380 01a8 FFF7FEFF 		bl	lv_style_set_bg_color
 2381              	.LVL249:
 114:Drivers/lvgl/src/extra/themes/mono/lv_theme_mono.c ****     lv_style_set_line_color(&styles->inv, COLOR_BG);
 2382              		.loc 1 114 5 is_stmt 1 view .LVU715
 114:Drivers/lvgl/src/extra/themes/mono/lv_theme_mono.c ****     lv_style_set_line_color(&styles->inv, COLOR_BG);
 2383              		.loc 1 114 38 is_stmt 0 view .LVU716
 2384 01ac 654B     		ldr	r3, .L92
 2385 01ae 1868     		ldr	r0, [r3]
 114:Drivers/lvgl/src/extra/themes/mono/lv_theme_mono.c ****     lv_style_set_line_color(&styles->inv, COLOR_BG);
 2386              		.loc 1 114 5 view .LVU717
 2387 01b0 2830     		adds	r0, r0, #40
 2388 01b2 002D     		cmp	r5, #0
 2389 01b4 00F04181 		beq	.L79
 2390              	.LBB177:
 2391              	.LBI177:
 700:Drivers/lvgl/src/extra/themes/mono/../../../../src/hal/../draw/../misc/lv_color.h **** {
 2392              		.loc 3 700 26 is_stmt 1 view .LVU718
 2393              	.LBB178:
 2394              		.loc 3 702 5 view .LVU719
 2395              	.LVL250:
 2396              	.LBB179:
 2397              	.LBI179:
 595:Drivers/lvgl/src/extra/themes/mono/../../../../src/hal/../draw/../misc/lv_color.h **** {
 2398              		.loc 3 595 26 view .LVU720
 2399              	.LBB180:
 597:Drivers/lvgl/src/extra/themes/mono/../../../../src/hal/../draw/../misc/lv_color.h **** }
 2400              		.loc 3 597 5 view .LVU721
 597:Drivers/lvgl/src/extra/themes/mono/../../../../src/hal/../draw/../misc/lv_color.h **** }
 2401              		.loc 3 597 12 is_stmt 0 view .LVU722
 2402 01b8 4FF00001 		mov	r1, #0	@ movhi
 2403 01bc 21F00701 		bic	r1, r1, #7
 2404 01c0 21F0F801 		bic	r1, r1, #248
 2405 01c4 21F4F851 		bic	r1, r1, #7936
 2406 01c8 21F46041 		bic	r1, r1, #57344
 2407              	.LVL251:
 2408              	.L80:
 597:Drivers/lvgl/src/extra/themes/mono/../../../../src/hal/../draw/../misc/lv_color.h **** }
 2409              		.loc 3 597 12 view .LVU723
ARM GAS  /var/folders/lp/x54gwt890xv47sdkqj1k04q40000gn/T//cc7THuQy.s 			page 86


 2410              	.LBE180:
 2411              	.LBE179:
 2412              	.LBE178:
 2413              	.LBE177:
 114:Drivers/lvgl/src/extra/themes/mono/lv_theme_mono.c ****     lv_style_set_line_color(&styles->inv, COLOR_BG);
 2414              		.loc 1 114 5 discriminator 4 view .LVU724
 2415 01cc FFF7FEFF 		bl	lv_style_set_border_color
 2416              	.LVL252:
 115:Drivers/lvgl/src/extra/themes/mono/lv_theme_mono.c ****     lv_style_set_arc_color(&styles->inv, COLOR_BG);
 2417              		.loc 1 115 5 is_stmt 1 view .LVU725
 115:Drivers/lvgl/src/extra/themes/mono/lv_theme_mono.c ****     lv_style_set_arc_color(&styles->inv, COLOR_BG);
 2418              		.loc 1 115 36 is_stmt 0 view .LVU726
 2419 01d0 5C4B     		ldr	r3, .L92
 2420 01d2 1868     		ldr	r0, [r3]
 115:Drivers/lvgl/src/extra/themes/mono/lv_theme_mono.c ****     lv_style_set_arc_color(&styles->inv, COLOR_BG);
 2421              		.loc 1 115 5 view .LVU727
 2422 01d4 2830     		adds	r0, r0, #40
 2423 01d6 002D     		cmp	r5, #0
 2424 01d8 00F03281 		beq	.L81
 2425              	.LBB181:
 2426              	.LBI181:
 700:Drivers/lvgl/src/extra/themes/mono/../../../../src/hal/../draw/../misc/lv_color.h **** {
 2427              		.loc 3 700 26 is_stmt 1 view .LVU728
 2428              	.LBB182:
 2429              		.loc 3 702 5 view .LVU729
 2430              	.LVL253:
 2431              	.LBB183:
 2432              	.LBI183:
 595:Drivers/lvgl/src/extra/themes/mono/../../../../src/hal/../draw/../misc/lv_color.h **** {
 2433              		.loc 3 595 26 view .LVU730
 2434              	.LBB184:
 597:Drivers/lvgl/src/extra/themes/mono/../../../../src/hal/../draw/../misc/lv_color.h **** }
 2435              		.loc 3 597 5 view .LVU731
 597:Drivers/lvgl/src/extra/themes/mono/../../../../src/hal/../draw/../misc/lv_color.h **** }
 2436              		.loc 3 597 12 is_stmt 0 view .LVU732
 2437 01dc 4FF00001 		mov	r1, #0	@ movhi
 2438 01e0 21F00701 		bic	r1, r1, #7
 2439 01e4 21F0F801 		bic	r1, r1, #248
 2440 01e8 21F4F851 		bic	r1, r1, #7936
 2441 01ec 21F46041 		bic	r1, r1, #57344
 2442              	.LVL254:
 2443              	.L82:
 597:Drivers/lvgl/src/extra/themes/mono/../../../../src/hal/../draw/../misc/lv_color.h **** }
 2444              		.loc 3 597 12 view .LVU733
 2445              	.LBE184:
 2446              	.LBE183:
 2447              	.LBE182:
 2448              	.LBE181:
 115:Drivers/lvgl/src/extra/themes/mono/lv_theme_mono.c ****     lv_style_set_arc_color(&styles->inv, COLOR_BG);
 2449              		.loc 1 115 5 discriminator 4 view .LVU734
 2450 01f0 FFF7FEFF 		bl	lv_style_set_line_color
 2451              	.LVL255:
 116:Drivers/lvgl/src/extra/themes/mono/lv_theme_mono.c ****     lv_style_set_text_color(&styles->inv, COLOR_BG);
 2452              		.loc 1 116 5 is_stmt 1 view .LVU735
 116:Drivers/lvgl/src/extra/themes/mono/lv_theme_mono.c ****     lv_style_set_text_color(&styles->inv, COLOR_BG);
 2453              		.loc 1 116 35 is_stmt 0 view .LVU736
 2454 01f4 534B     		ldr	r3, .L92
ARM GAS  /var/folders/lp/x54gwt890xv47sdkqj1k04q40000gn/T//cc7THuQy.s 			page 87


 2455 01f6 1868     		ldr	r0, [r3]
 116:Drivers/lvgl/src/extra/themes/mono/lv_theme_mono.c ****     lv_style_set_text_color(&styles->inv, COLOR_BG);
 2456              		.loc 1 116 5 view .LVU737
 2457 01f8 2830     		adds	r0, r0, #40
 2458 01fa 002D     		cmp	r5, #0
 2459 01fc 00F02381 		beq	.L83
 2460              	.LBB185:
 2461              	.LBI185:
 700:Drivers/lvgl/src/extra/themes/mono/../../../../src/hal/../draw/../misc/lv_color.h **** {
 2462              		.loc 3 700 26 is_stmt 1 view .LVU738
 2463              	.LBB186:
 2464              		.loc 3 702 5 view .LVU739
 2465              	.LVL256:
 2466              	.LBB187:
 2467              	.LBI187:
 595:Drivers/lvgl/src/extra/themes/mono/../../../../src/hal/../draw/../misc/lv_color.h **** {
 2468              		.loc 3 595 26 view .LVU740
 2469              	.LBB188:
 597:Drivers/lvgl/src/extra/themes/mono/../../../../src/hal/../draw/../misc/lv_color.h **** }
 2470              		.loc 3 597 5 view .LVU741
 597:Drivers/lvgl/src/extra/themes/mono/../../../../src/hal/../draw/../misc/lv_color.h **** }
 2471              		.loc 3 597 12 is_stmt 0 view .LVU742
 2472 0200 4FF00001 		mov	r1, #0	@ movhi
 2473 0204 21F00701 		bic	r1, r1, #7
 2474 0208 21F0F801 		bic	r1, r1, #248
 2475 020c 21F4F851 		bic	r1, r1, #7936
 2476 0210 21F46041 		bic	r1, r1, #57344
 2477              	.LVL257:
 2478              	.L84:
 597:Drivers/lvgl/src/extra/themes/mono/../../../../src/hal/../draw/../misc/lv_color.h **** }
 2479              		.loc 3 597 12 view .LVU743
 2480              	.LBE188:
 2481              	.LBE187:
 2482              	.LBE186:
 2483              	.LBE185:
 116:Drivers/lvgl/src/extra/themes/mono/lv_theme_mono.c ****     lv_style_set_text_color(&styles->inv, COLOR_BG);
 2484              		.loc 1 116 5 discriminator 4 view .LVU744
 2485 0214 FFF7FEFF 		bl	lv_style_set_arc_color
 2486              	.LVL258:
 117:Drivers/lvgl/src/extra/themes/mono/lv_theme_mono.c ****     lv_style_set_outline_color(&styles->inv, COLOR_BG);
 2487              		.loc 1 117 5 is_stmt 1 view .LVU745
 117:Drivers/lvgl/src/extra/themes/mono/lv_theme_mono.c ****     lv_style_set_outline_color(&styles->inv, COLOR_BG);
 2488              		.loc 1 117 36 is_stmt 0 view .LVU746
 2489 0218 4A4B     		ldr	r3, .L92
 2490 021a 1868     		ldr	r0, [r3]
 117:Drivers/lvgl/src/extra/themes/mono/lv_theme_mono.c ****     lv_style_set_outline_color(&styles->inv, COLOR_BG);
 2491              		.loc 1 117 5 view .LVU747
 2492 021c 2830     		adds	r0, r0, #40
 2493 021e 002D     		cmp	r5, #0
 2494 0220 00F01481 		beq	.L85
 2495              	.LBB189:
 2496              	.LBI189:
 700:Drivers/lvgl/src/extra/themes/mono/../../../../src/hal/../draw/../misc/lv_color.h **** {
 2497              		.loc 3 700 26 is_stmt 1 view .LVU748
 2498              	.LBB190:
 2499              		.loc 3 702 5 view .LVU749
 2500              	.LVL259:
ARM GAS  /var/folders/lp/x54gwt890xv47sdkqj1k04q40000gn/T//cc7THuQy.s 			page 88


 2501              	.LBB191:
 2502              	.LBI191:
 595:Drivers/lvgl/src/extra/themes/mono/../../../../src/hal/../draw/../misc/lv_color.h **** {
 2503              		.loc 3 595 26 view .LVU750
 2504              	.LBB192:
 597:Drivers/lvgl/src/extra/themes/mono/../../../../src/hal/../draw/../misc/lv_color.h **** }
 2505              		.loc 3 597 5 view .LVU751
 597:Drivers/lvgl/src/extra/themes/mono/../../../../src/hal/../draw/../misc/lv_color.h **** }
 2506              		.loc 3 597 12 is_stmt 0 view .LVU752
 2507 0224 4FF00001 		mov	r1, #0	@ movhi
 2508 0228 21F00701 		bic	r1, r1, #7
 2509 022c 21F0F801 		bic	r1, r1, #248
 2510 0230 21F4F851 		bic	r1, r1, #7936
 2511 0234 21F46041 		bic	r1, r1, #57344
 2512              	.LVL260:
 2513              	.L86:
 597:Drivers/lvgl/src/extra/themes/mono/../../../../src/hal/../draw/../misc/lv_color.h **** }
 2514              		.loc 3 597 12 view .LVU753
 2515              	.LBE192:
 2516              	.LBE191:
 2517              	.LBE190:
 2518              	.LBE189:
 117:Drivers/lvgl/src/extra/themes/mono/lv_theme_mono.c ****     lv_style_set_outline_color(&styles->inv, COLOR_BG);
 2519              		.loc 1 117 5 discriminator 4 view .LVU754
 2520 0238 FFF7FEFF 		bl	lv_style_set_text_color
 2521              	.LVL261:
 118:Drivers/lvgl/src/extra/themes/mono/lv_theme_mono.c **** 
 2522              		.loc 1 118 5 is_stmt 1 view .LVU755
 118:Drivers/lvgl/src/extra/themes/mono/lv_theme_mono.c **** 
 2523              		.loc 1 118 39 is_stmt 0 view .LVU756
 2524 023c 414B     		ldr	r3, .L92
 2525 023e 1868     		ldr	r0, [r3]
 118:Drivers/lvgl/src/extra/themes/mono/lv_theme_mono.c **** 
 2526              		.loc 1 118 5 view .LVU757
 2527 0240 2830     		adds	r0, r0, #40
 2528 0242 002D     		cmp	r5, #0
 2529 0244 00F00581 		beq	.L87
 2530              	.LBB193:
 2531              	.LBI193:
 700:Drivers/lvgl/src/extra/themes/mono/../../../../src/hal/../draw/../misc/lv_color.h **** {
 2532              		.loc 3 700 26 is_stmt 1 view .LVU758
 2533              	.LBB194:
 2534              		.loc 3 702 5 view .LVU759
 2535              	.LVL262:
 2536              	.LBB195:
 2537              	.LBI195:
 595:Drivers/lvgl/src/extra/themes/mono/../../../../src/hal/../draw/../misc/lv_color.h **** {
 2538              		.loc 3 595 26 view .LVU760
 2539              	.LBB196:
 597:Drivers/lvgl/src/extra/themes/mono/../../../../src/hal/../draw/../misc/lv_color.h **** }
 2540              		.loc 3 597 5 view .LVU761
 597:Drivers/lvgl/src/extra/themes/mono/../../../../src/hal/../draw/../misc/lv_color.h **** }
 2541              		.loc 3 597 12 is_stmt 0 view .LVU762
 2542 0248 4FF00001 		mov	r1, #0	@ movhi
 2543 024c 21F00701 		bic	r1, r1, #7
 2544 0250 21F0F801 		bic	r1, r1, #248
 2545 0254 21F4F851 		bic	r1, r1, #7936
ARM GAS  /var/folders/lp/x54gwt890xv47sdkqj1k04q40000gn/T//cc7THuQy.s 			page 89


 2546 0258 21F46041 		bic	r1, r1, #57344
 2547              	.LVL263:
 2548              	.L88:
 597:Drivers/lvgl/src/extra/themes/mono/../../../../src/hal/../draw/../misc/lv_color.h **** }
 2549              		.loc 3 597 12 view .LVU763
 2550              	.LBE196:
 2551              	.LBE195:
 2552              	.LBE194:
 2553              	.LBE193:
 118:Drivers/lvgl/src/extra/themes/mono/lv_theme_mono.c **** 
 2554              		.loc 1 118 5 discriminator 4 view .LVU764
 2555 025c FFF7FEFF 		bl	lv_style_set_outline_color
 2556              	.LVL264:
 120:Drivers/lvgl/src/extra/themes/mono/lv_theme_mono.c ****     lv_style_set_border_width(&styles->disabled, BORDER_W_DIS);
 2557              		.loc 1 120 5 is_stmt 1 view .LVU765
 120:Drivers/lvgl/src/extra/themes/mono/lv_theme_mono.c ****     lv_style_set_border_width(&styles->disabled, BORDER_W_DIS);
 2558              		.loc 1 120 29 is_stmt 0 view .LVU766
 2559 0260 384C     		ldr	r4, .L92
 2560 0262 2068     		ldr	r0, [r4]
 120:Drivers/lvgl/src/extra/themes/mono/lv_theme_mono.c ****     lv_style_set_border_width(&styles->disabled, BORDER_W_DIS);
 2561              		.loc 1 120 5 view .LVU767
 2562 0264 3030     		adds	r0, r0, #48
 2563 0266 FFF7FEFF 		bl	style_init_reset
 2564              	.LVL265:
 121:Drivers/lvgl/src/extra/themes/mono/lv_theme_mono.c **** 
 2565              		.loc 1 121 5 is_stmt 1 view .LVU768
 121:Drivers/lvgl/src/extra/themes/mono/lv_theme_mono.c **** 
 2566              		.loc 1 121 38 is_stmt 0 view .LVU769
 2567 026a 2068     		ldr	r0, [r4]
 121:Drivers/lvgl/src/extra/themes/mono/lv_theme_mono.c **** 
 2568              		.loc 1 121 5 view .LVU770
 2569 026c 0021     		movs	r1, #0
 2570 026e 3030     		adds	r0, r0, #48
 2571 0270 FFF7FEFF 		bl	lv_style_set_border_width
 2572              	.LVL266:
 123:Drivers/lvgl/src/extra/themes/mono/lv_theme_mono.c ****     lv_style_set_outline_width(&styles->focus, 1);
 2573              		.loc 1 123 5 is_stmt 1 view .LVU771
 123:Drivers/lvgl/src/extra/themes/mono/lv_theme_mono.c ****     lv_style_set_outline_width(&styles->focus, 1);
 2574              		.loc 1 123 29 is_stmt 0 view .LVU772
 2575 0274 2068     		ldr	r0, [r4]
 123:Drivers/lvgl/src/extra/themes/mono/lv_theme_mono.c ****     lv_style_set_outline_width(&styles->focus, 1);
 2576              		.loc 1 123 5 view .LVU773
 2577 0276 3830     		adds	r0, r0, #56
 2578 0278 FFF7FEFF 		bl	style_init_reset
 2579              	.LVL267:
 124:Drivers/lvgl/src/extra/themes/mono/lv_theme_mono.c ****     lv_style_set_outline_pad(&styles->focus, BORDER_W_FOCUS);
 2580              		.loc 1 124 5 is_stmt 1 view .LVU774
 124:Drivers/lvgl/src/extra/themes/mono/lv_theme_mono.c ****     lv_style_set_outline_pad(&styles->focus, BORDER_W_FOCUS);
 2581              		.loc 1 124 39 is_stmt 0 view .LVU775
 2582 027c 2068     		ldr	r0, [r4]
 124:Drivers/lvgl/src/extra/themes/mono/lv_theme_mono.c ****     lv_style_set_outline_pad(&styles->focus, BORDER_W_FOCUS);
 2583              		.loc 1 124 5 view .LVU776
 2584 027e 0121     		movs	r1, #1
 2585 0280 3830     		adds	r0, r0, #56
 2586 0282 FFF7FEFF 		bl	lv_style_set_outline_width
 2587              	.LVL268:
 125:Drivers/lvgl/src/extra/themes/mono/lv_theme_mono.c **** 
ARM GAS  /var/folders/lp/x54gwt890xv47sdkqj1k04q40000gn/T//cc7THuQy.s 			page 90


 2588              		.loc 1 125 5 is_stmt 1 view .LVU777
 125:Drivers/lvgl/src/extra/themes/mono/lv_theme_mono.c **** 
 2589              		.loc 1 125 37 is_stmt 0 view .LVU778
 2590 0286 2068     		ldr	r0, [r4]
 125:Drivers/lvgl/src/extra/themes/mono/lv_theme_mono.c **** 
 2591              		.loc 1 125 5 view .LVU779
 2592 0288 0121     		movs	r1, #1
 2593 028a 3830     		adds	r0, r0, #56
 2594 028c FFF7FEFF 		bl	lv_style_set_outline_pad
 2595              	.LVL269:
 127:Drivers/lvgl/src/extra/themes/mono/lv_theme_mono.c ****     lv_style_set_outline_width(&styles->edit, BORDER_W_EDIT);
 2596              		.loc 1 127 5 is_stmt 1 view .LVU780
 127:Drivers/lvgl/src/extra/themes/mono/lv_theme_mono.c ****     lv_style_set_outline_width(&styles->edit, BORDER_W_EDIT);
 2597              		.loc 1 127 29 is_stmt 0 view .LVU781
 2598 0290 2068     		ldr	r0, [r4]
 127:Drivers/lvgl/src/extra/themes/mono/lv_theme_mono.c ****     lv_style_set_outline_width(&styles->edit, BORDER_W_EDIT);
 2599              		.loc 1 127 5 view .LVU782
 2600 0292 4030     		adds	r0, r0, #64
 2601 0294 FFF7FEFF 		bl	style_init_reset
 2602              	.LVL270:
 128:Drivers/lvgl/src/extra/themes/mono/lv_theme_mono.c **** 
 2603              		.loc 1 128 5 is_stmt 1 view .LVU783
 128:Drivers/lvgl/src/extra/themes/mono/lv_theme_mono.c **** 
 2604              		.loc 1 128 39 is_stmt 0 view .LVU784
 2605 0298 2068     		ldr	r0, [r4]
 128:Drivers/lvgl/src/extra/themes/mono/lv_theme_mono.c **** 
 2606              		.loc 1 128 5 view .LVU785
 2607 029a 0221     		movs	r1, #2
 2608 029c 4030     		adds	r0, r0, #64
 2609 029e FFF7FEFF 		bl	lv_style_set_outline_width
 2610              	.LVL271:
 130:Drivers/lvgl/src/extra/themes/mono/lv_theme_mono.c ****     lv_style_set_border_width(&styles->large_border, BORDER_W_EDIT);
 2611              		.loc 1 130 5 is_stmt 1 view .LVU786
 130:Drivers/lvgl/src/extra/themes/mono/lv_theme_mono.c ****     lv_style_set_border_width(&styles->large_border, BORDER_W_EDIT);
 2612              		.loc 1 130 29 is_stmt 0 view .LVU787
 2613 02a2 2068     		ldr	r0, [r4]
 130:Drivers/lvgl/src/extra/themes/mono/lv_theme_mono.c ****     lv_style_set_border_width(&styles->large_border, BORDER_W_EDIT);
 2614              		.loc 1 130 5 view .LVU788
 2615 02a4 6830     		adds	r0, r0, #104
 2616 02a6 FFF7FEFF 		bl	style_init_reset
 2617              	.LVL272:
 131:Drivers/lvgl/src/extra/themes/mono/lv_theme_mono.c **** 
 2618              		.loc 1 131 5 is_stmt 1 view .LVU789
 131:Drivers/lvgl/src/extra/themes/mono/lv_theme_mono.c **** 
 2619              		.loc 1 131 38 is_stmt 0 view .LVU790
 2620 02aa 2068     		ldr	r0, [r4]
 131:Drivers/lvgl/src/extra/themes/mono/lv_theme_mono.c **** 
 2621              		.loc 1 131 5 view .LVU791
 2622 02ac 0221     		movs	r1, #2
 2623 02ae 6830     		adds	r0, r0, #104
 2624 02b0 FFF7FEFF 		bl	lv_style_set_border_width
 2625              	.LVL273:
 133:Drivers/lvgl/src/extra/themes/mono/lv_theme_mono.c ****     lv_style_set_pad_gap(&styles->pad_gap, PAD_DEF);
 2626              		.loc 1 133 5 is_stmt 1 view .LVU792
 133:Drivers/lvgl/src/extra/themes/mono/lv_theme_mono.c ****     lv_style_set_pad_gap(&styles->pad_gap, PAD_DEF);
 2627              		.loc 1 133 29 is_stmt 0 view .LVU793
 2628 02b4 2068     		ldr	r0, [r4]
ARM GAS  /var/folders/lp/x54gwt890xv47sdkqj1k04q40000gn/T//cc7THuQy.s 			page 91


 133:Drivers/lvgl/src/extra/themes/mono/lv_theme_mono.c ****     lv_style_set_pad_gap(&styles->pad_gap, PAD_DEF);
 2629              		.loc 1 133 5 view .LVU794
 2630 02b6 4830     		adds	r0, r0, #72
 2631 02b8 FFF7FEFF 		bl	style_init_reset
 2632              	.LVL274:
 134:Drivers/lvgl/src/extra/themes/mono/lv_theme_mono.c **** 
 2633              		.loc 1 134 5 is_stmt 1 view .LVU795
 134:Drivers/lvgl/src/extra/themes/mono/lv_theme_mono.c **** 
 2634              		.loc 1 134 33 is_stmt 0 view .LVU796
 2635 02bc 2068     		ldr	r0, [r4]
 134:Drivers/lvgl/src/extra/themes/mono/lv_theme_mono.c **** 
 2636              		.loc 1 134 5 view .LVU797
 2637 02be 0421     		movs	r1, #4
 2638 02c0 4830     		adds	r0, r0, #72
 2639 02c2 FFF7FEFF 		bl	lv_style_set_pad_gap
 2640              	.LVL275:
 136:Drivers/lvgl/src/extra/themes/mono/lv_theme_mono.c ****     lv_style_set_pad_all(&styles->pad_zero, 0);
 2641              		.loc 1 136 5 is_stmt 1 view .LVU798
 136:Drivers/lvgl/src/extra/themes/mono/lv_theme_mono.c ****     lv_style_set_pad_all(&styles->pad_zero, 0);
 2642              		.loc 1 136 29 is_stmt 0 view .LVU799
 2643 02c6 2068     		ldr	r0, [r4]
 136:Drivers/lvgl/src/extra/themes/mono/lv_theme_mono.c ****     lv_style_set_pad_all(&styles->pad_zero, 0);
 2644              		.loc 1 136 5 view .LVU800
 2645 02c8 5030     		adds	r0, r0, #80
 2646 02ca FFF7FEFF 		bl	style_init_reset
 2647              	.LVL276:
 137:Drivers/lvgl/src/extra/themes/mono/lv_theme_mono.c ****     lv_style_set_pad_gap(&styles->pad_zero, 0);
 2648              		.loc 1 137 5 is_stmt 1 view .LVU801
 137:Drivers/lvgl/src/extra/themes/mono/lv_theme_mono.c ****     lv_style_set_pad_gap(&styles->pad_zero, 0);
 2649              		.loc 1 137 33 is_stmt 0 view .LVU802
 2650 02ce 2068     		ldr	r0, [r4]
 137:Drivers/lvgl/src/extra/themes/mono/lv_theme_mono.c ****     lv_style_set_pad_gap(&styles->pad_zero, 0);
 2651              		.loc 1 137 5 view .LVU803
 2652 02d0 0021     		movs	r1, #0
 2653 02d2 5030     		adds	r0, r0, #80
 2654 02d4 FFF7FEFF 		bl	lv_style_set_pad_all
 2655              	.LVL277:
 138:Drivers/lvgl/src/extra/themes/mono/lv_theme_mono.c **** 
 2656              		.loc 1 138 5 is_stmt 1 view .LVU804
 138:Drivers/lvgl/src/extra/themes/mono/lv_theme_mono.c **** 
 2657              		.loc 1 138 33 is_stmt 0 view .LVU805
 2658 02d8 2068     		ldr	r0, [r4]
 138:Drivers/lvgl/src/extra/themes/mono/lv_theme_mono.c **** 
 2659              		.loc 1 138 5 view .LVU806
 2660 02da 0021     		movs	r1, #0
 2661 02dc 5030     		adds	r0, r0, #80
 2662 02de FFF7FEFF 		bl	lv_style_set_pad_gap
 2663              	.LVL278:
 140:Drivers/lvgl/src/extra/themes/mono/lv_theme_mono.c ****     lv_style_set_radius(&styles->no_radius, 0);
 2664              		.loc 1 140 5 is_stmt 1 view .LVU807
 140:Drivers/lvgl/src/extra/themes/mono/lv_theme_mono.c ****     lv_style_set_radius(&styles->no_radius, 0);
 2665              		.loc 1 140 29 is_stmt 0 view .LVU808
 2666 02e2 2068     		ldr	r0, [r4]
 140:Drivers/lvgl/src/extra/themes/mono/lv_theme_mono.c ****     lv_style_set_radius(&styles->no_radius, 0);
 2667              		.loc 1 140 5 view .LVU809
 2668 02e4 5830     		adds	r0, r0, #88
 2669 02e6 FFF7FEFF 		bl	style_init_reset
ARM GAS  /var/folders/lp/x54gwt890xv47sdkqj1k04q40000gn/T//cc7THuQy.s 			page 92


 2670              	.LVL279:
 141:Drivers/lvgl/src/extra/themes/mono/lv_theme_mono.c **** 
 2671              		.loc 1 141 5 is_stmt 1 view .LVU810
 141:Drivers/lvgl/src/extra/themes/mono/lv_theme_mono.c **** 
 2672              		.loc 1 141 32 is_stmt 0 view .LVU811
 2673 02ea 2068     		ldr	r0, [r4]
 141:Drivers/lvgl/src/extra/themes/mono/lv_theme_mono.c **** 
 2674              		.loc 1 141 5 view .LVU812
 2675 02ec 0021     		movs	r1, #0
 2676 02ee 5830     		adds	r0, r0, #88
 2677 02f0 FFF7FEFF 		bl	lv_style_set_radius
 2678              	.LVL280:
 143:Drivers/lvgl/src/extra/themes/mono/lv_theme_mono.c ****     lv_style_set_radius(&styles->radius_circle, LV_RADIUS_CIRCLE);
 2679              		.loc 1 143 5 is_stmt 1 view .LVU813
 143:Drivers/lvgl/src/extra/themes/mono/lv_theme_mono.c ****     lv_style_set_radius(&styles->radius_circle, LV_RADIUS_CIRCLE);
 2680              		.loc 1 143 29 is_stmt 0 view .LVU814
 2681 02f4 2068     		ldr	r0, [r4]
 143:Drivers/lvgl/src/extra/themes/mono/lv_theme_mono.c ****     lv_style_set_radius(&styles->radius_circle, LV_RADIUS_CIRCLE);
 2682              		.loc 1 143 5 view .LVU815
 2683 02f6 6030     		adds	r0, r0, #96
 2684 02f8 FFF7FEFF 		bl	style_init_reset
 2685              	.LVL281:
 144:Drivers/lvgl/src/extra/themes/mono/lv_theme_mono.c **** 
 2686              		.loc 1 144 5 is_stmt 1 view .LVU816
 144:Drivers/lvgl/src/extra/themes/mono/lv_theme_mono.c **** 
 2687              		.loc 1 144 32 is_stmt 0 view .LVU817
 2688 02fc 2068     		ldr	r0, [r4]
 144:Drivers/lvgl/src/extra/themes/mono/lv_theme_mono.c **** 
 2689              		.loc 1 144 5 view .LVU818
 2690 02fe 47F6FF71 		movw	r1, #32767
 2691 0302 6030     		adds	r0, r0, #96
 2692 0304 FFF7FEFF 		bl	lv_style_set_radius
 2693              	.LVL282:
 146:Drivers/lvgl/src/extra/themes/mono/lv_theme_mono.c ****     lv_style_set_text_line_space(&styles->large_line_space, 6);
 2694              		.loc 1 146 5 is_stmt 1 view .LVU819
 146:Drivers/lvgl/src/extra/themes/mono/lv_theme_mono.c ****     lv_style_set_text_line_space(&styles->large_line_space, 6);
 2695              		.loc 1 146 29 is_stmt 0 view .LVU820
 2696 0308 2068     		ldr	r0, [r4]
 146:Drivers/lvgl/src/extra/themes/mono/lv_theme_mono.c ****     lv_style_set_text_line_space(&styles->large_line_space, 6);
 2697              		.loc 1 146 5 view .LVU821
 2698 030a 7030     		adds	r0, r0, #112
 2699 030c FFF7FEFF 		bl	style_init_reset
 2700              	.LVL283:
 147:Drivers/lvgl/src/extra/themes/mono/lv_theme_mono.c **** 
 2701              		.loc 1 147 5 is_stmt 1 view .LVU822
 147:Drivers/lvgl/src/extra/themes/mono/lv_theme_mono.c **** 
 2702              		.loc 1 147 41 is_stmt 0 view .LVU823
 2703 0310 2068     		ldr	r0, [r4]
 147:Drivers/lvgl/src/extra/themes/mono/lv_theme_mono.c **** 
 2704              		.loc 1 147 5 view .LVU824
 2705 0312 0621     		movs	r1, #6
 2706 0314 7030     		adds	r0, r0, #112
 2707 0316 FFF7FEFF 		bl	lv_style_set_text_line_space
 2708              	.LVL284:
 149:Drivers/lvgl/src/extra/themes/mono/lv_theme_mono.c ****     lv_style_set_text_decor(&styles->underline, LV_TEXT_DECOR_UNDERLINE);
 2709              		.loc 1 149 5 is_stmt 1 view .LVU825
 149:Drivers/lvgl/src/extra/themes/mono/lv_theme_mono.c ****     lv_style_set_text_decor(&styles->underline, LV_TEXT_DECOR_UNDERLINE);
ARM GAS  /var/folders/lp/x54gwt890xv47sdkqj1k04q40000gn/T//cc7THuQy.s 			page 93


 2710              		.loc 1 149 29 is_stmt 0 view .LVU826
 2711 031a 2068     		ldr	r0, [r4]
 149:Drivers/lvgl/src/extra/themes/mono/lv_theme_mono.c ****     lv_style_set_text_decor(&styles->underline, LV_TEXT_DECOR_UNDERLINE);
 2712              		.loc 1 149 5 view .LVU827
 2713 031c 7830     		adds	r0, r0, #120
 2714 031e FFF7FEFF 		bl	style_init_reset
 2715              	.LVL285:
 150:Drivers/lvgl/src/extra/themes/mono/lv_theme_mono.c **** 
 2716              		.loc 1 150 5 is_stmt 1 view .LVU828
 150:Drivers/lvgl/src/extra/themes/mono/lv_theme_mono.c **** 
 2717              		.loc 1 150 36 is_stmt 0 view .LVU829
 2718 0322 2068     		ldr	r0, [r4]
 150:Drivers/lvgl/src/extra/themes/mono/lv_theme_mono.c **** 
 2719              		.loc 1 150 5 view .LVU830
 2720 0324 0121     		movs	r1, #1
 2721 0326 7830     		adds	r0, r0, #120
 2722 0328 FFF7FEFF 		bl	lv_style_set_text_decor
 2723              	.LVL286:
 153:Drivers/lvgl/src/extra/themes/mono/lv_theme_mono.c ****     lv_style_set_border_side(&styles->ta_cursor, LV_BORDER_SIDE_LEFT);
 2724              		.loc 1 153 5 is_stmt 1 view .LVU831
 153:Drivers/lvgl/src/extra/themes/mono/lv_theme_mono.c ****     lv_style_set_border_side(&styles->ta_cursor, LV_BORDER_SIDE_LEFT);
 2725              		.loc 1 153 29 is_stmt 0 view .LVU832
 2726 032c 2068     		ldr	r0, [r4]
 153:Drivers/lvgl/src/extra/themes/mono/lv_theme_mono.c ****     lv_style_set_border_side(&styles->ta_cursor, LV_BORDER_SIDE_LEFT);
 2727              		.loc 1 153 5 view .LVU833
 2728 032e 8030     		adds	r0, r0, #128
 2729 0330 FFF7FEFF 		bl	style_init_reset
 2730              	.LVL287:
 154:Drivers/lvgl/src/extra/themes/mono/lv_theme_mono.c ****     lv_style_set_border_color(&styles->ta_cursor, COLOR_FG);
 2731              		.loc 1 154 5 is_stmt 1 view .LVU834
 154:Drivers/lvgl/src/extra/themes/mono/lv_theme_mono.c ****     lv_style_set_border_color(&styles->ta_cursor, COLOR_FG);
 2732              		.loc 1 154 37 is_stmt 0 view .LVU835
 2733 0334 2068     		ldr	r0, [r4]
 154:Drivers/lvgl/src/extra/themes/mono/lv_theme_mono.c ****     lv_style_set_border_color(&styles->ta_cursor, COLOR_FG);
 2734              		.loc 1 154 5 view .LVU836
 2735 0336 0421     		movs	r1, #4
 2736 0338 8030     		adds	r0, r0, #128
 2737 033a FFF7FEFF 		bl	lv_style_set_border_side
 2738              	.LVL288:
 155:Drivers/lvgl/src/extra/themes/mono/lv_theme_mono.c ****     lv_style_set_border_width(&styles->ta_cursor, 2);
 2739              		.loc 1 155 5 is_stmt 1 view .LVU837
 155:Drivers/lvgl/src/extra/themes/mono/lv_theme_mono.c ****     lv_style_set_border_width(&styles->ta_cursor, 2);
 2740              		.loc 1 155 38 is_stmt 0 view .LVU838
 2741 033e 2068     		ldr	r0, [r4]
 155:Drivers/lvgl/src/extra/themes/mono/lv_theme_mono.c ****     lv_style_set_border_width(&styles->ta_cursor, 2);
 2742              		.loc 1 155 5 view .LVU839
 2743 0340 8030     		adds	r0, r0, #128
 2744 0342 01E0     		b	.L93
 2745              	.L94:
 2746              		.align	2
 2747              	.L92:
 2748 0344 00000000 		.word	styles
 2749              	.L93:
 2750 0348 002D     		cmp	r5, #0
 2751 034a 00F08580 		beq	.L89
 2752              	.LBB197:
 2753              	.LBI197:
ARM GAS  /var/folders/lp/x54gwt890xv47sdkqj1k04q40000gn/T//cc7THuQy.s 			page 94


 696:Drivers/lvgl/src/extra/themes/mono/../../../../src/hal/../draw/../misc/lv_color.h **** {
 2754              		.loc 3 696 26 is_stmt 1 view .LVU840
 2755              	.LBB198:
 698:Drivers/lvgl/src/extra/themes/mono/../../../../src/hal/../draw/../misc/lv_color.h **** }
 2756              		.loc 3 698 5 view .LVU841
 2757              	.LVL289:
 2758              	.LBB199:
 2759              	.LBI199:
 595:Drivers/lvgl/src/extra/themes/mono/../../../../src/hal/../draw/../misc/lv_color.h **** {
 2760              		.loc 3 595 26 view .LVU842
 2761              	.LBB200:
 597:Drivers/lvgl/src/extra/themes/mono/../../../../src/hal/../draw/../misc/lv_color.h **** }
 2762              		.loc 3 597 5 view .LVU843
 597:Drivers/lvgl/src/extra/themes/mono/../../../../src/hal/../draw/../misc/lv_color.h **** }
 2763              		.loc 3 597 5 is_stmt 0 view .LVU844
 2764 034e 4FF0FF31 		mov	r1, #-1	@ movhi
 2765              	.L90:
 2766              	.LBE200:
 2767              	.LBE199:
 2768              	.LBE198:
 2769              	.LBE197:
 155:Drivers/lvgl/src/extra/themes/mono/lv_theme_mono.c ****     lv_style_set_border_width(&styles->ta_cursor, 2);
 2770              		.loc 1 155 5 discriminator 4 view .LVU845
 2771 0352 FFF7FEFF 		bl	lv_style_set_border_color
 2772              	.LVL290:
 156:Drivers/lvgl/src/extra/themes/mono/lv_theme_mono.c ****     lv_style_set_bg_opa(&styles->ta_cursor, LV_OPA_TRANSP);
 2773              		.loc 1 156 5 is_stmt 1 view .LVU846
 156:Drivers/lvgl/src/extra/themes/mono/lv_theme_mono.c ****     lv_style_set_bg_opa(&styles->ta_cursor, LV_OPA_TRANSP);
 2774              		.loc 1 156 38 is_stmt 0 view .LVU847
 2775 0356 464C     		ldr	r4, .L95
 2776 0358 2068     		ldr	r0, [r4]
 156:Drivers/lvgl/src/extra/themes/mono/lv_theme_mono.c ****     lv_style_set_bg_opa(&styles->ta_cursor, LV_OPA_TRANSP);
 2777              		.loc 1 156 5 view .LVU848
 2778 035a 0221     		movs	r1, #2
 2779 035c 8030     		adds	r0, r0, #128
 2780 035e FFF7FEFF 		bl	lv_style_set_border_width
 2781              	.LVL291:
 157:Drivers/lvgl/src/extra/themes/mono/lv_theme_mono.c ****     lv_style_set_anim_time(&styles->ta_cursor, 500);
 2782              		.loc 1 157 5 is_stmt 1 view .LVU849
 157:Drivers/lvgl/src/extra/themes/mono/lv_theme_mono.c ****     lv_style_set_anim_time(&styles->ta_cursor, 500);
 2783              		.loc 1 157 32 is_stmt 0 view .LVU850
 2784 0362 2068     		ldr	r0, [r4]
 157:Drivers/lvgl/src/extra/themes/mono/lv_theme_mono.c ****     lv_style_set_anim_time(&styles->ta_cursor, 500);
 2785              		.loc 1 157 5 view .LVU851
 2786 0364 0021     		movs	r1, #0
 2787 0366 8030     		adds	r0, r0, #128
 2788 0368 FFF7FEFF 		bl	lv_style_set_bg_opa
 2789              	.LVL292:
 158:Drivers/lvgl/src/extra/themes/mono/lv_theme_mono.c **** #endif
 2790              		.loc 1 158 5 is_stmt 1 view .LVU852
 158:Drivers/lvgl/src/extra/themes/mono/lv_theme_mono.c **** #endif
 2791              		.loc 1 158 35 is_stmt 0 view .LVU853
 2792 036c 2068     		ldr	r0, [r4]
 158:Drivers/lvgl/src/extra/themes/mono/lv_theme_mono.c **** #endif
 2793              		.loc 1 158 5 view .LVU854
 2794 036e 4FF4FA71 		mov	r1, #500
 2795 0372 8030     		adds	r0, r0, #128
ARM GAS  /var/folders/lp/x54gwt890xv47sdkqj1k04q40000gn/T//cc7THuQy.s 			page 95


 2796 0374 FFF7FEFF 		bl	lv_style_set_anim_time
 2797              	.LVL293:
 160:Drivers/lvgl/src/extra/themes/mono/lv_theme_mono.c **** 
 2798              		.loc 1 160 1 view .LVU855
 2799 0378 70BD     		pop	{r4, r5, r6, pc}
 2800              	.LVL294:
 2801              	.L59:
 2802              	.LBB201:
 2803              	.LBI201:
 700:Drivers/lvgl/src/extra/themes/mono/../../../../src/hal/../draw/../misc/lv_color.h **** {
 2804              		.loc 3 700 26 is_stmt 1 view .LVU856
 2805              	.LBB202:
 2806              		.loc 3 702 5 view .LVU857
 2807              	.LBB203:
 2808              	.LBI203:
 595:Drivers/lvgl/src/extra/themes/mono/../../../../src/hal/../draw/../misc/lv_color.h **** {
 2809              		.loc 3 595 26 view .LVU858
 2810              	.LBB204:
 597:Drivers/lvgl/src/extra/themes/mono/../../../../src/hal/../draw/../misc/lv_color.h **** }
 2811              		.loc 3 597 5 view .LVU859
 597:Drivers/lvgl/src/extra/themes/mono/../../../../src/hal/../draw/../misc/lv_color.h **** }
 2812              		.loc 3 597 12 is_stmt 0 view .LVU860
 2813 037a 4FF00003 		mov	r3, #0	@ movhi
 2814 037e 23F00703 		bic	r3, r3, #7
 2815 0382 23F0F803 		bic	r3, r3, #248
 2816 0386 23F4F853 		bic	r3, r3, #7936
 2817 038a 23F46043 		bic	r3, r3, #57344
 2818              	.LVL295:
 597:Drivers/lvgl/src/extra/themes/mono/../../../../src/hal/../draw/../misc/lv_color.h **** }
 2819              		.loc 3 597 12 view .LVU861
 2820 038e 1946     		mov	r1, r3	@ movhi
 2821              	.LBE204:
 2822              	.LBE203:
 2823              		.loc 3 702 12 view .LVU862
 2824 0390 4AE6     		b	.L60
 2825              	.L61:
 2826              	.LBE202:
 2827              	.LBE201:
 2828              	.LBB205:
 2829              	.LBI205:
 696:Drivers/lvgl/src/extra/themes/mono/../../../../src/hal/../draw/../misc/lv_color.h **** {
 2830              		.loc 3 696 26 is_stmt 1 view .LVU863
 2831              	.LBB206:
 698:Drivers/lvgl/src/extra/themes/mono/../../../../src/hal/../draw/../misc/lv_color.h **** }
 2832              		.loc 3 698 5 view .LVU864
 2833              	.LVL296:
 2834              	.LBB207:
 2835              	.LBI207:
 595:Drivers/lvgl/src/extra/themes/mono/../../../../src/hal/../draw/../misc/lv_color.h **** {
 2836              		.loc 3 595 26 view .LVU865
 2837              	.LBB208:
 597:Drivers/lvgl/src/extra/themes/mono/../../../../src/hal/../draw/../misc/lv_color.h **** }
 2838              		.loc 3 597 5 view .LVU866
 597:Drivers/lvgl/src/extra/themes/mono/../../../../src/hal/../draw/../misc/lv_color.h **** }
 2839              		.loc 3 597 5 is_stmt 0 view .LVU867
 2840 0392 4FF0FF31 		mov	r1, #-1	@ movhi
 2841              	.LBE208:
ARM GAS  /var/folders/lp/x54gwt890xv47sdkqj1k04q40000gn/T//cc7THuQy.s 			page 96


 2842              	.LBE207:
 698:Drivers/lvgl/src/extra/themes/mono/../../../../src/hal/../draw/../misc/lv_color.h **** }
 2843              		.loc 3 698 12 view .LVU868
 2844 0396 65E6     		b	.L62
 2845              	.L63:
 2846              	.LBE206:
 2847              	.LBE205:
 2848              	.LBB209:
 2849              	.LBI209:
 700:Drivers/lvgl/src/extra/themes/mono/../../../../src/hal/../draw/../misc/lv_color.h **** {
 2850              		.loc 3 700 26 is_stmt 1 view .LVU869
 2851              	.LBB210:
 2852              		.loc 3 702 5 view .LVU870
 2853              	.LVL297:
 2854              	.LBB211:
 2855              	.LBI211:
 595:Drivers/lvgl/src/extra/themes/mono/../../../../src/hal/../draw/../misc/lv_color.h **** {
 2856              		.loc 3 595 26 view .LVU871
 2857              	.LBB212:
 597:Drivers/lvgl/src/extra/themes/mono/../../../../src/hal/../draw/../misc/lv_color.h **** }
 2858              		.loc 3 597 5 view .LVU872
 597:Drivers/lvgl/src/extra/themes/mono/../../../../src/hal/../draw/../misc/lv_color.h **** }
 2859              		.loc 3 597 12 is_stmt 0 view .LVU873
 2860 0398 4FF00003 		mov	r3, #0	@ movhi
 2861 039c 23F00703 		bic	r3, r3, #7
 2862 03a0 23F0F803 		bic	r3, r3, #248
 2863 03a4 23F4F853 		bic	r3, r3, #7936
 2864 03a8 23F46043 		bic	r3, r3, #57344
 2865              	.LVL298:
 597:Drivers/lvgl/src/extra/themes/mono/../../../../src/hal/../draw/../misc/lv_color.h **** }
 2866              		.loc 3 597 12 view .LVU874
 2867 03ac 1946     		mov	r1, r3	@ movhi
 2868              	.LBE212:
 2869              	.LBE211:
 2870              		.loc 3 702 12 view .LVU875
 2871 03ae 62E6     		b	.L64
 2872              	.L65:
 2873              		.loc 3 702 12 view .LVU876
 2874              	.LBE210:
 2875              	.LBE209:
 2876              	.LBB213:
 2877              	.LBI213:
 696:Drivers/lvgl/src/extra/themes/mono/../../../../src/hal/../draw/../misc/lv_color.h **** {
 2878              		.loc 3 696 26 is_stmt 1 view .LVU877
 2879              	.LBB214:
 698:Drivers/lvgl/src/extra/themes/mono/../../../../src/hal/../draw/../misc/lv_color.h **** }
 2880              		.loc 3 698 5 view .LVU878
 2881              	.LVL299:
 2882              	.LBB215:
 2883              	.LBI215:
 595:Drivers/lvgl/src/extra/themes/mono/../../../../src/hal/../draw/../misc/lv_color.h **** {
 2884              		.loc 3 595 26 view .LVU879
 2885              	.LBB216:
 597:Drivers/lvgl/src/extra/themes/mono/../../../../src/hal/../draw/../misc/lv_color.h **** }
 2886              		.loc 3 597 5 view .LVU880
 597:Drivers/lvgl/src/extra/themes/mono/../../../../src/hal/../draw/../misc/lv_color.h **** }
 2887              		.loc 3 597 5 is_stmt 0 view .LVU881
ARM GAS  /var/folders/lp/x54gwt890xv47sdkqj1k04q40000gn/T//cc7THuQy.s 			page 97


 2888 03b0 4FF0FF31 		mov	r1, #-1	@ movhi
 2889              	.LBE216:
 2890              	.LBE215:
 698:Drivers/lvgl/src/extra/themes/mono/../../../../src/hal/../draw/../misc/lv_color.h **** }
 2891              		.loc 3 698 12 view .LVU882
 2892 03b4 86E6     		b	.L66
 2893              	.L67:
 2894              	.LBE214:
 2895              	.LBE213:
 2896              	.LBB217:
 2897              	.LBI217:
 700:Drivers/lvgl/src/extra/themes/mono/../../../../src/hal/../draw/../misc/lv_color.h **** {
 2898              		.loc 3 700 26 is_stmt 1 view .LVU883
 2899              	.LBB218:
 2900              		.loc 3 702 5 view .LVU884
 2901              	.LVL300:
 2902              	.LBB219:
 2903              	.LBI219:
 595:Drivers/lvgl/src/extra/themes/mono/../../../../src/hal/../draw/../misc/lv_color.h **** {
 2904              		.loc 3 595 26 view .LVU885
 2905              	.LBB220:
 597:Drivers/lvgl/src/extra/themes/mono/../../../../src/hal/../draw/../misc/lv_color.h **** }
 2906              		.loc 3 597 5 view .LVU886
 597:Drivers/lvgl/src/extra/themes/mono/../../../../src/hal/../draw/../misc/lv_color.h **** }
 2907              		.loc 3 597 12 is_stmt 0 view .LVU887
 2908 03b6 4FF00001 		mov	r1, #0	@ movhi
 2909 03ba 21F00701 		bic	r1, r1, #7
 2910 03be 21F0F801 		bic	r1, r1, #248
 2911 03c2 21F4F851 		bic	r1, r1, #7936
 2912 03c6 21F46041 		bic	r1, r1, #57344
 2913              	.LVL301:
 597:Drivers/lvgl/src/extra/themes/mono/../../../../src/hal/../draw/../misc/lv_color.h **** }
 2914              		.loc 3 597 12 view .LVU888
 2915              	.LBE220:
 2916              	.LBE219:
 2917              		.loc 3 702 12 view .LVU889
 2918 03ca 85E6     		b	.L68
 2919              	.L69:
 2920              	.LBE218:
 2921              	.LBE217:
 2922              	.LBB221:
 2923              	.LBI221:
 700:Drivers/lvgl/src/extra/themes/mono/../../../../src/hal/../draw/../misc/lv_color.h **** {
 2924              		.loc 3 700 26 is_stmt 1 view .LVU890
 2925              	.LBB222:
 2926              		.loc 3 702 5 view .LVU891
 2927              	.LVL302:
 2928              	.LBB223:
 2929              	.LBI223:
 595:Drivers/lvgl/src/extra/themes/mono/../../../../src/hal/../draw/../misc/lv_color.h **** {
 2930              		.loc 3 595 26 view .LVU892
 2931              	.LBB224:
 597:Drivers/lvgl/src/extra/themes/mono/../../../../src/hal/../draw/../misc/lv_color.h **** }
 2932              		.loc 3 597 5 view .LVU893
 597:Drivers/lvgl/src/extra/themes/mono/../../../../src/hal/../draw/../misc/lv_color.h **** }
 2933              		.loc 3 597 12 is_stmt 0 view .LVU894
 2934 03cc 4FF00001 		mov	r1, #0	@ movhi
ARM GAS  /var/folders/lp/x54gwt890xv47sdkqj1k04q40000gn/T//cc7THuQy.s 			page 98


 2935 03d0 21F00701 		bic	r1, r1, #7
 2936 03d4 21F0F801 		bic	r1, r1, #248
 2937 03d8 21F4F851 		bic	r1, r1, #7936
 2938 03dc 21F46041 		bic	r1, r1, #57344
 2939              	.LVL303:
 597:Drivers/lvgl/src/extra/themes/mono/../../../../src/hal/../draw/../misc/lv_color.h **** }
 2940              		.loc 3 597 12 view .LVU895
 2941              	.LBE224:
 2942              	.LBE223:
 2943              		.loc 3 702 12 view .LVU896
 2944 03e0 98E6     		b	.L70
 2945              	.L71:
 2946              	.LBE222:
 2947              	.LBE221:
 2948              	.LBB225:
 2949              	.LBI225:
 700:Drivers/lvgl/src/extra/themes/mono/../../../../src/hal/../draw/../misc/lv_color.h **** {
 2950              		.loc 3 700 26 is_stmt 1 view .LVU897
 2951              	.LBB226:
 2952              		.loc 3 702 5 view .LVU898
 2953              	.LVL304:
 2954              	.LBB227:
 2955              	.LBI227:
 595:Drivers/lvgl/src/extra/themes/mono/../../../../src/hal/../draw/../misc/lv_color.h **** {
 2956              		.loc 3 595 26 view .LVU899
 2957              	.LBB228:
 597:Drivers/lvgl/src/extra/themes/mono/../../../../src/hal/../draw/../misc/lv_color.h **** }
 2958              		.loc 3 597 5 view .LVU900
 597:Drivers/lvgl/src/extra/themes/mono/../../../../src/hal/../draw/../misc/lv_color.h **** }
 2959              		.loc 3 597 12 is_stmt 0 view .LVU901
 2960 03e2 4FF00001 		mov	r1, #0	@ movhi
 2961 03e6 21F00701 		bic	r1, r1, #7
 2962 03ea 21F0F801 		bic	r1, r1, #248
 2963 03ee 21F4F851 		bic	r1, r1, #7936
 2964 03f2 21F46041 		bic	r1, r1, #57344
 2965              	.LVL305:
 597:Drivers/lvgl/src/extra/themes/mono/../../../../src/hal/../draw/../misc/lv_color.h **** }
 2966              		.loc 3 597 12 view .LVU902
 2967              	.LBE228:
 2968              	.LBE227:
 2969              		.loc 3 702 12 view .LVU903
 2970 03f6 9CE6     		b	.L72
 2971              	.L73:
 2972              	.LBE226:
 2973              	.LBE225:
 2974              	.LBB229:
 2975              	.LBI229:
 700:Drivers/lvgl/src/extra/themes/mono/../../../../src/hal/../draw/../misc/lv_color.h **** {
 2976              		.loc 3 700 26 is_stmt 1 view .LVU904
 2977              	.LBB230:
 2978              		.loc 3 702 5 view .LVU905
 2979              	.LVL306:
 2980              	.LBB231:
 2981              	.LBI231:
 595:Drivers/lvgl/src/extra/themes/mono/../../../../src/hal/../draw/../misc/lv_color.h **** {
 2982              		.loc 3 595 26 view .LVU906
 2983              	.LBB232:
ARM GAS  /var/folders/lp/x54gwt890xv47sdkqj1k04q40000gn/T//cc7THuQy.s 			page 99


 597:Drivers/lvgl/src/extra/themes/mono/../../../../src/hal/../draw/../misc/lv_color.h **** }
 2984              		.loc 3 597 5 view .LVU907
 597:Drivers/lvgl/src/extra/themes/mono/../../../../src/hal/../draw/../misc/lv_color.h **** }
 2985              		.loc 3 597 12 is_stmt 0 view .LVU908
 2986 03f8 4FF00001 		mov	r1, #0	@ movhi
 2987 03fc 21F00701 		bic	r1, r1, #7
 2988 0400 21F0F801 		bic	r1, r1, #248
 2989 0404 21F4F851 		bic	r1, r1, #7936
 2990 0408 21F46041 		bic	r1, r1, #57344
 2991              	.LVL307:
 597:Drivers/lvgl/src/extra/themes/mono/../../../../src/hal/../draw/../misc/lv_color.h **** }
 2992              		.loc 3 597 12 view .LVU909
 2993              	.LBE232:
 2994              	.LBE231:
 2995              		.loc 3 702 12 view .LVU910
 2996 040c A0E6     		b	.L74
 2997              	.L75:
 2998              	.LBE230:
 2999              	.LBE229:
 3000              	.LBB233:
 3001              	.LBI233:
 700:Drivers/lvgl/src/extra/themes/mono/../../../../src/hal/../draw/../misc/lv_color.h **** {
 3002              		.loc 3 700 26 is_stmt 1 view .LVU911
 3003              	.LBB234:
 3004              		.loc 3 702 5 view .LVU912
 3005              	.LVL308:
 3006              	.LBB235:
 3007              	.LBI235:
 595:Drivers/lvgl/src/extra/themes/mono/../../../../src/hal/../draw/../misc/lv_color.h **** {
 3008              		.loc 3 595 26 view .LVU913
 3009              	.LBB236:
 597:Drivers/lvgl/src/extra/themes/mono/../../../../src/hal/../draw/../misc/lv_color.h **** }
 3010              		.loc 3 597 5 view .LVU914
 597:Drivers/lvgl/src/extra/themes/mono/../../../../src/hal/../draw/../misc/lv_color.h **** }
 3011              		.loc 3 597 12 is_stmt 0 view .LVU915
 3012 040e 4FF00001 		mov	r1, #0	@ movhi
 3013 0412 21F00701 		bic	r1, r1, #7
 3014 0416 21F0F801 		bic	r1, r1, #248
 3015 041a 21F4F851 		bic	r1, r1, #7936
 3016 041e 21F46041 		bic	r1, r1, #57344
 3017              	.LVL309:
 597:Drivers/lvgl/src/extra/themes/mono/../../../../src/hal/../draw/../misc/lv_color.h **** }
 3018              		.loc 3 597 12 view .LVU916
 3019              	.LBE236:
 3020              	.LBE235:
 3021              		.loc 3 702 12 view .LVU917
 3022 0422 9FE6     		b	.L76
 3023              	.L77:
 3024              	.LBE234:
 3025              	.LBE233:
 3026              	.LBB237:
 3027              	.LBI237:
 700:Drivers/lvgl/src/extra/themes/mono/../../../../src/hal/../draw/../misc/lv_color.h **** {
 3028              		.loc 3 700 26 is_stmt 1 view .LVU918
 3029              	.LBB238:
 3030              		.loc 3 702 5 view .LVU919
 3031              	.LVL310:
ARM GAS  /var/folders/lp/x54gwt890xv47sdkqj1k04q40000gn/T//cc7THuQy.s 			page 100


 3032              	.LBB239:
 3033              	.LBI239:
 595:Drivers/lvgl/src/extra/themes/mono/../../../../src/hal/../draw/../misc/lv_color.h **** {
 3034              		.loc 3 595 26 view .LVU920
 3035              	.LBB240:
 597:Drivers/lvgl/src/extra/themes/mono/../../../../src/hal/../draw/../misc/lv_color.h **** }
 3036              		.loc 3 597 5 view .LVU921
 597:Drivers/lvgl/src/extra/themes/mono/../../../../src/hal/../draw/../misc/lv_color.h **** }
 3037              		.loc 3 597 12 is_stmt 0 view .LVU922
 3038 0424 4FF00001 		mov	r1, #0	@ movhi
 3039 0428 21F00701 		bic	r1, r1, #7
 3040 042c 21F0F801 		bic	r1, r1, #248
 3041 0430 21F4F851 		bic	r1, r1, #7936
 3042 0434 21F46041 		bic	r1, r1, #57344
 3043              	.LVL311:
 597:Drivers/lvgl/src/extra/themes/mono/../../../../src/hal/../draw/../misc/lv_color.h **** }
 3044              		.loc 3 597 12 view .LVU923
 3045              	.LBE240:
 3046              	.LBE239:
 3047              		.loc 3 702 12 view .LVU924
 3048 0438 B6E6     		b	.L78
 3049              	.L79:
 3050              	.LBE238:
 3051              	.LBE237:
 3052              	.LBB241:
 3053              	.LBI241:
 696:Drivers/lvgl/src/extra/themes/mono/../../../../src/hal/../draw/../misc/lv_color.h **** {
 3054              		.loc 3 696 26 is_stmt 1 view .LVU925
 3055              	.LBB242:
 698:Drivers/lvgl/src/extra/themes/mono/../../../../src/hal/../draw/../misc/lv_color.h **** }
 3056              		.loc 3 698 5 view .LVU926
 3057              	.LVL312:
 3058              	.LBB243:
 3059              	.LBI243:
 595:Drivers/lvgl/src/extra/themes/mono/../../../../src/hal/../draw/../misc/lv_color.h **** {
 3060              		.loc 3 595 26 view .LVU927
 3061              	.LBB244:
 597:Drivers/lvgl/src/extra/themes/mono/../../../../src/hal/../draw/../misc/lv_color.h **** }
 3062              		.loc 3 597 5 view .LVU928
 597:Drivers/lvgl/src/extra/themes/mono/../../../../src/hal/../draw/../misc/lv_color.h **** }
 3063              		.loc 3 597 5 is_stmt 0 view .LVU929
 3064 043a 4FF0FF31 		mov	r1, #-1	@ movhi
 3065              	.LBE244:
 3066              	.LBE243:
 698:Drivers/lvgl/src/extra/themes/mono/../../../../src/hal/../draw/../misc/lv_color.h **** }
 3067              		.loc 3 698 12 view .LVU930
 3068 043e C5E6     		b	.L80
 3069              	.L81:
 3070              	.LBE242:
 3071              	.LBE241:
 3072              	.LBB245:
 3073              	.LBI245:
 696:Drivers/lvgl/src/extra/themes/mono/../../../../src/hal/../draw/../misc/lv_color.h **** {
 3074              		.loc 3 696 26 is_stmt 1 view .LVU931
 3075              	.LBB246:
 698:Drivers/lvgl/src/extra/themes/mono/../../../../src/hal/../draw/../misc/lv_color.h **** }
 3076              		.loc 3 698 5 view .LVU932
ARM GAS  /var/folders/lp/x54gwt890xv47sdkqj1k04q40000gn/T//cc7THuQy.s 			page 101


 3077              	.LVL313:
 3078              	.LBB247:
 3079              	.LBI247:
 595:Drivers/lvgl/src/extra/themes/mono/../../../../src/hal/../draw/../misc/lv_color.h **** {
 3080              		.loc 3 595 26 view .LVU933
 3081              	.LBB248:
 597:Drivers/lvgl/src/extra/themes/mono/../../../../src/hal/../draw/../misc/lv_color.h **** }
 3082              		.loc 3 597 5 view .LVU934
 597:Drivers/lvgl/src/extra/themes/mono/../../../../src/hal/../draw/../misc/lv_color.h **** }
 3083              		.loc 3 597 5 is_stmt 0 view .LVU935
 3084 0440 4FF0FF31 		mov	r1, #-1	@ movhi
 3085              	.LBE248:
 3086              	.LBE247:
 698:Drivers/lvgl/src/extra/themes/mono/../../../../src/hal/../draw/../misc/lv_color.h **** }
 3087              		.loc 3 698 12 view .LVU936
 3088 0444 D4E6     		b	.L82
 3089              	.L83:
 3090              	.LBE246:
 3091              	.LBE245:
 3092              	.LBB249:
 3093              	.LBI249:
 696:Drivers/lvgl/src/extra/themes/mono/../../../../src/hal/../draw/../misc/lv_color.h **** {
 3094              		.loc 3 696 26 is_stmt 1 view .LVU937
 3095              	.LBB250:
 698:Drivers/lvgl/src/extra/themes/mono/../../../../src/hal/../draw/../misc/lv_color.h **** }
 3096              		.loc 3 698 5 view .LVU938
 3097              	.LVL314:
 3098              	.LBB251:
 3099              	.LBI251:
 595:Drivers/lvgl/src/extra/themes/mono/../../../../src/hal/../draw/../misc/lv_color.h **** {
 3100              		.loc 3 595 26 view .LVU939
 3101              	.LBB252:
 597:Drivers/lvgl/src/extra/themes/mono/../../../../src/hal/../draw/../misc/lv_color.h **** }
 3102              		.loc 3 597 5 view .LVU940
 597:Drivers/lvgl/src/extra/themes/mono/../../../../src/hal/../draw/../misc/lv_color.h **** }
 3103              		.loc 3 597 5 is_stmt 0 view .LVU941
 3104 0446 4FF0FF31 		mov	r1, #-1	@ movhi
 3105              	.LBE252:
 3106              	.LBE251:
 698:Drivers/lvgl/src/extra/themes/mono/../../../../src/hal/../draw/../misc/lv_color.h **** }
 3107              		.loc 3 698 12 view .LVU942
 3108 044a E3E6     		b	.L84
 3109              	.L85:
 3110              	.LBE250:
 3111              	.LBE249:
 3112              	.LBB253:
 3113              	.LBI253:
 696:Drivers/lvgl/src/extra/themes/mono/../../../../src/hal/../draw/../misc/lv_color.h **** {
 3114              		.loc 3 696 26 is_stmt 1 view .LVU943
 3115              	.LBB254:
 698:Drivers/lvgl/src/extra/themes/mono/../../../../src/hal/../draw/../misc/lv_color.h **** }
 3116              		.loc 3 698 5 view .LVU944
 3117              	.LVL315:
 3118              	.LBB255:
 3119              	.LBI255:
 595:Drivers/lvgl/src/extra/themes/mono/../../../../src/hal/../draw/../misc/lv_color.h **** {
 3120              		.loc 3 595 26 view .LVU945
ARM GAS  /var/folders/lp/x54gwt890xv47sdkqj1k04q40000gn/T//cc7THuQy.s 			page 102


 3121              	.LBB256:
 597:Drivers/lvgl/src/extra/themes/mono/../../../../src/hal/../draw/../misc/lv_color.h **** }
 3122              		.loc 3 597 5 view .LVU946
 597:Drivers/lvgl/src/extra/themes/mono/../../../../src/hal/../draw/../misc/lv_color.h **** }
 3123              		.loc 3 597 5 is_stmt 0 view .LVU947
 3124 044c 4FF0FF31 		mov	r1, #-1	@ movhi
 3125              	.LBE256:
 3126              	.LBE255:
 698:Drivers/lvgl/src/extra/themes/mono/../../../../src/hal/../draw/../misc/lv_color.h **** }
 3127              		.loc 3 698 12 view .LVU948
 3128 0450 F2E6     		b	.L86
 3129              	.L87:
 3130              	.LBE254:
 3131              	.LBE253:
 3132              	.LBB257:
 3133              	.LBI257:
 696:Drivers/lvgl/src/extra/themes/mono/../../../../src/hal/../draw/../misc/lv_color.h **** {
 3134              		.loc 3 696 26 is_stmt 1 view .LVU949
 3135              	.LBB258:
 698:Drivers/lvgl/src/extra/themes/mono/../../../../src/hal/../draw/../misc/lv_color.h **** }
 3136              		.loc 3 698 5 view .LVU950
 3137              	.LVL316:
 3138              	.LBB259:
 3139              	.LBI259:
 595:Drivers/lvgl/src/extra/themes/mono/../../../../src/hal/../draw/../misc/lv_color.h **** {
 3140              		.loc 3 595 26 view .LVU951
 3141              	.LBB260:
 597:Drivers/lvgl/src/extra/themes/mono/../../../../src/hal/../draw/../misc/lv_color.h **** }
 3142              		.loc 3 597 5 view .LVU952
 597:Drivers/lvgl/src/extra/themes/mono/../../../../src/hal/../draw/../misc/lv_color.h **** }
 3143              		.loc 3 597 5 is_stmt 0 view .LVU953
 3144 0452 4FF0FF31 		mov	r1, #-1	@ movhi
 3145              	.LBE260:
 3146              	.LBE259:
 698:Drivers/lvgl/src/extra/themes/mono/../../../../src/hal/../draw/../misc/lv_color.h **** }
 3147              		.loc 3 698 12 view .LVU954
 3148 0456 01E7     		b	.L88
 3149              	.L89:
 3150              	.LBE258:
 3151              	.LBE257:
 3152              	.LBB261:
 3153              	.LBI261:
 700:Drivers/lvgl/src/extra/themes/mono/../../../../src/hal/../draw/../misc/lv_color.h **** {
 3154              		.loc 3 700 26 is_stmt 1 view .LVU955
 3155              	.LBB262:
 3156              		.loc 3 702 5 view .LVU956
 3157              	.LVL317:
 3158              	.LBB263:
 3159              	.LBI263:
 595:Drivers/lvgl/src/extra/themes/mono/../../../../src/hal/../draw/../misc/lv_color.h **** {
 3160              		.loc 3 595 26 view .LVU957
 3161              	.LBB264:
 597:Drivers/lvgl/src/extra/themes/mono/../../../../src/hal/../draw/../misc/lv_color.h **** }
 3162              		.loc 3 597 5 view .LVU958
 597:Drivers/lvgl/src/extra/themes/mono/../../../../src/hal/../draw/../misc/lv_color.h **** }
 3163              		.loc 3 597 12 is_stmt 0 view .LVU959
 3164 0458 4FF00001 		mov	r1, #0	@ movhi
ARM GAS  /var/folders/lp/x54gwt890xv47sdkqj1k04q40000gn/T//cc7THuQy.s 			page 103


 3165 045c 21F00701 		bic	r1, r1, #7
 3166 0460 21F0F801 		bic	r1, r1, #248
 3167 0464 21F4F851 		bic	r1, r1, #7936
 3168 0468 21F46041 		bic	r1, r1, #57344
 3169              	.LVL318:
 597:Drivers/lvgl/src/extra/themes/mono/../../../../src/hal/../draw/../misc/lv_color.h **** }
 3170              		.loc 3 597 12 view .LVU960
 3171              	.LBE264:
 3172              	.LBE263:
 3173              		.loc 3 702 12 view .LVU961
 3174 046c 71E7     		b	.L90
 3175              	.L96:
 3176 046e 00BF     		.align	2
 3177              	.L95:
 3178 0470 00000000 		.word	styles
 3179              	.LBE262:
 3180              	.LBE261:
 3181              		.cfi_endproc
 3182              	.LFE204:
 3184              		.section	.text.lv_theme_mono_is_inited,"ax",%progbits
 3185              		.align	1
 3186              		.global	lv_theme_mono_is_inited
 3187              		.syntax unified
 3188              		.thumb
 3189              		.thumb_func
 3191              	lv_theme_mono_is_inited:
 3192              	.LFB205:
 168:Drivers/lvgl/src/extra/themes/mono/lv_theme_mono.c ****     return  LV_GC_ROOT(_lv_theme_default_styles) == NULL ? false : true;
 3193              		.loc 1 168 1 is_stmt 1 view -0
 3194              		.cfi_startproc
 3195              		@ args = 0, pretend = 0, frame = 0
 3196              		@ frame_needed = 0, uses_anonymous_args = 0
 3197              		@ link register save eliminated.
 169:Drivers/lvgl/src/extra/themes/mono/lv_theme_mono.c **** }
 3198              		.loc 1 169 5 view .LVU963
 169:Drivers/lvgl/src/extra/themes/mono/lv_theme_mono.c **** }
 3199              		.loc 1 169 66 is_stmt 0 view .LVU964
 3200 0000 024B     		ldr	r3, .L98
 3201 0002 1868     		ldr	r0, [r3]
 170:Drivers/lvgl/src/extra/themes/mono/lv_theme_mono.c **** 
 3202              		.loc 1 170 1 view .LVU965
 3203 0004 0038     		subs	r0, r0, #0
 3204 0006 18BF     		it	ne
 3205 0008 0120     		movne	r0, #1
 3206 000a 7047     		bx	lr
 3207              	.L99:
 3208              		.align	2
 3209              	.L98:
 3210 000c 00000000 		.word	_lv_theme_default_styles
 3211              		.cfi_endproc
 3212              	.LFE205:
 3214              		.section	.text.lv_theme_mono_init,"ax",%progbits
 3215              		.align	1
 3216              		.global	lv_theme_mono_init
 3217              		.syntax unified
 3218              		.thumb
 3219              		.thumb_func
ARM GAS  /var/folders/lp/x54gwt890xv47sdkqj1k04q40000gn/T//cc7THuQy.s 			page 104


 3221              	lv_theme_mono_init:
 3222              	.LVL319:
 3223              	.LFB206:
 173:Drivers/lvgl/src/extra/themes/mono/lv_theme_mono.c **** 
 3224              		.loc 1 173 1 is_stmt 1 view -0
 3225              		.cfi_startproc
 3226              		@ args = 0, pretend = 0, frame = 0
 3227              		@ frame_needed = 0, uses_anonymous_args = 0
 173:Drivers/lvgl/src/extra/themes/mono/lv_theme_mono.c **** 
 3228              		.loc 1 173 1 is_stmt 0 view .LVU967
 3229 0000 70B5     		push	{r4, r5, r6, lr}
 3230              		.cfi_def_cfa_offset 16
 3231              		.cfi_offset 4, -16
 3232              		.cfi_offset 5, -12
 3233              		.cfi_offset 6, -8
 3234              		.cfi_offset 14, -4
 3235 0002 0446     		mov	r4, r0
 3236 0004 0D46     		mov	r5, r1
 3237 0006 1646     		mov	r6, r2
 178:Drivers/lvgl/src/extra/themes/mono/lv_theme_mono.c ****         inited = false;
 3238              		.loc 1 178 5 is_stmt 1 view .LVU968
 178:Drivers/lvgl/src/extra/themes/mono/lv_theme_mono.c ****         inited = false;
 3239              		.loc 1 178 8 is_stmt 0 view .LVU969
 3240 0008 144B     		ldr	r3, .L106
 3241 000a 1B78     		ldrb	r3, [r3]	@ zero_extendqisi2
 178:Drivers/lvgl/src/extra/themes/mono/lv_theme_mono.c ****         inited = false;
 3242              		.loc 1 178 7 view .LVU970
 3243 000c D3B1     		cbz	r3, .L105
 3244              	.LVL320:
 3245              	.L101:
 184:Drivers/lvgl/src/extra/themes/mono/lv_theme_mono.c ****     theme.font_small = LV_FONT_DEFAULT;
 3246              		.loc 1 184 5 is_stmt 1 view .LVU971
 184:Drivers/lvgl/src/extra/themes/mono/lv_theme_mono.c ****     theme.font_small = LV_FONT_DEFAULT;
 3247              		.loc 1 184 16 is_stmt 0 view .LVU972
 3248 000e 144B     		ldr	r3, .L106+4
 3249 0010 DC60     		str	r4, [r3, #12]
 185:Drivers/lvgl/src/extra/themes/mono/lv_theme_mono.c ****     theme.font_normal = LV_FONT_DEFAULT;
 3250              		.loc 1 185 5 is_stmt 1 view .LVU973
 185:Drivers/lvgl/src/extra/themes/mono/lv_theme_mono.c ****     theme.font_normal = LV_FONT_DEFAULT;
 3251              		.loc 1 185 22 is_stmt 0 view .LVU974
 3252 0012 144A     		ldr	r2, .L106+8
 3253 0014 5A61     		str	r2, [r3, #20]
 186:Drivers/lvgl/src/extra/themes/mono/lv_theme_mono.c ****     theme.font_large = LV_FONT_DEFAULT;
 3254              		.loc 1 186 5 is_stmt 1 view .LVU975
 186:Drivers/lvgl/src/extra/themes/mono/lv_theme_mono.c ****     theme.font_large = LV_FONT_DEFAULT;
 3255              		.loc 1 186 23 is_stmt 0 view .LVU976
 3256 0016 9A61     		str	r2, [r3, #24]
 187:Drivers/lvgl/src/extra/themes/mono/lv_theme_mono.c ****     theme.apply_cb = theme_apply;
 3257              		.loc 1 187 5 is_stmt 1 view .LVU977
 187:Drivers/lvgl/src/extra/themes/mono/lv_theme_mono.c ****     theme.apply_cb = theme_apply;
 3258              		.loc 1 187 22 is_stmt 0 view .LVU978
 3259 0018 DA61     		str	r2, [r3, #28]
 188:Drivers/lvgl/src/extra/themes/mono/lv_theme_mono.c **** 
 3260              		.loc 1 188 5 is_stmt 1 view .LVU979
 188:Drivers/lvgl/src/extra/themes/mono/lv_theme_mono.c **** 
 3261              		.loc 1 188 20 is_stmt 0 view .LVU980
 3262 001a 134A     		ldr	r2, .L106+12
ARM GAS  /var/folders/lp/x54gwt890xv47sdkqj1k04q40000gn/T//cc7THuQy.s 			page 105


 3263 001c 1A60     		str	r2, [r3]
 190:Drivers/lvgl/src/extra/themes/mono/lv_theme_mono.c **** 
 3264              		.loc 1 190 5 is_stmt 1 view .LVU981
 3265 001e 3146     		mov	r1, r6
 3266 0020 2846     		mov	r0, r5
 3267 0022 FFF7FEFF 		bl	style_init
 3268              	.LVL321:
 192:Drivers/lvgl/src/extra/themes/mono/lv_theme_mono.c **** 
 3269              		.loc 1 192 5 view .LVU982
 192:Drivers/lvgl/src/extra/themes/mono/lv_theme_mono.c **** 
 3270              		.loc 1 192 7 is_stmt 0 view .LVU983
 3271 0026 2CB1     		cbz	r4, .L102
 192:Drivers/lvgl/src/extra/themes/mono/lv_theme_mono.c **** 
 3272              		.loc 1 192 24 discriminator 2 view .LVU984
 3273 0028 2046     		mov	r0, r4
 3274 002a FFF7FEFF 		bl	lv_disp_get_theme
 3275              	.LVL322:
 192:Drivers/lvgl/src/extra/themes/mono/lv_theme_mono.c **** 
 3276              		.loc 1 192 21 discriminator 1 view .LVU985
 3277 002e 0C4B     		ldr	r3, .L106+4
 3278 0030 8342     		cmp	r3, r0
 3279 0032 02D1     		bne	.L103
 3280              	.L102:
 192:Drivers/lvgl/src/extra/themes/mono/lv_theme_mono.c **** 
 3281              		.loc 1 192 59 is_stmt 1 discriminator 3 view .LVU986
 3282 0034 0020     		movs	r0, #0
 3283 0036 FFF7FEFF 		bl	lv_obj_report_style_change
 3284              	.LVL323:
 3285              	.L103:
 194:Drivers/lvgl/src/extra/themes/mono/lv_theme_mono.c **** 
 3286              		.loc 1 194 5 view .LVU987
 194:Drivers/lvgl/src/extra/themes/mono/lv_theme_mono.c **** 
 3287              		.loc 1 194 12 is_stmt 0 view .LVU988
 3288 003a 084B     		ldr	r3, .L106
 3289 003c 0122     		movs	r2, #1
 3290 003e 1A70     		strb	r2, [r3]
 196:Drivers/lvgl/src/extra/themes/mono/lv_theme_mono.c **** }
 3291              		.loc 1 196 5 is_stmt 1 view .LVU989
 197:Drivers/lvgl/src/extra/themes/mono/lv_theme_mono.c **** 
 3292              		.loc 1 197 1 is_stmt 0 view .LVU990
 3293 0040 0748     		ldr	r0, .L106+4
 3294 0042 70BD     		pop	{r4, r5, r6, pc}
 3295              	.LVL324:
 3296              	.L105:
 179:Drivers/lvgl/src/extra/themes/mono/lv_theme_mono.c ****         LV_GC_ROOT(_lv_theme_default_styles) = lv_mem_alloc(sizeof(my_theme_styles_t));
 3297              		.loc 1 179 9 is_stmt 1 view .LVU991
 179:Drivers/lvgl/src/extra/themes/mono/lv_theme_mono.c ****         LV_GC_ROOT(_lv_theme_default_styles) = lv_mem_alloc(sizeof(my_theme_styles_t));
 3298              		.loc 1 179 16 is_stmt 0 view .LVU992
 3299 0044 054B     		ldr	r3, .L106
 3300 0046 0022     		movs	r2, #0
 3301              	.LVL325:
 179:Drivers/lvgl/src/extra/themes/mono/lv_theme_mono.c ****         LV_GC_ROOT(_lv_theme_default_styles) = lv_mem_alloc(sizeof(my_theme_styles_t));
 3302              		.loc 1 179 16 view .LVU993
 3303 0048 1A70     		strb	r2, [r3]
 180:Drivers/lvgl/src/extra/themes/mono/lv_theme_mono.c ****         styles = (my_theme_styles_t *)LV_GC_ROOT(_lv_theme_default_styles);
 3304              		.loc 1 180 9 is_stmt 1 view .LVU994
 180:Drivers/lvgl/src/extra/themes/mono/lv_theme_mono.c ****         styles = (my_theme_styles_t *)LV_GC_ROOT(_lv_theme_default_styles);
ARM GAS  /var/folders/lp/x54gwt890xv47sdkqj1k04q40000gn/T//cc7THuQy.s 			page 106


 3305              		.loc 1 180 48 is_stmt 0 view .LVU995
 3306 004a 8820     		movs	r0, #136
 3307              	.LVL326:
 180:Drivers/lvgl/src/extra/themes/mono/lv_theme_mono.c ****         styles = (my_theme_styles_t *)LV_GC_ROOT(_lv_theme_default_styles);
 3308              		.loc 1 180 48 view .LVU996
 3309 004c FFF7FEFF 		bl	lv_mem_alloc
 3310              	.LVL327:
 180:Drivers/lvgl/src/extra/themes/mono/lv_theme_mono.c ****         styles = (my_theme_styles_t *)LV_GC_ROOT(_lv_theme_default_styles);
 3311              		.loc 1 180 46 discriminator 1 view .LVU997
 3312 0050 064B     		ldr	r3, .L106+16
 3313 0052 1860     		str	r0, [r3]
 181:Drivers/lvgl/src/extra/themes/mono/lv_theme_mono.c ****     }
 3314              		.loc 1 181 9 is_stmt 1 view .LVU998
 181:Drivers/lvgl/src/extra/themes/mono/lv_theme_mono.c ****     }
 3315              		.loc 1 181 16 is_stmt 0 view .LVU999
 3316 0054 064B     		ldr	r3, .L106+20
 3317 0056 1860     		str	r0, [r3]
 3318 0058 D9E7     		b	.L101
 3319              	.L107:
 3320 005a 00BF     		.align	2
 3321              	.L106:
 3322 005c 00000000 		.word	inited
 3323 0060 00000000 		.word	theme
 3324 0064 00000000 		.word	lv_font_montserrat_14
 3325 0068 00000000 		.word	theme_apply
 3326 006c 00000000 		.word	_lv_theme_default_styles
 3327 0070 00000000 		.word	styles
 3328              		.cfi_endproc
 3329              	.LFE206:
 3331              		.section	.bss.inited,"aw",%nobits
 3334              	inited:
 3335 0000 00       		.space	1
 3336              		.section	.bss.theme,"aw",%nobits
 3337              		.align	2
 3340              	theme:
 3341 0000 00000000 		.space	36
 3341      00000000 
 3341      00000000 
 3341      00000000 
 3341      00000000 
 3342              		.section	.bss.styles,"aw",%nobits
 3343              		.align	2
 3346              	styles:
 3347 0000 00000000 		.space	4
 3348              		.text
 3349              	.Letext0:
 3350              		.file 4 "/Users/jr/Library/Application Support/Code/User/globalStorage/bmd.stm32-for-vscode/@xpack
 3351              		.file 5 "/Users/jr/Library/Application Support/Code/User/globalStorage/bmd.stm32-for-vscode/@xpack
 3352              		.file 6 "Drivers/lvgl/src/extra/themes/mono/../../../../src/misc/lv_types.h"
 3353              		.file 7 "Drivers/lvgl/src/extra/themes/mono/../../../../src/misc/lv_timer.h"
 3354              		.file 8 "/Users/jr/Library/Application Support/Code/User/globalStorage/bmd.stm32-for-vscode/@xpack
 3355              		.file 9 "Drivers/lvgl/src/extra/themes/mono/../../../../src/hal/../draw/../misc/../font/../misc/lv
 3356              		.file 10 "Drivers/lvgl/src/extra/themes/mono/../../../../src/hal/../draw/../misc/../font/lv_font.h
 3357              		.file 11 "Drivers/lvgl/src/extra/themes/mono/../../../../src/hal/../draw/../misc/lv_txt.h"
 3358              		.file 12 "Drivers/lvgl/src/extra/themes/mono/../../../../src/hal/../draw/../misc/lv_bidi.h"
 3359              		.file 13 "Drivers/lvgl/src/extra/themes/mono/../../../../src/hal/../draw/lv_img_buf.h"
 3360              		.file 14 "Drivers/lvgl/src/extra/themes/mono/../../../../src/core/lv_obj.h"
ARM GAS  /var/folders/lp/x54gwt890xv47sdkqj1k04q40000gn/T//cc7THuQy.s 			page 107


 3361              		.file 15 "Drivers/lvgl/src/extra/themes/mono/../../../../src/hal/../draw/lv_draw_rect.h"
 3362              		.file 16 "Drivers/lvgl/src/extra/themes/mono/../../../../src/hal/../draw/lv_draw_label.h"
 3363              		.file 17 "Drivers/lvgl/src/extra/themes/mono/../../../../src/hal/../draw/lv_draw_img.h"
 3364              		.file 18 "Drivers/lvgl/src/extra/themes/mono/../../../../src/hal/../draw/lv_draw_line.h"
 3365              		.file 19 "Drivers/lvgl/src/extra/themes/mono/../../../../src/hal/../draw/lv_draw_arc.h"
 3366              		.file 20 "Drivers/lvgl/src/extra/themes/mono/../../../../src/hal/../draw/lv_draw_layer.h"
 3367              		.file 21 "Drivers/lvgl/src/extra/themes/mono/../../../../src/hal/../draw/lv_draw.h"
 3368              		.file 22 "Drivers/lvgl/src/extra/themes/mono/../../../../src/hal/../misc/lv_ll.h"
 3369              		.file 23 "Drivers/lvgl/src/extra/themes/mono/../../../../src/hal/lv_hal_disp.h"
 3370              		.file 24 "Drivers/lvgl/src/extra/themes/mono/../../../../src/core/lv_theme.h"
 3371              		.file 25 "Drivers/lvgl/src/extra/themes/mono/../../../../src/core/lv_group.h"
 3372              		.file 26 "Drivers/lvgl/src/extra/themes/mono/../../../../src/core/lv_obj_scroll.h"
 3373              		.file 27 "Drivers/lvgl/src/extra/themes/mono/../../../../src/core/lv_obj_style.h"
 3374              		.file 28 "Drivers/lvgl/src/extra/themes/mono/../../../../src/core/lv_obj_class.h"
 3375              		.file 29 "Drivers/lvgl/src/extra/themes/mono/../../../../src/core/lv_event.h"
 3376              		.file 30 "Drivers/lvgl/src/extra/themes/mono/../../../../src/widgets/lv_arc.h"
 3377              		.file 31 "Drivers/lvgl/src/extra/themes/mono/../../../../src/widgets/lv_btn.h"
 3378              		.file 32 "Drivers/lvgl/src/extra/themes/mono/../../../../src/widgets/lv_table.h"
 3379              		.file 33 "Drivers/lvgl/src/extra/themes/mono/../../../../src/widgets/lv_checkbox.h"
 3380              		.file 34 "Drivers/lvgl/src/extra/themes/mono/../../../../src/widgets/lv_bar.h"
 3381              		.file 35 "Drivers/lvgl/src/extra/themes/mono/../../../../src/widgets/lv_slider.h"
 3382              		.file 36 "Drivers/lvgl/src/extra/themes/mono/../../../../src/widgets/lv_btnmatrix.h"
 3383              		.file 37 "Drivers/lvgl/src/extra/themes/mono/../../../../src/widgets/lv_dropdown.h"
 3384              		.file 38 "Drivers/lvgl/src/extra/themes/mono/../../../../src/widgets/lv_roller.h"
 3385              		.file 39 "Drivers/lvgl/src/extra/themes/mono/../../../../src/widgets/lv_textarea.h"
 3386              		.file 40 "Drivers/lvgl/src/extra/themes/mono/../../../../src/widgets/lv_switch.h"
 3387              		.file 41 "Drivers/lvgl/src/extra/themes/mono/../../../../src/extra/widgets/calendar/lv_calendar.h"
 3388              		.file 42 "Drivers/lvgl/src/extra/themes/mono/../../../../src/extra/widgets/chart/lv_chart.h"
 3389              		.file 43 "Drivers/lvgl/src/extra/themes/mono/../../../../src/extra/widgets/keyboard/lv_keyboard.h"
 3390              		.file 44 "Drivers/lvgl/src/extra/themes/mono/../../../../src/extra/widgets/list/lv_list.h"
 3391              		.file 45 "Drivers/lvgl/src/extra/themes/mono/../../../../src/extra/widgets/msgbox/lv_msgbox.h"
 3392              		.file 46 "Drivers/lvgl/src/extra/themes/mono/../../../../src/extra/widgets/meter/lv_meter.h"
 3393              		.file 47 "Drivers/lvgl/src/extra/themes/mono/../../../../src/extra/widgets/spinbox/lv_spinbox.h"
 3394              		.file 48 "Drivers/lvgl/src/extra/themes/mono/../../../../src/extra/widgets/tabview/lv_tabview.h"
 3395              		.file 49 "Drivers/lvgl/src/extra/themes/mono/../../../../src/extra/widgets/tileview/lv_tileview.h"
 3396              		.file 50 "Drivers/lvgl/src/extra/themes/mono/../../../../src/extra/widgets/win/lv_win.h"
 3397              		.file 51 "Drivers/lvgl/src/extra/themes/mono/../../../../src/extra/widgets/led/lv_led.h"
 3398              		.file 52 "Drivers/lvgl/src/extra/themes/mono/../../../../src/extra/widgets/imgbtn/lv_imgbtn.h"
 3399              		.file 53 "Drivers/lvgl/src/extra/themes/mono/../../../misc/lv_gc.h"
 3400              		.file 54 "Drivers/lvgl/src/extra/themes/mono/../../../../src/hal/../draw/../misc/lv_style_gen.h"
 3401              		.file 55 "Drivers/lvgl/src/extra/themes/mono/../../../../src/core/lv_obj_tree.h"
 3402              		.file 56 "Drivers/lvgl/src/extra/themes/mono/../../../../src/core/lv_disp.h"
 3403              		.file 57 "Drivers/lvgl/src/extra/themes/mono/../../../../src/misc/lv_mem.h"
ARM GAS  /var/folders/lp/x54gwt890xv47sdkqj1k04q40000gn/T//cc7THuQy.s 			page 108


DEFINED SYMBOLS
                            *ABS*:00000000 lv_theme_mono.c
/var/folders/lp/x54gwt890xv47sdkqj1k04q40000gn/T//cc7THuQy.s:21     .text.theme_apply:00000000 $t
/var/folders/lp/x54gwt890xv47sdkqj1k04q40000gn/T//cc7THuQy.s:26     .text.theme_apply:00000000 theme_apply
/var/folders/lp/x54gwt890xv47sdkqj1k04q40000gn/T//cc7THuQy.s:635    .text.theme_apply:000002f8 $d
/var/folders/lp/x54gwt890xv47sdkqj1k04q40000gn/T//cc7THuQy.s:3346   .bss.styles:00000000 styles
/var/folders/lp/x54gwt890xv47sdkqj1k04q40000gn/T//cc7THuQy.s:650    .text.theme_apply:00000328 $t
/var/folders/lp/x54gwt890xv47sdkqj1k04q40000gn/T//cc7THuQy.s:1217   .text.theme_apply:0000063c $d
/var/folders/lp/x54gwt890xv47sdkqj1k04q40000gn/T//cc7THuQy.s:1236   .text.theme_apply:0000067c $t
/var/folders/lp/x54gwt890xv47sdkqj1k04q40000gn/T//cc7THuQy.s:1757   .text.theme_apply:00000950 $d
/var/folders/lp/x54gwt890xv47sdkqj1k04q40000gn/T//cc7THuQy.s:1781   .text.lv_style_set_pad_gap:00000000 $t
/var/folders/lp/x54gwt890xv47sdkqj1k04q40000gn/T//cc7THuQy.s:1786   .text.lv_style_set_pad_gap:00000000 lv_style_set_pad_gap
/var/folders/lp/x54gwt890xv47sdkqj1k04q40000gn/T//cc7THuQy.s:1818   .text.lv_style_set_pad_all:00000000 $t
/var/folders/lp/x54gwt890xv47sdkqj1k04q40000gn/T//cc7THuQy.s:1823   .text.lv_style_set_pad_all:00000000 lv_style_set_pad_all
/var/folders/lp/x54gwt890xv47sdkqj1k04q40000gn/T//cc7THuQy.s:1864   .text.style_init_reset:00000000 $t
/var/folders/lp/x54gwt890xv47sdkqj1k04q40000gn/T//cc7THuQy.s:1869   .text.style_init_reset:00000000 style_init_reset
/var/folders/lp/x54gwt890xv47sdkqj1k04q40000gn/T//cc7THuQy.s:1903   .text.style_init_reset:00000014 $d
/var/folders/lp/x54gwt890xv47sdkqj1k04q40000gn/T//cc7THuQy.s:3334   .bss.inited:00000000 inited
/var/folders/lp/x54gwt890xv47sdkqj1k04q40000gn/T//cc7THuQy.s:1908   .text.style_init:00000000 $t
/var/folders/lp/x54gwt890xv47sdkqj1k04q40000gn/T//cc7THuQy.s:1913   .text.style_init:00000000 style_init
/var/folders/lp/x54gwt890xv47sdkqj1k04q40000gn/T//cc7THuQy.s:2748   .text.style_init:00000344 $d
/var/folders/lp/x54gwt890xv47sdkqj1k04q40000gn/T//cc7THuQy.s:2750   .text.style_init:00000348 $t
/var/folders/lp/x54gwt890xv47sdkqj1k04q40000gn/T//cc7THuQy.s:3178   .text.style_init:00000470 $d
/var/folders/lp/x54gwt890xv47sdkqj1k04q40000gn/T//cc7THuQy.s:3185   .text.lv_theme_mono_is_inited:00000000 $t
/var/folders/lp/x54gwt890xv47sdkqj1k04q40000gn/T//cc7THuQy.s:3191   .text.lv_theme_mono_is_inited:00000000 lv_theme_mono_is_inited
/var/folders/lp/x54gwt890xv47sdkqj1k04q40000gn/T//cc7THuQy.s:3210   .text.lv_theme_mono_is_inited:0000000c $d
/var/folders/lp/x54gwt890xv47sdkqj1k04q40000gn/T//cc7THuQy.s:3215   .text.lv_theme_mono_init:00000000 $t
/var/folders/lp/x54gwt890xv47sdkqj1k04q40000gn/T//cc7THuQy.s:3221   .text.lv_theme_mono_init:00000000 lv_theme_mono_init
/var/folders/lp/x54gwt890xv47sdkqj1k04q40000gn/T//cc7THuQy.s:3322   .text.lv_theme_mono_init:0000005c $d
/var/folders/lp/x54gwt890xv47sdkqj1k04q40000gn/T//cc7THuQy.s:3340   .bss.theme:00000000 theme
/var/folders/lp/x54gwt890xv47sdkqj1k04q40000gn/T//cc7THuQy.s:3335   .bss.inited:00000000 $d
/var/folders/lp/x54gwt890xv47sdkqj1k04q40000gn/T//cc7THuQy.s:3337   .bss.theme:00000000 $d
/var/folders/lp/x54gwt890xv47sdkqj1k04q40000gn/T//cc7THuQy.s:3343   .bss.styles:00000000 $d

UNDEFINED SYMBOLS
lv_obj_get_parent
lv_obj_check_type
lv_obj_add_style
lv_obj_get_index
lv_obj_class
lv_tabview_class
lv_win_class
lv_btn_class
lv_btnmatrix_class
lv_msgbox_class
lv_bar_class
lv_slider_class
lv_table_class
lv_checkbox_class
lv_switch_class
lv_chart_class
lv_roller_class
lv_dropdown_class
lv_dropdownlist_class
lv_arc_class
lv_meter_class
lv_textarea_class
ARM GAS  /var/folders/lp/x54gwt890xv47sdkqj1k04q40000gn/T//cc7THuQy.s 			page 109


lv_calendar_class
lv_keyboard_class
lv_list_class
lv_list_text_class
lv_list_btn_class
lv_spinbox_class
lv_tileview_class
lv_tileview_tile_class
lv_led_class
lv_style_set_pad_row
lv_style_set_pad_column
lv_style_set_pad_left
lv_style_set_pad_right
lv_style_set_pad_top
lv_style_set_pad_bottom
lv_style_reset
lv_style_init
lv_style_set_bg_opa
lv_style_set_bg_color
lv_style_set_width
lv_style_set_text_color
lv_style_set_text_font
lv_style_set_border_color
lv_style_set_radius
lv_style_set_border_width
lv_style_set_line_width
lv_style_set_line_color
lv_style_set_arc_width
lv_style_set_arc_color
lv_style_set_outline_color
lv_style_set_anim_time
lv_style_set_outline_width
lv_style_set_outline_pad
lv_style_set_text_line_space
lv_style_set_text_decor
lv_style_set_border_side
_lv_theme_default_styles
lv_disp_get_theme
lv_obj_report_style_change
lv_mem_alloc
lv_font_montserrat_14
