ARM GAS  /var/folders/lp/x54gwt890xv47sdkqj1k04q40000gn/T//cc7THuQy.s 			page 1


   1              		.cpu cortex-m4
   2              		.arch armv7e-m
   3              		.fpu fpv4-sp-d16
   4              		.eabi_attribute 27, 1
   5              		.eabi_attribute 28, 1
   6              		.eabi_attribute 20, 1
   7              		.eabi_attribute 21, 1
   8              		.eabi_attribute 23, 3
   9              		.eabi_attribute 24, 1
  10              		.eabi_attribute 25, 1
  11              		.eabi_attribute 26, 1
  12              		.eabi_attribute 30, 1
  13              		.eabi_attribute 34, 1
  14              		.eabi_attribute 18, 4
  15              		.file	"lv_theme_mono.c"
  16              		.text
  17              	.Ltext0:
  18              		.cfi_sections	.debug_frame
  19              		.file 1 "Drivers/lvgl/src/extra/themes/mono/lv_theme_mono.c"
  20              		.section	.text.theme_apply,"ax",%progbits
  21              		.align	1
  22              		.syntax unified
  23              		.thumb
  24              		.thumb_func
  26              	theme_apply:
  27              	.LVL0:
  28              	.LFB207:
   1:Drivers/lvgl/src/extra/themes/mono/lv_theme_mono.c **** /**
   2:Drivers/lvgl/src/extra/themes/mono/lv_theme_mono.c ****  * @file lv_theme_mono.c
   3:Drivers/lvgl/src/extra/themes/mono/lv_theme_mono.c ****  *
   4:Drivers/lvgl/src/extra/themes/mono/lv_theme_mono.c ****  */
   5:Drivers/lvgl/src/extra/themes/mono/lv_theme_mono.c **** 
   6:Drivers/lvgl/src/extra/themes/mono/lv_theme_mono.c **** /*********************
   7:Drivers/lvgl/src/extra/themes/mono/lv_theme_mono.c ****  *      INCLUDES
   8:Drivers/lvgl/src/extra/themes/mono/lv_theme_mono.c ****  *********************/
   9:Drivers/lvgl/src/extra/themes/mono/lv_theme_mono.c **** #include "../../../lvgl.h"
  10:Drivers/lvgl/src/extra/themes/mono/lv_theme_mono.c **** 
  11:Drivers/lvgl/src/extra/themes/mono/lv_theme_mono.c **** #if LV_USE_THEME_MONO
  12:Drivers/lvgl/src/extra/themes/mono/lv_theme_mono.c **** 
  13:Drivers/lvgl/src/extra/themes/mono/lv_theme_mono.c **** #include "lv_theme_mono.h"
  14:Drivers/lvgl/src/extra/themes/mono/lv_theme_mono.c **** #include "../../../misc/lv_gc.h"
  15:Drivers/lvgl/src/extra/themes/mono/lv_theme_mono.c **** 
  16:Drivers/lvgl/src/extra/themes/mono/lv_theme_mono.c **** /*********************
  17:Drivers/lvgl/src/extra/themes/mono/lv_theme_mono.c ****  *      DEFINES
  18:Drivers/lvgl/src/extra/themes/mono/lv_theme_mono.c ****  *********************/
  19:Drivers/lvgl/src/extra/themes/mono/lv_theme_mono.c **** 
  20:Drivers/lvgl/src/extra/themes/mono/lv_theme_mono.c **** #define COLOR_FG      dark_bg ? lv_color_white() : lv_color_black()
  21:Drivers/lvgl/src/extra/themes/mono/lv_theme_mono.c **** #define COLOR_BG      dark_bg ? lv_color_black() : lv_color_white()
  22:Drivers/lvgl/src/extra/themes/mono/lv_theme_mono.c **** 
  23:Drivers/lvgl/src/extra/themes/mono/lv_theme_mono.c **** #define BORDER_W_NORMAL  1
  24:Drivers/lvgl/src/extra/themes/mono/lv_theme_mono.c **** #define BORDER_W_PR      3
  25:Drivers/lvgl/src/extra/themes/mono/lv_theme_mono.c **** #define BORDER_W_DIS     0
  26:Drivers/lvgl/src/extra/themes/mono/lv_theme_mono.c **** #define BORDER_W_FOCUS   1
  27:Drivers/lvgl/src/extra/themes/mono/lv_theme_mono.c **** #define BORDER_W_EDIT    2
  28:Drivers/lvgl/src/extra/themes/mono/lv_theme_mono.c **** #define PAD_DEF          4
  29:Drivers/lvgl/src/extra/themes/mono/lv_theme_mono.c **** 
  30:Drivers/lvgl/src/extra/themes/mono/lv_theme_mono.c **** /**********************
ARM GAS  /var/folders/lp/x54gwt890xv47sdkqj1k04q40000gn/T//cc7THuQy.s 			page 2


  31:Drivers/lvgl/src/extra/themes/mono/lv_theme_mono.c ****  *      TYPEDEFS
  32:Drivers/lvgl/src/extra/themes/mono/lv_theme_mono.c ****  **********************/
  33:Drivers/lvgl/src/extra/themes/mono/lv_theme_mono.c **** typedef struct {
  34:Drivers/lvgl/src/extra/themes/mono/lv_theme_mono.c ****     lv_style_t scr;
  35:Drivers/lvgl/src/extra/themes/mono/lv_theme_mono.c ****     lv_style_t card;
  36:Drivers/lvgl/src/extra/themes/mono/lv_theme_mono.c ****     lv_style_t scrollbar;
  37:Drivers/lvgl/src/extra/themes/mono/lv_theme_mono.c ****     lv_style_t btn;
  38:Drivers/lvgl/src/extra/themes/mono/lv_theme_mono.c ****     lv_style_t pr;
  39:Drivers/lvgl/src/extra/themes/mono/lv_theme_mono.c ****     lv_style_t inv;
  40:Drivers/lvgl/src/extra/themes/mono/lv_theme_mono.c ****     lv_style_t disabled;
  41:Drivers/lvgl/src/extra/themes/mono/lv_theme_mono.c ****     lv_style_t focus;
  42:Drivers/lvgl/src/extra/themes/mono/lv_theme_mono.c ****     lv_style_t edit;
  43:Drivers/lvgl/src/extra/themes/mono/lv_theme_mono.c ****     lv_style_t pad_gap;
  44:Drivers/lvgl/src/extra/themes/mono/lv_theme_mono.c ****     lv_style_t pad_zero;
  45:Drivers/lvgl/src/extra/themes/mono/lv_theme_mono.c ****     lv_style_t no_radius;
  46:Drivers/lvgl/src/extra/themes/mono/lv_theme_mono.c ****     lv_style_t radius_circle;
  47:Drivers/lvgl/src/extra/themes/mono/lv_theme_mono.c ****     lv_style_t large_border;
  48:Drivers/lvgl/src/extra/themes/mono/lv_theme_mono.c ****     lv_style_t large_line_space;
  49:Drivers/lvgl/src/extra/themes/mono/lv_theme_mono.c ****     lv_style_t underline;
  50:Drivers/lvgl/src/extra/themes/mono/lv_theme_mono.c **** #if LV_USE_TEXTAREA
  51:Drivers/lvgl/src/extra/themes/mono/lv_theme_mono.c ****     lv_style_t ta_cursor;
  52:Drivers/lvgl/src/extra/themes/mono/lv_theme_mono.c **** #endif
  53:Drivers/lvgl/src/extra/themes/mono/lv_theme_mono.c **** } my_theme_styles_t;
  54:Drivers/lvgl/src/extra/themes/mono/lv_theme_mono.c **** 
  55:Drivers/lvgl/src/extra/themes/mono/lv_theme_mono.c **** 
  56:Drivers/lvgl/src/extra/themes/mono/lv_theme_mono.c **** /**********************
  57:Drivers/lvgl/src/extra/themes/mono/lv_theme_mono.c ****  *  STATIC PROTOTYPES
  58:Drivers/lvgl/src/extra/themes/mono/lv_theme_mono.c ****  **********************/
  59:Drivers/lvgl/src/extra/themes/mono/lv_theme_mono.c **** static void style_init_reset(lv_style_t * style);
  60:Drivers/lvgl/src/extra/themes/mono/lv_theme_mono.c **** static void theme_apply(lv_theme_t * th, lv_obj_t * obj);
  61:Drivers/lvgl/src/extra/themes/mono/lv_theme_mono.c **** 
  62:Drivers/lvgl/src/extra/themes/mono/lv_theme_mono.c **** /**********************
  63:Drivers/lvgl/src/extra/themes/mono/lv_theme_mono.c ****  *  STATIC VARIABLES
  64:Drivers/lvgl/src/extra/themes/mono/lv_theme_mono.c ****  **********************/
  65:Drivers/lvgl/src/extra/themes/mono/lv_theme_mono.c **** static my_theme_styles_t * styles;
  66:Drivers/lvgl/src/extra/themes/mono/lv_theme_mono.c **** static lv_theme_t theme;
  67:Drivers/lvgl/src/extra/themes/mono/lv_theme_mono.c **** static bool inited;
  68:Drivers/lvgl/src/extra/themes/mono/lv_theme_mono.c **** 
  69:Drivers/lvgl/src/extra/themes/mono/lv_theme_mono.c **** /**********************
  70:Drivers/lvgl/src/extra/themes/mono/lv_theme_mono.c ****  *      MACROS
  71:Drivers/lvgl/src/extra/themes/mono/lv_theme_mono.c ****  **********************/
  72:Drivers/lvgl/src/extra/themes/mono/lv_theme_mono.c **** 
  73:Drivers/lvgl/src/extra/themes/mono/lv_theme_mono.c **** /**********************
  74:Drivers/lvgl/src/extra/themes/mono/lv_theme_mono.c ****  *   STATIC FUNCTIONS
  75:Drivers/lvgl/src/extra/themes/mono/lv_theme_mono.c ****  **********************/
  76:Drivers/lvgl/src/extra/themes/mono/lv_theme_mono.c **** 
  77:Drivers/lvgl/src/extra/themes/mono/lv_theme_mono.c **** static void style_init(bool dark_bg, const lv_font_t * font)
  78:Drivers/lvgl/src/extra/themes/mono/lv_theme_mono.c **** {
  79:Drivers/lvgl/src/extra/themes/mono/lv_theme_mono.c ****     style_init_reset(&styles->scrollbar);
  80:Drivers/lvgl/src/extra/themes/mono/lv_theme_mono.c ****     lv_style_set_bg_opa(&styles->scrollbar, LV_OPA_COVER);
  81:Drivers/lvgl/src/extra/themes/mono/lv_theme_mono.c ****     lv_style_set_bg_color(&styles->scrollbar, COLOR_FG);
  82:Drivers/lvgl/src/extra/themes/mono/lv_theme_mono.c ****     lv_style_set_width(&styles->scrollbar,  PAD_DEF);
  83:Drivers/lvgl/src/extra/themes/mono/lv_theme_mono.c **** 
  84:Drivers/lvgl/src/extra/themes/mono/lv_theme_mono.c ****     style_init_reset(&styles->scr);
  85:Drivers/lvgl/src/extra/themes/mono/lv_theme_mono.c ****     lv_style_set_bg_opa(&styles->scr, LV_OPA_COVER);
  86:Drivers/lvgl/src/extra/themes/mono/lv_theme_mono.c ****     lv_style_set_bg_color(&styles->scr, COLOR_BG);
  87:Drivers/lvgl/src/extra/themes/mono/lv_theme_mono.c ****     lv_style_set_text_color(&styles->scr, COLOR_FG);
ARM GAS  /var/folders/lp/x54gwt890xv47sdkqj1k04q40000gn/T//cc7THuQy.s 			page 3


  88:Drivers/lvgl/src/extra/themes/mono/lv_theme_mono.c ****     lv_style_set_pad_row(&styles->scr, PAD_DEF);
  89:Drivers/lvgl/src/extra/themes/mono/lv_theme_mono.c ****     lv_style_set_pad_column(&styles->scr, PAD_DEF);
  90:Drivers/lvgl/src/extra/themes/mono/lv_theme_mono.c ****     lv_style_set_text_font(&styles->scr, font);
  91:Drivers/lvgl/src/extra/themes/mono/lv_theme_mono.c **** 
  92:Drivers/lvgl/src/extra/themes/mono/lv_theme_mono.c ****     style_init_reset(&styles->card);
  93:Drivers/lvgl/src/extra/themes/mono/lv_theme_mono.c ****     lv_style_set_bg_opa(&styles->card, LV_OPA_COVER);
  94:Drivers/lvgl/src/extra/themes/mono/lv_theme_mono.c ****     lv_style_set_bg_color(&styles->card, COLOR_BG);
  95:Drivers/lvgl/src/extra/themes/mono/lv_theme_mono.c ****     lv_style_set_border_color(&styles->card, COLOR_FG);
  96:Drivers/lvgl/src/extra/themes/mono/lv_theme_mono.c ****     lv_style_set_radius(&styles->card, 2);
  97:Drivers/lvgl/src/extra/themes/mono/lv_theme_mono.c ****     lv_style_set_border_width(&styles->card, BORDER_W_NORMAL);
  98:Drivers/lvgl/src/extra/themes/mono/lv_theme_mono.c ****     lv_style_set_pad_all(&styles->card, PAD_DEF);
  99:Drivers/lvgl/src/extra/themes/mono/lv_theme_mono.c ****     lv_style_set_pad_gap(&styles->card, PAD_DEF);
 100:Drivers/lvgl/src/extra/themes/mono/lv_theme_mono.c ****     lv_style_set_text_color(&styles->card, COLOR_FG);
 101:Drivers/lvgl/src/extra/themes/mono/lv_theme_mono.c ****     lv_style_set_line_width(&styles->card, 2);
 102:Drivers/lvgl/src/extra/themes/mono/lv_theme_mono.c ****     lv_style_set_line_color(&styles->card, COLOR_FG);
 103:Drivers/lvgl/src/extra/themes/mono/lv_theme_mono.c ****     lv_style_set_arc_width(&styles->card, 2);
 104:Drivers/lvgl/src/extra/themes/mono/lv_theme_mono.c ****     lv_style_set_arc_color(&styles->card, COLOR_FG);
 105:Drivers/lvgl/src/extra/themes/mono/lv_theme_mono.c ****     lv_style_set_outline_color(&styles->card, COLOR_FG);
 106:Drivers/lvgl/src/extra/themes/mono/lv_theme_mono.c ****     lv_style_set_anim_time(&styles->card, 300);
 107:Drivers/lvgl/src/extra/themes/mono/lv_theme_mono.c **** 
 108:Drivers/lvgl/src/extra/themes/mono/lv_theme_mono.c ****     style_init_reset(&styles->pr);
 109:Drivers/lvgl/src/extra/themes/mono/lv_theme_mono.c ****     lv_style_set_border_width(&styles->pr, BORDER_W_PR);
 110:Drivers/lvgl/src/extra/themes/mono/lv_theme_mono.c **** 
 111:Drivers/lvgl/src/extra/themes/mono/lv_theme_mono.c ****     style_init_reset(&styles->inv);
 112:Drivers/lvgl/src/extra/themes/mono/lv_theme_mono.c ****     lv_style_set_bg_opa(&styles->inv, LV_OPA_COVER);
 113:Drivers/lvgl/src/extra/themes/mono/lv_theme_mono.c ****     lv_style_set_bg_color(&styles->inv, COLOR_FG);
 114:Drivers/lvgl/src/extra/themes/mono/lv_theme_mono.c ****     lv_style_set_border_color(&styles->inv, COLOR_BG);
 115:Drivers/lvgl/src/extra/themes/mono/lv_theme_mono.c ****     lv_style_set_line_color(&styles->inv, COLOR_BG);
 116:Drivers/lvgl/src/extra/themes/mono/lv_theme_mono.c ****     lv_style_set_arc_color(&styles->inv, COLOR_BG);
 117:Drivers/lvgl/src/extra/themes/mono/lv_theme_mono.c ****     lv_style_set_text_color(&styles->inv, COLOR_BG);
 118:Drivers/lvgl/src/extra/themes/mono/lv_theme_mono.c ****     lv_style_set_outline_color(&styles->inv, COLOR_BG);
 119:Drivers/lvgl/src/extra/themes/mono/lv_theme_mono.c **** 
 120:Drivers/lvgl/src/extra/themes/mono/lv_theme_mono.c ****     style_init_reset(&styles->disabled);
 121:Drivers/lvgl/src/extra/themes/mono/lv_theme_mono.c ****     lv_style_set_border_width(&styles->disabled, BORDER_W_DIS);
 122:Drivers/lvgl/src/extra/themes/mono/lv_theme_mono.c **** 
 123:Drivers/lvgl/src/extra/themes/mono/lv_theme_mono.c ****     style_init_reset(&styles->focus);
 124:Drivers/lvgl/src/extra/themes/mono/lv_theme_mono.c ****     lv_style_set_outline_width(&styles->focus, 1);
 125:Drivers/lvgl/src/extra/themes/mono/lv_theme_mono.c ****     lv_style_set_outline_pad(&styles->focus, BORDER_W_FOCUS);
 126:Drivers/lvgl/src/extra/themes/mono/lv_theme_mono.c **** 
 127:Drivers/lvgl/src/extra/themes/mono/lv_theme_mono.c ****     style_init_reset(&styles->edit);
 128:Drivers/lvgl/src/extra/themes/mono/lv_theme_mono.c ****     lv_style_set_outline_width(&styles->edit, BORDER_W_EDIT);
 129:Drivers/lvgl/src/extra/themes/mono/lv_theme_mono.c **** 
 130:Drivers/lvgl/src/extra/themes/mono/lv_theme_mono.c ****     style_init_reset(&styles->large_border);
 131:Drivers/lvgl/src/extra/themes/mono/lv_theme_mono.c ****     lv_style_set_border_width(&styles->large_border, BORDER_W_EDIT);
 132:Drivers/lvgl/src/extra/themes/mono/lv_theme_mono.c **** 
 133:Drivers/lvgl/src/extra/themes/mono/lv_theme_mono.c ****     style_init_reset(&styles->pad_gap);
 134:Drivers/lvgl/src/extra/themes/mono/lv_theme_mono.c ****     lv_style_set_pad_gap(&styles->pad_gap, PAD_DEF);
 135:Drivers/lvgl/src/extra/themes/mono/lv_theme_mono.c **** 
 136:Drivers/lvgl/src/extra/themes/mono/lv_theme_mono.c ****     style_init_reset(&styles->pad_zero);
 137:Drivers/lvgl/src/extra/themes/mono/lv_theme_mono.c ****     lv_style_set_pad_all(&styles->pad_zero, 0);
 138:Drivers/lvgl/src/extra/themes/mono/lv_theme_mono.c ****     lv_style_set_pad_gap(&styles->pad_zero, 0);
 139:Drivers/lvgl/src/extra/themes/mono/lv_theme_mono.c **** 
 140:Drivers/lvgl/src/extra/themes/mono/lv_theme_mono.c ****     style_init_reset(&styles->no_radius);
 141:Drivers/lvgl/src/extra/themes/mono/lv_theme_mono.c ****     lv_style_set_radius(&styles->no_radius, 0);
 142:Drivers/lvgl/src/extra/themes/mono/lv_theme_mono.c **** 
 143:Drivers/lvgl/src/extra/themes/mono/lv_theme_mono.c ****     style_init_reset(&styles->radius_circle);
 144:Drivers/lvgl/src/extra/themes/mono/lv_theme_mono.c ****     lv_style_set_radius(&styles->radius_circle, LV_RADIUS_CIRCLE);
ARM GAS  /var/folders/lp/x54gwt890xv47sdkqj1k04q40000gn/T//cc7THuQy.s 			page 4


 145:Drivers/lvgl/src/extra/themes/mono/lv_theme_mono.c **** 
 146:Drivers/lvgl/src/extra/themes/mono/lv_theme_mono.c ****     style_init_reset(&styles->large_line_space);
 147:Drivers/lvgl/src/extra/themes/mono/lv_theme_mono.c ****     lv_style_set_text_line_space(&styles->large_line_space, 6);
 148:Drivers/lvgl/src/extra/themes/mono/lv_theme_mono.c **** 
 149:Drivers/lvgl/src/extra/themes/mono/lv_theme_mono.c ****     style_init_reset(&styles->underline);
 150:Drivers/lvgl/src/extra/themes/mono/lv_theme_mono.c ****     lv_style_set_text_decor(&styles->underline, LV_TEXT_DECOR_UNDERLINE);
 151:Drivers/lvgl/src/extra/themes/mono/lv_theme_mono.c **** 
 152:Drivers/lvgl/src/extra/themes/mono/lv_theme_mono.c **** #if LV_USE_TEXTAREA
 153:Drivers/lvgl/src/extra/themes/mono/lv_theme_mono.c ****     style_init_reset(&styles->ta_cursor);
 154:Drivers/lvgl/src/extra/themes/mono/lv_theme_mono.c ****     lv_style_set_border_side(&styles->ta_cursor, LV_BORDER_SIDE_LEFT);
 155:Drivers/lvgl/src/extra/themes/mono/lv_theme_mono.c ****     lv_style_set_border_color(&styles->ta_cursor, COLOR_FG);
 156:Drivers/lvgl/src/extra/themes/mono/lv_theme_mono.c ****     lv_style_set_border_width(&styles->ta_cursor, 2);
 157:Drivers/lvgl/src/extra/themes/mono/lv_theme_mono.c ****     lv_style_set_bg_opa(&styles->ta_cursor, LV_OPA_TRANSP);
 158:Drivers/lvgl/src/extra/themes/mono/lv_theme_mono.c ****     lv_style_set_anim_time(&styles->ta_cursor, 500);
 159:Drivers/lvgl/src/extra/themes/mono/lv_theme_mono.c **** #endif
 160:Drivers/lvgl/src/extra/themes/mono/lv_theme_mono.c **** }
 161:Drivers/lvgl/src/extra/themes/mono/lv_theme_mono.c **** 
 162:Drivers/lvgl/src/extra/themes/mono/lv_theme_mono.c **** 
 163:Drivers/lvgl/src/extra/themes/mono/lv_theme_mono.c **** /**********************
 164:Drivers/lvgl/src/extra/themes/mono/lv_theme_mono.c ****  *   GLOBAL FUNCTIONS
 165:Drivers/lvgl/src/extra/themes/mono/lv_theme_mono.c ****  **********************/
 166:Drivers/lvgl/src/extra/themes/mono/lv_theme_mono.c **** 
 167:Drivers/lvgl/src/extra/themes/mono/lv_theme_mono.c **** bool lv_theme_mono_is_inited(void)
 168:Drivers/lvgl/src/extra/themes/mono/lv_theme_mono.c **** {
 169:Drivers/lvgl/src/extra/themes/mono/lv_theme_mono.c ****     return  LV_GC_ROOT(_lv_theme_default_styles) == NULL ? false : true;
 170:Drivers/lvgl/src/extra/themes/mono/lv_theme_mono.c **** }
 171:Drivers/lvgl/src/extra/themes/mono/lv_theme_mono.c **** 
 172:Drivers/lvgl/src/extra/themes/mono/lv_theme_mono.c **** lv_theme_t * lv_theme_mono_init(lv_disp_t * disp, bool dark_bg, const lv_font_t * font)
 173:Drivers/lvgl/src/extra/themes/mono/lv_theme_mono.c **** {
 174:Drivers/lvgl/src/extra/themes/mono/lv_theme_mono.c **** 
 175:Drivers/lvgl/src/extra/themes/mono/lv_theme_mono.c ****     /*This trick is required only to avoid the garbage collection of
 176:Drivers/lvgl/src/extra/themes/mono/lv_theme_mono.c ****      *styles' data if LVGL is used in a binding (e.g. Micropython)
 177:Drivers/lvgl/src/extra/themes/mono/lv_theme_mono.c ****      *In a general case styles could be in simple `static lv_style_t my_style...` variables*/
 178:Drivers/lvgl/src/extra/themes/mono/lv_theme_mono.c ****     if(!inited) {
 179:Drivers/lvgl/src/extra/themes/mono/lv_theme_mono.c ****         inited = false;
 180:Drivers/lvgl/src/extra/themes/mono/lv_theme_mono.c ****         LV_GC_ROOT(_lv_theme_default_styles) = lv_mem_alloc(sizeof(my_theme_styles_t));
 181:Drivers/lvgl/src/extra/themes/mono/lv_theme_mono.c ****         styles = (my_theme_styles_t *)LV_GC_ROOT(_lv_theme_default_styles);
 182:Drivers/lvgl/src/extra/themes/mono/lv_theme_mono.c ****     }
 183:Drivers/lvgl/src/extra/themes/mono/lv_theme_mono.c **** 
 184:Drivers/lvgl/src/extra/themes/mono/lv_theme_mono.c ****     theme.disp = disp;
 185:Drivers/lvgl/src/extra/themes/mono/lv_theme_mono.c ****     theme.font_small = LV_FONT_DEFAULT;
 186:Drivers/lvgl/src/extra/themes/mono/lv_theme_mono.c ****     theme.font_normal = LV_FONT_DEFAULT;
 187:Drivers/lvgl/src/extra/themes/mono/lv_theme_mono.c ****     theme.font_large = LV_FONT_DEFAULT;
 188:Drivers/lvgl/src/extra/themes/mono/lv_theme_mono.c ****     theme.apply_cb = theme_apply;
 189:Drivers/lvgl/src/extra/themes/mono/lv_theme_mono.c **** 
 190:Drivers/lvgl/src/extra/themes/mono/lv_theme_mono.c ****     style_init(dark_bg, font);
 191:Drivers/lvgl/src/extra/themes/mono/lv_theme_mono.c **** 
 192:Drivers/lvgl/src/extra/themes/mono/lv_theme_mono.c ****     if(disp == NULL || lv_disp_get_theme(disp) == &theme) lv_obj_report_style_change(NULL);
 193:Drivers/lvgl/src/extra/themes/mono/lv_theme_mono.c **** 
 194:Drivers/lvgl/src/extra/themes/mono/lv_theme_mono.c ****     inited = true;
 195:Drivers/lvgl/src/extra/themes/mono/lv_theme_mono.c **** 
 196:Drivers/lvgl/src/extra/themes/mono/lv_theme_mono.c ****     return (lv_theme_t *)&theme;
 197:Drivers/lvgl/src/extra/themes/mono/lv_theme_mono.c **** }
 198:Drivers/lvgl/src/extra/themes/mono/lv_theme_mono.c **** 
 199:Drivers/lvgl/src/extra/themes/mono/lv_theme_mono.c **** 
 200:Drivers/lvgl/src/extra/themes/mono/lv_theme_mono.c **** static void theme_apply(lv_theme_t * th, lv_obj_t * obj)
 201:Drivers/lvgl/src/extra/themes/mono/lv_theme_mono.c **** {
ARM GAS  /var/folders/lp/x54gwt890xv47sdkqj1k04q40000gn/T//cc7THuQy.s 			page 5


  29              		.loc 1 201 1 view -0
  30              		.cfi_startproc
  31              		@ args = 0, pretend = 0, frame = 0
  32              		@ frame_needed = 0, uses_anonymous_args = 0
  33              		.loc 1 201 1 is_stmt 0 view .LVU1
  34 0000 70B5     		push	{r4, r5, r6, lr}
  35              		.cfi_def_cfa_offset 16
  36              		.cfi_offset 4, -16
  37              		.cfi_offset 5, -12
  38              		.cfi_offset 6, -8
  39              		.cfi_offset 14, -4
  40 0002 0C46     		mov	r4, r1
 202:Drivers/lvgl/src/extra/themes/mono/lv_theme_mono.c ****     LV_UNUSED(th);
  41              		.loc 1 202 5 is_stmt 1 view .LVU2
 203:Drivers/lvgl/src/extra/themes/mono/lv_theme_mono.c **** 
 204:Drivers/lvgl/src/extra/themes/mono/lv_theme_mono.c ****     if(lv_obj_get_parent(obj) == NULL) {
  42              		.loc 1 204 5 view .LVU3
  43              		.loc 1 204 8 is_stmt 0 view .LVU4
  44 0004 0846     		mov	r0, r1
  45              	.LVL1:
  46              		.loc 1 204 8 view .LVU5
  47 0006 FFF7FEFF 		bl	lv_obj_get_parent
  48              	.LVL2:
  49              		.loc 1 204 7 discriminator 1 view .LVU6
  50 000a 70B1     		cbz	r0, .L33
 205:Drivers/lvgl/src/extra/themes/mono/lv_theme_mono.c ****         lv_obj_add_style(obj, &styles->scr, 0);
 206:Drivers/lvgl/src/extra/themes/mono/lv_theme_mono.c ****         lv_obj_add_style(obj, &styles->scrollbar, LV_PART_SCROLLBAR);
 207:Drivers/lvgl/src/extra/themes/mono/lv_theme_mono.c ****         return;
 208:Drivers/lvgl/src/extra/themes/mono/lv_theme_mono.c ****     }
 209:Drivers/lvgl/src/extra/themes/mono/lv_theme_mono.c **** 
 210:Drivers/lvgl/src/extra/themes/mono/lv_theme_mono.c ****     if(lv_obj_check_type(obj, &lv_obj_class)) {
  51              		.loc 1 210 5 is_stmt 1 view .LVU7
  52              		.loc 1 210 8 is_stmt 0 view .LVU8
  53 000c BA49     		ldr	r1, .L42
  54 000e 2046     		mov	r0, r4
  55 0010 FFF7FEFF 		bl	lv_obj_check_type
  56              	.LVL3:
  57              		.loc 1 210 7 discriminator 1 view .LVU9
  58 0014 0028     		cmp	r0, #0
  59 0016 7CD0     		beq	.L4
  60              	.LBB134:
 211:Drivers/lvgl/src/extra/themes/mono/lv_theme_mono.c **** #if LV_USE_TABVIEW
 212:Drivers/lvgl/src/extra/themes/mono/lv_theme_mono.c ****         lv_obj_t * parent = lv_obj_get_parent(obj);
  61              		.loc 1 212 9 is_stmt 1 view .LVU10
  62              		.loc 1 212 29 is_stmt 0 view .LVU11
  63 0018 2046     		mov	r0, r4
  64 001a FFF7FEFF 		bl	lv_obj_get_parent
  65              	.LVL4:
  66 001e 0546     		mov	r5, r0
  67              	.LVL5:
 213:Drivers/lvgl/src/extra/themes/mono/lv_theme_mono.c ****         /*Tabview content area*/
 214:Drivers/lvgl/src/extra/themes/mono/lv_theme_mono.c ****         if(lv_obj_check_type(parent, &lv_tabview_class)) {
  68              		.loc 1 214 9 is_stmt 1 view .LVU12
  69              		.loc 1 214 12 is_stmt 0 view .LVU13
  70 0020 B649     		ldr	r1, .L42+4
  71 0022 FFF7FEFF 		bl	lv_obj_check_type
  72              	.LVL6:
ARM GAS  /var/folders/lp/x54gwt890xv47sdkqj1k04q40000gn/T//cc7THuQy.s 			page 6


  73              		.loc 1 214 11 discriminator 1 view .LVU14
  74 0026 70B1     		cbz	r0, .L34
  75              	.LVL7:
  76              	.L1:
  77              		.loc 1 214 11 discriminator 1 view .LVU15
  78              	.LBE134:
 215:Drivers/lvgl/src/extra/themes/mono/lv_theme_mono.c ****             return;
 216:Drivers/lvgl/src/extra/themes/mono/lv_theme_mono.c ****         }
 217:Drivers/lvgl/src/extra/themes/mono/lv_theme_mono.c ****         /*Tabview pages*/
 218:Drivers/lvgl/src/extra/themes/mono/lv_theme_mono.c ****         else if(lv_obj_check_type(lv_obj_get_parent(parent), &lv_tabview_class)) {
 219:Drivers/lvgl/src/extra/themes/mono/lv_theme_mono.c ****             lv_obj_add_style(obj, &styles->card, 0);
 220:Drivers/lvgl/src/extra/themes/mono/lv_theme_mono.c ****             lv_obj_add_style(obj, &styles->no_radius, 0);
 221:Drivers/lvgl/src/extra/themes/mono/lv_theme_mono.c ****             lv_obj_add_style(obj, &styles->scrollbar, LV_PART_SCROLLBAR);
 222:Drivers/lvgl/src/extra/themes/mono/lv_theme_mono.c ****             return;
 223:Drivers/lvgl/src/extra/themes/mono/lv_theme_mono.c ****         }
 224:Drivers/lvgl/src/extra/themes/mono/lv_theme_mono.c **** #endif
 225:Drivers/lvgl/src/extra/themes/mono/lv_theme_mono.c **** 
 226:Drivers/lvgl/src/extra/themes/mono/lv_theme_mono.c **** #if LV_USE_WIN
 227:Drivers/lvgl/src/extra/themes/mono/lv_theme_mono.c ****         /*Header*/
 228:Drivers/lvgl/src/extra/themes/mono/lv_theme_mono.c ****         if(lv_obj_get_index(obj) == 0 && lv_obj_check_type(lv_obj_get_parent(obj), &lv_win_class)) 
 229:Drivers/lvgl/src/extra/themes/mono/lv_theme_mono.c ****             lv_obj_add_style(obj, &styles->card, 0);
 230:Drivers/lvgl/src/extra/themes/mono/lv_theme_mono.c ****             lv_obj_add_style(obj, &styles->no_radius, 0);
 231:Drivers/lvgl/src/extra/themes/mono/lv_theme_mono.c ****             return;
 232:Drivers/lvgl/src/extra/themes/mono/lv_theme_mono.c ****         }
 233:Drivers/lvgl/src/extra/themes/mono/lv_theme_mono.c ****         /*Content*/
 234:Drivers/lvgl/src/extra/themes/mono/lv_theme_mono.c ****         else if(lv_obj_get_index(obj) == 1 && lv_obj_check_type(lv_obj_get_parent(obj), &lv_win_cla
 235:Drivers/lvgl/src/extra/themes/mono/lv_theme_mono.c ****             lv_obj_add_style(obj, &styles->card, 0);
 236:Drivers/lvgl/src/extra/themes/mono/lv_theme_mono.c ****             lv_obj_add_style(obj, &styles->no_radius, 0);
 237:Drivers/lvgl/src/extra/themes/mono/lv_theme_mono.c ****             lv_obj_add_style(obj, &styles->scrollbar, LV_PART_SCROLLBAR);
 238:Drivers/lvgl/src/extra/themes/mono/lv_theme_mono.c ****             return;
 239:Drivers/lvgl/src/extra/themes/mono/lv_theme_mono.c ****         }
 240:Drivers/lvgl/src/extra/themes/mono/lv_theme_mono.c **** #endif
 241:Drivers/lvgl/src/extra/themes/mono/lv_theme_mono.c ****         lv_obj_add_style(obj, &styles->card, 0);
 242:Drivers/lvgl/src/extra/themes/mono/lv_theme_mono.c ****         lv_obj_add_style(obj, &styles->scrollbar, LV_PART_SCROLLBAR);
 243:Drivers/lvgl/src/extra/themes/mono/lv_theme_mono.c ****     }
 244:Drivers/lvgl/src/extra/themes/mono/lv_theme_mono.c **** #if LV_USE_BTN
 245:Drivers/lvgl/src/extra/themes/mono/lv_theme_mono.c ****     else if(lv_obj_check_type(obj, &lv_btn_class)) {
 246:Drivers/lvgl/src/extra/themes/mono/lv_theme_mono.c ****         lv_obj_add_style(obj, &styles->card, 0);
 247:Drivers/lvgl/src/extra/themes/mono/lv_theme_mono.c ****         lv_obj_add_style(obj, &styles->pr, LV_STATE_PRESSED);
 248:Drivers/lvgl/src/extra/themes/mono/lv_theme_mono.c ****         lv_obj_add_style(obj, &styles->inv, LV_STATE_CHECKED);
 249:Drivers/lvgl/src/extra/themes/mono/lv_theme_mono.c ****         lv_obj_add_style(obj, &styles->disabled, LV_STATE_DISABLED);
 250:Drivers/lvgl/src/extra/themes/mono/lv_theme_mono.c ****         lv_obj_add_style(obj, &styles->focus, LV_STATE_FOCUS_KEY);
 251:Drivers/lvgl/src/extra/themes/mono/lv_theme_mono.c ****         lv_obj_add_style(obj, &styles->edit, LV_STATE_EDITED);
 252:Drivers/lvgl/src/extra/themes/mono/lv_theme_mono.c ****     }
 253:Drivers/lvgl/src/extra/themes/mono/lv_theme_mono.c **** #endif
 254:Drivers/lvgl/src/extra/themes/mono/lv_theme_mono.c **** 
 255:Drivers/lvgl/src/extra/themes/mono/lv_theme_mono.c **** #if LV_USE_BTNMATRIX
 256:Drivers/lvgl/src/extra/themes/mono/lv_theme_mono.c ****     else if(lv_obj_check_type(obj, &lv_btnmatrix_class)) {
 257:Drivers/lvgl/src/extra/themes/mono/lv_theme_mono.c **** #if LV_USE_MSGBOX
 258:Drivers/lvgl/src/extra/themes/mono/lv_theme_mono.c ****         if(lv_obj_check_type(lv_obj_get_parent(obj), &lv_msgbox_class)) {
 259:Drivers/lvgl/src/extra/themes/mono/lv_theme_mono.c ****             lv_obj_add_style(obj, &styles->pad_gap, 0);
 260:Drivers/lvgl/src/extra/themes/mono/lv_theme_mono.c ****             lv_obj_add_style(obj, &styles->card, LV_PART_ITEMS);
 261:Drivers/lvgl/src/extra/themes/mono/lv_theme_mono.c ****             lv_obj_add_style(obj, &styles->pr, LV_PART_ITEMS | LV_STATE_PRESSED);
 262:Drivers/lvgl/src/extra/themes/mono/lv_theme_mono.c ****             lv_obj_add_style(obj, &styles->disabled, LV_PART_ITEMS | LV_STATE_DISABLED);
 263:Drivers/lvgl/src/extra/themes/mono/lv_theme_mono.c ****             lv_obj_add_style(obj, &styles->underline, LV_PART_ITEMS | LV_STATE_FOCUS_KEY);
 264:Drivers/lvgl/src/extra/themes/mono/lv_theme_mono.c ****             lv_obj_add_style(obj, &styles->large_border, LV_PART_ITEMS | LV_STATE_FOCUS_KEY);
 265:Drivers/lvgl/src/extra/themes/mono/lv_theme_mono.c ****             return;
ARM GAS  /var/folders/lp/x54gwt890xv47sdkqj1k04q40000gn/T//cc7THuQy.s 			page 7


 266:Drivers/lvgl/src/extra/themes/mono/lv_theme_mono.c ****         }
 267:Drivers/lvgl/src/extra/themes/mono/lv_theme_mono.c **** #endif
 268:Drivers/lvgl/src/extra/themes/mono/lv_theme_mono.c **** #if LV_USE_TABVIEW
 269:Drivers/lvgl/src/extra/themes/mono/lv_theme_mono.c ****         if(lv_obj_check_type(lv_obj_get_parent(obj), &lv_tabview_class)) {
 270:Drivers/lvgl/src/extra/themes/mono/lv_theme_mono.c ****             lv_obj_add_style(obj, &styles->pad_gap, 0);
 271:Drivers/lvgl/src/extra/themes/mono/lv_theme_mono.c ****             lv_obj_add_style(obj, &styles->card, LV_PART_ITEMS);
 272:Drivers/lvgl/src/extra/themes/mono/lv_theme_mono.c ****             lv_obj_add_style(obj, &styles->pr, LV_PART_ITEMS | LV_STATE_PRESSED);
 273:Drivers/lvgl/src/extra/themes/mono/lv_theme_mono.c ****             lv_obj_add_style(obj, &styles->inv, LV_PART_ITEMS | LV_STATE_CHECKED);
 274:Drivers/lvgl/src/extra/themes/mono/lv_theme_mono.c ****             lv_obj_add_style(obj, &styles->disabled, LV_PART_ITEMS | LV_STATE_DISABLED);
 275:Drivers/lvgl/src/extra/themes/mono/lv_theme_mono.c ****             lv_obj_add_style(obj, &styles->focus, LV_STATE_FOCUS_KEY);
 276:Drivers/lvgl/src/extra/themes/mono/lv_theme_mono.c ****             lv_obj_add_style(obj, &styles->underline, LV_PART_ITEMS | LV_STATE_FOCUS_KEY);
 277:Drivers/lvgl/src/extra/themes/mono/lv_theme_mono.c ****             lv_obj_add_style(obj, &styles->large_border, LV_PART_ITEMS | LV_STATE_FOCUS_KEY);
 278:Drivers/lvgl/src/extra/themes/mono/lv_theme_mono.c ****             return;
 279:Drivers/lvgl/src/extra/themes/mono/lv_theme_mono.c ****         }
 280:Drivers/lvgl/src/extra/themes/mono/lv_theme_mono.c **** #endif
 281:Drivers/lvgl/src/extra/themes/mono/lv_theme_mono.c ****         lv_obj_add_style(obj, &styles->card, 0);
 282:Drivers/lvgl/src/extra/themes/mono/lv_theme_mono.c ****         lv_obj_add_style(obj, &styles->focus, LV_STATE_FOCUS_KEY);
 283:Drivers/lvgl/src/extra/themes/mono/lv_theme_mono.c ****         lv_obj_add_style(obj, &styles->card, LV_PART_ITEMS);
 284:Drivers/lvgl/src/extra/themes/mono/lv_theme_mono.c ****         lv_obj_add_style(obj, &styles->pr, LV_PART_ITEMS | LV_STATE_PRESSED);
 285:Drivers/lvgl/src/extra/themes/mono/lv_theme_mono.c ****         lv_obj_add_style(obj, &styles->inv, LV_PART_ITEMS | LV_STATE_CHECKED);
 286:Drivers/lvgl/src/extra/themes/mono/lv_theme_mono.c ****         lv_obj_add_style(obj, &styles->disabled, LV_PART_ITEMS | LV_STATE_DISABLED);
 287:Drivers/lvgl/src/extra/themes/mono/lv_theme_mono.c ****         lv_obj_add_style(obj, &styles->underline, LV_PART_ITEMS | LV_STATE_FOCUS_KEY);
 288:Drivers/lvgl/src/extra/themes/mono/lv_theme_mono.c ****         lv_obj_add_style(obj, &styles->large_border, LV_PART_ITEMS | LV_STATE_FOCUS_KEY);
 289:Drivers/lvgl/src/extra/themes/mono/lv_theme_mono.c ****     }
 290:Drivers/lvgl/src/extra/themes/mono/lv_theme_mono.c **** #endif
 291:Drivers/lvgl/src/extra/themes/mono/lv_theme_mono.c **** 
 292:Drivers/lvgl/src/extra/themes/mono/lv_theme_mono.c **** #if LV_USE_BAR
 293:Drivers/lvgl/src/extra/themes/mono/lv_theme_mono.c ****     else if(lv_obj_check_type(obj, &lv_bar_class)) {
 294:Drivers/lvgl/src/extra/themes/mono/lv_theme_mono.c ****         lv_obj_add_style(obj, &styles->card, 0);
 295:Drivers/lvgl/src/extra/themes/mono/lv_theme_mono.c ****         lv_obj_add_style(obj, &styles->pad_zero, 0);
 296:Drivers/lvgl/src/extra/themes/mono/lv_theme_mono.c ****         lv_obj_add_style(obj, &styles->inv, LV_PART_INDICATOR);
 297:Drivers/lvgl/src/extra/themes/mono/lv_theme_mono.c ****         lv_obj_add_style(obj, &styles->focus, LV_STATE_FOCUS_KEY);
 298:Drivers/lvgl/src/extra/themes/mono/lv_theme_mono.c ****     }
 299:Drivers/lvgl/src/extra/themes/mono/lv_theme_mono.c **** #endif
 300:Drivers/lvgl/src/extra/themes/mono/lv_theme_mono.c **** 
 301:Drivers/lvgl/src/extra/themes/mono/lv_theme_mono.c **** #if LV_USE_SLIDER
 302:Drivers/lvgl/src/extra/themes/mono/lv_theme_mono.c ****     else if(lv_obj_check_type(obj, &lv_slider_class)) {
 303:Drivers/lvgl/src/extra/themes/mono/lv_theme_mono.c ****         lv_obj_add_style(obj, &styles->card, 0);
 304:Drivers/lvgl/src/extra/themes/mono/lv_theme_mono.c ****         lv_obj_add_style(obj, &styles->pad_zero, 0);
 305:Drivers/lvgl/src/extra/themes/mono/lv_theme_mono.c ****         lv_obj_add_style(obj, &styles->inv, LV_PART_INDICATOR);
 306:Drivers/lvgl/src/extra/themes/mono/lv_theme_mono.c ****         lv_obj_add_style(obj, &styles->card, LV_PART_KNOB);
 307:Drivers/lvgl/src/extra/themes/mono/lv_theme_mono.c ****         lv_obj_add_style(obj, &styles->radius_circle, LV_PART_KNOB);
 308:Drivers/lvgl/src/extra/themes/mono/lv_theme_mono.c ****         lv_obj_add_style(obj, &styles->focus, LV_STATE_FOCUS_KEY);
 309:Drivers/lvgl/src/extra/themes/mono/lv_theme_mono.c ****         lv_obj_add_style(obj, &styles->edit, LV_STATE_EDITED);
 310:Drivers/lvgl/src/extra/themes/mono/lv_theme_mono.c ****     }
 311:Drivers/lvgl/src/extra/themes/mono/lv_theme_mono.c **** #endif
 312:Drivers/lvgl/src/extra/themes/mono/lv_theme_mono.c **** 
 313:Drivers/lvgl/src/extra/themes/mono/lv_theme_mono.c **** #if LV_USE_TABLE
 314:Drivers/lvgl/src/extra/themes/mono/lv_theme_mono.c ****     else if(lv_obj_check_type(obj, &lv_table_class)) {
 315:Drivers/lvgl/src/extra/themes/mono/lv_theme_mono.c ****         lv_obj_add_style(obj, &styles->scrollbar, LV_PART_SCROLLBAR);
 316:Drivers/lvgl/src/extra/themes/mono/lv_theme_mono.c ****         lv_obj_add_style(obj, &styles->card, LV_PART_ITEMS);
 317:Drivers/lvgl/src/extra/themes/mono/lv_theme_mono.c ****         lv_obj_add_style(obj, &styles->no_radius, LV_PART_ITEMS);
 318:Drivers/lvgl/src/extra/themes/mono/lv_theme_mono.c ****         lv_obj_add_style(obj, &styles->pr, LV_PART_ITEMS | LV_STATE_PRESSED);
 319:Drivers/lvgl/src/extra/themes/mono/lv_theme_mono.c ****         lv_obj_add_style(obj, &styles->focus, LV_STATE_FOCUS_KEY);
 320:Drivers/lvgl/src/extra/themes/mono/lv_theme_mono.c ****         lv_obj_add_style(obj, &styles->inv, LV_PART_ITEMS | LV_STATE_FOCUS_KEY);
 321:Drivers/lvgl/src/extra/themes/mono/lv_theme_mono.c ****         lv_obj_add_style(obj, &styles->edit, LV_STATE_EDITED);
 322:Drivers/lvgl/src/extra/themes/mono/lv_theme_mono.c ****     }
ARM GAS  /var/folders/lp/x54gwt890xv47sdkqj1k04q40000gn/T//cc7THuQy.s 			page 8


 323:Drivers/lvgl/src/extra/themes/mono/lv_theme_mono.c **** #endif
 324:Drivers/lvgl/src/extra/themes/mono/lv_theme_mono.c **** 
 325:Drivers/lvgl/src/extra/themes/mono/lv_theme_mono.c **** #if LV_USE_CHECKBOX
 326:Drivers/lvgl/src/extra/themes/mono/lv_theme_mono.c ****     else if(lv_obj_check_type(obj, &lv_checkbox_class)) {
 327:Drivers/lvgl/src/extra/themes/mono/lv_theme_mono.c ****         lv_obj_add_style(obj, &styles->pad_gap, LV_PART_MAIN);
 328:Drivers/lvgl/src/extra/themes/mono/lv_theme_mono.c ****         lv_obj_add_style(obj, &styles->card, LV_PART_INDICATOR);
 329:Drivers/lvgl/src/extra/themes/mono/lv_theme_mono.c ****         lv_obj_add_style(obj, &styles->disabled, LV_PART_INDICATOR | LV_STATE_DISABLED);
 330:Drivers/lvgl/src/extra/themes/mono/lv_theme_mono.c ****         lv_obj_add_style(obj, &styles->inv, LV_PART_INDICATOR | LV_STATE_CHECKED);
 331:Drivers/lvgl/src/extra/themes/mono/lv_theme_mono.c ****         lv_obj_add_style(obj, &styles->pr, LV_PART_INDICATOR | LV_STATE_PRESSED);
 332:Drivers/lvgl/src/extra/themes/mono/lv_theme_mono.c ****         lv_obj_add_style(obj, &styles->focus, LV_STATE_FOCUS_KEY);
 333:Drivers/lvgl/src/extra/themes/mono/lv_theme_mono.c ****         lv_obj_add_style(obj, &styles->edit, LV_STATE_EDITED);
 334:Drivers/lvgl/src/extra/themes/mono/lv_theme_mono.c ****     }
 335:Drivers/lvgl/src/extra/themes/mono/lv_theme_mono.c **** #endif
 336:Drivers/lvgl/src/extra/themes/mono/lv_theme_mono.c **** 
 337:Drivers/lvgl/src/extra/themes/mono/lv_theme_mono.c **** #if LV_USE_SWITCH
 338:Drivers/lvgl/src/extra/themes/mono/lv_theme_mono.c ****     else if(lv_obj_check_type(obj, &lv_switch_class)) {
 339:Drivers/lvgl/src/extra/themes/mono/lv_theme_mono.c ****         lv_obj_add_style(obj, &styles->card, 0);
 340:Drivers/lvgl/src/extra/themes/mono/lv_theme_mono.c ****         lv_obj_add_style(obj, &styles->radius_circle, 0);
 341:Drivers/lvgl/src/extra/themes/mono/lv_theme_mono.c ****         lv_obj_add_style(obj, &styles->pad_zero, 0);
 342:Drivers/lvgl/src/extra/themes/mono/lv_theme_mono.c ****         lv_obj_add_style(obj, &styles->inv, LV_PART_INDICATOR);
 343:Drivers/lvgl/src/extra/themes/mono/lv_theme_mono.c ****         lv_obj_add_style(obj, &styles->radius_circle, LV_PART_INDICATOR);
 344:Drivers/lvgl/src/extra/themes/mono/lv_theme_mono.c ****         lv_obj_add_style(obj, &styles->card, LV_PART_KNOB);
 345:Drivers/lvgl/src/extra/themes/mono/lv_theme_mono.c ****         lv_obj_add_style(obj, &styles->radius_circle, LV_PART_KNOB);
 346:Drivers/lvgl/src/extra/themes/mono/lv_theme_mono.c ****         lv_obj_add_style(obj, &styles->pad_zero, LV_PART_KNOB);
 347:Drivers/lvgl/src/extra/themes/mono/lv_theme_mono.c ****         lv_obj_add_style(obj, &styles->focus, LV_STATE_FOCUS_KEY);
 348:Drivers/lvgl/src/extra/themes/mono/lv_theme_mono.c ****         lv_obj_add_style(obj, &styles->edit, LV_STATE_EDITED);
 349:Drivers/lvgl/src/extra/themes/mono/lv_theme_mono.c ****     }
 350:Drivers/lvgl/src/extra/themes/mono/lv_theme_mono.c **** #endif
 351:Drivers/lvgl/src/extra/themes/mono/lv_theme_mono.c **** 
 352:Drivers/lvgl/src/extra/themes/mono/lv_theme_mono.c **** #if LV_USE_CHART
 353:Drivers/lvgl/src/extra/themes/mono/lv_theme_mono.c ****     else if(lv_obj_check_type(obj, &lv_chart_class)) {
 354:Drivers/lvgl/src/extra/themes/mono/lv_theme_mono.c ****         lv_obj_add_style(obj, &styles->card, 0);
 355:Drivers/lvgl/src/extra/themes/mono/lv_theme_mono.c ****         lv_obj_add_style(obj, &styles->scrollbar, LV_PART_SCROLLBAR);
 356:Drivers/lvgl/src/extra/themes/mono/lv_theme_mono.c ****         lv_obj_add_style(obj, &styles->card, LV_PART_ITEMS);
 357:Drivers/lvgl/src/extra/themes/mono/lv_theme_mono.c ****         lv_obj_add_style(obj, &styles->card, LV_PART_TICKS);
 358:Drivers/lvgl/src/extra/themes/mono/lv_theme_mono.c ****         lv_obj_add_style(obj, &styles->card, LV_PART_CURSOR);
 359:Drivers/lvgl/src/extra/themes/mono/lv_theme_mono.c ****         lv_obj_add_style(obj, &styles->focus, LV_STATE_FOCUS_KEY);
 360:Drivers/lvgl/src/extra/themes/mono/lv_theme_mono.c ****     }
 361:Drivers/lvgl/src/extra/themes/mono/lv_theme_mono.c **** #endif
 362:Drivers/lvgl/src/extra/themes/mono/lv_theme_mono.c **** 
 363:Drivers/lvgl/src/extra/themes/mono/lv_theme_mono.c **** #if LV_USE_ROLLER
 364:Drivers/lvgl/src/extra/themes/mono/lv_theme_mono.c ****     else if(lv_obj_check_type(obj, &lv_roller_class)) {
 365:Drivers/lvgl/src/extra/themes/mono/lv_theme_mono.c ****         lv_obj_add_style(obj, &styles->card, 0);
 366:Drivers/lvgl/src/extra/themes/mono/lv_theme_mono.c ****         lv_obj_add_style(obj, &styles->large_line_space, 0);
 367:Drivers/lvgl/src/extra/themes/mono/lv_theme_mono.c ****         lv_obj_add_style(obj, &styles->inv, LV_PART_SELECTED);
 368:Drivers/lvgl/src/extra/themes/mono/lv_theme_mono.c ****         lv_obj_add_style(obj, &styles->focus, LV_STATE_FOCUS_KEY);
 369:Drivers/lvgl/src/extra/themes/mono/lv_theme_mono.c ****         lv_obj_add_style(obj, &styles->edit, LV_STATE_EDITED);
 370:Drivers/lvgl/src/extra/themes/mono/lv_theme_mono.c ****     }
 371:Drivers/lvgl/src/extra/themes/mono/lv_theme_mono.c **** #endif
 372:Drivers/lvgl/src/extra/themes/mono/lv_theme_mono.c **** 
 373:Drivers/lvgl/src/extra/themes/mono/lv_theme_mono.c **** #if LV_USE_DROPDOWN
 374:Drivers/lvgl/src/extra/themes/mono/lv_theme_mono.c ****     else if(lv_obj_check_type(obj, &lv_dropdown_class)) {
 375:Drivers/lvgl/src/extra/themes/mono/lv_theme_mono.c ****         lv_obj_add_style(obj, &styles->card, 0);
 376:Drivers/lvgl/src/extra/themes/mono/lv_theme_mono.c ****         lv_obj_add_style(obj, &styles->pr, LV_STATE_PRESSED);
 377:Drivers/lvgl/src/extra/themes/mono/lv_theme_mono.c ****         lv_obj_add_style(obj, &styles->focus, LV_STATE_FOCUS_KEY);
 378:Drivers/lvgl/src/extra/themes/mono/lv_theme_mono.c ****         lv_obj_add_style(obj, &styles->edit, LV_STATE_EDITED);
 379:Drivers/lvgl/src/extra/themes/mono/lv_theme_mono.c ****     }
ARM GAS  /var/folders/lp/x54gwt890xv47sdkqj1k04q40000gn/T//cc7THuQy.s 			page 9


 380:Drivers/lvgl/src/extra/themes/mono/lv_theme_mono.c ****     else if(lv_obj_check_type(obj, &lv_dropdownlist_class)) {
 381:Drivers/lvgl/src/extra/themes/mono/lv_theme_mono.c ****         lv_obj_add_style(obj, &styles->card, 0);
 382:Drivers/lvgl/src/extra/themes/mono/lv_theme_mono.c ****         lv_obj_add_style(obj, &styles->large_line_space, 0);
 383:Drivers/lvgl/src/extra/themes/mono/lv_theme_mono.c ****         lv_obj_add_style(obj, &styles->scrollbar, LV_PART_SCROLLBAR);
 384:Drivers/lvgl/src/extra/themes/mono/lv_theme_mono.c ****         lv_obj_add_style(obj, &styles->inv, LV_PART_SELECTED | LV_STATE_CHECKED);
 385:Drivers/lvgl/src/extra/themes/mono/lv_theme_mono.c ****         lv_obj_add_style(obj, &styles->pr, LV_PART_SELECTED | LV_STATE_PRESSED);
 386:Drivers/lvgl/src/extra/themes/mono/lv_theme_mono.c ****         lv_obj_add_style(obj, &styles->focus, LV_STATE_FOCUS_KEY);
 387:Drivers/lvgl/src/extra/themes/mono/lv_theme_mono.c ****         lv_obj_add_style(obj, &styles->edit, LV_STATE_EDITED);
 388:Drivers/lvgl/src/extra/themes/mono/lv_theme_mono.c ****     }
 389:Drivers/lvgl/src/extra/themes/mono/lv_theme_mono.c **** #endif
 390:Drivers/lvgl/src/extra/themes/mono/lv_theme_mono.c **** 
 391:Drivers/lvgl/src/extra/themes/mono/lv_theme_mono.c **** #if LV_USE_ARC
 392:Drivers/lvgl/src/extra/themes/mono/lv_theme_mono.c ****     else if(lv_obj_check_type(obj, &lv_arc_class)) {
 393:Drivers/lvgl/src/extra/themes/mono/lv_theme_mono.c ****         lv_obj_add_style(obj, &styles->card, 0);
 394:Drivers/lvgl/src/extra/themes/mono/lv_theme_mono.c ****         lv_obj_add_style(obj, &styles->inv, LV_PART_INDICATOR);
 395:Drivers/lvgl/src/extra/themes/mono/lv_theme_mono.c ****         lv_obj_add_style(obj, &styles->pad_zero, LV_PART_INDICATOR);
 396:Drivers/lvgl/src/extra/themes/mono/lv_theme_mono.c ****         lv_obj_add_style(obj, &styles->card, LV_PART_KNOB);
 397:Drivers/lvgl/src/extra/themes/mono/lv_theme_mono.c ****         lv_obj_add_style(obj, &styles->radius_circle, LV_PART_KNOB);
 398:Drivers/lvgl/src/extra/themes/mono/lv_theme_mono.c ****         lv_obj_add_style(obj, &styles->focus, LV_STATE_FOCUS_KEY);
 399:Drivers/lvgl/src/extra/themes/mono/lv_theme_mono.c ****         lv_obj_add_style(obj, &styles->edit, LV_STATE_EDITED);
 400:Drivers/lvgl/src/extra/themes/mono/lv_theme_mono.c ****     }
 401:Drivers/lvgl/src/extra/themes/mono/lv_theme_mono.c **** #endif
 402:Drivers/lvgl/src/extra/themes/mono/lv_theme_mono.c **** 
 403:Drivers/lvgl/src/extra/themes/mono/lv_theme_mono.c **** #if LV_USE_METER
 404:Drivers/lvgl/src/extra/themes/mono/lv_theme_mono.c ****     else if(lv_obj_check_type(obj, &lv_meter_class)) {
 405:Drivers/lvgl/src/extra/themes/mono/lv_theme_mono.c ****         lv_obj_add_style(obj, &styles->card, 0);
 406:Drivers/lvgl/src/extra/themes/mono/lv_theme_mono.c ****     }
 407:Drivers/lvgl/src/extra/themes/mono/lv_theme_mono.c **** #endif
 408:Drivers/lvgl/src/extra/themes/mono/lv_theme_mono.c **** 
 409:Drivers/lvgl/src/extra/themes/mono/lv_theme_mono.c **** #if LV_USE_TEXTAREA
 410:Drivers/lvgl/src/extra/themes/mono/lv_theme_mono.c ****     else if(lv_obj_check_type(obj, &lv_textarea_class)) {
 411:Drivers/lvgl/src/extra/themes/mono/lv_theme_mono.c ****         lv_obj_add_style(obj, &styles->card, 0);
 412:Drivers/lvgl/src/extra/themes/mono/lv_theme_mono.c ****         lv_obj_add_style(obj, &styles->scrollbar, LV_PART_SCROLLBAR);
 413:Drivers/lvgl/src/extra/themes/mono/lv_theme_mono.c ****         lv_obj_add_style(obj, &styles->ta_cursor, LV_PART_CURSOR | LV_STATE_FOCUSED);
 414:Drivers/lvgl/src/extra/themes/mono/lv_theme_mono.c ****         lv_obj_add_style(obj, &styles->focus, LV_STATE_FOCUSED);
 415:Drivers/lvgl/src/extra/themes/mono/lv_theme_mono.c ****         lv_obj_add_style(obj, &styles->edit, LV_STATE_EDITED);
 416:Drivers/lvgl/src/extra/themes/mono/lv_theme_mono.c ****     }
 417:Drivers/lvgl/src/extra/themes/mono/lv_theme_mono.c **** #endif
 418:Drivers/lvgl/src/extra/themes/mono/lv_theme_mono.c **** 
 419:Drivers/lvgl/src/extra/themes/mono/lv_theme_mono.c **** #if LV_USE_CALENDAR
 420:Drivers/lvgl/src/extra/themes/mono/lv_theme_mono.c ****     else if(lv_obj_check_type(obj, &lv_calendar_class)) {
 421:Drivers/lvgl/src/extra/themes/mono/lv_theme_mono.c ****         lv_obj_add_style(obj, &styles->card, 0);
 422:Drivers/lvgl/src/extra/themes/mono/lv_theme_mono.c ****         lv_obj_add_style(obj, &styles->no_radius, 0);
 423:Drivers/lvgl/src/extra/themes/mono/lv_theme_mono.c ****         lv_obj_add_style(obj, &styles->pr, LV_PART_ITEMS | LV_STATE_PRESSED);
 424:Drivers/lvgl/src/extra/themes/mono/lv_theme_mono.c ****         lv_obj_add_style(obj, &styles->disabled, LV_PART_ITEMS | LV_STATE_DISABLED);
 425:Drivers/lvgl/src/extra/themes/mono/lv_theme_mono.c ****         lv_obj_add_style(obj, &styles->focus, LV_STATE_FOCUS_KEY);
 426:Drivers/lvgl/src/extra/themes/mono/lv_theme_mono.c ****         lv_obj_add_style(obj, &styles->edit, LV_STATE_EDITED);
 427:Drivers/lvgl/src/extra/themes/mono/lv_theme_mono.c ****         lv_obj_add_style(obj, &styles->large_border, LV_PART_ITEMS | LV_STATE_FOCUS_KEY);
 428:Drivers/lvgl/src/extra/themes/mono/lv_theme_mono.c ****     }
 429:Drivers/lvgl/src/extra/themes/mono/lv_theme_mono.c **** #endif
 430:Drivers/lvgl/src/extra/themes/mono/lv_theme_mono.c **** 
 431:Drivers/lvgl/src/extra/themes/mono/lv_theme_mono.c **** #if LV_USE_KEYBOARD
 432:Drivers/lvgl/src/extra/themes/mono/lv_theme_mono.c ****     else if(lv_obj_check_type(obj, &lv_keyboard_class)) {
 433:Drivers/lvgl/src/extra/themes/mono/lv_theme_mono.c ****         lv_obj_add_style(obj, &styles->card, 0);
 434:Drivers/lvgl/src/extra/themes/mono/lv_theme_mono.c ****         lv_obj_add_style(obj, &styles->card, LV_PART_ITEMS);
 435:Drivers/lvgl/src/extra/themes/mono/lv_theme_mono.c ****         lv_obj_add_style(obj, &styles->pr, LV_PART_ITEMS | LV_STATE_PRESSED);
 436:Drivers/lvgl/src/extra/themes/mono/lv_theme_mono.c ****         lv_obj_add_style(obj, &styles->inv, LV_PART_ITEMS | LV_STATE_CHECKED);
ARM GAS  /var/folders/lp/x54gwt890xv47sdkqj1k04q40000gn/T//cc7THuQy.s 			page 10


 437:Drivers/lvgl/src/extra/themes/mono/lv_theme_mono.c ****         lv_obj_add_style(obj, &styles->focus, LV_STATE_FOCUS_KEY);
 438:Drivers/lvgl/src/extra/themes/mono/lv_theme_mono.c ****         lv_obj_add_style(obj, &styles->edit, LV_STATE_EDITED);
 439:Drivers/lvgl/src/extra/themes/mono/lv_theme_mono.c ****         lv_obj_add_style(obj, &styles->large_border, LV_PART_ITEMS | LV_STATE_EDITED);
 440:Drivers/lvgl/src/extra/themes/mono/lv_theme_mono.c ****     }
 441:Drivers/lvgl/src/extra/themes/mono/lv_theme_mono.c **** #endif
 442:Drivers/lvgl/src/extra/themes/mono/lv_theme_mono.c **** #if LV_USE_LIST
 443:Drivers/lvgl/src/extra/themes/mono/lv_theme_mono.c ****     else if(lv_obj_check_type(obj, &lv_list_class)) {
 444:Drivers/lvgl/src/extra/themes/mono/lv_theme_mono.c ****         lv_obj_add_style(obj, &styles->card, 0);
 445:Drivers/lvgl/src/extra/themes/mono/lv_theme_mono.c ****         lv_obj_add_style(obj, &styles->scrollbar, LV_PART_SCROLLBAR);
 446:Drivers/lvgl/src/extra/themes/mono/lv_theme_mono.c ****         return;
 447:Drivers/lvgl/src/extra/themes/mono/lv_theme_mono.c ****     }
 448:Drivers/lvgl/src/extra/themes/mono/lv_theme_mono.c ****     else if(lv_obj_check_type(obj, &lv_list_text_class)) {
 449:Drivers/lvgl/src/extra/themes/mono/lv_theme_mono.c **** 
 450:Drivers/lvgl/src/extra/themes/mono/lv_theme_mono.c ****     }
 451:Drivers/lvgl/src/extra/themes/mono/lv_theme_mono.c ****     else if(lv_obj_check_type(obj, &lv_list_btn_class)) {
 452:Drivers/lvgl/src/extra/themes/mono/lv_theme_mono.c ****         lv_obj_add_style(obj, &styles->card, 0);
 453:Drivers/lvgl/src/extra/themes/mono/lv_theme_mono.c ****         lv_obj_add_style(obj, &styles->pr, LV_STATE_PRESSED);
 454:Drivers/lvgl/src/extra/themes/mono/lv_theme_mono.c ****         lv_obj_add_style(obj, &styles->focus, LV_STATE_FOCUS_KEY);
 455:Drivers/lvgl/src/extra/themes/mono/lv_theme_mono.c ****         lv_obj_add_style(obj, &styles->large_border, LV_STATE_EDITED);
 456:Drivers/lvgl/src/extra/themes/mono/lv_theme_mono.c **** 
 457:Drivers/lvgl/src/extra/themes/mono/lv_theme_mono.c ****     }
 458:Drivers/lvgl/src/extra/themes/mono/lv_theme_mono.c **** #endif
 459:Drivers/lvgl/src/extra/themes/mono/lv_theme_mono.c **** #if LV_USE_MSGBOX
 460:Drivers/lvgl/src/extra/themes/mono/lv_theme_mono.c ****     else if(lv_obj_check_type(obj, &lv_msgbox_class)) {
 461:Drivers/lvgl/src/extra/themes/mono/lv_theme_mono.c ****         lv_obj_add_style(obj, &styles->card, 0);
 462:Drivers/lvgl/src/extra/themes/mono/lv_theme_mono.c ****         return;
 463:Drivers/lvgl/src/extra/themes/mono/lv_theme_mono.c ****     }
 464:Drivers/lvgl/src/extra/themes/mono/lv_theme_mono.c **** #endif
 465:Drivers/lvgl/src/extra/themes/mono/lv_theme_mono.c **** #if LV_USE_SPINBOX
 466:Drivers/lvgl/src/extra/themes/mono/lv_theme_mono.c ****     else if(lv_obj_check_type(obj, &lv_spinbox_class)) {
 467:Drivers/lvgl/src/extra/themes/mono/lv_theme_mono.c ****         lv_obj_add_style(obj, &styles->card, 0);
 468:Drivers/lvgl/src/extra/themes/mono/lv_theme_mono.c ****         lv_obj_add_style(obj, &styles->inv, LV_PART_CURSOR);
 469:Drivers/lvgl/src/extra/themes/mono/lv_theme_mono.c ****         lv_obj_add_style(obj, &styles->focus, LV_STATE_FOCUS_KEY);
 470:Drivers/lvgl/src/extra/themes/mono/lv_theme_mono.c ****         lv_obj_add_style(obj, &styles->edit, LV_STATE_EDITED);
 471:Drivers/lvgl/src/extra/themes/mono/lv_theme_mono.c ****     }
 472:Drivers/lvgl/src/extra/themes/mono/lv_theme_mono.c **** #endif
 473:Drivers/lvgl/src/extra/themes/mono/lv_theme_mono.c **** #if LV_USE_TILEVIEW
 474:Drivers/lvgl/src/extra/themes/mono/lv_theme_mono.c ****     else if(lv_obj_check_type(obj, &lv_tileview_class)) {
 475:Drivers/lvgl/src/extra/themes/mono/lv_theme_mono.c ****         lv_obj_add_style(obj, &styles->scr, 0);
 476:Drivers/lvgl/src/extra/themes/mono/lv_theme_mono.c ****         lv_obj_add_style(obj, &styles->scrollbar, LV_PART_SCROLLBAR);
 477:Drivers/lvgl/src/extra/themes/mono/lv_theme_mono.c ****     }
 478:Drivers/lvgl/src/extra/themes/mono/lv_theme_mono.c ****     else if(lv_obj_check_type(obj, &lv_tileview_tile_class)) {
 479:Drivers/lvgl/src/extra/themes/mono/lv_theme_mono.c ****         lv_obj_add_style(obj, &styles->scrollbar, LV_PART_SCROLLBAR);
 480:Drivers/lvgl/src/extra/themes/mono/lv_theme_mono.c ****     }
 481:Drivers/lvgl/src/extra/themes/mono/lv_theme_mono.c **** #endif
 482:Drivers/lvgl/src/extra/themes/mono/lv_theme_mono.c **** 
 483:Drivers/lvgl/src/extra/themes/mono/lv_theme_mono.c **** #if LV_USE_LED
 484:Drivers/lvgl/src/extra/themes/mono/lv_theme_mono.c ****     else if(lv_obj_check_type(obj, &lv_led_class)) {
 485:Drivers/lvgl/src/extra/themes/mono/lv_theme_mono.c ****         lv_obj_add_style(obj, &styles->card, 0);
 486:Drivers/lvgl/src/extra/themes/mono/lv_theme_mono.c ****     }
 487:Drivers/lvgl/src/extra/themes/mono/lv_theme_mono.c **** #endif
 488:Drivers/lvgl/src/extra/themes/mono/lv_theme_mono.c **** }
  79              		.loc 1 488 1 view .LVU16
  80 0028 70BD     		pop	{r4, r5, r6, pc}
  81              	.LVL8:
  82              	.L33:
 205:Drivers/lvgl/src/extra/themes/mono/lv_theme_mono.c ****         lv_obj_add_style(obj, &styles->scrollbar, LV_PART_SCROLLBAR);
ARM GAS  /var/folders/lp/x54gwt890xv47sdkqj1k04q40000gn/T//cc7THuQy.s 			page 11


  83              		.loc 1 205 9 is_stmt 1 view .LVU17
 205:Drivers/lvgl/src/extra/themes/mono/lv_theme_mono.c ****         lv_obj_add_style(obj, &styles->scrollbar, LV_PART_SCROLLBAR);
  84              		.loc 1 205 38 is_stmt 0 view .LVU18
  85 002a B54D     		ldr	r5, .L42+8
 205:Drivers/lvgl/src/extra/themes/mono/lv_theme_mono.c ****         lv_obj_add_style(obj, &styles->scrollbar, LV_PART_SCROLLBAR);
  86              		.loc 1 205 9 view .LVU19
  87 002c 0022     		movs	r2, #0
  88 002e 2968     		ldr	r1, [r5]
  89 0030 2046     		mov	r0, r4
  90 0032 FFF7FEFF 		bl	lv_obj_add_style
  91              	.LVL9:
 206:Drivers/lvgl/src/extra/themes/mono/lv_theme_mono.c ****         return;
  92              		.loc 1 206 9 is_stmt 1 view .LVU20
 206:Drivers/lvgl/src/extra/themes/mono/lv_theme_mono.c ****         return;
  93              		.loc 1 206 38 is_stmt 0 view .LVU21
  94 0036 2968     		ldr	r1, [r5]
 206:Drivers/lvgl/src/extra/themes/mono/lv_theme_mono.c ****         return;
  95              		.loc 1 206 9 view .LVU22
  96 0038 4FF48032 		mov	r2, #65536
  97 003c 1031     		adds	r1, r1, #16
  98 003e 2046     		mov	r0, r4
  99 0040 FFF7FEFF 		bl	lv_obj_add_style
 100              	.LVL10:
 207:Drivers/lvgl/src/extra/themes/mono/lv_theme_mono.c ****     }
 101              		.loc 1 207 9 is_stmt 1 view .LVU23
 102 0044 F0E7     		b	.L1
 103              	.LVL11:
 104              	.L34:
 105              	.LBB135:
 218:Drivers/lvgl/src/extra/themes/mono/lv_theme_mono.c ****             lv_obj_add_style(obj, &styles->card, 0);
 106              		.loc 1 218 14 view .LVU24
 218:Drivers/lvgl/src/extra/themes/mono/lv_theme_mono.c ****             lv_obj_add_style(obj, &styles->card, 0);
 107              		.loc 1 218 35 is_stmt 0 view .LVU25
 108 0046 2846     		mov	r0, r5
 109 0048 FFF7FEFF 		bl	lv_obj_get_parent
 110              	.LVL12:
 218:Drivers/lvgl/src/extra/themes/mono/lv_theme_mono.c ****             lv_obj_add_style(obj, &styles->card, 0);
 111              		.loc 1 218 17 discriminator 1 view .LVU26
 112 004c AB49     		ldr	r1, .L42+4
 113 004e FFF7FEFF 		bl	lv_obj_check_type
 114              	.LVL13:
 218:Drivers/lvgl/src/extra/themes/mono/lv_theme_mono.c ****             lv_obj_add_style(obj, &styles->card, 0);
 115              		.loc 1 218 16 discriminator 2 view .LVU27
 116 0052 F0B9     		cbnz	r0, .L35
 228:Drivers/lvgl/src/extra/themes/mono/lv_theme_mono.c ****             lv_obj_add_style(obj, &styles->card, 0);
 117              		.loc 1 228 9 is_stmt 1 view .LVU28
 228:Drivers/lvgl/src/extra/themes/mono/lv_theme_mono.c ****             lv_obj_add_style(obj, &styles->card, 0);
 118              		.loc 1 228 12 is_stmt 0 view .LVU29
 119 0054 2046     		mov	r0, r4
 120 0056 FFF7FEFF 		bl	lv_obj_get_index
 121              	.LVL14:
 228:Drivers/lvgl/src/extra/themes/mono/lv_theme_mono.c ****             lv_obj_add_style(obj, &styles->card, 0);
 122              		.loc 1 228 11 discriminator 1 view .LVU30
 123 005a 30B9     		cbnz	r0, .L6
 228:Drivers/lvgl/src/extra/themes/mono/lv_theme_mono.c ****             lv_obj_add_style(obj, &styles->card, 0);
 124              		.loc 1 228 60 discriminator 1 view .LVU31
 125 005c 2046     		mov	r0, r4
ARM GAS  /var/folders/lp/x54gwt890xv47sdkqj1k04q40000gn/T//cc7THuQy.s 			page 12


 126 005e FFF7FEFF 		bl	lv_obj_get_parent
 127              	.LVL15:
 228:Drivers/lvgl/src/extra/themes/mono/lv_theme_mono.c ****             lv_obj_add_style(obj, &styles->card, 0);
 128              		.loc 1 228 42 discriminator 1 view .LVU32
 129 0062 A849     		ldr	r1, .L42+12
 130 0064 FFF7FEFF 		bl	lv_obj_check_type
 131              	.LVL16:
 228:Drivers/lvgl/src/extra/themes/mono/lv_theme_mono.c ****             lv_obj_add_style(obj, &styles->card, 0);
 132              		.loc 1 228 39 discriminator 2 view .LVU33
 133 0068 40BB     		cbnz	r0, .L36
 134              	.L6:
 234:Drivers/lvgl/src/extra/themes/mono/lv_theme_mono.c ****             lv_obj_add_style(obj, &styles->card, 0);
 135              		.loc 1 234 14 is_stmt 1 view .LVU34
 234:Drivers/lvgl/src/extra/themes/mono/lv_theme_mono.c ****             lv_obj_add_style(obj, &styles->card, 0);
 136              		.loc 1 234 17 is_stmt 0 view .LVU35
 137 006a 2046     		mov	r0, r4
 138 006c FFF7FEFF 		bl	lv_obj_get_index
 139              	.LVL17:
 234:Drivers/lvgl/src/extra/themes/mono/lv_theme_mono.c ****             lv_obj_add_style(obj, &styles->card, 0);
 140              		.loc 1 234 16 discriminator 1 view .LVU36
 141 0070 0128     		cmp	r0, #1
 142 0072 31D0     		beq	.L37
 143              	.L7:
 241:Drivers/lvgl/src/extra/themes/mono/lv_theme_mono.c ****         lv_obj_add_style(obj, &styles->scrollbar, LV_PART_SCROLLBAR);
 144              		.loc 1 241 9 is_stmt 1 view .LVU37
 241:Drivers/lvgl/src/extra/themes/mono/lv_theme_mono.c ****         lv_obj_add_style(obj, &styles->scrollbar, LV_PART_SCROLLBAR);
 145              		.loc 1 241 38 is_stmt 0 view .LVU38
 146 0074 A24D     		ldr	r5, .L42+8
 147              	.LVL18:
 241:Drivers/lvgl/src/extra/themes/mono/lv_theme_mono.c ****         lv_obj_add_style(obj, &styles->scrollbar, LV_PART_SCROLLBAR);
 148              		.loc 1 241 38 view .LVU39
 149 0076 2968     		ldr	r1, [r5]
 241:Drivers/lvgl/src/extra/themes/mono/lv_theme_mono.c ****         lv_obj_add_style(obj, &styles->scrollbar, LV_PART_SCROLLBAR);
 150              		.loc 1 241 9 view .LVU40
 151 0078 0022     		movs	r2, #0
 152 007a 0831     		adds	r1, r1, #8
 153 007c 2046     		mov	r0, r4
 154 007e FFF7FEFF 		bl	lv_obj_add_style
 155              	.LVL19:
 242:Drivers/lvgl/src/extra/themes/mono/lv_theme_mono.c ****     }
 156              		.loc 1 242 9 is_stmt 1 view .LVU41
 242:Drivers/lvgl/src/extra/themes/mono/lv_theme_mono.c ****     }
 157              		.loc 1 242 38 is_stmt 0 view .LVU42
 158 0082 2968     		ldr	r1, [r5]
 242:Drivers/lvgl/src/extra/themes/mono/lv_theme_mono.c ****     }
 159              		.loc 1 242 9 view .LVU43
 160 0084 4FF48032 		mov	r2, #65536
 161 0088 1031     		adds	r1, r1, #16
 162 008a 2046     		mov	r0, r4
 163 008c FFF7FEFF 		bl	lv_obj_add_style
 164              	.LVL20:
 165              	.LBE135:
 166 0090 CAE7     		b	.L1
 167              	.LVL21:
 168              	.L35:
 169              	.LBB136:
 219:Drivers/lvgl/src/extra/themes/mono/lv_theme_mono.c ****             lv_obj_add_style(obj, &styles->no_radius, 0);
ARM GAS  /var/folders/lp/x54gwt890xv47sdkqj1k04q40000gn/T//cc7THuQy.s 			page 13


 170              		.loc 1 219 13 is_stmt 1 view .LVU44
 219:Drivers/lvgl/src/extra/themes/mono/lv_theme_mono.c ****             lv_obj_add_style(obj, &styles->no_radius, 0);
 171              		.loc 1 219 42 is_stmt 0 view .LVU45
 172 0092 9B4D     		ldr	r5, .L42+8
 173              	.LVL22:
 219:Drivers/lvgl/src/extra/themes/mono/lv_theme_mono.c ****             lv_obj_add_style(obj, &styles->no_radius, 0);
 174              		.loc 1 219 42 view .LVU46
 175 0094 2968     		ldr	r1, [r5]
 219:Drivers/lvgl/src/extra/themes/mono/lv_theme_mono.c ****             lv_obj_add_style(obj, &styles->no_radius, 0);
 176              		.loc 1 219 13 view .LVU47
 177 0096 0022     		movs	r2, #0
 178 0098 0831     		adds	r1, r1, #8
 179 009a 2046     		mov	r0, r4
 180 009c FFF7FEFF 		bl	lv_obj_add_style
 181              	.LVL23:
 220:Drivers/lvgl/src/extra/themes/mono/lv_theme_mono.c ****             lv_obj_add_style(obj, &styles->scrollbar, LV_PART_SCROLLBAR);
 182              		.loc 1 220 13 is_stmt 1 view .LVU48
 220:Drivers/lvgl/src/extra/themes/mono/lv_theme_mono.c ****             lv_obj_add_style(obj, &styles->scrollbar, LV_PART_SCROLLBAR);
 183              		.loc 1 220 42 is_stmt 0 view .LVU49
 184 00a0 2968     		ldr	r1, [r5]
 220:Drivers/lvgl/src/extra/themes/mono/lv_theme_mono.c ****             lv_obj_add_style(obj, &styles->scrollbar, LV_PART_SCROLLBAR);
 185              		.loc 1 220 13 view .LVU50
 186 00a2 0022     		movs	r2, #0
 187 00a4 5831     		adds	r1, r1, #88
 188 00a6 2046     		mov	r0, r4
 189 00a8 FFF7FEFF 		bl	lv_obj_add_style
 190              	.LVL24:
 221:Drivers/lvgl/src/extra/themes/mono/lv_theme_mono.c ****             return;
 191              		.loc 1 221 13 is_stmt 1 view .LVU51
 221:Drivers/lvgl/src/extra/themes/mono/lv_theme_mono.c ****             return;
 192              		.loc 1 221 42 is_stmt 0 view .LVU52
 193 00ac 2968     		ldr	r1, [r5]
 221:Drivers/lvgl/src/extra/themes/mono/lv_theme_mono.c ****             return;
 194              		.loc 1 221 13 view .LVU53
 195 00ae 4FF48032 		mov	r2, #65536
 196 00b2 1031     		adds	r1, r1, #16
 197 00b4 2046     		mov	r0, r4
 198 00b6 FFF7FEFF 		bl	lv_obj_add_style
 199              	.LVL25:
 222:Drivers/lvgl/src/extra/themes/mono/lv_theme_mono.c ****         }
 200              		.loc 1 222 13 is_stmt 1 view .LVU54
 201 00ba B5E7     		b	.L1
 202              	.LVL26:
 203              	.L36:
 229:Drivers/lvgl/src/extra/themes/mono/lv_theme_mono.c ****             lv_obj_add_style(obj, &styles->no_radius, 0);
 204              		.loc 1 229 13 view .LVU55
 229:Drivers/lvgl/src/extra/themes/mono/lv_theme_mono.c ****             lv_obj_add_style(obj, &styles->no_radius, 0);
 205              		.loc 1 229 42 is_stmt 0 view .LVU56
 206 00bc 904D     		ldr	r5, .L42+8
 207              	.LVL27:
 229:Drivers/lvgl/src/extra/themes/mono/lv_theme_mono.c ****             lv_obj_add_style(obj, &styles->no_radius, 0);
 208              		.loc 1 229 42 view .LVU57
 209 00be 2968     		ldr	r1, [r5]
 229:Drivers/lvgl/src/extra/themes/mono/lv_theme_mono.c ****             lv_obj_add_style(obj, &styles->no_radius, 0);
 210              		.loc 1 229 13 view .LVU58
 211 00c0 0022     		movs	r2, #0
 212 00c2 0831     		adds	r1, r1, #8
ARM GAS  /var/folders/lp/x54gwt890xv47sdkqj1k04q40000gn/T//cc7THuQy.s 			page 14


 213 00c4 2046     		mov	r0, r4
 214 00c6 FFF7FEFF 		bl	lv_obj_add_style
 215              	.LVL28:
 230:Drivers/lvgl/src/extra/themes/mono/lv_theme_mono.c ****             return;
 216              		.loc 1 230 13 is_stmt 1 view .LVU59
 230:Drivers/lvgl/src/extra/themes/mono/lv_theme_mono.c ****             return;
 217              		.loc 1 230 42 is_stmt 0 view .LVU60
 218 00ca 2968     		ldr	r1, [r5]
 230:Drivers/lvgl/src/extra/themes/mono/lv_theme_mono.c ****             return;
 219              		.loc 1 230 13 view .LVU61
 220 00cc 0022     		movs	r2, #0
 221 00ce 5831     		adds	r1, r1, #88
 222 00d0 2046     		mov	r0, r4
 223 00d2 FFF7FEFF 		bl	lv_obj_add_style
 224              	.LVL29:
 231:Drivers/lvgl/src/extra/themes/mono/lv_theme_mono.c ****         }
 225              		.loc 1 231 13 is_stmt 1 view .LVU62
 226 00d6 A7E7     		b	.L1
 227              	.LVL30:
 228              	.L37:
 234:Drivers/lvgl/src/extra/themes/mono/lv_theme_mono.c ****             lv_obj_add_style(obj, &styles->card, 0);
 229              		.loc 1 234 65 is_stmt 0 discriminator 1 view .LVU63
 230 00d8 2046     		mov	r0, r4
 231 00da FFF7FEFF 		bl	lv_obj_get_parent
 232              	.LVL31:
 234:Drivers/lvgl/src/extra/themes/mono/lv_theme_mono.c ****             lv_obj_add_style(obj, &styles->card, 0);
 233              		.loc 1 234 47 discriminator 1 view .LVU64
 234 00de 8949     		ldr	r1, .L42+12
 235 00e0 FFF7FEFF 		bl	lv_obj_check_type
 236              	.LVL32:
 234:Drivers/lvgl/src/extra/themes/mono/lv_theme_mono.c ****             lv_obj_add_style(obj, &styles->card, 0);
 237              		.loc 1 234 44 discriminator 2 view .LVU65
 238 00e4 0028     		cmp	r0, #0
 239 00e6 C5D0     		beq	.L7
 235:Drivers/lvgl/src/extra/themes/mono/lv_theme_mono.c ****             lv_obj_add_style(obj, &styles->no_radius, 0);
 240              		.loc 1 235 13 is_stmt 1 view .LVU66
 235:Drivers/lvgl/src/extra/themes/mono/lv_theme_mono.c ****             lv_obj_add_style(obj, &styles->no_radius, 0);
 241              		.loc 1 235 42 is_stmt 0 view .LVU67
 242 00e8 854D     		ldr	r5, .L42+8
 243              	.LVL33:
 235:Drivers/lvgl/src/extra/themes/mono/lv_theme_mono.c ****             lv_obj_add_style(obj, &styles->no_radius, 0);
 244              		.loc 1 235 42 view .LVU68
 245 00ea 2968     		ldr	r1, [r5]
 235:Drivers/lvgl/src/extra/themes/mono/lv_theme_mono.c ****             lv_obj_add_style(obj, &styles->no_radius, 0);
 246              		.loc 1 235 13 view .LVU69
 247 00ec 0022     		movs	r2, #0
 248 00ee 0831     		adds	r1, r1, #8
 249 00f0 2046     		mov	r0, r4
 250 00f2 FFF7FEFF 		bl	lv_obj_add_style
 251              	.LVL34:
 236:Drivers/lvgl/src/extra/themes/mono/lv_theme_mono.c ****             lv_obj_add_style(obj, &styles->scrollbar, LV_PART_SCROLLBAR);
 252              		.loc 1 236 13 is_stmt 1 view .LVU70
 236:Drivers/lvgl/src/extra/themes/mono/lv_theme_mono.c ****             lv_obj_add_style(obj, &styles->scrollbar, LV_PART_SCROLLBAR);
 253              		.loc 1 236 42 is_stmt 0 view .LVU71
 254 00f6 2968     		ldr	r1, [r5]
 236:Drivers/lvgl/src/extra/themes/mono/lv_theme_mono.c ****             lv_obj_add_style(obj, &styles->scrollbar, LV_PART_SCROLLBAR);
 255              		.loc 1 236 13 view .LVU72
ARM GAS  /var/folders/lp/x54gwt890xv47sdkqj1k04q40000gn/T//cc7THuQy.s 			page 15


 256 00f8 0022     		movs	r2, #0
 257 00fa 5831     		adds	r1, r1, #88
 258 00fc 2046     		mov	r0, r4
 259 00fe FFF7FEFF 		bl	lv_obj_add_style
 260              	.LVL35:
 237:Drivers/lvgl/src/extra/themes/mono/lv_theme_mono.c ****             return;
 261              		.loc 1 237 13 is_stmt 1 view .LVU73
 237:Drivers/lvgl/src/extra/themes/mono/lv_theme_mono.c ****             return;
 262              		.loc 1 237 42 is_stmt 0 view .LVU74
 263 0102 2968     		ldr	r1, [r5]
 237:Drivers/lvgl/src/extra/themes/mono/lv_theme_mono.c ****             return;
 264              		.loc 1 237 13 view .LVU75
 265 0104 4FF48032 		mov	r2, #65536
 266 0108 1031     		adds	r1, r1, #16
 267 010a 2046     		mov	r0, r4
 268 010c FFF7FEFF 		bl	lv_obj_add_style
 269              	.LVL36:
 238:Drivers/lvgl/src/extra/themes/mono/lv_theme_mono.c ****         }
 270              		.loc 1 238 13 is_stmt 1 view .LVU76
 271 0110 8AE7     		b	.L1
 272              	.LVL37:
 273              	.L4:
 238:Drivers/lvgl/src/extra/themes/mono/lv_theme_mono.c ****         }
 274              		.loc 1 238 13 is_stmt 0 view .LVU77
 275              	.LBE136:
 245:Drivers/lvgl/src/extra/themes/mono/lv_theme_mono.c ****         lv_obj_add_style(obj, &styles->card, 0);
 276              		.loc 1 245 10 is_stmt 1 view .LVU78
 245:Drivers/lvgl/src/extra/themes/mono/lv_theme_mono.c ****         lv_obj_add_style(obj, &styles->card, 0);
 277              		.loc 1 245 13 is_stmt 0 view .LVU79
 278 0112 7D49     		ldr	r1, .L42+16
 279 0114 2046     		mov	r0, r4
 280 0116 FFF7FEFF 		bl	lv_obj_check_type
 281              	.LVL38:
 245:Drivers/lvgl/src/extra/themes/mono/lv_theme_mono.c ****         lv_obj_add_style(obj, &styles->card, 0);
 282              		.loc 1 245 12 discriminator 1 view .LVU80
 283 011a 28B3     		cbz	r0, .L8
 246:Drivers/lvgl/src/extra/themes/mono/lv_theme_mono.c ****         lv_obj_add_style(obj, &styles->pr, LV_STATE_PRESSED);
 284              		.loc 1 246 9 is_stmt 1 view .LVU81
 246:Drivers/lvgl/src/extra/themes/mono/lv_theme_mono.c ****         lv_obj_add_style(obj, &styles->pr, LV_STATE_PRESSED);
 285              		.loc 1 246 38 is_stmt 0 view .LVU82
 286 011c 784D     		ldr	r5, .L42+8
 287 011e 2968     		ldr	r1, [r5]
 246:Drivers/lvgl/src/extra/themes/mono/lv_theme_mono.c ****         lv_obj_add_style(obj, &styles->pr, LV_STATE_PRESSED);
 288              		.loc 1 246 9 view .LVU83
 289 0120 0022     		movs	r2, #0
 290 0122 0831     		adds	r1, r1, #8
 291 0124 2046     		mov	r0, r4
 292 0126 FFF7FEFF 		bl	lv_obj_add_style
 293              	.LVL39:
 247:Drivers/lvgl/src/extra/themes/mono/lv_theme_mono.c ****         lv_obj_add_style(obj, &styles->inv, LV_STATE_CHECKED);
 294              		.loc 1 247 9 is_stmt 1 view .LVU84
 247:Drivers/lvgl/src/extra/themes/mono/lv_theme_mono.c ****         lv_obj_add_style(obj, &styles->inv, LV_STATE_CHECKED);
 295              		.loc 1 247 38 is_stmt 0 view .LVU85
 296 012a 2968     		ldr	r1, [r5]
 247:Drivers/lvgl/src/extra/themes/mono/lv_theme_mono.c ****         lv_obj_add_style(obj, &styles->inv, LV_STATE_CHECKED);
 297              		.loc 1 247 9 view .LVU86
 298 012c 2022     		movs	r2, #32
ARM GAS  /var/folders/lp/x54gwt890xv47sdkqj1k04q40000gn/T//cc7THuQy.s 			page 16


 299 012e 1144     		add	r1, r1, r2
 300 0130 2046     		mov	r0, r4
 301 0132 FFF7FEFF 		bl	lv_obj_add_style
 302              	.LVL40:
 248:Drivers/lvgl/src/extra/themes/mono/lv_theme_mono.c ****         lv_obj_add_style(obj, &styles->disabled, LV_STATE_DISABLED);
 303              		.loc 1 248 9 is_stmt 1 view .LVU87
 248:Drivers/lvgl/src/extra/themes/mono/lv_theme_mono.c ****         lv_obj_add_style(obj, &styles->disabled, LV_STATE_DISABLED);
 304              		.loc 1 248 38 is_stmt 0 view .LVU88
 305 0136 2968     		ldr	r1, [r5]
 248:Drivers/lvgl/src/extra/themes/mono/lv_theme_mono.c ****         lv_obj_add_style(obj, &styles->disabled, LV_STATE_DISABLED);
 306              		.loc 1 248 9 view .LVU89
 307 0138 0122     		movs	r2, #1
 308 013a 2831     		adds	r1, r1, #40
 309 013c 2046     		mov	r0, r4
 310 013e FFF7FEFF 		bl	lv_obj_add_style
 311              	.LVL41:
 249:Drivers/lvgl/src/extra/themes/mono/lv_theme_mono.c ****         lv_obj_add_style(obj, &styles->focus, LV_STATE_FOCUS_KEY);
 312              		.loc 1 249 9 is_stmt 1 view .LVU90
 249:Drivers/lvgl/src/extra/themes/mono/lv_theme_mono.c ****         lv_obj_add_style(obj, &styles->focus, LV_STATE_FOCUS_KEY);
 313              		.loc 1 249 38 is_stmt 0 view .LVU91
 314 0142 2968     		ldr	r1, [r5]
 249:Drivers/lvgl/src/extra/themes/mono/lv_theme_mono.c ****         lv_obj_add_style(obj, &styles->focus, LV_STATE_FOCUS_KEY);
 315              		.loc 1 249 9 view .LVU92
 316 0144 8022     		movs	r2, #128
 317 0146 3031     		adds	r1, r1, #48
 318 0148 2046     		mov	r0, r4
 319 014a FFF7FEFF 		bl	lv_obj_add_style
 320              	.LVL42:
 250:Drivers/lvgl/src/extra/themes/mono/lv_theme_mono.c ****         lv_obj_add_style(obj, &styles->edit, LV_STATE_EDITED);
 321              		.loc 1 250 9 is_stmt 1 view .LVU93
 250:Drivers/lvgl/src/extra/themes/mono/lv_theme_mono.c ****         lv_obj_add_style(obj, &styles->edit, LV_STATE_EDITED);
 322              		.loc 1 250 38 is_stmt 0 view .LVU94
 323 014e 2968     		ldr	r1, [r5]
 250:Drivers/lvgl/src/extra/themes/mono/lv_theme_mono.c ****         lv_obj_add_style(obj, &styles->edit, LV_STATE_EDITED);
 324              		.loc 1 250 9 view .LVU95
 325 0150 0422     		movs	r2, #4
 326 0152 3831     		adds	r1, r1, #56
 327 0154 2046     		mov	r0, r4
 328 0156 FFF7FEFF 		bl	lv_obj_add_style
 329              	.LVL43:
 251:Drivers/lvgl/src/extra/themes/mono/lv_theme_mono.c ****     }
 330              		.loc 1 251 9 is_stmt 1 view .LVU96
 251:Drivers/lvgl/src/extra/themes/mono/lv_theme_mono.c ****     }
 331              		.loc 1 251 38 is_stmt 0 view .LVU97
 332 015a 2968     		ldr	r1, [r5]
 251:Drivers/lvgl/src/extra/themes/mono/lv_theme_mono.c ****     }
 333              		.loc 1 251 9 view .LVU98
 334 015c 0822     		movs	r2, #8
 335 015e 4031     		adds	r1, r1, #64
 336 0160 2046     		mov	r0, r4
 337 0162 FFF7FEFF 		bl	lv_obj_add_style
 338              	.LVL44:
 339 0166 5FE7     		b	.L1
 340              	.L8:
 256:Drivers/lvgl/src/extra/themes/mono/lv_theme_mono.c **** #if LV_USE_MSGBOX
 341              		.loc 1 256 10 is_stmt 1 view .LVU99
 256:Drivers/lvgl/src/extra/themes/mono/lv_theme_mono.c **** #if LV_USE_MSGBOX
ARM GAS  /var/folders/lp/x54gwt890xv47sdkqj1k04q40000gn/T//cc7THuQy.s 			page 17


 342              		.loc 1 256 13 is_stmt 0 view .LVU100
 343 0168 6849     		ldr	r1, .L42+20
 344 016a 2046     		mov	r0, r4
 345 016c FFF7FEFF 		bl	lv_obj_check_type
 346              	.LVL45:
 256:Drivers/lvgl/src/extra/themes/mono/lv_theme_mono.c **** #if LV_USE_MSGBOX
 347              		.loc 1 256 12 discriminator 1 view .LVU101
 348 0170 0028     		cmp	r0, #0
 349 0172 00F0A080 		beq	.L9
 258:Drivers/lvgl/src/extra/themes/mono/lv_theme_mono.c ****             lv_obj_add_style(obj, &styles->pad_gap, 0);
 350              		.loc 1 258 9 is_stmt 1 view .LVU102
 258:Drivers/lvgl/src/extra/themes/mono/lv_theme_mono.c ****             lv_obj_add_style(obj, &styles->pad_gap, 0);
 351              		.loc 1 258 30 is_stmt 0 view .LVU103
 352 0176 2046     		mov	r0, r4
 353 0178 FFF7FEFF 		bl	lv_obj_get_parent
 354              	.LVL46:
 258:Drivers/lvgl/src/extra/themes/mono/lv_theme_mono.c ****             lv_obj_add_style(obj, &styles->pad_gap, 0);
 355              		.loc 1 258 12 discriminator 1 view .LVU104
 356 017c 6449     		ldr	r1, .L42+24
 357 017e FFF7FEFF 		bl	lv_obj_check_type
 358              	.LVL47:
 258:Drivers/lvgl/src/extra/themes/mono/lv_theme_mono.c ****             lv_obj_add_style(obj, &styles->pad_gap, 0);
 359              		.loc 1 258 11 discriminator 2 view .LVU105
 360 0182 0028     		cmp	r0, #0
 361 0184 3BD1     		bne	.L38
 269:Drivers/lvgl/src/extra/themes/mono/lv_theme_mono.c ****             lv_obj_add_style(obj, &styles->pad_gap, 0);
 362              		.loc 1 269 9 is_stmt 1 view .LVU106
 269:Drivers/lvgl/src/extra/themes/mono/lv_theme_mono.c ****             lv_obj_add_style(obj, &styles->pad_gap, 0);
 363              		.loc 1 269 30 is_stmt 0 view .LVU107
 364 0186 2046     		mov	r0, r4
 365 0188 FFF7FEFF 		bl	lv_obj_get_parent
 366              	.LVL48:
 269:Drivers/lvgl/src/extra/themes/mono/lv_theme_mono.c ****             lv_obj_add_style(obj, &styles->pad_gap, 0);
 367              		.loc 1 269 12 discriminator 1 view .LVU108
 368 018c 5B49     		ldr	r1, .L42+4
 369 018e FFF7FEFF 		bl	lv_obj_check_type
 370              	.LVL49:
 269:Drivers/lvgl/src/extra/themes/mono/lv_theme_mono.c ****             lv_obj_add_style(obj, &styles->pad_gap, 0);
 371              		.loc 1 269 11 discriminator 2 view .LVU109
 372 0192 0028     		cmp	r0, #0
 373 0194 5BD1     		bne	.L39
 281:Drivers/lvgl/src/extra/themes/mono/lv_theme_mono.c ****         lv_obj_add_style(obj, &styles->focus, LV_STATE_FOCUS_KEY);
 374              		.loc 1 281 9 is_stmt 1 view .LVU110
 281:Drivers/lvgl/src/extra/themes/mono/lv_theme_mono.c ****         lv_obj_add_style(obj, &styles->focus, LV_STATE_FOCUS_KEY);
 375              		.loc 1 281 38 is_stmt 0 view .LVU111
 376 0196 5A4D     		ldr	r5, .L42+8
 377 0198 2968     		ldr	r1, [r5]
 281:Drivers/lvgl/src/extra/themes/mono/lv_theme_mono.c ****         lv_obj_add_style(obj, &styles->focus, LV_STATE_FOCUS_KEY);
 378              		.loc 1 281 9 view .LVU112
 379 019a 0022     		movs	r2, #0
 380 019c 0831     		adds	r1, r1, #8
 381 019e 2046     		mov	r0, r4
 382 01a0 FFF7FEFF 		bl	lv_obj_add_style
 383              	.LVL50:
 282:Drivers/lvgl/src/extra/themes/mono/lv_theme_mono.c ****         lv_obj_add_style(obj, &styles->card, LV_PART_ITEMS);
 384              		.loc 1 282 9 is_stmt 1 view .LVU113
 282:Drivers/lvgl/src/extra/themes/mono/lv_theme_mono.c ****         lv_obj_add_style(obj, &styles->card, LV_PART_ITEMS);
ARM GAS  /var/folders/lp/x54gwt890xv47sdkqj1k04q40000gn/T//cc7THuQy.s 			page 18


 385              		.loc 1 282 38 is_stmt 0 view .LVU114
 386 01a4 2968     		ldr	r1, [r5]
 282:Drivers/lvgl/src/extra/themes/mono/lv_theme_mono.c ****         lv_obj_add_style(obj, &styles->card, LV_PART_ITEMS);
 387              		.loc 1 282 9 view .LVU115
 388 01a6 0422     		movs	r2, #4
 389 01a8 3831     		adds	r1, r1, #56
 390 01aa 2046     		mov	r0, r4
 391 01ac FFF7FEFF 		bl	lv_obj_add_style
 392              	.LVL51:
 283:Drivers/lvgl/src/extra/themes/mono/lv_theme_mono.c ****         lv_obj_add_style(obj, &styles->pr, LV_PART_ITEMS | LV_STATE_PRESSED);
 393              		.loc 1 283 9 is_stmt 1 view .LVU116
 283:Drivers/lvgl/src/extra/themes/mono/lv_theme_mono.c ****         lv_obj_add_style(obj, &styles->pr, LV_PART_ITEMS | LV_STATE_PRESSED);
 394              		.loc 1 283 38 is_stmt 0 view .LVU117
 395 01b0 2968     		ldr	r1, [r5]
 283:Drivers/lvgl/src/extra/themes/mono/lv_theme_mono.c ****         lv_obj_add_style(obj, &styles->pr, LV_PART_ITEMS | LV_STATE_PRESSED);
 396              		.loc 1 283 9 view .LVU118
 397 01b2 4FF4A022 		mov	r2, #327680
 398 01b6 0831     		adds	r1, r1, #8
 399 01b8 2046     		mov	r0, r4
 400 01ba FFF7FEFF 		bl	lv_obj_add_style
 401              	.LVL52:
 284:Drivers/lvgl/src/extra/themes/mono/lv_theme_mono.c ****         lv_obj_add_style(obj, &styles->inv, LV_PART_ITEMS | LV_STATE_CHECKED);
 402              		.loc 1 284 9 is_stmt 1 view .LVU119
 284:Drivers/lvgl/src/extra/themes/mono/lv_theme_mono.c ****         lv_obj_add_style(obj, &styles->inv, LV_PART_ITEMS | LV_STATE_CHECKED);
 403              		.loc 1 284 38 is_stmt 0 view .LVU120
 404 01be 2968     		ldr	r1, [r5]
 284:Drivers/lvgl/src/extra/themes/mono/lv_theme_mono.c ****         lv_obj_add_style(obj, &styles->inv, LV_PART_ITEMS | LV_STATE_CHECKED);
 405              		.loc 1 284 9 view .LVU121
 406 01c0 544A     		ldr	r2, .L42+28
 407 01c2 2031     		adds	r1, r1, #32
 408 01c4 2046     		mov	r0, r4
 409 01c6 FFF7FEFF 		bl	lv_obj_add_style
 410              	.LVL53:
 285:Drivers/lvgl/src/extra/themes/mono/lv_theme_mono.c ****         lv_obj_add_style(obj, &styles->disabled, LV_PART_ITEMS | LV_STATE_DISABLED);
 411              		.loc 1 285 9 is_stmt 1 view .LVU122
 285:Drivers/lvgl/src/extra/themes/mono/lv_theme_mono.c ****         lv_obj_add_style(obj, &styles->disabled, LV_PART_ITEMS | LV_STATE_DISABLED);
 412              		.loc 1 285 38 is_stmt 0 view .LVU123
 413 01ca 2968     		ldr	r1, [r5]
 285:Drivers/lvgl/src/extra/themes/mono/lv_theme_mono.c ****         lv_obj_add_style(obj, &styles->disabled, LV_PART_ITEMS | LV_STATE_DISABLED);
 414              		.loc 1 285 9 view .LVU124
 415 01cc 524A     		ldr	r2, .L42+32
 416 01ce 2831     		adds	r1, r1, #40
 417 01d0 2046     		mov	r0, r4
 418 01d2 FFF7FEFF 		bl	lv_obj_add_style
 419              	.LVL54:
 286:Drivers/lvgl/src/extra/themes/mono/lv_theme_mono.c ****         lv_obj_add_style(obj, &styles->underline, LV_PART_ITEMS | LV_STATE_FOCUS_KEY);
 420              		.loc 1 286 9 is_stmt 1 view .LVU125
 286:Drivers/lvgl/src/extra/themes/mono/lv_theme_mono.c ****         lv_obj_add_style(obj, &styles->underline, LV_PART_ITEMS | LV_STATE_FOCUS_KEY);
 421              		.loc 1 286 38 is_stmt 0 view .LVU126
 422 01d6 2968     		ldr	r1, [r5]
 286:Drivers/lvgl/src/extra/themes/mono/lv_theme_mono.c ****         lv_obj_add_style(obj, &styles->underline, LV_PART_ITEMS | LV_STATE_FOCUS_KEY);
 423              		.loc 1 286 9 view .LVU127
 424 01d8 504A     		ldr	r2, .L42+36
 425 01da 3031     		adds	r1, r1, #48
 426 01dc 2046     		mov	r0, r4
 427 01de FFF7FEFF 		bl	lv_obj_add_style
 428              	.LVL55:
ARM GAS  /var/folders/lp/x54gwt890xv47sdkqj1k04q40000gn/T//cc7THuQy.s 			page 19


 287:Drivers/lvgl/src/extra/themes/mono/lv_theme_mono.c ****         lv_obj_add_style(obj, &styles->large_border, LV_PART_ITEMS | LV_STATE_FOCUS_KEY);
 429              		.loc 1 287 9 is_stmt 1 view .LVU128
 287:Drivers/lvgl/src/extra/themes/mono/lv_theme_mono.c ****         lv_obj_add_style(obj, &styles->large_border, LV_PART_ITEMS | LV_STATE_FOCUS_KEY);
 430              		.loc 1 287 38 is_stmt 0 view .LVU129
 431 01e2 2968     		ldr	r1, [r5]
 287:Drivers/lvgl/src/extra/themes/mono/lv_theme_mono.c ****         lv_obj_add_style(obj, &styles->large_border, LV_PART_ITEMS | LV_STATE_FOCUS_KEY);
 432              		.loc 1 287 9 view .LVU130
 433 01e4 4E4E     		ldr	r6, .L42+40
 434 01e6 3246     		mov	r2, r6
 435 01e8 7831     		adds	r1, r1, #120
 436 01ea 2046     		mov	r0, r4
 437 01ec FFF7FEFF 		bl	lv_obj_add_style
 438              	.LVL56:
 288:Drivers/lvgl/src/extra/themes/mono/lv_theme_mono.c ****     }
 439              		.loc 1 288 9 is_stmt 1 view .LVU131
 288:Drivers/lvgl/src/extra/themes/mono/lv_theme_mono.c ****     }
 440              		.loc 1 288 38 is_stmt 0 view .LVU132
 441 01f0 2968     		ldr	r1, [r5]
 288:Drivers/lvgl/src/extra/themes/mono/lv_theme_mono.c ****     }
 442              		.loc 1 288 9 view .LVU133
 443 01f2 3246     		mov	r2, r6
 444 01f4 6831     		adds	r1, r1, #104
 445 01f6 2046     		mov	r0, r4
 446 01f8 FFF7FEFF 		bl	lv_obj_add_style
 447              	.LVL57:
 448 01fc 14E7     		b	.L1
 449              	.L38:
 259:Drivers/lvgl/src/extra/themes/mono/lv_theme_mono.c ****             lv_obj_add_style(obj, &styles->card, LV_PART_ITEMS);
 450              		.loc 1 259 13 is_stmt 1 view .LVU134
 259:Drivers/lvgl/src/extra/themes/mono/lv_theme_mono.c ****             lv_obj_add_style(obj, &styles->card, LV_PART_ITEMS);
 451              		.loc 1 259 42 is_stmt 0 view .LVU135
 452 01fe 404D     		ldr	r5, .L42+8
 453 0200 2968     		ldr	r1, [r5]
 259:Drivers/lvgl/src/extra/themes/mono/lv_theme_mono.c ****             lv_obj_add_style(obj, &styles->card, LV_PART_ITEMS);
 454              		.loc 1 259 13 view .LVU136
 455 0202 0022     		movs	r2, #0
 456 0204 4831     		adds	r1, r1, #72
 457 0206 2046     		mov	r0, r4
 458 0208 FFF7FEFF 		bl	lv_obj_add_style
 459              	.LVL58:
 260:Drivers/lvgl/src/extra/themes/mono/lv_theme_mono.c ****             lv_obj_add_style(obj, &styles->pr, LV_PART_ITEMS | LV_STATE_PRESSED);
 460              		.loc 1 260 13 is_stmt 1 view .LVU137
 260:Drivers/lvgl/src/extra/themes/mono/lv_theme_mono.c ****             lv_obj_add_style(obj, &styles->pr, LV_PART_ITEMS | LV_STATE_PRESSED);
 461              		.loc 1 260 42 is_stmt 0 view .LVU138
 462 020c 2968     		ldr	r1, [r5]
 260:Drivers/lvgl/src/extra/themes/mono/lv_theme_mono.c ****             lv_obj_add_style(obj, &styles->pr, LV_PART_ITEMS | LV_STATE_PRESSED);
 463              		.loc 1 260 13 view .LVU139
 464 020e 4FF4A022 		mov	r2, #327680
 465 0212 0831     		adds	r1, r1, #8
 466 0214 2046     		mov	r0, r4
 467 0216 FFF7FEFF 		bl	lv_obj_add_style
 468              	.LVL59:
 261:Drivers/lvgl/src/extra/themes/mono/lv_theme_mono.c ****             lv_obj_add_style(obj, &styles->disabled, LV_PART_ITEMS | LV_STATE_DISABLED);
 469              		.loc 1 261 13 is_stmt 1 view .LVU140
 261:Drivers/lvgl/src/extra/themes/mono/lv_theme_mono.c ****             lv_obj_add_style(obj, &styles->disabled, LV_PART_ITEMS | LV_STATE_DISABLED);
 470              		.loc 1 261 42 is_stmt 0 view .LVU141
 471 021a 2968     		ldr	r1, [r5]
ARM GAS  /var/folders/lp/x54gwt890xv47sdkqj1k04q40000gn/T//cc7THuQy.s 			page 20


 261:Drivers/lvgl/src/extra/themes/mono/lv_theme_mono.c ****             lv_obj_add_style(obj, &styles->disabled, LV_PART_ITEMS | LV_STATE_DISABLED);
 472              		.loc 1 261 13 view .LVU142
 473 021c 3D4A     		ldr	r2, .L42+28
 474 021e 2031     		adds	r1, r1, #32
 475 0220 2046     		mov	r0, r4
 476 0222 FFF7FEFF 		bl	lv_obj_add_style
 477              	.LVL60:
 262:Drivers/lvgl/src/extra/themes/mono/lv_theme_mono.c ****             lv_obj_add_style(obj, &styles->underline, LV_PART_ITEMS | LV_STATE_FOCUS_KEY);
 478              		.loc 1 262 13 is_stmt 1 view .LVU143
 262:Drivers/lvgl/src/extra/themes/mono/lv_theme_mono.c ****             lv_obj_add_style(obj, &styles->underline, LV_PART_ITEMS | LV_STATE_FOCUS_KEY);
 479              		.loc 1 262 42 is_stmt 0 view .LVU144
 480 0226 2968     		ldr	r1, [r5]
 262:Drivers/lvgl/src/extra/themes/mono/lv_theme_mono.c ****             lv_obj_add_style(obj, &styles->underline, LV_PART_ITEMS | LV_STATE_FOCUS_KEY);
 481              		.loc 1 262 13 view .LVU145
 482 0228 3C4A     		ldr	r2, .L42+36
 483 022a 3031     		adds	r1, r1, #48
 484 022c 2046     		mov	r0, r4
 485 022e FFF7FEFF 		bl	lv_obj_add_style
 486              	.LVL61:
 263:Drivers/lvgl/src/extra/themes/mono/lv_theme_mono.c ****             lv_obj_add_style(obj, &styles->large_border, LV_PART_ITEMS | LV_STATE_FOCUS_KEY);
 487              		.loc 1 263 13 is_stmt 1 view .LVU146
 263:Drivers/lvgl/src/extra/themes/mono/lv_theme_mono.c ****             lv_obj_add_style(obj, &styles->large_border, LV_PART_ITEMS | LV_STATE_FOCUS_KEY);
 488              		.loc 1 263 42 is_stmt 0 view .LVU147
 489 0232 2968     		ldr	r1, [r5]
 263:Drivers/lvgl/src/extra/themes/mono/lv_theme_mono.c ****             lv_obj_add_style(obj, &styles->large_border, LV_PART_ITEMS | LV_STATE_FOCUS_KEY);
 490              		.loc 1 263 13 view .LVU148
 491 0234 3A4E     		ldr	r6, .L42+40
 492 0236 3246     		mov	r2, r6
 493 0238 7831     		adds	r1, r1, #120
 494 023a 2046     		mov	r0, r4
 495 023c FFF7FEFF 		bl	lv_obj_add_style
 496              	.LVL62:
 264:Drivers/lvgl/src/extra/themes/mono/lv_theme_mono.c ****             return;
 497              		.loc 1 264 13 is_stmt 1 view .LVU149
 264:Drivers/lvgl/src/extra/themes/mono/lv_theme_mono.c ****             return;
 498              		.loc 1 264 42 is_stmt 0 view .LVU150
 499 0240 2968     		ldr	r1, [r5]
 264:Drivers/lvgl/src/extra/themes/mono/lv_theme_mono.c ****             return;
 500              		.loc 1 264 13 view .LVU151
 501 0242 3246     		mov	r2, r6
 502 0244 6831     		adds	r1, r1, #104
 503 0246 2046     		mov	r0, r4
 504 0248 FFF7FEFF 		bl	lv_obj_add_style
 505              	.LVL63:
 265:Drivers/lvgl/src/extra/themes/mono/lv_theme_mono.c ****         }
 506              		.loc 1 265 13 is_stmt 1 view .LVU152
 507 024c ECE6     		b	.L1
 508              	.L39:
 270:Drivers/lvgl/src/extra/themes/mono/lv_theme_mono.c ****             lv_obj_add_style(obj, &styles->card, LV_PART_ITEMS);
 509              		.loc 1 270 13 view .LVU153
 270:Drivers/lvgl/src/extra/themes/mono/lv_theme_mono.c ****             lv_obj_add_style(obj, &styles->card, LV_PART_ITEMS);
 510              		.loc 1 270 42 is_stmt 0 view .LVU154
 511 024e 2C4D     		ldr	r5, .L42+8
 512 0250 2968     		ldr	r1, [r5]
 270:Drivers/lvgl/src/extra/themes/mono/lv_theme_mono.c ****             lv_obj_add_style(obj, &styles->card, LV_PART_ITEMS);
 513              		.loc 1 270 13 view .LVU155
 514 0252 0022     		movs	r2, #0
ARM GAS  /var/folders/lp/x54gwt890xv47sdkqj1k04q40000gn/T//cc7THuQy.s 			page 21


 515 0254 4831     		adds	r1, r1, #72
 516 0256 2046     		mov	r0, r4
 517 0258 FFF7FEFF 		bl	lv_obj_add_style
 518              	.LVL64:
 271:Drivers/lvgl/src/extra/themes/mono/lv_theme_mono.c ****             lv_obj_add_style(obj, &styles->pr, LV_PART_ITEMS | LV_STATE_PRESSED);
 519              		.loc 1 271 13 is_stmt 1 view .LVU156
 271:Drivers/lvgl/src/extra/themes/mono/lv_theme_mono.c ****             lv_obj_add_style(obj, &styles->pr, LV_PART_ITEMS | LV_STATE_PRESSED);
 520              		.loc 1 271 42 is_stmt 0 view .LVU157
 521 025c 2968     		ldr	r1, [r5]
 271:Drivers/lvgl/src/extra/themes/mono/lv_theme_mono.c ****             lv_obj_add_style(obj, &styles->pr, LV_PART_ITEMS | LV_STATE_PRESSED);
 522              		.loc 1 271 13 view .LVU158
 523 025e 4FF4A022 		mov	r2, #327680
 524 0262 0831     		adds	r1, r1, #8
 525 0264 2046     		mov	r0, r4
 526 0266 FFF7FEFF 		bl	lv_obj_add_style
 527              	.LVL65:
 272:Drivers/lvgl/src/extra/themes/mono/lv_theme_mono.c ****             lv_obj_add_style(obj, &styles->inv, LV_PART_ITEMS | LV_STATE_CHECKED);
 528              		.loc 1 272 13 is_stmt 1 view .LVU159
 272:Drivers/lvgl/src/extra/themes/mono/lv_theme_mono.c ****             lv_obj_add_style(obj, &styles->inv, LV_PART_ITEMS | LV_STATE_CHECKED);
 529              		.loc 1 272 42 is_stmt 0 view .LVU160
 530 026a 2968     		ldr	r1, [r5]
 272:Drivers/lvgl/src/extra/themes/mono/lv_theme_mono.c ****             lv_obj_add_style(obj, &styles->inv, LV_PART_ITEMS | LV_STATE_CHECKED);
 531              		.loc 1 272 13 view .LVU161
 532 026c 294A     		ldr	r2, .L42+28
 533 026e 2031     		adds	r1, r1, #32
 534 0270 2046     		mov	r0, r4
 535 0272 FFF7FEFF 		bl	lv_obj_add_style
 536              	.LVL66:
 273:Drivers/lvgl/src/extra/themes/mono/lv_theme_mono.c ****             lv_obj_add_style(obj, &styles->disabled, LV_PART_ITEMS | LV_STATE_DISABLED);
 537              		.loc 1 273 13 is_stmt 1 view .LVU162
 273:Drivers/lvgl/src/extra/themes/mono/lv_theme_mono.c ****             lv_obj_add_style(obj, &styles->disabled, LV_PART_ITEMS | LV_STATE_DISABLED);
 538              		.loc 1 273 42 is_stmt 0 view .LVU163
 539 0276 2968     		ldr	r1, [r5]
 273:Drivers/lvgl/src/extra/themes/mono/lv_theme_mono.c ****             lv_obj_add_style(obj, &styles->disabled, LV_PART_ITEMS | LV_STATE_DISABLED);
 540              		.loc 1 273 13 view .LVU164
 541 0278 274A     		ldr	r2, .L42+32
 542 027a 2831     		adds	r1, r1, #40
 543 027c 2046     		mov	r0, r4
 544 027e FFF7FEFF 		bl	lv_obj_add_style
 545              	.LVL67:
 274:Drivers/lvgl/src/extra/themes/mono/lv_theme_mono.c ****             lv_obj_add_style(obj, &styles->focus, LV_STATE_FOCUS_KEY);
 546              		.loc 1 274 13 is_stmt 1 view .LVU165
 274:Drivers/lvgl/src/extra/themes/mono/lv_theme_mono.c ****             lv_obj_add_style(obj, &styles->focus, LV_STATE_FOCUS_KEY);
 547              		.loc 1 274 42 is_stmt 0 view .LVU166
 548 0282 2968     		ldr	r1, [r5]
 274:Drivers/lvgl/src/extra/themes/mono/lv_theme_mono.c ****             lv_obj_add_style(obj, &styles->focus, LV_STATE_FOCUS_KEY);
 549              		.loc 1 274 13 view .LVU167
 550 0284 254A     		ldr	r2, .L42+36
 551 0286 3031     		adds	r1, r1, #48
 552 0288 2046     		mov	r0, r4
 553 028a FFF7FEFF 		bl	lv_obj_add_style
 554              	.LVL68:
 275:Drivers/lvgl/src/extra/themes/mono/lv_theme_mono.c ****             lv_obj_add_style(obj, &styles->underline, LV_PART_ITEMS | LV_STATE_FOCUS_KEY);
 555              		.loc 1 275 13 is_stmt 1 view .LVU168
 275:Drivers/lvgl/src/extra/themes/mono/lv_theme_mono.c ****             lv_obj_add_style(obj, &styles->underline, LV_PART_ITEMS | LV_STATE_FOCUS_KEY);
 556              		.loc 1 275 42 is_stmt 0 view .LVU169
 557 028e 2968     		ldr	r1, [r5]
ARM GAS  /var/folders/lp/x54gwt890xv47sdkqj1k04q40000gn/T//cc7THuQy.s 			page 22


 275:Drivers/lvgl/src/extra/themes/mono/lv_theme_mono.c ****             lv_obj_add_style(obj, &styles->underline, LV_PART_ITEMS | LV_STATE_FOCUS_KEY);
 558              		.loc 1 275 13 view .LVU170
 559 0290 0422     		movs	r2, #4
 560 0292 3831     		adds	r1, r1, #56
 561 0294 2046     		mov	r0, r4
 562 0296 FFF7FEFF 		bl	lv_obj_add_style
 563              	.LVL69:
 276:Drivers/lvgl/src/extra/themes/mono/lv_theme_mono.c ****             lv_obj_add_style(obj, &styles->large_border, LV_PART_ITEMS | LV_STATE_FOCUS_KEY);
 564              		.loc 1 276 13 is_stmt 1 view .LVU171
 276:Drivers/lvgl/src/extra/themes/mono/lv_theme_mono.c ****             lv_obj_add_style(obj, &styles->large_border, LV_PART_ITEMS | LV_STATE_FOCUS_KEY);
 565              		.loc 1 276 42 is_stmt 0 view .LVU172
 566 029a 2968     		ldr	r1, [r5]
 276:Drivers/lvgl/src/extra/themes/mono/lv_theme_mono.c ****             lv_obj_add_style(obj, &styles->large_border, LV_PART_ITEMS | LV_STATE_FOCUS_KEY);
 567              		.loc 1 276 13 view .LVU173
 568 029c 204E     		ldr	r6, .L42+40
 569 029e 3246     		mov	r2, r6
 570 02a0 7831     		adds	r1, r1, #120
 571 02a2 2046     		mov	r0, r4
 572 02a4 FFF7FEFF 		bl	lv_obj_add_style
 573              	.LVL70:
 277:Drivers/lvgl/src/extra/themes/mono/lv_theme_mono.c ****             return;
 574              		.loc 1 277 13 is_stmt 1 view .LVU174
 277:Drivers/lvgl/src/extra/themes/mono/lv_theme_mono.c ****             return;
 575              		.loc 1 277 42 is_stmt 0 view .LVU175
 576 02a8 2968     		ldr	r1, [r5]
 277:Drivers/lvgl/src/extra/themes/mono/lv_theme_mono.c ****             return;
 577              		.loc 1 277 13 view .LVU176
 578 02aa 3246     		mov	r2, r6
 579 02ac 6831     		adds	r1, r1, #104
 580 02ae 2046     		mov	r0, r4
 581 02b0 FFF7FEFF 		bl	lv_obj_add_style
 582              	.LVL71:
 278:Drivers/lvgl/src/extra/themes/mono/lv_theme_mono.c ****         }
 583              		.loc 1 278 13 is_stmt 1 view .LVU177
 584 02b4 B8E6     		b	.L1
 585              	.L9:
 293:Drivers/lvgl/src/extra/themes/mono/lv_theme_mono.c ****         lv_obj_add_style(obj, &styles->card, 0);
 586              		.loc 1 293 10 view .LVU178
 293:Drivers/lvgl/src/extra/themes/mono/lv_theme_mono.c ****         lv_obj_add_style(obj, &styles->card, 0);
 587              		.loc 1 293 13 is_stmt 0 view .LVU179
 588 02b6 1B49     		ldr	r1, .L42+44
 589 02b8 2046     		mov	r0, r4
 590 02ba FFF7FEFF 		bl	lv_obj_check_type
 591              	.LVL72:
 293:Drivers/lvgl/src/extra/themes/mono/lv_theme_mono.c ****         lv_obj_add_style(obj, &styles->card, 0);
 592              		.loc 1 293 12 discriminator 1 view .LVU180
 593 02be 98B3     		cbz	r0, .L12
 294:Drivers/lvgl/src/extra/themes/mono/lv_theme_mono.c ****         lv_obj_add_style(obj, &styles->pad_zero, 0);
 594              		.loc 1 294 9 is_stmt 1 view .LVU181
 294:Drivers/lvgl/src/extra/themes/mono/lv_theme_mono.c ****         lv_obj_add_style(obj, &styles->pad_zero, 0);
 595              		.loc 1 294 38 is_stmt 0 view .LVU182
 596 02c0 0F4D     		ldr	r5, .L42+8
 597 02c2 2968     		ldr	r1, [r5]
 294:Drivers/lvgl/src/extra/themes/mono/lv_theme_mono.c ****         lv_obj_add_style(obj, &styles->pad_zero, 0);
 598              		.loc 1 294 9 view .LVU183
 599 02c4 0022     		movs	r2, #0
 600 02c6 0831     		adds	r1, r1, #8
ARM GAS  /var/folders/lp/x54gwt890xv47sdkqj1k04q40000gn/T//cc7THuQy.s 			page 23


 601 02c8 2046     		mov	r0, r4
 602 02ca FFF7FEFF 		bl	lv_obj_add_style
 603              	.LVL73:
 295:Drivers/lvgl/src/extra/themes/mono/lv_theme_mono.c ****         lv_obj_add_style(obj, &styles->inv, LV_PART_INDICATOR);
 604              		.loc 1 295 9 is_stmt 1 view .LVU184
 295:Drivers/lvgl/src/extra/themes/mono/lv_theme_mono.c ****         lv_obj_add_style(obj, &styles->inv, LV_PART_INDICATOR);
 605              		.loc 1 295 38 is_stmt 0 view .LVU185
 606 02ce 2968     		ldr	r1, [r5]
 295:Drivers/lvgl/src/extra/themes/mono/lv_theme_mono.c ****         lv_obj_add_style(obj, &styles->inv, LV_PART_INDICATOR);
 607              		.loc 1 295 9 view .LVU186
 608 02d0 0022     		movs	r2, #0
 609 02d2 5031     		adds	r1, r1, #80
 610 02d4 2046     		mov	r0, r4
 611 02d6 FFF7FEFF 		bl	lv_obj_add_style
 612              	.LVL74:
 296:Drivers/lvgl/src/extra/themes/mono/lv_theme_mono.c ****         lv_obj_add_style(obj, &styles->focus, LV_STATE_FOCUS_KEY);
 613              		.loc 1 296 9 is_stmt 1 view .LVU187
 296:Drivers/lvgl/src/extra/themes/mono/lv_theme_mono.c ****         lv_obj_add_style(obj, &styles->focus, LV_STATE_FOCUS_KEY);
 614              		.loc 1 296 38 is_stmt 0 view .LVU188
 615 02da 2968     		ldr	r1, [r5]
 296:Drivers/lvgl/src/extra/themes/mono/lv_theme_mono.c ****         lv_obj_add_style(obj, &styles->focus, LV_STATE_FOCUS_KEY);
 616              		.loc 1 296 9 view .LVU189
 617 02dc 4FF40032 		mov	r2, #131072
 618 02e0 2831     		adds	r1, r1, #40
 619 02e2 2046     		mov	r0, r4
 620 02e4 FFF7FEFF 		bl	lv_obj_add_style
 621              	.LVL75:
 297:Drivers/lvgl/src/extra/themes/mono/lv_theme_mono.c ****     }
 622              		.loc 1 297 9 is_stmt 1 view .LVU190
 297:Drivers/lvgl/src/extra/themes/mono/lv_theme_mono.c ****     }
 623              		.loc 1 297 38 is_stmt 0 view .LVU191
 624 02e8 2968     		ldr	r1, [r5]
 297:Drivers/lvgl/src/extra/themes/mono/lv_theme_mono.c ****     }
 625              		.loc 1 297 9 view .LVU192
 626 02ea 0422     		movs	r2, #4
 627 02ec 3831     		adds	r1, r1, #56
 628 02ee 2046     		mov	r0, r4
 629 02f0 FFF7FEFF 		bl	lv_obj_add_style
 630              	.LVL76:
 631 02f4 98E6     		b	.L1
 632              	.L43:
 633 02f6 00BF     		.align	2
 634              	.L42:
 635 02f8 00000000 		.word	lv_obj_class
 636 02fc 00000000 		.word	lv_tabview_class
 637 0300 00000000 		.word	styles
 638 0304 00000000 		.word	lv_win_class
 639 0308 00000000 		.word	lv_btn_class
 640 030c 00000000 		.word	lv_btnmatrix_class
 641 0310 00000000 		.word	lv_msgbox_class
 642 0314 20000500 		.word	327712
 643 0318 01000500 		.word	327681
 644 031c 80000500 		.word	327808
 645 0320 04000500 		.word	327684
 646 0324 00000000 		.word	lv_bar_class
 647              	.L12:
 302:Drivers/lvgl/src/extra/themes/mono/lv_theme_mono.c ****         lv_obj_add_style(obj, &styles->card, 0);
ARM GAS  /var/folders/lp/x54gwt890xv47sdkqj1k04q40000gn/T//cc7THuQy.s 			page 24


 648              		.loc 1 302 10 is_stmt 1 view .LVU193
 302:Drivers/lvgl/src/extra/themes/mono/lv_theme_mono.c ****         lv_obj_add_style(obj, &styles->card, 0);
 649              		.loc 1 302 13 is_stmt 0 view .LVU194
 650 0328 C449     		ldr	r1, .L44
 651 032a 2046     		mov	r0, r4
 652 032c FFF7FEFF 		bl	lv_obj_check_type
 653              	.LVL77:
 302:Drivers/lvgl/src/extra/themes/mono/lv_theme_mono.c ****         lv_obj_add_style(obj, &styles->card, 0);
 654              		.loc 1 302 12 discriminator 1 view .LVU195
 655 0330 70B3     		cbz	r0, .L13
 303:Drivers/lvgl/src/extra/themes/mono/lv_theme_mono.c ****         lv_obj_add_style(obj, &styles->pad_zero, 0);
 656              		.loc 1 303 9 is_stmt 1 view .LVU196
 303:Drivers/lvgl/src/extra/themes/mono/lv_theme_mono.c ****         lv_obj_add_style(obj, &styles->pad_zero, 0);
 657              		.loc 1 303 38 is_stmt 0 view .LVU197
 658 0332 C34D     		ldr	r5, .L44+4
 659 0334 2968     		ldr	r1, [r5]
 303:Drivers/lvgl/src/extra/themes/mono/lv_theme_mono.c ****         lv_obj_add_style(obj, &styles->pad_zero, 0);
 660              		.loc 1 303 9 view .LVU198
 661 0336 0022     		movs	r2, #0
 662 0338 0831     		adds	r1, r1, #8
 663 033a 2046     		mov	r0, r4
 664 033c FFF7FEFF 		bl	lv_obj_add_style
 665              	.LVL78:
 304:Drivers/lvgl/src/extra/themes/mono/lv_theme_mono.c ****         lv_obj_add_style(obj, &styles->inv, LV_PART_INDICATOR);
 666              		.loc 1 304 9 is_stmt 1 view .LVU199
 304:Drivers/lvgl/src/extra/themes/mono/lv_theme_mono.c ****         lv_obj_add_style(obj, &styles->inv, LV_PART_INDICATOR);
 667              		.loc 1 304 38 is_stmt 0 view .LVU200
 668 0340 2968     		ldr	r1, [r5]
 304:Drivers/lvgl/src/extra/themes/mono/lv_theme_mono.c ****         lv_obj_add_style(obj, &styles->inv, LV_PART_INDICATOR);
 669              		.loc 1 304 9 view .LVU201
 670 0342 0022     		movs	r2, #0
 671 0344 5031     		adds	r1, r1, #80
 672 0346 2046     		mov	r0, r4
 673 0348 FFF7FEFF 		bl	lv_obj_add_style
 674              	.LVL79:
 305:Drivers/lvgl/src/extra/themes/mono/lv_theme_mono.c ****         lv_obj_add_style(obj, &styles->card, LV_PART_KNOB);
 675              		.loc 1 305 9 is_stmt 1 view .LVU202
 305:Drivers/lvgl/src/extra/themes/mono/lv_theme_mono.c ****         lv_obj_add_style(obj, &styles->card, LV_PART_KNOB);
 676              		.loc 1 305 38 is_stmt 0 view .LVU203
 677 034c 2968     		ldr	r1, [r5]
 305:Drivers/lvgl/src/extra/themes/mono/lv_theme_mono.c ****         lv_obj_add_style(obj, &styles->card, LV_PART_KNOB);
 678              		.loc 1 305 9 view .LVU204
 679 034e 4FF40032 		mov	r2, #131072
 680 0352 2831     		adds	r1, r1, #40
 681 0354 2046     		mov	r0, r4
 682 0356 FFF7FEFF 		bl	lv_obj_add_style
 683              	.LVL80:
 306:Drivers/lvgl/src/extra/themes/mono/lv_theme_mono.c ****         lv_obj_add_style(obj, &styles->radius_circle, LV_PART_KNOB);
 684              		.loc 1 306 9 is_stmt 1 view .LVU205
 306:Drivers/lvgl/src/extra/themes/mono/lv_theme_mono.c ****         lv_obj_add_style(obj, &styles->radius_circle, LV_PART_KNOB);
 685              		.loc 1 306 38 is_stmt 0 view .LVU206
 686 035a 2968     		ldr	r1, [r5]
 306:Drivers/lvgl/src/extra/themes/mono/lv_theme_mono.c ****         lv_obj_add_style(obj, &styles->radius_circle, LV_PART_KNOB);
 687              		.loc 1 306 9 view .LVU207
 688 035c 4FF44032 		mov	r2, #196608
 689 0360 0831     		adds	r1, r1, #8
 690 0362 2046     		mov	r0, r4
ARM GAS  /var/folders/lp/x54gwt890xv47sdkqj1k04q40000gn/T//cc7THuQy.s 			page 25


 691 0364 FFF7FEFF 		bl	lv_obj_add_style
 692              	.LVL81:
 307:Drivers/lvgl/src/extra/themes/mono/lv_theme_mono.c ****         lv_obj_add_style(obj, &styles->focus, LV_STATE_FOCUS_KEY);
 693              		.loc 1 307 9 is_stmt 1 view .LVU208
 307:Drivers/lvgl/src/extra/themes/mono/lv_theme_mono.c ****         lv_obj_add_style(obj, &styles->focus, LV_STATE_FOCUS_KEY);
 694              		.loc 1 307 38 is_stmt 0 view .LVU209
 695 0368 2968     		ldr	r1, [r5]
 307:Drivers/lvgl/src/extra/themes/mono/lv_theme_mono.c ****         lv_obj_add_style(obj, &styles->focus, LV_STATE_FOCUS_KEY);
 696              		.loc 1 307 9 view .LVU210
 697 036a 4FF44032 		mov	r2, #196608
 698 036e 6031     		adds	r1, r1, #96
 699 0370 2046     		mov	r0, r4
 700 0372 FFF7FEFF 		bl	lv_obj_add_style
 701              	.LVL82:
 308:Drivers/lvgl/src/extra/themes/mono/lv_theme_mono.c ****         lv_obj_add_style(obj, &styles->edit, LV_STATE_EDITED);
 702              		.loc 1 308 9 is_stmt 1 view .LVU211
 308:Drivers/lvgl/src/extra/themes/mono/lv_theme_mono.c ****         lv_obj_add_style(obj, &styles->edit, LV_STATE_EDITED);
 703              		.loc 1 308 38 is_stmt 0 view .LVU212
 704 0376 2968     		ldr	r1, [r5]
 308:Drivers/lvgl/src/extra/themes/mono/lv_theme_mono.c ****         lv_obj_add_style(obj, &styles->edit, LV_STATE_EDITED);
 705              		.loc 1 308 9 view .LVU213
 706 0378 0422     		movs	r2, #4
 707 037a 3831     		adds	r1, r1, #56
 708 037c 2046     		mov	r0, r4
 709 037e FFF7FEFF 		bl	lv_obj_add_style
 710              	.LVL83:
 309:Drivers/lvgl/src/extra/themes/mono/lv_theme_mono.c ****     }
 711              		.loc 1 309 9 is_stmt 1 view .LVU214
 309:Drivers/lvgl/src/extra/themes/mono/lv_theme_mono.c ****     }
 712              		.loc 1 309 38 is_stmt 0 view .LVU215
 713 0382 2968     		ldr	r1, [r5]
 309:Drivers/lvgl/src/extra/themes/mono/lv_theme_mono.c ****     }
 714              		.loc 1 309 9 view .LVU216
 715 0384 0822     		movs	r2, #8
 716 0386 4031     		adds	r1, r1, #64
 717 0388 2046     		mov	r0, r4
 718 038a FFF7FEFF 		bl	lv_obj_add_style
 719              	.LVL84:
 720 038e 4BE6     		b	.L1
 721              	.L13:
 314:Drivers/lvgl/src/extra/themes/mono/lv_theme_mono.c ****         lv_obj_add_style(obj, &styles->scrollbar, LV_PART_SCROLLBAR);
 722              		.loc 1 314 10 is_stmt 1 view .LVU217
 314:Drivers/lvgl/src/extra/themes/mono/lv_theme_mono.c ****         lv_obj_add_style(obj, &styles->scrollbar, LV_PART_SCROLLBAR);
 723              		.loc 1 314 13 is_stmt 0 view .LVU218
 724 0390 AC49     		ldr	r1, .L44+8
 725 0392 2046     		mov	r0, r4
 726 0394 FFF7FEFF 		bl	lv_obj_check_type
 727              	.LVL85:
 314:Drivers/lvgl/src/extra/themes/mono/lv_theme_mono.c ****         lv_obj_add_style(obj, &styles->scrollbar, LV_PART_SCROLLBAR);
 728              		.loc 1 314 12 discriminator 1 view .LVU219
 729 0398 70B3     		cbz	r0, .L14
 315:Drivers/lvgl/src/extra/themes/mono/lv_theme_mono.c ****         lv_obj_add_style(obj, &styles->card, LV_PART_ITEMS);
 730              		.loc 1 315 9 is_stmt 1 view .LVU220
 315:Drivers/lvgl/src/extra/themes/mono/lv_theme_mono.c ****         lv_obj_add_style(obj, &styles->card, LV_PART_ITEMS);
 731              		.loc 1 315 38 is_stmt 0 view .LVU221
 732 039a A94D     		ldr	r5, .L44+4
 733 039c 2968     		ldr	r1, [r5]
ARM GAS  /var/folders/lp/x54gwt890xv47sdkqj1k04q40000gn/T//cc7THuQy.s 			page 26


 315:Drivers/lvgl/src/extra/themes/mono/lv_theme_mono.c ****         lv_obj_add_style(obj, &styles->card, LV_PART_ITEMS);
 734              		.loc 1 315 9 view .LVU222
 735 039e 4FF48032 		mov	r2, #65536
 736 03a2 1031     		adds	r1, r1, #16
 737 03a4 2046     		mov	r0, r4
 738 03a6 FFF7FEFF 		bl	lv_obj_add_style
 739              	.LVL86:
 316:Drivers/lvgl/src/extra/themes/mono/lv_theme_mono.c ****         lv_obj_add_style(obj, &styles->no_radius, LV_PART_ITEMS);
 740              		.loc 1 316 9 is_stmt 1 view .LVU223
 316:Drivers/lvgl/src/extra/themes/mono/lv_theme_mono.c ****         lv_obj_add_style(obj, &styles->no_radius, LV_PART_ITEMS);
 741              		.loc 1 316 38 is_stmt 0 view .LVU224
 742 03aa 2968     		ldr	r1, [r5]
 316:Drivers/lvgl/src/extra/themes/mono/lv_theme_mono.c ****         lv_obj_add_style(obj, &styles->no_radius, LV_PART_ITEMS);
 743              		.loc 1 316 9 view .LVU225
 744 03ac 4FF4A022 		mov	r2, #327680
 745 03b0 0831     		adds	r1, r1, #8
 746 03b2 2046     		mov	r0, r4
 747 03b4 FFF7FEFF 		bl	lv_obj_add_style
 748              	.LVL87:
 317:Drivers/lvgl/src/extra/themes/mono/lv_theme_mono.c ****         lv_obj_add_style(obj, &styles->pr, LV_PART_ITEMS | LV_STATE_PRESSED);
 749              		.loc 1 317 9 is_stmt 1 view .LVU226
 317:Drivers/lvgl/src/extra/themes/mono/lv_theme_mono.c ****         lv_obj_add_style(obj, &styles->pr, LV_PART_ITEMS | LV_STATE_PRESSED);
 750              		.loc 1 317 38 is_stmt 0 view .LVU227
 751 03b8 2968     		ldr	r1, [r5]
 317:Drivers/lvgl/src/extra/themes/mono/lv_theme_mono.c ****         lv_obj_add_style(obj, &styles->pr, LV_PART_ITEMS | LV_STATE_PRESSED);
 752              		.loc 1 317 9 view .LVU228
 753 03ba 4FF4A022 		mov	r2, #327680
 754 03be 5831     		adds	r1, r1, #88
 755 03c0 2046     		mov	r0, r4
 756 03c2 FFF7FEFF 		bl	lv_obj_add_style
 757              	.LVL88:
 318:Drivers/lvgl/src/extra/themes/mono/lv_theme_mono.c ****         lv_obj_add_style(obj, &styles->focus, LV_STATE_FOCUS_KEY);
 758              		.loc 1 318 9 is_stmt 1 view .LVU229
 318:Drivers/lvgl/src/extra/themes/mono/lv_theme_mono.c ****         lv_obj_add_style(obj, &styles->focus, LV_STATE_FOCUS_KEY);
 759              		.loc 1 318 38 is_stmt 0 view .LVU230
 760 03c6 2968     		ldr	r1, [r5]
 318:Drivers/lvgl/src/extra/themes/mono/lv_theme_mono.c ****         lv_obj_add_style(obj, &styles->focus, LV_STATE_FOCUS_KEY);
 761              		.loc 1 318 9 view .LVU231
 762 03c8 9F4A     		ldr	r2, .L44+12
 763 03ca 2031     		adds	r1, r1, #32
 764 03cc 2046     		mov	r0, r4
 765 03ce FFF7FEFF 		bl	lv_obj_add_style
 766              	.LVL89:
 319:Drivers/lvgl/src/extra/themes/mono/lv_theme_mono.c ****         lv_obj_add_style(obj, &styles->inv, LV_PART_ITEMS | LV_STATE_FOCUS_KEY);
 767              		.loc 1 319 9 is_stmt 1 view .LVU232
 319:Drivers/lvgl/src/extra/themes/mono/lv_theme_mono.c ****         lv_obj_add_style(obj, &styles->inv, LV_PART_ITEMS | LV_STATE_FOCUS_KEY);
 768              		.loc 1 319 38 is_stmt 0 view .LVU233
 769 03d2 2968     		ldr	r1, [r5]
 319:Drivers/lvgl/src/extra/themes/mono/lv_theme_mono.c ****         lv_obj_add_style(obj, &styles->inv, LV_PART_ITEMS | LV_STATE_FOCUS_KEY);
 770              		.loc 1 319 9 view .LVU234
 771 03d4 0422     		movs	r2, #4
 772 03d6 3831     		adds	r1, r1, #56
 773 03d8 2046     		mov	r0, r4
 774 03da FFF7FEFF 		bl	lv_obj_add_style
 775              	.LVL90:
 320:Drivers/lvgl/src/extra/themes/mono/lv_theme_mono.c ****         lv_obj_add_style(obj, &styles->edit, LV_STATE_EDITED);
 776              		.loc 1 320 9 is_stmt 1 view .LVU235
ARM GAS  /var/folders/lp/x54gwt890xv47sdkqj1k04q40000gn/T//cc7THuQy.s 			page 27


 320:Drivers/lvgl/src/extra/themes/mono/lv_theme_mono.c ****         lv_obj_add_style(obj, &styles->edit, LV_STATE_EDITED);
 777              		.loc 1 320 38 is_stmt 0 view .LVU236
 778 03de 2968     		ldr	r1, [r5]
 320:Drivers/lvgl/src/extra/themes/mono/lv_theme_mono.c ****         lv_obj_add_style(obj, &styles->edit, LV_STATE_EDITED);
 779              		.loc 1 320 9 view .LVU237
 780 03e0 9A4A     		ldr	r2, .L44+16
 781 03e2 2831     		adds	r1, r1, #40
 782 03e4 2046     		mov	r0, r4
 783 03e6 FFF7FEFF 		bl	lv_obj_add_style
 784              	.LVL91:
 321:Drivers/lvgl/src/extra/themes/mono/lv_theme_mono.c ****     }
 785              		.loc 1 321 9 is_stmt 1 view .LVU238
 321:Drivers/lvgl/src/extra/themes/mono/lv_theme_mono.c ****     }
 786              		.loc 1 321 38 is_stmt 0 view .LVU239
 787 03ea 2968     		ldr	r1, [r5]
 321:Drivers/lvgl/src/extra/themes/mono/lv_theme_mono.c ****     }
 788              		.loc 1 321 9 view .LVU240
 789 03ec 0822     		movs	r2, #8
 790 03ee 4031     		adds	r1, r1, #64
 791 03f0 2046     		mov	r0, r4
 792 03f2 FFF7FEFF 		bl	lv_obj_add_style
 793              	.LVL92:
 794 03f6 17E6     		b	.L1
 795              	.L14:
 326:Drivers/lvgl/src/extra/themes/mono/lv_theme_mono.c ****         lv_obj_add_style(obj, &styles->pad_gap, LV_PART_MAIN);
 796              		.loc 1 326 10 is_stmt 1 view .LVU241
 326:Drivers/lvgl/src/extra/themes/mono/lv_theme_mono.c ****         lv_obj_add_style(obj, &styles->pad_gap, LV_PART_MAIN);
 797              		.loc 1 326 13 is_stmt 0 view .LVU242
 798 03f8 9549     		ldr	r1, .L44+20
 799 03fa 2046     		mov	r0, r4
 800 03fc FFF7FEFF 		bl	lv_obj_check_type
 801              	.LVL93:
 326:Drivers/lvgl/src/extra/themes/mono/lv_theme_mono.c ****         lv_obj_add_style(obj, &styles->pad_gap, LV_PART_MAIN);
 802              		.loc 1 326 12 discriminator 1 view .LVU243
 803 0400 60B3     		cbz	r0, .L15
 327:Drivers/lvgl/src/extra/themes/mono/lv_theme_mono.c ****         lv_obj_add_style(obj, &styles->card, LV_PART_INDICATOR);
 804              		.loc 1 327 9 is_stmt 1 view .LVU244
 327:Drivers/lvgl/src/extra/themes/mono/lv_theme_mono.c ****         lv_obj_add_style(obj, &styles->card, LV_PART_INDICATOR);
 805              		.loc 1 327 38 is_stmt 0 view .LVU245
 806 0402 8F4D     		ldr	r5, .L44+4
 807 0404 2968     		ldr	r1, [r5]
 327:Drivers/lvgl/src/extra/themes/mono/lv_theme_mono.c ****         lv_obj_add_style(obj, &styles->card, LV_PART_INDICATOR);
 808              		.loc 1 327 9 view .LVU246
 809 0406 0022     		movs	r2, #0
 810 0408 4831     		adds	r1, r1, #72
 811 040a 2046     		mov	r0, r4
 812 040c FFF7FEFF 		bl	lv_obj_add_style
 813              	.LVL94:
 328:Drivers/lvgl/src/extra/themes/mono/lv_theme_mono.c ****         lv_obj_add_style(obj, &styles->disabled, LV_PART_INDICATOR | LV_STATE_DISABLED);
 814              		.loc 1 328 9 is_stmt 1 view .LVU247
 328:Drivers/lvgl/src/extra/themes/mono/lv_theme_mono.c ****         lv_obj_add_style(obj, &styles->disabled, LV_PART_INDICATOR | LV_STATE_DISABLED);
 815              		.loc 1 328 38 is_stmt 0 view .LVU248
 816 0410 2968     		ldr	r1, [r5]
 328:Drivers/lvgl/src/extra/themes/mono/lv_theme_mono.c ****         lv_obj_add_style(obj, &styles->disabled, LV_PART_INDICATOR | LV_STATE_DISABLED);
 817              		.loc 1 328 9 view .LVU249
 818 0412 4FF40032 		mov	r2, #131072
 819 0416 0831     		adds	r1, r1, #8
ARM GAS  /var/folders/lp/x54gwt890xv47sdkqj1k04q40000gn/T//cc7THuQy.s 			page 28


 820 0418 2046     		mov	r0, r4
 821 041a FFF7FEFF 		bl	lv_obj_add_style
 822              	.LVL95:
 329:Drivers/lvgl/src/extra/themes/mono/lv_theme_mono.c ****         lv_obj_add_style(obj, &styles->inv, LV_PART_INDICATOR | LV_STATE_CHECKED);
 823              		.loc 1 329 9 is_stmt 1 view .LVU250
 329:Drivers/lvgl/src/extra/themes/mono/lv_theme_mono.c ****         lv_obj_add_style(obj, &styles->inv, LV_PART_INDICATOR | LV_STATE_CHECKED);
 824              		.loc 1 329 38 is_stmt 0 view .LVU251
 825 041e 2968     		ldr	r1, [r5]
 329:Drivers/lvgl/src/extra/themes/mono/lv_theme_mono.c ****         lv_obj_add_style(obj, &styles->inv, LV_PART_INDICATOR | LV_STATE_CHECKED);
 826              		.loc 1 329 9 view .LVU252
 827 0420 8C4A     		ldr	r2, .L44+24
 828 0422 3031     		adds	r1, r1, #48
 829 0424 2046     		mov	r0, r4
 830 0426 FFF7FEFF 		bl	lv_obj_add_style
 831              	.LVL96:
 330:Drivers/lvgl/src/extra/themes/mono/lv_theme_mono.c ****         lv_obj_add_style(obj, &styles->pr, LV_PART_INDICATOR | LV_STATE_PRESSED);
 832              		.loc 1 330 9 is_stmt 1 view .LVU253
 330:Drivers/lvgl/src/extra/themes/mono/lv_theme_mono.c ****         lv_obj_add_style(obj, &styles->pr, LV_PART_INDICATOR | LV_STATE_PRESSED);
 833              		.loc 1 330 38 is_stmt 0 view .LVU254
 834 042a 2968     		ldr	r1, [r5]
 330:Drivers/lvgl/src/extra/themes/mono/lv_theme_mono.c ****         lv_obj_add_style(obj, &styles->pr, LV_PART_INDICATOR | LV_STATE_PRESSED);
 835              		.loc 1 330 9 view .LVU255
 836 042c 8A4A     		ldr	r2, .L44+28
 837 042e 2831     		adds	r1, r1, #40
 838 0430 2046     		mov	r0, r4
 839 0432 FFF7FEFF 		bl	lv_obj_add_style
 840              	.LVL97:
 331:Drivers/lvgl/src/extra/themes/mono/lv_theme_mono.c ****         lv_obj_add_style(obj, &styles->focus, LV_STATE_FOCUS_KEY);
 841              		.loc 1 331 9 is_stmt 1 view .LVU256
 331:Drivers/lvgl/src/extra/themes/mono/lv_theme_mono.c ****         lv_obj_add_style(obj, &styles->focus, LV_STATE_FOCUS_KEY);
 842              		.loc 1 331 38 is_stmt 0 view .LVU257
 843 0436 2968     		ldr	r1, [r5]
 331:Drivers/lvgl/src/extra/themes/mono/lv_theme_mono.c ****         lv_obj_add_style(obj, &styles->focus, LV_STATE_FOCUS_KEY);
 844              		.loc 1 331 9 view .LVU258
 845 0438 884A     		ldr	r2, .L44+32
 846 043a 2031     		adds	r1, r1, #32
 847 043c 2046     		mov	r0, r4
 848 043e FFF7FEFF 		bl	lv_obj_add_style
 849              	.LVL98:
 332:Drivers/lvgl/src/extra/themes/mono/lv_theme_mono.c ****         lv_obj_add_style(obj, &styles->edit, LV_STATE_EDITED);
 850              		.loc 1 332 9 is_stmt 1 view .LVU259
 332:Drivers/lvgl/src/extra/themes/mono/lv_theme_mono.c ****         lv_obj_add_style(obj, &styles->edit, LV_STATE_EDITED);
 851              		.loc 1 332 38 is_stmt 0 view .LVU260
 852 0442 2968     		ldr	r1, [r5]
 332:Drivers/lvgl/src/extra/themes/mono/lv_theme_mono.c ****         lv_obj_add_style(obj, &styles->edit, LV_STATE_EDITED);
 853              		.loc 1 332 9 view .LVU261
 854 0444 0422     		movs	r2, #4
 855 0446 3831     		adds	r1, r1, #56
 856 0448 2046     		mov	r0, r4
 857 044a FFF7FEFF 		bl	lv_obj_add_style
 858              	.LVL99:
 333:Drivers/lvgl/src/extra/themes/mono/lv_theme_mono.c ****     }
 859              		.loc 1 333 9 is_stmt 1 view .LVU262
 333:Drivers/lvgl/src/extra/themes/mono/lv_theme_mono.c ****     }
 860              		.loc 1 333 38 is_stmt 0 view .LVU263
 861 044e 2968     		ldr	r1, [r5]
 333:Drivers/lvgl/src/extra/themes/mono/lv_theme_mono.c ****     }
ARM GAS  /var/folders/lp/x54gwt890xv47sdkqj1k04q40000gn/T//cc7THuQy.s 			page 29


 862              		.loc 1 333 9 view .LVU264
 863 0450 0822     		movs	r2, #8
 864 0452 4031     		adds	r1, r1, #64
 865 0454 2046     		mov	r0, r4
 866 0456 FFF7FEFF 		bl	lv_obj_add_style
 867              	.LVL100:
 868 045a E5E5     		b	.L1
 869              	.L15:
 338:Drivers/lvgl/src/extra/themes/mono/lv_theme_mono.c ****         lv_obj_add_style(obj, &styles->card, 0);
 870              		.loc 1 338 10 is_stmt 1 view .LVU265
 338:Drivers/lvgl/src/extra/themes/mono/lv_theme_mono.c ****         lv_obj_add_style(obj, &styles->card, 0);
 871              		.loc 1 338 13 is_stmt 0 view .LVU266
 872 045c 8049     		ldr	r1, .L44+36
 873 045e 2046     		mov	r0, r4
 874 0460 FFF7FEFF 		bl	lv_obj_check_type
 875              	.LVL101:
 338:Drivers/lvgl/src/extra/themes/mono/lv_theme_mono.c ****         lv_obj_add_style(obj, &styles->card, 0);
 876              		.loc 1 338 12 discriminator 1 view .LVU267
 877 0464 0028     		cmp	r0, #0
 878 0466 42D0     		beq	.L16
 339:Drivers/lvgl/src/extra/themes/mono/lv_theme_mono.c ****         lv_obj_add_style(obj, &styles->radius_circle, 0);
 879              		.loc 1 339 9 is_stmt 1 view .LVU268
 339:Drivers/lvgl/src/extra/themes/mono/lv_theme_mono.c ****         lv_obj_add_style(obj, &styles->radius_circle, 0);
 880              		.loc 1 339 38 is_stmt 0 view .LVU269
 881 0468 754D     		ldr	r5, .L44+4
 882 046a 2968     		ldr	r1, [r5]
 339:Drivers/lvgl/src/extra/themes/mono/lv_theme_mono.c ****         lv_obj_add_style(obj, &styles->radius_circle, 0);
 883              		.loc 1 339 9 view .LVU270
 884 046c 0022     		movs	r2, #0
 885 046e 0831     		adds	r1, r1, #8
 886 0470 2046     		mov	r0, r4
 887 0472 FFF7FEFF 		bl	lv_obj_add_style
 888              	.LVL102:
 340:Drivers/lvgl/src/extra/themes/mono/lv_theme_mono.c ****         lv_obj_add_style(obj, &styles->pad_zero, 0);
 889              		.loc 1 340 9 is_stmt 1 view .LVU271
 340:Drivers/lvgl/src/extra/themes/mono/lv_theme_mono.c ****         lv_obj_add_style(obj, &styles->pad_zero, 0);
 890              		.loc 1 340 38 is_stmt 0 view .LVU272
 891 0476 2968     		ldr	r1, [r5]
 340:Drivers/lvgl/src/extra/themes/mono/lv_theme_mono.c ****         lv_obj_add_style(obj, &styles->pad_zero, 0);
 892              		.loc 1 340 9 view .LVU273
 893 0478 0022     		movs	r2, #0
 894 047a 6031     		adds	r1, r1, #96
 895 047c 2046     		mov	r0, r4
 896 047e FFF7FEFF 		bl	lv_obj_add_style
 897              	.LVL103:
 341:Drivers/lvgl/src/extra/themes/mono/lv_theme_mono.c ****         lv_obj_add_style(obj, &styles->inv, LV_PART_INDICATOR);
 898              		.loc 1 341 9 is_stmt 1 view .LVU274
 341:Drivers/lvgl/src/extra/themes/mono/lv_theme_mono.c ****         lv_obj_add_style(obj, &styles->inv, LV_PART_INDICATOR);
 899              		.loc 1 341 38 is_stmt 0 view .LVU275
 900 0482 2968     		ldr	r1, [r5]
 341:Drivers/lvgl/src/extra/themes/mono/lv_theme_mono.c ****         lv_obj_add_style(obj, &styles->inv, LV_PART_INDICATOR);
 901              		.loc 1 341 9 view .LVU276
 902 0484 0022     		movs	r2, #0
 903 0486 5031     		adds	r1, r1, #80
 904 0488 2046     		mov	r0, r4
 905 048a FFF7FEFF 		bl	lv_obj_add_style
 906              	.LVL104:
ARM GAS  /var/folders/lp/x54gwt890xv47sdkqj1k04q40000gn/T//cc7THuQy.s 			page 30


 342:Drivers/lvgl/src/extra/themes/mono/lv_theme_mono.c ****         lv_obj_add_style(obj, &styles->radius_circle, LV_PART_INDICATOR);
 907              		.loc 1 342 9 is_stmt 1 view .LVU277
 342:Drivers/lvgl/src/extra/themes/mono/lv_theme_mono.c ****         lv_obj_add_style(obj, &styles->radius_circle, LV_PART_INDICATOR);
 908              		.loc 1 342 38 is_stmt 0 view .LVU278
 909 048e 2968     		ldr	r1, [r5]
 342:Drivers/lvgl/src/extra/themes/mono/lv_theme_mono.c ****         lv_obj_add_style(obj, &styles->radius_circle, LV_PART_INDICATOR);
 910              		.loc 1 342 9 view .LVU279
 911 0490 4FF40032 		mov	r2, #131072
 912 0494 2831     		adds	r1, r1, #40
 913 0496 2046     		mov	r0, r4
 914 0498 FFF7FEFF 		bl	lv_obj_add_style
 915              	.LVL105:
 343:Drivers/lvgl/src/extra/themes/mono/lv_theme_mono.c ****         lv_obj_add_style(obj, &styles->card, LV_PART_KNOB);
 916              		.loc 1 343 9 is_stmt 1 view .LVU280
 343:Drivers/lvgl/src/extra/themes/mono/lv_theme_mono.c ****         lv_obj_add_style(obj, &styles->card, LV_PART_KNOB);
 917              		.loc 1 343 38 is_stmt 0 view .LVU281
 918 049c 2968     		ldr	r1, [r5]
 343:Drivers/lvgl/src/extra/themes/mono/lv_theme_mono.c ****         lv_obj_add_style(obj, &styles->card, LV_PART_KNOB);
 919              		.loc 1 343 9 view .LVU282
 920 049e 4FF40032 		mov	r2, #131072
 921 04a2 6031     		adds	r1, r1, #96
 922 04a4 2046     		mov	r0, r4
 923 04a6 FFF7FEFF 		bl	lv_obj_add_style
 924              	.LVL106:
 344:Drivers/lvgl/src/extra/themes/mono/lv_theme_mono.c ****         lv_obj_add_style(obj, &styles->radius_circle, LV_PART_KNOB);
 925              		.loc 1 344 9 is_stmt 1 view .LVU283
 344:Drivers/lvgl/src/extra/themes/mono/lv_theme_mono.c ****         lv_obj_add_style(obj, &styles->radius_circle, LV_PART_KNOB);
 926              		.loc 1 344 38 is_stmt 0 view .LVU284
 927 04aa 2968     		ldr	r1, [r5]
 344:Drivers/lvgl/src/extra/themes/mono/lv_theme_mono.c ****         lv_obj_add_style(obj, &styles->radius_circle, LV_PART_KNOB);
 928              		.loc 1 344 9 view .LVU285
 929 04ac 4FF44032 		mov	r2, #196608
 930 04b0 0831     		adds	r1, r1, #8
 931 04b2 2046     		mov	r0, r4
 932 04b4 FFF7FEFF 		bl	lv_obj_add_style
 933              	.LVL107:
 345:Drivers/lvgl/src/extra/themes/mono/lv_theme_mono.c ****         lv_obj_add_style(obj, &styles->pad_zero, LV_PART_KNOB);
 934              		.loc 1 345 9 is_stmt 1 view .LVU286
 345:Drivers/lvgl/src/extra/themes/mono/lv_theme_mono.c ****         lv_obj_add_style(obj, &styles->pad_zero, LV_PART_KNOB);
 935              		.loc 1 345 38 is_stmt 0 view .LVU287
 936 04b8 2968     		ldr	r1, [r5]
 345:Drivers/lvgl/src/extra/themes/mono/lv_theme_mono.c ****         lv_obj_add_style(obj, &styles->pad_zero, LV_PART_KNOB);
 937              		.loc 1 345 9 view .LVU288
 938 04ba 4FF44032 		mov	r2, #196608
 939 04be 6031     		adds	r1, r1, #96
 940 04c0 2046     		mov	r0, r4
 941 04c2 FFF7FEFF 		bl	lv_obj_add_style
 942              	.LVL108:
 346:Drivers/lvgl/src/extra/themes/mono/lv_theme_mono.c ****         lv_obj_add_style(obj, &styles->focus, LV_STATE_FOCUS_KEY);
 943              		.loc 1 346 9 is_stmt 1 view .LVU289
 346:Drivers/lvgl/src/extra/themes/mono/lv_theme_mono.c ****         lv_obj_add_style(obj, &styles->focus, LV_STATE_FOCUS_KEY);
 944              		.loc 1 346 38 is_stmt 0 view .LVU290
 945 04c6 2968     		ldr	r1, [r5]
 346:Drivers/lvgl/src/extra/themes/mono/lv_theme_mono.c ****         lv_obj_add_style(obj, &styles->focus, LV_STATE_FOCUS_KEY);
 946              		.loc 1 346 9 view .LVU291
 947 04c8 4FF44032 		mov	r2, #196608
 948 04cc 5031     		adds	r1, r1, #80
ARM GAS  /var/folders/lp/x54gwt890xv47sdkqj1k04q40000gn/T//cc7THuQy.s 			page 31


 949 04ce 2046     		mov	r0, r4
 950 04d0 FFF7FEFF 		bl	lv_obj_add_style
 951              	.LVL109:
 347:Drivers/lvgl/src/extra/themes/mono/lv_theme_mono.c ****         lv_obj_add_style(obj, &styles->edit, LV_STATE_EDITED);
 952              		.loc 1 347 9 is_stmt 1 view .LVU292
 347:Drivers/lvgl/src/extra/themes/mono/lv_theme_mono.c ****         lv_obj_add_style(obj, &styles->edit, LV_STATE_EDITED);
 953              		.loc 1 347 38 is_stmt 0 view .LVU293
 954 04d4 2968     		ldr	r1, [r5]
 347:Drivers/lvgl/src/extra/themes/mono/lv_theme_mono.c ****         lv_obj_add_style(obj, &styles->edit, LV_STATE_EDITED);
 955              		.loc 1 347 9 view .LVU294
 956 04d6 0422     		movs	r2, #4
 957 04d8 3831     		adds	r1, r1, #56
 958 04da 2046     		mov	r0, r4
 959 04dc FFF7FEFF 		bl	lv_obj_add_style
 960              	.LVL110:
 348:Drivers/lvgl/src/extra/themes/mono/lv_theme_mono.c ****     }
 961              		.loc 1 348 9 is_stmt 1 view .LVU295
 348:Drivers/lvgl/src/extra/themes/mono/lv_theme_mono.c ****     }
 962              		.loc 1 348 38 is_stmt 0 view .LVU296
 963 04e0 2968     		ldr	r1, [r5]
 348:Drivers/lvgl/src/extra/themes/mono/lv_theme_mono.c ****     }
 964              		.loc 1 348 9 view .LVU297
 965 04e2 0822     		movs	r2, #8
 966 04e4 4031     		adds	r1, r1, #64
 967 04e6 2046     		mov	r0, r4
 968 04e8 FFF7FEFF 		bl	lv_obj_add_style
 969              	.LVL111:
 970 04ec 9CE5     		b	.L1
 971              	.L16:
 353:Drivers/lvgl/src/extra/themes/mono/lv_theme_mono.c ****         lv_obj_add_style(obj, &styles->card, 0);
 972              		.loc 1 353 10 is_stmt 1 view .LVU298
 353:Drivers/lvgl/src/extra/themes/mono/lv_theme_mono.c ****         lv_obj_add_style(obj, &styles->card, 0);
 973              		.loc 1 353 13 is_stmt 0 view .LVU299
 974 04ee 5D49     		ldr	r1, .L44+40
 975 04f0 2046     		mov	r0, r4
 976 04f2 FFF7FEFF 		bl	lv_obj_check_type
 977              	.LVL112:
 353:Drivers/lvgl/src/extra/themes/mono/lv_theme_mono.c ****         lv_obj_add_style(obj, &styles->card, 0);
 978              		.loc 1 353 12 discriminator 1 view .LVU300
 979 04f6 48B3     		cbz	r0, .L17
 354:Drivers/lvgl/src/extra/themes/mono/lv_theme_mono.c ****         lv_obj_add_style(obj, &styles->scrollbar, LV_PART_SCROLLBAR);
 980              		.loc 1 354 9 is_stmt 1 view .LVU301
 354:Drivers/lvgl/src/extra/themes/mono/lv_theme_mono.c ****         lv_obj_add_style(obj, &styles->scrollbar, LV_PART_SCROLLBAR);
 981              		.loc 1 354 38 is_stmt 0 view .LVU302
 982 04f8 514D     		ldr	r5, .L44+4
 983 04fa 2968     		ldr	r1, [r5]
 354:Drivers/lvgl/src/extra/themes/mono/lv_theme_mono.c ****         lv_obj_add_style(obj, &styles->scrollbar, LV_PART_SCROLLBAR);
 984              		.loc 1 354 9 view .LVU303
 985 04fc 0022     		movs	r2, #0
 986 04fe 0831     		adds	r1, r1, #8
 987 0500 2046     		mov	r0, r4
 988 0502 FFF7FEFF 		bl	lv_obj_add_style
 989              	.LVL113:
 355:Drivers/lvgl/src/extra/themes/mono/lv_theme_mono.c ****         lv_obj_add_style(obj, &styles->card, LV_PART_ITEMS);
 990              		.loc 1 355 9 is_stmt 1 view .LVU304
 355:Drivers/lvgl/src/extra/themes/mono/lv_theme_mono.c ****         lv_obj_add_style(obj, &styles->card, LV_PART_ITEMS);
 991              		.loc 1 355 38 is_stmt 0 view .LVU305
ARM GAS  /var/folders/lp/x54gwt890xv47sdkqj1k04q40000gn/T//cc7THuQy.s 			page 32


 992 0506 2968     		ldr	r1, [r5]
 355:Drivers/lvgl/src/extra/themes/mono/lv_theme_mono.c ****         lv_obj_add_style(obj, &styles->card, LV_PART_ITEMS);
 993              		.loc 1 355 9 view .LVU306
 994 0508 4FF48032 		mov	r2, #65536
 995 050c 1031     		adds	r1, r1, #16
 996 050e 2046     		mov	r0, r4
 997 0510 FFF7FEFF 		bl	lv_obj_add_style
 998              	.LVL114:
 356:Drivers/lvgl/src/extra/themes/mono/lv_theme_mono.c ****         lv_obj_add_style(obj, &styles->card, LV_PART_TICKS);
 999              		.loc 1 356 9 is_stmt 1 view .LVU307
 356:Drivers/lvgl/src/extra/themes/mono/lv_theme_mono.c ****         lv_obj_add_style(obj, &styles->card, LV_PART_TICKS);
 1000              		.loc 1 356 38 is_stmt 0 view .LVU308
 1001 0514 2968     		ldr	r1, [r5]
 356:Drivers/lvgl/src/extra/themes/mono/lv_theme_mono.c ****         lv_obj_add_style(obj, &styles->card, LV_PART_TICKS);
 1002              		.loc 1 356 9 view .LVU309
 1003 0516 4FF4A022 		mov	r2, #327680
 1004 051a 0831     		adds	r1, r1, #8
 1005 051c 2046     		mov	r0, r4
 1006 051e FFF7FEFF 		bl	lv_obj_add_style
 1007              	.LVL115:
 357:Drivers/lvgl/src/extra/themes/mono/lv_theme_mono.c ****         lv_obj_add_style(obj, &styles->card, LV_PART_CURSOR);
 1008              		.loc 1 357 9 is_stmt 1 view .LVU310
 357:Drivers/lvgl/src/extra/themes/mono/lv_theme_mono.c ****         lv_obj_add_style(obj, &styles->card, LV_PART_CURSOR);
 1009              		.loc 1 357 38 is_stmt 0 view .LVU311
 1010 0522 2968     		ldr	r1, [r5]
 357:Drivers/lvgl/src/extra/themes/mono/lv_theme_mono.c ****         lv_obj_add_style(obj, &styles->card, LV_PART_CURSOR);
 1011              		.loc 1 357 9 view .LVU312
 1012 0524 4FF4C022 		mov	r2, #393216
 1013 0528 0831     		adds	r1, r1, #8
 1014 052a 2046     		mov	r0, r4
 1015 052c FFF7FEFF 		bl	lv_obj_add_style
 1016              	.LVL116:
 358:Drivers/lvgl/src/extra/themes/mono/lv_theme_mono.c ****         lv_obj_add_style(obj, &styles->focus, LV_STATE_FOCUS_KEY);
 1017              		.loc 1 358 9 is_stmt 1 view .LVU313
 358:Drivers/lvgl/src/extra/themes/mono/lv_theme_mono.c ****         lv_obj_add_style(obj, &styles->focus, LV_STATE_FOCUS_KEY);
 1018              		.loc 1 358 38 is_stmt 0 view .LVU314
 1019 0530 2968     		ldr	r1, [r5]
 358:Drivers/lvgl/src/extra/themes/mono/lv_theme_mono.c ****         lv_obj_add_style(obj, &styles->focus, LV_STATE_FOCUS_KEY);
 1020              		.loc 1 358 9 view .LVU315
 1021 0532 4FF4E022 		mov	r2, #458752
 1022 0536 0831     		adds	r1, r1, #8
 1023 0538 2046     		mov	r0, r4
 1024 053a FFF7FEFF 		bl	lv_obj_add_style
 1025              	.LVL117:
 359:Drivers/lvgl/src/extra/themes/mono/lv_theme_mono.c ****     }
 1026              		.loc 1 359 9 is_stmt 1 view .LVU316
 359:Drivers/lvgl/src/extra/themes/mono/lv_theme_mono.c ****     }
 1027              		.loc 1 359 38 is_stmt 0 view .LVU317
 1028 053e 2968     		ldr	r1, [r5]
 359:Drivers/lvgl/src/extra/themes/mono/lv_theme_mono.c ****     }
 1029              		.loc 1 359 9 view .LVU318
 1030 0540 0422     		movs	r2, #4
 1031 0542 3831     		adds	r1, r1, #56
 1032 0544 2046     		mov	r0, r4
 1033 0546 FFF7FEFF 		bl	lv_obj_add_style
 1034              	.LVL118:
 1035 054a 6DE5     		b	.L1
ARM GAS  /var/folders/lp/x54gwt890xv47sdkqj1k04q40000gn/T//cc7THuQy.s 			page 33


 1036              	.L17:
 364:Drivers/lvgl/src/extra/themes/mono/lv_theme_mono.c ****         lv_obj_add_style(obj, &styles->card, 0);
 1037              		.loc 1 364 10 is_stmt 1 view .LVU319
 364:Drivers/lvgl/src/extra/themes/mono/lv_theme_mono.c ****         lv_obj_add_style(obj, &styles->card, 0);
 1038              		.loc 1 364 13 is_stmt 0 view .LVU320
 1039 054c 4649     		ldr	r1, .L44+44
 1040 054e 2046     		mov	r0, r4
 1041 0550 FFF7FEFF 		bl	lv_obj_check_type
 1042              	.LVL119:
 364:Drivers/lvgl/src/extra/themes/mono/lv_theme_mono.c ****         lv_obj_add_style(obj, &styles->card, 0);
 1043              		.loc 1 364 12 discriminator 1 view .LVU321
 1044 0554 00B3     		cbz	r0, .L18
 365:Drivers/lvgl/src/extra/themes/mono/lv_theme_mono.c ****         lv_obj_add_style(obj, &styles->large_line_space, 0);
 1045              		.loc 1 365 9 is_stmt 1 view .LVU322
 365:Drivers/lvgl/src/extra/themes/mono/lv_theme_mono.c ****         lv_obj_add_style(obj, &styles->large_line_space, 0);
 1046              		.loc 1 365 38 is_stmt 0 view .LVU323
 1047 0556 3A4D     		ldr	r5, .L44+4
 1048 0558 2968     		ldr	r1, [r5]
 365:Drivers/lvgl/src/extra/themes/mono/lv_theme_mono.c ****         lv_obj_add_style(obj, &styles->large_line_space, 0);
 1049              		.loc 1 365 9 view .LVU324
 1050 055a 0022     		movs	r2, #0
 1051 055c 0831     		adds	r1, r1, #8
 1052 055e 2046     		mov	r0, r4
 1053 0560 FFF7FEFF 		bl	lv_obj_add_style
 1054              	.LVL120:
 366:Drivers/lvgl/src/extra/themes/mono/lv_theme_mono.c ****         lv_obj_add_style(obj, &styles->inv, LV_PART_SELECTED);
 1055              		.loc 1 366 9 is_stmt 1 view .LVU325
 366:Drivers/lvgl/src/extra/themes/mono/lv_theme_mono.c ****         lv_obj_add_style(obj, &styles->inv, LV_PART_SELECTED);
 1056              		.loc 1 366 38 is_stmt 0 view .LVU326
 1057 0564 2968     		ldr	r1, [r5]
 366:Drivers/lvgl/src/extra/themes/mono/lv_theme_mono.c ****         lv_obj_add_style(obj, &styles->inv, LV_PART_SELECTED);
 1058              		.loc 1 366 9 view .LVU327
 1059 0566 0022     		movs	r2, #0
 1060 0568 7031     		adds	r1, r1, #112
 1061 056a 2046     		mov	r0, r4
 1062 056c FFF7FEFF 		bl	lv_obj_add_style
 1063              	.LVL121:
 367:Drivers/lvgl/src/extra/themes/mono/lv_theme_mono.c ****         lv_obj_add_style(obj, &styles->focus, LV_STATE_FOCUS_KEY);
 1064              		.loc 1 367 9 is_stmt 1 view .LVU328
 367:Drivers/lvgl/src/extra/themes/mono/lv_theme_mono.c ****         lv_obj_add_style(obj, &styles->focus, LV_STATE_FOCUS_KEY);
 1065              		.loc 1 367 38 is_stmt 0 view .LVU329
 1066 0570 2968     		ldr	r1, [r5]
 367:Drivers/lvgl/src/extra/themes/mono/lv_theme_mono.c ****         lv_obj_add_style(obj, &styles->focus, LV_STATE_FOCUS_KEY);
 1067              		.loc 1 367 9 view .LVU330
 1068 0572 4FF48022 		mov	r2, #262144
 1069 0576 2831     		adds	r1, r1, #40
 1070 0578 2046     		mov	r0, r4
 1071 057a FFF7FEFF 		bl	lv_obj_add_style
 1072              	.LVL122:
 368:Drivers/lvgl/src/extra/themes/mono/lv_theme_mono.c ****         lv_obj_add_style(obj, &styles->edit, LV_STATE_EDITED);
 1073              		.loc 1 368 9 is_stmt 1 view .LVU331
 368:Drivers/lvgl/src/extra/themes/mono/lv_theme_mono.c ****         lv_obj_add_style(obj, &styles->edit, LV_STATE_EDITED);
 1074              		.loc 1 368 38 is_stmt 0 view .LVU332
 1075 057e 2968     		ldr	r1, [r5]
 368:Drivers/lvgl/src/extra/themes/mono/lv_theme_mono.c ****         lv_obj_add_style(obj, &styles->edit, LV_STATE_EDITED);
 1076              		.loc 1 368 9 view .LVU333
 1077 0580 0422     		movs	r2, #4
ARM GAS  /var/folders/lp/x54gwt890xv47sdkqj1k04q40000gn/T//cc7THuQy.s 			page 34


 1078 0582 3831     		adds	r1, r1, #56
 1079 0584 2046     		mov	r0, r4
 1080 0586 FFF7FEFF 		bl	lv_obj_add_style
 1081              	.LVL123:
 369:Drivers/lvgl/src/extra/themes/mono/lv_theme_mono.c ****     }
 1082              		.loc 1 369 9 is_stmt 1 view .LVU334
 369:Drivers/lvgl/src/extra/themes/mono/lv_theme_mono.c ****     }
 1083              		.loc 1 369 38 is_stmt 0 view .LVU335
 1084 058a 2968     		ldr	r1, [r5]
 369:Drivers/lvgl/src/extra/themes/mono/lv_theme_mono.c ****     }
 1085              		.loc 1 369 9 view .LVU336
 1086 058c 0822     		movs	r2, #8
 1087 058e 4031     		adds	r1, r1, #64
 1088 0590 2046     		mov	r0, r4
 1089 0592 FFF7FEFF 		bl	lv_obj_add_style
 1090              	.LVL124:
 1091 0596 47E5     		b	.L1
 1092              	.L18:
 374:Drivers/lvgl/src/extra/themes/mono/lv_theme_mono.c ****         lv_obj_add_style(obj, &styles->card, 0);
 1093              		.loc 1 374 10 is_stmt 1 view .LVU337
 374:Drivers/lvgl/src/extra/themes/mono/lv_theme_mono.c ****         lv_obj_add_style(obj, &styles->card, 0);
 1094              		.loc 1 374 13 is_stmt 0 view .LVU338
 1095 0598 3449     		ldr	r1, .L44+48
 1096 059a 2046     		mov	r0, r4
 1097 059c FFF7FEFF 		bl	lv_obj_check_type
 1098              	.LVL125:
 374:Drivers/lvgl/src/extra/themes/mono/lv_theme_mono.c ****         lv_obj_add_style(obj, &styles->card, 0);
 1099              		.loc 1 374 12 discriminator 1 view .LVU339
 1100 05a0 C8B1     		cbz	r0, .L19
 375:Drivers/lvgl/src/extra/themes/mono/lv_theme_mono.c ****         lv_obj_add_style(obj, &styles->pr, LV_STATE_PRESSED);
 1101              		.loc 1 375 9 is_stmt 1 view .LVU340
 375:Drivers/lvgl/src/extra/themes/mono/lv_theme_mono.c ****         lv_obj_add_style(obj, &styles->pr, LV_STATE_PRESSED);
 1102              		.loc 1 375 38 is_stmt 0 view .LVU341
 1103 05a2 274D     		ldr	r5, .L44+4
 1104 05a4 2968     		ldr	r1, [r5]
 375:Drivers/lvgl/src/extra/themes/mono/lv_theme_mono.c ****         lv_obj_add_style(obj, &styles->pr, LV_STATE_PRESSED);
 1105              		.loc 1 375 9 view .LVU342
 1106 05a6 0022     		movs	r2, #0
 1107 05a8 0831     		adds	r1, r1, #8
 1108 05aa 2046     		mov	r0, r4
 1109 05ac FFF7FEFF 		bl	lv_obj_add_style
 1110              	.LVL126:
 376:Drivers/lvgl/src/extra/themes/mono/lv_theme_mono.c ****         lv_obj_add_style(obj, &styles->focus, LV_STATE_FOCUS_KEY);
 1111              		.loc 1 376 9 is_stmt 1 view .LVU343
 376:Drivers/lvgl/src/extra/themes/mono/lv_theme_mono.c ****         lv_obj_add_style(obj, &styles->focus, LV_STATE_FOCUS_KEY);
 1112              		.loc 1 376 38 is_stmt 0 view .LVU344
 1113 05b0 2968     		ldr	r1, [r5]
 376:Drivers/lvgl/src/extra/themes/mono/lv_theme_mono.c ****         lv_obj_add_style(obj, &styles->focus, LV_STATE_FOCUS_KEY);
 1114              		.loc 1 376 9 view .LVU345
 1115 05b2 2022     		movs	r2, #32
 1116 05b4 1144     		add	r1, r1, r2
 1117 05b6 2046     		mov	r0, r4
 1118 05b8 FFF7FEFF 		bl	lv_obj_add_style
 1119              	.LVL127:
 377:Drivers/lvgl/src/extra/themes/mono/lv_theme_mono.c ****         lv_obj_add_style(obj, &styles->edit, LV_STATE_EDITED);
 1120              		.loc 1 377 9 is_stmt 1 view .LVU346
 377:Drivers/lvgl/src/extra/themes/mono/lv_theme_mono.c ****         lv_obj_add_style(obj, &styles->edit, LV_STATE_EDITED);
ARM GAS  /var/folders/lp/x54gwt890xv47sdkqj1k04q40000gn/T//cc7THuQy.s 			page 35


 1121              		.loc 1 377 38 is_stmt 0 view .LVU347
 1122 05bc 2968     		ldr	r1, [r5]
 377:Drivers/lvgl/src/extra/themes/mono/lv_theme_mono.c ****         lv_obj_add_style(obj, &styles->edit, LV_STATE_EDITED);
 1123              		.loc 1 377 9 view .LVU348
 1124 05be 0422     		movs	r2, #4
 1125 05c0 3831     		adds	r1, r1, #56
 1126 05c2 2046     		mov	r0, r4
 1127 05c4 FFF7FEFF 		bl	lv_obj_add_style
 1128              	.LVL128:
 378:Drivers/lvgl/src/extra/themes/mono/lv_theme_mono.c ****     }
 1129              		.loc 1 378 9 is_stmt 1 view .LVU349
 378:Drivers/lvgl/src/extra/themes/mono/lv_theme_mono.c ****     }
 1130              		.loc 1 378 38 is_stmt 0 view .LVU350
 1131 05c8 2968     		ldr	r1, [r5]
 378:Drivers/lvgl/src/extra/themes/mono/lv_theme_mono.c ****     }
 1132              		.loc 1 378 9 view .LVU351
 1133 05ca 0822     		movs	r2, #8
 1134 05cc 4031     		adds	r1, r1, #64
 1135 05ce 2046     		mov	r0, r4
 1136 05d0 FFF7FEFF 		bl	lv_obj_add_style
 1137              	.LVL129:
 1138 05d4 28E5     		b	.L1
 1139              	.L19:
 380:Drivers/lvgl/src/extra/themes/mono/lv_theme_mono.c ****         lv_obj_add_style(obj, &styles->card, 0);
 1140              		.loc 1 380 10 is_stmt 1 view .LVU352
 380:Drivers/lvgl/src/extra/themes/mono/lv_theme_mono.c ****         lv_obj_add_style(obj, &styles->card, 0);
 1141              		.loc 1 380 13 is_stmt 0 view .LVU353
 1142 05d6 2649     		ldr	r1, .L44+52
 1143 05d8 2046     		mov	r0, r4
 1144 05da FFF7FEFF 		bl	lv_obj_check_type
 1145              	.LVL130:
 380:Drivers/lvgl/src/extra/themes/mono/lv_theme_mono.c ****         lv_obj_add_style(obj, &styles->card, 0);
 1146              		.loc 1 380 12 discriminator 1 view .LVU354
 1147 05de 0028     		cmp	r0, #0
 1148 05e0 4CD0     		beq	.L20
 381:Drivers/lvgl/src/extra/themes/mono/lv_theme_mono.c ****         lv_obj_add_style(obj, &styles->large_line_space, 0);
 1149              		.loc 1 381 9 is_stmt 1 view .LVU355
 381:Drivers/lvgl/src/extra/themes/mono/lv_theme_mono.c ****         lv_obj_add_style(obj, &styles->large_line_space, 0);
 1150              		.loc 1 381 38 is_stmt 0 view .LVU356
 1151 05e2 174D     		ldr	r5, .L44+4
 1152 05e4 2968     		ldr	r1, [r5]
 381:Drivers/lvgl/src/extra/themes/mono/lv_theme_mono.c ****         lv_obj_add_style(obj, &styles->large_line_space, 0);
 1153              		.loc 1 381 9 view .LVU357
 1154 05e6 0022     		movs	r2, #0
 1155 05e8 0831     		adds	r1, r1, #8
 1156 05ea 2046     		mov	r0, r4
 1157 05ec FFF7FEFF 		bl	lv_obj_add_style
 1158              	.LVL131:
 382:Drivers/lvgl/src/extra/themes/mono/lv_theme_mono.c ****         lv_obj_add_style(obj, &styles->scrollbar, LV_PART_SCROLLBAR);
 1159              		.loc 1 382 9 is_stmt 1 view .LVU358
 382:Drivers/lvgl/src/extra/themes/mono/lv_theme_mono.c ****         lv_obj_add_style(obj, &styles->scrollbar, LV_PART_SCROLLBAR);
 1160              		.loc 1 382 38 is_stmt 0 view .LVU359
 1161 05f0 2968     		ldr	r1, [r5]
 382:Drivers/lvgl/src/extra/themes/mono/lv_theme_mono.c ****         lv_obj_add_style(obj, &styles->scrollbar, LV_PART_SCROLLBAR);
 1162              		.loc 1 382 9 view .LVU360
 1163 05f2 0022     		movs	r2, #0
 1164 05f4 7031     		adds	r1, r1, #112
ARM GAS  /var/folders/lp/x54gwt890xv47sdkqj1k04q40000gn/T//cc7THuQy.s 			page 36


 1165 05f6 2046     		mov	r0, r4
 1166 05f8 FFF7FEFF 		bl	lv_obj_add_style
 1167              	.LVL132:
 383:Drivers/lvgl/src/extra/themes/mono/lv_theme_mono.c ****         lv_obj_add_style(obj, &styles->inv, LV_PART_SELECTED | LV_STATE_CHECKED);
 1168              		.loc 1 383 9 is_stmt 1 view .LVU361
 383:Drivers/lvgl/src/extra/themes/mono/lv_theme_mono.c ****         lv_obj_add_style(obj, &styles->inv, LV_PART_SELECTED | LV_STATE_CHECKED);
 1169              		.loc 1 383 38 is_stmt 0 view .LVU362
 1170 05fc 2968     		ldr	r1, [r5]
 383:Drivers/lvgl/src/extra/themes/mono/lv_theme_mono.c ****         lv_obj_add_style(obj, &styles->inv, LV_PART_SELECTED | LV_STATE_CHECKED);
 1171              		.loc 1 383 9 view .LVU363
 1172 05fe 4FF48032 		mov	r2, #65536
 1173 0602 1031     		adds	r1, r1, #16
 1174 0604 2046     		mov	r0, r4
 1175 0606 FFF7FEFF 		bl	lv_obj_add_style
 1176              	.LVL133:
 384:Drivers/lvgl/src/extra/themes/mono/lv_theme_mono.c ****         lv_obj_add_style(obj, &styles->pr, LV_PART_SELECTED | LV_STATE_PRESSED);
 1177              		.loc 1 384 9 is_stmt 1 view .LVU364
 384:Drivers/lvgl/src/extra/themes/mono/lv_theme_mono.c ****         lv_obj_add_style(obj, &styles->pr, LV_PART_SELECTED | LV_STATE_PRESSED);
 1178              		.loc 1 384 38 is_stmt 0 view .LVU365
 1179 060a 2968     		ldr	r1, [r5]
 384:Drivers/lvgl/src/extra/themes/mono/lv_theme_mono.c ****         lv_obj_add_style(obj, &styles->pr, LV_PART_SELECTED | LV_STATE_PRESSED);
 1180              		.loc 1 384 9 view .LVU366
 1181 060c 194A     		ldr	r2, .L44+56
 1182 060e 2831     		adds	r1, r1, #40
 1183 0610 2046     		mov	r0, r4
 1184 0612 FFF7FEFF 		bl	lv_obj_add_style
 1185              	.LVL134:
 385:Drivers/lvgl/src/extra/themes/mono/lv_theme_mono.c ****         lv_obj_add_style(obj, &styles->focus, LV_STATE_FOCUS_KEY);
 1186              		.loc 1 385 9 is_stmt 1 view .LVU367
 385:Drivers/lvgl/src/extra/themes/mono/lv_theme_mono.c ****         lv_obj_add_style(obj, &styles->focus, LV_STATE_FOCUS_KEY);
 1187              		.loc 1 385 38 is_stmt 0 view .LVU368
 1188 0616 2968     		ldr	r1, [r5]
 385:Drivers/lvgl/src/extra/themes/mono/lv_theme_mono.c ****         lv_obj_add_style(obj, &styles->focus, LV_STATE_FOCUS_KEY);
 1189              		.loc 1 385 9 view .LVU369
 1190 0618 174A     		ldr	r2, .L44+60
 1191 061a 2031     		adds	r1, r1, #32
 1192 061c 2046     		mov	r0, r4
 1193 061e FFF7FEFF 		bl	lv_obj_add_style
 1194              	.LVL135:
 386:Drivers/lvgl/src/extra/themes/mono/lv_theme_mono.c ****         lv_obj_add_style(obj, &styles->edit, LV_STATE_EDITED);
 1195              		.loc 1 386 9 is_stmt 1 view .LVU370
 386:Drivers/lvgl/src/extra/themes/mono/lv_theme_mono.c ****         lv_obj_add_style(obj, &styles->edit, LV_STATE_EDITED);
 1196              		.loc 1 386 38 is_stmt 0 view .LVU371
 1197 0622 2968     		ldr	r1, [r5]
 386:Drivers/lvgl/src/extra/themes/mono/lv_theme_mono.c ****         lv_obj_add_style(obj, &styles->edit, LV_STATE_EDITED);
 1198              		.loc 1 386 9 view .LVU372
 1199 0624 0422     		movs	r2, #4
 1200 0626 3831     		adds	r1, r1, #56
 1201 0628 2046     		mov	r0, r4
 1202 062a FFF7FEFF 		bl	lv_obj_add_style
 1203              	.LVL136:
 387:Drivers/lvgl/src/extra/themes/mono/lv_theme_mono.c ****     }
 1204              		.loc 1 387 9 is_stmt 1 view .LVU373
 387:Drivers/lvgl/src/extra/themes/mono/lv_theme_mono.c ****     }
 1205              		.loc 1 387 38 is_stmt 0 view .LVU374
 1206 062e 2968     		ldr	r1, [r5]
 387:Drivers/lvgl/src/extra/themes/mono/lv_theme_mono.c ****     }
ARM GAS  /var/folders/lp/x54gwt890xv47sdkqj1k04q40000gn/T//cc7THuQy.s 			page 37


 1207              		.loc 1 387 9 view .LVU375
 1208 0630 0822     		movs	r2, #8
 1209 0632 4031     		adds	r1, r1, #64
 1210 0634 2046     		mov	r0, r4
 1211 0636 FFF7FEFF 		bl	lv_obj_add_style
 1212              	.LVL137:
 1213 063a F5E4     		b	.L1
 1214              	.L45:
 1215              		.align	2
 1216              	.L44:
 1217 063c 00000000 		.word	lv_slider_class
 1218 0640 00000000 		.word	styles
 1219 0644 00000000 		.word	lv_table_class
 1220 0648 20000500 		.word	327712
 1221 064c 04000500 		.word	327684
 1222 0650 00000000 		.word	lv_checkbox_class
 1223 0654 80000200 		.word	131200
 1224 0658 01000200 		.word	131073
 1225 065c 20000200 		.word	131104
 1226 0660 00000000 		.word	lv_switch_class
 1227 0664 00000000 		.word	lv_chart_class
 1228 0668 00000000 		.word	lv_roller_class
 1229 066c 00000000 		.word	lv_dropdown_class
 1230 0670 00000000 		.word	lv_dropdownlist_class
 1231 0674 01000400 		.word	262145
 1232 0678 20000400 		.word	262176
 1233              	.L20:
 392:Drivers/lvgl/src/extra/themes/mono/lv_theme_mono.c ****         lv_obj_add_style(obj, &styles->card, 0);
 1234              		.loc 1 392 10 is_stmt 1 view .LVU376
 392:Drivers/lvgl/src/extra/themes/mono/lv_theme_mono.c ****         lv_obj_add_style(obj, &styles->card, 0);
 1235              		.loc 1 392 13 is_stmt 0 view .LVU377
 1236 067c B449     		ldr	r1, .L46
 1237 067e 2046     		mov	r0, r4
 1238 0680 FFF7FEFF 		bl	lv_obj_check_type
 1239              	.LVL138:
 392:Drivers/lvgl/src/extra/themes/mono/lv_theme_mono.c ****         lv_obj_add_style(obj, &styles->card, 0);
 1240              		.loc 1 392 12 discriminator 1 view .LVU378
 1241 0684 78B3     		cbz	r0, .L21
 393:Drivers/lvgl/src/extra/themes/mono/lv_theme_mono.c ****         lv_obj_add_style(obj, &styles->inv, LV_PART_INDICATOR);
 1242              		.loc 1 393 9 is_stmt 1 view .LVU379
 393:Drivers/lvgl/src/extra/themes/mono/lv_theme_mono.c ****         lv_obj_add_style(obj, &styles->inv, LV_PART_INDICATOR);
 1243              		.loc 1 393 38 is_stmt 0 view .LVU380
 1244 0686 B34D     		ldr	r5, .L46+4
 1245 0688 2968     		ldr	r1, [r5]
 393:Drivers/lvgl/src/extra/themes/mono/lv_theme_mono.c ****         lv_obj_add_style(obj, &styles->inv, LV_PART_INDICATOR);
 1246              		.loc 1 393 9 view .LVU381
 1247 068a 0022     		movs	r2, #0
 1248 068c 0831     		adds	r1, r1, #8
 1249 068e 2046     		mov	r0, r4
 1250 0690 FFF7FEFF 		bl	lv_obj_add_style
 1251              	.LVL139:
 394:Drivers/lvgl/src/extra/themes/mono/lv_theme_mono.c ****         lv_obj_add_style(obj, &styles->pad_zero, LV_PART_INDICATOR);
 1252              		.loc 1 394 9 is_stmt 1 view .LVU382
 394:Drivers/lvgl/src/extra/themes/mono/lv_theme_mono.c ****         lv_obj_add_style(obj, &styles->pad_zero, LV_PART_INDICATOR);
 1253              		.loc 1 394 38 is_stmt 0 view .LVU383
 1254 0694 2968     		ldr	r1, [r5]
 394:Drivers/lvgl/src/extra/themes/mono/lv_theme_mono.c ****         lv_obj_add_style(obj, &styles->pad_zero, LV_PART_INDICATOR);
ARM GAS  /var/folders/lp/x54gwt890xv47sdkqj1k04q40000gn/T//cc7THuQy.s 			page 38


 1255              		.loc 1 394 9 view .LVU384
 1256 0696 4FF40032 		mov	r2, #131072
 1257 069a 2831     		adds	r1, r1, #40
 1258 069c 2046     		mov	r0, r4
 1259 069e FFF7FEFF 		bl	lv_obj_add_style
 1260              	.LVL140:
 395:Drivers/lvgl/src/extra/themes/mono/lv_theme_mono.c ****         lv_obj_add_style(obj, &styles->card, LV_PART_KNOB);
 1261              		.loc 1 395 9 is_stmt 1 view .LVU385
 395:Drivers/lvgl/src/extra/themes/mono/lv_theme_mono.c ****         lv_obj_add_style(obj, &styles->card, LV_PART_KNOB);
 1262              		.loc 1 395 38 is_stmt 0 view .LVU386
 1263 06a2 2968     		ldr	r1, [r5]
 395:Drivers/lvgl/src/extra/themes/mono/lv_theme_mono.c ****         lv_obj_add_style(obj, &styles->card, LV_PART_KNOB);
 1264              		.loc 1 395 9 view .LVU387
 1265 06a4 4FF40032 		mov	r2, #131072
 1266 06a8 5031     		adds	r1, r1, #80
 1267 06aa 2046     		mov	r0, r4
 1268 06ac FFF7FEFF 		bl	lv_obj_add_style
 1269              	.LVL141:
 396:Drivers/lvgl/src/extra/themes/mono/lv_theme_mono.c ****         lv_obj_add_style(obj, &styles->radius_circle, LV_PART_KNOB);
 1270              		.loc 1 396 9 is_stmt 1 view .LVU388
 396:Drivers/lvgl/src/extra/themes/mono/lv_theme_mono.c ****         lv_obj_add_style(obj, &styles->radius_circle, LV_PART_KNOB);
 1271              		.loc 1 396 38 is_stmt 0 view .LVU389
 1272 06b0 2968     		ldr	r1, [r5]
 396:Drivers/lvgl/src/extra/themes/mono/lv_theme_mono.c ****         lv_obj_add_style(obj, &styles->radius_circle, LV_PART_KNOB);
 1273              		.loc 1 396 9 view .LVU390
 1274 06b2 4FF44032 		mov	r2, #196608
 1275 06b6 0831     		adds	r1, r1, #8
 1276 06b8 2046     		mov	r0, r4
 1277 06ba FFF7FEFF 		bl	lv_obj_add_style
 1278              	.LVL142:
 397:Drivers/lvgl/src/extra/themes/mono/lv_theme_mono.c ****         lv_obj_add_style(obj, &styles->focus, LV_STATE_FOCUS_KEY);
 1279              		.loc 1 397 9 is_stmt 1 view .LVU391
 397:Drivers/lvgl/src/extra/themes/mono/lv_theme_mono.c ****         lv_obj_add_style(obj, &styles->focus, LV_STATE_FOCUS_KEY);
 1280              		.loc 1 397 38 is_stmt 0 view .LVU392
 1281 06be 2968     		ldr	r1, [r5]
 397:Drivers/lvgl/src/extra/themes/mono/lv_theme_mono.c ****         lv_obj_add_style(obj, &styles->focus, LV_STATE_FOCUS_KEY);
 1282              		.loc 1 397 9 view .LVU393
 1283 06c0 4FF44032 		mov	r2, #196608
 1284 06c4 6031     		adds	r1, r1, #96
 1285 06c6 2046     		mov	r0, r4
 1286 06c8 FFF7FEFF 		bl	lv_obj_add_style
 1287              	.LVL143:
 398:Drivers/lvgl/src/extra/themes/mono/lv_theme_mono.c ****         lv_obj_add_style(obj, &styles->edit, LV_STATE_EDITED);
 1288              		.loc 1 398 9 is_stmt 1 view .LVU394
 398:Drivers/lvgl/src/extra/themes/mono/lv_theme_mono.c ****         lv_obj_add_style(obj, &styles->edit, LV_STATE_EDITED);
 1289              		.loc 1 398 38 is_stmt 0 view .LVU395
 1290 06cc 2968     		ldr	r1, [r5]
 398:Drivers/lvgl/src/extra/themes/mono/lv_theme_mono.c ****         lv_obj_add_style(obj, &styles->edit, LV_STATE_EDITED);
 1291              		.loc 1 398 9 view .LVU396
 1292 06ce 0422     		movs	r2, #4
 1293 06d0 3831     		adds	r1, r1, #56
 1294 06d2 2046     		mov	r0, r4
 1295 06d4 FFF7FEFF 		bl	lv_obj_add_style
 1296              	.LVL144:
 399:Drivers/lvgl/src/extra/themes/mono/lv_theme_mono.c ****     }
 1297              		.loc 1 399 9 is_stmt 1 view .LVU397
 399:Drivers/lvgl/src/extra/themes/mono/lv_theme_mono.c ****     }
ARM GAS  /var/folders/lp/x54gwt890xv47sdkqj1k04q40000gn/T//cc7THuQy.s 			page 39


 1298              		.loc 1 399 38 is_stmt 0 view .LVU398
 1299 06d8 2968     		ldr	r1, [r5]
 399:Drivers/lvgl/src/extra/themes/mono/lv_theme_mono.c ****     }
 1300              		.loc 1 399 9 view .LVU399
 1301 06da 0822     		movs	r2, #8
 1302 06dc 4031     		adds	r1, r1, #64
 1303 06de 2046     		mov	r0, r4
 1304 06e0 FFF7FEFF 		bl	lv_obj_add_style
 1305              	.LVL145:
 1306 06e4 A0E4     		b	.L1
 1307              	.L21:
 404:Drivers/lvgl/src/extra/themes/mono/lv_theme_mono.c ****         lv_obj_add_style(obj, &styles->card, 0);
 1308              		.loc 1 404 10 is_stmt 1 view .LVU400
 404:Drivers/lvgl/src/extra/themes/mono/lv_theme_mono.c ****         lv_obj_add_style(obj, &styles->card, 0);
 1309              		.loc 1 404 13 is_stmt 0 view .LVU401
 1310 06e6 9C49     		ldr	r1, .L46+8
 1311 06e8 2046     		mov	r0, r4
 1312 06ea FFF7FEFF 		bl	lv_obj_check_type
 1313              	.LVL146:
 404:Drivers/lvgl/src/extra/themes/mono/lv_theme_mono.c ****         lv_obj_add_style(obj, &styles->card, 0);
 1314              		.loc 1 404 12 discriminator 1 view .LVU402
 1315 06ee 38B1     		cbz	r0, .L22
 405:Drivers/lvgl/src/extra/themes/mono/lv_theme_mono.c ****     }
 1316              		.loc 1 405 9 is_stmt 1 view .LVU403
 405:Drivers/lvgl/src/extra/themes/mono/lv_theme_mono.c ****     }
 1317              		.loc 1 405 38 is_stmt 0 view .LVU404
 1318 06f0 984B     		ldr	r3, .L46+4
 1319 06f2 1968     		ldr	r1, [r3]
 405:Drivers/lvgl/src/extra/themes/mono/lv_theme_mono.c ****     }
 1320              		.loc 1 405 9 view .LVU405
 1321 06f4 0022     		movs	r2, #0
 1322 06f6 0831     		adds	r1, r1, #8
 1323 06f8 2046     		mov	r0, r4
 1324 06fa FFF7FEFF 		bl	lv_obj_add_style
 1325              	.LVL147:
 1326 06fe 93E4     		b	.L1
 1327              	.L22:
 410:Drivers/lvgl/src/extra/themes/mono/lv_theme_mono.c ****         lv_obj_add_style(obj, &styles->card, 0);
 1328              		.loc 1 410 10 is_stmt 1 view .LVU406
 410:Drivers/lvgl/src/extra/themes/mono/lv_theme_mono.c ****         lv_obj_add_style(obj, &styles->card, 0);
 1329              		.loc 1 410 13 is_stmt 0 view .LVU407
 1330 0700 9649     		ldr	r1, .L46+12
 1331 0702 2046     		mov	r0, r4
 1332 0704 FFF7FEFF 		bl	lv_obj_check_type
 1333              	.LVL148:
 410:Drivers/lvgl/src/extra/themes/mono/lv_theme_mono.c ****         lv_obj_add_style(obj, &styles->card, 0);
 1334              		.loc 1 410 12 discriminator 1 view .LVU408
 1335 0708 00B3     		cbz	r0, .L23
 411:Drivers/lvgl/src/extra/themes/mono/lv_theme_mono.c ****         lv_obj_add_style(obj, &styles->scrollbar, LV_PART_SCROLLBAR);
 1336              		.loc 1 411 9 is_stmt 1 view .LVU409
 411:Drivers/lvgl/src/extra/themes/mono/lv_theme_mono.c ****         lv_obj_add_style(obj, &styles->scrollbar, LV_PART_SCROLLBAR);
 1337              		.loc 1 411 38 is_stmt 0 view .LVU410
 1338 070a 924D     		ldr	r5, .L46+4
 1339 070c 2968     		ldr	r1, [r5]
 411:Drivers/lvgl/src/extra/themes/mono/lv_theme_mono.c ****         lv_obj_add_style(obj, &styles->scrollbar, LV_PART_SCROLLBAR);
 1340              		.loc 1 411 9 view .LVU411
 1341 070e 0022     		movs	r2, #0
ARM GAS  /var/folders/lp/x54gwt890xv47sdkqj1k04q40000gn/T//cc7THuQy.s 			page 40


 1342 0710 0831     		adds	r1, r1, #8
 1343 0712 2046     		mov	r0, r4
 1344 0714 FFF7FEFF 		bl	lv_obj_add_style
 1345              	.LVL149:
 412:Drivers/lvgl/src/extra/themes/mono/lv_theme_mono.c ****         lv_obj_add_style(obj, &styles->ta_cursor, LV_PART_CURSOR | LV_STATE_FOCUSED);
 1346              		.loc 1 412 9 is_stmt 1 view .LVU412
 412:Drivers/lvgl/src/extra/themes/mono/lv_theme_mono.c ****         lv_obj_add_style(obj, &styles->ta_cursor, LV_PART_CURSOR | LV_STATE_FOCUSED);
 1347              		.loc 1 412 38 is_stmt 0 view .LVU413
 1348 0718 2968     		ldr	r1, [r5]
 412:Drivers/lvgl/src/extra/themes/mono/lv_theme_mono.c ****         lv_obj_add_style(obj, &styles->ta_cursor, LV_PART_CURSOR | LV_STATE_FOCUSED);
 1349              		.loc 1 412 9 view .LVU414
 1350 071a 4FF48032 		mov	r2, #65536
 1351 071e 1031     		adds	r1, r1, #16
 1352 0720 2046     		mov	r0, r4
 1353 0722 FFF7FEFF 		bl	lv_obj_add_style
 1354              	.LVL150:
 413:Drivers/lvgl/src/extra/themes/mono/lv_theme_mono.c ****         lv_obj_add_style(obj, &styles->focus, LV_STATE_FOCUSED);
 1355              		.loc 1 413 9 is_stmt 1 view .LVU415
 413:Drivers/lvgl/src/extra/themes/mono/lv_theme_mono.c ****         lv_obj_add_style(obj, &styles->focus, LV_STATE_FOCUSED);
 1356              		.loc 1 413 38 is_stmt 0 view .LVU416
 1357 0726 2968     		ldr	r1, [r5]
 413:Drivers/lvgl/src/extra/themes/mono/lv_theme_mono.c ****         lv_obj_add_style(obj, &styles->focus, LV_STATE_FOCUSED);
 1358              		.loc 1 413 9 view .LVU417
 1359 0728 8D4A     		ldr	r2, .L46+16
 1360 072a 8031     		adds	r1, r1, #128
 1361 072c 2046     		mov	r0, r4
 1362 072e FFF7FEFF 		bl	lv_obj_add_style
 1363              	.LVL151:
 414:Drivers/lvgl/src/extra/themes/mono/lv_theme_mono.c ****         lv_obj_add_style(obj, &styles->edit, LV_STATE_EDITED);
 1364              		.loc 1 414 9 is_stmt 1 view .LVU418
 414:Drivers/lvgl/src/extra/themes/mono/lv_theme_mono.c ****         lv_obj_add_style(obj, &styles->edit, LV_STATE_EDITED);
 1365              		.loc 1 414 38 is_stmt 0 view .LVU419
 1366 0732 2968     		ldr	r1, [r5]
 414:Drivers/lvgl/src/extra/themes/mono/lv_theme_mono.c ****         lv_obj_add_style(obj, &styles->edit, LV_STATE_EDITED);
 1367              		.loc 1 414 9 view .LVU420
 1368 0734 0222     		movs	r2, #2
 1369 0736 3831     		adds	r1, r1, #56
 1370 0738 2046     		mov	r0, r4
 1371 073a FFF7FEFF 		bl	lv_obj_add_style
 1372              	.LVL152:
 415:Drivers/lvgl/src/extra/themes/mono/lv_theme_mono.c ****     }
 1373              		.loc 1 415 9 is_stmt 1 view .LVU421
 415:Drivers/lvgl/src/extra/themes/mono/lv_theme_mono.c ****     }
 1374              		.loc 1 415 38 is_stmt 0 view .LVU422
 1375 073e 2968     		ldr	r1, [r5]
 415:Drivers/lvgl/src/extra/themes/mono/lv_theme_mono.c ****     }
 1376              		.loc 1 415 9 view .LVU423
 1377 0740 0822     		movs	r2, #8
 1378 0742 4031     		adds	r1, r1, #64
 1379 0744 2046     		mov	r0, r4
 1380 0746 FFF7FEFF 		bl	lv_obj_add_style
 1381              	.LVL153:
 1382 074a 6DE4     		b	.L1
 1383              	.L23:
 420:Drivers/lvgl/src/extra/themes/mono/lv_theme_mono.c ****         lv_obj_add_style(obj, &styles->card, 0);
 1384              		.loc 1 420 10 is_stmt 1 view .LVU424
 420:Drivers/lvgl/src/extra/themes/mono/lv_theme_mono.c ****         lv_obj_add_style(obj, &styles->card, 0);
ARM GAS  /var/folders/lp/x54gwt890xv47sdkqj1k04q40000gn/T//cc7THuQy.s 			page 41


 1385              		.loc 1 420 13 is_stmt 0 view .LVU425
 1386 074c 8549     		ldr	r1, .L46+20
 1387 074e 2046     		mov	r0, r4
 1388 0750 FFF7FEFF 		bl	lv_obj_check_type
 1389              	.LVL154:
 420:Drivers/lvgl/src/extra/themes/mono/lv_theme_mono.c ****         lv_obj_add_style(obj, &styles->card, 0);
 1390              		.loc 1 420 12 discriminator 1 view .LVU426
 1391 0754 58B3     		cbz	r0, .L24
 421:Drivers/lvgl/src/extra/themes/mono/lv_theme_mono.c ****         lv_obj_add_style(obj, &styles->no_radius, 0);
 1392              		.loc 1 421 9 is_stmt 1 view .LVU427
 421:Drivers/lvgl/src/extra/themes/mono/lv_theme_mono.c ****         lv_obj_add_style(obj, &styles->no_radius, 0);
 1393              		.loc 1 421 38 is_stmt 0 view .LVU428
 1394 0756 7F4D     		ldr	r5, .L46+4
 1395 0758 2968     		ldr	r1, [r5]
 421:Drivers/lvgl/src/extra/themes/mono/lv_theme_mono.c ****         lv_obj_add_style(obj, &styles->no_radius, 0);
 1396              		.loc 1 421 9 view .LVU429
 1397 075a 0022     		movs	r2, #0
 1398 075c 0831     		adds	r1, r1, #8
 1399 075e 2046     		mov	r0, r4
 1400 0760 FFF7FEFF 		bl	lv_obj_add_style
 1401              	.LVL155:
 422:Drivers/lvgl/src/extra/themes/mono/lv_theme_mono.c ****         lv_obj_add_style(obj, &styles->pr, LV_PART_ITEMS | LV_STATE_PRESSED);
 1402              		.loc 1 422 9 is_stmt 1 view .LVU430
 422:Drivers/lvgl/src/extra/themes/mono/lv_theme_mono.c ****         lv_obj_add_style(obj, &styles->pr, LV_PART_ITEMS | LV_STATE_PRESSED);
 1403              		.loc 1 422 38 is_stmt 0 view .LVU431
 1404 0764 2968     		ldr	r1, [r5]
 422:Drivers/lvgl/src/extra/themes/mono/lv_theme_mono.c ****         lv_obj_add_style(obj, &styles->pr, LV_PART_ITEMS | LV_STATE_PRESSED);
 1405              		.loc 1 422 9 view .LVU432
 1406 0766 0022     		movs	r2, #0
 1407 0768 5831     		adds	r1, r1, #88
 1408 076a 2046     		mov	r0, r4
 1409 076c FFF7FEFF 		bl	lv_obj_add_style
 1410              	.LVL156:
 423:Drivers/lvgl/src/extra/themes/mono/lv_theme_mono.c ****         lv_obj_add_style(obj, &styles->disabled, LV_PART_ITEMS | LV_STATE_DISABLED);
 1411              		.loc 1 423 9 is_stmt 1 view .LVU433
 423:Drivers/lvgl/src/extra/themes/mono/lv_theme_mono.c ****         lv_obj_add_style(obj, &styles->disabled, LV_PART_ITEMS | LV_STATE_DISABLED);
 1412              		.loc 1 423 38 is_stmt 0 view .LVU434
 1413 0770 2968     		ldr	r1, [r5]
 423:Drivers/lvgl/src/extra/themes/mono/lv_theme_mono.c ****         lv_obj_add_style(obj, &styles->disabled, LV_PART_ITEMS | LV_STATE_DISABLED);
 1414              		.loc 1 423 9 view .LVU435
 1415 0772 7D4A     		ldr	r2, .L46+24
 1416 0774 2031     		adds	r1, r1, #32
 1417 0776 2046     		mov	r0, r4
 1418 0778 FFF7FEFF 		bl	lv_obj_add_style
 1419              	.LVL157:
 424:Drivers/lvgl/src/extra/themes/mono/lv_theme_mono.c ****         lv_obj_add_style(obj, &styles->focus, LV_STATE_FOCUS_KEY);
 1420              		.loc 1 424 9 is_stmt 1 view .LVU436
 424:Drivers/lvgl/src/extra/themes/mono/lv_theme_mono.c ****         lv_obj_add_style(obj, &styles->focus, LV_STATE_FOCUS_KEY);
 1421              		.loc 1 424 38 is_stmt 0 view .LVU437
 1422 077c 2968     		ldr	r1, [r5]
 424:Drivers/lvgl/src/extra/themes/mono/lv_theme_mono.c ****         lv_obj_add_style(obj, &styles->focus, LV_STATE_FOCUS_KEY);
 1423              		.loc 1 424 9 view .LVU438
 1424 077e 7B4A     		ldr	r2, .L46+28
 1425 0780 3031     		adds	r1, r1, #48
 1426 0782 2046     		mov	r0, r4
 1427 0784 FFF7FEFF 		bl	lv_obj_add_style
 1428              	.LVL158:
ARM GAS  /var/folders/lp/x54gwt890xv47sdkqj1k04q40000gn/T//cc7THuQy.s 			page 42


 425:Drivers/lvgl/src/extra/themes/mono/lv_theme_mono.c ****         lv_obj_add_style(obj, &styles->edit, LV_STATE_EDITED);
 1429              		.loc 1 425 9 is_stmt 1 view .LVU439
 425:Drivers/lvgl/src/extra/themes/mono/lv_theme_mono.c ****         lv_obj_add_style(obj, &styles->edit, LV_STATE_EDITED);
 1430              		.loc 1 425 38 is_stmt 0 view .LVU440
 1431 0788 2968     		ldr	r1, [r5]
 425:Drivers/lvgl/src/extra/themes/mono/lv_theme_mono.c ****         lv_obj_add_style(obj, &styles->edit, LV_STATE_EDITED);
 1432              		.loc 1 425 9 view .LVU441
 1433 078a 0422     		movs	r2, #4
 1434 078c 3831     		adds	r1, r1, #56
 1435 078e 2046     		mov	r0, r4
 1436 0790 FFF7FEFF 		bl	lv_obj_add_style
 1437              	.LVL159:
 426:Drivers/lvgl/src/extra/themes/mono/lv_theme_mono.c ****         lv_obj_add_style(obj, &styles->large_border, LV_PART_ITEMS | LV_STATE_FOCUS_KEY);
 1438              		.loc 1 426 9 is_stmt 1 view .LVU442
 426:Drivers/lvgl/src/extra/themes/mono/lv_theme_mono.c ****         lv_obj_add_style(obj, &styles->large_border, LV_PART_ITEMS | LV_STATE_FOCUS_KEY);
 1439              		.loc 1 426 38 is_stmt 0 view .LVU443
 1440 0794 2968     		ldr	r1, [r5]
 426:Drivers/lvgl/src/extra/themes/mono/lv_theme_mono.c ****         lv_obj_add_style(obj, &styles->large_border, LV_PART_ITEMS | LV_STATE_FOCUS_KEY);
 1441              		.loc 1 426 9 view .LVU444
 1442 0796 0822     		movs	r2, #8
 1443 0798 4031     		adds	r1, r1, #64
 1444 079a 2046     		mov	r0, r4
 1445 079c FFF7FEFF 		bl	lv_obj_add_style
 1446              	.LVL160:
 427:Drivers/lvgl/src/extra/themes/mono/lv_theme_mono.c ****     }
 1447              		.loc 1 427 9 is_stmt 1 view .LVU445
 427:Drivers/lvgl/src/extra/themes/mono/lv_theme_mono.c ****     }
 1448              		.loc 1 427 38 is_stmt 0 view .LVU446
 1449 07a0 2968     		ldr	r1, [r5]
 427:Drivers/lvgl/src/extra/themes/mono/lv_theme_mono.c ****     }
 1450              		.loc 1 427 9 view .LVU447
 1451 07a2 734A     		ldr	r2, .L46+32
 1452 07a4 6831     		adds	r1, r1, #104
 1453 07a6 2046     		mov	r0, r4
 1454 07a8 FFF7FEFF 		bl	lv_obj_add_style
 1455              	.LVL161:
 1456 07ac 3CE4     		b	.L1
 1457              	.L24:
 432:Drivers/lvgl/src/extra/themes/mono/lv_theme_mono.c ****         lv_obj_add_style(obj, &styles->card, 0);
 1458              		.loc 1 432 10 is_stmt 1 view .LVU448
 432:Drivers/lvgl/src/extra/themes/mono/lv_theme_mono.c ****         lv_obj_add_style(obj, &styles->card, 0);
 1459              		.loc 1 432 13 is_stmt 0 view .LVU449
 1460 07ae 7149     		ldr	r1, .L46+36
 1461 07b0 2046     		mov	r0, r4
 1462 07b2 FFF7FEFF 		bl	lv_obj_check_type
 1463              	.LVL162:
 432:Drivers/lvgl/src/extra/themes/mono/lv_theme_mono.c ****         lv_obj_add_style(obj, &styles->card, 0);
 1464              		.loc 1 432 12 discriminator 1 view .LVU450
 1465 07b6 60B3     		cbz	r0, .L25
 433:Drivers/lvgl/src/extra/themes/mono/lv_theme_mono.c ****         lv_obj_add_style(obj, &styles->card, LV_PART_ITEMS);
 1466              		.loc 1 433 9 is_stmt 1 view .LVU451
 433:Drivers/lvgl/src/extra/themes/mono/lv_theme_mono.c ****         lv_obj_add_style(obj, &styles->card, LV_PART_ITEMS);
 1467              		.loc 1 433 38 is_stmt 0 view .LVU452
 1468 07b8 664D     		ldr	r5, .L46+4
 1469 07ba 2968     		ldr	r1, [r5]
 433:Drivers/lvgl/src/extra/themes/mono/lv_theme_mono.c ****         lv_obj_add_style(obj, &styles->card, LV_PART_ITEMS);
 1470              		.loc 1 433 9 view .LVU453
ARM GAS  /var/folders/lp/x54gwt890xv47sdkqj1k04q40000gn/T//cc7THuQy.s 			page 43


 1471 07bc 0022     		movs	r2, #0
 1472 07be 0831     		adds	r1, r1, #8
 1473 07c0 2046     		mov	r0, r4
 1474 07c2 FFF7FEFF 		bl	lv_obj_add_style
 1475              	.LVL163:
 434:Drivers/lvgl/src/extra/themes/mono/lv_theme_mono.c ****         lv_obj_add_style(obj, &styles->pr, LV_PART_ITEMS | LV_STATE_PRESSED);
 1476              		.loc 1 434 9 is_stmt 1 view .LVU454
 434:Drivers/lvgl/src/extra/themes/mono/lv_theme_mono.c ****         lv_obj_add_style(obj, &styles->pr, LV_PART_ITEMS | LV_STATE_PRESSED);
 1477              		.loc 1 434 38 is_stmt 0 view .LVU455
 1478 07c6 2968     		ldr	r1, [r5]
 434:Drivers/lvgl/src/extra/themes/mono/lv_theme_mono.c ****         lv_obj_add_style(obj, &styles->pr, LV_PART_ITEMS | LV_STATE_PRESSED);
 1479              		.loc 1 434 9 view .LVU456
 1480 07c8 4FF4A022 		mov	r2, #327680
 1481 07cc 0831     		adds	r1, r1, #8
 1482 07ce 2046     		mov	r0, r4
 1483 07d0 FFF7FEFF 		bl	lv_obj_add_style
 1484              	.LVL164:
 435:Drivers/lvgl/src/extra/themes/mono/lv_theme_mono.c ****         lv_obj_add_style(obj, &styles->inv, LV_PART_ITEMS | LV_STATE_CHECKED);
 1485              		.loc 1 435 9 is_stmt 1 view .LVU457
 435:Drivers/lvgl/src/extra/themes/mono/lv_theme_mono.c ****         lv_obj_add_style(obj, &styles->inv, LV_PART_ITEMS | LV_STATE_CHECKED);
 1486              		.loc 1 435 38 is_stmt 0 view .LVU458
 1487 07d4 2968     		ldr	r1, [r5]
 435:Drivers/lvgl/src/extra/themes/mono/lv_theme_mono.c ****         lv_obj_add_style(obj, &styles->inv, LV_PART_ITEMS | LV_STATE_CHECKED);
 1488              		.loc 1 435 9 view .LVU459
 1489 07d6 644A     		ldr	r2, .L46+24
 1490 07d8 2031     		adds	r1, r1, #32
 1491 07da 2046     		mov	r0, r4
 1492 07dc FFF7FEFF 		bl	lv_obj_add_style
 1493              	.LVL165:
 436:Drivers/lvgl/src/extra/themes/mono/lv_theme_mono.c ****         lv_obj_add_style(obj, &styles->focus, LV_STATE_FOCUS_KEY);
 1494              		.loc 1 436 9 is_stmt 1 view .LVU460
 436:Drivers/lvgl/src/extra/themes/mono/lv_theme_mono.c ****         lv_obj_add_style(obj, &styles->focus, LV_STATE_FOCUS_KEY);
 1495              		.loc 1 436 38 is_stmt 0 view .LVU461
 1496 07e0 2968     		ldr	r1, [r5]
 436:Drivers/lvgl/src/extra/themes/mono/lv_theme_mono.c ****         lv_obj_add_style(obj, &styles->focus, LV_STATE_FOCUS_KEY);
 1497              		.loc 1 436 9 view .LVU462
 1498 07e2 654A     		ldr	r2, .L46+40
 1499 07e4 2831     		adds	r1, r1, #40
 1500 07e6 2046     		mov	r0, r4
 1501 07e8 FFF7FEFF 		bl	lv_obj_add_style
 1502              	.LVL166:
 437:Drivers/lvgl/src/extra/themes/mono/lv_theme_mono.c ****         lv_obj_add_style(obj, &styles->edit, LV_STATE_EDITED);
 1503              		.loc 1 437 9 is_stmt 1 view .LVU463
 437:Drivers/lvgl/src/extra/themes/mono/lv_theme_mono.c ****         lv_obj_add_style(obj, &styles->edit, LV_STATE_EDITED);
 1504              		.loc 1 437 38 is_stmt 0 view .LVU464
 1505 07ec 2968     		ldr	r1, [r5]
 437:Drivers/lvgl/src/extra/themes/mono/lv_theme_mono.c ****         lv_obj_add_style(obj, &styles->edit, LV_STATE_EDITED);
 1506              		.loc 1 437 9 view .LVU465
 1507 07ee 0422     		movs	r2, #4
 1508 07f0 3831     		adds	r1, r1, #56
 1509 07f2 2046     		mov	r0, r4
 1510 07f4 FFF7FEFF 		bl	lv_obj_add_style
 1511              	.LVL167:
 438:Drivers/lvgl/src/extra/themes/mono/lv_theme_mono.c ****         lv_obj_add_style(obj, &styles->large_border, LV_PART_ITEMS | LV_STATE_EDITED);
 1512              		.loc 1 438 9 is_stmt 1 view .LVU466
 438:Drivers/lvgl/src/extra/themes/mono/lv_theme_mono.c ****         lv_obj_add_style(obj, &styles->large_border, LV_PART_ITEMS | LV_STATE_EDITED);
 1513              		.loc 1 438 38 is_stmt 0 view .LVU467
ARM GAS  /var/folders/lp/x54gwt890xv47sdkqj1k04q40000gn/T//cc7THuQy.s 			page 44


 1514 07f8 2968     		ldr	r1, [r5]
 438:Drivers/lvgl/src/extra/themes/mono/lv_theme_mono.c ****         lv_obj_add_style(obj, &styles->large_border, LV_PART_ITEMS | LV_STATE_EDITED);
 1515              		.loc 1 438 9 view .LVU468
 1516 07fa 0822     		movs	r2, #8
 1517 07fc 4031     		adds	r1, r1, #64
 1518 07fe 2046     		mov	r0, r4
 1519 0800 FFF7FEFF 		bl	lv_obj_add_style
 1520              	.LVL168:
 439:Drivers/lvgl/src/extra/themes/mono/lv_theme_mono.c ****     }
 1521              		.loc 1 439 9 is_stmt 1 view .LVU469
 439:Drivers/lvgl/src/extra/themes/mono/lv_theme_mono.c ****     }
 1522              		.loc 1 439 38 is_stmt 0 view .LVU470
 1523 0804 2968     		ldr	r1, [r5]
 439:Drivers/lvgl/src/extra/themes/mono/lv_theme_mono.c ****     }
 1524              		.loc 1 439 9 view .LVU471
 1525 0806 5D4A     		ldr	r2, .L46+44
 1526 0808 6831     		adds	r1, r1, #104
 1527 080a 2046     		mov	r0, r4
 1528 080c FFF7FEFF 		bl	lv_obj_add_style
 1529              	.LVL169:
 1530 0810 0AE4     		b	.L1
 1531              	.L25:
 443:Drivers/lvgl/src/extra/themes/mono/lv_theme_mono.c ****         lv_obj_add_style(obj, &styles->card, 0);
 1532              		.loc 1 443 10 is_stmt 1 view .LVU472
 443:Drivers/lvgl/src/extra/themes/mono/lv_theme_mono.c ****         lv_obj_add_style(obj, &styles->card, 0);
 1533              		.loc 1 443 13 is_stmt 0 view .LVU473
 1534 0812 5B49     		ldr	r1, .L46+48
 1535 0814 2046     		mov	r0, r4
 1536 0816 FFF7FEFF 		bl	lv_obj_check_type
 1537              	.LVL170:
 443:Drivers/lvgl/src/extra/themes/mono/lv_theme_mono.c ****         lv_obj_add_style(obj, &styles->card, 0);
 1538              		.loc 1 443 12 discriminator 1 view .LVU474
 1539 081a 30BB     		cbnz	r0, .L40
 448:Drivers/lvgl/src/extra/themes/mono/lv_theme_mono.c **** 
 1540              		.loc 1 448 10 is_stmt 1 view .LVU475
 448:Drivers/lvgl/src/extra/themes/mono/lv_theme_mono.c **** 
 1541              		.loc 1 448 13 is_stmt 0 view .LVU476
 1542 081c 5949     		ldr	r1, .L46+52
 1543 081e 2046     		mov	r0, r4
 1544 0820 FFF7FEFF 		bl	lv_obj_check_type
 1545              	.LVL171:
 448:Drivers/lvgl/src/extra/themes/mono/lv_theme_mono.c **** 
 1546              		.loc 1 448 12 discriminator 1 view .LVU477
 1547 0824 0028     		cmp	r0, #0
 1548 0826 7FF4FFAB 		bne	.L1
 451:Drivers/lvgl/src/extra/themes/mono/lv_theme_mono.c ****         lv_obj_add_style(obj, &styles->card, 0);
 1549              		.loc 1 451 10 is_stmt 1 view .LVU478
 451:Drivers/lvgl/src/extra/themes/mono/lv_theme_mono.c ****         lv_obj_add_style(obj, &styles->card, 0);
 1550              		.loc 1 451 13 is_stmt 0 view .LVU479
 1551 082a 5749     		ldr	r1, .L46+56
 1552 082c 2046     		mov	r0, r4
 1553 082e FFF7FEFF 		bl	lv_obj_check_type
 1554              	.LVL172:
 451:Drivers/lvgl/src/extra/themes/mono/lv_theme_mono.c ****         lv_obj_add_style(obj, &styles->card, 0);
 1555              		.loc 1 451 12 discriminator 1 view .LVU480
 1556 0832 50B3     		cbz	r0, .L27
 452:Drivers/lvgl/src/extra/themes/mono/lv_theme_mono.c ****         lv_obj_add_style(obj, &styles->pr, LV_STATE_PRESSED);
ARM GAS  /var/folders/lp/x54gwt890xv47sdkqj1k04q40000gn/T//cc7THuQy.s 			page 45


 1557              		.loc 1 452 9 is_stmt 1 view .LVU481
 452:Drivers/lvgl/src/extra/themes/mono/lv_theme_mono.c ****         lv_obj_add_style(obj, &styles->pr, LV_STATE_PRESSED);
 1558              		.loc 1 452 38 is_stmt 0 view .LVU482
 1559 0834 474D     		ldr	r5, .L46+4
 1560 0836 2968     		ldr	r1, [r5]
 452:Drivers/lvgl/src/extra/themes/mono/lv_theme_mono.c ****         lv_obj_add_style(obj, &styles->pr, LV_STATE_PRESSED);
 1561              		.loc 1 452 9 view .LVU483
 1562 0838 0022     		movs	r2, #0
 1563 083a 0831     		adds	r1, r1, #8
 1564 083c 2046     		mov	r0, r4
 1565 083e FFF7FEFF 		bl	lv_obj_add_style
 1566              	.LVL173:
 453:Drivers/lvgl/src/extra/themes/mono/lv_theme_mono.c ****         lv_obj_add_style(obj, &styles->focus, LV_STATE_FOCUS_KEY);
 1567              		.loc 1 453 9 is_stmt 1 view .LVU484
 453:Drivers/lvgl/src/extra/themes/mono/lv_theme_mono.c ****         lv_obj_add_style(obj, &styles->focus, LV_STATE_FOCUS_KEY);
 1568              		.loc 1 453 38 is_stmt 0 view .LVU485
 1569 0842 2968     		ldr	r1, [r5]
 453:Drivers/lvgl/src/extra/themes/mono/lv_theme_mono.c ****         lv_obj_add_style(obj, &styles->focus, LV_STATE_FOCUS_KEY);
 1570              		.loc 1 453 9 view .LVU486
 1571 0844 2022     		movs	r2, #32
 1572 0846 1144     		add	r1, r1, r2
 1573 0848 2046     		mov	r0, r4
 1574 084a FFF7FEFF 		bl	lv_obj_add_style
 1575              	.LVL174:
 454:Drivers/lvgl/src/extra/themes/mono/lv_theme_mono.c ****         lv_obj_add_style(obj, &styles->large_border, LV_STATE_EDITED);
 1576              		.loc 1 454 9 is_stmt 1 view .LVU487
 454:Drivers/lvgl/src/extra/themes/mono/lv_theme_mono.c ****         lv_obj_add_style(obj, &styles->large_border, LV_STATE_EDITED);
 1577              		.loc 1 454 38 is_stmt 0 view .LVU488
 1578 084e 2968     		ldr	r1, [r5]
 454:Drivers/lvgl/src/extra/themes/mono/lv_theme_mono.c ****         lv_obj_add_style(obj, &styles->large_border, LV_STATE_EDITED);
 1579              		.loc 1 454 9 view .LVU489
 1580 0850 0422     		movs	r2, #4
 1581 0852 3831     		adds	r1, r1, #56
 1582 0854 2046     		mov	r0, r4
 1583 0856 FFF7FEFF 		bl	lv_obj_add_style
 1584              	.LVL175:
 455:Drivers/lvgl/src/extra/themes/mono/lv_theme_mono.c **** 
 1585              		.loc 1 455 9 is_stmt 1 view .LVU490
 455:Drivers/lvgl/src/extra/themes/mono/lv_theme_mono.c **** 
 1586              		.loc 1 455 38 is_stmt 0 view .LVU491
 1587 085a 2968     		ldr	r1, [r5]
 455:Drivers/lvgl/src/extra/themes/mono/lv_theme_mono.c **** 
 1588              		.loc 1 455 9 view .LVU492
 1589 085c 0822     		movs	r2, #8
 1590 085e 6831     		adds	r1, r1, #104
 1591 0860 2046     		mov	r0, r4
 1592 0862 FFF7FEFF 		bl	lv_obj_add_style
 1593              	.LVL176:
 1594 0866 FFF7DFBB 		b	.L1
 1595              	.L40:
 444:Drivers/lvgl/src/extra/themes/mono/lv_theme_mono.c ****         lv_obj_add_style(obj, &styles->scrollbar, LV_PART_SCROLLBAR);
 1596              		.loc 1 444 9 is_stmt 1 view .LVU493
 444:Drivers/lvgl/src/extra/themes/mono/lv_theme_mono.c ****         lv_obj_add_style(obj, &styles->scrollbar, LV_PART_SCROLLBAR);
 1597              		.loc 1 444 38 is_stmt 0 view .LVU494
 1598 086a 3A4D     		ldr	r5, .L46+4
 1599 086c 2968     		ldr	r1, [r5]
 444:Drivers/lvgl/src/extra/themes/mono/lv_theme_mono.c ****         lv_obj_add_style(obj, &styles->scrollbar, LV_PART_SCROLLBAR);
ARM GAS  /var/folders/lp/x54gwt890xv47sdkqj1k04q40000gn/T//cc7THuQy.s 			page 46


 1600              		.loc 1 444 9 view .LVU495
 1601 086e 0022     		movs	r2, #0
 1602 0870 0831     		adds	r1, r1, #8
 1603 0872 2046     		mov	r0, r4
 1604 0874 FFF7FEFF 		bl	lv_obj_add_style
 1605              	.LVL177:
 445:Drivers/lvgl/src/extra/themes/mono/lv_theme_mono.c ****         return;
 1606              		.loc 1 445 9 is_stmt 1 view .LVU496
 445:Drivers/lvgl/src/extra/themes/mono/lv_theme_mono.c ****         return;
 1607              		.loc 1 445 38 is_stmt 0 view .LVU497
 1608 0878 2968     		ldr	r1, [r5]
 445:Drivers/lvgl/src/extra/themes/mono/lv_theme_mono.c ****         return;
 1609              		.loc 1 445 9 view .LVU498
 1610 087a 4FF48032 		mov	r2, #65536
 1611 087e 1031     		adds	r1, r1, #16
 1612 0880 2046     		mov	r0, r4
 1613 0882 FFF7FEFF 		bl	lv_obj_add_style
 1614              	.LVL178:
 446:Drivers/lvgl/src/extra/themes/mono/lv_theme_mono.c ****     }
 1615              		.loc 1 446 9 is_stmt 1 view .LVU499
 1616 0886 FFF7CFBB 		b	.L1
 1617              	.L27:
 460:Drivers/lvgl/src/extra/themes/mono/lv_theme_mono.c ****         lv_obj_add_style(obj, &styles->card, 0);
 1618              		.loc 1 460 10 view .LVU500
 460:Drivers/lvgl/src/extra/themes/mono/lv_theme_mono.c ****         lv_obj_add_style(obj, &styles->card, 0);
 1619              		.loc 1 460 13 is_stmt 0 view .LVU501
 1620 088a 4049     		ldr	r1, .L46+60
 1621 088c 2046     		mov	r0, r4
 1622 088e FFF7FEFF 		bl	lv_obj_check_type
 1623              	.LVL179:
 460:Drivers/lvgl/src/extra/themes/mono/lv_theme_mono.c ****         lv_obj_add_style(obj, &styles->card, 0);
 1624              		.loc 1 460 12 discriminator 1 view .LVU502
 1625 0892 00BB     		cbnz	r0, .L41
 466:Drivers/lvgl/src/extra/themes/mono/lv_theme_mono.c ****         lv_obj_add_style(obj, &styles->card, 0);
 1626              		.loc 1 466 10 is_stmt 1 view .LVU503
 466:Drivers/lvgl/src/extra/themes/mono/lv_theme_mono.c ****         lv_obj_add_style(obj, &styles->card, 0);
 1627              		.loc 1 466 13 is_stmt 0 view .LVU504
 1628 0894 3E49     		ldr	r1, .L46+64
 1629 0896 2046     		mov	r0, r4
 1630 0898 FFF7FEFF 		bl	lv_obj_check_type
 1631              	.LVL180:
 466:Drivers/lvgl/src/extra/themes/mono/lv_theme_mono.c ****         lv_obj_add_style(obj, &styles->card, 0);
 1632              		.loc 1 466 12 discriminator 1 view .LVU505
 1633 089c 20B3     		cbz	r0, .L29
 467:Drivers/lvgl/src/extra/themes/mono/lv_theme_mono.c ****         lv_obj_add_style(obj, &styles->inv, LV_PART_CURSOR);
 1634              		.loc 1 467 9 is_stmt 1 view .LVU506
 467:Drivers/lvgl/src/extra/themes/mono/lv_theme_mono.c ****         lv_obj_add_style(obj, &styles->inv, LV_PART_CURSOR);
 1635              		.loc 1 467 38 is_stmt 0 view .LVU507
 1636 089e 2D4D     		ldr	r5, .L46+4
 1637 08a0 2968     		ldr	r1, [r5]
 467:Drivers/lvgl/src/extra/themes/mono/lv_theme_mono.c ****         lv_obj_add_style(obj, &styles->inv, LV_PART_CURSOR);
 1638              		.loc 1 467 9 view .LVU508
 1639 08a2 0022     		movs	r2, #0
 1640 08a4 0831     		adds	r1, r1, #8
 1641 08a6 2046     		mov	r0, r4
 1642 08a8 FFF7FEFF 		bl	lv_obj_add_style
 1643              	.LVL181:
ARM GAS  /var/folders/lp/x54gwt890xv47sdkqj1k04q40000gn/T//cc7THuQy.s 			page 47


 468:Drivers/lvgl/src/extra/themes/mono/lv_theme_mono.c ****         lv_obj_add_style(obj, &styles->focus, LV_STATE_FOCUS_KEY);
 1644              		.loc 1 468 9 is_stmt 1 view .LVU509
 468:Drivers/lvgl/src/extra/themes/mono/lv_theme_mono.c ****         lv_obj_add_style(obj, &styles->focus, LV_STATE_FOCUS_KEY);
 1645              		.loc 1 468 38 is_stmt 0 view .LVU510
 1646 08ac 2968     		ldr	r1, [r5]
 468:Drivers/lvgl/src/extra/themes/mono/lv_theme_mono.c ****         lv_obj_add_style(obj, &styles->focus, LV_STATE_FOCUS_KEY);
 1647              		.loc 1 468 9 view .LVU511
 1648 08ae 4FF4E022 		mov	r2, #458752
 1649 08b2 2831     		adds	r1, r1, #40
 1650 08b4 2046     		mov	r0, r4
 1651 08b6 FFF7FEFF 		bl	lv_obj_add_style
 1652              	.LVL182:
 469:Drivers/lvgl/src/extra/themes/mono/lv_theme_mono.c ****         lv_obj_add_style(obj, &styles->edit, LV_STATE_EDITED);
 1653              		.loc 1 469 9 is_stmt 1 view .LVU512
 469:Drivers/lvgl/src/extra/themes/mono/lv_theme_mono.c ****         lv_obj_add_style(obj, &styles->edit, LV_STATE_EDITED);
 1654              		.loc 1 469 38 is_stmt 0 view .LVU513
 1655 08ba 2968     		ldr	r1, [r5]
 469:Drivers/lvgl/src/extra/themes/mono/lv_theme_mono.c ****         lv_obj_add_style(obj, &styles->edit, LV_STATE_EDITED);
 1656              		.loc 1 469 9 view .LVU514
 1657 08bc 0422     		movs	r2, #4
 1658 08be 3831     		adds	r1, r1, #56
 1659 08c0 2046     		mov	r0, r4
 1660 08c2 FFF7FEFF 		bl	lv_obj_add_style
 1661              	.LVL183:
 470:Drivers/lvgl/src/extra/themes/mono/lv_theme_mono.c ****     }
 1662              		.loc 1 470 9 is_stmt 1 view .LVU515
 470:Drivers/lvgl/src/extra/themes/mono/lv_theme_mono.c ****     }
 1663              		.loc 1 470 38 is_stmt 0 view .LVU516
 1664 08c6 2968     		ldr	r1, [r5]
 470:Drivers/lvgl/src/extra/themes/mono/lv_theme_mono.c ****     }
 1665              		.loc 1 470 9 view .LVU517
 1666 08c8 0822     		movs	r2, #8
 1667 08ca 4031     		adds	r1, r1, #64
 1668 08cc 2046     		mov	r0, r4
 1669 08ce FFF7FEFF 		bl	lv_obj_add_style
 1670              	.LVL184:
 1671 08d2 FFF7A9BB 		b	.L1
 1672              	.L41:
 461:Drivers/lvgl/src/extra/themes/mono/lv_theme_mono.c ****         return;
 1673              		.loc 1 461 9 is_stmt 1 view .LVU518
 461:Drivers/lvgl/src/extra/themes/mono/lv_theme_mono.c ****         return;
 1674              		.loc 1 461 38 is_stmt 0 view .LVU519
 1675 08d6 1F4B     		ldr	r3, .L46+4
 1676 08d8 1968     		ldr	r1, [r3]
 461:Drivers/lvgl/src/extra/themes/mono/lv_theme_mono.c ****         return;
 1677              		.loc 1 461 9 view .LVU520
 1678 08da 0022     		movs	r2, #0
 1679 08dc 0831     		adds	r1, r1, #8
 1680 08de 2046     		mov	r0, r4
 1681 08e0 FFF7FEFF 		bl	lv_obj_add_style
 1682              	.LVL185:
 462:Drivers/lvgl/src/extra/themes/mono/lv_theme_mono.c ****     }
 1683              		.loc 1 462 9 is_stmt 1 view .LVU521
 1684 08e4 FFF7A0BB 		b	.L1
 1685              	.L29:
 474:Drivers/lvgl/src/extra/themes/mono/lv_theme_mono.c ****         lv_obj_add_style(obj, &styles->scr, 0);
 1686              		.loc 1 474 10 view .LVU522
ARM GAS  /var/folders/lp/x54gwt890xv47sdkqj1k04q40000gn/T//cc7THuQy.s 			page 48


 474:Drivers/lvgl/src/extra/themes/mono/lv_theme_mono.c ****         lv_obj_add_style(obj, &styles->scr, 0);
 1687              		.loc 1 474 13 is_stmt 0 view .LVU523
 1688 08e8 2A49     		ldr	r1, .L46+68
 1689 08ea 2046     		mov	r0, r4
 1690 08ec FFF7FEFF 		bl	lv_obj_check_type
 1691              	.LVL186:
 474:Drivers/lvgl/src/extra/themes/mono/lv_theme_mono.c ****         lv_obj_add_style(obj, &styles->scr, 0);
 1692              		.loc 1 474 12 discriminator 1 view .LVU524
 1693 08f0 70B1     		cbz	r0, .L30
 475:Drivers/lvgl/src/extra/themes/mono/lv_theme_mono.c ****         lv_obj_add_style(obj, &styles->scrollbar, LV_PART_SCROLLBAR);
 1694              		.loc 1 475 9 is_stmt 1 view .LVU525
 475:Drivers/lvgl/src/extra/themes/mono/lv_theme_mono.c ****         lv_obj_add_style(obj, &styles->scrollbar, LV_PART_SCROLLBAR);
 1695              		.loc 1 475 38 is_stmt 0 view .LVU526
 1696 08f2 184D     		ldr	r5, .L46+4
 475:Drivers/lvgl/src/extra/themes/mono/lv_theme_mono.c ****         lv_obj_add_style(obj, &styles->scrollbar, LV_PART_SCROLLBAR);
 1697              		.loc 1 475 9 view .LVU527
 1698 08f4 0022     		movs	r2, #0
 1699 08f6 2968     		ldr	r1, [r5]
 1700 08f8 2046     		mov	r0, r4
 1701 08fa FFF7FEFF 		bl	lv_obj_add_style
 1702              	.LVL187:
 476:Drivers/lvgl/src/extra/themes/mono/lv_theme_mono.c ****     }
 1703              		.loc 1 476 9 is_stmt 1 view .LVU528
 476:Drivers/lvgl/src/extra/themes/mono/lv_theme_mono.c ****     }
 1704              		.loc 1 476 38 is_stmt 0 view .LVU529
 1705 08fe 2968     		ldr	r1, [r5]
 476:Drivers/lvgl/src/extra/themes/mono/lv_theme_mono.c ****     }
 1706              		.loc 1 476 9 view .LVU530
 1707 0900 4FF48032 		mov	r2, #65536
 1708 0904 1031     		adds	r1, r1, #16
 1709 0906 2046     		mov	r0, r4
 1710 0908 FFF7FEFF 		bl	lv_obj_add_style
 1711              	.LVL188:
 1712 090c FFF78CBB 		b	.L1
 1713              	.L30:
 478:Drivers/lvgl/src/extra/themes/mono/lv_theme_mono.c ****         lv_obj_add_style(obj, &styles->scrollbar, LV_PART_SCROLLBAR);
 1714              		.loc 1 478 10 is_stmt 1 view .LVU531
 478:Drivers/lvgl/src/extra/themes/mono/lv_theme_mono.c ****         lv_obj_add_style(obj, &styles->scrollbar, LV_PART_SCROLLBAR);
 1715              		.loc 1 478 13 is_stmt 0 view .LVU532
 1716 0910 2149     		ldr	r1, .L46+72
 1717 0912 2046     		mov	r0, r4
 1718 0914 FFF7FEFF 		bl	lv_obj_check_type
 1719              	.LVL189:
 478:Drivers/lvgl/src/extra/themes/mono/lv_theme_mono.c ****         lv_obj_add_style(obj, &styles->scrollbar, LV_PART_SCROLLBAR);
 1720              		.loc 1 478 12 discriminator 1 view .LVU533
 1721 0918 48B1     		cbz	r0, .L31
 479:Drivers/lvgl/src/extra/themes/mono/lv_theme_mono.c ****     }
 1722              		.loc 1 479 9 is_stmt 1 view .LVU534
 479:Drivers/lvgl/src/extra/themes/mono/lv_theme_mono.c ****     }
 1723              		.loc 1 479 38 is_stmt 0 view .LVU535
 1724 091a 0E4B     		ldr	r3, .L46+4
 1725 091c 1968     		ldr	r1, [r3]
 479:Drivers/lvgl/src/extra/themes/mono/lv_theme_mono.c ****     }
 1726              		.loc 1 479 9 view .LVU536
 1727 091e 4FF48032 		mov	r2, #65536
 1728 0922 1031     		adds	r1, r1, #16
 1729 0924 2046     		mov	r0, r4
ARM GAS  /var/folders/lp/x54gwt890xv47sdkqj1k04q40000gn/T//cc7THuQy.s 			page 49


 1730 0926 FFF7FEFF 		bl	lv_obj_add_style
 1731              	.LVL190:
 1732 092a FFF77DBB 		b	.L1
 1733              	.L31:
 484:Drivers/lvgl/src/extra/themes/mono/lv_theme_mono.c ****         lv_obj_add_style(obj, &styles->card, 0);
 1734              		.loc 1 484 10 is_stmt 1 view .LVU537
 484:Drivers/lvgl/src/extra/themes/mono/lv_theme_mono.c ****         lv_obj_add_style(obj, &styles->card, 0);
 1735              		.loc 1 484 13 is_stmt 0 view .LVU538
 1736 092e 1B49     		ldr	r1, .L46+76
 1737 0930 2046     		mov	r0, r4
 1738 0932 FFF7FEFF 		bl	lv_obj_check_type
 1739              	.LVL191:
 484:Drivers/lvgl/src/extra/themes/mono/lv_theme_mono.c ****         lv_obj_add_style(obj, &styles->card, 0);
 1740              		.loc 1 484 12 discriminator 1 view .LVU539
 1741 0936 0028     		cmp	r0, #0
 1742 0938 3FF476AB 		beq	.L1
 485:Drivers/lvgl/src/extra/themes/mono/lv_theme_mono.c ****     }
 1743              		.loc 1 485 9 is_stmt 1 view .LVU540
 485:Drivers/lvgl/src/extra/themes/mono/lv_theme_mono.c ****     }
 1744              		.loc 1 485 38 is_stmt 0 view .LVU541
 1745 093c 054B     		ldr	r3, .L46+4
 1746 093e 1968     		ldr	r1, [r3]
 485:Drivers/lvgl/src/extra/themes/mono/lv_theme_mono.c ****     }
 1747              		.loc 1 485 9 view .LVU542
 1748 0940 0022     		movs	r2, #0
 1749 0942 0831     		adds	r1, r1, #8
 1750 0944 2046     		mov	r0, r4
 1751 0946 FFF7FEFF 		bl	lv_obj_add_style
 1752              	.LVL192:
 1753 094a FFF76DBB 		b	.L1
 1754              	.L47:
 1755 094e 00BF     		.align	2
 1756              	.L46:
 1757 0950 00000000 		.word	lv_arc_class
 1758 0954 00000000 		.word	styles
 1759 0958 00000000 		.word	lv_meter_class
 1760 095c 00000000 		.word	lv_textarea_class
 1761 0960 02000700 		.word	458754
 1762 0964 00000000 		.word	lv_calendar_class
 1763 0968 20000500 		.word	327712
 1764 096c 80000500 		.word	327808
 1765 0970 04000500 		.word	327684
 1766 0974 00000000 		.word	lv_keyboard_class
 1767 0978 01000500 		.word	327681
 1768 097c 08000500 		.word	327688
 1769 0980 00000000 		.word	lv_list_class
 1770 0984 00000000 		.word	lv_list_text_class
 1771 0988 00000000 		.word	lv_list_btn_class
 1772 098c 00000000 		.word	lv_msgbox_class
 1773 0990 00000000 		.word	lv_spinbox_class
 1774 0994 00000000 		.word	lv_tileview_class
 1775 0998 00000000 		.word	lv_tileview_tile_class
 1776 099c 00000000 		.word	lv_led_class
 1777              		.cfi_endproc
 1778              	.LFE207:
 1780              		.section	.text.lv_style_set_pad_gap,"ax",%progbits
 1781              		.align	1
ARM GAS  /var/folders/lp/x54gwt890xv47sdkqj1k04q40000gn/T//cc7THuQy.s 			page 50


 1782              		.syntax unified
 1783              		.thumb
 1784              		.thumb_func
 1786              	lv_style_set_pad_gap:
 1787              	.LVL193:
 1788              	.LFB53:
 1789              		.file 2 "Drivers/lvgl/src/extra/themes/mono/../../../../src/hal/../draw/../misc/lv_style.h"
   1:Drivers/lvgl/src/extra/themes/mono/../../../../src/hal/../draw/../misc/lv_style.h **** /**
   2:Drivers/lvgl/src/extra/themes/mono/../../../../src/hal/../draw/../misc/lv_style.h ****  * @file lv_style.h
   3:Drivers/lvgl/src/extra/themes/mono/../../../../src/hal/../draw/../misc/lv_style.h ****  *
   4:Drivers/lvgl/src/extra/themes/mono/../../../../src/hal/../draw/../misc/lv_style.h ****  */
   5:Drivers/lvgl/src/extra/themes/mono/../../../../src/hal/../draw/../misc/lv_style.h **** 
   6:Drivers/lvgl/src/extra/themes/mono/../../../../src/hal/../draw/../misc/lv_style.h **** #ifndef LV_STYLE_H
   7:Drivers/lvgl/src/extra/themes/mono/../../../../src/hal/../draw/../misc/lv_style.h **** #define LV_STYLE_H
   8:Drivers/lvgl/src/extra/themes/mono/../../../../src/hal/../draw/../misc/lv_style.h **** 
   9:Drivers/lvgl/src/extra/themes/mono/../../../../src/hal/../draw/../misc/lv_style.h **** #ifdef __cplusplus
  10:Drivers/lvgl/src/extra/themes/mono/../../../../src/hal/../draw/../misc/lv_style.h **** extern "C" {
  11:Drivers/lvgl/src/extra/themes/mono/../../../../src/hal/../draw/../misc/lv_style.h **** #endif
  12:Drivers/lvgl/src/extra/themes/mono/../../../../src/hal/../draw/../misc/lv_style.h **** 
  13:Drivers/lvgl/src/extra/themes/mono/../../../../src/hal/../draw/../misc/lv_style.h **** /*********************
  14:Drivers/lvgl/src/extra/themes/mono/../../../../src/hal/../draw/../misc/lv_style.h ****  *      INCLUDES
  15:Drivers/lvgl/src/extra/themes/mono/../../../../src/hal/../draw/../misc/lv_style.h ****  *********************/
  16:Drivers/lvgl/src/extra/themes/mono/../../../../src/hal/../draw/../misc/lv_style.h **** #include <stdbool.h>
  17:Drivers/lvgl/src/extra/themes/mono/../../../../src/hal/../draw/../misc/lv_style.h **** #include <stdint.h>
  18:Drivers/lvgl/src/extra/themes/mono/../../../../src/hal/../draw/../misc/lv_style.h **** #include "../font/lv_font.h"
  19:Drivers/lvgl/src/extra/themes/mono/../../../../src/hal/../draw/../misc/lv_style.h **** #include "lv_color.h"
  20:Drivers/lvgl/src/extra/themes/mono/../../../../src/hal/../draw/../misc/lv_style.h **** #include "lv_area.h"
  21:Drivers/lvgl/src/extra/themes/mono/../../../../src/hal/../draw/../misc/lv_style.h **** #include "lv_anim.h"
  22:Drivers/lvgl/src/extra/themes/mono/../../../../src/hal/../draw/../misc/lv_style.h **** #include "lv_txt.h"
  23:Drivers/lvgl/src/extra/themes/mono/../../../../src/hal/../draw/../misc/lv_style.h **** #include "lv_types.h"
  24:Drivers/lvgl/src/extra/themes/mono/../../../../src/hal/../draw/../misc/lv_style.h **** #include "lv_assert.h"
  25:Drivers/lvgl/src/extra/themes/mono/../../../../src/hal/../draw/../misc/lv_style.h **** #include "lv_bidi.h"
  26:Drivers/lvgl/src/extra/themes/mono/../../../../src/hal/../draw/../misc/lv_style.h **** 
  27:Drivers/lvgl/src/extra/themes/mono/../../../../src/hal/../draw/../misc/lv_style.h **** /*********************
  28:Drivers/lvgl/src/extra/themes/mono/../../../../src/hal/../draw/../misc/lv_style.h ****  *      DEFINES
  29:Drivers/lvgl/src/extra/themes/mono/../../../../src/hal/../draw/../misc/lv_style.h ****  *********************/
  30:Drivers/lvgl/src/extra/themes/mono/../../../../src/hal/../draw/../misc/lv_style.h **** 
  31:Drivers/lvgl/src/extra/themes/mono/../../../../src/hal/../draw/../misc/lv_style.h **** #define LV_STYLE_SENTINEL_VALUE     0xAABBCCDD
  32:Drivers/lvgl/src/extra/themes/mono/../../../../src/hal/../draw/../misc/lv_style.h **** 
  33:Drivers/lvgl/src/extra/themes/mono/../../../../src/hal/../draw/../misc/lv_style.h **** /**
  34:Drivers/lvgl/src/extra/themes/mono/../../../../src/hal/../draw/../misc/lv_style.h ****  * Flags for style behavior
  35:Drivers/lvgl/src/extra/themes/mono/../../../../src/hal/../draw/../misc/lv_style.h ****  *
  36:Drivers/lvgl/src/extra/themes/mono/../../../../src/hal/../draw/../misc/lv_style.h ****  * The rest of the flags will have _FLAG added to their name in v9.
  37:Drivers/lvgl/src/extra/themes/mono/../../../../src/hal/../draw/../misc/lv_style.h ****  */
  38:Drivers/lvgl/src/extra/themes/mono/../../../../src/hal/../draw/../misc/lv_style.h **** #define LV_STYLE_PROP_FLAG_NONE             (0)
  39:Drivers/lvgl/src/extra/themes/mono/../../../../src/hal/../draw/../misc/lv_style.h **** #define LV_STYLE_PROP_INHERIT               (1 << 0)  /*Inherited*/
  40:Drivers/lvgl/src/extra/themes/mono/../../../../src/hal/../draw/../misc/lv_style.h **** #define LV_STYLE_PROP_EXT_DRAW              (1 << 1)  /*Requires ext. draw size update when changed
  41:Drivers/lvgl/src/extra/themes/mono/../../../../src/hal/../draw/../misc/lv_style.h **** #define LV_STYLE_PROP_LAYOUT_REFR           (1 << 2)  /*Requires layout update when changed*/
  42:Drivers/lvgl/src/extra/themes/mono/../../../../src/hal/../draw/../misc/lv_style.h **** #define LV_STYLE_PROP_PARENT_LAYOUT_REFR    (1 << 3)  /*Requires layout update on parent when chang
  43:Drivers/lvgl/src/extra/themes/mono/../../../../src/hal/../draw/../misc/lv_style.h **** #define LV_STYLE_PROP_LAYER_REFR            (1 << 4)  /*Affects layer handling*/
  44:Drivers/lvgl/src/extra/themes/mono/../../../../src/hal/../draw/../misc/lv_style.h **** #define LV_STYLE_PROP_ALL                   (0x1F)     /*Indicating all flags*/
  45:Drivers/lvgl/src/extra/themes/mono/../../../../src/hal/../draw/../misc/lv_style.h **** 
  46:Drivers/lvgl/src/extra/themes/mono/../../../../src/hal/../draw/../misc/lv_style.h **** /**
  47:Drivers/lvgl/src/extra/themes/mono/../../../../src/hal/../draw/../misc/lv_style.h ****  * Other constants
  48:Drivers/lvgl/src/extra/themes/mono/../../../../src/hal/../draw/../misc/lv_style.h ****  */
  49:Drivers/lvgl/src/extra/themes/mono/../../../../src/hal/../draw/../misc/lv_style.h **** #define LV_IMG_ZOOM_NONE            256        /*Value for not zooming the image*/
  50:Drivers/lvgl/src/extra/themes/mono/../../../../src/hal/../draw/../misc/lv_style.h **** LV_EXPORT_CONST_INT(LV_IMG_ZOOM_NONE);
ARM GAS  /var/folders/lp/x54gwt890xv47sdkqj1k04q40000gn/T//cc7THuQy.s 			page 51


  51:Drivers/lvgl/src/extra/themes/mono/../../../../src/hal/../draw/../misc/lv_style.h **** 
  52:Drivers/lvgl/src/extra/themes/mono/../../../../src/hal/../draw/../misc/lv_style.h **** // *INDENT-OFF*
  53:Drivers/lvgl/src/extra/themes/mono/../../../../src/hal/../draw/../misc/lv_style.h **** #if LV_USE_ASSERT_STYLE
  54:Drivers/lvgl/src/extra/themes/mono/../../../../src/hal/../draw/../misc/lv_style.h **** #define LV_STYLE_CONST_INIT(var_name, prop_array)                       \
  55:Drivers/lvgl/src/extra/themes/mono/../../../../src/hal/../draw/../misc/lv_style.h ****     const lv_style_t var_name = {                                       \
  56:Drivers/lvgl/src/extra/themes/mono/../../../../src/hal/../draw/../misc/lv_style.h ****         .sentinel = LV_STYLE_SENTINEL_VALUE,                            \
  57:Drivers/lvgl/src/extra/themes/mono/../../../../src/hal/../draw/../misc/lv_style.h ****         .v_p = { .const_props = prop_array },                           \
  58:Drivers/lvgl/src/extra/themes/mono/../../../../src/hal/../draw/../misc/lv_style.h ****         .has_group = 0xFF,                                              \
  59:Drivers/lvgl/src/extra/themes/mono/../../../../src/hal/../draw/../misc/lv_style.h ****         .prop1 = LV_STYLE_PROP_ANY,                                     \
  60:Drivers/lvgl/src/extra/themes/mono/../../../../src/hal/../draw/../misc/lv_style.h ****         .prop_cnt = (sizeof(prop_array) / sizeof((prop_array)[0])),     \
  61:Drivers/lvgl/src/extra/themes/mono/../../../../src/hal/../draw/../misc/lv_style.h ****     }
  62:Drivers/lvgl/src/extra/themes/mono/../../../../src/hal/../draw/../misc/lv_style.h **** #else
  63:Drivers/lvgl/src/extra/themes/mono/../../../../src/hal/../draw/../misc/lv_style.h **** #define LV_STYLE_CONST_INIT(var_name, prop_array)                       \
  64:Drivers/lvgl/src/extra/themes/mono/../../../../src/hal/../draw/../misc/lv_style.h ****     const lv_style_t var_name = {                                       \
  65:Drivers/lvgl/src/extra/themes/mono/../../../../src/hal/../draw/../misc/lv_style.h ****         .v_p = { .const_props = prop_array },                           \
  66:Drivers/lvgl/src/extra/themes/mono/../../../../src/hal/../draw/../misc/lv_style.h ****         .has_group = 0xFF,                                              \
  67:Drivers/lvgl/src/extra/themes/mono/../../../../src/hal/../draw/../misc/lv_style.h ****         .prop1 = LV_STYLE_PROP_ANY,                                     \
  68:Drivers/lvgl/src/extra/themes/mono/../../../../src/hal/../draw/../misc/lv_style.h ****         .prop_cnt = (sizeof(prop_array) / sizeof((prop_array)[0])),     \
  69:Drivers/lvgl/src/extra/themes/mono/../../../../src/hal/../draw/../misc/lv_style.h ****     }
  70:Drivers/lvgl/src/extra/themes/mono/../../../../src/hal/../draw/../misc/lv_style.h **** #endif
  71:Drivers/lvgl/src/extra/themes/mono/../../../../src/hal/../draw/../misc/lv_style.h **** // *INDENT-ON*
  72:Drivers/lvgl/src/extra/themes/mono/../../../../src/hal/../draw/../misc/lv_style.h **** 
  73:Drivers/lvgl/src/extra/themes/mono/../../../../src/hal/../draw/../misc/lv_style.h **** #define LV_STYLE_PROP_META_INHERIT 0x8000
  74:Drivers/lvgl/src/extra/themes/mono/../../../../src/hal/../draw/../misc/lv_style.h **** #define LV_STYLE_PROP_META_INITIAL 0x4000
  75:Drivers/lvgl/src/extra/themes/mono/../../../../src/hal/../draw/../misc/lv_style.h **** #define LV_STYLE_PROP_META_MASK (LV_STYLE_PROP_META_INHERIT | LV_STYLE_PROP_META_INITIAL)
  76:Drivers/lvgl/src/extra/themes/mono/../../../../src/hal/../draw/../misc/lv_style.h **** 
  77:Drivers/lvgl/src/extra/themes/mono/../../../../src/hal/../draw/../misc/lv_style.h **** #define LV_STYLE_PROP_ID_MASK(prop) ((lv_style_prop_t)((prop) & ~LV_STYLE_PROP_META_MASK))
  78:Drivers/lvgl/src/extra/themes/mono/../../../../src/hal/../draw/../misc/lv_style.h **** 
  79:Drivers/lvgl/src/extra/themes/mono/../../../../src/hal/../draw/../misc/lv_style.h **** /**********************
  80:Drivers/lvgl/src/extra/themes/mono/../../../../src/hal/../draw/../misc/lv_style.h ****  *      TYPEDEFS
  81:Drivers/lvgl/src/extra/themes/mono/../../../../src/hal/../draw/../misc/lv_style.h ****  **********************/
  82:Drivers/lvgl/src/extra/themes/mono/../../../../src/hal/../draw/../misc/lv_style.h **** 
  83:Drivers/lvgl/src/extra/themes/mono/../../../../src/hal/../draw/../misc/lv_style.h **** /**
  84:Drivers/lvgl/src/extra/themes/mono/../../../../src/hal/../draw/../misc/lv_style.h ****  * Possible options how to blend opaque drawings
  85:Drivers/lvgl/src/extra/themes/mono/../../../../src/hal/../draw/../misc/lv_style.h ****  */
  86:Drivers/lvgl/src/extra/themes/mono/../../../../src/hal/../draw/../misc/lv_style.h **** enum {
  87:Drivers/lvgl/src/extra/themes/mono/../../../../src/hal/../draw/../misc/lv_style.h ****     LV_BLEND_MODE_NORMAL,     /**< Simply mix according to the opacity value*/
  88:Drivers/lvgl/src/extra/themes/mono/../../../../src/hal/../draw/../misc/lv_style.h ****     LV_BLEND_MODE_ADDITIVE,   /**< Add the respective color channels*/
  89:Drivers/lvgl/src/extra/themes/mono/../../../../src/hal/../draw/../misc/lv_style.h ****     LV_BLEND_MODE_SUBTRACTIVE,/**< Subtract the foreground from the background*/
  90:Drivers/lvgl/src/extra/themes/mono/../../../../src/hal/../draw/../misc/lv_style.h ****     LV_BLEND_MODE_MULTIPLY,   /**< Multiply the foreground and background*/
  91:Drivers/lvgl/src/extra/themes/mono/../../../../src/hal/../draw/../misc/lv_style.h ****     LV_BLEND_MODE_REPLACE,    /**< Replace background with foreground in the area*/
  92:Drivers/lvgl/src/extra/themes/mono/../../../../src/hal/../draw/../misc/lv_style.h **** };
  93:Drivers/lvgl/src/extra/themes/mono/../../../../src/hal/../draw/../misc/lv_style.h **** 
  94:Drivers/lvgl/src/extra/themes/mono/../../../../src/hal/../draw/../misc/lv_style.h **** typedef uint8_t lv_blend_mode_t;
  95:Drivers/lvgl/src/extra/themes/mono/../../../../src/hal/../draw/../misc/lv_style.h **** 
  96:Drivers/lvgl/src/extra/themes/mono/../../../../src/hal/../draw/../misc/lv_style.h **** /**
  97:Drivers/lvgl/src/extra/themes/mono/../../../../src/hal/../draw/../misc/lv_style.h ****  * Some options to apply decorations on texts.
  98:Drivers/lvgl/src/extra/themes/mono/../../../../src/hal/../draw/../misc/lv_style.h ****  * 'OR'ed values can be used.
  99:Drivers/lvgl/src/extra/themes/mono/../../../../src/hal/../draw/../misc/lv_style.h ****  */
 100:Drivers/lvgl/src/extra/themes/mono/../../../../src/hal/../draw/../misc/lv_style.h **** enum {
 101:Drivers/lvgl/src/extra/themes/mono/../../../../src/hal/../draw/../misc/lv_style.h ****     LV_TEXT_DECOR_NONE          = 0x00,
 102:Drivers/lvgl/src/extra/themes/mono/../../../../src/hal/../draw/../misc/lv_style.h ****     LV_TEXT_DECOR_UNDERLINE     = 0x01,
 103:Drivers/lvgl/src/extra/themes/mono/../../../../src/hal/../draw/../misc/lv_style.h ****     LV_TEXT_DECOR_STRIKETHROUGH = 0x02,
 104:Drivers/lvgl/src/extra/themes/mono/../../../../src/hal/../draw/../misc/lv_style.h **** };
 105:Drivers/lvgl/src/extra/themes/mono/../../../../src/hal/../draw/../misc/lv_style.h **** 
 106:Drivers/lvgl/src/extra/themes/mono/../../../../src/hal/../draw/../misc/lv_style.h **** typedef uint8_t lv_text_decor_t;
 107:Drivers/lvgl/src/extra/themes/mono/../../../../src/hal/../draw/../misc/lv_style.h **** 
ARM GAS  /var/folders/lp/x54gwt890xv47sdkqj1k04q40000gn/T//cc7THuQy.s 			page 52


 108:Drivers/lvgl/src/extra/themes/mono/../../../../src/hal/../draw/../misc/lv_style.h **** /**
 109:Drivers/lvgl/src/extra/themes/mono/../../../../src/hal/../draw/../misc/lv_style.h ****  * Selects on which sides border should be drawn
 110:Drivers/lvgl/src/extra/themes/mono/../../../../src/hal/../draw/../misc/lv_style.h ****  * 'OR'ed values can be used.
 111:Drivers/lvgl/src/extra/themes/mono/../../../../src/hal/../draw/../misc/lv_style.h ****  */
 112:Drivers/lvgl/src/extra/themes/mono/../../../../src/hal/../draw/../misc/lv_style.h **** enum {
 113:Drivers/lvgl/src/extra/themes/mono/../../../../src/hal/../draw/../misc/lv_style.h ****     LV_BORDER_SIDE_NONE     = 0x00,
 114:Drivers/lvgl/src/extra/themes/mono/../../../../src/hal/../draw/../misc/lv_style.h ****     LV_BORDER_SIDE_BOTTOM   = 0x01,
 115:Drivers/lvgl/src/extra/themes/mono/../../../../src/hal/../draw/../misc/lv_style.h ****     LV_BORDER_SIDE_TOP      = 0x02,
 116:Drivers/lvgl/src/extra/themes/mono/../../../../src/hal/../draw/../misc/lv_style.h ****     LV_BORDER_SIDE_LEFT     = 0x04,
 117:Drivers/lvgl/src/extra/themes/mono/../../../../src/hal/../draw/../misc/lv_style.h ****     LV_BORDER_SIDE_RIGHT    = 0x08,
 118:Drivers/lvgl/src/extra/themes/mono/../../../../src/hal/../draw/../misc/lv_style.h ****     LV_BORDER_SIDE_FULL     = 0x0F,
 119:Drivers/lvgl/src/extra/themes/mono/../../../../src/hal/../draw/../misc/lv_style.h ****     LV_BORDER_SIDE_INTERNAL = 0x10, /**< FOR matrix-like objects (e.g. Button matrix)*/
 120:Drivers/lvgl/src/extra/themes/mono/../../../../src/hal/../draw/../misc/lv_style.h **** };
 121:Drivers/lvgl/src/extra/themes/mono/../../../../src/hal/../draw/../misc/lv_style.h **** typedef uint8_t lv_border_side_t;
 122:Drivers/lvgl/src/extra/themes/mono/../../../../src/hal/../draw/../misc/lv_style.h **** 
 123:Drivers/lvgl/src/extra/themes/mono/../../../../src/hal/../draw/../misc/lv_style.h **** /**
 124:Drivers/lvgl/src/extra/themes/mono/../../../../src/hal/../draw/../misc/lv_style.h ****  * The direction of the gradient.
 125:Drivers/lvgl/src/extra/themes/mono/../../../../src/hal/../draw/../misc/lv_style.h ****  */
 126:Drivers/lvgl/src/extra/themes/mono/../../../../src/hal/../draw/../misc/lv_style.h **** enum {
 127:Drivers/lvgl/src/extra/themes/mono/../../../../src/hal/../draw/../misc/lv_style.h ****     LV_GRAD_DIR_NONE, /**< No gradient (the `grad_color` property is ignored)*/
 128:Drivers/lvgl/src/extra/themes/mono/../../../../src/hal/../draw/../misc/lv_style.h ****     LV_GRAD_DIR_VER,  /**< Vertical (top to bottom) gradient*/
 129:Drivers/lvgl/src/extra/themes/mono/../../../../src/hal/../draw/../misc/lv_style.h ****     LV_GRAD_DIR_HOR,  /**< Horizontal (left to right) gradient*/
 130:Drivers/lvgl/src/extra/themes/mono/../../../../src/hal/../draw/../misc/lv_style.h **** };
 131:Drivers/lvgl/src/extra/themes/mono/../../../../src/hal/../draw/../misc/lv_style.h **** 
 132:Drivers/lvgl/src/extra/themes/mono/../../../../src/hal/../draw/../misc/lv_style.h **** typedef uint8_t lv_grad_dir_t;
 133:Drivers/lvgl/src/extra/themes/mono/../../../../src/hal/../draw/../misc/lv_style.h **** 
 134:Drivers/lvgl/src/extra/themes/mono/../../../../src/hal/../draw/../misc/lv_style.h **** /**
 135:Drivers/lvgl/src/extra/themes/mono/../../../../src/hal/../draw/../misc/lv_style.h ****  * The dithering algorithm for the gradient
 136:Drivers/lvgl/src/extra/themes/mono/../../../../src/hal/../draw/../misc/lv_style.h ****  * Depends on LV_DITHER_GRADIENT
 137:Drivers/lvgl/src/extra/themes/mono/../../../../src/hal/../draw/../misc/lv_style.h ****  */
 138:Drivers/lvgl/src/extra/themes/mono/../../../../src/hal/../draw/../misc/lv_style.h **** enum {
 139:Drivers/lvgl/src/extra/themes/mono/../../../../src/hal/../draw/../misc/lv_style.h ****     LV_DITHER_NONE,     /**< No dithering, colors are just quantized to the output resolution*/
 140:Drivers/lvgl/src/extra/themes/mono/../../../../src/hal/../draw/../misc/lv_style.h ****     LV_DITHER_ORDERED,  /**< Ordered dithering. Faster to compute and use less memory but lower qua
 141:Drivers/lvgl/src/extra/themes/mono/../../../../src/hal/../draw/../misc/lv_style.h ****     LV_DITHER_ERR_DIFF, /**< Error diffusion mode. Slower to compute and use more memory but give h
 142:Drivers/lvgl/src/extra/themes/mono/../../../../src/hal/../draw/../misc/lv_style.h **** };
 143:Drivers/lvgl/src/extra/themes/mono/../../../../src/hal/../draw/../misc/lv_style.h **** 
 144:Drivers/lvgl/src/extra/themes/mono/../../../../src/hal/../draw/../misc/lv_style.h **** typedef uint8_t lv_dither_mode_t;
 145:Drivers/lvgl/src/extra/themes/mono/../../../../src/hal/../draw/../misc/lv_style.h **** 
 146:Drivers/lvgl/src/extra/themes/mono/../../../../src/hal/../draw/../misc/lv_style.h **** /** A gradient stop definition.
 147:Drivers/lvgl/src/extra/themes/mono/../../../../src/hal/../draw/../misc/lv_style.h ****  *  This matches a color and a position in a virtual 0-255 scale.
 148:Drivers/lvgl/src/extra/themes/mono/../../../../src/hal/../draw/../misc/lv_style.h ****  */
 149:Drivers/lvgl/src/extra/themes/mono/../../../../src/hal/../draw/../misc/lv_style.h **** typedef struct {
 150:Drivers/lvgl/src/extra/themes/mono/../../../../src/hal/../draw/../misc/lv_style.h ****     lv_color_t color;   /**< The stop color */
 151:Drivers/lvgl/src/extra/themes/mono/../../../../src/hal/../draw/../misc/lv_style.h ****     uint8_t    frac;    /**< The stop position in 1/255 unit */
 152:Drivers/lvgl/src/extra/themes/mono/../../../../src/hal/../draw/../misc/lv_style.h **** } lv_gradient_stop_t;
 153:Drivers/lvgl/src/extra/themes/mono/../../../../src/hal/../draw/../misc/lv_style.h **** 
 154:Drivers/lvgl/src/extra/themes/mono/../../../../src/hal/../draw/../misc/lv_style.h **** /** A descriptor of a gradient. */
 155:Drivers/lvgl/src/extra/themes/mono/../../../../src/hal/../draw/../misc/lv_style.h **** typedef struct {
 156:Drivers/lvgl/src/extra/themes/mono/../../../../src/hal/../draw/../misc/lv_style.h ****     lv_gradient_stop_t   stops[LV_GRADIENT_MAX_STOPS]; /**< A gradient stop array */
 157:Drivers/lvgl/src/extra/themes/mono/../../../../src/hal/../draw/../misc/lv_style.h ****     uint8_t              stops_count;                  /**< The number of used stops in the array *
 158:Drivers/lvgl/src/extra/themes/mono/../../../../src/hal/../draw/../misc/lv_style.h ****     lv_grad_dir_t        dir : 3;                      /**< The gradient direction.
 159:Drivers/lvgl/src/extra/themes/mono/../../../../src/hal/../draw/../misc/lv_style.h ****                                                         * Any of LV_GRAD_DIR_HOR, LV_GRAD_DIR_VER, 
 160:Drivers/lvgl/src/extra/themes/mono/../../../../src/hal/../draw/../misc/lv_style.h ****     lv_dither_mode_t     dither : 3;                   /**< Whether to dither the gradient or not.
 161:Drivers/lvgl/src/extra/themes/mono/../../../../src/hal/../draw/../misc/lv_style.h ****                                                         * Any of LV_DITHER_NONE, LV_DITHER_ORDERED,
 162:Drivers/lvgl/src/extra/themes/mono/../../../../src/hal/../draw/../misc/lv_style.h **** } lv_grad_dsc_t;
 163:Drivers/lvgl/src/extra/themes/mono/../../../../src/hal/../draw/../misc/lv_style.h **** 
 164:Drivers/lvgl/src/extra/themes/mono/../../../../src/hal/../draw/../misc/lv_style.h **** /**
ARM GAS  /var/folders/lp/x54gwt890xv47sdkqj1k04q40000gn/T//cc7THuQy.s 			page 53


 165:Drivers/lvgl/src/extra/themes/mono/../../../../src/hal/../draw/../misc/lv_style.h ****  * A common type to handle all the property types in the same way.
 166:Drivers/lvgl/src/extra/themes/mono/../../../../src/hal/../draw/../misc/lv_style.h ****  */
 167:Drivers/lvgl/src/extra/themes/mono/../../../../src/hal/../draw/../misc/lv_style.h **** typedef union {
 168:Drivers/lvgl/src/extra/themes/mono/../../../../src/hal/../draw/../misc/lv_style.h ****     int32_t num;         /**< Number integer number (opacity, enums, booleans or "normal" numbers)*
 169:Drivers/lvgl/src/extra/themes/mono/../../../../src/hal/../draw/../misc/lv_style.h ****     const void * ptr;    /**< Constant pointers  (font, cone text, etc)*/
 170:Drivers/lvgl/src/extra/themes/mono/../../../../src/hal/../draw/../misc/lv_style.h ****     lv_color_t color;    /**< Colors*/
 171:Drivers/lvgl/src/extra/themes/mono/../../../../src/hal/../draw/../misc/lv_style.h **** } lv_style_value_t;
 172:Drivers/lvgl/src/extra/themes/mono/../../../../src/hal/../draw/../misc/lv_style.h **** 
 173:Drivers/lvgl/src/extra/themes/mono/../../../../src/hal/../draw/../misc/lv_style.h **** /**
 174:Drivers/lvgl/src/extra/themes/mono/../../../../src/hal/../draw/../misc/lv_style.h ****  * Enumeration of all built in style properties
 175:Drivers/lvgl/src/extra/themes/mono/../../../../src/hal/../draw/../misc/lv_style.h ****  *
 176:Drivers/lvgl/src/extra/themes/mono/../../../../src/hal/../draw/../misc/lv_style.h ****  * Props are split into groups of 16. When adding a new prop to a group, ensure it does not overflo
 177:Drivers/lvgl/src/extra/themes/mono/../../../../src/hal/../draw/../misc/lv_style.h ****  */
 178:Drivers/lvgl/src/extra/themes/mono/../../../../src/hal/../draw/../misc/lv_style.h **** typedef enum {
 179:Drivers/lvgl/src/extra/themes/mono/../../../../src/hal/../draw/../misc/lv_style.h ****     LV_STYLE_PROP_INV               = 0,
 180:Drivers/lvgl/src/extra/themes/mono/../../../../src/hal/../draw/../misc/lv_style.h **** 
 181:Drivers/lvgl/src/extra/themes/mono/../../../../src/hal/../draw/../misc/lv_style.h ****     /*Group 0*/
 182:Drivers/lvgl/src/extra/themes/mono/../../../../src/hal/../draw/../misc/lv_style.h ****     LV_STYLE_WIDTH                  = 1,
 183:Drivers/lvgl/src/extra/themes/mono/../../../../src/hal/../draw/../misc/lv_style.h ****     LV_STYLE_MIN_WIDTH              = 2,
 184:Drivers/lvgl/src/extra/themes/mono/../../../../src/hal/../draw/../misc/lv_style.h ****     LV_STYLE_MAX_WIDTH              = 3,
 185:Drivers/lvgl/src/extra/themes/mono/../../../../src/hal/../draw/../misc/lv_style.h ****     LV_STYLE_HEIGHT                 = 4,
 186:Drivers/lvgl/src/extra/themes/mono/../../../../src/hal/../draw/../misc/lv_style.h ****     LV_STYLE_MIN_HEIGHT             = 5,
 187:Drivers/lvgl/src/extra/themes/mono/../../../../src/hal/../draw/../misc/lv_style.h ****     LV_STYLE_MAX_HEIGHT             = 6,
 188:Drivers/lvgl/src/extra/themes/mono/../../../../src/hal/../draw/../misc/lv_style.h ****     LV_STYLE_X                      = 7,
 189:Drivers/lvgl/src/extra/themes/mono/../../../../src/hal/../draw/../misc/lv_style.h ****     LV_STYLE_Y                      = 8,
 190:Drivers/lvgl/src/extra/themes/mono/../../../../src/hal/../draw/../misc/lv_style.h ****     LV_STYLE_ALIGN                  = 9,
 191:Drivers/lvgl/src/extra/themes/mono/../../../../src/hal/../draw/../misc/lv_style.h ****     LV_STYLE_LAYOUT                 = 10,
 192:Drivers/lvgl/src/extra/themes/mono/../../../../src/hal/../draw/../misc/lv_style.h ****     LV_STYLE_RADIUS                 = 11,
 193:Drivers/lvgl/src/extra/themes/mono/../../../../src/hal/../draw/../misc/lv_style.h **** 
 194:Drivers/lvgl/src/extra/themes/mono/../../../../src/hal/../draw/../misc/lv_style.h ****     /*Group 1*/
 195:Drivers/lvgl/src/extra/themes/mono/../../../../src/hal/../draw/../misc/lv_style.h ****     LV_STYLE_PAD_TOP                = 16,
 196:Drivers/lvgl/src/extra/themes/mono/../../../../src/hal/../draw/../misc/lv_style.h ****     LV_STYLE_PAD_BOTTOM             = 17,
 197:Drivers/lvgl/src/extra/themes/mono/../../../../src/hal/../draw/../misc/lv_style.h ****     LV_STYLE_PAD_LEFT               = 18,
 198:Drivers/lvgl/src/extra/themes/mono/../../../../src/hal/../draw/../misc/lv_style.h ****     LV_STYLE_PAD_RIGHT              = 19,
 199:Drivers/lvgl/src/extra/themes/mono/../../../../src/hal/../draw/../misc/lv_style.h ****     LV_STYLE_PAD_ROW                = 20,
 200:Drivers/lvgl/src/extra/themes/mono/../../../../src/hal/../draw/../misc/lv_style.h ****     LV_STYLE_PAD_COLUMN             = 21,
 201:Drivers/lvgl/src/extra/themes/mono/../../../../src/hal/../draw/../misc/lv_style.h ****     LV_STYLE_BASE_DIR               = 22,
 202:Drivers/lvgl/src/extra/themes/mono/../../../../src/hal/../draw/../misc/lv_style.h ****     LV_STYLE_CLIP_CORNER            = 23,
 203:Drivers/lvgl/src/extra/themes/mono/../../../../src/hal/../draw/../misc/lv_style.h **** 
 204:Drivers/lvgl/src/extra/themes/mono/../../../../src/hal/../draw/../misc/lv_style.h ****     /*Group 2*/
 205:Drivers/lvgl/src/extra/themes/mono/../../../../src/hal/../draw/../misc/lv_style.h ****     LV_STYLE_BG_COLOR               = 32,
 206:Drivers/lvgl/src/extra/themes/mono/../../../../src/hal/../draw/../misc/lv_style.h ****     LV_STYLE_BG_OPA                 = 33,
 207:Drivers/lvgl/src/extra/themes/mono/../../../../src/hal/../draw/../misc/lv_style.h ****     LV_STYLE_BG_GRAD_COLOR          = 34,
 208:Drivers/lvgl/src/extra/themes/mono/../../../../src/hal/../draw/../misc/lv_style.h ****     LV_STYLE_BG_GRAD_DIR            = 35,
 209:Drivers/lvgl/src/extra/themes/mono/../../../../src/hal/../draw/../misc/lv_style.h ****     LV_STYLE_BG_MAIN_STOP           = 36,
 210:Drivers/lvgl/src/extra/themes/mono/../../../../src/hal/../draw/../misc/lv_style.h ****     LV_STYLE_BG_GRAD_STOP           = 37,
 211:Drivers/lvgl/src/extra/themes/mono/../../../../src/hal/../draw/../misc/lv_style.h ****     LV_STYLE_BG_GRAD                = 38,
 212:Drivers/lvgl/src/extra/themes/mono/../../../../src/hal/../draw/../misc/lv_style.h ****     LV_STYLE_BG_DITHER_MODE         = 39,
 213:Drivers/lvgl/src/extra/themes/mono/../../../../src/hal/../draw/../misc/lv_style.h ****     LV_STYLE_BG_IMG_SRC             = 40,
 214:Drivers/lvgl/src/extra/themes/mono/../../../../src/hal/../draw/../misc/lv_style.h ****     LV_STYLE_BG_IMG_OPA             = 41,
 215:Drivers/lvgl/src/extra/themes/mono/../../../../src/hal/../draw/../misc/lv_style.h ****     LV_STYLE_BG_IMG_RECOLOR         = 42,
 216:Drivers/lvgl/src/extra/themes/mono/../../../../src/hal/../draw/../misc/lv_style.h ****     LV_STYLE_BG_IMG_RECOLOR_OPA     = 43,
 217:Drivers/lvgl/src/extra/themes/mono/../../../../src/hal/../draw/../misc/lv_style.h ****     LV_STYLE_BG_IMG_TILED           = 44,
 218:Drivers/lvgl/src/extra/themes/mono/../../../../src/hal/../draw/../misc/lv_style.h **** 
 219:Drivers/lvgl/src/extra/themes/mono/../../../../src/hal/../draw/../misc/lv_style.h ****     /*Group 3*/
 220:Drivers/lvgl/src/extra/themes/mono/../../../../src/hal/../draw/../misc/lv_style.h ****     LV_STYLE_BORDER_COLOR           = 48,
 221:Drivers/lvgl/src/extra/themes/mono/../../../../src/hal/../draw/../misc/lv_style.h ****     LV_STYLE_BORDER_OPA             = 49,
ARM GAS  /var/folders/lp/x54gwt890xv47sdkqj1k04q40000gn/T//cc7THuQy.s 			page 54


 222:Drivers/lvgl/src/extra/themes/mono/../../../../src/hal/../draw/../misc/lv_style.h ****     LV_STYLE_BORDER_WIDTH           = 50,
 223:Drivers/lvgl/src/extra/themes/mono/../../../../src/hal/../draw/../misc/lv_style.h ****     LV_STYLE_BORDER_SIDE            = 51,
 224:Drivers/lvgl/src/extra/themes/mono/../../../../src/hal/../draw/../misc/lv_style.h ****     LV_STYLE_BORDER_POST            = 52,
 225:Drivers/lvgl/src/extra/themes/mono/../../../../src/hal/../draw/../misc/lv_style.h ****     LV_STYLE_OUTLINE_WIDTH          = 53,
 226:Drivers/lvgl/src/extra/themes/mono/../../../../src/hal/../draw/../misc/lv_style.h ****     LV_STYLE_OUTLINE_COLOR          = 54,
 227:Drivers/lvgl/src/extra/themes/mono/../../../../src/hal/../draw/../misc/lv_style.h ****     LV_STYLE_OUTLINE_OPA            = 55,
 228:Drivers/lvgl/src/extra/themes/mono/../../../../src/hal/../draw/../misc/lv_style.h ****     LV_STYLE_OUTLINE_PAD            = 56,
 229:Drivers/lvgl/src/extra/themes/mono/../../../../src/hal/../draw/../misc/lv_style.h **** 
 230:Drivers/lvgl/src/extra/themes/mono/../../../../src/hal/../draw/../misc/lv_style.h ****     /*Group 4*/
 231:Drivers/lvgl/src/extra/themes/mono/../../../../src/hal/../draw/../misc/lv_style.h ****     LV_STYLE_SHADOW_WIDTH           = 64,
 232:Drivers/lvgl/src/extra/themes/mono/../../../../src/hal/../draw/../misc/lv_style.h ****     LV_STYLE_SHADOW_OFS_X           = 65,
 233:Drivers/lvgl/src/extra/themes/mono/../../../../src/hal/../draw/../misc/lv_style.h ****     LV_STYLE_SHADOW_OFS_Y           = 66,
 234:Drivers/lvgl/src/extra/themes/mono/../../../../src/hal/../draw/../misc/lv_style.h ****     LV_STYLE_SHADOW_SPREAD          = 67,
 235:Drivers/lvgl/src/extra/themes/mono/../../../../src/hal/../draw/../misc/lv_style.h ****     LV_STYLE_SHADOW_COLOR           = 68,
 236:Drivers/lvgl/src/extra/themes/mono/../../../../src/hal/../draw/../misc/lv_style.h ****     LV_STYLE_SHADOW_OPA             = 69,
 237:Drivers/lvgl/src/extra/themes/mono/../../../../src/hal/../draw/../misc/lv_style.h ****     LV_STYLE_IMG_OPA                = 70,
 238:Drivers/lvgl/src/extra/themes/mono/../../../../src/hal/../draw/../misc/lv_style.h ****     LV_STYLE_IMG_RECOLOR            = 71,
 239:Drivers/lvgl/src/extra/themes/mono/../../../../src/hal/../draw/../misc/lv_style.h ****     LV_STYLE_IMG_RECOLOR_OPA        = 72,
 240:Drivers/lvgl/src/extra/themes/mono/../../../../src/hal/../draw/../misc/lv_style.h ****     LV_STYLE_LINE_WIDTH             = 73,
 241:Drivers/lvgl/src/extra/themes/mono/../../../../src/hal/../draw/../misc/lv_style.h ****     LV_STYLE_LINE_DASH_WIDTH        = 74,
 242:Drivers/lvgl/src/extra/themes/mono/../../../../src/hal/../draw/../misc/lv_style.h ****     LV_STYLE_LINE_DASH_GAP          = 75,
 243:Drivers/lvgl/src/extra/themes/mono/../../../../src/hal/../draw/../misc/lv_style.h ****     LV_STYLE_LINE_ROUNDED           = 76,
 244:Drivers/lvgl/src/extra/themes/mono/../../../../src/hal/../draw/../misc/lv_style.h ****     LV_STYLE_LINE_COLOR             = 77,
 245:Drivers/lvgl/src/extra/themes/mono/../../../../src/hal/../draw/../misc/lv_style.h ****     LV_STYLE_LINE_OPA               = 78,
 246:Drivers/lvgl/src/extra/themes/mono/../../../../src/hal/../draw/../misc/lv_style.h **** 
 247:Drivers/lvgl/src/extra/themes/mono/../../../../src/hal/../draw/../misc/lv_style.h ****     /*Group 5*/
 248:Drivers/lvgl/src/extra/themes/mono/../../../../src/hal/../draw/../misc/lv_style.h ****     LV_STYLE_ARC_WIDTH              = 80,
 249:Drivers/lvgl/src/extra/themes/mono/../../../../src/hal/../draw/../misc/lv_style.h ****     LV_STYLE_ARC_ROUNDED            = 81,
 250:Drivers/lvgl/src/extra/themes/mono/../../../../src/hal/../draw/../misc/lv_style.h ****     LV_STYLE_ARC_COLOR              = 82,
 251:Drivers/lvgl/src/extra/themes/mono/../../../../src/hal/../draw/../misc/lv_style.h ****     LV_STYLE_ARC_OPA                = 83,
 252:Drivers/lvgl/src/extra/themes/mono/../../../../src/hal/../draw/../misc/lv_style.h ****     LV_STYLE_ARC_IMG_SRC            = 84,
 253:Drivers/lvgl/src/extra/themes/mono/../../../../src/hal/../draw/../misc/lv_style.h ****     LV_STYLE_TEXT_COLOR             = 85,
 254:Drivers/lvgl/src/extra/themes/mono/../../../../src/hal/../draw/../misc/lv_style.h ****     LV_STYLE_TEXT_OPA               = 86,
 255:Drivers/lvgl/src/extra/themes/mono/../../../../src/hal/../draw/../misc/lv_style.h ****     LV_STYLE_TEXT_FONT              = 87,
 256:Drivers/lvgl/src/extra/themes/mono/../../../../src/hal/../draw/../misc/lv_style.h ****     LV_STYLE_TEXT_LETTER_SPACE      = 88,
 257:Drivers/lvgl/src/extra/themes/mono/../../../../src/hal/../draw/../misc/lv_style.h ****     LV_STYLE_TEXT_LINE_SPACE        = 89,
 258:Drivers/lvgl/src/extra/themes/mono/../../../../src/hal/../draw/../misc/lv_style.h ****     LV_STYLE_TEXT_DECOR             = 90,
 259:Drivers/lvgl/src/extra/themes/mono/../../../../src/hal/../draw/../misc/lv_style.h ****     LV_STYLE_TEXT_ALIGN             = 91,
 260:Drivers/lvgl/src/extra/themes/mono/../../../../src/hal/../draw/../misc/lv_style.h **** 
 261:Drivers/lvgl/src/extra/themes/mono/../../../../src/hal/../draw/../misc/lv_style.h ****     /*Group 6*/
 262:Drivers/lvgl/src/extra/themes/mono/../../../../src/hal/../draw/../misc/lv_style.h ****     LV_STYLE_OPA                    = 96,
 263:Drivers/lvgl/src/extra/themes/mono/../../../../src/hal/../draw/../misc/lv_style.h ****     LV_STYLE_OPA_LAYERED            = 97,
 264:Drivers/lvgl/src/extra/themes/mono/../../../../src/hal/../draw/../misc/lv_style.h ****     LV_STYLE_COLOR_FILTER_DSC       = 98,
 265:Drivers/lvgl/src/extra/themes/mono/../../../../src/hal/../draw/../misc/lv_style.h ****     LV_STYLE_COLOR_FILTER_OPA       = 99,
 266:Drivers/lvgl/src/extra/themes/mono/../../../../src/hal/../draw/../misc/lv_style.h ****     LV_STYLE_ANIM                   = 100,
 267:Drivers/lvgl/src/extra/themes/mono/../../../../src/hal/../draw/../misc/lv_style.h ****     LV_STYLE_ANIM_TIME              = 101,
 268:Drivers/lvgl/src/extra/themes/mono/../../../../src/hal/../draw/../misc/lv_style.h ****     LV_STYLE_ANIM_SPEED             = 102,
 269:Drivers/lvgl/src/extra/themes/mono/../../../../src/hal/../draw/../misc/lv_style.h ****     LV_STYLE_TRANSITION             = 103,
 270:Drivers/lvgl/src/extra/themes/mono/../../../../src/hal/../draw/../misc/lv_style.h ****     LV_STYLE_BLEND_MODE             = 104,
 271:Drivers/lvgl/src/extra/themes/mono/../../../../src/hal/../draw/../misc/lv_style.h ****     LV_STYLE_TRANSFORM_WIDTH        = 105,
 272:Drivers/lvgl/src/extra/themes/mono/../../../../src/hal/../draw/../misc/lv_style.h ****     LV_STYLE_TRANSFORM_HEIGHT       = 106,
 273:Drivers/lvgl/src/extra/themes/mono/../../../../src/hal/../draw/../misc/lv_style.h ****     LV_STYLE_TRANSLATE_X            = 107,
 274:Drivers/lvgl/src/extra/themes/mono/../../../../src/hal/../draw/../misc/lv_style.h ****     LV_STYLE_TRANSLATE_Y            = 108,
 275:Drivers/lvgl/src/extra/themes/mono/../../../../src/hal/../draw/../misc/lv_style.h ****     LV_STYLE_TRANSFORM_ZOOM         = 109,
 276:Drivers/lvgl/src/extra/themes/mono/../../../../src/hal/../draw/../misc/lv_style.h ****     LV_STYLE_TRANSFORM_ANGLE        = 110,
 277:Drivers/lvgl/src/extra/themes/mono/../../../../src/hal/../draw/../misc/lv_style.h ****     LV_STYLE_TRANSFORM_PIVOT_X      = 111,
 278:Drivers/lvgl/src/extra/themes/mono/../../../../src/hal/../draw/../misc/lv_style.h ****     LV_STYLE_TRANSFORM_PIVOT_Y      = 112,
ARM GAS  /var/folders/lp/x54gwt890xv47sdkqj1k04q40000gn/T//cc7THuQy.s 			page 55


 279:Drivers/lvgl/src/extra/themes/mono/../../../../src/hal/../draw/../misc/lv_style.h **** 
 280:Drivers/lvgl/src/extra/themes/mono/../../../../src/hal/../draw/../misc/lv_style.h ****     _LV_STYLE_LAST_BUILT_IN_PROP     = 112,
 281:Drivers/lvgl/src/extra/themes/mono/../../../../src/hal/../draw/../misc/lv_style.h ****     _LV_STYLE_NUM_BUILT_IN_PROPS     = _LV_STYLE_LAST_BUILT_IN_PROP + 1,
 282:Drivers/lvgl/src/extra/themes/mono/../../../../src/hal/../draw/../misc/lv_style.h **** 
 283:Drivers/lvgl/src/extra/themes/mono/../../../../src/hal/../draw/../misc/lv_style.h ****     LV_STYLE_PROP_ANY                = 0xFFFF,
 284:Drivers/lvgl/src/extra/themes/mono/../../../../src/hal/../draw/../misc/lv_style.h ****     _LV_STYLE_PROP_CONST             = 0xFFFF /* magic value for const styles */
 285:Drivers/lvgl/src/extra/themes/mono/../../../../src/hal/../draw/../misc/lv_style.h **** } lv_style_prop_t;
 286:Drivers/lvgl/src/extra/themes/mono/../../../../src/hal/../draw/../misc/lv_style.h **** 
 287:Drivers/lvgl/src/extra/themes/mono/../../../../src/hal/../draw/../misc/lv_style.h **** enum {
 288:Drivers/lvgl/src/extra/themes/mono/../../../../src/hal/../draw/../misc/lv_style.h ****     LV_STYLE_RES_NOT_FOUND,
 289:Drivers/lvgl/src/extra/themes/mono/../../../../src/hal/../draw/../misc/lv_style.h ****     LV_STYLE_RES_FOUND,
 290:Drivers/lvgl/src/extra/themes/mono/../../../../src/hal/../draw/../misc/lv_style.h ****     LV_STYLE_RES_INHERIT
 291:Drivers/lvgl/src/extra/themes/mono/../../../../src/hal/../draw/../misc/lv_style.h **** };
 292:Drivers/lvgl/src/extra/themes/mono/../../../../src/hal/../draw/../misc/lv_style.h **** 
 293:Drivers/lvgl/src/extra/themes/mono/../../../../src/hal/../draw/../misc/lv_style.h **** typedef uint8_t lv_style_res_t;
 294:Drivers/lvgl/src/extra/themes/mono/../../../../src/hal/../draw/../misc/lv_style.h **** 
 295:Drivers/lvgl/src/extra/themes/mono/../../../../src/hal/../draw/../misc/lv_style.h **** /**
 296:Drivers/lvgl/src/extra/themes/mono/../../../../src/hal/../draw/../misc/lv_style.h ****  * Descriptor for style transitions
 297:Drivers/lvgl/src/extra/themes/mono/../../../../src/hal/../draw/../misc/lv_style.h ****  */
 298:Drivers/lvgl/src/extra/themes/mono/../../../../src/hal/../draw/../misc/lv_style.h **** typedef struct {
 299:Drivers/lvgl/src/extra/themes/mono/../../../../src/hal/../draw/../misc/lv_style.h ****     const lv_style_prop_t * props; /**< An array with the properties to animate.*/
 300:Drivers/lvgl/src/extra/themes/mono/../../../../src/hal/../draw/../misc/lv_style.h **** #if LV_USE_USER_DATA
 301:Drivers/lvgl/src/extra/themes/mono/../../../../src/hal/../draw/../misc/lv_style.h ****     void * user_data;              /**< A custom user data that will be passed to the animation's u
 302:Drivers/lvgl/src/extra/themes/mono/../../../../src/hal/../draw/../misc/lv_style.h **** #endif
 303:Drivers/lvgl/src/extra/themes/mono/../../../../src/hal/../draw/../misc/lv_style.h ****     lv_anim_path_cb_t path_xcb;     /**< A path for the animation.*/
 304:Drivers/lvgl/src/extra/themes/mono/../../../../src/hal/../draw/../misc/lv_style.h ****     uint32_t time;                 /**< Duration of the transition in [ms]*/
 305:Drivers/lvgl/src/extra/themes/mono/../../../../src/hal/../draw/../misc/lv_style.h ****     uint32_t delay;                /**< Delay before the transition in [ms]*/
 306:Drivers/lvgl/src/extra/themes/mono/../../../../src/hal/../draw/../misc/lv_style.h **** } lv_style_transition_dsc_t;
 307:Drivers/lvgl/src/extra/themes/mono/../../../../src/hal/../draw/../misc/lv_style.h **** 
 308:Drivers/lvgl/src/extra/themes/mono/../../../../src/hal/../draw/../misc/lv_style.h **** /**
 309:Drivers/lvgl/src/extra/themes/mono/../../../../src/hal/../draw/../misc/lv_style.h ****  * Descriptor of a constant style property.
 310:Drivers/lvgl/src/extra/themes/mono/../../../../src/hal/../draw/../misc/lv_style.h ****  */
 311:Drivers/lvgl/src/extra/themes/mono/../../../../src/hal/../draw/../misc/lv_style.h **** typedef struct {
 312:Drivers/lvgl/src/extra/themes/mono/../../../../src/hal/../draw/../misc/lv_style.h ****     lv_style_prop_t prop;
 313:Drivers/lvgl/src/extra/themes/mono/../../../../src/hal/../draw/../misc/lv_style.h ****     lv_style_value_t value;
 314:Drivers/lvgl/src/extra/themes/mono/../../../../src/hal/../draw/../misc/lv_style.h **** } lv_style_const_prop_t;
 315:Drivers/lvgl/src/extra/themes/mono/../../../../src/hal/../draw/../misc/lv_style.h **** 
 316:Drivers/lvgl/src/extra/themes/mono/../../../../src/hal/../draw/../misc/lv_style.h **** /**
 317:Drivers/lvgl/src/extra/themes/mono/../../../../src/hal/../draw/../misc/lv_style.h ****  * Descriptor of a style (a collection of properties and values).
 318:Drivers/lvgl/src/extra/themes/mono/../../../../src/hal/../draw/../misc/lv_style.h ****  */
 319:Drivers/lvgl/src/extra/themes/mono/../../../../src/hal/../draw/../misc/lv_style.h **** typedef struct {
 320:Drivers/lvgl/src/extra/themes/mono/../../../../src/hal/../draw/../misc/lv_style.h **** 
 321:Drivers/lvgl/src/extra/themes/mono/../../../../src/hal/../draw/../misc/lv_style.h **** #if LV_USE_ASSERT_STYLE
 322:Drivers/lvgl/src/extra/themes/mono/../../../../src/hal/../draw/../misc/lv_style.h ****     uint32_t sentinel;
 323:Drivers/lvgl/src/extra/themes/mono/../../../../src/hal/../draw/../misc/lv_style.h **** #endif
 324:Drivers/lvgl/src/extra/themes/mono/../../../../src/hal/../draw/../misc/lv_style.h **** 
 325:Drivers/lvgl/src/extra/themes/mono/../../../../src/hal/../draw/../misc/lv_style.h ****     /*If there is only one property store it directly.
 326:Drivers/lvgl/src/extra/themes/mono/../../../../src/hal/../draw/../misc/lv_style.h ****      *For more properties allocate an array*/
 327:Drivers/lvgl/src/extra/themes/mono/../../../../src/hal/../draw/../misc/lv_style.h ****     union {
 328:Drivers/lvgl/src/extra/themes/mono/../../../../src/hal/../draw/../misc/lv_style.h ****         lv_style_value_t value1;
 329:Drivers/lvgl/src/extra/themes/mono/../../../../src/hal/../draw/../misc/lv_style.h ****         uint8_t * values_and_props;
 330:Drivers/lvgl/src/extra/themes/mono/../../../../src/hal/../draw/../misc/lv_style.h ****         const lv_style_const_prop_t * const_props;
 331:Drivers/lvgl/src/extra/themes/mono/../../../../src/hal/../draw/../misc/lv_style.h ****     } v_p;
 332:Drivers/lvgl/src/extra/themes/mono/../../../../src/hal/../draw/../misc/lv_style.h **** 
 333:Drivers/lvgl/src/extra/themes/mono/../../../../src/hal/../draw/../misc/lv_style.h ****     uint16_t prop1;
 334:Drivers/lvgl/src/extra/themes/mono/../../../../src/hal/../draw/../misc/lv_style.h ****     uint8_t has_group;
 335:Drivers/lvgl/src/extra/themes/mono/../../../../src/hal/../draw/../misc/lv_style.h ****     uint8_t prop_cnt;
ARM GAS  /var/folders/lp/x54gwt890xv47sdkqj1k04q40000gn/T//cc7THuQy.s 			page 56


 336:Drivers/lvgl/src/extra/themes/mono/../../../../src/hal/../draw/../misc/lv_style.h **** } lv_style_t;
 337:Drivers/lvgl/src/extra/themes/mono/../../../../src/hal/../draw/../misc/lv_style.h **** 
 338:Drivers/lvgl/src/extra/themes/mono/../../../../src/hal/../draw/../misc/lv_style.h **** /**********************
 339:Drivers/lvgl/src/extra/themes/mono/../../../../src/hal/../draw/../misc/lv_style.h ****  * GLOBAL PROTOTYPES
 340:Drivers/lvgl/src/extra/themes/mono/../../../../src/hal/../draw/../misc/lv_style.h ****  **********************/
 341:Drivers/lvgl/src/extra/themes/mono/../../../../src/hal/../draw/../misc/lv_style.h **** 
 342:Drivers/lvgl/src/extra/themes/mono/../../../../src/hal/../draw/../misc/lv_style.h **** 
 343:Drivers/lvgl/src/extra/themes/mono/../../../../src/hal/../draw/../misc/lv_style.h **** /**
 344:Drivers/lvgl/src/extra/themes/mono/../../../../src/hal/../draw/../misc/lv_style.h ****  * Initialize a style
 345:Drivers/lvgl/src/extra/themes/mono/../../../../src/hal/../draw/../misc/lv_style.h ****  * @param style pointer to a style to initialize
 346:Drivers/lvgl/src/extra/themes/mono/../../../../src/hal/../draw/../misc/lv_style.h ****  * @note Do not call `lv_style_init` on styles that already have some properties
 347:Drivers/lvgl/src/extra/themes/mono/../../../../src/hal/../draw/../misc/lv_style.h ****  *       because this function won't free the used memory, just sets a default state for the style.
 348:Drivers/lvgl/src/extra/themes/mono/../../../../src/hal/../draw/../misc/lv_style.h ****  *       In other words be sure to initialize styles only once!
 349:Drivers/lvgl/src/extra/themes/mono/../../../../src/hal/../draw/../misc/lv_style.h ****  */
 350:Drivers/lvgl/src/extra/themes/mono/../../../../src/hal/../draw/../misc/lv_style.h **** void lv_style_init(lv_style_t * style);
 351:Drivers/lvgl/src/extra/themes/mono/../../../../src/hal/../draw/../misc/lv_style.h **** 
 352:Drivers/lvgl/src/extra/themes/mono/../../../../src/hal/../draw/../misc/lv_style.h **** /**
 353:Drivers/lvgl/src/extra/themes/mono/../../../../src/hal/../draw/../misc/lv_style.h ****  * Clear all properties from a style and free all allocated memories.
 354:Drivers/lvgl/src/extra/themes/mono/../../../../src/hal/../draw/../misc/lv_style.h ****  * @param style pointer to a style
 355:Drivers/lvgl/src/extra/themes/mono/../../../../src/hal/../draw/../misc/lv_style.h ****  */
 356:Drivers/lvgl/src/extra/themes/mono/../../../../src/hal/../draw/../misc/lv_style.h **** void lv_style_reset(lv_style_t * style);
 357:Drivers/lvgl/src/extra/themes/mono/../../../../src/hal/../draw/../misc/lv_style.h **** 
 358:Drivers/lvgl/src/extra/themes/mono/../../../../src/hal/../draw/../misc/lv_style.h **** /**
 359:Drivers/lvgl/src/extra/themes/mono/../../../../src/hal/../draw/../misc/lv_style.h ****  * Register a new style property for custom usage
 360:Drivers/lvgl/src/extra/themes/mono/../../../../src/hal/../draw/../misc/lv_style.h ****  * @return a new property ID, or LV_STYLE_PROP_INV if there are no more available.
 361:Drivers/lvgl/src/extra/themes/mono/../../../../src/hal/../draw/../misc/lv_style.h ****  * @example
 362:Drivers/lvgl/src/extra/themes/mono/../../../../src/hal/../draw/../misc/lv_style.h ****  * lv_style_prop_t MY_PROP;
 363:Drivers/lvgl/src/extra/themes/mono/../../../../src/hal/../draw/../misc/lv_style.h ****  * static inline void lv_style_set_my_prop(lv_style_t * style, lv_color_t value) {
 364:Drivers/lvgl/src/extra/themes/mono/../../../../src/hal/../draw/../misc/lv_style.h ****  * lv_style_value_t v = {.color = value}; lv_style_set_prop(style, MY_PROP, v); }
 365:Drivers/lvgl/src/extra/themes/mono/../../../../src/hal/../draw/../misc/lv_style.h ****  *
 366:Drivers/lvgl/src/extra/themes/mono/../../../../src/hal/../draw/../misc/lv_style.h ****  * ...
 367:Drivers/lvgl/src/extra/themes/mono/../../../../src/hal/../draw/../misc/lv_style.h ****  * MY_PROP = lv_style_register_prop();
 368:Drivers/lvgl/src/extra/themes/mono/../../../../src/hal/../draw/../misc/lv_style.h ****  * ...
 369:Drivers/lvgl/src/extra/themes/mono/../../../../src/hal/../draw/../misc/lv_style.h ****  * lv_style_set_my_prop(&style1, lv_palette_main(LV_PALETTE_RED));
 370:Drivers/lvgl/src/extra/themes/mono/../../../../src/hal/../draw/../misc/lv_style.h ****  */
 371:Drivers/lvgl/src/extra/themes/mono/../../../../src/hal/../draw/../misc/lv_style.h **** lv_style_prop_t lv_style_register_prop(uint8_t flag);
 372:Drivers/lvgl/src/extra/themes/mono/../../../../src/hal/../draw/../misc/lv_style.h **** 
 373:Drivers/lvgl/src/extra/themes/mono/../../../../src/hal/../draw/../misc/lv_style.h **** /**
 374:Drivers/lvgl/src/extra/themes/mono/../../../../src/hal/../draw/../misc/lv_style.h ****  * Get the number of custom properties that have been registered thus far.
 375:Drivers/lvgl/src/extra/themes/mono/../../../../src/hal/../draw/../misc/lv_style.h ****  */
 376:Drivers/lvgl/src/extra/themes/mono/../../../../src/hal/../draw/../misc/lv_style.h **** lv_style_prop_t lv_style_get_num_custom_props(void);
 377:Drivers/lvgl/src/extra/themes/mono/../../../../src/hal/../draw/../misc/lv_style.h **** 
 378:Drivers/lvgl/src/extra/themes/mono/../../../../src/hal/../draw/../misc/lv_style.h **** /**
 379:Drivers/lvgl/src/extra/themes/mono/../../../../src/hal/../draw/../misc/lv_style.h ****  * Remove a property from a style
 380:Drivers/lvgl/src/extra/themes/mono/../../../../src/hal/../draw/../misc/lv_style.h ****  * @param style pointer to a style
 381:Drivers/lvgl/src/extra/themes/mono/../../../../src/hal/../draw/../misc/lv_style.h ****  * @param prop  a style property ORed with a state.
 382:Drivers/lvgl/src/extra/themes/mono/../../../../src/hal/../draw/../misc/lv_style.h ****  * @return true: the property was found and removed; false: the property wasn't found
 383:Drivers/lvgl/src/extra/themes/mono/../../../../src/hal/../draw/../misc/lv_style.h ****  */
 384:Drivers/lvgl/src/extra/themes/mono/../../../../src/hal/../draw/../misc/lv_style.h **** bool lv_style_remove_prop(lv_style_t * style, lv_style_prop_t prop);
 385:Drivers/lvgl/src/extra/themes/mono/../../../../src/hal/../draw/../misc/lv_style.h **** 
 386:Drivers/lvgl/src/extra/themes/mono/../../../../src/hal/../draw/../misc/lv_style.h **** /**
 387:Drivers/lvgl/src/extra/themes/mono/../../../../src/hal/../draw/../misc/lv_style.h ****  * Set the value of property in a style.
 388:Drivers/lvgl/src/extra/themes/mono/../../../../src/hal/../draw/../misc/lv_style.h ****  * This function shouldn't be used directly by the user.
 389:Drivers/lvgl/src/extra/themes/mono/../../../../src/hal/../draw/../misc/lv_style.h ****  * Instead use `lv_style_set_<prop_name>()`. E.g. `lv_style_set_bg_color()`
 390:Drivers/lvgl/src/extra/themes/mono/../../../../src/hal/../draw/../misc/lv_style.h ****  * @param style pointer to style
 391:Drivers/lvgl/src/extra/themes/mono/../../../../src/hal/../draw/../misc/lv_style.h ****  * @param prop the ID of a property (e.g. `LV_STYLE_BG_COLOR`)
 392:Drivers/lvgl/src/extra/themes/mono/../../../../src/hal/../draw/../misc/lv_style.h ****  * @param value `lv_style_value_t` variable in which a field is set according to the type of `prop`
ARM GAS  /var/folders/lp/x54gwt890xv47sdkqj1k04q40000gn/T//cc7THuQy.s 			page 57


 393:Drivers/lvgl/src/extra/themes/mono/../../../../src/hal/../draw/../misc/lv_style.h ****  */
 394:Drivers/lvgl/src/extra/themes/mono/../../../../src/hal/../draw/../misc/lv_style.h **** void lv_style_set_prop(lv_style_t * style, lv_style_prop_t prop, lv_style_value_t value);
 395:Drivers/lvgl/src/extra/themes/mono/../../../../src/hal/../draw/../misc/lv_style.h **** 
 396:Drivers/lvgl/src/extra/themes/mono/../../../../src/hal/../draw/../misc/lv_style.h **** /**
 397:Drivers/lvgl/src/extra/themes/mono/../../../../src/hal/../draw/../misc/lv_style.h ****  * Set a special meta state for a property in a style.
 398:Drivers/lvgl/src/extra/themes/mono/../../../../src/hal/../draw/../misc/lv_style.h ****  * This function shouldn't be used directly by the user.
 399:Drivers/lvgl/src/extra/themes/mono/../../../../src/hal/../draw/../misc/lv_style.h ****  * @param style pointer to style
 400:Drivers/lvgl/src/extra/themes/mono/../../../../src/hal/../draw/../misc/lv_style.h ****  * @param prop the ID of a property (e.g. `LV_STYLE_BG_COLOR`)
 401:Drivers/lvgl/src/extra/themes/mono/../../../../src/hal/../draw/../misc/lv_style.h ****  * @param meta the meta value to attach to the property in the style
 402:Drivers/lvgl/src/extra/themes/mono/../../../../src/hal/../draw/../misc/lv_style.h ****  */
 403:Drivers/lvgl/src/extra/themes/mono/../../../../src/hal/../draw/../misc/lv_style.h **** void lv_style_set_prop_meta(lv_style_t * style, lv_style_prop_t prop, uint16_t meta);
 404:Drivers/lvgl/src/extra/themes/mono/../../../../src/hal/../draw/../misc/lv_style.h **** 
 405:Drivers/lvgl/src/extra/themes/mono/../../../../src/hal/../draw/../misc/lv_style.h **** /**
 406:Drivers/lvgl/src/extra/themes/mono/../../../../src/hal/../draw/../misc/lv_style.h ****  * Get the value of a property
 407:Drivers/lvgl/src/extra/themes/mono/../../../../src/hal/../draw/../misc/lv_style.h ****  * @param style pointer to a style
 408:Drivers/lvgl/src/extra/themes/mono/../../../../src/hal/../draw/../misc/lv_style.h ****  * @param prop  the ID of a property
 409:Drivers/lvgl/src/extra/themes/mono/../../../../src/hal/../draw/../misc/lv_style.h ****  * @param value pointer to a `lv_style_value_t` variable to store the value
 410:Drivers/lvgl/src/extra/themes/mono/../../../../src/hal/../draw/../misc/lv_style.h ****  * @return LV_RES_INV: the property wasn't found in the style (`value` is unchanged)
 411:Drivers/lvgl/src/extra/themes/mono/../../../../src/hal/../draw/../misc/lv_style.h ****  *         LV_RES_OK: the property was fond, and `value` is set accordingly
 412:Drivers/lvgl/src/extra/themes/mono/../../../../src/hal/../draw/../misc/lv_style.h ****  * @note For performance reasons there are no sanity check on `style`
 413:Drivers/lvgl/src/extra/themes/mono/../../../../src/hal/../draw/../misc/lv_style.h ****  */
 414:Drivers/lvgl/src/extra/themes/mono/../../../../src/hal/../draw/../misc/lv_style.h **** lv_style_res_t lv_style_get_prop(const lv_style_t * style, lv_style_prop_t prop, lv_style_value_t *
 415:Drivers/lvgl/src/extra/themes/mono/../../../../src/hal/../draw/../misc/lv_style.h **** 
 416:Drivers/lvgl/src/extra/themes/mono/../../../../src/hal/../draw/../misc/lv_style.h **** /**
 417:Drivers/lvgl/src/extra/themes/mono/../../../../src/hal/../draw/../misc/lv_style.h ****  * Initialize a transition descriptor.
 418:Drivers/lvgl/src/extra/themes/mono/../../../../src/hal/../draw/../misc/lv_style.h ****  * @param tr        pointer to a transition descriptor to initialize
 419:Drivers/lvgl/src/extra/themes/mono/../../../../src/hal/../draw/../misc/lv_style.h ****  * @param props     an array with the properties to transition. The last element must be zero.
 420:Drivers/lvgl/src/extra/themes/mono/../../../../src/hal/../draw/../misc/lv_style.h ****  * @param path_cb   an animation path (ease) callback. If `NULL` liner path will be used.
 421:Drivers/lvgl/src/extra/themes/mono/../../../../src/hal/../draw/../misc/lv_style.h ****  * @param time      duration of the transition in [ms]
 422:Drivers/lvgl/src/extra/themes/mono/../../../../src/hal/../draw/../misc/lv_style.h ****  * @param delay     delay before the transition in [ms]
 423:Drivers/lvgl/src/extra/themes/mono/../../../../src/hal/../draw/../misc/lv_style.h ****  * @param user_data any custom data that will be saved in the transition animation and will be avai
 424:Drivers/lvgl/src/extra/themes/mono/../../../../src/hal/../draw/../misc/lv_style.h ****  * @example
 425:Drivers/lvgl/src/extra/themes/mono/../../../../src/hal/../draw/../misc/lv_style.h ****  * const static lv_style_prop_t trans_props[] = { LV_STYLE_BG_OPA, LV_STYLE_BG_COLOR, 0 };
 426:Drivers/lvgl/src/extra/themes/mono/../../../../src/hal/../draw/../misc/lv_style.h ****  *  static lv_style_transition_dsc_t trans1;
 427:Drivers/lvgl/src/extra/themes/mono/../../../../src/hal/../draw/../misc/lv_style.h ****  *  lv_style_transition_dsc_init(&trans1, trans_props, NULL, 300, 0, NULL);
 428:Drivers/lvgl/src/extra/themes/mono/../../../../src/hal/../draw/../misc/lv_style.h ****  */
 429:Drivers/lvgl/src/extra/themes/mono/../../../../src/hal/../draw/../misc/lv_style.h **** void lv_style_transition_dsc_init(lv_style_transition_dsc_t * tr, const lv_style_prop_t props[],
 430:Drivers/lvgl/src/extra/themes/mono/../../../../src/hal/../draw/../misc/lv_style.h ****                                   lv_anim_path_cb_t path_cb, uint32_t time, uint32_t delay, void * 
 431:Drivers/lvgl/src/extra/themes/mono/../../../../src/hal/../draw/../misc/lv_style.h **** 
 432:Drivers/lvgl/src/extra/themes/mono/../../../../src/hal/../draw/../misc/lv_style.h **** /**
 433:Drivers/lvgl/src/extra/themes/mono/../../../../src/hal/../draw/../misc/lv_style.h ****  * Get the default value of a property
 434:Drivers/lvgl/src/extra/themes/mono/../../../../src/hal/../draw/../misc/lv_style.h ****  * @param prop the ID of a property
 435:Drivers/lvgl/src/extra/themes/mono/../../../../src/hal/../draw/../misc/lv_style.h ****  * @return the default value
 436:Drivers/lvgl/src/extra/themes/mono/../../../../src/hal/../draw/../misc/lv_style.h ****  */
 437:Drivers/lvgl/src/extra/themes/mono/../../../../src/hal/../draw/../misc/lv_style.h **** lv_style_value_t lv_style_prop_get_default(lv_style_prop_t prop);
 438:Drivers/lvgl/src/extra/themes/mono/../../../../src/hal/../draw/../misc/lv_style.h **** 
 439:Drivers/lvgl/src/extra/themes/mono/../../../../src/hal/../draw/../misc/lv_style.h **** /**
 440:Drivers/lvgl/src/extra/themes/mono/../../../../src/hal/../draw/../misc/lv_style.h ****  * Get the value of a property
 441:Drivers/lvgl/src/extra/themes/mono/../../../../src/hal/../draw/../misc/lv_style.h ****  * @param style pointer to a style
 442:Drivers/lvgl/src/extra/themes/mono/../../../../src/hal/../draw/../misc/lv_style.h ****  * @param prop  the ID of a property
 443:Drivers/lvgl/src/extra/themes/mono/../../../../src/hal/../draw/../misc/lv_style.h ****  * @param value pointer to a `lv_style_value_t` variable to store the value
 444:Drivers/lvgl/src/extra/themes/mono/../../../../src/hal/../draw/../misc/lv_style.h ****  * @return LV_RES_INV: the property wasn't found in the style (`value` is unchanged)
 445:Drivers/lvgl/src/extra/themes/mono/../../../../src/hal/../draw/../misc/lv_style.h ****  *         LV_RES_OK: the property was fond, and `value` is set accordingly
 446:Drivers/lvgl/src/extra/themes/mono/../../../../src/hal/../draw/../misc/lv_style.h ****  * @note For performance reasons there are no sanity check on `style`
 447:Drivers/lvgl/src/extra/themes/mono/../../../../src/hal/../draw/../misc/lv_style.h ****  * @note This function is the same as ::lv_style_get_prop but inlined. Use it only on performance c
 448:Drivers/lvgl/src/extra/themes/mono/../../../../src/hal/../draw/../misc/lv_style.h ****  */
 449:Drivers/lvgl/src/extra/themes/mono/../../../../src/hal/../draw/../misc/lv_style.h **** static inline lv_style_res_t lv_style_get_prop_inlined(const lv_style_t * style, lv_style_prop_t pr
ARM GAS  /var/folders/lp/x54gwt890xv47sdkqj1k04q40000gn/T//cc7THuQy.s 			page 58


 450:Drivers/lvgl/src/extra/themes/mono/../../../../src/hal/../draw/../misc/lv_style.h ****                                                        lv_style_value_t * value)
 451:Drivers/lvgl/src/extra/themes/mono/../../../../src/hal/../draw/../misc/lv_style.h **** {
 452:Drivers/lvgl/src/extra/themes/mono/../../../../src/hal/../draw/../misc/lv_style.h ****     if(style->prop1 == LV_STYLE_PROP_ANY) {
 453:Drivers/lvgl/src/extra/themes/mono/../../../../src/hal/../draw/../misc/lv_style.h ****         const lv_style_const_prop_t * const_prop;
 454:Drivers/lvgl/src/extra/themes/mono/../../../../src/hal/../draw/../misc/lv_style.h ****         uint32_t i;
 455:Drivers/lvgl/src/extra/themes/mono/../../../../src/hal/../draw/../misc/lv_style.h ****         for(i = 0; i < style->prop_cnt; i++) {
 456:Drivers/lvgl/src/extra/themes/mono/../../../../src/hal/../draw/../misc/lv_style.h ****             const_prop = style->v_p.const_props + i;
 457:Drivers/lvgl/src/extra/themes/mono/../../../../src/hal/../draw/../misc/lv_style.h ****             lv_style_prop_t prop_id = LV_STYLE_PROP_ID_MASK(const_prop->prop);
 458:Drivers/lvgl/src/extra/themes/mono/../../../../src/hal/../draw/../misc/lv_style.h ****             if(prop_id == prop) {
 459:Drivers/lvgl/src/extra/themes/mono/../../../../src/hal/../draw/../misc/lv_style.h ****                 if(const_prop->prop & LV_STYLE_PROP_META_INHERIT)
 460:Drivers/lvgl/src/extra/themes/mono/../../../../src/hal/../draw/../misc/lv_style.h ****                     return LV_STYLE_RES_INHERIT;
 461:Drivers/lvgl/src/extra/themes/mono/../../../../src/hal/../draw/../misc/lv_style.h ****                 *value = (const_prop->prop & LV_STYLE_PROP_META_INITIAL) ? lv_style_prop_get_defaul
 462:Drivers/lvgl/src/extra/themes/mono/../../../../src/hal/../draw/../misc/lv_style.h ****                 return LV_STYLE_RES_FOUND;
 463:Drivers/lvgl/src/extra/themes/mono/../../../../src/hal/../draw/../misc/lv_style.h ****             }
 464:Drivers/lvgl/src/extra/themes/mono/../../../../src/hal/../draw/../misc/lv_style.h ****         }
 465:Drivers/lvgl/src/extra/themes/mono/../../../../src/hal/../draw/../misc/lv_style.h ****         return LV_STYLE_RES_NOT_FOUND;
 466:Drivers/lvgl/src/extra/themes/mono/../../../../src/hal/../draw/../misc/lv_style.h ****     }
 467:Drivers/lvgl/src/extra/themes/mono/../../../../src/hal/../draw/../misc/lv_style.h **** 
 468:Drivers/lvgl/src/extra/themes/mono/../../../../src/hal/../draw/../misc/lv_style.h ****     if(style->prop_cnt == 0) return LV_STYLE_RES_NOT_FOUND;
 469:Drivers/lvgl/src/extra/themes/mono/../../../../src/hal/../draw/../misc/lv_style.h **** 
 470:Drivers/lvgl/src/extra/themes/mono/../../../../src/hal/../draw/../misc/lv_style.h ****     if(style->prop_cnt > 1) {
 471:Drivers/lvgl/src/extra/themes/mono/../../../../src/hal/../draw/../misc/lv_style.h ****         uint8_t * tmp = style->v_p.values_and_props + style->prop_cnt * sizeof(lv_style_value_t);
 472:Drivers/lvgl/src/extra/themes/mono/../../../../src/hal/../draw/../misc/lv_style.h ****         uint16_t * props = (uint16_t *)tmp;
 473:Drivers/lvgl/src/extra/themes/mono/../../../../src/hal/../draw/../misc/lv_style.h ****         uint32_t i;
 474:Drivers/lvgl/src/extra/themes/mono/../../../../src/hal/../draw/../misc/lv_style.h ****         for(i = 0; i < style->prop_cnt; i++) {
 475:Drivers/lvgl/src/extra/themes/mono/../../../../src/hal/../draw/../misc/lv_style.h ****             lv_style_prop_t prop_id = LV_STYLE_PROP_ID_MASK(props[i]);
 476:Drivers/lvgl/src/extra/themes/mono/../../../../src/hal/../draw/../misc/lv_style.h ****             if(prop_id == prop) {
 477:Drivers/lvgl/src/extra/themes/mono/../../../../src/hal/../draw/../misc/lv_style.h ****                 if(props[i] & LV_STYLE_PROP_META_INHERIT)
 478:Drivers/lvgl/src/extra/themes/mono/../../../../src/hal/../draw/../misc/lv_style.h ****                     return LV_STYLE_RES_INHERIT;
 479:Drivers/lvgl/src/extra/themes/mono/../../../../src/hal/../draw/../misc/lv_style.h ****                 if(props[i] & LV_STYLE_PROP_META_INITIAL)
 480:Drivers/lvgl/src/extra/themes/mono/../../../../src/hal/../draw/../misc/lv_style.h ****                     *value = lv_style_prop_get_default(prop_id);
 481:Drivers/lvgl/src/extra/themes/mono/../../../../src/hal/../draw/../misc/lv_style.h ****                 else {
 482:Drivers/lvgl/src/extra/themes/mono/../../../../src/hal/../draw/../misc/lv_style.h ****                     lv_style_value_t * values = (lv_style_value_t *)style->v_p.values_and_props;
 483:Drivers/lvgl/src/extra/themes/mono/../../../../src/hal/../draw/../misc/lv_style.h ****                     *value = values[i];
 484:Drivers/lvgl/src/extra/themes/mono/../../../../src/hal/../draw/../misc/lv_style.h ****                 }
 485:Drivers/lvgl/src/extra/themes/mono/../../../../src/hal/../draw/../misc/lv_style.h ****                 return LV_STYLE_RES_FOUND;
 486:Drivers/lvgl/src/extra/themes/mono/../../../../src/hal/../draw/../misc/lv_style.h ****             }
 487:Drivers/lvgl/src/extra/themes/mono/../../../../src/hal/../draw/../misc/lv_style.h ****         }
 488:Drivers/lvgl/src/extra/themes/mono/../../../../src/hal/../draw/../misc/lv_style.h ****     }
 489:Drivers/lvgl/src/extra/themes/mono/../../../../src/hal/../draw/../misc/lv_style.h ****     else if(LV_STYLE_PROP_ID_MASK(style->prop1) == prop) {
 490:Drivers/lvgl/src/extra/themes/mono/../../../../src/hal/../draw/../misc/lv_style.h ****         if(style->prop1 & LV_STYLE_PROP_META_INHERIT)
 491:Drivers/lvgl/src/extra/themes/mono/../../../../src/hal/../draw/../misc/lv_style.h ****             return LV_STYLE_RES_INHERIT;
 492:Drivers/lvgl/src/extra/themes/mono/../../../../src/hal/../draw/../misc/lv_style.h ****         *value = (style->prop1 & LV_STYLE_PROP_META_INITIAL) ? lv_style_prop_get_default(LV_STYLE_P
 493:Drivers/lvgl/src/extra/themes/mono/../../../../src/hal/../draw/../misc/lv_style.h ****                                                                                              style-
 494:Drivers/lvgl/src/extra/themes/mono/../../../../src/hal/../draw/../misc/lv_style.h ****         return LV_STYLE_RES_FOUND;
 495:Drivers/lvgl/src/extra/themes/mono/../../../../src/hal/../draw/../misc/lv_style.h ****     }
