ARM GAS  /var/folders/lp/x54gwt890xv47sdkqj1k04q40000gn/T//ccRSVnyw.s 			page 1


   1              		.cpu cortex-m4
   2              		.arch armv7e-m
   3              		.fpu fpv4-sp-d16
   4              		.eabi_attribute 27, 1
   5              		.eabi_attribute 28, 1
   6              		.eabi_attribute 20, 1
   7              		.eabi_attribute 21, 1
   8              		.eabi_attribute 23, 3
   9              		.eabi_attribute 24, 1
  10              		.eabi_attribute 25, 1
  11              		.eabi_attribute 26, 1
  12              		.eabi_attribute 30, 1
  13              		.eabi_attribute 34, 1
  14              		.eabi_attribute 18, 4
  15              		.file	"lv_tileview.c"
  16              		.text
  17              	.Ltext0:
  18              		.cfi_sections	.debug_frame
  19              		.file 1 "Drivers/lvgl/src/extra/widgets/tileview/lv_tileview.c"
  20              		.section	.text.lv_tileview_constructor,"ax",%progbits
  21              		.align	1
  22              		.syntax unified
  23              		.thumb
  24              		.thumb_func
  26              	lv_tileview_constructor:
  27              	.LVL0:
  28              	.LFB166:
   1:Drivers/lvgl/src/extra/widgets/tileview/lv_tileview.c **** /**
   2:Drivers/lvgl/src/extra/widgets/tileview/lv_tileview.c ****  * @file lv_tileview.c
   3:Drivers/lvgl/src/extra/widgets/tileview/lv_tileview.c ****  *
   4:Drivers/lvgl/src/extra/widgets/tileview/lv_tileview.c ****  */
   5:Drivers/lvgl/src/extra/widgets/tileview/lv_tileview.c **** 
   6:Drivers/lvgl/src/extra/widgets/tileview/lv_tileview.c **** /*********************
   7:Drivers/lvgl/src/extra/widgets/tileview/lv_tileview.c ****  *      INCLUDES
   8:Drivers/lvgl/src/extra/widgets/tileview/lv_tileview.c ****  *********************/
   9:Drivers/lvgl/src/extra/widgets/tileview/lv_tileview.c **** #include "lv_tileview.h"
  10:Drivers/lvgl/src/extra/widgets/tileview/lv_tileview.c **** #include "../../../core/lv_indev.h"
  11:Drivers/lvgl/src/extra/widgets/tileview/lv_tileview.c **** #if LV_USE_TILEVIEW
  12:Drivers/lvgl/src/extra/widgets/tileview/lv_tileview.c **** 
  13:Drivers/lvgl/src/extra/widgets/tileview/lv_tileview.c **** /*********************
  14:Drivers/lvgl/src/extra/widgets/tileview/lv_tileview.c ****  *      DEFINES
  15:Drivers/lvgl/src/extra/widgets/tileview/lv_tileview.c ****  *********************/
  16:Drivers/lvgl/src/extra/widgets/tileview/lv_tileview.c **** 
  17:Drivers/lvgl/src/extra/widgets/tileview/lv_tileview.c **** /**********************
  18:Drivers/lvgl/src/extra/widgets/tileview/lv_tileview.c ****  *      TYPEDEFS
  19:Drivers/lvgl/src/extra/widgets/tileview/lv_tileview.c ****  **********************/
  20:Drivers/lvgl/src/extra/widgets/tileview/lv_tileview.c **** 
  21:Drivers/lvgl/src/extra/widgets/tileview/lv_tileview.c **** /**********************
  22:Drivers/lvgl/src/extra/widgets/tileview/lv_tileview.c ****  *  STATIC PROTOTYPES
  23:Drivers/lvgl/src/extra/widgets/tileview/lv_tileview.c ****  **********************/
  24:Drivers/lvgl/src/extra/widgets/tileview/lv_tileview.c **** static void lv_tileview_constructor(const lv_obj_class_t * class_p, lv_obj_t * obj);
  25:Drivers/lvgl/src/extra/widgets/tileview/lv_tileview.c **** static void lv_tileview_tile_constructor(const lv_obj_class_t * class_p, lv_obj_t * obj);
  26:Drivers/lvgl/src/extra/widgets/tileview/lv_tileview.c **** static void tileview_event_cb(lv_event_t * e);
  27:Drivers/lvgl/src/extra/widgets/tileview/lv_tileview.c **** 
  28:Drivers/lvgl/src/extra/widgets/tileview/lv_tileview.c **** /**********************
  29:Drivers/lvgl/src/extra/widgets/tileview/lv_tileview.c ****  *  STATIC VARIABLES
  30:Drivers/lvgl/src/extra/widgets/tileview/lv_tileview.c ****  **********************/
ARM GAS  /var/folders/lp/x54gwt890xv47sdkqj1k04q40000gn/T//ccRSVnyw.s 			page 2


  31:Drivers/lvgl/src/extra/widgets/tileview/lv_tileview.c **** 
  32:Drivers/lvgl/src/extra/widgets/tileview/lv_tileview.c **** const lv_obj_class_t lv_tileview_class = {.constructor_cb = lv_tileview_constructor,
  33:Drivers/lvgl/src/extra/widgets/tileview/lv_tileview.c ****                                           .base_class = &lv_obj_class,
  34:Drivers/lvgl/src/extra/widgets/tileview/lv_tileview.c ****                                           .instance_size = sizeof(lv_tileview_t)
  35:Drivers/lvgl/src/extra/widgets/tileview/lv_tileview.c ****                                          };
  36:Drivers/lvgl/src/extra/widgets/tileview/lv_tileview.c **** 
  37:Drivers/lvgl/src/extra/widgets/tileview/lv_tileview.c **** const lv_obj_class_t lv_tileview_tile_class = {.constructor_cb = lv_tileview_tile_constructor,
  38:Drivers/lvgl/src/extra/widgets/tileview/lv_tileview.c ****                                                .base_class = &lv_obj_class,
  39:Drivers/lvgl/src/extra/widgets/tileview/lv_tileview.c ****                                                .instance_size = sizeof(lv_tileview_tile_t)
  40:Drivers/lvgl/src/extra/widgets/tileview/lv_tileview.c ****                                               };
  41:Drivers/lvgl/src/extra/widgets/tileview/lv_tileview.c **** 
  42:Drivers/lvgl/src/extra/widgets/tileview/lv_tileview.c **** static lv_dir_t create_dir;
  43:Drivers/lvgl/src/extra/widgets/tileview/lv_tileview.c **** static uint32_t create_col_id;
  44:Drivers/lvgl/src/extra/widgets/tileview/lv_tileview.c **** static uint32_t create_row_id;
  45:Drivers/lvgl/src/extra/widgets/tileview/lv_tileview.c **** 
  46:Drivers/lvgl/src/extra/widgets/tileview/lv_tileview.c **** /**********************
  47:Drivers/lvgl/src/extra/widgets/tileview/lv_tileview.c ****  *      MACROS
  48:Drivers/lvgl/src/extra/widgets/tileview/lv_tileview.c ****  **********************/
  49:Drivers/lvgl/src/extra/widgets/tileview/lv_tileview.c **** 
  50:Drivers/lvgl/src/extra/widgets/tileview/lv_tileview.c **** /**********************
  51:Drivers/lvgl/src/extra/widgets/tileview/lv_tileview.c ****  *   GLOBAL FUNCTIONS
  52:Drivers/lvgl/src/extra/widgets/tileview/lv_tileview.c ****  **********************/
  53:Drivers/lvgl/src/extra/widgets/tileview/lv_tileview.c **** 
  54:Drivers/lvgl/src/extra/widgets/tileview/lv_tileview.c **** lv_obj_t * lv_tileview_create(lv_obj_t * parent)
  55:Drivers/lvgl/src/extra/widgets/tileview/lv_tileview.c **** {
  56:Drivers/lvgl/src/extra/widgets/tileview/lv_tileview.c ****     LV_LOG_INFO("begin");
  57:Drivers/lvgl/src/extra/widgets/tileview/lv_tileview.c ****     lv_obj_t * obj = lv_obj_class_create_obj(&lv_tileview_class, parent);
  58:Drivers/lvgl/src/extra/widgets/tileview/lv_tileview.c ****     lv_obj_class_init_obj(obj);
  59:Drivers/lvgl/src/extra/widgets/tileview/lv_tileview.c ****     return obj;
  60:Drivers/lvgl/src/extra/widgets/tileview/lv_tileview.c **** }
  61:Drivers/lvgl/src/extra/widgets/tileview/lv_tileview.c **** 
  62:Drivers/lvgl/src/extra/widgets/tileview/lv_tileview.c **** /*======================
  63:Drivers/lvgl/src/extra/widgets/tileview/lv_tileview.c ****  * Add/remove functions
  64:Drivers/lvgl/src/extra/widgets/tileview/lv_tileview.c ****  *=====================*/
  65:Drivers/lvgl/src/extra/widgets/tileview/lv_tileview.c **** 
  66:Drivers/lvgl/src/extra/widgets/tileview/lv_tileview.c **** lv_obj_t * lv_tileview_add_tile(lv_obj_t * tv, uint8_t col_id, uint8_t row_id, lv_dir_t dir)
  67:Drivers/lvgl/src/extra/widgets/tileview/lv_tileview.c **** {
  68:Drivers/lvgl/src/extra/widgets/tileview/lv_tileview.c ****     LV_LOG_INFO("begin");
  69:Drivers/lvgl/src/extra/widgets/tileview/lv_tileview.c ****     create_dir = dir;
  70:Drivers/lvgl/src/extra/widgets/tileview/lv_tileview.c ****     create_col_id = col_id;
  71:Drivers/lvgl/src/extra/widgets/tileview/lv_tileview.c ****     create_row_id = row_id;
  72:Drivers/lvgl/src/extra/widgets/tileview/lv_tileview.c **** 
  73:Drivers/lvgl/src/extra/widgets/tileview/lv_tileview.c ****     lv_obj_t * obj = lv_obj_class_create_obj(&lv_tileview_tile_class, tv);
  74:Drivers/lvgl/src/extra/widgets/tileview/lv_tileview.c ****     lv_obj_class_init_obj(obj);
  75:Drivers/lvgl/src/extra/widgets/tileview/lv_tileview.c ****     return obj;
  76:Drivers/lvgl/src/extra/widgets/tileview/lv_tileview.c **** }
  77:Drivers/lvgl/src/extra/widgets/tileview/lv_tileview.c **** 
  78:Drivers/lvgl/src/extra/widgets/tileview/lv_tileview.c **** void lv_obj_set_tile(lv_obj_t * obj, lv_obj_t * tile_obj, lv_anim_enable_t anim_en)
  79:Drivers/lvgl/src/extra/widgets/tileview/lv_tileview.c **** {
  80:Drivers/lvgl/src/extra/widgets/tileview/lv_tileview.c ****     lv_coord_t tx = lv_obj_get_x(tile_obj);
  81:Drivers/lvgl/src/extra/widgets/tileview/lv_tileview.c ****     lv_coord_t ty = lv_obj_get_y(tile_obj);
  82:Drivers/lvgl/src/extra/widgets/tileview/lv_tileview.c **** 
  83:Drivers/lvgl/src/extra/widgets/tileview/lv_tileview.c ****     lv_tileview_tile_t * tile = (lv_tileview_tile_t *)tile_obj;
  84:Drivers/lvgl/src/extra/widgets/tileview/lv_tileview.c ****     lv_tileview_t * tv = (lv_tileview_t *) obj;
  85:Drivers/lvgl/src/extra/widgets/tileview/lv_tileview.c ****     tv->tile_act = (lv_obj_t *)tile;
  86:Drivers/lvgl/src/extra/widgets/tileview/lv_tileview.c **** 
  87:Drivers/lvgl/src/extra/widgets/tileview/lv_tileview.c ****     lv_obj_set_scroll_dir(obj, tile->dir);
ARM GAS  /var/folders/lp/x54gwt890xv47sdkqj1k04q40000gn/T//ccRSVnyw.s 			page 3


  88:Drivers/lvgl/src/extra/widgets/tileview/lv_tileview.c ****     lv_obj_scroll_to(obj, tx, ty, anim_en);
  89:Drivers/lvgl/src/extra/widgets/tileview/lv_tileview.c **** }
  90:Drivers/lvgl/src/extra/widgets/tileview/lv_tileview.c **** 
  91:Drivers/lvgl/src/extra/widgets/tileview/lv_tileview.c **** void lv_obj_set_tile_id(lv_obj_t * tv, uint32_t col_id, uint32_t row_id, lv_anim_enable_t anim_en)
  92:Drivers/lvgl/src/extra/widgets/tileview/lv_tileview.c **** {
  93:Drivers/lvgl/src/extra/widgets/tileview/lv_tileview.c ****     lv_obj_update_layout(tv);
  94:Drivers/lvgl/src/extra/widgets/tileview/lv_tileview.c **** 
  95:Drivers/lvgl/src/extra/widgets/tileview/lv_tileview.c ****     lv_coord_t w = lv_obj_get_content_width(tv);
  96:Drivers/lvgl/src/extra/widgets/tileview/lv_tileview.c ****     lv_coord_t h = lv_obj_get_content_height(tv);
  97:Drivers/lvgl/src/extra/widgets/tileview/lv_tileview.c **** 
  98:Drivers/lvgl/src/extra/widgets/tileview/lv_tileview.c ****     lv_coord_t tx = col_id * w;
  99:Drivers/lvgl/src/extra/widgets/tileview/lv_tileview.c ****     lv_coord_t ty = row_id * h;
 100:Drivers/lvgl/src/extra/widgets/tileview/lv_tileview.c **** 
 101:Drivers/lvgl/src/extra/widgets/tileview/lv_tileview.c ****     uint32_t i;
 102:Drivers/lvgl/src/extra/widgets/tileview/lv_tileview.c ****     for(i = 0; i < lv_obj_get_child_cnt(tv); i++) {
 103:Drivers/lvgl/src/extra/widgets/tileview/lv_tileview.c ****         lv_obj_t * tile_obj = lv_obj_get_child(tv, i);
 104:Drivers/lvgl/src/extra/widgets/tileview/lv_tileview.c ****         lv_coord_t x = lv_obj_get_x(tile_obj);
 105:Drivers/lvgl/src/extra/widgets/tileview/lv_tileview.c ****         lv_coord_t y = lv_obj_get_y(tile_obj);
 106:Drivers/lvgl/src/extra/widgets/tileview/lv_tileview.c ****         if(x == tx && y == ty) {
 107:Drivers/lvgl/src/extra/widgets/tileview/lv_tileview.c ****             lv_obj_set_tile(tv, tile_obj, anim_en);
 108:Drivers/lvgl/src/extra/widgets/tileview/lv_tileview.c ****             return;
 109:Drivers/lvgl/src/extra/widgets/tileview/lv_tileview.c ****         }
 110:Drivers/lvgl/src/extra/widgets/tileview/lv_tileview.c ****     }
 111:Drivers/lvgl/src/extra/widgets/tileview/lv_tileview.c **** 
 112:Drivers/lvgl/src/extra/widgets/tileview/lv_tileview.c ****     LV_LOG_WARN("No tile found with at (%d,%d) index", (int)col_id, (int)row_id);
 113:Drivers/lvgl/src/extra/widgets/tileview/lv_tileview.c **** }
 114:Drivers/lvgl/src/extra/widgets/tileview/lv_tileview.c **** 
 115:Drivers/lvgl/src/extra/widgets/tileview/lv_tileview.c **** lv_obj_t * lv_tileview_get_tile_act(lv_obj_t * obj)
 116:Drivers/lvgl/src/extra/widgets/tileview/lv_tileview.c **** {
 117:Drivers/lvgl/src/extra/widgets/tileview/lv_tileview.c ****     lv_tileview_t * tv = (lv_tileview_t *) obj;
 118:Drivers/lvgl/src/extra/widgets/tileview/lv_tileview.c ****     return tv->tile_act;
 119:Drivers/lvgl/src/extra/widgets/tileview/lv_tileview.c **** }
 120:Drivers/lvgl/src/extra/widgets/tileview/lv_tileview.c **** 
 121:Drivers/lvgl/src/extra/widgets/tileview/lv_tileview.c **** /**********************
 122:Drivers/lvgl/src/extra/widgets/tileview/lv_tileview.c ****  *   STATIC FUNCTIONS
 123:Drivers/lvgl/src/extra/widgets/tileview/lv_tileview.c ****  **********************/
 124:Drivers/lvgl/src/extra/widgets/tileview/lv_tileview.c **** 
 125:Drivers/lvgl/src/extra/widgets/tileview/lv_tileview.c **** static void lv_tileview_constructor(const lv_obj_class_t * class_p, lv_obj_t * obj)
 126:Drivers/lvgl/src/extra/widgets/tileview/lv_tileview.c **** {
  29              		.loc 1 126 1 view -0
  30              		.cfi_startproc
  31              		@ args = 0, pretend = 0, frame = 0
  32              		@ frame_needed = 0, uses_anonymous_args = 0
  33              		.loc 1 126 1 is_stmt 0 view .LVU1
  34 0000 10B5     		push	{r4, lr}
  35              		.cfi_def_cfa_offset 8
  36              		.cfi_offset 4, -8
  37              		.cfi_offset 14, -4
  38 0002 0C46     		mov	r4, r1
 127:Drivers/lvgl/src/extra/widgets/tileview/lv_tileview.c ****     LV_UNUSED(class_p);
  39              		.loc 1 127 5 is_stmt 1 view .LVU2
 128:Drivers/lvgl/src/extra/widgets/tileview/lv_tileview.c ****     lv_obj_set_size(obj, LV_PCT(100), LV_PCT(100));
  40              		.loc 1 128 5 view .LVU3
  41 0004 42F26402 		movw	r2, #8292
  42 0008 1146     		mov	r1, r2
  43              	.LVL1:
  44              		.loc 1 128 5 is_stmt 0 view .LVU4
ARM GAS  /var/folders/lp/x54gwt890xv47sdkqj1k04q40000gn/T//ccRSVnyw.s 			page 4


  45 000a 2046     		mov	r0, r4
  46              	.LVL2:
  47              		.loc 1 128 5 view .LVU5
  48 000c FFF7FEFF 		bl	lv_obj_set_size
  49              	.LVL3:
 129:Drivers/lvgl/src/extra/widgets/tileview/lv_tileview.c ****     lv_obj_add_event_cb(obj, tileview_event_cb, LV_EVENT_ALL, NULL);
  50              		.loc 1 129 5 is_stmt 1 view .LVU6
  51 0010 0023     		movs	r3, #0
  52 0012 1A46     		mov	r2, r3
  53 0014 0849     		ldr	r1, .L3
  54 0016 2046     		mov	r0, r4
  55 0018 FFF7FEFF 		bl	lv_obj_add_event_cb
  56              	.LVL4:
 130:Drivers/lvgl/src/extra/widgets/tileview/lv_tileview.c ****     lv_obj_add_flag(obj, LV_OBJ_FLAG_SCROLL_ONE);
  57              		.loc 1 130 5 view .LVU7
  58 001c 8021     		movs	r1, #128
  59 001e 2046     		mov	r0, r4
  60 0020 FFF7FEFF 		bl	lv_obj_add_flag
  61              	.LVL5:
 131:Drivers/lvgl/src/extra/widgets/tileview/lv_tileview.c ****     lv_obj_set_scroll_snap_x(obj, LV_SCROLL_SNAP_CENTER);
  62              		.loc 1 131 5 view .LVU8
  63 0024 0321     		movs	r1, #3
  64 0026 2046     		mov	r0, r4
  65 0028 FFF7FEFF 		bl	lv_obj_set_scroll_snap_x
  66              	.LVL6:
 132:Drivers/lvgl/src/extra/widgets/tileview/lv_tileview.c ****     lv_obj_set_scroll_snap_y(obj, LV_SCROLL_SNAP_CENTER);
  67              		.loc 1 132 5 view .LVU9
  68 002c 0321     		movs	r1, #3
  69 002e 2046     		mov	r0, r4
  70 0030 FFF7FEFF 		bl	lv_obj_set_scroll_snap_y
  71              	.LVL7:
 133:Drivers/lvgl/src/extra/widgets/tileview/lv_tileview.c **** 
 134:Drivers/lvgl/src/extra/widgets/tileview/lv_tileview.c **** }
  72              		.loc 1 134 1 is_stmt 0 view .LVU10
  73 0034 10BD     		pop	{r4, pc}
  74              	.LVL8:
  75              	.L4:
  76              		.loc 1 134 1 view .LVU11
  77 0036 00BF     		.align	2
  78              	.L3:
  79 0038 00000000 		.word	tileview_event_cb
  80              		.cfi_endproc
  81              	.LFE166:
  83              		.section	.text.tileview_event_cb,"ax",%progbits
  84              		.align	1
  85              		.syntax unified
  86              		.thumb
  87              		.thumb_func
  89              	tileview_event_cb:
  90              	.LVL9:
  91              	.LFB168:
 135:Drivers/lvgl/src/extra/widgets/tileview/lv_tileview.c **** 
 136:Drivers/lvgl/src/extra/widgets/tileview/lv_tileview.c **** static void lv_tileview_tile_constructor(const lv_obj_class_t * class_p, lv_obj_t * obj)
 137:Drivers/lvgl/src/extra/widgets/tileview/lv_tileview.c **** {
 138:Drivers/lvgl/src/extra/widgets/tileview/lv_tileview.c **** 
 139:Drivers/lvgl/src/extra/widgets/tileview/lv_tileview.c ****     LV_UNUSED(class_p);
 140:Drivers/lvgl/src/extra/widgets/tileview/lv_tileview.c ****     lv_obj_t * parent = lv_obj_get_parent(obj);
ARM GAS  /var/folders/lp/x54gwt890xv47sdkqj1k04q40000gn/T//ccRSVnyw.s 			page 5


 141:Drivers/lvgl/src/extra/widgets/tileview/lv_tileview.c ****     lv_obj_set_size(obj, LV_PCT(100), LV_PCT(100));
 142:Drivers/lvgl/src/extra/widgets/tileview/lv_tileview.c ****     lv_obj_update_layout(obj);  /*Be sure the size is correct*/
 143:Drivers/lvgl/src/extra/widgets/tileview/lv_tileview.c ****     lv_obj_set_pos(obj, create_col_id * lv_obj_get_content_width(parent),
 144:Drivers/lvgl/src/extra/widgets/tileview/lv_tileview.c ****                    create_row_id * lv_obj_get_content_height(parent));
 145:Drivers/lvgl/src/extra/widgets/tileview/lv_tileview.c **** 
 146:Drivers/lvgl/src/extra/widgets/tileview/lv_tileview.c ****     lv_tileview_tile_t * tile = (lv_tileview_tile_t *)obj;
 147:Drivers/lvgl/src/extra/widgets/tileview/lv_tileview.c ****     tile->dir = create_dir;
 148:Drivers/lvgl/src/extra/widgets/tileview/lv_tileview.c **** 
 149:Drivers/lvgl/src/extra/widgets/tileview/lv_tileview.c ****     if(create_col_id == 0 && create_row_id == 0) {
 150:Drivers/lvgl/src/extra/widgets/tileview/lv_tileview.c ****         lv_obj_set_scroll_dir(parent, create_dir);
 151:Drivers/lvgl/src/extra/widgets/tileview/lv_tileview.c ****     }
 152:Drivers/lvgl/src/extra/widgets/tileview/lv_tileview.c **** }
 153:Drivers/lvgl/src/extra/widgets/tileview/lv_tileview.c **** 
 154:Drivers/lvgl/src/extra/widgets/tileview/lv_tileview.c **** static void tileview_event_cb(lv_event_t * e)
 155:Drivers/lvgl/src/extra/widgets/tileview/lv_tileview.c **** {
  92              		.loc 1 155 1 is_stmt 1 view -0
  93              		.cfi_startproc
  94              		@ args = 0, pretend = 0, frame = 8
  95              		@ frame_needed = 0, uses_anonymous_args = 0
  96              		.loc 1 155 1 is_stmt 0 view .LVU13
  97 0000 2DE9F043 		push	{r4, r5, r6, r7, r8, r9, lr}
  98              		.cfi_def_cfa_offset 28
  99              		.cfi_offset 4, -28
 100              		.cfi_offset 5, -24
 101              		.cfi_offset 6, -20
 102              		.cfi_offset 7, -16
 103              		.cfi_offset 8, -12
 104              		.cfi_offset 9, -8
 105              		.cfi_offset 14, -4
 106 0004 83B0     		sub	sp, sp, #12
 107              		.cfi_def_cfa_offset 40
 108 0006 0546     		mov	r5, r0
 156:Drivers/lvgl/src/extra/widgets/tileview/lv_tileview.c ****     lv_event_code_t code = lv_event_get_code(e);
 109              		.loc 1 156 5 is_stmt 1 view .LVU14
 110              		.loc 1 156 28 is_stmt 0 view .LVU15
 111 0008 FFF7FEFF 		bl	lv_event_get_code
 112              	.LVL10:
 113              		.loc 1 156 28 view .LVU16
 114 000c 0446     		mov	r4, r0
 115              	.LVL11:
 157:Drivers/lvgl/src/extra/widgets/tileview/lv_tileview.c ****     lv_obj_t * obj = lv_event_get_target(e);
 116              		.loc 1 157 5 is_stmt 1 view .LVU17
 117              		.loc 1 157 22 is_stmt 0 view .LVU18
 118 000e 2846     		mov	r0, r5
 119 0010 FFF7FEFF 		bl	lv_event_get_target
 120              	.LVL12:
 158:Drivers/lvgl/src/extra/widgets/tileview/lv_tileview.c ****     lv_tileview_t * tv = (lv_tileview_t *) obj;
 121              		.loc 1 158 5 is_stmt 1 view .LVU19
 159:Drivers/lvgl/src/extra/widgets/tileview/lv_tileview.c **** 
 160:Drivers/lvgl/src/extra/widgets/tileview/lv_tileview.c ****     if(code == LV_EVENT_SCROLL_END) {
 122              		.loc 1 160 5 view .LVU20
 123              		.loc 1 160 7 is_stmt 0 view .LVU21
 124 0014 0A2C     		cmp	r4, #10
 125 0016 02D0     		beq	.L13
 126              	.LVL13:
 127              	.L5:
 161:Drivers/lvgl/src/extra/widgets/tileview/lv_tileview.c ****         lv_indev_t * indev = lv_indev_get_act();
ARM GAS  /var/folders/lp/x54gwt890xv47sdkqj1k04q40000gn/T//ccRSVnyw.s 			page 6


 162:Drivers/lvgl/src/extra/widgets/tileview/lv_tileview.c ****         if(indev && indev->proc.state == LV_INDEV_STATE_PRESSED) {
 163:Drivers/lvgl/src/extra/widgets/tileview/lv_tileview.c ****             return;
 164:Drivers/lvgl/src/extra/widgets/tileview/lv_tileview.c ****         }
 165:Drivers/lvgl/src/extra/widgets/tileview/lv_tileview.c **** 
 166:Drivers/lvgl/src/extra/widgets/tileview/lv_tileview.c ****         lv_coord_t w = lv_obj_get_content_width(obj);
 167:Drivers/lvgl/src/extra/widgets/tileview/lv_tileview.c ****         lv_coord_t h = lv_obj_get_content_height(obj);
 168:Drivers/lvgl/src/extra/widgets/tileview/lv_tileview.c **** 
 169:Drivers/lvgl/src/extra/widgets/tileview/lv_tileview.c ****         lv_point_t scroll_end;
 170:Drivers/lvgl/src/extra/widgets/tileview/lv_tileview.c ****         lv_obj_get_scroll_end(obj, &scroll_end);
 171:Drivers/lvgl/src/extra/widgets/tileview/lv_tileview.c ****         lv_coord_t left = scroll_end.x;
 172:Drivers/lvgl/src/extra/widgets/tileview/lv_tileview.c ****         lv_coord_t top = scroll_end.y;
 173:Drivers/lvgl/src/extra/widgets/tileview/lv_tileview.c **** 
 174:Drivers/lvgl/src/extra/widgets/tileview/lv_tileview.c ****         lv_coord_t tx = ((left + (w / 2)) / w) * w;
 175:Drivers/lvgl/src/extra/widgets/tileview/lv_tileview.c ****         lv_coord_t ty = ((top + (h / 2)) / h) * h;
 176:Drivers/lvgl/src/extra/widgets/tileview/lv_tileview.c **** 
 177:Drivers/lvgl/src/extra/widgets/tileview/lv_tileview.c ****         lv_dir_t dir = LV_DIR_ALL;
 178:Drivers/lvgl/src/extra/widgets/tileview/lv_tileview.c ****         uint32_t i;
 179:Drivers/lvgl/src/extra/widgets/tileview/lv_tileview.c ****         for(i = 0; i < lv_obj_get_child_cnt(obj); i++) {
 180:Drivers/lvgl/src/extra/widgets/tileview/lv_tileview.c ****             lv_obj_t * tile_obj = lv_obj_get_child(obj, i);
 181:Drivers/lvgl/src/extra/widgets/tileview/lv_tileview.c ****             lv_coord_t x = lv_obj_get_x(tile_obj);
 182:Drivers/lvgl/src/extra/widgets/tileview/lv_tileview.c ****             lv_coord_t y = lv_obj_get_y(tile_obj);
 183:Drivers/lvgl/src/extra/widgets/tileview/lv_tileview.c ****             if(x == tx && y == ty) {
 184:Drivers/lvgl/src/extra/widgets/tileview/lv_tileview.c ****                 lv_tileview_tile_t * tile = (lv_tileview_tile_t *)tile_obj;
 185:Drivers/lvgl/src/extra/widgets/tileview/lv_tileview.c ****                 tv->tile_act = (lv_obj_t *)tile;
 186:Drivers/lvgl/src/extra/widgets/tileview/lv_tileview.c ****                 dir = tile->dir;
 187:Drivers/lvgl/src/extra/widgets/tileview/lv_tileview.c ****                 lv_event_send(obj, LV_EVENT_VALUE_CHANGED, NULL);
 188:Drivers/lvgl/src/extra/widgets/tileview/lv_tileview.c ****                 break;
 189:Drivers/lvgl/src/extra/widgets/tileview/lv_tileview.c ****             }
 190:Drivers/lvgl/src/extra/widgets/tileview/lv_tileview.c ****         }
 191:Drivers/lvgl/src/extra/widgets/tileview/lv_tileview.c ****         lv_obj_set_scroll_dir(obj, dir);
 192:Drivers/lvgl/src/extra/widgets/tileview/lv_tileview.c ****     }
 193:Drivers/lvgl/src/extra/widgets/tileview/lv_tileview.c **** }
 128              		.loc 1 193 1 view .LVU22
 129 0018 03B0     		add	sp, sp, #12
 130              		.cfi_remember_state
 131              		.cfi_def_cfa_offset 28
 132              		@ sp needed
 133 001a BDE8F083 		pop	{r4, r5, r6, r7, r8, r9, pc}
 134              	.LVL14:
 135              	.L13:
 136              		.cfi_restore_state
 137              		.loc 1 193 1 view .LVU23
 138 001e 0746     		mov	r7, r0
 139              	.LBB2:
 161:Drivers/lvgl/src/extra/widgets/tileview/lv_tileview.c ****         lv_indev_t * indev = lv_indev_get_act();
 140              		.loc 1 161 9 is_stmt 1 view .LVU24
 161:Drivers/lvgl/src/extra/widgets/tileview/lv_tileview.c ****         lv_indev_t * indev = lv_indev_get_act();
 141              		.loc 1 161 30 is_stmt 0 view .LVU25
 142 0020 FFF7FEFF 		bl	lv_indev_get_act
 143              	.LVL15:
 162:Drivers/lvgl/src/extra/widgets/tileview/lv_tileview.c ****             return;
 144              		.loc 1 162 9 is_stmt 1 view .LVU26
 162:Drivers/lvgl/src/extra/widgets/tileview/lv_tileview.c ****             return;
 145              		.loc 1 162 11 is_stmt 0 view .LVU27
 146 0024 10B1     		cbz	r0, .L7
 162:Drivers/lvgl/src/extra/widgets/tileview/lv_tileview.c ****             return;
 147              		.loc 1 162 32 discriminator 1 view .LVU28
ARM GAS  /var/folders/lp/x54gwt890xv47sdkqj1k04q40000gn/T//ccRSVnyw.s 			page 7


 148 0026 0379     		ldrb	r3, [r0, #4]	@ zero_extendqisi2
 162:Drivers/lvgl/src/extra/widgets/tileview/lv_tileview.c ****             return;
 149              		.loc 1 162 18 discriminator 1 view .LVU29
 150 0028 012B     		cmp	r3, #1
 151 002a F5D0     		beq	.L5
 152              	.L7:
 166:Drivers/lvgl/src/extra/widgets/tileview/lv_tileview.c ****         lv_coord_t h = lv_obj_get_content_height(obj);
 153              		.loc 1 166 9 is_stmt 1 view .LVU30
 166:Drivers/lvgl/src/extra/widgets/tileview/lv_tileview.c ****         lv_coord_t h = lv_obj_get_content_height(obj);
 154              		.loc 1 166 24 is_stmt 0 view .LVU31
 155 002c 3846     		mov	r0, r7
 156              	.LVL16:
 166:Drivers/lvgl/src/extra/widgets/tileview/lv_tileview.c ****         lv_coord_t h = lv_obj_get_content_height(obj);
 157              		.loc 1 166 24 view .LVU32
 158 002e FFF7FEFF 		bl	lv_obj_get_content_width
 159              	.LVL17:
 160 0032 0546     		mov	r5, r0
 161              	.LVL18:
 167:Drivers/lvgl/src/extra/widgets/tileview/lv_tileview.c **** 
 162              		.loc 1 167 9 is_stmt 1 view .LVU33
 167:Drivers/lvgl/src/extra/widgets/tileview/lv_tileview.c **** 
 163              		.loc 1 167 24 is_stmt 0 view .LVU34
 164 0034 3846     		mov	r0, r7
 165 0036 FFF7FEFF 		bl	lv_obj_get_content_height
 166              	.LVL19:
 167 003a 0446     		mov	r4, r0
 168              	.LVL20:
 169:Drivers/lvgl/src/extra/widgets/tileview/lv_tileview.c ****         lv_obj_get_scroll_end(obj, &scroll_end);
 169              		.loc 1 169 9 is_stmt 1 view .LVU35
 170:Drivers/lvgl/src/extra/widgets/tileview/lv_tileview.c ****         lv_coord_t left = scroll_end.x;
 170              		.loc 1 170 9 view .LVU36
 171 003c 01A9     		add	r1, sp, #4
 172 003e 3846     		mov	r0, r7
 173 0040 FFF7FEFF 		bl	lv_obj_get_scroll_end
 174              	.LVL21:
 171:Drivers/lvgl/src/extra/widgets/tileview/lv_tileview.c ****         lv_coord_t top = scroll_end.y;
 175              		.loc 1 171 9 view .LVU37
 171:Drivers/lvgl/src/extra/widgets/tileview/lv_tileview.c ****         lv_coord_t top = scroll_end.y;
 176              		.loc 1 171 20 is_stmt 0 view .LVU38
 177 0044 BDF90480 		ldrsh	r8, [sp, #4]
 178              	.LVL22:
 172:Drivers/lvgl/src/extra/widgets/tileview/lv_tileview.c **** 
 179              		.loc 1 172 9 is_stmt 1 view .LVU39
 172:Drivers/lvgl/src/extra/widgets/tileview/lv_tileview.c **** 
 180              		.loc 1 172 20 is_stmt 0 view .LVU40
 181 0048 BDF90690 		ldrsh	r9, [sp, #6]
 182              	.LVL23:
 174:Drivers/lvgl/src/extra/widgets/tileview/lv_tileview.c ****         lv_coord_t ty = ((top + (h / 2)) / h) * h;
 183              		.loc 1 174 9 is_stmt 1 view .LVU41
 174:Drivers/lvgl/src/extra/widgets/tileview/lv_tileview.c ****         lv_coord_t ty = ((top + (h / 2)) / h) * h;
 184              		.loc 1 174 37 is_stmt 0 view .LVU42
 185 004c 05EBD573 		add	r3, r5, r5, lsr #31
 186 0050 43F34F03 		sbfx	r3, r3, #1, #16
 174:Drivers/lvgl/src/extra/widgets/tileview/lv_tileview.c ****         lv_coord_t ty = ((top + (h / 2)) / h) * h;
 187              		.loc 1 174 32 view .LVU43
 188 0054 9844     		add	r8, r8, r3
 174:Drivers/lvgl/src/extra/widgets/tileview/lv_tileview.c ****         lv_coord_t ty = ((top + (h / 2)) / h) * h;
ARM GAS  /var/folders/lp/x54gwt890xv47sdkqj1k04q40000gn/T//ccRSVnyw.s 			page 8


 189              		.loc 1 174 43 view .LVU44
 190 0056 98FBF5F8 		sdiv	r8, r8, r5
 174:Drivers/lvgl/src/extra/widgets/tileview/lv_tileview.c ****         lv_coord_t ty = ((top + (h / 2)) / h) * h;
 191              		.loc 1 174 20 view .LVU45
 192 005a 18FB05F8 		smulbb	r8, r8, r5
 193 005e 0FFA88F8 		sxth	r8, r8
 194              	.LVL24:
 175:Drivers/lvgl/src/extra/widgets/tileview/lv_tileview.c **** 
 195              		.loc 1 175 9 is_stmt 1 view .LVU46
 175:Drivers/lvgl/src/extra/widgets/tileview/lv_tileview.c **** 
 196              		.loc 1 175 36 is_stmt 0 view .LVU47
 197 0062 04EBD473 		add	r3, r4, r4, lsr #31
 198 0066 43F34F03 		sbfx	r3, r3, #1, #16
 175:Drivers/lvgl/src/extra/widgets/tileview/lv_tileview.c **** 
 199              		.loc 1 175 31 view .LVU48
 200 006a 9944     		add	r9, r9, r3
 175:Drivers/lvgl/src/extra/widgets/tileview/lv_tileview.c **** 
 201              		.loc 1 175 42 view .LVU49
 202 006c 99FBF4F9 		sdiv	r9, r9, r4
 175:Drivers/lvgl/src/extra/widgets/tileview/lv_tileview.c **** 
 203              		.loc 1 175 20 view .LVU50
 204 0070 19FB04F9 		smulbb	r9, r9, r4
 205 0074 0FFA89F9 		sxth	r9, r9
 206              	.LVL25:
 177:Drivers/lvgl/src/extra/widgets/tileview/lv_tileview.c ****         uint32_t i;
 207              		.loc 1 177 9 is_stmt 1 view .LVU51
 178:Drivers/lvgl/src/extra/widgets/tileview/lv_tileview.c ****         for(i = 0; i < lv_obj_get_child_cnt(obj); i++) {
 208              		.loc 1 178 9 view .LVU52
 179:Drivers/lvgl/src/extra/widgets/tileview/lv_tileview.c ****             lv_obj_t * tile_obj = lv_obj_get_child(obj, i);
 209              		.loc 1 179 9 view .LVU53
 179:Drivers/lvgl/src/extra/widgets/tileview/lv_tileview.c ****             lv_obj_t * tile_obj = lv_obj_get_child(obj, i);
 210              		.loc 1 179 15 is_stmt 0 view .LVU54
 211 0078 0024     		movs	r4, #0
 212              	.LVL26:
 179:Drivers/lvgl/src/extra/widgets/tileview/lv_tileview.c ****             lv_obj_t * tile_obj = lv_obj_get_child(obj, i);
 213              		.loc 1 179 9 view .LVU55
 214 007a 00E0     		b	.L8
 215              	.LVL27:
 216              	.L9:
 179:Drivers/lvgl/src/extra/widgets/tileview/lv_tileview.c ****             lv_obj_t * tile_obj = lv_obj_get_child(obj, i);
 217              		.loc 1 179 52 is_stmt 1 discriminator 2 view .LVU56
 218 007c 0134     		adds	r4, r4, #1
 219              	.LVL28:
 220              	.L8:
 179:Drivers/lvgl/src/extra/widgets/tileview/lv_tileview.c ****             lv_obj_t * tile_obj = lv_obj_get_child(obj, i);
 221              		.loc 1 179 22 discriminator 1 view .LVU57
 179:Drivers/lvgl/src/extra/widgets/tileview/lv_tileview.c ****             lv_obj_t * tile_obj = lv_obj_get_child(obj, i);
 222              		.loc 1 179 24 is_stmt 0 discriminator 1 view .LVU58
 223 007e 3846     		mov	r0, r7
 224 0080 FFF7FEFF 		bl	lv_obj_get_child_cnt
 225              	.LVL29:
 179:Drivers/lvgl/src/extra/widgets/tileview/lv_tileview.c ****             lv_obj_t * tile_obj = lv_obj_get_child(obj, i);
 226              		.loc 1 179 22 discriminator 1 view .LVU59
 227 0084 A042     		cmp	r0, r4
 228 0086 17D9     		bls	.L14
 229              	.LBB3:
 180:Drivers/lvgl/src/extra/widgets/tileview/lv_tileview.c ****             lv_coord_t x = lv_obj_get_x(tile_obj);
ARM GAS  /var/folders/lp/x54gwt890xv47sdkqj1k04q40000gn/T//ccRSVnyw.s 			page 9


 230              		.loc 1 180 13 is_stmt 1 view .LVU60
 180:Drivers/lvgl/src/extra/widgets/tileview/lv_tileview.c ****             lv_coord_t x = lv_obj_get_x(tile_obj);
 231              		.loc 1 180 35 is_stmt 0 view .LVU61
 232 0088 2146     		mov	r1, r4
 233 008a 3846     		mov	r0, r7
 234 008c FFF7FEFF 		bl	lv_obj_get_child
 235              	.LVL30:
 236 0090 0546     		mov	r5, r0
 237              	.LVL31:
 181:Drivers/lvgl/src/extra/widgets/tileview/lv_tileview.c ****             lv_coord_t y = lv_obj_get_y(tile_obj);
 238              		.loc 1 181 13 is_stmt 1 view .LVU62
 181:Drivers/lvgl/src/extra/widgets/tileview/lv_tileview.c ****             lv_coord_t y = lv_obj_get_y(tile_obj);
 239              		.loc 1 181 28 is_stmt 0 view .LVU63
 240 0092 FFF7FEFF 		bl	lv_obj_get_x
 241              	.LVL32:
 181:Drivers/lvgl/src/extra/widgets/tileview/lv_tileview.c ****             lv_coord_t y = lv_obj_get_y(tile_obj);
 242              		.loc 1 181 28 view .LVU64
 243 0096 0646     		mov	r6, r0
 244              	.LVL33:
 182:Drivers/lvgl/src/extra/widgets/tileview/lv_tileview.c ****             if(x == tx && y == ty) {
 245              		.loc 1 182 13 is_stmt 1 view .LVU65
 182:Drivers/lvgl/src/extra/widgets/tileview/lv_tileview.c ****             if(x == tx && y == ty) {
 246              		.loc 1 182 28 is_stmt 0 view .LVU66
 247 0098 2846     		mov	r0, r5
 248 009a FFF7FEFF 		bl	lv_obj_get_y
 249              	.LVL34:
 183:Drivers/lvgl/src/extra/widgets/tileview/lv_tileview.c ****                 lv_tileview_tile_t * tile = (lv_tileview_tile_t *)tile_obj;
 250              		.loc 1 183 13 is_stmt 1 view .LVU67
 183:Drivers/lvgl/src/extra/widgets/tileview/lv_tileview.c ****                 lv_tileview_tile_t * tile = (lv_tileview_tile_t *)tile_obj;
 251              		.loc 1 183 15 is_stmt 0 view .LVU68
 252 009e B045     		cmp	r8, r6
 253 00a0 ECD1     		bne	.L9
 183:Drivers/lvgl/src/extra/widgets/tileview/lv_tileview.c ****                 lv_tileview_tile_t * tile = (lv_tileview_tile_t *)tile_obj;
 254              		.loc 1 183 24 discriminator 1 view .LVU69
 255 00a2 8145     		cmp	r9, r0
 256 00a4 EAD1     		bne	.L9
 257              	.LBB4:
 184:Drivers/lvgl/src/extra/widgets/tileview/lv_tileview.c ****                 tv->tile_act = (lv_obj_t *)tile;
 258              		.loc 1 184 17 is_stmt 1 view .LVU70
 259              	.LVL35:
 185:Drivers/lvgl/src/extra/widgets/tileview/lv_tileview.c ****                 dir = tile->dir;
 260              		.loc 1 185 17 view .LVU71
 185:Drivers/lvgl/src/extra/widgets/tileview/lv_tileview.c ****                 dir = tile->dir;
 261              		.loc 1 185 30 is_stmt 0 view .LVU72
 262 00a6 7D62     		str	r5, [r7, #36]
 186:Drivers/lvgl/src/extra/widgets/tileview/lv_tileview.c ****                 lv_event_send(obj, LV_EVENT_VALUE_CHANGED, NULL);
 263              		.loc 1 186 17 is_stmt 1 view .LVU73
 186:Drivers/lvgl/src/extra/widgets/tileview/lv_tileview.c ****                 lv_event_send(obj, LV_EVENT_VALUE_CHANGED, NULL);
 264              		.loc 1 186 21 is_stmt 0 view .LVU74
 265 00a8 95F82440 		ldrb	r4, [r5, #36]	@ zero_extendqisi2
 266              	.LVL36:
 187:Drivers/lvgl/src/extra/widgets/tileview/lv_tileview.c ****                 break;
 267              		.loc 1 187 17 is_stmt 1 view .LVU75
 268 00ac 0022     		movs	r2, #0
 269 00ae 1C21     		movs	r1, #28
 270 00b0 3846     		mov	r0, r7
 271              	.LVL37:
ARM GAS  /var/folders/lp/x54gwt890xv47sdkqj1k04q40000gn/T//ccRSVnyw.s 			page 10


 187:Drivers/lvgl/src/extra/widgets/tileview/lv_tileview.c ****                 break;
 272              		.loc 1 187 17 is_stmt 0 view .LVU76
 273 00b2 FFF7FEFF 		bl	lv_event_send
 274              	.LVL38:
 188:Drivers/lvgl/src/extra/widgets/tileview/lv_tileview.c ****             }
 275              		.loc 1 188 17 is_stmt 1 view .LVU77
 276 00b6 00E0     		b	.L10
 277              	.LVL39:
 278              	.L14:
 188:Drivers/lvgl/src/extra/widgets/tileview/lv_tileview.c ****             }
 279              		.loc 1 188 17 is_stmt 0 view .LVU78
 280              	.LBE4:
 281              	.LBE3:
 177:Drivers/lvgl/src/extra/widgets/tileview/lv_tileview.c ****         uint32_t i;
 282              		.loc 1 177 18 view .LVU79
 283 00b8 0F24     		movs	r4, #15
 284              	.LVL40:
 285              	.L10:
 191:Drivers/lvgl/src/extra/widgets/tileview/lv_tileview.c ****     }
 286              		.loc 1 191 9 is_stmt 1 view .LVU80
 287 00ba 2146     		mov	r1, r4
 288 00bc 3846     		mov	r0, r7
 289 00be FFF7FEFF 		bl	lv_obj_set_scroll_dir
 290              	.LVL41:
 291 00c2 A9E7     		b	.L5
 292              	.LBE2:
 293              		.cfi_endproc
 294              	.LFE168:
 296              		.section	.text.lv_tileview_tile_constructor,"ax",%progbits
 297              		.align	1
 298              		.syntax unified
 299              		.thumb
 300              		.thumb_func
 302              	lv_tileview_tile_constructor:
 303              	.LVL42:
 304              	.LFB167:
 137:Drivers/lvgl/src/extra/widgets/tileview/lv_tileview.c **** 
 305              		.loc 1 137 1 view -0
 306              		.cfi_startproc
 307              		@ args = 0, pretend = 0, frame = 0
 308              		@ frame_needed = 0, uses_anonymous_args = 0
 137:Drivers/lvgl/src/extra/widgets/tileview/lv_tileview.c **** 
 309              		.loc 1 137 1 is_stmt 0 view .LVU82
 310 0000 F8B5     		push	{r3, r4, r5, r6, r7, lr}
 311              		.cfi_def_cfa_offset 24
 312              		.cfi_offset 3, -24
 313              		.cfi_offset 4, -20
 314              		.cfi_offset 5, -16
 315              		.cfi_offset 6, -12
 316              		.cfi_offset 7, -8
 317              		.cfi_offset 14, -4
 318 0002 0C46     		mov	r4, r1
 139:Drivers/lvgl/src/extra/widgets/tileview/lv_tileview.c ****     lv_obj_t * parent = lv_obj_get_parent(obj);
 319              		.loc 1 139 5 is_stmt 1 view .LVU83
 140:Drivers/lvgl/src/extra/widgets/tileview/lv_tileview.c ****     lv_obj_set_size(obj, LV_PCT(100), LV_PCT(100));
 320              		.loc 1 140 5 view .LVU84
 140:Drivers/lvgl/src/extra/widgets/tileview/lv_tileview.c ****     lv_obj_set_size(obj, LV_PCT(100), LV_PCT(100));
ARM GAS  /var/folders/lp/x54gwt890xv47sdkqj1k04q40000gn/T//ccRSVnyw.s 			page 11


 321              		.loc 1 140 25 is_stmt 0 view .LVU85
 322 0004 0846     		mov	r0, r1
 323              	.LVL43:
 140:Drivers/lvgl/src/extra/widgets/tileview/lv_tileview.c ****     lv_obj_set_size(obj, LV_PCT(100), LV_PCT(100));
 324              		.loc 1 140 25 view .LVU86
 325 0006 FFF7FEFF 		bl	lv_obj_get_parent
 326              	.LVL44:
 140:Drivers/lvgl/src/extra/widgets/tileview/lv_tileview.c ****     lv_obj_set_size(obj, LV_PCT(100), LV_PCT(100));
 327              		.loc 1 140 25 view .LVU87
 328 000a 0646     		mov	r6, r0
 329              	.LVL45:
 141:Drivers/lvgl/src/extra/widgets/tileview/lv_tileview.c ****     lv_obj_update_layout(obj);  /*Be sure the size is correct*/
 330              		.loc 1 141 5 is_stmt 1 view .LVU88
 331 000c 42F26402 		movw	r2, #8292
 332 0010 1146     		mov	r1, r2
 333 0012 2046     		mov	r0, r4
 334              	.LVL46:
 141:Drivers/lvgl/src/extra/widgets/tileview/lv_tileview.c ****     lv_obj_update_layout(obj);  /*Be sure the size is correct*/
 335              		.loc 1 141 5 is_stmt 0 view .LVU89
 336 0014 FFF7FEFF 		bl	lv_obj_set_size
 337              	.LVL47:
 142:Drivers/lvgl/src/extra/widgets/tileview/lv_tileview.c ****     lv_obj_set_pos(obj, create_col_id * lv_obj_get_content_width(parent),
 338              		.loc 1 142 5 is_stmt 1 view .LVU90
 339 0018 2046     		mov	r0, r4
 340 001a FFF7FEFF 		bl	lv_obj_update_layout
 341              	.LVL48:
 143:Drivers/lvgl/src/extra/widgets/tileview/lv_tileview.c ****                    create_row_id * lv_obj_get_content_height(parent));
 342              		.loc 1 143 5 view .LVU91
 143:Drivers/lvgl/src/extra/widgets/tileview/lv_tileview.c ****                    create_row_id * lv_obj_get_content_height(parent));
 343              		.loc 1 143 41 is_stmt 0 view .LVU92
 344 001e 3046     		mov	r0, r6
 345 0020 FFF7FEFF 		bl	lv_obj_get_content_width
 346              	.LVL49:
 143:Drivers/lvgl/src/extra/widgets/tileview/lv_tileview.c ****                    create_row_id * lv_obj_get_content_height(parent));
 347              		.loc 1 143 5 discriminator 1 view .LVU93
 348 0024 0F4F     		ldr	r7, .L19
 349 0026 3D68     		ldr	r5, [r7]
 350 0028 15FB00F5 		smulbb	r5, r5, r0
 351 002c 2DB2     		sxth	r5, r5
 144:Drivers/lvgl/src/extra/widgets/tileview/lv_tileview.c **** 
 352              		.loc 1 144 36 view .LVU94
 353 002e 3046     		mov	r0, r6
 354 0030 FFF7FEFF 		bl	lv_obj_get_content_height
 355              	.LVL50:
 143:Drivers/lvgl/src/extra/widgets/tileview/lv_tileview.c ****                    create_row_id * lv_obj_get_content_height(parent));
 356              		.loc 1 143 5 view .LVU95
 357 0034 0C4B     		ldr	r3, .L19+4
 358 0036 1A68     		ldr	r2, [r3]
 359 0038 12FB00F2 		smulbb	r2, r2, r0
 360 003c 12B2     		sxth	r2, r2
 361 003e 2946     		mov	r1, r5
 362 0040 2046     		mov	r0, r4
 363 0042 FFF7FEFF 		bl	lv_obj_set_pos
 364              	.LVL51:
 146:Drivers/lvgl/src/extra/widgets/tileview/lv_tileview.c ****     tile->dir = create_dir;
 365              		.loc 1 146 5 is_stmt 1 view .LVU96
 147:Drivers/lvgl/src/extra/widgets/tileview/lv_tileview.c **** 
ARM GAS  /var/folders/lp/x54gwt890xv47sdkqj1k04q40000gn/T//ccRSVnyw.s 			page 12


 366              		.loc 1 147 5 view .LVU97
 147:Drivers/lvgl/src/extra/widgets/tileview/lv_tileview.c **** 
 367              		.loc 1 147 15 is_stmt 0 view .LVU98
 368 0046 094B     		ldr	r3, .L19+8
 369 0048 1978     		ldrb	r1, [r3]	@ zero_extendqisi2
 370 004a 84F82410 		strb	r1, [r4, #36]
 149:Drivers/lvgl/src/extra/widgets/tileview/lv_tileview.c ****         lv_obj_set_scroll_dir(parent, create_dir);
 371              		.loc 1 149 5 is_stmt 1 view .LVU99
 149:Drivers/lvgl/src/extra/widgets/tileview/lv_tileview.c ****         lv_obj_set_scroll_dir(parent, create_dir);
 372              		.loc 1 149 22 is_stmt 0 view .LVU100
 373 004e 3B68     		ldr	r3, [r7]
 149:Drivers/lvgl/src/extra/widgets/tileview/lv_tileview.c ****         lv_obj_set_scroll_dir(parent, create_dir);
 374              		.loc 1 149 7 view .LVU101
 375 0050 13B9     		cbnz	r3, .L15
 149:Drivers/lvgl/src/extra/widgets/tileview/lv_tileview.c ****         lv_obj_set_scroll_dir(parent, create_dir);
 376              		.loc 1 149 44 discriminator 1 view .LVU102
 377 0052 054B     		ldr	r3, .L19+4
 378 0054 1B68     		ldr	r3, [r3]
 149:Drivers/lvgl/src/extra/widgets/tileview/lv_tileview.c ****         lv_obj_set_scroll_dir(parent, create_dir);
 379              		.loc 1 149 27 discriminator 1 view .LVU103
 380 0056 03B1     		cbz	r3, .L18
 381              	.L15:
 152:Drivers/lvgl/src/extra/widgets/tileview/lv_tileview.c **** 
 382              		.loc 1 152 1 view .LVU104
 383 0058 F8BD     		pop	{r3, r4, r5, r6, r7, pc}
 384              	.LVL52:
 385              	.L18:
 150:Drivers/lvgl/src/extra/widgets/tileview/lv_tileview.c ****     }
 386              		.loc 1 150 9 is_stmt 1 view .LVU105
 387 005a 3046     		mov	r0, r6
 388 005c FFF7FEFF 		bl	lv_obj_set_scroll_dir
 389              	.LVL53:
 152:Drivers/lvgl/src/extra/widgets/tileview/lv_tileview.c **** 
 390              		.loc 1 152 1 is_stmt 0 view .LVU106
 391 0060 FAE7     		b	.L15
 392              	.L20:
 393 0062 00BF     		.align	2
 394              	.L19:
 395 0064 00000000 		.word	create_col_id
 396 0068 00000000 		.word	create_row_id
 397 006c 00000000 		.word	create_dir
 398              		.cfi_endproc
 399              	.LFE167:
 401              		.section	.text.lv_tileview_create,"ax",%progbits
 402              		.align	1
 403              		.global	lv_tileview_create
 404              		.syntax unified
 405              		.thumb
 406              		.thumb_func
 408              	lv_tileview_create:
 409              	.LVL54:
 410              	.LFB161:
  55:Drivers/lvgl/src/extra/widgets/tileview/lv_tileview.c ****     LV_LOG_INFO("begin");
 411              		.loc 1 55 1 is_stmt 1 view -0
 412              		.cfi_startproc
 413              		@ args = 0, pretend = 0, frame = 0
 414              		@ frame_needed = 0, uses_anonymous_args = 0
ARM GAS  /var/folders/lp/x54gwt890xv47sdkqj1k04q40000gn/T//ccRSVnyw.s 			page 13


  55:Drivers/lvgl/src/extra/widgets/tileview/lv_tileview.c ****     LV_LOG_INFO("begin");
 415              		.loc 1 55 1 is_stmt 0 view .LVU108
 416 0000 10B5     		push	{r4, lr}
 417              		.cfi_def_cfa_offset 8
 418              		.cfi_offset 4, -8
 419              		.cfi_offset 14, -4
 420 0002 0146     		mov	r1, r0
  56:Drivers/lvgl/src/extra/widgets/tileview/lv_tileview.c ****     lv_obj_t * obj = lv_obj_class_create_obj(&lv_tileview_class, parent);
 421              		.loc 1 56 5 is_stmt 1 view .LVU109
  56:Drivers/lvgl/src/extra/widgets/tileview/lv_tileview.c ****     lv_obj_t * obj = lv_obj_class_create_obj(&lv_tileview_class, parent);
 422              		.loc 1 56 5 view .LVU110
  56:Drivers/lvgl/src/extra/widgets/tileview/lv_tileview.c ****     lv_obj_t * obj = lv_obj_class_create_obj(&lv_tileview_class, parent);
 423              		.loc 1 56 5 view .LVU111
  57:Drivers/lvgl/src/extra/widgets/tileview/lv_tileview.c ****     lv_obj_class_init_obj(obj);
 424              		.loc 1 57 5 view .LVU112
  57:Drivers/lvgl/src/extra/widgets/tileview/lv_tileview.c ****     lv_obj_class_init_obj(obj);
 425              		.loc 1 57 22 is_stmt 0 view .LVU113
 426 0004 0348     		ldr	r0, .L23
 427              	.LVL55:
  57:Drivers/lvgl/src/extra/widgets/tileview/lv_tileview.c ****     lv_obj_class_init_obj(obj);
 428              		.loc 1 57 22 view .LVU114
 429 0006 FFF7FEFF 		bl	lv_obj_class_create_obj
 430              	.LVL56:
  57:Drivers/lvgl/src/extra/widgets/tileview/lv_tileview.c ****     lv_obj_class_init_obj(obj);
 431              		.loc 1 57 22 view .LVU115
 432 000a 0446     		mov	r4, r0
 433              	.LVL57:
  58:Drivers/lvgl/src/extra/widgets/tileview/lv_tileview.c ****     return obj;
 434              		.loc 1 58 5 is_stmt 1 view .LVU116
 435 000c FFF7FEFF 		bl	lv_obj_class_init_obj
 436              	.LVL58:
  59:Drivers/lvgl/src/extra/widgets/tileview/lv_tileview.c **** }
 437              		.loc 1 59 5 view .LVU117
  60:Drivers/lvgl/src/extra/widgets/tileview/lv_tileview.c **** 
 438              		.loc 1 60 1 is_stmt 0 view .LVU118
 439 0010 2046     		mov	r0, r4
 440 0012 10BD     		pop	{r4, pc}
 441              	.LVL59:
 442              	.L24:
  60:Drivers/lvgl/src/extra/widgets/tileview/lv_tileview.c **** 
 443              		.loc 1 60 1 view .LVU119
 444              		.align	2
 445              	.L23:
 446 0014 00000000 		.word	lv_tileview_class
 447              		.cfi_endproc
 448              	.LFE161:
 450              		.section	.text.lv_tileview_add_tile,"ax",%progbits
 451              		.align	1
 452              		.global	lv_tileview_add_tile
 453              		.syntax unified
 454              		.thumb
 455              		.thumb_func
 457              	lv_tileview_add_tile:
 458              	.LVL60:
 459              	.LFB162:
  67:Drivers/lvgl/src/extra/widgets/tileview/lv_tileview.c ****     LV_LOG_INFO("begin");
 460              		.loc 1 67 1 is_stmt 1 view -0
ARM GAS  /var/folders/lp/x54gwt890xv47sdkqj1k04q40000gn/T//ccRSVnyw.s 			page 14


 461              		.cfi_startproc
 462              		@ args = 0, pretend = 0, frame = 0
 463              		@ frame_needed = 0, uses_anonymous_args = 0
  67:Drivers/lvgl/src/extra/widgets/tileview/lv_tileview.c ****     LV_LOG_INFO("begin");
 464              		.loc 1 67 1 is_stmt 0 view .LVU121
 465 0000 10B5     		push	{r4, lr}
 466              		.cfi_def_cfa_offset 8
 467              		.cfi_offset 4, -8
 468              		.cfi_offset 14, -4
  68:Drivers/lvgl/src/extra/widgets/tileview/lv_tileview.c ****     create_dir = dir;
 469              		.loc 1 68 5 is_stmt 1 view .LVU122
  68:Drivers/lvgl/src/extra/widgets/tileview/lv_tileview.c ****     create_dir = dir;
 470              		.loc 1 68 5 view .LVU123
  68:Drivers/lvgl/src/extra/widgets/tileview/lv_tileview.c ****     create_dir = dir;
 471              		.loc 1 68 5 view .LVU124
  69:Drivers/lvgl/src/extra/widgets/tileview/lv_tileview.c ****     create_col_id = col_id;
 472              		.loc 1 69 5 view .LVU125
  69:Drivers/lvgl/src/extra/widgets/tileview/lv_tileview.c ****     create_col_id = col_id;
 473              		.loc 1 69 16 is_stmt 0 view .LVU126
 474 0002 074C     		ldr	r4, .L27
 475 0004 2370     		strb	r3, [r4]
  70:Drivers/lvgl/src/extra/widgets/tileview/lv_tileview.c ****     create_row_id = row_id;
 476              		.loc 1 70 5 is_stmt 1 view .LVU127
  70:Drivers/lvgl/src/extra/widgets/tileview/lv_tileview.c ****     create_row_id = row_id;
 477              		.loc 1 70 19 is_stmt 0 view .LVU128
 478 0006 074B     		ldr	r3, .L27+4
 479              	.LVL61:
  70:Drivers/lvgl/src/extra/widgets/tileview/lv_tileview.c ****     create_row_id = row_id;
 480              		.loc 1 70 19 view .LVU129
 481 0008 1960     		str	r1, [r3]
  71:Drivers/lvgl/src/extra/widgets/tileview/lv_tileview.c **** 
 482              		.loc 1 71 5 is_stmt 1 view .LVU130
  71:Drivers/lvgl/src/extra/widgets/tileview/lv_tileview.c **** 
 483              		.loc 1 71 19 is_stmt 0 view .LVU131
 484 000a 074B     		ldr	r3, .L27+8
 485 000c 1A60     		str	r2, [r3]
  73:Drivers/lvgl/src/extra/widgets/tileview/lv_tileview.c ****     lv_obj_class_init_obj(obj);
 486              		.loc 1 73 5 is_stmt 1 view .LVU132
  73:Drivers/lvgl/src/extra/widgets/tileview/lv_tileview.c ****     lv_obj_class_init_obj(obj);
 487              		.loc 1 73 22 is_stmt 0 view .LVU133
 488 000e 0146     		mov	r1, r0
 489              	.LVL62:
  73:Drivers/lvgl/src/extra/widgets/tileview/lv_tileview.c ****     lv_obj_class_init_obj(obj);
 490              		.loc 1 73 22 view .LVU134
 491 0010 0648     		ldr	r0, .L27+12
 492              	.LVL63:
  73:Drivers/lvgl/src/extra/widgets/tileview/lv_tileview.c ****     lv_obj_class_init_obj(obj);
 493              		.loc 1 73 22 view .LVU135
 494 0012 FFF7FEFF 		bl	lv_obj_class_create_obj
 495              	.LVL64:
  73:Drivers/lvgl/src/extra/widgets/tileview/lv_tileview.c ****     lv_obj_class_init_obj(obj);
 496              		.loc 1 73 22 view .LVU136
 497 0016 0446     		mov	r4, r0
 498              	.LVL65:
  74:Drivers/lvgl/src/extra/widgets/tileview/lv_tileview.c ****     return obj;
 499              		.loc 1 74 5 is_stmt 1 view .LVU137
 500 0018 FFF7FEFF 		bl	lv_obj_class_init_obj
ARM GAS  /var/folders/lp/x54gwt890xv47sdkqj1k04q40000gn/T//ccRSVnyw.s 			page 15


 501              	.LVL66:
  75:Drivers/lvgl/src/extra/widgets/tileview/lv_tileview.c **** }
 502              		.loc 1 75 5 view .LVU138
  76:Drivers/lvgl/src/extra/widgets/tileview/lv_tileview.c **** 
 503              		.loc 1 76 1 is_stmt 0 view .LVU139
 504 001c 2046     		mov	r0, r4
 505 001e 10BD     		pop	{r4, pc}
 506              	.LVL67:
 507              	.L28:
  76:Drivers/lvgl/src/extra/widgets/tileview/lv_tileview.c **** 
 508              		.loc 1 76 1 view .LVU140
 509              		.align	2
 510              	.L27:
 511 0020 00000000 		.word	create_dir
 512 0024 00000000 		.word	create_col_id
 513 0028 00000000 		.word	create_row_id
 514 002c 00000000 		.word	lv_tileview_tile_class
 515              		.cfi_endproc
 516              	.LFE162:
 518              		.section	.text.lv_obj_set_tile,"ax",%progbits
 519              		.align	1
 520              		.global	lv_obj_set_tile
 521              		.syntax unified
 522              		.thumb
 523              		.thumb_func
 525              	lv_obj_set_tile:
 526              	.LVL68:
 527              	.LFB163:
  79:Drivers/lvgl/src/extra/widgets/tileview/lv_tileview.c ****     lv_coord_t tx = lv_obj_get_x(tile_obj);
 528              		.loc 1 79 1 is_stmt 1 view -0
 529              		.cfi_startproc
 530              		@ args = 0, pretend = 0, frame = 0
 531              		@ frame_needed = 0, uses_anonymous_args = 0
  79:Drivers/lvgl/src/extra/widgets/tileview/lv_tileview.c ****     lv_coord_t tx = lv_obj_get_x(tile_obj);
 532              		.loc 1 79 1 is_stmt 0 view .LVU142
 533 0000 2DE9F041 		push	{r4, r5, r6, r7, r8, lr}
 534              		.cfi_def_cfa_offset 24
 535              		.cfi_offset 4, -24
 536              		.cfi_offset 5, -20
 537              		.cfi_offset 6, -16
 538              		.cfi_offset 7, -12
 539              		.cfi_offset 8, -8
 540              		.cfi_offset 14, -4
 541 0004 0546     		mov	r5, r0
 542 0006 0C46     		mov	r4, r1
 543 0008 9046     		mov	r8, r2
  80:Drivers/lvgl/src/extra/widgets/tileview/lv_tileview.c ****     lv_coord_t ty = lv_obj_get_y(tile_obj);
 544              		.loc 1 80 5 is_stmt 1 view .LVU143
  80:Drivers/lvgl/src/extra/widgets/tileview/lv_tileview.c ****     lv_coord_t ty = lv_obj_get_y(tile_obj);
 545              		.loc 1 80 21 is_stmt 0 view .LVU144
 546 000a 0846     		mov	r0, r1
 547              	.LVL69:
  80:Drivers/lvgl/src/extra/widgets/tileview/lv_tileview.c ****     lv_coord_t ty = lv_obj_get_y(tile_obj);
 548              		.loc 1 80 21 view .LVU145
 549 000c FFF7FEFF 		bl	lv_obj_get_x
 550              	.LVL70:
  80:Drivers/lvgl/src/extra/widgets/tileview/lv_tileview.c ****     lv_coord_t ty = lv_obj_get_y(tile_obj);
ARM GAS  /var/folders/lp/x54gwt890xv47sdkqj1k04q40000gn/T//ccRSVnyw.s 			page 16


 551              		.loc 1 80 21 view .LVU146
 552 0010 0646     		mov	r6, r0
 553              	.LVL71:
  81:Drivers/lvgl/src/extra/widgets/tileview/lv_tileview.c **** 
 554              		.loc 1 81 5 is_stmt 1 view .LVU147
  81:Drivers/lvgl/src/extra/widgets/tileview/lv_tileview.c **** 
 555              		.loc 1 81 21 is_stmt 0 view .LVU148
 556 0012 2046     		mov	r0, r4
 557 0014 FFF7FEFF 		bl	lv_obj_get_y
 558              	.LVL72:
 559 0018 0746     		mov	r7, r0
 560              	.LVL73:
  83:Drivers/lvgl/src/extra/widgets/tileview/lv_tileview.c ****     lv_tileview_t * tv = (lv_tileview_t *) obj;
 561              		.loc 1 83 5 is_stmt 1 view .LVU149
  84:Drivers/lvgl/src/extra/widgets/tileview/lv_tileview.c ****     tv->tile_act = (lv_obj_t *)tile;
 562              		.loc 1 84 5 view .LVU150
  85:Drivers/lvgl/src/extra/widgets/tileview/lv_tileview.c **** 
 563              		.loc 1 85 5 view .LVU151
  85:Drivers/lvgl/src/extra/widgets/tileview/lv_tileview.c **** 
 564              		.loc 1 85 18 is_stmt 0 view .LVU152
 565 001a 6C62     		str	r4, [r5, #36]
  87:Drivers/lvgl/src/extra/widgets/tileview/lv_tileview.c ****     lv_obj_scroll_to(obj, tx, ty, anim_en);
 566              		.loc 1 87 5 is_stmt 1 view .LVU153
 567 001c 94F82410 		ldrb	r1, [r4, #36]	@ zero_extendqisi2
 568 0020 2846     		mov	r0, r5
 569 0022 FFF7FEFF 		bl	lv_obj_set_scroll_dir
 570              	.LVL74:
  88:Drivers/lvgl/src/extra/widgets/tileview/lv_tileview.c **** }
 571              		.loc 1 88 5 view .LVU154
 572 0026 4346     		mov	r3, r8
 573 0028 3A46     		mov	r2, r7
 574 002a 3146     		mov	r1, r6
 575 002c 2846     		mov	r0, r5
 576 002e FFF7FEFF 		bl	lv_obj_scroll_to
 577              	.LVL75:
  89:Drivers/lvgl/src/extra/widgets/tileview/lv_tileview.c **** 
 578              		.loc 1 89 1 is_stmt 0 view .LVU155
 579 0032 BDE8F081 		pop	{r4, r5, r6, r7, r8, pc}
  89:Drivers/lvgl/src/extra/widgets/tileview/lv_tileview.c **** 
 580              		.loc 1 89 1 view .LVU156
 581              		.cfi_endproc
 582              	.LFE163:
 584              		.section	.text.lv_obj_set_tile_id,"ax",%progbits
 585              		.align	1
 586              		.global	lv_obj_set_tile_id
 587              		.syntax unified
 588              		.thumb
 589              		.thumb_func
 591              	lv_obj_set_tile_id:
 592              	.LVL76:
 593              	.LFB164:
  92:Drivers/lvgl/src/extra/widgets/tileview/lv_tileview.c ****     lv_obj_update_layout(tv);
 594              		.loc 1 92 1 is_stmt 1 view -0
 595              		.cfi_startproc
 596              		@ args = 0, pretend = 0, frame = 0
 597              		@ frame_needed = 0, uses_anonymous_args = 0
  92:Drivers/lvgl/src/extra/widgets/tileview/lv_tileview.c ****     lv_obj_update_layout(tv);
ARM GAS  /var/folders/lp/x54gwt890xv47sdkqj1k04q40000gn/T//ccRSVnyw.s 			page 17


 598              		.loc 1 92 1 is_stmt 0 view .LVU158
 599 0000 2DE9F047 		push	{r4, r5, r6, r7, r8, r9, r10, lr}
 600              		.cfi_def_cfa_offset 32
 601              		.cfi_offset 4, -32
 602              		.cfi_offset 5, -28
 603              		.cfi_offset 6, -24
 604              		.cfi_offset 7, -20
 605              		.cfi_offset 8, -16
 606              		.cfi_offset 9, -12
 607              		.cfi_offset 10, -8
 608              		.cfi_offset 14, -4
 609 0004 0746     		mov	r7, r0
 610 0006 0D46     		mov	r5, r1
 611 0008 9146     		mov	r9, r2
 612 000a 9A46     		mov	r10, r3
  93:Drivers/lvgl/src/extra/widgets/tileview/lv_tileview.c **** 
 613              		.loc 1 93 5 is_stmt 1 view .LVU159
 614 000c FFF7FEFF 		bl	lv_obj_update_layout
 615              	.LVL77:
  95:Drivers/lvgl/src/extra/widgets/tileview/lv_tileview.c ****     lv_coord_t h = lv_obj_get_content_height(tv);
 616              		.loc 1 95 5 view .LVU160
  95:Drivers/lvgl/src/extra/widgets/tileview/lv_tileview.c ****     lv_coord_t h = lv_obj_get_content_height(tv);
 617              		.loc 1 95 20 is_stmt 0 view .LVU161
 618 0010 3846     		mov	r0, r7
 619 0012 FFF7FEFF 		bl	lv_obj_get_content_width
 620              	.LVL78:
 621 0016 8046     		mov	r8, r0
 622              	.LVL79:
  96:Drivers/lvgl/src/extra/widgets/tileview/lv_tileview.c **** 
 623              		.loc 1 96 5 is_stmt 1 view .LVU162
  96:Drivers/lvgl/src/extra/widgets/tileview/lv_tileview.c **** 
 624              		.loc 1 96 20 is_stmt 0 view .LVU163
 625 0018 3846     		mov	r0, r7
 626 001a FFF7FEFF 		bl	lv_obj_get_content_height
 627              	.LVL80:
  98:Drivers/lvgl/src/extra/widgets/tileview/lv_tileview.c ****     lv_coord_t ty = row_id * h;
 628              		.loc 1 98 5 is_stmt 1 view .LVU164
  98:Drivers/lvgl/src/extra/widgets/tileview/lv_tileview.c ****     lv_coord_t ty = row_id * h;
 629              		.loc 1 98 16 is_stmt 0 view .LVU165
 630 001e 18FB05F8 		smulbb	r8, r8, r5
 631              	.LVL81:
  98:Drivers/lvgl/src/extra/widgets/tileview/lv_tileview.c ****     lv_coord_t ty = row_id * h;
 632              		.loc 1 98 16 view .LVU166
 633 0022 0FFA88F8 		sxth	r8, r8
 634              	.LVL82:
  99:Drivers/lvgl/src/extra/widgets/tileview/lv_tileview.c **** 
 635              		.loc 1 99 5 is_stmt 1 view .LVU167
  99:Drivers/lvgl/src/extra/widgets/tileview/lv_tileview.c **** 
 636              		.loc 1 99 16 is_stmt 0 view .LVU168
 637 0026 10FB09F9 		smulbb	r9, r0, r9
 638              	.LVL83:
  99:Drivers/lvgl/src/extra/widgets/tileview/lv_tileview.c **** 
 639              		.loc 1 99 16 view .LVU169
 640 002a 0FFA89F9 		sxth	r9, r9
 641              	.LVL84:
 101:Drivers/lvgl/src/extra/widgets/tileview/lv_tileview.c ****     for(i = 0; i < lv_obj_get_child_cnt(tv); i++) {
 642              		.loc 1 101 5 is_stmt 1 view .LVU170
ARM GAS  /var/folders/lp/x54gwt890xv47sdkqj1k04q40000gn/T//ccRSVnyw.s 			page 18


 102:Drivers/lvgl/src/extra/widgets/tileview/lv_tileview.c ****         lv_obj_t * tile_obj = lv_obj_get_child(tv, i);
 643              		.loc 1 102 5 view .LVU171
 102:Drivers/lvgl/src/extra/widgets/tileview/lv_tileview.c ****         lv_obj_t * tile_obj = lv_obj_get_child(tv, i);
 644              		.loc 1 102 11 is_stmt 0 view .LVU172
 645 002e 0024     		movs	r4, #0
 102:Drivers/lvgl/src/extra/widgets/tileview/lv_tileview.c ****         lv_obj_t * tile_obj = lv_obj_get_child(tv, i);
 646              		.loc 1 102 5 view .LVU173
 647 0030 00E0     		b	.L32
 648              	.LVL85:
 649              	.L33:
 102:Drivers/lvgl/src/extra/widgets/tileview/lv_tileview.c ****         lv_obj_t * tile_obj = lv_obj_get_child(tv, i);
 650              		.loc 1 102 47 is_stmt 1 discriminator 2 view .LVU174
 651 0032 0134     		adds	r4, r4, #1
 652              	.LVL86:
 653              	.L32:
 102:Drivers/lvgl/src/extra/widgets/tileview/lv_tileview.c ****         lv_obj_t * tile_obj = lv_obj_get_child(tv, i);
 654              		.loc 1 102 18 discriminator 1 view .LVU175
 102:Drivers/lvgl/src/extra/widgets/tileview/lv_tileview.c ****         lv_obj_t * tile_obj = lv_obj_get_child(tv, i);
 655              		.loc 1 102 20 is_stmt 0 discriminator 1 view .LVU176
 656 0034 3846     		mov	r0, r7
 657 0036 FFF7FEFF 		bl	lv_obj_get_child_cnt
 658              	.LVL87:
 102:Drivers/lvgl/src/extra/widgets/tileview/lv_tileview.c ****         lv_obj_t * tile_obj = lv_obj_get_child(tv, i);
 659              		.loc 1 102 18 discriminator 1 view .LVU177
 660 003a A042     		cmp	r0, r4
 661 003c 13D9     		bls	.L31
 662              	.LBB5:
 103:Drivers/lvgl/src/extra/widgets/tileview/lv_tileview.c ****         lv_coord_t x = lv_obj_get_x(tile_obj);
 663              		.loc 1 103 9 is_stmt 1 view .LVU178
 103:Drivers/lvgl/src/extra/widgets/tileview/lv_tileview.c ****         lv_coord_t x = lv_obj_get_x(tile_obj);
 664              		.loc 1 103 31 is_stmt 0 view .LVU179
 665 003e 2146     		mov	r1, r4
 666 0040 3846     		mov	r0, r7
 667 0042 FFF7FEFF 		bl	lv_obj_get_child
 668              	.LVL88:
 669 0046 0546     		mov	r5, r0
 670              	.LVL89:
 104:Drivers/lvgl/src/extra/widgets/tileview/lv_tileview.c ****         lv_coord_t y = lv_obj_get_y(tile_obj);
 671              		.loc 1 104 9 is_stmt 1 view .LVU180
 104:Drivers/lvgl/src/extra/widgets/tileview/lv_tileview.c ****         lv_coord_t y = lv_obj_get_y(tile_obj);
 672              		.loc 1 104 24 is_stmt 0 view .LVU181
 673 0048 FFF7FEFF 		bl	lv_obj_get_x
 674              	.LVL90:
 104:Drivers/lvgl/src/extra/widgets/tileview/lv_tileview.c ****         lv_coord_t y = lv_obj_get_y(tile_obj);
 675              		.loc 1 104 24 view .LVU182
 676 004c 0646     		mov	r6, r0
 677              	.LVL91:
 105:Drivers/lvgl/src/extra/widgets/tileview/lv_tileview.c ****         if(x == tx && y == ty) {
 678              		.loc 1 105 9 is_stmt 1 view .LVU183
 105:Drivers/lvgl/src/extra/widgets/tileview/lv_tileview.c ****         if(x == tx && y == ty) {
 679              		.loc 1 105 24 is_stmt 0 view .LVU184
 680 004e 2846     		mov	r0, r5
 681 0050 FFF7FEFF 		bl	lv_obj_get_y
 682              	.LVL92:
 106:Drivers/lvgl/src/extra/widgets/tileview/lv_tileview.c ****             lv_obj_set_tile(tv, tile_obj, anim_en);
 683              		.loc 1 106 9 is_stmt 1 view .LVU185
 106:Drivers/lvgl/src/extra/widgets/tileview/lv_tileview.c ****             lv_obj_set_tile(tv, tile_obj, anim_en);
ARM GAS  /var/folders/lp/x54gwt890xv47sdkqj1k04q40000gn/T//ccRSVnyw.s 			page 19


 684              		.loc 1 106 11 is_stmt 0 view .LVU186
 685 0054 B045     		cmp	r8, r6
 686 0056 ECD1     		bne	.L33
 106:Drivers/lvgl/src/extra/widgets/tileview/lv_tileview.c ****             lv_obj_set_tile(tv, tile_obj, anim_en);
 687              		.loc 1 106 20 discriminator 1 view .LVU187
 688 0058 8145     		cmp	r9, r0
 689 005a EAD1     		bne	.L33
 107:Drivers/lvgl/src/extra/widgets/tileview/lv_tileview.c ****             return;
 690              		.loc 1 107 13 is_stmt 1 view .LVU188
 691 005c 5246     		mov	r2, r10
 692 005e 2946     		mov	r1, r5
 693 0060 3846     		mov	r0, r7
 694              	.LVL93:
 107:Drivers/lvgl/src/extra/widgets/tileview/lv_tileview.c ****             return;
 695              		.loc 1 107 13 is_stmt 0 view .LVU189
 696 0062 FFF7FEFF 		bl	lv_obj_set_tile
 697              	.LVL94:
 108:Drivers/lvgl/src/extra/widgets/tileview/lv_tileview.c ****         }
 698              		.loc 1 108 13 is_stmt 1 view .LVU190
 699              	.L31:
 108:Drivers/lvgl/src/extra/widgets/tileview/lv_tileview.c ****         }
 700              		.loc 1 108 13 is_stmt 0 view .LVU191
 701              	.LBE5:
 113:Drivers/lvgl/src/extra/widgets/tileview/lv_tileview.c **** 
 702              		.loc 1 113 1 view .LVU192
 703 0066 BDE8F087 		pop	{r4, r5, r6, r7, r8, r9, r10, pc}
 113:Drivers/lvgl/src/extra/widgets/tileview/lv_tileview.c **** 
 704              		.loc 1 113 1 view .LVU193
 705              		.cfi_endproc
 706              	.LFE164:
 708              		.section	.text.lv_tileview_get_tile_act,"ax",%progbits
 709              		.align	1
 710              		.global	lv_tileview_get_tile_act
 711              		.syntax unified
 712              		.thumb
 713              		.thumb_func
 715              	lv_tileview_get_tile_act:
 716              	.LVL95:
 717              	.LFB165:
 116:Drivers/lvgl/src/extra/widgets/tileview/lv_tileview.c ****     lv_tileview_t * tv = (lv_tileview_t *) obj;
 718              		.loc 1 116 1 is_stmt 1 view -0
 719              		.cfi_startproc
 720              		@ args = 0, pretend = 0, frame = 0
 721              		@ frame_needed = 0, uses_anonymous_args = 0
 722              		@ link register save eliminated.
 117:Drivers/lvgl/src/extra/widgets/tileview/lv_tileview.c ****     return tv->tile_act;
 723              		.loc 1 117 5 view .LVU195
 118:Drivers/lvgl/src/extra/widgets/tileview/lv_tileview.c **** }
 724              		.loc 1 118 5 view .LVU196
 119:Drivers/lvgl/src/extra/widgets/tileview/lv_tileview.c **** 
 725              		.loc 1 119 1 is_stmt 0 view .LVU197
 726 0000 406A     		ldr	r0, [r0, #36]
 727              	.LVL96:
 119:Drivers/lvgl/src/extra/widgets/tileview/lv_tileview.c **** 
 728              		.loc 1 119 1 view .LVU198
 729 0002 7047     		bx	lr
 730              		.cfi_endproc
ARM GAS  /var/folders/lp/x54gwt890xv47sdkqj1k04q40000gn/T//ccRSVnyw.s 			page 20


 731              	.LFE165:
 733              		.section	.bss.create_row_id,"aw",%nobits
 734              		.align	2
 737              	create_row_id:
 738 0000 00000000 		.space	4
 739              		.section	.bss.create_col_id,"aw",%nobits
 740              		.align	2
 743              	create_col_id:
 744 0000 00000000 		.space	4
 745              		.section	.bss.create_dir,"aw",%nobits
 748              	create_dir:
 749 0000 00       		.space	1
 750              		.global	lv_tileview_tile_class
 751              		.section	.rodata.lv_tileview_tile_class,"a"
 752              		.align	2
 755              	lv_tileview_tile_class:
 756 0000 00000000 		.word	lv_obj_class
 757 0004 00000000 		.word	lv_tileview_tile_constructor
 758 0008 00000000 		.space	16
 758      00000000 
 758      00000000 
 758      00000000 
 759 0018 80       		.byte	128
 760 0019 02       		.byte	2
 761 001a 00       		.byte	0
 762 001b 00       		.space	1
 763              		.global	lv_tileview_class
 764              		.section	.rodata.lv_tileview_class,"a"
 765              		.align	2
 768              	lv_tileview_class:
 769 0000 00000000 		.word	lv_obj_class
 770 0004 00000000 		.word	lv_tileview_constructor
 771 0008 00000000 		.space	16
 771      00000000 
 771      00000000 
 771      00000000 
 772 0018 80       		.byte	128
 773 0019 02       		.byte	2
 774 001a 00       		.byte	0
 775 001b 00       		.space	1
 776              		.text
 777              	.Letext0:
 778              		.file 2 "/Users/jr/Library/Application Support/Code/User/globalStorage/bmd.stm32-for-vscode/@xpack
 779              		.file 3 "/Users/jr/Library/Application Support/Code/User/globalStorage/bmd.stm32-for-vscode/@xpack
 780              		.file 4 "/Users/jr/Library/Application Support/Code/User/globalStorage/bmd.stm32-for-vscode/@xpack
 781              		.file 5 "Drivers/lvgl/src/extra/widgets/tileview/../../../core/../misc/../font/../misc/lv_area.h"
 782              		.file 6 "Drivers/lvgl/src/extra/widgets/tileview/../../../core/../misc/../font/lv_font.h"
 783              		.file 7 "Drivers/lvgl/src/extra/widgets/tileview/../../../core/../misc/lv_types.h"
 784              		.file 8 "Drivers/lvgl/src/extra/widgets/tileview/../../../core/../misc/lv_color.h"
 785              		.file 9 "Drivers/lvgl/src/extra/widgets/tileview/../../../core/../misc/lv_anim.h"
 786              		.file 10 "Drivers/lvgl/src/extra/widgets/tileview/../../../core/../misc/lv_txt.h"
 787              		.file 11 "Drivers/lvgl/src/extra/widgets/tileview/../../../core/../misc/lv_bidi.h"
 788              		.file 12 "Drivers/lvgl/src/extra/widgets/tileview/../../../core/../misc/lv_style.h"
 789              		.file 13 "Drivers/lvgl/src/extra/widgets/tileview/../../../core/../hal/../draw/lv_img_buf.h"
 790              		.file 14 "Drivers/lvgl/src/extra/widgets/tileview/../../../core/lv_obj.h"
 791              		.file 15 "Drivers/lvgl/src/extra/widgets/tileview/../../../core/../hal/../draw/lv_draw_rect.h"
 792              		.file 16 "Drivers/lvgl/src/extra/widgets/tileview/../../../core/../hal/../draw/lv_draw_label.h"
ARM GAS  /var/folders/lp/x54gwt890xv47sdkqj1k04q40000gn/T//ccRSVnyw.s 			page 21


 793              		.file 17 "Drivers/lvgl/src/extra/widgets/tileview/../../../core/../hal/../draw/lv_draw_img.h"
 794              		.file 18 "Drivers/lvgl/src/extra/widgets/tileview/../../../core/../hal/../draw/lv_draw_line.h"
 795              		.file 19 "Drivers/lvgl/src/extra/widgets/tileview/../../../core/../hal/../draw/lv_draw_arc.h"
 796              		.file 20 "Drivers/lvgl/src/extra/widgets/tileview/../../../core/../hal/../draw/lv_draw_layer.h"
 797              		.file 21 "Drivers/lvgl/src/extra/widgets/tileview/../../../core/../hal/../draw/lv_draw.h"
 798              		.file 22 "Drivers/lvgl/src/extra/widgets/tileview/../../../core/../hal/../misc/lv_ll.h"
 799              		.file 23 "Drivers/lvgl/src/extra/widgets/tileview/../../../core/../hal/../misc/lv_timer.h"
 800              		.file 24 "Drivers/lvgl/src/extra/widgets/tileview/../../../core/../hal/lv_hal_disp.h"
 801              		.file 25 "Drivers/lvgl/src/extra/widgets/tileview/../../../core/../hal/lv_hal_indev.h"
 802              		.file 26 "Drivers/lvgl/src/extra/widgets/tileview/../../../core/lv_group.h"
 803              		.file 27 "Drivers/lvgl/src/extra/widgets/tileview/../../../core/lv_obj_scroll.h"
 804              		.file 28 "Drivers/lvgl/src/extra/widgets/tileview/../../../core/lv_obj_style.h"
 805              		.file 29 "Drivers/lvgl/src/extra/widgets/tileview/../../../core/lv_obj_class.h"
 806              		.file 30 "Drivers/lvgl/src/extra/widgets/tileview/../../../core/lv_event.h"
 807              		.file 31 "Drivers/lvgl/src/extra/widgets/tileview/lv_tileview.h"
 808              		.file 32 "Drivers/lvgl/src/extra/widgets/tileview/../../../core/../hal/../draw/sw/../../core/lv_ob
 809              		.file 33 "Drivers/lvgl/src/extra/widgets/tileview/../../../core/lv_obj_tree.h"
 810              		.file 34 "Drivers/lvgl/src/extra/widgets/tileview/../../../core/lv_indev.h"
ARM GAS  /var/folders/lp/x54gwt890xv47sdkqj1k04q40000gn/T//ccRSVnyw.s 			page 22

