ARM GAS  /var/folders/lp/x54gwt890xv47sdkqj1k04q40000gn/T//ccL4ZsdQ.s 			page 1


   1              		.cpu cortex-m4
   2              		.arch armv7e-m
   3              		.fpu fpv4-sp-d16
   4              		.eabi_attribute 27, 1
   5              		.eabi_attribute 28, 1
   6              		.eabi_attribute 20, 1
   7              		.eabi_attribute 21, 1
   8              		.eabi_attribute 23, 3
   9              		.eabi_attribute 24, 1
  10              		.eabi_attribute 25, 1
  11              		.eabi_attribute 26, 1
  12              		.eabi_attribute 30, 1
  13              		.eabi_attribute 34, 1
  14              		.eabi_attribute 18, 4
  15              		.file	"qrcodegen.c"
  16              		.text
  17              	.Ltext0:
  18              		.cfi_sections	.debug_frame
  19              		.file 1 "Drivers/lvgl/src/extra/libs/qrcode/qrcodegen.c"
  20              		.section	.text.appendBitsToBuffer,"ax",%progbits
  21              		.align	1
  22              		.syntax unified
  23              		.thumb
  24              		.thumb_func
  26              	appendBitsToBuffer:
  27              	.LVL0:
  28              	.LFB3:
   1:Drivers/lvgl/src/extra/libs/qrcode/qrcodegen.c **** /*
   2:Drivers/lvgl/src/extra/libs/qrcode/qrcodegen.c ****  * QR Code generator library (C)
   3:Drivers/lvgl/src/extra/libs/qrcode/qrcodegen.c ****  *
   4:Drivers/lvgl/src/extra/libs/qrcode/qrcodegen.c ****  * Copyright (c) Project Nayuki. (MIT License)
   5:Drivers/lvgl/src/extra/libs/qrcode/qrcodegen.c ****  * https://www.nayuki.io/page/qr-code-generator-library
   6:Drivers/lvgl/src/extra/libs/qrcode/qrcodegen.c ****  *
   7:Drivers/lvgl/src/extra/libs/qrcode/qrcodegen.c ****  * Permission is hereby granted, free of charge, to any person obtaining a copy of
   8:Drivers/lvgl/src/extra/libs/qrcode/qrcodegen.c ****  * this software and associated documentation files (the "Software"), to deal in
   9:Drivers/lvgl/src/extra/libs/qrcode/qrcodegen.c ****  * the Software without restriction, including without limitation the rights to
  10:Drivers/lvgl/src/extra/libs/qrcode/qrcodegen.c ****  * use, copy, modify, merge, publish, distribute, sublicense, and/or sell copies of
  11:Drivers/lvgl/src/extra/libs/qrcode/qrcodegen.c ****  * the Software, and to permit persons to whom the Software is furnished to do so,
  12:Drivers/lvgl/src/extra/libs/qrcode/qrcodegen.c ****  * subject to the following conditions:
  13:Drivers/lvgl/src/extra/libs/qrcode/qrcodegen.c ****  * - The above copyright notice and this permission notice shall be included in
  14:Drivers/lvgl/src/extra/libs/qrcode/qrcodegen.c ****  *   all copies or substantial portions of the Software.
  15:Drivers/lvgl/src/extra/libs/qrcode/qrcodegen.c ****  * - The Software is provided "as is", without warranty of any kind, express or
  16:Drivers/lvgl/src/extra/libs/qrcode/qrcodegen.c ****  *   implied, including but not limited to the warranties of merchantability,
  17:Drivers/lvgl/src/extra/libs/qrcode/qrcodegen.c ****  *   fitness for a particular purpose and noninfringement. In no event shall the
  18:Drivers/lvgl/src/extra/libs/qrcode/qrcodegen.c ****  *   authors or copyright holders be liable for any claim, damages or other
  19:Drivers/lvgl/src/extra/libs/qrcode/qrcodegen.c ****  *   liability, whether in an action of contract, tort or otherwise, arising from,
  20:Drivers/lvgl/src/extra/libs/qrcode/qrcodegen.c ****  *   out of or in connection with the Software or the use or other dealings in the
  21:Drivers/lvgl/src/extra/libs/qrcode/qrcodegen.c ****  *   Software.
  22:Drivers/lvgl/src/extra/libs/qrcode/qrcodegen.c ****  */
  23:Drivers/lvgl/src/extra/libs/qrcode/qrcodegen.c **** 
  24:Drivers/lvgl/src/extra/libs/qrcode/qrcodegen.c **** #include <limits.h>
  25:Drivers/lvgl/src/extra/libs/qrcode/qrcodegen.c **** #include <stdlib.h>
  26:Drivers/lvgl/src/extra/libs/qrcode/qrcodegen.c **** #include <string.h>
  27:Drivers/lvgl/src/extra/libs/qrcode/qrcodegen.c **** #include "qrcodegen.h"
  28:Drivers/lvgl/src/extra/libs/qrcode/qrcodegen.c **** #include "../../../misc/lv_assert.h"
  29:Drivers/lvgl/src/extra/libs/qrcode/qrcodegen.c **** 
  30:Drivers/lvgl/src/extra/libs/qrcode/qrcodegen.c **** #ifndef QRCODEGEN_TEST
ARM GAS  /var/folders/lp/x54gwt890xv47sdkqj1k04q40000gn/T//ccL4ZsdQ.s 			page 2


  31:Drivers/lvgl/src/extra/libs/qrcode/qrcodegen.c **** 	#define testable static  // Keep functions private
  32:Drivers/lvgl/src/extra/libs/qrcode/qrcodegen.c **** #else
  33:Drivers/lvgl/src/extra/libs/qrcode/qrcodegen.c **** 	#define testable  // Expose private functions
  34:Drivers/lvgl/src/extra/libs/qrcode/qrcodegen.c **** #endif
  35:Drivers/lvgl/src/extra/libs/qrcode/qrcodegen.c **** 
  36:Drivers/lvgl/src/extra/libs/qrcode/qrcodegen.c **** 
  37:Drivers/lvgl/src/extra/libs/qrcode/qrcodegen.c **** /*---- Forward declarations for private functions ----*/
  38:Drivers/lvgl/src/extra/libs/qrcode/qrcodegen.c **** 
  39:Drivers/lvgl/src/extra/libs/qrcode/qrcodegen.c **** // Regarding all public and private functions defined in this source file:
  40:Drivers/lvgl/src/extra/libs/qrcode/qrcodegen.c **** // - They require all pointer/array arguments to be not null unless the array length is zero.
  41:Drivers/lvgl/src/extra/libs/qrcode/qrcodegen.c **** // - They only read input scalar/array arguments, write to output pointer/array
  42:Drivers/lvgl/src/extra/libs/qrcode/qrcodegen.c **** //   arguments, and return scalar values; they are "pure" functions.
  43:Drivers/lvgl/src/extra/libs/qrcode/qrcodegen.c **** // - They don't read mutable global variables or write to any global variables.
  44:Drivers/lvgl/src/extra/libs/qrcode/qrcodegen.c **** // - They don't perform I/O, read the clock, print to console, etc.
  45:Drivers/lvgl/src/extra/libs/qrcode/qrcodegen.c **** // - They allocate a small and constant amount of stack memory.
  46:Drivers/lvgl/src/extra/libs/qrcode/qrcodegen.c **** // - They don't allocate or free any memory on the heap.
  47:Drivers/lvgl/src/extra/libs/qrcode/qrcodegen.c **** // - They don't recurse or mutually recurse. All the code
  48:Drivers/lvgl/src/extra/libs/qrcode/qrcodegen.c **** //   could be inlined into the top-level public functions.
  49:Drivers/lvgl/src/extra/libs/qrcode/qrcodegen.c **** // - They run in at most quadratic time with respect to input arguments.
  50:Drivers/lvgl/src/extra/libs/qrcode/qrcodegen.c **** //   Most functions run in linear time, and some in constant time.
  51:Drivers/lvgl/src/extra/libs/qrcode/qrcodegen.c **** //   There are no unbounded loops or non-obvious termination conditions.
  52:Drivers/lvgl/src/extra/libs/qrcode/qrcodegen.c **** // - They are completely thread-safe if the caller does not give the
  53:Drivers/lvgl/src/extra/libs/qrcode/qrcodegen.c **** //   same writable buffer to concurrent calls to these functions.
  54:Drivers/lvgl/src/extra/libs/qrcode/qrcodegen.c **** 
  55:Drivers/lvgl/src/extra/libs/qrcode/qrcodegen.c **** testable void appendBitsToBuffer(unsigned int val, int numBits, uint8_t buffer[], int *bitLen);
  56:Drivers/lvgl/src/extra/libs/qrcode/qrcodegen.c **** 
  57:Drivers/lvgl/src/extra/libs/qrcode/qrcodegen.c **** testable void addEccAndInterleave(uint8_t data[], int version, enum qrcodegen_Ecc ecl, uint8_t resu
  58:Drivers/lvgl/src/extra/libs/qrcode/qrcodegen.c **** testable int getNumDataCodewords(int version, enum qrcodegen_Ecc ecl);
  59:Drivers/lvgl/src/extra/libs/qrcode/qrcodegen.c **** testable int getNumRawDataModules(int ver);
  60:Drivers/lvgl/src/extra/libs/qrcode/qrcodegen.c **** 
  61:Drivers/lvgl/src/extra/libs/qrcode/qrcodegen.c **** testable void calcReedSolomonGenerator(int degree, uint8_t result[]);
  62:Drivers/lvgl/src/extra/libs/qrcode/qrcodegen.c **** testable void calcReedSolomonRemainder(const uint8_t data[], int dataLen,
  63:Drivers/lvgl/src/extra/libs/qrcode/qrcodegen.c **** 	const uint8_t generator[], int degree, uint8_t result[]);
  64:Drivers/lvgl/src/extra/libs/qrcode/qrcodegen.c **** testable uint8_t finiteFieldMultiply(uint8_t x, uint8_t y);
  65:Drivers/lvgl/src/extra/libs/qrcode/qrcodegen.c **** 
  66:Drivers/lvgl/src/extra/libs/qrcode/qrcodegen.c **** testable void initializeFunctionModules(int version, uint8_t qrcode[]);
  67:Drivers/lvgl/src/extra/libs/qrcode/qrcodegen.c **** static void drawWhiteFunctionModules(uint8_t qrcode[], int version);
  68:Drivers/lvgl/src/extra/libs/qrcode/qrcodegen.c **** static void drawFormatBits(enum qrcodegen_Ecc ecl, enum qrcodegen_Mask mask, uint8_t qrcode[]);
  69:Drivers/lvgl/src/extra/libs/qrcode/qrcodegen.c **** testable int getAlignmentPatternPositions(int version, uint8_t result[7]);
  70:Drivers/lvgl/src/extra/libs/qrcode/qrcodegen.c **** static void fillRectangle(int left, int top, int width, int height, uint8_t qrcode[]);
  71:Drivers/lvgl/src/extra/libs/qrcode/qrcodegen.c **** 
  72:Drivers/lvgl/src/extra/libs/qrcode/qrcodegen.c **** static void drawCodewords(const uint8_t data[], int dataLen, uint8_t qrcode[]);
  73:Drivers/lvgl/src/extra/libs/qrcode/qrcodegen.c **** static void applyMask(const uint8_t functionModules[], uint8_t qrcode[], enum qrcodegen_Mask mask);
  74:Drivers/lvgl/src/extra/libs/qrcode/qrcodegen.c **** static long getPenaltyScore(const uint8_t qrcode[]);
  75:Drivers/lvgl/src/extra/libs/qrcode/qrcodegen.c **** static void addRunToHistory(unsigned char run, unsigned char history[7]);
  76:Drivers/lvgl/src/extra/libs/qrcode/qrcodegen.c **** static bool hasFinderLikePattern(const unsigned char runHistory[7]);
  77:Drivers/lvgl/src/extra/libs/qrcode/qrcodegen.c **** 
  78:Drivers/lvgl/src/extra/libs/qrcode/qrcodegen.c **** testable bool getModule(const uint8_t qrcode[], int x, int y);
  79:Drivers/lvgl/src/extra/libs/qrcode/qrcodegen.c **** testable void setModule(uint8_t qrcode[], int x, int y, bool isBlack);
  80:Drivers/lvgl/src/extra/libs/qrcode/qrcodegen.c **** testable void setModuleBounded(uint8_t qrcode[], int x, int y, bool isBlack);
  81:Drivers/lvgl/src/extra/libs/qrcode/qrcodegen.c **** static bool getBit(int x, int i);
  82:Drivers/lvgl/src/extra/libs/qrcode/qrcodegen.c **** 
  83:Drivers/lvgl/src/extra/libs/qrcode/qrcodegen.c **** testable int calcSegmentBitLength(enum qrcodegen_Mode mode, size_t numChars);
  84:Drivers/lvgl/src/extra/libs/qrcode/qrcodegen.c **** testable int getTotalBits(const struct qrcodegen_Segment segs[], size_t len, int version);
  85:Drivers/lvgl/src/extra/libs/qrcode/qrcodegen.c **** static int numCharCountBits(enum qrcodegen_Mode mode, int version);
  86:Drivers/lvgl/src/extra/libs/qrcode/qrcodegen.c **** 
  87:Drivers/lvgl/src/extra/libs/qrcode/qrcodegen.c **** 
ARM GAS  /var/folders/lp/x54gwt890xv47sdkqj1k04q40000gn/T//ccL4ZsdQ.s 			page 3


  88:Drivers/lvgl/src/extra/libs/qrcode/qrcodegen.c **** 
  89:Drivers/lvgl/src/extra/libs/qrcode/qrcodegen.c **** /*---- Private tables of constants ----*/
  90:Drivers/lvgl/src/extra/libs/qrcode/qrcodegen.c **** 
  91:Drivers/lvgl/src/extra/libs/qrcode/qrcodegen.c **** // The set of all legal characters in alphanumeric mode, where each character
  92:Drivers/lvgl/src/extra/libs/qrcode/qrcodegen.c **** // value maps to the index in the string. For checking text and encoding segments.
  93:Drivers/lvgl/src/extra/libs/qrcode/qrcodegen.c **** static const char *ALPHANUMERIC_CHARSET = "0123456789ABCDEFGHIJKLMNOPQRSTUVWXYZ $%*+-./:";
  94:Drivers/lvgl/src/extra/libs/qrcode/qrcodegen.c **** 
  95:Drivers/lvgl/src/extra/libs/qrcode/qrcodegen.c **** // For generating error correction codes.
  96:Drivers/lvgl/src/extra/libs/qrcode/qrcodegen.c **** testable const int8_t ECC_CODEWORDS_PER_BLOCK[4][41] = {
  97:Drivers/lvgl/src/extra/libs/qrcode/qrcodegen.c **** 	// Version: (note that index 0 is for padding, and is set to an illegal value)
  98:Drivers/lvgl/src/extra/libs/qrcode/qrcodegen.c **** 	//0,  1,  2,  3,  4,  5,  6,  7,  8,  9, 10, 11, 12, 13, 14, 15, 16, 17, 18, 19, 20, 21, 22, 23, 2
  99:Drivers/lvgl/src/extra/libs/qrcode/qrcodegen.c **** 	{-1,  7, 10, 15, 20, 26, 18, 20, 24, 30, 18, 20, 24, 26, 30, 22, 24, 28, 30, 28, 28, 28, 28, 30, 3
 100:Drivers/lvgl/src/extra/libs/qrcode/qrcodegen.c **** 	{-1, 10, 16, 26, 18, 24, 16, 18, 22, 22, 26, 30, 22, 22, 24, 24, 28, 28, 26, 26, 26, 26, 28, 28, 2
 101:Drivers/lvgl/src/extra/libs/qrcode/qrcodegen.c **** 	{-1, 13, 22, 18, 26, 18, 24, 18, 22, 20, 24, 28, 26, 24, 20, 30, 24, 28, 28, 26, 30, 28, 30, 30, 3
 102:Drivers/lvgl/src/extra/libs/qrcode/qrcodegen.c **** 	{-1, 17, 28, 22, 16, 22, 28, 26, 26, 24, 28, 24, 28, 22, 24, 24, 30, 28, 28, 26, 28, 30, 24, 30, 3
 103:Drivers/lvgl/src/extra/libs/qrcode/qrcodegen.c **** };
 104:Drivers/lvgl/src/extra/libs/qrcode/qrcodegen.c **** 
 105:Drivers/lvgl/src/extra/libs/qrcode/qrcodegen.c **** #define qrcodegen_REED_SOLOMON_DEGREE_MAX 30  // Based on the table above
 106:Drivers/lvgl/src/extra/libs/qrcode/qrcodegen.c **** 
 107:Drivers/lvgl/src/extra/libs/qrcode/qrcodegen.c **** // For generating error correction codes.
 108:Drivers/lvgl/src/extra/libs/qrcode/qrcodegen.c **** testable const int8_t NUM_ERROR_CORRECTION_BLOCKS[4][41] = {
 109:Drivers/lvgl/src/extra/libs/qrcode/qrcodegen.c **** 	// Version: (note that index 0 is for padding, and is set to an illegal value)
 110:Drivers/lvgl/src/extra/libs/qrcode/qrcodegen.c **** 	//0, 1, 2, 3, 4, 5, 6, 7, 8, 9,10, 11, 12, 13, 14, 15, 16, 17, 18, 19, 20, 21, 22, 23, 24, 25, 26,
 111:Drivers/lvgl/src/extra/libs/qrcode/qrcodegen.c **** 	{-1, 1, 1, 1, 1, 1, 2, 2, 2, 2, 4,  4,  4,  4,  4,  6,  6,  6,  6,  7,  8,  8,  9,  9, 10, 12, 12,
 112:Drivers/lvgl/src/extra/libs/qrcode/qrcodegen.c **** 	{-1, 1, 1, 1, 2, 2, 4, 4, 4, 5, 5,  5,  8,  9,  9, 10, 10, 11, 13, 14, 16, 17, 17, 18, 20, 21, 23,
 113:Drivers/lvgl/src/extra/libs/qrcode/qrcodegen.c **** 	{-1, 1, 1, 2, 2, 4, 4, 6, 6, 8, 8,  8, 10, 12, 16, 12, 17, 16, 18, 21, 20, 23, 23, 25, 27, 29, 34,
 114:Drivers/lvgl/src/extra/libs/qrcode/qrcodegen.c **** 	{-1, 1, 1, 2, 4, 4, 4, 5, 6, 8, 8, 11, 11, 16, 16, 18, 16, 19, 21, 25, 25, 25, 34, 30, 32, 35, 37,
 115:Drivers/lvgl/src/extra/libs/qrcode/qrcodegen.c **** };
 116:Drivers/lvgl/src/extra/libs/qrcode/qrcodegen.c **** 
 117:Drivers/lvgl/src/extra/libs/qrcode/qrcodegen.c **** // For automatic mask pattern selection.
 118:Drivers/lvgl/src/extra/libs/qrcode/qrcodegen.c **** static const int PENALTY_N1 =  3;
 119:Drivers/lvgl/src/extra/libs/qrcode/qrcodegen.c **** static const int PENALTY_N2 =  3;
 120:Drivers/lvgl/src/extra/libs/qrcode/qrcodegen.c **** static const int PENALTY_N3 = 40;
 121:Drivers/lvgl/src/extra/libs/qrcode/qrcodegen.c **** static const int PENALTY_N4 = 10;
 122:Drivers/lvgl/src/extra/libs/qrcode/qrcodegen.c **** 
 123:Drivers/lvgl/src/extra/libs/qrcode/qrcodegen.c **** 
 124:Drivers/lvgl/src/extra/libs/qrcode/qrcodegen.c **** 
 125:Drivers/lvgl/src/extra/libs/qrcode/qrcodegen.c **** /*---- High-level QR Code encoding functions ----*/
 126:Drivers/lvgl/src/extra/libs/qrcode/qrcodegen.c **** 
 127:Drivers/lvgl/src/extra/libs/qrcode/qrcodegen.c **** // Public function - see documentation comment in header file.
 128:Drivers/lvgl/src/extra/libs/qrcode/qrcodegen.c **** bool qrcodegen_encodeText(const char *text, uint8_t tempBuffer[], uint8_t qrcode[],
 129:Drivers/lvgl/src/extra/libs/qrcode/qrcodegen.c **** 		enum qrcodegen_Ecc ecl, int minVersion, int maxVersion, enum qrcodegen_Mask mask, bool boostEcl) 
 130:Drivers/lvgl/src/extra/libs/qrcode/qrcodegen.c **** 
 131:Drivers/lvgl/src/extra/libs/qrcode/qrcodegen.c **** 	size_t textLen = strlen(text);
 132:Drivers/lvgl/src/extra/libs/qrcode/qrcodegen.c **** 	if (textLen == 0)
 133:Drivers/lvgl/src/extra/libs/qrcode/qrcodegen.c **** 		return qrcodegen_encodeSegmentsAdvanced(NULL, 0, ecl, minVersion, maxVersion, mask, boostEcl, tem
 134:Drivers/lvgl/src/extra/libs/qrcode/qrcodegen.c **** 	size_t bufLen = qrcodegen_BUFFER_LEN_FOR_VERSION(maxVersion);
 135:Drivers/lvgl/src/extra/libs/qrcode/qrcodegen.c **** 
 136:Drivers/lvgl/src/extra/libs/qrcode/qrcodegen.c **** 	struct qrcodegen_Segment seg;
 137:Drivers/lvgl/src/extra/libs/qrcode/qrcodegen.c **** 	if (qrcodegen_isNumeric(text)) {
 138:Drivers/lvgl/src/extra/libs/qrcode/qrcodegen.c **** 		if (qrcodegen_calcSegmentBufferSize(qrcodegen_Mode_NUMERIC, textLen) > bufLen)
 139:Drivers/lvgl/src/extra/libs/qrcode/qrcodegen.c **** 			goto fail;
 140:Drivers/lvgl/src/extra/libs/qrcode/qrcodegen.c **** 		seg = qrcodegen_makeNumeric(text, tempBuffer);
 141:Drivers/lvgl/src/extra/libs/qrcode/qrcodegen.c **** 	} else if (qrcodegen_isAlphanumeric(text)) {
 142:Drivers/lvgl/src/extra/libs/qrcode/qrcodegen.c **** 		if (qrcodegen_calcSegmentBufferSize(qrcodegen_Mode_ALPHANUMERIC, textLen) > bufLen)
 143:Drivers/lvgl/src/extra/libs/qrcode/qrcodegen.c **** 			goto fail;
 144:Drivers/lvgl/src/extra/libs/qrcode/qrcodegen.c **** 		seg = qrcodegen_makeAlphanumeric(text, tempBuffer);
ARM GAS  /var/folders/lp/x54gwt890xv47sdkqj1k04q40000gn/T//ccL4ZsdQ.s 			page 4


 145:Drivers/lvgl/src/extra/libs/qrcode/qrcodegen.c **** 	} else {
 146:Drivers/lvgl/src/extra/libs/qrcode/qrcodegen.c **** 		if (textLen > bufLen)
 147:Drivers/lvgl/src/extra/libs/qrcode/qrcodegen.c **** 			goto fail;
 148:Drivers/lvgl/src/extra/libs/qrcode/qrcodegen.c **** 		for (size_t i = 0; i < textLen; i++)
 149:Drivers/lvgl/src/extra/libs/qrcode/qrcodegen.c **** 			tempBuffer[i] = (uint8_t)text[i];
 150:Drivers/lvgl/src/extra/libs/qrcode/qrcodegen.c **** 		seg.mode = qrcodegen_Mode_BYTE;
 151:Drivers/lvgl/src/extra/libs/qrcode/qrcodegen.c **** 		seg.bitLength = calcSegmentBitLength(seg.mode, textLen);
 152:Drivers/lvgl/src/extra/libs/qrcode/qrcodegen.c **** 		if (seg.bitLength == -1)
 153:Drivers/lvgl/src/extra/libs/qrcode/qrcodegen.c **** 			goto fail;
 154:Drivers/lvgl/src/extra/libs/qrcode/qrcodegen.c **** 		seg.numChars = (int)textLen;
 155:Drivers/lvgl/src/extra/libs/qrcode/qrcodegen.c **** 		seg.data = tempBuffer;
 156:Drivers/lvgl/src/extra/libs/qrcode/qrcodegen.c **** 	}
 157:Drivers/lvgl/src/extra/libs/qrcode/qrcodegen.c **** 	return qrcodegen_encodeSegmentsAdvanced(&seg, 1, ecl, minVersion, maxVersion, mask, boostEcl, temp
 158:Drivers/lvgl/src/extra/libs/qrcode/qrcodegen.c **** 
 159:Drivers/lvgl/src/extra/libs/qrcode/qrcodegen.c **** fail:
 160:Drivers/lvgl/src/extra/libs/qrcode/qrcodegen.c **** 	qrcode[0] = 0;  // Set size to invalid value for safety
 161:Drivers/lvgl/src/extra/libs/qrcode/qrcodegen.c **** 	return false;
 162:Drivers/lvgl/src/extra/libs/qrcode/qrcodegen.c **** }
 163:Drivers/lvgl/src/extra/libs/qrcode/qrcodegen.c **** 
 164:Drivers/lvgl/src/extra/libs/qrcode/qrcodegen.c **** 
 165:Drivers/lvgl/src/extra/libs/qrcode/qrcodegen.c **** // Public function - see documentation comment in header file.
 166:Drivers/lvgl/src/extra/libs/qrcode/qrcodegen.c **** bool qrcodegen_encodeBinary(uint8_t dataAndTemp[], size_t dataLen, uint8_t qrcode[],
 167:Drivers/lvgl/src/extra/libs/qrcode/qrcodegen.c **** 		enum qrcodegen_Ecc ecl, int minVersion, int maxVersion, enum qrcodegen_Mask mask, bool boostEcl) 
 168:Drivers/lvgl/src/extra/libs/qrcode/qrcodegen.c **** 
 169:Drivers/lvgl/src/extra/libs/qrcode/qrcodegen.c **** 	struct qrcodegen_Segment seg;
 170:Drivers/lvgl/src/extra/libs/qrcode/qrcodegen.c **** 	seg.mode = qrcodegen_Mode_BYTE;
 171:Drivers/lvgl/src/extra/libs/qrcode/qrcodegen.c **** 	seg.bitLength = calcSegmentBitLength(seg.mode, dataLen);
 172:Drivers/lvgl/src/extra/libs/qrcode/qrcodegen.c **** 	if (seg.bitLength == -1) {
 173:Drivers/lvgl/src/extra/libs/qrcode/qrcodegen.c **** 		qrcode[0] = 0;  // Set size to invalid value for safety
 174:Drivers/lvgl/src/extra/libs/qrcode/qrcodegen.c **** 		return false;
 175:Drivers/lvgl/src/extra/libs/qrcode/qrcodegen.c **** 	}
 176:Drivers/lvgl/src/extra/libs/qrcode/qrcodegen.c **** 	seg.numChars = (int)dataLen;
 177:Drivers/lvgl/src/extra/libs/qrcode/qrcodegen.c **** 	seg.data = dataAndTemp;
 178:Drivers/lvgl/src/extra/libs/qrcode/qrcodegen.c **** 	return qrcodegen_encodeSegmentsAdvanced(&seg, 1, ecl, minVersion, maxVersion, mask, boostEcl, data
 179:Drivers/lvgl/src/extra/libs/qrcode/qrcodegen.c **** }
 180:Drivers/lvgl/src/extra/libs/qrcode/qrcodegen.c **** 
 181:Drivers/lvgl/src/extra/libs/qrcode/qrcodegen.c **** 
 182:Drivers/lvgl/src/extra/libs/qrcode/qrcodegen.c **** // Appends the given number of low-order bits of the given value to the given byte-based
 183:Drivers/lvgl/src/extra/libs/qrcode/qrcodegen.c **** // bit buffer, increasing the bit length. Requires 0 <= numBits <= 16 and val < 2^numBits.
 184:Drivers/lvgl/src/extra/libs/qrcode/qrcodegen.c **** testable void appendBitsToBuffer(unsigned int val, int numBits, uint8_t buffer[], int *bitLen) {
  29              		.loc 1 184 96 view -0
  30              		.cfi_startproc
  31              		@ args = 0, pretend = 0, frame = 0
  32              		@ frame_needed = 0, uses_anonymous_args = 0
 185:Drivers/lvgl/src/extra/libs/qrcode/qrcodegen.c **** 	LV_ASSERT(0 <= numBits && numBits <= 16 && (unsigned long)val >> numBits == 0);
  33              		.loc 1 185 2 view .LVU1
  34              		.loc 1 185 2 view .LVU2
  35 0000 1029     		cmp	r1, #16
  36 0002 1ED8     		bhi	.L7
 184:Drivers/lvgl/src/extra/libs/qrcode/qrcodegen.c **** 	LV_ASSERT(0 <= numBits && numBits <= 16 && (unsigned long)val >> numBits == 0);
  37              		.loc 1 184 96 is_stmt 0 view .LVU3
  38 0004 30B5     		push	{r4, r5, lr}
  39              		.cfi_def_cfa_offset 12
  40              		.cfi_offset 4, -12
  41              		.cfi_offset 5, -8
  42              		.cfi_offset 14, -4
  43              		.loc 1 185 2 discriminator 2 view .LVU4
ARM GAS  /var/folders/lp/x54gwt890xv47sdkqj1k04q40000gn/T//ccL4ZsdQ.s 			page 5


  44 0006 30FA01F4 		lsrs	r4, r0, r1
  45 000a 00D0     		beq	.L3
  46              	.L2:
  47              		.loc 1 185 2 is_stmt 1 discriminator 3 view .LVU5
  48              		.loc 1 185 2 discriminator 3 view .LVU6
  49              		.loc 1 185 2 discriminator 3 view .LVU7
  50              		.loc 1 185 2 discriminator 3 view .LVU8
  51              		.loc 1 185 2 discriminator 3 view .LVU9
  52 000c FEE7     		b	.L2
  53              	.L3:
  54              		.loc 1 185 2 discriminator 4 view .LVU10
 186:Drivers/lvgl/src/extra/libs/qrcode/qrcodegen.c **** 	for (int i = numBits - 1; i >= 0; i--, (*bitLen)++)
  55              		.loc 1 186 2 view .LVU11
  56              	.LBB2:
  57              		.loc 1 186 7 view .LVU12
  58              		.loc 1 186 11 is_stmt 0 view .LVU13
  59 000e 01F1FF3C 		add	ip, r1, #-1
  60              	.LVL1:
  61              		.loc 1 186 2 view .LVU14
  62 0012 12E0     		b	.L4
  63              	.LVL2:
  64              	.L5:
 187:Drivers/lvgl/src/extra/libs/qrcode/qrcodegen.c **** 		buffer[*bitLen >> 3] |= ((val >> i) & 1) << (7 - (*bitLen & 7));
  65              		.loc 1 187 3 is_stmt 1 view .LVU15
  66              		.loc 1 187 10 is_stmt 0 view .LVU16
  67 0014 1968     		ldr	r1, [r3]
  68              		.loc 1 187 9 view .LVU17
  69 0016 CD10     		asrs	r5, r1, #3
  70 0018 545D     		ldrb	r4, [r2, r5]	@ zero_extendqisi2
  71              		.loc 1 187 33 view .LVU18
  72 001a 20FA0CFE 		lsr	lr, r0, ip
  73              		.loc 1 187 39 view .LVU19
  74 001e 0EF0010E 		and	lr, lr, #1
  75              		.loc 1 187 50 view .LVU20
  76 0022 C943     		mvns	r1, r1
  77 0024 01F00701 		and	r1, r1, #7
  78              		.loc 1 187 44 view .LVU21
  79 0028 0EFA01F1 		lsl	r1, lr, r1
  80              		.loc 1 187 24 view .LVU22
  81 002c 2143     		orrs	r1, r1, r4
  82 002e 5155     		strb	r1, [r2, r5]
 186:Drivers/lvgl/src/extra/libs/qrcode/qrcodegen.c **** 	for (int i = numBits - 1; i >= 0; i--, (*bitLen)++)
  83              		.loc 1 186 39 is_stmt 1 discriminator 3 view .LVU23
 186:Drivers/lvgl/src/extra/libs/qrcode/qrcodegen.c **** 	for (int i = numBits - 1; i >= 0; i--, (*bitLen)++)
  84              		.loc 1 186 37 is_stmt 0 discriminator 3 view .LVU24
  85 0030 0CF1FF3C 		add	ip, ip, #-1
  86              	.LVL3:
 186:Drivers/lvgl/src/extra/libs/qrcode/qrcodegen.c **** 	for (int i = numBits - 1; i >= 0; i--, (*bitLen)++)
  87              		.loc 1 186 42 discriminator 3 view .LVU25
  88 0034 1968     		ldr	r1, [r3]
 186:Drivers/lvgl/src/extra/libs/qrcode/qrcodegen.c **** 	for (int i = numBits - 1; i >= 0; i--, (*bitLen)++)
  89              		.loc 1 186 50 discriminator 3 view .LVU26
  90 0036 0131     		adds	r1, r1, #1
  91 0038 1960     		str	r1, [r3]
  92              	.L4:
 186:Drivers/lvgl/src/extra/libs/qrcode/qrcodegen.c **** 	for (int i = numBits - 1; i >= 0; i--, (*bitLen)++)
  93              		.loc 1 186 30 is_stmt 1 discriminator 1 view .LVU27
ARM GAS  /var/folders/lp/x54gwt890xv47sdkqj1k04q40000gn/T//ccL4ZsdQ.s 			page 6


  94 003a BCF1000F 		cmp	ip, #0
  95 003e E9DA     		bge	.L5
 186:Drivers/lvgl/src/extra/libs/qrcode/qrcodegen.c **** 	for (int i = numBits - 1; i >= 0; i--, (*bitLen)++)
  96              		.loc 1 186 30 is_stmt 0 discriminator 1 view .LVU28
  97              	.LBE2:
 188:Drivers/lvgl/src/extra/libs/qrcode/qrcodegen.c **** }
  98              		.loc 1 188 1 view .LVU29
  99 0040 30BD     		pop	{r4, r5, pc}
 100              	.LVL4:
 101              	.L7:
 102              		.cfi_def_cfa_offset 0
 103              		.cfi_restore 4
 104              		.cfi_restore 5
 105              		.cfi_restore 14
 185:Drivers/lvgl/src/extra/libs/qrcode/qrcodegen.c **** 	for (int i = numBits - 1; i >= 0; i--, (*bitLen)++)
 106              		.loc 1 185 2 is_stmt 1 discriminator 3 view .LVU30
 185:Drivers/lvgl/src/extra/libs/qrcode/qrcodegen.c **** 	for (int i = numBits - 1; i >= 0; i--, (*bitLen)++)
 107              		.loc 1 185 2 discriminator 3 view .LVU31
 185:Drivers/lvgl/src/extra/libs/qrcode/qrcodegen.c **** 	for (int i = numBits - 1; i >= 0; i--, (*bitLen)++)
 108              		.loc 1 185 2 discriminator 3 view .LVU32
 185:Drivers/lvgl/src/extra/libs/qrcode/qrcodegen.c **** 	for (int i = numBits - 1; i >= 0; i--, (*bitLen)++)
 109              		.loc 1 185 2 discriminator 3 view .LVU33
 185:Drivers/lvgl/src/extra/libs/qrcode/qrcodegen.c **** 	for (int i = numBits - 1; i >= 0; i--, (*bitLen)++)
 110              		.loc 1 185 2 discriminator 3 view .LVU34
 111 0042 FEE7     		b	.L7
 112              		.cfi_endproc
 113              	.LFE3:
 115              		.section	.text.getNumRawDataModules,"ax",%progbits
 116              		.align	1
 117              		.syntax unified
 118              		.thumb
 119              		.thumb_func
 121              	getNumRawDataModules:
 122              	.LVL5:
 123              	.LFB8:
 189:Drivers/lvgl/src/extra/libs/qrcode/qrcodegen.c **** 
 190:Drivers/lvgl/src/extra/libs/qrcode/qrcodegen.c **** 
 191:Drivers/lvgl/src/extra/libs/qrcode/qrcodegen.c **** 
 192:Drivers/lvgl/src/extra/libs/qrcode/qrcodegen.c **** /*---- Low-level QR Code encoding functions ----*/
 193:Drivers/lvgl/src/extra/libs/qrcode/qrcodegen.c **** 
 194:Drivers/lvgl/src/extra/libs/qrcode/qrcodegen.c **** // Public function - see documentation comment in header file.
 195:Drivers/lvgl/src/extra/libs/qrcode/qrcodegen.c **** bool qrcodegen_encodeSegments(const struct qrcodegen_Segment segs[], size_t len,
 196:Drivers/lvgl/src/extra/libs/qrcode/qrcodegen.c **** 		enum qrcodegen_Ecc ecl, uint8_t tempBuffer[], uint8_t qrcode[]) {
 197:Drivers/lvgl/src/extra/libs/qrcode/qrcodegen.c **** 	return qrcodegen_encodeSegmentsAdvanced(segs, len, ecl,
 198:Drivers/lvgl/src/extra/libs/qrcode/qrcodegen.c **** 		qrcodegen_VERSION_MIN, qrcodegen_VERSION_MAX, -1, true, tempBuffer, qrcode);
 199:Drivers/lvgl/src/extra/libs/qrcode/qrcodegen.c **** }
 200:Drivers/lvgl/src/extra/libs/qrcode/qrcodegen.c **** 
 201:Drivers/lvgl/src/extra/libs/qrcode/qrcodegen.c **** 
 202:Drivers/lvgl/src/extra/libs/qrcode/qrcodegen.c **** // Public function - see documentation comment in header file.
 203:Drivers/lvgl/src/extra/libs/qrcode/qrcodegen.c **** bool qrcodegen_encodeSegmentsAdvanced(const struct qrcodegen_Segment segs[], size_t len, enum qrcod
 204:Drivers/lvgl/src/extra/libs/qrcode/qrcodegen.c **** 		int minVersion, int maxVersion, int mask, bool boostEcl, uint8_t tempBuffer[], uint8_t qrcode[]) 
 205:Drivers/lvgl/src/extra/libs/qrcode/qrcodegen.c **** 	LV_ASSERT(segs != NULL || len == 0);
 206:Drivers/lvgl/src/extra/libs/qrcode/qrcodegen.c **** 	LV_ASSERT(qrcodegen_VERSION_MIN <= minVersion && minVersion <= maxVersion && maxVersion <= qrcodeg
 207:Drivers/lvgl/src/extra/libs/qrcode/qrcodegen.c **** 	LV_ASSERT(0 <= (int)ecl && (int)ecl <= 3 && -1 <= (int)mask && (int)mask <= 7);
 208:Drivers/lvgl/src/extra/libs/qrcode/qrcodegen.c **** 
 209:Drivers/lvgl/src/extra/libs/qrcode/qrcodegen.c **** 	// Find the minimal version number to use
 210:Drivers/lvgl/src/extra/libs/qrcode/qrcodegen.c **** 	int version, dataUsedBits;
ARM GAS  /var/folders/lp/x54gwt890xv47sdkqj1k04q40000gn/T//ccL4ZsdQ.s 			page 7


 211:Drivers/lvgl/src/extra/libs/qrcode/qrcodegen.c **** 	for (version = minVersion; ; version++) {
 212:Drivers/lvgl/src/extra/libs/qrcode/qrcodegen.c **** 		int dataCapacityBits = getNumDataCodewords(version, ecl) * 8;  // Number of data bits available
 213:Drivers/lvgl/src/extra/libs/qrcode/qrcodegen.c **** 		dataUsedBits = getTotalBits(segs, len, version);
 214:Drivers/lvgl/src/extra/libs/qrcode/qrcodegen.c **** 		if (dataUsedBits != -1 && dataUsedBits <= dataCapacityBits)
 215:Drivers/lvgl/src/extra/libs/qrcode/qrcodegen.c **** 			break;  // This version number is found to be suitable
 216:Drivers/lvgl/src/extra/libs/qrcode/qrcodegen.c **** 		if (version >= maxVersion) {  // All versions in the range could not fit the given data
 217:Drivers/lvgl/src/extra/libs/qrcode/qrcodegen.c **** 			qrcode[0] = 0;  // Set size to invalid value for safety
 218:Drivers/lvgl/src/extra/libs/qrcode/qrcodegen.c **** 			return false;
 219:Drivers/lvgl/src/extra/libs/qrcode/qrcodegen.c **** 		}
 220:Drivers/lvgl/src/extra/libs/qrcode/qrcodegen.c **** 	}
 221:Drivers/lvgl/src/extra/libs/qrcode/qrcodegen.c **** 	LV_ASSERT(dataUsedBits != -1);
 222:Drivers/lvgl/src/extra/libs/qrcode/qrcodegen.c **** 
 223:Drivers/lvgl/src/extra/libs/qrcode/qrcodegen.c **** 	// Increase the error correction level while the data still fits in the current version number
 224:Drivers/lvgl/src/extra/libs/qrcode/qrcodegen.c **** 	for (int i = (int)qrcodegen_Ecc_MEDIUM; i <= (int)qrcodegen_Ecc_HIGH; i++) {  // From low to high
 225:Drivers/lvgl/src/extra/libs/qrcode/qrcodegen.c **** 		if (boostEcl && dataUsedBits <= getNumDataCodewords(version, (enum qrcodegen_Ecc)i) * 8)
 226:Drivers/lvgl/src/extra/libs/qrcode/qrcodegen.c **** 			ecl = (enum qrcodegen_Ecc)i;
 227:Drivers/lvgl/src/extra/libs/qrcode/qrcodegen.c **** 	}
 228:Drivers/lvgl/src/extra/libs/qrcode/qrcodegen.c **** 
 229:Drivers/lvgl/src/extra/libs/qrcode/qrcodegen.c **** 	// Concatenate all segments to create the data bit string
 230:Drivers/lvgl/src/extra/libs/qrcode/qrcodegen.c **** 	memset(qrcode, 0, qrcodegen_BUFFER_LEN_FOR_VERSION(version) * sizeof(qrcode[0]));
 231:Drivers/lvgl/src/extra/libs/qrcode/qrcodegen.c **** 	int bitLen = 0;
 232:Drivers/lvgl/src/extra/libs/qrcode/qrcodegen.c **** 	for (size_t i = 0; i < len; i++) {
 233:Drivers/lvgl/src/extra/libs/qrcode/qrcodegen.c **** 		const struct qrcodegen_Segment *seg = &segs[i];
 234:Drivers/lvgl/src/extra/libs/qrcode/qrcodegen.c **** 		appendBitsToBuffer((int)seg->mode, 4, qrcode, &bitLen);
 235:Drivers/lvgl/src/extra/libs/qrcode/qrcodegen.c **** 		appendBitsToBuffer(seg->numChars, numCharCountBits(seg->mode, version), qrcode, &bitLen);
 236:Drivers/lvgl/src/extra/libs/qrcode/qrcodegen.c **** 		for (int j = 0; j < seg->bitLength; j++)
 237:Drivers/lvgl/src/extra/libs/qrcode/qrcodegen.c **** 			appendBitsToBuffer((seg->data[j >> 3] >> (7 - (j & 7))) & 1, 1, qrcode, &bitLen);
 238:Drivers/lvgl/src/extra/libs/qrcode/qrcodegen.c **** 	}
 239:Drivers/lvgl/src/extra/libs/qrcode/qrcodegen.c **** 	LV_ASSERT(bitLen == dataUsedBits);
 240:Drivers/lvgl/src/extra/libs/qrcode/qrcodegen.c **** 
 241:Drivers/lvgl/src/extra/libs/qrcode/qrcodegen.c **** 	// Add terminator and pad up to a byte if applicable
 242:Drivers/lvgl/src/extra/libs/qrcode/qrcodegen.c **** 	int dataCapacityBits = getNumDataCodewords(version, ecl) * 8;
 243:Drivers/lvgl/src/extra/libs/qrcode/qrcodegen.c **** 	LV_ASSERT(bitLen <= dataCapacityBits);
 244:Drivers/lvgl/src/extra/libs/qrcode/qrcodegen.c **** 	int terminatorBits = dataCapacityBits - bitLen;
 245:Drivers/lvgl/src/extra/libs/qrcode/qrcodegen.c **** 	if (terminatorBits > 4)
 246:Drivers/lvgl/src/extra/libs/qrcode/qrcodegen.c **** 		terminatorBits = 4;
 247:Drivers/lvgl/src/extra/libs/qrcode/qrcodegen.c **** 	appendBitsToBuffer(0, terminatorBits, qrcode, &bitLen);
 248:Drivers/lvgl/src/extra/libs/qrcode/qrcodegen.c **** 	appendBitsToBuffer(0, (8 - bitLen % 8) % 8, qrcode, &bitLen);
 249:Drivers/lvgl/src/extra/libs/qrcode/qrcodegen.c **** 	LV_ASSERT(bitLen % 8 == 0);
 250:Drivers/lvgl/src/extra/libs/qrcode/qrcodegen.c **** 
 251:Drivers/lvgl/src/extra/libs/qrcode/qrcodegen.c **** 	// Pad with alternating bytes until data capacity is reached
 252:Drivers/lvgl/src/extra/libs/qrcode/qrcodegen.c **** 	for (uint8_t padByte = 0xEC; bitLen < dataCapacityBits; padByte ^= 0xEC ^ 0x11)
 253:Drivers/lvgl/src/extra/libs/qrcode/qrcodegen.c **** 		appendBitsToBuffer(padByte, 8, qrcode, &bitLen);
 254:Drivers/lvgl/src/extra/libs/qrcode/qrcodegen.c **** 
 255:Drivers/lvgl/src/extra/libs/qrcode/qrcodegen.c **** 	// Draw function and data codeword modules
 256:Drivers/lvgl/src/extra/libs/qrcode/qrcodegen.c **** 	addEccAndInterleave(qrcode, version, ecl, tempBuffer);
 257:Drivers/lvgl/src/extra/libs/qrcode/qrcodegen.c **** 	initializeFunctionModules(version, qrcode);
 258:Drivers/lvgl/src/extra/libs/qrcode/qrcodegen.c **** 	drawCodewords(tempBuffer, getNumRawDataModules(version) / 8, qrcode);
 259:Drivers/lvgl/src/extra/libs/qrcode/qrcodegen.c **** 	drawWhiteFunctionModules(qrcode, version);
 260:Drivers/lvgl/src/extra/libs/qrcode/qrcodegen.c **** 	initializeFunctionModules(version, tempBuffer);
 261:Drivers/lvgl/src/extra/libs/qrcode/qrcodegen.c **** 
 262:Drivers/lvgl/src/extra/libs/qrcode/qrcodegen.c **** 	// Handle masking
 263:Drivers/lvgl/src/extra/libs/qrcode/qrcodegen.c **** 	if (mask == qrcodegen_Mask_AUTO) {  // Automatically choose best mask
 264:Drivers/lvgl/src/extra/libs/qrcode/qrcodegen.c **** 		long minPenalty = LONG_MAX;
 265:Drivers/lvgl/src/extra/libs/qrcode/qrcodegen.c **** 		for (int i = 0; i < 8; i++) {
 266:Drivers/lvgl/src/extra/libs/qrcode/qrcodegen.c **** 			enum qrcodegen_Mask msk = (enum qrcodegen_Mask)i;
 267:Drivers/lvgl/src/extra/libs/qrcode/qrcodegen.c **** 			applyMask(tempBuffer, qrcode, msk);
ARM GAS  /var/folders/lp/x54gwt890xv47sdkqj1k04q40000gn/T//ccL4ZsdQ.s 			page 8


 268:Drivers/lvgl/src/extra/libs/qrcode/qrcodegen.c **** 			drawFormatBits(ecl, msk, qrcode);
 269:Drivers/lvgl/src/extra/libs/qrcode/qrcodegen.c **** 			long penalty = getPenaltyScore(qrcode);
 270:Drivers/lvgl/src/extra/libs/qrcode/qrcodegen.c **** 			if (penalty < minPenalty) {
 271:Drivers/lvgl/src/extra/libs/qrcode/qrcodegen.c **** 				mask = msk;
 272:Drivers/lvgl/src/extra/libs/qrcode/qrcodegen.c **** 				minPenalty = penalty;
 273:Drivers/lvgl/src/extra/libs/qrcode/qrcodegen.c **** 			}
 274:Drivers/lvgl/src/extra/libs/qrcode/qrcodegen.c **** 			applyMask(tempBuffer, qrcode, msk);  // Undoes the mask due to XOR
 275:Drivers/lvgl/src/extra/libs/qrcode/qrcodegen.c **** 		}
 276:Drivers/lvgl/src/extra/libs/qrcode/qrcodegen.c **** 	}
 277:Drivers/lvgl/src/extra/libs/qrcode/qrcodegen.c **** 	LV_ASSERT(0 <= (int)mask && (int)mask <= 7);
 278:Drivers/lvgl/src/extra/libs/qrcode/qrcodegen.c **** 	applyMask(tempBuffer, qrcode, mask);
 279:Drivers/lvgl/src/extra/libs/qrcode/qrcodegen.c **** 	drawFormatBits(ecl, mask, qrcode);
 280:Drivers/lvgl/src/extra/libs/qrcode/qrcodegen.c **** 	return true;
 281:Drivers/lvgl/src/extra/libs/qrcode/qrcodegen.c **** }
 282:Drivers/lvgl/src/extra/libs/qrcode/qrcodegen.c **** 
 283:Drivers/lvgl/src/extra/libs/qrcode/qrcodegen.c **** 
 284:Drivers/lvgl/src/extra/libs/qrcode/qrcodegen.c **** 
 285:Drivers/lvgl/src/extra/libs/qrcode/qrcodegen.c **** /*---- Error correction code generation functions ----*/
 286:Drivers/lvgl/src/extra/libs/qrcode/qrcodegen.c **** 
 287:Drivers/lvgl/src/extra/libs/qrcode/qrcodegen.c **** // Appends error correction bytes to each block of the given data array, then interleaves
 288:Drivers/lvgl/src/extra/libs/qrcode/qrcodegen.c **** // bytes from the blocks and stores them in the result array. data[0 : dataLen] contains
 289:Drivers/lvgl/src/extra/libs/qrcode/qrcodegen.c **** // the input data. data[dataLen : rawCodewords] is used as a temporary work area and will
 290:Drivers/lvgl/src/extra/libs/qrcode/qrcodegen.c **** // be clobbered by this function. The final answer is stored in result[0 : rawCodewords].
 291:Drivers/lvgl/src/extra/libs/qrcode/qrcodegen.c **** testable void addEccAndInterleave(uint8_t data[], int version, enum qrcodegen_Ecc ecl, uint8_t resu
 292:Drivers/lvgl/src/extra/libs/qrcode/qrcodegen.c **** 	// Calculate parameter numbers
 293:Drivers/lvgl/src/extra/libs/qrcode/qrcodegen.c **** 	LV_ASSERT(0 <= (int)ecl && (int)ecl < 4 && qrcodegen_VERSION_MIN <= version && version <= qrcodege
 294:Drivers/lvgl/src/extra/libs/qrcode/qrcodegen.c **** 	int numBlocks = NUM_ERROR_CORRECTION_BLOCKS[(int)ecl][version];
 295:Drivers/lvgl/src/extra/libs/qrcode/qrcodegen.c **** 	int blockEccLen = ECC_CODEWORDS_PER_BLOCK  [(int)ecl][version];
 296:Drivers/lvgl/src/extra/libs/qrcode/qrcodegen.c **** 	int rawCodewords = getNumRawDataModules(version) / 8;
 297:Drivers/lvgl/src/extra/libs/qrcode/qrcodegen.c **** 	int dataLen = getNumDataCodewords(version, ecl);
 298:Drivers/lvgl/src/extra/libs/qrcode/qrcodegen.c **** 	int numShortBlocks = numBlocks - rawCodewords % numBlocks;
 299:Drivers/lvgl/src/extra/libs/qrcode/qrcodegen.c **** 	int shortBlockDataLen = rawCodewords / numBlocks - blockEccLen;
 300:Drivers/lvgl/src/extra/libs/qrcode/qrcodegen.c **** 
 301:Drivers/lvgl/src/extra/libs/qrcode/qrcodegen.c **** 	// Split data into blocks, calculate ECC, and interleave
 302:Drivers/lvgl/src/extra/libs/qrcode/qrcodegen.c **** 	// (not concatenate) the bytes into a single sequence
 303:Drivers/lvgl/src/extra/libs/qrcode/qrcodegen.c **** 	uint8_t generator[qrcodegen_REED_SOLOMON_DEGREE_MAX];
 304:Drivers/lvgl/src/extra/libs/qrcode/qrcodegen.c **** 	calcReedSolomonGenerator(blockEccLen, generator);
 305:Drivers/lvgl/src/extra/libs/qrcode/qrcodegen.c **** 	const uint8_t *dat = data;
 306:Drivers/lvgl/src/extra/libs/qrcode/qrcodegen.c **** 	for (int i = 0; i < numBlocks; i++) {
 307:Drivers/lvgl/src/extra/libs/qrcode/qrcodegen.c **** 		int datLen = shortBlockDataLen + (i < numShortBlocks ? 0 : 1);
 308:Drivers/lvgl/src/extra/libs/qrcode/qrcodegen.c **** 		uint8_t *ecc = &data[dataLen];  // Temporary storage
 309:Drivers/lvgl/src/extra/libs/qrcode/qrcodegen.c **** 		calcReedSolomonRemainder(dat, datLen, generator, blockEccLen, ecc);
 310:Drivers/lvgl/src/extra/libs/qrcode/qrcodegen.c **** 		for (int j = 0, k = i; j < datLen; j++, k += numBlocks) {  // Copy data
 311:Drivers/lvgl/src/extra/libs/qrcode/qrcodegen.c **** 			if (j == shortBlockDataLen)
 312:Drivers/lvgl/src/extra/libs/qrcode/qrcodegen.c **** 				k -= numShortBlocks;
 313:Drivers/lvgl/src/extra/libs/qrcode/qrcodegen.c **** 			result[k] = dat[j];
 314:Drivers/lvgl/src/extra/libs/qrcode/qrcodegen.c **** 		}
 315:Drivers/lvgl/src/extra/libs/qrcode/qrcodegen.c **** 		for (int j = 0, k = dataLen + i; j < blockEccLen; j++, k += numBlocks)  // Copy ECC
 316:Drivers/lvgl/src/extra/libs/qrcode/qrcodegen.c **** 			result[k] = ecc[j];
 317:Drivers/lvgl/src/extra/libs/qrcode/qrcodegen.c **** 		dat += datLen;
 318:Drivers/lvgl/src/extra/libs/qrcode/qrcodegen.c **** 	}
 319:Drivers/lvgl/src/extra/libs/qrcode/qrcodegen.c **** }
 320:Drivers/lvgl/src/extra/libs/qrcode/qrcodegen.c **** 
 321:Drivers/lvgl/src/extra/libs/qrcode/qrcodegen.c **** 
 322:Drivers/lvgl/src/extra/libs/qrcode/qrcodegen.c **** // Returns the number of 8-bit codewords that can be used for storing data (not ECC),
 323:Drivers/lvgl/src/extra/libs/qrcode/qrcodegen.c **** // for the given version number and error correction level. The result is in the range [9, 2956].
 324:Drivers/lvgl/src/extra/libs/qrcode/qrcodegen.c **** testable int getNumDataCodewords(int version, enum qrcodegen_Ecc ecl) {
ARM GAS  /var/folders/lp/x54gwt890xv47sdkqj1k04q40000gn/T//ccL4ZsdQ.s 			page 9


 325:Drivers/lvgl/src/extra/libs/qrcode/qrcodegen.c **** 	int v = version, e = (int)ecl;
 326:Drivers/lvgl/src/extra/libs/qrcode/qrcodegen.c **** 	LV_ASSERT(0 <= e && e < 4);
 327:Drivers/lvgl/src/extra/libs/qrcode/qrcodegen.c **** 	return getNumRawDataModules(v) / 8
 328:Drivers/lvgl/src/extra/libs/qrcode/qrcodegen.c **** 		- ECC_CODEWORDS_PER_BLOCK    [e][v]
 329:Drivers/lvgl/src/extra/libs/qrcode/qrcodegen.c **** 		* NUM_ERROR_CORRECTION_BLOCKS[e][v];
 330:Drivers/lvgl/src/extra/libs/qrcode/qrcodegen.c **** }
 331:Drivers/lvgl/src/extra/libs/qrcode/qrcodegen.c **** 
 332:Drivers/lvgl/src/extra/libs/qrcode/qrcodegen.c **** 
 333:Drivers/lvgl/src/extra/libs/qrcode/qrcodegen.c **** // Returns the number of data bits that can be stored in a QR Code of the given version number, aft
 334:Drivers/lvgl/src/extra/libs/qrcode/qrcodegen.c **** // all function modules are excluded. This includes remainder bits, so it might not be a multiple o
 335:Drivers/lvgl/src/extra/libs/qrcode/qrcodegen.c **** // The result is in the range [208, 29648]. This could be implemented as a 40-entry lookup table.
 336:Drivers/lvgl/src/extra/libs/qrcode/qrcodegen.c **** testable int getNumRawDataModules(int ver) {
 124              		.loc 1 336 44 view -0
 125              		.cfi_startproc
 126              		@ args = 0, pretend = 0, frame = 0
 127              		@ frame_needed = 0, uses_anonymous_args = 0
 128              		@ link register save eliminated.
 129              		.loc 1 336 44 is_stmt 0 view .LVU36
 130 0000 0346     		mov	r3, r0
 337:Drivers/lvgl/src/extra/libs/qrcode/qrcodegen.c **** 	LV_ASSERT(qrcodegen_VERSION_MIN <= ver && ver <= qrcodegen_VERSION_MAX);
 131              		.loc 1 337 2 is_stmt 1 view .LVU37
 132              		.loc 1 337 2 view .LVU38
 133 0002 421E     		subs	r2, r0, #1
 134 0004 272A     		cmp	r2, #39
 135 0006 00D9     		bls	.L11
 136              	.L12:
 137              		.loc 1 337 2 discriminator 1 view .LVU39
 138              		.loc 1 337 2 discriminator 1 view .LVU40
 139              		.loc 1 337 2 discriminator 1 view .LVU41
 140              		.loc 1 337 2 discriminator 1 view .LVU42
 141              		.loc 1 337 2 discriminator 1 view .LVU43
 142 0008 FEE7     		b	.L12
 143              	.L11:
 144              		.loc 1 337 2 discriminator 2 view .LVU44
 338:Drivers/lvgl/src/extra/libs/qrcode/qrcodegen.c **** 	int result = (16 * ver + 128) * ver + 64;
 145              		.loc 1 338 2 view .LVU45
 146              		.loc 1 338 25 is_stmt 0 view .LVU46
 147 000a 0830     		adds	r0, r0, #8
 148              	.LVL6:
 149              		.loc 1 338 32 view .LVU47
 150 000c 03FB00F0 		mul	r0, r3, r0
 151              		.loc 1 338 38 view .LVU48
 152 0010 0430     		adds	r0, r0, #4
 153              		.loc 1 338 6 view .LVU49
 154 0012 0001     		lsls	r0, r0, #4
 155              	.LVL7:
 339:Drivers/lvgl/src/extra/libs/qrcode/qrcodegen.c **** 	if (ver >= 2) {
 156              		.loc 1 339 2 is_stmt 1 view .LVU50
 157              		.loc 1 339 5 is_stmt 0 view .LVU51
 158 0014 012B     		cmp	r3, #1
 159 0016 13DD     		ble	.L10
 160              	.LBB3:
 340:Drivers/lvgl/src/extra/libs/qrcode/qrcodegen.c **** 		int numAlign = ver / 7 + 2;
 161              		.loc 1 340 3 is_stmt 1 view .LVU52
 162              		.loc 1 340 22 is_stmt 0 view .LVU53
 163 0018 0A4A     		ldr	r2, .L14
 164 001a 82FB0312 		smull	r1, r2, r2, r3
ARM GAS  /var/folders/lp/x54gwt890xv47sdkqj1k04q40000gn/T//ccL4ZsdQ.s 			page 10


 165 001e 1A44     		add	r2, r2, r3
 166 0020 D917     		asrs	r1, r3, #31
 167 0022 C1EBA201 		rsb	r1, r1, r2, asr #2
 168              		.loc 1 340 7 view .LVU54
 169 0026 0231     		adds	r1, r1, #2
 170              	.LVL8:
 341:Drivers/lvgl/src/extra/libs/qrcode/qrcodegen.c **** 		result -= (25 * numAlign - 10) * numAlign - 55;
 171              		.loc 1 341 3 is_stmt 1 view .LVU55
 172              		.loc 1 341 17 is_stmt 0 view .LVU56
 173 0028 01EB8102 		add	r2, r1, r1, lsl #2
 174 002c 02EB8202 		add	r2, r2, r2, lsl #2
 175              		.loc 1 341 28 view .LVU57
 176 0030 0A3A     		subs	r2, r2, #10
 177              		.loc 1 341 34 view .LVU58
 178 0032 01FB02F2 		mul	r2, r1, r2
 179              		.loc 1 341 45 view .LVU59
 180 0036 373A     		subs	r2, r2, #55
 181              		.loc 1 341 10 view .LVU60
 182 0038 801A     		subs	r0, r0, r2
 183              	.LVL9:
 342:Drivers/lvgl/src/extra/libs/qrcode/qrcodegen.c **** 		if (ver >= 7)
 184              		.loc 1 342 3 is_stmt 1 view .LVU61
 185              		.loc 1 342 6 is_stmt 0 view .LVU62
 186 003a 062B     		cmp	r3, #6
 187 003c 00DD     		ble	.L10
 343:Drivers/lvgl/src/extra/libs/qrcode/qrcodegen.c **** 			result -= 36;
 188              		.loc 1 343 4 is_stmt 1 view .LVU63
 189              		.loc 1 343 11 is_stmt 0 view .LVU64
 190 003e 2438     		subs	r0, r0, #36
 191              	.LVL10:
 192              		.loc 1 343 11 view .LVU65
 193              	.LBE3:
 344:Drivers/lvgl/src/extra/libs/qrcode/qrcodegen.c **** 	}
 345:Drivers/lvgl/src/extra/libs/qrcode/qrcodegen.c **** 	return result;
 194              		.loc 1 345 2 is_stmt 1 view .LVU66
 195              	.L10:
 346:Drivers/lvgl/src/extra/libs/qrcode/qrcodegen.c **** }
 196              		.loc 1 346 1 is_stmt 0 view .LVU67
 197 0040 7047     		bx	lr
 198              	.L15:
 199 0042 00BF     		.align	2
 200              	.L14:
 201 0044 93244992 		.word	-1840700269
 202              		.cfi_endproc
 203              	.LFE8:
 205              		.section	.text.getNumDataCodewords,"ax",%progbits
 206              		.align	1
 207              		.syntax unified
 208              		.thumb
 209              		.thumb_func
 211              	getNumDataCodewords:
 212              	.LVL11:
 213              	.LFB7:
 324:Drivers/lvgl/src/extra/libs/qrcode/qrcodegen.c **** 	int v = version, e = (int)ecl;
 214              		.loc 1 324 71 is_stmt 1 view -0
 215              		.cfi_startproc
 216              		@ args = 0, pretend = 0, frame = 0
ARM GAS  /var/folders/lp/x54gwt890xv47sdkqj1k04q40000gn/T//ccL4ZsdQ.s 			page 11


 217              		@ frame_needed = 0, uses_anonymous_args = 0
 325:Drivers/lvgl/src/extra/libs/qrcode/qrcodegen.c **** 	LV_ASSERT(0 <= e && e < 4);
 218              		.loc 1 325 2 view .LVU69
 326:Drivers/lvgl/src/extra/libs/qrcode/qrcodegen.c **** 	return getNumRawDataModules(v) / 8
 219              		.loc 1 326 2 view .LVU70
 326:Drivers/lvgl/src/extra/libs/qrcode/qrcodegen.c **** 	return getNumRawDataModules(v) / 8
 220              		.loc 1 326 2 view .LVU71
 221 0000 0329     		cmp	r1, #3
 222 0002 00D9     		bls	.L17
 223              	.L18:
 326:Drivers/lvgl/src/extra/libs/qrcode/qrcodegen.c **** 	return getNumRawDataModules(v) / 8
 224              		.loc 1 326 2 discriminator 1 view .LVU72
 326:Drivers/lvgl/src/extra/libs/qrcode/qrcodegen.c **** 	return getNumRawDataModules(v) / 8
 225              		.loc 1 326 2 discriminator 1 view .LVU73
 326:Drivers/lvgl/src/extra/libs/qrcode/qrcodegen.c **** 	return getNumRawDataModules(v) / 8
 226              		.loc 1 326 2 discriminator 1 view .LVU74
 326:Drivers/lvgl/src/extra/libs/qrcode/qrcodegen.c **** 	return getNumRawDataModules(v) / 8
 227              		.loc 1 326 2 discriminator 1 view .LVU75
 326:Drivers/lvgl/src/extra/libs/qrcode/qrcodegen.c **** 	return getNumRawDataModules(v) / 8
 228              		.loc 1 326 2 discriminator 1 view .LVU76
 229 0004 FEE7     		b	.L18
 230              	.L17:
 324:Drivers/lvgl/src/extra/libs/qrcode/qrcodegen.c **** 	int v = version, e = (int)ecl;
 231              		.loc 1 324 71 is_stmt 0 view .LVU77
 232 0006 38B5     		push	{r3, r4, r5, lr}
 233              		.cfi_def_cfa_offset 16
 234              		.cfi_offset 3, -16
 235              		.cfi_offset 4, -12
 236              		.cfi_offset 5, -8
 237              		.cfi_offset 14, -4
 238 0008 0546     		mov	r5, r0
 239 000a 0C46     		mov	r4, r1
 326:Drivers/lvgl/src/extra/libs/qrcode/qrcodegen.c **** 	return getNumRawDataModules(v) / 8
 240              		.loc 1 326 2 is_stmt 1 discriminator 2 view .LVU78
 327:Drivers/lvgl/src/extra/libs/qrcode/qrcodegen.c **** 		- ECC_CODEWORDS_PER_BLOCK    [e][v]
 241              		.loc 1 327 2 view .LVU79
 327:Drivers/lvgl/src/extra/libs/qrcode/qrcodegen.c **** 		- ECC_CODEWORDS_PER_BLOCK    [e][v]
 242              		.loc 1 327 9 is_stmt 0 view .LVU80
 243 000c FFF7FEFF 		bl	getNumRawDataModules
 244              	.LVL12:
 327:Drivers/lvgl/src/extra/libs/qrcode/qrcodegen.c **** 		- ECC_CODEWORDS_PER_BLOCK    [e][v]
 245              		.loc 1 327 33 discriminator 1 view .LVU81
 246 0010 031E     		subs	r3, r0, #0
 247 0012 0EDB     		blt	.L22
 248              	.L19:
 328:Drivers/lvgl/src/extra/libs/qrcode/qrcodegen.c **** 		* NUM_ERROR_CORRECTION_BLOCKS[e][v];
 249              		.loc 1 328 35 view .LVU82
 250 0014 04EB8402 		add	r2, r4, r4, lsl #2
 251 0018 04EBC204 		add	r4, r4, r2, lsl #3
 252 001c 064A     		ldr	r2, .L23
 253 001e 2244     		add	r2, r2, r4
 254 0020 5057     		ldrsb	r0, [r2, r5]
 329:Drivers/lvgl/src/extra/libs/qrcode/qrcodegen.c **** }
 255              		.loc 1 329 35 view .LVU83
 256 0022 064A     		ldr	r2, .L23+4
 257 0024 2244     		add	r2, r2, r4
 258 0026 5257     		ldrsb	r2, [r2, r5]
ARM GAS  /var/folders/lp/x54gwt890xv47sdkqj1k04q40000gn/T//ccL4ZsdQ.s 			page 12


 329:Drivers/lvgl/src/extra/libs/qrcode/qrcodegen.c **** }
 259              		.loc 1 329 3 view .LVU84
 260 0028 02FB00F0 		mul	r0, r2, r0
 330:Drivers/lvgl/src/extra/libs/qrcode/qrcodegen.c **** 
 261              		.loc 1 330 1 view .LVU85
 262 002c C0EBE300 		rsb	r0, r0, r3, asr #3
 263 0030 38BD     		pop	{r3, r4, r5, pc}
 264              	.LVL13:
 265              	.L22:
 327:Drivers/lvgl/src/extra/libs/qrcode/qrcodegen.c **** 		- ECC_CODEWORDS_PER_BLOCK    [e][v]
 266              		.loc 1 327 33 discriminator 1 view .LVU86
 267 0032 0733     		adds	r3, r3, #7
 268 0034 EEE7     		b	.L19
 269              	.L24:
 270 0036 00BF     		.align	2
 271              	.L23:
 272 0038 00000000 		.word	ECC_CODEWORDS_PER_BLOCK
 273 003c 00000000 		.word	NUM_ERROR_CORRECTION_BLOCKS
 274              		.cfi_endproc
 275              	.LFE7:
 277              		.section	.text.finiteFieldMultiply,"ax",%progbits
 278              		.align	1
 279              		.syntax unified
 280              		.thumb
 281              		.thumb_func
 283              	finiteFieldMultiply:
 284              	.LVL14:
 285              	.LFB11:
 347:Drivers/lvgl/src/extra/libs/qrcode/qrcodegen.c **** 
 348:Drivers/lvgl/src/extra/libs/qrcode/qrcodegen.c **** 
 349:Drivers/lvgl/src/extra/libs/qrcode/qrcodegen.c **** 
 350:Drivers/lvgl/src/extra/libs/qrcode/qrcodegen.c **** /*---- Reed-Solomon ECC generator functions ----*/
 351:Drivers/lvgl/src/extra/libs/qrcode/qrcodegen.c **** 
 352:Drivers/lvgl/src/extra/libs/qrcode/qrcodegen.c **** // Calculates the Reed-Solomon generator polynomial of the given degree, storing in result[0 : degr
 353:Drivers/lvgl/src/extra/libs/qrcode/qrcodegen.c **** testable void calcReedSolomonGenerator(int degree, uint8_t result[]) {
 354:Drivers/lvgl/src/extra/libs/qrcode/qrcodegen.c **** 	// Start with the monomial x^0
 355:Drivers/lvgl/src/extra/libs/qrcode/qrcodegen.c **** 	LV_ASSERT(1 <= degree && degree <= qrcodegen_REED_SOLOMON_DEGREE_MAX);
 356:Drivers/lvgl/src/extra/libs/qrcode/qrcodegen.c **** 	memset(result, 0, degree * sizeof(result[0]));
 357:Drivers/lvgl/src/extra/libs/qrcode/qrcodegen.c **** 	result[degree - 1] = 1;
 358:Drivers/lvgl/src/extra/libs/qrcode/qrcodegen.c **** 
 359:Drivers/lvgl/src/extra/libs/qrcode/qrcodegen.c **** 	// Compute the product polynomial (x - r^0) * (x - r^1) * (x - r^2) * ... * (x - r^{degree-1}),
 360:Drivers/lvgl/src/extra/libs/qrcode/qrcodegen.c **** 	// drop the highest term, and store the rest of the coefficients in order of descending powers.
 361:Drivers/lvgl/src/extra/libs/qrcode/qrcodegen.c **** 	// Note that r = 0x02, which is a generator element of this field GF(2^8/0x11D).
 362:Drivers/lvgl/src/extra/libs/qrcode/qrcodegen.c **** 	uint8_t root = 1;
 363:Drivers/lvgl/src/extra/libs/qrcode/qrcodegen.c **** 	for (int i = 0; i < degree; i++) {
 364:Drivers/lvgl/src/extra/libs/qrcode/qrcodegen.c **** 		// Multiply the current product by (x - r^i)
 365:Drivers/lvgl/src/extra/libs/qrcode/qrcodegen.c **** 		for (int j = 0; j < degree; j++) {
 366:Drivers/lvgl/src/extra/libs/qrcode/qrcodegen.c **** 			result[j] = finiteFieldMultiply(result[j], root);
 367:Drivers/lvgl/src/extra/libs/qrcode/qrcodegen.c **** 			if (j + 1 < degree)
 368:Drivers/lvgl/src/extra/libs/qrcode/qrcodegen.c **** 				result[j] ^= result[j + 1];
 369:Drivers/lvgl/src/extra/libs/qrcode/qrcodegen.c **** 		}
 370:Drivers/lvgl/src/extra/libs/qrcode/qrcodegen.c **** 		root = finiteFieldMultiply(root, 0x02);
 371:Drivers/lvgl/src/extra/libs/qrcode/qrcodegen.c **** 	}
 372:Drivers/lvgl/src/extra/libs/qrcode/qrcodegen.c **** }
 373:Drivers/lvgl/src/extra/libs/qrcode/qrcodegen.c **** 
 374:Drivers/lvgl/src/extra/libs/qrcode/qrcodegen.c **** 
 375:Drivers/lvgl/src/extra/libs/qrcode/qrcodegen.c **** // Calculates the remainder of the polynomial data[0 : dataLen] when divided by the generator[0 : d
ARM GAS  /var/folders/lp/x54gwt890xv47sdkqj1k04q40000gn/T//ccL4ZsdQ.s 			page 13


 376:Drivers/lvgl/src/extra/libs/qrcode/qrcodegen.c **** // polynomials are in big endian and the generator has an implicit leading 1 term, storing the resu
 377:Drivers/lvgl/src/extra/libs/qrcode/qrcodegen.c **** testable void calcReedSolomonRemainder(const uint8_t data[], int dataLen,
 378:Drivers/lvgl/src/extra/libs/qrcode/qrcodegen.c **** 		const uint8_t generator[], int degree, uint8_t result[]) {
 379:Drivers/lvgl/src/extra/libs/qrcode/qrcodegen.c **** 
 380:Drivers/lvgl/src/extra/libs/qrcode/qrcodegen.c **** 	// Perform polynomial division
 381:Drivers/lvgl/src/extra/libs/qrcode/qrcodegen.c **** 	LV_ASSERT(1 <= degree && degree <= qrcodegen_REED_SOLOMON_DEGREE_MAX);
 382:Drivers/lvgl/src/extra/libs/qrcode/qrcodegen.c **** 	memset(result, 0, degree * sizeof(result[0]));
 383:Drivers/lvgl/src/extra/libs/qrcode/qrcodegen.c **** 	for (int i = 0; i < dataLen; i++) {
 384:Drivers/lvgl/src/extra/libs/qrcode/qrcodegen.c **** 		uint8_t factor = data[i] ^ result[0];
 385:Drivers/lvgl/src/extra/libs/qrcode/qrcodegen.c **** 		memmove(&result[0], &result[1], (degree - 1) * sizeof(result[0]));
 386:Drivers/lvgl/src/extra/libs/qrcode/qrcodegen.c **** 		result[degree - 1] = 0;
 387:Drivers/lvgl/src/extra/libs/qrcode/qrcodegen.c **** 		for (int j = 0; j < degree; j++)
 388:Drivers/lvgl/src/extra/libs/qrcode/qrcodegen.c **** 			result[j] ^= finiteFieldMultiply(generator[j], factor);
 389:Drivers/lvgl/src/extra/libs/qrcode/qrcodegen.c **** 	}
 390:Drivers/lvgl/src/extra/libs/qrcode/qrcodegen.c **** }
 391:Drivers/lvgl/src/extra/libs/qrcode/qrcodegen.c **** 
 392:Drivers/lvgl/src/extra/libs/qrcode/qrcodegen.c **** #undef qrcodegen_REED_SOLOMON_DEGREE_MAX
 393:Drivers/lvgl/src/extra/libs/qrcode/qrcodegen.c **** 
 394:Drivers/lvgl/src/extra/libs/qrcode/qrcodegen.c **** 
 395:Drivers/lvgl/src/extra/libs/qrcode/qrcodegen.c **** // Returns the product of the two given field elements modulo GF(2^8/0x11D).
 396:Drivers/lvgl/src/extra/libs/qrcode/qrcodegen.c **** // All inputs are valid. This could be implemented as a 256*256 lookup table.
 397:Drivers/lvgl/src/extra/libs/qrcode/qrcodegen.c **** testable uint8_t finiteFieldMultiply(uint8_t x, uint8_t y) {
 286              		.loc 1 397 60 is_stmt 1 view -0
 287              		.cfi_startproc
 288              		@ args = 0, pretend = 0, frame = 0
 289              		@ frame_needed = 0, uses_anonymous_args = 0
 290              		.loc 1 397 60 is_stmt 0 view .LVU88
 291 0000 00B5     		push	{lr}
 292              		.cfi_def_cfa_offset 4
 293              		.cfi_offset 14, -4
 294 0002 8646     		mov	lr, r0
 398:Drivers/lvgl/src/extra/libs/qrcode/qrcodegen.c **** 	// Russian peasant multiplication
 399:Drivers/lvgl/src/extra/libs/qrcode/qrcodegen.c **** 	uint8_t z = 0;
 295              		.loc 1 399 2 is_stmt 1 view .LVU89
 296              	.LVL15:
 400:Drivers/lvgl/src/extra/libs/qrcode/qrcodegen.c **** 	for (int i = 7; i >= 0; i--) {
 297              		.loc 1 400 2 view .LVU90
 298              	.LBB4:
 299              		.loc 1 400 7 view .LVU91
 300              		.loc 1 400 11 is_stmt 0 view .LVU92
 301 0004 0722     		movs	r2, #7
 302              	.LBE4:
 399:Drivers/lvgl/src/extra/libs/qrcode/qrcodegen.c **** 	for (int i = 7; i >= 0; i--) {
 303              		.loc 1 399 10 view .LVU93
 304 0006 0020     		movs	r0, #0
 305              	.LVL16:
 306              	.LBB5:
 307              		.loc 1 400 2 view .LVU94
 308 0008 10E0     		b	.L26
 309              	.LVL17:
 310              	.L27:
 401:Drivers/lvgl/src/extra/libs/qrcode/qrcodegen.c **** 		z = (z << 1) ^ ((z >> 7) * 0x11D);
 311              		.loc 1 401 3 is_stmt 1 view .LVU95
 312              		.loc 1 401 16 is_stmt 0 view .LVU96
 313 000a C309     		lsrs	r3, r0, #7
 314 000c C3EBC30C 		rsb	ip, r3, r3, lsl #3
 315 0010 03EB8C03 		add	r3, r3, ip, lsl #2
ARM GAS  /var/folders/lp/x54gwt890xv47sdkqj1k04q40000gn/T//ccL4ZsdQ.s 			page 14


 316 0014 83EA4003 		eor	r3, r3, r0, lsl #1
 317 0018 5BB2     		sxtb	r3, r3
 318              	.LVL18:
 402:Drivers/lvgl/src/extra/libs/qrcode/qrcodegen.c **** 		z ^= ((y >> i) & 1) * x;
 319              		.loc 1 402 3 is_stmt 1 view .LVU97
 320              		.loc 1 402 12 is_stmt 0 view .LVU98
 321 001a 41FA02F0 		asr	r0, r1, r2
 322              		.loc 1 402 5 view .LVU99
 323 001e 00F00100 		and	r0, r0, #1
 324 0022 10FB0EF0 		smulbb	r0, r0, lr
 325 0026 5840     		eors	r0, r0, r3
 326 0028 C0B2     		uxtb	r0, r0
 327              	.LVL19:
 400:Drivers/lvgl/src/extra/libs/qrcode/qrcodegen.c **** 		z = (z << 1) ^ ((z >> 7) * 0x11D);
 328              		.loc 1 400 27 is_stmt 1 discriminator 3 view .LVU100
 329 002a 013A     		subs	r2, r2, #1
 330              	.LVL20:
 331              	.L26:
 400:Drivers/lvgl/src/extra/libs/qrcode/qrcodegen.c **** 		z = (z << 1) ^ ((z >> 7) * 0x11D);
 332              		.loc 1 400 20 discriminator 1 view .LVU101
 333 002c 002A     		cmp	r2, #0
 334 002e ECDA     		bge	.L27
 335              	.LBE5:
 403:Drivers/lvgl/src/extra/libs/qrcode/qrcodegen.c **** 	}
 404:Drivers/lvgl/src/extra/libs/qrcode/qrcodegen.c **** 	return z;
 336              		.loc 1 404 2 view .LVU102
 405:Drivers/lvgl/src/extra/libs/qrcode/qrcodegen.c **** }
 337              		.loc 1 405 1 is_stmt 0 view .LVU103
 338 0030 5DF804FB 		ldr	pc, [sp], #4
 339              		.cfi_endproc
 340              	.LFE11:
 342              		.section	.text.getAlignmentPatternPositions,"ax",%progbits
 343              		.align	1
 344              		.syntax unified
 345              		.thumb
 346              		.thumb_func
 348              	getAlignmentPatternPositions:
 349              	.LVL21:
 350              	.LFB15:
 406:Drivers/lvgl/src/extra/libs/qrcode/qrcodegen.c **** 
 407:Drivers/lvgl/src/extra/libs/qrcode/qrcodegen.c **** 
 408:Drivers/lvgl/src/extra/libs/qrcode/qrcodegen.c **** 
 409:Drivers/lvgl/src/extra/libs/qrcode/qrcodegen.c **** /*---- Drawing function modules ----*/
 410:Drivers/lvgl/src/extra/libs/qrcode/qrcodegen.c **** 
 411:Drivers/lvgl/src/extra/libs/qrcode/qrcodegen.c **** // Clears the given QR Code grid with white modules for the given
 412:Drivers/lvgl/src/extra/libs/qrcode/qrcodegen.c **** // version's size, then marks every function module as black.
 413:Drivers/lvgl/src/extra/libs/qrcode/qrcodegen.c **** testable void initializeFunctionModules(int version, uint8_t qrcode[]) {
 414:Drivers/lvgl/src/extra/libs/qrcode/qrcodegen.c **** 	// Initialize QR Code
 415:Drivers/lvgl/src/extra/libs/qrcode/qrcodegen.c **** 	int qrsize = version * 4 + 17;
 416:Drivers/lvgl/src/extra/libs/qrcode/qrcodegen.c **** 	memset(qrcode, 0, ((qrsize * qrsize + 7) / 8 + 1) * sizeof(qrcode[0]));
 417:Drivers/lvgl/src/extra/libs/qrcode/qrcodegen.c **** 	qrcode[0] = (uint8_t)qrsize;
 418:Drivers/lvgl/src/extra/libs/qrcode/qrcodegen.c **** 
 419:Drivers/lvgl/src/extra/libs/qrcode/qrcodegen.c **** 	// Fill horizontal and vertical timing patterns
 420:Drivers/lvgl/src/extra/libs/qrcode/qrcodegen.c **** 	fillRectangle(6, 0, 1, qrsize, qrcode);
 421:Drivers/lvgl/src/extra/libs/qrcode/qrcodegen.c **** 	fillRectangle(0, 6, qrsize, 1, qrcode);
 422:Drivers/lvgl/src/extra/libs/qrcode/qrcodegen.c **** 
 423:Drivers/lvgl/src/extra/libs/qrcode/qrcodegen.c **** 	// Fill 3 finder patterns (all corners except bottom right) and format bits
ARM GAS  /var/folders/lp/x54gwt890xv47sdkqj1k04q40000gn/T//ccL4ZsdQ.s 			page 15


 424:Drivers/lvgl/src/extra/libs/qrcode/qrcodegen.c **** 	fillRectangle(0, 0, 9, 9, qrcode);
 425:Drivers/lvgl/src/extra/libs/qrcode/qrcodegen.c **** 	fillRectangle(qrsize - 8, 0, 8, 9, qrcode);
 426:Drivers/lvgl/src/extra/libs/qrcode/qrcodegen.c **** 	fillRectangle(0, qrsize - 8, 9, 8, qrcode);
 427:Drivers/lvgl/src/extra/libs/qrcode/qrcodegen.c **** 
 428:Drivers/lvgl/src/extra/libs/qrcode/qrcodegen.c **** 	// Fill numerous alignment patterns
 429:Drivers/lvgl/src/extra/libs/qrcode/qrcodegen.c **** 	uint8_t alignPatPos[7];
 430:Drivers/lvgl/src/extra/libs/qrcode/qrcodegen.c **** 	int numAlign = getAlignmentPatternPositions(version, alignPatPos);
 431:Drivers/lvgl/src/extra/libs/qrcode/qrcodegen.c **** 	for (int i = 0; i < numAlign; i++) {
 432:Drivers/lvgl/src/extra/libs/qrcode/qrcodegen.c **** 		for (int j = 0; j < numAlign; j++) {
 433:Drivers/lvgl/src/extra/libs/qrcode/qrcodegen.c **** 			// Don't draw on the three finder corners
 434:Drivers/lvgl/src/extra/libs/qrcode/qrcodegen.c **** 			if (!((i == 0 && j == 0) || (i == 0 && j == numAlign - 1) || (i == numAlign - 1 && j == 0)))
 435:Drivers/lvgl/src/extra/libs/qrcode/qrcodegen.c **** 				fillRectangle(alignPatPos[i] - 2, alignPatPos[j] - 2, 5, 5, qrcode);
 436:Drivers/lvgl/src/extra/libs/qrcode/qrcodegen.c **** 		}
 437:Drivers/lvgl/src/extra/libs/qrcode/qrcodegen.c **** 	}
 438:Drivers/lvgl/src/extra/libs/qrcode/qrcodegen.c **** 
 439:Drivers/lvgl/src/extra/libs/qrcode/qrcodegen.c **** 	// Fill version blocks
 440:Drivers/lvgl/src/extra/libs/qrcode/qrcodegen.c **** 	if (version >= 7) {
 441:Drivers/lvgl/src/extra/libs/qrcode/qrcodegen.c **** 		fillRectangle(qrsize - 11, 0, 3, 6, qrcode);
 442:Drivers/lvgl/src/extra/libs/qrcode/qrcodegen.c **** 		fillRectangle(0, qrsize - 11, 6, 3, qrcode);
 443:Drivers/lvgl/src/extra/libs/qrcode/qrcodegen.c **** 	}
 444:Drivers/lvgl/src/extra/libs/qrcode/qrcodegen.c **** }
 445:Drivers/lvgl/src/extra/libs/qrcode/qrcodegen.c **** 
 446:Drivers/lvgl/src/extra/libs/qrcode/qrcodegen.c **** 
 447:Drivers/lvgl/src/extra/libs/qrcode/qrcodegen.c **** // Draws white function modules and possibly some black modules onto the given QR Code, without cha
 448:Drivers/lvgl/src/extra/libs/qrcode/qrcodegen.c **** // non-function modules. This does not draw the format bits. This requires all function modules to 
 449:Drivers/lvgl/src/extra/libs/qrcode/qrcodegen.c **** // marked black (namely by initializeFunctionModules()), because this may skip redrawing black func
 450:Drivers/lvgl/src/extra/libs/qrcode/qrcodegen.c **** static void drawWhiteFunctionModules(uint8_t qrcode[], int version) {
 451:Drivers/lvgl/src/extra/libs/qrcode/qrcodegen.c **** 	// Draw horizontal and vertical timing patterns
 452:Drivers/lvgl/src/extra/libs/qrcode/qrcodegen.c **** 	int qrsize = qrcodegen_getSize(qrcode);
 453:Drivers/lvgl/src/extra/libs/qrcode/qrcodegen.c **** 	for (int i = 7; i < qrsize - 7; i += 2) {
 454:Drivers/lvgl/src/extra/libs/qrcode/qrcodegen.c **** 		setModule(qrcode, 6, i, false);
 455:Drivers/lvgl/src/extra/libs/qrcode/qrcodegen.c **** 		setModule(qrcode, i, 6, false);
 456:Drivers/lvgl/src/extra/libs/qrcode/qrcodegen.c **** 	}
 457:Drivers/lvgl/src/extra/libs/qrcode/qrcodegen.c **** 
 458:Drivers/lvgl/src/extra/libs/qrcode/qrcodegen.c **** 	// Draw 3 finder patterns (all corners except bottom right; overwrites some timing modules)
 459:Drivers/lvgl/src/extra/libs/qrcode/qrcodegen.c **** 	for (int dy = -4; dy <= 4; dy++) {
 460:Drivers/lvgl/src/extra/libs/qrcode/qrcodegen.c **** 		for (int dx = -4; dx <= 4; dx++) {
 461:Drivers/lvgl/src/extra/libs/qrcode/qrcodegen.c **** 			int dist = abs(dx);
 462:Drivers/lvgl/src/extra/libs/qrcode/qrcodegen.c **** 			if (abs(dy) > dist)
 463:Drivers/lvgl/src/extra/libs/qrcode/qrcodegen.c **** 				dist = abs(dy);
 464:Drivers/lvgl/src/extra/libs/qrcode/qrcodegen.c **** 			if (dist == 2 || dist == 4) {
 465:Drivers/lvgl/src/extra/libs/qrcode/qrcodegen.c **** 				setModuleBounded(qrcode, 3 + dx, 3 + dy, false);
 466:Drivers/lvgl/src/extra/libs/qrcode/qrcodegen.c **** 				setModuleBounded(qrcode, qrsize - 4 + dx, 3 + dy, false);
 467:Drivers/lvgl/src/extra/libs/qrcode/qrcodegen.c **** 				setModuleBounded(qrcode, 3 + dx, qrsize - 4 + dy, false);
 468:Drivers/lvgl/src/extra/libs/qrcode/qrcodegen.c **** 			}
 469:Drivers/lvgl/src/extra/libs/qrcode/qrcodegen.c **** 		}
 470:Drivers/lvgl/src/extra/libs/qrcode/qrcodegen.c **** 	}
 471:Drivers/lvgl/src/extra/libs/qrcode/qrcodegen.c **** 
 472:Drivers/lvgl/src/extra/libs/qrcode/qrcodegen.c **** 	// Draw numerous alignment patterns
 473:Drivers/lvgl/src/extra/libs/qrcode/qrcodegen.c **** 	uint8_t alignPatPos[7];
 474:Drivers/lvgl/src/extra/libs/qrcode/qrcodegen.c **** 	int numAlign = getAlignmentPatternPositions(version, alignPatPos);
 475:Drivers/lvgl/src/extra/libs/qrcode/qrcodegen.c **** 	for (int i = 0; i < numAlign; i++) {
 476:Drivers/lvgl/src/extra/libs/qrcode/qrcodegen.c **** 		for (int j = 0; j < numAlign; j++) {
 477:Drivers/lvgl/src/extra/libs/qrcode/qrcodegen.c **** 			if ((i == 0 && j == 0) || (i == 0 && j == numAlign - 1) || (i == numAlign - 1 && j == 0))
 478:Drivers/lvgl/src/extra/libs/qrcode/qrcodegen.c **** 				continue;  // Don't draw on the three finder corners
 479:Drivers/lvgl/src/extra/libs/qrcode/qrcodegen.c **** 			for (int dy = -1; dy <= 1; dy++) {
 480:Drivers/lvgl/src/extra/libs/qrcode/qrcodegen.c **** 				for (int dx = -1; dx <= 1; dx++)
ARM GAS  /var/folders/lp/x54gwt890xv47sdkqj1k04q40000gn/T//ccL4ZsdQ.s 			page 16


 481:Drivers/lvgl/src/extra/libs/qrcode/qrcodegen.c **** 					setModule(qrcode, alignPatPos[i] + dx, alignPatPos[j] + dy, dx == 0 && dy == 0);
 482:Drivers/lvgl/src/extra/libs/qrcode/qrcodegen.c **** 			}
 483:Drivers/lvgl/src/extra/libs/qrcode/qrcodegen.c **** 		}
 484:Drivers/lvgl/src/extra/libs/qrcode/qrcodegen.c **** 	}
 485:Drivers/lvgl/src/extra/libs/qrcode/qrcodegen.c **** 
 486:Drivers/lvgl/src/extra/libs/qrcode/qrcodegen.c **** 	// Draw version blocks
 487:Drivers/lvgl/src/extra/libs/qrcode/qrcodegen.c **** 	if (version >= 7) {
 488:Drivers/lvgl/src/extra/libs/qrcode/qrcodegen.c **** 		// Calculate error correction code and pack bits
 489:Drivers/lvgl/src/extra/libs/qrcode/qrcodegen.c **** 		int rem = version;  // version is uint6, in the range [7, 40]
 490:Drivers/lvgl/src/extra/libs/qrcode/qrcodegen.c **** 		for (int i = 0; i < 12; i++)
 491:Drivers/lvgl/src/extra/libs/qrcode/qrcodegen.c **** 			rem = (rem << 1) ^ ((rem >> 11) * 0x1F25);
 492:Drivers/lvgl/src/extra/libs/qrcode/qrcodegen.c **** 		long bits = (long)version << 12 | rem;  // uint18
 493:Drivers/lvgl/src/extra/libs/qrcode/qrcodegen.c **** 		LV_ASSERT(bits >> 18 == 0);
 494:Drivers/lvgl/src/extra/libs/qrcode/qrcodegen.c **** 
 495:Drivers/lvgl/src/extra/libs/qrcode/qrcodegen.c **** 		// Draw two copies
 496:Drivers/lvgl/src/extra/libs/qrcode/qrcodegen.c **** 		for (int i = 0; i < 6; i++) {
 497:Drivers/lvgl/src/extra/libs/qrcode/qrcodegen.c **** 			for (int j = 0; j < 3; j++) {
 498:Drivers/lvgl/src/extra/libs/qrcode/qrcodegen.c **** 				int k = qrsize - 11 + j;
 499:Drivers/lvgl/src/extra/libs/qrcode/qrcodegen.c **** 				setModule(qrcode, k, i, (bits & 1) != 0);
 500:Drivers/lvgl/src/extra/libs/qrcode/qrcodegen.c **** 				setModule(qrcode, i, k, (bits & 1) != 0);
 501:Drivers/lvgl/src/extra/libs/qrcode/qrcodegen.c **** 				bits >>= 1;
 502:Drivers/lvgl/src/extra/libs/qrcode/qrcodegen.c **** 			}
 503:Drivers/lvgl/src/extra/libs/qrcode/qrcodegen.c **** 		}
 504:Drivers/lvgl/src/extra/libs/qrcode/qrcodegen.c **** 	}
 505:Drivers/lvgl/src/extra/libs/qrcode/qrcodegen.c **** }
 506:Drivers/lvgl/src/extra/libs/qrcode/qrcodegen.c **** 
 507:Drivers/lvgl/src/extra/libs/qrcode/qrcodegen.c **** 
 508:Drivers/lvgl/src/extra/libs/qrcode/qrcodegen.c **** // Draws two copies of the format bits (with its own error correction code) based
 509:Drivers/lvgl/src/extra/libs/qrcode/qrcodegen.c **** // on the given mask and error correction level. This always draws all modules of
 510:Drivers/lvgl/src/extra/libs/qrcode/qrcodegen.c **** // the format bits, unlike drawWhiteFunctionModules() which might skip black modules.
 511:Drivers/lvgl/src/extra/libs/qrcode/qrcodegen.c **** static void drawFormatBits(enum qrcodegen_Ecc ecl, enum qrcodegen_Mask mask, uint8_t qrcode[]) {
 512:Drivers/lvgl/src/extra/libs/qrcode/qrcodegen.c **** 	// Calculate error correction code and pack bits
 513:Drivers/lvgl/src/extra/libs/qrcode/qrcodegen.c **** 	LV_ASSERT(0 <= (int)mask && (int)mask <= 7);
 514:Drivers/lvgl/src/extra/libs/qrcode/qrcodegen.c **** 	static const int table[] = {1, 0, 3, 2};
 515:Drivers/lvgl/src/extra/libs/qrcode/qrcodegen.c **** 	int data = table[(int)ecl] << 3 | (int)mask;  // errCorrLvl is uint2, mask is uint3
 516:Drivers/lvgl/src/extra/libs/qrcode/qrcodegen.c **** 	int rem = data;
 517:Drivers/lvgl/src/extra/libs/qrcode/qrcodegen.c **** 	for (int i = 0; i < 10; i++)
 518:Drivers/lvgl/src/extra/libs/qrcode/qrcodegen.c **** 		rem = (rem << 1) ^ ((rem >> 9) * 0x537);
 519:Drivers/lvgl/src/extra/libs/qrcode/qrcodegen.c **** 	int bits = (data << 10 | rem) ^ 0x5412;  // uint15
 520:Drivers/lvgl/src/extra/libs/qrcode/qrcodegen.c **** 	LV_ASSERT(bits >> 15 == 0);
 521:Drivers/lvgl/src/extra/libs/qrcode/qrcodegen.c **** 
 522:Drivers/lvgl/src/extra/libs/qrcode/qrcodegen.c **** 	// Draw first copy
 523:Drivers/lvgl/src/extra/libs/qrcode/qrcodegen.c **** 	for (int i = 0; i <= 5; i++)
 524:Drivers/lvgl/src/extra/libs/qrcode/qrcodegen.c **** 		setModule(qrcode, 8, i, getBit(bits, i));
 525:Drivers/lvgl/src/extra/libs/qrcode/qrcodegen.c **** 	setModule(qrcode, 8, 7, getBit(bits, 6));
 526:Drivers/lvgl/src/extra/libs/qrcode/qrcodegen.c **** 	setModule(qrcode, 8, 8, getBit(bits, 7));
 527:Drivers/lvgl/src/extra/libs/qrcode/qrcodegen.c **** 	setModule(qrcode, 7, 8, getBit(bits, 8));
 528:Drivers/lvgl/src/extra/libs/qrcode/qrcodegen.c **** 	for (int i = 9; i < 15; i++)
 529:Drivers/lvgl/src/extra/libs/qrcode/qrcodegen.c **** 		setModule(qrcode, 14 - i, 8, getBit(bits, i));
 530:Drivers/lvgl/src/extra/libs/qrcode/qrcodegen.c **** 
 531:Drivers/lvgl/src/extra/libs/qrcode/qrcodegen.c **** 	// Draw second copy
 532:Drivers/lvgl/src/extra/libs/qrcode/qrcodegen.c **** 	int qrsize = qrcodegen_getSize(qrcode);
 533:Drivers/lvgl/src/extra/libs/qrcode/qrcodegen.c **** 	for (int i = 0; i < 8; i++)
 534:Drivers/lvgl/src/extra/libs/qrcode/qrcodegen.c **** 		setModule(qrcode, qrsize - 1 - i, 8, getBit(bits, i));
 535:Drivers/lvgl/src/extra/libs/qrcode/qrcodegen.c **** 	for (int i = 8; i < 15; i++)
 536:Drivers/lvgl/src/extra/libs/qrcode/qrcodegen.c **** 		setModule(qrcode, 8, qrsize - 15 + i, getBit(bits, i));
 537:Drivers/lvgl/src/extra/libs/qrcode/qrcodegen.c **** 	setModule(qrcode, 8, qrsize - 8, true);  // Always black
ARM GAS  /var/folders/lp/x54gwt890xv47sdkqj1k04q40000gn/T//ccL4ZsdQ.s 			page 17


 538:Drivers/lvgl/src/extra/libs/qrcode/qrcodegen.c **** }
 539:Drivers/lvgl/src/extra/libs/qrcode/qrcodegen.c **** 
 540:Drivers/lvgl/src/extra/libs/qrcode/qrcodegen.c **** 
 541:Drivers/lvgl/src/extra/libs/qrcode/qrcodegen.c **** // Calculates and stores an ascending list of positions of alignment patterns
 542:Drivers/lvgl/src/extra/libs/qrcode/qrcodegen.c **** // for this version number, returning the length of the list (in the range [0,7]).
 543:Drivers/lvgl/src/extra/libs/qrcode/qrcodegen.c **** // Each position is in the range [0,177), and are used on both the x and y axes.
 544:Drivers/lvgl/src/extra/libs/qrcode/qrcodegen.c **** // This could be implemented as lookup table of 40 variable-length lists of unsigned bytes.
 545:Drivers/lvgl/src/extra/libs/qrcode/qrcodegen.c **** testable int getAlignmentPatternPositions(int version, uint8_t result[7]) {
 351              		.loc 1 545 75 is_stmt 1 view -0
 352              		.cfi_startproc
 353              		@ args = 0, pretend = 0, frame = 0
 354              		@ frame_needed = 0, uses_anonymous_args = 0
 546:Drivers/lvgl/src/extra/libs/qrcode/qrcodegen.c **** 	if (version == 1)
 355              		.loc 1 546 2 view .LVU105
 356              		.loc 1 546 5 is_stmt 0 view .LVU106
 357 0000 0128     		cmp	r0, #1
 358 0002 2DD0     		beq	.L34
 359 0004 0246     		mov	r2, r0
 547:Drivers/lvgl/src/extra/libs/qrcode/qrcodegen.c **** 		return 0;
 548:Drivers/lvgl/src/extra/libs/qrcode/qrcodegen.c **** 	int numAlign = version / 7 + 2;
 360              		.loc 1 548 2 is_stmt 1 view .LVU107
 361              		.loc 1 548 25 is_stmt 0 view .LVU108
 362 0006 1C48     		ldr	r0, .L44
 363              	.LVL22:
 364              		.loc 1 548 25 view .LVU109
 365 0008 80FB0230 		smull	r3, r0, r0, r2
 366 000c 1044     		add	r0, r0, r2
 367 000e D317     		asrs	r3, r2, #31
 368 0010 C3EBA003 		rsb	r3, r3, r0, asr #2
 369              		.loc 1 548 6 view .LVU110
 370 0014 981C     		adds	r0, r3, #2
 371              	.LVL23:
 549:Drivers/lvgl/src/extra/libs/qrcode/qrcodegen.c **** 	int step = (version == 32) ? 26 :
 372              		.loc 1 549 2 is_stmt 1 view .LVU111
 373              		.loc 1 549 34 is_stmt 0 view .LVU112
 374 0016 202A     		cmp	r2, #32
 375 0018 12D0     		beq	.L35
 545:Drivers/lvgl/src/extra/libs/qrcode/qrcodegen.c **** 	if (version == 1)
 376              		.loc 1 545 75 view .LVU113
 377 001a 00B5     		push	{lr}
 378              		.cfi_def_cfa_offset 4
 379              		.cfi_offset 14, -4
 550:Drivers/lvgl/src/extra/libs/qrcode/qrcodegen.c **** 		(version*4 + numAlign*2 + 1) / (numAlign*2 - 2) * 2;
 380              		.loc 1 550 14 view .LVU114
 381 001c 00EB420C 		add	ip, r0, r2, lsl #1
 382 0020 4FEA4C0C 		lsl	ip, ip, #1
 383              		.loc 1 550 27 view .LVU115
 384 0024 0CF1010C 		add	ip, ip, #1
 385              		.loc 1 550 46 view .LVU116
 386 0028 03F1010E 		add	lr, r3, #1
 387 002c 4FEA4E0E 		lsl	lr, lr, #1
 388              		.loc 1 550 32 view .LVU117
 389 0030 9CFBFEFC 		sdiv	ip, ip, lr
 549:Drivers/lvgl/src/extra/libs/qrcode/qrcodegen.c **** 	int step = (version == 32) ? 26 :
 390              		.loc 1 549 34 discriminator 1 view .LVU118
 391 0034 4FEA4C0C 		lsl	ip, ip, #1
 392              	.LVL24:
ARM GAS  /var/folders/lp/x54gwt890xv47sdkqj1k04q40000gn/T//ccL4ZsdQ.s 			page 18


 551:Drivers/lvgl/src/extra/libs/qrcode/qrcodegen.c **** 	for (int i = numAlign - 1, pos = version * 4 + 10; i >= 1; i--, pos -= step)
 393              		.loc 1 551 2 is_stmt 1 view .LVU119
 394              	.LBB6:
 395              		.loc 1 551 7 view .LVU120
 396              		.loc 1 551 11 is_stmt 0 view .LVU121
 397 0038 0133     		adds	r3, r3, #1
 398              	.LVL25:
 399              		.loc 1 551 43 view .LVU122
 400 003a 9200     		lsls	r2, r2, #2
 401              	.LVL26:
 402              		.loc 1 551 29 view .LVU123
 403 003c 0A32     		adds	r2, r2, #10
 404              	.LVL27:
 405              		.loc 1 551 2 view .LVU124
 406 003e 09E0     		b	.L32
 407              	.LVL28:
 408              	.L35:
 409              		.cfi_def_cfa_offset 0
 410              		.cfi_restore 14
 411              		.loc 1 551 2 view .LVU125
 412              	.LBE6:
 549:Drivers/lvgl/src/extra/libs/qrcode/qrcodegen.c **** 		(version*4 + numAlign*2 + 1) / (numAlign*2 - 2) * 2;
 413              		.loc 1 549 34 discriminator 2 view .LVU126
 414 0040 4FF01A0C 		mov	ip, #26
 415              	.LVL29:
 416              		.loc 1 551 2 is_stmt 1 view .LVU127
 417              	.LBB7:
 418              		.loc 1 551 7 view .LVU128
 419              		.loc 1 551 11 is_stmt 0 view .LVU129
 420 0044 0133     		adds	r3, r3, #1
 421              	.LVL30:
 422              		.loc 1 551 43 view .LVU130
 423 0046 9200     		lsls	r2, r2, #2
 424              	.LVL31:
 425              		.loc 1 551 29 view .LVU131
 426 0048 0A32     		adds	r2, r2, #10
 427              	.LVL32:
 428              		.loc 1 551 29 view .LVU132
 429 004a 0FE0     		b	.L38
 430              	.L33:
 431              		.cfi_def_cfa_offset 4
 432              		.cfi_offset 14, -4
 552:Drivers/lvgl/src/extra/libs/qrcode/qrcodegen.c **** 		result[i] = pos;
 433              		.loc 1 552 3 is_stmt 1 view .LVU133
 434              		.loc 1 552 13 is_stmt 0 view .LVU134
 435 004c CA54     		strb	r2, [r1, r3]
 551:Drivers/lvgl/src/extra/libs/qrcode/qrcodegen.c **** 	for (int i = numAlign - 1, pos = version * 4 + 10; i >= 1; i--, pos -= step)
 436              		.loc 1 551 64 is_stmt 1 discriminator 3 view .LVU135
 551:Drivers/lvgl/src/extra/libs/qrcode/qrcodegen.c **** 	for (int i = numAlign - 1, pos = version * 4 + 10; i >= 1; i--, pos -= step)
 437              		.loc 1 551 62 is_stmt 0 discriminator 3 view .LVU136
 438 004e 013B     		subs	r3, r3, #1
 439              	.LVL33:
 551:Drivers/lvgl/src/extra/libs/qrcode/qrcodegen.c **** 	for (int i = numAlign - 1, pos = version * 4 + 10; i >= 1; i--, pos -= step)
 440              		.loc 1 551 70 discriminator 3 view .LVU137
 441 0050 A2EB0C02 		sub	r2, r2, ip
 442              	.LVL34:
 443              	.L32:
ARM GAS  /var/folders/lp/x54gwt890xv47sdkqj1k04q40000gn/T//ccL4ZsdQ.s 			page 19


 551:Drivers/lvgl/src/extra/libs/qrcode/qrcodegen.c **** 	for (int i = numAlign - 1, pos = version * 4 + 10; i >= 1; i--, pos -= step)
 444              		.loc 1 551 55 is_stmt 1 discriminator 1 view .LVU138
 445 0054 002B     		cmp	r3, #0
 446 0056 F9DC     		bgt	.L33
 551:Drivers/lvgl/src/extra/libs/qrcode/qrcodegen.c **** 	for (int i = numAlign - 1, pos = version * 4 + 10; i >= 1; i--, pos -= step)
 447              		.loc 1 551 55 is_stmt 0 discriminator 1 view .LVU139
 448              	.LBE7:
 553:Drivers/lvgl/src/extra/libs/qrcode/qrcodegen.c **** 	result[0] = 6;
 449              		.loc 1 553 2 is_stmt 1 view .LVU140
 450              		.loc 1 553 12 is_stmt 0 view .LVU141
 451 0058 0623     		movs	r3, #6
 452              	.LVL35:
 453              		.loc 1 553 12 view .LVU142
 454 005a 0B70     		strb	r3, [r1]
 554:Drivers/lvgl/src/extra/libs/qrcode/qrcodegen.c **** 	return numAlign;
 455              		.loc 1 554 2 is_stmt 1 view .LVU143
 555:Drivers/lvgl/src/extra/libs/qrcode/qrcodegen.c **** }
 456              		.loc 1 555 1 is_stmt 0 view .LVU144
 457 005c 5DF804FB 		ldr	pc, [sp], #4
 458              	.LVL36:
 459              	.L34:
 460              		.cfi_def_cfa_offset 0
 461              		.cfi_restore 14
 547:Drivers/lvgl/src/extra/libs/qrcode/qrcodegen.c **** 	int numAlign = version / 7 + 2;
 462              		.loc 1 547 10 view .LVU145
 463 0060 0020     		movs	r0, #0
 464              	.LVL37:
 547:Drivers/lvgl/src/extra/libs/qrcode/qrcodegen.c **** 	int numAlign = version / 7 + 2;
 465              		.loc 1 547 10 view .LVU146
 466 0062 7047     		bx	lr
 467              	.LVL38:
 468              	.L39:
 469              	.LBB8:
 552:Drivers/lvgl/src/extra/libs/qrcode/qrcodegen.c **** 	result[0] = 6;
 470              		.loc 1 552 3 is_stmt 1 view .LVU147
 552:Drivers/lvgl/src/extra/libs/qrcode/qrcodegen.c **** 	result[0] = 6;
 471              		.loc 1 552 13 is_stmt 0 view .LVU148
 472 0064 CA54     		strb	r2, [r1, r3]
 551:Drivers/lvgl/src/extra/libs/qrcode/qrcodegen.c **** 		result[i] = pos;
 473              		.loc 1 551 64 is_stmt 1 discriminator 3 view .LVU149
 551:Drivers/lvgl/src/extra/libs/qrcode/qrcodegen.c **** 		result[i] = pos;
 474              		.loc 1 551 62 is_stmt 0 discriminator 3 view .LVU150
 475 0066 013B     		subs	r3, r3, #1
 476              	.LVL39:
 551:Drivers/lvgl/src/extra/libs/qrcode/qrcodegen.c **** 		result[i] = pos;
 477              		.loc 1 551 70 discriminator 3 view .LVU151
 478 0068 A2EB0C02 		sub	r2, r2, ip
 479              	.LVL40:
 480              	.L38:
 551:Drivers/lvgl/src/extra/libs/qrcode/qrcodegen.c **** 		result[i] = pos;
 481              		.loc 1 551 55 is_stmt 1 discriminator 1 view .LVU152
 482 006c 002B     		cmp	r3, #0
 483 006e F9DC     		bgt	.L39
 551:Drivers/lvgl/src/extra/libs/qrcode/qrcodegen.c **** 		result[i] = pos;
 484              		.loc 1 551 55 is_stmt 0 discriminator 1 view .LVU153
 485              	.LBE8:
 553:Drivers/lvgl/src/extra/libs/qrcode/qrcodegen.c **** 	return numAlign;
ARM GAS  /var/folders/lp/x54gwt890xv47sdkqj1k04q40000gn/T//ccL4ZsdQ.s 			page 20


 486              		.loc 1 553 2 is_stmt 1 view .LVU154
 553:Drivers/lvgl/src/extra/libs/qrcode/qrcodegen.c **** 	return numAlign;
 487              		.loc 1 553 12 is_stmt 0 view .LVU155
 488 0070 0623     		movs	r3, #6
 489              	.LVL41:
 553:Drivers/lvgl/src/extra/libs/qrcode/qrcodegen.c **** 	return numAlign;
 490              		.loc 1 553 12 view .LVU156
 491 0072 0B70     		strb	r3, [r1]
 554:Drivers/lvgl/src/extra/libs/qrcode/qrcodegen.c **** }
 492              		.loc 1 554 2 is_stmt 1 view .LVU157
 493              		.loc 1 555 1 is_stmt 0 view .LVU158
 494 0074 7047     		bx	lr
 495              	.L45:
 496 0076 00BF     		.align	2
 497              	.L44:
 498 0078 93244992 		.word	-1840700269
 499              		.cfi_endproc
 500              	.LFE15:
 502              		.section	.text.hasFinderLikePattern,"ax",%progbits
 503              		.align	1
 504              		.syntax unified
 505              		.thumb
 506              		.thumb_func
 508              	hasFinderLikePattern:
 509              	.LVL42:
 510              	.LFB21:
 556:Drivers/lvgl/src/extra/libs/qrcode/qrcodegen.c **** 
 557:Drivers/lvgl/src/extra/libs/qrcode/qrcodegen.c **** 
 558:Drivers/lvgl/src/extra/libs/qrcode/qrcodegen.c **** // Sets every pixel in the range [left : left + width] * [top : top + height] to black.
 559:Drivers/lvgl/src/extra/libs/qrcode/qrcodegen.c **** static void fillRectangle(int left, int top, int width, int height, uint8_t qrcode[]) {
 560:Drivers/lvgl/src/extra/libs/qrcode/qrcodegen.c **** 	for (int dy = 0; dy < height; dy++) {
 561:Drivers/lvgl/src/extra/libs/qrcode/qrcodegen.c **** 		for (int dx = 0; dx < width; dx++)
 562:Drivers/lvgl/src/extra/libs/qrcode/qrcodegen.c **** 			setModule(qrcode, left + dx, top + dy, true);
 563:Drivers/lvgl/src/extra/libs/qrcode/qrcodegen.c **** 	}
 564:Drivers/lvgl/src/extra/libs/qrcode/qrcodegen.c **** }
 565:Drivers/lvgl/src/extra/libs/qrcode/qrcodegen.c **** 
 566:Drivers/lvgl/src/extra/libs/qrcode/qrcodegen.c **** 
 567:Drivers/lvgl/src/extra/libs/qrcode/qrcodegen.c **** 
 568:Drivers/lvgl/src/extra/libs/qrcode/qrcodegen.c **** /*---- Drawing data modules and masking ----*/
 569:Drivers/lvgl/src/extra/libs/qrcode/qrcodegen.c **** 
 570:Drivers/lvgl/src/extra/libs/qrcode/qrcodegen.c **** // Draws the raw codewords (including data and ECC) onto the given QR Code. This requires the initi
 571:Drivers/lvgl/src/extra/libs/qrcode/qrcodegen.c **** // the QR Code to be black at function modules and white at codeword modules (including unused rema
 572:Drivers/lvgl/src/extra/libs/qrcode/qrcodegen.c **** static void drawCodewords(const uint8_t data[], int dataLen, uint8_t qrcode[]) {
 573:Drivers/lvgl/src/extra/libs/qrcode/qrcodegen.c **** 	int qrsize = qrcodegen_getSize(qrcode);
 574:Drivers/lvgl/src/extra/libs/qrcode/qrcodegen.c **** 	int i = 0;  // Bit index into the data
 575:Drivers/lvgl/src/extra/libs/qrcode/qrcodegen.c **** 	// Do the funny zigzag scan
 576:Drivers/lvgl/src/extra/libs/qrcode/qrcodegen.c **** 	for (int right = qrsize - 1; right >= 1; right -= 2) {  // Index of right column in each column pa
 577:Drivers/lvgl/src/extra/libs/qrcode/qrcodegen.c **** 		if (right == 6)
 578:Drivers/lvgl/src/extra/libs/qrcode/qrcodegen.c **** 			right = 5;
 579:Drivers/lvgl/src/extra/libs/qrcode/qrcodegen.c **** 		for (int vert = 0; vert < qrsize; vert++) {  // Vertical counter
 580:Drivers/lvgl/src/extra/libs/qrcode/qrcodegen.c **** 			for (int j = 0; j < 2; j++) {
 581:Drivers/lvgl/src/extra/libs/qrcode/qrcodegen.c **** 				int x = right - j;  // Actual x coordinate
 582:Drivers/lvgl/src/extra/libs/qrcode/qrcodegen.c **** 				bool upward = ((right + 1) & 2) == 0;
 583:Drivers/lvgl/src/extra/libs/qrcode/qrcodegen.c **** 				int y = upward ? qrsize - 1 - vert : vert;  // Actual y coordinate
 584:Drivers/lvgl/src/extra/libs/qrcode/qrcodegen.c **** 				if (!getModule(qrcode, x, y) && i < dataLen * 8) {
 585:Drivers/lvgl/src/extra/libs/qrcode/qrcodegen.c **** 					bool black = getBit(data[i >> 3], 7 - (i & 7));
 586:Drivers/lvgl/src/extra/libs/qrcode/qrcodegen.c **** 					setModule(qrcode, x, y, black);
ARM GAS  /var/folders/lp/x54gwt890xv47sdkqj1k04q40000gn/T//ccL4ZsdQ.s 			page 21


 587:Drivers/lvgl/src/extra/libs/qrcode/qrcodegen.c **** 					i++;
 588:Drivers/lvgl/src/extra/libs/qrcode/qrcodegen.c **** 				}
 589:Drivers/lvgl/src/extra/libs/qrcode/qrcodegen.c **** 				// If this QR Code has any remainder bits (0 to 7), they were assigned as
 590:Drivers/lvgl/src/extra/libs/qrcode/qrcodegen.c **** 				// 0/false/white by the constructor and are left unchanged by this method
 591:Drivers/lvgl/src/extra/libs/qrcode/qrcodegen.c **** 			}
 592:Drivers/lvgl/src/extra/libs/qrcode/qrcodegen.c **** 		}
 593:Drivers/lvgl/src/extra/libs/qrcode/qrcodegen.c **** 	}
 594:Drivers/lvgl/src/extra/libs/qrcode/qrcodegen.c **** 	LV_ASSERT(i == dataLen * 8);
 595:Drivers/lvgl/src/extra/libs/qrcode/qrcodegen.c **** }
 596:Drivers/lvgl/src/extra/libs/qrcode/qrcodegen.c **** 
 597:Drivers/lvgl/src/extra/libs/qrcode/qrcodegen.c **** 
 598:Drivers/lvgl/src/extra/libs/qrcode/qrcodegen.c **** // XORs the codeword modules in this QR Code with the given mask pattern.
 599:Drivers/lvgl/src/extra/libs/qrcode/qrcodegen.c **** // The function modules must be marked and the codeword bits must be drawn
 600:Drivers/lvgl/src/extra/libs/qrcode/qrcodegen.c **** // before masking. Due to the arithmetic of XOR, calling applyMask() with
 601:Drivers/lvgl/src/extra/libs/qrcode/qrcodegen.c **** // the same mask value a second time will undo the mask. A final well-formed
 602:Drivers/lvgl/src/extra/libs/qrcode/qrcodegen.c **** // QR Code needs exactly one (not zero, two, etc.) mask applied.
 603:Drivers/lvgl/src/extra/libs/qrcode/qrcodegen.c **** static void applyMask(const uint8_t functionModules[], uint8_t qrcode[], enum qrcodegen_Mask mask) 
 604:Drivers/lvgl/src/extra/libs/qrcode/qrcodegen.c **** 	LV_ASSERT(0 <= (int)mask && (int)mask <= 7);  // Disallows qrcodegen_Mask_AUTO
 605:Drivers/lvgl/src/extra/libs/qrcode/qrcodegen.c **** 	int qrsize = qrcodegen_getSize(qrcode);
 606:Drivers/lvgl/src/extra/libs/qrcode/qrcodegen.c **** 	for (int y = 0; y < qrsize; y++) {
 607:Drivers/lvgl/src/extra/libs/qrcode/qrcodegen.c **** 		for (int x = 0; x < qrsize; x++) {
 608:Drivers/lvgl/src/extra/libs/qrcode/qrcodegen.c **** 			if (getModule(functionModules, x, y))
 609:Drivers/lvgl/src/extra/libs/qrcode/qrcodegen.c **** 				continue;
 610:Drivers/lvgl/src/extra/libs/qrcode/qrcodegen.c **** 			bool invert;
 611:Drivers/lvgl/src/extra/libs/qrcode/qrcodegen.c **** 			switch ((int)mask) {
 612:Drivers/lvgl/src/extra/libs/qrcode/qrcodegen.c **** 				case 0:  invert = (x + y) % 2 == 0;                    break;
 613:Drivers/lvgl/src/extra/libs/qrcode/qrcodegen.c **** 				case 1:  invert = y % 2 == 0;                          break;
 614:Drivers/lvgl/src/extra/libs/qrcode/qrcodegen.c **** 				case 2:  invert = x % 3 == 0;                          break;
 615:Drivers/lvgl/src/extra/libs/qrcode/qrcodegen.c **** 				case 3:  invert = (x + y) % 3 == 0;                    break;
 616:Drivers/lvgl/src/extra/libs/qrcode/qrcodegen.c **** 				case 4:  invert = (x / 3 + y / 2) % 2 == 0;            break;
 617:Drivers/lvgl/src/extra/libs/qrcode/qrcodegen.c **** 				case 5:  invert = x * y % 2 + x * y % 3 == 0;          break;
 618:Drivers/lvgl/src/extra/libs/qrcode/qrcodegen.c **** 				case 6:  invert = (x * y % 2 + x * y % 3) % 2 == 0;    break;
 619:Drivers/lvgl/src/extra/libs/qrcode/qrcodegen.c **** 				case 7:  invert = ((x + y) % 2 + x * y % 3) % 2 == 0;  break;
 620:Drivers/lvgl/src/extra/libs/qrcode/qrcodegen.c **** 				default:  LV_ASSERT(false);  return;
 621:Drivers/lvgl/src/extra/libs/qrcode/qrcodegen.c **** 			}
 622:Drivers/lvgl/src/extra/libs/qrcode/qrcodegen.c **** 			bool val = getModule(qrcode, x, y);
 623:Drivers/lvgl/src/extra/libs/qrcode/qrcodegen.c **** 			setModule(qrcode, x, y, val ^ invert);
 624:Drivers/lvgl/src/extra/libs/qrcode/qrcodegen.c **** 		}
 625:Drivers/lvgl/src/extra/libs/qrcode/qrcodegen.c **** 	}
 626:Drivers/lvgl/src/extra/libs/qrcode/qrcodegen.c **** }
 627:Drivers/lvgl/src/extra/libs/qrcode/qrcodegen.c **** 
 628:Drivers/lvgl/src/extra/libs/qrcode/qrcodegen.c **** 
 629:Drivers/lvgl/src/extra/libs/qrcode/qrcodegen.c **** // Calculates and returns the penalty score based on state of the given QR Code's current modules.
 630:Drivers/lvgl/src/extra/libs/qrcode/qrcodegen.c **** // This is used by the automatic mask choice algorithm to find the mask pattern that yields the low
 631:Drivers/lvgl/src/extra/libs/qrcode/qrcodegen.c **** static long getPenaltyScore(const uint8_t qrcode[]) {
 632:Drivers/lvgl/src/extra/libs/qrcode/qrcodegen.c **** 	int qrsize = qrcodegen_getSize(qrcode);
 633:Drivers/lvgl/src/extra/libs/qrcode/qrcodegen.c **** 	long result = 0;
 634:Drivers/lvgl/src/extra/libs/qrcode/qrcodegen.c **** 
 635:Drivers/lvgl/src/extra/libs/qrcode/qrcodegen.c **** 	// Adjacent modules in row having same color, and finder-like patterns
 636:Drivers/lvgl/src/extra/libs/qrcode/qrcodegen.c **** 	for (int y = 0; y < qrsize; y++) {
 637:Drivers/lvgl/src/extra/libs/qrcode/qrcodegen.c **** 		unsigned char runHistory[7] = {0};
 638:Drivers/lvgl/src/extra/libs/qrcode/qrcodegen.c **** 		bool color = false;
 639:Drivers/lvgl/src/extra/libs/qrcode/qrcodegen.c **** 		unsigned char runX = 0;
 640:Drivers/lvgl/src/extra/libs/qrcode/qrcodegen.c **** 		for (int x = 0; x < qrsize; x++) {
 641:Drivers/lvgl/src/extra/libs/qrcode/qrcodegen.c **** 			if (getModule(qrcode, x, y) == color) {
 642:Drivers/lvgl/src/extra/libs/qrcode/qrcodegen.c **** 				runX++;
 643:Drivers/lvgl/src/extra/libs/qrcode/qrcodegen.c **** 				if (runX == 5)
ARM GAS  /var/folders/lp/x54gwt890xv47sdkqj1k04q40000gn/T//ccL4ZsdQ.s 			page 22


 644:Drivers/lvgl/src/extra/libs/qrcode/qrcodegen.c **** 					result += PENALTY_N1;
 645:Drivers/lvgl/src/extra/libs/qrcode/qrcodegen.c **** 				else if (runX > 5)
 646:Drivers/lvgl/src/extra/libs/qrcode/qrcodegen.c **** 					result++;
 647:Drivers/lvgl/src/extra/libs/qrcode/qrcodegen.c **** 			} else {
 648:Drivers/lvgl/src/extra/libs/qrcode/qrcodegen.c **** 				addRunToHistory(runX, runHistory);
 649:Drivers/lvgl/src/extra/libs/qrcode/qrcodegen.c **** 				if (!color && hasFinderLikePattern(runHistory))
 650:Drivers/lvgl/src/extra/libs/qrcode/qrcodegen.c **** 					result += PENALTY_N3;
 651:Drivers/lvgl/src/extra/libs/qrcode/qrcodegen.c **** 				color = getModule(qrcode, x, y);
 652:Drivers/lvgl/src/extra/libs/qrcode/qrcodegen.c **** 				runX = 1;
 653:Drivers/lvgl/src/extra/libs/qrcode/qrcodegen.c **** 			}
 654:Drivers/lvgl/src/extra/libs/qrcode/qrcodegen.c **** 		}
 655:Drivers/lvgl/src/extra/libs/qrcode/qrcodegen.c **** 		addRunToHistory(runX, runHistory);
 656:Drivers/lvgl/src/extra/libs/qrcode/qrcodegen.c **** 		if (color)
 657:Drivers/lvgl/src/extra/libs/qrcode/qrcodegen.c **** 			addRunToHistory(0, runHistory);  // Dummy run of white
 658:Drivers/lvgl/src/extra/libs/qrcode/qrcodegen.c **** 		if (hasFinderLikePattern(runHistory))
 659:Drivers/lvgl/src/extra/libs/qrcode/qrcodegen.c **** 			result += PENALTY_N3;
 660:Drivers/lvgl/src/extra/libs/qrcode/qrcodegen.c **** 	}
 661:Drivers/lvgl/src/extra/libs/qrcode/qrcodegen.c **** 	// Adjacent modules in column having same color, and finder-like patterns
 662:Drivers/lvgl/src/extra/libs/qrcode/qrcodegen.c **** 	for (int x = 0; x < qrsize; x++) {
 663:Drivers/lvgl/src/extra/libs/qrcode/qrcodegen.c **** 		unsigned char runHistory[7] = {0};
 664:Drivers/lvgl/src/extra/libs/qrcode/qrcodegen.c **** 		bool color = false;
 665:Drivers/lvgl/src/extra/libs/qrcode/qrcodegen.c **** 		unsigned char runY = 0;
 666:Drivers/lvgl/src/extra/libs/qrcode/qrcodegen.c **** 		for (int y = 0; y < qrsize; y++) {
 667:Drivers/lvgl/src/extra/libs/qrcode/qrcodegen.c **** 			if (getModule(qrcode, x, y) == color) {
 668:Drivers/lvgl/src/extra/libs/qrcode/qrcodegen.c **** 				runY++;
 669:Drivers/lvgl/src/extra/libs/qrcode/qrcodegen.c **** 				if (runY == 5)
 670:Drivers/lvgl/src/extra/libs/qrcode/qrcodegen.c **** 					result += PENALTY_N1;
 671:Drivers/lvgl/src/extra/libs/qrcode/qrcodegen.c **** 				else if (runY > 5)
 672:Drivers/lvgl/src/extra/libs/qrcode/qrcodegen.c **** 					result++;
 673:Drivers/lvgl/src/extra/libs/qrcode/qrcodegen.c **** 			} else {
 674:Drivers/lvgl/src/extra/libs/qrcode/qrcodegen.c **** 				addRunToHistory(runY, runHistory);
 675:Drivers/lvgl/src/extra/libs/qrcode/qrcodegen.c **** 				if (!color && hasFinderLikePattern(runHistory))
 676:Drivers/lvgl/src/extra/libs/qrcode/qrcodegen.c **** 					result += PENALTY_N3;
 677:Drivers/lvgl/src/extra/libs/qrcode/qrcodegen.c **** 				color = getModule(qrcode, x, y);
 678:Drivers/lvgl/src/extra/libs/qrcode/qrcodegen.c **** 				runY = 1;
 679:Drivers/lvgl/src/extra/libs/qrcode/qrcodegen.c **** 			}
 680:Drivers/lvgl/src/extra/libs/qrcode/qrcodegen.c **** 		}
 681:Drivers/lvgl/src/extra/libs/qrcode/qrcodegen.c **** 		addRunToHistory(runY, runHistory);
 682:Drivers/lvgl/src/extra/libs/qrcode/qrcodegen.c **** 		if (color)
 683:Drivers/lvgl/src/extra/libs/qrcode/qrcodegen.c **** 			addRunToHistory(0, runHistory);  // Dummy run of white
 684:Drivers/lvgl/src/extra/libs/qrcode/qrcodegen.c **** 		if (hasFinderLikePattern(runHistory))
 685:Drivers/lvgl/src/extra/libs/qrcode/qrcodegen.c **** 			result += PENALTY_N3;
 686:Drivers/lvgl/src/extra/libs/qrcode/qrcodegen.c **** 	}
 687:Drivers/lvgl/src/extra/libs/qrcode/qrcodegen.c **** 
 688:Drivers/lvgl/src/extra/libs/qrcode/qrcodegen.c **** 	// 2*2 blocks of modules having same color
 689:Drivers/lvgl/src/extra/libs/qrcode/qrcodegen.c **** 	for (int y = 0; y < qrsize - 1; y++) {
 690:Drivers/lvgl/src/extra/libs/qrcode/qrcodegen.c **** 		for (int x = 0; x < qrsize - 1; x++) {
 691:Drivers/lvgl/src/extra/libs/qrcode/qrcodegen.c **** 			bool  color = getModule(qrcode, x, y);
 692:Drivers/lvgl/src/extra/libs/qrcode/qrcodegen.c **** 			if (  color == getModule(qrcode, x + 1, y) &&
 693:Drivers/lvgl/src/extra/libs/qrcode/qrcodegen.c **** 			      color == getModule(qrcode, x, y + 1) &&
 694:Drivers/lvgl/src/extra/libs/qrcode/qrcodegen.c **** 			      color == getModule(qrcode, x + 1, y + 1))
 695:Drivers/lvgl/src/extra/libs/qrcode/qrcodegen.c **** 				result += PENALTY_N2;
 696:Drivers/lvgl/src/extra/libs/qrcode/qrcodegen.c **** 		}
 697:Drivers/lvgl/src/extra/libs/qrcode/qrcodegen.c **** 	}
 698:Drivers/lvgl/src/extra/libs/qrcode/qrcodegen.c **** 
 699:Drivers/lvgl/src/extra/libs/qrcode/qrcodegen.c **** 	// Balance of black and white modules
 700:Drivers/lvgl/src/extra/libs/qrcode/qrcodegen.c **** 	int black = 0;
ARM GAS  /var/folders/lp/x54gwt890xv47sdkqj1k04q40000gn/T//ccL4ZsdQ.s 			page 23


 701:Drivers/lvgl/src/extra/libs/qrcode/qrcodegen.c **** 	for (int y = 0; y < qrsize; y++) {
 702:Drivers/lvgl/src/extra/libs/qrcode/qrcodegen.c **** 		for (int x = 0; x < qrsize; x++) {
 703:Drivers/lvgl/src/extra/libs/qrcode/qrcodegen.c **** 			if (getModule(qrcode, x, y))
 704:Drivers/lvgl/src/extra/libs/qrcode/qrcodegen.c **** 				black++;
 705:Drivers/lvgl/src/extra/libs/qrcode/qrcodegen.c **** 		}
 706:Drivers/lvgl/src/extra/libs/qrcode/qrcodegen.c **** 	}
 707:Drivers/lvgl/src/extra/libs/qrcode/qrcodegen.c **** 	int total = qrsize * qrsize;  // Note that size is odd, so black/total != 1/2
 708:Drivers/lvgl/src/extra/libs/qrcode/qrcodegen.c **** 	// Compute the smallest integer k >= 0 such that (45-5k)% <= black/total <= (55+5k)%
 709:Drivers/lvgl/src/extra/libs/qrcode/qrcodegen.c **** 	int k = (int)((labs(black * 20L - total * 10L) + total - 1) / total) - 1;
 710:Drivers/lvgl/src/extra/libs/qrcode/qrcodegen.c **** 	result += k * PENALTY_N4;
 711:Drivers/lvgl/src/extra/libs/qrcode/qrcodegen.c **** 	return result;
 712:Drivers/lvgl/src/extra/libs/qrcode/qrcodegen.c **** }
 713:Drivers/lvgl/src/extra/libs/qrcode/qrcodegen.c **** 
 714:Drivers/lvgl/src/extra/libs/qrcode/qrcodegen.c **** 
 715:Drivers/lvgl/src/extra/libs/qrcode/qrcodegen.c **** // Inserts the given value to the front of the given array, which shifts over the
 716:Drivers/lvgl/src/extra/libs/qrcode/qrcodegen.c **** // existing values and deletes the last value. A helper function for getPenaltyScore().
 717:Drivers/lvgl/src/extra/libs/qrcode/qrcodegen.c **** static void addRunToHistory(unsigned char run, unsigned char history[7]) {
 718:Drivers/lvgl/src/extra/libs/qrcode/qrcodegen.c **** 	memmove(&history[1], &history[0], 6 * sizeof(history[0]));
 719:Drivers/lvgl/src/extra/libs/qrcode/qrcodegen.c **** 	history[0] = run;
 720:Drivers/lvgl/src/extra/libs/qrcode/qrcodegen.c **** }
 721:Drivers/lvgl/src/extra/libs/qrcode/qrcodegen.c **** 
 722:Drivers/lvgl/src/extra/libs/qrcode/qrcodegen.c **** 
 723:Drivers/lvgl/src/extra/libs/qrcode/qrcodegen.c **** // Tests whether the given run history has the pattern of ratio 1:1:3:1:1 in the middle, and
 724:Drivers/lvgl/src/extra/libs/qrcode/qrcodegen.c **** // surrounded by at least 4 on either or both ends. A helper function for getPenaltyScore().
 725:Drivers/lvgl/src/extra/libs/qrcode/qrcodegen.c **** // Must only be called immediately after a run of white modules has ended.
 726:Drivers/lvgl/src/extra/libs/qrcode/qrcodegen.c **** static bool hasFinderLikePattern(const unsigned char runHistory[7]) {
 511              		.loc 1 726 69 is_stmt 1 view -0
 512              		.cfi_startproc
 513              		@ args = 0, pretend = 0, frame = 0
 514              		@ frame_needed = 0, uses_anonymous_args = 0
 515              		@ link register save eliminated.
 727:Drivers/lvgl/src/extra/libs/qrcode/qrcodegen.c **** 	unsigned char n = runHistory[1];
 516              		.loc 1 727 2 view .LVU160
 517              		.loc 1 727 16 is_stmt 0 view .LVU161
 518 0000 4378     		ldrb	r3, [r0, #1]	@ zero_extendqisi2
 519              	.LVL43:
 728:Drivers/lvgl/src/extra/libs/qrcode/qrcodegen.c **** 	// The maximum QR Code size is 177, hence the run length n <= 177.
 729:Drivers/lvgl/src/extra/libs/qrcode/qrcodegen.c **** 	// Arithmetic is promoted to int, so n*4 will not overflow.
 730:Drivers/lvgl/src/extra/libs/qrcode/qrcodegen.c **** 	return n > 0 && runHistory[2] == n && runHistory[4] == n && runHistory[5] == n
 520              		.loc 1 730 2 is_stmt 1 view .LVU162
 731:Drivers/lvgl/src/extra/libs/qrcode/qrcodegen.c **** 		&& runHistory[3] == n * 3 && (runHistory[0] >= n * 4 || runHistory[6] >= n * 4);
 521              		.loc 1 731 29 is_stmt 0 view .LVU163
 522 0002 FBB1     		cbz	r3, .L48
 730:Drivers/lvgl/src/extra/libs/qrcode/qrcodegen.c **** 		&& runHistory[3] == n * 3 && (runHistory[0] >= n * 4 || runHistory[6] >= n * 4);
 523              		.loc 1 730 28 view .LVU164
 524 0004 8278     		ldrb	r2, [r0, #2]	@ zero_extendqisi2
 730:Drivers/lvgl/src/extra/libs/qrcode/qrcodegen.c **** 		&& runHistory[3] == n * 3 && (runHistory[0] >= n * 4 || runHistory[6] >= n * 4);
 525              		.loc 1 730 15 view .LVU165
 526 0006 9A42     		cmp	r2, r3
 527 0008 01D0     		beq	.L55
 528              		.loc 1 731 29 discriminator 7 view .LVU166
 529 000a 0020     		movs	r0, #0
 530              	.LVL44:
 531              		.loc 1 731 29 discriminator 7 view .LVU167
 532 000c 7047     		bx	lr
 533              	.LVL45:
 534              	.L55:
ARM GAS  /var/folders/lp/x54gwt890xv47sdkqj1k04q40000gn/T//ccL4ZsdQ.s 			page 24


 730:Drivers/lvgl/src/extra/libs/qrcode/qrcodegen.c **** 		&& runHistory[3] == n * 3 && (runHistory[0] >= n * 4 || runHistory[6] >= n * 4);
 535              		.loc 1 730 50 discriminator 1 view .LVU168
 536 000e 0279     		ldrb	r2, [r0, #4]	@ zero_extendqisi2
 730:Drivers/lvgl/src/extra/libs/qrcode/qrcodegen.c **** 		&& runHistory[3] == n * 3 && (runHistory[0] >= n * 4 || runHistory[6] >= n * 4);
 537              		.loc 1 730 37 discriminator 1 view .LVU169
 538 0010 9A42     		cmp	r2, r3
 539 0012 01D0     		beq	.L56
 540              		.loc 1 731 29 discriminator 7 view .LVU170
 541 0014 0020     		movs	r0, #0
 542              	.LVL46:
 543              		.loc 1 731 29 discriminator 7 view .LVU171
 544 0016 7047     		bx	lr
 545              	.LVL47:
 546              	.L56:
 730:Drivers/lvgl/src/extra/libs/qrcode/qrcodegen.c **** 		&& runHistory[3] == n * 3 && (runHistory[0] >= n * 4 || runHistory[6] >= n * 4);
 547              		.loc 1 730 72 discriminator 2 view .LVU172
 548 0018 4279     		ldrb	r2, [r0, #5]	@ zero_extendqisi2
 730:Drivers/lvgl/src/extra/libs/qrcode/qrcodegen.c **** 		&& runHistory[3] == n * 3 && (runHistory[0] >= n * 4 || runHistory[6] >= n * 4);
 549              		.loc 1 730 59 discriminator 2 view .LVU173
 550 001a 9A42     		cmp	r2, r3
 551 001c 01D0     		beq	.L57
 552              		.loc 1 731 29 discriminator 7 view .LVU174
 553 001e 0020     		movs	r0, #0
 554              	.LVL48:
 555              		.loc 1 731 29 discriminator 7 view .LVU175
 556 0020 7047     		bx	lr
 557              	.LVL49:
 558              	.L57:
 559              		.loc 1 731 16 discriminator 3 view .LVU176
 560 0022 C178     		ldrb	r1, [r0, #3]	@ zero_extendqisi2
 561              		.loc 1 731 25 discriminator 3 view .LVU177
 562 0024 03EB4302 		add	r2, r3, r3, lsl #1
 563              		.loc 1 731 3 discriminator 3 view .LVU178
 564 0028 9142     		cmp	r1, r2
 565 002a 01D0     		beq	.L58
 566              		.loc 1 731 29 discriminator 7 view .LVU179
 567 002c 0020     		movs	r0, #0
 568              	.LVL50:
 569              		.loc 1 731 29 discriminator 7 view .LVU180
 570 002e 7047     		bx	lr
 571              	.LVL51:
 572              	.L58:
 573              		.loc 1 731 43 discriminator 2 view .LVU181
 574 0030 0278     		ldrb	r2, [r0]	@ zero_extendqisi2
 575              		.loc 1 731 52 discriminator 2 view .LVU182
 576 0032 9900     		lsls	r1, r3, #2
 577              		.loc 1 731 29 discriminator 2 view .LVU183
 578 0034 B2EB830F 		cmp	r2, r3, lsl #2
 579 0038 06DA     		bge	.L53
 580              		.loc 1 731 69 discriminator 5 view .LVU184
 581 003a 8379     		ldrb	r3, [r0, #6]	@ zero_extendqisi2
 582              	.LVL52:
 583              		.loc 1 731 56 discriminator 5 view .LVU185
 584 003c 9942     		cmp	r1, r3
 585 003e 05DD     		ble	.L54
 586              		.loc 1 731 29 discriminator 7 view .LVU186
 587 0040 0020     		movs	r0, #0
ARM GAS  /var/folders/lp/x54gwt890xv47sdkqj1k04q40000gn/T//ccL4ZsdQ.s 			page 25


 588              	.LVL53:
 589              		.loc 1 731 29 discriminator 7 view .LVU187
 590 0042 7047     		bx	lr
 591              	.LVL54:
 592              	.L48:
 593              		.loc 1 731 29 discriminator 7 view .LVU188
 594 0044 0020     		movs	r0, #0
 595              	.LVL55:
 596              		.loc 1 731 29 discriminator 7 view .LVU189
 597 0046 7047     		bx	lr
 598              	.LVL56:
 599              	.L53:
 600              		.loc 1 731 29 discriminator 6 view .LVU190
 601 0048 0120     		movs	r0, #1
 602              	.LVL57:
 603              		.loc 1 731 29 discriminator 6 view .LVU191
 604 004a 7047     		bx	lr
 605              	.LVL58:
 606              	.L54:
 607              		.loc 1 731 29 discriminator 6 view .LVU192
 608 004c 0120     		movs	r0, #1
 609              	.LVL59:
 732:Drivers/lvgl/src/extra/libs/qrcode/qrcodegen.c **** }
 610              		.loc 1 732 1 view .LVU193
 611 004e 7047     		bx	lr
 612              		.cfi_endproc
 613              	.LFE21:
 615              		.section	.text.setModule,"ax",%progbits
 616              		.align	1
 617              		.syntax unified
 618              		.thumb
 619              		.thumb_func
 621              	setModule:
 622              	.LVL60:
 623              	.LFB25:
 733:Drivers/lvgl/src/extra/libs/qrcode/qrcodegen.c **** 
 734:Drivers/lvgl/src/extra/libs/qrcode/qrcodegen.c **** 
 735:Drivers/lvgl/src/extra/libs/qrcode/qrcodegen.c **** 
 736:Drivers/lvgl/src/extra/libs/qrcode/qrcodegen.c **** /*---- Basic QR Code information ----*/
 737:Drivers/lvgl/src/extra/libs/qrcode/qrcodegen.c **** 
 738:Drivers/lvgl/src/extra/libs/qrcode/qrcodegen.c **** // Public function - see documentation comment in header file.
 739:Drivers/lvgl/src/extra/libs/qrcode/qrcodegen.c **** int qrcodegen_getSize(const uint8_t qrcode[]) {
 740:Drivers/lvgl/src/extra/libs/qrcode/qrcodegen.c **** 	LV_ASSERT(qrcode != NULL);
 741:Drivers/lvgl/src/extra/libs/qrcode/qrcodegen.c **** 	int result = qrcode[0];
 742:Drivers/lvgl/src/extra/libs/qrcode/qrcodegen.c **** 	LV_ASSERT((qrcodegen_VERSION_MIN * 4 + 17) <= result
 743:Drivers/lvgl/src/extra/libs/qrcode/qrcodegen.c **** 		&& result <= (qrcodegen_VERSION_MAX * 4 + 17));
 744:Drivers/lvgl/src/extra/libs/qrcode/qrcodegen.c **** 	return result;
 745:Drivers/lvgl/src/extra/libs/qrcode/qrcodegen.c **** }
 746:Drivers/lvgl/src/extra/libs/qrcode/qrcodegen.c **** 
 747:Drivers/lvgl/src/extra/libs/qrcode/qrcodegen.c **** 
 748:Drivers/lvgl/src/extra/libs/qrcode/qrcodegen.c **** // Public function - see documentation comment in header file.
 749:Drivers/lvgl/src/extra/libs/qrcode/qrcodegen.c **** bool qrcodegen_getModule(const uint8_t qrcode[], int x, int y) {
 750:Drivers/lvgl/src/extra/libs/qrcode/qrcodegen.c **** 	LV_ASSERT(qrcode != NULL);
 751:Drivers/lvgl/src/extra/libs/qrcode/qrcodegen.c **** 	int qrsize = qrcode[0];
 752:Drivers/lvgl/src/extra/libs/qrcode/qrcodegen.c **** 	return (0 <= x && x < qrsize && 0 <= y && y < qrsize) && getModule(qrcode, x, y);
 753:Drivers/lvgl/src/extra/libs/qrcode/qrcodegen.c **** }
 754:Drivers/lvgl/src/extra/libs/qrcode/qrcodegen.c **** 
ARM GAS  /var/folders/lp/x54gwt890xv47sdkqj1k04q40000gn/T//ccL4ZsdQ.s 			page 26


 755:Drivers/lvgl/src/extra/libs/qrcode/qrcodegen.c **** 
 756:Drivers/lvgl/src/extra/libs/qrcode/qrcodegen.c **** // Gets the module at the given coordinates, which must be in bounds.
 757:Drivers/lvgl/src/extra/libs/qrcode/qrcodegen.c **** testable bool getModule(const uint8_t qrcode[], int x, int y) {
 758:Drivers/lvgl/src/extra/libs/qrcode/qrcodegen.c **** 	int qrsize = qrcode[0];
 759:Drivers/lvgl/src/extra/libs/qrcode/qrcodegen.c **** 	LV_ASSERT(21 <= qrsize && qrsize <= 177 && 0 <= x && x < qrsize && 0 <= y && y < qrsize);
 760:Drivers/lvgl/src/extra/libs/qrcode/qrcodegen.c **** 	int index = y * qrsize + x;
 761:Drivers/lvgl/src/extra/libs/qrcode/qrcodegen.c **** 	return getBit(qrcode[(index >> 3) + 1], index & 7);
 762:Drivers/lvgl/src/extra/libs/qrcode/qrcodegen.c **** }
 763:Drivers/lvgl/src/extra/libs/qrcode/qrcodegen.c **** 
 764:Drivers/lvgl/src/extra/libs/qrcode/qrcodegen.c **** 
 765:Drivers/lvgl/src/extra/libs/qrcode/qrcodegen.c **** // Sets the module at the given coordinates, which must be in bounds.
 766:Drivers/lvgl/src/extra/libs/qrcode/qrcodegen.c **** testable void setModule(uint8_t qrcode[], int x, int y, bool isBlack) {
 624              		.loc 1 766 71 is_stmt 1 view -0
 625              		.cfi_startproc
 626              		@ args = 0, pretend = 0, frame = 0
 627              		@ frame_needed = 0, uses_anonymous_args = 0
 628              		.loc 1 766 71 is_stmt 0 view .LVU195
 629 0000 00B5     		push	{lr}
 630              		.cfi_def_cfa_offset 4
 631              		.cfi_offset 14, -4
 767:Drivers/lvgl/src/extra/libs/qrcode/qrcodegen.c **** 	int qrsize = qrcode[0];
 632              		.loc 1 767 2 is_stmt 1 view .LVU196
 633              		.loc 1 767 21 is_stmt 0 view .LVU197
 634 0002 90F800C0 		ldrb	ip, [r0]	@ zero_extendqisi2
 635              	.LVL61:
 768:Drivers/lvgl/src/extra/libs/qrcode/qrcodegen.c **** 	LV_ASSERT(21 <= qrsize && qrsize <= 177 && 0 <= x && x < qrsize && 0 <= y && y < qrsize);
 636              		.loc 1 768 2 is_stmt 1 view .LVU198
 637              		.loc 1 768 2 view .LVU199
 638 0006 ACF1150E 		sub	lr, ip, #21
 639 000a BEF19C0F 		cmp	lr, #156
 640 000e 07D8     		bhi	.L60
 641              		.loc 1 768 2 is_stmt 0 discriminator 2 view .LVU200
 642 0010 0029     		cmp	r1, #0
 643 0012 05DB     		blt	.L60
 644              		.loc 1 768 2 discriminator 4 view .LVU201
 645 0014 8C45     		cmp	ip, r1
 646 0016 03DD     		ble	.L60
 647              		.loc 1 768 2 discriminator 6 view .LVU202
 648 0018 002A     		cmp	r2, #0
 649 001a 01DB     		blt	.L60
 650              		.loc 1 768 2 discriminator 8 view .LVU203
 651 001c 9445     		cmp	ip, r2
 652 001e 00DC     		bgt	.L61
 653              	.L60:
 654              		.loc 1 768 2 is_stmt 1 discriminator 9 view .LVU204
 655              		.loc 1 768 2 discriminator 9 view .LVU205
 656              		.loc 1 768 2 discriminator 9 view .LVU206
 657              		.loc 1 768 2 discriminator 9 view .LVU207
 658              		.loc 1 768 2 discriminator 9 view .LVU208
 659 0020 FEE7     		b	.L60
 660              	.L61:
 661              		.loc 1 768 2 discriminator 10 view .LVU209
 769:Drivers/lvgl/src/extra/libs/qrcode/qrcodegen.c **** 	int index = y * qrsize + x;
 662              		.loc 1 769 2 view .LVU210
 663              		.loc 1 769 6 is_stmt 0 view .LVU211
 664 0022 02FB0C11 		mla	r1, r2, ip, r1
 665              	.LVL62:
ARM GAS  /var/folders/lp/x54gwt890xv47sdkqj1k04q40000gn/T//ccL4ZsdQ.s 			page 27


 770:Drivers/lvgl/src/extra/libs/qrcode/qrcodegen.c **** 	int bitIndex = index & 7;
 666              		.loc 1 770 2 is_stmt 1 view .LVU212
 667              		.loc 1 770 6 is_stmt 0 view .LVU213
 668 0026 01F0070C 		and	ip, r1, #7
 669              	.LVL63:
 771:Drivers/lvgl/src/extra/libs/qrcode/qrcodegen.c **** 	int byteIndex = (index >> 3) + 1;
 670              		.loc 1 771 2 is_stmt 1 view .LVU214
 671              		.loc 1 771 25 is_stmt 0 view .LVU215
 672 002a C910     		asrs	r1, r1, #3
 673              	.LVL64:
 674              		.loc 1 771 6 view .LVU216
 675 002c 4A1C     		adds	r2, r1, #1
 676              	.LVL65:
 772:Drivers/lvgl/src/extra/libs/qrcode/qrcodegen.c **** 	if (isBlack)
 677              		.loc 1 772 2 is_stmt 1 view .LVU217
 678              		.loc 1 772 5 is_stmt 0 view .LVU218
 679 002e 3BB1     		cbz	r3, .L62
 773:Drivers/lvgl/src/extra/libs/qrcode/qrcodegen.c **** 		qrcode[byteIndex] |= 1 << bitIndex;
 680              		.loc 1 773 3 is_stmt 1 view .LVU219
 681              		.loc 1 773 9 is_stmt 0 view .LVU220
 682 0030 835C     		ldrb	r3, [r0, r2]	@ zero_extendqisi2
 683              	.LVL66:
 684              		.loc 1 773 26 view .LVU221
 685 0032 0121     		movs	r1, #1
 686 0034 01FA0CF1 		lsl	r1, r1, ip
 687              		.loc 1 773 21 view .LVU222
 688 0038 0B43     		orrs	r3, r3, r1
 689 003a 8354     		strb	r3, [r0, r2]
 690              	.L59:
 774:Drivers/lvgl/src/extra/libs/qrcode/qrcodegen.c **** 	else
 775:Drivers/lvgl/src/extra/libs/qrcode/qrcodegen.c **** 		qrcode[byteIndex] &= (1 << bitIndex) ^ 0xFF;
 776:Drivers/lvgl/src/extra/libs/qrcode/qrcodegen.c **** }
 691              		.loc 1 776 1 view .LVU223
 692 003c 5DF804FB 		ldr	pc, [sp], #4
 693              	.LVL67:
 694              	.L62:
 775:Drivers/lvgl/src/extra/libs/qrcode/qrcodegen.c **** }
 695              		.loc 1 775 3 is_stmt 1 view .LVU224
 775:Drivers/lvgl/src/extra/libs/qrcode/qrcodegen.c **** }
 696              		.loc 1 775 9 is_stmt 0 view .LVU225
 697 0040 815C     		ldrb	r1, [r0, r2]	@ zero_extendqisi2
 775:Drivers/lvgl/src/extra/libs/qrcode/qrcodegen.c **** }
 698              		.loc 1 775 27 view .LVU226
 699 0042 0123     		movs	r3, #1
 700              	.LVL68:
 775:Drivers/lvgl/src/extra/libs/qrcode/qrcodegen.c **** }
 701              		.loc 1 775 27 view .LVU227
 702 0044 03FA0CF3 		lsl	r3, r3, ip
 775:Drivers/lvgl/src/extra/libs/qrcode/qrcodegen.c **** }
 703              		.loc 1 775 40 view .LVU228
 704 0048 DB43     		mvns	r3, r3
 705 004a 5BB2     		sxtb	r3, r3
 775:Drivers/lvgl/src/extra/libs/qrcode/qrcodegen.c **** }
 706              		.loc 1 775 21 view .LVU229
 707 004c 0B40     		ands	r3, r3, r1
 708 004e 8354     		strb	r3, [r0, r2]
 709              		.loc 1 776 1 view .LVU230
ARM GAS  /var/folders/lp/x54gwt890xv47sdkqj1k04q40000gn/T//ccL4ZsdQ.s 			page 28


 710 0050 F4E7     		b	.L59
 711              		.cfi_endproc
 712              	.LFE25:
 714              		.section	.text.fillRectangle,"ax",%progbits
 715              		.align	1
 716              		.syntax unified
 717              		.thumb
 718              		.thumb_func
 720              	fillRectangle:
 721              	.LVL69:
 722              	.LFB16:
 559:Drivers/lvgl/src/extra/libs/qrcode/qrcodegen.c **** 	for (int dy = 0; dy < height; dy++) {
 723              		.loc 1 559 87 is_stmt 1 view -0
 724              		.cfi_startproc
 725              		@ args = 4, pretend = 0, frame = 0
 726              		@ frame_needed = 0, uses_anonymous_args = 0
 559:Drivers/lvgl/src/extra/libs/qrcode/qrcodegen.c **** 	for (int dy = 0; dy < height; dy++) {
 727              		.loc 1 559 87 is_stmt 0 view .LVU232
 728 0000 2DE9F047 		push	{r4, r5, r6, r7, r8, r9, r10, lr}
 729              		.cfi_def_cfa_offset 32
 730              		.cfi_offset 4, -32
 731              		.cfi_offset 5, -28
 732              		.cfi_offset 6, -24
 733              		.cfi_offset 7, -20
 734              		.cfi_offset 8, -16
 735              		.cfi_offset 9, -12
 736              		.cfi_offset 10, -8
 737              		.cfi_offset 14, -4
 738 0004 8046     		mov	r8, r0
 739 0006 0F46     		mov	r7, r1
 740 0008 1646     		mov	r6, r2
 741 000a 9A46     		mov	r10, r3
 742 000c DDF82090 		ldr	r9, [sp, #32]
 560:Drivers/lvgl/src/extra/libs/qrcode/qrcodegen.c **** 		for (int dx = 0; dx < width; dx++)
 743              		.loc 1 560 2 is_stmt 1 view .LVU233
 744              	.LBB9:
 560:Drivers/lvgl/src/extra/libs/qrcode/qrcodegen.c **** 		for (int dx = 0; dx < width; dx++)
 745              		.loc 1 560 7 view .LVU234
 746              	.LVL70:
 560:Drivers/lvgl/src/extra/libs/qrcode/qrcodegen.c **** 		for (int dx = 0; dx < width; dx++)
 747              		.loc 1 560 11 is_stmt 0 view .LVU235
 748 0010 0025     		movs	r5, #0
 560:Drivers/lvgl/src/extra/libs/qrcode/qrcodegen.c **** 		for (int dx = 0; dx < width; dx++)
 749              		.loc 1 560 2 view .LVU236
 750 0012 0AE0     		b	.L66
 751              	.LVL71:
 752              	.L67:
 753              	.LBB10:
 562:Drivers/lvgl/src/extra/libs/qrcode/qrcodegen.c **** 	}
 754              		.loc 1 562 4 is_stmt 1 view .LVU237
 755 0014 0123     		movs	r3, #1
 756 0016 EA19     		adds	r2, r5, r7
 757 0018 04EB0801 		add	r1, r4, r8
 758 001c 4846     		mov	r0, r9
 759 001e FFF7FEFF 		bl	setModule
 760              	.LVL72:
 561:Drivers/lvgl/src/extra/libs/qrcode/qrcodegen.c **** 			setModule(qrcode, left + dx, top + dy, true);
ARM GAS  /var/folders/lp/x54gwt890xv47sdkqj1k04q40000gn/T//ccL4ZsdQ.s 			page 29


 761              		.loc 1 561 34 discriminator 3 view .LVU238
 762 0022 0134     		adds	r4, r4, #1
 763              	.LVL73:
 764              	.L68:
 561:Drivers/lvgl/src/extra/libs/qrcode/qrcodegen.c **** 			setModule(qrcode, left + dx, top + dy, true);
 765              		.loc 1 561 23 discriminator 1 view .LVU239
 766 0024 B442     		cmp	r4, r6
 767 0026 F5DB     		blt	.L67
 768              	.LBE10:
 560:Drivers/lvgl/src/extra/libs/qrcode/qrcodegen.c **** 		for (int dx = 0; dx < width; dx++)
 769              		.loc 1 560 34 discriminator 2 view .LVU240
 770 0028 0135     		adds	r5, r5, #1
 771              	.LVL74:
 772              	.L66:
 560:Drivers/lvgl/src/extra/libs/qrcode/qrcodegen.c **** 		for (int dx = 0; dx < width; dx++)
 773              		.loc 1 560 22 discriminator 1 view .LVU241
 774 002a 5545     		cmp	r5, r10
 775 002c 01DA     		bge	.L71
 776              	.LBB11:
 561:Drivers/lvgl/src/extra/libs/qrcode/qrcodegen.c **** 			setModule(qrcode, left + dx, top + dy, true);
 777              		.loc 1 561 12 is_stmt 0 view .LVU242
 778 002e 0024     		movs	r4, #0
 779 0030 F8E7     		b	.L68
 780              	.L71:
 781              	.LBE11:
 782              	.LBE9:
 564:Drivers/lvgl/src/extra/libs/qrcode/qrcodegen.c **** 
 783              		.loc 1 564 1 view .LVU243
 784 0032 BDE8F087 		pop	{r4, r5, r6, r7, r8, r9, r10, pc}
 564:Drivers/lvgl/src/extra/libs/qrcode/qrcodegen.c **** 
 785              		.loc 1 564 1 view .LVU244
 786              		.cfi_endproc
 787              	.LFE16:
 789              		.section	.text.setModuleBounded,"ax",%progbits
 790              		.align	1
 791              		.syntax unified
 792              		.thumb
 793              		.thumb_func
 795              	setModuleBounded:
 796              	.LVL75:
 797              	.LFB26:
 777:Drivers/lvgl/src/extra/libs/qrcode/qrcodegen.c **** 
 778:Drivers/lvgl/src/extra/libs/qrcode/qrcodegen.c **** 
 779:Drivers/lvgl/src/extra/libs/qrcode/qrcodegen.c **** // Sets the module at the given coordinates, doing nothing if out of bounds.
 780:Drivers/lvgl/src/extra/libs/qrcode/qrcodegen.c **** testable void setModuleBounded(uint8_t qrcode[], int x, int y, bool isBlack) {
 798              		.loc 1 780 78 is_stmt 1 view -0
 799              		.cfi_startproc
 800              		@ args = 0, pretend = 0, frame = 0
 801              		@ frame_needed = 0, uses_anonymous_args = 0
 781:Drivers/lvgl/src/extra/libs/qrcode/qrcodegen.c **** 	int qrsize = qrcode[0];
 802              		.loc 1 781 2 view .LVU246
 803              		.loc 1 781 21 is_stmt 0 view .LVU247
 804 0000 90F800C0 		ldrb	ip, [r0]	@ zero_extendqisi2
 805              	.LVL76:
 782:Drivers/lvgl/src/extra/libs/qrcode/qrcodegen.c **** 	if (0 <= x && x < qrsize && 0 <= y && y < qrsize)
 806              		.loc 1 782 2 is_stmt 1 view .LVU248
 807              		.loc 1 782 5 is_stmt 0 view .LVU249
ARM GAS  /var/folders/lp/x54gwt890xv47sdkqj1k04q40000gn/T//ccL4ZsdQ.s 			page 30


 808 0004 0029     		cmp	r1, #0
 809              		.loc 1 782 5 view .LVU250
 810 0006 05DB     		blt	.L75
 811              		.loc 1 782 13 discriminator 1 view .LVU251
 812 0008 8C45     		cmp	ip, r1
 813 000a 03DD     		ble	.L75
 814              		.loc 1 782 27 discriminator 2 view .LVU252
 815 000c 002A     		cmp	r2, #0
 816 000e 01DB     		blt	.L75
 817              		.loc 1 782 37 discriminator 3 view .LVU253
 818 0010 9445     		cmp	ip, r2
 819 0012 00DC     		bgt	.L78
 820              	.L75:
 821 0014 7047     		bx	lr
 822              	.L78:
 780:Drivers/lvgl/src/extra/libs/qrcode/qrcodegen.c **** 	int qrsize = qrcode[0];
 823              		.loc 1 780 78 view .LVU254
 824 0016 08B5     		push	{r3, lr}
 825              		.cfi_def_cfa_offset 8
 826              		.cfi_offset 3, -8
 827              		.cfi_offset 14, -4
 783:Drivers/lvgl/src/extra/libs/qrcode/qrcodegen.c **** 		setModule(qrcode, x, y, isBlack);
 828              		.loc 1 783 3 is_stmt 1 view .LVU255
 829 0018 FFF7FEFF 		bl	setModule
 830              	.LVL77:
 784:Drivers/lvgl/src/extra/libs/qrcode/qrcodegen.c **** }
 831              		.loc 1 784 1 is_stmt 0 view .LVU256
 832 001c 08BD     		pop	{r3, pc}
 833              		.cfi_endproc
 834              	.LFE26:
 836              		.section	.text.getBit,"ax",%progbits
 837              		.align	1
 838              		.syntax unified
 839              		.thumb
 840              		.thumb_func
 842              	getBit:
 843              	.LVL78:
 844              	.LFB27:
 785:Drivers/lvgl/src/extra/libs/qrcode/qrcodegen.c **** 
 786:Drivers/lvgl/src/extra/libs/qrcode/qrcodegen.c **** 
 787:Drivers/lvgl/src/extra/libs/qrcode/qrcodegen.c **** // Returns true iff the i'th bit of x is set to 1. Requires x >= 0 and 0 <= i <= 14.
 788:Drivers/lvgl/src/extra/libs/qrcode/qrcodegen.c **** static bool getBit(int x, int i) {
 845              		.loc 1 788 34 is_stmt 1 view -0
 846              		.cfi_startproc
 847              		@ args = 0, pretend = 0, frame = 0
 848              		@ frame_needed = 0, uses_anonymous_args = 0
 849              		@ link register save eliminated.
 789:Drivers/lvgl/src/extra/libs/qrcode/qrcodegen.c **** 	return ((x >> i) & 1) != 0;
 850              		.loc 1 789 2 view .LVU258
 851              		.loc 1 789 13 is_stmt 0 view .LVU259
 852 0000 0841     		asrs	r0, r0, r1
 853              	.LVL79:
 790:Drivers/lvgl/src/extra/libs/qrcode/qrcodegen.c **** }
 854              		.loc 1 790 1 view .LVU260
 855 0002 00F00100 		and	r0, r0, #1
 856 0006 7047     		bx	lr
 857              		.cfi_endproc
ARM GAS  /var/folders/lp/x54gwt890xv47sdkqj1k04q40000gn/T//ccL4ZsdQ.s 			page 31


 858              	.LFE27:
 860              		.section	.text.getModule,"ax",%progbits
 861              		.align	1
 862              		.syntax unified
 863              		.thumb
 864              		.thumb_func
 866              	getModule:
 867              	.LVL80:
 868              	.LFB24:
 757:Drivers/lvgl/src/extra/libs/qrcode/qrcodegen.c **** 	int qrsize = qrcode[0];
 869              		.loc 1 757 63 is_stmt 1 view -0
 870              		.cfi_startproc
 871              		@ args = 0, pretend = 0, frame = 0
 872              		@ frame_needed = 0, uses_anonymous_args = 0
 757:Drivers/lvgl/src/extra/libs/qrcode/qrcodegen.c **** 	int qrsize = qrcode[0];
 873              		.loc 1 757 63 is_stmt 0 view .LVU262
 874 0000 08B5     		push	{r3, lr}
 875              		.cfi_def_cfa_offset 8
 876              		.cfi_offset 3, -8
 877              		.cfi_offset 14, -4
 758:Drivers/lvgl/src/extra/libs/qrcode/qrcodegen.c **** 	LV_ASSERT(21 <= qrsize && qrsize <= 177 && 0 <= x && x < qrsize && 0 <= y && y < qrsize);
 878              		.loc 1 758 2 is_stmt 1 view .LVU263
 758:Drivers/lvgl/src/extra/libs/qrcode/qrcodegen.c **** 	LV_ASSERT(21 <= qrsize && qrsize <= 177 && 0 <= x && x < qrsize && 0 <= y && y < qrsize);
 879              		.loc 1 758 21 is_stmt 0 view .LVU264
 880 0002 0378     		ldrb	r3, [r0]	@ zero_extendqisi2
 881              	.LVL81:
 759:Drivers/lvgl/src/extra/libs/qrcode/qrcodegen.c **** 	int index = y * qrsize + x;
 882              		.loc 1 759 2 is_stmt 1 view .LVU265
 759:Drivers/lvgl/src/extra/libs/qrcode/qrcodegen.c **** 	int index = y * qrsize + x;
 883              		.loc 1 759 2 view .LVU266
 884 0004 A3F1150C 		sub	ip, r3, #21
 885 0008 BCF19C0F 		cmp	ip, #156
 886 000c 07D8     		bhi	.L81
 759:Drivers/lvgl/src/extra/libs/qrcode/qrcodegen.c **** 	int index = y * qrsize + x;
 887              		.loc 1 759 2 is_stmt 0 discriminator 2 view .LVU267
 888 000e 0029     		cmp	r1, #0
 889 0010 05DB     		blt	.L81
 759:Drivers/lvgl/src/extra/libs/qrcode/qrcodegen.c **** 	int index = y * qrsize + x;
 890              		.loc 1 759 2 discriminator 4 view .LVU268
 891 0012 8B42     		cmp	r3, r1
 892 0014 03DD     		ble	.L81
 759:Drivers/lvgl/src/extra/libs/qrcode/qrcodegen.c **** 	int index = y * qrsize + x;
 893              		.loc 1 759 2 discriminator 6 view .LVU269
 894 0016 002A     		cmp	r2, #0
 895 0018 01DB     		blt	.L81
 759:Drivers/lvgl/src/extra/libs/qrcode/qrcodegen.c **** 	int index = y * qrsize + x;
 896              		.loc 1 759 2 discriminator 8 view .LVU270
 897 001a 9342     		cmp	r3, r2
 898 001c 00DC     		bgt	.L82
 899              	.L81:
 759:Drivers/lvgl/src/extra/libs/qrcode/qrcodegen.c **** 	int index = y * qrsize + x;
 900              		.loc 1 759 2 is_stmt 1 discriminator 9 view .LVU271
 759:Drivers/lvgl/src/extra/libs/qrcode/qrcodegen.c **** 	int index = y * qrsize + x;
 901              		.loc 1 759 2 discriminator 9 view .LVU272
 759:Drivers/lvgl/src/extra/libs/qrcode/qrcodegen.c **** 	int index = y * qrsize + x;
 902              		.loc 1 759 2 discriminator 9 view .LVU273
 759:Drivers/lvgl/src/extra/libs/qrcode/qrcodegen.c **** 	int index = y * qrsize + x;
ARM GAS  /var/folders/lp/x54gwt890xv47sdkqj1k04q40000gn/T//ccL4ZsdQ.s 			page 32


 903              		.loc 1 759 2 discriminator 9 view .LVU274
 759:Drivers/lvgl/src/extra/libs/qrcode/qrcodegen.c **** 	int index = y * qrsize + x;
 904              		.loc 1 759 2 discriminator 9 view .LVU275
 905 001e FEE7     		b	.L81
 906              	.L82:
 759:Drivers/lvgl/src/extra/libs/qrcode/qrcodegen.c **** 	int index = y * qrsize + x;
 907              		.loc 1 759 2 discriminator 10 view .LVU276
 760:Drivers/lvgl/src/extra/libs/qrcode/qrcodegen.c **** 	return getBit(qrcode[(index >> 3) + 1], index & 7);
 908              		.loc 1 760 2 view .LVU277
 760:Drivers/lvgl/src/extra/libs/qrcode/qrcodegen.c **** 	return getBit(qrcode[(index >> 3) + 1], index & 7);
 909              		.loc 1 760 6 is_stmt 0 view .LVU278
 910 0020 02FB0311 		mla	r1, r2, r3, r1
 911              	.LVL82:
 761:Drivers/lvgl/src/extra/libs/qrcode/qrcodegen.c **** }
 912              		.loc 1 761 2 is_stmt 1 view .LVU279
 761:Drivers/lvgl/src/extra/libs/qrcode/qrcodegen.c **** }
 913              		.loc 1 761 22 is_stmt 0 view .LVU280
 914 0024 00EBE100 		add	r0, r0, r1, asr #3
 915              	.LVL83:
 761:Drivers/lvgl/src/extra/libs/qrcode/qrcodegen.c **** }
 916              		.loc 1 761 9 view .LVU281
 917 0028 01F00701 		and	r1, r1, #7
 918              	.LVL84:
 761:Drivers/lvgl/src/extra/libs/qrcode/qrcodegen.c **** }
 919              		.loc 1 761 9 view .LVU282
 920 002c 4078     		ldrb	r0, [r0, #1]	@ zero_extendqisi2
 921 002e FFF7FEFF 		bl	getBit
 922              	.LVL85:
 762:Drivers/lvgl/src/extra/libs/qrcode/qrcodegen.c **** 
 923              		.loc 1 762 1 view .LVU283
 924 0032 08BD     		pop	{r3, pc}
 925              		.cfi_endproc
 926              	.LFE24:
 928              		.section	.text.calcSegmentBitLength,"ax",%progbits
 929              		.align	1
 930              		.syntax unified
 931              		.thumb
 932              		.thumb_func
 934              	calcSegmentBitLength:
 935              	.LVL86:
 936              	.LFB31:
 791:Drivers/lvgl/src/extra/libs/qrcode/qrcodegen.c **** 
 792:Drivers/lvgl/src/extra/libs/qrcode/qrcodegen.c **** 
 793:Drivers/lvgl/src/extra/libs/qrcode/qrcodegen.c **** 
 794:Drivers/lvgl/src/extra/libs/qrcode/qrcodegen.c **** /*---- Segment handling ----*/
 795:Drivers/lvgl/src/extra/libs/qrcode/qrcodegen.c **** 
 796:Drivers/lvgl/src/extra/libs/qrcode/qrcodegen.c **** // Public function - see documentation comment in header file.
 797:Drivers/lvgl/src/extra/libs/qrcode/qrcodegen.c **** bool qrcodegen_isAlphanumeric(const char *text) {
 798:Drivers/lvgl/src/extra/libs/qrcode/qrcodegen.c **** 	LV_ASSERT(text != NULL);
 799:Drivers/lvgl/src/extra/libs/qrcode/qrcodegen.c **** 	for (; *text != '\0'; text++) {
 800:Drivers/lvgl/src/extra/libs/qrcode/qrcodegen.c **** 		if (strchr(ALPHANUMERIC_CHARSET, *text) == NULL)
 801:Drivers/lvgl/src/extra/libs/qrcode/qrcodegen.c **** 			return false;
 802:Drivers/lvgl/src/extra/libs/qrcode/qrcodegen.c **** 	}
 803:Drivers/lvgl/src/extra/libs/qrcode/qrcodegen.c **** 	return true;
 804:Drivers/lvgl/src/extra/libs/qrcode/qrcodegen.c **** }
 805:Drivers/lvgl/src/extra/libs/qrcode/qrcodegen.c **** 
 806:Drivers/lvgl/src/extra/libs/qrcode/qrcodegen.c **** 
ARM GAS  /var/folders/lp/x54gwt890xv47sdkqj1k04q40000gn/T//ccL4ZsdQ.s 			page 33


 807:Drivers/lvgl/src/extra/libs/qrcode/qrcodegen.c **** // Public function - see documentation comment in header file.
 808:Drivers/lvgl/src/extra/libs/qrcode/qrcodegen.c **** bool qrcodegen_isNumeric(const char *text) {
 809:Drivers/lvgl/src/extra/libs/qrcode/qrcodegen.c **** 	LV_ASSERT(text != NULL);
 810:Drivers/lvgl/src/extra/libs/qrcode/qrcodegen.c **** 	for (; *text != '\0'; text++) {
 811:Drivers/lvgl/src/extra/libs/qrcode/qrcodegen.c **** 		if (*text < '0' || *text > '9')
 812:Drivers/lvgl/src/extra/libs/qrcode/qrcodegen.c **** 			return false;
 813:Drivers/lvgl/src/extra/libs/qrcode/qrcodegen.c **** 	}
 814:Drivers/lvgl/src/extra/libs/qrcode/qrcodegen.c **** 	return true;
 815:Drivers/lvgl/src/extra/libs/qrcode/qrcodegen.c **** }
 816:Drivers/lvgl/src/extra/libs/qrcode/qrcodegen.c **** 
 817:Drivers/lvgl/src/extra/libs/qrcode/qrcodegen.c **** 
 818:Drivers/lvgl/src/extra/libs/qrcode/qrcodegen.c **** // Public function - see documentation comment in header file.
 819:Drivers/lvgl/src/extra/libs/qrcode/qrcodegen.c **** size_t qrcodegen_calcSegmentBufferSize(enum qrcodegen_Mode mode, size_t numChars) {
 820:Drivers/lvgl/src/extra/libs/qrcode/qrcodegen.c **** 	int temp = calcSegmentBitLength(mode, numChars);
 821:Drivers/lvgl/src/extra/libs/qrcode/qrcodegen.c **** 	if (temp == -1)
 822:Drivers/lvgl/src/extra/libs/qrcode/qrcodegen.c **** 		return SIZE_MAX;
 823:Drivers/lvgl/src/extra/libs/qrcode/qrcodegen.c **** 	LV_ASSERT(0 <= temp && temp <= INT16_MAX);
 824:Drivers/lvgl/src/extra/libs/qrcode/qrcodegen.c **** 	return ((size_t)temp + 7) / 8;
 825:Drivers/lvgl/src/extra/libs/qrcode/qrcodegen.c **** }
 826:Drivers/lvgl/src/extra/libs/qrcode/qrcodegen.c **** 
 827:Drivers/lvgl/src/extra/libs/qrcode/qrcodegen.c **** 
 828:Drivers/lvgl/src/extra/libs/qrcode/qrcodegen.c **** // Returns the number of data bits needed to represent a segment
 829:Drivers/lvgl/src/extra/libs/qrcode/qrcodegen.c **** // containing the given number of characters using the given mode. Notes:
 830:Drivers/lvgl/src/extra/libs/qrcode/qrcodegen.c **** // - Returns -1 on failure, i.e. numChars > INT16_MAX or
 831:Drivers/lvgl/src/extra/libs/qrcode/qrcodegen.c **** //   the number of needed bits exceeds INT16_MAX (i.e. 32767).
 832:Drivers/lvgl/src/extra/libs/qrcode/qrcodegen.c **** // - Otherwise, all valid results are in the range [0, INT16_MAX].
 833:Drivers/lvgl/src/extra/libs/qrcode/qrcodegen.c **** // - For byte mode, numChars measures the number of bytes, not Unicode code points.
 834:Drivers/lvgl/src/extra/libs/qrcode/qrcodegen.c **** // - For ECI mode, numChars must be 0, and the worst-case number of bits is returned.
 835:Drivers/lvgl/src/extra/libs/qrcode/qrcodegen.c **** //   An actual ECI segment can have shorter data. For non-ECI modes, the result is exact.
 836:Drivers/lvgl/src/extra/libs/qrcode/qrcodegen.c **** testable int calcSegmentBitLength(enum qrcodegen_Mode mode, size_t numChars) {
 937              		.loc 1 836 78 is_stmt 1 view -0
 938              		.cfi_startproc
 939              		@ args = 0, pretend = 0, frame = 0
 940              		@ frame_needed = 0, uses_anonymous_args = 0
 941              		@ link register save eliminated.
 837:Drivers/lvgl/src/extra/libs/qrcode/qrcodegen.c **** 	// All calculations are designed to avoid overflow on all platforms
 838:Drivers/lvgl/src/extra/libs/qrcode/qrcodegen.c **** 	if (numChars > (unsigned int)INT16_MAX)
 942              		.loc 1 838 2 view .LVU285
 943              		.loc 1 838 5 is_stmt 0 view .LVU286
 944 0000 B1F5004F 		cmp	r1, #32768
 945 0004 2DD2     		bcs	.L96
 839:Drivers/lvgl/src/extra/libs/qrcode/qrcodegen.c **** 		return -1;
 840:Drivers/lvgl/src/extra/libs/qrcode/qrcodegen.c **** 	long result = (long)numChars;
 946              		.loc 1 840 2 is_stmt 1 view .LVU287
 947              	.LVL87:
 841:Drivers/lvgl/src/extra/libs/qrcode/qrcodegen.c **** 	if (mode == qrcodegen_Mode_NUMERIC)
 948              		.loc 1 841 2 view .LVU288
 949 0006 431E     		subs	r3, r0, #1
 950 0008 072B     		cmp	r3, #7
 951 000a 26D8     		bhi	.L99
 952 000c DFE803F0 		tbb	[pc, r3]
 953              	.L88:
 954 0010 04       		.byte	(.L92-.L88)/2
 955 0011 13       		.byte	(.L91-.L88)/2
 956 0012 25       		.byte	(.L99-.L88)/2
 957 0013 1C       		.byte	(.L90-.L88)/2
 958 0014 25       		.byte	(.L99-.L88)/2
ARM GAS  /var/folders/lp/x54gwt890xv47sdkqj1k04q40000gn/T//ccL4ZsdQ.s 			page 34


 959 0015 25       		.byte	(.L99-.L88)/2
 960 0016 23       		.byte	(.L89-.L88)/2
 961 0017 1E       		.byte	(.L87-.L88)/2
 962              		.p2align 1
 963              	.L92:
 842:Drivers/lvgl/src/extra/libs/qrcode/qrcodegen.c **** 		result = (result * 10 + 2) / 3;  // ceil(10/3 * n)
 964              		.loc 1 842 3 view .LVU289
 965              		.loc 1 842 20 is_stmt 0 view .LVU290
 966 0018 01EB8101 		add	r1, r1, r1, lsl #2
 967              	.LVL88:
 968              		.loc 1 842 20 view .LVU291
 969 001c 4900     		lsls	r1, r1, #1
 970              		.loc 1 842 25 view .LVU292
 971 001e 0231     		adds	r1, r1, #2
 972              		.loc 1 842 10 view .LVU293
 973 0020 134B     		ldr	r3, .L101
 974 0022 83FB0123 		smull	r2, r3, r3, r1
 975 0026 A3EBE170 		sub	r0, r3, r1, asr #31
 976              	.LVL89:
 977              	.L93:
 843:Drivers/lvgl/src/extra/libs/qrcode/qrcodegen.c **** 	else if (mode == qrcodegen_Mode_ALPHANUMERIC)
 844:Drivers/lvgl/src/extra/libs/qrcode/qrcodegen.c **** 		result = (result * 11 + 1) / 2;  // ceil(11/2 * n)
 845:Drivers/lvgl/src/extra/libs/qrcode/qrcodegen.c **** 	else if (mode == qrcodegen_Mode_BYTE)
 846:Drivers/lvgl/src/extra/libs/qrcode/qrcodegen.c **** 		result *= 8;
 847:Drivers/lvgl/src/extra/libs/qrcode/qrcodegen.c **** 	else if (mode == qrcodegen_Mode_KANJI)
 848:Drivers/lvgl/src/extra/libs/qrcode/qrcodegen.c **** 		result *= 13;
 849:Drivers/lvgl/src/extra/libs/qrcode/qrcodegen.c **** 	else if (mode == qrcodegen_Mode_ECI && numChars == 0)
 850:Drivers/lvgl/src/extra/libs/qrcode/qrcodegen.c **** 		result = 3 * 8;
 851:Drivers/lvgl/src/extra/libs/qrcode/qrcodegen.c **** 	else {  // Invalid argument
 852:Drivers/lvgl/src/extra/libs/qrcode/qrcodegen.c **** 		LV_ASSERT(false);
 853:Drivers/lvgl/src/extra/libs/qrcode/qrcodegen.c **** 		return -1;
 854:Drivers/lvgl/src/extra/libs/qrcode/qrcodegen.c **** 	}
 855:Drivers/lvgl/src/extra/libs/qrcode/qrcodegen.c **** 	LV_ASSERT(result >= 0);
 978              		.loc 1 855 2 is_stmt 1 view .LVU294
 979              		.loc 1 855 2 view .LVU295
 980 002a 0028     		cmp	r0, #0
 981 002c 16DB     		blt	.L95
 982              	.LVL90:
 983              	.L94:
 984              		.loc 1 855 2 discriminator 2 view .LVU296
 856:Drivers/lvgl/src/extra/libs/qrcode/qrcodegen.c **** 	if ((unsigned int)result > (unsigned int)INT16_MAX)
 985              		.loc 1 856 2 view .LVU297
 986              		.loc 1 856 5 is_stmt 0 view .LVU298
 987 002e B0F5004F 		cmp	r0, #32768
 988 0032 19D2     		bcs	.L100
 989              	.L84:
 857:Drivers/lvgl/src/extra/libs/qrcode/qrcodegen.c **** 		return -1;
 858:Drivers/lvgl/src/extra/libs/qrcode/qrcodegen.c **** 	return (int)result;
 859:Drivers/lvgl/src/extra/libs/qrcode/qrcodegen.c **** }
 990              		.loc 1 859 1 view .LVU299
 991 0034 7047     		bx	lr
 992              	.LVL91:
 993              	.L91:
 844:Drivers/lvgl/src/extra/libs/qrcode/qrcodegen.c **** 	else if (mode == qrcodegen_Mode_BYTE)
 994              		.loc 1 844 3 is_stmt 1 view .LVU300
 844:Drivers/lvgl/src/extra/libs/qrcode/qrcodegen.c **** 	else if (mode == qrcodegen_Mode_BYTE)
 995              		.loc 1 844 20 is_stmt 0 view .LVU301
ARM GAS  /var/folders/lp/x54gwt890xv47sdkqj1k04q40000gn/T//ccL4ZsdQ.s 			page 35


 996 0036 01EB8103 		add	r3, r1, r1, lsl #2
 997 003a 01EB4301 		add	r1, r1, r3, lsl #1
 998              	.LVL92:
 844:Drivers/lvgl/src/extra/libs/qrcode/qrcodegen.c **** 	else if (mode == qrcodegen_Mode_BYTE)
 999              		.loc 1 844 25 view .LVU302
 1000 003e 0131     		adds	r1, r1, #1
 844:Drivers/lvgl/src/extra/libs/qrcode/qrcodegen.c **** 	else if (mode == qrcodegen_Mode_BYTE)
 1001              		.loc 1 844 10 view .LVU303
 1002 0040 01EBD171 		add	r1, r1, r1, lsr #31
 1003 0044 4810     		asrs	r0, r1, #1
 1004              	.LVL93:
 844:Drivers/lvgl/src/extra/libs/qrcode/qrcodegen.c **** 	else if (mode == qrcodegen_Mode_BYTE)
 1005              		.loc 1 844 10 view .LVU304
 1006 0046 F0E7     		b	.L93
 1007              	.LVL94:
 1008              	.L90:
 846:Drivers/lvgl/src/extra/libs/qrcode/qrcodegen.c **** 	else if (mode == qrcodegen_Mode_KANJI)
 1009              		.loc 1 846 3 is_stmt 1 view .LVU305
 846:Drivers/lvgl/src/extra/libs/qrcode/qrcodegen.c **** 	else if (mode == qrcodegen_Mode_KANJI)
 1010              		.loc 1 846 10 is_stmt 0 view .LVU306
 1011 0048 C800     		lsls	r0, r1, #3
 1012              	.LVL95:
 846:Drivers/lvgl/src/extra/libs/qrcode/qrcodegen.c **** 	else if (mode == qrcodegen_Mode_KANJI)
 1013              		.loc 1 846 10 view .LVU307
 1014 004a EEE7     		b	.L93
 1015              	.LVL96:
 1016              	.L87:
 848:Drivers/lvgl/src/extra/libs/qrcode/qrcodegen.c **** 	else if (mode == qrcodegen_Mode_ECI && numChars == 0)
 1017              		.loc 1 848 3 is_stmt 1 view .LVU308
 848:Drivers/lvgl/src/extra/libs/qrcode/qrcodegen.c **** 	else if (mode == qrcodegen_Mode_ECI && numChars == 0)
 1018              		.loc 1 848 10 is_stmt 0 view .LVU309
 1019 004c 01EB4103 		add	r3, r1, r1, lsl #1
 1020 0050 01EB8300 		add	r0, r1, r3, lsl #2
 1021              	.LVL97:
 848:Drivers/lvgl/src/extra/libs/qrcode/qrcodegen.c **** 	else if (mode == qrcodegen_Mode_ECI && numChars == 0)
 1022              		.loc 1 848 10 view .LVU310
 1023 0054 E9E7     		b	.L93
 1024              	.LVL98:
 1025              	.L89:
 849:Drivers/lvgl/src/extra/libs/qrcode/qrcodegen.c **** 		result = 3 * 8;
 1026              		.loc 1 849 38 discriminator 1 view .LVU311
 1027 0056 11B1     		cbz	r1, .L97
 1028 0058 FFE7     		b	.L86
 1029              	.L99:
 1030              	.L86:
 852:Drivers/lvgl/src/extra/libs/qrcode/qrcodegen.c **** 		return -1;
 1031              		.loc 1 852 3 is_stmt 1 discriminator 1 view .LVU312
 852:Drivers/lvgl/src/extra/libs/qrcode/qrcodegen.c **** 		return -1;
 1032              		.loc 1 852 3 discriminator 1 view .LVU313
 852:Drivers/lvgl/src/extra/libs/qrcode/qrcodegen.c **** 		return -1;
 1033              		.loc 1 852 3 discriminator 1 view .LVU314
 852:Drivers/lvgl/src/extra/libs/qrcode/qrcodegen.c **** 		return -1;
 1034              		.loc 1 852 3 discriminator 1 view .LVU315
 852:Drivers/lvgl/src/extra/libs/qrcode/qrcodegen.c **** 		return -1;
 1035              		.loc 1 852 3 discriminator 1 view .LVU316
 1036 005a FEE7     		b	.L86
 1037              	.LVL99:
ARM GAS  /var/folders/lp/x54gwt890xv47sdkqj1k04q40000gn/T//ccL4ZsdQ.s 			page 36


 1038              	.L95:
 855:Drivers/lvgl/src/extra/libs/qrcode/qrcodegen.c **** 	if ((unsigned int)result > (unsigned int)INT16_MAX)
 1039              		.loc 1 855 2 discriminator 1 view .LVU317
 855:Drivers/lvgl/src/extra/libs/qrcode/qrcodegen.c **** 	if ((unsigned int)result > (unsigned int)INT16_MAX)
 1040              		.loc 1 855 2 discriminator 1 view .LVU318
 855:Drivers/lvgl/src/extra/libs/qrcode/qrcodegen.c **** 	if ((unsigned int)result > (unsigned int)INT16_MAX)
 1041              		.loc 1 855 2 discriminator 1 view .LVU319
 855:Drivers/lvgl/src/extra/libs/qrcode/qrcodegen.c **** 	if ((unsigned int)result > (unsigned int)INT16_MAX)
 1042              		.loc 1 855 2 discriminator 1 view .LVU320
 855:Drivers/lvgl/src/extra/libs/qrcode/qrcodegen.c **** 	if ((unsigned int)result > (unsigned int)INT16_MAX)
 1043              		.loc 1 855 2 discriminator 1 view .LVU321
 1044 005c FEE7     		b	.L95
 1045              	.LVL100:
 1046              	.L97:
 850:Drivers/lvgl/src/extra/libs/qrcode/qrcodegen.c **** 	else {  // Invalid argument
 1047              		.loc 1 850 10 is_stmt 0 view .LVU322
 1048 005e 1820     		movs	r0, #24
 1049              	.LVL101:
 850:Drivers/lvgl/src/extra/libs/qrcode/qrcodegen.c **** 	else {  // Invalid argument
 1050              		.loc 1 850 10 view .LVU323
 1051 0060 E5E7     		b	.L94
 1052              	.LVL102:
 1053              	.L96:
 839:Drivers/lvgl/src/extra/libs/qrcode/qrcodegen.c **** 	long result = (long)numChars;
 1054              		.loc 1 839 10 view .LVU324
 1055 0062 4FF0FF30 		mov	r0, #-1
 1056              	.LVL103:
 839:Drivers/lvgl/src/extra/libs/qrcode/qrcodegen.c **** 	long result = (long)numChars;
 1057              		.loc 1 839 10 view .LVU325
 1058 0066 7047     		bx	lr
 1059              	.LVL104:
 1060              	.L100:
 857:Drivers/lvgl/src/extra/libs/qrcode/qrcodegen.c **** 	return (int)result;
 1061              		.loc 1 857 10 view .LVU326
 1062 0068 4FF0FF30 		mov	r0, #-1
 1063 006c E2E7     		b	.L84
 1064              	.L102:
 1065 006e 00BF     		.align	2
 1066              	.L101:
 1067 0070 56555555 		.word	1431655766
 1068              		.cfi_endproc
 1069              	.LFE31:
 1071              		.section	.text.numCharCountBits,"ax",%progbits
 1072              		.align	1
 1073              		.syntax unified
 1074              		.thumb
 1075              		.thumb_func
 1077              	numCharCountBits:
 1078              	.LVL105:
 1079              	.LFB37:
 860:Drivers/lvgl/src/extra/libs/qrcode/qrcodegen.c **** 
 861:Drivers/lvgl/src/extra/libs/qrcode/qrcodegen.c **** 
 862:Drivers/lvgl/src/extra/libs/qrcode/qrcodegen.c **** // Public function - see documentation comment in header file.
 863:Drivers/lvgl/src/extra/libs/qrcode/qrcodegen.c **** struct qrcodegen_Segment qrcodegen_makeBytes(const uint8_t data[], size_t len, uint8_t buf[]) {
 864:Drivers/lvgl/src/extra/libs/qrcode/qrcodegen.c **** 	LV_ASSERT(data != NULL || len == 0);
 865:Drivers/lvgl/src/extra/libs/qrcode/qrcodegen.c **** 	struct qrcodegen_Segment result;
 866:Drivers/lvgl/src/extra/libs/qrcode/qrcodegen.c **** 	result.mode = qrcodegen_Mode_BYTE;
ARM GAS  /var/folders/lp/x54gwt890xv47sdkqj1k04q40000gn/T//ccL4ZsdQ.s 			page 37


 867:Drivers/lvgl/src/extra/libs/qrcode/qrcodegen.c **** 	result.bitLength = calcSegmentBitLength(result.mode, len);
 868:Drivers/lvgl/src/extra/libs/qrcode/qrcodegen.c **** 	LV_ASSERT(result.bitLength != -1);
 869:Drivers/lvgl/src/extra/libs/qrcode/qrcodegen.c **** 	result.numChars = (int)len;
 870:Drivers/lvgl/src/extra/libs/qrcode/qrcodegen.c **** 	if (len > 0)
 871:Drivers/lvgl/src/extra/libs/qrcode/qrcodegen.c **** 		memcpy(buf, data, len * sizeof(buf[0]));
 872:Drivers/lvgl/src/extra/libs/qrcode/qrcodegen.c **** 	result.data = buf;
 873:Drivers/lvgl/src/extra/libs/qrcode/qrcodegen.c **** 	return result;
 874:Drivers/lvgl/src/extra/libs/qrcode/qrcodegen.c **** }
 875:Drivers/lvgl/src/extra/libs/qrcode/qrcodegen.c **** 
 876:Drivers/lvgl/src/extra/libs/qrcode/qrcodegen.c **** 
 877:Drivers/lvgl/src/extra/libs/qrcode/qrcodegen.c **** // Public function - see documentation comment in header file.
 878:Drivers/lvgl/src/extra/libs/qrcode/qrcodegen.c **** struct qrcodegen_Segment qrcodegen_makeNumeric(const char *digits, uint8_t buf[]) {
 879:Drivers/lvgl/src/extra/libs/qrcode/qrcodegen.c **** 	LV_ASSERT(digits != NULL);
 880:Drivers/lvgl/src/extra/libs/qrcode/qrcodegen.c **** 	struct qrcodegen_Segment result;
 881:Drivers/lvgl/src/extra/libs/qrcode/qrcodegen.c **** 	size_t len = strlen(digits);
 882:Drivers/lvgl/src/extra/libs/qrcode/qrcodegen.c **** 	result.mode = qrcodegen_Mode_NUMERIC;
 883:Drivers/lvgl/src/extra/libs/qrcode/qrcodegen.c **** 	int bitLen = calcSegmentBitLength(result.mode, len);
 884:Drivers/lvgl/src/extra/libs/qrcode/qrcodegen.c **** 	LV_ASSERT(bitLen != -1);
 885:Drivers/lvgl/src/extra/libs/qrcode/qrcodegen.c **** 	result.numChars = (int)len;
 886:Drivers/lvgl/src/extra/libs/qrcode/qrcodegen.c **** 	if (bitLen > 0)
 887:Drivers/lvgl/src/extra/libs/qrcode/qrcodegen.c **** 		memset(buf, 0, ((size_t)bitLen + 7) / 8 * sizeof(buf[0]));
 888:Drivers/lvgl/src/extra/libs/qrcode/qrcodegen.c **** 	result.bitLength = 0;
 889:Drivers/lvgl/src/extra/libs/qrcode/qrcodegen.c **** 
 890:Drivers/lvgl/src/extra/libs/qrcode/qrcodegen.c **** 	unsigned int accumData = 0;
 891:Drivers/lvgl/src/extra/libs/qrcode/qrcodegen.c **** 	int accumCount = 0;
 892:Drivers/lvgl/src/extra/libs/qrcode/qrcodegen.c **** 	for (; *digits != '\0'; digits++) {
 893:Drivers/lvgl/src/extra/libs/qrcode/qrcodegen.c **** 		char c = *digits;
 894:Drivers/lvgl/src/extra/libs/qrcode/qrcodegen.c **** 		LV_ASSERT('0' <= c && c <= '9');
 895:Drivers/lvgl/src/extra/libs/qrcode/qrcodegen.c **** 		accumData = accumData * 10 + (unsigned int)(c - '0');
 896:Drivers/lvgl/src/extra/libs/qrcode/qrcodegen.c **** 		accumCount++;
 897:Drivers/lvgl/src/extra/libs/qrcode/qrcodegen.c **** 		if (accumCount == 3) {
 898:Drivers/lvgl/src/extra/libs/qrcode/qrcodegen.c **** 			appendBitsToBuffer(accumData, 10, buf, &result.bitLength);
 899:Drivers/lvgl/src/extra/libs/qrcode/qrcodegen.c **** 			accumData = 0;
 900:Drivers/lvgl/src/extra/libs/qrcode/qrcodegen.c **** 			accumCount = 0;
 901:Drivers/lvgl/src/extra/libs/qrcode/qrcodegen.c **** 		}
 902:Drivers/lvgl/src/extra/libs/qrcode/qrcodegen.c **** 	}
 903:Drivers/lvgl/src/extra/libs/qrcode/qrcodegen.c **** 	if (accumCount > 0)  // 1 or 2 digits remaining
 904:Drivers/lvgl/src/extra/libs/qrcode/qrcodegen.c **** 		appendBitsToBuffer(accumData, accumCount * 3 + 1, buf, &result.bitLength);
 905:Drivers/lvgl/src/extra/libs/qrcode/qrcodegen.c **** 	LV_ASSERT(result.bitLength == bitLen);
 906:Drivers/lvgl/src/extra/libs/qrcode/qrcodegen.c **** 	result.data = buf;
 907:Drivers/lvgl/src/extra/libs/qrcode/qrcodegen.c **** 	return result;
 908:Drivers/lvgl/src/extra/libs/qrcode/qrcodegen.c **** }
 909:Drivers/lvgl/src/extra/libs/qrcode/qrcodegen.c **** 
 910:Drivers/lvgl/src/extra/libs/qrcode/qrcodegen.c **** 
 911:Drivers/lvgl/src/extra/libs/qrcode/qrcodegen.c **** // Public function - see documentation comment in header file.
 912:Drivers/lvgl/src/extra/libs/qrcode/qrcodegen.c **** struct qrcodegen_Segment qrcodegen_makeAlphanumeric(const char *text, uint8_t buf[]) {
 913:Drivers/lvgl/src/extra/libs/qrcode/qrcodegen.c **** 	LV_ASSERT(text != NULL);
 914:Drivers/lvgl/src/extra/libs/qrcode/qrcodegen.c **** 	struct qrcodegen_Segment result;
 915:Drivers/lvgl/src/extra/libs/qrcode/qrcodegen.c **** 	size_t len = strlen(text);
 916:Drivers/lvgl/src/extra/libs/qrcode/qrcodegen.c **** 	result.mode = qrcodegen_Mode_ALPHANUMERIC;
 917:Drivers/lvgl/src/extra/libs/qrcode/qrcodegen.c **** 	int bitLen = calcSegmentBitLength(result.mode, len);
 918:Drivers/lvgl/src/extra/libs/qrcode/qrcodegen.c **** 	LV_ASSERT(bitLen != -1);
 919:Drivers/lvgl/src/extra/libs/qrcode/qrcodegen.c **** 	result.numChars = (int)len;
 920:Drivers/lvgl/src/extra/libs/qrcode/qrcodegen.c **** 	if (bitLen > 0)
 921:Drivers/lvgl/src/extra/libs/qrcode/qrcodegen.c **** 		memset(buf, 0, ((size_t)bitLen + 7) / 8 * sizeof(buf[0]));
 922:Drivers/lvgl/src/extra/libs/qrcode/qrcodegen.c **** 	result.bitLength = 0;
 923:Drivers/lvgl/src/extra/libs/qrcode/qrcodegen.c **** 
ARM GAS  /var/folders/lp/x54gwt890xv47sdkqj1k04q40000gn/T//ccL4ZsdQ.s 			page 38


 924:Drivers/lvgl/src/extra/libs/qrcode/qrcodegen.c **** 	unsigned int accumData = 0;
 925:Drivers/lvgl/src/extra/libs/qrcode/qrcodegen.c **** 	int accumCount = 0;
 926:Drivers/lvgl/src/extra/libs/qrcode/qrcodegen.c **** 	for (; *text != '\0'; text++) {
 927:Drivers/lvgl/src/extra/libs/qrcode/qrcodegen.c **** 		const char *temp = strchr(ALPHANUMERIC_CHARSET, *text);
 928:Drivers/lvgl/src/extra/libs/qrcode/qrcodegen.c **** 		LV_ASSERT(temp != NULL);
 929:Drivers/lvgl/src/extra/libs/qrcode/qrcodegen.c **** 		accumData = accumData * 45 + (unsigned int)(temp - ALPHANUMERIC_CHARSET);
 930:Drivers/lvgl/src/extra/libs/qrcode/qrcodegen.c **** 		accumCount++;
 931:Drivers/lvgl/src/extra/libs/qrcode/qrcodegen.c **** 		if (accumCount == 2) {
 932:Drivers/lvgl/src/extra/libs/qrcode/qrcodegen.c **** 			appendBitsToBuffer(accumData, 11, buf, &result.bitLength);
 933:Drivers/lvgl/src/extra/libs/qrcode/qrcodegen.c **** 			accumData = 0;
 934:Drivers/lvgl/src/extra/libs/qrcode/qrcodegen.c **** 			accumCount = 0;
 935:Drivers/lvgl/src/extra/libs/qrcode/qrcodegen.c **** 		}
 936:Drivers/lvgl/src/extra/libs/qrcode/qrcodegen.c **** 	}
 937:Drivers/lvgl/src/extra/libs/qrcode/qrcodegen.c **** 	if (accumCount > 0)  // 1 character remaining
 938:Drivers/lvgl/src/extra/libs/qrcode/qrcodegen.c **** 		appendBitsToBuffer(accumData, 6, buf, &result.bitLength);
 939:Drivers/lvgl/src/extra/libs/qrcode/qrcodegen.c **** 	LV_ASSERT(result.bitLength == bitLen);
 940:Drivers/lvgl/src/extra/libs/qrcode/qrcodegen.c **** 	result.data = buf;
 941:Drivers/lvgl/src/extra/libs/qrcode/qrcodegen.c **** 	return result;
 942:Drivers/lvgl/src/extra/libs/qrcode/qrcodegen.c **** }
 943:Drivers/lvgl/src/extra/libs/qrcode/qrcodegen.c **** 
 944:Drivers/lvgl/src/extra/libs/qrcode/qrcodegen.c **** 
 945:Drivers/lvgl/src/extra/libs/qrcode/qrcodegen.c **** // Public function - see documentation comment in header file.
 946:Drivers/lvgl/src/extra/libs/qrcode/qrcodegen.c **** struct qrcodegen_Segment qrcodegen_makeEci(long assignVal, uint8_t buf[]) {
 947:Drivers/lvgl/src/extra/libs/qrcode/qrcodegen.c **** 	struct qrcodegen_Segment result;
 948:Drivers/lvgl/src/extra/libs/qrcode/qrcodegen.c **** 	result.mode = qrcodegen_Mode_ECI;
 949:Drivers/lvgl/src/extra/libs/qrcode/qrcodegen.c **** 	result.numChars = 0;
 950:Drivers/lvgl/src/extra/libs/qrcode/qrcodegen.c **** 	result.bitLength = 0;
 951:Drivers/lvgl/src/extra/libs/qrcode/qrcodegen.c **** 	if (assignVal < 0) {
 952:Drivers/lvgl/src/extra/libs/qrcode/qrcodegen.c **** 		LV_ASSERT(false);
 953:Drivers/lvgl/src/extra/libs/qrcode/qrcodegen.c **** 	} else if (assignVal < (1 << 7)) {
 954:Drivers/lvgl/src/extra/libs/qrcode/qrcodegen.c **** 		memset(buf, 0, 1 * sizeof(buf[0]));
 955:Drivers/lvgl/src/extra/libs/qrcode/qrcodegen.c **** 		appendBitsToBuffer(assignVal, 8, buf, &result.bitLength);
 956:Drivers/lvgl/src/extra/libs/qrcode/qrcodegen.c **** 	} else if (assignVal < (1 << 14)) {
 957:Drivers/lvgl/src/extra/libs/qrcode/qrcodegen.c **** 		memset(buf, 0, 2 * sizeof(buf[0]));
 958:Drivers/lvgl/src/extra/libs/qrcode/qrcodegen.c **** 		appendBitsToBuffer(2, 2, buf, &result.bitLength);
 959:Drivers/lvgl/src/extra/libs/qrcode/qrcodegen.c **** 		appendBitsToBuffer(assignVal, 14, buf, &result.bitLength);
 960:Drivers/lvgl/src/extra/libs/qrcode/qrcodegen.c **** 	} else if (assignVal < 1000000L) {
 961:Drivers/lvgl/src/extra/libs/qrcode/qrcodegen.c **** 		memset(buf, 0, 3 * sizeof(buf[0]));
 962:Drivers/lvgl/src/extra/libs/qrcode/qrcodegen.c **** 		appendBitsToBuffer(6, 3, buf, &result.bitLength);
 963:Drivers/lvgl/src/extra/libs/qrcode/qrcodegen.c **** 		appendBitsToBuffer(assignVal >> 10, 11, buf, &result.bitLength);
 964:Drivers/lvgl/src/extra/libs/qrcode/qrcodegen.c **** 		appendBitsToBuffer(assignVal & 0x3FF, 10, buf, &result.bitLength);
 965:Drivers/lvgl/src/extra/libs/qrcode/qrcodegen.c **** 	} else {
 966:Drivers/lvgl/src/extra/libs/qrcode/qrcodegen.c **** 		LV_ASSERT(false);
 967:Drivers/lvgl/src/extra/libs/qrcode/qrcodegen.c **** 	}
 968:Drivers/lvgl/src/extra/libs/qrcode/qrcodegen.c **** 	result.data = buf;
 969:Drivers/lvgl/src/extra/libs/qrcode/qrcodegen.c **** 	return result;
 970:Drivers/lvgl/src/extra/libs/qrcode/qrcodegen.c **** }
 971:Drivers/lvgl/src/extra/libs/qrcode/qrcodegen.c **** 
 972:Drivers/lvgl/src/extra/libs/qrcode/qrcodegen.c **** 
 973:Drivers/lvgl/src/extra/libs/qrcode/qrcodegen.c **** // Calculates the number of bits needed to encode the given segments at the given version.
 974:Drivers/lvgl/src/extra/libs/qrcode/qrcodegen.c **** // Returns a non-negative number if successful. Otherwise returns -1 if a segment has too
 975:Drivers/lvgl/src/extra/libs/qrcode/qrcodegen.c **** // many characters to fit its length field, or the total bits exceeds INT16_MAX.
 976:Drivers/lvgl/src/extra/libs/qrcode/qrcodegen.c **** testable int getTotalBits(const struct qrcodegen_Segment segs[], size_t len, int version) {
 977:Drivers/lvgl/src/extra/libs/qrcode/qrcodegen.c **** 	LV_ASSERT(segs != NULL || len == 0);
 978:Drivers/lvgl/src/extra/libs/qrcode/qrcodegen.c **** 	long result = 0;
 979:Drivers/lvgl/src/extra/libs/qrcode/qrcodegen.c **** 	for (size_t i = 0; i < len; i++) {
 980:Drivers/lvgl/src/extra/libs/qrcode/qrcodegen.c **** 		int numChars  = segs[i].numChars;
ARM GAS  /var/folders/lp/x54gwt890xv47sdkqj1k04q40000gn/T//ccL4ZsdQ.s 			page 39


 981:Drivers/lvgl/src/extra/libs/qrcode/qrcodegen.c **** 		int bitLength = segs[i].bitLength;
 982:Drivers/lvgl/src/extra/libs/qrcode/qrcodegen.c **** 		LV_ASSERT(0 <= numChars  && numChars  <= INT16_MAX);
 983:Drivers/lvgl/src/extra/libs/qrcode/qrcodegen.c **** 		LV_ASSERT(0 <= bitLength && bitLength <= INT16_MAX);
 984:Drivers/lvgl/src/extra/libs/qrcode/qrcodegen.c **** 		int ccbits = numCharCountBits(segs[i].mode, version);
 985:Drivers/lvgl/src/extra/libs/qrcode/qrcodegen.c **** 		LV_ASSERT(0 <= ccbits && ccbits <= 16);
 986:Drivers/lvgl/src/extra/libs/qrcode/qrcodegen.c **** 		if (numChars >= (1L << ccbits))
 987:Drivers/lvgl/src/extra/libs/qrcode/qrcodegen.c **** 			return -1;  // The segment's length doesn't fit the field's bit width
 988:Drivers/lvgl/src/extra/libs/qrcode/qrcodegen.c **** 		result += 4L + ccbits + bitLength;
 989:Drivers/lvgl/src/extra/libs/qrcode/qrcodegen.c **** 		if (result > INT16_MAX)
 990:Drivers/lvgl/src/extra/libs/qrcode/qrcodegen.c **** 			return -1;  // The sum might overflow an int type
 991:Drivers/lvgl/src/extra/libs/qrcode/qrcodegen.c **** 	}
 992:Drivers/lvgl/src/extra/libs/qrcode/qrcodegen.c **** 	LV_ASSERT(0 <= result && result <= INT16_MAX);
 993:Drivers/lvgl/src/extra/libs/qrcode/qrcodegen.c **** 	return (int)result;
 994:Drivers/lvgl/src/extra/libs/qrcode/qrcodegen.c **** }
 995:Drivers/lvgl/src/extra/libs/qrcode/qrcodegen.c **** 
 996:Drivers/lvgl/src/extra/libs/qrcode/qrcodegen.c **** 
 997:Drivers/lvgl/src/extra/libs/qrcode/qrcodegen.c **** // Returns the bit width of the character count field for a segment in the given mode
 998:Drivers/lvgl/src/extra/libs/qrcode/qrcodegen.c **** // in a QR Code at the given version number. The result is in the range [0, 16].
 999:Drivers/lvgl/src/extra/libs/qrcode/qrcodegen.c **** static int numCharCountBits(enum qrcodegen_Mode mode, int version) {
 1080              		.loc 1 999 68 is_stmt 1 view -0
 1081              		.cfi_startproc
 1082              		@ args = 0, pretend = 0, frame = 0
 1083              		@ frame_needed = 0, uses_anonymous_args = 0
 1084              		@ link register save eliminated.
1000:Drivers/lvgl/src/extra/libs/qrcode/qrcodegen.c **** 	LV_ASSERT(qrcodegen_VERSION_MIN <= version && version <= qrcodegen_VERSION_MAX);
 1085              		.loc 1 1000 2 view .LVU328
 1086              		.loc 1 1000 2 view .LVU329
 1087 0000 4B1E     		subs	r3, r1, #1
 1088 0002 272B     		cmp	r3, #39
 1089 0004 00D9     		bls	.L104
 1090              	.L105:
 1091              		.loc 1 1000 2 discriminator 1 view .LVU330
 1092              		.loc 1 1000 2 discriminator 1 view .LVU331
 1093              		.loc 1 1000 2 discriminator 1 view .LVU332
 1094              		.loc 1 1000 2 discriminator 1 view .LVU333
 1095              		.loc 1 1000 2 discriminator 1 view .LVU334
 1096 0006 FEE7     		b	.L105
 1097              	.L104:
 1098              		.loc 1 1000 2 discriminator 2 view .LVU335
1001:Drivers/lvgl/src/extra/libs/qrcode/qrcodegen.c **** 	int i = (version + 7) / 17;
 1099              		.loc 1 1001 2 view .LVU336
 1100              		.loc 1 1001 19 is_stmt 0 view .LVU337
 1101 0008 0731     		adds	r1, r1, #7
 1102              	.LVL106:
 1103              		.loc 1 1001 6 view .LVU338
 1104 000a 114B     		ldr	r3, .L115
 1105 000c 83FB0123 		smull	r2, r3, r3, r1
 1106 0010 C917     		asrs	r1, r1, #31
 1107              	.LVL107:
 1108              		.loc 1 1001 6 view .LVU339
 1109 0012 C1EBE301 		rsb	r1, r1, r3, asr #3
 1110              	.LVL108:
1002:Drivers/lvgl/src/extra/libs/qrcode/qrcodegen.c **** 	switch (mode) {
 1111              		.loc 1 1002 2 is_stmt 1 view .LVU340
 1112 0016 0138     		subs	r0, r0, #1
 1113              	.LVL109:
 1114              		.loc 1 1002 2 is_stmt 0 view .LVU341
ARM GAS  /var/folders/lp/x54gwt890xv47sdkqj1k04q40000gn/T//ccL4ZsdQ.s 			page 40


 1115 0018 0728     		cmp	r0, #7
 1116 001a 15D8     		bhi	.L114
 1117 001c DFE800F0 		tbb	[pc, r0]
 1118              	.L108:
 1119 0020 04       		.byte	(.L112-.L108)/2
 1120 0021 08       		.byte	(.L111-.L108)/2
 1121 0022 14       		.byte	(.L114-.L108)/2
 1122 0023 0C       		.byte	(.L110-.L108)/2
 1123 0024 14       		.byte	(.L114-.L108)/2
 1124 0025 14       		.byte	(.L114-.L108)/2
 1125 0026 15       		.byte	(.L113-.L108)/2
 1126 0027 10       		.byte	(.L107-.L108)/2
 1127              		.p2align 1
 1128              	.L112:
 1129              	.LBB12:
1003:Drivers/lvgl/src/extra/libs/qrcode/qrcodegen.c **** 		case qrcodegen_Mode_NUMERIC     : { static const int temp[] = {10, 12, 14}; return temp[i]; }
 1130              		.loc 1 1003 39 is_stmt 1 view .LVU342
 1131              		.loc 1 1003 79 view .LVU343
 1132              		.loc 1 1003 90 is_stmt 0 view .LVU344
 1133 0028 0A4B     		ldr	r3, .L115+4
 1134 002a 53F82100 		ldr	r0, [r3, r1, lsl #2]
 1135 002e 7047     		bx	lr
 1136              	.L111:
 1137              		.loc 1 1003 90 view .LVU345
 1138              	.LBE12:
 1139              	.LBB13:
1004:Drivers/lvgl/src/extra/libs/qrcode/qrcodegen.c **** 		case qrcodegen_Mode_ALPHANUMERIC: { static const int temp[] = { 9, 11, 13}; return temp[i]; }
 1140              		.loc 1 1004 39 is_stmt 1 view .LVU346
 1141              		.loc 1 1004 79 view .LVU347
 1142              		.loc 1 1004 90 is_stmt 0 view .LVU348
 1143 0030 094B     		ldr	r3, .L115+8
 1144 0032 53F82100 		ldr	r0, [r3, r1, lsl #2]
 1145 0036 7047     		bx	lr
 1146              	.L110:
 1147              		.loc 1 1004 90 view .LVU349
 1148              	.LBE13:
 1149              	.LBB14:
1005:Drivers/lvgl/src/extra/libs/qrcode/qrcodegen.c **** 		case qrcodegen_Mode_BYTE        : { static const int temp[] = { 8, 16, 16}; return temp[i]; }
 1150              		.loc 1 1005 39 is_stmt 1 view .LVU350
 1151              		.loc 1 1005 79 view .LVU351
 1152              		.loc 1 1005 90 is_stmt 0 view .LVU352
 1153 0038 084B     		ldr	r3, .L115+12
 1154 003a 53F82100 		ldr	r0, [r3, r1, lsl #2]
 1155 003e 7047     		bx	lr
 1156              	.L107:
 1157              		.loc 1 1005 90 view .LVU353
 1158              	.LBE14:
 1159              	.LBB15:
1006:Drivers/lvgl/src/extra/libs/qrcode/qrcodegen.c **** 		case qrcodegen_Mode_KANJI       : { static const int temp[] = { 8, 10, 12}; return temp[i]; }
 1160              		.loc 1 1006 39 is_stmt 1 view .LVU354
 1161              		.loc 1 1006 79 view .LVU355
 1162              		.loc 1 1006 90 is_stmt 0 view .LVU356
 1163 0040 074B     		ldr	r3, .L115+16
 1164 0042 53F82100 		ldr	r0, [r3, r1, lsl #2]
 1165 0046 7047     		bx	lr
 1166              	.L114:
 1167              	.L106:
ARM GAS  /var/folders/lp/x54gwt890xv47sdkqj1k04q40000gn/T//ccL4ZsdQ.s 			page 41


 1168              		.loc 1 1006 90 view .LVU357
 1169              	.LBE15:
1007:Drivers/lvgl/src/extra/libs/qrcode/qrcodegen.c **** 		case qrcodegen_Mode_ECI         : return 0;
1008:Drivers/lvgl/src/extra/libs/qrcode/qrcodegen.c **** 		default:  LV_ASSERT(false);  return -1;  // Dummy value
 1170              		.loc 1 1008 13 is_stmt 1 discriminator 1 view .LVU358
 1171              		.loc 1 1008 13 discriminator 1 view .LVU359
 1172              		.loc 1 1008 13 discriminator 1 view .LVU360
 1173              		.loc 1 1008 13 discriminator 1 view .LVU361
 1174              		.loc 1 1008 13 discriminator 1 view .LVU362
 1175 0048 FEE7     		b	.L106
 1176              	.L113:
1002:Drivers/lvgl/src/extra/libs/qrcode/qrcodegen.c **** 		case qrcodegen_Mode_NUMERIC     : { static const int temp[] = {10, 12, 14}; return temp[i]; }
 1177              		.loc 1 1002 2 is_stmt 0 view .LVU363
 1178 004a 0020     		movs	r0, #0
1009:Drivers/lvgl/src/extra/libs/qrcode/qrcodegen.c **** 	}
1010:Drivers/lvgl/src/extra/libs/qrcode/qrcodegen.c **** }
 1179              		.loc 1 1010 1 view .LVU364
 1180 004c 7047     		bx	lr
 1181              	.L116:
 1182 004e 00BF     		.align	2
 1183              	.L115:
 1184 0050 79787878 		.word	2021161081
 1185 0054 00000000 		.word	temp.4
 1186 0058 00000000 		.word	temp.3
 1187 005c 00000000 		.word	temp.2
 1188 0060 00000000 		.word	temp.1
 1189              		.cfi_endproc
 1190              	.LFE37:
 1192              		.section	.text.getTotalBits,"ax",%progbits
 1193              		.align	1
 1194              		.syntax unified
 1195              		.thumb
 1196              		.thumb_func
 1198              	getTotalBits:
 1199              	.LVL110:
 1200              	.LFB36:
 976:Drivers/lvgl/src/extra/libs/qrcode/qrcodegen.c **** 	LV_ASSERT(segs != NULL || len == 0);
 1201              		.loc 1 976 91 is_stmt 1 view -0
 1202              		.cfi_startproc
 1203              		@ args = 0, pretend = 0, frame = 0
 1204              		@ frame_needed = 0, uses_anonymous_args = 0
 976:Drivers/lvgl/src/extra/libs/qrcode/qrcodegen.c **** 	LV_ASSERT(segs != NULL || len == 0);
 1205              		.loc 1 976 91 is_stmt 0 view .LVU366
 1206 0000 2DE9F047 		push	{r4, r5, r6, r7, r8, r9, r10, lr}
 1207              		.cfi_def_cfa_offset 32
 1208              		.cfi_offset 4, -32
 1209              		.cfi_offset 5, -28
 1210              		.cfi_offset 6, -24
 1211              		.cfi_offset 7, -20
 1212              		.cfi_offset 8, -16
 1213              		.cfi_offset 9, -12
 1214              		.cfi_offset 10, -8
 1215              		.cfi_offset 14, -4
 1216 0004 8946     		mov	r9, r1
 1217 0006 9246     		mov	r10, r2
 977:Drivers/lvgl/src/extra/libs/qrcode/qrcodegen.c **** 	long result = 0;
 1218              		.loc 1 977 2 is_stmt 1 view .LVU367
ARM GAS  /var/folders/lp/x54gwt890xv47sdkqj1k04q40000gn/T//ccL4ZsdQ.s 			page 42


 977:Drivers/lvgl/src/extra/libs/qrcode/qrcodegen.c **** 	long result = 0;
 1219              		.loc 1 977 2 view .LVU368
 1220 0008 8046     		mov	r8, r0
 1221 000a 08B3     		cbz	r0, .L135
 1222 000c 0024     		movs	r4, #0
 1223 000e 2546     		mov	r5, r4
 1224              	.LVL111:
 1225              	.L127:
 1226              	.LBB16:
 979:Drivers/lvgl/src/extra/libs/qrcode/qrcodegen.c **** 		int numChars  = segs[i].numChars;
 1227              		.loc 1 979 23 discriminator 1 view .LVU369
 1228 0010 4C45     		cmp	r4, r9
 1229 0012 25D2     		bcs	.L136
 1230              	.LBB17:
 980:Drivers/lvgl/src/extra/libs/qrcode/qrcodegen.c **** 		int bitLength = segs[i].bitLength;
 1231              		.loc 1 980 3 view .LVU370
 980:Drivers/lvgl/src/extra/libs/qrcode/qrcodegen.c **** 		int bitLength = segs[i].bitLength;
 1232              		.loc 1 980 23 is_stmt 0 view .LVU371
 1233 0014 2201     		lsls	r2, r4, #4
 1234 0016 08EB0413 		add	r3, r8, r4, lsl #4
 980:Drivers/lvgl/src/extra/libs/qrcode/qrcodegen.c **** 		int bitLength = segs[i].bitLength;
 1235              		.loc 1 980 7 view .LVU372
 1236 001a 5E68     		ldr	r6, [r3, #4]
 1237              	.LVL112:
 981:Drivers/lvgl/src/extra/libs/qrcode/qrcodegen.c **** 		LV_ASSERT(0 <= numChars  && numChars  <= INT16_MAX);
 1238              		.loc 1 981 3 is_stmt 1 view .LVU373
 981:Drivers/lvgl/src/extra/libs/qrcode/qrcodegen.c **** 		LV_ASSERT(0 <= numChars  && numChars  <= INT16_MAX);
 1239              		.loc 1 981 7 is_stmt 0 view .LVU374
 1240 001c DF68     		ldr	r7, [r3, #12]
 1241              	.LVL113:
 982:Drivers/lvgl/src/extra/libs/qrcode/qrcodegen.c **** 		LV_ASSERT(0 <= bitLength && bitLength <= INT16_MAX);
 1242              		.loc 1 982 3 is_stmt 1 view .LVU375
 982:Drivers/lvgl/src/extra/libs/qrcode/qrcodegen.c **** 		LV_ASSERT(0 <= bitLength && bitLength <= INT16_MAX);
 1243              		.loc 1 982 3 view .LVU376
 1244 001e B6F5004F 		cmp	r6, #32768
 1245 0022 17D2     		bcs	.L121
 982:Drivers/lvgl/src/extra/libs/qrcode/qrcodegen.c **** 		LV_ASSERT(0 <= bitLength && bitLength <= INT16_MAX);
 1246              		.loc 1 982 3 discriminator 2 view .LVU377
 983:Drivers/lvgl/src/extra/libs/qrcode/qrcodegen.c **** 		int ccbits = numCharCountBits(segs[i].mode, version);
 1247              		.loc 1 983 3 view .LVU378
 983:Drivers/lvgl/src/extra/libs/qrcode/qrcodegen.c **** 		int ccbits = numCharCountBits(segs[i].mode, version);
 1248              		.loc 1 983 3 view .LVU379
 1249 0024 B7F5004F 		cmp	r7, #32768
 1250 0028 15D2     		bcs	.L123
 983:Drivers/lvgl/src/extra/libs/qrcode/qrcodegen.c **** 		int ccbits = numCharCountBits(segs[i].mode, version);
 1251              		.loc 1 983 3 discriminator 2 view .LVU380
 984:Drivers/lvgl/src/extra/libs/qrcode/qrcodegen.c **** 		LV_ASSERT(0 <= ccbits && ccbits <= 16);
 1252              		.loc 1 984 3 view .LVU381
 984:Drivers/lvgl/src/extra/libs/qrcode/qrcodegen.c **** 		LV_ASSERT(0 <= ccbits && ccbits <= 16);
 1253              		.loc 1 984 16 is_stmt 0 view .LVU382
 1254 002a 5146     		mov	r1, r10
 1255 002c 18F80200 		ldrb	r0, [r8, r2]	@ zero_extendqisi2
 1256 0030 FFF7FEFF 		bl	numCharCountBits
 1257              	.LVL114:
 985:Drivers/lvgl/src/extra/libs/qrcode/qrcodegen.c **** 		if (numChars >= (1L << ccbits))
 1258              		.loc 1 985 3 is_stmt 1 view .LVU383
 985:Drivers/lvgl/src/extra/libs/qrcode/qrcodegen.c **** 		if (numChars >= (1L << ccbits))
ARM GAS  /var/folders/lp/x54gwt890xv47sdkqj1k04q40000gn/T//ccL4ZsdQ.s 			page 43


 1259              		.loc 1 985 3 view .LVU384
 1260 0034 1028     		cmp	r0, #16
 1261 0036 0FD8     		bhi	.L125
 985:Drivers/lvgl/src/extra/libs/qrcode/qrcodegen.c **** 		if (numChars >= (1L << ccbits))
 1262              		.loc 1 985 3 discriminator 2 view .LVU385
 986:Drivers/lvgl/src/extra/libs/qrcode/qrcodegen.c **** 			return -1;  // The segment's length doesn't fit the field's bit width
 1263              		.loc 1 986 3 view .LVU386
 986:Drivers/lvgl/src/extra/libs/qrcode/qrcodegen.c **** 			return -1;  // The segment's length doesn't fit the field's bit width
 1264              		.loc 1 986 23 is_stmt 0 view .LVU387
 1265 0038 0123     		movs	r3, #1
 1266 003a 8340     		lsls	r3, r3, r0
 986:Drivers/lvgl/src/extra/libs/qrcode/qrcodegen.c **** 			return -1;  // The segment's length doesn't fit the field's bit width
 1267              		.loc 1 986 6 view .LVU388
 1268 003c B342     		cmp	r3, r6
 1269 003e 13DD     		ble	.L132
 988:Drivers/lvgl/src/extra/libs/qrcode/qrcodegen.c **** 		if (result > INT16_MAX)
 1270              		.loc 1 988 3 is_stmt 1 view .LVU389
 988:Drivers/lvgl/src/extra/libs/qrcode/qrcodegen.c **** 		if (result > INT16_MAX)
 1271              		.loc 1 988 16 is_stmt 0 view .LVU390
 1272 0040 0430     		adds	r0, r0, #4
 1273              	.LVL115:
 988:Drivers/lvgl/src/extra/libs/qrcode/qrcodegen.c **** 		if (result > INT16_MAX)
 1274              		.loc 1 988 25 view .LVU391
 1275 0042 3844     		add	r0, r0, r7
 1276              	.LVL116:
 988:Drivers/lvgl/src/extra/libs/qrcode/qrcodegen.c **** 		if (result > INT16_MAX)
 1277              		.loc 1 988 10 view .LVU392
 1278 0044 0544     		add	r5, r5, r0
 1279              	.LVL117:
 989:Drivers/lvgl/src/extra/libs/qrcode/qrcodegen.c **** 			return -1;  // The sum might overflow an int type
 1280              		.loc 1 989 3 is_stmt 1 view .LVU393
 989:Drivers/lvgl/src/extra/libs/qrcode/qrcodegen.c **** 			return -1;  // The sum might overflow an int type
 1281              		.loc 1 989 6 is_stmt 0 view .LVU394
 1282 0046 B5F5004F 		cmp	r5, #32768
 1283 004a 12DA     		bge	.L133
 1284              	.LBE17:
 979:Drivers/lvgl/src/extra/libs/qrcode/qrcodegen.c **** 		int numChars  = segs[i].numChars;
 1285              		.loc 1 979 31 is_stmt 1 discriminator 2 view .LVU395
 1286 004c 0134     		adds	r4, r4, #1
 1287              	.LVL118:
 979:Drivers/lvgl/src/extra/libs/qrcode/qrcodegen.c **** 		int numChars  = segs[i].numChars;
 1288              		.loc 1 979 31 is_stmt 0 discriminator 2 view .LVU396
 1289 004e DFE7     		b	.L127
 1290              	.LVL119:
 1291              	.L135:
 979:Drivers/lvgl/src/extra/libs/qrcode/qrcodegen.c **** 		int numChars  = segs[i].numChars;
 1292              		.loc 1 979 31 discriminator 2 view .LVU397
 1293              	.LBE16:
 977:Drivers/lvgl/src/extra/libs/qrcode/qrcodegen.c **** 	long result = 0;
 1294              		.loc 1 977 2 discriminator 1 view .LVU398
 1295 0050 19B1     		cbz	r1, .L131
 1296              	.L119:
 977:Drivers/lvgl/src/extra/libs/qrcode/qrcodegen.c **** 	long result = 0;
 1297              		.loc 1 977 2 is_stmt 1 discriminator 3 view .LVU399
 977:Drivers/lvgl/src/extra/libs/qrcode/qrcodegen.c **** 	long result = 0;
 1298              		.loc 1 977 2 discriminator 3 view .LVU400
 977:Drivers/lvgl/src/extra/libs/qrcode/qrcodegen.c **** 	long result = 0;
ARM GAS  /var/folders/lp/x54gwt890xv47sdkqj1k04q40000gn/T//ccL4ZsdQ.s 			page 44


 1299              		.loc 1 977 2 discriminator 3 view .LVU401
 977:Drivers/lvgl/src/extra/libs/qrcode/qrcodegen.c **** 	long result = 0;
 1300              		.loc 1 977 2 discriminator 3 view .LVU402
 977:Drivers/lvgl/src/extra/libs/qrcode/qrcodegen.c **** 	long result = 0;
 1301              		.loc 1 977 2 discriminator 3 view .LVU403
 1302 0052 FEE7     		b	.L119
 1303              	.LVL120:
 1304              	.L121:
 1305              	.LBB21:
 1306              	.LBB18:
 982:Drivers/lvgl/src/extra/libs/qrcode/qrcodegen.c **** 		LV_ASSERT(0 <= bitLength && bitLength <= INT16_MAX);
 1307              		.loc 1 982 3 discriminator 1 view .LVU404
 982:Drivers/lvgl/src/extra/libs/qrcode/qrcodegen.c **** 		LV_ASSERT(0 <= bitLength && bitLength <= INT16_MAX);
 1308              		.loc 1 982 3 discriminator 1 view .LVU405
 982:Drivers/lvgl/src/extra/libs/qrcode/qrcodegen.c **** 		LV_ASSERT(0 <= bitLength && bitLength <= INT16_MAX);
 1309              		.loc 1 982 3 discriminator 1 view .LVU406
 982:Drivers/lvgl/src/extra/libs/qrcode/qrcodegen.c **** 		LV_ASSERT(0 <= bitLength && bitLength <= INT16_MAX);
 1310              		.loc 1 982 3 discriminator 1 view .LVU407
 982:Drivers/lvgl/src/extra/libs/qrcode/qrcodegen.c **** 		LV_ASSERT(0 <= bitLength && bitLength <= INT16_MAX);
 1311              		.loc 1 982 3 discriminator 1 view .LVU408
 1312 0054 FEE7     		b	.L121
 1313              	.L123:
 983:Drivers/lvgl/src/extra/libs/qrcode/qrcodegen.c **** 		int ccbits = numCharCountBits(segs[i].mode, version);
 1314              		.loc 1 983 3 discriminator 1 view .LVU409
 983:Drivers/lvgl/src/extra/libs/qrcode/qrcodegen.c **** 		int ccbits = numCharCountBits(segs[i].mode, version);
 1315              		.loc 1 983 3 discriminator 1 view .LVU410
 983:Drivers/lvgl/src/extra/libs/qrcode/qrcodegen.c **** 		int ccbits = numCharCountBits(segs[i].mode, version);
 1316              		.loc 1 983 3 discriminator 1 view .LVU411
 983:Drivers/lvgl/src/extra/libs/qrcode/qrcodegen.c **** 		int ccbits = numCharCountBits(segs[i].mode, version);
 1317              		.loc 1 983 3 discriminator 1 view .LVU412
 983:Drivers/lvgl/src/extra/libs/qrcode/qrcodegen.c **** 		int ccbits = numCharCountBits(segs[i].mode, version);
 1318              		.loc 1 983 3 discriminator 1 view .LVU413
 1319 0056 FEE7     		b	.L123
 1320              	.LVL121:
 1321              	.L125:
 985:Drivers/lvgl/src/extra/libs/qrcode/qrcodegen.c **** 		if (numChars >= (1L << ccbits))
 1322              		.loc 1 985 3 discriminator 1 view .LVU414
 985:Drivers/lvgl/src/extra/libs/qrcode/qrcodegen.c **** 		if (numChars >= (1L << ccbits))
 1323              		.loc 1 985 3 discriminator 1 view .LVU415
 985:Drivers/lvgl/src/extra/libs/qrcode/qrcodegen.c **** 		if (numChars >= (1L << ccbits))
 1324              		.loc 1 985 3 discriminator 1 view .LVU416
 985:Drivers/lvgl/src/extra/libs/qrcode/qrcodegen.c **** 		if (numChars >= (1L << ccbits))
 1325              		.loc 1 985 3 discriminator 1 view .LVU417
 985:Drivers/lvgl/src/extra/libs/qrcode/qrcodegen.c **** 		if (numChars >= (1L << ccbits))
 1326              		.loc 1 985 3 discriminator 1 view .LVU418
 1327 0058 FEE7     		b	.L125
 1328              	.LVL122:
 1329              	.L131:
 985:Drivers/lvgl/src/extra/libs/qrcode/qrcodegen.c **** 		if (numChars >= (1L << ccbits))
 1330              		.loc 1 985 3 is_stmt 0 discriminator 1 view .LVU419
 1331              	.LBE18:
 1332              	.LBE21:
 1333 005a 0C46     		mov	r4, r1
 1334 005c 0025     		movs	r5, #0
 1335 005e D7E7     		b	.L127
 1336              	.LVL123:
 1337              	.L136:
ARM GAS  /var/folders/lp/x54gwt890xv47sdkqj1k04q40000gn/T//ccL4ZsdQ.s 			page 45


 992:Drivers/lvgl/src/extra/libs/qrcode/qrcodegen.c **** 	return (int)result;
 1338              		.loc 1 992 2 is_stmt 1 view .LVU420
 992:Drivers/lvgl/src/extra/libs/qrcode/qrcodegen.c **** 	return (int)result;
 1339              		.loc 1 992 2 view .LVU421
 1340 0060 B5F5004F 		cmp	r5, #32768
 1341 0064 02D3     		bcc	.L117
 1342              	.L129:
 992:Drivers/lvgl/src/extra/libs/qrcode/qrcodegen.c **** 	return (int)result;
 1343              		.loc 1 992 2 discriminator 1 view .LVU422
 992:Drivers/lvgl/src/extra/libs/qrcode/qrcodegen.c **** 	return (int)result;
 1344              		.loc 1 992 2 discriminator 1 view .LVU423
 992:Drivers/lvgl/src/extra/libs/qrcode/qrcodegen.c **** 	return (int)result;
 1345              		.loc 1 992 2 discriminator 1 view .LVU424
 992:Drivers/lvgl/src/extra/libs/qrcode/qrcodegen.c **** 	return (int)result;
 1346              		.loc 1 992 2 discriminator 1 view .LVU425
 992:Drivers/lvgl/src/extra/libs/qrcode/qrcodegen.c **** 	return (int)result;
 1347              		.loc 1 992 2 discriminator 1 view .LVU426
 1348 0066 FEE7     		b	.L129
 1349              	.LVL124:
 1350              	.L132:
 1351              	.LBB22:
 1352              	.LBB19:
 987:Drivers/lvgl/src/extra/libs/qrcode/qrcodegen.c **** 		result += 4L + ccbits + bitLength;
 1353              		.loc 1 987 11 is_stmt 0 view .LVU427
 1354 0068 4FF0FF35 		mov	r5, #-1
 1355              	.LVL125:
 1356              	.L117:
 987:Drivers/lvgl/src/extra/libs/qrcode/qrcodegen.c **** 		result += 4L + ccbits + bitLength;
 1357              		.loc 1 987 11 view .LVU428
 1358              	.LBE19:
 1359              	.LBE22:
 994:Drivers/lvgl/src/extra/libs/qrcode/qrcodegen.c **** 
 1360              		.loc 1 994 1 view .LVU429
 1361 006c 2846     		mov	r0, r5
 1362 006e BDE8F087 		pop	{r4, r5, r6, r7, r8, r9, r10, pc}
 1363              	.LVL126:
 1364              	.L133:
 1365              	.LBB23:
 1366              	.LBB20:
 990:Drivers/lvgl/src/extra/libs/qrcode/qrcodegen.c **** 	}
 1367              		.loc 1 990 11 view .LVU430
 1368 0072 4FF0FF35 		mov	r5, #-1
 1369              	.LVL127:
 990:Drivers/lvgl/src/extra/libs/qrcode/qrcodegen.c **** 	}
 1370              		.loc 1 990 11 view .LVU431
 1371 0076 F9E7     		b	.L117
 1372              	.LBE20:
 1373              	.LBE23:
 1374              		.cfi_endproc
 1375              	.LFE36:
 1377              		.section	.text.calcReedSolomonGenerator,"ax",%progbits
 1378              		.align	1
 1379              		.syntax unified
 1380              		.thumb
 1381              		.thumb_func
 1383              	calcReedSolomonGenerator:
 1384              	.LVL128:
ARM GAS  /var/folders/lp/x54gwt890xv47sdkqj1k04q40000gn/T//ccL4ZsdQ.s 			page 46


 1385              	.LFB9:
 353:Drivers/lvgl/src/extra/libs/qrcode/qrcodegen.c **** 	// Start with the monomial x^0
 1386              		.loc 1 353 70 is_stmt 1 view -0
 1387              		.cfi_startproc
 1388              		@ args = 0, pretend = 0, frame = 0
 1389              		@ frame_needed = 0, uses_anonymous_args = 0
 353:Drivers/lvgl/src/extra/libs/qrcode/qrcodegen.c **** 	// Start with the monomial x^0
 1390              		.loc 1 353 70 is_stmt 0 view .LVU433
 1391 0000 2DE9F047 		push	{r4, r5, r6, r7, r8, r9, r10, lr}
 1392              		.cfi_def_cfa_offset 32
 1393              		.cfi_offset 4, -32
 1394              		.cfi_offset 5, -28
 1395              		.cfi_offset 6, -24
 1396              		.cfi_offset 7, -20
 1397              		.cfi_offset 8, -16
 1398              		.cfi_offset 9, -12
 1399              		.cfi_offset 10, -8
 1400              		.cfi_offset 14, -4
 355:Drivers/lvgl/src/extra/libs/qrcode/qrcodegen.c **** 	memset(result, 0, degree * sizeof(result[0]));
 1401              		.loc 1 355 2 is_stmt 1 view .LVU434
 355:Drivers/lvgl/src/extra/libs/qrcode/qrcodegen.c **** 	memset(result, 0, degree * sizeof(result[0]));
 1402              		.loc 1 355 2 view .LVU435
 1403 0004 441E     		subs	r4, r0, #1
 1404 0006 1D2C     		cmp	r4, #29
 1405 0008 00D9     		bls	.L138
 1406              	.L139:
 355:Drivers/lvgl/src/extra/libs/qrcode/qrcodegen.c **** 	memset(result, 0, degree * sizeof(result[0]));
 1407              		.loc 1 355 2 discriminator 1 view .LVU436
 355:Drivers/lvgl/src/extra/libs/qrcode/qrcodegen.c **** 	memset(result, 0, degree * sizeof(result[0]));
 1408              		.loc 1 355 2 discriminator 1 view .LVU437
 355:Drivers/lvgl/src/extra/libs/qrcode/qrcodegen.c **** 	memset(result, 0, degree * sizeof(result[0]));
 1409              		.loc 1 355 2 discriminator 1 view .LVU438
 355:Drivers/lvgl/src/extra/libs/qrcode/qrcodegen.c **** 	memset(result, 0, degree * sizeof(result[0]));
 1410              		.loc 1 355 2 discriminator 1 view .LVU439
 355:Drivers/lvgl/src/extra/libs/qrcode/qrcodegen.c **** 	memset(result, 0, degree * sizeof(result[0]));
 1411              		.loc 1 355 2 discriminator 1 view .LVU440
 1412 000a FEE7     		b	.L139
 1413              	.L138:
 1414 000c 0746     		mov	r7, r0
 1415 000e 0D46     		mov	r5, r1
 355:Drivers/lvgl/src/extra/libs/qrcode/qrcodegen.c **** 	memset(result, 0, degree * sizeof(result[0]));
 1416              		.loc 1 355 2 discriminator 2 view .LVU441
 356:Drivers/lvgl/src/extra/libs/qrcode/qrcodegen.c **** 	result[degree - 1] = 1;
 1417              		.loc 1 356 2 view .LVU442
 1418 0010 0246     		mov	r2, r0
 1419 0012 0021     		movs	r1, #0
 1420              	.LVL129:
 356:Drivers/lvgl/src/extra/libs/qrcode/qrcodegen.c **** 	result[degree - 1] = 1;
 1421              		.loc 1 356 2 is_stmt 0 view .LVU443
 1422 0014 2846     		mov	r0, r5
 1423              	.LVL130:
 356:Drivers/lvgl/src/extra/libs/qrcode/qrcodegen.c **** 	result[degree - 1] = 1;
 1424              		.loc 1 356 2 view .LVU444
 1425 0016 FFF7FEFF 		bl	memset
 1426              	.LVL131:
 357:Drivers/lvgl/src/extra/libs/qrcode/qrcodegen.c **** 
 1427              		.loc 1 357 2 is_stmt 1 view .LVU445
ARM GAS  /var/folders/lp/x54gwt890xv47sdkqj1k04q40000gn/T//ccL4ZsdQ.s 			page 47


 357:Drivers/lvgl/src/extra/libs/qrcode/qrcodegen.c **** 
 1428              		.loc 1 357 21 is_stmt 0 view .LVU446
 1429 001a 4FF00109 		mov	r9, #1
 1430 001e 05F80490 		strb	r9, [r5, r4]
 362:Drivers/lvgl/src/extra/libs/qrcode/qrcodegen.c **** 	for (int i = 0; i < degree; i++) {
 1431              		.loc 1 362 2 is_stmt 1 view .LVU447
 1432              	.LVL132:
 363:Drivers/lvgl/src/extra/libs/qrcode/qrcodegen.c **** 		// Multiply the current product by (x - r^i)
 1433              		.loc 1 363 2 view .LVU448
 1434              	.LBB24:
 363:Drivers/lvgl/src/extra/libs/qrcode/qrcodegen.c **** 		// Multiply the current product by (x - r^i)
 1435              		.loc 1 363 7 view .LVU449
 363:Drivers/lvgl/src/extra/libs/qrcode/qrcodegen.c **** 		// Multiply the current product by (x - r^i)
 1436              		.loc 1 363 11 is_stmt 0 view .LVU450
 1437 0022 4FF0000A 		mov	r10, #0
 363:Drivers/lvgl/src/extra/libs/qrcode/qrcodegen.c **** 		// Multiply the current product by (x - r^i)
 1438              		.loc 1 363 2 view .LVU451
 1439 0026 06E0     		b	.L140
 1440              	.LVL133:
 1441              	.L147:
 370:Drivers/lvgl/src/extra/libs/qrcode/qrcodegen.c **** 	}
 1442              		.loc 1 370 3 is_stmt 1 view .LVU452
 370:Drivers/lvgl/src/extra/libs/qrcode/qrcodegen.c **** 	}
 1443              		.loc 1 370 10 is_stmt 0 view .LVU453
 1444 0028 0221     		movs	r1, #2
 1445 002a 4846     		mov	r0, r9
 1446 002c FFF7FEFF 		bl	finiteFieldMultiply
 1447              	.LVL134:
 1448 0030 8146     		mov	r9, r0
 1449              	.LVL135:
 363:Drivers/lvgl/src/extra/libs/qrcode/qrcodegen.c **** 		// Multiply the current product by (x - r^i)
 1450              		.loc 1 363 31 is_stmt 1 discriminator 2 view .LVU454
 1451 0032 0AF1010A 		add	r10, r10, #1
 1452              	.LVL136:
 1453              	.L140:
 363:Drivers/lvgl/src/extra/libs/qrcode/qrcodegen.c **** 		// Multiply the current product by (x - r^i)
 1454              		.loc 1 363 20 discriminator 1 view .LVU455
 1455 0036 BA45     		cmp	r10, r7
 1456 0038 12DA     		bge	.L146
 1457              	.LBB25:
 365:Drivers/lvgl/src/extra/libs/qrcode/qrcodegen.c **** 			result[j] = finiteFieldMultiply(result[j], root);
 1458              		.loc 1 365 12 is_stmt 0 view .LVU456
 1459 003a 0024     		movs	r4, #0
 1460              	.L143:
 1461              	.LVL137:
 365:Drivers/lvgl/src/extra/libs/qrcode/qrcodegen.c **** 			result[j] = finiteFieldMultiply(result[j], root);
 1462              		.loc 1 365 21 is_stmt 1 discriminator 1 view .LVU457
 1463 003c BC42     		cmp	r4, r7
 1464 003e F3DA     		bge	.L147
 366:Drivers/lvgl/src/extra/libs/qrcode/qrcodegen.c **** 			if (j + 1 < degree)
 1465              		.loc 1 366 4 view .LVU458
 366:Drivers/lvgl/src/extra/libs/qrcode/qrcodegen.c **** 			if (j + 1 < degree)
 1466              		.loc 1 366 42 is_stmt 0 view .LVU459
 1467 0040 05EB0408 		add	r8, r5, r4
 366:Drivers/lvgl/src/extra/libs/qrcode/qrcodegen.c **** 			if (j + 1 < degree)
 1468              		.loc 1 366 16 view .LVU460
 1469 0044 4946     		mov	r1, r9
ARM GAS  /var/folders/lp/x54gwt890xv47sdkqj1k04q40000gn/T//ccL4ZsdQ.s 			page 48


 1470 0046 285D     		ldrb	r0, [r5, r4]	@ zero_extendqisi2
 1471 0048 FFF7FEFF 		bl	finiteFieldMultiply
 1472              	.LVL138:
 366:Drivers/lvgl/src/extra/libs/qrcode/qrcodegen.c **** 			if (j + 1 < degree)
 1473              		.loc 1 366 14 discriminator 1 view .LVU461
 1474 004c 2855     		strb	r0, [r5, r4]
 367:Drivers/lvgl/src/extra/libs/qrcode/qrcodegen.c **** 				result[j] ^= result[j + 1];
 1475              		.loc 1 367 4 is_stmt 1 view .LVU462
 367:Drivers/lvgl/src/extra/libs/qrcode/qrcodegen.c **** 				result[j] ^= result[j + 1];
 1476              		.loc 1 367 10 is_stmt 0 view .LVU463
 1477 004e 0134     		adds	r4, r4, #1
 1478              	.LVL139:
 367:Drivers/lvgl/src/extra/libs/qrcode/qrcodegen.c **** 				result[j] ^= result[j + 1];
 1479              		.loc 1 367 7 view .LVU464
 1480 0050 BC42     		cmp	r4, r7
 1481 0052 F3DA     		bge	.L143
 368:Drivers/lvgl/src/extra/libs/qrcode/qrcodegen.c **** 		}
 1482              		.loc 1 368 5 is_stmt 1 view .LVU465
 368:Drivers/lvgl/src/extra/libs/qrcode/qrcodegen.c **** 		}
 1483              		.loc 1 368 24 is_stmt 0 view .LVU466
 1484 0054 98F80130 		ldrb	r3, [r8, #1]	@ zero_extendqisi2
 368:Drivers/lvgl/src/extra/libs/qrcode/qrcodegen.c **** 		}
 1485              		.loc 1 368 15 view .LVU467
 1486 0058 5840     		eors	r0, r0, r3
 1487 005a 88F80000 		strb	r0, [r8]
 1488 005e EDE7     		b	.L143
 1489              	.LVL140:
 1490              	.L146:
 368:Drivers/lvgl/src/extra/libs/qrcode/qrcodegen.c **** 		}
 1491              		.loc 1 368 15 view .LVU468
 1492              	.LBE25:
 1493              	.LBE24:
 372:Drivers/lvgl/src/extra/libs/qrcode/qrcodegen.c **** 
 1494              		.loc 1 372 1 view .LVU469
 1495 0060 BDE8F087 		pop	{r4, r5, r6, r7, r8, r9, r10, pc}
 372:Drivers/lvgl/src/extra/libs/qrcode/qrcodegen.c **** 
 1496              		.loc 1 372 1 view .LVU470
 1497              		.cfi_endproc
 1498              	.LFE9:
 1500              		.section	.text.initializeFunctionModules,"ax",%progbits
 1501              		.align	1
 1502              		.syntax unified
 1503              		.thumb
 1504              		.thumb_func
 1506              	initializeFunctionModules:
 1507              	.LVL141:
 1508              	.LFB12:
 413:Drivers/lvgl/src/extra/libs/qrcode/qrcodegen.c **** 	// Initialize QR Code
 1509              		.loc 1 413 72 is_stmt 1 view -0
 1510              		.cfi_startproc
 1511              		@ args = 0, pretend = 0, frame = 8
 1512              		@ frame_needed = 0, uses_anonymous_args = 0
 413:Drivers/lvgl/src/extra/libs/qrcode/qrcodegen.c **** 	// Initialize QR Code
 1513              		.loc 1 413 72 is_stmt 0 view .LVU472
 1514 0000 2DE9F043 		push	{r4, r5, r6, r7, r8, r9, lr}
 1515              		.cfi_def_cfa_offset 28
 1516              		.cfi_offset 4, -28
ARM GAS  /var/folders/lp/x54gwt890xv47sdkqj1k04q40000gn/T//ccL4ZsdQ.s 			page 49


 1517              		.cfi_offset 5, -24
 1518              		.cfi_offset 6, -20
 1519              		.cfi_offset 7, -16
 1520              		.cfi_offset 8, -12
 1521              		.cfi_offset 9, -8
 1522              		.cfi_offset 14, -4
 1523 0004 85B0     		sub	sp, sp, #20
 1524              		.cfi_def_cfa_offset 48
 1525 0006 8046     		mov	r8, r0
 1526 0008 0F46     		mov	r7, r1
 415:Drivers/lvgl/src/extra/libs/qrcode/qrcodegen.c **** 	memset(qrcode, 0, ((qrsize * qrsize + 7) / 8 + 1) * sizeof(qrcode[0]));
 1527              		.loc 1 415 2 is_stmt 1 view .LVU473
 415:Drivers/lvgl/src/extra/libs/qrcode/qrcodegen.c **** 	memset(qrcode, 0, ((qrsize * qrsize + 7) / 8 + 1) * sizeof(qrcode[0]));
 1528              		.loc 1 415 23 is_stmt 0 view .LVU474
 1529 000a 4FEA8009 		lsl	r9, r0, #2
 415:Drivers/lvgl/src/extra/libs/qrcode/qrcodegen.c **** 	memset(qrcode, 0, ((qrsize * qrsize + 7) / 8 + 1) * sizeof(qrcode[0]));
 1530              		.loc 1 415 6 view .LVU475
 1531 000e 09F11104 		add	r4, r9, #17
 1532              	.LVL142:
 416:Drivers/lvgl/src/extra/libs/qrcode/qrcodegen.c **** 	qrcode[0] = (uint8_t)qrsize;
 1533              		.loc 1 416 2 is_stmt 1 view .LVU476
 416:Drivers/lvgl/src/extra/libs/qrcode/qrcodegen.c **** 	qrcode[0] = (uint8_t)qrsize;
 1534              		.loc 1 416 29 is_stmt 0 view .LVU477
 1535 0012 04FB04F3 		mul	r3, r4, r4
 416:Drivers/lvgl/src/extra/libs/qrcode/qrcodegen.c **** 	qrcode[0] = (uint8_t)qrsize;
 1536              		.loc 1 416 43 view .LVU478
 1537 0016 0733     		adds	r3, r3, #7
 1538 0018 32D4     		bmi	.L159
 1539              	.L149:
 1540 001a DB10     		asrs	r3, r3, #3
 416:Drivers/lvgl/src/extra/libs/qrcode/qrcodegen.c **** 	qrcode[0] = (uint8_t)qrsize;
 1541              		.loc 1 416 2 view .LVU479
 1542 001c 5A1C     		adds	r2, r3, #1
 1543 001e 0021     		movs	r1, #0
 1544              	.LVL143:
 416:Drivers/lvgl/src/extra/libs/qrcode/qrcodegen.c **** 	qrcode[0] = (uint8_t)qrsize;
 1545              		.loc 1 416 2 view .LVU480
 1546 0020 3846     		mov	r0, r7
 1547              	.LVL144:
 416:Drivers/lvgl/src/extra/libs/qrcode/qrcodegen.c **** 	qrcode[0] = (uint8_t)qrsize;
 1548              		.loc 1 416 2 view .LVU481
 1549 0022 FFF7FEFF 		bl	memset
 1550              	.LVL145:
 417:Drivers/lvgl/src/extra/libs/qrcode/qrcodegen.c **** 
 1551              		.loc 1 417 2 is_stmt 1 view .LVU482
 417:Drivers/lvgl/src/extra/libs/qrcode/qrcodegen.c **** 
 1552              		.loc 1 417 12 is_stmt 0 view .LVU483
 1553 0026 3C70     		strb	r4, [r7]
 420:Drivers/lvgl/src/extra/libs/qrcode/qrcodegen.c **** 	fillRectangle(0, 6, qrsize, 1, qrcode);
 1554              		.loc 1 420 2 is_stmt 1 view .LVU484
 1555 0028 0097     		str	r7, [sp]
 1556 002a 2346     		mov	r3, r4
 1557 002c 0122     		movs	r2, #1
 1558 002e 0021     		movs	r1, #0
 1559 0030 0620     		movs	r0, #6
 1560 0032 FFF7FEFF 		bl	fillRectangle
 1561              	.LVL146:
ARM GAS  /var/folders/lp/x54gwt890xv47sdkqj1k04q40000gn/T//ccL4ZsdQ.s 			page 50


 421:Drivers/lvgl/src/extra/libs/qrcode/qrcodegen.c **** 
 1562              		.loc 1 421 2 view .LVU485
 1563 0036 0097     		str	r7, [sp]
 1564 0038 0123     		movs	r3, #1
 1565 003a 2246     		mov	r2, r4
 1566 003c 0621     		movs	r1, #6
 1567 003e 0020     		movs	r0, #0
 1568 0040 FFF7FEFF 		bl	fillRectangle
 1569              	.LVL147:
 424:Drivers/lvgl/src/extra/libs/qrcode/qrcodegen.c **** 	fillRectangle(qrsize - 8, 0, 8, 9, qrcode);
 1570              		.loc 1 424 2 view .LVU486
 1571 0044 0097     		str	r7, [sp]
 1572 0046 0923     		movs	r3, #9
 1573 0048 1A46     		mov	r2, r3
 1574 004a 0021     		movs	r1, #0
 1575 004c 0846     		mov	r0, r1
 1576 004e FFF7FEFF 		bl	fillRectangle
 1577              	.LVL148:
 425:Drivers/lvgl/src/extra/libs/qrcode/qrcodegen.c **** 	fillRectangle(0, qrsize - 8, 9, 8, qrcode);
 1578              		.loc 1 425 2 view .LVU487
 1579 0052 09F10904 		add	r4, r9, #9
 1580              	.LVL149:
 425:Drivers/lvgl/src/extra/libs/qrcode/qrcodegen.c **** 	fillRectangle(0, qrsize - 8, 9, 8, qrcode);
 1581              		.loc 1 425 2 is_stmt 0 view .LVU488
 1582 0056 0097     		str	r7, [sp]
 1583 0058 0923     		movs	r3, #9
 1584 005a 0822     		movs	r2, #8
 1585 005c 0021     		movs	r1, #0
 1586 005e 2046     		mov	r0, r4
 1587 0060 FFF7FEFF 		bl	fillRectangle
 1588              	.LVL150:
 426:Drivers/lvgl/src/extra/libs/qrcode/qrcodegen.c **** 
 1589              		.loc 1 426 2 is_stmt 1 view .LVU489
 1590 0064 0097     		str	r7, [sp]
 1591 0066 0823     		movs	r3, #8
 1592 0068 0922     		movs	r2, #9
 1593 006a 2146     		mov	r1, r4
 1594 006c 0020     		movs	r0, #0
 1595 006e FFF7FEFF 		bl	fillRectangle
 1596              	.LVL151:
 429:Drivers/lvgl/src/extra/libs/qrcode/qrcodegen.c **** 	int numAlign = getAlignmentPatternPositions(version, alignPatPos);
 1597              		.loc 1 429 2 view .LVU490
 430:Drivers/lvgl/src/extra/libs/qrcode/qrcodegen.c **** 	for (int i = 0; i < numAlign; i++) {
 1598              		.loc 1 430 2 view .LVU491
 430:Drivers/lvgl/src/extra/libs/qrcode/qrcodegen.c **** 	for (int i = 0; i < numAlign; i++) {
 1599              		.loc 1 430 17 is_stmt 0 view .LVU492
 1600 0072 02A9     		add	r1, sp, #8
 1601 0074 4046     		mov	r0, r8
 1602 0076 FFF7FEFF 		bl	getAlignmentPatternPositions
 1603              	.LVL152:
 1604 007a 0646     		mov	r6, r0
 1605              	.LVL153:
 431:Drivers/lvgl/src/extra/libs/qrcode/qrcodegen.c **** 		for (int j = 0; j < numAlign; j++) {
 1606              		.loc 1 431 2 is_stmt 1 view .LVU493
 1607              	.LBB26:
 431:Drivers/lvgl/src/extra/libs/qrcode/qrcodegen.c **** 		for (int j = 0; j < numAlign; j++) {
 1608              		.loc 1 431 7 view .LVU494
ARM GAS  /var/folders/lp/x54gwt890xv47sdkqj1k04q40000gn/T//ccL4ZsdQ.s 			page 51


 431:Drivers/lvgl/src/extra/libs/qrcode/qrcodegen.c **** 		for (int j = 0; j < numAlign; j++) {
 1609              		.loc 1 431 11 is_stmt 0 view .LVU495
 1610 007c 0025     		movs	r5, #0
 431:Drivers/lvgl/src/extra/libs/qrcode/qrcodegen.c **** 		for (int j = 0; j < numAlign; j++) {
 1611              		.loc 1 431 2 view .LVU496
 1612 007e 23E0     		b	.L150
 1613              	.LVL154:
 1614              	.L159:
 431:Drivers/lvgl/src/extra/libs/qrcode/qrcodegen.c **** 		for (int j = 0; j < numAlign; j++) {
 1615              		.loc 1 431 2 view .LVU497
 1616              	.LBE26:
 416:Drivers/lvgl/src/extra/libs/qrcode/qrcodegen.c **** 	qrcode[0] = (uint8_t)qrsize;
 1617              		.loc 1 416 43 view .LVU498
 1618 0080 0733     		adds	r3, r3, #7
 1619 0082 CAE7     		b	.L149
 1620              	.LVL155:
 1621              	.L161:
 1622              	.LBB29:
 1623              	.LBB27:
 434:Drivers/lvgl/src/extra/libs/qrcode/qrcodegen.c **** 				fillRectangle(alignPatPos[i] - 2, alignPatPos[j] - 2, 5, 5, qrcode);
 1624              		.loc 1 434 29 discriminator 2 view .LVU499
 1625 0084 A4B1     		cbz	r4, .L152
 434:Drivers/lvgl/src/extra/libs/qrcode/qrcodegen.c **** 				fillRectangle(alignPatPos[i] - 2, alignPatPos[j] - 2, 5, 5, qrcode);
 1626              		.loc 1 434 57 discriminator 3 view .LVU500
 1627 0086 731E     		subs	r3, r6, #1
 434:Drivers/lvgl/src/extra/libs/qrcode/qrcodegen.c **** 				fillRectangle(alignPatPos[i] - 2, alignPatPos[j] - 2, 5, 5, qrcode);
 1628              		.loc 1 434 29 discriminator 3 view .LVU501
 1629 0088 A342     		cmp	r3, r4
 1630 008a 16D1     		bne	.L151
 434:Drivers/lvgl/src/extra/libs/qrcode/qrcodegen.c **** 				fillRectangle(alignPatPos[i] - 2, alignPatPos[j] - 2, 5, 5, qrcode);
 1631              		.loc 1 434 29 discriminator 3 view .LVU502
 1632 008c 10E0     		b	.L152
 1633              	.L153:
 435:Drivers/lvgl/src/extra/libs/qrcode/qrcodegen.c **** 		}
 1634              		.loc 1 435 5 is_stmt 1 view .LVU503
 435:Drivers/lvgl/src/extra/libs/qrcode/qrcodegen.c **** 		}
 1635              		.loc 1 435 30 is_stmt 0 view .LVU504
 1636 008e 05F11003 		add	r3, r5, #16
 1637 0092 6B44     		add	r3, sp, r3
 1638 0094 13F8080C 		ldrb	r0, [r3, #-8]	@ zero_extendqisi2
 435:Drivers/lvgl/src/extra/libs/qrcode/qrcodegen.c **** 		}
 1639              		.loc 1 435 50 view .LVU505
 1640 0098 04F11003 		add	r3, r4, #16
 1641 009c 6B44     		add	r3, sp, r3
 1642 009e 13F8081C 		ldrb	r1, [r3, #-8]	@ zero_extendqisi2
 435:Drivers/lvgl/src/extra/libs/qrcode/qrcodegen.c **** 		}
 1643              		.loc 1 435 5 view .LVU506
 1644 00a2 0097     		str	r7, [sp]
 1645 00a4 0523     		movs	r3, #5
 1646 00a6 1A46     		mov	r2, r3
 1647 00a8 0239     		subs	r1, r1, #2
 1648 00aa 0238     		subs	r0, r0, #2
 1649 00ac FFF7FEFF 		bl	fillRectangle
 1650              	.LVL156:
 1651              	.L152:
 432:Drivers/lvgl/src/extra/libs/qrcode/qrcodegen.c **** 			// Don't draw on the three finder corners
 1652              		.loc 1 432 34 is_stmt 1 discriminator 2 view .LVU507
ARM GAS  /var/folders/lp/x54gwt890xv47sdkqj1k04q40000gn/T//ccL4ZsdQ.s 			page 52


 1653 00b0 0134     		adds	r4, r4, #1
 1654              	.LVL157:
 1655              	.L155:
 432:Drivers/lvgl/src/extra/libs/qrcode/qrcodegen.c **** 			// Don't draw on the three finder corners
 1656              		.loc 1 432 21 discriminator 1 view .LVU508
 1657 00b2 B442     		cmp	r4, r6
 1658 00b4 07DA     		bge	.L160
 434:Drivers/lvgl/src/extra/libs/qrcode/qrcodegen.c **** 				fillRectangle(alignPatPos[i] - 2, alignPatPos[j] - 2, 5, 5, qrcode);
 1659              		.loc 1 434 4 view .LVU509
 434:Drivers/lvgl/src/extra/libs/qrcode/qrcodegen.c **** 				fillRectangle(alignPatPos[i] - 2, alignPatPos[j] - 2, 5, 5, qrcode);
 1660              		.loc 1 434 7 is_stmt 0 view .LVU510
 1661 00b6 002D     		cmp	r5, #0
 1662 00b8 E4D0     		beq	.L161
 1663              	.L151:
 434:Drivers/lvgl/src/extra/libs/qrcode/qrcodegen.c **** 				fillRectangle(alignPatPos[i] - 2, alignPatPos[j] - 2, 5, 5, qrcode);
 1664              		.loc 1 434 80 discriminator 4 view .LVU511
 1665 00ba 731E     		subs	r3, r6, #1
 434:Drivers/lvgl/src/extra/libs/qrcode/qrcodegen.c **** 				fillRectangle(alignPatPos[i] - 2, alignPatPos[j] - 2, 5, 5, qrcode);
 1666              		.loc 1 434 8 discriminator 4 view .LVU512
 1667 00bc AB42     		cmp	r3, r5
 1668 00be E6D1     		bne	.L153
 434:Drivers/lvgl/src/extra/libs/qrcode/qrcodegen.c **** 				fillRectangle(alignPatPos[i] - 2, alignPatPos[j] - 2, 5, 5, qrcode);
 1669              		.loc 1 434 84 discriminator 5 view .LVU513
 1670 00c0 002C     		cmp	r4, #0
 1671 00c2 E4D1     		bne	.L153
 1672 00c4 F4E7     		b	.L152
 1673              	.L160:
 434:Drivers/lvgl/src/extra/libs/qrcode/qrcodegen.c **** 				fillRectangle(alignPatPos[i] - 2, alignPatPos[j] - 2, 5, 5, qrcode);
 1674              		.loc 1 434 84 discriminator 5 view .LVU514
 1675              	.LBE27:
 431:Drivers/lvgl/src/extra/libs/qrcode/qrcodegen.c **** 		for (int j = 0; j < numAlign; j++) {
 1676              		.loc 1 431 33 is_stmt 1 discriminator 2 view .LVU515
 1677 00c6 0135     		adds	r5, r5, #1
 1678              	.LVL158:
 1679              	.L150:
 431:Drivers/lvgl/src/extra/libs/qrcode/qrcodegen.c **** 		for (int j = 0; j < numAlign; j++) {
 1680              		.loc 1 431 20 discriminator 1 view .LVU516
 1681 00c8 B542     		cmp	r5, r6
 1682 00ca 01DA     		bge	.L162
 1683              	.LBB28:
 432:Drivers/lvgl/src/extra/libs/qrcode/qrcodegen.c **** 			// Don't draw on the three finder corners
 1684              		.loc 1 432 12 is_stmt 0 view .LVU517
 1685 00cc 0024     		movs	r4, #0
 1686 00ce F0E7     		b	.L155
 1687              	.L162:
 1688              	.LBE28:
 1689              	.LBE29:
 440:Drivers/lvgl/src/extra/libs/qrcode/qrcodegen.c **** 		fillRectangle(qrsize - 11, 0, 3, 6, qrcode);
 1690              		.loc 1 440 2 is_stmt 1 view .LVU518
 440:Drivers/lvgl/src/extra/libs/qrcode/qrcodegen.c **** 		fillRectangle(qrsize - 11, 0, 3, 6, qrcode);
 1691              		.loc 1 440 5 is_stmt 0 view .LVU519
 1692 00d0 B8F1060F 		cmp	r8, #6
 1693 00d4 02DC     		bgt	.L163
 1694              	.LVL159:
 1695              	.L148:
 444:Drivers/lvgl/src/extra/libs/qrcode/qrcodegen.c **** 
 1696              		.loc 1 444 1 view .LVU520
ARM GAS  /var/folders/lp/x54gwt890xv47sdkqj1k04q40000gn/T//ccL4ZsdQ.s 			page 53


 1697 00d6 05B0     		add	sp, sp, #20
 1698              		.cfi_remember_state
 1699              		.cfi_def_cfa_offset 28
 1700              		@ sp needed
 1701 00d8 BDE8F083 		pop	{r4, r5, r6, r7, r8, r9, pc}
 1702              	.LVL160:
 1703              	.L163:
 1704              		.cfi_restore_state
 441:Drivers/lvgl/src/extra/libs/qrcode/qrcodegen.c **** 		fillRectangle(0, qrsize - 11, 6, 3, qrcode);
 1705              		.loc 1 441 3 is_stmt 1 view .LVU521
 1706 00dc 09F10609 		add	r9, r9, #6
 1707              	.LVL161:
 441:Drivers/lvgl/src/extra/libs/qrcode/qrcodegen.c **** 		fillRectangle(0, qrsize - 11, 6, 3, qrcode);
 1708              		.loc 1 441 3 is_stmt 0 view .LVU522
 1709 00e0 0097     		str	r7, [sp]
 1710 00e2 0623     		movs	r3, #6
 1711 00e4 0322     		movs	r2, #3
 1712 00e6 0021     		movs	r1, #0
 1713 00e8 4846     		mov	r0, r9
 1714 00ea FFF7FEFF 		bl	fillRectangle
 1715              	.LVL162:
 442:Drivers/lvgl/src/extra/libs/qrcode/qrcodegen.c **** 	}
 1716              		.loc 1 442 3 is_stmt 1 view .LVU523
 1717 00ee 0097     		str	r7, [sp]
 1718 00f0 0323     		movs	r3, #3
 1719 00f2 0622     		movs	r2, #6
 1720 00f4 4946     		mov	r1, r9
 1721 00f6 0020     		movs	r0, #0
 1722 00f8 FFF7FEFF 		bl	fillRectangle
 1723              	.LVL163:
 444:Drivers/lvgl/src/extra/libs/qrcode/qrcodegen.c **** 
 1724              		.loc 1 444 1 is_stmt 0 view .LVU524
 1725 00fc EBE7     		b	.L148
 1726              		.cfi_endproc
 1727              	.LFE12:
 1729              		.section	.text.calcReedSolomonRemainder,"ax",%progbits
 1730              		.align	1
 1731              		.syntax unified
 1732              		.thumb
 1733              		.thumb_func
 1735              	calcReedSolomonRemainder:
 1736              	.LVL164:
 1737              	.LFB10:
 378:Drivers/lvgl/src/extra/libs/qrcode/qrcodegen.c **** 
 1738              		.loc 1 378 60 is_stmt 1 view -0
 1739              		.cfi_startproc
 1740              		@ args = 4, pretend = 0, frame = 8
 1741              		@ frame_needed = 0, uses_anonymous_args = 0
 378:Drivers/lvgl/src/extra/libs/qrcode/qrcodegen.c **** 
 1742              		.loc 1 378 60 is_stmt 0 view .LVU526
 1743 0000 2DE9F04F 		push	{r4, r5, r6, r7, r8, r9, r10, fp, lr}
 1744              		.cfi_def_cfa_offset 36
 1745              		.cfi_offset 4, -36
 1746              		.cfi_offset 5, -32
 1747              		.cfi_offset 6, -28
 1748              		.cfi_offset 7, -24
 1749              		.cfi_offset 8, -20
ARM GAS  /var/folders/lp/x54gwt890xv47sdkqj1k04q40000gn/T//ccL4ZsdQ.s 			page 54


 1750              		.cfi_offset 9, -16
 1751              		.cfi_offset 10, -12
 1752              		.cfi_offset 11, -8
 1753              		.cfi_offset 14, -4
 1754 0004 83B0     		sub	sp, sp, #12
 1755              		.cfi_def_cfa_offset 48
 1756 0006 0190     		str	r0, [sp, #4]
 1757 0008 0C9D     		ldr	r5, [sp, #48]
 381:Drivers/lvgl/src/extra/libs/qrcode/qrcodegen.c **** 	memset(result, 0, degree * sizeof(result[0]));
 1758              		.loc 1 381 2 is_stmt 1 view .LVU527
 381:Drivers/lvgl/src/extra/libs/qrcode/qrcodegen.c **** 	memset(result, 0, degree * sizeof(result[0]));
 1759              		.loc 1 381 2 view .LVU528
 1760 000a 03F1FF3A 		add	r10, r3, #-1
 1761 000e BAF11D0F 		cmp	r10, #29
 1762 0012 00D9     		bls	.L165
 1763              	.L166:
 381:Drivers/lvgl/src/extra/libs/qrcode/qrcodegen.c **** 	memset(result, 0, degree * sizeof(result[0]));
 1764              		.loc 1 381 2 discriminator 1 view .LVU529
 381:Drivers/lvgl/src/extra/libs/qrcode/qrcodegen.c **** 	memset(result, 0, degree * sizeof(result[0]));
 1765              		.loc 1 381 2 discriminator 1 view .LVU530
 381:Drivers/lvgl/src/extra/libs/qrcode/qrcodegen.c **** 	memset(result, 0, degree * sizeof(result[0]));
 1766              		.loc 1 381 2 discriminator 1 view .LVU531
 381:Drivers/lvgl/src/extra/libs/qrcode/qrcodegen.c **** 	memset(result, 0, degree * sizeof(result[0]));
 1767              		.loc 1 381 2 discriminator 1 view .LVU532
 381:Drivers/lvgl/src/extra/libs/qrcode/qrcodegen.c **** 	memset(result, 0, degree * sizeof(result[0]));
 1768              		.loc 1 381 2 discriminator 1 view .LVU533
 1769 0014 FEE7     		b	.L166
 1770              	.L165:
 1771 0016 8B46     		mov	fp, r1
 1772 0018 9046     		mov	r8, r2
 1773 001a 1F46     		mov	r7, r3
 381:Drivers/lvgl/src/extra/libs/qrcode/qrcodegen.c **** 	memset(result, 0, degree * sizeof(result[0]));
 1774              		.loc 1 381 2 discriminator 2 view .LVU534
 382:Drivers/lvgl/src/extra/libs/qrcode/qrcodegen.c **** 	for (int i = 0; i < dataLen; i++) {
 1775              		.loc 1 382 2 view .LVU535
 1776 001c 1A46     		mov	r2, r3
 1777              	.LVL165:
 382:Drivers/lvgl/src/extra/libs/qrcode/qrcodegen.c **** 	for (int i = 0; i < dataLen; i++) {
 1778              		.loc 1 382 2 is_stmt 0 view .LVU536
 1779 001e 0021     		movs	r1, #0
 1780              	.LVL166:
 382:Drivers/lvgl/src/extra/libs/qrcode/qrcodegen.c **** 	for (int i = 0; i < dataLen; i++) {
 1781              		.loc 1 382 2 view .LVU537
 1782 0020 2846     		mov	r0, r5
 1783              	.LVL167:
 382:Drivers/lvgl/src/extra/libs/qrcode/qrcodegen.c **** 	for (int i = 0; i < dataLen; i++) {
 1784              		.loc 1 382 2 view .LVU538
 1785 0022 FFF7FEFF 		bl	memset
 1786              	.LVL168:
 383:Drivers/lvgl/src/extra/libs/qrcode/qrcodegen.c **** 		uint8_t factor = data[i] ^ result[0];
 1787              		.loc 1 383 2 is_stmt 1 view .LVU539
 1788              	.LBB30:
 383:Drivers/lvgl/src/extra/libs/qrcode/qrcodegen.c **** 		uint8_t factor = data[i] ^ result[0];
 1789              		.loc 1 383 7 view .LVU540
 383:Drivers/lvgl/src/extra/libs/qrcode/qrcodegen.c **** 		uint8_t factor = data[i] ^ result[0];
 1790              		.loc 1 383 11 is_stmt 0 view .LVU541
 1791 0026 4FF00009 		mov	r9, #0
ARM GAS  /var/folders/lp/x54gwt890xv47sdkqj1k04q40000gn/T//ccL4ZsdQ.s 			page 55


 383:Drivers/lvgl/src/extra/libs/qrcode/qrcodegen.c **** 		uint8_t factor = data[i] ^ result[0];
 1792              		.loc 1 383 2 view .LVU542
 1793 002a 0CE0     		b	.L167
 1794              	.LVL169:
 1795              	.L169:
 1796              	.LBB31:
 1797              	.LBB32:
 388:Drivers/lvgl/src/extra/libs/qrcode/qrcodegen.c **** 	}
 1798              		.loc 1 388 4 is_stmt 1 view .LVU543
 388:Drivers/lvgl/src/extra/libs/qrcode/qrcodegen.c **** 	}
 1799              		.loc 1 388 17 is_stmt 0 view .LVU544
 1800 002c 3146     		mov	r1, r6
 1801 002e 18F80400 		ldrb	r0, [r8, r4]	@ zero_extendqisi2
 1802 0032 FFF7FEFF 		bl	finiteFieldMultiply
 1803              	.LVL170:
 388:Drivers/lvgl/src/extra/libs/qrcode/qrcodegen.c **** 	}
 1804              		.loc 1 388 10 discriminator 1 view .LVU545
 1805 0036 2B5D     		ldrb	r3, [r5, r4]	@ zero_extendqisi2
 388:Drivers/lvgl/src/extra/libs/qrcode/qrcodegen.c **** 	}
 1806              		.loc 1 388 14 discriminator 1 view .LVU546
 1807 0038 4340     		eors	r3, r3, r0
 1808 003a 2B55     		strb	r3, [r5, r4]
 387:Drivers/lvgl/src/extra/libs/qrcode/qrcodegen.c **** 			result[j] ^= finiteFieldMultiply(generator[j], factor);
 1809              		.loc 1 387 32 is_stmt 1 discriminator 3 view .LVU547
 1810 003c 0134     		adds	r4, r4, #1
 1811              	.LVL171:
 1812              	.L168:
 387:Drivers/lvgl/src/extra/libs/qrcode/qrcodegen.c **** 			result[j] ^= finiteFieldMultiply(generator[j], factor);
 1813              		.loc 1 387 21 discriminator 1 view .LVU548
 1814 003e BC42     		cmp	r4, r7
 1815 0040 F4DB     		blt	.L169
 1816              	.LBE32:
 1817              	.LBE31:
 383:Drivers/lvgl/src/extra/libs/qrcode/qrcodegen.c **** 		uint8_t factor = data[i] ^ result[0];
 1818              		.loc 1 383 32 discriminator 2 view .LVU549
 1819 0042 09F10109 		add	r9, r9, #1
 1820              	.LVL172:
 1821              	.L167:
 383:Drivers/lvgl/src/extra/libs/qrcode/qrcodegen.c **** 		uint8_t factor = data[i] ^ result[0];
 1822              		.loc 1 383 20 discriminator 1 view .LVU550
 1823 0046 D945     		cmp	r9, fp
 1824 0048 0EDA     		bge	.L172
 1825              	.LBB34:
 384:Drivers/lvgl/src/extra/libs/qrcode/qrcodegen.c **** 		memmove(&result[0], &result[1], (degree - 1) * sizeof(result[0]));
 1826              		.loc 1 384 3 view .LVU551
 384:Drivers/lvgl/src/extra/libs/qrcode/qrcodegen.c **** 		memmove(&result[0], &result[1], (degree - 1) * sizeof(result[0]));
 1827              		.loc 1 384 24 is_stmt 0 view .LVU552
 1828 004a 019B     		ldr	r3, [sp, #4]
 1829 004c 13F80960 		ldrb	r6, [r3, r9]	@ zero_extendqisi2
 384:Drivers/lvgl/src/extra/libs/qrcode/qrcodegen.c **** 		memmove(&result[0], &result[1], (degree - 1) * sizeof(result[0]));
 1830              		.loc 1 384 36 view .LVU553
 1831 0050 2946     		mov	r1, r5
 1832 0052 11F8013B 		ldrb	r3, [r1], #1	@ zero_extendqisi2
 384:Drivers/lvgl/src/extra/libs/qrcode/qrcodegen.c **** 		memmove(&result[0], &result[1], (degree - 1) * sizeof(result[0]));
 1833              		.loc 1 384 11 view .LVU554
 1834 0056 5E40     		eors	r6, r6, r3
 1835              	.LVL173:
ARM GAS  /var/folders/lp/x54gwt890xv47sdkqj1k04q40000gn/T//ccL4ZsdQ.s 			page 56


 385:Drivers/lvgl/src/extra/libs/qrcode/qrcodegen.c **** 		result[degree - 1] = 0;
 1836              		.loc 1 385 3 is_stmt 1 view .LVU555
 1837 0058 5246     		mov	r2, r10
 1838 005a 2846     		mov	r0, r5
 1839 005c FFF7FEFF 		bl	memmove
 1840              	.LVL174:
 386:Drivers/lvgl/src/extra/libs/qrcode/qrcodegen.c **** 		for (int j = 0; j < degree; j++)
 1841              		.loc 1 386 3 view .LVU556
 386:Drivers/lvgl/src/extra/libs/qrcode/qrcodegen.c **** 		for (int j = 0; j < degree; j++)
 1842              		.loc 1 386 22 is_stmt 0 view .LVU557
 1843 0060 0024     		movs	r4, #0
 1844 0062 05F80A40 		strb	r4, [r5, r10]
 387:Drivers/lvgl/src/extra/libs/qrcode/qrcodegen.c **** 			result[j] ^= finiteFieldMultiply(generator[j], factor);
 1845              		.loc 1 387 3 is_stmt 1 view .LVU558
 1846              	.LBB33:
 387:Drivers/lvgl/src/extra/libs/qrcode/qrcodegen.c **** 			result[j] ^= finiteFieldMultiply(generator[j], factor);
 1847              		.loc 1 387 8 view .LVU559
 1848              	.LVL175:
 387:Drivers/lvgl/src/extra/libs/qrcode/qrcodegen.c **** 			result[j] ^= finiteFieldMultiply(generator[j], factor);
 1849              		.loc 1 387 3 is_stmt 0 view .LVU560
 1850 0066 EAE7     		b	.L168
 1851              	.LVL176:
 1852              	.L172:
 387:Drivers/lvgl/src/extra/libs/qrcode/qrcodegen.c **** 			result[j] ^= finiteFieldMultiply(generator[j], factor);
 1853              		.loc 1 387 3 view .LVU561
 1854              	.LBE33:
 1855              	.LBE34:
 1856              	.LBE30:
 390:Drivers/lvgl/src/extra/libs/qrcode/qrcodegen.c **** 
 1857              		.loc 1 390 1 view .LVU562
 1858 0068 03B0     		add	sp, sp, #12
 1859              		.cfi_def_cfa_offset 36
 1860              		@ sp needed
 1861 006a BDE8F08F 		pop	{r4, r5, r6, r7, r8, r9, r10, fp, pc}
 390:Drivers/lvgl/src/extra/libs/qrcode/qrcodegen.c **** 
 1862              		.loc 1 390 1 view .LVU563
 1863              		.cfi_endproc
 1864              	.LFE10:
 1866              		.section	.text.addEccAndInterleave,"ax",%progbits
 1867              		.align	1
 1868              		.syntax unified
 1869              		.thumb
 1870              		.thumb_func
 1872              	addEccAndInterleave:
 1873              	.LVL177:
 1874              	.LFB6:
 291:Drivers/lvgl/src/extra/libs/qrcode/qrcodegen.c **** 	// Calculate parameter numbers
 1875              		.loc 1 291 106 is_stmt 1 view -0
 1876              		.cfi_startproc
 1877              		@ args = 0, pretend = 0, frame = 48
 1878              		@ frame_needed = 0, uses_anonymous_args = 0
 291:Drivers/lvgl/src/extra/libs/qrcode/qrcodegen.c **** 	// Calculate parameter numbers
 1879              		.loc 1 291 106 is_stmt 0 view .LVU565
 1880 0000 2DE9F04F 		push	{r4, r5, r6, r7, r8, r9, r10, fp, lr}
 1881              		.cfi_def_cfa_offset 36
 1882              		.cfi_offset 4, -36
 1883              		.cfi_offset 5, -32
ARM GAS  /var/folders/lp/x54gwt890xv47sdkqj1k04q40000gn/T//ccL4ZsdQ.s 			page 57


 1884              		.cfi_offset 6, -28
 1885              		.cfi_offset 7, -24
 1886              		.cfi_offset 8, -20
 1887              		.cfi_offset 9, -16
 1888              		.cfi_offset 10, -12
 1889              		.cfi_offset 11, -8
 1890              		.cfi_offset 14, -4
 1891 0004 8FB0     		sub	sp, sp, #60
 1892              		.cfi_def_cfa_offset 96
 1893 0006 0490     		str	r0, [sp, #16]
 293:Drivers/lvgl/src/extra/libs/qrcode/qrcodegen.c **** 	int numBlocks = NUM_ERROR_CORRECTION_BLOCKS[(int)ecl][version];
 1894              		.loc 1 293 2 is_stmt 1 view .LVU566
 293:Drivers/lvgl/src/extra/libs/qrcode/qrcodegen.c **** 	int numBlocks = NUM_ERROR_CORRECTION_BLOCKS[(int)ecl][version];
 1895              		.loc 1 293 2 view .LVU567
 1896 0008 032A     		cmp	r2, #3
 1897 000a 06D8     		bhi	.L174
 1898 000c 0F46     		mov	r7, r1
 1899 000e 1646     		mov	r6, r2
 1900 0010 1C46     		mov	r4, r3
 293:Drivers/lvgl/src/extra/libs/qrcode/qrcodegen.c **** 	int numBlocks = NUM_ERROR_CORRECTION_BLOCKS[(int)ecl][version];
 1901              		.loc 1 293 2 is_stmt 0 discriminator 2 view .LVU568
 1902 0012 0029     		cmp	r1, #0
 1903 0014 01DD     		ble	.L174
 293:Drivers/lvgl/src/extra/libs/qrcode/qrcodegen.c **** 	int numBlocks = NUM_ERROR_CORRECTION_BLOCKS[(int)ecl][version];
 1904              		.loc 1 293 2 discriminator 4 view .LVU569
 1905 0016 2829     		cmp	r1, #40
 1906 0018 00DD     		ble	.L175
 1907              	.L174:
 293:Drivers/lvgl/src/extra/libs/qrcode/qrcodegen.c **** 	int numBlocks = NUM_ERROR_CORRECTION_BLOCKS[(int)ecl][version];
 1908              		.loc 1 293 2 is_stmt 1 discriminator 5 view .LVU570
 293:Drivers/lvgl/src/extra/libs/qrcode/qrcodegen.c **** 	int numBlocks = NUM_ERROR_CORRECTION_BLOCKS[(int)ecl][version];
 1909              		.loc 1 293 2 discriminator 5 view .LVU571
 293:Drivers/lvgl/src/extra/libs/qrcode/qrcodegen.c **** 	int numBlocks = NUM_ERROR_CORRECTION_BLOCKS[(int)ecl][version];
 1910              		.loc 1 293 2 discriminator 5 view .LVU572
 293:Drivers/lvgl/src/extra/libs/qrcode/qrcodegen.c **** 	int numBlocks = NUM_ERROR_CORRECTION_BLOCKS[(int)ecl][version];
 1911              		.loc 1 293 2 discriminator 5 view .LVU573
 293:Drivers/lvgl/src/extra/libs/qrcode/qrcodegen.c **** 	int numBlocks = NUM_ERROR_CORRECTION_BLOCKS[(int)ecl][version];
 1912              		.loc 1 293 2 discriminator 5 view .LVU574
 1913 001a FEE7     		b	.L174
 1914              	.L175:
 293:Drivers/lvgl/src/extra/libs/qrcode/qrcodegen.c **** 	int numBlocks = NUM_ERROR_CORRECTION_BLOCKS[(int)ecl][version];
 1915              		.loc 1 293 2 discriminator 6 view .LVU575
 294:Drivers/lvgl/src/extra/libs/qrcode/qrcodegen.c **** 	int blockEccLen = ECC_CODEWORDS_PER_BLOCK  [(int)ecl][version];
 1916              		.loc 1 294 2 view .LVU576
 294:Drivers/lvgl/src/extra/libs/qrcode/qrcodegen.c **** 	int blockEccLen = ECC_CODEWORDS_PER_BLOCK  [(int)ecl][version];
 1917              		.loc 1 294 55 is_stmt 0 view .LVU577
 1918 001c 02EB8203 		add	r3, r2, r2, lsl #2
 1919              	.LVL178:
 294:Drivers/lvgl/src/extra/libs/qrcode/qrcodegen.c **** 	int blockEccLen = ECC_CODEWORDS_PER_BLOCK  [(int)ecl][version];
 1920              		.loc 1 294 55 view .LVU578
 1921 0020 02EBC303 		add	r3, r2, r3, lsl #3
 1922 0024 2C4A     		ldr	r2, .L188
 1923              	.LVL179:
 294:Drivers/lvgl/src/extra/libs/qrcode/qrcodegen.c **** 	int blockEccLen = ECC_CODEWORDS_PER_BLOCK  [(int)ecl][version];
 1924              		.loc 1 294 55 view .LVU579
 1925 0026 1A44     		add	r2, r2, r3
 1926 0028 5556     		ldrsb	r5, [r2, r1]
ARM GAS  /var/folders/lp/x54gwt890xv47sdkqj1k04q40000gn/T//ccL4ZsdQ.s 			page 58


 1927              	.LVL180:
 295:Drivers/lvgl/src/extra/libs/qrcode/qrcodegen.c **** 	int rawCodewords = getNumRawDataModules(version) / 8;
 1928              		.loc 1 295 2 is_stmt 1 view .LVU580
 295:Drivers/lvgl/src/extra/libs/qrcode/qrcodegen.c **** 	int rawCodewords = getNumRawDataModules(version) / 8;
 1929              		.loc 1 295 55 is_stmt 0 view .LVU581
 1930 002a 2C4A     		ldr	r2, .L188+4
 1931 002c 1344     		add	r3, r3, r2
 1932 002e 13F90180 		ldrsb	r8, [r3, r1]
 1933              	.LVL181:
 296:Drivers/lvgl/src/extra/libs/qrcode/qrcodegen.c **** 	int dataLen = getNumDataCodewords(version, ecl);
 1934              		.loc 1 296 2 is_stmt 1 view .LVU582
 296:Drivers/lvgl/src/extra/libs/qrcode/qrcodegen.c **** 	int dataLen = getNumDataCodewords(version, ecl);
 1935              		.loc 1 296 21 is_stmt 0 view .LVU583
 1936 0032 0846     		mov	r0, r1
 1937              	.LVL182:
 296:Drivers/lvgl/src/extra/libs/qrcode/qrcodegen.c **** 	int dataLen = getNumDataCodewords(version, ecl);
 1938              		.loc 1 296 21 view .LVU584
 1939 0034 FFF7FEFF 		bl	getNumRawDataModules
 1940              	.LVL183:
 296:Drivers/lvgl/src/extra/libs/qrcode/qrcodegen.c **** 	int dataLen = getNumDataCodewords(version, ecl);
 1941              		.loc 1 296 6 discriminator 1 view .LVU585
 1942 0038 031E     		subs	r3, r0, #0
 1943 003a 16DB     		blt	.L185
 1944              	.L176:
 1945 003c 4FEAE309 		asr	r9, r3, #3
 1946              	.LVL184:
 297:Drivers/lvgl/src/extra/libs/qrcode/qrcodegen.c **** 	int numShortBlocks = numBlocks - rawCodewords % numBlocks;
 1947              		.loc 1 297 2 is_stmt 1 view .LVU586
 297:Drivers/lvgl/src/extra/libs/qrcode/qrcodegen.c **** 	int numShortBlocks = numBlocks - rawCodewords % numBlocks;
 1948              		.loc 1 297 16 is_stmt 0 view .LVU587
 1949 0040 3146     		mov	r1, r6
 1950 0042 3846     		mov	r0, r7
 1951 0044 FFF7FEFF 		bl	getNumDataCodewords
 1952              	.LVL185:
 1953 0048 0590     		str	r0, [sp, #20]
 1954              	.LVL186:
 298:Drivers/lvgl/src/extra/libs/qrcode/qrcodegen.c **** 	int shortBlockDataLen = rawCodewords / numBlocks - blockEccLen;
 1955              		.loc 1 298 2 is_stmt 1 view .LVU588
 298:Drivers/lvgl/src/extra/libs/qrcode/qrcodegen.c **** 	int shortBlockDataLen = rawCodewords / numBlocks - blockEccLen;
 1956              		.loc 1 298 48 is_stmt 0 view .LVU589
 1957 004a 99FBF5FA 		sdiv	r10, r9, r5
 1958 004e 05FB1A93 		mls	r3, r5, r10, r9
 298:Drivers/lvgl/src/extra/libs/qrcode/qrcodegen.c **** 	int shortBlockDataLen = rawCodewords / numBlocks - blockEccLen;
 1959              		.loc 1 298 6 view .LVU590
 1960 0052 EB1A     		subs	r3, r5, r3
 1961 0054 0393     		str	r3, [sp, #12]
 1962              	.LVL187:
 299:Drivers/lvgl/src/extra/libs/qrcode/qrcodegen.c **** 
 1963              		.loc 1 299 2 is_stmt 1 view .LVU591
 299:Drivers/lvgl/src/extra/libs/qrcode/qrcodegen.c **** 
 1964              		.loc 1 299 6 is_stmt 0 view .LVU592
 1965 0056 AAEB080A 		sub	r10, r10, r8
 1966              	.LVL188:
 303:Drivers/lvgl/src/extra/libs/qrcode/qrcodegen.c **** 	calcReedSolomonGenerator(blockEccLen, generator);
 1967              		.loc 1 303 2 is_stmt 1 view .LVU593
 304:Drivers/lvgl/src/extra/libs/qrcode/qrcodegen.c **** 	const uint8_t *dat = data;
 1968              		.loc 1 304 2 view .LVU594
ARM GAS  /var/folders/lp/x54gwt890xv47sdkqj1k04q40000gn/T//ccL4ZsdQ.s 			page 59


 1969 005a 06A9     		add	r1, sp, #24
 1970 005c 4046     		mov	r0, r8
 1971              	.LVL189:
 304:Drivers/lvgl/src/extra/libs/qrcode/qrcodegen.c **** 	const uint8_t *dat = data;
 1972              		.loc 1 304 2 is_stmt 0 view .LVU595
 1973 005e FFF7FEFF 		bl	calcReedSolomonGenerator
 1974              	.LVL190:
 305:Drivers/lvgl/src/extra/libs/qrcode/qrcodegen.c **** 	for (int i = 0; i < numBlocks; i++) {
 1975              		.loc 1 305 2 is_stmt 1 view .LVU596
 306:Drivers/lvgl/src/extra/libs/qrcode/qrcodegen.c **** 		int datLen = shortBlockDataLen + (i < numShortBlocks ? 0 : 1);
 1976              		.loc 1 306 2 view .LVU597
 1977              	.LBB35:
 306:Drivers/lvgl/src/extra/libs/qrcode/qrcodegen.c **** 		int datLen = shortBlockDataLen + (i < numShortBlocks ? 0 : 1);
 1978              		.loc 1 306 7 view .LVU598
 306:Drivers/lvgl/src/extra/libs/qrcode/qrcodegen.c **** 		int datLen = shortBlockDataLen + (i < numShortBlocks ? 0 : 1);
 1979              		.loc 1 306 7 is_stmt 0 view .LVU599
 1980              	.LBE35:
 305:Drivers/lvgl/src/extra/libs/qrcode/qrcodegen.c **** 	for (int i = 0; i < numBlocks; i++) {
 1981              		.loc 1 305 17 view .LVU600
 1982 0062 049F     		ldr	r7, [sp, #16]
 1983              	.LVL191:
 1984              	.LBB41:
 306:Drivers/lvgl/src/extra/libs/qrcode/qrcodegen.c **** 		int datLen = shortBlockDataLen + (i < numShortBlocks ? 0 : 1);
 1985              		.loc 1 306 11 view .LVU601
 1986 0064 4FF0000B 		mov	fp, #0
 306:Drivers/lvgl/src/extra/libs/qrcode/qrcodegen.c **** 		int datLen = shortBlockDataLen + (i < numShortBlocks ? 0 : 1);
 1987              		.loc 1 306 2 view .LVU602
 1988 0068 1BE0     		b	.L177
 1989              	.LVL192:
 1990              	.L185:
 306:Drivers/lvgl/src/extra/libs/qrcode/qrcodegen.c **** 		int datLen = shortBlockDataLen + (i < numShortBlocks ? 0 : 1);
 1991              		.loc 1 306 2 view .LVU603
 1992              	.LBE41:
 296:Drivers/lvgl/src/extra/libs/qrcode/qrcodegen.c **** 	int dataLen = getNumDataCodewords(version, ecl);
 1993              		.loc 1 296 6 discriminator 1 view .LVU604
 1994 006a 0733     		adds	r3, r3, #7
 1995 006c E6E7     		b	.L176
 1996              	.LVL193:
 1997              	.L179:
 1998              	.LBB42:
 1999              	.LBB36:
 2000              	.LBB37:
 313:Drivers/lvgl/src/extra/libs/qrcode/qrcodegen.c **** 		}
 2001              		.loc 1 313 4 is_stmt 1 view .LVU605
 313:Drivers/lvgl/src/extra/libs/qrcode/qrcodegen.c **** 		}
 2002              		.loc 1 313 19 is_stmt 0 view .LVU606
 2003 006e F95C     		ldrb	r1, [r7, r3]	@ zero_extendqisi2
 313:Drivers/lvgl/src/extra/libs/qrcode/qrcodegen.c **** 		}
 2004              		.loc 1 313 14 view .LVU607
 2005 0070 A154     		strb	r1, [r4, r2]
 310:Drivers/lvgl/src/extra/libs/qrcode/qrcodegen.c **** 			if (j == shortBlockDataLen)
 2006              		.loc 1 310 41 is_stmt 1 discriminator 2 view .LVU608
 310:Drivers/lvgl/src/extra/libs/qrcode/qrcodegen.c **** 			if (j == shortBlockDataLen)
 2007              		.loc 1 310 39 is_stmt 0 discriminator 2 view .LVU609
 2008 0072 0133     		adds	r3, r3, #1
 2009              	.LVL194:
 310:Drivers/lvgl/src/extra/libs/qrcode/qrcodegen.c **** 			if (j == shortBlockDataLen)
ARM GAS  /var/folders/lp/x54gwt890xv47sdkqj1k04q40000gn/T//ccL4ZsdQ.s 			page 60


 2010              		.loc 1 310 45 discriminator 2 view .LVU610
 2011 0074 2A44     		add	r2, r2, r5
 2012              	.LVL195:
 2013              	.L178:
 310:Drivers/lvgl/src/extra/libs/qrcode/qrcodegen.c **** 			if (j == shortBlockDataLen)
 2014              		.loc 1 310 28 is_stmt 1 discriminator 1 view .LVU611
 2015 0076 B342     		cmp	r3, r6
 2016 0078 04DA     		bge	.L186
 311:Drivers/lvgl/src/extra/libs/qrcode/qrcodegen.c **** 				k -= numShortBlocks;
 2017              		.loc 1 311 4 view .LVU612
 311:Drivers/lvgl/src/extra/libs/qrcode/qrcodegen.c **** 				k -= numShortBlocks;
 2018              		.loc 1 311 7 is_stmt 0 view .LVU613
 2019 007a 5345     		cmp	r3, r10
 2020 007c F7D1     		bne	.L179
 312:Drivers/lvgl/src/extra/libs/qrcode/qrcodegen.c **** 			result[k] = dat[j];
 2021              		.loc 1 312 5 is_stmt 1 view .LVU614
 312:Drivers/lvgl/src/extra/libs/qrcode/qrcodegen.c **** 			result[k] = dat[j];
 2022              		.loc 1 312 7 is_stmt 0 view .LVU615
 2023 007e 0399     		ldr	r1, [sp, #12]
 2024 0080 521A     		subs	r2, r2, r1
 2025              	.LVL196:
 312:Drivers/lvgl/src/extra/libs/qrcode/qrcodegen.c **** 			result[k] = dat[j];
 2026              		.loc 1 312 7 view .LVU616
 2027 0082 F4E7     		b	.L179
 2028              	.L186:
 312:Drivers/lvgl/src/extra/libs/qrcode/qrcodegen.c **** 			result[k] = dat[j];
 2029              		.loc 1 312 7 view .LVU617
 2030              	.LBE37:
 315:Drivers/lvgl/src/extra/libs/qrcode/qrcodegen.c **** 			result[k] = ecc[j];
 2031              		.loc 1 315 3 is_stmt 1 view .LVU618
 2032              	.LBB38:
 315:Drivers/lvgl/src/extra/libs/qrcode/qrcodegen.c **** 			result[k] = ecc[j];
 2033              		.loc 1 315 8 view .LVU619
 2034              	.LVL197:
 315:Drivers/lvgl/src/extra/libs/qrcode/qrcodegen.c **** 			result[k] = ecc[j];
 2035              		.loc 1 315 19 is_stmt 0 view .LVU620
 2036 0084 059B     		ldr	r3, [sp, #20]
 2037              	.LVL198:
 315:Drivers/lvgl/src/extra/libs/qrcode/qrcodegen.c **** 			result[k] = ecc[j];
 2038              		.loc 1 315 19 view .LVU621
 2039 0086 0BEB0302 		add	r2, fp, r3
 2040              	.LVL199:
 315:Drivers/lvgl/src/extra/libs/qrcode/qrcodegen.c **** 			result[k] = ecc[j];
 2041              		.loc 1 315 12 view .LVU622
 2042 008a 0023     		movs	r3, #0
 315:Drivers/lvgl/src/extra/libs/qrcode/qrcodegen.c **** 			result[k] = ecc[j];
 2043              		.loc 1 315 3 view .LVU623
 2044 008c 04E0     		b	.L181
 2045              	.LVL200:
 2046              	.L182:
 316:Drivers/lvgl/src/extra/libs/qrcode/qrcodegen.c **** 		dat += datLen;
 2047              		.loc 1 316 4 is_stmt 1 view .LVU624
 316:Drivers/lvgl/src/extra/libs/qrcode/qrcodegen.c **** 		dat += datLen;
 2048              		.loc 1 316 19 is_stmt 0 view .LVU625
 2049 008e 19F80310 		ldrb	r1, [r9, r3]	@ zero_extendqisi2
 316:Drivers/lvgl/src/extra/libs/qrcode/qrcodegen.c **** 		dat += datLen;
 2050              		.loc 1 316 14 view .LVU626
ARM GAS  /var/folders/lp/x54gwt890xv47sdkqj1k04q40000gn/T//ccL4ZsdQ.s 			page 61


 2051 0092 A154     		strb	r1, [r4, r2]
 315:Drivers/lvgl/src/extra/libs/qrcode/qrcodegen.c **** 			result[k] = ecc[j];
 2052              		.loc 1 315 56 is_stmt 1 discriminator 3 view .LVU627
 315:Drivers/lvgl/src/extra/libs/qrcode/qrcodegen.c **** 			result[k] = ecc[j];
 2053              		.loc 1 315 54 is_stmt 0 discriminator 3 view .LVU628
 2054 0094 0133     		adds	r3, r3, #1
 2055              	.LVL201:
 315:Drivers/lvgl/src/extra/libs/qrcode/qrcodegen.c **** 			result[k] = ecc[j];
 2056              		.loc 1 315 60 discriminator 3 view .LVU629
 2057 0096 2A44     		add	r2, r2, r5
 2058              	.LVL202:
 2059              	.L181:
 315:Drivers/lvgl/src/extra/libs/qrcode/qrcodegen.c **** 			result[k] = ecc[j];
 2060              		.loc 1 315 38 is_stmt 1 discriminator 1 view .LVU630
 2061 0098 4345     		cmp	r3, r8
 2062 009a F8DB     		blt	.L182
 315:Drivers/lvgl/src/extra/libs/qrcode/qrcodegen.c **** 			result[k] = ecc[j];
 2063              		.loc 1 315 38 is_stmt 0 discriminator 1 view .LVU631
 2064              	.LBE38:
 317:Drivers/lvgl/src/extra/libs/qrcode/qrcodegen.c **** 	}
 2065              		.loc 1 317 3 is_stmt 1 view .LVU632
 317:Drivers/lvgl/src/extra/libs/qrcode/qrcodegen.c **** 	}
 2066              		.loc 1 317 7 is_stmt 0 view .LVU633
 2067 009c 3744     		add	r7, r7, r6
 2068              	.LVL203:
 317:Drivers/lvgl/src/extra/libs/qrcode/qrcodegen.c **** 	}
 2069              		.loc 1 317 7 view .LVU634
 2070              	.LBE36:
 306:Drivers/lvgl/src/extra/libs/qrcode/qrcodegen.c **** 		int datLen = shortBlockDataLen + (i < numShortBlocks ? 0 : 1);
 2071              		.loc 1 306 34 is_stmt 1 discriminator 2 view .LVU635
 2072 009e 0BF1010B 		add	fp, fp, #1
 2073              	.LVL204:
 2074              	.L177:
 306:Drivers/lvgl/src/extra/libs/qrcode/qrcodegen.c **** 		int datLen = shortBlockDataLen + (i < numShortBlocks ? 0 : 1);
 2075              		.loc 1 306 20 discriminator 1 view .LVU636
 2076 00a2 AB45     		cmp	fp, r5
 2077 00a4 14DA     		bge	.L187
 2078              	.LBB40:
 307:Drivers/lvgl/src/extra/libs/qrcode/qrcodegen.c **** 		uint8_t *ecc = &data[dataLen];  // Temporary storage
 2079              		.loc 1 307 3 view .LVU637
 307:Drivers/lvgl/src/extra/libs/qrcode/qrcodegen.c **** 		uint8_t *ecc = &data[dataLen];  // Temporary storage
 2080              		.loc 1 307 7 is_stmt 0 view .LVU638
 2081 00a6 039B     		ldr	r3, [sp, #12]
 2082 00a8 9B45     		cmp	fp, r3
 2083 00aa B4BF     		ite	lt
 2084 00ac 5646     		movlt	r6, r10
 2085 00ae 0AF10106 		addge	r6, r10, #1
 2086              	.LVL205:
 308:Drivers/lvgl/src/extra/libs/qrcode/qrcodegen.c **** 		calcReedSolomonRemainder(dat, datLen, generator, blockEccLen, ecc);
 2087              		.loc 1 308 3 is_stmt 1 view .LVU639
 308:Drivers/lvgl/src/extra/libs/qrcode/qrcodegen.c **** 		calcReedSolomonRemainder(dat, datLen, generator, blockEccLen, ecc);
 2088              		.loc 1 308 12 is_stmt 0 view .LVU640
 2089 00b2 049B     		ldr	r3, [sp, #16]
 2090 00b4 059A     		ldr	r2, [sp, #20]
 2091 00b6 03EB0209 		add	r9, r3, r2
 2092              	.LVL206:
 309:Drivers/lvgl/src/extra/libs/qrcode/qrcodegen.c **** 		for (int j = 0, k = i; j < datLen; j++, k += numBlocks) {  // Copy data
ARM GAS  /var/folders/lp/x54gwt890xv47sdkqj1k04q40000gn/T//ccL4ZsdQ.s 			page 62


 2093              		.loc 1 309 3 is_stmt 1 view .LVU641
 2094 00ba CDF80090 		str	r9, [sp]
 2095 00be 4346     		mov	r3, r8
 2096 00c0 06AA     		add	r2, sp, #24
 2097 00c2 3146     		mov	r1, r6
 2098 00c4 3846     		mov	r0, r7
 2099 00c6 FFF7FEFF 		bl	calcReedSolomonRemainder
 2100              	.LVL207:
 310:Drivers/lvgl/src/extra/libs/qrcode/qrcodegen.c **** 			if (j == shortBlockDataLen)
 2101              		.loc 1 310 3 view .LVU642
 2102              	.LBB39:
 310:Drivers/lvgl/src/extra/libs/qrcode/qrcodegen.c **** 			if (j == shortBlockDataLen)
 2103              		.loc 1 310 8 view .LVU643
 310:Drivers/lvgl/src/extra/libs/qrcode/qrcodegen.c **** 			if (j == shortBlockDataLen)
 2104              		.loc 1 310 19 is_stmt 0 view .LVU644
 2105 00ca 5A46     		mov	r2, fp
 310:Drivers/lvgl/src/extra/libs/qrcode/qrcodegen.c **** 			if (j == shortBlockDataLen)
 2106              		.loc 1 310 12 view .LVU645
 2107 00cc 0023     		movs	r3, #0
 310:Drivers/lvgl/src/extra/libs/qrcode/qrcodegen.c **** 			if (j == shortBlockDataLen)
 2108              		.loc 1 310 3 view .LVU646
 2109 00ce D2E7     		b	.L178
 2110              	.LVL208:
 2111              	.L187:
 310:Drivers/lvgl/src/extra/libs/qrcode/qrcodegen.c **** 			if (j == shortBlockDataLen)
 2112              		.loc 1 310 3 view .LVU647
 2113              	.LBE39:
 2114              	.LBE40:
 2115              	.LBE42:
 319:Drivers/lvgl/src/extra/libs/qrcode/qrcodegen.c **** 
 2116              		.loc 1 319 1 view .LVU648
 2117 00d0 0FB0     		add	sp, sp, #60
 2118              		.cfi_def_cfa_offset 36
 2119              		@ sp needed
 2120 00d2 BDE8F08F 		pop	{r4, r5, r6, r7, r8, r9, r10, fp, pc}
 2121              	.LVL209:
 2122              	.L189:
 319:Drivers/lvgl/src/extra/libs/qrcode/qrcodegen.c **** 
 2123              		.loc 1 319 1 view .LVU649
 2124 00d6 00BF     		.align	2
 2125              	.L188:
 2126 00d8 00000000 		.word	NUM_ERROR_CORRECTION_BLOCKS
 2127 00dc 00000000 		.word	ECC_CODEWORDS_PER_BLOCK
 2128              		.cfi_endproc
 2129              	.LFE6:
 2131              		.section	.text.addRunToHistory,"ax",%progbits
 2132              		.align	1
 2133              		.syntax unified
 2134              		.thumb
 2135              		.thumb_func
 2137              	addRunToHistory:
 2138              	.LVL210:
 2139              	.LFB20:
 717:Drivers/lvgl/src/extra/libs/qrcode/qrcodegen.c **** 	memmove(&history[1], &history[0], 6 * sizeof(history[0]));
 2140              		.loc 1 717 74 is_stmt 1 view -0
 2141              		.cfi_startproc
 2142              		@ args = 0, pretend = 0, frame = 0
ARM GAS  /var/folders/lp/x54gwt890xv47sdkqj1k04q40000gn/T//ccL4ZsdQ.s 			page 63


 2143              		@ frame_needed = 0, uses_anonymous_args = 0
 717:Drivers/lvgl/src/extra/libs/qrcode/qrcodegen.c **** 	memmove(&history[1], &history[0], 6 * sizeof(history[0]));
 2144              		.loc 1 717 74 is_stmt 0 view .LVU651
 2145 0000 38B5     		push	{r3, r4, r5, lr}
 2146              		.cfi_def_cfa_offset 16
 2147              		.cfi_offset 3, -16
 2148              		.cfi_offset 4, -12
 2149              		.cfi_offset 5, -8
 2150              		.cfi_offset 14, -4
 2151 0002 0546     		mov	r5, r0
 2152 0004 0C46     		mov	r4, r1
 718:Drivers/lvgl/src/extra/libs/qrcode/qrcodegen.c **** 	history[0] = run;
 2153              		.loc 1 718 2 is_stmt 1 view .LVU652
 2154 0006 0622     		movs	r2, #6
 2155 0008 481C     		adds	r0, r1, #1
 2156              	.LVL211:
 718:Drivers/lvgl/src/extra/libs/qrcode/qrcodegen.c **** 	history[0] = run;
 2157              		.loc 1 718 2 is_stmt 0 view .LVU653
 2158 000a FFF7FEFF 		bl	memmove
 2159              	.LVL212:
 719:Drivers/lvgl/src/extra/libs/qrcode/qrcodegen.c **** }
 2160              		.loc 1 719 2 is_stmt 1 view .LVU654
 719:Drivers/lvgl/src/extra/libs/qrcode/qrcodegen.c **** }
 2161              		.loc 1 719 13 is_stmt 0 view .LVU655
 2162 000e 2570     		strb	r5, [r4]
 720:Drivers/lvgl/src/extra/libs/qrcode/qrcodegen.c **** 
 2163              		.loc 1 720 1 view .LVU656
 2164 0010 38BD     		pop	{r3, r4, r5, pc}
 720:Drivers/lvgl/src/extra/libs/qrcode/qrcodegen.c **** 
 2165              		.loc 1 720 1 view .LVU657
 2166              		.cfi_endproc
 2167              	.LFE20:
 2169              		.section	.text.qrcodegen_getSize,"ax",%progbits
 2170              		.align	1
 2171              		.global	qrcodegen_getSize
 2172              		.syntax unified
 2173              		.thumb
 2174              		.thumb_func
 2176              	qrcodegen_getSize:
 2177              	.LVL213:
 2178              	.LFB22:
 739:Drivers/lvgl/src/extra/libs/qrcode/qrcodegen.c **** 	LV_ASSERT(qrcode != NULL);
 2179              		.loc 1 739 47 is_stmt 1 view -0
 2180              		.cfi_startproc
 2181              		@ args = 0, pretend = 0, frame = 0
 2182              		@ frame_needed = 0, uses_anonymous_args = 0
 2183              		@ link register save eliminated.
 740:Drivers/lvgl/src/extra/libs/qrcode/qrcodegen.c **** 	int result = qrcode[0];
 2184              		.loc 1 740 2 view .LVU659
 740:Drivers/lvgl/src/extra/libs/qrcode/qrcodegen.c **** 	int result = qrcode[0];
 2185              		.loc 1 740 2 view .LVU660
 2186 0000 28B1     		cbz	r0, .L194
 740:Drivers/lvgl/src/extra/libs/qrcode/qrcodegen.c **** 	int result = qrcode[0];
 2187              		.loc 1 740 2 discriminator 2 view .LVU661
 741:Drivers/lvgl/src/extra/libs/qrcode/qrcodegen.c **** 	LV_ASSERT((qrcodegen_VERSION_MIN * 4 + 17) <= result
 2188              		.loc 1 741 2 view .LVU662
 741:Drivers/lvgl/src/extra/libs/qrcode/qrcodegen.c **** 	LV_ASSERT((qrcodegen_VERSION_MIN * 4 + 17) <= result
ARM GAS  /var/folders/lp/x54gwt890xv47sdkqj1k04q40000gn/T//ccL4ZsdQ.s 			page 64


 2189              		.loc 1 741 21 is_stmt 0 view .LVU663
 2190 0002 0078     		ldrb	r0, [r0]	@ zero_extendqisi2
 2191              	.LVL214:
 742:Drivers/lvgl/src/extra/libs/qrcode/qrcodegen.c **** 		&& result <= (qrcodegen_VERSION_MAX * 4 + 17));
 2192              		.loc 1 742 2 is_stmt 1 view .LVU664
 742:Drivers/lvgl/src/extra/libs/qrcode/qrcodegen.c **** 		&& result <= (qrcodegen_VERSION_MAX * 4 + 17));
 2193              		.loc 1 742 2 view .LVU665
 2194 0004 A0F11503 		sub	r3, r0, #21
 2195 0008 9C2B     		cmp	r3, #156
 2196 000a 01D9     		bls	.L192
 2197              	.L196:
 742:Drivers/lvgl/src/extra/libs/qrcode/qrcodegen.c **** 		&& result <= (qrcodegen_VERSION_MAX * 4 + 17));
 2198              		.loc 1 742 2 discriminator 1 view .LVU666
 742:Drivers/lvgl/src/extra/libs/qrcode/qrcodegen.c **** 		&& result <= (qrcodegen_VERSION_MAX * 4 + 17));
 2199              		.loc 1 742 2 discriminator 1 view .LVU667
 742:Drivers/lvgl/src/extra/libs/qrcode/qrcodegen.c **** 		&& result <= (qrcodegen_VERSION_MAX * 4 + 17));
 2200              		.loc 1 742 2 discriminator 1 view .LVU668
 742:Drivers/lvgl/src/extra/libs/qrcode/qrcodegen.c **** 		&& result <= (qrcodegen_VERSION_MAX * 4 + 17));
 2201              		.loc 1 742 2 discriminator 1 view .LVU669
 742:Drivers/lvgl/src/extra/libs/qrcode/qrcodegen.c **** 		&& result <= (qrcodegen_VERSION_MAX * 4 + 17));
 2202              		.loc 1 742 2 discriminator 1 view .LVU670
 2203 000c FEE7     		b	.L196
 2204              	.LVL215:
 2205              	.L194:
 740:Drivers/lvgl/src/extra/libs/qrcode/qrcodegen.c **** 	int result = qrcode[0];
 2206              		.loc 1 740 2 discriminator 1 view .LVU671
 740:Drivers/lvgl/src/extra/libs/qrcode/qrcodegen.c **** 	int result = qrcode[0];
 2207              		.loc 1 740 2 discriminator 1 view .LVU672
 740:Drivers/lvgl/src/extra/libs/qrcode/qrcodegen.c **** 	int result = qrcode[0];
 2208              		.loc 1 740 2 discriminator 1 view .LVU673
 740:Drivers/lvgl/src/extra/libs/qrcode/qrcodegen.c **** 	int result = qrcode[0];
 2209              		.loc 1 740 2 discriminator 1 view .LVU674
 740:Drivers/lvgl/src/extra/libs/qrcode/qrcodegen.c **** 	int result = qrcode[0];
 2210              		.loc 1 740 2 discriminator 1 view .LVU675
 2211 000e FEE7     		b	.L194
 2212              	.LVL216:
 2213              	.L192:
 745:Drivers/lvgl/src/extra/libs/qrcode/qrcodegen.c **** 
 2214              		.loc 1 745 1 is_stmt 0 view .LVU676
 2215 0010 7047     		bx	lr
 2216              		.cfi_endproc
 2217              	.LFE22:
 2219              		.section	.text.drawCodewords,"ax",%progbits
 2220              		.align	1
 2221              		.syntax unified
 2222              		.thumb
 2223              		.thumb_func
 2225              	drawCodewords:
 2226              	.LVL217:
 2227              	.LFB17:
 572:Drivers/lvgl/src/extra/libs/qrcode/qrcodegen.c **** 	int qrsize = qrcodegen_getSize(qrcode);
 2228              		.loc 1 572 80 is_stmt 1 view -0
 2229              		.cfi_startproc
 2230              		@ args = 0, pretend = 0, frame = 16
 2231              		@ frame_needed = 0, uses_anonymous_args = 0
 572:Drivers/lvgl/src/extra/libs/qrcode/qrcodegen.c **** 	int qrsize = qrcodegen_getSize(qrcode);
 2232              		.loc 1 572 80 is_stmt 0 view .LVU678
ARM GAS  /var/folders/lp/x54gwt890xv47sdkqj1k04q40000gn/T//ccL4ZsdQ.s 			page 65


 2233 0000 2DE9F04F 		push	{r4, r5, r6, r7, r8, r9, r10, fp, lr}
 2234              		.cfi_def_cfa_offset 36
 2235              		.cfi_offset 4, -36
 2236              		.cfi_offset 5, -32
 2237              		.cfi_offset 6, -28
 2238              		.cfi_offset 7, -24
 2239              		.cfi_offset 8, -20
 2240              		.cfi_offset 9, -16
 2241              		.cfi_offset 10, -12
 2242              		.cfi_offset 11, -8
 2243              		.cfi_offset 14, -4
 2244 0004 85B0     		sub	sp, sp, #20
 2245              		.cfi_def_cfa_offset 56
 2246 0006 0390     		str	r0, [sp, #12]
 2247 0008 0191     		str	r1, [sp, #4]
 2248 000a 1746     		mov	r7, r2
 573:Drivers/lvgl/src/extra/libs/qrcode/qrcodegen.c **** 	int i = 0;  // Bit index into the data
 2249              		.loc 1 573 2 is_stmt 1 view .LVU679
 573:Drivers/lvgl/src/extra/libs/qrcode/qrcodegen.c **** 	int i = 0;  // Bit index into the data
 2250              		.loc 1 573 15 is_stmt 0 view .LVU680
 2251 000c 1046     		mov	r0, r2
 2252              	.LVL218:
 573:Drivers/lvgl/src/extra/libs/qrcode/qrcodegen.c **** 	int i = 0;  // Bit index into the data
 2253              		.loc 1 573 15 view .LVU681
 2254 000e FFF7FEFF 		bl	qrcodegen_getSize
 2255              	.LVL219:
 573:Drivers/lvgl/src/extra/libs/qrcode/qrcodegen.c **** 	int i = 0;  // Bit index into the data
 2256              		.loc 1 573 15 view .LVU682
 2257 0012 0646     		mov	r6, r0
 2258              	.LVL220:
 574:Drivers/lvgl/src/extra/libs/qrcode/qrcodegen.c **** 	// Do the funny zigzag scan
 2259              		.loc 1 574 2 is_stmt 1 view .LVU683
 576:Drivers/lvgl/src/extra/libs/qrcode/qrcodegen.c **** 		if (right == 6)
 2260              		.loc 1 576 2 view .LVU684
 2261              	.LBB43:
 576:Drivers/lvgl/src/extra/libs/qrcode/qrcodegen.c **** 		if (right == 6)
 2262              		.loc 1 576 7 view .LVU685
 576:Drivers/lvgl/src/extra/libs/qrcode/qrcodegen.c **** 		if (right == 6)
 2263              		.loc 1 576 11 is_stmt 0 view .LVU686
 2264 0014 00F1FF3A 		add	r10, r0, #-1
 2265              	.LVL221:
 576:Drivers/lvgl/src/extra/libs/qrcode/qrcodegen.c **** 		if (right == 6)
 2266              		.loc 1 576 11 view .LVU687
 2267 0018 D346     		mov	fp, r10
 2268              	.LBE43:
 574:Drivers/lvgl/src/extra/libs/qrcode/qrcodegen.c **** 	// Do the funny zigzag scan
 2269              		.loc 1 574 6 view .LVU688
 2270 001a 4FF00008 		mov	r8, #0
 2271 001e CDF808A0 		str	r10, [sp, #8]
 2272              	.LBB51:
 576:Drivers/lvgl/src/extra/libs/qrcode/qrcodegen.c **** 		if (right == 6)
 2273              		.loc 1 576 2 view .LVU689
 2274 0022 36E0     		b	.L198
 2275              	.LVL222:
 2276              	.L216:
 578:Drivers/lvgl/src/extra/libs/qrcode/qrcodegen.c **** 		for (int vert = 0; vert < qrsize; vert++) {  // Vertical counter
 2277              		.loc 1 578 10 view .LVU690
ARM GAS  /var/folders/lp/x54gwt890xv47sdkqj1k04q40000gn/T//ccL4ZsdQ.s 			page 66


 2278 0024 4FF0050B 		mov	fp, #5
 2279              	.LVL223:
 578:Drivers/lvgl/src/extra/libs/qrcode/qrcodegen.c **** 		for (int vert = 0; vert < qrsize; vert++) {  // Vertical counter
 2280              		.loc 1 578 10 view .LVU691
 2281 0028 39E0     		b	.L199
 2282              	.LVL224:
 2283              	.L209:
 2284              	.LBB44:
 2285              	.LBB45:
 2286              	.LBB46:
 583:Drivers/lvgl/src/extra/libs/qrcode/qrcodegen.c **** 				if (!getModule(qrcode, x, y) && i < dataLen * 8) {
 2287              		.loc 1 583 40 discriminator 2 view .LVU692
 2288 002a D146     		mov	r9, r10
 2289              	.LVL225:
 2290              	.L201:
 584:Drivers/lvgl/src/extra/libs/qrcode/qrcodegen.c **** 					bool black = getBit(data[i >> 3], 7 - (i & 7));
 2291              		.loc 1 584 5 is_stmt 1 view .LVU693
 584:Drivers/lvgl/src/extra/libs/qrcode/qrcodegen.c **** 					bool black = getBit(data[i >> 3], 7 - (i & 7));
 2292              		.loc 1 584 10 is_stmt 0 view .LVU694
 2293 002c 4A46     		mov	r2, r9
 2294 002e 2946     		mov	r1, r5
 2295 0030 3846     		mov	r0, r7
 2296 0032 FFF7FEFF 		bl	getModule
 2297              	.LVL226:
 584:Drivers/lvgl/src/extra/libs/qrcode/qrcodegen.c **** 					bool black = getBit(data[i >> 3], 7 - (i & 7));
 2298              		.loc 1 584 8 discriminator 1 view .LVU695
 2299 0036 18B9     		cbnz	r0, .L202
 584:Drivers/lvgl/src/extra/libs/qrcode/qrcodegen.c **** 					bool black = getBit(data[i >> 3], 7 - (i & 7));
 2300              		.loc 1 584 34 discriminator 1 view .LVU696
 2301 0038 019B     		ldr	r3, [sp, #4]
 2302 003a B8EBC30F 		cmp	r8, r3, lsl #3
 2303 003e 0DDB     		blt	.L212
 2304              	.L202:
 584:Drivers/lvgl/src/extra/libs/qrcode/qrcodegen.c **** 					bool black = getBit(data[i >> 3], 7 - (i & 7));
 2305              		.loc 1 584 34 discriminator 1 view .LVU697
 2306              	.LBE46:
 580:Drivers/lvgl/src/extra/libs/qrcode/qrcodegen.c **** 				int x = right - j;  // Actual x coordinate
 2307              		.loc 1 580 28 is_stmt 1 discriminator 2 view .LVU698
 2308 0040 0134     		adds	r4, r4, #1
 2309              	.LVL227:
 2310              	.L204:
 580:Drivers/lvgl/src/extra/libs/qrcode/qrcodegen.c **** 				int x = right - j;  // Actual x coordinate
 2311              		.loc 1 580 22 discriminator 1 view .LVU699
 2312 0042 012C     		cmp	r4, #1
 2313 0044 1DDC     		bgt	.L213
 2314              	.LBB48:
 581:Drivers/lvgl/src/extra/libs/qrcode/qrcodegen.c **** 				bool upward = ((right + 1) & 2) == 0;
 2315              		.loc 1 581 5 view .LVU700
 581:Drivers/lvgl/src/extra/libs/qrcode/qrcodegen.c **** 				bool upward = ((right + 1) & 2) == 0;
 2316              		.loc 1 581 9 is_stmt 0 view .LVU701
 2317 0046 ABEB0405 		sub	r5, fp, r4
 2318              	.LVL228:
 582:Drivers/lvgl/src/extra/libs/qrcode/qrcodegen.c **** 				int y = upward ? qrsize - 1 - vert : vert;  // Actual y coordinate
 2319              		.loc 1 582 5 is_stmt 1 view .LVU702
 582:Drivers/lvgl/src/extra/libs/qrcode/qrcodegen.c **** 				int y = upward ? qrsize - 1 - vert : vert;  // Actual y coordinate
 2320              		.loc 1 582 27 is_stmt 0 view .LVU703
 2321 004a 0BF10103 		add	r3, fp, #1
ARM GAS  /var/folders/lp/x54gwt890xv47sdkqj1k04q40000gn/T//ccL4ZsdQ.s 			page 67


 2322              	.LVL229:
 583:Drivers/lvgl/src/extra/libs/qrcode/qrcodegen.c **** 				if (!getModule(qrcode, x, y) && i < dataLen * 8) {
 2323              		.loc 1 583 5 is_stmt 1 view .LVU704
 583:Drivers/lvgl/src/extra/libs/qrcode/qrcodegen.c **** 				if (!getModule(qrcode, x, y) && i < dataLen * 8) {
 2324              		.loc 1 583 40 is_stmt 0 view .LVU705
 2325 004e 13F0020F 		tst	r3, #2
 2326 0052 EAD1     		bne	.L209
 583:Drivers/lvgl/src/extra/libs/qrcode/qrcodegen.c **** 				if (!getModule(qrcode, x, y) && i < dataLen * 8) {
 2327              		.loc 1 583 40 discriminator 1 view .LVU706
 2328 0054 029B     		ldr	r3, [sp, #8]
 2329              	.LVL230:
 583:Drivers/lvgl/src/extra/libs/qrcode/qrcodegen.c **** 				if (!getModule(qrcode, x, y) && i < dataLen * 8) {
 2330              		.loc 1 583 40 discriminator 1 view .LVU707
 2331 0056 A3EB0A09 		sub	r9, r3, r10
 2332 005a E7E7     		b	.L201
 2333              	.LVL231:
 2334              	.L212:
 2335              	.LBB47:
 585:Drivers/lvgl/src/extra/libs/qrcode/qrcodegen.c **** 					setModule(qrcode, x, y, black);
 2336              		.loc 1 585 6 is_stmt 1 view .LVU708
 585:Drivers/lvgl/src/extra/libs/qrcode/qrcodegen.c **** 					setModule(qrcode, x, y, black);
 2337              		.loc 1 585 33 is_stmt 0 view .LVU709
 2338 005c 4FEAE803 		asr	r3, r8, #3
 585:Drivers/lvgl/src/extra/libs/qrcode/qrcodegen.c **** 					setModule(qrcode, x, y, black);
 2339              		.loc 1 585 42 view .LVU710
 2340 0060 6FEA0801 		mvn	r1, r8
 585:Drivers/lvgl/src/extra/libs/qrcode/qrcodegen.c **** 					setModule(qrcode, x, y, black);
 2341              		.loc 1 585 19 view .LVU711
 2342 0064 01F00701 		and	r1, r1, #7
 2343 0068 039A     		ldr	r2, [sp, #12]
 2344 006a D05C     		ldrb	r0, [r2, r3]	@ zero_extendqisi2
 2345 006c FFF7FEFF 		bl	getBit
 2346              	.LVL232:
 2347 0070 0346     		mov	r3, r0
 2348              	.LVL233:
 586:Drivers/lvgl/src/extra/libs/qrcode/qrcodegen.c **** 					i++;
 2349              		.loc 1 586 6 is_stmt 1 view .LVU712
 2350 0072 4A46     		mov	r2, r9
 2351 0074 2946     		mov	r1, r5
 2352 0076 3846     		mov	r0, r7
 2353 0078 FFF7FEFF 		bl	setModule
 2354              	.LVL234:
 587:Drivers/lvgl/src/extra/libs/qrcode/qrcodegen.c **** 				}
 2355              		.loc 1 587 6 view .LVU713
 587:Drivers/lvgl/src/extra/libs/qrcode/qrcodegen.c **** 				}
 2356              		.loc 1 587 7 is_stmt 0 view .LVU714
 2357 007c 08F10108 		add	r8, r8, #1
 2358              	.LVL235:
 587:Drivers/lvgl/src/extra/libs/qrcode/qrcodegen.c **** 				}
 2359              		.loc 1 587 7 view .LVU715
 2360 0080 DEE7     		b	.L202
 2361              	.LVL236:
 2362              	.L213:
 587:Drivers/lvgl/src/extra/libs/qrcode/qrcodegen.c **** 				}
 2363              		.loc 1 587 7 view .LVU716
 2364              	.LBE47:
 2365              	.LBE48:
ARM GAS  /var/folders/lp/x54gwt890xv47sdkqj1k04q40000gn/T//ccL4ZsdQ.s 			page 68


 2366              	.LBE45:
 579:Drivers/lvgl/src/extra/libs/qrcode/qrcodegen.c **** 			for (int j = 0; j < 2; j++) {
 2367              		.loc 1 579 41 is_stmt 1 discriminator 2 view .LVU717
 2368 0082 0AF1010A 		add	r10, r10, #1
 2369              	.LVL237:
 2370              	.L200:
 579:Drivers/lvgl/src/extra/libs/qrcode/qrcodegen.c **** 			for (int j = 0; j < 2; j++) {
 2371              		.loc 1 579 27 discriminator 1 view .LVU718
 2372 0086 B245     		cmp	r10, r6
 2373 0088 01DA     		bge	.L214
 2374              	.LBB49:
 580:Drivers/lvgl/src/extra/libs/qrcode/qrcodegen.c **** 				int x = right - j;  // Actual x coordinate
 2375              		.loc 1 580 13 is_stmt 0 view .LVU719
 2376 008a 0024     		movs	r4, #0
 2377 008c D9E7     		b	.L204
 2378              	.L214:
 2379              	.LBE49:
 2380              	.LBE44:
 576:Drivers/lvgl/src/extra/libs/qrcode/qrcodegen.c **** 		if (right == 6)
 2381              		.loc 1 576 49 is_stmt 1 discriminator 2 view .LVU720
 2382 008e ABF1020B 		sub	fp, fp, #2
 2383              	.LVL238:
 2384              	.L198:
 576:Drivers/lvgl/src/extra/libs/qrcode/qrcodegen.c **** 		if (right == 6)
 2385              		.loc 1 576 37 discriminator 1 view .LVU721
 2386 0092 BBF1000F 		cmp	fp, #0
 2387 0096 05DD     		ble	.L215
 577:Drivers/lvgl/src/extra/libs/qrcode/qrcodegen.c **** 			right = 5;
 2388              		.loc 1 577 3 view .LVU722
 577:Drivers/lvgl/src/extra/libs/qrcode/qrcodegen.c **** 			right = 5;
 2389              		.loc 1 577 6 is_stmt 0 view .LVU723
 2390 0098 BBF1060F 		cmp	fp, #6
 2391 009c C2D0     		beq	.L216
 2392              	.LVL239:
 2393              	.L199:
 579:Drivers/lvgl/src/extra/libs/qrcode/qrcodegen.c **** 			for (int j = 0; j < 2; j++) {
 2394              		.loc 1 579 3 is_stmt 1 view .LVU724
 2395              	.LBB50:
 579:Drivers/lvgl/src/extra/libs/qrcode/qrcodegen.c **** 			for (int j = 0; j < 2; j++) {
 2396              		.loc 1 579 8 view .LVU725
 579:Drivers/lvgl/src/extra/libs/qrcode/qrcodegen.c **** 			for (int j = 0; j < 2; j++) {
 2397              		.loc 1 579 12 is_stmt 0 view .LVU726
 2398 009e 4FF0000A 		mov	r10, #0
 579:Drivers/lvgl/src/extra/libs/qrcode/qrcodegen.c **** 			for (int j = 0; j < 2; j++) {
 2399              		.loc 1 579 3 view .LVU727
 2400 00a2 F0E7     		b	.L200
 2401              	.LVL240:
 2402              	.L215:
 579:Drivers/lvgl/src/extra/libs/qrcode/qrcodegen.c **** 			for (int j = 0; j < 2; j++) {
 2403              		.loc 1 579 3 view .LVU728
 2404              	.LBE50:
 2405              	.LBE51:
 594:Drivers/lvgl/src/extra/libs/qrcode/qrcodegen.c **** }
 2406              		.loc 1 594 2 is_stmt 1 view .LVU729
 594:Drivers/lvgl/src/extra/libs/qrcode/qrcodegen.c **** }
 2407              		.loc 1 594 2 view .LVU730
 2408 00a4 019B     		ldr	r3, [sp, #4]
ARM GAS  /var/folders/lp/x54gwt890xv47sdkqj1k04q40000gn/T//ccL4ZsdQ.s 			page 69


 2409 00a6 B8EBC30F 		cmp	r8, r3, lsl #3
 2410 00aa 00D0     		beq	.L197
 2411              	.L207:
 594:Drivers/lvgl/src/extra/libs/qrcode/qrcodegen.c **** }
 2412              		.loc 1 594 2 discriminator 1 view .LVU731
 594:Drivers/lvgl/src/extra/libs/qrcode/qrcodegen.c **** }
 2413              		.loc 1 594 2 discriminator 1 view .LVU732
 594:Drivers/lvgl/src/extra/libs/qrcode/qrcodegen.c **** }
 2414              		.loc 1 594 2 discriminator 1 view .LVU733
 594:Drivers/lvgl/src/extra/libs/qrcode/qrcodegen.c **** }
 2415              		.loc 1 594 2 discriminator 1 view .LVU734
 594:Drivers/lvgl/src/extra/libs/qrcode/qrcodegen.c **** }
 2416              		.loc 1 594 2 discriminator 1 view .LVU735
 2417 00ac FEE7     		b	.L207
 2418              	.L197:
 595:Drivers/lvgl/src/extra/libs/qrcode/qrcodegen.c **** 
 2419              		.loc 1 595 1 is_stmt 0 view .LVU736
 2420 00ae 05B0     		add	sp, sp, #20
 2421              		.cfi_def_cfa_offset 36
 2422              		@ sp needed
 2423 00b0 BDE8F08F 		pop	{r4, r5, r6, r7, r8, r9, r10, fp, pc}
 595:Drivers/lvgl/src/extra/libs/qrcode/qrcodegen.c **** 
 2424              		.loc 1 595 1 view .LVU737
 2425              		.cfi_endproc
 2426              	.LFE17:
 2428              		.section	.text.drawWhiteFunctionModules,"ax",%progbits
 2429              		.align	1
 2430              		.syntax unified
 2431              		.thumb
 2432              		.thumb_func
 2434              	drawWhiteFunctionModules:
 2435              	.LVL241:
 2436              	.LFB13:
 450:Drivers/lvgl/src/extra/libs/qrcode/qrcodegen.c **** 	// Draw horizontal and vertical timing patterns
 2437              		.loc 1 450 69 is_stmt 1 view -0
 2438              		.cfi_startproc
 2439              		@ args = 0, pretend = 0, frame = 8
 2440              		@ frame_needed = 0, uses_anonymous_args = 0
 450:Drivers/lvgl/src/extra/libs/qrcode/qrcodegen.c **** 	// Draw horizontal and vertical timing patterns
 2441              		.loc 1 450 69 is_stmt 0 view .LVU739
 2442 0000 2DE9F04F 		push	{r4, r5, r6, r7, r8, r9, r10, fp, lr}
 2443              		.cfi_def_cfa_offset 36
 2444              		.cfi_offset 4, -36
 2445              		.cfi_offset 5, -32
 2446              		.cfi_offset 6, -28
 2447              		.cfi_offset 7, -24
 2448              		.cfi_offset 8, -20
 2449              		.cfi_offset 9, -16
 2450              		.cfi_offset 10, -12
 2451              		.cfi_offset 11, -8
 2452              		.cfi_offset 14, -4
 2453 0004 83B0     		sub	sp, sp, #12
 2454              		.cfi_def_cfa_offset 48
 2455 0006 0746     		mov	r7, r0
 2456 0008 8B46     		mov	fp, r1
 452:Drivers/lvgl/src/extra/libs/qrcode/qrcodegen.c **** 	for (int i = 7; i < qrsize - 7; i += 2) {
 2457              		.loc 1 452 2 is_stmt 1 view .LVU740
ARM GAS  /var/folders/lp/x54gwt890xv47sdkqj1k04q40000gn/T//ccL4ZsdQ.s 			page 70


