ARM GAS  /var/folders/lp/x54gwt890xv47sdkqj1k04q40000gn/T//ccydrndK.s 			page 1


   1              		.cpu cortex-m4
   2              		.arch armv7e-m
   3              		.fpu fpv4-sp-d16
   4              		.eabi_attribute 27, 1
   5              		.eabi_attribute 28, 1
   6              		.eabi_attribute 20, 1
   7              		.eabi_attribute 21, 1
   8              		.eabi_attribute 23, 3
   9              		.eabi_attribute 24, 1
  10              		.eabi_attribute 25, 1
  11              		.eabi_attribute 26, 1
  12              		.eabi_attribute 30, 1
  13              		.eabi_attribute 34, 1
  14              		.eabi_attribute 18, 4
  15              		.file	"SEGGER_RTT.c"
  16              		.text
  17              	.Ltext0:
  18              		.cfi_sections	.debug_frame
  19              		.file 1 "Core/Src/SEGGER_RTT.c"
  20              		.section	.text._GetAvailWriteSpace,"ax",%progbits
  21              		.align	1
  22              		.syntax unified
  23              		.thumb
  24              		.thumb_func
  26              	_GetAvailWriteSpace:
  27              	.LVL0:
  28              	.LFB4:
   1:Core/Src/SEGGER_RTT.c **** /*********************************************************************
   2:Core/Src/SEGGER_RTT.c **** *                    SEGGER Microcontroller GmbH                     *
   3:Core/Src/SEGGER_RTT.c **** *                        The Embedded Experts                        *
   4:Core/Src/SEGGER_RTT.c **** **********************************************************************
   5:Core/Src/SEGGER_RTT.c **** *                                                                    *
   6:Core/Src/SEGGER_RTT.c **** *            (c) 1995 - 2019 SEGGER Microcontroller GmbH             *
   7:Core/Src/SEGGER_RTT.c **** *                                                                    *
   8:Core/Src/SEGGER_RTT.c **** *       www.segger.com     Support: support@segger.com               *
   9:Core/Src/SEGGER_RTT.c **** *                                                                    *
  10:Core/Src/SEGGER_RTT.c **** **********************************************************************
  11:Core/Src/SEGGER_RTT.c **** *                                                                    *
  12:Core/Src/SEGGER_RTT.c **** *       SEGGER RTT * Real Time Transfer for embedded targets         *
  13:Core/Src/SEGGER_RTT.c **** *                                                                    *
  14:Core/Src/SEGGER_RTT.c **** **********************************************************************
  15:Core/Src/SEGGER_RTT.c **** *                                                                    *
  16:Core/Src/SEGGER_RTT.c **** * All rights reserved.                                               *
  17:Core/Src/SEGGER_RTT.c **** *                                                                    *
  18:Core/Src/SEGGER_RTT.c **** * SEGGER strongly recommends to not make any changes                 *
  19:Core/Src/SEGGER_RTT.c **** * to or modify the source code of this software in order to stay     *
  20:Core/Src/SEGGER_RTT.c **** * compatible with the RTT protocol and J-Link.                       *
  21:Core/Src/SEGGER_RTT.c **** *                                                                    *
  22:Core/Src/SEGGER_RTT.c **** * Redistribution and use in source and binary forms, with or         *
  23:Core/Src/SEGGER_RTT.c **** * without modification, are permitted provided that the following    *
  24:Core/Src/SEGGER_RTT.c **** * condition is met:                                                  *
  25:Core/Src/SEGGER_RTT.c **** *                                                                    *
  26:Core/Src/SEGGER_RTT.c **** * o Redistributions of source code must retain the above copyright   *
  27:Core/Src/SEGGER_RTT.c **** *   notice, this condition and the following disclaimer.             *
  28:Core/Src/SEGGER_RTT.c **** *                                                                    *
  29:Core/Src/SEGGER_RTT.c **** * THIS SOFTWARE IS PROVIDED BY THE COPYRIGHT HOLDERS AND             *
  30:Core/Src/SEGGER_RTT.c **** * CONTRIBUTORS "AS IS" AND ANY EXPRESS OR IMPLIED WARRANTIES,        *
ARM GAS  /var/folders/lp/x54gwt890xv47sdkqj1k04q40000gn/T//ccydrndK.s 			page 2


  31:Core/Src/SEGGER_RTT.c **** * INCLUDING, BUT NOT LIMITED TO, THE IMPLIED WARRANTIES OF           *
  32:Core/Src/SEGGER_RTT.c **** * MERCHANTABILITY AND FITNESS FOR A PARTICULAR PURPOSE ARE           *
  33:Core/Src/SEGGER_RTT.c **** * DISCLAIMED. IN NO EVENT SHALL SEGGER Microcontroller BE LIABLE FOR *
  34:Core/Src/SEGGER_RTT.c **** * ANY DIRECT, INDIRECT, INCIDENTAL, SPECIAL, EXEMPLARY, OR           *
  35:Core/Src/SEGGER_RTT.c **** * CONSEQUENTIAL DAMAGES (INCLUDING, BUT NOT LIMITED TO, PROCUREMENT  *
  36:Core/Src/SEGGER_RTT.c **** * OF SUBSTITUTE GOODS OR SERVICES; LOSS OF USE, DATA, OR PROFITS;    *
  37:Core/Src/SEGGER_RTT.c **** * OR BUSINESS INTERRUPTION) HOWEVER CAUSED AND ON ANY THEORY OF      *
  38:Core/Src/SEGGER_RTT.c **** * LIABILITY, WHETHER IN CONTRACT, STRICT LIABILITY, OR TORT          *
  39:Core/Src/SEGGER_RTT.c **** * (INCLUDING NEGLIGENCE OR OTHERWISE) ARISING IN ANY WAY OUT OF THE  *
  40:Core/Src/SEGGER_RTT.c **** * USE OF THIS SOFTWARE, EVEN IF ADVISED OF THE POSSIBILITY OF SUCH   *
  41:Core/Src/SEGGER_RTT.c **** * DAMAGE.                                                            *
  42:Core/Src/SEGGER_RTT.c **** *                                                                    *
  43:Core/Src/SEGGER_RTT.c **** **********************************************************************
  44:Core/Src/SEGGER_RTT.c **** ---------------------------END-OF-HEADER------------------------------
  45:Core/Src/SEGGER_RTT.c **** File    : SEGGER_RTT.c
  46:Core/Src/SEGGER_RTT.c **** Purpose : Implementation of SEGGER real-time transfer (RTT) which
  47:Core/Src/SEGGER_RTT.c ****           allows real-time communication on targets which support
  48:Core/Src/SEGGER_RTT.c ****           debugger memory accesses while the CPU is running.
  49:Core/Src/SEGGER_RTT.c **** Revision: $Rev: 26642 $
  50:Core/Src/SEGGER_RTT.c **** 
  51:Core/Src/SEGGER_RTT.c **** Additional information:
  52:Core/Src/SEGGER_RTT.c ****           Type "int" is assumed to be 32-bits in size
  53:Core/Src/SEGGER_RTT.c ****           H->T    Host to target communication
  54:Core/Src/SEGGER_RTT.c ****           T->H    Target to host communication
  55:Core/Src/SEGGER_RTT.c **** 
  56:Core/Src/SEGGER_RTT.c ****           RTT channel 0 is always present and reserved for Terminal usage.
  57:Core/Src/SEGGER_RTT.c ****           Name is fixed to "Terminal"
  58:Core/Src/SEGGER_RTT.c **** 
  59:Core/Src/SEGGER_RTT.c ****           Effective buffer size: SizeOfBuffer - 1
  60:Core/Src/SEGGER_RTT.c **** 
  61:Core/Src/SEGGER_RTT.c ****           WrOff == RdOff:       Buffer is empty
  62:Core/Src/SEGGER_RTT.c ****           WrOff == (RdOff - 1): Buffer is full
  63:Core/Src/SEGGER_RTT.c ****           WrOff >  RdOff:       Free space includes wrap-around
  64:Core/Src/SEGGER_RTT.c ****           WrOff <  RdOff:       Used space includes wrap-around
  65:Core/Src/SEGGER_RTT.c ****           (WrOff == (SizeOfBuffer - 1)) && (RdOff == 0):  
  66:Core/Src/SEGGER_RTT.c ****                                 Buffer full and wrap-around after next byte
  67:Core/Src/SEGGER_RTT.c **** 
  68:Core/Src/SEGGER_RTT.c **** 
  69:Core/Src/SEGGER_RTT.c **** ----------------------------------------------------------------------
  70:Core/Src/SEGGER_RTT.c **** */
  71:Core/Src/SEGGER_RTT.c **** 
  72:Core/Src/SEGGER_RTT.c **** #include "SEGGER_RTT.h"
  73:Core/Src/SEGGER_RTT.c **** 
  74:Core/Src/SEGGER_RTT.c **** #include <string.h>                 // for memcpy
  75:Core/Src/SEGGER_RTT.c **** 
  76:Core/Src/SEGGER_RTT.c **** /*********************************************************************
  77:Core/Src/SEGGER_RTT.c **** *
  78:Core/Src/SEGGER_RTT.c **** *       Configuration, default values
  79:Core/Src/SEGGER_RTT.c **** *
  80:Core/Src/SEGGER_RTT.c **** **********************************************************************
  81:Core/Src/SEGGER_RTT.c **** */
  82:Core/Src/SEGGER_RTT.c **** 
  83:Core/Src/SEGGER_RTT.c **** #if SEGGER_RTT_CPU_CACHE_LINE_SIZE
  84:Core/Src/SEGGER_RTT.c ****   #ifdef SEGGER_RTT_CB_ALIGN
  85:Core/Src/SEGGER_RTT.c ****     #error "Custom SEGGER_RTT_CB_ALIGN() is not supported for SEGGER_RTT_CPU_CACHE_LINE_SIZE != 0"
  86:Core/Src/SEGGER_RTT.c ****   #endif
  87:Core/Src/SEGGER_RTT.c ****   #ifdef SEGGER_RTT_BUFFER_ALIGN
ARM GAS  /var/folders/lp/x54gwt890xv47sdkqj1k04q40000gn/T//ccydrndK.s 			page 3


  88:Core/Src/SEGGER_RTT.c ****     #error "Custom SEGGER_RTT_BUFFER_ALIGN() is not supported for SEGGER_RTT_CPU_CACHE_LINE_SIZE !=
  89:Core/Src/SEGGER_RTT.c ****   #endif
  90:Core/Src/SEGGER_RTT.c ****   #ifdef SEGGER_RTT_PUT_CB_SECTION
  91:Core/Src/SEGGER_RTT.c ****     #error "Custom SEGGER_RTT_PUT_CB_SECTION() is not supported for SEGGER_RTT_CPU_CACHE_LINE_SIZE 
  92:Core/Src/SEGGER_RTT.c ****   #endif
  93:Core/Src/SEGGER_RTT.c ****   #ifdef SEGGER_RTT_PUT_BUFFER_SECTION
  94:Core/Src/SEGGER_RTT.c ****     #error "Custom SEGGER_RTT_PUT_BUFFER_SECTION() is not supported for SEGGER_RTT_CPU_CACHE_LINE_S
  95:Core/Src/SEGGER_RTT.c ****   #endif
  96:Core/Src/SEGGER_RTT.c ****   #ifdef SEGGER_RTT_BUFFER_ALIGNMENT
  97:Core/Src/SEGGER_RTT.c ****     #error "Custom SEGGER_RTT_BUFFER_ALIGNMENT is not supported for SEGGER_RTT_CPU_CACHE_LINE_SIZE 
  98:Core/Src/SEGGER_RTT.c ****   #endif
  99:Core/Src/SEGGER_RTT.c ****   #ifdef SEGGER_RTT_ALIGNMENT
 100:Core/Src/SEGGER_RTT.c ****     #error "Custom SEGGER_RTT_ALIGNMENT is not supported for SEGGER_RTT_CPU_CACHE_LINE_SIZE != 0"
 101:Core/Src/SEGGER_RTT.c ****   #endif
 102:Core/Src/SEGGER_RTT.c **** #endif
 103:Core/Src/SEGGER_RTT.c **** 
 104:Core/Src/SEGGER_RTT.c **** #ifndef   BUFFER_SIZE_UP
 105:Core/Src/SEGGER_RTT.c ****   #define BUFFER_SIZE_UP                                  1024  // Size of the buffer for terminal 
 106:Core/Src/SEGGER_RTT.c **** #endif
 107:Core/Src/SEGGER_RTT.c **** 
 108:Core/Src/SEGGER_RTT.c **** #ifndef   BUFFER_SIZE_DOWN
 109:Core/Src/SEGGER_RTT.c ****   #define BUFFER_SIZE_DOWN                                16    // Size of the buffer for terminal 
 110:Core/Src/SEGGER_RTT.c **** #endif
 111:Core/Src/SEGGER_RTT.c **** 
 112:Core/Src/SEGGER_RTT.c **** #ifndef   SEGGER_RTT_MAX_NUM_UP_BUFFERS
 113:Core/Src/SEGGER_RTT.c ****   #define SEGGER_RTT_MAX_NUM_UP_BUFFERS                    2    // Number of up-buffers (T->H) avai
 114:Core/Src/SEGGER_RTT.c **** #endif
 115:Core/Src/SEGGER_RTT.c **** 
 116:Core/Src/SEGGER_RTT.c **** #ifndef   SEGGER_RTT_MAX_NUM_DOWN_BUFFERS
 117:Core/Src/SEGGER_RTT.c ****   #define SEGGER_RTT_MAX_NUM_DOWN_BUFFERS                  2    // Number of down-buffers (H->T) av
 118:Core/Src/SEGGER_RTT.c **** #endif
 119:Core/Src/SEGGER_RTT.c **** 
 120:Core/Src/SEGGER_RTT.c **** #ifndef SEGGER_RTT_BUFFER_SECTION
 121:Core/Src/SEGGER_RTT.c ****   #if defined(SEGGER_RTT_SECTION)
 122:Core/Src/SEGGER_RTT.c ****     #define SEGGER_RTT_BUFFER_SECTION SEGGER_RTT_SECTION
 123:Core/Src/SEGGER_RTT.c ****   #endif
 124:Core/Src/SEGGER_RTT.c **** #endif
 125:Core/Src/SEGGER_RTT.c **** 
 126:Core/Src/SEGGER_RTT.c **** #ifndef   SEGGER_RTT_ALIGNMENT
 127:Core/Src/SEGGER_RTT.c ****   #define SEGGER_RTT_ALIGNMENT                            SEGGER_RTT_CPU_CACHE_LINE_SIZE
 128:Core/Src/SEGGER_RTT.c **** #endif
 129:Core/Src/SEGGER_RTT.c **** 
 130:Core/Src/SEGGER_RTT.c **** #ifndef   SEGGER_RTT_BUFFER_ALIGNMENT
 131:Core/Src/SEGGER_RTT.c ****   #define SEGGER_RTT_BUFFER_ALIGNMENT                     SEGGER_RTT_CPU_CACHE_LINE_SIZE
 132:Core/Src/SEGGER_RTT.c **** #endif
 133:Core/Src/SEGGER_RTT.c **** 
 134:Core/Src/SEGGER_RTT.c **** #ifndef   SEGGER_RTT_MODE_DEFAULT
 135:Core/Src/SEGGER_RTT.c ****   #define SEGGER_RTT_MODE_DEFAULT                         SEGGER_RTT_MODE_NO_BLOCK_SKIP
 136:Core/Src/SEGGER_RTT.c **** #endif
 137:Core/Src/SEGGER_RTT.c **** 
 138:Core/Src/SEGGER_RTT.c **** #ifndef   SEGGER_RTT_LOCK
 139:Core/Src/SEGGER_RTT.c ****   #define SEGGER_RTT_LOCK()
 140:Core/Src/SEGGER_RTT.c **** #endif
 141:Core/Src/SEGGER_RTT.c **** 
 142:Core/Src/SEGGER_RTT.c **** #ifndef   SEGGER_RTT_UNLOCK
 143:Core/Src/SEGGER_RTT.c ****   #define SEGGER_RTT_UNLOCK()
 144:Core/Src/SEGGER_RTT.c **** #endif
ARM GAS  /var/folders/lp/x54gwt890xv47sdkqj1k04q40000gn/T//ccydrndK.s 			page 4


 145:Core/Src/SEGGER_RTT.c **** 
 146:Core/Src/SEGGER_RTT.c **** #ifndef   STRLEN
 147:Core/Src/SEGGER_RTT.c ****   #define STRLEN(a)                                       strlen((a))
 148:Core/Src/SEGGER_RTT.c **** #endif
 149:Core/Src/SEGGER_RTT.c **** 
 150:Core/Src/SEGGER_RTT.c **** #ifndef   STRCPY
 151:Core/Src/SEGGER_RTT.c ****   #define STRCPY(pDest, pSrc)                             strcpy((pDest), (pSrc))
 152:Core/Src/SEGGER_RTT.c **** #endif
 153:Core/Src/SEGGER_RTT.c **** 
 154:Core/Src/SEGGER_RTT.c **** #ifndef   SEGGER_RTT_MEMCPY_USE_BYTELOOP
 155:Core/Src/SEGGER_RTT.c ****   #define SEGGER_RTT_MEMCPY_USE_BYTELOOP                  0
 156:Core/Src/SEGGER_RTT.c **** #endif
 157:Core/Src/SEGGER_RTT.c **** 
 158:Core/Src/SEGGER_RTT.c **** #ifndef   SEGGER_RTT_MEMCPY
 159:Core/Src/SEGGER_RTT.c ****   #ifdef  MEMCPY
 160:Core/Src/SEGGER_RTT.c ****     #define SEGGER_RTT_MEMCPY(pDest, pSrc, NumBytes)      MEMCPY((pDest), (pSrc), (NumBytes))
 161:Core/Src/SEGGER_RTT.c ****   #else
 162:Core/Src/SEGGER_RTT.c ****     #define SEGGER_RTT_MEMCPY(pDest, pSrc, NumBytes)      memcpy((pDest), (pSrc), (NumBytes))
 163:Core/Src/SEGGER_RTT.c ****   #endif
 164:Core/Src/SEGGER_RTT.c **** #endif
 165:Core/Src/SEGGER_RTT.c **** 
 166:Core/Src/SEGGER_RTT.c **** #ifndef   MIN
 167:Core/Src/SEGGER_RTT.c ****   #define MIN(a, b)         (((a) < (b)) ? (a) : (b))
 168:Core/Src/SEGGER_RTT.c **** #endif
 169:Core/Src/SEGGER_RTT.c **** 
 170:Core/Src/SEGGER_RTT.c **** #ifndef   MAX
 171:Core/Src/SEGGER_RTT.c ****   #define MAX(a, b)         (((a) > (b)) ? (a) : (b))
 172:Core/Src/SEGGER_RTT.c **** #endif
 173:Core/Src/SEGGER_RTT.c **** //
 174:Core/Src/SEGGER_RTT.c **** // For some environments, NULL may not be defined until certain headers are included
 175:Core/Src/SEGGER_RTT.c **** //
 176:Core/Src/SEGGER_RTT.c **** #ifndef NULL
 177:Core/Src/SEGGER_RTT.c ****   #define NULL 0
 178:Core/Src/SEGGER_RTT.c **** #endif
 179:Core/Src/SEGGER_RTT.c **** 
 180:Core/Src/SEGGER_RTT.c **** /*********************************************************************
 181:Core/Src/SEGGER_RTT.c **** *
 182:Core/Src/SEGGER_RTT.c **** *       Defines, fixed
 183:Core/Src/SEGGER_RTT.c **** *
 184:Core/Src/SEGGER_RTT.c **** **********************************************************************
 185:Core/Src/SEGGER_RTT.c **** */
 186:Core/Src/SEGGER_RTT.c **** #if (defined __ICCARM__) || (defined __ICCRX__)
 187:Core/Src/SEGGER_RTT.c ****   #define RTT_PRAGMA(P) _Pragma(#P)
 188:Core/Src/SEGGER_RTT.c **** #endif
 189:Core/Src/SEGGER_RTT.c **** 
 190:Core/Src/SEGGER_RTT.c **** #if SEGGER_RTT_ALIGNMENT || SEGGER_RTT_BUFFER_ALIGNMENT
 191:Core/Src/SEGGER_RTT.c ****   #if ((defined __GNUC__) || (defined __clang__))
 192:Core/Src/SEGGER_RTT.c ****     #define SEGGER_RTT_ALIGN(Var, Alignment) Var __attribute__ ((aligned (Alignment)))
 193:Core/Src/SEGGER_RTT.c ****   #elif (defined __ICCARM__) || (defined __ICCRX__)
 194:Core/Src/SEGGER_RTT.c ****     #define PRAGMA(A) _Pragma(#A)
 195:Core/Src/SEGGER_RTT.c **** #define SEGGER_RTT_ALIGN(Var, Alignment) RTT_PRAGMA(data_alignment=Alignment) \
 196:Core/Src/SEGGER_RTT.c ****                                   Var
 197:Core/Src/SEGGER_RTT.c ****   #elif (defined __CC_ARM)
 198:Core/Src/SEGGER_RTT.c ****     #define SEGGER_RTT_ALIGN(Var, Alignment) Var __attribute__ ((aligned (Alignment)))
 199:Core/Src/SEGGER_RTT.c ****   #else
 200:Core/Src/SEGGER_RTT.c ****     #error "Alignment not supported for this compiler."
 201:Core/Src/SEGGER_RTT.c ****   #endif
ARM GAS  /var/folders/lp/x54gwt890xv47sdkqj1k04q40000gn/T//ccydrndK.s 			page 5


 202:Core/Src/SEGGER_RTT.c **** #else
 203:Core/Src/SEGGER_RTT.c ****   #define SEGGER_RTT_ALIGN(Var, Alignment) Var
 204:Core/Src/SEGGER_RTT.c **** #endif
 205:Core/Src/SEGGER_RTT.c **** 
 206:Core/Src/SEGGER_RTT.c **** #if defined(SEGGER_RTT_SECTION) || defined (SEGGER_RTT_BUFFER_SECTION)
 207:Core/Src/SEGGER_RTT.c ****   #if ((defined __GNUC__) || (defined __clang__))
 208:Core/Src/SEGGER_RTT.c ****     #define SEGGER_RTT_PUT_SECTION(Var, Section) __attribute__ ((section (Section))) Var
 209:Core/Src/SEGGER_RTT.c ****   #elif (defined __ICCARM__) || (defined __ICCRX__)
 210:Core/Src/SEGGER_RTT.c **** #define SEGGER_RTT_PUT_SECTION(Var, Section) RTT_PRAGMA(location=Section) \
 211:Core/Src/SEGGER_RTT.c ****                                         Var
 212:Core/Src/SEGGER_RTT.c ****   #elif (defined __CC_ARM)
 213:Core/Src/SEGGER_RTT.c ****     #define SEGGER_RTT_PUT_SECTION(Var, Section) __attribute__ ((section (Section), zero_init))  Va
 214:Core/Src/SEGGER_RTT.c ****   #else
 215:Core/Src/SEGGER_RTT.c ****     #error "Section placement not supported for this compiler."
 216:Core/Src/SEGGER_RTT.c ****   #endif
 217:Core/Src/SEGGER_RTT.c **** #else
 218:Core/Src/SEGGER_RTT.c ****   #define SEGGER_RTT_PUT_SECTION(Var, Section) Var
 219:Core/Src/SEGGER_RTT.c **** #endif
 220:Core/Src/SEGGER_RTT.c **** 
 221:Core/Src/SEGGER_RTT.c **** #if SEGGER_RTT_ALIGNMENT
 222:Core/Src/SEGGER_RTT.c ****   #define SEGGER_RTT_CB_ALIGN(Var)  SEGGER_RTT_ALIGN(Var, SEGGER_RTT_ALIGNMENT)
 223:Core/Src/SEGGER_RTT.c **** #else
 224:Core/Src/SEGGER_RTT.c ****   #define SEGGER_RTT_CB_ALIGN(Var)  Var
 225:Core/Src/SEGGER_RTT.c **** #endif
 226:Core/Src/SEGGER_RTT.c **** 
 227:Core/Src/SEGGER_RTT.c **** #if SEGGER_RTT_BUFFER_ALIGNMENT
 228:Core/Src/SEGGER_RTT.c ****   #define SEGGER_RTT_BUFFER_ALIGN(Var)  SEGGER_RTT_ALIGN(Var, SEGGER_RTT_BUFFER_ALIGNMENT)
 229:Core/Src/SEGGER_RTT.c **** #else
 230:Core/Src/SEGGER_RTT.c ****   #define SEGGER_RTT_BUFFER_ALIGN(Var)  Var
 231:Core/Src/SEGGER_RTT.c **** #endif
 232:Core/Src/SEGGER_RTT.c **** 
 233:Core/Src/SEGGER_RTT.c **** 
 234:Core/Src/SEGGER_RTT.c **** #if defined(SEGGER_RTT_SECTION)
 235:Core/Src/SEGGER_RTT.c ****   #define SEGGER_RTT_PUT_CB_SECTION(Var) SEGGER_RTT_PUT_SECTION(Var, SEGGER_RTT_SECTION)
 236:Core/Src/SEGGER_RTT.c **** #else
 237:Core/Src/SEGGER_RTT.c ****   #define SEGGER_RTT_PUT_CB_SECTION(Var) Var
 238:Core/Src/SEGGER_RTT.c **** #endif
 239:Core/Src/SEGGER_RTT.c **** 
 240:Core/Src/SEGGER_RTT.c **** #if defined(SEGGER_RTT_BUFFER_SECTION)
 241:Core/Src/SEGGER_RTT.c ****   #define SEGGER_RTT_PUT_BUFFER_SECTION(Var) SEGGER_RTT_PUT_SECTION(Var, SEGGER_RTT_BUFFER_SECTION)
 242:Core/Src/SEGGER_RTT.c **** #else
 243:Core/Src/SEGGER_RTT.c ****   #define SEGGER_RTT_PUT_BUFFER_SECTION(Var) Var
 244:Core/Src/SEGGER_RTT.c **** #endif
 245:Core/Src/SEGGER_RTT.c **** 
 246:Core/Src/SEGGER_RTT.c **** /*********************************************************************
 247:Core/Src/SEGGER_RTT.c **** *
 248:Core/Src/SEGGER_RTT.c **** *       Static const data
 249:Core/Src/SEGGER_RTT.c **** *
 250:Core/Src/SEGGER_RTT.c **** **********************************************************************
 251:Core/Src/SEGGER_RTT.c **** */
 252:Core/Src/SEGGER_RTT.c **** 
 253:Core/Src/SEGGER_RTT.c **** static unsigned char _aTerminalId[16] = { '0', '1', '2', '3', '4', '5', '6', '7', '8', '9', 'A', 'B
 254:Core/Src/SEGGER_RTT.c **** 
 255:Core/Src/SEGGER_RTT.c **** /*********************************************************************
 256:Core/Src/SEGGER_RTT.c **** *
 257:Core/Src/SEGGER_RTT.c **** *       Static data
 258:Core/Src/SEGGER_RTT.c **** *
ARM GAS  /var/folders/lp/x54gwt890xv47sdkqj1k04q40000gn/T//ccydrndK.s 			page 6


 259:Core/Src/SEGGER_RTT.c **** **********************************************************************
 260:Core/Src/SEGGER_RTT.c **** */
 261:Core/Src/SEGGER_RTT.c **** 
 262:Core/Src/SEGGER_RTT.c **** //
 263:Core/Src/SEGGER_RTT.c **** // RTT Control Block and allocate buffers for channel 0
 264:Core/Src/SEGGER_RTT.c **** //
 265:Core/Src/SEGGER_RTT.c **** #if SEGGER_RTT_CPU_CACHE_LINE_SIZE
 266:Core/Src/SEGGER_RTT.c ****   #if ((defined __GNUC__) || (defined __clang__))
 267:Core/Src/SEGGER_RTT.c ****     SEGGER_RTT_CB _SEGGER_RTT                                                             __attribu
 268:Core/Src/SEGGER_RTT.c ****     static char   _acUpBuffer  [SEGGER_RTT__ROUND_UP_2_CACHE_LINE_SIZE(BUFFER_SIZE_UP)]   __attribu
 269:Core/Src/SEGGER_RTT.c ****     static char   _acDownBuffer[SEGGER_RTT__ROUND_UP_2_CACHE_LINE_SIZE(BUFFER_SIZE_DOWN)] __attribu
 270:Core/Src/SEGGER_RTT.c ****   #elif (defined __ICCARM__)
 271:Core/Src/SEGGER_RTT.c ****     #pragma data_alignment=SEGGER_RTT_CPU_CACHE_LINE_SIZE
 272:Core/Src/SEGGER_RTT.c ****     SEGGER_RTT_CB _SEGGER_RTT;
 273:Core/Src/SEGGER_RTT.c ****     #pragma data_alignment=SEGGER_RTT_CPU_CACHE_LINE_SIZE
 274:Core/Src/SEGGER_RTT.c ****     static char   _acUpBuffer  [SEGGER_RTT__ROUND_UP_2_CACHE_LINE_SIZE(BUFFER_SIZE_UP)];
 275:Core/Src/SEGGER_RTT.c ****     #pragma data_alignment=SEGGER_RTT_CPU_CACHE_LINE_SIZE
 276:Core/Src/SEGGER_RTT.c ****     static char   _acDownBuffer[SEGGER_RTT__ROUND_UP_2_CACHE_LINE_SIZE(BUFFER_SIZE_DOWN)];
 277:Core/Src/SEGGER_RTT.c ****   #else
 278:Core/Src/SEGGER_RTT.c ****     #error "Don't know how to place _SEGGER_RTT, _acUpBuffer, _acDownBuffer cache-line aligned"
 279:Core/Src/SEGGER_RTT.c ****   #endif
 280:Core/Src/SEGGER_RTT.c **** #else
 281:Core/Src/SEGGER_RTT.c ****   SEGGER_RTT_PUT_CB_SECTION(SEGGER_RTT_CB_ALIGN(SEGGER_RTT_CB _SEGGER_RTT));
 282:Core/Src/SEGGER_RTT.c ****   SEGGER_RTT_PUT_BUFFER_SECTION(SEGGER_RTT_BUFFER_ALIGN(static char _acUpBuffer  [BUFFER_SIZE_UP]))
 283:Core/Src/SEGGER_RTT.c ****   SEGGER_RTT_PUT_BUFFER_SECTION(SEGGER_RTT_BUFFER_ALIGN(static char _acDownBuffer[BUFFER_SIZE_DOWN]
 284:Core/Src/SEGGER_RTT.c **** #endif
 285:Core/Src/SEGGER_RTT.c **** 
 286:Core/Src/SEGGER_RTT.c **** static unsigned char _ActiveTerminal;
 287:Core/Src/SEGGER_RTT.c **** 
 288:Core/Src/SEGGER_RTT.c **** /*********************************************************************
 289:Core/Src/SEGGER_RTT.c **** *
 290:Core/Src/SEGGER_RTT.c **** *       Static functions
 291:Core/Src/SEGGER_RTT.c **** *
 292:Core/Src/SEGGER_RTT.c **** **********************************************************************
 293:Core/Src/SEGGER_RTT.c **** */
 294:Core/Src/SEGGER_RTT.c **** 
 295:Core/Src/SEGGER_RTT.c **** /*********************************************************************
 296:Core/Src/SEGGER_RTT.c **** *
 297:Core/Src/SEGGER_RTT.c **** *       _DoInit()
 298:Core/Src/SEGGER_RTT.c **** *
 299:Core/Src/SEGGER_RTT.c **** *  Function description
 300:Core/Src/SEGGER_RTT.c **** *    Initializes the control block an buffers.
 301:Core/Src/SEGGER_RTT.c **** *    May only be called via INIT() to avoid overriding settings.
 302:Core/Src/SEGGER_RTT.c **** *
 303:Core/Src/SEGGER_RTT.c **** */
 304:Core/Src/SEGGER_RTT.c **** #define INIT()  {                                                                                  
 305:Core/Src/SEGGER_RTT.c ****                   volatile SEGGER_RTT_CB* pRTTCBInit;                                              
 306:Core/Src/SEGGER_RTT.c ****                   pRTTCBInit = (volatile SEGGER_RTT_CB*)((char*)&_SEGGER_RTT + SEGGER_RTT_UNCACHED_
 307:Core/Src/SEGGER_RTT.c ****                   do {                                                                             
 308:Core/Src/SEGGER_RTT.c ****                     if (pRTTCBInit->acID[0] == '\0') {                                             
 309:Core/Src/SEGGER_RTT.c ****                       _DoInit();                                                                   
 310:Core/Src/SEGGER_RTT.c ****                     }                                                                              
 311:Core/Src/SEGGER_RTT.c ****                   } while (0);                                                                     
 312:Core/Src/SEGGER_RTT.c ****                 }
 313:Core/Src/SEGGER_RTT.c **** 
 314:Core/Src/SEGGER_RTT.c **** static void _DoInit(void) {
 315:Core/Src/SEGGER_RTT.c ****   volatile SEGGER_RTT_CB* p;   // Volatile to make sure that compiler cannot change the order of ac
ARM GAS  /var/folders/lp/x54gwt890xv47sdkqj1k04q40000gn/T//ccydrndK.s 			page 7


 316:Core/Src/SEGGER_RTT.c ****   static const char _aInitStr[] = "\0\0\0\0\0\0TTR REGGES";  // Init complete ID string to make sur
 317:Core/Src/SEGGER_RTT.c ****   unsigned i;
 318:Core/Src/SEGGER_RTT.c ****   //
 319:Core/Src/SEGGER_RTT.c ****   // Initialize control block
 320:Core/Src/SEGGER_RTT.c ****   //
 321:Core/Src/SEGGER_RTT.c ****   p                     = (volatile SEGGER_RTT_CB*)((char*)&_SEGGER_RTT + SEGGER_RTT_UNCACHED_OFF);
 322:Core/Src/SEGGER_RTT.c ****   memset((SEGGER_RTT_CB*)p, 0, sizeof(_SEGGER_RTT));         // Make sure that the RTT CB is always
 323:Core/Src/SEGGER_RTT.c ****   p->MaxNumUpBuffers    = SEGGER_RTT_MAX_NUM_UP_BUFFERS;
 324:Core/Src/SEGGER_RTT.c ****   p->MaxNumDownBuffers  = SEGGER_RTT_MAX_NUM_DOWN_BUFFERS;
 325:Core/Src/SEGGER_RTT.c ****   //
 326:Core/Src/SEGGER_RTT.c ****   // Initialize up buffer 0
 327:Core/Src/SEGGER_RTT.c ****   //
 328:Core/Src/SEGGER_RTT.c ****   p->aUp[0].sName         = "Terminal";
 329:Core/Src/SEGGER_RTT.c ****   p->aUp[0].pBuffer       = _acUpBuffer;
 330:Core/Src/SEGGER_RTT.c ****   p->aUp[0].SizeOfBuffer  = BUFFER_SIZE_UP;
 331:Core/Src/SEGGER_RTT.c ****   p->aUp[0].RdOff         = 0u;
 332:Core/Src/SEGGER_RTT.c ****   p->aUp[0].WrOff         = 0u;
 333:Core/Src/SEGGER_RTT.c ****   p->aUp[0].Flags         = SEGGER_RTT_MODE_DEFAULT;
 334:Core/Src/SEGGER_RTT.c ****   //
 335:Core/Src/SEGGER_RTT.c ****   // Initialize down buffer 0
 336:Core/Src/SEGGER_RTT.c ****   //
 337:Core/Src/SEGGER_RTT.c ****   p->aDown[0].sName         = "Terminal";
 338:Core/Src/SEGGER_RTT.c ****   p->aDown[0].pBuffer       = _acDownBuffer;
 339:Core/Src/SEGGER_RTT.c ****   p->aDown[0].SizeOfBuffer  = BUFFER_SIZE_DOWN;
 340:Core/Src/SEGGER_RTT.c ****   p->aDown[0].RdOff         = 0u;
 341:Core/Src/SEGGER_RTT.c ****   p->aDown[0].WrOff         = 0u;
 342:Core/Src/SEGGER_RTT.c ****   p->aDown[0].Flags         = SEGGER_RTT_MODE_DEFAULT;
 343:Core/Src/SEGGER_RTT.c ****   //
 344:Core/Src/SEGGER_RTT.c ****   // Finish initialization of the control block.
 345:Core/Src/SEGGER_RTT.c ****   // Copy Id string backwards to make sure that "SEGGER RTT" is not found in initializer memory (us
 346:Core/Src/SEGGER_RTT.c ****   // as this would cause J-Link to "find" the control block at a wrong address.
 347:Core/Src/SEGGER_RTT.c ****   //
 348:Core/Src/SEGGER_RTT.c ****   RTT__DMB();                       // Force order of memory accesses for cores that may perform ou
 349:Core/Src/SEGGER_RTT.c ****   for (i = 0; i < sizeof(_aInitStr) - 1; ++i) {
 350:Core/Src/SEGGER_RTT.c ****     p->acID[i] = _aInitStr[sizeof(_aInitStr) - 2 - i];  // Skip terminating \0 at the end of the ar
 351:Core/Src/SEGGER_RTT.c ****   }
 352:Core/Src/SEGGER_RTT.c ****   RTT__DMB();                       // Force order of memory accesses for cores that may perform ou
 353:Core/Src/SEGGER_RTT.c **** }
 354:Core/Src/SEGGER_RTT.c **** 
 355:Core/Src/SEGGER_RTT.c **** /*********************************************************************
 356:Core/Src/SEGGER_RTT.c **** *
 357:Core/Src/SEGGER_RTT.c **** *       _WriteBlocking()
 358:Core/Src/SEGGER_RTT.c **** *
 359:Core/Src/SEGGER_RTT.c **** *  Function description
 360:Core/Src/SEGGER_RTT.c **** *    Stores a specified number of characters in SEGGER RTT ring buffer
 361:Core/Src/SEGGER_RTT.c **** *    and updates the associated write pointer which is periodically
 362:Core/Src/SEGGER_RTT.c **** *    read by the host.
 363:Core/Src/SEGGER_RTT.c **** *    The caller is responsible for managing the write chunk sizes as
 364:Core/Src/SEGGER_RTT.c **** *    _WriteBlocking() will block until all data has been posted successfully.
 365:Core/Src/SEGGER_RTT.c **** *
 366:Core/Src/SEGGER_RTT.c **** *  Parameters
 367:Core/Src/SEGGER_RTT.c **** *    pRing        Ring buffer to post to.
 368:Core/Src/SEGGER_RTT.c **** *    pBuffer      Pointer to character array. Does not need to point to a \0 terminated string.
 369:Core/Src/SEGGER_RTT.c **** *    NumBytes     Number of bytes to be stored in the SEGGER RTT control block.
 370:Core/Src/SEGGER_RTT.c **** *
 371:Core/Src/SEGGER_RTT.c **** *  Return value
 372:Core/Src/SEGGER_RTT.c **** *    >= 0 - Number of bytes written into buffer.
ARM GAS  /var/folders/lp/x54gwt890xv47sdkqj1k04q40000gn/T//ccydrndK.s 			page 8


 373:Core/Src/SEGGER_RTT.c **** */
 374:Core/Src/SEGGER_RTT.c **** static unsigned _WriteBlocking(SEGGER_RTT_BUFFER_UP* pRing, const char* pBuffer, unsigned NumBytes)
 375:Core/Src/SEGGER_RTT.c ****   unsigned NumBytesToWrite;
 376:Core/Src/SEGGER_RTT.c ****   unsigned NumBytesWritten;
 377:Core/Src/SEGGER_RTT.c ****   unsigned RdOff;
 378:Core/Src/SEGGER_RTT.c ****   unsigned WrOff;
 379:Core/Src/SEGGER_RTT.c ****   volatile char* pDst;
 380:Core/Src/SEGGER_RTT.c ****   //
 381:Core/Src/SEGGER_RTT.c ****   // Write data to buffer and handle wrap-around if necessary
 382:Core/Src/SEGGER_RTT.c ****   //
 383:Core/Src/SEGGER_RTT.c ****   NumBytesWritten = 0u;
 384:Core/Src/SEGGER_RTT.c ****   WrOff = pRing->WrOff;
 385:Core/Src/SEGGER_RTT.c ****   do {
 386:Core/Src/SEGGER_RTT.c ****     RdOff = pRing->RdOff;                         // May be changed by host (debug probe) in the me
 387:Core/Src/SEGGER_RTT.c ****     if (RdOff > WrOff) {
 388:Core/Src/SEGGER_RTT.c ****       NumBytesToWrite = RdOff - WrOff - 1u;
 389:Core/Src/SEGGER_RTT.c ****     } else {
 390:Core/Src/SEGGER_RTT.c ****       NumBytesToWrite = pRing->SizeOfBuffer - (WrOff - RdOff + 1u);
 391:Core/Src/SEGGER_RTT.c ****     }
 392:Core/Src/SEGGER_RTT.c ****     NumBytesToWrite = MIN(NumBytesToWrite, (pRing->SizeOfBuffer - WrOff));      // Number of bytes 
 393:Core/Src/SEGGER_RTT.c ****     NumBytesToWrite = MIN(NumBytesToWrite, NumBytes);
 394:Core/Src/SEGGER_RTT.c ****     pDst = (pRing->pBuffer + WrOff) + SEGGER_RTT_UNCACHED_OFF;
 395:Core/Src/SEGGER_RTT.c **** #if SEGGER_RTT_MEMCPY_USE_BYTELOOP
 396:Core/Src/SEGGER_RTT.c ****     NumBytesWritten += NumBytesToWrite;
 397:Core/Src/SEGGER_RTT.c ****     NumBytes        -= NumBytesToWrite;
 398:Core/Src/SEGGER_RTT.c ****     WrOff           += NumBytesToWrite;
 399:Core/Src/SEGGER_RTT.c ****     while (NumBytesToWrite--) {
 400:Core/Src/SEGGER_RTT.c ****       *pDst++ = *pBuffer++;
 401:Core/Src/SEGGER_RTT.c ****     };
 402:Core/Src/SEGGER_RTT.c **** #else
 403:Core/Src/SEGGER_RTT.c ****     SEGGER_RTT_MEMCPY((void*)pDst, pBuffer, NumBytesToWrite);
 404:Core/Src/SEGGER_RTT.c ****     NumBytesWritten += NumBytesToWrite;
 405:Core/Src/SEGGER_RTT.c ****     pBuffer         += NumBytesToWrite;
 406:Core/Src/SEGGER_RTT.c ****     NumBytes        -= NumBytesToWrite;
 407:Core/Src/SEGGER_RTT.c ****     WrOff           += NumBytesToWrite;
 408:Core/Src/SEGGER_RTT.c **** #endif
 409:Core/Src/SEGGER_RTT.c ****     if (WrOff == pRing->SizeOfBuffer) {
 410:Core/Src/SEGGER_RTT.c ****       WrOff = 0u;
 411:Core/Src/SEGGER_RTT.c ****     }
 412:Core/Src/SEGGER_RTT.c ****     RTT__DMB();                     // Force data write to be complete before writing the <WrOff>, 
 413:Core/Src/SEGGER_RTT.c ****     pRing->WrOff = WrOff;
 414:Core/Src/SEGGER_RTT.c ****   } while (NumBytes);
 415:Core/Src/SEGGER_RTT.c ****   return NumBytesWritten;
 416:Core/Src/SEGGER_RTT.c **** }
 417:Core/Src/SEGGER_RTT.c **** 
 418:Core/Src/SEGGER_RTT.c **** /*********************************************************************
 419:Core/Src/SEGGER_RTT.c **** *
 420:Core/Src/SEGGER_RTT.c **** *       _WriteNoCheck()
 421:Core/Src/SEGGER_RTT.c **** *
 422:Core/Src/SEGGER_RTT.c **** *  Function description
 423:Core/Src/SEGGER_RTT.c **** *    Stores a specified number of characters in SEGGER RTT ring buffer
 424:Core/Src/SEGGER_RTT.c **** *    and updates the associated write pointer which is periodically
 425:Core/Src/SEGGER_RTT.c **** *    read by the host.
 426:Core/Src/SEGGER_RTT.c **** *    It is callers responsibility to make sure data actually fits in buffer.
 427:Core/Src/SEGGER_RTT.c **** *
 428:Core/Src/SEGGER_RTT.c **** *  Parameters
 429:Core/Src/SEGGER_RTT.c **** *    pRing        Ring buffer to post to.
ARM GAS  /var/folders/lp/x54gwt890xv47sdkqj1k04q40000gn/T//ccydrndK.s 			page 9


 430:Core/Src/SEGGER_RTT.c **** *    pBuffer      Pointer to character array. Does not need to point to a \0 terminated string.
 431:Core/Src/SEGGER_RTT.c **** *    NumBytes     Number of bytes to be stored in the SEGGER RTT control block.
 432:Core/Src/SEGGER_RTT.c **** *
 433:Core/Src/SEGGER_RTT.c **** *  Notes
 434:Core/Src/SEGGER_RTT.c **** *    (1) If there might not be enough space in the "Up"-buffer, call _WriteBlocking
 435:Core/Src/SEGGER_RTT.c **** */
 436:Core/Src/SEGGER_RTT.c **** static void _WriteNoCheck(SEGGER_RTT_BUFFER_UP* pRing, const char* pData, unsigned NumBytes) {
 437:Core/Src/SEGGER_RTT.c ****   unsigned NumBytesAtOnce;
 438:Core/Src/SEGGER_RTT.c ****   unsigned WrOff;
 439:Core/Src/SEGGER_RTT.c ****   unsigned Rem;
 440:Core/Src/SEGGER_RTT.c ****   volatile char* pDst;
 441:Core/Src/SEGGER_RTT.c **** 
 442:Core/Src/SEGGER_RTT.c ****   WrOff = pRing->WrOff;
 443:Core/Src/SEGGER_RTT.c ****   Rem = pRing->SizeOfBuffer - WrOff;
 444:Core/Src/SEGGER_RTT.c ****   if (Rem > NumBytes) {
 445:Core/Src/SEGGER_RTT.c ****     //
 446:Core/Src/SEGGER_RTT.c ****     // All data fits before wrap around
 447:Core/Src/SEGGER_RTT.c ****     //
 448:Core/Src/SEGGER_RTT.c ****     pDst = (pRing->pBuffer + WrOff) + SEGGER_RTT_UNCACHED_OFF;
 449:Core/Src/SEGGER_RTT.c **** #if SEGGER_RTT_MEMCPY_USE_BYTELOOP
 450:Core/Src/SEGGER_RTT.c ****     WrOff += NumBytes;
 451:Core/Src/SEGGER_RTT.c ****     while (NumBytes--) {
 452:Core/Src/SEGGER_RTT.c ****       *pDst++ = *pData++;
 453:Core/Src/SEGGER_RTT.c ****     };
 454:Core/Src/SEGGER_RTT.c ****     RTT__DMB();                     // Force data write to be complete before writing the <WrOff>, 
 455:Core/Src/SEGGER_RTT.c ****     pRing->WrOff = WrOff;
 456:Core/Src/SEGGER_RTT.c **** #else
 457:Core/Src/SEGGER_RTT.c ****     SEGGER_RTT_MEMCPY((void*)pDst, pData, NumBytes);
 458:Core/Src/SEGGER_RTT.c ****     RTT__DMB();                     // Force data write to be complete before writing the <WrOff>, 
 459:Core/Src/SEGGER_RTT.c ****     pRing->WrOff = WrOff + NumBytes;
 460:Core/Src/SEGGER_RTT.c **** #endif
 461:Core/Src/SEGGER_RTT.c ****   } else {
 462:Core/Src/SEGGER_RTT.c ****     //
 463:Core/Src/SEGGER_RTT.c ****     // We reach the end of the buffer, so need to wrap around
 464:Core/Src/SEGGER_RTT.c ****     //
 465:Core/Src/SEGGER_RTT.c **** #if SEGGER_RTT_MEMCPY_USE_BYTELOOP
 466:Core/Src/SEGGER_RTT.c ****     pDst = (pRing->pBuffer + WrOff) + SEGGER_RTT_UNCACHED_OFF;
 467:Core/Src/SEGGER_RTT.c ****     NumBytesAtOnce = Rem;
 468:Core/Src/SEGGER_RTT.c ****     while (NumBytesAtOnce--) {
 469:Core/Src/SEGGER_RTT.c ****       *pDst++ = *pData++;
 470:Core/Src/SEGGER_RTT.c ****     };
 471:Core/Src/SEGGER_RTT.c ****     pDst = pRing->pBuffer + SEGGER_RTT_UNCACHED_OFF;
 472:Core/Src/SEGGER_RTT.c ****     NumBytesAtOnce = NumBytes - Rem;
 473:Core/Src/SEGGER_RTT.c ****     while (NumBytesAtOnce--) {
 474:Core/Src/SEGGER_RTT.c ****       *pDst++ = *pData++;
 475:Core/Src/SEGGER_RTT.c ****     };
 476:Core/Src/SEGGER_RTT.c ****     RTT__DMB();                     // Force data write to be complete before writing the <WrOff>, 
 477:Core/Src/SEGGER_RTT.c ****     pRing->WrOff = NumBytes - Rem;
 478:Core/Src/SEGGER_RTT.c **** #else
 479:Core/Src/SEGGER_RTT.c ****     NumBytesAtOnce = Rem;
 480:Core/Src/SEGGER_RTT.c ****     pDst = (pRing->pBuffer + WrOff) + SEGGER_RTT_UNCACHED_OFF;
 481:Core/Src/SEGGER_RTT.c ****     SEGGER_RTT_MEMCPY((void*)pDst, pData, NumBytesAtOnce);
 482:Core/Src/SEGGER_RTT.c ****     NumBytesAtOnce = NumBytes - Rem;
 483:Core/Src/SEGGER_RTT.c ****     pDst = pRing->pBuffer + SEGGER_RTT_UNCACHED_OFF;
 484:Core/Src/SEGGER_RTT.c ****     SEGGER_RTT_MEMCPY((void*)pDst, pData + Rem, NumBytesAtOnce);
 485:Core/Src/SEGGER_RTT.c ****     RTT__DMB();                     // Force data write to be complete before writing the <WrOff>, 
 486:Core/Src/SEGGER_RTT.c ****     pRing->WrOff = NumBytesAtOnce;
ARM GAS  /var/folders/lp/x54gwt890xv47sdkqj1k04q40000gn/T//ccydrndK.s 			page 10


 487:Core/Src/SEGGER_RTT.c **** #endif
 488:Core/Src/SEGGER_RTT.c ****   }
 489:Core/Src/SEGGER_RTT.c **** }
 490:Core/Src/SEGGER_RTT.c **** 
 491:Core/Src/SEGGER_RTT.c **** /*********************************************************************
 492:Core/Src/SEGGER_RTT.c **** *
 493:Core/Src/SEGGER_RTT.c **** *       _PostTerminalSwitch()
 494:Core/Src/SEGGER_RTT.c **** *
 495:Core/Src/SEGGER_RTT.c **** *  Function description
 496:Core/Src/SEGGER_RTT.c **** *    Switch terminal to the given terminal ID.  It is the caller's
 497:Core/Src/SEGGER_RTT.c **** *    responsibility to ensure the terminal ID is correct and there is
 498:Core/Src/SEGGER_RTT.c **** *    enough space in the buffer for this to complete successfully.
 499:Core/Src/SEGGER_RTT.c **** *
 500:Core/Src/SEGGER_RTT.c **** *  Parameters
 501:Core/Src/SEGGER_RTT.c **** *    pRing        Ring buffer to post to.
 502:Core/Src/SEGGER_RTT.c **** *    TerminalId   Terminal ID to switch to.
 503:Core/Src/SEGGER_RTT.c **** */
 504:Core/Src/SEGGER_RTT.c **** static void _PostTerminalSwitch(SEGGER_RTT_BUFFER_UP* pRing, unsigned char TerminalId) {
 505:Core/Src/SEGGER_RTT.c ****   unsigned char ac[2];
 506:Core/Src/SEGGER_RTT.c **** 
 507:Core/Src/SEGGER_RTT.c ****   ac[0] = 0xFFu;
 508:Core/Src/SEGGER_RTT.c ****   ac[1] = _aTerminalId[TerminalId];  // Caller made already sure that TerminalId does not exceed ou
 509:Core/Src/SEGGER_RTT.c ****   _WriteBlocking(pRing, (const char*)ac, 2u);
 510:Core/Src/SEGGER_RTT.c **** }
 511:Core/Src/SEGGER_RTT.c **** 
 512:Core/Src/SEGGER_RTT.c **** /*********************************************************************
 513:Core/Src/SEGGER_RTT.c **** *
 514:Core/Src/SEGGER_RTT.c **** *       _GetAvailWriteSpace()
 515:Core/Src/SEGGER_RTT.c **** *
 516:Core/Src/SEGGER_RTT.c **** *  Function description
 517:Core/Src/SEGGER_RTT.c **** *    Returns the number of bytes that can be written to the ring
 518:Core/Src/SEGGER_RTT.c **** *    buffer without blocking.
 519:Core/Src/SEGGER_RTT.c **** *
 520:Core/Src/SEGGER_RTT.c **** *  Parameters
 521:Core/Src/SEGGER_RTT.c **** *    pRing        Ring buffer to check.
 522:Core/Src/SEGGER_RTT.c **** *
 523:Core/Src/SEGGER_RTT.c **** *  Return value
 524:Core/Src/SEGGER_RTT.c **** *    Number of bytes that are free in the buffer.
 525:Core/Src/SEGGER_RTT.c **** */
 526:Core/Src/SEGGER_RTT.c **** static unsigned _GetAvailWriteSpace(SEGGER_RTT_BUFFER_UP* pRing) {
  29              		.loc 1 526 66 view -0
  30              		.cfi_startproc
  31              		@ args = 0, pretend = 0, frame = 0
  32              		@ frame_needed = 0, uses_anonymous_args = 0
  33              		@ link register save eliminated.
 527:Core/Src/SEGGER_RTT.c ****   unsigned RdOff;
  34              		.loc 1 527 3 view .LVU1
 528:Core/Src/SEGGER_RTT.c ****   unsigned WrOff;
  35              		.loc 1 528 3 view .LVU2
 529:Core/Src/SEGGER_RTT.c ****   unsigned r;
  36              		.loc 1 529 3 view .LVU3
 530:Core/Src/SEGGER_RTT.c ****   //
 531:Core/Src/SEGGER_RTT.c ****   // Avoid warnings regarding volatile access order.  It's not a problem
 532:Core/Src/SEGGER_RTT.c ****   // in this case, but dampen compiler enthusiasm.
 533:Core/Src/SEGGER_RTT.c ****   //
 534:Core/Src/SEGGER_RTT.c ****   RdOff = pRing->RdOff;
  37              		.loc 1 534 3 view .LVU4
ARM GAS  /var/folders/lp/x54gwt890xv47sdkqj1k04q40000gn/T//ccydrndK.s 			page 11


  38              		.loc 1 534 9 is_stmt 0 view .LVU5
  39 0000 0369     		ldr	r3, [r0, #16]
  40              	.LVL1:
 535:Core/Src/SEGGER_RTT.c ****   WrOff = pRing->WrOff;
  41              		.loc 1 535 3 is_stmt 1 view .LVU6
  42              		.loc 1 535 9 is_stmt 0 view .LVU7
  43 0002 C268     		ldr	r2, [r0, #12]
  44              	.LVL2:
 536:Core/Src/SEGGER_RTT.c ****   if (RdOff <= WrOff) {
  45              		.loc 1 536 3 is_stmt 1 view .LVU8
  46              		.loc 1 536 6 is_stmt 0 view .LVU9
  47 0004 9342     		cmp	r3, r2
  48 0006 04D8     		bhi	.L2
 537:Core/Src/SEGGER_RTT.c ****     r = pRing->SizeOfBuffer - 1u - WrOff + RdOff;
  49              		.loc 1 537 5 is_stmt 1 view .LVU10
  50              		.loc 1 537 14 is_stmt 0 view .LVU11
  51 0008 8168     		ldr	r1, [r0, #8]
  52              		.loc 1 537 34 view .LVU12
  53 000a 8A1A     		subs	r2, r1, r2
  54              	.LVL3:
  55              		.loc 1 537 42 view .LVU13
  56 000c 1344     		add	r3, r3, r2
  57              	.LVL4:
  58              		.loc 1 537 7 view .LVU14
  59 000e 581E     		subs	r0, r3, #1
  60              	.LVL5:
  61              		.loc 1 537 7 view .LVU15
  62 0010 7047     		bx	lr
  63              	.LVL6:
  64              	.L2:
 538:Core/Src/SEGGER_RTT.c ****   } else {
 539:Core/Src/SEGGER_RTT.c ****     r = RdOff - WrOff - 1u;
  65              		.loc 1 539 5 is_stmt 1 view .LVU16
  66              		.loc 1 539 15 is_stmt 0 view .LVU17
  67 0012 981A     		subs	r0, r3, r2
  68              	.LVL7:
  69              		.loc 1 539 7 view .LVU18
  70 0014 0138     		subs	r0, r0, #1
  71              	.LVL8:
 540:Core/Src/SEGGER_RTT.c ****   }
 541:Core/Src/SEGGER_RTT.c ****   return r;
  72              		.loc 1 541 3 is_stmt 1 view .LVU19
 542:Core/Src/SEGGER_RTT.c **** }
  73              		.loc 1 542 1 is_stmt 0 view .LVU20
  74 0016 7047     		bx	lr
  75              		.cfi_endproc
  76              	.LFE4:
  78              		.section	.text._WriteNoCheck,"ax",%progbits
  79              		.align	1
  80              		.syntax unified
  81              		.thumb
  82              		.thumb_func
  84              	_WriteNoCheck:
  85              	.LVL9:
  86              	.LFB2:
 436:Core/Src/SEGGER_RTT.c ****   unsigned NumBytesAtOnce;
  87              		.loc 1 436 94 is_stmt 1 view -0
ARM GAS  /var/folders/lp/x54gwt890xv47sdkqj1k04q40000gn/T//ccydrndK.s 			page 12


  88              		.cfi_startproc
  89              		@ args = 0, pretend = 0, frame = 0
  90              		@ frame_needed = 0, uses_anonymous_args = 0
 436:Core/Src/SEGGER_RTT.c ****   unsigned NumBytesAtOnce;
  91              		.loc 1 436 94 is_stmt 0 view .LVU22
  92 0000 2DE9F843 		push	{r3, r4, r5, r6, r7, r8, r9, lr}
  93              		.cfi_def_cfa_offset 32
  94              		.cfi_offset 3, -32
  95              		.cfi_offset 4, -28
  96              		.cfi_offset 5, -24
  97              		.cfi_offset 6, -20
  98              		.cfi_offset 7, -16
  99              		.cfi_offset 8, -12
 100              		.cfi_offset 9, -8
 101              		.cfi_offset 14, -4
 102 0004 0446     		mov	r4, r0
 103 0006 8846     		mov	r8, r1
 104 0008 1646     		mov	r6, r2
 437:Core/Src/SEGGER_RTT.c ****   unsigned WrOff;
 105              		.loc 1 437 3 is_stmt 1 view .LVU23
 438:Core/Src/SEGGER_RTT.c ****   unsigned Rem;
 106              		.loc 1 438 3 view .LVU24
 439:Core/Src/SEGGER_RTT.c ****   volatile char* pDst;
 107              		.loc 1 439 3 view .LVU25
 440:Core/Src/SEGGER_RTT.c **** 
 108              		.loc 1 440 3 view .LVU26
 442:Core/Src/SEGGER_RTT.c ****   Rem = pRing->SizeOfBuffer - WrOff;
 109              		.loc 1 442 3 view .LVU27
 442:Core/Src/SEGGER_RTT.c ****   Rem = pRing->SizeOfBuffer - WrOff;
 110              		.loc 1 442 9 is_stmt 0 view .LVU28
 111 000a C568     		ldr	r5, [r0, #12]
 112              	.LVL10:
 443:Core/Src/SEGGER_RTT.c ****   if (Rem > NumBytes) {
 113              		.loc 1 443 3 is_stmt 1 view .LVU29
 443:Core/Src/SEGGER_RTT.c ****   if (Rem > NumBytes) {
 114              		.loc 1 443 14 is_stmt 0 view .LVU30
 115 000c 8768     		ldr	r7, [r0, #8]
 443:Core/Src/SEGGER_RTT.c ****   if (Rem > NumBytes) {
 116              		.loc 1 443 7 view .LVU31
 117 000e A7EB0509 		sub	r9, r7, r5
 118              	.LVL11:
 444:Core/Src/SEGGER_RTT.c ****     //
 119              		.loc 1 444 3 is_stmt 1 view .LVU32
 444:Core/Src/SEGGER_RTT.c ****     //
 120              		.loc 1 444 6 is_stmt 0 view .LVU33
 121 0012 9145     		cmp	r9, r2
 122 0014 09D9     		bls	.L5
 448:Core/Src/SEGGER_RTT.c **** #if SEGGER_RTT_MEMCPY_USE_BYTELOOP
 123              		.loc 1 448 5 is_stmt 1 view .LVU34
 448:Core/Src/SEGGER_RTT.c **** #if SEGGER_RTT_MEMCPY_USE_BYTELOOP
 124              		.loc 1 448 18 is_stmt 0 view .LVU35
 125 0016 4068     		ldr	r0, [r0, #4]
 126              	.LVL12:
 457:Core/Src/SEGGER_RTT.c ****     RTT__DMB();                     // Force data write to be complete before writing the <WrOff>, 
 127              		.loc 1 457 5 is_stmt 1 view .LVU36
 128 0018 2844     		add	r0, r0, r5
 129              	.LVL13:
ARM GAS  /var/folders/lp/x54gwt890xv47sdkqj1k04q40000gn/T//ccydrndK.s 			page 13


 457:Core/Src/SEGGER_RTT.c ****     RTT__DMB();                     // Force data write to be complete before writing the <WrOff>, 
 130              		.loc 1 457 5 is_stmt 0 view .LVU37
 131 001a FFF7FEFF 		bl	memcpy
 132              	.LVL14:
 458:Core/Src/SEGGER_RTT.c ****     pRing->WrOff = WrOff + NumBytes;
 133              		.loc 1 458 5 is_stmt 1 view .LVU38
 134              		.syntax unified
 135              	@ 458 "Core/Src/SEGGER_RTT.c" 1
 136 001e BFF35F8F 		dmb
 137              	
 138              	@ 0 "" 2
 458:Core/Src/SEGGER_RTT.c ****     pRing->WrOff = WrOff + NumBytes;
 139              		.loc 1 458 15 view .LVU39
 459:Core/Src/SEGGER_RTT.c **** #endif
 140              		.loc 1 459 5 view .LVU40
 459:Core/Src/SEGGER_RTT.c **** #endif
 141              		.loc 1 459 26 is_stmt 0 view .LVU41
 142              		.thumb
 143              		.syntax unified
 144 0022 3544     		add	r5, r5, r6
 145              	.LVL15:
 459:Core/Src/SEGGER_RTT.c **** #endif
 146              		.loc 1 459 18 view .LVU42
 147 0024 E560     		str	r5, [r4, #12]
 148              	.LVL16:
 149              	.L4:
 489:Core/Src/SEGGER_RTT.c **** 
 150              		.loc 1 489 1 view .LVU43
 151 0026 BDE8F883 		pop	{r3, r4, r5, r6, r7, r8, r9, pc}
 152              	.LVL17:
 153              	.L5:
 479:Core/Src/SEGGER_RTT.c ****     pDst = (pRing->pBuffer + WrOff) + SEGGER_RTT_UNCACHED_OFF;
 154              		.loc 1 479 5 is_stmt 1 view .LVU44
 480:Core/Src/SEGGER_RTT.c ****     SEGGER_RTT_MEMCPY((void*)pDst, pData, NumBytesAtOnce);
 155              		.loc 1 480 5 view .LVU45
 480:Core/Src/SEGGER_RTT.c ****     SEGGER_RTT_MEMCPY((void*)pDst, pData, NumBytesAtOnce);
 156              		.loc 1 480 18 is_stmt 0 view .LVU46
 157 002a 4068     		ldr	r0, [r0, #4]
 158              	.LVL18:
 481:Core/Src/SEGGER_RTT.c ****     NumBytesAtOnce = NumBytes - Rem;
 159              		.loc 1 481 5 is_stmt 1 view .LVU47
 160 002c 4A46     		mov	r2, r9
 161              	.LVL19:
 481:Core/Src/SEGGER_RTT.c ****     NumBytesAtOnce = NumBytes - Rem;
 162              		.loc 1 481 5 is_stmt 0 view .LVU48
 163 002e 2844     		add	r0, r0, r5
 164              	.LVL20:
 481:Core/Src/SEGGER_RTT.c ****     NumBytesAtOnce = NumBytes - Rem;
 165              		.loc 1 481 5 view .LVU49
 166 0030 FFF7FEFF 		bl	memcpy
 167              	.LVL21:
 482:Core/Src/SEGGER_RTT.c ****     pDst = pRing->pBuffer + SEGGER_RTT_UNCACHED_OFF;
 168              		.loc 1 482 5 is_stmt 1 view .LVU50
 482:Core/Src/SEGGER_RTT.c ****     pDst = pRing->pBuffer + SEGGER_RTT_UNCACHED_OFF;
 169              		.loc 1 482 20 is_stmt 0 view .LVU51
 170 0034 ED1B     		subs	r5, r5, r7
 171              	.LVL22:
ARM GAS  /var/folders/lp/x54gwt890xv47sdkqj1k04q40000gn/T//ccydrndK.s 			page 14


 482:Core/Src/SEGGER_RTT.c ****     pDst = pRing->pBuffer + SEGGER_RTT_UNCACHED_OFF;
 172              		.loc 1 482 20 view .LVU52
 173 0036 3544     		add	r5, r5, r6
 174              	.LVL23:
 483:Core/Src/SEGGER_RTT.c ****     SEGGER_RTT_MEMCPY((void*)pDst, pData + Rem, NumBytesAtOnce);
 175              		.loc 1 483 5 is_stmt 1 view .LVU53
 484:Core/Src/SEGGER_RTT.c ****     RTT__DMB();                     // Force data write to be complete before writing the <WrOff>, 
 176              		.loc 1 484 5 view .LVU54
 177 0038 2A46     		mov	r2, r5
 178 003a 08EB0901 		add	r1, r8, r9
 179 003e 6068     		ldr	r0, [r4, #4]
 180 0040 FFF7FEFF 		bl	memcpy
 181              	.LVL24:
 485:Core/Src/SEGGER_RTT.c ****     pRing->WrOff = NumBytesAtOnce;
 182              		.loc 1 485 5 view .LVU55
 183              		.syntax unified
 184              	@ 485 "Core/Src/SEGGER_RTT.c" 1
 185 0044 BFF35F8F 		dmb
 186              	
 187              	@ 0 "" 2
 485:Core/Src/SEGGER_RTT.c ****     pRing->WrOff = NumBytesAtOnce;
 188              		.loc 1 485 15 view .LVU56
 486:Core/Src/SEGGER_RTT.c **** #endif
 189              		.loc 1 486 5 view .LVU57
 486:Core/Src/SEGGER_RTT.c **** #endif
 190              		.loc 1 486 18 is_stmt 0 view .LVU58
 191              		.thumb
 192              		.syntax unified
 193 0048 E560     		str	r5, [r4, #12]
 489:Core/Src/SEGGER_RTT.c **** 
 194              		.loc 1 489 1 view .LVU59
 195 004a ECE7     		b	.L4
 196              		.cfi_endproc
 197              	.LFE2:
 199              		.section	.text._WriteBlocking,"ax",%progbits
 200              		.align	1
 201              		.syntax unified
 202              		.thumb
 203              		.thumb_func
 205              	_WriteBlocking:
 206              	.LVL25:
 207              	.LFB1:
 374:Core/Src/SEGGER_RTT.c ****   unsigned NumBytesToWrite;
 208              		.loc 1 374 101 is_stmt 1 view -0
 209              		.cfi_startproc
 210              		@ args = 0, pretend = 0, frame = 0
 211              		@ frame_needed = 0, uses_anonymous_args = 0
 374:Core/Src/SEGGER_RTT.c ****   unsigned NumBytesToWrite;
 212              		.loc 1 374 101 is_stmt 0 view .LVU61
 213 0000 2DE9F843 		push	{r3, r4, r5, r6, r7, r8, r9, lr}
 214              		.cfi_def_cfa_offset 32
 215              		.cfi_offset 3, -32
 216              		.cfi_offset 4, -28
 217              		.cfi_offset 5, -24
 218              		.cfi_offset 6, -20
 219              		.cfi_offset 7, -16
 220              		.cfi_offset 8, -12
ARM GAS  /var/folders/lp/x54gwt890xv47sdkqj1k04q40000gn/T//ccydrndK.s 			page 15


 221              		.cfi_offset 9, -8
 222              		.cfi_offset 14, -4
 223 0004 0646     		mov	r6, r0
 224 0006 8846     		mov	r8, r1
 225 0008 1746     		mov	r7, r2
 375:Core/Src/SEGGER_RTT.c ****   unsigned NumBytesWritten;
 226              		.loc 1 375 3 is_stmt 1 view .LVU62
 376:Core/Src/SEGGER_RTT.c ****   unsigned RdOff;
 227              		.loc 1 376 3 view .LVU63
 377:Core/Src/SEGGER_RTT.c ****   unsigned WrOff;
 228              		.loc 1 377 3 view .LVU64
 378:Core/Src/SEGGER_RTT.c ****   volatile char* pDst;
 229              		.loc 1 378 3 view .LVU65
 379:Core/Src/SEGGER_RTT.c ****   //
 230              		.loc 1 379 3 view .LVU66
 383:Core/Src/SEGGER_RTT.c ****   WrOff = pRing->WrOff;
 231              		.loc 1 383 3 view .LVU67
 232              	.LVL26:
 384:Core/Src/SEGGER_RTT.c ****   do {
 233              		.loc 1 384 3 view .LVU68
 384:Core/Src/SEGGER_RTT.c ****   do {
 234              		.loc 1 384 9 is_stmt 0 view .LVU69
 235 000a C568     		ldr	r5, [r0, #12]
 236              	.LVL27:
 383:Core/Src/SEGGER_RTT.c ****   WrOff = pRing->WrOff;
 237              		.loc 1 383 19 view .LVU70
 238 000c 4FF00009 		mov	r9, #0
 239 0010 1AE0     		b	.L12
 240              	.LVL28:
 241              	.L17:
 388:Core/Src/SEGGER_RTT.c ****     } else {
 242              		.loc 1 388 7 is_stmt 1 view .LVU71
 388:Core/Src/SEGGER_RTT.c ****     } else {
 243              		.loc 1 388 31 is_stmt 0 view .LVU72
 244 0012 5B1B     		subs	r3, r3, r5
 245              	.LVL29:
 388:Core/Src/SEGGER_RTT.c ****     } else {
 246              		.loc 1 388 23 view .LVU73
 247 0014 5A1E     		subs	r2, r3, #1
 248              	.LVL30:
 249              	.L10:
 392:Core/Src/SEGGER_RTT.c ****     NumBytesToWrite = MIN(NumBytesToWrite, NumBytes);
 250              		.loc 1 392 5 is_stmt 1 view .LVU74
 392:Core/Src/SEGGER_RTT.c ****     NumBytesToWrite = MIN(NumBytesToWrite, NumBytes);
 251              		.loc 1 392 23 is_stmt 0 view .LVU75
 252 0016 B368     		ldr	r3, [r6, #8]
 253 0018 5C1B     		subs	r4, r3, r5
 392:Core/Src/SEGGER_RTT.c ****     NumBytesToWrite = MIN(NumBytesToWrite, NumBytes);
 254              		.loc 1 392 21 view .LVU76
 255 001a 9442     		cmp	r4, r2
 256 001c 28BF     		it	cs
 257 001e 1446     		movcs	r4, r2
 258              	.LVL31:
 393:Core/Src/SEGGER_RTT.c ****     pDst = (pRing->pBuffer + WrOff) + SEGGER_RTT_UNCACHED_OFF;
 259              		.loc 1 393 5 is_stmt 1 view .LVU77
 393:Core/Src/SEGGER_RTT.c ****     pDst = (pRing->pBuffer + WrOff) + SEGGER_RTT_UNCACHED_OFF;
 260              		.loc 1 393 21 is_stmt 0 view .LVU78
ARM GAS  /var/folders/lp/x54gwt890xv47sdkqj1k04q40000gn/T//ccydrndK.s 			page 16


 261 0020 BC42     		cmp	r4, r7
 262 0022 28BF     		it	cs
 263 0024 3C46     		movcs	r4, r7
 264              	.LVL32:
 394:Core/Src/SEGGER_RTT.c **** #if SEGGER_RTT_MEMCPY_USE_BYTELOOP
 265              		.loc 1 394 5 is_stmt 1 view .LVU79
 394:Core/Src/SEGGER_RTT.c **** #if SEGGER_RTT_MEMCPY_USE_BYTELOOP
 266              		.loc 1 394 18 is_stmt 0 view .LVU80
 267 0026 7068     		ldr	r0, [r6, #4]
 268              	.LVL33:
 403:Core/Src/SEGGER_RTT.c ****     NumBytesWritten += NumBytesToWrite;
 269              		.loc 1 403 5 is_stmt 1 view .LVU81
 270 0028 2246     		mov	r2, r4
 271 002a 4146     		mov	r1, r8
 272 002c 2844     		add	r0, r0, r5
 273              	.LVL34:
 403:Core/Src/SEGGER_RTT.c ****     NumBytesWritten += NumBytesToWrite;
 274              		.loc 1 403 5 is_stmt 0 view .LVU82
 275 002e FFF7FEFF 		bl	memcpy
 276              	.LVL35:
 404:Core/Src/SEGGER_RTT.c ****     pBuffer         += NumBytesToWrite;
 277              		.loc 1 404 5 is_stmt 1 view .LVU83
 404:Core/Src/SEGGER_RTT.c ****     pBuffer         += NumBytesToWrite;
 278              		.loc 1 404 21 is_stmt 0 view .LVU84
 279 0032 A144     		add	r9, r9, r4
 280              	.LVL36:
 405:Core/Src/SEGGER_RTT.c ****     NumBytes        -= NumBytesToWrite;
 281              		.loc 1 405 5 is_stmt 1 view .LVU85
 405:Core/Src/SEGGER_RTT.c ****     NumBytes        -= NumBytesToWrite;
 282              		.loc 1 405 21 is_stmt 0 view .LVU86
 283 0034 A044     		add	r8, r8, r4
 284              	.LVL37:
 406:Core/Src/SEGGER_RTT.c ****     WrOff           += NumBytesToWrite;
 285              		.loc 1 406 5 is_stmt 1 view .LVU87
 406:Core/Src/SEGGER_RTT.c ****     WrOff           += NumBytesToWrite;
 286              		.loc 1 406 21 is_stmt 0 view .LVU88
 287 0036 3F1B     		subs	r7, r7, r4
 288              	.LVL38:
 407:Core/Src/SEGGER_RTT.c **** #endif
 289              		.loc 1 407 5 is_stmt 1 view .LVU89
 407:Core/Src/SEGGER_RTT.c **** #endif
 290              		.loc 1 407 21 is_stmt 0 view .LVU90
 291 0038 2544     		add	r5, r5, r4
 292              	.LVL39:
 409:Core/Src/SEGGER_RTT.c ****       WrOff = 0u;
 293              		.loc 1 409 5 is_stmt 1 view .LVU91
 409:Core/Src/SEGGER_RTT.c ****       WrOff = 0u;
 294              		.loc 1 409 23 is_stmt 0 view .LVU92
 295 003a B368     		ldr	r3, [r6, #8]
 409:Core/Src/SEGGER_RTT.c ****       WrOff = 0u;
 296              		.loc 1 409 8 view .LVU93
 297 003c AB42     		cmp	r3, r5
 298 003e 0BD0     		beq	.L15
 299              	.LVL40:
 300              	.L11:
 412:Core/Src/SEGGER_RTT.c ****     pRing->WrOff = WrOff;
 301              		.loc 1 412 5 is_stmt 1 view .LVU94
ARM GAS  /var/folders/lp/x54gwt890xv47sdkqj1k04q40000gn/T//ccydrndK.s 			page 17


 302              		.syntax unified
 303              	@ 412 "Core/Src/SEGGER_RTT.c" 1
 304 0040 BFF35F8F 		dmb
 305              	
 306              	@ 0 "" 2
 412:Core/Src/SEGGER_RTT.c ****     pRing->WrOff = WrOff;
 307              		.loc 1 412 15 view .LVU95
 413:Core/Src/SEGGER_RTT.c ****   } while (NumBytes);
 308              		.loc 1 413 5 view .LVU96
 413:Core/Src/SEGGER_RTT.c ****   } while (NumBytes);
 309              		.loc 1 413 18 is_stmt 0 view .LVU97
 310              		.thumb
 311              		.syntax unified
 312 0044 F560     		str	r5, [r6, #12]
 414:Core/Src/SEGGER_RTT.c ****   return NumBytesWritten;
 313              		.loc 1 414 12 is_stmt 1 view .LVU98
 314 0046 4FB1     		cbz	r7, .L16
 315              	.LVL41:
 316              	.L12:
 385:Core/Src/SEGGER_RTT.c ****     RdOff = pRing->RdOff;                         // May be changed by host (debug probe) in the me
 317              		.loc 1 385 3 view .LVU99
 386:Core/Src/SEGGER_RTT.c ****     if (RdOff > WrOff) {
 318              		.loc 1 386 5 view .LVU100
 386:Core/Src/SEGGER_RTT.c ****     if (RdOff > WrOff) {
 319              		.loc 1 386 11 is_stmt 0 view .LVU101
 320 0048 3369     		ldr	r3, [r6, #16]
 321              	.LVL42:
 387:Core/Src/SEGGER_RTT.c ****       NumBytesToWrite = RdOff - WrOff - 1u;
 322              		.loc 1 387 5 is_stmt 1 view .LVU102
 387:Core/Src/SEGGER_RTT.c ****       NumBytesToWrite = RdOff - WrOff - 1u;
 323              		.loc 1 387 8 is_stmt 0 view .LVU103
 324 004a 9D42     		cmp	r5, r3
 325 004c E1D3     		bcc	.L17
 390:Core/Src/SEGGER_RTT.c ****     }
 326              		.loc 1 390 7 is_stmt 1 view .LVU104
 390:Core/Src/SEGGER_RTT.c ****     }
 327              		.loc 1 390 30 is_stmt 0 view .LVU105
 328 004e B268     		ldr	r2, [r6, #8]
 390:Core/Src/SEGGER_RTT.c ****     }
 329              		.loc 1 390 62 view .LVU106
 330 0050 5B1B     		subs	r3, r3, r5
 331              	.LVL43:
 390:Core/Src/SEGGER_RTT.c ****     }
 332              		.loc 1 390 45 view .LVU107
 333 0052 1A44     		add	r2, r2, r3
 390:Core/Src/SEGGER_RTT.c ****     }
 334              		.loc 1 390 23 view .LVU108
 335 0054 013A     		subs	r2, r2, #1
 336              	.LVL44:
 390:Core/Src/SEGGER_RTT.c ****     }
 337              		.loc 1 390 23 view .LVU109
 338 0056 DEE7     		b	.L10
 339              	.LVL45:
 340              	.L15:
 410:Core/Src/SEGGER_RTT.c ****     }
 341              		.loc 1 410 13 view .LVU110
 342 0058 0025     		movs	r5, #0
ARM GAS  /var/folders/lp/x54gwt890xv47sdkqj1k04q40000gn/T//ccydrndK.s 			page 18


 343              	.LVL46:
 410:Core/Src/SEGGER_RTT.c ****     }
 344              		.loc 1 410 13 view .LVU111
 345 005a F1E7     		b	.L11
 346              	.LVL47:
 347              	.L16:
 415:Core/Src/SEGGER_RTT.c **** }
 348              		.loc 1 415 3 is_stmt 1 view .LVU112
 416:Core/Src/SEGGER_RTT.c **** 
 349              		.loc 1 416 1 is_stmt 0 view .LVU113
 350 005c 4846     		mov	r0, r9
 351 005e BDE8F883 		pop	{r3, r4, r5, r6, r7, r8, r9, pc}
 416:Core/Src/SEGGER_RTT.c **** 
 352              		.loc 1 416 1 view .LVU114
 353              		.cfi_endproc
 354              	.LFE1:
 356              		.section	.text._PostTerminalSwitch,"ax",%progbits
 357              		.align	1
 358              		.syntax unified
 359              		.thumb
 360              		.thumb_func
 362              	_PostTerminalSwitch:
 363              	.LVL48:
 364              	.LFB3:
 504:Core/Src/SEGGER_RTT.c ****   unsigned char ac[2];
 365              		.loc 1 504 88 is_stmt 1 view -0
 366              		.cfi_startproc
 367              		@ args = 0, pretend = 0, frame = 8
 368              		@ frame_needed = 0, uses_anonymous_args = 0
 504:Core/Src/SEGGER_RTT.c ****   unsigned char ac[2];
 369              		.loc 1 504 88 is_stmt 0 view .LVU116
 370 0000 00B5     		push	{lr}
 371              		.cfi_def_cfa_offset 4
 372              		.cfi_offset 14, -4
 373 0002 83B0     		sub	sp, sp, #12
 374              		.cfi_def_cfa_offset 16
 505:Core/Src/SEGGER_RTT.c **** 
 375              		.loc 1 505 3 is_stmt 1 view .LVU117
 507:Core/Src/SEGGER_RTT.c ****   ac[1] = _aTerminalId[TerminalId];  // Caller made already sure that TerminalId does not exceed ou
 376              		.loc 1 507 3 view .LVU118
 507:Core/Src/SEGGER_RTT.c ****   ac[1] = _aTerminalId[TerminalId];  // Caller made already sure that TerminalId does not exceed ou
 377              		.loc 1 507 9 is_stmt 0 view .LVU119
 378 0004 FF23     		movs	r3, #255
 379 0006 8DF80430 		strb	r3, [sp, #4]
 508:Core/Src/SEGGER_RTT.c ****   _WriteBlocking(pRing, (const char*)ac, 2u);
 380              		.loc 1 508 3 is_stmt 1 view .LVU120
 508:Core/Src/SEGGER_RTT.c ****   _WriteBlocking(pRing, (const char*)ac, 2u);
 381              		.loc 1 508 23 is_stmt 0 view .LVU121
 382 000a 054B     		ldr	r3, .L20
 383 000c 5B5C     		ldrb	r3, [r3, r1]	@ zero_extendqisi2
 508:Core/Src/SEGGER_RTT.c ****   _WriteBlocking(pRing, (const char*)ac, 2u);
 384              		.loc 1 508 9 view .LVU122
 385 000e 8DF80530 		strb	r3, [sp, #5]
 509:Core/Src/SEGGER_RTT.c **** }
 386              		.loc 1 509 3 is_stmt 1 view .LVU123
 387 0012 0222     		movs	r2, #2
 388 0014 01A9     		add	r1, sp, #4
ARM GAS  /var/folders/lp/x54gwt890xv47sdkqj1k04q40000gn/T//ccydrndK.s 			page 19


 389              	.LVL49:
 509:Core/Src/SEGGER_RTT.c **** }
 390              		.loc 1 509 3 is_stmt 0 view .LVU124
 391 0016 FFF7FEFF 		bl	_WriteBlocking
 392              	.LVL50:
 510:Core/Src/SEGGER_RTT.c **** 
 393              		.loc 1 510 1 view .LVU125
 394 001a 03B0     		add	sp, sp, #12
 395              		.cfi_def_cfa_offset 4
 396              		@ sp needed
 397 001c 5DF804FB 		ldr	pc, [sp], #4
 398              	.L21:
 399              		.align	2
 400              	.L20:
 401 0020 00000000 		.word	_aTerminalId
 402              		.cfi_endproc
 403              	.LFE3:
 405              		.section	.rodata._DoInit.str1.4,"aMS",%progbits,1
 406              		.align	2
 407              	.LC0:
 408 0000 5465726D 		.ascii	"Terminal\000"
 408      696E616C 
 408      00
 409              		.section	.text._DoInit,"ax",%progbits
 410              		.align	1
 411              		.syntax unified
 412              		.thumb
 413              		.thumb_func
 415              	_DoInit:
 416              	.LFB0:
 314:Core/Src/SEGGER_RTT.c ****   volatile SEGGER_RTT_CB* p;   // Volatile to make sure that compiler cannot change the order of ac
 417              		.loc 1 314 27 is_stmt 1 view -0
 418              		.cfi_startproc
 419              		@ args = 0, pretend = 0, frame = 0
 420              		@ frame_needed = 0, uses_anonymous_args = 0
 421 0000 10B5     		push	{r4, lr}
 422              		.cfi_def_cfa_offset 8
 423              		.cfi_offset 4, -8
 424              		.cfi_offset 14, -4
 315:Core/Src/SEGGER_RTT.c ****   static const char _aInitStr[] = "\0\0\0\0\0\0TTR REGGES";  // Init complete ID string to make sur
 425              		.loc 1 315 3 view .LVU127
 316:Core/Src/SEGGER_RTT.c ****   unsigned i;
 426              		.loc 1 316 3 view .LVU128
 317:Core/Src/SEGGER_RTT.c ****   //
 427              		.loc 1 317 3 view .LVU129
 321:Core/Src/SEGGER_RTT.c ****   memset((SEGGER_RTT_CB*)p, 0, sizeof(_SEGGER_RTT));         // Make sure that the RTT CB is always
 428              		.loc 1 321 3 view .LVU130
 429              	.LVL51:
 322:Core/Src/SEGGER_RTT.c ****   p->MaxNumUpBuffers    = SEGGER_RTT_MAX_NUM_UP_BUFFERS;
 430              		.loc 1 322 3 view .LVU131
 431 0002 154C     		ldr	r4, .L26
 432 0004 A822     		movs	r2, #168
 433 0006 0021     		movs	r1, #0
 434 0008 2046     		mov	r0, r4
 435 000a FFF7FEFF 		bl	memset
 436              	.LVL52:
 323:Core/Src/SEGGER_RTT.c ****   p->MaxNumDownBuffers  = SEGGER_RTT_MAX_NUM_DOWN_BUFFERS;
ARM GAS  /var/folders/lp/x54gwt890xv47sdkqj1k04q40000gn/T//ccydrndK.s 			page 20


 437              		.loc 1 323 3 view .LVU132
 323:Core/Src/SEGGER_RTT.c ****   p->MaxNumDownBuffers  = SEGGER_RTT_MAX_NUM_DOWN_BUFFERS;
 438              		.loc 1 323 25 is_stmt 0 view .LVU133
 439 000e 0323     		movs	r3, #3
 440 0010 2361     		str	r3, [r4, #16]
 324:Core/Src/SEGGER_RTT.c ****   //
 441              		.loc 1 324 3 is_stmt 1 view .LVU134
 324:Core/Src/SEGGER_RTT.c ****   //
 442              		.loc 1 324 25 is_stmt 0 view .LVU135
 443 0012 6361     		str	r3, [r4, #20]
 328:Core/Src/SEGGER_RTT.c ****   p->aUp[0].pBuffer       = _acUpBuffer;
 444              		.loc 1 328 3 is_stmt 1 view .LVU136
 328:Core/Src/SEGGER_RTT.c ****   p->aUp[0].pBuffer       = _acUpBuffer;
 445              		.loc 1 328 27 is_stmt 0 view .LVU137
 446 0014 114A     		ldr	r2, .L26+4
 447 0016 A261     		str	r2, [r4, #24]
 329:Core/Src/SEGGER_RTT.c ****   p->aUp[0].SizeOfBuffer  = BUFFER_SIZE_UP;
 448              		.loc 1 329 3 is_stmt 1 view .LVU138
 329:Core/Src/SEGGER_RTT.c ****   p->aUp[0].SizeOfBuffer  = BUFFER_SIZE_UP;
 449              		.loc 1 329 27 is_stmt 0 view .LVU139
 450 0018 114B     		ldr	r3, .L26+8
 451 001a E361     		str	r3, [r4, #28]
 330:Core/Src/SEGGER_RTT.c ****   p->aUp[0].RdOff         = 0u;
 452              		.loc 1 330 3 is_stmt 1 view .LVU140
 330:Core/Src/SEGGER_RTT.c ****   p->aUp[0].RdOff         = 0u;
 453              		.loc 1 330 27 is_stmt 0 view .LVU141
 454 001c 4FF48063 		mov	r3, #1024
 455 0020 2362     		str	r3, [r4, #32]
 331:Core/Src/SEGGER_RTT.c ****   p->aUp[0].WrOff         = 0u;
 456              		.loc 1 331 3 is_stmt 1 view .LVU142
 331:Core/Src/SEGGER_RTT.c ****   p->aUp[0].WrOff         = 0u;
 457              		.loc 1 331 27 is_stmt 0 view .LVU143
 458 0022 0023     		movs	r3, #0
 459 0024 A362     		str	r3, [r4, #40]
 332:Core/Src/SEGGER_RTT.c ****   p->aUp[0].Flags         = SEGGER_RTT_MODE_DEFAULT;
 460              		.loc 1 332 3 is_stmt 1 view .LVU144
 332:Core/Src/SEGGER_RTT.c ****   p->aUp[0].Flags         = SEGGER_RTT_MODE_DEFAULT;
 461              		.loc 1 332 27 is_stmt 0 view .LVU145
 462 0026 6362     		str	r3, [r4, #36]
 333:Core/Src/SEGGER_RTT.c ****   //
 463              		.loc 1 333 3 is_stmt 1 view .LVU146
 333:Core/Src/SEGGER_RTT.c ****   //
 464              		.loc 1 333 27 is_stmt 0 view .LVU147
 465 0028 E362     		str	r3, [r4, #44]
 337:Core/Src/SEGGER_RTT.c ****   p->aDown[0].pBuffer       = _acDownBuffer;
 466              		.loc 1 337 3 is_stmt 1 view .LVU148
 337:Core/Src/SEGGER_RTT.c ****   p->aDown[0].pBuffer       = _acDownBuffer;
 467              		.loc 1 337 29 is_stmt 0 view .LVU149
 468 002a 2266     		str	r2, [r4, #96]
 338:Core/Src/SEGGER_RTT.c ****   p->aDown[0].SizeOfBuffer  = BUFFER_SIZE_DOWN;
 469              		.loc 1 338 3 is_stmt 1 view .LVU150
 338:Core/Src/SEGGER_RTT.c ****   p->aDown[0].SizeOfBuffer  = BUFFER_SIZE_DOWN;
 470              		.loc 1 338 29 is_stmt 0 view .LVU151
 471 002c 0D4A     		ldr	r2, .L26+12
 472 002e 6266     		str	r2, [r4, #100]
 339:Core/Src/SEGGER_RTT.c ****   p->aDown[0].RdOff         = 0u;
 473              		.loc 1 339 3 is_stmt 1 view .LVU152
ARM GAS  /var/folders/lp/x54gwt890xv47sdkqj1k04q40000gn/T//ccydrndK.s 			page 21


 339:Core/Src/SEGGER_RTT.c ****   p->aDown[0].RdOff         = 0u;
 474              		.loc 1 339 29 is_stmt 0 view .LVU153
 475 0030 1022     		movs	r2, #16
 476 0032 A266     		str	r2, [r4, #104]
 340:Core/Src/SEGGER_RTT.c ****   p->aDown[0].WrOff         = 0u;
 477              		.loc 1 340 3 is_stmt 1 view .LVU154
 340:Core/Src/SEGGER_RTT.c ****   p->aDown[0].WrOff         = 0u;
 478              		.loc 1 340 29 is_stmt 0 view .LVU155
 479 0034 2367     		str	r3, [r4, #112]
 341:Core/Src/SEGGER_RTT.c ****   p->aDown[0].Flags         = SEGGER_RTT_MODE_DEFAULT;
 480              		.loc 1 341 3 is_stmt 1 view .LVU156
 341:Core/Src/SEGGER_RTT.c ****   p->aDown[0].Flags         = SEGGER_RTT_MODE_DEFAULT;
 481              		.loc 1 341 29 is_stmt 0 view .LVU157
 482 0036 E366     		str	r3, [r4, #108]
 342:Core/Src/SEGGER_RTT.c ****   //
 483              		.loc 1 342 3 is_stmt 1 view .LVU158
 342:Core/Src/SEGGER_RTT.c ****   //
 484              		.loc 1 342 29 is_stmt 0 view .LVU159
 485 0038 6367     		str	r3, [r4, #116]
 348:Core/Src/SEGGER_RTT.c ****   for (i = 0; i < sizeof(_aInitStr) - 1; ++i) {
 486              		.loc 1 348 3 is_stmt 1 view .LVU160
 487              		.syntax unified
 488              	@ 348 "Core/Src/SEGGER_RTT.c" 1
 489 003a BFF35F8F 		dmb
 490              	
 491              	@ 0 "" 2
 348:Core/Src/SEGGER_RTT.c ****   for (i = 0; i < sizeof(_aInitStr) - 1; ++i) {
 492              		.loc 1 348 13 view .LVU161
 349:Core/Src/SEGGER_RTT.c ****     p->acID[i] = _aInitStr[sizeof(_aInitStr) - 2 - i];  // Skip terminating \0 at the end of the ar
 493              		.loc 1 349 3 view .LVU162
 494              	.LVL53:
 349:Core/Src/SEGGER_RTT.c ****     p->acID[i] = _aInitStr[sizeof(_aInitStr) - 2 - i];  // Skip terminating \0 at the end of the ar
 495              		.loc 1 349 3 is_stmt 0 view .LVU163
 496              		.thumb
 497              		.syntax unified
 498 003e 06E0     		b	.L23
 499              	.LVL54:
 500              	.L24:
 350:Core/Src/SEGGER_RTT.c ****   }
 501              		.loc 1 350 5 is_stmt 1 view .LVU164
 350:Core/Src/SEGGER_RTT.c ****   }
 502              		.loc 1 350 50 is_stmt 0 view .LVU165
 503 0040 C3F10F02 		rsb	r2, r3, #15
 350:Core/Src/SEGGER_RTT.c ****   }
 504              		.loc 1 350 27 view .LVU166
 505 0044 0849     		ldr	r1, .L26+16
 506 0046 895C     		ldrb	r1, [r1, r2]	@ zero_extendqisi2
 350:Core/Src/SEGGER_RTT.c ****   }
 507              		.loc 1 350 16 view .LVU167
 508 0048 034A     		ldr	r2, .L26
 509 004a D154     		strb	r1, [r2, r3]
 349:Core/Src/SEGGER_RTT.c ****     p->acID[i] = _aInitStr[sizeof(_aInitStr) - 2 - i];  // Skip terminating \0 at the end of the ar
 510              		.loc 1 349 42 is_stmt 1 discriminator 3 view .LVU168
 511 004c 0133     		adds	r3, r3, #1
 512              	.LVL55:
 513              	.L23:
 349:Core/Src/SEGGER_RTT.c ****     p->acID[i] = _aInitStr[sizeof(_aInitStr) - 2 - i];  // Skip terminating \0 at the end of the ar
ARM GAS  /var/folders/lp/x54gwt890xv47sdkqj1k04q40000gn/T//ccydrndK.s 			page 22


 514              		.loc 1 349 17 discriminator 1 view .LVU169
 515 004e 0F2B     		cmp	r3, #15
 516 0050 F6D9     		bls	.L24
 352:Core/Src/SEGGER_RTT.c **** }
 517              		.loc 1 352 3 view .LVU170
 518              		.syntax unified
 519              	@ 352 "Core/Src/SEGGER_RTT.c" 1
 520 0052 BFF35F8F 		dmb
 521              	
 522              	@ 0 "" 2
 352:Core/Src/SEGGER_RTT.c **** }
 523              		.loc 1 352 13 view .LVU171
 353:Core/Src/SEGGER_RTT.c **** 
 524              		.loc 1 353 1 is_stmt 0 view .LVU172
 525              		.thumb
 526              		.syntax unified
 527 0056 10BD     		pop	{r4, pc}
 528              	.L27:
 529              		.align	2
 530              	.L26:
 531 0058 00000000 		.word	_SEGGER_RTT
 532 005c 00000000 		.word	.LC0
 533 0060 00000000 		.word	_acUpBuffer
 534 0064 00000000 		.word	_acDownBuffer
 535 0068 00000000 		.word	_aInitStr.0
 536              		.cfi_endproc
 537              	.LFE0:
 539              		.section	.text.SEGGER_RTT_ReadUpBufferNoLock,"ax",%progbits
 540              		.align	1
 541              		.global	SEGGER_RTT_ReadUpBufferNoLock
 542              		.syntax unified
 543              		.thumb
 544              		.thumb_func
 546              	SEGGER_RTT_ReadUpBufferNoLock:
 547              	.LVL56:
 548              	.LFB5:
 543:Core/Src/SEGGER_RTT.c **** 
 544:Core/Src/SEGGER_RTT.c **** /*********************************************************************
 545:Core/Src/SEGGER_RTT.c **** *
 546:Core/Src/SEGGER_RTT.c **** *       Public code
 547:Core/Src/SEGGER_RTT.c **** *
 548:Core/Src/SEGGER_RTT.c **** **********************************************************************
 549:Core/Src/SEGGER_RTT.c **** */
 550:Core/Src/SEGGER_RTT.c **** 
 551:Core/Src/SEGGER_RTT.c **** /*********************************************************************
 552:Core/Src/SEGGER_RTT.c **** *
 553:Core/Src/SEGGER_RTT.c **** *       SEGGER_RTT_ReadUpBufferNoLock()
 554:Core/Src/SEGGER_RTT.c **** *
 555:Core/Src/SEGGER_RTT.c **** *  Function description
 556:Core/Src/SEGGER_RTT.c **** *    Reads characters from SEGGER real-time-terminal control block
 557:Core/Src/SEGGER_RTT.c **** *    which have been previously stored by the application.
 558:Core/Src/SEGGER_RTT.c **** *    Do not lock against interrupts and multiple access.
 559:Core/Src/SEGGER_RTT.c **** *    Used to do the same operation that J-Link does, to transfer 
 560:Core/Src/SEGGER_RTT.c **** *    RTT data via other channels, such as TCP/IP or UART.
 561:Core/Src/SEGGER_RTT.c **** *
 562:Core/Src/SEGGER_RTT.c **** *  Parameters
 563:Core/Src/SEGGER_RTT.c **** *    BufferIndex  Index of Up-buffer to be used.
ARM GAS  /var/folders/lp/x54gwt890xv47sdkqj1k04q40000gn/T//ccydrndK.s 			page 23


 564:Core/Src/SEGGER_RTT.c **** *    pBuffer      Pointer to buffer provided by target application, to copy characters from RTT-up-
 565:Core/Src/SEGGER_RTT.c **** *    BufferSize   Size of the target application buffer.
 566:Core/Src/SEGGER_RTT.c **** *
 567:Core/Src/SEGGER_RTT.c **** *  Return value
 568:Core/Src/SEGGER_RTT.c **** *    Number of bytes that have been read.
 569:Core/Src/SEGGER_RTT.c **** *
 570:Core/Src/SEGGER_RTT.c **** *  Additional information
 571:Core/Src/SEGGER_RTT.c **** *    This function must not be called when J-Link might also do RTT.
 572:Core/Src/SEGGER_RTT.c **** */
 573:Core/Src/SEGGER_RTT.c **** unsigned SEGGER_RTT_ReadUpBufferNoLock(unsigned BufferIndex, void* pData, unsigned BufferSize) {
 549              		.loc 1 573 96 is_stmt 1 view -0
 550              		.cfi_startproc
 551              		@ args = 0, pretend = 0, frame = 0
 552              		@ frame_needed = 0, uses_anonymous_args = 0
 553              		.loc 1 573 96 is_stmt 0 view .LVU174
 554 0000 2DE9F047 		push	{r4, r5, r6, r7, r8, r9, r10, lr}
 555              		.cfi_def_cfa_offset 32
 556              		.cfi_offset 4, -32
 557              		.cfi_offset 5, -28
 558              		.cfi_offset 6, -24
 559              		.cfi_offset 7, -20
 560              		.cfi_offset 8, -16
 561              		.cfi_offset 9, -12
 562              		.cfi_offset 10, -8
 563              		.cfi_offset 14, -4
 564 0004 0446     		mov	r4, r0
 565 0006 8846     		mov	r8, r1
 566 0008 9146     		mov	r9, r2
 574:Core/Src/SEGGER_RTT.c ****   unsigned                NumBytesRem;
 567              		.loc 1 574 3 is_stmt 1 view .LVU175
 575:Core/Src/SEGGER_RTT.c ****   unsigned                NumBytesRead;
 568              		.loc 1 575 3 view .LVU176
 576:Core/Src/SEGGER_RTT.c ****   unsigned                RdOff;
 569              		.loc 1 576 3 view .LVU177
 577:Core/Src/SEGGER_RTT.c ****   unsigned                WrOff;
 570              		.loc 1 577 3 view .LVU178
 578:Core/Src/SEGGER_RTT.c ****   unsigned char*          pBuffer;
 571              		.loc 1 578 3 view .LVU179
 579:Core/Src/SEGGER_RTT.c ****   SEGGER_RTT_BUFFER_UP*   pRing;
 572              		.loc 1 579 3 view .LVU180
 580:Core/Src/SEGGER_RTT.c ****   volatile char*          pSrc;
 573              		.loc 1 580 3 view .LVU181
 574              	.LBB2:
 581:Core/Src/SEGGER_RTT.c **** 
 582:Core/Src/SEGGER_RTT.c ****   INIT();
 575              		.loc 1 582 3 view .LVU182
 576              		.loc 1 582 3 view .LVU183
 577              	.LVL57:
 578              		.loc 1 582 3 view .LVU184
 579              		.loc 1 582 3 view .LVU185
 580 000a 264B     		ldr	r3, .L39
 581 000c 1B78     		ldrb	r3, [r3]	@ zero_extendqisi2
 582 000e C3B1     		cbz	r3, .L36
 583              	.LVL58:
 584              	.L29:
 585              		.loc 1 582 3 discriminator 3 view .LVU186
 586              	.LBE2:
ARM GAS  /var/folders/lp/x54gwt890xv47sdkqj1k04q40000gn/T//ccydrndK.s 			page 24


 587              		.loc 1 582 9 discriminator 3 view .LVU187
 583:Core/Src/SEGGER_RTT.c ****   pRing = (SEGGER_RTT_BUFFER_UP*)((char*)&_SEGGER_RTT.aUp[BufferIndex] + SEGGER_RTT_UNCACHED_OFF); 
 588              		.loc 1 583 3 view .LVU188
 584:Core/Src/SEGGER_RTT.c ****   pBuffer = (unsigned char*)pData;
 589              		.loc 1 584 3 view .LVU189
 585:Core/Src/SEGGER_RTT.c ****   RdOff = pRing->RdOff;
 590              		.loc 1 585 3 view .LVU190
 591              		.loc 1 585 9 is_stmt 0 view .LVU191
 592 0010 04EB4402 		add	r2, r4, r4, lsl #1
 593 0014 234B     		ldr	r3, .L39
 594 0016 03EBC203 		add	r3, r3, r2, lsl #3
 595 001a 9F6A     		ldr	r7, [r3, #40]
 596              	.LVL59:
 586:Core/Src/SEGGER_RTT.c ****   WrOff = pRing->WrOff;
 597              		.loc 1 586 3 is_stmt 1 view .LVU192
 598              		.loc 1 586 9 is_stmt 0 view .LVU193
 599 001c 5D6A     		ldr	r5, [r3, #36]
 600              	.LVL60:
 587:Core/Src/SEGGER_RTT.c ****   NumBytesRead = 0u;
 601              		.loc 1 587 3 is_stmt 1 view .LVU194
 588:Core/Src/SEGGER_RTT.c ****   //
 589:Core/Src/SEGGER_RTT.c ****   // Read from current read position to wrap-around of buffer, first
 590:Core/Src/SEGGER_RTT.c ****   //
 591:Core/Src/SEGGER_RTT.c ****   if (RdOff > WrOff) {
 602              		.loc 1 591 3 view .LVU195
 603              		.loc 1 591 6 is_stmt 0 view .LVU196
 604 001e AF42     		cmp	r7, r5
 605 0020 12D8     		bhi	.L37
 587:Core/Src/SEGGER_RTT.c ****   NumBytesRead = 0u;
 606              		.loc 1 587 16 view .LVU197
 607 0022 0026     		movs	r6, #0
 608              	.LVL61:
 609              	.L30:
 592:Core/Src/SEGGER_RTT.c ****     NumBytesRem = pRing->SizeOfBuffer - RdOff;
 593:Core/Src/SEGGER_RTT.c ****     NumBytesRem = MIN(NumBytesRem, BufferSize);
 594:Core/Src/SEGGER_RTT.c ****     pSrc = (pRing->pBuffer + RdOff) + SEGGER_RTT_UNCACHED_OFF;
 595:Core/Src/SEGGER_RTT.c **** #if SEGGER_RTT_MEMCPY_USE_BYTELOOP
 596:Core/Src/SEGGER_RTT.c ****     NumBytesRead += NumBytesRem;
 597:Core/Src/SEGGER_RTT.c ****     BufferSize   -= NumBytesRem;
 598:Core/Src/SEGGER_RTT.c ****     RdOff        += NumBytesRem;
 599:Core/Src/SEGGER_RTT.c ****     while (NumBytesRem--) {
 600:Core/Src/SEGGER_RTT.c ****       *pBuffer++ = *pSrc++;
 601:Core/Src/SEGGER_RTT.c ****     };
 602:Core/Src/SEGGER_RTT.c **** #else
 603:Core/Src/SEGGER_RTT.c ****     SEGGER_RTT_MEMCPY(pBuffer, (void*)pSrc, NumBytesRem);
 604:Core/Src/SEGGER_RTT.c ****     NumBytesRead += NumBytesRem;
 605:Core/Src/SEGGER_RTT.c ****     pBuffer      += NumBytesRem;
 606:Core/Src/SEGGER_RTT.c ****     BufferSize   -= NumBytesRem;
 607:Core/Src/SEGGER_RTT.c ****     RdOff        += NumBytesRem;
 608:Core/Src/SEGGER_RTT.c **** #endif
 609:Core/Src/SEGGER_RTT.c ****     //
 610:Core/Src/SEGGER_RTT.c ****     // Handle wrap-around of buffer
 611:Core/Src/SEGGER_RTT.c ****     //
 612:Core/Src/SEGGER_RTT.c ****     if (RdOff == pRing->SizeOfBuffer) {
 613:Core/Src/SEGGER_RTT.c ****       RdOff = 0u;
 614:Core/Src/SEGGER_RTT.c ****     }
 615:Core/Src/SEGGER_RTT.c ****   }
ARM GAS  /var/folders/lp/x54gwt890xv47sdkqj1k04q40000gn/T//ccydrndK.s 			page 25


 616:Core/Src/SEGGER_RTT.c ****   //
 617:Core/Src/SEGGER_RTT.c ****   // Read remaining items of buffer
 618:Core/Src/SEGGER_RTT.c ****   //
 619:Core/Src/SEGGER_RTT.c ****   NumBytesRem = WrOff - RdOff;
 610              		.loc 1 619 3 is_stmt 1 view .LVU198
 611              		.loc 1 619 15 is_stmt 0 view .LVU199
 612 0024 ED1B     		subs	r5, r5, r7
 613              	.LVL62:
 620:Core/Src/SEGGER_RTT.c ****   NumBytesRem = MIN(NumBytesRem, BufferSize);
 614              		.loc 1 620 3 is_stmt 1 view .LVU200
 615              		.loc 1 620 15 is_stmt 0 view .LVU201
 616 0026 4D45     		cmp	r5, r9
 617 0028 28BF     		it	cs
 618 002a 4D46     		movcs	r5, r9
 619              	.LVL63:
 621:Core/Src/SEGGER_RTT.c ****   if (NumBytesRem > 0u) {
 620              		.loc 1 621 3 is_stmt 1 view .LVU202
 621              		.loc 1 621 6 is_stmt 0 view .LVU203
 622 002c 55BB     		cbnz	r5, .L38
 623              	.LVL64:
 624              	.L31:
 622:Core/Src/SEGGER_RTT.c ****     pSrc = (pRing->pBuffer + RdOff) + SEGGER_RTT_UNCACHED_OFF;
 623:Core/Src/SEGGER_RTT.c **** #if SEGGER_RTT_MEMCPY_USE_BYTELOOP
 624:Core/Src/SEGGER_RTT.c ****     NumBytesRead += NumBytesRem;
 625:Core/Src/SEGGER_RTT.c ****     BufferSize   -= NumBytesRem;
 626:Core/Src/SEGGER_RTT.c ****     RdOff        += NumBytesRem;
 627:Core/Src/SEGGER_RTT.c ****     while (NumBytesRem--) {
 628:Core/Src/SEGGER_RTT.c ****       *pBuffer++ = *pSrc++;
 629:Core/Src/SEGGER_RTT.c ****     };
 630:Core/Src/SEGGER_RTT.c **** #else
 631:Core/Src/SEGGER_RTT.c ****     SEGGER_RTT_MEMCPY(pBuffer, (void*)pSrc, NumBytesRem);
 632:Core/Src/SEGGER_RTT.c ****     NumBytesRead += NumBytesRem;
 633:Core/Src/SEGGER_RTT.c ****     pBuffer      += NumBytesRem;
 634:Core/Src/SEGGER_RTT.c ****     BufferSize   -= NumBytesRem;
 635:Core/Src/SEGGER_RTT.c ****     RdOff        += NumBytesRem;
 636:Core/Src/SEGGER_RTT.c **** #endif
 637:Core/Src/SEGGER_RTT.c ****   }
 638:Core/Src/SEGGER_RTT.c ****   //
 639:Core/Src/SEGGER_RTT.c ****   // Update read offset of buffer
 640:Core/Src/SEGGER_RTT.c ****   //
 641:Core/Src/SEGGER_RTT.c ****   if (NumBytesRead) {
 625              		.loc 1 641 3 is_stmt 1 view .LVU204
 626              		.loc 1 641 6 is_stmt 0 view .LVU205
 627 002e 2EB1     		cbz	r6, .L28
 642:Core/Src/SEGGER_RTT.c ****     pRing->RdOff = RdOff;
 628              		.loc 1 642 5 is_stmt 1 view .LVU206
 629              		.loc 1 642 18 is_stmt 0 view .LVU207
 630 0030 04EB4404 		add	r4, r4, r4, lsl #1
 631              	.LVL65:
 632              		.loc 1 642 18 view .LVU208
 633 0034 1B4B     		ldr	r3, .L39
 634 0036 03EBC403 		add	r3, r3, r4, lsl #3
 635 003a 9F62     		str	r7, [r3, #40]
 643:Core/Src/SEGGER_RTT.c ****   }
 644:Core/Src/SEGGER_RTT.c ****   //
 645:Core/Src/SEGGER_RTT.c ****   return NumBytesRead;
 636              		.loc 1 645 3 is_stmt 1 view .LVU209
ARM GAS  /var/folders/lp/x54gwt890xv47sdkqj1k04q40000gn/T//ccydrndK.s 			page 26


 637              	.L28:
 646:Core/Src/SEGGER_RTT.c **** }
 638              		.loc 1 646 1 is_stmt 0 view .LVU210
 639 003c 3046     		mov	r0, r6
 640 003e BDE8F087 		pop	{r4, r5, r6, r7, r8, r9, r10, pc}
 641              	.LVL66:
 642              	.L36:
 643              	.LBB3:
 582:Core/Src/SEGGER_RTT.c ****   pRing = (SEGGER_RTT_BUFFER_UP*)((char*)&_SEGGER_RTT.aUp[BufferIndex] + SEGGER_RTT_UNCACHED_OFF); 
 644              		.loc 1 582 3 is_stmt 1 discriminator 1 view .LVU211
 645 0042 FFF7FEFF 		bl	_DoInit
 646              	.LVL67:
 582:Core/Src/SEGGER_RTT.c ****   pRing = (SEGGER_RTT_BUFFER_UP*)((char*)&_SEGGER_RTT.aUp[BufferIndex] + SEGGER_RTT_UNCACHED_OFF); 
 647              		.loc 1 582 3 is_stmt 0 discriminator 1 view .LVU212
 648 0046 E3E7     		b	.L29
 649              	.LVL68:
 650              	.L37:
 582:Core/Src/SEGGER_RTT.c ****   pRing = (SEGGER_RTT_BUFFER_UP*)((char*)&_SEGGER_RTT.aUp[BufferIndex] + SEGGER_RTT_UNCACHED_OFF); 
 651              		.loc 1 582 3 discriminator 1 view .LVU213
 652              	.LBE3:
 592:Core/Src/SEGGER_RTT.c ****     NumBytesRem = MIN(NumBytesRem, BufferSize);
 653              		.loc 1 592 5 is_stmt 1 view .LVU214
 592:Core/Src/SEGGER_RTT.c ****     NumBytesRem = MIN(NumBytesRem, BufferSize);
 654              		.loc 1 592 24 is_stmt 0 view .LVU215
 655 0048 164B     		ldr	r3, .L39
 656 004a 03EBC20A 		add	r10, r3, r2, lsl #3
 657 004e DAF82060 		ldr	r6, [r10, #32]
 592:Core/Src/SEGGER_RTT.c ****     NumBytesRem = MIN(NumBytesRem, BufferSize);
 658              		.loc 1 592 17 view .LVU216
 659 0052 F61B     		subs	r6, r6, r7
 660              	.LVL69:
 593:Core/Src/SEGGER_RTT.c ****     pSrc = (pRing->pBuffer + RdOff) + SEGGER_RTT_UNCACHED_OFF;
 661              		.loc 1 593 5 is_stmt 1 view .LVU217
 593:Core/Src/SEGGER_RTT.c ****     pSrc = (pRing->pBuffer + RdOff) + SEGGER_RTT_UNCACHED_OFF;
 662              		.loc 1 593 17 is_stmt 0 view .LVU218
 663 0054 4E45     		cmp	r6, r9
 664 0056 28BF     		it	cs
 665 0058 4E46     		movcs	r6, r9
 666              	.LVL70:
 594:Core/Src/SEGGER_RTT.c **** #if SEGGER_RTT_MEMCPY_USE_BYTELOOP
 667              		.loc 1 594 5 is_stmt 1 view .LVU219
 594:Core/Src/SEGGER_RTT.c **** #if SEGGER_RTT_MEMCPY_USE_BYTELOOP
 668              		.loc 1 594 18 is_stmt 0 view .LVU220
 669 005a 621C     		adds	r2, r4, #1
 670 005c 02EB4202 		add	r2, r2, r2, lsl #1
 671 0060 03EBC203 		add	r3, r3, r2, lsl #3
 672 0064 5968     		ldr	r1, [r3, #4]
 673              	.LVL71:
 603:Core/Src/SEGGER_RTT.c ****     NumBytesRead += NumBytesRem;
 674              		.loc 1 603 5 is_stmt 1 view .LVU221
 675 0066 3246     		mov	r2, r6
 676 0068 3944     		add	r1, r1, r7
 677              	.LVL72:
 603:Core/Src/SEGGER_RTT.c ****     NumBytesRead += NumBytesRem;
 678              		.loc 1 603 5 is_stmt 0 view .LVU222
 679 006a 4046     		mov	r0, r8
 680 006c FFF7FEFF 		bl	memcpy
ARM GAS  /var/folders/lp/x54gwt890xv47sdkqj1k04q40000gn/T//ccydrndK.s 			page 27


 681              	.LVL73:
 604:Core/Src/SEGGER_RTT.c ****     pBuffer      += NumBytesRem;
 682              		.loc 1 604 5 is_stmt 1 view .LVU223
 605:Core/Src/SEGGER_RTT.c ****     BufferSize   -= NumBytesRem;
 683              		.loc 1 605 5 view .LVU224
 605:Core/Src/SEGGER_RTT.c ****     BufferSize   -= NumBytesRem;
 684              		.loc 1 605 18 is_stmt 0 view .LVU225
 685 0070 B044     		add	r8, r8, r6
 686              	.LVL74:
 606:Core/Src/SEGGER_RTT.c ****     RdOff        += NumBytesRem;
 687              		.loc 1 606 5 is_stmt 1 view .LVU226
 606:Core/Src/SEGGER_RTT.c ****     RdOff        += NumBytesRem;
 688              		.loc 1 606 18 is_stmt 0 view .LVU227
 689 0072 A9EB0609 		sub	r9, r9, r6
 690              	.LVL75:
 607:Core/Src/SEGGER_RTT.c **** #endif
 691              		.loc 1 607 5 is_stmt 1 view .LVU228
 607:Core/Src/SEGGER_RTT.c **** #endif
 692              		.loc 1 607 18 is_stmt 0 view .LVU229
 693 0076 3744     		add	r7, r7, r6
 694              	.LVL76:
 612:Core/Src/SEGGER_RTT.c ****       RdOff = 0u;
 695              		.loc 1 612 5 is_stmt 1 view .LVU230
 612:Core/Src/SEGGER_RTT.c ****       RdOff = 0u;
 696              		.loc 1 612 23 is_stmt 0 view .LVU231
 697 0078 DAF82030 		ldr	r3, [r10, #32]
 612:Core/Src/SEGGER_RTT.c ****       RdOff = 0u;
 698              		.loc 1 612 8 view .LVU232
 699 007c BB42     		cmp	r3, r7
 700 007e D1D1     		bne	.L30
 613:Core/Src/SEGGER_RTT.c ****     }
 701              		.loc 1 613 13 view .LVU233
 702 0080 0027     		movs	r7, #0
 703              	.LVL77:
 613:Core/Src/SEGGER_RTT.c ****     }
 704              		.loc 1 613 13 view .LVU234
 705 0082 CFE7     		b	.L30
 706              	.LVL78:
 707              	.L38:
 622:Core/Src/SEGGER_RTT.c **** #if SEGGER_RTT_MEMCPY_USE_BYTELOOP
 708              		.loc 1 622 5 is_stmt 1 view .LVU235
 622:Core/Src/SEGGER_RTT.c **** #if SEGGER_RTT_MEMCPY_USE_BYTELOOP
 709              		.loc 1 622 18 is_stmt 0 view .LVU236
 710 0084 631C     		adds	r3, r4, #1
 711 0086 03EB4303 		add	r3, r3, r3, lsl #1
 712 008a 064A     		ldr	r2, .L39
 713 008c 02EBC303 		add	r3, r2, r3, lsl #3
 714 0090 5968     		ldr	r1, [r3, #4]
 715              	.LVL79:
 631:Core/Src/SEGGER_RTT.c ****     NumBytesRead += NumBytesRem;
 716              		.loc 1 631 5 is_stmt 1 view .LVU237
 717 0092 2A46     		mov	r2, r5
 718 0094 3944     		add	r1, r1, r7
 719              	.LVL80:
 631:Core/Src/SEGGER_RTT.c ****     NumBytesRead += NumBytesRem;
 720              		.loc 1 631 5 is_stmt 0 view .LVU238
 721 0096 4046     		mov	r0, r8
ARM GAS  /var/folders/lp/x54gwt890xv47sdkqj1k04q40000gn/T//ccydrndK.s 			page 28


 722 0098 FFF7FEFF 		bl	memcpy
 723              	.LVL81:
 632:Core/Src/SEGGER_RTT.c ****     pBuffer      += NumBytesRem;
 724              		.loc 1 632 5 is_stmt 1 view .LVU239
 632:Core/Src/SEGGER_RTT.c ****     pBuffer      += NumBytesRem;
 725              		.loc 1 632 18 is_stmt 0 view .LVU240
 726 009c 2E44     		add	r6, r6, r5
 727              	.LVL82:
 633:Core/Src/SEGGER_RTT.c ****     BufferSize   -= NumBytesRem;
 728              		.loc 1 633 5 is_stmt 1 view .LVU241
 634:Core/Src/SEGGER_RTT.c ****     RdOff        += NumBytesRem;
 729              		.loc 1 634 5 view .LVU242
 635:Core/Src/SEGGER_RTT.c **** #endif
 730              		.loc 1 635 5 view .LVU243
 635:Core/Src/SEGGER_RTT.c **** #endif
 731              		.loc 1 635 18 is_stmt 0 view .LVU244
 732 009e 2F44     		add	r7, r7, r5
 733              	.LVL83:
 635:Core/Src/SEGGER_RTT.c **** #endif
 734              		.loc 1 635 18 view .LVU245
 735 00a0 C5E7     		b	.L31
 736              	.L40:
 737 00a2 00BF     		.align	2
 738              	.L39:
 739 00a4 00000000 		.word	_SEGGER_RTT
 740              		.cfi_endproc
 741              	.LFE5:
 743              		.section	.text.SEGGER_RTT_ReadNoLock,"ax",%progbits
 744              		.align	1
 745              		.global	SEGGER_RTT_ReadNoLock
 746              		.syntax unified
 747              		.thumb
 748              		.thumb_func
 750              	SEGGER_RTT_ReadNoLock:
 751              	.LVL84:
 752              	.LFB6:
 647:Core/Src/SEGGER_RTT.c **** 
 648:Core/Src/SEGGER_RTT.c **** /*********************************************************************
 649:Core/Src/SEGGER_RTT.c **** *
 650:Core/Src/SEGGER_RTT.c **** *       SEGGER_RTT_ReadNoLock()
 651:Core/Src/SEGGER_RTT.c **** *
 652:Core/Src/SEGGER_RTT.c **** *  Function description
 653:Core/Src/SEGGER_RTT.c **** *    Reads characters from SEGGER real-time-terminal control block
 654:Core/Src/SEGGER_RTT.c **** *    which have been previously stored by the host.
 655:Core/Src/SEGGER_RTT.c **** *    Do not lock against interrupts and multiple access.
 656:Core/Src/SEGGER_RTT.c **** *
 657:Core/Src/SEGGER_RTT.c **** *  Parameters
 658:Core/Src/SEGGER_RTT.c **** *    BufferIndex  Index of Down-buffer to be used (e.g. 0 for "Terminal").
 659:Core/Src/SEGGER_RTT.c **** *    pBuffer      Pointer to buffer provided by target application, to copy characters from RTT-dow
 660:Core/Src/SEGGER_RTT.c **** *    BufferSize   Size of the target application buffer.
 661:Core/Src/SEGGER_RTT.c **** *
 662:Core/Src/SEGGER_RTT.c **** *  Return value
 663:Core/Src/SEGGER_RTT.c **** *    Number of bytes that have been read.
 664:Core/Src/SEGGER_RTT.c **** */
 665:Core/Src/SEGGER_RTT.c **** unsigned SEGGER_RTT_ReadNoLock(unsigned BufferIndex, void* pData, unsigned BufferSize) {
 753              		.loc 1 665 88 is_stmt 1 view -0
 754              		.cfi_startproc
ARM GAS  /var/folders/lp/x54gwt890xv47sdkqj1k04q40000gn/T//ccydrndK.s 			page 29


 755              		@ args = 0, pretend = 0, frame = 0
 756              		@ frame_needed = 0, uses_anonymous_args = 0
 757              		.loc 1 665 88 is_stmt 0 view .LVU247
 758 0000 2DE9F047 		push	{r4, r5, r6, r7, r8, r9, r10, lr}
 759              		.cfi_def_cfa_offset 32
 760              		.cfi_offset 4, -32
 761              		.cfi_offset 5, -28
 762              		.cfi_offset 6, -24
 763              		.cfi_offset 7, -20
 764              		.cfi_offset 8, -16
 765              		.cfi_offset 9, -12
 766              		.cfi_offset 10, -8
 767              		.cfi_offset 14, -4
 768 0004 0446     		mov	r4, r0
 769 0006 8846     		mov	r8, r1
 770 0008 9146     		mov	r9, r2
 666:Core/Src/SEGGER_RTT.c ****   unsigned                NumBytesRem;
 771              		.loc 1 666 3 is_stmt 1 view .LVU248
 667:Core/Src/SEGGER_RTT.c ****   unsigned                NumBytesRead;
 772              		.loc 1 667 3 view .LVU249
 668:Core/Src/SEGGER_RTT.c ****   unsigned                RdOff;
 773              		.loc 1 668 3 view .LVU250
 669:Core/Src/SEGGER_RTT.c ****   unsigned                WrOff;
 774              		.loc 1 669 3 view .LVU251
 670:Core/Src/SEGGER_RTT.c ****   unsigned char*          pBuffer;
 775              		.loc 1 670 3 view .LVU252
 671:Core/Src/SEGGER_RTT.c ****   SEGGER_RTT_BUFFER_DOWN* pRing;
 776              		.loc 1 671 3 view .LVU253
 672:Core/Src/SEGGER_RTT.c ****   volatile char*          pSrc;
 777              		.loc 1 672 3 view .LVU254
 778              	.LBB4:
 673:Core/Src/SEGGER_RTT.c ****   //
 674:Core/Src/SEGGER_RTT.c ****   INIT();
 779              		.loc 1 674 3 view .LVU255
 780              		.loc 1 674 3 view .LVU256
 781              	.LVL85:
 782              		.loc 1 674 3 view .LVU257
 783              		.loc 1 674 3 view .LVU258
 784 000a 244B     		ldr	r3, .L52
 785 000c 1B78     		ldrb	r3, [r3]	@ zero_extendqisi2
 786 000e C3B1     		cbz	r3, .L49
 787              	.LVL86:
 788              	.L42:
 789              		.loc 1 674 3 discriminator 3 view .LVU259
 790              	.LBE4:
 791              		.loc 1 674 9 discriminator 3 view .LVU260
 675:Core/Src/SEGGER_RTT.c ****   pRing = (SEGGER_RTT_BUFFER_DOWN*)((char*)&_SEGGER_RTT.aDown[BufferIndex] + SEGGER_RTT_UNCACHED_OF
 792              		.loc 1 675 3 view .LVU261
 676:Core/Src/SEGGER_RTT.c ****   pBuffer = (unsigned char*)pData;
 793              		.loc 1 676 3 view .LVU262
 677:Core/Src/SEGGER_RTT.c ****   RdOff = pRing->RdOff;
 794              		.loc 1 677 3 view .LVU263
 795              		.loc 1 677 9 is_stmt 0 view .LVU264
 796 0010 04EB4402 		add	r2, r4, r4, lsl #1
 797 0014 214B     		ldr	r3, .L52
 798 0016 03EBC203 		add	r3, r3, r2, lsl #3
 799 001a 1F6F     		ldr	r7, [r3, #112]
ARM GAS  /var/folders/lp/x54gwt890xv47sdkqj1k04q40000gn/T//ccydrndK.s 			page 30


 800              	.LVL87:
 678:Core/Src/SEGGER_RTT.c ****   WrOff = pRing->WrOff;
 801              		.loc 1 678 3 is_stmt 1 view .LVU265
 802              		.loc 1 678 9 is_stmt 0 view .LVU266
 803 001c DD6E     		ldr	r5, [r3, #108]
 804              	.LVL88:
 679:Core/Src/SEGGER_RTT.c ****   NumBytesRead = 0u;
 805              		.loc 1 679 3 is_stmt 1 view .LVU267
 680:Core/Src/SEGGER_RTT.c ****   //
 681:Core/Src/SEGGER_RTT.c ****   // Read from current read position to wrap-around of buffer, first
 682:Core/Src/SEGGER_RTT.c ****   //
 683:Core/Src/SEGGER_RTT.c ****   if (RdOff > WrOff) {
 806              		.loc 1 683 3 view .LVU268
 807              		.loc 1 683 6 is_stmt 0 view .LVU269
 808 001e AF42     		cmp	r7, r5
 809 0020 12D8     		bhi	.L50
 679:Core/Src/SEGGER_RTT.c ****   NumBytesRead = 0u;
 810              		.loc 1 679 16 view .LVU270
 811 0022 0026     		movs	r6, #0
 812              	.LVL89:
 813              	.L43:
 684:Core/Src/SEGGER_RTT.c ****     NumBytesRem = pRing->SizeOfBuffer - RdOff;
 685:Core/Src/SEGGER_RTT.c ****     NumBytesRem = MIN(NumBytesRem, BufferSize);
 686:Core/Src/SEGGER_RTT.c ****     pSrc = (pRing->pBuffer + RdOff) + SEGGER_RTT_UNCACHED_OFF;
 687:Core/Src/SEGGER_RTT.c **** #if SEGGER_RTT_MEMCPY_USE_BYTELOOP
 688:Core/Src/SEGGER_RTT.c ****     NumBytesRead += NumBytesRem;
 689:Core/Src/SEGGER_RTT.c ****     BufferSize   -= NumBytesRem;
 690:Core/Src/SEGGER_RTT.c ****     RdOff        += NumBytesRem;
 691:Core/Src/SEGGER_RTT.c ****     while (NumBytesRem--) {
 692:Core/Src/SEGGER_RTT.c ****       *pBuffer++ = *pSrc++;
 693:Core/Src/SEGGER_RTT.c ****     };
 694:Core/Src/SEGGER_RTT.c **** #else
 695:Core/Src/SEGGER_RTT.c ****     SEGGER_RTT_MEMCPY(pBuffer, (void*)pSrc, NumBytesRem);
 696:Core/Src/SEGGER_RTT.c ****     NumBytesRead += NumBytesRem;
 697:Core/Src/SEGGER_RTT.c ****     pBuffer      += NumBytesRem;
 698:Core/Src/SEGGER_RTT.c ****     BufferSize   -= NumBytesRem;
 699:Core/Src/SEGGER_RTT.c ****     RdOff        += NumBytesRem;
 700:Core/Src/SEGGER_RTT.c **** #endif
 701:Core/Src/SEGGER_RTT.c ****     //
 702:Core/Src/SEGGER_RTT.c ****     // Handle wrap-around of buffer
 703:Core/Src/SEGGER_RTT.c ****     //
 704:Core/Src/SEGGER_RTT.c ****     if (RdOff == pRing->SizeOfBuffer) {
 705:Core/Src/SEGGER_RTT.c ****       RdOff = 0u;
 706:Core/Src/SEGGER_RTT.c ****     }
 707:Core/Src/SEGGER_RTT.c ****   }
 708:Core/Src/SEGGER_RTT.c ****   //
 709:Core/Src/SEGGER_RTT.c ****   // Read remaining items of buffer
 710:Core/Src/SEGGER_RTT.c ****   //
 711:Core/Src/SEGGER_RTT.c ****   NumBytesRem = WrOff - RdOff;
 814              		.loc 1 711 3 is_stmt 1 view .LVU271
 815              		.loc 1 711 15 is_stmt 0 view .LVU272
 816 0024 ED1B     		subs	r5, r5, r7
 817              	.LVL90:
 712:Core/Src/SEGGER_RTT.c ****   NumBytesRem = MIN(NumBytesRem, BufferSize);
 818              		.loc 1 712 3 is_stmt 1 view .LVU273
 819              		.loc 1 712 15 is_stmt 0 view .LVU274
 820 0026 4D45     		cmp	r5, r9
ARM GAS  /var/folders/lp/x54gwt890xv47sdkqj1k04q40000gn/T//ccydrndK.s 			page 31


 821 0028 28BF     		it	cs
 822 002a 4D46     		movcs	r5, r9
 823              	.LVL91:
 713:Core/Src/SEGGER_RTT.c ****   if (NumBytesRem > 0u) {
 824              		.loc 1 713 3 is_stmt 1 view .LVU275
 825              		.loc 1 713 6 is_stmt 0 view .LVU276
 826 002c 3DBB     		cbnz	r5, .L51
 827              	.LVL92:
 828              	.L44:
 714:Core/Src/SEGGER_RTT.c ****     pSrc = (pRing->pBuffer + RdOff) + SEGGER_RTT_UNCACHED_OFF;
 715:Core/Src/SEGGER_RTT.c **** #if SEGGER_RTT_MEMCPY_USE_BYTELOOP
 716:Core/Src/SEGGER_RTT.c ****     NumBytesRead += NumBytesRem;
 717:Core/Src/SEGGER_RTT.c ****     BufferSize   -= NumBytesRem;
 718:Core/Src/SEGGER_RTT.c ****     RdOff        += NumBytesRem;
 719:Core/Src/SEGGER_RTT.c ****     while (NumBytesRem--) {
 720:Core/Src/SEGGER_RTT.c ****       *pBuffer++ = *pSrc++;
 721:Core/Src/SEGGER_RTT.c ****     };
 722:Core/Src/SEGGER_RTT.c **** #else
 723:Core/Src/SEGGER_RTT.c ****     SEGGER_RTT_MEMCPY(pBuffer, (void*)pSrc, NumBytesRem);
 724:Core/Src/SEGGER_RTT.c ****     NumBytesRead += NumBytesRem;
 725:Core/Src/SEGGER_RTT.c ****     pBuffer      += NumBytesRem;
 726:Core/Src/SEGGER_RTT.c ****     BufferSize   -= NumBytesRem;
 727:Core/Src/SEGGER_RTT.c ****     RdOff        += NumBytesRem;
 728:Core/Src/SEGGER_RTT.c **** #endif
 729:Core/Src/SEGGER_RTT.c ****   }
 730:Core/Src/SEGGER_RTT.c ****   if (NumBytesRead) {
 829              		.loc 1 730 3 is_stmt 1 view .LVU277
 830              		.loc 1 730 6 is_stmt 0 view .LVU278
 831 002e 2EB1     		cbz	r6, .L41
 731:Core/Src/SEGGER_RTT.c ****     pRing->RdOff = RdOff;
 832              		.loc 1 731 5 is_stmt 1 view .LVU279
 833              		.loc 1 731 18 is_stmt 0 view .LVU280
 834 0030 04EB4404 		add	r4, r4, r4, lsl #1
 835              	.LVL93:
 836              		.loc 1 731 18 view .LVU281
 837 0034 194B     		ldr	r3, .L52
 838 0036 03EBC403 		add	r3, r3, r4, lsl #3
 839 003a 1F67     		str	r7, [r3, #112]
 732:Core/Src/SEGGER_RTT.c ****   }
 733:Core/Src/SEGGER_RTT.c ****   //
 734:Core/Src/SEGGER_RTT.c ****   return NumBytesRead;
 840              		.loc 1 734 3 is_stmt 1 view .LVU282
 841              	.L41:
 735:Core/Src/SEGGER_RTT.c **** }
 842              		.loc 1 735 1 is_stmt 0 view .LVU283
 843 003c 3046     		mov	r0, r6
 844 003e BDE8F087 		pop	{r4, r5, r6, r7, r8, r9, r10, pc}
 845              	.LVL94:
 846              	.L49:
 847              	.LBB5:
 674:Core/Src/SEGGER_RTT.c ****   pRing = (SEGGER_RTT_BUFFER_DOWN*)((char*)&_SEGGER_RTT.aDown[BufferIndex] + SEGGER_RTT_UNCACHED_OF
 848              		.loc 1 674 3 is_stmt 1 discriminator 1 view .LVU284
 849 0042 FFF7FEFF 		bl	_DoInit
 850              	.LVL95:
 674:Core/Src/SEGGER_RTT.c ****   pRing = (SEGGER_RTT_BUFFER_DOWN*)((char*)&_SEGGER_RTT.aDown[BufferIndex] + SEGGER_RTT_UNCACHED_OF
 851              		.loc 1 674 3 is_stmt 0 discriminator 1 view .LVU285
 852 0046 E3E7     		b	.L42
ARM GAS  /var/folders/lp/x54gwt890xv47sdkqj1k04q40000gn/T//ccydrndK.s 			page 32


 853              	.LVL96:
 854              	.L50:
 674:Core/Src/SEGGER_RTT.c ****   pRing = (SEGGER_RTT_BUFFER_DOWN*)((char*)&_SEGGER_RTT.aDown[BufferIndex] + SEGGER_RTT_UNCACHED_OF
 855              		.loc 1 674 3 discriminator 1 view .LVU286
 856              	.LBE5:
 684:Core/Src/SEGGER_RTT.c ****     NumBytesRem = MIN(NumBytesRem, BufferSize);
 857              		.loc 1 684 5 is_stmt 1 view .LVU287
 684:Core/Src/SEGGER_RTT.c ****     NumBytesRem = MIN(NumBytesRem, BufferSize);
 858              		.loc 1 684 24 is_stmt 0 view .LVU288
 859 0048 1346     		mov	r3, r2
 860 004a 144A     		ldr	r2, .L52
 861 004c 02EBC30A 		add	r10, r2, r3, lsl #3
 862 0050 DAF86860 		ldr	r6, [r10, #104]
 684:Core/Src/SEGGER_RTT.c ****     NumBytesRem = MIN(NumBytesRem, BufferSize);
 863              		.loc 1 684 17 view .LVU289
 864 0054 F61B     		subs	r6, r6, r7
 865              	.LVL97:
 685:Core/Src/SEGGER_RTT.c ****     pSrc = (pRing->pBuffer + RdOff) + SEGGER_RTT_UNCACHED_OFF;
 866              		.loc 1 685 5 is_stmt 1 view .LVU290
 685:Core/Src/SEGGER_RTT.c ****     pSrc = (pRing->pBuffer + RdOff) + SEGGER_RTT_UNCACHED_OFF;
 867              		.loc 1 685 17 is_stmt 0 view .LVU291
 868 0056 4E45     		cmp	r6, r9
 869 0058 28BF     		it	cs
 870 005a 4E46     		movcs	r6, r9
 871              	.LVL98:
 686:Core/Src/SEGGER_RTT.c **** #if SEGGER_RTT_MEMCPY_USE_BYTELOOP
 872              		.loc 1 686 5 is_stmt 1 view .LVU292
 686:Core/Src/SEGGER_RTT.c **** #if SEGGER_RTT_MEMCPY_USE_BYTELOOP
 873              		.loc 1 686 18 is_stmt 0 view .LVU293
 874 005c DAF86410 		ldr	r1, [r10, #100]
 875              	.LVL99:
 695:Core/Src/SEGGER_RTT.c ****     NumBytesRead += NumBytesRem;
 876              		.loc 1 695 5 is_stmt 1 view .LVU294
 877 0060 3246     		mov	r2, r6
 878 0062 3944     		add	r1, r1, r7
 879              	.LVL100:
 695:Core/Src/SEGGER_RTT.c ****     NumBytesRead += NumBytesRem;
 880              		.loc 1 695 5 is_stmt 0 view .LVU295
 881 0064 4046     		mov	r0, r8
 882 0066 FFF7FEFF 		bl	memcpy
 883              	.LVL101:
 696:Core/Src/SEGGER_RTT.c ****     pBuffer      += NumBytesRem;
 884              		.loc 1 696 5 is_stmt 1 view .LVU296
 697:Core/Src/SEGGER_RTT.c ****     BufferSize   -= NumBytesRem;
 885              		.loc 1 697 5 view .LVU297
 697:Core/Src/SEGGER_RTT.c ****     BufferSize   -= NumBytesRem;
 886              		.loc 1 697 18 is_stmt 0 view .LVU298
 887 006a B044     		add	r8, r8, r6
 888              	.LVL102:
 698:Core/Src/SEGGER_RTT.c ****     RdOff        += NumBytesRem;
 889              		.loc 1 698 5 is_stmt 1 view .LVU299
 698:Core/Src/SEGGER_RTT.c ****     RdOff        += NumBytesRem;
 890              		.loc 1 698 18 is_stmt 0 view .LVU300
 891 006c A9EB0609 		sub	r9, r9, r6
 892              	.LVL103:
 699:Core/Src/SEGGER_RTT.c **** #endif
 893              		.loc 1 699 5 is_stmt 1 view .LVU301
ARM GAS  /var/folders/lp/x54gwt890xv47sdkqj1k04q40000gn/T//ccydrndK.s 			page 33


 699:Core/Src/SEGGER_RTT.c **** #endif
 894              		.loc 1 699 18 is_stmt 0 view .LVU302
 895 0070 3744     		add	r7, r7, r6
 896              	.LVL104:
 704:Core/Src/SEGGER_RTT.c ****       RdOff = 0u;
 897              		.loc 1 704 5 is_stmt 1 view .LVU303
 704:Core/Src/SEGGER_RTT.c ****       RdOff = 0u;
 898              		.loc 1 704 23 is_stmt 0 view .LVU304
 899 0072 DAF86830 		ldr	r3, [r10, #104]
 704:Core/Src/SEGGER_RTT.c ****       RdOff = 0u;
 900              		.loc 1 704 8 view .LVU305
 901 0076 BB42     		cmp	r3, r7
 902 0078 D4D1     		bne	.L43
 705:Core/Src/SEGGER_RTT.c ****     }
 903              		.loc 1 705 13 view .LVU306
 904 007a 0027     		movs	r7, #0
 905              	.LVL105:
 705:Core/Src/SEGGER_RTT.c ****     }
 906              		.loc 1 705 13 view .LVU307
 907 007c D2E7     		b	.L43
 908              	.LVL106:
 909              	.L51:
 714:Core/Src/SEGGER_RTT.c **** #if SEGGER_RTT_MEMCPY_USE_BYTELOOP
 910              		.loc 1 714 5 is_stmt 1 view .LVU308
 714:Core/Src/SEGGER_RTT.c **** #if SEGGER_RTT_MEMCPY_USE_BYTELOOP
 911              		.loc 1 714 18 is_stmt 0 view .LVU309
 912 007e 04EB4402 		add	r2, r4, r4, lsl #1
 913 0082 064B     		ldr	r3, .L52
 914 0084 03EBC203 		add	r3, r3, r2, lsl #3
 915 0088 596E     		ldr	r1, [r3, #100]
 916              	.LVL107:
 723:Core/Src/SEGGER_RTT.c ****     NumBytesRead += NumBytesRem;
 917              		.loc 1 723 5 is_stmt 1 view .LVU310
 918 008a 2A46     		mov	r2, r5
 919 008c 3944     		add	r1, r1, r7
 920              	.LVL108:
 723:Core/Src/SEGGER_RTT.c ****     NumBytesRead += NumBytesRem;
 921              		.loc 1 723 5 is_stmt 0 view .LVU311
 922 008e 4046     		mov	r0, r8
 923 0090 FFF7FEFF 		bl	memcpy
 924              	.LVL109:
 724:Core/Src/SEGGER_RTT.c ****     pBuffer      += NumBytesRem;
 925              		.loc 1 724 5 is_stmt 1 view .LVU312
 724:Core/Src/SEGGER_RTT.c ****     pBuffer      += NumBytesRem;
 926              		.loc 1 724 18 is_stmt 0 view .LVU313
 927 0094 2E44     		add	r6, r6, r5
 928              	.LVL110:
 725:Core/Src/SEGGER_RTT.c ****     BufferSize   -= NumBytesRem;
 929              		.loc 1 725 5 is_stmt 1 view .LVU314
 726:Core/Src/SEGGER_RTT.c ****     RdOff        += NumBytesRem;
 930              		.loc 1 726 5 view .LVU315
 727:Core/Src/SEGGER_RTT.c **** #endif
 931              		.loc 1 727 5 view .LVU316
 727:Core/Src/SEGGER_RTT.c **** #endif
 932              		.loc 1 727 18 is_stmt 0 view .LVU317
 933 0096 2F44     		add	r7, r7, r5
 934              	.LVL111:
ARM GAS  /var/folders/lp/x54gwt890xv47sdkqj1k04q40000gn/T//ccydrndK.s 			page 34


 727:Core/Src/SEGGER_RTT.c **** #endif
 935              		.loc 1 727 18 view .LVU318
 936 0098 C9E7     		b	.L44
 937              	.L53:
 938 009a 00BF     		.align	2
 939              	.L52:
 940 009c 00000000 		.word	_SEGGER_RTT
 941              		.cfi_endproc
 942              	.LFE6:
 944              		.section	.text.SEGGER_RTT_ReadUpBuffer,"ax",%progbits
 945              		.align	1
 946              		.global	SEGGER_RTT_ReadUpBuffer
 947              		.syntax unified
 948              		.thumb
 949              		.thumb_func
 951              	SEGGER_RTT_ReadUpBuffer:
 952              	.LVL112:
 953              	.LFB7:
 736:Core/Src/SEGGER_RTT.c **** 
 737:Core/Src/SEGGER_RTT.c **** /*********************************************************************
 738:Core/Src/SEGGER_RTT.c **** *
 739:Core/Src/SEGGER_RTT.c **** *       SEGGER_RTT_ReadUpBuffer
 740:Core/Src/SEGGER_RTT.c **** *
 741:Core/Src/SEGGER_RTT.c **** *  Function description
 742:Core/Src/SEGGER_RTT.c **** *    Reads characters from SEGGER real-time-terminal control block
 743:Core/Src/SEGGER_RTT.c **** *    which have been previously stored by the application.
 744:Core/Src/SEGGER_RTT.c **** *    Used to do the same operation that J-Link does, to transfer 
 745:Core/Src/SEGGER_RTT.c **** *    RTT data via other channels, such as TCP/IP or UART.
 746:Core/Src/SEGGER_RTT.c **** *
 747:Core/Src/SEGGER_RTT.c **** *  Parameters
 748:Core/Src/SEGGER_RTT.c **** *    BufferIndex  Index of Up-buffer to be used.
 749:Core/Src/SEGGER_RTT.c **** *    pBuffer      Pointer to buffer provided by target application, to copy characters from RTT-up-
 750:Core/Src/SEGGER_RTT.c **** *    BufferSize   Size of the target application buffer.
 751:Core/Src/SEGGER_RTT.c **** *
 752:Core/Src/SEGGER_RTT.c **** *  Return value
 753:Core/Src/SEGGER_RTT.c **** *    Number of bytes that have been read.
 754:Core/Src/SEGGER_RTT.c **** *
 755:Core/Src/SEGGER_RTT.c **** *  Additional information
 756:Core/Src/SEGGER_RTT.c **** *    This function must not be called when J-Link might also do RTT.
 757:Core/Src/SEGGER_RTT.c **** *    This function locks against all other RTT operations. I.e. during
 758:Core/Src/SEGGER_RTT.c **** *    the read operation, writing is also locked.
 759:Core/Src/SEGGER_RTT.c **** *    If only one consumer reads from the up buffer, 
 760:Core/Src/SEGGER_RTT.c **** *    call sEGGER_RTT_ReadUpBufferNoLock() instead.
 761:Core/Src/SEGGER_RTT.c **** */
 762:Core/Src/SEGGER_RTT.c **** unsigned SEGGER_RTT_ReadUpBuffer(unsigned BufferIndex, void* pBuffer, unsigned BufferSize) {
 954              		.loc 1 762 92 is_stmt 1 view -0
 955              		.cfi_startproc
 956              		@ args = 0, pretend = 0, frame = 0
 957              		@ frame_needed = 0, uses_anonymous_args = 0
 958              		.loc 1 762 92 is_stmt 0 view .LVU320
 959 0000 10B5     		push	{r4, lr}
 960              		.cfi_def_cfa_offset 8
 961              		.cfi_offset 4, -8
 962              		.cfi_offset 14, -4
 963 0002 0B46     		mov	r3, r1
 763:Core/Src/SEGGER_RTT.c ****   unsigned NumBytesRead;
 964              		.loc 1 763 3 is_stmt 1 view .LVU321
ARM GAS  /var/folders/lp/x54gwt890xv47sdkqj1k04q40000gn/T//ccydrndK.s 			page 35


 965              	.LBB6:
 764:Core/Src/SEGGER_RTT.c **** 
 765:Core/Src/SEGGER_RTT.c ****   SEGGER_RTT_LOCK();
 966              		.loc 1 765 3 view .LVU322
 967              		.loc 1 765 3 view .LVU323
 968              		.syntax unified
 969              	@ 765 "Core/Src/SEGGER_RTT.c" 1
 970 0004 EFF31184 		mrs   r4, basepri  
 971 0008 4FF02001 		mov   r1, #32       
 972 000c 81F31188 		msr   basepri, r1  
 973              		
 974              	@ 0 "" 2
 975              	.LVL113:
 976              		.loc 1 765 20 view .LVU324
 766:Core/Src/SEGGER_RTT.c ****   //
 767:Core/Src/SEGGER_RTT.c ****   // Call the non-locking read function
 768:Core/Src/SEGGER_RTT.c ****   //
 769:Core/Src/SEGGER_RTT.c ****   NumBytesRead = SEGGER_RTT_ReadUpBufferNoLock(BufferIndex, pBuffer, BufferSize);
 977              		.loc 1 769 3 view .LVU325
 978              		.loc 1 769 18 is_stmt 0 view .LVU326
 979              		.thumb
 980              		.syntax unified
 981 0010 1946     		mov	r1, r3
 982 0012 FFF7FEFF 		bl	SEGGER_RTT_ReadUpBufferNoLock
 983              	.LVL114:
 770:Core/Src/SEGGER_RTT.c ****   //
 771:Core/Src/SEGGER_RTT.c ****   // Finish up.
 772:Core/Src/SEGGER_RTT.c ****   //
 773:Core/Src/SEGGER_RTT.c ****   SEGGER_RTT_UNLOCK();
 984              		.loc 1 773 3 is_stmt 1 view .LVU327
 985              		.syntax unified
 986              	@ 773 "Core/Src/SEGGER_RTT.c" 1
 987 0016 84F31188 		msr   basepri, r4  
 988              		
 989              	@ 0 "" 2
 990              		.thumb
 991              		.syntax unified
 992              	.LBE6:
 993              		.loc 1 773 22 view .LVU328
 774:Core/Src/SEGGER_RTT.c ****   //
 775:Core/Src/SEGGER_RTT.c ****   return NumBytesRead;
 994              		.loc 1 775 3 view .LVU329
 776:Core/Src/SEGGER_RTT.c **** }
 995              		.loc 1 776 1 is_stmt 0 view .LVU330
 996 001a 10BD     		pop	{r4, pc}
 997              		.loc 1 776 1 view .LVU331
 998              		.cfi_endproc
 999              	.LFE7:
 1001              		.section	.text.SEGGER_RTT_Read,"ax",%progbits
 1002              		.align	1
 1003              		.global	SEGGER_RTT_Read
 1004              		.syntax unified
 1005              		.thumb
 1006              		.thumb_func
 1008              	SEGGER_RTT_Read:
 1009              	.LVL115:
 1010              	.LFB8:
ARM GAS  /var/folders/lp/x54gwt890xv47sdkqj1k04q40000gn/T//ccydrndK.s 			page 36


 777:Core/Src/SEGGER_RTT.c **** 
 778:Core/Src/SEGGER_RTT.c **** /*********************************************************************
 779:Core/Src/SEGGER_RTT.c **** *
 780:Core/Src/SEGGER_RTT.c **** *       SEGGER_RTT_Read
 781:Core/Src/SEGGER_RTT.c **** *
 782:Core/Src/SEGGER_RTT.c **** *  Function description
 783:Core/Src/SEGGER_RTT.c **** *    Reads characters from SEGGER real-time-terminal control block
 784:Core/Src/SEGGER_RTT.c **** *    which have been previously stored by the host.
 785:Core/Src/SEGGER_RTT.c **** *
 786:Core/Src/SEGGER_RTT.c **** *  Parameters
 787:Core/Src/SEGGER_RTT.c **** *    BufferIndex  Index of Down-buffer to be used (e.g. 0 for "Terminal").
 788:Core/Src/SEGGER_RTT.c **** *    pBuffer      Pointer to buffer provided by target application, to copy characters from RTT-dow
 789:Core/Src/SEGGER_RTT.c **** *    BufferSize   Size of the target application buffer.
 790:Core/Src/SEGGER_RTT.c **** *
 791:Core/Src/SEGGER_RTT.c **** *  Return value
 792:Core/Src/SEGGER_RTT.c **** *    Number of bytes that have been read.
 793:Core/Src/SEGGER_RTT.c **** */
 794:Core/Src/SEGGER_RTT.c **** unsigned SEGGER_RTT_Read(unsigned BufferIndex, void* pBuffer, unsigned BufferSize) {
 1011              		.loc 1 794 84 is_stmt 1 view -0
 1012              		.cfi_startproc
 1013              		@ args = 0, pretend = 0, frame = 0
 1014              		@ frame_needed = 0, uses_anonymous_args = 0
 1015              		.loc 1 794 84 is_stmt 0 view .LVU333
 1016 0000 10B5     		push	{r4, lr}
 1017              		.cfi_def_cfa_offset 8
 1018              		.cfi_offset 4, -8
 1019              		.cfi_offset 14, -4
 1020 0002 0B46     		mov	r3, r1
 795:Core/Src/SEGGER_RTT.c ****   unsigned NumBytesRead;
 1021              		.loc 1 795 3 is_stmt 1 view .LVU334
 1022              	.LBB7:
 796:Core/Src/SEGGER_RTT.c **** 
 797:Core/Src/SEGGER_RTT.c ****   SEGGER_RTT_LOCK();
 1023              		.loc 1 797 3 view .LVU335
 1024              		.loc 1 797 3 view .LVU336
 1025              		.syntax unified
 1026              	@ 797 "Core/Src/SEGGER_RTT.c" 1
 1027 0004 EFF31184 		mrs   r4, basepri  
 1028 0008 4FF02001 		mov   r1, #32       
 1029 000c 81F31188 		msr   basepri, r1  
 1030              		
 1031              	@ 0 "" 2
 1032              	.LVL116:
 1033              		.loc 1 797 20 view .LVU337
 798:Core/Src/SEGGER_RTT.c ****   //
 799:Core/Src/SEGGER_RTT.c ****   // Call the non-locking read function
 800:Core/Src/SEGGER_RTT.c ****   //
 801:Core/Src/SEGGER_RTT.c ****   NumBytesRead = SEGGER_RTT_ReadNoLock(BufferIndex, pBuffer, BufferSize);
 1034              		.loc 1 801 3 view .LVU338
 1035              		.loc 1 801 18 is_stmt 0 view .LVU339
 1036              		.thumb
 1037              		.syntax unified
 1038 0010 1946     		mov	r1, r3
 1039 0012 FFF7FEFF 		bl	SEGGER_RTT_ReadNoLock
 1040              	.LVL117:
 802:Core/Src/SEGGER_RTT.c ****   //
 803:Core/Src/SEGGER_RTT.c ****   // Finish up.
ARM GAS  /var/folders/lp/x54gwt890xv47sdkqj1k04q40000gn/T//ccydrndK.s 			page 37


 804:Core/Src/SEGGER_RTT.c ****   //
 805:Core/Src/SEGGER_RTT.c ****   SEGGER_RTT_UNLOCK();
 1041              		.loc 1 805 3 is_stmt 1 view .LVU340
 1042              		.syntax unified
 1043              	@ 805 "Core/Src/SEGGER_RTT.c" 1
 1044 0016 84F31188 		msr   basepri, r4  
 1045              		
 1046              	@ 0 "" 2
 1047              		.thumb
 1048              		.syntax unified
 1049              	.LBE7:
 1050              		.loc 1 805 22 view .LVU341
 806:Core/Src/SEGGER_RTT.c ****   //
 807:Core/Src/SEGGER_RTT.c ****   return NumBytesRead;
 1051              		.loc 1 807 3 view .LVU342
 808:Core/Src/SEGGER_RTT.c **** }
 1052              		.loc 1 808 1 is_stmt 0 view .LVU343
 1053 001a 10BD     		pop	{r4, pc}
 1054              		.loc 1 808 1 view .LVU344
 1055              		.cfi_endproc
 1056              	.LFE8:
 1058              		.section	.text.SEGGER_RTT_WriteWithOverwriteNoLock,"ax",%progbits
 1059              		.align	1
 1060              		.global	SEGGER_RTT_WriteWithOverwriteNoLock
 1061              		.syntax unified
 1062              		.thumb
 1063              		.thumb_func
 1065              	SEGGER_RTT_WriteWithOverwriteNoLock:
 1066              	.LVL118:
 1067              	.LFB9:
 809:Core/Src/SEGGER_RTT.c **** 
 810:Core/Src/SEGGER_RTT.c **** /*********************************************************************
 811:Core/Src/SEGGER_RTT.c **** *
 812:Core/Src/SEGGER_RTT.c **** *       SEGGER_RTT_WriteWithOverwriteNoLock
 813:Core/Src/SEGGER_RTT.c **** *
 814:Core/Src/SEGGER_RTT.c **** *  Function description
 815:Core/Src/SEGGER_RTT.c **** *    Stores a specified number of characters in SEGGER RTT
 816:Core/Src/SEGGER_RTT.c **** *    control block.
 817:Core/Src/SEGGER_RTT.c **** *    SEGGER_RTT_WriteWithOverwriteNoLock does not lock the application 
 818:Core/Src/SEGGER_RTT.c **** *    and overwrites data if the data does not fit into the buffer.
 819:Core/Src/SEGGER_RTT.c **** *
 820:Core/Src/SEGGER_RTT.c **** *  Parameters
 821:Core/Src/SEGGER_RTT.c **** *    BufferIndex  Index of "Up"-buffer to be used (e.g. 0 for "Terminal").
 822:Core/Src/SEGGER_RTT.c **** *    pBuffer      Pointer to character array. Does not need to point to a \0 terminated string.
 823:Core/Src/SEGGER_RTT.c **** *    NumBytes     Number of bytes to be stored in the SEGGER RTT control block.
 824:Core/Src/SEGGER_RTT.c **** *
 825:Core/Src/SEGGER_RTT.c **** *  Notes
 826:Core/Src/SEGGER_RTT.c **** *    (1) If there is not enough space in the "Up"-buffer, data is overwritten.
 827:Core/Src/SEGGER_RTT.c **** *    (2) For performance reasons this function does not call Init()
 828:Core/Src/SEGGER_RTT.c **** *        and may only be called after RTT has been initialized.
 829:Core/Src/SEGGER_RTT.c **** *        Either by calling SEGGER_RTT_Init() or calling another RTT API function first.
 830:Core/Src/SEGGER_RTT.c **** *    (3) Do not use SEGGER_RTT_WriteWithOverwriteNoLock if a J-Link 
 831:Core/Src/SEGGER_RTT.c **** *        connection reads RTT data.
 832:Core/Src/SEGGER_RTT.c **** */
 833:Core/Src/SEGGER_RTT.c **** void SEGGER_RTT_WriteWithOverwriteNoLock(unsigned BufferIndex, const void* pBuffer, unsigned NumByt
 1068              		.loc 1 833 104 is_stmt 1 view -0
 1069              		.cfi_startproc
ARM GAS  /var/folders/lp/x54gwt890xv47sdkqj1k04q40000gn/T//ccydrndK.s 			page 38


 1070              		@ args = 0, pretend = 0, frame = 0
 1071              		@ frame_needed = 0, uses_anonymous_args = 0
 1072              		.loc 1 833 104 is_stmt 0 view .LVU346
 1073 0000 2DE9F843 		push	{r3, r4, r5, r6, r7, r8, r9, lr}
 1074              		.cfi_def_cfa_offset 32
 1075              		.cfi_offset 3, -32
 1076              		.cfi_offset 4, -28
 1077              		.cfi_offset 5, -24
 1078              		.cfi_offset 6, -20
 1079              		.cfi_offset 7, -16
 1080              		.cfi_offset 8, -12
 1081              		.cfi_offset 9, -8
 1082              		.cfi_offset 14, -4
 1083 0004 0646     		mov	r6, r0
 1084 0006 8846     		mov	r8, r1
 1085 0008 1746     		mov	r7, r2
 834:Core/Src/SEGGER_RTT.c ****   const char*           pData;
 1086              		.loc 1 834 3 is_stmt 1 view .LVU347
 835:Core/Src/SEGGER_RTT.c ****   SEGGER_RTT_BUFFER_UP* pRing;
 1087              		.loc 1 835 3 view .LVU348
 836:Core/Src/SEGGER_RTT.c ****   unsigned              Avail;
 1088              		.loc 1 836 3 view .LVU349
 837:Core/Src/SEGGER_RTT.c ****   volatile char*        pDst;
 1089              		.loc 1 837 3 view .LVU350
 838:Core/Src/SEGGER_RTT.c ****   //
 839:Core/Src/SEGGER_RTT.c ****   // Get "to-host" ring buffer and copy some elements into local variables.
 840:Core/Src/SEGGER_RTT.c ****   //
 841:Core/Src/SEGGER_RTT.c ****   pData = (const char *)pBuffer;
 1090              		.loc 1 841 3 view .LVU351
 1091              	.LVL119:
 842:Core/Src/SEGGER_RTT.c ****   pRing = (SEGGER_RTT_BUFFER_UP*)((char*)&_SEGGER_RTT.aUp[BufferIndex] + SEGGER_RTT_UNCACHED_OFF); 
 1092              		.loc 1 842 3 view .LVU352
 843:Core/Src/SEGGER_RTT.c ****   //
 844:Core/Src/SEGGER_RTT.c ****   // Check if we will overwrite data and need to adjust the RdOff.
 845:Core/Src/SEGGER_RTT.c ****   //
 846:Core/Src/SEGGER_RTT.c ****   if (pRing->WrOff == pRing->RdOff) {
 1093              		.loc 1 846 3 view .LVU353
 1094              		.loc 1 846 12 is_stmt 0 view .LVU354
 1095 000a 00EB4002 		add	r2, r0, r0, lsl #1
 1096              	.LVL120:
 1097              		.loc 1 846 12 view .LVU355
 1098 000e 404B     		ldr	r3, .L71
 1099 0010 03EBC203 		add	r3, r3, r2, lsl #3
 1100 0014 596A     		ldr	r1, [r3, #36]
 1101              	.LVL121:
 1102              		.loc 1 846 28 view .LVU356
 1103 0016 9B6A     		ldr	r3, [r3, #40]
 1104              		.loc 1 846 6 view .LVU357
 1105 0018 9942     		cmp	r1, r3
 1106 001a 0ED0     		beq	.L69
 847:Core/Src/SEGGER_RTT.c ****     Avail = pRing->SizeOfBuffer - 1u;
 848:Core/Src/SEGGER_RTT.c ****   } else if ( pRing->WrOff < pRing->RdOff) {
 1107              		.loc 1 848 10 is_stmt 1 view .LVU358
 1108              		.loc 1 848 35 is_stmt 0 view .LVU359
 1109 001c 00EB4002 		add	r2, r0, r0, lsl #1
 1110 0020 3B4B     		ldr	r3, .L71
 1111 0022 03EBC203 		add	r3, r3, r2, lsl #3
ARM GAS  /var/folders/lp/x54gwt890xv47sdkqj1k04q40000gn/T//ccydrndK.s 			page 39


 1112 0026 9B6A     		ldr	r3, [r3, #40]
 1113              		.loc 1 848 13 view .LVU360
 1114 0028 9942     		cmp	r1, r3
 1115 002a 17D2     		bcs	.L61
 849:Core/Src/SEGGER_RTT.c ****     Avail = pRing->RdOff - pRing->WrOff - 1u;
 1116              		.loc 1 849 5 is_stmt 1 view .LVU361
 1117              		.loc 1 849 18 is_stmt 0 view .LVU362
 1118 002c 384B     		ldr	r3, .L71
 1119 002e 03EBC203 		add	r3, r3, r2, lsl #3
 1120 0032 9B6A     		ldr	r3, [r3, #40]
 1121              		.loc 1 849 26 view .LVU363
 1122 0034 5B1A     		subs	r3, r3, r1
 1123              		.loc 1 849 11 view .LVU364
 1124 0036 013B     		subs	r3, r3, #1
 1125              	.LVL122:
 1126              		.loc 1 849 11 view .LVU365
 1127 0038 04E0     		b	.L60
 1128              	.LVL123:
 1129              	.L69:
 847:Core/Src/SEGGER_RTT.c ****     Avail = pRing->SizeOfBuffer - 1u;
 1130              		.loc 1 847 5 is_stmt 1 view .LVU366
 847:Core/Src/SEGGER_RTT.c ****     Avail = pRing->SizeOfBuffer - 1u;
 1131              		.loc 1 847 18 is_stmt 0 view .LVU367
 1132 003a 354B     		ldr	r3, .L71
 1133 003c 03EBC203 		add	r3, r3, r2, lsl #3
 1134 0040 1B6A     		ldr	r3, [r3, #32]
 847:Core/Src/SEGGER_RTT.c ****     Avail = pRing->SizeOfBuffer - 1u;
 1135              		.loc 1 847 11 view .LVU368
 1136 0042 013B     		subs	r3, r3, #1
 1137              	.LVL124:
 1138              	.L60:
 850:Core/Src/SEGGER_RTT.c ****   } else {
 851:Core/Src/SEGGER_RTT.c ****     Avail = pRing->RdOff - pRing->WrOff - 1u + pRing->SizeOfBuffer;
 852:Core/Src/SEGGER_RTT.c ****   }
 853:Core/Src/SEGGER_RTT.c ****   if (NumBytes > Avail) {
 1139              		.loc 1 853 3 is_stmt 1 view .LVU369
 1140              		.loc 1 853 6 is_stmt 0 view .LVU370
 1141 0044 BB42     		cmp	r3, r7
 1142 0046 25D2     		bcs	.L62
 854:Core/Src/SEGGER_RTT.c ****     pRing->RdOff += (NumBytes - Avail);
 1143              		.loc 1 854 5 is_stmt 1 view .LVU371
 1144              		.loc 1 854 10 is_stmt 0 view .LVU372
 1145 0048 06EB4600 		add	r0, r6, r6, lsl #1
 1146              	.LVL125:
 1147              		.loc 1 854 10 view .LVU373
 1148 004c 304A     		ldr	r2, .L71
 1149 004e 02EBC002 		add	r2, r2, r0, lsl #3
 1150 0052 906A     		ldr	r0, [r2, #40]
 1151              		.loc 1 854 31 view .LVU374
 1152 0054 FB1A     		subs	r3, r7, r3
 1153              	.LVL126:
 1154              		.loc 1 854 18 view .LVU375
 1155 0056 0344     		add	r3, r3, r0
 1156 0058 9362     		str	r3, [r2, #40]
 855:Core/Src/SEGGER_RTT.c ****     while (pRing->RdOff >= pRing->SizeOfBuffer) {
 1157              		.loc 1 855 5 is_stmt 1 view .LVU376
 1158              		.loc 1 855 11 is_stmt 0 view .LVU377
ARM GAS  /var/folders/lp/x54gwt890xv47sdkqj1k04q40000gn/T//ccydrndK.s 			page 40


 1159 005a 12E0     		b	.L63
 1160              	.LVL127:
 1161              	.L61:
 851:Core/Src/SEGGER_RTT.c ****   }
 1162              		.loc 1 851 5 is_stmt 1 view .LVU378
 851:Core/Src/SEGGER_RTT.c ****   }
 1163              		.loc 1 851 18 is_stmt 0 view .LVU379
 1164 005c 00EB4003 		add	r3, r0, r0, lsl #1
 1165 0060 2B4A     		ldr	r2, .L71
 1166 0062 02EBC302 		add	r2, r2, r3, lsl #3
 1167 0066 936A     		ldr	r3, [r2, #40]
 851:Core/Src/SEGGER_RTT.c ****   }
 1168              		.loc 1 851 26 view .LVU380
 1169 0068 5B1A     		subs	r3, r3, r1
 851:Core/Src/SEGGER_RTT.c ****   }
 1170              		.loc 1 851 53 view .LVU381
 1171 006a 126A     		ldr	r2, [r2, #32]
 851:Core/Src/SEGGER_RTT.c ****   }
 1172              		.loc 1 851 46 view .LVU382
 1173 006c 1344     		add	r3, r3, r2
 851:Core/Src/SEGGER_RTT.c ****   }
 1174              		.loc 1 851 11 view .LVU383
 1175 006e 013B     		subs	r3, r3, #1
 1176              	.LVL128:
 851:Core/Src/SEGGER_RTT.c ****   }
 1177              		.loc 1 851 11 view .LVU384
 1178 0070 E8E7     		b	.L60
 1179              	.LVL129:
 1180              	.L64:
 856:Core/Src/SEGGER_RTT.c ****       pRing->RdOff -= pRing->SizeOfBuffer;
 1181              		.loc 1 856 7 is_stmt 1 view .LVU385
 1182              		.loc 1 856 12 is_stmt 0 view .LVU386
 1183 0072 06EB4602 		add	r2, r6, r6, lsl #1
 1184 0076 264B     		ldr	r3, .L71
 1185 0078 03EBC203 		add	r3, r3, r2, lsl #3
 1186 007c 9A6A     		ldr	r2, [r3, #40]
 1187              		.loc 1 856 20 view .LVU387
 1188 007e 121A     		subs	r2, r2, r0
 1189 0080 9A62     		str	r2, [r3, #40]
 1190              	.L63:
 855:Core/Src/SEGGER_RTT.c ****     while (pRing->RdOff >= pRing->SizeOfBuffer) {
 1191              		.loc 1 855 25 is_stmt 1 view .LVU388
 855:Core/Src/SEGGER_RTT.c ****     while (pRing->RdOff >= pRing->SizeOfBuffer) {
 1192              		.loc 1 855 17 is_stmt 0 view .LVU389
 1193 0082 06EB4602 		add	r2, r6, r6, lsl #1
 1194 0086 224B     		ldr	r3, .L71
 1195 0088 03EBC203 		add	r3, r3, r2, lsl #3
 1196 008c 9A6A     		ldr	r2, [r3, #40]
 855:Core/Src/SEGGER_RTT.c ****     while (pRing->RdOff >= pRing->SizeOfBuffer) {
 1197              		.loc 1 855 33 view .LVU390
 1198 008e 186A     		ldr	r0, [r3, #32]
 855:Core/Src/SEGGER_RTT.c ****     while (pRing->RdOff >= pRing->SizeOfBuffer) {
 1199              		.loc 1 855 25 view .LVU391
 1200 0090 8242     		cmp	r2, r0
 1201 0092 EED2     		bcs	.L64
 1202              	.L62:
 857:Core/Src/SEGGER_RTT.c ****     }
ARM GAS  /var/folders/lp/x54gwt890xv47sdkqj1k04q40000gn/T//ccydrndK.s 			page 41


 858:Core/Src/SEGGER_RTT.c ****   }
 859:Core/Src/SEGGER_RTT.c ****   //
 860:Core/Src/SEGGER_RTT.c ****   // Write all data, no need to check the RdOff, but possibly handle multiple wrap-arounds
 861:Core/Src/SEGGER_RTT.c ****   //
 862:Core/Src/SEGGER_RTT.c ****   Avail = pRing->SizeOfBuffer - pRing->WrOff;
 1203              		.loc 1 862 3 is_stmt 1 view .LVU392
 1204              		.loc 1 862 16 is_stmt 0 view .LVU393
 1205 0094 06EB4602 		add	r2, r6, r6, lsl #1
 1206 0098 1D4B     		ldr	r3, .L71
 1207 009a 03EBC203 		add	r3, r3, r2, lsl #3
 1208 009e 1C6A     		ldr	r4, [r3, #32]
 1209              		.loc 1 862 9 view .LVU394
 1210 00a0 641A     		subs	r4, r4, r1
 1211              	.LVL130:
 1212              	.L67:
 863:Core/Src/SEGGER_RTT.c ****   do {
 1213              		.loc 1 863 3 is_stmt 1 view .LVU395
 864:Core/Src/SEGGER_RTT.c ****     if (Avail > NumBytes) {
 1214              		.loc 1 864 5 view .LVU396
 1215              		.loc 1 864 8 is_stmt 0 view .LVU397
 1216 00a2 A742     		cmp	r7, r4
 1217 00a4 1BD3     		bcc	.L70
 865:Core/Src/SEGGER_RTT.c ****       //
 866:Core/Src/SEGGER_RTT.c ****       // Last round
 867:Core/Src/SEGGER_RTT.c ****       //
 868:Core/Src/SEGGER_RTT.c ****       pDst = (pRing->pBuffer + pRing->WrOff) + SEGGER_RTT_UNCACHED_OFF;
 869:Core/Src/SEGGER_RTT.c **** #if SEGGER_RTT_MEMCPY_USE_BYTELOOP
 870:Core/Src/SEGGER_RTT.c ****       Avail = NumBytes;
 871:Core/Src/SEGGER_RTT.c ****       while (NumBytes--) {
 872:Core/Src/SEGGER_RTT.c ****         *pDst++ = *pData++;
 873:Core/Src/SEGGER_RTT.c ****       };
 874:Core/Src/SEGGER_RTT.c ****       RTT__DMB();                     // Force data write to be complete before writing the <WrOff>
 875:Core/Src/SEGGER_RTT.c ****       pRing->WrOff += Avail;
 876:Core/Src/SEGGER_RTT.c **** #else
 877:Core/Src/SEGGER_RTT.c ****       SEGGER_RTT_MEMCPY((void*)pDst, pData, NumBytes);
 878:Core/Src/SEGGER_RTT.c ****       RTT__DMB();                     // Force data write to be complete before writing the <WrOff>
 879:Core/Src/SEGGER_RTT.c ****       pRing->WrOff += NumBytes;
 880:Core/Src/SEGGER_RTT.c **** #endif
 881:Core/Src/SEGGER_RTT.c ****       break;
 882:Core/Src/SEGGER_RTT.c ****     } else {
 883:Core/Src/SEGGER_RTT.c ****       //
 884:Core/Src/SEGGER_RTT.c ****       //  Wrap-around necessary, write until wrap-around and reset WrOff
 885:Core/Src/SEGGER_RTT.c ****       //
 886:Core/Src/SEGGER_RTT.c ****       pDst = (pRing->pBuffer + pRing->WrOff) + SEGGER_RTT_UNCACHED_OFF;
 1218              		.loc 1 886 7 is_stmt 1 view .LVU398
 1219              		.loc 1 886 20 is_stmt 0 view .LVU399
 1220 00a6 1A4D     		ldr	r5, .L71
 1221 00a8 731C     		adds	r3, r6, #1
 1222 00aa 03EB4303 		add	r3, r3, r3, lsl #1
 1223 00ae 05EBC303 		add	r3, r5, r3, lsl #3
 1224 00b2 5868     		ldr	r0, [r3, #4]
 1225              		.loc 1 886 37 view .LVU400
 1226 00b4 06EB4603 		add	r3, r6, r6, lsl #1
 1227 00b8 05EBC305 		add	r5, r5, r3, lsl #3
 1228 00bc 6B6A     		ldr	r3, [r5, #36]
 1229              	.LVL131:
 887:Core/Src/SEGGER_RTT.c **** #if SEGGER_RTT_MEMCPY_USE_BYTELOOP
ARM GAS  /var/folders/lp/x54gwt890xv47sdkqj1k04q40000gn/T//ccydrndK.s 			page 42


 888:Core/Src/SEGGER_RTT.c ****       NumBytes -= Avail;
 889:Core/Src/SEGGER_RTT.c ****       while (Avail--) {
 890:Core/Src/SEGGER_RTT.c ****         *pDst++ = *pData++;
 891:Core/Src/SEGGER_RTT.c ****       };
 892:Core/Src/SEGGER_RTT.c ****       RTT__DMB();                     // Force data write to be complete before writing the <WrOff>
 893:Core/Src/SEGGER_RTT.c ****       pRing->WrOff = 0;
 894:Core/Src/SEGGER_RTT.c **** #else
 895:Core/Src/SEGGER_RTT.c ****       SEGGER_RTT_MEMCPY((void*)pDst, pData, Avail);
 1230              		.loc 1 895 7 is_stmt 1 view .LVU401
 1231 00be 2246     		mov	r2, r4
 1232 00c0 4146     		mov	r1, r8
 1233 00c2 1844     		add	r0, r0, r3
 1234              	.LVL132:
 1235              		.loc 1 895 7 is_stmt 0 view .LVU402
 1236 00c4 FFF7FEFF 		bl	memcpy
 1237              	.LVL133:
 896:Core/Src/SEGGER_RTT.c ****       pData += Avail;
 1238              		.loc 1 896 7 is_stmt 1 view .LVU403
 1239              		.loc 1 896 13 is_stmt 0 view .LVU404
 1240 00c8 A044     		add	r8, r8, r4
 1241              	.LVL134:
 897:Core/Src/SEGGER_RTT.c ****       RTT__DMB();                     // Force data write to be complete before writing the <WrOff>
 1242              		.loc 1 897 7 is_stmt 1 view .LVU405
 1243              		.syntax unified
 1244              	@ 897 "Core/Src/SEGGER_RTT.c" 1
 1245 00ca BFF35F8F 		dmb
 1246              	
 1247              	@ 0 "" 2
 1248              		.loc 1 897 17 view .LVU406
 898:Core/Src/SEGGER_RTT.c ****       pRing->WrOff = 0;
 1249              		.loc 1 898 7 view .LVU407
 1250              		.loc 1 898 20 is_stmt 0 view .LVU408
 1251              		.thumb
 1252              		.syntax unified
 1253 00ce 0023     		movs	r3, #0
 1254 00d0 6B62     		str	r3, [r5, #36]
 899:Core/Src/SEGGER_RTT.c ****       NumBytes -= Avail;
 1255              		.loc 1 899 7 is_stmt 1 view .LVU409
 1256              		.loc 1 899 16 is_stmt 0 view .LVU410
 1257 00d2 3F1B     		subs	r7, r7, r4
 1258              	.LVL135:
 900:Core/Src/SEGGER_RTT.c **** #endif
 901:Core/Src/SEGGER_RTT.c ****       Avail = (pRing->SizeOfBuffer - 1);
 1259              		.loc 1 901 7 is_stmt 1 view .LVU411
 1260              		.loc 1 901 21 is_stmt 0 view .LVU412
 1261 00d4 2C6A     		ldr	r4, [r5, #32]
 1262              	.LVL136:
 1263              		.loc 1 901 13 view .LVU413
 1264 00d6 013C     		subs	r4, r4, #1
 1265              	.LVL137:
 902:Core/Src/SEGGER_RTT.c ****     }
 903:Core/Src/SEGGER_RTT.c ****   } while (NumBytes);
 1266              		.loc 1 903 12 is_stmt 1 view .LVU414
 1267 00d8 002F     		cmp	r7, #0
 1268 00da E2D1     		bne	.L67
 1269 00dc 15E0     		b	.L58
 1270              	.LVL138:
ARM GAS  /var/folders/lp/x54gwt890xv47sdkqj1k04q40000gn/T//ccydrndK.s 			page 43


 1271              	.L70:
 868:Core/Src/SEGGER_RTT.c **** #if SEGGER_RTT_MEMCPY_USE_BYTELOOP
 1272              		.loc 1 868 7 view .LVU415
 868:Core/Src/SEGGER_RTT.c **** #if SEGGER_RTT_MEMCPY_USE_BYTELOOP
 1273              		.loc 1 868 20 is_stmt 0 view .LVU416
 1274 00de 0C4C     		ldr	r4, .L71
 1275              	.LVL139:
 868:Core/Src/SEGGER_RTT.c **** #if SEGGER_RTT_MEMCPY_USE_BYTELOOP
 1276              		.loc 1 868 20 view .LVU417
 1277 00e0 731C     		adds	r3, r6, #1
 1278 00e2 03EB4303 		add	r3, r3, r3, lsl #1
 1279 00e6 04EBC303 		add	r3, r4, r3, lsl #3
 1280 00ea 5868     		ldr	r0, [r3, #4]
 868:Core/Src/SEGGER_RTT.c **** #if SEGGER_RTT_MEMCPY_USE_BYTELOOP
 1281              		.loc 1 868 37 view .LVU418
 1282 00ec 06EB4605 		add	r5, r6, r6, lsl #1
 1283 00f0 04EBC505 		add	r5, r4, r5, lsl #3
 1284 00f4 6B6A     		ldr	r3, [r5, #36]
 1285              	.LVL140:
 877:Core/Src/SEGGER_RTT.c ****       RTT__DMB();                     // Force data write to be complete before writing the <WrOff>
 1286              		.loc 1 877 7 is_stmt 1 view .LVU419
 1287 00f6 3A46     		mov	r2, r7
 1288 00f8 4146     		mov	r1, r8
 1289 00fa 1844     		add	r0, r0, r3
 1290              	.LVL141:
 877:Core/Src/SEGGER_RTT.c ****       RTT__DMB();                     // Force data write to be complete before writing the <WrOff>
 1291              		.loc 1 877 7 is_stmt 0 view .LVU420
 1292 00fc FFF7FEFF 		bl	memcpy
 1293              	.LVL142:
 878:Core/Src/SEGGER_RTT.c ****       pRing->WrOff += NumBytes;
 1294              		.loc 1 878 7 is_stmt 1 view .LVU421
 1295              		.syntax unified
 1296              	@ 878 "Core/Src/SEGGER_RTT.c" 1
 1297 0100 BFF35F8F 		dmb
 1298              	
 1299              	@ 0 "" 2
 878:Core/Src/SEGGER_RTT.c ****       pRing->WrOff += NumBytes;
 1300              		.loc 1 878 17 view .LVU422
 879:Core/Src/SEGGER_RTT.c **** #endif
 1301              		.loc 1 879 7 view .LVU423
 879:Core/Src/SEGGER_RTT.c **** #endif
 1302              		.loc 1 879 12 is_stmt 0 view .LVU424
 1303              		.thumb
 1304              		.syntax unified
 1305 0104 6B6A     		ldr	r3, [r5, #36]
 879:Core/Src/SEGGER_RTT.c **** #endif
 1306              		.loc 1 879 20 view .LVU425
 1307 0106 3B44     		add	r3, r3, r7
 1308 0108 6B62     		str	r3, [r5, #36]
 881:Core/Src/SEGGER_RTT.c ****     } else {
 1309              		.loc 1 881 7 is_stmt 1 view .LVU426
 1310              	.LVL143:
 1311              	.L58:
 904:Core/Src/SEGGER_RTT.c **** }
 1312              		.loc 1 904 1 is_stmt 0 view .LVU427
 1313 010a BDE8F883 		pop	{r3, r4, r5, r6, r7, r8, r9, pc}
 1314              	.LVL144:
ARM GAS  /var/folders/lp/x54gwt890xv47sdkqj1k04q40000gn/T//ccydrndK.s 			page 44


 1315              	.L72:
 1316              		.loc 1 904 1 view .LVU428
 1317 010e 00BF     		.align	2
 1318              	.L71:
 1319 0110 00000000 		.word	_SEGGER_RTT
 1320              		.cfi_endproc
 1321              	.LFE9:
 1323              		.section	.text.SEGGER_RTT_WriteDownBufferNoLock,"ax",%progbits
 1324              		.align	1
 1325              		.global	SEGGER_RTT_WriteDownBufferNoLock
 1326              		.syntax unified
 1327              		.thumb
 1328              		.thumb_func
 1330              	SEGGER_RTT_WriteDownBufferNoLock:
 1331              	.LVL145:
 1332              	.LFB10:
 905:Core/Src/SEGGER_RTT.c **** 
 906:Core/Src/SEGGER_RTT.c **** /*********************************************************************
 907:Core/Src/SEGGER_RTT.c **** *
 908:Core/Src/SEGGER_RTT.c **** *       SEGGER_RTT_WriteSkipNoLock
 909:Core/Src/SEGGER_RTT.c **** *
 910:Core/Src/SEGGER_RTT.c **** *  Function description
 911:Core/Src/SEGGER_RTT.c **** *    Stores a specified number of characters in SEGGER RTT
 912:Core/Src/SEGGER_RTT.c **** *    control block which is then read by the host.
 913:Core/Src/SEGGER_RTT.c **** *    SEGGER_RTT_WriteSkipNoLock does not lock the application and
 914:Core/Src/SEGGER_RTT.c **** *    skips all data, if the data does not fit into the buffer.
 915:Core/Src/SEGGER_RTT.c **** *
 916:Core/Src/SEGGER_RTT.c **** *  Parameters
 917:Core/Src/SEGGER_RTT.c **** *    BufferIndex  Index of "Up"-buffer to be used (e.g. 0 for "Terminal").
 918:Core/Src/SEGGER_RTT.c **** *    pBuffer      Pointer to character array. Does not need to point to a \0 terminated string.
 919:Core/Src/SEGGER_RTT.c **** *    NumBytes     Number of bytes to be stored in the SEGGER RTT control block.
 920:Core/Src/SEGGER_RTT.c **** *                 MUST be > 0!!!
 921:Core/Src/SEGGER_RTT.c **** *                 This is done for performance reasons, so no initial check has do be done.
 922:Core/Src/SEGGER_RTT.c **** *
 923:Core/Src/SEGGER_RTT.c **** *  Return value
 924:Core/Src/SEGGER_RTT.c **** *    1: Data has been copied
 925:Core/Src/SEGGER_RTT.c **** *    0: No space, data has not been copied
 926:Core/Src/SEGGER_RTT.c **** *
 927:Core/Src/SEGGER_RTT.c **** *  Notes
 928:Core/Src/SEGGER_RTT.c **** *    (1) If there is not enough space in the "Up"-buffer, all data is dropped.
 929:Core/Src/SEGGER_RTT.c **** *    (2) For performance reasons this function does not call Init()
 930:Core/Src/SEGGER_RTT.c **** *        and may only be called after RTT has been initialized.
 931:Core/Src/SEGGER_RTT.c **** *        Either by calling SEGGER_RTT_Init() or calling another RTT API function first.
 932:Core/Src/SEGGER_RTT.c **** */
 933:Core/Src/SEGGER_RTT.c **** #if (RTT_USE_ASM == 0)
 934:Core/Src/SEGGER_RTT.c **** unsigned SEGGER_RTT_WriteSkipNoLock(unsigned BufferIndex, const void* pBuffer, unsigned NumBytes) {
 935:Core/Src/SEGGER_RTT.c ****   const char*           pData;
 936:Core/Src/SEGGER_RTT.c ****   SEGGER_RTT_BUFFER_UP* pRing;
 937:Core/Src/SEGGER_RTT.c ****   unsigned              Avail;
 938:Core/Src/SEGGER_RTT.c ****   unsigned              RdOff;
 939:Core/Src/SEGGER_RTT.c ****   unsigned              WrOff;
 940:Core/Src/SEGGER_RTT.c ****   unsigned              Rem;
 941:Core/Src/SEGGER_RTT.c ****   volatile char*        pDst;
 942:Core/Src/SEGGER_RTT.c ****   //
 943:Core/Src/SEGGER_RTT.c ****   // Cases:
 944:Core/Src/SEGGER_RTT.c ****   //   1) RdOff <= WrOff => Space until wrap-around is sufficient
 945:Core/Src/SEGGER_RTT.c ****   //   2) RdOff <= WrOff => Space after wrap-around needed (copy in 2 chunks)
ARM GAS  /var/folders/lp/x54gwt890xv47sdkqj1k04q40000gn/T//ccydrndK.s 			page 45


 946:Core/Src/SEGGER_RTT.c ****   //   3) RdOff <  WrOff => No space in buf
 947:Core/Src/SEGGER_RTT.c ****   //   4) RdOff >  WrOff => Space is sufficient
 948:Core/Src/SEGGER_RTT.c ****   //   5) RdOff >  WrOff => No space in buf
 949:Core/Src/SEGGER_RTT.c ****   //
 950:Core/Src/SEGGER_RTT.c ****   // 1) is the most common case for large buffers and assuming that J-Link reads the data fast enou
 951:Core/Src/SEGGER_RTT.c ****   //
 952:Core/Src/SEGGER_RTT.c ****   pData = (const char *)pBuffer;
 953:Core/Src/SEGGER_RTT.c ****   pRing = (SEGGER_RTT_BUFFER_UP*)((char*)&_SEGGER_RTT.aUp[BufferIndex] + SEGGER_RTT_UNCACHED_OFF); 
 954:Core/Src/SEGGER_RTT.c ****   RdOff = pRing->RdOff;
 955:Core/Src/SEGGER_RTT.c ****   WrOff = pRing->WrOff;
 956:Core/Src/SEGGER_RTT.c ****   if (RdOff <= WrOff) {                                 // Case 1), 2) or 3)
 957:Core/Src/SEGGER_RTT.c ****     Avail = pRing->SizeOfBuffer - WrOff - 1u;           // Space until wrap-around (assume 1 byte n
 958:Core/Src/SEGGER_RTT.c ****     if (Avail >= NumBytes) {                            // Case 1)?
 959:Core/Src/SEGGER_RTT.c **** CopyStraight:
 960:Core/Src/SEGGER_RTT.c ****       pDst = (pRing->pBuffer + WrOff) + SEGGER_RTT_UNCACHED_OFF;
 961:Core/Src/SEGGER_RTT.c ****       memcpy((void*)pDst, pData, NumBytes);
 962:Core/Src/SEGGER_RTT.c ****       RTT__DMB();                     // Force data write to be complete before writing the <WrOff>
 963:Core/Src/SEGGER_RTT.c ****       pRing->WrOff = WrOff + NumBytes;
 964:Core/Src/SEGGER_RTT.c ****       return 1;
 965:Core/Src/SEGGER_RTT.c ****     }
 966:Core/Src/SEGGER_RTT.c ****     Avail += RdOff;                                     // Space incl. wrap-around
 967:Core/Src/SEGGER_RTT.c ****     if (Avail >= NumBytes) {                            // Case 2? => If not, we have case 3) (does
 968:Core/Src/SEGGER_RTT.c ****       Rem = pRing->SizeOfBuffer - WrOff;                // Space until end of buffer
 969:Core/Src/SEGGER_RTT.c ****       pDst = (pRing->pBuffer + WrOff) + SEGGER_RTT_UNCACHED_OFF;
 970:Core/Src/SEGGER_RTT.c ****       memcpy((void*)pDst, pData, Rem);                  // Copy 1st chunk
 971:Core/Src/SEGGER_RTT.c ****       NumBytes -= Rem;
 972:Core/Src/SEGGER_RTT.c ****       //
 973:Core/Src/SEGGER_RTT.c ****       // Special case: First check that assumed RdOff == 0 calculated that last element before wrap
 974:Core/Src/SEGGER_RTT.c ****       // But 2nd check (considering space until wrap-around and until RdOff) revealed that RdOff is
 975:Core/Src/SEGGER_RTT.c ****       // In this case, we may use a copy straight until buffer end anyway without needing to copy 2
 976:Core/Src/SEGGER_RTT.c ****       // Therefore, check if 2nd memcpy is necessary at all
 977:Core/Src/SEGGER_RTT.c ****       //
 978:Core/Src/SEGGER_RTT.c ****       if (NumBytes) {
 979:Core/Src/SEGGER_RTT.c ****         pDst = pRing->pBuffer + SEGGER_RTT_UNCACHED_OFF;
 980:Core/Src/SEGGER_RTT.c ****         memcpy((void*)pDst, pData + Rem, NumBytes);
 981:Core/Src/SEGGER_RTT.c ****       }
 982:Core/Src/SEGGER_RTT.c ****       RTT__DMB();                     // Force data write to be complete before writing the <WrOff>
 983:Core/Src/SEGGER_RTT.c ****       pRing->WrOff = NumBytes;
 984:Core/Src/SEGGER_RTT.c ****       return 1;
 985:Core/Src/SEGGER_RTT.c ****     }
 986:Core/Src/SEGGER_RTT.c ****   } else {                                             // Potential case 4)
 987:Core/Src/SEGGER_RTT.c ****     Avail = RdOff - WrOff - 1u;
 988:Core/Src/SEGGER_RTT.c ****     if (Avail >= NumBytes) {                           // Case 4)? => If not, we have case 5) (does
 989:Core/Src/SEGGER_RTT.c ****       goto CopyStraight;
 990:Core/Src/SEGGER_RTT.c ****     }
 991:Core/Src/SEGGER_RTT.c ****   }
 992:Core/Src/SEGGER_RTT.c ****   return 0;     // No space in buffer
 993:Core/Src/SEGGER_RTT.c **** }
 994:Core/Src/SEGGER_RTT.c **** #endif
 995:Core/Src/SEGGER_RTT.c **** 
 996:Core/Src/SEGGER_RTT.c **** /*********************************************************************
 997:Core/Src/SEGGER_RTT.c **** *
 998:Core/Src/SEGGER_RTT.c **** *       SEGGER_RTT_WriteDownBufferNoLock
 999:Core/Src/SEGGER_RTT.c **** *
1000:Core/Src/SEGGER_RTT.c **** *  Function description
1001:Core/Src/SEGGER_RTT.c **** *    Stores a specified number of characters in SEGGER RTT
1002:Core/Src/SEGGER_RTT.c **** *    control block inside a <Down> buffer.
ARM GAS  /var/folders/lp/x54gwt890xv47sdkqj1k04q40000gn/T//ccydrndK.s 			page 46


1003:Core/Src/SEGGER_RTT.c **** *    SEGGER_RTT_WriteDownBufferNoLock does not lock the application.
1004:Core/Src/SEGGER_RTT.c **** *    Used to do the same operation that J-Link does, to transfer 
1005:Core/Src/SEGGER_RTT.c **** *    RTT data from other channels, such as TCP/IP or UART.
1006:Core/Src/SEGGER_RTT.c **** *
1007:Core/Src/SEGGER_RTT.c **** *  Parameters
1008:Core/Src/SEGGER_RTT.c **** *    BufferIndex  Index of "Down"-buffer to be used.
1009:Core/Src/SEGGER_RTT.c **** *    pBuffer      Pointer to character array. Does not need to point to a \0 terminated string.
1010:Core/Src/SEGGER_RTT.c **** *    NumBytes     Number of bytes to be stored in the SEGGER RTT control block.
1011:Core/Src/SEGGER_RTT.c **** *
1012:Core/Src/SEGGER_RTT.c **** *  Return value
1013:Core/Src/SEGGER_RTT.c **** *    Number of bytes which have been stored in the "Down"-buffer.
1014:Core/Src/SEGGER_RTT.c **** *
1015:Core/Src/SEGGER_RTT.c **** *  Notes
1016:Core/Src/SEGGER_RTT.c **** *    (1) Data is stored according to buffer flags.
1017:Core/Src/SEGGER_RTT.c **** *    (2) For performance reasons this function does not call Init()
1018:Core/Src/SEGGER_RTT.c **** *        and may only be called after RTT has been initialized.
1019:Core/Src/SEGGER_RTT.c **** *        Either by calling SEGGER_RTT_Init() or calling another RTT API function first.
1020:Core/Src/SEGGER_RTT.c **** *
1021:Core/Src/SEGGER_RTT.c **** *  Additional information
1022:Core/Src/SEGGER_RTT.c **** *    This function must not be called when J-Link might also do RTT.
1023:Core/Src/SEGGER_RTT.c **** */
1024:Core/Src/SEGGER_RTT.c **** unsigned SEGGER_RTT_WriteDownBufferNoLock(unsigned BufferIndex, const void* pBuffer, unsigned NumBy
 1333              		.loc 1 1024 105 is_stmt 1 view -0
 1334              		.cfi_startproc
 1335              		@ args = 0, pretend = 0, frame = 0
 1336              		@ frame_needed = 0, uses_anonymous_args = 0
 1337              		.loc 1 1024 105 is_stmt 0 view .LVU430
 1338 0000 F8B5     		push	{r3, r4, r5, r6, r7, lr}
 1339              		.cfi_def_cfa_offset 24
 1340              		.cfi_offset 3, -24
 1341              		.cfi_offset 4, -20
 1342              		.cfi_offset 5, -16
 1343              		.cfi_offset 6, -12
 1344              		.cfi_offset 7, -8
 1345              		.cfi_offset 14, -4
 1346 0002 0F46     		mov	r7, r1
 1347 0004 1646     		mov	r6, r2
1025:Core/Src/SEGGER_RTT.c ****   unsigned                Status;
 1348              		.loc 1 1025 3 is_stmt 1 view .LVU431
1026:Core/Src/SEGGER_RTT.c ****   unsigned                Avail;
 1349              		.loc 1 1026 3 view .LVU432
1027:Core/Src/SEGGER_RTT.c ****   const char*             pData;
 1350              		.loc 1 1027 3 view .LVU433
1028:Core/Src/SEGGER_RTT.c ****   SEGGER_RTT_BUFFER_UP*   pRing;
 1351              		.loc 1 1028 3 view .LVU434
1029:Core/Src/SEGGER_RTT.c ****   //
1030:Core/Src/SEGGER_RTT.c ****   // Get "to-target" ring buffer.
1031:Core/Src/SEGGER_RTT.c ****   // It is save to cast that to a "to-host" buffer. Up and Down buffer differ in volatility of offs
1032:Core/Src/SEGGER_RTT.c ****   //
1033:Core/Src/SEGGER_RTT.c ****   pData = (const char *)pBuffer;
 1352              		.loc 1 1033 3 view .LVU435
 1353              	.LVL146:
1034:Core/Src/SEGGER_RTT.c ****   pRing = (SEGGER_RTT_BUFFER_UP*)((char*)&_SEGGER_RTT.aDown[BufferIndex] + SEGGER_RTT_UNCACHED_OFF)
 1354              		.loc 1 1034 3 view .LVU436
 1355              		.loc 1 1034 9 is_stmt 0 view .LVU437
 1356 0006 00EB4000 		add	r0, r0, r0, lsl #1
 1357              	.LVL147:
ARM GAS  /var/folders/lp/x54gwt890xv47sdkqj1k04q40000gn/T//ccydrndK.s 			page 47


 1358              		.loc 1 1034 9 view .LVU438
 1359 000a C400     		lsls	r4, r0, #3
 1360 000c 6034     		adds	r4, r4, #96
 1361 000e 144B     		ldr	r3, .L79
 1362 0010 1C44     		add	r4, r4, r3
 1363              	.LVL148:
1035:Core/Src/SEGGER_RTT.c ****   //
1036:Core/Src/SEGGER_RTT.c ****   // How we output depends upon the mode...
1037:Core/Src/SEGGER_RTT.c ****   //
1038:Core/Src/SEGGER_RTT.c ****   switch (pRing->Flags) {
 1364              		.loc 1 1038 3 is_stmt 1 view .LVU439
 1365              		.loc 1 1038 16 is_stmt 0 view .LVU440
 1366 0012 6569     		ldr	r5, [r4, #20]
 1367              		.loc 1 1038 3 view .LVU441
 1368 0014 012D     		cmp	r5, #1
 1369 0016 0ED0     		beq	.L74
 1370 0018 022D     		cmp	r5, #2
 1371 001a 1AD0     		beq	.L75
 1372 001c F5B9     		cbnz	r5, .L77
1039:Core/Src/SEGGER_RTT.c ****   case SEGGER_RTT_MODE_NO_BLOCK_SKIP:
1040:Core/Src/SEGGER_RTT.c ****     //
1041:Core/Src/SEGGER_RTT.c ****     // If we are in skip mode and there is no space for the whole
1042:Core/Src/SEGGER_RTT.c ****     // of this output, don't bother.
1043:Core/Src/SEGGER_RTT.c ****     //
1044:Core/Src/SEGGER_RTT.c ****     Avail = _GetAvailWriteSpace(pRing);
 1373              		.loc 1 1044 5 is_stmt 1 view .LVU442
 1374              		.loc 1 1044 13 is_stmt 0 view .LVU443
 1375 001e 2046     		mov	r0, r4
 1376 0020 FFF7FEFF 		bl	_GetAvailWriteSpace
 1377              	.LVL149:
1045:Core/Src/SEGGER_RTT.c ****     if (Avail < NumBytes) {
 1378              		.loc 1 1045 5 is_stmt 1 view .LVU444
 1379              		.loc 1 1045 8 is_stmt 0 view .LVU445
 1380 0024 8642     		cmp	r6, r0
 1381 0026 12D8     		bhi	.L73
1046:Core/Src/SEGGER_RTT.c ****       Status = 0u;
1047:Core/Src/SEGGER_RTT.c ****     } else {
1048:Core/Src/SEGGER_RTT.c ****       Status = NumBytes;
 1382              		.loc 1 1048 7 is_stmt 1 view .LVU446
 1383              	.LVL150:
1049:Core/Src/SEGGER_RTT.c ****       _WriteNoCheck(pRing, pData, NumBytes);
 1384              		.loc 1 1049 7 view .LVU447
 1385 0028 3246     		mov	r2, r6
 1386 002a 3946     		mov	r1, r7
 1387 002c 2046     		mov	r0, r4
 1388              	.LVL151:
 1389              		.loc 1 1049 7 is_stmt 0 view .LVU448
 1390 002e FFF7FEFF 		bl	_WriteNoCheck
 1391              	.LVL152:
1048:Core/Src/SEGGER_RTT.c ****       _WriteNoCheck(pRing, pData, NumBytes);
 1392              		.loc 1 1048 14 view .LVU449
 1393 0032 3546     		mov	r5, r6
 1394 0034 0BE0     		b	.L73
 1395              	.LVL153:
 1396              	.L74:
1050:Core/Src/SEGGER_RTT.c ****     }
1051:Core/Src/SEGGER_RTT.c ****     break;
ARM GAS  /var/folders/lp/x54gwt890xv47sdkqj1k04q40000gn/T//ccydrndK.s 			page 48


1052:Core/Src/SEGGER_RTT.c ****   case SEGGER_RTT_MODE_NO_BLOCK_TRIM:
1053:Core/Src/SEGGER_RTT.c ****     //
1054:Core/Src/SEGGER_RTT.c ****     // If we are in trim mode, trim to what we can output without blocking.
1055:Core/Src/SEGGER_RTT.c ****     //
1056:Core/Src/SEGGER_RTT.c ****     Avail = _GetAvailWriteSpace(pRing);
 1397              		.loc 1 1056 5 is_stmt 1 view .LVU450
 1398              		.loc 1 1056 13 is_stmt 0 view .LVU451
 1399 0036 2046     		mov	r0, r4
 1400 0038 FFF7FEFF 		bl	_GetAvailWriteSpace
 1401              	.LVL154:
1057:Core/Src/SEGGER_RTT.c ****     Status = Avail < NumBytes ? Avail : NumBytes;
 1402              		.loc 1 1057 5 is_stmt 1 view .LVU452
 1403              		.loc 1 1057 12 is_stmt 0 view .LVU453
 1404 003c 3546     		mov	r5, r6
 1405 003e 8642     		cmp	r6, r0
 1406 0040 28BF     		it	cs
 1407 0042 0546     		movcs	r5, r0
 1408              	.LVL155:
1058:Core/Src/SEGGER_RTT.c ****     _WriteNoCheck(pRing, pData, Status);
 1409              		.loc 1 1058 5 is_stmt 1 view .LVU454
 1410 0044 2A46     		mov	r2, r5
 1411 0046 3946     		mov	r1, r7
 1412 0048 2046     		mov	r0, r4
 1413              	.LVL156:
 1414              		.loc 1 1058 5 is_stmt 0 view .LVU455
 1415 004a FFF7FEFF 		bl	_WriteNoCheck
 1416              	.LVL157:
1059:Core/Src/SEGGER_RTT.c ****     break;
 1417              		.loc 1 1059 5 is_stmt 1 view .LVU456
 1418              	.L73:
1060:Core/Src/SEGGER_RTT.c ****   case SEGGER_RTT_MODE_BLOCK_IF_FIFO_FULL:
1061:Core/Src/SEGGER_RTT.c ****     //
1062:Core/Src/SEGGER_RTT.c ****     // If we are in blocking mode, output everything.
1063:Core/Src/SEGGER_RTT.c ****     //
1064:Core/Src/SEGGER_RTT.c ****     Status = _WriteBlocking(pRing, pData, NumBytes);
1065:Core/Src/SEGGER_RTT.c ****     break;
1066:Core/Src/SEGGER_RTT.c ****   default:
1067:Core/Src/SEGGER_RTT.c ****     Status = 0u;
1068:Core/Src/SEGGER_RTT.c ****     break;
1069:Core/Src/SEGGER_RTT.c ****   }
1070:Core/Src/SEGGER_RTT.c ****   //
1071:Core/Src/SEGGER_RTT.c ****   // Finish up.
1072:Core/Src/SEGGER_RTT.c ****   //
1073:Core/Src/SEGGER_RTT.c ****   return Status;
1074:Core/Src/SEGGER_RTT.c **** }
 1419              		.loc 1 1074 1 is_stmt 0 view .LVU457
 1420 004e 2846     		mov	r0, r5
 1421 0050 F8BD     		pop	{r3, r4, r5, r6, r7, pc}
 1422              	.LVL158:
 1423              	.L75:
1064:Core/Src/SEGGER_RTT.c ****     break;
 1424              		.loc 1 1064 5 is_stmt 1 view .LVU458
1064:Core/Src/SEGGER_RTT.c ****     break;
 1425              		.loc 1 1064 14 is_stmt 0 view .LVU459
 1426 0052 2046     		mov	r0, r4
 1427 0054 FFF7FEFF 		bl	_WriteBlocking
 1428              	.LVL159:
ARM GAS  /var/folders/lp/x54gwt890xv47sdkqj1k04q40000gn/T//ccydrndK.s 			page 49


1064:Core/Src/SEGGER_RTT.c ****     break;
 1429              		.loc 1 1064 14 view .LVU460
 1430 0058 0546     		mov	r5, r0
 1431              	.LVL160:
1065:Core/Src/SEGGER_RTT.c ****   default:
 1432              		.loc 1 1065 5 is_stmt 1 view .LVU461
 1433 005a F8E7     		b	.L73
 1434              	.LVL161:
 1435              	.L77:
1038:Core/Src/SEGGER_RTT.c ****   case SEGGER_RTT_MODE_NO_BLOCK_SKIP:
 1436              		.loc 1 1038 3 is_stmt 0 view .LVU462
 1437 005c 0025     		movs	r5, #0
 1438              	.LVL162:
1073:Core/Src/SEGGER_RTT.c **** }
 1439              		.loc 1 1073 3 is_stmt 1 view .LVU463
1073:Core/Src/SEGGER_RTT.c **** }
 1440              		.loc 1 1073 10 is_stmt 0 view .LVU464
 1441 005e F6E7     		b	.L73
 1442              	.L80:
 1443              		.align	2
 1444              	.L79:
 1445 0060 00000000 		.word	_SEGGER_RTT
 1446              		.cfi_endproc
 1447              	.LFE10:
 1449              		.section	.text.SEGGER_RTT_WriteNoLock,"ax",%progbits
 1450              		.align	1
 1451              		.global	SEGGER_RTT_WriteNoLock
 1452              		.syntax unified
 1453              		.thumb
 1454              		.thumb_func
 1456              	SEGGER_RTT_WriteNoLock:
 1457              	.LVL163:
 1458              	.LFB11:
1075:Core/Src/SEGGER_RTT.c **** 
1076:Core/Src/SEGGER_RTT.c **** /*********************************************************************
1077:Core/Src/SEGGER_RTT.c **** *
1078:Core/Src/SEGGER_RTT.c **** *       SEGGER_RTT_WriteNoLock
1079:Core/Src/SEGGER_RTT.c **** *
1080:Core/Src/SEGGER_RTT.c **** *  Function description
1081:Core/Src/SEGGER_RTT.c **** *    Stores a specified number of characters in SEGGER RTT
1082:Core/Src/SEGGER_RTT.c **** *    control block which is then read by the host.
1083:Core/Src/SEGGER_RTT.c **** *    SEGGER_RTT_WriteNoLock does not lock the application.
1084:Core/Src/SEGGER_RTT.c **** *
1085:Core/Src/SEGGER_RTT.c **** *  Parameters
1086:Core/Src/SEGGER_RTT.c **** *    BufferIndex  Index of "Up"-buffer to be used (e.g. 0 for "Terminal").
1087:Core/Src/SEGGER_RTT.c **** *    pBuffer      Pointer to character array. Does not need to point to a \0 terminated string.
1088:Core/Src/SEGGER_RTT.c **** *    NumBytes     Number of bytes to be stored in the SEGGER RTT control block.
1089:Core/Src/SEGGER_RTT.c **** *
1090:Core/Src/SEGGER_RTT.c **** *  Return value
1091:Core/Src/SEGGER_RTT.c **** *    Number of bytes which have been stored in the "Up"-buffer.
1092:Core/Src/SEGGER_RTT.c **** *
1093:Core/Src/SEGGER_RTT.c **** *  Notes
1094:Core/Src/SEGGER_RTT.c **** *    (1) Data is stored according to buffer flags.
1095:Core/Src/SEGGER_RTT.c **** *    (2) For performance reasons this function does not call Init()
1096:Core/Src/SEGGER_RTT.c **** *        and may only be called after RTT has been initialized.
1097:Core/Src/SEGGER_RTT.c **** *        Either by calling SEGGER_RTT_Init() or calling another RTT API function first.
1098:Core/Src/SEGGER_RTT.c **** */
ARM GAS  /var/folders/lp/x54gwt890xv47sdkqj1k04q40000gn/T//ccydrndK.s 			page 50


1099:Core/Src/SEGGER_RTT.c **** unsigned SEGGER_RTT_WriteNoLock(unsigned BufferIndex, const void* pBuffer, unsigned NumBytes) {
 1459              		.loc 1 1099 95 is_stmt 1 view -0
 1460              		.cfi_startproc
 1461              		@ args = 0, pretend = 0, frame = 0
 1462              		@ frame_needed = 0, uses_anonymous_args = 0
 1463              		.loc 1 1099 95 is_stmt 0 view .LVU466
 1464 0000 F8B5     		push	{r3, r4, r5, r6, r7, lr}
 1465              		.cfi_def_cfa_offset 24
 1466              		.cfi_offset 3, -24
 1467              		.cfi_offset 4, -20
 1468              		.cfi_offset 5, -16
 1469              		.cfi_offset 6, -12
 1470              		.cfi_offset 7, -8
 1471              		.cfi_offset 14, -4
 1472 0002 0F46     		mov	r7, r1
 1473 0004 1646     		mov	r6, r2
1100:Core/Src/SEGGER_RTT.c ****   unsigned              Status;
 1474              		.loc 1 1100 3 is_stmt 1 view .LVU467
1101:Core/Src/SEGGER_RTT.c ****   unsigned              Avail;
 1475              		.loc 1 1101 3 view .LVU468
1102:Core/Src/SEGGER_RTT.c ****   const char*           pData;
 1476              		.loc 1 1102 3 view .LVU469
1103:Core/Src/SEGGER_RTT.c ****   SEGGER_RTT_BUFFER_UP* pRing;
 1477              		.loc 1 1103 3 view .LVU470
1104:Core/Src/SEGGER_RTT.c ****   //
1105:Core/Src/SEGGER_RTT.c ****   // Get "to-host" ring buffer.
1106:Core/Src/SEGGER_RTT.c ****   //
1107:Core/Src/SEGGER_RTT.c ****   pData = (const char *)pBuffer;
 1478              		.loc 1 1107 3 view .LVU471
 1479              	.LVL164:
1108:Core/Src/SEGGER_RTT.c ****   pRing = (SEGGER_RTT_BUFFER_UP*)((char*)&_SEGGER_RTT.aUp[BufferIndex] + SEGGER_RTT_UNCACHED_OFF); 
 1480              		.loc 1 1108 3 view .LVU472
 1481              		.loc 1 1108 9 is_stmt 0 view .LVU473
 1482 0006 441C     		adds	r4, r0, #1
 1483 0008 04EB4404 		add	r4, r4, r4, lsl #1
 1484 000c 164B     		ldr	r3, .L87
 1485 000e 03EBC404 		add	r4, r3, r4, lsl #3
 1486              	.LVL165:
1109:Core/Src/SEGGER_RTT.c ****   //
1110:Core/Src/SEGGER_RTT.c ****   // How we output depends upon the mode...
1111:Core/Src/SEGGER_RTT.c ****   //
1112:Core/Src/SEGGER_RTT.c ****   switch (pRing->Flags) {
 1487              		.loc 1 1112 3 is_stmt 1 view .LVU474
 1488              		.loc 1 1112 16 is_stmt 0 view .LVU475
 1489 0012 00EB4000 		add	r0, r0, r0, lsl #1
 1490              	.LVL166:
 1491              		.loc 1 1112 16 view .LVU476
 1492 0016 03EBC003 		add	r3, r3, r0, lsl #3
 1493 001a DD6A     		ldr	r5, [r3, #44]
 1494              		.loc 1 1112 3 view .LVU477
 1495 001c 012D     		cmp	r5, #1
 1496 001e 0ED0     		beq	.L82
 1497 0020 022D     		cmp	r5, #2
 1498 0022 1AD0     		beq	.L83
 1499 0024 F5B9     		cbnz	r5, .L85
1113:Core/Src/SEGGER_RTT.c ****   case SEGGER_RTT_MODE_NO_BLOCK_SKIP:
1114:Core/Src/SEGGER_RTT.c ****     //
ARM GAS  /var/folders/lp/x54gwt890xv47sdkqj1k04q40000gn/T//ccydrndK.s 			page 51


1115:Core/Src/SEGGER_RTT.c ****     // If we are in skip mode and there is no space for the whole
1116:Core/Src/SEGGER_RTT.c ****     // of this output, don't bother.
1117:Core/Src/SEGGER_RTT.c ****     //
1118:Core/Src/SEGGER_RTT.c ****     Avail = _GetAvailWriteSpace(pRing);
 1500              		.loc 1 1118 5 is_stmt 1 view .LVU478
 1501              		.loc 1 1118 13 is_stmt 0 view .LVU479
 1502 0026 2046     		mov	r0, r4
 1503 0028 FFF7FEFF 		bl	_GetAvailWriteSpace
 1504              	.LVL167:
1119:Core/Src/SEGGER_RTT.c ****     if (Avail < NumBytes) {
 1505              		.loc 1 1119 5 is_stmt 1 view .LVU480
 1506              		.loc 1 1119 8 is_stmt 0 view .LVU481
 1507 002c 8642     		cmp	r6, r0
 1508 002e 12D8     		bhi	.L81
1120:Core/Src/SEGGER_RTT.c ****       Status = 0u;
1121:Core/Src/SEGGER_RTT.c ****     } else {
1122:Core/Src/SEGGER_RTT.c ****       Status = NumBytes;
 1509              		.loc 1 1122 7 is_stmt 1 view .LVU482
 1510              	.LVL168:
1123:Core/Src/SEGGER_RTT.c ****       _WriteNoCheck(pRing, pData, NumBytes);
 1511              		.loc 1 1123 7 view .LVU483
 1512 0030 3246     		mov	r2, r6
 1513 0032 3946     		mov	r1, r7
 1514 0034 2046     		mov	r0, r4
 1515              	.LVL169:
 1516              		.loc 1 1123 7 is_stmt 0 view .LVU484
 1517 0036 FFF7FEFF 		bl	_WriteNoCheck
 1518              	.LVL170:
1122:Core/Src/SEGGER_RTT.c ****       _WriteNoCheck(pRing, pData, NumBytes);
 1519              		.loc 1 1122 14 view .LVU485
 1520 003a 3546     		mov	r5, r6
 1521 003c 0BE0     		b	.L81
 1522              	.LVL171:
 1523              	.L82:
1124:Core/Src/SEGGER_RTT.c ****     }
1125:Core/Src/SEGGER_RTT.c ****     break;
1126:Core/Src/SEGGER_RTT.c ****   case SEGGER_RTT_MODE_NO_BLOCK_TRIM:
1127:Core/Src/SEGGER_RTT.c ****     //
1128:Core/Src/SEGGER_RTT.c ****     // If we are in trim mode, trim to what we can output without blocking.
1129:Core/Src/SEGGER_RTT.c ****     //
1130:Core/Src/SEGGER_RTT.c ****     Avail = _GetAvailWriteSpace(pRing);
 1524              		.loc 1 1130 5 is_stmt 1 view .LVU486
 1525              		.loc 1 1130 13 is_stmt 0 view .LVU487
 1526 003e 2046     		mov	r0, r4
 1527 0040 FFF7FEFF 		bl	_GetAvailWriteSpace
 1528              	.LVL172:
1131:Core/Src/SEGGER_RTT.c ****     Status = Avail < NumBytes ? Avail : NumBytes;
 1529              		.loc 1 1131 5 is_stmt 1 view .LVU488
 1530              		.loc 1 1131 12 is_stmt 0 view .LVU489
 1531 0044 3546     		mov	r5, r6
 1532 0046 8642     		cmp	r6, r0
 1533 0048 28BF     		it	cs
 1534 004a 0546     		movcs	r5, r0
 1535              	.LVL173:
1132:Core/Src/SEGGER_RTT.c ****     _WriteNoCheck(pRing, pData, Status);
 1536              		.loc 1 1132 5 is_stmt 1 view .LVU490
 1537 004c 2A46     		mov	r2, r5
ARM GAS  /var/folders/lp/x54gwt890xv47sdkqj1k04q40000gn/T//ccydrndK.s 			page 52


 1538 004e 3946     		mov	r1, r7
 1539 0050 2046     		mov	r0, r4
 1540              	.LVL174:
 1541              		.loc 1 1132 5 is_stmt 0 view .LVU491
 1542 0052 FFF7FEFF 		bl	_WriteNoCheck
 1543              	.LVL175:
1133:Core/Src/SEGGER_RTT.c ****     break;
 1544              		.loc 1 1133 5 is_stmt 1 view .LVU492
 1545              	.L81:
1134:Core/Src/SEGGER_RTT.c ****   case SEGGER_RTT_MODE_BLOCK_IF_FIFO_FULL:
1135:Core/Src/SEGGER_RTT.c ****     //
1136:Core/Src/SEGGER_RTT.c ****     // If we are in blocking mode, output everything.
1137:Core/Src/SEGGER_RTT.c ****     //
1138:Core/Src/SEGGER_RTT.c ****     Status = _WriteBlocking(pRing, pData, NumBytes);
1139:Core/Src/SEGGER_RTT.c ****     break;
1140:Core/Src/SEGGER_RTT.c ****   default:
1141:Core/Src/SEGGER_RTT.c ****     Status = 0u;
1142:Core/Src/SEGGER_RTT.c ****     break;
1143:Core/Src/SEGGER_RTT.c ****   }
1144:Core/Src/SEGGER_RTT.c ****   //
1145:Core/Src/SEGGER_RTT.c ****   // Finish up.
1146:Core/Src/SEGGER_RTT.c ****   //
1147:Core/Src/SEGGER_RTT.c ****   return Status;
1148:Core/Src/SEGGER_RTT.c **** }
 1546              		.loc 1 1148 1 is_stmt 0 view .LVU493
 1547 0056 2846     		mov	r0, r5
 1548 0058 F8BD     		pop	{r3, r4, r5, r6, r7, pc}
 1549              	.LVL176:
 1550              	.L83:
1138:Core/Src/SEGGER_RTT.c ****     break;
 1551              		.loc 1 1138 5 is_stmt 1 view .LVU494
1138:Core/Src/SEGGER_RTT.c ****     break;
 1552              		.loc 1 1138 14 is_stmt 0 view .LVU495
 1553 005a 2046     		mov	r0, r4
 1554 005c FFF7FEFF 		bl	_WriteBlocking
 1555              	.LVL177:
1138:Core/Src/SEGGER_RTT.c ****     break;
 1556              		.loc 1 1138 14 view .LVU496
 1557 0060 0546     		mov	r5, r0
 1558              	.LVL178:
1139:Core/Src/SEGGER_RTT.c ****   default:
 1559              		.loc 1 1139 5 is_stmt 1 view .LVU497
 1560 0062 F8E7     		b	.L81
 1561              	.LVL179:
 1562              	.L85:
1112:Core/Src/SEGGER_RTT.c ****   case SEGGER_RTT_MODE_NO_BLOCK_SKIP:
 1563              		.loc 1 1112 3 is_stmt 0 view .LVU498
 1564 0064 0025     		movs	r5, #0
 1565              	.LVL180:
1147:Core/Src/SEGGER_RTT.c **** }
 1566              		.loc 1 1147 3 is_stmt 1 view .LVU499
1147:Core/Src/SEGGER_RTT.c **** }
 1567              		.loc 1 1147 10 is_stmt 0 view .LVU500
 1568 0066 F6E7     		b	.L81
 1569              	.L88:
 1570              		.align	2
 1571              	.L87:
ARM GAS  /var/folders/lp/x54gwt890xv47sdkqj1k04q40000gn/T//ccydrndK.s 			page 53


 1572 0068 00000000 		.word	_SEGGER_RTT
 1573              		.cfi_endproc
 1574              	.LFE11:
 1576              		.section	.text.SEGGER_RTT_WriteDownBuffer,"ax",%progbits
 1577              		.align	1
 1578              		.global	SEGGER_RTT_WriteDownBuffer
 1579              		.syntax unified
 1580              		.thumb
 1581              		.thumb_func
 1583              	SEGGER_RTT_WriteDownBuffer:
 1584              	.LVL181:
 1585              	.LFB12:
1149:Core/Src/SEGGER_RTT.c **** 
1150:Core/Src/SEGGER_RTT.c **** /*********************************************************************
1151:Core/Src/SEGGER_RTT.c **** *
1152:Core/Src/SEGGER_RTT.c **** *       SEGGER_RTT_WriteDownBuffer
1153:Core/Src/SEGGER_RTT.c **** *
1154:Core/Src/SEGGER_RTT.c **** *  Function description
1155:Core/Src/SEGGER_RTT.c **** *    Stores a specified number of characters in SEGGER RTT control block in a <Down> buffer.
1156:Core/Src/SEGGER_RTT.c **** *
1157:Core/Src/SEGGER_RTT.c **** *  Parameters
1158:Core/Src/SEGGER_RTT.c **** *    BufferIndex  Index of "Up"-buffer to be used (e.g. 0 for "Terminal").
1159:Core/Src/SEGGER_RTT.c **** *    pBuffer      Pointer to character array. Does not need to point to a \0 terminated string.
1160:Core/Src/SEGGER_RTT.c **** *    NumBytes     Number of bytes to be stored in the SEGGER RTT control block.
1161:Core/Src/SEGGER_RTT.c **** *
1162:Core/Src/SEGGER_RTT.c **** *  Return value
1163:Core/Src/SEGGER_RTT.c **** *    Number of bytes which have been stored in the "Down"-buffer.
1164:Core/Src/SEGGER_RTT.c **** *
1165:Core/Src/SEGGER_RTT.c **** *  Notes
1166:Core/Src/SEGGER_RTT.c **** *    (1) Data is stored according to buffer flags.
1167:Core/Src/SEGGER_RTT.c **** *
1168:Core/Src/SEGGER_RTT.c **** *  Additional information
1169:Core/Src/SEGGER_RTT.c **** *    This function must not be called when J-Link might also do RTT.
1170:Core/Src/SEGGER_RTT.c **** *    This function locks against all other RTT operations. I.e. during
1171:Core/Src/SEGGER_RTT.c **** *    the write operation, writing from the application is also locked.
1172:Core/Src/SEGGER_RTT.c **** *    If only one consumer writes to the down buffer, 
1173:Core/Src/SEGGER_RTT.c **** *    call SEGGER_RTT_WriteDownBufferNoLock() instead.
1174:Core/Src/SEGGER_RTT.c **** */
1175:Core/Src/SEGGER_RTT.c **** unsigned SEGGER_RTT_WriteDownBuffer(unsigned BufferIndex, const void* pBuffer, unsigned NumBytes) {
 1586              		.loc 1 1175 99 is_stmt 1 view -0
 1587              		.cfi_startproc
 1588              		@ args = 0, pretend = 0, frame = 0
 1589              		@ frame_needed = 0, uses_anonymous_args = 0
 1590              		.loc 1 1175 99 is_stmt 0 view .LVU502
 1591 0000 F8B5     		push	{r3, r4, r5, r6, r7, lr}
 1592              		.cfi_def_cfa_offset 24
 1593              		.cfi_offset 3, -24
 1594              		.cfi_offset 4, -20
 1595              		.cfi_offset 5, -16
 1596              		.cfi_offset 6, -12
 1597              		.cfi_offset 7, -8
 1598              		.cfi_offset 14, -4
 1599 0002 0446     		mov	r4, r0
 1600 0004 0D46     		mov	r5, r1
 1601 0006 1646     		mov	r6, r2
1176:Core/Src/SEGGER_RTT.c ****   unsigned Status;
 1602              		.loc 1 1176 3 is_stmt 1 view .LVU503
ARM GAS  /var/folders/lp/x54gwt890xv47sdkqj1k04q40000gn/T//ccydrndK.s 			page 54


 1603              	.LBB8:
1177:Core/Src/SEGGER_RTT.c **** 
1178:Core/Src/SEGGER_RTT.c ****   INIT();
 1604              		.loc 1 1178 3 view .LVU504
 1605              		.loc 1 1178 3 view .LVU505
 1606              	.LVL182:
 1607              		.loc 1 1178 3 view .LVU506
 1608              		.loc 1 1178 3 view .LVU507
 1609 0008 094B     		ldr	r3, .L93
 1610 000a 1B78     		ldrb	r3, [r3]	@ zero_extendqisi2
 1611 000c 6BB1     		cbz	r3, .L92
 1612              	.LVL183:
 1613              	.L90:
 1614              		.loc 1 1178 3 discriminator 3 view .LVU508
 1615              	.LBE8:
 1616              		.loc 1 1178 9 discriminator 3 view .LVU509
 1617              	.LBB9:
1179:Core/Src/SEGGER_RTT.c ****   SEGGER_RTT_LOCK();
 1618              		.loc 1 1179 3 view .LVU510
 1619              		.loc 1 1179 3 view .LVU511
 1620              		.syntax unified
 1621              	@ 1179 "Core/Src/SEGGER_RTT.c" 1
 1622 000e EFF31187 		mrs   r7, basepri  
 1623 0012 4FF02001 		mov   r1, #32       
 1624 0016 81F31188 		msr   basepri, r1  
 1625              		
 1626              	@ 0 "" 2
 1627              	.LVL184:
 1628              		.loc 1 1179 20 view .LVU512
1180:Core/Src/SEGGER_RTT.c ****   Status = SEGGER_RTT_WriteDownBufferNoLock(BufferIndex, pBuffer, NumBytes);  // Call the non-locki
 1629              		.loc 1 1180 3 view .LVU513
 1630              		.loc 1 1180 12 is_stmt 0 view .LVU514
 1631              		.thumb
 1632              		.syntax unified
 1633 001a 3246     		mov	r2, r6
 1634 001c 2946     		mov	r1, r5
 1635 001e 2046     		mov	r0, r4
 1636 0020 FFF7FEFF 		bl	SEGGER_RTT_WriteDownBufferNoLock
 1637              	.LVL185:
1181:Core/Src/SEGGER_RTT.c ****   SEGGER_RTT_UNLOCK();
 1638              		.loc 1 1181 3 is_stmt 1 view .LVU515
 1639              		.syntax unified
 1640              	@ 1181 "Core/Src/SEGGER_RTT.c" 1
 1641 0024 87F31188 		msr   basepri, r7  
 1642              		
 1643              	@ 0 "" 2
 1644              		.thumb
 1645              		.syntax unified
 1646              	.LBE9:
 1647              		.loc 1 1181 22 view .LVU516
1182:Core/Src/SEGGER_RTT.c ****   return Status;
 1648              		.loc 1 1182 3 view .LVU517
1183:Core/Src/SEGGER_RTT.c **** }
 1649              		.loc 1 1183 1 is_stmt 0 view .LVU518
 1650 0028 F8BD     		pop	{r3, r4, r5, r6, r7, pc}
 1651              	.LVL186:
 1652              	.L92:
ARM GAS  /var/folders/lp/x54gwt890xv47sdkqj1k04q40000gn/T//ccydrndK.s 			page 55


 1653              	.LBB10:
1178:Core/Src/SEGGER_RTT.c ****   SEGGER_RTT_LOCK();
 1654              		.loc 1 1178 3 is_stmt 1 discriminator 1 view .LVU519
 1655 002a FFF7FEFF 		bl	_DoInit
 1656              	.LVL187:
1178:Core/Src/SEGGER_RTT.c ****   SEGGER_RTT_LOCK();
 1657              		.loc 1 1178 3 is_stmt 0 discriminator 1 view .LVU520
 1658 002e EEE7     		b	.L90
 1659              	.L94:
 1660              		.align	2
 1661              	.L93:
 1662 0030 00000000 		.word	_SEGGER_RTT
 1663              	.LBE10:
 1664              		.cfi_endproc
 1665              	.LFE12:
 1667              		.section	.text.SEGGER_RTT_Write,"ax",%progbits
 1668              		.align	1
 1669              		.global	SEGGER_RTT_Write
 1670              		.syntax unified
 1671              		.thumb
 1672              		.thumb_func
 1674              	SEGGER_RTT_Write:
 1675              	.LVL188:
 1676              	.LFB13:
1184:Core/Src/SEGGER_RTT.c **** 
1185:Core/Src/SEGGER_RTT.c **** /*********************************************************************
1186:Core/Src/SEGGER_RTT.c **** *
1187:Core/Src/SEGGER_RTT.c **** *       SEGGER_RTT_Write
1188:Core/Src/SEGGER_RTT.c **** *
1189:Core/Src/SEGGER_RTT.c **** *  Function description
1190:Core/Src/SEGGER_RTT.c **** *    Stores a specified number of characters in SEGGER RTT
1191:Core/Src/SEGGER_RTT.c **** *    control block which is then read by the host.
1192:Core/Src/SEGGER_RTT.c **** *
1193:Core/Src/SEGGER_RTT.c **** *  Parameters
1194:Core/Src/SEGGER_RTT.c **** *    BufferIndex  Index of "Up"-buffer to be used (e.g. 0 for "Terminal").
1195:Core/Src/SEGGER_RTT.c **** *    pBuffer      Pointer to character array. Does not need to point to a \0 terminated string.
1196:Core/Src/SEGGER_RTT.c **** *    NumBytes     Number of bytes to be stored in the SEGGER RTT control block.
1197:Core/Src/SEGGER_RTT.c **** *
1198:Core/Src/SEGGER_RTT.c **** *  Return value
1199:Core/Src/SEGGER_RTT.c **** *    Number of bytes which have been stored in the "Up"-buffer.
1200:Core/Src/SEGGER_RTT.c **** *
1201:Core/Src/SEGGER_RTT.c **** *  Notes
1202:Core/Src/SEGGER_RTT.c **** *    (1) Data is stored according to buffer flags.
1203:Core/Src/SEGGER_RTT.c **** */
1204:Core/Src/SEGGER_RTT.c **** unsigned SEGGER_RTT_Write(unsigned BufferIndex, const void* pBuffer, unsigned NumBytes) {
 1677              		.loc 1 1204 89 is_stmt 1 view -0
 1678              		.cfi_startproc
 1679              		@ args = 0, pretend = 0, frame = 0
 1680              		@ frame_needed = 0, uses_anonymous_args = 0
 1681              		.loc 1 1204 89 is_stmt 0 view .LVU522
 1682 0000 F8B5     		push	{r3, r4, r5, r6, r7, lr}
 1683              		.cfi_def_cfa_offset 24
 1684              		.cfi_offset 3, -24
 1685              		.cfi_offset 4, -20
 1686              		.cfi_offset 5, -16
 1687              		.cfi_offset 6, -12
 1688              		.cfi_offset 7, -8
ARM GAS  /var/folders/lp/x54gwt890xv47sdkqj1k04q40000gn/T//ccydrndK.s 			page 56


 1689              		.cfi_offset 14, -4
 1690 0002 0446     		mov	r4, r0
 1691 0004 0D46     		mov	r5, r1
 1692 0006 1646     		mov	r6, r2
1205:Core/Src/SEGGER_RTT.c ****   unsigned Status;
 1693              		.loc 1 1205 3 is_stmt 1 view .LVU523
 1694              	.LBB11:
1206:Core/Src/SEGGER_RTT.c **** 
1207:Core/Src/SEGGER_RTT.c ****   INIT();
 1695              		.loc 1 1207 3 view .LVU524
 1696              		.loc 1 1207 3 view .LVU525
 1697              	.LVL189:
 1698              		.loc 1 1207 3 view .LVU526
 1699              		.loc 1 1207 3 view .LVU527
 1700 0008 094B     		ldr	r3, .L99
 1701 000a 1B78     		ldrb	r3, [r3]	@ zero_extendqisi2
 1702 000c 6BB1     		cbz	r3, .L98
 1703              	.LVL190:
 1704              	.L96:
 1705              		.loc 1 1207 3 discriminator 3 view .LVU528
 1706              	.LBE11:
 1707              		.loc 1 1207 9 discriminator 3 view .LVU529
 1708              	.LBB12:
1208:Core/Src/SEGGER_RTT.c ****   SEGGER_RTT_LOCK();
 1709              		.loc 1 1208 3 view .LVU530
 1710              		.loc 1 1208 3 view .LVU531
 1711              		.syntax unified
 1712              	@ 1208 "Core/Src/SEGGER_RTT.c" 1
 1713 000e EFF31187 		mrs   r7, basepri  
 1714 0012 4FF02001 		mov   r1, #32       
 1715 0016 81F31188 		msr   basepri, r1  
 1716              		
 1717              	@ 0 "" 2
 1718              	.LVL191:
 1719              		.loc 1 1208 20 view .LVU532
1209:Core/Src/SEGGER_RTT.c ****   Status = SEGGER_RTT_WriteNoLock(BufferIndex, pBuffer, NumBytes);  // Call the non-locking write f
 1720              		.loc 1 1209 3 view .LVU533
 1721              		.loc 1 1209 12 is_stmt 0 view .LVU534
 1722              		.thumb
 1723              		.syntax unified
 1724 001a 3246     		mov	r2, r6
 1725 001c 2946     		mov	r1, r5
 1726 001e 2046     		mov	r0, r4
 1727 0020 FFF7FEFF 		bl	SEGGER_RTT_WriteNoLock
 1728              	.LVL192:
1210:Core/Src/SEGGER_RTT.c ****   SEGGER_RTT_UNLOCK();
 1729              		.loc 1 1210 3 is_stmt 1 view .LVU535
 1730              		.syntax unified
 1731              	@ 1210 "Core/Src/SEGGER_RTT.c" 1
 1732 0024 87F31188 		msr   basepri, r7  
 1733              		
 1734              	@ 0 "" 2
 1735              		.thumb
 1736              		.syntax unified
 1737              	.LBE12:
 1738              		.loc 1 1210 22 view .LVU536
1211:Core/Src/SEGGER_RTT.c ****   return Status;
ARM GAS  /var/folders/lp/x54gwt890xv47sdkqj1k04q40000gn/T//ccydrndK.s 			page 57


 1739              		.loc 1 1211 3 view .LVU537
1212:Core/Src/SEGGER_RTT.c **** }
 1740              		.loc 1 1212 1 is_stmt 0 view .LVU538
 1741 0028 F8BD     		pop	{r3, r4, r5, r6, r7, pc}
 1742              	.LVL193:
 1743              	.L98:
 1744              	.LBB13:
1207:Core/Src/SEGGER_RTT.c ****   SEGGER_RTT_LOCK();
 1745              		.loc 1 1207 3 is_stmt 1 discriminator 1 view .LVU539
 1746 002a FFF7FEFF 		bl	_DoInit
 1747              	.LVL194:
1207:Core/Src/SEGGER_RTT.c ****   SEGGER_RTT_LOCK();
 1748              		.loc 1 1207 3 is_stmt 0 discriminator 1 view .LVU540
 1749 002e EEE7     		b	.L96
 1750              	.L100:
 1751              		.align	2
 1752              	.L99:
 1753 0030 00000000 		.word	_SEGGER_RTT
 1754              	.LBE13:
 1755              		.cfi_endproc
 1756              	.LFE13:
 1758              		.section	.text.SEGGER_RTT_WriteString,"ax",%progbits
 1759              		.align	1
 1760              		.global	SEGGER_RTT_WriteString
 1761              		.syntax unified
 1762              		.thumb
 1763              		.thumb_func
 1765              	SEGGER_RTT_WriteString:
 1766              	.LVL195:
 1767              	.LFB14:
1213:Core/Src/SEGGER_RTT.c **** 
1214:Core/Src/SEGGER_RTT.c **** /*********************************************************************
1215:Core/Src/SEGGER_RTT.c **** *
1216:Core/Src/SEGGER_RTT.c **** *       SEGGER_RTT_WriteString
1217:Core/Src/SEGGER_RTT.c **** *
1218:Core/Src/SEGGER_RTT.c **** *  Function description
1219:Core/Src/SEGGER_RTT.c **** *    Stores string in SEGGER RTT control block.
1220:Core/Src/SEGGER_RTT.c **** *    This data is read by the host.
1221:Core/Src/SEGGER_RTT.c **** *
1222:Core/Src/SEGGER_RTT.c **** *  Parameters
1223:Core/Src/SEGGER_RTT.c **** *    BufferIndex  Index of "Up"-buffer to be used (e.g. 0 for "Terminal").
1224:Core/Src/SEGGER_RTT.c **** *    s            Pointer to string.
1225:Core/Src/SEGGER_RTT.c **** *
1226:Core/Src/SEGGER_RTT.c **** *  Return value
1227:Core/Src/SEGGER_RTT.c **** *    Number of bytes which have been stored in the "Up"-buffer.
1228:Core/Src/SEGGER_RTT.c **** *
1229:Core/Src/SEGGER_RTT.c **** *  Notes
1230:Core/Src/SEGGER_RTT.c **** *    (1) Data is stored according to buffer flags.
1231:Core/Src/SEGGER_RTT.c **** *    (2) String passed to this function has to be \0 terminated
1232:Core/Src/SEGGER_RTT.c **** *    (3) \0 termination character is *not* stored in RTT buffer
1233:Core/Src/SEGGER_RTT.c **** */
1234:Core/Src/SEGGER_RTT.c **** unsigned SEGGER_RTT_WriteString(unsigned BufferIndex, const char* s) {
 1768              		.loc 1 1234 70 is_stmt 1 view -0
 1769              		.cfi_startproc
 1770              		@ args = 0, pretend = 0, frame = 0
 1771              		@ frame_needed = 0, uses_anonymous_args = 0
 1772              		.loc 1 1234 70 is_stmt 0 view .LVU542
ARM GAS  /var/folders/lp/x54gwt890xv47sdkqj1k04q40000gn/T//ccydrndK.s 			page 58


 1773 0000 38B5     		push	{r3, r4, r5, lr}
 1774              		.cfi_def_cfa_offset 16
 1775              		.cfi_offset 3, -16
 1776              		.cfi_offset 4, -12
 1777              		.cfi_offset 5, -8
 1778              		.cfi_offset 14, -4
 1779 0002 0546     		mov	r5, r0
 1780 0004 0C46     		mov	r4, r1
1235:Core/Src/SEGGER_RTT.c ****   unsigned Len;
 1781              		.loc 1 1235 3 is_stmt 1 view .LVU543
1236:Core/Src/SEGGER_RTT.c **** 
1237:Core/Src/SEGGER_RTT.c ****   Len = STRLEN(s);
 1782              		.loc 1 1237 3 view .LVU544
 1783              		.loc 1 1237 9 is_stmt 0 view .LVU545
 1784 0006 0846     		mov	r0, r1
 1785              	.LVL196:
 1786              		.loc 1 1237 9 view .LVU546
 1787 0008 FFF7FEFF 		bl	strlen
 1788              	.LVL197:
 1789              		.loc 1 1237 9 view .LVU547
 1790 000c 0246     		mov	r2, r0
 1791              	.LVL198:
1238:Core/Src/SEGGER_RTT.c ****   return SEGGER_RTT_Write(BufferIndex, s, Len);
 1792              		.loc 1 1238 3 is_stmt 1 view .LVU548
 1793              		.loc 1 1238 10 is_stmt 0 view .LVU549
 1794 000e 2146     		mov	r1, r4
 1795 0010 2846     		mov	r0, r5
 1796              	.LVL199:
 1797              		.loc 1 1238 10 view .LVU550
 1798 0012 FFF7FEFF 		bl	SEGGER_RTT_Write
 1799              	.LVL200:
1239:Core/Src/SEGGER_RTT.c **** }
 1800              		.loc 1 1239 1 view .LVU551
 1801 0016 38BD     		pop	{r3, r4, r5, pc}
 1802              		.loc 1 1239 1 view .LVU552
 1803              		.cfi_endproc
 1804              	.LFE14:
 1806              		.section	.text.SEGGER_RTT_PutCharSkipNoLock,"ax",%progbits
 1807              		.align	1
 1808              		.global	SEGGER_RTT_PutCharSkipNoLock
 1809              		.syntax unified
 1810              		.thumb
 1811              		.thumb_func
 1813              	SEGGER_RTT_PutCharSkipNoLock:
 1814              	.LVL201:
 1815              	.LFB15:
1240:Core/Src/SEGGER_RTT.c **** 
1241:Core/Src/SEGGER_RTT.c **** /*********************************************************************
1242:Core/Src/SEGGER_RTT.c **** *
1243:Core/Src/SEGGER_RTT.c **** *       SEGGER_RTT_PutCharSkipNoLock
1244:Core/Src/SEGGER_RTT.c **** *
1245:Core/Src/SEGGER_RTT.c **** *  Function description
1246:Core/Src/SEGGER_RTT.c **** *    Stores a single character/byte in SEGGER RTT buffer.
1247:Core/Src/SEGGER_RTT.c **** *    SEGGER_RTT_PutCharSkipNoLock does not lock the application and
1248:Core/Src/SEGGER_RTT.c **** *    skips the byte, if it does not fit into the buffer.
1249:Core/Src/SEGGER_RTT.c **** *
1250:Core/Src/SEGGER_RTT.c **** *  Parameters
ARM GAS  /var/folders/lp/x54gwt890xv47sdkqj1k04q40000gn/T//ccydrndK.s 			page 59


1251:Core/Src/SEGGER_RTT.c **** *    BufferIndex  Index of "Up"-buffer to be used (e.g. 0 for "Terminal").
1252:Core/Src/SEGGER_RTT.c **** *    c            Byte to be stored.
1253:Core/Src/SEGGER_RTT.c **** *
1254:Core/Src/SEGGER_RTT.c **** *  Return value
1255:Core/Src/SEGGER_RTT.c **** *    Number of bytes which have been stored in the "Up"-buffer.
1256:Core/Src/SEGGER_RTT.c **** *
1257:Core/Src/SEGGER_RTT.c **** *  Notes
1258:Core/Src/SEGGER_RTT.c **** *    (1) If there is not enough space in the "Up"-buffer, the character is dropped.
1259:Core/Src/SEGGER_RTT.c **** *    (2) For performance reasons this function does not call Init()
1260:Core/Src/SEGGER_RTT.c **** *        and may only be called after RTT has been initialized.
1261:Core/Src/SEGGER_RTT.c **** *        Either by calling SEGGER_RTT_Init() or calling another RTT API function first.
1262:Core/Src/SEGGER_RTT.c **** */
1263:Core/Src/SEGGER_RTT.c **** 
1264:Core/Src/SEGGER_RTT.c **** unsigned SEGGER_RTT_PutCharSkipNoLock(unsigned BufferIndex, char c) {
 1816              		.loc 1 1264 69 is_stmt 1 view -0
 1817              		.cfi_startproc
 1818              		@ args = 0, pretend = 0, frame = 0
 1819              		@ frame_needed = 0, uses_anonymous_args = 0
 1820              		@ link register save eliminated.
 1821              		.loc 1 1264 69 is_stmt 0 view .LVU554
 1822 0000 30B4     		push	{r4, r5}
 1823              		.cfi_def_cfa_offset 8
 1824              		.cfi_offset 4, -8
 1825              		.cfi_offset 5, -4
1265:Core/Src/SEGGER_RTT.c ****   SEGGER_RTT_BUFFER_UP* pRing;
 1826              		.loc 1 1265 3 is_stmt 1 view .LVU555
1266:Core/Src/SEGGER_RTT.c ****   unsigned              WrOff;
 1827              		.loc 1 1266 3 view .LVU556
1267:Core/Src/SEGGER_RTT.c ****   unsigned              Status;
 1828              		.loc 1 1267 3 view .LVU557
1268:Core/Src/SEGGER_RTT.c ****   volatile char*        pDst;
 1829              		.loc 1 1268 3 view .LVU558
1269:Core/Src/SEGGER_RTT.c ****   //
1270:Core/Src/SEGGER_RTT.c ****   // Get "to-host" ring buffer.
1271:Core/Src/SEGGER_RTT.c ****   //
1272:Core/Src/SEGGER_RTT.c ****   pRing = (SEGGER_RTT_BUFFER_UP*)((char*)&_SEGGER_RTT.aUp[BufferIndex] + SEGGER_RTT_UNCACHED_OFF); 
 1830              		.loc 1 1272 3 view .LVU559
 1831              	.LVL202:
1273:Core/Src/SEGGER_RTT.c ****   //
1274:Core/Src/SEGGER_RTT.c ****   // Get write position and handle wrap-around if necessary
1275:Core/Src/SEGGER_RTT.c ****   //
1276:Core/Src/SEGGER_RTT.c ****   WrOff = pRing->WrOff + 1;
 1832              		.loc 1 1276 3 view .LVU560
 1833              		.loc 1 1276 16 is_stmt 0 view .LVU561
 1834 0002 00EB4002 		add	r2, r0, r0, lsl #1
 1835 0006 124B     		ldr	r3, .L110
 1836 0008 03EBC203 		add	r3, r3, r2, lsl #3
 1837 000c 5D6A     		ldr	r5, [r3, #36]
 1838              		.loc 1 1276 9 view .LVU562
 1839 000e 6A1C     		adds	r2, r5, #1
 1840              	.LVL203:
1277:Core/Src/SEGGER_RTT.c ****   if (WrOff == pRing->SizeOfBuffer) {
 1841              		.loc 1 1277 3 is_stmt 1 view .LVU563
 1842              		.loc 1 1277 21 is_stmt 0 view .LVU564
 1843 0010 1B6A     		ldr	r3, [r3, #32]
 1844              		.loc 1 1277 6 view .LVU565
 1845 0012 9342     		cmp	r3, r2
ARM GAS  /var/folders/lp/x54gwt890xv47sdkqj1k04q40000gn/T//ccydrndK.s 			page 60


 1846 0014 17D0     		beq	.L109
 1847              	.LVL204:
 1848              	.L104:
1278:Core/Src/SEGGER_RTT.c ****     WrOff = 0;
1279:Core/Src/SEGGER_RTT.c ****   }
1280:Core/Src/SEGGER_RTT.c ****   //
1281:Core/Src/SEGGER_RTT.c ****   // Output byte if free space is available
1282:Core/Src/SEGGER_RTT.c ****   //
1283:Core/Src/SEGGER_RTT.c ****   if (WrOff != pRing->RdOff) {
 1849              		.loc 1 1283 3 is_stmt 1 view .LVU566
 1850              		.loc 1 1283 21 is_stmt 0 view .LVU567
 1851 0016 00EB400C 		add	ip, r0, r0, lsl #1
 1852 001a 0D4B     		ldr	r3, .L110
 1853 001c 03EBCC03 		add	r3, r3, ip, lsl #3
 1854 0020 9B6A     		ldr	r3, [r3, #40]
 1855              		.loc 1 1283 6 view .LVU568
 1856 0022 9342     		cmp	r3, r2
 1857 0024 11D0     		beq	.L107
1284:Core/Src/SEGGER_RTT.c ****     pDst = (pRing->pBuffer + pRing->WrOff) + SEGGER_RTT_UNCACHED_OFF;
 1858              		.loc 1 1284 5 is_stmt 1 view .LVU569
 1859              		.loc 1 1284 18 is_stmt 0 view .LVU570
 1860 0026 0A4C     		ldr	r4, .L110
 1861 0028 431C     		adds	r3, r0, #1
 1862 002a 03EB4303 		add	r3, r3, r3, lsl #1
 1863 002e 04EBC303 		add	r3, r4, r3, lsl #3
 1864 0032 5B68     		ldr	r3, [r3, #4]
 1865              	.LVL205:
1285:Core/Src/SEGGER_RTT.c ****     *pDst = c;
 1866              		.loc 1 1285 5 is_stmt 1 view .LVU571
 1867              		.loc 1 1285 11 is_stmt 0 view .LVU572
 1868 0034 5955     		strb	r1, [r3, r5]
1286:Core/Src/SEGGER_RTT.c ****     RTT__DMB();                     // Force data write to be complete before writing the <WrOff>, 
 1869              		.loc 1 1286 5 is_stmt 1 view .LVU573
 1870              		.syntax unified
 1871              	@ 1286 "Core/Src/SEGGER_RTT.c" 1
 1872 0036 BFF35F8F 		dmb
 1873              	
 1874              	@ 0 "" 2
 1875              		.loc 1 1286 15 view .LVU574
1287:Core/Src/SEGGER_RTT.c ****     pRing->WrOff = WrOff;
 1876              		.loc 1 1287 5 view .LVU575
 1877              		.loc 1 1287 18 is_stmt 0 view .LVU576
 1878              		.thumb
 1879              		.syntax unified
 1880 003a 04EBCC04 		add	r4, r4, ip, lsl #3
 1881 003e 6262     		str	r2, [r4, #36]
1288:Core/Src/SEGGER_RTT.c ****     Status = 1;
 1882              		.loc 1 1288 5 is_stmt 1 view .LVU577
 1883              	.LVL206:
 1884              		.loc 1 1288 12 is_stmt 0 view .LVU578
 1885 0040 0120     		movs	r0, #1
 1886              	.LVL207:
 1887              	.L103:
1289:Core/Src/SEGGER_RTT.c ****   } else {
1290:Core/Src/SEGGER_RTT.c ****     Status = 0;
1291:Core/Src/SEGGER_RTT.c ****   }
1292:Core/Src/SEGGER_RTT.c ****   //
ARM GAS  /var/folders/lp/x54gwt890xv47sdkqj1k04q40000gn/T//ccydrndK.s 			page 61


1293:Core/Src/SEGGER_RTT.c ****   return Status;
1294:Core/Src/SEGGER_RTT.c **** }
 1888              		.loc 1 1294 1 view .LVU579
 1889 0042 30BC     		pop	{r4, r5}
 1890              		.cfi_remember_state
 1891              		.cfi_restore 5
 1892              		.cfi_restore 4
 1893              		.cfi_def_cfa_offset 0
 1894 0044 7047     		bx	lr
 1895              	.LVL208:
 1896              	.L109:
 1897              		.cfi_restore_state
1278:Core/Src/SEGGER_RTT.c ****   }
 1898              		.loc 1 1278 11 view .LVU580
 1899 0046 0022     		movs	r2, #0
 1900              	.LVL209:
1278:Core/Src/SEGGER_RTT.c ****   }
 1901              		.loc 1 1278 11 view .LVU581
 1902 0048 E5E7     		b	.L104
 1903              	.LVL210:
 1904              	.L107:
1290:Core/Src/SEGGER_RTT.c ****   }
 1905              		.loc 1 1290 12 view .LVU582
 1906 004a 0020     		movs	r0, #0
 1907              	.LVL211:
1293:Core/Src/SEGGER_RTT.c **** }
 1908              		.loc 1 1293 3 is_stmt 1 view .LVU583
1293:Core/Src/SEGGER_RTT.c **** }
 1909              		.loc 1 1293 10 is_stmt 0 view .LVU584
 1910 004c F9E7     		b	.L103
 1911              	.L111:
 1912 004e 00BF     		.align	2
 1913              	.L110:
 1914 0050 00000000 		.word	_SEGGER_RTT
 1915              		.cfi_endproc
 1916              	.LFE15:
 1918              		.section	.text.SEGGER_RTT_PutCharSkip,"ax",%progbits
 1919              		.align	1
 1920              		.global	SEGGER_RTT_PutCharSkip
 1921              		.syntax unified
 1922              		.thumb
 1923              		.thumb_func
 1925              	SEGGER_RTT_PutCharSkip:
 1926              	.LVL212:
 1927              	.LFB16:
1295:Core/Src/SEGGER_RTT.c **** 
1296:Core/Src/SEGGER_RTT.c **** /*********************************************************************
1297:Core/Src/SEGGER_RTT.c **** *
1298:Core/Src/SEGGER_RTT.c **** *       SEGGER_RTT_PutCharSkip
1299:Core/Src/SEGGER_RTT.c **** *
1300:Core/Src/SEGGER_RTT.c **** *  Function description
1301:Core/Src/SEGGER_RTT.c **** *    Stores a single character/byte in SEGGER RTT buffer.
1302:Core/Src/SEGGER_RTT.c **** *
1303:Core/Src/SEGGER_RTT.c **** *  Parameters
1304:Core/Src/SEGGER_RTT.c **** *    BufferIndex  Index of "Up"-buffer to be used (e.g. 0 for "Terminal").
1305:Core/Src/SEGGER_RTT.c **** *    c            Byte to be stored.
1306:Core/Src/SEGGER_RTT.c **** *
ARM GAS  /var/folders/lp/x54gwt890xv47sdkqj1k04q40000gn/T//ccydrndK.s 			page 62


1307:Core/Src/SEGGER_RTT.c **** *  Return value
1308:Core/Src/SEGGER_RTT.c **** *    Number of bytes which have been stored in the "Up"-buffer.
1309:Core/Src/SEGGER_RTT.c **** *
1310:Core/Src/SEGGER_RTT.c **** *  Notes
1311:Core/Src/SEGGER_RTT.c **** *    (1) If there is not enough space in the "Up"-buffer, the character is dropped.
1312:Core/Src/SEGGER_RTT.c **** */
1313:Core/Src/SEGGER_RTT.c **** 
1314:Core/Src/SEGGER_RTT.c **** unsigned SEGGER_RTT_PutCharSkip(unsigned BufferIndex, char c) {
 1928              		.loc 1 1314 63 is_stmt 1 view -0
 1929              		.cfi_startproc
 1930              		@ args = 0, pretend = 0, frame = 0
 1931              		@ frame_needed = 0, uses_anonymous_args = 0
 1932              		.loc 1 1314 63 is_stmt 0 view .LVU586
 1933 0000 70B5     		push	{r4, r5, r6, lr}
 1934              		.cfi_def_cfa_offset 16
 1935              		.cfi_offset 4, -16
 1936              		.cfi_offset 5, -12
 1937              		.cfi_offset 6, -8
 1938              		.cfi_offset 14, -4
 1939 0002 0446     		mov	r4, r0
 1940 0004 0D46     		mov	r5, r1
1315:Core/Src/SEGGER_RTT.c ****   SEGGER_RTT_BUFFER_UP* pRing;
 1941              		.loc 1 1315 3 is_stmt 1 view .LVU587
1316:Core/Src/SEGGER_RTT.c ****   unsigned              WrOff;
 1942              		.loc 1 1316 3 view .LVU588
1317:Core/Src/SEGGER_RTT.c ****   unsigned              Status;
 1943              		.loc 1 1317 3 view .LVU589
1318:Core/Src/SEGGER_RTT.c ****   volatile char*        pDst;
 1944              		.loc 1 1318 3 view .LVU590
 1945              	.LBB14:
1319:Core/Src/SEGGER_RTT.c ****   //
1320:Core/Src/SEGGER_RTT.c ****   // Prepare
1321:Core/Src/SEGGER_RTT.c ****   //
1322:Core/Src/SEGGER_RTT.c ****   INIT();
 1946              		.loc 1 1322 3 view .LVU591
 1947              		.loc 1 1322 3 view .LVU592
 1948              	.LVL213:
 1949              		.loc 1 1322 3 view .LVU593
 1950              		.loc 1 1322 3 view .LVU594
 1951 0006 1A4B     		ldr	r3, .L121
 1952 0008 1B78     		ldrb	r3, [r3]	@ zero_extendqisi2
 1953 000a 53B3     		cbz	r3, .L119
 1954              	.LVL214:
 1955              	.L113:
 1956              		.loc 1 1322 3 discriminator 3 view .LVU595
 1957              	.LBE14:
 1958              		.loc 1 1322 9 discriminator 3 view .LVU596
 1959              	.LBB15:
1323:Core/Src/SEGGER_RTT.c ****   SEGGER_RTT_LOCK();
 1960              		.loc 1 1323 3 view .LVU597
 1961              		.loc 1 1323 3 view .LVU598
 1962              		.syntax unified
 1963              	@ 1323 "Core/Src/SEGGER_RTT.c" 1
 1964 000c EFF31182 		mrs   r2, basepri  
 1965 0010 4FF02001 		mov   r1, #32       
 1966 0014 81F31188 		msr   basepri, r1  
 1967              		
ARM GAS  /var/folders/lp/x54gwt890xv47sdkqj1k04q40000gn/T//ccydrndK.s 			page 63


 1968              	@ 0 "" 2
 1969              	.LVL215:
 1970              		.loc 1 1323 20 view .LVU599
1324:Core/Src/SEGGER_RTT.c ****   //
1325:Core/Src/SEGGER_RTT.c ****   // Get "to-host" ring buffer.
1326:Core/Src/SEGGER_RTT.c ****   //
1327:Core/Src/SEGGER_RTT.c ****   pRing = (SEGGER_RTT_BUFFER_UP*)((char*)&_SEGGER_RTT.aUp[BufferIndex] + SEGGER_RTT_UNCACHED_OFF); 
 1971              		.loc 1 1327 3 view .LVU600
1328:Core/Src/SEGGER_RTT.c ****   //
1329:Core/Src/SEGGER_RTT.c ****   // Get write position and handle wrap-around if necessary
1330:Core/Src/SEGGER_RTT.c ****   //
1331:Core/Src/SEGGER_RTT.c ****   WrOff = pRing->WrOff + 1;
 1972              		.loc 1 1331 3 view .LVU601
 1973              		.loc 1 1331 16 is_stmt 0 view .LVU602
 1974              		.thumb
 1975              		.syntax unified
 1976 0018 04EB4401 		add	r1, r4, r4, lsl #1
 1977 001c 144B     		ldr	r3, .L121
 1978 001e 03EBC103 		add	r3, r3, r1, lsl #3
 1979 0022 5E6A     		ldr	r6, [r3, #36]
 1980              		.loc 1 1331 9 view .LVU603
 1981 0024 711C     		adds	r1, r6, #1
 1982              	.LVL216:
1332:Core/Src/SEGGER_RTT.c ****   if (WrOff == pRing->SizeOfBuffer) {
 1983              		.loc 1 1332 3 is_stmt 1 view .LVU604
 1984              		.loc 1 1332 21 is_stmt 0 view .LVU605
 1985 0026 1B6A     		ldr	r3, [r3, #32]
 1986              		.loc 1 1332 6 view .LVU606
 1987 0028 8B42     		cmp	r3, r1
 1988 002a 1DD0     		beq	.L120
 1989              	.LVL217:
 1990              	.L114:
1333:Core/Src/SEGGER_RTT.c ****     WrOff = 0;
1334:Core/Src/SEGGER_RTT.c ****   }
1335:Core/Src/SEGGER_RTT.c ****   //
1336:Core/Src/SEGGER_RTT.c ****   // Output byte if free space is available
1337:Core/Src/SEGGER_RTT.c ****   //
1338:Core/Src/SEGGER_RTT.c ****   if (WrOff != pRing->RdOff) {
 1991              		.loc 1 1338 3 is_stmt 1 view .LVU607
 1992              		.loc 1 1338 21 is_stmt 0 view .LVU608
 1993 002c 04EB4400 		add	r0, r4, r4, lsl #1
 1994 0030 0F4B     		ldr	r3, .L121
 1995 0032 03EBC003 		add	r3, r3, r0, lsl #3
 1996 0036 9B6A     		ldr	r3, [r3, #40]
 1997              		.loc 1 1338 6 view .LVU609
 1998 0038 8B42     		cmp	r3, r1
 1999 003a 17D0     		beq	.L117
1339:Core/Src/SEGGER_RTT.c ****     pDst  = (pRing->pBuffer + pRing->WrOff) + SEGGER_RTT_UNCACHED_OFF;
 2000              		.loc 1 1339 5 is_stmt 1 view .LVU610
 2001              		.loc 1 1339 19 is_stmt 0 view .LVU611
 2002 003c 0C48     		ldr	r0, .L121
 2003 003e 631C     		adds	r3, r4, #1
 2004 0040 03EB4303 		add	r3, r3, r3, lsl #1
 2005 0044 00EBC303 		add	r3, r0, r3, lsl #3
 2006 0048 5B68     		ldr	r3, [r3, #4]
 2007              	.LVL218:
1340:Core/Src/SEGGER_RTT.c ****     *pDst = c;
ARM GAS  /var/folders/lp/x54gwt890xv47sdkqj1k04q40000gn/T//ccydrndK.s 			page 64


 2008              		.loc 1 1340 5 is_stmt 1 view .LVU612
 2009              		.loc 1 1340 11 is_stmt 0 view .LVU613
 2010 004a 9D55     		strb	r5, [r3, r6]
1341:Core/Src/SEGGER_RTT.c ****     RTT__DMB();                     // Force data write to be complete before writing the <WrOff>, 
 2011              		.loc 1 1341 5 is_stmt 1 view .LVU614
 2012              		.syntax unified
 2013              	@ 1341 "Core/Src/SEGGER_RTT.c" 1
 2014 004c BFF35F8F 		dmb
 2015              	
 2016              	@ 0 "" 2
 2017              		.loc 1 1341 15 view .LVU615
1342:Core/Src/SEGGER_RTT.c ****     pRing->WrOff = WrOff;
 2018              		.loc 1 1342 5 view .LVU616
 2019              		.loc 1 1342 18 is_stmt 0 view .LVU617
 2020              		.thumb
 2021              		.syntax unified
 2022 0050 04EB4404 		add	r4, r4, r4, lsl #1
 2023              	.LVL219:
 2024              		.loc 1 1342 18 view .LVU618
 2025 0054 00EBC400 		add	r0, r0, r4, lsl #3
 2026 0058 4162     		str	r1, [r0, #36]
1343:Core/Src/SEGGER_RTT.c ****     Status = 1;
 2027              		.loc 1 1343 5 is_stmt 1 view .LVU619
 2028              	.LVL220:
 2029              		.loc 1 1343 12 is_stmt 0 view .LVU620
 2030 005a 0120     		movs	r0, #1
 2031              	.LVL221:
 2032              	.L115:
1344:Core/Src/SEGGER_RTT.c ****   } else {
1345:Core/Src/SEGGER_RTT.c ****     Status = 0;
1346:Core/Src/SEGGER_RTT.c ****   }
1347:Core/Src/SEGGER_RTT.c ****   //
1348:Core/Src/SEGGER_RTT.c ****   // Finish up.
1349:Core/Src/SEGGER_RTT.c ****   //
1350:Core/Src/SEGGER_RTT.c ****   SEGGER_RTT_UNLOCK();
 2033              		.loc 1 1350 3 is_stmt 1 view .LVU621
 2034              		.syntax unified
 2035              	@ 1350 "Core/Src/SEGGER_RTT.c" 1
 2036 005c 82F31188 		msr   basepri, r2  
 2037              		
 2038              	@ 0 "" 2
 2039              		.thumb
 2040              		.syntax unified
 2041              	.LBE15:
 2042              		.loc 1 1350 22 view .LVU622
1351:Core/Src/SEGGER_RTT.c ****   //
1352:Core/Src/SEGGER_RTT.c ****   return Status;
 2043              		.loc 1 1352 3 view .LVU623
1353:Core/Src/SEGGER_RTT.c **** }
 2044              		.loc 1 1353 1 is_stmt 0 view .LVU624
 2045 0060 70BD     		pop	{r4, r5, r6, pc}
 2046              	.LVL222:
 2047              	.L119:
 2048              	.LBB16:
1322:Core/Src/SEGGER_RTT.c ****   SEGGER_RTT_LOCK();
 2049              		.loc 1 1322 3 is_stmt 1 discriminator 1 view .LVU625
 2050 0062 FFF7FEFF 		bl	_DoInit
ARM GAS  /var/folders/lp/x54gwt890xv47sdkqj1k04q40000gn/T//ccydrndK.s 			page 65


 2051              	.LVL223:
1322:Core/Src/SEGGER_RTT.c ****   SEGGER_RTT_LOCK();
 2052              		.loc 1 1322 3 is_stmt 0 discriminator 1 view .LVU626
 2053 0066 D1E7     		b	.L113
 2054              	.LVL224:
 2055              	.L120:
1322:Core/Src/SEGGER_RTT.c ****   SEGGER_RTT_LOCK();
 2056              		.loc 1 1322 3 discriminator 1 view .LVU627
 2057              	.LBE16:
 2058              	.LBB17:
1333:Core/Src/SEGGER_RTT.c ****   }
 2059              		.loc 1 1333 11 view .LVU628
 2060 0068 0021     		movs	r1, #0
 2061              	.LVL225:
1333:Core/Src/SEGGER_RTT.c ****   }
 2062              		.loc 1 1333 11 view .LVU629
 2063 006a DFE7     		b	.L114
 2064              	.LVL226:
 2065              	.L117:
1345:Core/Src/SEGGER_RTT.c ****   }
 2066              		.loc 1 1345 12 view .LVU630
 2067 006c 0020     		movs	r0, #0
 2068 006e F5E7     		b	.L115
 2069              	.L122:
 2070              		.align	2
 2071              	.L121:
 2072 0070 00000000 		.word	_SEGGER_RTT
 2073              	.LBE17:
 2074              		.cfi_endproc
 2075              	.LFE16:
 2077              		.section	.text.SEGGER_RTT_PutChar,"ax",%progbits
 2078              		.align	1
 2079              		.global	SEGGER_RTT_PutChar
 2080              		.syntax unified
 2081              		.thumb
 2082              		.thumb_func
 2084              	SEGGER_RTT_PutChar:
 2085              	.LVL227:
 2086              	.LFB17:
1354:Core/Src/SEGGER_RTT.c **** 
1355:Core/Src/SEGGER_RTT.c ****  /*********************************************************************
1356:Core/Src/SEGGER_RTT.c **** *
1357:Core/Src/SEGGER_RTT.c **** *       SEGGER_RTT_PutChar
1358:Core/Src/SEGGER_RTT.c **** *
1359:Core/Src/SEGGER_RTT.c **** *  Function description
1360:Core/Src/SEGGER_RTT.c **** *    Stores a single character/byte in SEGGER RTT buffer.
1361:Core/Src/SEGGER_RTT.c **** *
1362:Core/Src/SEGGER_RTT.c **** *  Parameters
1363:Core/Src/SEGGER_RTT.c **** *    BufferIndex  Index of "Up"-buffer to be used (e.g. 0 for "Terminal").
1364:Core/Src/SEGGER_RTT.c **** *    c            Byte to be stored.
1365:Core/Src/SEGGER_RTT.c **** *
1366:Core/Src/SEGGER_RTT.c **** *  Return value
1367:Core/Src/SEGGER_RTT.c **** *    Number of bytes which have been stored in the "Up"-buffer.
1368:Core/Src/SEGGER_RTT.c **** *
1369:Core/Src/SEGGER_RTT.c **** *  Notes
1370:Core/Src/SEGGER_RTT.c **** *    (1) Data is stored according to buffer flags.
1371:Core/Src/SEGGER_RTT.c **** */
ARM GAS  /var/folders/lp/x54gwt890xv47sdkqj1k04q40000gn/T//ccydrndK.s 			page 66


1372:Core/Src/SEGGER_RTT.c **** 
1373:Core/Src/SEGGER_RTT.c **** unsigned SEGGER_RTT_PutChar(unsigned BufferIndex, char c) {
 2087              		.loc 1 1373 59 is_stmt 1 view -0
 2088              		.cfi_startproc
 2089              		@ args = 0, pretend = 0, frame = 0
 2090              		@ frame_needed = 0, uses_anonymous_args = 0
 2091              		.loc 1 1373 59 is_stmt 0 view .LVU632
 2092 0000 70B5     		push	{r4, r5, r6, lr}
 2093              		.cfi_def_cfa_offset 16
 2094              		.cfi_offset 4, -16
 2095              		.cfi_offset 5, -12
 2096              		.cfi_offset 6, -8
 2097              		.cfi_offset 14, -4
 2098 0002 0446     		mov	r4, r0
 2099 0004 0D46     		mov	r5, r1
1374:Core/Src/SEGGER_RTT.c ****   SEGGER_RTT_BUFFER_UP* pRing;
 2100              		.loc 1 1374 3 is_stmt 1 view .LVU633
1375:Core/Src/SEGGER_RTT.c ****   unsigned              WrOff;
 2101              		.loc 1 1375 3 view .LVU634
1376:Core/Src/SEGGER_RTT.c ****   unsigned              Status;
 2102              		.loc 1 1376 3 view .LVU635
1377:Core/Src/SEGGER_RTT.c ****   volatile char*        pDst;
 2103              		.loc 1 1377 3 view .LVU636
 2104              	.LBB18:
1378:Core/Src/SEGGER_RTT.c ****   //
1379:Core/Src/SEGGER_RTT.c ****   // Prepare
1380:Core/Src/SEGGER_RTT.c ****   //
1381:Core/Src/SEGGER_RTT.c ****   INIT();
 2105              		.loc 1 1381 3 view .LVU637
 2106              		.loc 1 1381 3 view .LVU638
 2107              	.LVL228:
 2108              		.loc 1 1381 3 view .LVU639
 2109              		.loc 1 1381 3 view .LVU640
 2110 0006 244B     		ldr	r3, .L134
 2111 0008 1B78     		ldrb	r3, [r3]	@ zero_extendqisi2
 2112 000a 002B     		cmp	r3, #0
 2113 000c 33D0     		beq	.L132
 2114              	.LVL229:
 2115              	.L124:
 2116              		.loc 1 1381 3 discriminator 3 view .LVU641
 2117              	.LBE18:
 2118              		.loc 1 1381 9 discriminator 3 view .LVU642
 2119              	.LBB19:
1382:Core/Src/SEGGER_RTT.c ****   SEGGER_RTT_LOCK();
 2120              		.loc 1 1382 3 view .LVU643
 2121              		.loc 1 1382 3 view .LVU644
 2122              		.syntax unified
 2123              	@ 1382 "Core/Src/SEGGER_RTT.c" 1
 2124 000e EFF31183 		mrs   r3, basepri  
 2125 0012 4FF02001 		mov   r1, #32       
 2126 0016 81F31188 		msr   basepri, r1  
 2127              		
 2128              	@ 0 "" 2
 2129              		.thumb
 2130              		.syntax unified
 2131 001a 1946     		mov	r1, r3
 2132              	.LVL230:
ARM GAS  /var/folders/lp/x54gwt890xv47sdkqj1k04q40000gn/T//ccydrndK.s 			page 67


 2133              		.loc 1 1382 20 view .LVU645
1383:Core/Src/SEGGER_RTT.c ****   //
1384:Core/Src/SEGGER_RTT.c ****   // Get "to-host" ring buffer.
1385:Core/Src/SEGGER_RTT.c ****   //
1386:Core/Src/SEGGER_RTT.c ****   pRing = (SEGGER_RTT_BUFFER_UP*)((char*)&_SEGGER_RTT.aUp[BufferIndex] + SEGGER_RTT_UNCACHED_OFF); 
 2134              		.loc 1 1386 3 view .LVU646
1387:Core/Src/SEGGER_RTT.c ****   //
1388:Core/Src/SEGGER_RTT.c ****   // Get write position and handle wrap-around if necessary
1389:Core/Src/SEGGER_RTT.c ****   //
1390:Core/Src/SEGGER_RTT.c ****   WrOff = pRing->WrOff + 1;
 2135              		.loc 1 1390 3 view .LVU647
 2136              		.loc 1 1390 16 is_stmt 0 view .LVU648
 2137 001c 04EB4402 		add	r2, r4, r4, lsl #1
 2138 0020 1D4B     		ldr	r3, .L134
 2139 0022 03EBC203 		add	r3, r3, r2, lsl #3
 2140 0026 5E6A     		ldr	r6, [r3, #36]
 2141              		.loc 1 1390 9 view .LVU649
 2142 0028 701C     		adds	r0, r6, #1
 2143              	.LVL231:
1391:Core/Src/SEGGER_RTT.c ****   if (WrOff == pRing->SizeOfBuffer) {
 2144              		.loc 1 1391 3 is_stmt 1 view .LVU650
 2145              		.loc 1 1391 21 is_stmt 0 view .LVU651
 2146 002a 1B6A     		ldr	r3, [r3, #32]
 2147              		.loc 1 1391 6 view .LVU652
 2148 002c 8342     		cmp	r3, r0
 2149 002e 25D0     		beq	.L133
 2150              	.LVL232:
 2151              	.L125:
1392:Core/Src/SEGGER_RTT.c ****     WrOff = 0;
1393:Core/Src/SEGGER_RTT.c ****   }
1394:Core/Src/SEGGER_RTT.c ****   //
1395:Core/Src/SEGGER_RTT.c ****   // Wait for free space if mode is set to blocking
1396:Core/Src/SEGGER_RTT.c ****   //
1397:Core/Src/SEGGER_RTT.c ****   if (pRing->Flags == SEGGER_RTT_MODE_BLOCK_IF_FIFO_FULL) {
 2152              		.loc 1 1397 3 is_stmt 1 view .LVU653
 2153              		.loc 1 1397 12 is_stmt 0 view .LVU654
 2154 0030 04EB4402 		add	r2, r4, r4, lsl #1
 2155 0034 184B     		ldr	r3, .L134
 2156 0036 03EBC203 		add	r3, r3, r2, lsl #3
 2157 003a DB6A     		ldr	r3, [r3, #44]
 2158              		.loc 1 1397 6 view .LVU655
 2159 003c 022B     		cmp	r3, #2
 2160 003e 1FD0     		beq	.L127
 2161              	.L126:
1398:Core/Src/SEGGER_RTT.c ****     while (WrOff == pRing->RdOff) {
1399:Core/Src/SEGGER_RTT.c ****       ;
1400:Core/Src/SEGGER_RTT.c ****     }
1401:Core/Src/SEGGER_RTT.c ****   }
1402:Core/Src/SEGGER_RTT.c ****   //
1403:Core/Src/SEGGER_RTT.c ****   // Output byte if free space is available
1404:Core/Src/SEGGER_RTT.c ****   //
1405:Core/Src/SEGGER_RTT.c ****   if (WrOff != pRing->RdOff) {
 2162              		.loc 1 1405 3 is_stmt 1 view .LVU656
 2163              		.loc 1 1405 21 is_stmt 0 view .LVU657
 2164 0040 04EB4402 		add	r2, r4, r4, lsl #1
 2165 0044 144B     		ldr	r3, .L134
 2166 0046 03EBC203 		add	r3, r3, r2, lsl #3
ARM GAS  /var/folders/lp/x54gwt890xv47sdkqj1k04q40000gn/T//ccydrndK.s 			page 68


 2167 004a 9B6A     		ldr	r3, [r3, #40]
 2168              		.loc 1 1405 6 view .LVU658
 2169 004c 8342     		cmp	r3, r0
 2170 004e 20D0     		beq	.L130
1406:Core/Src/SEGGER_RTT.c ****     pDst  = (pRing->pBuffer + pRing->WrOff) + SEGGER_RTT_UNCACHED_OFF;
 2171              		.loc 1 1406 5 is_stmt 1 view .LVU659
 2172              		.loc 1 1406 19 is_stmt 0 view .LVU660
 2173 0050 114A     		ldr	r2, .L134
 2174 0052 631C     		adds	r3, r4, #1
 2175 0054 03EB4303 		add	r3, r3, r3, lsl #1
 2176 0058 02EBC303 		add	r3, r2, r3, lsl #3
 2177 005c 5B68     		ldr	r3, [r3, #4]
 2178              	.LVL233:
1407:Core/Src/SEGGER_RTT.c ****     *pDst = c;
 2179              		.loc 1 1407 5 is_stmt 1 view .LVU661
 2180              		.loc 1 1407 11 is_stmt 0 view .LVU662
 2181 005e 9D55     		strb	r5, [r3, r6]
1408:Core/Src/SEGGER_RTT.c ****     RTT__DMB();                     // Force data write to be complete before writing the <WrOff>, 
 2182              		.loc 1 1408 5 is_stmt 1 view .LVU663
 2183              		.syntax unified
 2184              	@ 1408 "Core/Src/SEGGER_RTT.c" 1
 2185 0060 BFF35F8F 		dmb
 2186              	
 2187              	@ 0 "" 2
 2188              		.loc 1 1408 15 view .LVU664
1409:Core/Src/SEGGER_RTT.c ****     pRing->WrOff = WrOff;
 2189              		.loc 1 1409 5 view .LVU665
 2190              		.loc 1 1409 18 is_stmt 0 view .LVU666
 2191              		.thumb
 2192              		.syntax unified
 2193 0064 04EB4404 		add	r4, r4, r4, lsl #1
 2194              	.LVL234:
 2195              		.loc 1 1409 18 view .LVU667
 2196 0068 02EBC402 		add	r2, r2, r4, lsl #3
 2197 006c 5062     		str	r0, [r2, #36]
1410:Core/Src/SEGGER_RTT.c ****     Status = 1;
 2198              		.loc 1 1410 5 is_stmt 1 view .LVU668
 2199              	.LVL235:
 2200              		.loc 1 1410 12 is_stmt 0 view .LVU669
 2201 006e 0120     		movs	r0, #1
 2202              	.LVL236:
 2203              	.L128:
1411:Core/Src/SEGGER_RTT.c ****   } else {
1412:Core/Src/SEGGER_RTT.c ****     Status = 0;
1413:Core/Src/SEGGER_RTT.c ****   }
1414:Core/Src/SEGGER_RTT.c ****   //
1415:Core/Src/SEGGER_RTT.c ****   // Finish up.
1416:Core/Src/SEGGER_RTT.c ****   //
1417:Core/Src/SEGGER_RTT.c ****   SEGGER_RTT_UNLOCK();
 2204              		.loc 1 1417 3 is_stmt 1 view .LVU670
 2205              		.syntax unified
 2206              	@ 1417 "Core/Src/SEGGER_RTT.c" 1
 2207 0070 81F31188 		msr   basepri, r1  
 2208              		
 2209              	@ 0 "" 2
 2210              		.thumb
 2211              		.syntax unified
ARM GAS  /var/folders/lp/x54gwt890xv47sdkqj1k04q40000gn/T//ccydrndK.s 			page 69


 2212              	.LBE19:
 2213              		.loc 1 1417 22 view .LVU671
1418:Core/Src/SEGGER_RTT.c ****   return Status;
 2214              		.loc 1 1418 3 view .LVU672
1419:Core/Src/SEGGER_RTT.c **** }
 2215              		.loc 1 1419 1 is_stmt 0 view .LVU673
 2216 0074 70BD     		pop	{r4, r5, r6, pc}
 2217              	.LVL237:
 2218              	.L132:
 2219              	.LBB20:
1381:Core/Src/SEGGER_RTT.c ****   SEGGER_RTT_LOCK();
 2220              		.loc 1 1381 3 is_stmt 1 discriminator 1 view .LVU674
 2221 0076 FFF7FEFF 		bl	_DoInit
 2222              	.LVL238:
1381:Core/Src/SEGGER_RTT.c ****   SEGGER_RTT_LOCK();
 2223              		.loc 1 1381 3 is_stmt 0 discriminator 1 view .LVU675
 2224 007a C8E7     		b	.L124
 2225              	.LVL239:
 2226              	.L133:
1381:Core/Src/SEGGER_RTT.c ****   SEGGER_RTT_LOCK();
 2227              		.loc 1 1381 3 discriminator 1 view .LVU676
 2228              	.LBE20:
 2229              	.LBB21:
1392:Core/Src/SEGGER_RTT.c ****   }
 2230              		.loc 1 1392 11 view .LVU677
 2231 007c 0020     		movs	r0, #0
 2232              	.LVL240:
1392:Core/Src/SEGGER_RTT.c ****   }
 2233              		.loc 1 1392 11 view .LVU678
 2234 007e D7E7     		b	.L125
 2235              	.LVL241:
 2236              	.L127:
1399:Core/Src/SEGGER_RTT.c ****     }
 2237              		.loc 1 1399 7 is_stmt 1 view .LVU679
1398:Core/Src/SEGGER_RTT.c ****       ;
 2238              		.loc 1 1398 18 discriminator 1 view .LVU680
1398:Core/Src/SEGGER_RTT.c ****       ;
 2239              		.loc 1 1398 26 is_stmt 0 discriminator 1 view .LVU681
 2240 0080 04EB4402 		add	r2, r4, r4, lsl #1
 2241 0084 044B     		ldr	r3, .L134
 2242 0086 03EBC203 		add	r3, r3, r2, lsl #3
 2243 008a 9B6A     		ldr	r3, [r3, #40]
1398:Core/Src/SEGGER_RTT.c ****       ;
 2244              		.loc 1 1398 18 discriminator 1 view .LVU682
 2245 008c 8342     		cmp	r3, r0
 2246 008e F7D0     		beq	.L127
 2247 0090 D6E7     		b	.L126
 2248              	.L130:
1412:Core/Src/SEGGER_RTT.c ****   }
 2249              		.loc 1 1412 12 view .LVU683
 2250 0092 0020     		movs	r0, #0
 2251              	.LVL242:
1412:Core/Src/SEGGER_RTT.c ****   }
 2252              		.loc 1 1412 12 view .LVU684
 2253 0094 ECE7     		b	.L128
 2254              	.L135:
 2255 0096 00BF     		.align	2
ARM GAS  /var/folders/lp/x54gwt890xv47sdkqj1k04q40000gn/T//ccydrndK.s 			page 70


 2256              	.L134:
 2257 0098 00000000 		.word	_SEGGER_RTT
 2258              	.LBE21:
 2259              		.cfi_endproc
 2260              	.LFE17:
 2262              		.section	.text.SEGGER_RTT_GetKey,"ax",%progbits
 2263              		.align	1
 2264              		.global	SEGGER_RTT_GetKey
 2265              		.syntax unified
 2266              		.thumb
 2267              		.thumb_func
 2269              	SEGGER_RTT_GetKey:
 2270              	.LFB18:
1420:Core/Src/SEGGER_RTT.c **** 
1421:Core/Src/SEGGER_RTT.c **** /*********************************************************************
1422:Core/Src/SEGGER_RTT.c **** *
1423:Core/Src/SEGGER_RTT.c **** *       SEGGER_RTT_GetKey
1424:Core/Src/SEGGER_RTT.c **** *
1425:Core/Src/SEGGER_RTT.c **** *  Function description
1426:Core/Src/SEGGER_RTT.c **** *    Reads one character from the SEGGER RTT buffer.
1427:Core/Src/SEGGER_RTT.c **** *    Host has previously stored data there.
1428:Core/Src/SEGGER_RTT.c **** *
1429:Core/Src/SEGGER_RTT.c **** *  Return value
1430:Core/Src/SEGGER_RTT.c **** *    <  0 -   No character available (buffer empty).
1431:Core/Src/SEGGER_RTT.c **** *    >= 0 -   Character which has been read. (Possible values: 0 - 255)
1432:Core/Src/SEGGER_RTT.c **** *
1433:Core/Src/SEGGER_RTT.c **** *  Notes
1434:Core/Src/SEGGER_RTT.c **** *    (1) This function is only specified for accesses to RTT buffer 0.
1435:Core/Src/SEGGER_RTT.c **** */
1436:Core/Src/SEGGER_RTT.c **** int SEGGER_RTT_GetKey(void) {
 2271              		.loc 1 1436 29 is_stmt 1 view -0
 2272              		.cfi_startproc
 2273              		@ args = 0, pretend = 0, frame = 8
 2274              		@ frame_needed = 0, uses_anonymous_args = 0
 2275 0000 00B5     		push	{lr}
 2276              		.cfi_def_cfa_offset 4
 2277              		.cfi_offset 14, -4
 2278 0002 83B0     		sub	sp, sp, #12
 2279              		.cfi_def_cfa_offset 16
1437:Core/Src/SEGGER_RTT.c ****   char c;
 2280              		.loc 1 1437 3 view .LVU686
1438:Core/Src/SEGGER_RTT.c ****   int r;
 2281              		.loc 1 1438 3 view .LVU687
1439:Core/Src/SEGGER_RTT.c **** 
1440:Core/Src/SEGGER_RTT.c ****   r = (int)SEGGER_RTT_Read(0u, &c, 1u);
 2282              		.loc 1 1440 3 view .LVU688
 2283              		.loc 1 1440 12 is_stmt 0 view .LVU689
 2284 0004 0122     		movs	r2, #1
 2285 0006 0DF10701 		add	r1, sp, #7
 2286 000a 0020     		movs	r0, #0
 2287 000c FFF7FEFF 		bl	SEGGER_RTT_Read
 2288              	.LVL243:
1441:Core/Src/SEGGER_RTT.c ****   if (r == 1) {
 2289              		.loc 1 1441 3 is_stmt 1 view .LVU690
 2290              		.loc 1 1441 6 is_stmt 0 view .LVU691
 2291 0010 0128     		cmp	r0, #1
 2292 0012 04D1     		bne	.L138
ARM GAS  /var/folders/lp/x54gwt890xv47sdkqj1k04q40000gn/T//ccydrndK.s 			page 71


1442:Core/Src/SEGGER_RTT.c ****     r = (int)(unsigned char)c;
 2293              		.loc 1 1442 5 is_stmt 1 view .LVU692
 2294              		.loc 1 1442 9 is_stmt 0 view .LVU693
 2295 0014 9DF80700 		ldrb	r0, [sp, #7]	@ zero_extendqisi2
 2296              	.LVL244:
 2297              	.L136:
1443:Core/Src/SEGGER_RTT.c ****   } else {
1444:Core/Src/SEGGER_RTT.c ****     r = -1;
1445:Core/Src/SEGGER_RTT.c ****   }
1446:Core/Src/SEGGER_RTT.c ****   return r;
1447:Core/Src/SEGGER_RTT.c **** }
 2298              		.loc 1 1447 1 view .LVU694
 2299 0018 03B0     		add	sp, sp, #12
 2300              		.cfi_remember_state
 2301              		.cfi_def_cfa_offset 4
 2302              		@ sp needed
 2303 001a 5DF804FB 		ldr	pc, [sp], #4
 2304              	.LVL245:
 2305              	.L138:
 2306              		.cfi_restore_state
1444:Core/Src/SEGGER_RTT.c ****   }
 2307              		.loc 1 1444 7 view .LVU695
 2308 001e 4FF0FF30 		mov	r0, #-1
 2309              	.LVL246:
1446:Core/Src/SEGGER_RTT.c **** }
 2310              		.loc 1 1446 3 is_stmt 1 view .LVU696
1446:Core/Src/SEGGER_RTT.c **** }
 2311              		.loc 1 1446 10 is_stmt 0 view .LVU697
 2312 0022 F9E7     		b	.L136
 2313              		.cfi_endproc
 2314              	.LFE18:
 2316              		.section	.text.SEGGER_RTT_WaitKey,"ax",%progbits
 2317              		.align	1
 2318              		.global	SEGGER_RTT_WaitKey
 2319              		.syntax unified
 2320              		.thumb
 2321              		.thumb_func
 2323              	SEGGER_RTT_WaitKey:
 2324              	.LFB19:
1448:Core/Src/SEGGER_RTT.c **** 
1449:Core/Src/SEGGER_RTT.c **** /*********************************************************************
1450:Core/Src/SEGGER_RTT.c **** *
1451:Core/Src/SEGGER_RTT.c **** *       SEGGER_RTT_WaitKey
1452:Core/Src/SEGGER_RTT.c **** *
1453:Core/Src/SEGGER_RTT.c **** *  Function description
1454:Core/Src/SEGGER_RTT.c **** *    Waits until at least one character is avaible in the SEGGER RTT buffer.
1455:Core/Src/SEGGER_RTT.c **** *    Once a character is available, it is read and this function returns.
1456:Core/Src/SEGGER_RTT.c **** *
1457:Core/Src/SEGGER_RTT.c **** *  Return value
1458:Core/Src/SEGGER_RTT.c **** *    >=0 -   Character which has been read.
1459:Core/Src/SEGGER_RTT.c **** *
1460:Core/Src/SEGGER_RTT.c **** *  Notes
1461:Core/Src/SEGGER_RTT.c **** *    (1) This function is only specified for accesses to RTT buffer 0
1462:Core/Src/SEGGER_RTT.c **** *    (2) This function is blocking if no character is present in RTT buffer
1463:Core/Src/SEGGER_RTT.c **** */
1464:Core/Src/SEGGER_RTT.c **** int SEGGER_RTT_WaitKey(void) {
 2325              		.loc 1 1464 30 is_stmt 1 view -0
ARM GAS  /var/folders/lp/x54gwt890xv47sdkqj1k04q40000gn/T//ccydrndK.s 			page 72


 2326              		.cfi_startproc
 2327              		@ args = 0, pretend = 0, frame = 0
 2328              		@ frame_needed = 0, uses_anonymous_args = 0
 2329 0000 08B5     		push	{r3, lr}
 2330              		.cfi_def_cfa_offset 8
 2331              		.cfi_offset 3, -8
 2332              		.cfi_offset 14, -4
 2333              	.L141:
1465:Core/Src/SEGGER_RTT.c ****   int r;
 2334              		.loc 1 1465 3 view .LVU699
1466:Core/Src/SEGGER_RTT.c **** 
1467:Core/Src/SEGGER_RTT.c ****   do {
 2335              		.loc 1 1467 3 view .LVU700
1468:Core/Src/SEGGER_RTT.c ****     r = SEGGER_RTT_GetKey();
 2336              		.loc 1 1468 5 view .LVU701
 2337              		.loc 1 1468 9 is_stmt 0 view .LVU702
 2338 0002 FFF7FEFF 		bl	SEGGER_RTT_GetKey
 2339              	.LVL247:
1469:Core/Src/SEGGER_RTT.c ****   } while (r < 0);
 2340              		.loc 1 1469 14 is_stmt 1 discriminator 1 view .LVU703
 2341 0006 0028     		cmp	r0, #0
 2342              		.loc 1 1469 14 is_stmt 0 discriminator 1 view .LVU704
 2343 0008 FBDB     		blt	.L141
1470:Core/Src/SEGGER_RTT.c ****   return r;
 2344              		.loc 1 1470 3 is_stmt 1 view .LVU705
1471:Core/Src/SEGGER_RTT.c **** }
 2345              		.loc 1 1471 1 is_stmt 0 view .LVU706
 2346 000a 08BD     		pop	{r3, pc}
 2347              		.cfi_endproc
 2348              	.LFE19:
 2350              		.section	.text.SEGGER_RTT_HasKey,"ax",%progbits
 2351              		.align	1
 2352              		.global	SEGGER_RTT_HasKey
 2353              		.syntax unified
 2354              		.thumb
 2355              		.thumb_func
 2357              	SEGGER_RTT_HasKey:
 2358              	.LFB20:
1472:Core/Src/SEGGER_RTT.c **** 
1473:Core/Src/SEGGER_RTT.c **** /*********************************************************************
1474:Core/Src/SEGGER_RTT.c **** *
1475:Core/Src/SEGGER_RTT.c **** *       SEGGER_RTT_HasKey
1476:Core/Src/SEGGER_RTT.c **** *
1477:Core/Src/SEGGER_RTT.c **** *  Function description
1478:Core/Src/SEGGER_RTT.c **** *    Checks if at least one character for reading is available in the SEGGER RTT buffer.
1479:Core/Src/SEGGER_RTT.c **** *
1480:Core/Src/SEGGER_RTT.c **** *  Return value
1481:Core/Src/SEGGER_RTT.c **** *    == 0 -     No characters are available to read.
1482:Core/Src/SEGGER_RTT.c **** *    == 1 -     At least one character is available.
1483:Core/Src/SEGGER_RTT.c **** *
1484:Core/Src/SEGGER_RTT.c **** *  Notes
1485:Core/Src/SEGGER_RTT.c **** *    (1) This function is only specified for accesses to RTT buffer 0
1486:Core/Src/SEGGER_RTT.c **** */
1487:Core/Src/SEGGER_RTT.c **** int SEGGER_RTT_HasKey(void) {
 2359              		.loc 1 1487 29 is_stmt 1 view -0
 2360              		.cfi_startproc
 2361              		@ args = 0, pretend = 0, frame = 0
ARM GAS  /var/folders/lp/x54gwt890xv47sdkqj1k04q40000gn/T//ccydrndK.s 			page 73


 2362              		@ frame_needed = 0, uses_anonymous_args = 0
 2363 0000 08B5     		push	{r3, lr}
 2364              		.cfi_def_cfa_offset 8
 2365              		.cfi_offset 3, -8
 2366              		.cfi_offset 14, -4
1488:Core/Src/SEGGER_RTT.c ****   SEGGER_RTT_BUFFER_DOWN* pRing;
 2367              		.loc 1 1488 3 view .LVU708
1489:Core/Src/SEGGER_RTT.c ****   unsigned RdOff;
 2368              		.loc 1 1489 3 view .LVU709
1490:Core/Src/SEGGER_RTT.c ****   int r;
 2369              		.loc 1 1490 3 view .LVU710
 2370              	.LBB22:
1491:Core/Src/SEGGER_RTT.c **** 
1492:Core/Src/SEGGER_RTT.c ****   INIT();
 2371              		.loc 1 1492 3 view .LVU711
 2372              		.loc 1 1492 3 view .LVU712
 2373              	.LVL248:
 2374              		.loc 1 1492 3 view .LVU713
 2375              		.loc 1 1492 3 view .LVU714
 2376 0002 074B     		ldr	r3, .L149
 2377 0004 1B78     		ldrb	r3, [r3]	@ zero_extendqisi2
 2378 0006 33B1     		cbz	r3, .L148
 2379              	.L144:
 2380              		.loc 1 1492 3 discriminator 3 view .LVU715
 2381              	.LBE22:
 2382              		.loc 1 1492 9 discriminator 3 view .LVU716
1493:Core/Src/SEGGER_RTT.c ****   pRing = (SEGGER_RTT_BUFFER_DOWN*)((char*)&_SEGGER_RTT.aDown[0] + SEGGER_RTT_UNCACHED_OFF);  // Ac
 2383              		.loc 1 1493 3 view .LVU717
 2384              	.LVL249:
1494:Core/Src/SEGGER_RTT.c ****   RdOff = pRing->RdOff;
 2385              		.loc 1 1494 3 view .LVU718
 2386              		.loc 1 1494 9 is_stmt 0 view .LVU719
 2387 0008 054B     		ldr	r3, .L149
 2388 000a 1A6F     		ldr	r2, [r3, #112]
 2389              	.LVL250:
1495:Core/Src/SEGGER_RTT.c ****   if (RdOff != pRing->WrOff) {
 2390              		.loc 1 1495 3 is_stmt 1 view .LVU720
 2391              		.loc 1 1495 21 is_stmt 0 view .LVU721
 2392 000c DB6E     		ldr	r3, [r3, #108]
 2393              		.loc 1 1495 6 view .LVU722
 2394 000e 9342     		cmp	r3, r2
 2395 0010 04D0     		beq	.L146
1496:Core/Src/SEGGER_RTT.c ****     r = 1;
 2396              		.loc 1 1496 7 view .LVU723
 2397 0012 0120     		movs	r0, #1
 2398              	.L143:
1497:Core/Src/SEGGER_RTT.c ****   } else {
1498:Core/Src/SEGGER_RTT.c ****     r = 0;
1499:Core/Src/SEGGER_RTT.c ****   }
1500:Core/Src/SEGGER_RTT.c ****   return r;
1501:Core/Src/SEGGER_RTT.c **** }
 2399              		.loc 1 1501 1 view .LVU724
 2400 0014 08BD     		pop	{r3, pc}
 2401              	.LVL251:
 2402              	.L148:
 2403              	.LBB23:
1492:Core/Src/SEGGER_RTT.c ****   pRing = (SEGGER_RTT_BUFFER_DOWN*)((char*)&_SEGGER_RTT.aDown[0] + SEGGER_RTT_UNCACHED_OFF);  // Ac
ARM GAS  /var/folders/lp/x54gwt890xv47sdkqj1k04q40000gn/T//ccydrndK.s 			page 74


 2404              		.loc 1 1492 3 is_stmt 1 discriminator 1 view .LVU725
 2405 0016 FFF7FEFF 		bl	_DoInit
 2406              	.LVL252:
 2407 001a F5E7     		b	.L144
 2408              	.LVL253:
 2409              	.L146:
1492:Core/Src/SEGGER_RTT.c ****   pRing = (SEGGER_RTT_BUFFER_DOWN*)((char*)&_SEGGER_RTT.aDown[0] + SEGGER_RTT_UNCACHED_OFF);  // Ac
 2410              		.loc 1 1492 3 is_stmt 0 discriminator 1 view .LVU726
 2411              	.LBE23:
1498:Core/Src/SEGGER_RTT.c ****   }
 2412              		.loc 1 1498 7 view .LVU727
 2413 001c 0020     		movs	r0, #0
 2414              	.LVL254:
1500:Core/Src/SEGGER_RTT.c **** }
 2415              		.loc 1 1500 3 is_stmt 1 view .LVU728
1500:Core/Src/SEGGER_RTT.c **** }
 2416              		.loc 1 1500 10 is_stmt 0 view .LVU729
 2417 001e F9E7     		b	.L143
 2418              	.L150:
 2419              		.align	2
 2420              	.L149:
 2421 0020 00000000 		.word	_SEGGER_RTT
 2422              		.cfi_endproc
 2423              	.LFE20:
 2425              		.section	.text.SEGGER_RTT_HasData,"ax",%progbits
 2426              		.align	1
 2427              		.global	SEGGER_RTT_HasData
 2428              		.syntax unified
 2429              		.thumb
 2430              		.thumb_func
 2432              	SEGGER_RTT_HasData:
 2433              	.LVL255:
 2434              	.LFB21:
1502:Core/Src/SEGGER_RTT.c **** 
1503:Core/Src/SEGGER_RTT.c **** /*********************************************************************
1504:Core/Src/SEGGER_RTT.c **** *
1505:Core/Src/SEGGER_RTT.c **** *       SEGGER_RTT_HasData
1506:Core/Src/SEGGER_RTT.c **** *
1507:Core/Src/SEGGER_RTT.c **** *  Function description
1508:Core/Src/SEGGER_RTT.c **** *    Check if there is data from the host in the given buffer.
1509:Core/Src/SEGGER_RTT.c **** *
1510:Core/Src/SEGGER_RTT.c **** *  Return value:
1511:Core/Src/SEGGER_RTT.c **** *  ==0:  No data
1512:Core/Src/SEGGER_RTT.c **** *  !=0:  Data in buffer
1513:Core/Src/SEGGER_RTT.c **** *
1514:Core/Src/SEGGER_RTT.c **** */
1515:Core/Src/SEGGER_RTT.c **** unsigned SEGGER_RTT_HasData(unsigned BufferIndex) {
 2435              		.loc 1 1515 51 is_stmt 1 view -0
 2436              		.cfi_startproc
 2437              		@ args = 0, pretend = 0, frame = 0
 2438              		@ frame_needed = 0, uses_anonymous_args = 0
 2439              		@ link register save eliminated.
1516:Core/Src/SEGGER_RTT.c ****   SEGGER_RTT_BUFFER_DOWN* pRing;
 2440              		.loc 1 1516 3 view .LVU731
1517:Core/Src/SEGGER_RTT.c ****   unsigned                v;
 2441              		.loc 1 1517 3 view .LVU732
1518:Core/Src/SEGGER_RTT.c **** 
ARM GAS  /var/folders/lp/x54gwt890xv47sdkqj1k04q40000gn/T//ccydrndK.s 			page 75


1519:Core/Src/SEGGER_RTT.c ****   pRing = (SEGGER_RTT_BUFFER_DOWN*)((char*)&_SEGGER_RTT.aDown[BufferIndex] + SEGGER_RTT_UNCACHED_OF
 2442              		.loc 1 1519 3 view .LVU733
1520:Core/Src/SEGGER_RTT.c ****   v = pRing->WrOff;
 2443              		.loc 1 1520 3 view .LVU734
 2444              		.loc 1 1520 5 is_stmt 0 view .LVU735
 2445 0000 064B     		ldr	r3, .L152
 2446 0002 00EB4002 		add	r2, r0, r0, lsl #1
 2447 0006 03EBC202 		add	r2, r3, r2, lsl #3
 2448 000a D26E     		ldr	r2, [r2, #108]
 2449              	.LVL256:
1521:Core/Src/SEGGER_RTT.c ****   return v - pRing->RdOff;
 2450              		.loc 1 1521 3 is_stmt 1 view .LVU736
 2451              		.loc 1 1521 19 is_stmt 0 view .LVU737
 2452 000c 00EB4000 		add	r0, r0, r0, lsl #1
 2453              	.LVL257:
 2454              		.loc 1 1521 19 view .LVU738
 2455 0010 03EBC003 		add	r3, r3, r0, lsl #3
 2456 0014 186F     		ldr	r0, [r3, #112]
1522:Core/Src/SEGGER_RTT.c **** }
 2457              		.loc 1 1522 1 view .LVU739
 2458 0016 101A     		subs	r0, r2, r0
 2459 0018 7047     		bx	lr
 2460              	.L153:
 2461 001a 00BF     		.align	2
 2462              	.L152:
 2463 001c 00000000 		.word	_SEGGER_RTT
 2464              		.cfi_endproc
 2465              	.LFE21:
 2467              		.section	.text.SEGGER_RTT_HasDataUp,"ax",%progbits
 2468              		.align	1
 2469              		.global	SEGGER_RTT_HasDataUp
 2470              		.syntax unified
 2471              		.thumb
 2472              		.thumb_func
 2474              	SEGGER_RTT_HasDataUp:
 2475              	.LVL258:
 2476              	.LFB22:
1523:Core/Src/SEGGER_RTT.c **** 
1524:Core/Src/SEGGER_RTT.c **** /*********************************************************************
1525:Core/Src/SEGGER_RTT.c **** *
1526:Core/Src/SEGGER_RTT.c **** *       SEGGER_RTT_HasDataUp
1527:Core/Src/SEGGER_RTT.c **** *
1528:Core/Src/SEGGER_RTT.c **** *  Function description
1529:Core/Src/SEGGER_RTT.c **** *    Check if there is data remaining to be sent in the given buffer.
1530:Core/Src/SEGGER_RTT.c **** *
1531:Core/Src/SEGGER_RTT.c **** *  Return value:
1532:Core/Src/SEGGER_RTT.c **** *  ==0:  No data
1533:Core/Src/SEGGER_RTT.c **** *  !=0:  Data in buffer
1534:Core/Src/SEGGER_RTT.c **** *
1535:Core/Src/SEGGER_RTT.c **** */
1536:Core/Src/SEGGER_RTT.c **** unsigned SEGGER_RTT_HasDataUp(unsigned BufferIndex) {
 2477              		.loc 1 1536 53 is_stmt 1 view -0
 2478              		.cfi_startproc
 2479              		@ args = 0, pretend = 0, frame = 0
 2480              		@ frame_needed = 0, uses_anonymous_args = 0
 2481              		@ link register save eliminated.
1537:Core/Src/SEGGER_RTT.c ****   SEGGER_RTT_BUFFER_UP* pRing;
ARM GAS  /var/folders/lp/x54gwt890xv47sdkqj1k04q40000gn/T//ccydrndK.s 			page 76


 2482              		.loc 1 1537 3 view .LVU741
1538:Core/Src/SEGGER_RTT.c ****   unsigned                v;
 2483              		.loc 1 1538 3 view .LVU742
1539:Core/Src/SEGGER_RTT.c **** 
1540:Core/Src/SEGGER_RTT.c ****   pRing = (SEGGER_RTT_BUFFER_UP*)((char*)&_SEGGER_RTT.aUp[BufferIndex] + SEGGER_RTT_UNCACHED_OFF); 
 2484              		.loc 1 1540 3 view .LVU743
1541:Core/Src/SEGGER_RTT.c ****   v = pRing->RdOff;
 2485              		.loc 1 1541 3 view .LVU744
 2486              		.loc 1 1541 5 is_stmt 0 view .LVU745
 2487 0000 064B     		ldr	r3, .L155
 2488 0002 00EB4002 		add	r2, r0, r0, lsl #1
 2489 0006 03EBC202 		add	r2, r3, r2, lsl #3
 2490 000a 926A     		ldr	r2, [r2, #40]
 2491              	.LVL259:
1542:Core/Src/SEGGER_RTT.c ****   return pRing->WrOff - v;
 2492              		.loc 1 1542 3 is_stmt 1 view .LVU746
 2493              		.loc 1 1542 15 is_stmt 0 view .LVU747
 2494 000c 00EB4000 		add	r0, r0, r0, lsl #1
 2495              	.LVL260:
 2496              		.loc 1 1542 15 view .LVU748
 2497 0010 03EBC003 		add	r3, r3, r0, lsl #3
 2498 0014 586A     		ldr	r0, [r3, #36]
1543:Core/Src/SEGGER_RTT.c **** }
 2499              		.loc 1 1543 1 view .LVU749
 2500 0016 801A     		subs	r0, r0, r2
 2501 0018 7047     		bx	lr
 2502              	.L156:
 2503 001a 00BF     		.align	2
 2504              	.L155:
 2505 001c 00000000 		.word	_SEGGER_RTT
 2506              		.cfi_endproc
 2507              	.LFE22:
 2509              		.section	.text.SEGGER_RTT_AllocDownBuffer,"ax",%progbits
 2510              		.align	1
 2511              		.global	SEGGER_RTT_AllocDownBuffer
 2512              		.syntax unified
 2513              		.thumb
 2514              		.thumb_func
 2516              	SEGGER_RTT_AllocDownBuffer:
 2517              	.LVL261:
 2518              	.LFB23:
1544:Core/Src/SEGGER_RTT.c **** 
1545:Core/Src/SEGGER_RTT.c **** /*********************************************************************
1546:Core/Src/SEGGER_RTT.c **** *
1547:Core/Src/SEGGER_RTT.c **** *       SEGGER_RTT_AllocDownBuffer
1548:Core/Src/SEGGER_RTT.c **** *
1549:Core/Src/SEGGER_RTT.c **** *  Function description
1550:Core/Src/SEGGER_RTT.c **** *    Run-time configuration of the next down-buffer (H->T).
1551:Core/Src/SEGGER_RTT.c **** *    The next buffer, which is not used yet is configured.
1552:Core/Src/SEGGER_RTT.c **** *    This includes: Buffer address, size, name, flags, ...
1553:Core/Src/SEGGER_RTT.c **** *
1554:Core/Src/SEGGER_RTT.c **** *  Parameters
1555:Core/Src/SEGGER_RTT.c **** *    sName        Pointer to a constant name string.
1556:Core/Src/SEGGER_RTT.c **** *    pBuffer      Pointer to a buffer to be used.
1557:Core/Src/SEGGER_RTT.c **** *    BufferSize   Size of the buffer.
1558:Core/Src/SEGGER_RTT.c **** *    Flags        Operating modes. Define behavior if buffer is full (not enough space for entire m
1559:Core/Src/SEGGER_RTT.c **** *                 Flags[31:24] are used for validity check and must be zero. Flags[23:2] are reserv
ARM GAS  /var/folders/lp/x54gwt890xv47sdkqj1k04q40000gn/T//ccydrndK.s 			page 77


1560:Core/Src/SEGGER_RTT.c **** *
1561:Core/Src/SEGGER_RTT.c **** *  Return value
1562:Core/Src/SEGGER_RTT.c **** *    >= 0 - O.K. Buffer Index
1563:Core/Src/SEGGER_RTT.c **** *     < 0 - Error
1564:Core/Src/SEGGER_RTT.c **** */
1565:Core/Src/SEGGER_RTT.c **** int SEGGER_RTT_AllocDownBuffer(const char* sName, void* pBuffer, unsigned BufferSize, unsigned Flag
 2519              		.loc 1 1565 103 is_stmt 1 view -0
 2520              		.cfi_startproc
 2521              		@ args = 0, pretend = 0, frame = 0
 2522              		@ frame_needed = 0, uses_anonymous_args = 0
 2523              		.loc 1 1565 103 is_stmt 0 view .LVU751
 2524 0000 2DE9F041 		push	{r4, r5, r6, r7, r8, lr}
 2525              		.cfi_def_cfa_offset 24
 2526              		.cfi_offset 4, -24
 2527              		.cfi_offset 5, -20
 2528              		.cfi_offset 6, -16
 2529              		.cfi_offset 7, -12
 2530              		.cfi_offset 8, -8
 2531              		.cfi_offset 14, -4
 2532 0004 8046     		mov	r8, r0
 2533 0006 0F46     		mov	r7, r1
 2534 0008 1646     		mov	r6, r2
 2535 000a 1D46     		mov	r5, r3
1566:Core/Src/SEGGER_RTT.c ****   int BufferIndex;
 2536              		.loc 1 1566 3 is_stmt 1 view .LVU752
1567:Core/Src/SEGGER_RTT.c ****   volatile SEGGER_RTT_CB* pRTTCB;
 2537              		.loc 1 1567 3 view .LVU753
 2538              	.LBB24:
1568:Core/Src/SEGGER_RTT.c **** 
1569:Core/Src/SEGGER_RTT.c ****   INIT();
 2539              		.loc 1 1569 3 view .LVU754
 2540              		.loc 1 1569 3 view .LVU755
 2541              	.LVL262:
 2542              		.loc 1 1569 3 view .LVU756
 2543              		.loc 1 1569 3 view .LVU757
 2544 000c 194B     		ldr	r3, .L165
 2545              	.LVL263:
 2546              		.loc 1 1569 3 is_stmt 0 view .LVU758
 2547 000e 1B78     		ldrb	r3, [r3]	@ zero_extendqisi2
 2548 0010 4BB3     		cbz	r3, .L164
 2549              	.LVL264:
 2550              	.L158:
 2551              		.loc 1 1569 3 is_stmt 1 discriminator 3 view .LVU759
 2552              	.LBE24:
 2553              		.loc 1 1569 9 discriminator 3 view .LVU760
 2554              	.LBB25:
1570:Core/Src/SEGGER_RTT.c ****   SEGGER_RTT_LOCK();
 2555              		.loc 1 1570 3 view .LVU761
 2556              		.loc 1 1570 3 view .LVU762
 2557              		.syntax unified
 2558              	@ 1570 "Core/Src/SEGGER_RTT.c" 1
 2559 0012 EFF31182 		mrs   r2, basepri  
 2560 0016 4FF02001 		mov   r1, #32       
 2561 001a 81F31188 		msr   basepri, r1  
 2562              		
 2563              	@ 0 "" 2
 2564              	.LVL265:
ARM GAS  /var/folders/lp/x54gwt890xv47sdkqj1k04q40000gn/T//ccydrndK.s 			page 78


 2565              		.loc 1 1570 20 view .LVU763
1571:Core/Src/SEGGER_RTT.c ****   pRTTCB = (volatile SEGGER_RTT_CB*)((unsigned char*)&_SEGGER_RTT + SEGGER_RTT_UNCACHED_OFF);  // A
 2566              		.loc 1 1571 3 view .LVU764
1572:Core/Src/SEGGER_RTT.c ****   BufferIndex = 0;
 2567              		.loc 1 1572 3 view .LVU765
 2568              		.loc 1 1572 15 is_stmt 0 view .LVU766
 2569              		.thumb
 2570              		.syntax unified
 2571 001e 0020     		movs	r0, #0
 2572              	.LVL266:
 2573              	.L160:
1573:Core/Src/SEGGER_RTT.c ****   do {
 2574              		.loc 1 1573 3 is_stmt 1 view .LVU767
1574:Core/Src/SEGGER_RTT.c ****     if (pRTTCB->aDown[BufferIndex].pBuffer == NULL) {
 2575              		.loc 1 1574 5 view .LVU768
 2576              		.loc 1 1574 35 is_stmt 0 view .LVU769
 2577 0020 00EB400C 		add	ip, r0, r0, lsl #1
 2578 0024 134C     		ldr	r4, .L165
 2579 0026 04EBCC0C 		add	ip, r4, ip, lsl #3
 2580 002a DCF86430 		ldr	r3, [ip, #100]
 2581              		.loc 1 1574 8 view .LVU770
 2582 002e 1BB1     		cbz	r3, .L159
1575:Core/Src/SEGGER_RTT.c ****       break;
1576:Core/Src/SEGGER_RTT.c ****     }
1577:Core/Src/SEGGER_RTT.c ****     BufferIndex++;
 2583              		.loc 1 1577 5 is_stmt 1 view .LVU771
 2584              		.loc 1 1577 16 is_stmt 0 view .LVU772
 2585 0030 0130     		adds	r0, r0, #1
 2586              	.LVL267:
1578:Core/Src/SEGGER_RTT.c ****   } while (BufferIndex < pRTTCB->MaxNumDownBuffers);
 2587              		.loc 1 1578 24 is_stmt 1 view .LVU773
 2588              		.loc 1 1578 32 is_stmt 0 view .LVU774
 2589 0032 6369     		ldr	r3, [r4, #20]
 2590              		.loc 1 1578 24 view .LVU775
 2591 0034 8342     		cmp	r3, r0
 2592 0036 F3DC     		bgt	.L160
 2593              	.L159:
1579:Core/Src/SEGGER_RTT.c ****   if (BufferIndex < pRTTCB->MaxNumDownBuffers) {
 2594              		.loc 1 1579 3 is_stmt 1 view .LVU776
 2595              		.loc 1 1579 27 is_stmt 0 view .LVU777
 2596 0038 0E4B     		ldr	r3, .L165
 2597 003a 5B69     		ldr	r3, [r3, #20]
 2598              		.loc 1 1579 6 view .LVU778
 2599 003c 8342     		cmp	r3, r0
 2600 003e 15DD     		ble	.L162
1580:Core/Src/SEGGER_RTT.c ****     pRTTCB->aDown[BufferIndex].sName        = sName;
 2601              		.loc 1 1580 5 is_stmt 1 view .LVU779
 2602              		.loc 1 1580 45 is_stmt 0 view .LVU780
 2603 0040 00EB4001 		add	r1, r0, r0, lsl #1
 2604 0044 0B4B     		ldr	r3, .L165
 2605 0046 03EBC103 		add	r3, r3, r1, lsl #3
 2606 004a C3F86080 		str	r8, [r3, #96]
1581:Core/Src/SEGGER_RTT.c ****     pRTTCB->aDown[BufferIndex].pBuffer      = (char*)pBuffer;
 2607              		.loc 1 1581 5 is_stmt 1 view .LVU781
 2608              		.loc 1 1581 45 is_stmt 0 view .LVU782
 2609 004e 5F66     		str	r7, [r3, #100]
1582:Core/Src/SEGGER_RTT.c ****     pRTTCB->aDown[BufferIndex].SizeOfBuffer = BufferSize;
ARM GAS  /var/folders/lp/x54gwt890xv47sdkqj1k04q40000gn/T//ccydrndK.s 			page 79


 2610              		.loc 1 1582 5 is_stmt 1 view .LVU783
 2611              		.loc 1 1582 45 is_stmt 0 view .LVU784
 2612 0050 9E66     		str	r6, [r3, #104]
1583:Core/Src/SEGGER_RTT.c ****     pRTTCB->aDown[BufferIndex].RdOff        = 0u;
 2613              		.loc 1 1583 5 is_stmt 1 view .LVU785
 2614              		.loc 1 1583 45 is_stmt 0 view .LVU786
 2615 0052 0021     		movs	r1, #0
 2616 0054 1967     		str	r1, [r3, #112]
1584:Core/Src/SEGGER_RTT.c ****     pRTTCB->aDown[BufferIndex].WrOff        = 0u;
 2617              		.loc 1 1584 5 is_stmt 1 view .LVU787
 2618              		.loc 1 1584 45 is_stmt 0 view .LVU788
 2619 0056 D966     		str	r1, [r3, #108]
1585:Core/Src/SEGGER_RTT.c ****     pRTTCB->aDown[BufferIndex].Flags        = Flags;
 2620              		.loc 1 1585 5 is_stmt 1 view .LVU789
 2621              		.loc 1 1585 45 is_stmt 0 view .LVU790
 2622 0058 5D67     		str	r5, [r3, #116]
1586:Core/Src/SEGGER_RTT.c ****     RTT__DMB();                     // Force data write to be complete before writing the <WrOff>, 
 2623              		.loc 1 1586 5 is_stmt 1 view .LVU791
 2624              		.syntax unified
 2625              	@ 1586 "Core/Src/SEGGER_RTT.c" 1
 2626 005a BFF35F8F 		dmb
 2627              	
 2628              	@ 0 "" 2
 2629              		.loc 1 1586 15 view .LVU792
 2630              	.LVL268:
 2631              		.thumb
 2632              		.syntax unified
 2633              	.L161:
1587:Core/Src/SEGGER_RTT.c ****   } else {
1588:Core/Src/SEGGER_RTT.c ****     BufferIndex = -1;
1589:Core/Src/SEGGER_RTT.c ****   }
1590:Core/Src/SEGGER_RTT.c ****   SEGGER_RTT_UNLOCK();
 2634              		.loc 1 1590 3 view .LVU793
 2635              		.syntax unified
 2636              	@ 1590 "Core/Src/SEGGER_RTT.c" 1
 2637 005e 82F31188 		msr   basepri, r2  
 2638              		
 2639              	@ 0 "" 2
 2640              		.thumb
 2641              		.syntax unified
 2642              	.LBE25:
 2643              		.loc 1 1590 22 view .LVU794
1591:Core/Src/SEGGER_RTT.c ****   return BufferIndex;
 2644              		.loc 1 1591 3 view .LVU795
1592:Core/Src/SEGGER_RTT.c **** }
 2645              		.loc 1 1592 1 is_stmt 0 view .LVU796
 2646 0062 BDE8F081 		pop	{r4, r5, r6, r7, r8, pc}
 2647              	.LVL269:
 2648              	.L164:
 2649              	.LBB26:
1569:Core/Src/SEGGER_RTT.c ****   SEGGER_RTT_LOCK();
 2650              		.loc 1 1569 3 is_stmt 1 discriminator 1 view .LVU797
 2651 0066 FFF7FEFF 		bl	_DoInit
 2652              	.LVL270:
1569:Core/Src/SEGGER_RTT.c ****   SEGGER_RTT_LOCK();
 2653              		.loc 1 1569 3 is_stmt 0 discriminator 1 view .LVU798
 2654 006a D2E7     		b	.L158
ARM GAS  /var/folders/lp/x54gwt890xv47sdkqj1k04q40000gn/T//ccydrndK.s 			page 80


 2655              	.LVL271:
 2656              	.L162:
1569:Core/Src/SEGGER_RTT.c ****   SEGGER_RTT_LOCK();
 2657              		.loc 1 1569 3 discriminator 1 view .LVU799
 2658              	.LBE26:
 2659              	.LBB27:
1588:Core/Src/SEGGER_RTT.c ****   }
 2660              		.loc 1 1588 17 view .LVU800
 2661 006c 4FF0FF30 		mov	r0, #-1
 2662              	.LVL272:
1588:Core/Src/SEGGER_RTT.c ****   }
 2663              		.loc 1 1588 17 view .LVU801
 2664 0070 F5E7     		b	.L161
 2665              	.L166:
 2666 0072 00BF     		.align	2
 2667              	.L165:
 2668 0074 00000000 		.word	_SEGGER_RTT
 2669              	.LBE27:
 2670              		.cfi_endproc
 2671              	.LFE23:
 2673              		.section	.text.SEGGER_RTT_AllocUpBuffer,"ax",%progbits
 2674              		.align	1
 2675              		.global	SEGGER_RTT_AllocUpBuffer
 2676              		.syntax unified
 2677              		.thumb
 2678              		.thumb_func
 2680              	SEGGER_RTT_AllocUpBuffer:
 2681              	.LVL273:
 2682              	.LFB24:
1593:Core/Src/SEGGER_RTT.c **** 
1594:Core/Src/SEGGER_RTT.c **** /*********************************************************************
1595:Core/Src/SEGGER_RTT.c **** *
1596:Core/Src/SEGGER_RTT.c **** *       SEGGER_RTT_AllocUpBuffer
1597:Core/Src/SEGGER_RTT.c **** *
1598:Core/Src/SEGGER_RTT.c **** *  Function description
1599:Core/Src/SEGGER_RTT.c **** *    Run-time configuration of the next up-buffer (T->H).
1600:Core/Src/SEGGER_RTT.c **** *    The next buffer, which is not used yet is configured.
1601:Core/Src/SEGGER_RTT.c **** *    This includes: Buffer address, size, name, flags, ...
1602:Core/Src/SEGGER_RTT.c **** *
1603:Core/Src/SEGGER_RTT.c **** *  Parameters
1604:Core/Src/SEGGER_RTT.c **** *    sName        Pointer to a constant name string.
1605:Core/Src/SEGGER_RTT.c **** *    pBuffer      Pointer to a buffer to be used.
1606:Core/Src/SEGGER_RTT.c **** *    BufferSize   Size of the buffer.
1607:Core/Src/SEGGER_RTT.c **** *    Flags        Operating modes. Define behavior if buffer is full (not enough space for entire m
1608:Core/Src/SEGGER_RTT.c **** *                 Flags[31:24] are used for validity check and must be zero. Flags[23:2] are reserv
1609:Core/Src/SEGGER_RTT.c **** *
1610:Core/Src/SEGGER_RTT.c **** *  Return value
1611:Core/Src/SEGGER_RTT.c **** *    >= 0 - O.K. Buffer Index
1612:Core/Src/SEGGER_RTT.c **** *     < 0 - Error
1613:Core/Src/SEGGER_RTT.c **** */
1614:Core/Src/SEGGER_RTT.c **** int SEGGER_RTT_AllocUpBuffer(const char* sName, void* pBuffer, unsigned BufferSize, unsigned Flags)
 2683              		.loc 1 1614 101 is_stmt 1 view -0
 2684              		.cfi_startproc
 2685              		@ args = 0, pretend = 0, frame = 0
 2686              		@ frame_needed = 0, uses_anonymous_args = 0
 2687              		.loc 1 1614 101 is_stmt 0 view .LVU803
 2688 0000 F8B5     		push	{r3, r4, r5, r6, r7, lr}
ARM GAS  /var/folders/lp/x54gwt890xv47sdkqj1k04q40000gn/T//ccydrndK.s 			page 81


 2689              		.cfi_def_cfa_offset 24
 2690              		.cfi_offset 3, -24
 2691              		.cfi_offset 4, -20
 2692              		.cfi_offset 5, -16
 2693              		.cfi_offset 6, -12
 2694              		.cfi_offset 7, -8
 2695              		.cfi_offset 14, -4
 2696 0002 0746     		mov	r7, r0
 2697 0004 0E46     		mov	r6, r1
 2698 0006 1546     		mov	r5, r2
 2699 0008 1C46     		mov	r4, r3
1615:Core/Src/SEGGER_RTT.c ****   int BufferIndex;
 2700              		.loc 1 1615 3 is_stmt 1 view .LVU804
1616:Core/Src/SEGGER_RTT.c ****   volatile SEGGER_RTT_CB* pRTTCB;
 2701              		.loc 1 1616 3 view .LVU805
 2702              	.LBB28:
1617:Core/Src/SEGGER_RTT.c **** 
1618:Core/Src/SEGGER_RTT.c ****   INIT();
 2703              		.loc 1 1618 3 view .LVU806
 2704              		.loc 1 1618 3 view .LVU807
 2705              	.LVL274:
 2706              		.loc 1 1618 3 view .LVU808
 2707              		.loc 1 1618 3 view .LVU809
 2708 000a 1F4B     		ldr	r3, .L175
 2709              	.LVL275:
 2710              		.loc 1 1618 3 is_stmt 0 view .LVU810
 2711 000c 1B78     		ldrb	r3, [r3]	@ zero_extendqisi2
 2712 000e 002B     		cmp	r3, #0
 2713 0010 34D0     		beq	.L174
 2714              	.LVL276:
 2715              	.L168:
 2716              		.loc 1 1618 3 is_stmt 1 discriminator 3 view .LVU811
 2717              	.LBE28:
 2718              		.loc 1 1618 9 discriminator 3 view .LVU812
 2719              	.LBB29:
1619:Core/Src/SEGGER_RTT.c ****   SEGGER_RTT_LOCK();
 2720              		.loc 1 1619 3 view .LVU813
 2721              		.loc 1 1619 3 view .LVU814
 2722              		.syntax unified
 2723              	@ 1619 "Core/Src/SEGGER_RTT.c" 1
 2724 0012 EFF31182 		mrs   r2, basepri  
 2725 0016 4FF02001 		mov   r1, #32       
 2726 001a 81F31188 		msr   basepri, r1  
 2727              		
 2728              	@ 0 "" 2
 2729              	.LVL277:
 2730              		.loc 1 1619 20 view .LVU815
1620:Core/Src/SEGGER_RTT.c ****   pRTTCB = (volatile SEGGER_RTT_CB*)((unsigned char*)&_SEGGER_RTT + SEGGER_RTT_UNCACHED_OFF);  // A
 2731              		.loc 1 1620 3 view .LVU816
1621:Core/Src/SEGGER_RTT.c ****   BufferIndex = 0;
 2732              		.loc 1 1621 3 view .LVU817
 2733              		.loc 1 1621 15 is_stmt 0 view .LVU818
 2734              		.thumb
 2735              		.syntax unified
 2736 001e 0020     		movs	r0, #0
 2737              	.LVL278:
 2738              	.L170:
ARM GAS  /var/folders/lp/x54gwt890xv47sdkqj1k04q40000gn/T//ccydrndK.s 			page 82


1622:Core/Src/SEGGER_RTT.c ****   do {
 2739              		.loc 1 1622 3 is_stmt 1 view .LVU819
1623:Core/Src/SEGGER_RTT.c ****     if (pRTTCB->aUp[BufferIndex].pBuffer == NULL) {
 2740              		.loc 1 1623 5 view .LVU820
 2741              		.loc 1 1623 33 is_stmt 0 view .LVU821
 2742 0020 00F1010C 		add	ip, r0, #1
 2743 0024 0CEB4C0C 		add	ip, ip, ip, lsl #1
 2744 0028 174B     		ldr	r3, .L175
 2745 002a 03EBCC0C 		add	ip, r3, ip, lsl #3
 2746 002e DCF80430 		ldr	r3, [ip, #4]
 2747              		.loc 1 1623 8 view .LVU822
 2748 0032 23B1     		cbz	r3, .L169
1624:Core/Src/SEGGER_RTT.c ****       break;
1625:Core/Src/SEGGER_RTT.c ****     }
1626:Core/Src/SEGGER_RTT.c ****     BufferIndex++;
 2749              		.loc 1 1626 5 is_stmt 1 view .LVU823
 2750              		.loc 1 1626 16 is_stmt 0 view .LVU824
 2751 0034 0130     		adds	r0, r0, #1
 2752              	.LVL279:
1627:Core/Src/SEGGER_RTT.c ****   } while (BufferIndex < pRTTCB->MaxNumUpBuffers);
 2753              		.loc 1 1627 24 is_stmt 1 view .LVU825
 2754              		.loc 1 1627 32 is_stmt 0 view .LVU826
 2755 0036 144B     		ldr	r3, .L175
 2756 0038 1B69     		ldr	r3, [r3, #16]
 2757              		.loc 1 1627 24 view .LVU827
 2758 003a 8342     		cmp	r3, r0
 2759 003c F0DC     		bgt	.L170
 2760              	.L169:
1628:Core/Src/SEGGER_RTT.c ****   if (BufferIndex < pRTTCB->MaxNumUpBuffers) {
 2761              		.loc 1 1628 3 is_stmt 1 view .LVU828
 2762              		.loc 1 1628 27 is_stmt 0 view .LVU829
 2763 003e 124B     		ldr	r3, .L175
 2764 0040 1B69     		ldr	r3, [r3, #16]
 2765              		.loc 1 1628 6 view .LVU830
 2766 0042 8342     		cmp	r3, r0
 2767 0044 1DDD     		ble	.L172
1629:Core/Src/SEGGER_RTT.c ****     pRTTCB->aUp[BufferIndex].sName        = sName;
 2768              		.loc 1 1629 5 is_stmt 1 view .LVU831
 2769              		.loc 1 1629 43 is_stmt 0 view .LVU832
 2770 0046 104B     		ldr	r3, .L175
 2771 0048 411C     		adds	r1, r0, #1
 2772 004a 01EB410C 		add	ip, r1, r1, lsl #1
 2773 004e 4FEACC0C 		lsl	ip, ip, #3
 2774 0052 43F80C70 		str	r7, [r3, ip]
1630:Core/Src/SEGGER_RTT.c ****     pRTTCB->aUp[BufferIndex].pBuffer      = (char*)pBuffer;
 2775              		.loc 1 1630 5 is_stmt 1 view .LVU833
 2776              		.loc 1 1630 43 is_stmt 0 view .LVU834
 2777 0056 01EB4101 		add	r1, r1, r1, lsl #1
 2778 005a 03EBC101 		add	r1, r3, r1, lsl #3
 2779 005e 4E60     		str	r6, [r1, #4]
1631:Core/Src/SEGGER_RTT.c ****     pRTTCB->aUp[BufferIndex].SizeOfBuffer = BufferSize;
 2780              		.loc 1 1631 5 is_stmt 1 view .LVU835
 2781              		.loc 1 1631 43 is_stmt 0 view .LVU836
 2782 0060 00EB4001 		add	r1, r0, r0, lsl #1
 2783 0064 03EBC103 		add	r3, r3, r1, lsl #3
 2784 0068 1D62     		str	r5, [r3, #32]
1632:Core/Src/SEGGER_RTT.c ****     pRTTCB->aUp[BufferIndex].RdOff        = 0u;
ARM GAS  /var/folders/lp/x54gwt890xv47sdkqj1k04q40000gn/T//ccydrndK.s 			page 83


 2785              		.loc 1 1632 5 is_stmt 1 view .LVU837
 2786              		.loc 1 1632 43 is_stmt 0 view .LVU838
 2787 006a 0021     		movs	r1, #0
 2788 006c 9962     		str	r1, [r3, #40]
1633:Core/Src/SEGGER_RTT.c ****     pRTTCB->aUp[BufferIndex].WrOff        = 0u;
 2789              		.loc 1 1633 5 is_stmt 1 view .LVU839
 2790              		.loc 1 1633 43 is_stmt 0 view .LVU840
 2791 006e 5962     		str	r1, [r3, #36]
1634:Core/Src/SEGGER_RTT.c ****     pRTTCB->aUp[BufferIndex].Flags        = Flags;
 2792              		.loc 1 1634 5 is_stmt 1 view .LVU841
 2793              		.loc 1 1634 43 is_stmt 0 view .LVU842
 2794 0070 DC62     		str	r4, [r3, #44]
1635:Core/Src/SEGGER_RTT.c ****     RTT__DMB();                     // Force data write to be complete before writing the <WrOff>, 
 2795              		.loc 1 1635 5 is_stmt 1 view .LVU843
 2796              		.syntax unified
 2797              	@ 1635 "Core/Src/SEGGER_RTT.c" 1
 2798 0072 BFF35F8F 		dmb
 2799              	
 2800              	@ 0 "" 2
 2801              		.loc 1 1635 15 view .LVU844
 2802              	.LVL280:
 2803              		.thumb
 2804              		.syntax unified
 2805              	.L171:
1636:Core/Src/SEGGER_RTT.c ****   } else {
1637:Core/Src/SEGGER_RTT.c ****     BufferIndex = -1;
1638:Core/Src/SEGGER_RTT.c ****   }
1639:Core/Src/SEGGER_RTT.c ****   SEGGER_RTT_UNLOCK();
 2806              		.loc 1 1639 3 view .LVU845
 2807              		.syntax unified
 2808              	@ 1639 "Core/Src/SEGGER_RTT.c" 1
 2809 0076 82F31188 		msr   basepri, r2  
 2810              		
 2811              	@ 0 "" 2
 2812              		.thumb
 2813              		.syntax unified
 2814              	.LBE29:
 2815              		.loc 1 1639 22 view .LVU846
1640:Core/Src/SEGGER_RTT.c ****   return BufferIndex;
 2816              		.loc 1 1640 3 view .LVU847
1641:Core/Src/SEGGER_RTT.c **** }
 2817              		.loc 1 1641 1 is_stmt 0 view .LVU848
 2818 007a F8BD     		pop	{r3, r4, r5, r6, r7, pc}
 2819              	.LVL281:
 2820              	.L174:
 2821              	.LBB30:
1618:Core/Src/SEGGER_RTT.c ****   SEGGER_RTT_LOCK();
 2822              		.loc 1 1618 3 is_stmt 1 discriminator 1 view .LVU849
 2823 007c FFF7FEFF 		bl	_DoInit
 2824              	.LVL282:
1618:Core/Src/SEGGER_RTT.c ****   SEGGER_RTT_LOCK();
 2825              		.loc 1 1618 3 is_stmt 0 discriminator 1 view .LVU850
 2826 0080 C7E7     		b	.L168
 2827              	.LVL283:
 2828              	.L172:
1618:Core/Src/SEGGER_RTT.c ****   SEGGER_RTT_LOCK();
 2829              		.loc 1 1618 3 discriminator 1 view .LVU851
ARM GAS  /var/folders/lp/x54gwt890xv47sdkqj1k04q40000gn/T//ccydrndK.s 			page 84


 2830              	.LBE30:
 2831              	.LBB31:
1637:Core/Src/SEGGER_RTT.c ****   }
 2832              		.loc 1 1637 17 view .LVU852
 2833 0082 4FF0FF30 		mov	r0, #-1
 2834              	.LVL284:
1637:Core/Src/SEGGER_RTT.c ****   }
 2835              		.loc 1 1637 17 view .LVU853
 2836 0086 F6E7     		b	.L171
 2837              	.L176:
 2838              		.align	2
 2839              	.L175:
 2840 0088 00000000 		.word	_SEGGER_RTT
 2841              	.LBE31:
 2842              		.cfi_endproc
 2843              	.LFE24:
 2845              		.section	.text.SEGGER_RTT_ConfigUpBuffer,"ax",%progbits
 2846              		.align	1
 2847              		.global	SEGGER_RTT_ConfigUpBuffer
 2848              		.syntax unified
 2849              		.thumb
 2850              		.thumb_func
 2852              	SEGGER_RTT_ConfigUpBuffer:
 2853              	.LVL285:
 2854              	.LFB25:
1642:Core/Src/SEGGER_RTT.c **** 
1643:Core/Src/SEGGER_RTT.c **** /*********************************************************************
1644:Core/Src/SEGGER_RTT.c **** *
1645:Core/Src/SEGGER_RTT.c **** *       SEGGER_RTT_ConfigUpBuffer
1646:Core/Src/SEGGER_RTT.c **** *
1647:Core/Src/SEGGER_RTT.c **** *  Function description
1648:Core/Src/SEGGER_RTT.c **** *    Run-time configuration of a specific up-buffer (T->H).
1649:Core/Src/SEGGER_RTT.c **** *    Buffer to be configured is specified by index.
1650:Core/Src/SEGGER_RTT.c **** *    This includes: Buffer address, size, name, flags, ...
1651:Core/Src/SEGGER_RTT.c **** *
1652:Core/Src/SEGGER_RTT.c **** *  Parameters
1653:Core/Src/SEGGER_RTT.c **** *    BufferIndex  Index of the buffer to configure.
1654:Core/Src/SEGGER_RTT.c **** *    sName        Pointer to a constant name string.
1655:Core/Src/SEGGER_RTT.c **** *    pBuffer      Pointer to a buffer to be used.
1656:Core/Src/SEGGER_RTT.c **** *    BufferSize   Size of the buffer.
1657:Core/Src/SEGGER_RTT.c **** *    Flags        Operating modes. Define behavior if buffer is full (not enough space for entire m
1658:Core/Src/SEGGER_RTT.c **** *                 Flags[31:24] are used for validity check and must be zero. Flags[23:2] are reserv
1659:Core/Src/SEGGER_RTT.c **** *
1660:Core/Src/SEGGER_RTT.c **** *  Return value
1661:Core/Src/SEGGER_RTT.c **** *    >= 0 - O.K.
1662:Core/Src/SEGGER_RTT.c **** *     < 0 - Error
1663:Core/Src/SEGGER_RTT.c **** *
1664:Core/Src/SEGGER_RTT.c **** *  Additional information
1665:Core/Src/SEGGER_RTT.c **** *    Buffer 0 is configured on compile-time.
1666:Core/Src/SEGGER_RTT.c **** *    May only be called once per buffer.
1667:Core/Src/SEGGER_RTT.c **** *    Buffer name and flags can be reconfigured using the appropriate functions.
1668:Core/Src/SEGGER_RTT.c **** */
1669:Core/Src/SEGGER_RTT.c **** int SEGGER_RTT_ConfigUpBuffer(unsigned BufferIndex, const char* sName, void* pBuffer, unsigned Buff
 2855              		.loc 1 1669 124 is_stmt 1 view -0
 2856              		.cfi_startproc
 2857              		@ args = 4, pretend = 0, frame = 0
 2858              		@ frame_needed = 0, uses_anonymous_args = 0
ARM GAS  /var/folders/lp/x54gwt890xv47sdkqj1k04q40000gn/T//ccydrndK.s 			page 85


 2859              		.loc 1 1669 124 is_stmt 0 view .LVU855
 2860 0000 F8B5     		push	{r3, r4, r5, r6, r7, lr}
 2861              		.cfi_def_cfa_offset 24
 2862              		.cfi_offset 3, -24
 2863              		.cfi_offset 4, -20
 2864              		.cfi_offset 5, -16
 2865              		.cfi_offset 6, -12
 2866              		.cfi_offset 7, -8
 2867              		.cfi_offset 14, -4
 2868 0002 0446     		mov	r4, r0
 2869 0004 0D46     		mov	r5, r1
 2870 0006 1746     		mov	r7, r2
 2871 0008 1E46     		mov	r6, r3
1670:Core/Src/SEGGER_RTT.c ****   int r;
 2872              		.loc 1 1670 3 is_stmt 1 view .LVU856
1671:Core/Src/SEGGER_RTT.c ****   volatile SEGGER_RTT_CB* pRTTCB;
 2873              		.loc 1 1671 3 view .LVU857
1672:Core/Src/SEGGER_RTT.c ****   volatile SEGGER_RTT_BUFFER_UP* pUp;
 2874              		.loc 1 1672 3 view .LVU858
 2875              	.LBB32:
1673:Core/Src/SEGGER_RTT.c **** 
1674:Core/Src/SEGGER_RTT.c ****   INIT();
 2876              		.loc 1 1674 3 view .LVU859
 2877              		.loc 1 1674 3 view .LVU860
 2878              	.LVL286:
 2879              		.loc 1 1674 3 view .LVU861
 2880              		.loc 1 1674 3 view .LVU862
 2881 000a 184B     		ldr	r3, .L184
 2882              	.LVL287:
 2883              		.loc 1 1674 3 is_stmt 0 view .LVU863
 2884 000c 1B78     		ldrb	r3, [r3]	@ zero_extendqisi2
 2885 000e 33B3     		cbz	r3, .L183
 2886              	.LVL288:
 2887              	.L178:
 2888              		.loc 1 1674 3 is_stmt 1 discriminator 3 view .LVU864
 2889              	.LBE32:
 2890              		.loc 1 1674 9 discriminator 3 view .LVU865
1675:Core/Src/SEGGER_RTT.c ****   pRTTCB = (volatile SEGGER_RTT_CB*)((unsigned char*)&_SEGGER_RTT + SEGGER_RTT_UNCACHED_OFF);  // A
 2891              		.loc 1 1675 3 view .LVU866
1676:Core/Src/SEGGER_RTT.c ****   if (BufferIndex < SEGGER_RTT_MAX_NUM_UP_BUFFERS) {
 2892              		.loc 1 1676 3 view .LVU867
 2893              		.loc 1 1676 6 is_stmt 0 view .LVU868
 2894 0010 022C     		cmp	r4, #2
 2895 0012 27D8     		bhi	.L181
 2896              	.LBB33:
1677:Core/Src/SEGGER_RTT.c ****     SEGGER_RTT_LOCK();
 2897              		.loc 1 1677 5 is_stmt 1 view .LVU869
 2898              		.loc 1 1677 5 view .LVU870
 2899              		.syntax unified
 2900              	@ 1677 "Core/Src/SEGGER_RTT.c" 1
 2901 0014 EFF3118C 		mrs   ip, basepri  
 2902 0018 4FF02001 		mov   r1, #32       
 2903 001c 81F31188 		msr   basepri, r1  
 2904              		
 2905              	@ 0 "" 2
 2906              	.LVL289:
 2907              		.loc 1 1677 22 view .LVU871
ARM GAS  /var/folders/lp/x54gwt890xv47sdkqj1k04q40000gn/T//ccydrndK.s 			page 86


1678:Core/Src/SEGGER_RTT.c ****     pUp = &pRTTCB->aUp[BufferIndex];
 2908              		.loc 1 1678 5 view .LVU872
1679:Core/Src/SEGGER_RTT.c ****     if (BufferIndex) {
 2909              		.loc 1 1679 5 view .LVU873
 2910              		.loc 1 1679 8 is_stmt 0 view .LVU874
 2911              		.thumb
 2912              		.syntax unified
 2913 0020 94B1     		cbz	r4, .L180
1680:Core/Src/SEGGER_RTT.c ****       pUp->sName        = sName;
 2914              		.loc 1 1680 7 is_stmt 1 view .LVU875
 2915              		.loc 1 1680 25 is_stmt 0 view .LVU876
 2916 0022 124A     		ldr	r2, .L184
 2917 0024 601C     		adds	r0, r4, #1
 2918 0026 00EB4003 		add	r3, r0, r0, lsl #1
 2919 002a DB00     		lsls	r3, r3, #3
 2920 002c D550     		str	r5, [r2, r3]
1681:Core/Src/SEGGER_RTT.c ****       pUp->pBuffer      = (char*)pBuffer;
 2921              		.loc 1 1681 7 is_stmt 1 view .LVU877
 2922              		.loc 1 1681 25 is_stmt 0 view .LVU878
 2923 002e 00EB4000 		add	r0, r0, r0, lsl #1
 2924 0032 02EBC000 		add	r0, r2, r0, lsl #3
 2925 0036 4760     		str	r7, [r0, #4]
1682:Core/Src/SEGGER_RTT.c ****       pUp->SizeOfBuffer = BufferSize;
 2926              		.loc 1 1682 7 is_stmt 1 view .LVU879
 2927              		.loc 1 1682 25 is_stmt 0 view .LVU880
 2928 0038 04EB4403 		add	r3, r4, r4, lsl #1
 2929 003c 02EBC302 		add	r2, r2, r3, lsl #3
 2930 0040 1662     		str	r6, [r2, #32]
1683:Core/Src/SEGGER_RTT.c ****       pUp->RdOff        = 0u;
 2931              		.loc 1 1683 7 is_stmt 1 view .LVU881
 2932              		.loc 1 1683 25 is_stmt 0 view .LVU882
 2933 0042 0023     		movs	r3, #0
 2934 0044 9362     		str	r3, [r2, #40]
1684:Core/Src/SEGGER_RTT.c ****       pUp->WrOff        = 0u;
 2935              		.loc 1 1684 7 is_stmt 1 view .LVU883
 2936              		.loc 1 1684 25 is_stmt 0 view .LVU884
 2937 0046 5362     		str	r3, [r2, #36]
 2938              	.L180:
1685:Core/Src/SEGGER_RTT.c ****     }
1686:Core/Src/SEGGER_RTT.c ****     pUp->Flags          = Flags;
 2939              		.loc 1 1686 5 is_stmt 1 view .LVU885
 2940              		.loc 1 1686 25 is_stmt 0 view .LVU886
 2941 0048 04EB4404 		add	r4, r4, r4, lsl #1
 2942              	.LVL290:
 2943              		.loc 1 1686 25 view .LVU887
 2944 004c 074B     		ldr	r3, .L184
 2945 004e 03EBC403 		add	r3, r3, r4, lsl #3
 2946 0052 069A     		ldr	r2, [sp, #24]
 2947 0054 DA62     		str	r2, [r3, #44]
1687:Core/Src/SEGGER_RTT.c ****     SEGGER_RTT_UNLOCK();
 2948              		.loc 1 1687 5 is_stmt 1 view .LVU888
 2949              		.syntax unified
 2950              	@ 1687 "Core/Src/SEGGER_RTT.c" 1
 2951 0056 8CF31188 		msr   basepri, ip  
 2952              		
 2953              	@ 0 "" 2
 2954              		.thumb
ARM GAS  /var/folders/lp/x54gwt890xv47sdkqj1k04q40000gn/T//ccydrndK.s 			page 87


 2955              		.syntax unified
 2956              	.LBE33:
 2957              		.loc 1 1687 24 view .LVU889
1688:Core/Src/SEGGER_RTT.c ****     r =  0;
 2958              		.loc 1 1688 5 view .LVU890
 2959              	.LVL291:
 2960              		.loc 1 1688 7 is_stmt 0 view .LVU891
 2961 005a 0020     		movs	r0, #0
 2962              	.LVL292:
 2963              	.L177:
1689:Core/Src/SEGGER_RTT.c ****   } else {
1690:Core/Src/SEGGER_RTT.c ****     r = -1;
1691:Core/Src/SEGGER_RTT.c ****   }
1692:Core/Src/SEGGER_RTT.c ****   return r;
1693:Core/Src/SEGGER_RTT.c **** }
 2964              		.loc 1 1693 1 view .LVU892
 2965 005c F8BD     		pop	{r3, r4, r5, r6, r7, pc}
 2966              	.LVL293:
 2967              	.L183:
 2968              	.LBB34:
1674:Core/Src/SEGGER_RTT.c ****   pRTTCB = (volatile SEGGER_RTT_CB*)((unsigned char*)&_SEGGER_RTT + SEGGER_RTT_UNCACHED_OFF);  // A
 2969              		.loc 1 1674 3 is_stmt 1 discriminator 1 view .LVU893
 2970 005e FFF7FEFF 		bl	_DoInit
 2971              	.LVL294:
1674:Core/Src/SEGGER_RTT.c ****   pRTTCB = (volatile SEGGER_RTT_CB*)((unsigned char*)&_SEGGER_RTT + SEGGER_RTT_UNCACHED_OFF);  // A
 2972              		.loc 1 1674 3 is_stmt 0 discriminator 1 view .LVU894
 2973 0062 D5E7     		b	.L178
 2974              	.LVL295:
 2975              	.L181:
1674:Core/Src/SEGGER_RTT.c ****   pRTTCB = (volatile SEGGER_RTT_CB*)((unsigned char*)&_SEGGER_RTT + SEGGER_RTT_UNCACHED_OFF);  // A
 2976              		.loc 1 1674 3 discriminator 1 view .LVU895
 2977              	.LBE34:
1690:Core/Src/SEGGER_RTT.c ****   }
 2978              		.loc 1 1690 7 view .LVU896
 2979 0064 4FF0FF30 		mov	r0, #-1
 2980              	.LVL296:
1692:Core/Src/SEGGER_RTT.c **** }
 2981              		.loc 1 1692 3 is_stmt 1 view .LVU897
1692:Core/Src/SEGGER_RTT.c **** }
 2982              		.loc 1 1692 10 is_stmt 0 view .LVU898
 2983 0068 F8E7     		b	.L177
 2984              	.L185:
 2985 006a 00BF     		.align	2
 2986              	.L184:
 2987 006c 00000000 		.word	_SEGGER_RTT
 2988              		.cfi_endproc
 2989              	.LFE25:
 2991              		.section	.text.SEGGER_RTT_ConfigDownBuffer,"ax",%progbits
 2992              		.align	1
 2993              		.global	SEGGER_RTT_ConfigDownBuffer
 2994              		.syntax unified
 2995              		.thumb
 2996              		.thumb_func
 2998              	SEGGER_RTT_ConfigDownBuffer:
 2999              	.LVL297:
 3000              	.LFB26:
1694:Core/Src/SEGGER_RTT.c **** 
ARM GAS  /var/folders/lp/x54gwt890xv47sdkqj1k04q40000gn/T//ccydrndK.s 			page 88


1695:Core/Src/SEGGER_RTT.c **** /*********************************************************************
1696:Core/Src/SEGGER_RTT.c **** *
1697:Core/Src/SEGGER_RTT.c **** *       SEGGER_RTT_ConfigDownBuffer
1698:Core/Src/SEGGER_RTT.c **** *
1699:Core/Src/SEGGER_RTT.c **** *  Function description
1700:Core/Src/SEGGER_RTT.c **** *    Run-time configuration of a specific down-buffer (H->T).
1701:Core/Src/SEGGER_RTT.c **** *    Buffer to be configured is specified by index.
1702:Core/Src/SEGGER_RTT.c **** *    This includes: Buffer address, size, name, flags, ...
1703:Core/Src/SEGGER_RTT.c **** *
1704:Core/Src/SEGGER_RTT.c **** *  Parameters
1705:Core/Src/SEGGER_RTT.c **** *    BufferIndex  Index of the buffer to configure.
1706:Core/Src/SEGGER_RTT.c **** *    sName        Pointer to a constant name string.
1707:Core/Src/SEGGER_RTT.c **** *    pBuffer      Pointer to a buffer to be used.
1708:Core/Src/SEGGER_RTT.c **** *    BufferSize   Size of the buffer.
1709:Core/Src/SEGGER_RTT.c **** *    Flags        Operating modes. Define behavior if buffer is full (not enough space for entire m
1710:Core/Src/SEGGER_RTT.c **** *                 Flags[31:24] are used for validity check and must be zero. Flags[23:2] are reserv
1711:Core/Src/SEGGER_RTT.c **** *
1712:Core/Src/SEGGER_RTT.c **** *  Return value
1713:Core/Src/SEGGER_RTT.c **** *    >= 0  O.K.
1714:Core/Src/SEGGER_RTT.c **** *     < 0  Error
1715:Core/Src/SEGGER_RTT.c **** *
1716:Core/Src/SEGGER_RTT.c **** *  Additional information
1717:Core/Src/SEGGER_RTT.c **** *    Buffer 0 is configured on compile-time.
1718:Core/Src/SEGGER_RTT.c **** *    May only be called once per buffer.
1719:Core/Src/SEGGER_RTT.c **** *    Buffer name and flags can be reconfigured using the appropriate functions.
1720:Core/Src/SEGGER_RTT.c **** */
1721:Core/Src/SEGGER_RTT.c **** int SEGGER_RTT_ConfigDownBuffer(unsigned BufferIndex, const char* sName, void* pBuffer, unsigned Bu
 3001              		.loc 1 1721 126 is_stmt 1 view -0
 3002              		.cfi_startproc
 3003              		@ args = 4, pretend = 0, frame = 0
 3004              		@ frame_needed = 0, uses_anonymous_args = 0
 3005              		.loc 1 1721 126 is_stmt 0 view .LVU900
 3006 0000 2DE9F041 		push	{r4, r5, r6, r7, r8, lr}
 3007              		.cfi_def_cfa_offset 24
 3008              		.cfi_offset 4, -24
 3009              		.cfi_offset 5, -20
 3010              		.cfi_offset 6, -16
 3011              		.cfi_offset 7, -12
 3012              		.cfi_offset 8, -8
 3013              		.cfi_offset 14, -4
 3014 0004 0446     		mov	r4, r0
 3015 0006 8846     		mov	r8, r1
 3016 0008 1746     		mov	r7, r2
 3017 000a 1E46     		mov	r6, r3
1722:Core/Src/SEGGER_RTT.c ****   int r;
 3018              		.loc 1 1722 3 is_stmt 1 view .LVU901
1723:Core/Src/SEGGER_RTT.c ****   volatile SEGGER_RTT_CB* pRTTCB;
 3019              		.loc 1 1723 3 view .LVU902
1724:Core/Src/SEGGER_RTT.c ****   volatile SEGGER_RTT_BUFFER_DOWN* pDown;
 3020              		.loc 1 1724 3 view .LVU903
 3021              	.LBB35:
1725:Core/Src/SEGGER_RTT.c **** 
1726:Core/Src/SEGGER_RTT.c ****   INIT();
 3022              		.loc 1 1726 3 view .LVU904
 3023              		.loc 1 1726 3 view .LVU905
 3024              	.LVL298:
 3025              		.loc 1 1726 3 view .LVU906
ARM GAS  /var/folders/lp/x54gwt890xv47sdkqj1k04q40000gn/T//ccydrndK.s 			page 89


 3026              		.loc 1 1726 3 view .LVU907
 3027 000c 174B     		ldr	r3, .L193
 3028              	.LVL299:
 3029              		.loc 1 1726 3 is_stmt 0 view .LVU908
 3030 000e 1B78     		ldrb	r3, [r3]	@ zero_extendqisi2
 3031 0010 33B3     		cbz	r3, .L192
 3032              	.LVL300:
 3033              	.L187:
 3034              		.loc 1 1726 3 is_stmt 1 discriminator 3 view .LVU909
 3035              	.LBE35:
 3036              		.loc 1 1726 9 discriminator 3 view .LVU910
1727:Core/Src/SEGGER_RTT.c ****   pRTTCB = (volatile SEGGER_RTT_CB*)((unsigned char*)&_SEGGER_RTT + SEGGER_RTT_UNCACHED_OFF);  // A
 3037              		.loc 1 1727 3 view .LVU911
1728:Core/Src/SEGGER_RTT.c ****   if (BufferIndex < SEGGER_RTT_MAX_NUM_DOWN_BUFFERS) {
 3038              		.loc 1 1728 3 view .LVU912
 3039              		.loc 1 1728 6 is_stmt 0 view .LVU913
 3040 0012 022C     		cmp	r4, #2
 3041 0014 27D8     		bhi	.L190
 3042              	.LBB36:
1729:Core/Src/SEGGER_RTT.c ****     SEGGER_RTT_LOCK();
 3043              		.loc 1 1729 5 is_stmt 1 view .LVU914
 3044              		.loc 1 1729 5 view .LVU915
 3045              		.syntax unified
 3046              	@ 1729 "Core/Src/SEGGER_RTT.c" 1
 3047 0016 EFF31180 		mrs   r0, basepri  
 3048 001a 4FF02001 		mov   r1, #32       
 3049 001e 81F31188 		msr   basepri, r1  
 3050              		
 3051              	@ 0 "" 2
 3052              	.LVL301:
 3053              		.loc 1 1729 22 view .LVU916
1730:Core/Src/SEGGER_RTT.c ****     pDown = &pRTTCB->aDown[BufferIndex];
 3054              		.loc 1 1730 5 view .LVU917
1731:Core/Src/SEGGER_RTT.c ****     if (BufferIndex) {
 3055              		.loc 1 1731 5 view .LVU918
 3056              		.loc 1 1731 8 is_stmt 0 view .LVU919
 3057              		.thumb
 3058              		.syntax unified
 3059 0022 7CB1     		cbz	r4, .L189
1732:Core/Src/SEGGER_RTT.c ****       pDown->sName        = sName;
 3060              		.loc 1 1732 7 is_stmt 1 view .LVU920
 3061              		.loc 1 1732 27 is_stmt 0 view .LVU921
 3062 0024 04EB4403 		add	r3, r4, r4, lsl #1
 3063 0028 104D     		ldr	r5, .L193
 3064 002a 05EBC30C 		add	ip, r5, r3, lsl #3
 3065 002e CCF86080 		str	r8, [ip, #96]
1733:Core/Src/SEGGER_RTT.c ****       pDown->pBuffer      = (char*)pBuffer;
 3066              		.loc 1 1733 7 is_stmt 1 view .LVU922
 3067              		.loc 1 1733 27 is_stmt 0 view .LVU923
 3068 0032 CCF86470 		str	r7, [ip, #100]
1734:Core/Src/SEGGER_RTT.c ****       pDown->SizeOfBuffer = BufferSize;
 3069              		.loc 1 1734 7 is_stmt 1 view .LVU924
 3070              		.loc 1 1734 27 is_stmt 0 view .LVU925
 3071 0036 CCF86860 		str	r6, [ip, #104]
1735:Core/Src/SEGGER_RTT.c ****       pDown->RdOff        = 0u;
 3072              		.loc 1 1735 7 is_stmt 1 view .LVU926
 3073              		.loc 1 1735 27 is_stmt 0 view .LVU927
ARM GAS  /var/folders/lp/x54gwt890xv47sdkqj1k04q40000gn/T//ccydrndK.s 			page 90


 3074 003a 0023     		movs	r3, #0
 3075 003c CCF87030 		str	r3, [ip, #112]
1736:Core/Src/SEGGER_RTT.c ****       pDown->WrOff        = 0u;
 3076              		.loc 1 1736 7 is_stmt 1 view .LVU928
 3077              		.loc 1 1736 27 is_stmt 0 view .LVU929
 3078 0040 CCF86C30 		str	r3, [ip, #108]
 3079              	.L189:
1737:Core/Src/SEGGER_RTT.c ****     }
1738:Core/Src/SEGGER_RTT.c ****     pDown->Flags          = Flags;
 3080              		.loc 1 1738 5 is_stmt 1 view .LVU930
 3081              		.loc 1 1738 27 is_stmt 0 view .LVU931
 3082 0044 04EB4404 		add	r4, r4, r4, lsl #1
 3083              	.LVL302:
 3084              		.loc 1 1738 27 view .LVU932
 3085 0048 084B     		ldr	r3, .L193
 3086 004a 03EBC403 		add	r3, r3, r4, lsl #3
 3087 004e 069A     		ldr	r2, [sp, #24]
 3088 0050 5A67     		str	r2, [r3, #116]
1739:Core/Src/SEGGER_RTT.c ****     RTT__DMB();                     // Force data write to be complete before writing the <WrOff>, 
 3089              		.loc 1 1739 5 is_stmt 1 view .LVU933
 3090              		.syntax unified
 3091              	@ 1739 "Core/Src/SEGGER_RTT.c" 1
 3092 0052 BFF35F8F 		dmb
 3093              	
 3094              	@ 0 "" 2
 3095              		.loc 1 1739 15 view .LVU934
1740:Core/Src/SEGGER_RTT.c ****     SEGGER_RTT_UNLOCK();
 3096              		.loc 1 1740 5 view .LVU935
 3097              	@ 1740 "Core/Src/SEGGER_RTT.c" 1
 3098 0056 80F31188 		msr   basepri, r0  
 3099              		
 3100              	@ 0 "" 2
 3101              		.thumb
 3102              		.syntax unified
 3103              	.LBE36:
 3104              		.loc 1 1740 24 view .LVU936
1741:Core/Src/SEGGER_RTT.c ****     r =  0;
 3105              		.loc 1 1741 5 view .LVU937
 3106              	.LVL303:
 3107              		.loc 1 1741 7 is_stmt 0 view .LVU938
 3108 005a 0020     		movs	r0, #0
 3109              	.LVL304:
 3110              	.L186:
1742:Core/Src/SEGGER_RTT.c ****   } else {
1743:Core/Src/SEGGER_RTT.c ****     r = -1;
1744:Core/Src/SEGGER_RTT.c ****   }
1745:Core/Src/SEGGER_RTT.c ****   return r;
1746:Core/Src/SEGGER_RTT.c **** }
 3111              		.loc 1 1746 1 view .LVU939
 3112 005c BDE8F081 		pop	{r4, r5, r6, r7, r8, pc}
 3113              	.LVL305:
 3114              	.L192:
 3115              	.LBB37:
1726:Core/Src/SEGGER_RTT.c ****   pRTTCB = (volatile SEGGER_RTT_CB*)((unsigned char*)&_SEGGER_RTT + SEGGER_RTT_UNCACHED_OFF);  // A
 3116              		.loc 1 1726 3 is_stmt 1 discriminator 1 view .LVU940
 3117 0060 FFF7FEFF 		bl	_DoInit
 3118              	.LVL306:
ARM GAS  /var/folders/lp/x54gwt890xv47sdkqj1k04q40000gn/T//ccydrndK.s 			page 91


1726:Core/Src/SEGGER_RTT.c ****   pRTTCB = (volatile SEGGER_RTT_CB*)((unsigned char*)&_SEGGER_RTT + SEGGER_RTT_UNCACHED_OFF);  // A
 3119              		.loc 1 1726 3 is_stmt 0 discriminator 1 view .LVU941
 3120 0064 D5E7     		b	.L187
 3121              	.LVL307:
 3122              	.L190:
1726:Core/Src/SEGGER_RTT.c ****   pRTTCB = (volatile SEGGER_RTT_CB*)((unsigned char*)&_SEGGER_RTT + SEGGER_RTT_UNCACHED_OFF);  // A
 3123              		.loc 1 1726 3 discriminator 1 view .LVU942
 3124              	.LBE37:
1743:Core/Src/SEGGER_RTT.c ****   }
 3125              		.loc 1 1743 7 view .LVU943
 3126 0066 4FF0FF30 		mov	r0, #-1
 3127              	.LVL308:
1745:Core/Src/SEGGER_RTT.c **** }
 3128              		.loc 1 1745 3 is_stmt 1 view .LVU944
1745:Core/Src/SEGGER_RTT.c **** }
 3129              		.loc 1 1745 10 is_stmt 0 view .LVU945
 3130 006a F7E7     		b	.L186
 3131              	.L194:
 3132              		.align	2
 3133              	.L193:
 3134 006c 00000000 		.word	_SEGGER_RTT
 3135              		.cfi_endproc
 3136              	.LFE26:
 3138              		.section	.text.SEGGER_RTT_SetNameUpBuffer,"ax",%progbits
 3139              		.align	1
 3140              		.global	SEGGER_RTT_SetNameUpBuffer
 3141              		.syntax unified
 3142              		.thumb
 3143              		.thumb_func
 3145              	SEGGER_RTT_SetNameUpBuffer:
 3146              	.LVL309:
 3147              	.LFB27:
1747:Core/Src/SEGGER_RTT.c **** 
1748:Core/Src/SEGGER_RTT.c **** /*********************************************************************
1749:Core/Src/SEGGER_RTT.c **** *
1750:Core/Src/SEGGER_RTT.c **** *       SEGGER_RTT_SetNameUpBuffer
1751:Core/Src/SEGGER_RTT.c **** *
1752:Core/Src/SEGGER_RTT.c **** *  Function description
1753:Core/Src/SEGGER_RTT.c **** *    Run-time configuration of a specific up-buffer name (T->H).
1754:Core/Src/SEGGER_RTT.c **** *    Buffer to be configured is specified by index.
1755:Core/Src/SEGGER_RTT.c **** *
1756:Core/Src/SEGGER_RTT.c **** *  Parameters
1757:Core/Src/SEGGER_RTT.c **** *    BufferIndex  Index of the buffer to renamed.
1758:Core/Src/SEGGER_RTT.c **** *    sName        Pointer to a constant name string.
1759:Core/Src/SEGGER_RTT.c **** *
1760:Core/Src/SEGGER_RTT.c **** *  Return value
1761:Core/Src/SEGGER_RTT.c **** *    >= 0  O.K.
1762:Core/Src/SEGGER_RTT.c **** *     < 0  Error
1763:Core/Src/SEGGER_RTT.c **** */
1764:Core/Src/SEGGER_RTT.c **** int SEGGER_RTT_SetNameUpBuffer(unsigned BufferIndex, const char* sName) {
 3148              		.loc 1 1764 73 is_stmt 1 view -0
 3149              		.cfi_startproc
 3150              		@ args = 0, pretend = 0, frame = 0
 3151              		@ frame_needed = 0, uses_anonymous_args = 0
 3152              		.loc 1 1764 73 is_stmt 0 view .LVU947
 3153 0000 38B5     		push	{r3, r4, r5, lr}
 3154              		.cfi_def_cfa_offset 16
ARM GAS  /var/folders/lp/x54gwt890xv47sdkqj1k04q40000gn/T//ccydrndK.s 			page 92


 3155              		.cfi_offset 3, -16
 3156              		.cfi_offset 4, -12
 3157              		.cfi_offset 5, -8
 3158              		.cfi_offset 14, -4
 3159 0002 0446     		mov	r4, r0
 3160 0004 0D46     		mov	r5, r1
1765:Core/Src/SEGGER_RTT.c ****   int r;
 3161              		.loc 1 1765 3 is_stmt 1 view .LVU948
1766:Core/Src/SEGGER_RTT.c ****   volatile SEGGER_RTT_CB* pRTTCB;
 3162              		.loc 1 1766 3 view .LVU949
1767:Core/Src/SEGGER_RTT.c ****   volatile SEGGER_RTT_BUFFER_UP* pUp;
 3163              		.loc 1 1767 3 view .LVU950
 3164              	.LBB38:
1768:Core/Src/SEGGER_RTT.c **** 
1769:Core/Src/SEGGER_RTT.c ****   INIT();
 3165              		.loc 1 1769 3 view .LVU951
 3166              		.loc 1 1769 3 view .LVU952
 3167              	.LVL310:
 3168              		.loc 1 1769 3 view .LVU953
 3169              		.loc 1 1769 3 view .LVU954
 3170 0006 0D4B     		ldr	r3, .L201
 3171 0008 1B78     		ldrb	r3, [r3]	@ zero_extendqisi2
 3172 000a 8BB1     		cbz	r3, .L200
 3173              	.LVL311:
 3174              	.L196:
 3175              		.loc 1 1769 3 discriminator 3 view .LVU955
 3176              	.LBE38:
 3177              		.loc 1 1769 9 discriminator 3 view .LVU956
1770:Core/Src/SEGGER_RTT.c ****   pRTTCB = (volatile SEGGER_RTT_CB*)((unsigned char*)&_SEGGER_RTT + SEGGER_RTT_UNCACHED_OFF);  // A
 3178              		.loc 1 1770 3 view .LVU957
1771:Core/Src/SEGGER_RTT.c ****   if (BufferIndex < SEGGER_RTT_MAX_NUM_UP_BUFFERS) {
 3179              		.loc 1 1771 3 view .LVU958
 3180              		.loc 1 1771 6 is_stmt 0 view .LVU959
 3181 000c 022C     		cmp	r4, #2
 3182 000e 12D8     		bhi	.L198
 3183              	.LBB39:
1772:Core/Src/SEGGER_RTT.c ****     SEGGER_RTT_LOCK();
 3184              		.loc 1 1772 5 is_stmt 1 view .LVU960
 3185              		.loc 1 1772 5 view .LVU961
 3186              		.syntax unified
 3187              	@ 1772 "Core/Src/SEGGER_RTT.c" 1
 3188 0010 EFF31183 		mrs   r3, basepri  
 3189 0014 4FF02001 		mov   r1, #32       
 3190 0018 81F31188 		msr   basepri, r1  
 3191              		
 3192              	@ 0 "" 2
 3193              	.LVL312:
 3194              		.loc 1 1772 22 view .LVU962
1773:Core/Src/SEGGER_RTT.c ****     pUp = &pRTTCB->aUp[BufferIndex];
 3195              		.loc 1 1773 5 view .LVU963
1774:Core/Src/SEGGER_RTT.c ****     pUp->sName = sName;
 3196              		.loc 1 1774 5 view .LVU964
 3197              		.loc 1 1774 16 is_stmt 0 view .LVU965
 3198              		.thumb
 3199              		.syntax unified
 3200 001c 0134     		adds	r4, r4, #1
 3201              	.LVL313:
ARM GAS  /var/folders/lp/x54gwt890xv47sdkqj1k04q40000gn/T//ccydrndK.s 			page 93


 3202              		.loc 1 1774 16 view .LVU966
 3203 001e 04EB4404 		add	r4, r4, r4, lsl #1
 3204              	.LVL314:
 3205              		.loc 1 1774 16 view .LVU967
 3206 0022 E400     		lsls	r4, r4, #3
 3207 0024 054A     		ldr	r2, .L201
 3208 0026 1551     		str	r5, [r2, r4]
1775:Core/Src/SEGGER_RTT.c ****     SEGGER_RTT_UNLOCK();
 3209              		.loc 1 1775 5 is_stmt 1 view .LVU968
 3210              		.syntax unified
 3211              	@ 1775 "Core/Src/SEGGER_RTT.c" 1
 3212 0028 83F31188 		msr   basepri, r3  
 3213              		
 3214              	@ 0 "" 2
 3215              		.thumb
 3216              		.syntax unified
 3217              	.LBE39:
 3218              		.loc 1 1775 24 view .LVU969
1776:Core/Src/SEGGER_RTT.c ****     r =  0;
 3219              		.loc 1 1776 5 view .LVU970
 3220              	.LVL315:
 3221              		.loc 1 1776 7 is_stmt 0 view .LVU971
 3222 002c 0020     		movs	r0, #0
 3223              	.LVL316:
 3224              	.L195:
1777:Core/Src/SEGGER_RTT.c ****   } else {
1778:Core/Src/SEGGER_RTT.c ****     r = -1;
1779:Core/Src/SEGGER_RTT.c ****   }
1780:Core/Src/SEGGER_RTT.c ****   return r;
1781:Core/Src/SEGGER_RTT.c **** }
 3225              		.loc 1 1781 1 view .LVU972
 3226 002e 38BD     		pop	{r3, r4, r5, pc}
 3227              	.LVL317:
 3228              	.L200:
 3229              	.LBB40:
1769:Core/Src/SEGGER_RTT.c ****   pRTTCB = (volatile SEGGER_RTT_CB*)((unsigned char*)&_SEGGER_RTT + SEGGER_RTT_UNCACHED_OFF);  // A
 3230              		.loc 1 1769 3 is_stmt 1 discriminator 1 view .LVU973
 3231 0030 FFF7FEFF 		bl	_DoInit
 3232              	.LVL318:
1769:Core/Src/SEGGER_RTT.c ****   pRTTCB = (volatile SEGGER_RTT_CB*)((unsigned char*)&_SEGGER_RTT + SEGGER_RTT_UNCACHED_OFF);  // A
 3233              		.loc 1 1769 3 is_stmt 0 discriminator 1 view .LVU974
 3234 0034 EAE7     		b	.L196
 3235              	.LVL319:
 3236              	.L198:
1769:Core/Src/SEGGER_RTT.c ****   pRTTCB = (volatile SEGGER_RTT_CB*)((unsigned char*)&_SEGGER_RTT + SEGGER_RTT_UNCACHED_OFF);  // A
 3237              		.loc 1 1769 3 discriminator 1 view .LVU975
 3238              	.LBE40:
1778:Core/Src/SEGGER_RTT.c ****   }
 3239              		.loc 1 1778 7 view .LVU976
 3240 0036 4FF0FF30 		mov	r0, #-1
 3241              	.LVL320:
1780:Core/Src/SEGGER_RTT.c **** }
 3242              		.loc 1 1780 3 is_stmt 1 view .LVU977
1780:Core/Src/SEGGER_RTT.c **** }
 3243              		.loc 1 1780 10 is_stmt 0 view .LVU978
 3244 003a F8E7     		b	.L195
 3245              	.L202:
ARM GAS  /var/folders/lp/x54gwt890xv47sdkqj1k04q40000gn/T//ccydrndK.s 			page 94


 3246              		.align	2
 3247              	.L201:
 3248 003c 00000000 		.word	_SEGGER_RTT
 3249              		.cfi_endproc
 3250              	.LFE27:
 3252              		.section	.text.SEGGER_RTT_SetNameDownBuffer,"ax",%progbits
 3253              		.align	1
 3254              		.global	SEGGER_RTT_SetNameDownBuffer
 3255              		.syntax unified
 3256              		.thumb
 3257              		.thumb_func
 3259              	SEGGER_RTT_SetNameDownBuffer:
 3260              	.LVL321:
 3261              	.LFB28:
1782:Core/Src/SEGGER_RTT.c **** 
1783:Core/Src/SEGGER_RTT.c **** /*********************************************************************
1784:Core/Src/SEGGER_RTT.c **** *
1785:Core/Src/SEGGER_RTT.c **** *       SEGGER_RTT_SetNameDownBuffer
1786:Core/Src/SEGGER_RTT.c **** *
1787:Core/Src/SEGGER_RTT.c **** *  Function description
1788:Core/Src/SEGGER_RTT.c **** *    Run-time configuration of a specific Down-buffer name (T->H).
1789:Core/Src/SEGGER_RTT.c **** *    Buffer to be configured is specified by index.
1790:Core/Src/SEGGER_RTT.c **** *
1791:Core/Src/SEGGER_RTT.c **** *  Parameters
1792:Core/Src/SEGGER_RTT.c **** *    BufferIndex  Index of the buffer to renamed.
1793:Core/Src/SEGGER_RTT.c **** *    sName        Pointer to a constant name string.
1794:Core/Src/SEGGER_RTT.c **** *
1795:Core/Src/SEGGER_RTT.c **** *  Return value
1796:Core/Src/SEGGER_RTT.c **** *    >= 0  O.K.
1797:Core/Src/SEGGER_RTT.c **** *     < 0  Error
1798:Core/Src/SEGGER_RTT.c **** */
1799:Core/Src/SEGGER_RTT.c **** int SEGGER_RTT_SetNameDownBuffer(unsigned BufferIndex, const char* sName) {
 3262              		.loc 1 1799 75 is_stmt 1 view -0
 3263              		.cfi_startproc
 3264              		@ args = 0, pretend = 0, frame = 0
 3265              		@ frame_needed = 0, uses_anonymous_args = 0
 3266              		.loc 1 1799 75 is_stmt 0 view .LVU980
 3267 0000 38B5     		push	{r3, r4, r5, lr}
 3268              		.cfi_def_cfa_offset 16
 3269              		.cfi_offset 3, -16
 3270              		.cfi_offset 4, -12
 3271              		.cfi_offset 5, -8
 3272              		.cfi_offset 14, -4
 3273 0002 0446     		mov	r4, r0
 3274 0004 0D46     		mov	r5, r1
1800:Core/Src/SEGGER_RTT.c ****   int r;
 3275              		.loc 1 1800 3 is_stmt 1 view .LVU981
1801:Core/Src/SEGGER_RTT.c ****   volatile SEGGER_RTT_CB* pRTTCB;
 3276              		.loc 1 1801 3 view .LVU982
1802:Core/Src/SEGGER_RTT.c ****   volatile SEGGER_RTT_BUFFER_DOWN* pDown;
 3277              		.loc 1 1802 3 view .LVU983
 3278              	.LBB41:
1803:Core/Src/SEGGER_RTT.c **** 
1804:Core/Src/SEGGER_RTT.c ****   INIT();
 3279              		.loc 1 1804 3 view .LVU984
 3280              		.loc 1 1804 3 view .LVU985
 3281              	.LVL322:
ARM GAS  /var/folders/lp/x54gwt890xv47sdkqj1k04q40000gn/T//ccydrndK.s 			page 95


 3282              		.loc 1 1804 3 view .LVU986
 3283              		.loc 1 1804 3 view .LVU987
 3284 0006 0D4B     		ldr	r3, .L209
 3285 0008 1B78     		ldrb	r3, [r3]	@ zero_extendqisi2
 3286 000a 8BB1     		cbz	r3, .L208
 3287              	.LVL323:
 3288              	.L204:
 3289              		.loc 1 1804 3 discriminator 3 view .LVU988
 3290              	.LBE41:
 3291              		.loc 1 1804 9 discriminator 3 view .LVU989
1805:Core/Src/SEGGER_RTT.c ****   pRTTCB = (volatile SEGGER_RTT_CB*)((unsigned char*)&_SEGGER_RTT + SEGGER_RTT_UNCACHED_OFF);  // A
 3292              		.loc 1 1805 3 view .LVU990
1806:Core/Src/SEGGER_RTT.c ****   if (BufferIndex < SEGGER_RTT_MAX_NUM_DOWN_BUFFERS) {
 3293              		.loc 1 1806 3 view .LVU991
 3294              		.loc 1 1806 6 is_stmt 0 view .LVU992
 3295 000c 022C     		cmp	r4, #2
 3296 000e 12D8     		bhi	.L206
 3297              	.LBB42:
1807:Core/Src/SEGGER_RTT.c ****     SEGGER_RTT_LOCK();
 3298              		.loc 1 1807 5 is_stmt 1 view .LVU993
 3299              		.loc 1 1807 5 view .LVU994
 3300              		.syntax unified
 3301              	@ 1807 "Core/Src/SEGGER_RTT.c" 1
 3302 0010 EFF31182 		mrs   r2, basepri  
 3303 0014 4FF02001 		mov   r1, #32       
 3304 0018 81F31188 		msr   basepri, r1  
 3305              		
 3306              	@ 0 "" 2
 3307              	.LVL324:
 3308              		.loc 1 1807 22 view .LVU995
1808:Core/Src/SEGGER_RTT.c ****     pDown = &pRTTCB->aDown[BufferIndex];
 3309              		.loc 1 1808 5 view .LVU996
1809:Core/Src/SEGGER_RTT.c ****     pDown->sName = sName;
 3310              		.loc 1 1809 5 view .LVU997
 3311              		.loc 1 1809 18 is_stmt 0 view .LVU998
 3312              		.thumb
 3313              		.syntax unified
 3314 001c 04EB4404 		add	r4, r4, r4, lsl #1
 3315              	.LVL325:
 3316              		.loc 1 1809 18 view .LVU999
 3317 0020 064B     		ldr	r3, .L209
 3318 0022 03EBC403 		add	r3, r3, r4, lsl #3
 3319 0026 1D66     		str	r5, [r3, #96]
1810:Core/Src/SEGGER_RTT.c ****     SEGGER_RTT_UNLOCK();
 3320              		.loc 1 1810 5 is_stmt 1 view .LVU1000
 3321              		.syntax unified
 3322              	@ 1810 "Core/Src/SEGGER_RTT.c" 1
 3323 0028 82F31188 		msr   basepri, r2  
 3324              		
 3325              	@ 0 "" 2
 3326              		.thumb
 3327              		.syntax unified
 3328              	.LBE42:
 3329              		.loc 1 1810 24 view .LVU1001
1811:Core/Src/SEGGER_RTT.c ****     r =  0;
 3330              		.loc 1 1811 5 view .LVU1002
 3331              	.LVL326:
ARM GAS  /var/folders/lp/x54gwt890xv47sdkqj1k04q40000gn/T//ccydrndK.s 			page 96


 3332              		.loc 1 1811 7 is_stmt 0 view .LVU1003
 3333 002c 0020     		movs	r0, #0
 3334              	.LVL327:
 3335              	.L203:
1812:Core/Src/SEGGER_RTT.c ****   } else {
1813:Core/Src/SEGGER_RTT.c ****     r = -1;
1814:Core/Src/SEGGER_RTT.c ****   }
1815:Core/Src/SEGGER_RTT.c ****   return r;
1816:Core/Src/SEGGER_RTT.c **** }
 3336              		.loc 1 1816 1 view .LVU1004
 3337 002e 38BD     		pop	{r3, r4, r5, pc}
 3338              	.LVL328:
 3339              	.L208:
 3340              	.LBB43:
1804:Core/Src/SEGGER_RTT.c ****   pRTTCB = (volatile SEGGER_RTT_CB*)((unsigned char*)&_SEGGER_RTT + SEGGER_RTT_UNCACHED_OFF);  // A
 3341              		.loc 1 1804 3 is_stmt 1 discriminator 1 view .LVU1005
 3342 0030 FFF7FEFF 		bl	_DoInit
 3343              	.LVL329:
1804:Core/Src/SEGGER_RTT.c ****   pRTTCB = (volatile SEGGER_RTT_CB*)((unsigned char*)&_SEGGER_RTT + SEGGER_RTT_UNCACHED_OFF);  // A
 3344              		.loc 1 1804 3 is_stmt 0 discriminator 1 view .LVU1006
 3345 0034 EAE7     		b	.L204
 3346              	.LVL330:
 3347              	.L206:
1804:Core/Src/SEGGER_RTT.c ****   pRTTCB = (volatile SEGGER_RTT_CB*)((unsigned char*)&_SEGGER_RTT + SEGGER_RTT_UNCACHED_OFF);  // A
 3348              		.loc 1 1804 3 discriminator 1 view .LVU1007
 3349              	.LBE43:
1813:Core/Src/SEGGER_RTT.c ****   }
 3350              		.loc 1 1813 7 view .LVU1008
 3351 0036 4FF0FF30 		mov	r0, #-1
 3352              	.LVL331:
1815:Core/Src/SEGGER_RTT.c **** }
 3353              		.loc 1 1815 3 is_stmt 1 view .LVU1009
1815:Core/Src/SEGGER_RTT.c **** }
 3354              		.loc 1 1815 10 is_stmt 0 view .LVU1010
 3355 003a F8E7     		b	.L203
 3356              	.L210:
 3357              		.align	2
 3358              	.L209:
 3359 003c 00000000 		.word	_SEGGER_RTT
 3360              		.cfi_endproc
 3361              	.LFE28:
 3363              		.section	.text.SEGGER_RTT_SetFlagsUpBuffer,"ax",%progbits
 3364              		.align	1
 3365              		.global	SEGGER_RTT_SetFlagsUpBuffer
 3366              		.syntax unified
 3367              		.thumb
 3368              		.thumb_func
 3370              	SEGGER_RTT_SetFlagsUpBuffer:
 3371              	.LVL332:
 3372              	.LFB29:
1817:Core/Src/SEGGER_RTT.c **** 
1818:Core/Src/SEGGER_RTT.c **** /*********************************************************************
1819:Core/Src/SEGGER_RTT.c **** *
1820:Core/Src/SEGGER_RTT.c **** *       SEGGER_RTT_SetFlagsUpBuffer
1821:Core/Src/SEGGER_RTT.c **** *
1822:Core/Src/SEGGER_RTT.c **** *  Function description
1823:Core/Src/SEGGER_RTT.c **** *    Run-time configuration of specific up-buffer flags (T->H).
ARM GAS  /var/folders/lp/x54gwt890xv47sdkqj1k04q40000gn/T//ccydrndK.s 			page 97


1824:Core/Src/SEGGER_RTT.c **** *    Buffer to be configured is specified by index.
1825:Core/Src/SEGGER_RTT.c **** *
1826:Core/Src/SEGGER_RTT.c **** *  Parameters
1827:Core/Src/SEGGER_RTT.c **** *    BufferIndex  Index of the buffer.
1828:Core/Src/SEGGER_RTT.c **** *    Flags        Flags to set for the buffer.
1829:Core/Src/SEGGER_RTT.c **** *                 Flags[31:24] are used for validity check and must be zero. Flags[23:2] are reserv
1830:Core/Src/SEGGER_RTT.c **** *
1831:Core/Src/SEGGER_RTT.c **** *  Return value
1832:Core/Src/SEGGER_RTT.c **** *    >= 0  O.K.
1833:Core/Src/SEGGER_RTT.c **** *     < 0  Error
1834:Core/Src/SEGGER_RTT.c **** */
1835:Core/Src/SEGGER_RTT.c **** int SEGGER_RTT_SetFlagsUpBuffer(unsigned BufferIndex, unsigned Flags) {
 3373              		.loc 1 1835 71 is_stmt 1 view -0
 3374              		.cfi_startproc
 3375              		@ args = 0, pretend = 0, frame = 0
 3376              		@ frame_needed = 0, uses_anonymous_args = 0
 3377              		.loc 1 1835 71 is_stmt 0 view .LVU1012
 3378 0000 38B5     		push	{r3, r4, r5, lr}
 3379              		.cfi_def_cfa_offset 16
 3380              		.cfi_offset 3, -16
 3381              		.cfi_offset 4, -12
 3382              		.cfi_offset 5, -8
 3383              		.cfi_offset 14, -4
 3384 0002 0446     		mov	r4, r0
 3385 0004 0D46     		mov	r5, r1
1836:Core/Src/SEGGER_RTT.c ****   int r;
 3386              		.loc 1 1836 3 is_stmt 1 view .LVU1013
1837:Core/Src/SEGGER_RTT.c ****   volatile SEGGER_RTT_CB* pRTTCB;
 3387              		.loc 1 1837 3 view .LVU1014
1838:Core/Src/SEGGER_RTT.c ****   volatile SEGGER_RTT_BUFFER_UP* pUp;
 3388              		.loc 1 1838 3 view .LVU1015
 3389              	.LBB44:
1839:Core/Src/SEGGER_RTT.c **** 
1840:Core/Src/SEGGER_RTT.c ****   INIT();
 3390              		.loc 1 1840 3 view .LVU1016
 3391              		.loc 1 1840 3 view .LVU1017
 3392              	.LVL333:
 3393              		.loc 1 1840 3 view .LVU1018
 3394              		.loc 1 1840 3 view .LVU1019
 3395 0006 0D4B     		ldr	r3, .L217
 3396 0008 1B78     		ldrb	r3, [r3]	@ zero_extendqisi2
 3397 000a 8BB1     		cbz	r3, .L216
 3398              	.LVL334:
 3399              	.L212:
 3400              		.loc 1 1840 3 discriminator 3 view .LVU1020
 3401              	.LBE44:
 3402              		.loc 1 1840 9 discriminator 3 view .LVU1021
1841:Core/Src/SEGGER_RTT.c ****   pRTTCB = (volatile SEGGER_RTT_CB*)((unsigned char*)&_SEGGER_RTT + SEGGER_RTT_UNCACHED_OFF);  // A
 3403              		.loc 1 1841 3 view .LVU1022
1842:Core/Src/SEGGER_RTT.c ****   if (BufferIndex < SEGGER_RTT_MAX_NUM_UP_BUFFERS) {
 3404              		.loc 1 1842 3 view .LVU1023
 3405              		.loc 1 1842 6 is_stmt 0 view .LVU1024
 3406 000c 022C     		cmp	r4, #2
 3407 000e 12D8     		bhi	.L214
 3408              	.LBB45:
1843:Core/Src/SEGGER_RTT.c ****     SEGGER_RTT_LOCK();
 3409              		.loc 1 1843 5 is_stmt 1 view .LVU1025
ARM GAS  /var/folders/lp/x54gwt890xv47sdkqj1k04q40000gn/T//ccydrndK.s 			page 98


 3410              		.loc 1 1843 5 view .LVU1026
 3411              		.syntax unified
 3412              	@ 1843 "Core/Src/SEGGER_RTT.c" 1
 3413 0010 EFF31182 		mrs   r2, basepri  
 3414 0014 4FF02001 		mov   r1, #32       
 3415 0018 81F31188 		msr   basepri, r1  
 3416              		
 3417              	@ 0 "" 2
 3418              	.LVL335:
 3419              		.loc 1 1843 22 view .LVU1027
1844:Core/Src/SEGGER_RTT.c ****     pUp = &pRTTCB->aUp[BufferIndex];
 3420              		.loc 1 1844 5 view .LVU1028
1845:Core/Src/SEGGER_RTT.c ****     pUp->Flags = Flags;
 3421              		.loc 1 1845 5 view .LVU1029
 3422              		.loc 1 1845 16 is_stmt 0 view .LVU1030
 3423              		.thumb
 3424              		.syntax unified
 3425 001c 04EB4404 		add	r4, r4, r4, lsl #1
 3426              	.LVL336:
 3427              		.loc 1 1845 16 view .LVU1031
 3428 0020 064B     		ldr	r3, .L217
 3429 0022 03EBC403 		add	r3, r3, r4, lsl #3
 3430 0026 DD62     		str	r5, [r3, #44]
1846:Core/Src/SEGGER_RTT.c ****     SEGGER_RTT_UNLOCK();
 3431              		.loc 1 1846 5 is_stmt 1 view .LVU1032
 3432              		.syntax unified
 3433              	@ 1846 "Core/Src/SEGGER_RTT.c" 1
 3434 0028 82F31188 		msr   basepri, r2  
 3435              		
 3436              	@ 0 "" 2
 3437              		.thumb
 3438              		.syntax unified
 3439              	.LBE45:
 3440              		.loc 1 1846 24 view .LVU1033
1847:Core/Src/SEGGER_RTT.c ****     r =  0;
 3441              		.loc 1 1847 5 view .LVU1034
 3442              	.LVL337:
 3443              		.loc 1 1847 7 is_stmt 0 view .LVU1035
 3444 002c 0020     		movs	r0, #0
 3445              	.LVL338:
 3446              	.L211:
1848:Core/Src/SEGGER_RTT.c ****   } else {
1849:Core/Src/SEGGER_RTT.c ****     r = -1;
1850:Core/Src/SEGGER_RTT.c ****   }
1851:Core/Src/SEGGER_RTT.c ****   return r;
1852:Core/Src/SEGGER_RTT.c **** }
 3447              		.loc 1 1852 1 view .LVU1036
 3448 002e 38BD     		pop	{r3, r4, r5, pc}
 3449              	.LVL339:
 3450              	.L216:
 3451              	.LBB46:
1840:Core/Src/SEGGER_RTT.c ****   pRTTCB = (volatile SEGGER_RTT_CB*)((unsigned char*)&_SEGGER_RTT + SEGGER_RTT_UNCACHED_OFF);  // A
 3452              		.loc 1 1840 3 is_stmt 1 discriminator 1 view .LVU1037
 3453 0030 FFF7FEFF 		bl	_DoInit
 3454              	.LVL340:
1840:Core/Src/SEGGER_RTT.c ****   pRTTCB = (volatile SEGGER_RTT_CB*)((unsigned char*)&_SEGGER_RTT + SEGGER_RTT_UNCACHED_OFF);  // A
 3455              		.loc 1 1840 3 is_stmt 0 discriminator 1 view .LVU1038
ARM GAS  /var/folders/lp/x54gwt890xv47sdkqj1k04q40000gn/T//ccydrndK.s 			page 99


 3456 0034 EAE7     		b	.L212
 3457              	.LVL341:
 3458              	.L214:
1840:Core/Src/SEGGER_RTT.c ****   pRTTCB = (volatile SEGGER_RTT_CB*)((unsigned char*)&_SEGGER_RTT + SEGGER_RTT_UNCACHED_OFF);  // A
 3459              		.loc 1 1840 3 discriminator 1 view .LVU1039
 3460              	.LBE46:
1849:Core/Src/SEGGER_RTT.c ****   }
 3461              		.loc 1 1849 7 view .LVU1040
 3462 0036 4FF0FF30 		mov	r0, #-1
 3463              	.LVL342:
1851:Core/Src/SEGGER_RTT.c **** }
 3464              		.loc 1 1851 3 is_stmt 1 view .LVU1041
1851:Core/Src/SEGGER_RTT.c **** }
 3465              		.loc 1 1851 10 is_stmt 0 view .LVU1042
 3466 003a F8E7     		b	.L211
 3467              	.L218:
 3468              		.align	2
 3469              	.L217:
 3470 003c 00000000 		.word	_SEGGER_RTT
 3471              		.cfi_endproc
 3472              	.LFE29:
 3474              		.section	.text.SEGGER_RTT_SetFlagsDownBuffer,"ax",%progbits
 3475              		.align	1
 3476              		.global	SEGGER_RTT_SetFlagsDownBuffer
 3477              		.syntax unified
 3478              		.thumb
 3479              		.thumb_func
 3481              	SEGGER_RTT_SetFlagsDownBuffer:
 3482              	.LVL343:
 3483              	.LFB30:
1853:Core/Src/SEGGER_RTT.c **** 
1854:Core/Src/SEGGER_RTT.c **** /*********************************************************************
1855:Core/Src/SEGGER_RTT.c **** *
1856:Core/Src/SEGGER_RTT.c **** *       SEGGER_RTT_SetFlagsDownBuffer
1857:Core/Src/SEGGER_RTT.c **** *
1858:Core/Src/SEGGER_RTT.c **** *  Function description
1859:Core/Src/SEGGER_RTT.c **** *    Run-time configuration of specific Down-buffer flags (T->H).
1860:Core/Src/SEGGER_RTT.c **** *    Buffer to be configured is specified by index.
1861:Core/Src/SEGGER_RTT.c **** *
1862:Core/Src/SEGGER_RTT.c **** *  Parameters
1863:Core/Src/SEGGER_RTT.c **** *    BufferIndex  Index of the buffer to renamed.
1864:Core/Src/SEGGER_RTT.c **** *    Flags        Flags to set for the buffer.
1865:Core/Src/SEGGER_RTT.c **** *                 Flags[31:24] are used for validity check and must be zero. Flags[23:2] are reserv
1866:Core/Src/SEGGER_RTT.c **** *
1867:Core/Src/SEGGER_RTT.c **** *  Return value
1868:Core/Src/SEGGER_RTT.c **** *    >= 0  O.K.
1869:Core/Src/SEGGER_RTT.c **** *     < 0  Error
1870:Core/Src/SEGGER_RTT.c **** */
1871:Core/Src/SEGGER_RTT.c **** int SEGGER_RTT_SetFlagsDownBuffer(unsigned BufferIndex, unsigned Flags) {
 3484              		.loc 1 1871 73 is_stmt 1 view -0
 3485              		.cfi_startproc
 3486              		@ args = 0, pretend = 0, frame = 0
 3487              		@ frame_needed = 0, uses_anonymous_args = 0
 3488              		.loc 1 1871 73 is_stmt 0 view .LVU1044
 3489 0000 38B5     		push	{r3, r4, r5, lr}
 3490              		.cfi_def_cfa_offset 16
 3491              		.cfi_offset 3, -16
ARM GAS  /var/folders/lp/x54gwt890xv47sdkqj1k04q40000gn/T//ccydrndK.s 			page 100


 3492              		.cfi_offset 4, -12
 3493              		.cfi_offset 5, -8
 3494              		.cfi_offset 14, -4
 3495 0002 0446     		mov	r4, r0
 3496 0004 0D46     		mov	r5, r1
1872:Core/Src/SEGGER_RTT.c ****   int r;
 3497              		.loc 1 1872 3 is_stmt 1 view .LVU1045
1873:Core/Src/SEGGER_RTT.c ****   volatile SEGGER_RTT_CB* pRTTCB;
 3498              		.loc 1 1873 3 view .LVU1046
1874:Core/Src/SEGGER_RTT.c ****   volatile SEGGER_RTT_BUFFER_DOWN* pDown;
 3499              		.loc 1 1874 3 view .LVU1047
 3500              	.LBB47:
1875:Core/Src/SEGGER_RTT.c **** 
1876:Core/Src/SEGGER_RTT.c ****   INIT();
 3501              		.loc 1 1876 3 view .LVU1048
 3502              		.loc 1 1876 3 view .LVU1049
 3503              	.LVL344:
 3504              		.loc 1 1876 3 view .LVU1050
 3505              		.loc 1 1876 3 view .LVU1051
 3506 0006 0D4B     		ldr	r3, .L225
 3507 0008 1B78     		ldrb	r3, [r3]	@ zero_extendqisi2
 3508 000a 8BB1     		cbz	r3, .L224
 3509              	.LVL345:
 3510              	.L220:
 3511              		.loc 1 1876 3 discriminator 3 view .LVU1052
 3512              	.LBE47:
 3513              		.loc 1 1876 9 discriminator 3 view .LVU1053
1877:Core/Src/SEGGER_RTT.c ****   pRTTCB = (volatile SEGGER_RTT_CB*)((unsigned char*)&_SEGGER_RTT + SEGGER_RTT_UNCACHED_OFF);  // A
 3514              		.loc 1 1877 3 view .LVU1054
1878:Core/Src/SEGGER_RTT.c ****   if (BufferIndex < SEGGER_RTT_MAX_NUM_DOWN_BUFFERS) {
 3515              		.loc 1 1878 3 view .LVU1055
 3516              		.loc 1 1878 6 is_stmt 0 view .LVU1056
 3517 000c 022C     		cmp	r4, #2
 3518 000e 12D8     		bhi	.L222
 3519              	.LBB48:
1879:Core/Src/SEGGER_RTT.c ****     SEGGER_RTT_LOCK();
 3520              		.loc 1 1879 5 is_stmt 1 view .LVU1057
 3521              		.loc 1 1879 5 view .LVU1058
 3522              		.syntax unified
 3523              	@ 1879 "Core/Src/SEGGER_RTT.c" 1
 3524 0010 EFF31182 		mrs   r2, basepri  
 3525 0014 4FF02001 		mov   r1, #32       
 3526 0018 81F31188 		msr   basepri, r1  
 3527              		
 3528              	@ 0 "" 2
 3529              	.LVL346:
 3530              		.loc 1 1879 22 view .LVU1059
1880:Core/Src/SEGGER_RTT.c ****     pDown = &pRTTCB->aDown[BufferIndex];
 3531              		.loc 1 1880 5 view .LVU1060
1881:Core/Src/SEGGER_RTT.c ****     pDown->Flags = Flags;
 3532              		.loc 1 1881 5 view .LVU1061
 3533              		.loc 1 1881 18 is_stmt 0 view .LVU1062
 3534              		.thumb
 3535              		.syntax unified
 3536 001c 04EB4404 		add	r4, r4, r4, lsl #1
 3537              	.LVL347:
 3538              		.loc 1 1881 18 view .LVU1063
ARM GAS  /var/folders/lp/x54gwt890xv47sdkqj1k04q40000gn/T//ccydrndK.s 			page 101


 3539 0020 064B     		ldr	r3, .L225
 3540 0022 03EBC403 		add	r3, r3, r4, lsl #3
 3541 0026 5D67     		str	r5, [r3, #116]
1882:Core/Src/SEGGER_RTT.c ****     SEGGER_RTT_UNLOCK();
 3542              		.loc 1 1882 5 is_stmt 1 view .LVU1064
 3543              		.syntax unified
 3544              	@ 1882 "Core/Src/SEGGER_RTT.c" 1
 3545 0028 82F31188 		msr   basepri, r2  
 3546              		
 3547              	@ 0 "" 2
 3548              		.thumb
 3549              		.syntax unified
 3550              	.LBE48:
 3551              		.loc 1 1882 24 view .LVU1065
1883:Core/Src/SEGGER_RTT.c ****     r =  0;
 3552              		.loc 1 1883 5 view .LVU1066
 3553              	.LVL348:
 3554              		.loc 1 1883 7 is_stmt 0 view .LVU1067
 3555 002c 0020     		movs	r0, #0
 3556              	.LVL349:
 3557              	.L219:
1884:Core/Src/SEGGER_RTT.c ****   } else {
1885:Core/Src/SEGGER_RTT.c ****     r = -1;
1886:Core/Src/SEGGER_RTT.c ****   }
1887:Core/Src/SEGGER_RTT.c ****   return r;
1888:Core/Src/SEGGER_RTT.c **** }
 3558              		.loc 1 1888 1 view .LVU1068
 3559 002e 38BD     		pop	{r3, r4, r5, pc}
 3560              	.LVL350:
 3561              	.L224:
 3562              	.LBB49:
1876:Core/Src/SEGGER_RTT.c ****   pRTTCB = (volatile SEGGER_RTT_CB*)((unsigned char*)&_SEGGER_RTT + SEGGER_RTT_UNCACHED_OFF);  // A
 3563              		.loc 1 1876 3 is_stmt 1 discriminator 1 view .LVU1069
 3564 0030 FFF7FEFF 		bl	_DoInit
 3565              	.LVL351:
1876:Core/Src/SEGGER_RTT.c ****   pRTTCB = (volatile SEGGER_RTT_CB*)((unsigned char*)&_SEGGER_RTT + SEGGER_RTT_UNCACHED_OFF);  // A
 3566              		.loc 1 1876 3 is_stmt 0 discriminator 1 view .LVU1070
 3567 0034 EAE7     		b	.L220
 3568              	.LVL352:
 3569              	.L222:
1876:Core/Src/SEGGER_RTT.c ****   pRTTCB = (volatile SEGGER_RTT_CB*)((unsigned char*)&_SEGGER_RTT + SEGGER_RTT_UNCACHED_OFF);  // A
 3570              		.loc 1 1876 3 discriminator 1 view .LVU1071
 3571              	.LBE49:
1885:Core/Src/SEGGER_RTT.c ****   }
 3572              		.loc 1 1885 7 view .LVU1072
 3573 0036 4FF0FF30 		mov	r0, #-1
 3574              	.LVL353:
1887:Core/Src/SEGGER_RTT.c **** }
 3575              		.loc 1 1887 3 is_stmt 1 view .LVU1073
1887:Core/Src/SEGGER_RTT.c **** }
 3576              		.loc 1 1887 10 is_stmt 0 view .LVU1074
 3577 003a F8E7     		b	.L219
 3578              	.L226:
 3579              		.align	2
 3580              	.L225:
 3581 003c 00000000 		.word	_SEGGER_RTT
 3582              		.cfi_endproc
ARM GAS  /var/folders/lp/x54gwt890xv47sdkqj1k04q40000gn/T//ccydrndK.s 			page 102


 3583              	.LFE30:
 3585              		.section	.text.SEGGER_RTT_Init,"ax",%progbits
 3586              		.align	1
 3587              		.global	SEGGER_RTT_Init
 3588              		.syntax unified
 3589              		.thumb
 3590              		.thumb_func
 3592              	SEGGER_RTT_Init:
 3593              	.LFB31:
1889:Core/Src/SEGGER_RTT.c **** 
1890:Core/Src/SEGGER_RTT.c **** /*********************************************************************
1891:Core/Src/SEGGER_RTT.c **** *
1892:Core/Src/SEGGER_RTT.c **** *       SEGGER_RTT_Init
1893:Core/Src/SEGGER_RTT.c **** *
1894:Core/Src/SEGGER_RTT.c **** *  Function description
1895:Core/Src/SEGGER_RTT.c **** *    Initializes the RTT Control Block.
1896:Core/Src/SEGGER_RTT.c **** *    Should be used in RAM targets, at start of the application.
1897:Core/Src/SEGGER_RTT.c **** *
1898:Core/Src/SEGGER_RTT.c **** */
1899:Core/Src/SEGGER_RTT.c **** void SEGGER_RTT_Init (void) {
 3594              		.loc 1 1899 29 is_stmt 1 view -0
 3595              		.cfi_startproc
 3596              		@ args = 0, pretend = 0, frame = 0
 3597              		@ frame_needed = 0, uses_anonymous_args = 0
 3598 0000 08B5     		push	{r3, lr}
 3599              		.cfi_def_cfa_offset 8
 3600              		.cfi_offset 3, -8
 3601              		.cfi_offset 14, -4
1900:Core/Src/SEGGER_RTT.c ****   _DoInit();
 3602              		.loc 1 1900 3 view .LVU1076
 3603 0002 FFF7FEFF 		bl	_DoInit
 3604              	.LVL354:
1901:Core/Src/SEGGER_RTT.c **** }
 3605              		.loc 1 1901 1 is_stmt 0 view .LVU1077
 3606 0006 08BD     		pop	{r3, pc}
 3607              		.cfi_endproc
 3608              	.LFE31:
 3610              		.section	.text.SEGGER_RTT_SetTerminal,"ax",%progbits
 3611              		.align	1
 3612              		.global	SEGGER_RTT_SetTerminal
 3613              		.syntax unified
 3614              		.thumb
 3615              		.thumb_func
 3617              	SEGGER_RTT_SetTerminal:
 3618              	.LVL355:
 3619              	.LFB32:
1902:Core/Src/SEGGER_RTT.c **** 
1903:Core/Src/SEGGER_RTT.c **** /*********************************************************************
1904:Core/Src/SEGGER_RTT.c **** *
1905:Core/Src/SEGGER_RTT.c **** *       SEGGER_RTT_SetTerminal
1906:Core/Src/SEGGER_RTT.c **** *
1907:Core/Src/SEGGER_RTT.c **** *  Function description
1908:Core/Src/SEGGER_RTT.c **** *    Sets the terminal to be used for output on channel 0.
1909:Core/Src/SEGGER_RTT.c **** *
1910:Core/Src/SEGGER_RTT.c **** *  Parameters
1911:Core/Src/SEGGER_RTT.c **** *    TerminalId  Index of the terminal.
1912:Core/Src/SEGGER_RTT.c **** *
ARM GAS  /var/folders/lp/x54gwt890xv47sdkqj1k04q40000gn/T//ccydrndK.s 			page 103


1913:Core/Src/SEGGER_RTT.c **** *  Return value
1914:Core/Src/SEGGER_RTT.c **** *    >= 0  O.K.
1915:Core/Src/SEGGER_RTT.c **** *     < 0  Error (e.g. if RTT is configured for non-blocking mode and there was no space in the buf
1916:Core/Src/SEGGER_RTT.c **** *
1917:Core/Src/SEGGER_RTT.c **** *  Notes
1918:Core/Src/SEGGER_RTT.c **** *    (1) Buffer 0 is always reserved for terminal I/O, so we can use index 0 here, fixed
1919:Core/Src/SEGGER_RTT.c **** */
1920:Core/Src/SEGGER_RTT.c **** int SEGGER_RTT_SetTerminal (unsigned char TerminalId) {
 3620              		.loc 1 1920 55 is_stmt 1 view -0
 3621              		.cfi_startproc
 3622              		@ args = 0, pretend = 0, frame = 8
 3623              		@ frame_needed = 0, uses_anonymous_args = 0
 3624              		.loc 1 1920 55 is_stmt 0 view .LVU1079
 3625 0000 30B5     		push	{r4, r5, lr}
 3626              		.cfi_def_cfa_offset 12
 3627              		.cfi_offset 4, -12
 3628              		.cfi_offset 5, -8
 3629              		.cfi_offset 14, -4
 3630 0002 83B0     		sub	sp, sp, #12
 3631              		.cfi_def_cfa_offset 24
 3632 0004 0446     		mov	r4, r0
1921:Core/Src/SEGGER_RTT.c ****   unsigned char         ac[2];
 3633              		.loc 1 1921 3 is_stmt 1 view .LVU1080
1922:Core/Src/SEGGER_RTT.c ****   SEGGER_RTT_BUFFER_UP* pRing;
 3634              		.loc 1 1922 3 view .LVU1081
1923:Core/Src/SEGGER_RTT.c ****   unsigned Avail;
 3635              		.loc 1 1923 3 view .LVU1082
1924:Core/Src/SEGGER_RTT.c ****   int r;
 3636              		.loc 1 1924 3 view .LVU1083
 3637              	.LBB50:
1925:Core/Src/SEGGER_RTT.c **** 
1926:Core/Src/SEGGER_RTT.c ****   INIT();
 3638              		.loc 1 1926 3 view .LVU1084
 3639              		.loc 1 1926 3 view .LVU1085
 3640              	.LVL356:
 3641              		.loc 1 1926 3 view .LVU1086
 3642              		.loc 1 1926 3 view .LVU1087
 3643 0006 1D4B     		ldr	r3, .L240
 3644 0008 1B78     		ldrb	r3, [r3]	@ zero_extendqisi2
 3645 000a FBB1     		cbz	r3, .L237
 3646              	.LVL357:
 3647              	.L230:
 3648              		.loc 1 1926 3 discriminator 3 view .LVU1088
 3649              	.LBE50:
 3650              		.loc 1 1926 9 discriminator 3 view .LVU1089
1927:Core/Src/SEGGER_RTT.c ****   r = 0;
 3651              		.loc 1 1927 3 view .LVU1090
1928:Core/Src/SEGGER_RTT.c ****   ac[0] = 0xFFu;
 3652              		.loc 1 1928 3 view .LVU1091
 3653              		.loc 1 1928 9 is_stmt 0 view .LVU1092
 3654 000c FF23     		movs	r3, #255
 3655 000e 8DF80430 		strb	r3, [sp, #4]
1929:Core/Src/SEGGER_RTT.c ****   if (TerminalId < sizeof(_aTerminalId)) { // We only support a certain number of channels
 3656              		.loc 1 1929 3 is_stmt 1 view .LVU1093
 3657              		.loc 1 1929 6 is_stmt 0 view .LVU1094
 3658 0012 0F2C     		cmp	r4, #15
 3659 0014 2FD8     		bhi	.L234
ARM GAS  /var/folders/lp/x54gwt890xv47sdkqj1k04q40000gn/T//ccydrndK.s 			page 104


1930:Core/Src/SEGGER_RTT.c ****     ac[1] = _aTerminalId[TerminalId];
 3660              		.loc 1 1930 5 is_stmt 1 view .LVU1095
 3661              		.loc 1 1930 25 is_stmt 0 view .LVU1096
 3662 0016 1A4B     		ldr	r3, .L240+4
 3663 0018 1B5D     		ldrb	r3, [r3, r4]	@ zero_extendqisi2
 3664              		.loc 1 1930 11 view .LVU1097
 3665 001a 8DF80530 		strb	r3, [sp, #5]
1931:Core/Src/SEGGER_RTT.c ****     pRing = (SEGGER_RTT_BUFFER_UP*)((char*)&_SEGGER_RTT.aUp[0] + SEGGER_RTT_UNCACHED_OFF);  // Acce
 3666              		.loc 1 1931 5 is_stmt 1 view .LVU1098
 3667              	.LVL358:
 3668              	.LBB51:
1932:Core/Src/SEGGER_RTT.c ****     SEGGER_RTT_LOCK();                     // Lock to make sure that no other task is writing into 
 3669              		.loc 1 1932 5 view .LVU1099
 3670              		.loc 1 1932 5 view .LVU1100
 3671              		.syntax unified
 3672              	@ 1932 "Core/Src/SEGGER_RTT.c" 1
 3673 001e EFF31185 		mrs   r5, basepri  
 3674 0022 4FF02001 		mov   r1, #32       
 3675 0026 81F31188 		msr   basepri, r1  
 3676              		
 3677              	@ 0 "" 2
 3678              	.LVL359:
 3679              		.loc 1 1932 22 view .LVU1101
1933:Core/Src/SEGGER_RTT.c ****     if ((pRing->Flags & SEGGER_RTT_MODE_MASK) == SEGGER_RTT_MODE_BLOCK_IF_FIFO_FULL) {
 3680              		.loc 1 1933 5 view .LVU1102
 3681              		.loc 1 1933 15 is_stmt 0 view .LVU1103
 3682              		.thumb
 3683              		.syntax unified
 3684 002a 144B     		ldr	r3, .L240
 3685 002c DB6A     		ldr	r3, [r3, #44]
 3686              		.loc 1 1933 23 view .LVU1104
 3687 002e 03F00303 		and	r3, r3, #3
 3688              		.loc 1 1933 8 view .LVU1105
 3689 0032 022B     		cmp	r3, #2
 3690 0034 0DD0     		beq	.L238
1934:Core/Src/SEGGER_RTT.c ****       _ActiveTerminal = TerminalId;
1935:Core/Src/SEGGER_RTT.c ****       _WriteBlocking(pRing, (const char*)ac, 2u);
1936:Core/Src/SEGGER_RTT.c ****     } else {                                                                            // Skipping
1937:Core/Src/SEGGER_RTT.c ****       Avail = _GetAvailWriteSpace(pRing);
 3691              		.loc 1 1937 7 is_stmt 1 view .LVU1106
 3692              		.loc 1 1937 15 is_stmt 0 view .LVU1107
 3693 0036 1348     		ldr	r0, .L240+8
 3694              	.LVL360:
 3695              		.loc 1 1937 15 view .LVU1108
 3696 0038 FFF7FEFF 		bl	_GetAvailWriteSpace
 3697              	.LVL361:
1938:Core/Src/SEGGER_RTT.c ****       if (Avail >= 2) {
 3698              		.loc 1 1938 7 is_stmt 1 view .LVU1109
 3699              		.loc 1 1938 10 is_stmt 0 view .LVU1110
 3700 003c 0128     		cmp	r0, #1
 3701 003e 11D8     		bhi	.L239
1939:Core/Src/SEGGER_RTT.c ****         _ActiveTerminal = TerminalId;    // Only change active terminal in case of success
1940:Core/Src/SEGGER_RTT.c ****         _WriteNoCheck(pRing, (const char*)ac, 2u);
1941:Core/Src/SEGGER_RTT.c ****       } else {
1942:Core/Src/SEGGER_RTT.c ****         r = -1;
 3702              		.loc 1 1942 11 view .LVU1111
 3703 0040 4FF0FF30 		mov	r0, #-1
ARM GAS  /var/folders/lp/x54gwt890xv47sdkqj1k04q40000gn/T//ccydrndK.s 			page 105


 3704              	.LVL362:
 3705              	.L233:
1943:Core/Src/SEGGER_RTT.c ****       }
1944:Core/Src/SEGGER_RTT.c ****     }
1945:Core/Src/SEGGER_RTT.c ****     SEGGER_RTT_UNLOCK();
 3706              		.loc 1 1945 5 is_stmt 1 view .LVU1112
 3707              		.syntax unified
 3708              	@ 1945 "Core/Src/SEGGER_RTT.c" 1
 3709 0044 85F31188 		msr   basepri, r5  
 3710              		
 3711              	@ 0 "" 2
 3712              		.thumb
 3713              		.syntax unified
 3714              	.LBE51:
 3715              		.loc 1 1945 24 view .LVU1113
 3716              	.LVL363:
 3717              	.L229:
1946:Core/Src/SEGGER_RTT.c ****   } else {
1947:Core/Src/SEGGER_RTT.c ****     r = -1;
1948:Core/Src/SEGGER_RTT.c ****   }
1949:Core/Src/SEGGER_RTT.c ****   return r;
1950:Core/Src/SEGGER_RTT.c **** }
 3718              		.loc 1 1950 1 is_stmt 0 view .LVU1114
 3719 0048 03B0     		add	sp, sp, #12
 3720              		.cfi_remember_state
 3721              		.cfi_def_cfa_offset 12
 3722              		@ sp needed
 3723 004a 30BD     		pop	{r4, r5, pc}
 3724              	.LVL364:
 3725              	.L237:
 3726              		.cfi_restore_state
 3727              	.LBB52:
1926:Core/Src/SEGGER_RTT.c ****   r = 0;
 3728              		.loc 1 1926 3 is_stmt 1 discriminator 1 view .LVU1115
 3729 004c FFF7FEFF 		bl	_DoInit
 3730              	.LVL365:
1926:Core/Src/SEGGER_RTT.c ****   r = 0;
 3731              		.loc 1 1926 3 is_stmt 0 discriminator 1 view .LVU1116
 3732 0050 DCE7     		b	.L230
 3733              	.LVL366:
 3734              	.L238:
1926:Core/Src/SEGGER_RTT.c ****   r = 0;
 3735              		.loc 1 1926 3 discriminator 1 view .LVU1117
 3736              	.LBE52:
 3737              	.LBB53:
1934:Core/Src/SEGGER_RTT.c ****       _WriteBlocking(pRing, (const char*)ac, 2u);
 3738              		.loc 1 1934 7 is_stmt 1 view .LVU1118
1934:Core/Src/SEGGER_RTT.c ****       _WriteBlocking(pRing, (const char*)ac, 2u);
 3739              		.loc 1 1934 23 is_stmt 0 view .LVU1119
 3740 0052 0D4B     		ldr	r3, .L240+12
 3741 0054 1C70     		strb	r4, [r3]
1935:Core/Src/SEGGER_RTT.c ****     } else {                                                                            // Skipping
 3742              		.loc 1 1935 7 is_stmt 1 view .LVU1120
 3743 0056 0222     		movs	r2, #2
 3744 0058 01A9     		add	r1, sp, #4
 3745 005a 0A48     		ldr	r0, .L240+8
 3746              	.LVL367:
ARM GAS  /var/folders/lp/x54gwt890xv47sdkqj1k04q40000gn/T//ccydrndK.s 			page 106


1935:Core/Src/SEGGER_RTT.c ****     } else {                                                                            // Skipping
 3747              		.loc 1 1935 7 is_stmt 0 view .LVU1121
 3748 005c FFF7FEFF 		bl	_WriteBlocking
 3749              	.LVL368:
1935:Core/Src/SEGGER_RTT.c ****     } else {                                                                            // Skipping
 3750              		.loc 1 1935 7 view .LVU1122
 3751              	.LBE53:
1927:Core/Src/SEGGER_RTT.c ****   ac[0] = 0xFFu;
 3752              		.loc 1 1927 5 view .LVU1123
 3753 0060 0020     		movs	r0, #0
 3754              	.LBB54:
 3755 0062 EFE7     		b	.L233
 3756              	.LVL369:
 3757              	.L239:
1939:Core/Src/SEGGER_RTT.c ****         _WriteNoCheck(pRing, (const char*)ac, 2u);
 3758              		.loc 1 1939 9 is_stmt 1 view .LVU1124
1939:Core/Src/SEGGER_RTT.c ****         _WriteNoCheck(pRing, (const char*)ac, 2u);
 3759              		.loc 1 1939 25 is_stmt 0 view .LVU1125
 3760 0064 084B     		ldr	r3, .L240+12
 3761 0066 1C70     		strb	r4, [r3]
1940:Core/Src/SEGGER_RTT.c ****       } else {
 3762              		.loc 1 1940 9 is_stmt 1 view .LVU1126
 3763 0068 0222     		movs	r2, #2
 3764 006a 01A9     		add	r1, sp, #4
 3765 006c 0548     		ldr	r0, .L240+8
 3766              	.LVL370:
1940:Core/Src/SEGGER_RTT.c ****       } else {
 3767              		.loc 1 1940 9 is_stmt 0 view .LVU1127
 3768 006e FFF7FEFF 		bl	_WriteNoCheck
 3769              	.LVL371:
1940:Core/Src/SEGGER_RTT.c ****       } else {
 3770              		.loc 1 1940 9 view .LVU1128
 3771              	.LBE54:
1927:Core/Src/SEGGER_RTT.c ****   ac[0] = 0xFFu;
 3772              		.loc 1 1927 5 view .LVU1129
 3773 0072 0020     		movs	r0, #0
 3774              	.LBB55:
 3775 0074 E6E7     		b	.L233
 3776              	.LVL372:
 3777              	.L234:
1927:Core/Src/SEGGER_RTT.c ****   ac[0] = 0xFFu;
 3778              		.loc 1 1927 5 view .LVU1130
 3779              	.LBE55:
1947:Core/Src/SEGGER_RTT.c ****   }
 3780              		.loc 1 1947 7 view .LVU1131
 3781 0076 4FF0FF30 		mov	r0, #-1
 3782              	.LVL373:
1949:Core/Src/SEGGER_RTT.c **** }
 3783              		.loc 1 1949 3 is_stmt 1 view .LVU1132
1949:Core/Src/SEGGER_RTT.c **** }
 3784              		.loc 1 1949 10 is_stmt 0 view .LVU1133
 3785 007a E5E7     		b	.L229
 3786              	.L241:
 3787              		.align	2
 3788              	.L240:
 3789 007c 00000000 		.word	_SEGGER_RTT
 3790 0080 00000000 		.word	_aTerminalId
ARM GAS  /var/folders/lp/x54gwt890xv47sdkqj1k04q40000gn/T//ccydrndK.s 			page 107


 3791 0084 18000000 		.word	_SEGGER_RTT+24
 3792 0088 00000000 		.word	_ActiveTerminal
 3793              		.cfi_endproc
 3794              	.LFE32:
 3796              		.section	.text.SEGGER_RTT_TerminalOut,"ax",%progbits
 3797              		.align	1
 3798              		.global	SEGGER_RTT_TerminalOut
 3799              		.syntax unified
 3800              		.thumb
 3801              		.thumb_func
 3803              	SEGGER_RTT_TerminalOut:
 3804              	.LVL374:
 3805              	.LFB33:
1951:Core/Src/SEGGER_RTT.c **** 
1952:Core/Src/SEGGER_RTT.c **** /*********************************************************************
1953:Core/Src/SEGGER_RTT.c **** *
1954:Core/Src/SEGGER_RTT.c **** *       SEGGER_RTT_TerminalOut
1955:Core/Src/SEGGER_RTT.c **** *
1956:Core/Src/SEGGER_RTT.c **** *  Function description
1957:Core/Src/SEGGER_RTT.c **** *    Writes a string to the given terminal
1958:Core/Src/SEGGER_RTT.c **** *     without changing the terminal for channel 0.
1959:Core/Src/SEGGER_RTT.c **** *
1960:Core/Src/SEGGER_RTT.c **** *  Parameters
1961:Core/Src/SEGGER_RTT.c **** *    TerminalId   Index of the terminal.
1962:Core/Src/SEGGER_RTT.c **** *    s            String to be printed on the terminal.
1963:Core/Src/SEGGER_RTT.c **** *
1964:Core/Src/SEGGER_RTT.c **** *  Return value
1965:Core/Src/SEGGER_RTT.c **** *    >= 0 - Number of bytes written.
1966:Core/Src/SEGGER_RTT.c **** *     < 0 - Error.
1967:Core/Src/SEGGER_RTT.c **** *
1968:Core/Src/SEGGER_RTT.c **** */
1969:Core/Src/SEGGER_RTT.c **** int SEGGER_RTT_TerminalOut (unsigned char TerminalId, const char* s) {
 3806              		.loc 1 1969 70 is_stmt 1 view -0
 3807              		.cfi_startproc
 3808              		@ args = 0, pretend = 0, frame = 0
 3809              		@ frame_needed = 0, uses_anonymous_args = 0
 3810              		.loc 1 1969 70 is_stmt 0 view .LVU1135
 3811 0000 2DE9F843 		push	{r3, r4, r5, r6, r7, r8, r9, lr}
 3812              		.cfi_def_cfa_offset 32
 3813              		.cfi_offset 3, -32
 3814              		.cfi_offset 4, -28
 3815              		.cfi_offset 5, -24
 3816              		.cfi_offset 6, -20
 3817              		.cfi_offset 7, -16
 3818              		.cfi_offset 8, -12
 3819              		.cfi_offset 9, -8
 3820              		.cfi_offset 14, -4
 3821 0004 0446     		mov	r4, r0
 3822 0006 0D46     		mov	r5, r1
1970:Core/Src/SEGGER_RTT.c ****   int                   Status;
 3823              		.loc 1 1970 3 is_stmt 1 view .LVU1136
1971:Core/Src/SEGGER_RTT.c ****   unsigned              FragLen;
 3824              		.loc 1 1971 3 view .LVU1137
1972:Core/Src/SEGGER_RTT.c ****   unsigned              Avail;
 3825              		.loc 1 1972 3 view .LVU1138
1973:Core/Src/SEGGER_RTT.c ****   SEGGER_RTT_BUFFER_UP* pRing;
 3826              		.loc 1 1973 3 view .LVU1139
ARM GAS  /var/folders/lp/x54gwt890xv47sdkqj1k04q40000gn/T//ccydrndK.s 			page 108


 3827              	.LBB56:
1974:Core/Src/SEGGER_RTT.c ****   //
1975:Core/Src/SEGGER_RTT.c ****   INIT();
 3828              		.loc 1 1975 3 view .LVU1140
 3829              		.loc 1 1975 3 view .LVU1141
 3830              	.LVL375:
 3831              		.loc 1 1975 3 view .LVU1142
 3832              		.loc 1 1975 3 view .LVU1143
 3833 0008 354B     		ldr	r3, .L256
 3834 000a 1B78     		ldrb	r3, [r3]	@ zero_extendqisi2
 3835 000c FBB1     		cbz	r3, .L253
 3836              	.LVL376:
 3837              	.L243:
 3838              		.loc 1 1975 3 discriminator 3 view .LVU1144
 3839              	.LBE56:
 3840              		.loc 1 1975 9 discriminator 3 view .LVU1145
1976:Core/Src/SEGGER_RTT.c ****   //
1977:Core/Src/SEGGER_RTT.c ****   // Validate terminal ID.
1978:Core/Src/SEGGER_RTT.c ****   //
1979:Core/Src/SEGGER_RTT.c ****   if (TerminalId < (char)sizeof(_aTerminalId)) { // We only support a certain number of channels
 3841              		.loc 1 1979 3 view .LVU1146
 3842              		.loc 1 1979 6 is_stmt 0 view .LVU1147
 3843 000e 0F2C     		cmp	r4, #15
 3844 0010 62D8     		bhi	.L248
1980:Core/Src/SEGGER_RTT.c ****     //
1981:Core/Src/SEGGER_RTT.c ****     // Get "to-host" ring buffer.
1982:Core/Src/SEGGER_RTT.c ****     //
1983:Core/Src/SEGGER_RTT.c ****     pRing = (SEGGER_RTT_BUFFER_UP*)((char*)&_SEGGER_RTT.aUp[0] + SEGGER_RTT_UNCACHED_OFF);  // Acce
 3845              		.loc 1 1983 5 is_stmt 1 view .LVU1148
 3846              	.LVL377:
1984:Core/Src/SEGGER_RTT.c ****     //
1985:Core/Src/SEGGER_RTT.c ****     // Need to be able to change terminal, write data, change back.
1986:Core/Src/SEGGER_RTT.c ****     // Compute the fixed and variable sizes.
1987:Core/Src/SEGGER_RTT.c ****     //
1988:Core/Src/SEGGER_RTT.c ****     FragLen = STRLEN(s);
 3847              		.loc 1 1988 5 view .LVU1149
 3848              		.loc 1 1988 15 is_stmt 0 view .LVU1150
 3849 0012 2846     		mov	r0, r5
 3850 0014 FFF7FEFF 		bl	strlen
 3851              	.LVL378:
 3852 0018 8046     		mov	r8, r0
 3853              	.LVL379:
 3854              	.LBB57:
1989:Core/Src/SEGGER_RTT.c ****     //
1990:Core/Src/SEGGER_RTT.c ****     // How we output depends upon the mode...
1991:Core/Src/SEGGER_RTT.c ****     //
1992:Core/Src/SEGGER_RTT.c ****     SEGGER_RTT_LOCK();
 3855              		.loc 1 1992 5 is_stmt 1 view .LVU1151
 3856              		.loc 1 1992 5 view .LVU1152
 3857              		.syntax unified
 3858              	@ 1992 "Core/Src/SEGGER_RTT.c" 1
 3859 001a EFF31186 		mrs   r6, basepri  
 3860 001e 4FF02001 		mov   r1, #32       
 3861 0022 81F31188 		msr   basepri, r1  
 3862              		
 3863              	@ 0 "" 2
 3864              	.LVL380:
ARM GAS  /var/folders/lp/x54gwt890xv47sdkqj1k04q40000gn/T//ccydrndK.s 			page 109


 3865              		.loc 1 1992 22 view .LVU1153
1993:Core/Src/SEGGER_RTT.c ****     Avail = _GetAvailWriteSpace(pRing);
 3866              		.loc 1 1993 5 view .LVU1154
 3867              		.loc 1 1993 13 is_stmt 0 view .LVU1155
 3868              		.thumb
 3869              		.syntax unified
 3870 0026 2F4F     		ldr	r7, .L256+4
 3871              	.LVL381:
 3872              		.loc 1 1993 13 view .LVU1156
 3873 0028 3846     		mov	r0, r7
 3874              	.LVL382:
 3875              		.loc 1 1993 13 view .LVU1157
 3876 002a FFF7FEFF 		bl	_GetAvailWriteSpace
 3877              	.LVL383:
 3878 002e 8146     		mov	r9, r0
 3879              	.LVL384:
1994:Core/Src/SEGGER_RTT.c ****     switch (pRing->Flags & SEGGER_RTT_MODE_MASK) {
 3880              		.loc 1 1994 5 is_stmt 1 view .LVU1158
 3881              		.loc 1 1994 18 is_stmt 0 view .LVU1159
 3882 0030 7B69     		ldr	r3, [r7, #20]
 3883              		.loc 1 1994 26 view .LVU1160
 3884 0032 03F00303 		and	r3, r3, #3
 3885              		.loc 1 1994 5 view .LVU1161
 3886 0036 012B     		cmp	r3, #1
 3887 0038 1CD0     		beq	.L245
 3888 003a 022B     		cmp	r3, #2
 3889 003c 34D0     		beq	.L246
 3890 003e 002B     		cmp	r3, #0
 3891 0040 47D1     		bne	.L249
1995:Core/Src/SEGGER_RTT.c ****     case SEGGER_RTT_MODE_NO_BLOCK_SKIP:
1996:Core/Src/SEGGER_RTT.c ****       //
1997:Core/Src/SEGGER_RTT.c ****       // If we are in skip mode and there is no space for the whole
1998:Core/Src/SEGGER_RTT.c ****       // of this output, don't bother switching terminals at all.
1999:Core/Src/SEGGER_RTT.c ****       //
2000:Core/Src/SEGGER_RTT.c ****       if (Avail < (FragLen + 4u)) {
 3892              		.loc 1 2000 7 is_stmt 1 view .LVU1162
 3893              		.loc 1 2000 28 is_stmt 0 view .LVU1163
 3894 0042 08F10403 		add	r3, r8, #4
 3895              		.loc 1 2000 10 view .LVU1164
 3896 0046 8342     		cmp	r3, r0
 3897 0048 04D9     		bls	.L254
2001:Core/Src/SEGGER_RTT.c ****         Status = 0;
 3898              		.loc 1 2001 16 view .LVU1165
 3899 004a 0024     		movs	r4, #0
 3900              	.LVL385:
 3901              		.loc 1 2001 16 view .LVU1166
 3902 004c 3CE0     		b	.L247
 3903              	.LVL386:
 3904              	.L253:
 3905              		.loc 1 2001 16 view .LVU1167
 3906              	.LBE57:
 3907              	.LBB58:
1975:Core/Src/SEGGER_RTT.c ****   //
 3908              		.loc 1 1975 3 is_stmt 1 discriminator 1 view .LVU1168
 3909 004e FFF7FEFF 		bl	_DoInit
 3910              	.LVL387:
1975:Core/Src/SEGGER_RTT.c ****   //
ARM GAS  /var/folders/lp/x54gwt890xv47sdkqj1k04q40000gn/T//ccydrndK.s 			page 110


 3911              		.loc 1 1975 3 is_stmt 0 discriminator 1 view .LVU1169
 3912 0052 DCE7     		b	.L243
 3913              	.LVL388:
 3914              	.L254:
1975:Core/Src/SEGGER_RTT.c ****   //
 3915              		.loc 1 1975 3 discriminator 1 view .LVU1170
 3916              	.LBE58:
 3917              	.LBB59:
2002:Core/Src/SEGGER_RTT.c ****       } else {
2003:Core/Src/SEGGER_RTT.c ****         _PostTerminalSwitch(pRing, TerminalId);
 3918              		.loc 1 2003 9 is_stmt 1 view .LVU1171
 3919 0054 2146     		mov	r1, r4
 3920 0056 3846     		mov	r0, r7
 3921              	.LVL389:
 3922              		.loc 1 2003 9 is_stmt 0 view .LVU1172
 3923 0058 FFF7FEFF 		bl	_PostTerminalSwitch
 3924              	.LVL390:
2004:Core/Src/SEGGER_RTT.c ****         Status = (int)_WriteBlocking(pRing, s, FragLen);
 3925              		.loc 1 2004 9 is_stmt 1 view .LVU1173
 3926              		.loc 1 2004 23 is_stmt 0 view .LVU1174
 3927 005c 4246     		mov	r2, r8
 3928 005e 2946     		mov	r1, r5
 3929 0060 3846     		mov	r0, r7
 3930 0062 FFF7FEFF 		bl	_WriteBlocking
 3931              	.LVL391:
 3932 0066 0446     		mov	r4, r0
 3933              	.LVL392:
2005:Core/Src/SEGGER_RTT.c ****         _PostTerminalSwitch(pRing, _ActiveTerminal);
 3934              		.loc 1 2005 9 is_stmt 1 view .LVU1175
 3935 0068 1F4B     		ldr	r3, .L256+8
 3936 006a 1978     		ldrb	r1, [r3]	@ zero_extendqisi2
 3937 006c 3846     		mov	r0, r7
 3938              	.LVL393:
 3939              		.loc 1 2005 9 is_stmt 0 view .LVU1176
 3940 006e FFF7FEFF 		bl	_PostTerminalSwitch
 3941              	.LVL394:
 3942 0072 29E0     		b	.L247
 3943              	.LVL395:
 3944              	.L245:
2006:Core/Src/SEGGER_RTT.c ****       }
2007:Core/Src/SEGGER_RTT.c ****       break;
2008:Core/Src/SEGGER_RTT.c ****     case SEGGER_RTT_MODE_NO_BLOCK_TRIM:
2009:Core/Src/SEGGER_RTT.c ****       //
2010:Core/Src/SEGGER_RTT.c ****       // If we are in trim mode and there is not enough space for everything,
2011:Core/Src/SEGGER_RTT.c ****       // trim the output but always include the terminal switch.  If no room
2012:Core/Src/SEGGER_RTT.c ****       // for terminal switch, skip that totally.
2013:Core/Src/SEGGER_RTT.c ****       //
2014:Core/Src/SEGGER_RTT.c ****       if (Avail < 4u) {
 3945              		.loc 1 2014 7 is_stmt 1 view .LVU1177
 3946              		.loc 1 2014 10 is_stmt 0 view .LVU1178
 3947 0074 0328     		cmp	r0, #3
 3948 0076 02D8     		bhi	.L255
2015:Core/Src/SEGGER_RTT.c ****         Status = -1;
 3949              		.loc 1 2015 16 view .LVU1179
 3950 0078 4FF0FF34 		mov	r4, #-1
 3951 007c 24E0     		b	.L247
 3952              	.L255:
ARM GAS  /var/folders/lp/x54gwt890xv47sdkqj1k04q40000gn/T//ccydrndK.s 			page 111


2016:Core/Src/SEGGER_RTT.c ****       } else {
2017:Core/Src/SEGGER_RTT.c ****         _PostTerminalSwitch(pRing, TerminalId);
 3953              		.loc 1 2017 9 is_stmt 1 view .LVU1180
 3954 007e 194F     		ldr	r7, .L256+4
 3955              		.loc 1 2017 9 is_stmt 0 view .LVU1181
 3956 0080 2146     		mov	r1, r4
 3957 0082 3846     		mov	r0, r7
 3958              	.LVL396:
 3959              		.loc 1 2017 9 view .LVU1182
 3960 0084 FFF7FEFF 		bl	_PostTerminalSwitch
 3961              	.LVL397:
2018:Core/Src/SEGGER_RTT.c ****         Status = (int)_WriteBlocking(pRing, s, (FragLen < (Avail - 4u)) ? FragLen : (Avail - 4u));
 3962              		.loc 1 2018 9 is_stmt 1 view .LVU1183
 3963              		.loc 1 2018 66 is_stmt 0 view .LVU1184
 3964 0088 A9F10402 		sub	r2, r9, #4
 3965              		.loc 1 2018 23 view .LVU1185
 3966 008c 4245     		cmp	r2, r8
 3967 008e 28BF     		it	cs
 3968 0090 4246     		movcs	r2, r8
 3969 0092 2946     		mov	r1, r5
 3970 0094 3846     		mov	r0, r7
 3971 0096 FFF7FEFF 		bl	_WriteBlocking
 3972              	.LVL398:
 3973 009a 0446     		mov	r4, r0
 3974              	.LVL399:
2019:Core/Src/SEGGER_RTT.c ****         _PostTerminalSwitch(pRing, _ActiveTerminal);
 3975              		.loc 1 2019 9 is_stmt 1 view .LVU1186
 3976 009c 124B     		ldr	r3, .L256+8
 3977 009e 1978     		ldrb	r1, [r3]	@ zero_extendqisi2
 3978 00a0 3846     		mov	r0, r7
 3979              	.LVL400:
 3980              		.loc 1 2019 9 is_stmt 0 view .LVU1187
 3981 00a2 FFF7FEFF 		bl	_PostTerminalSwitch
 3982              	.LVL401:
 3983 00a6 0FE0     		b	.L247
 3984              	.LVL402:
 3985              	.L246:
2020:Core/Src/SEGGER_RTT.c ****       }
2021:Core/Src/SEGGER_RTT.c ****       break;
2022:Core/Src/SEGGER_RTT.c ****     case SEGGER_RTT_MODE_BLOCK_IF_FIFO_FULL:
2023:Core/Src/SEGGER_RTT.c ****       //
2024:Core/Src/SEGGER_RTT.c ****       // If we are in blocking mode, output everything.
2025:Core/Src/SEGGER_RTT.c ****       //
2026:Core/Src/SEGGER_RTT.c ****       _PostTerminalSwitch(pRing, TerminalId);
 3986              		.loc 1 2026 7 is_stmt 1 view .LVU1188
 3987 00a8 0E4F     		ldr	r7, .L256+4
 3988              		.loc 1 2026 7 is_stmt 0 view .LVU1189
 3989 00aa 2146     		mov	r1, r4
 3990 00ac 3846     		mov	r0, r7
 3991              	.LVL403:
 3992              		.loc 1 2026 7 view .LVU1190
 3993 00ae FFF7FEFF 		bl	_PostTerminalSwitch
 3994              	.LVL404:
2027:Core/Src/SEGGER_RTT.c ****       Status = (int)_WriteBlocking(pRing, s, FragLen);
 3995              		.loc 1 2027 7 is_stmt 1 view .LVU1191
 3996              		.loc 1 2027 21 is_stmt 0 view .LVU1192
 3997 00b2 4246     		mov	r2, r8
ARM GAS  /var/folders/lp/x54gwt890xv47sdkqj1k04q40000gn/T//ccydrndK.s 			page 112


 3998 00b4 2946     		mov	r1, r5
 3999 00b6 3846     		mov	r0, r7
 4000 00b8 FFF7FEFF 		bl	_WriteBlocking
 4001              	.LVL405:
 4002 00bc 0446     		mov	r4, r0
 4003              	.LVL406:
2028:Core/Src/SEGGER_RTT.c ****       _PostTerminalSwitch(pRing, _ActiveTerminal);
 4004              		.loc 1 2028 7 is_stmt 1 view .LVU1193
 4005 00be 0A4B     		ldr	r3, .L256+8
 4006 00c0 1978     		ldrb	r1, [r3]	@ zero_extendqisi2
 4007 00c2 3846     		mov	r0, r7
 4008              	.LVL407:
 4009              		.loc 1 2028 7 is_stmt 0 view .LVU1194
 4010 00c4 FFF7FEFF 		bl	_PostTerminalSwitch
 4011              	.LVL408:
2029:Core/Src/SEGGER_RTT.c ****       break;
 4012              		.loc 1 2029 7 is_stmt 1 view .LVU1195
 4013              	.L247:
2030:Core/Src/SEGGER_RTT.c ****     default:
2031:Core/Src/SEGGER_RTT.c ****       Status = -1;
2032:Core/Src/SEGGER_RTT.c ****       break;
2033:Core/Src/SEGGER_RTT.c ****     }
2034:Core/Src/SEGGER_RTT.c ****     //
2035:Core/Src/SEGGER_RTT.c ****     // Finish up.
2036:Core/Src/SEGGER_RTT.c ****     //
2037:Core/Src/SEGGER_RTT.c ****     SEGGER_RTT_UNLOCK();
 4014              		.loc 1 2037 5 view .LVU1196
 4015              		.syntax unified
 4016              	@ 2037 "Core/Src/SEGGER_RTT.c" 1
 4017 00c8 86F31188 		msr   basepri, r6  
 4018              		
 4019              	@ 0 "" 2
 4020              		.thumb
 4021              		.syntax unified
 4022              	.LBE59:
 4023              		.loc 1 2037 24 view .LVU1197
 4024              	.LVL409:
 4025              	.L242:
2038:Core/Src/SEGGER_RTT.c ****   } else {
2039:Core/Src/SEGGER_RTT.c ****     Status = -1;
2040:Core/Src/SEGGER_RTT.c ****   }
2041:Core/Src/SEGGER_RTT.c ****   return Status;
2042:Core/Src/SEGGER_RTT.c **** }
 4026              		.loc 1 2042 1 is_stmt 0 view .LVU1198
 4027 00cc 2046     		mov	r0, r4
 4028 00ce BDE8F883 		pop	{r3, r4, r5, r6, r7, r8, r9, pc}
 4029              	.LVL410:
 4030              	.L249:
 4031              	.LBB60:
1994:Core/Src/SEGGER_RTT.c ****     case SEGGER_RTT_MODE_NO_BLOCK_SKIP:
 4032              		.loc 1 1994 5 view .LVU1199
 4033 00d2 4FF0FF34 		mov	r4, #-1
 4034 00d6 F7E7     		b	.L247
 4035              	.LVL411:
 4036              	.L248:
1994:Core/Src/SEGGER_RTT.c ****     case SEGGER_RTT_MODE_NO_BLOCK_SKIP:
 4037              		.loc 1 1994 5 view .LVU1200
ARM GAS  /var/folders/lp/x54gwt890xv47sdkqj1k04q40000gn/T//ccydrndK.s 			page 113


 4038              	.LBE60:
2039:Core/Src/SEGGER_RTT.c ****   }
 4039              		.loc 1 2039 12 view .LVU1201
 4040 00d8 4FF0FF34 		mov	r4, #-1
 4041              	.LVL412:
2041:Core/Src/SEGGER_RTT.c **** }
 4042              		.loc 1 2041 3 is_stmt 1 view .LVU1202
2041:Core/Src/SEGGER_RTT.c **** }
 4043              		.loc 1 2041 10 is_stmt 0 view .LVU1203
 4044 00dc F6E7     		b	.L242
 4045              	.L257:
 4046 00de 00BF     		.align	2
 4047              	.L256:
 4048 00e0 00000000 		.word	_SEGGER_RTT
 4049 00e4 18000000 		.word	_SEGGER_RTT+24
 4050 00e8 00000000 		.word	_ActiveTerminal
 4051              		.cfi_endproc
 4052              	.LFE33:
 4054              		.section	.text.SEGGER_RTT_GetAvailWriteSpace,"ax",%progbits
 4055              		.align	1
 4056              		.global	SEGGER_RTT_GetAvailWriteSpace
 4057              		.syntax unified
 4058              		.thumb
 4059              		.thumb_func
 4061              	SEGGER_RTT_GetAvailWriteSpace:
 4062              	.LVL413:
 4063              	.LFB34:
2043:Core/Src/SEGGER_RTT.c **** 
2044:Core/Src/SEGGER_RTT.c **** /*********************************************************************
2045:Core/Src/SEGGER_RTT.c **** *
2046:Core/Src/SEGGER_RTT.c **** *       SEGGER_RTT_GetAvailWriteSpace
2047:Core/Src/SEGGER_RTT.c **** *
2048:Core/Src/SEGGER_RTT.c **** *  Function description
2049:Core/Src/SEGGER_RTT.c **** *    Returns the number of bytes available in the ring buffer.
2050:Core/Src/SEGGER_RTT.c **** *
2051:Core/Src/SEGGER_RTT.c **** *  Parameters
2052:Core/Src/SEGGER_RTT.c **** *    BufferIndex  Index of the up buffer.
2053:Core/Src/SEGGER_RTT.c **** *
2054:Core/Src/SEGGER_RTT.c **** *  Return value
2055:Core/Src/SEGGER_RTT.c **** *    Number of bytes that are free in the selected up buffer.
2056:Core/Src/SEGGER_RTT.c **** */
2057:Core/Src/SEGGER_RTT.c **** unsigned SEGGER_RTT_GetAvailWriteSpace (unsigned BufferIndex) {
 4064              		.loc 1 2057 63 is_stmt 1 view -0
 4065              		.cfi_startproc
 4066              		@ args = 0, pretend = 0, frame = 0
 4067              		@ frame_needed = 0, uses_anonymous_args = 0
 4068              		.loc 1 2057 63 is_stmt 0 view .LVU1205
 4069 0000 08B5     		push	{r3, lr}
 4070              		.cfi_def_cfa_offset 8
 4071              		.cfi_offset 3, -8
 4072              		.cfi_offset 14, -4
2058:Core/Src/SEGGER_RTT.c ****   SEGGER_RTT_BUFFER_UP* pRing;
 4073              		.loc 1 2058 3 is_stmt 1 view .LVU1206
2059:Core/Src/SEGGER_RTT.c **** 
2060:Core/Src/SEGGER_RTT.c ****   pRing = (SEGGER_RTT_BUFFER_UP*)((char*)&_SEGGER_RTT.aUp[BufferIndex] + SEGGER_RTT_UNCACHED_OFF); 
 4074              		.loc 1 2060 3 view .LVU1207
 4075              		.loc 1 2060 9 is_stmt 0 view .LVU1208
ARM GAS  /var/folders/lp/x54gwt890xv47sdkqj1k04q40000gn/T//ccydrndK.s 			page 114


 4076 0002 0130     		adds	r0, r0, #1
 4077              	.LVL414:
 4078              		.loc 1 2060 9 view .LVU1209
 4079 0004 00EB4000 		add	r0, r0, r0, lsl #1
 4080              	.LVL415:
2061:Core/Src/SEGGER_RTT.c ****   return _GetAvailWriteSpace(pRing);
 4081              		.loc 1 2061 3 is_stmt 1 view .LVU1210
 4082              		.loc 1 2061 10 is_stmt 0 view .LVU1211
 4083 0008 024B     		ldr	r3, .L260
 4084 000a 03EBC000 		add	r0, r3, r0, lsl #3
 4085              	.LVL416:
 4086              		.loc 1 2061 10 view .LVU1212
 4087 000e FFF7FEFF 		bl	_GetAvailWriteSpace
 4088              	.LVL417:
2062:Core/Src/SEGGER_RTT.c **** }
 4089              		.loc 1 2062 1 view .LVU1213
 4090 0012 08BD     		pop	{r3, pc}
 4091              	.L261:
 4092              		.align	2
 4093              	.L260:
 4094 0014 00000000 		.word	_SEGGER_RTT
 4095              		.cfi_endproc
 4096              	.LFE34:
 4098              		.section	.text.SEGGER_RTT_GetBytesInBuffer,"ax",%progbits
 4099              		.align	1
 4100              		.global	SEGGER_RTT_GetBytesInBuffer
 4101              		.syntax unified
 4102              		.thumb
 4103              		.thumb_func
 4105              	SEGGER_RTT_GetBytesInBuffer:
 4106              	.LVL418:
 4107              	.LFB35:
2063:Core/Src/SEGGER_RTT.c **** 
2064:Core/Src/SEGGER_RTT.c **** 
2065:Core/Src/SEGGER_RTT.c **** /*********************************************************************
2066:Core/Src/SEGGER_RTT.c **** *
2067:Core/Src/SEGGER_RTT.c **** *       SEGGER_RTT_GetBytesInBuffer()
2068:Core/Src/SEGGER_RTT.c **** *
2069:Core/Src/SEGGER_RTT.c **** *  Function description
2070:Core/Src/SEGGER_RTT.c **** *    Returns the number of bytes currently used in the up buffer.
2071:Core/Src/SEGGER_RTT.c **** *
2072:Core/Src/SEGGER_RTT.c **** *  Parameters
2073:Core/Src/SEGGER_RTT.c **** *    BufferIndex  Index of the up buffer.
2074:Core/Src/SEGGER_RTT.c **** *
2075:Core/Src/SEGGER_RTT.c **** *  Return value
2076:Core/Src/SEGGER_RTT.c **** *    Number of bytes that are used in the buffer.
2077:Core/Src/SEGGER_RTT.c **** */
2078:Core/Src/SEGGER_RTT.c **** unsigned SEGGER_RTT_GetBytesInBuffer(unsigned BufferIndex) {
 4108              		.loc 1 2078 60 is_stmt 1 view -0
 4109              		.cfi_startproc
 4110              		@ args = 0, pretend = 0, frame = 0
 4111              		@ frame_needed = 0, uses_anonymous_args = 0
 4112              		@ link register save eliminated.
2079:Core/Src/SEGGER_RTT.c ****   unsigned RdOff;
 4113              		.loc 1 2079 3 view .LVU1215
2080:Core/Src/SEGGER_RTT.c ****   unsigned WrOff;
 4114              		.loc 1 2080 3 view .LVU1216
ARM GAS  /var/folders/lp/x54gwt890xv47sdkqj1k04q40000gn/T//ccydrndK.s 			page 115


2081:Core/Src/SEGGER_RTT.c ****   unsigned r;
 4115              		.loc 1 2081 3 view .LVU1217
2082:Core/Src/SEGGER_RTT.c ****   volatile SEGGER_RTT_CB* pRTTCB;
 4116              		.loc 1 2082 3 view .LVU1218
2083:Core/Src/SEGGER_RTT.c ****   //
2084:Core/Src/SEGGER_RTT.c ****   // Avoid warnings regarding volatile access order.  It's not a problem
2085:Core/Src/SEGGER_RTT.c ****   // in this case, but dampen compiler enthusiasm.
2086:Core/Src/SEGGER_RTT.c ****   //
2087:Core/Src/SEGGER_RTT.c ****   pRTTCB = (volatile SEGGER_RTT_CB*)((unsigned char*)&_SEGGER_RTT + SEGGER_RTT_UNCACHED_OFF);  // A
 4117              		.loc 1 2087 3 view .LVU1219
2088:Core/Src/SEGGER_RTT.c ****   RdOff = pRTTCB->aUp[BufferIndex].RdOff;
 4118              		.loc 1 2088 3 view .LVU1220
 4119              		.loc 1 2088 9 is_stmt 0 view .LVU1221
 4120 0000 00EB4002 		add	r2, r0, r0, lsl #1
 4121 0004 084B     		ldr	r3, .L265
 4122 0006 03EBC203 		add	r3, r3, r2, lsl #3
 4123 000a 9A6A     		ldr	r2, [r3, #40]
 4124              	.LVL419:
2089:Core/Src/SEGGER_RTT.c ****   WrOff = pRTTCB->aUp[BufferIndex].WrOff;
 4125              		.loc 1 2089 3 is_stmt 1 view .LVU1222
 4126              		.loc 1 2089 9 is_stmt 0 view .LVU1223
 4127 000c 5B6A     		ldr	r3, [r3, #36]
 4128              	.LVL420:
2090:Core/Src/SEGGER_RTT.c ****   if (RdOff <= WrOff) {
 4129              		.loc 1 2090 3 is_stmt 1 view .LVU1224
 4130              		.loc 1 2090 6 is_stmt 0 view .LVU1225
 4131 000e 9A42     		cmp	r2, r3
 4132 0010 01D8     		bhi	.L263
2091:Core/Src/SEGGER_RTT.c ****     r = WrOff - RdOff;
 4133              		.loc 1 2091 5 is_stmt 1 view .LVU1226
 4134              		.loc 1 2091 7 is_stmt 0 view .LVU1227
 4135 0012 981A     		subs	r0, r3, r2
 4136              	.LVL421:
 4137              		.loc 1 2091 7 view .LVU1228
 4138 0014 7047     		bx	lr
 4139              	.LVL422:
 4140              	.L263:
2092:Core/Src/SEGGER_RTT.c ****   } else {
2093:Core/Src/SEGGER_RTT.c ****     r = pRTTCB->aUp[BufferIndex].SizeOfBuffer - (WrOff - RdOff);
 4141              		.loc 1 2093 5 is_stmt 1 view .LVU1229
 4142              		.loc 1 2093 33 is_stmt 0 view .LVU1230
 4143 0016 00EB4000 		add	r0, r0, r0, lsl #1
 4144              	.LVL423:
 4145              		.loc 1 2093 33 view .LVU1231
 4146 001a 0349     		ldr	r1, .L265
 4147 001c 01EBC001 		add	r1, r1, r0, lsl #3
 4148 0020 086A     		ldr	r0, [r1, #32]
 4149              		.loc 1 2093 47 view .LVU1232
 4150 0022 D21A     		subs	r2, r2, r3
 4151              	.LVL424:
 4152              		.loc 1 2093 7 view .LVU1233
 4153 0024 1044     		add	r0, r0, r2
 4154              	.LVL425:
2094:Core/Src/SEGGER_RTT.c ****   }
2095:Core/Src/SEGGER_RTT.c ****   return r;
 4155              		.loc 1 2095 3 is_stmt 1 view .LVU1234
2096:Core/Src/SEGGER_RTT.c **** }
ARM GAS  /var/folders/lp/x54gwt890xv47sdkqj1k04q40000gn/T//ccydrndK.s 			page 116


 4156              		.loc 1 2096 1 is_stmt 0 view .LVU1235
 4157 0026 7047     		bx	lr
 4158              	.L266:
 4159              		.align	2
 4160              	.L265:
 4161 0028 00000000 		.word	_SEGGER_RTT
 4162              		.cfi_endproc
 4163              	.LFE35:
 4165              		.section	.rodata._aInitStr.0,"a"
 4166              		.align	2
 4169              	_aInitStr.0:
 4170 0000 00000000 		.ascii	"\000\000\000\000\000\000TTR REGGES\000"
 4170      00005454 
 4170      52205245 
 4170      47474553 
 4170      00
 4171              		.section	.bss._ActiveTerminal,"aw",%nobits
 4174              	_ActiveTerminal:
 4175 0000 00       		.space	1
 4176              		.section	.bss._acDownBuffer,"aw",%nobits
 4177              		.align	2
 4180              	_acDownBuffer:
 4181 0000 00000000 		.space	16
 4181      00000000 
 4181      00000000 
 4181      00000000 
 4182              		.section	.bss._acUpBuffer,"aw",%nobits
 4183              		.align	2
 4186              	_acUpBuffer:
 4187 0000 00000000 		.space	1024
 4187      00000000 
 4187      00000000 
 4187      00000000 
 4187      00000000 
 4188              		.global	_SEGGER_RTT
 4189              		.section	.bss._SEGGER_RTT,"aw",%nobits
 4190              		.align	2
 4193              	_SEGGER_RTT:
 4194 0000 00000000 		.space	168
 4194      00000000 
 4194      00000000 
 4194      00000000 
 4194      00000000 
 4195              		.section	.rodata._aTerminalId,"a"
 4196              		.align	2
 4199              	_aTerminalId:
 4200 0000 30313233 		.ascii	"0123456789ABCDEF"
 4200      34353637 
 4200      38394142 
 4200      43444546 
 4201              		.text
 4202              	.Letext0:
 4203              		.file 2 "Core/Inc/SEGGER_RTT.h"
 4204              		.file 3 "/Users/jr/Library/Application Support/Code/User/globalStorage/bmd.stm32-for-vscode/@xpack
 4205              		.file 4 "/Users/jr/Library/Application Support/Code/User/globalStorage/bmd.stm32-for-vscode/@xpack
 4206              		.file 5 "<built-in>"
ARM GAS  /var/folders/lp/x54gwt890xv47sdkqj1k04q40000gn/T//ccydrndK.s 			page 117


DEFINED SYMBOLS
                            *ABS*:00000000 SEGGER_RTT.c
/var/folders/lp/x54gwt890xv47sdkqj1k04q40000gn/T//ccydrndK.s:21     .text._GetAvailWriteSpace:00000000 $t
/var/folders/lp/x54gwt890xv47sdkqj1k04q40000gn/T//ccydrndK.s:26     .text._GetAvailWriteSpace:00000000 _GetAvailWriteSpace
/var/folders/lp/x54gwt890xv47sdkqj1k04q40000gn/T//ccydrndK.s:79     .text._WriteNoCheck:00000000 $t
/var/folders/lp/x54gwt890xv47sdkqj1k04q40000gn/T//ccydrndK.s:84     .text._WriteNoCheck:00000000 _WriteNoCheck
/var/folders/lp/x54gwt890xv47sdkqj1k04q40000gn/T//ccydrndK.s:200    .text._WriteBlocking:00000000 $t
/var/folders/lp/x54gwt890xv47sdkqj1k04q40000gn/T//ccydrndK.s:205    .text._WriteBlocking:00000000 _WriteBlocking
/var/folders/lp/x54gwt890xv47sdkqj1k04q40000gn/T//ccydrndK.s:357    .text._PostTerminalSwitch:00000000 $t
/var/folders/lp/x54gwt890xv47sdkqj1k04q40000gn/T//ccydrndK.s:362    .text._PostTerminalSwitch:00000000 _PostTerminalSwitch
/var/folders/lp/x54gwt890xv47sdkqj1k04q40000gn/T//ccydrndK.s:401    .text._PostTerminalSwitch:00000020 $d
/var/folders/lp/x54gwt890xv47sdkqj1k04q40000gn/T//ccydrndK.s:4199   .rodata._aTerminalId:00000000 _aTerminalId
/var/folders/lp/x54gwt890xv47sdkqj1k04q40000gn/T//ccydrndK.s:406    .rodata._DoInit.str1.4:00000000 $d
/var/folders/lp/x54gwt890xv47sdkqj1k04q40000gn/T//ccydrndK.s:410    .text._DoInit:00000000 $t
/var/folders/lp/x54gwt890xv47sdkqj1k04q40000gn/T//ccydrndK.s:415    .text._DoInit:00000000 _DoInit
/var/folders/lp/x54gwt890xv47sdkqj1k04q40000gn/T//ccydrndK.s:531    .text._DoInit:00000058 $d
/var/folders/lp/x54gwt890xv47sdkqj1k04q40000gn/T//ccydrndK.s:4193   .bss._SEGGER_RTT:00000000 _SEGGER_RTT
/var/folders/lp/x54gwt890xv47sdkqj1k04q40000gn/T//ccydrndK.s:4186   .bss._acUpBuffer:00000000 _acUpBuffer
/var/folders/lp/x54gwt890xv47sdkqj1k04q40000gn/T//ccydrndK.s:4180   .bss._acDownBuffer:00000000 _acDownBuffer
/var/folders/lp/x54gwt890xv47sdkqj1k04q40000gn/T//ccydrndK.s:4169   .rodata._aInitStr.0:00000000 _aInitStr.0
/var/folders/lp/x54gwt890xv47sdkqj1k04q40000gn/T//ccydrndK.s:540    .text.SEGGER_RTT_ReadUpBufferNoLock:00000000 $t
/var/folders/lp/x54gwt890xv47sdkqj1k04q40000gn/T//ccydrndK.s:546    .text.SEGGER_RTT_ReadUpBufferNoLock:00000000 SEGGER_RTT_ReadUpBufferNoLock
/var/folders/lp/x54gwt890xv47sdkqj1k04q40000gn/T//ccydrndK.s:739    .text.SEGGER_RTT_ReadUpBufferNoLock:000000a4 $d
/var/folders/lp/x54gwt890xv47sdkqj1k04q40000gn/T//ccydrndK.s:744    .text.SEGGER_RTT_ReadNoLock:00000000 $t
/var/folders/lp/x54gwt890xv47sdkqj1k04q40000gn/T//ccydrndK.s:750    .text.SEGGER_RTT_ReadNoLock:00000000 SEGGER_RTT_ReadNoLock
/var/folders/lp/x54gwt890xv47sdkqj1k04q40000gn/T//ccydrndK.s:940    .text.SEGGER_RTT_ReadNoLock:0000009c $d
/var/folders/lp/x54gwt890xv47sdkqj1k04q40000gn/T//ccydrndK.s:945    .text.SEGGER_RTT_ReadUpBuffer:00000000 $t
/var/folders/lp/x54gwt890xv47sdkqj1k04q40000gn/T//ccydrndK.s:951    .text.SEGGER_RTT_ReadUpBuffer:00000000 SEGGER_RTT_ReadUpBuffer
/var/folders/lp/x54gwt890xv47sdkqj1k04q40000gn/T//ccydrndK.s:1002   .text.SEGGER_RTT_Read:00000000 $t
/var/folders/lp/x54gwt890xv47sdkqj1k04q40000gn/T//ccydrndK.s:1008   .text.SEGGER_RTT_Read:00000000 SEGGER_RTT_Read
/var/folders/lp/x54gwt890xv47sdkqj1k04q40000gn/T//ccydrndK.s:1059   .text.SEGGER_RTT_WriteWithOverwriteNoLock:00000000 $t
/var/folders/lp/x54gwt890xv47sdkqj1k04q40000gn/T//ccydrndK.s:1065   .text.SEGGER_RTT_WriteWithOverwriteNoLock:00000000 SEGGER_RTT_WriteWithOverwriteNoLock
/var/folders/lp/x54gwt890xv47sdkqj1k04q40000gn/T//ccydrndK.s:1319   .text.SEGGER_RTT_WriteWithOverwriteNoLock:00000110 $d
/var/folders/lp/x54gwt890xv47sdkqj1k04q40000gn/T//ccydrndK.s:1324   .text.SEGGER_RTT_WriteDownBufferNoLock:00000000 $t
/var/folders/lp/x54gwt890xv47sdkqj1k04q40000gn/T//ccydrndK.s:1330   .text.SEGGER_RTT_WriteDownBufferNoLock:00000000 SEGGER_RTT_WriteDownBufferNoLock
/var/folders/lp/x54gwt890xv47sdkqj1k04q40000gn/T//ccydrndK.s:1445   .text.SEGGER_RTT_WriteDownBufferNoLock:00000060 $d
/var/folders/lp/x54gwt890xv47sdkqj1k04q40000gn/T//ccydrndK.s:1450   .text.SEGGER_RTT_WriteNoLock:00000000 $t
/var/folders/lp/x54gwt890xv47sdkqj1k04q40000gn/T//ccydrndK.s:1456   .text.SEGGER_RTT_WriteNoLock:00000000 SEGGER_RTT_WriteNoLock
/var/folders/lp/x54gwt890xv47sdkqj1k04q40000gn/T//ccydrndK.s:1572   .text.SEGGER_RTT_WriteNoLock:00000068 $d
/var/folders/lp/x54gwt890xv47sdkqj1k04q40000gn/T//ccydrndK.s:1577   .text.SEGGER_RTT_WriteDownBuffer:00000000 $t
/var/folders/lp/x54gwt890xv47sdkqj1k04q40000gn/T//ccydrndK.s:1583   .text.SEGGER_RTT_WriteDownBuffer:00000000 SEGGER_RTT_WriteDownBuffer
/var/folders/lp/x54gwt890xv47sdkqj1k04q40000gn/T//ccydrndK.s:1662   .text.SEGGER_RTT_WriteDownBuffer:00000030 $d
/var/folders/lp/x54gwt890xv47sdkqj1k04q40000gn/T//ccydrndK.s:1668   .text.SEGGER_RTT_Write:00000000 $t
/var/folders/lp/x54gwt890xv47sdkqj1k04q40000gn/T//ccydrndK.s:1674   .text.SEGGER_RTT_Write:00000000 SEGGER_RTT_Write
/var/folders/lp/x54gwt890xv47sdkqj1k04q40000gn/T//ccydrndK.s:1753   .text.SEGGER_RTT_Write:00000030 $d
/var/folders/lp/x54gwt890xv47sdkqj1k04q40000gn/T//ccydrndK.s:1759   .text.SEGGER_RTT_WriteString:00000000 $t
/var/folders/lp/x54gwt890xv47sdkqj1k04q40000gn/T//ccydrndK.s:1765   .text.SEGGER_RTT_WriteString:00000000 SEGGER_RTT_WriteString
/var/folders/lp/x54gwt890xv47sdkqj1k04q40000gn/T//ccydrndK.s:1807   .text.SEGGER_RTT_PutCharSkipNoLock:00000000 $t
/var/folders/lp/x54gwt890xv47sdkqj1k04q40000gn/T//ccydrndK.s:1813   .text.SEGGER_RTT_PutCharSkipNoLock:00000000 SEGGER_RTT_PutCharSkipNoLock
/var/folders/lp/x54gwt890xv47sdkqj1k04q40000gn/T//ccydrndK.s:1914   .text.SEGGER_RTT_PutCharSkipNoLock:00000050 $d
/var/folders/lp/x54gwt890xv47sdkqj1k04q40000gn/T//ccydrndK.s:1919   .text.SEGGER_RTT_PutCharSkip:00000000 $t
/var/folders/lp/x54gwt890xv47sdkqj1k04q40000gn/T//ccydrndK.s:1925   .text.SEGGER_RTT_PutCharSkip:00000000 SEGGER_RTT_PutCharSkip
/var/folders/lp/x54gwt890xv47sdkqj1k04q40000gn/T//ccydrndK.s:2072   .text.SEGGER_RTT_PutCharSkip:00000070 $d
/var/folders/lp/x54gwt890xv47sdkqj1k04q40000gn/T//ccydrndK.s:2078   .text.SEGGER_RTT_PutChar:00000000 $t
/var/folders/lp/x54gwt890xv47sdkqj1k04q40000gn/T//ccydrndK.s:2084   .text.SEGGER_RTT_PutChar:00000000 SEGGER_RTT_PutChar
/var/folders/lp/x54gwt890xv47sdkqj1k04q40000gn/T//ccydrndK.s:2257   .text.SEGGER_RTT_PutChar:00000098 $d
/var/folders/lp/x54gwt890xv47sdkqj1k04q40000gn/T//ccydrndK.s:2263   .text.SEGGER_RTT_GetKey:00000000 $t
ARM GAS  /var/folders/lp/x54gwt890xv47sdkqj1k04q40000gn/T//ccydrndK.s 			page 118


/var/folders/lp/x54gwt890xv47sdkqj1k04q40000gn/T//ccydrndK.s:2269   .text.SEGGER_RTT_GetKey:00000000 SEGGER_RTT_GetKey
/var/folders/lp/x54gwt890xv47sdkqj1k04q40000gn/T//ccydrndK.s:2317   .text.SEGGER_RTT_WaitKey:00000000 $t
/var/folders/lp/x54gwt890xv47sdkqj1k04q40000gn/T//ccydrndK.s:2323   .text.SEGGER_RTT_WaitKey:00000000 SEGGER_RTT_WaitKey
/var/folders/lp/x54gwt890xv47sdkqj1k04q40000gn/T//ccydrndK.s:2351   .text.SEGGER_RTT_HasKey:00000000 $t
/var/folders/lp/x54gwt890xv47sdkqj1k04q40000gn/T//ccydrndK.s:2357   .text.SEGGER_RTT_HasKey:00000000 SEGGER_RTT_HasKey
/var/folders/lp/x54gwt890xv47sdkqj1k04q40000gn/T//ccydrndK.s:2421   .text.SEGGER_RTT_HasKey:00000020 $d
/var/folders/lp/x54gwt890xv47sdkqj1k04q40000gn/T//ccydrndK.s:2426   .text.SEGGER_RTT_HasData:00000000 $t
/var/folders/lp/x54gwt890xv47sdkqj1k04q40000gn/T//ccydrndK.s:2432   .text.SEGGER_RTT_HasData:00000000 SEGGER_RTT_HasData
/var/folders/lp/x54gwt890xv47sdkqj1k04q40000gn/T//ccydrndK.s:2463   .text.SEGGER_RTT_HasData:0000001c $d
/var/folders/lp/x54gwt890xv47sdkqj1k04q40000gn/T//ccydrndK.s:2468   .text.SEGGER_RTT_HasDataUp:00000000 $t
/var/folders/lp/x54gwt890xv47sdkqj1k04q40000gn/T//ccydrndK.s:2474   .text.SEGGER_RTT_HasDataUp:00000000 SEGGER_RTT_HasDataUp
/var/folders/lp/x54gwt890xv47sdkqj1k04q40000gn/T//ccydrndK.s:2505   .text.SEGGER_RTT_HasDataUp:0000001c $d
/var/folders/lp/x54gwt890xv47sdkqj1k04q40000gn/T//ccydrndK.s:2510   .text.SEGGER_RTT_AllocDownBuffer:00000000 $t
/var/folders/lp/x54gwt890xv47sdkqj1k04q40000gn/T//ccydrndK.s:2516   .text.SEGGER_RTT_AllocDownBuffer:00000000 SEGGER_RTT_AllocDownBuffer
/var/folders/lp/x54gwt890xv47sdkqj1k04q40000gn/T//ccydrndK.s:2668   .text.SEGGER_RTT_AllocDownBuffer:00000074 $d
/var/folders/lp/x54gwt890xv47sdkqj1k04q40000gn/T//ccydrndK.s:2674   .text.SEGGER_RTT_AllocUpBuffer:00000000 $t
/var/folders/lp/x54gwt890xv47sdkqj1k04q40000gn/T//ccydrndK.s:2680   .text.SEGGER_RTT_AllocUpBuffer:00000000 SEGGER_RTT_AllocUpBuffer
/var/folders/lp/x54gwt890xv47sdkqj1k04q40000gn/T//ccydrndK.s:2840   .text.SEGGER_RTT_AllocUpBuffer:00000088 $d
/var/folders/lp/x54gwt890xv47sdkqj1k04q40000gn/T//ccydrndK.s:2846   .text.SEGGER_RTT_ConfigUpBuffer:00000000 $t
/var/folders/lp/x54gwt890xv47sdkqj1k04q40000gn/T//ccydrndK.s:2852   .text.SEGGER_RTT_ConfigUpBuffer:00000000 SEGGER_RTT_ConfigUpBuffer
/var/folders/lp/x54gwt890xv47sdkqj1k04q40000gn/T//ccydrndK.s:2987   .text.SEGGER_RTT_ConfigUpBuffer:0000006c $d
/var/folders/lp/x54gwt890xv47sdkqj1k04q40000gn/T//ccydrndK.s:2992   .text.SEGGER_RTT_ConfigDownBuffer:00000000 $t
/var/folders/lp/x54gwt890xv47sdkqj1k04q40000gn/T//ccydrndK.s:2998   .text.SEGGER_RTT_ConfigDownBuffer:00000000 SEGGER_RTT_ConfigDownBuffer
/var/folders/lp/x54gwt890xv47sdkqj1k04q40000gn/T//ccydrndK.s:3134   .text.SEGGER_RTT_ConfigDownBuffer:0000006c $d
/var/folders/lp/x54gwt890xv47sdkqj1k04q40000gn/T//ccydrndK.s:3139   .text.SEGGER_RTT_SetNameUpBuffer:00000000 $t
/var/folders/lp/x54gwt890xv47sdkqj1k04q40000gn/T//ccydrndK.s:3145   .text.SEGGER_RTT_SetNameUpBuffer:00000000 SEGGER_RTT_SetNameUpBuffer
/var/folders/lp/x54gwt890xv47sdkqj1k04q40000gn/T//ccydrndK.s:3248   .text.SEGGER_RTT_SetNameUpBuffer:0000003c $d
/var/folders/lp/x54gwt890xv47sdkqj1k04q40000gn/T//ccydrndK.s:3253   .text.SEGGER_RTT_SetNameDownBuffer:00000000 $t
/var/folders/lp/x54gwt890xv47sdkqj1k04q40000gn/T//ccydrndK.s:3259   .text.SEGGER_RTT_SetNameDownBuffer:00000000 SEGGER_RTT_SetNameDownBuffer
/var/folders/lp/x54gwt890xv47sdkqj1k04q40000gn/T//ccydrndK.s:3359   .text.SEGGER_RTT_SetNameDownBuffer:0000003c $d
/var/folders/lp/x54gwt890xv47sdkqj1k04q40000gn/T//ccydrndK.s:3364   .text.SEGGER_RTT_SetFlagsUpBuffer:00000000 $t
/var/folders/lp/x54gwt890xv47sdkqj1k04q40000gn/T//ccydrndK.s:3370   .text.SEGGER_RTT_SetFlagsUpBuffer:00000000 SEGGER_RTT_SetFlagsUpBuffer
/var/folders/lp/x54gwt890xv47sdkqj1k04q40000gn/T//ccydrndK.s:3470   .text.SEGGER_RTT_SetFlagsUpBuffer:0000003c $d
/var/folders/lp/x54gwt890xv47sdkqj1k04q40000gn/T//ccydrndK.s:3475   .text.SEGGER_RTT_SetFlagsDownBuffer:00000000 $t
/var/folders/lp/x54gwt890xv47sdkqj1k04q40000gn/T//ccydrndK.s:3481   .text.SEGGER_RTT_SetFlagsDownBuffer:00000000 SEGGER_RTT_SetFlagsDownBuffer
/var/folders/lp/x54gwt890xv47sdkqj1k04q40000gn/T//ccydrndK.s:3581   .text.SEGGER_RTT_SetFlagsDownBuffer:0000003c $d
/var/folders/lp/x54gwt890xv47sdkqj1k04q40000gn/T//ccydrndK.s:3586   .text.SEGGER_RTT_Init:00000000 $t
/var/folders/lp/x54gwt890xv47sdkqj1k04q40000gn/T//ccydrndK.s:3592   .text.SEGGER_RTT_Init:00000000 SEGGER_RTT_Init
/var/folders/lp/x54gwt890xv47sdkqj1k04q40000gn/T//ccydrndK.s:3611   .text.SEGGER_RTT_SetTerminal:00000000 $t
/var/folders/lp/x54gwt890xv47sdkqj1k04q40000gn/T//ccydrndK.s:3617   .text.SEGGER_RTT_SetTerminal:00000000 SEGGER_RTT_SetTerminal
/var/folders/lp/x54gwt890xv47sdkqj1k04q40000gn/T//ccydrndK.s:3789   .text.SEGGER_RTT_SetTerminal:0000007c $d
/var/folders/lp/x54gwt890xv47sdkqj1k04q40000gn/T//ccydrndK.s:4174   .bss._ActiveTerminal:00000000 _ActiveTerminal
/var/folders/lp/x54gwt890xv47sdkqj1k04q40000gn/T//ccydrndK.s:3797   .text.SEGGER_RTT_TerminalOut:00000000 $t
/var/folders/lp/x54gwt890xv47sdkqj1k04q40000gn/T//ccydrndK.s:3803   .text.SEGGER_RTT_TerminalOut:00000000 SEGGER_RTT_TerminalOut
/var/folders/lp/x54gwt890xv47sdkqj1k04q40000gn/T//ccydrndK.s:4048   .text.SEGGER_RTT_TerminalOut:000000e0 $d
/var/folders/lp/x54gwt890xv47sdkqj1k04q40000gn/T//ccydrndK.s:4055   .text.SEGGER_RTT_GetAvailWriteSpace:00000000 $t
/var/folders/lp/x54gwt890xv47sdkqj1k04q40000gn/T//ccydrndK.s:4061   .text.SEGGER_RTT_GetAvailWriteSpace:00000000 SEGGER_RTT_GetAvailWriteSpace
/var/folders/lp/x54gwt890xv47sdkqj1k04q40000gn/T//ccydrndK.s:4094   .text.SEGGER_RTT_GetAvailWriteSpace:00000014 $d
/var/folders/lp/x54gwt890xv47sdkqj1k04q40000gn/T//ccydrndK.s:4099   .text.SEGGER_RTT_GetBytesInBuffer:00000000 $t
/var/folders/lp/x54gwt890xv47sdkqj1k04q40000gn/T//ccydrndK.s:4105   .text.SEGGER_RTT_GetBytesInBuffer:00000000 SEGGER_RTT_GetBytesInBuffer
/var/folders/lp/x54gwt890xv47sdkqj1k04q40000gn/T//ccydrndK.s:4161   .text.SEGGER_RTT_GetBytesInBuffer:00000028 $d
/var/folders/lp/x54gwt890xv47sdkqj1k04q40000gn/T//ccydrndK.s:4166   .rodata._aInitStr.0:00000000 $d
/var/folders/lp/x54gwt890xv47sdkqj1k04q40000gn/T//ccydrndK.s:4175   .bss._ActiveTerminal:00000000 $d
/var/folders/lp/x54gwt890xv47sdkqj1k04q40000gn/T//ccydrndK.s:4177   .bss._acDownBuffer:00000000 $d
/var/folders/lp/x54gwt890xv47sdkqj1k04q40000gn/T//ccydrndK.s:4183   .bss._acUpBuffer:00000000 $d
/var/folders/lp/x54gwt890xv47sdkqj1k04q40000gn/T//ccydrndK.s:4190   .bss._SEGGER_RTT:00000000 $d
/var/folders/lp/x54gwt890xv47sdkqj1k04q40000gn/T//ccydrndK.s:4196   .rodata._aTerminalId:00000000 $d
ARM GAS  /var/folders/lp/x54gwt890xv47sdkqj1k04q40000gn/T//ccydrndK.s 			page 119



UNDEFINED SYMBOLS
memcpy
memset
strlen
