ARM GAS  /var/folders/lp/x54gwt890xv47sdkqj1k04q40000gn/T//ccly3Ev6.s 			page 1


   1              		.cpu cortex-m4
   2              		.arch armv7e-m
   3              		.fpu fpv4-sp-d16
   4              		.eabi_attribute 27, 1
   5              		.eabi_attribute 28, 1
   6              		.eabi_attribute 20, 1
   7              		.eabi_attribute 21, 1
   8              		.eabi_attribute 23, 3
   9              		.eabi_attribute 24, 1
  10              		.eabi_attribute 25, 1
  11              		.eabi_attribute 26, 1
  12              		.eabi_attribute 30, 1
  13              		.eabi_attribute 34, 1
  14              		.eabi_attribute 18, 4
  15              		.file	"UI_LCD.c"
  16              		.text
  17              	.Ltext0:
  18              		.cfi_sections	.debug_frame
  19              		.file 1 "Core/Src/UI_LCD.c"
  20              		.section	.text.lv_scr_act,"ax",%progbits
  21              		.align	1
  22              		.syntax unified
  23              		.thumb
  24              		.thumb_func
  26              	lv_scr_act:
  27              	.LFB161:
  28              		.file 2 "Drivers/lvgl/src/core/lv_disp.h"
   1:Drivers/lvgl/src/core/lv_disp.h **** /**
   2:Drivers/lvgl/src/core/lv_disp.h ****  * @file lv_disp.h
   3:Drivers/lvgl/src/core/lv_disp.h ****  *
   4:Drivers/lvgl/src/core/lv_disp.h ****  */
   5:Drivers/lvgl/src/core/lv_disp.h **** 
   6:Drivers/lvgl/src/core/lv_disp.h **** #ifndef LV_DISP_H
   7:Drivers/lvgl/src/core/lv_disp.h **** #define LV_DISP_H
   8:Drivers/lvgl/src/core/lv_disp.h **** 
   9:Drivers/lvgl/src/core/lv_disp.h **** #ifdef __cplusplus
  10:Drivers/lvgl/src/core/lv_disp.h **** extern "C" {
  11:Drivers/lvgl/src/core/lv_disp.h **** #endif
  12:Drivers/lvgl/src/core/lv_disp.h **** 
  13:Drivers/lvgl/src/core/lv_disp.h **** /*********************
  14:Drivers/lvgl/src/core/lv_disp.h ****  *      INCLUDES
  15:Drivers/lvgl/src/core/lv_disp.h ****  *********************/
  16:Drivers/lvgl/src/core/lv_disp.h **** #include "../hal/lv_hal.h"
  17:Drivers/lvgl/src/core/lv_disp.h **** #include "lv_obj.h"
  18:Drivers/lvgl/src/core/lv_disp.h **** #include "lv_theme.h"
  19:Drivers/lvgl/src/core/lv_disp.h **** 
  20:Drivers/lvgl/src/core/lv_disp.h **** /*********************
  21:Drivers/lvgl/src/core/lv_disp.h ****  *      DEFINES
  22:Drivers/lvgl/src/core/lv_disp.h ****  *********************/
  23:Drivers/lvgl/src/core/lv_disp.h **** 
  24:Drivers/lvgl/src/core/lv_disp.h **** /**********************
  25:Drivers/lvgl/src/core/lv_disp.h ****  *      TYPEDEFS
  26:Drivers/lvgl/src/core/lv_disp.h ****  **********************/
  27:Drivers/lvgl/src/core/lv_disp.h **** 
  28:Drivers/lvgl/src/core/lv_disp.h **** typedef enum {
  29:Drivers/lvgl/src/core/lv_disp.h ****     LV_SCR_LOAD_ANIM_NONE,
  30:Drivers/lvgl/src/core/lv_disp.h ****     LV_SCR_LOAD_ANIM_OVER_LEFT,
ARM GAS  /var/folders/lp/x54gwt890xv47sdkqj1k04q40000gn/T//ccly3Ev6.s 			page 2


  31:Drivers/lvgl/src/core/lv_disp.h ****     LV_SCR_LOAD_ANIM_OVER_RIGHT,
  32:Drivers/lvgl/src/core/lv_disp.h ****     LV_SCR_LOAD_ANIM_OVER_TOP,
  33:Drivers/lvgl/src/core/lv_disp.h ****     LV_SCR_LOAD_ANIM_OVER_BOTTOM,
  34:Drivers/lvgl/src/core/lv_disp.h ****     LV_SCR_LOAD_ANIM_MOVE_LEFT,
  35:Drivers/lvgl/src/core/lv_disp.h ****     LV_SCR_LOAD_ANIM_MOVE_RIGHT,
  36:Drivers/lvgl/src/core/lv_disp.h ****     LV_SCR_LOAD_ANIM_MOVE_TOP,
  37:Drivers/lvgl/src/core/lv_disp.h ****     LV_SCR_LOAD_ANIM_MOVE_BOTTOM,
  38:Drivers/lvgl/src/core/lv_disp.h ****     LV_SCR_LOAD_ANIM_FADE_IN,
  39:Drivers/lvgl/src/core/lv_disp.h ****     LV_SCR_LOAD_ANIM_FADE_ON = LV_SCR_LOAD_ANIM_FADE_IN, /*For backward compatibility*/
  40:Drivers/lvgl/src/core/lv_disp.h ****     LV_SCR_LOAD_ANIM_FADE_OUT,
  41:Drivers/lvgl/src/core/lv_disp.h ****     LV_SCR_LOAD_ANIM_OUT_LEFT,
  42:Drivers/lvgl/src/core/lv_disp.h ****     LV_SCR_LOAD_ANIM_OUT_RIGHT,
  43:Drivers/lvgl/src/core/lv_disp.h ****     LV_SCR_LOAD_ANIM_OUT_TOP,
  44:Drivers/lvgl/src/core/lv_disp.h ****     LV_SCR_LOAD_ANIM_OUT_BOTTOM,
  45:Drivers/lvgl/src/core/lv_disp.h **** } lv_scr_load_anim_t;
  46:Drivers/lvgl/src/core/lv_disp.h **** 
  47:Drivers/lvgl/src/core/lv_disp.h **** /**********************
  48:Drivers/lvgl/src/core/lv_disp.h ****  * GLOBAL PROTOTYPES
  49:Drivers/lvgl/src/core/lv_disp.h ****  **********************/
  50:Drivers/lvgl/src/core/lv_disp.h **** 
  51:Drivers/lvgl/src/core/lv_disp.h **** /**
  52:Drivers/lvgl/src/core/lv_disp.h ****  * Return with a pointer to the active screen
  53:Drivers/lvgl/src/core/lv_disp.h ****  * @param disp pointer to display which active screen should be get. (NULL to use the default
  54:Drivers/lvgl/src/core/lv_disp.h ****  * screen)
  55:Drivers/lvgl/src/core/lv_disp.h ****  * @return pointer to the active screen object (loaded by 'lv_scr_load()')
  56:Drivers/lvgl/src/core/lv_disp.h ****  */
  57:Drivers/lvgl/src/core/lv_disp.h **** lv_obj_t * lv_disp_get_scr_act(lv_disp_t * disp);
  58:Drivers/lvgl/src/core/lv_disp.h **** 
  59:Drivers/lvgl/src/core/lv_disp.h **** /**
  60:Drivers/lvgl/src/core/lv_disp.h ****  * Return with a pointer to the previous screen. Only used during screen transitions.
  61:Drivers/lvgl/src/core/lv_disp.h ****  * @param disp pointer to display which previous screen should be get. (NULL to use the default
  62:Drivers/lvgl/src/core/lv_disp.h ****  * screen)
  63:Drivers/lvgl/src/core/lv_disp.h ****  * @return pointer to the previous screen object or NULL if not used now
  64:Drivers/lvgl/src/core/lv_disp.h ****  */
  65:Drivers/lvgl/src/core/lv_disp.h **** lv_obj_t * lv_disp_get_scr_prev(lv_disp_t * disp);
  66:Drivers/lvgl/src/core/lv_disp.h **** 
  67:Drivers/lvgl/src/core/lv_disp.h **** /**
  68:Drivers/lvgl/src/core/lv_disp.h ****  * Make a screen active
  69:Drivers/lvgl/src/core/lv_disp.h ****  * @param scr pointer to a screen
  70:Drivers/lvgl/src/core/lv_disp.h ****  */
  71:Drivers/lvgl/src/core/lv_disp.h **** void lv_disp_load_scr(lv_obj_t * scr);
  72:Drivers/lvgl/src/core/lv_disp.h **** 
  73:Drivers/lvgl/src/core/lv_disp.h **** /**
  74:Drivers/lvgl/src/core/lv_disp.h ****  * Return with the top layer. (Same on every screen and it is above the normal screen layer)
  75:Drivers/lvgl/src/core/lv_disp.h ****  * @param disp pointer to display which top layer should be get. (NULL to use the default screen)
  76:Drivers/lvgl/src/core/lv_disp.h ****  * @return pointer to the top layer object (transparent screen sized lv_obj)
  77:Drivers/lvgl/src/core/lv_disp.h ****  */
  78:Drivers/lvgl/src/core/lv_disp.h **** lv_obj_t * lv_disp_get_layer_top(lv_disp_t * disp);
  79:Drivers/lvgl/src/core/lv_disp.h **** 
  80:Drivers/lvgl/src/core/lv_disp.h **** /**
  81:Drivers/lvgl/src/core/lv_disp.h ****  * Return with the sys. layer. (Same on every screen and it is above the normal screen and the top
  82:Drivers/lvgl/src/core/lv_disp.h ****  * layer)
  83:Drivers/lvgl/src/core/lv_disp.h ****  * @param disp pointer to display which sys. layer should be retrieved. (NULL to use the default sc
  84:Drivers/lvgl/src/core/lv_disp.h ****  * @return pointer to the sys layer object (transparent screen sized lv_obj)
  85:Drivers/lvgl/src/core/lv_disp.h ****  */
  86:Drivers/lvgl/src/core/lv_disp.h **** lv_obj_t * lv_disp_get_layer_sys(lv_disp_t * disp);
  87:Drivers/lvgl/src/core/lv_disp.h **** 
ARM GAS  /var/folders/lp/x54gwt890xv47sdkqj1k04q40000gn/T//ccly3Ev6.s 			page 3


  88:Drivers/lvgl/src/core/lv_disp.h **** /**
  89:Drivers/lvgl/src/core/lv_disp.h ****  * Set the theme of a display
  90:Drivers/lvgl/src/core/lv_disp.h ****  * @param disp pointer to a display
  91:Drivers/lvgl/src/core/lv_disp.h ****  */
  92:Drivers/lvgl/src/core/lv_disp.h **** void lv_disp_set_theme(lv_disp_t * disp, lv_theme_t * th);
  93:Drivers/lvgl/src/core/lv_disp.h **** 
  94:Drivers/lvgl/src/core/lv_disp.h **** /**
  95:Drivers/lvgl/src/core/lv_disp.h ****  * Get the theme of a display
  96:Drivers/lvgl/src/core/lv_disp.h ****  * @param disp pointer to a display
  97:Drivers/lvgl/src/core/lv_disp.h ****  * @return the display's theme (can be NULL)
  98:Drivers/lvgl/src/core/lv_disp.h ****  */
  99:Drivers/lvgl/src/core/lv_disp.h **** lv_theme_t * lv_disp_get_theme(lv_disp_t * disp);
 100:Drivers/lvgl/src/core/lv_disp.h **** 
 101:Drivers/lvgl/src/core/lv_disp.h **** /**
 102:Drivers/lvgl/src/core/lv_disp.h ****  * Set the background color of a display
 103:Drivers/lvgl/src/core/lv_disp.h ****  * @param disp pointer to a display
 104:Drivers/lvgl/src/core/lv_disp.h ****  * @param color color of the background
 105:Drivers/lvgl/src/core/lv_disp.h ****  */
 106:Drivers/lvgl/src/core/lv_disp.h **** void lv_disp_set_bg_color(lv_disp_t * disp, lv_color_t color);
 107:Drivers/lvgl/src/core/lv_disp.h **** 
 108:Drivers/lvgl/src/core/lv_disp.h **** /**
 109:Drivers/lvgl/src/core/lv_disp.h ****  * Set the background image of a display
 110:Drivers/lvgl/src/core/lv_disp.h ****  * @param disp pointer to a display
 111:Drivers/lvgl/src/core/lv_disp.h ****  * @param img_src path to file or pointer to an `lv_img_dsc_t` variable
 112:Drivers/lvgl/src/core/lv_disp.h ****  */
 113:Drivers/lvgl/src/core/lv_disp.h **** void lv_disp_set_bg_image(lv_disp_t * disp, const void  * img_src);
 114:Drivers/lvgl/src/core/lv_disp.h **** 
 115:Drivers/lvgl/src/core/lv_disp.h **** /**
 116:Drivers/lvgl/src/core/lv_disp.h ****  * Set opacity of the background
 117:Drivers/lvgl/src/core/lv_disp.h ****  * @param disp pointer to a display
 118:Drivers/lvgl/src/core/lv_disp.h ****  * @param opa opacity (0..255)
 119:Drivers/lvgl/src/core/lv_disp.h ****  */
 120:Drivers/lvgl/src/core/lv_disp.h **** void lv_disp_set_bg_opa(lv_disp_t * disp, lv_opa_t opa);
 121:Drivers/lvgl/src/core/lv_disp.h **** 
 122:Drivers/lvgl/src/core/lv_disp.h **** /**
 123:Drivers/lvgl/src/core/lv_disp.h ****  * Switch screen with animation
 124:Drivers/lvgl/src/core/lv_disp.h ****  * @param scr pointer to the new screen to load
 125:Drivers/lvgl/src/core/lv_disp.h ****  * @param anim_type type of the animation from `lv_scr_load_anim_t`, e.g. `LV_SCR_LOAD_ANIM_MOVE_LE
 126:Drivers/lvgl/src/core/lv_disp.h ****  * @param time time of the animation
 127:Drivers/lvgl/src/core/lv_disp.h ****  * @param delay delay before the transition
 128:Drivers/lvgl/src/core/lv_disp.h ****  * @param auto_del true: automatically delete the old screen
 129:Drivers/lvgl/src/core/lv_disp.h ****  */
 130:Drivers/lvgl/src/core/lv_disp.h **** void lv_scr_load_anim(lv_obj_t * scr, lv_scr_load_anim_t anim_type, uint32_t time, uint32_t delay, 
 131:Drivers/lvgl/src/core/lv_disp.h **** 
 132:Drivers/lvgl/src/core/lv_disp.h **** /**
 133:Drivers/lvgl/src/core/lv_disp.h ****  * Get elapsed time since last user activity on a display (e.g. click)
 134:Drivers/lvgl/src/core/lv_disp.h ****  * @param disp pointer to a display (NULL to get the overall smallest inactivity)
 135:Drivers/lvgl/src/core/lv_disp.h ****  * @return elapsed ticks (milliseconds) since the last activity
 136:Drivers/lvgl/src/core/lv_disp.h ****  */
 137:Drivers/lvgl/src/core/lv_disp.h **** uint32_t lv_disp_get_inactive_time(const lv_disp_t * disp);
 138:Drivers/lvgl/src/core/lv_disp.h **** 
 139:Drivers/lvgl/src/core/lv_disp.h **** /**
 140:Drivers/lvgl/src/core/lv_disp.h ****  * Manually trigger an activity on a display
 141:Drivers/lvgl/src/core/lv_disp.h ****  * @param disp pointer to a display (NULL to use the default display)
 142:Drivers/lvgl/src/core/lv_disp.h ****  */
 143:Drivers/lvgl/src/core/lv_disp.h **** void lv_disp_trig_activity(lv_disp_t * disp);
 144:Drivers/lvgl/src/core/lv_disp.h **** 
ARM GAS  /var/folders/lp/x54gwt890xv47sdkqj1k04q40000gn/T//ccly3Ev6.s 			page 4


 145:Drivers/lvgl/src/core/lv_disp.h **** /**
 146:Drivers/lvgl/src/core/lv_disp.h ****  * Clean any CPU cache that is related to the display.
 147:Drivers/lvgl/src/core/lv_disp.h ****  * @param disp pointer to a display (NULL to use the default display)
 148:Drivers/lvgl/src/core/lv_disp.h ****  */
 149:Drivers/lvgl/src/core/lv_disp.h **** void lv_disp_clean_dcache(lv_disp_t * disp);
 150:Drivers/lvgl/src/core/lv_disp.h **** 
 151:Drivers/lvgl/src/core/lv_disp.h **** /**
 152:Drivers/lvgl/src/core/lv_disp.h ****  * Temporarily enable and disable the invalidation of the display.
 153:Drivers/lvgl/src/core/lv_disp.h ****  * @param disp pointer to a display (NULL to use the default display)
 154:Drivers/lvgl/src/core/lv_disp.h ****  * @param en true: enable invalidation; false: invalidation
 155:Drivers/lvgl/src/core/lv_disp.h ****  */
 156:Drivers/lvgl/src/core/lv_disp.h **** void lv_disp_enable_invalidation(lv_disp_t * disp, bool en);
 157:Drivers/lvgl/src/core/lv_disp.h **** 
 158:Drivers/lvgl/src/core/lv_disp.h **** /**
 159:Drivers/lvgl/src/core/lv_disp.h ****  * Get display invalidation is enabled.
 160:Drivers/lvgl/src/core/lv_disp.h ****  * @param disp pointer to a display (NULL to use the default display)
 161:Drivers/lvgl/src/core/lv_disp.h ****  * @return return true if invalidation is enabled
 162:Drivers/lvgl/src/core/lv_disp.h ****  */
 163:Drivers/lvgl/src/core/lv_disp.h **** bool lv_disp_is_invalidation_enabled(lv_disp_t * disp);
 164:Drivers/lvgl/src/core/lv_disp.h **** 
 165:Drivers/lvgl/src/core/lv_disp.h **** /**
 166:Drivers/lvgl/src/core/lv_disp.h ****  * Get a pointer to the screen refresher timer to
 167:Drivers/lvgl/src/core/lv_disp.h ****  * modify its parameters with `lv_timer_...` functions.
 168:Drivers/lvgl/src/core/lv_disp.h ****  * @param disp pointer to a display
 169:Drivers/lvgl/src/core/lv_disp.h ****  * @return pointer to the display refresher timer. (NULL on error)
 170:Drivers/lvgl/src/core/lv_disp.h ****  */
 171:Drivers/lvgl/src/core/lv_disp.h **** lv_timer_t * _lv_disp_get_refr_timer(lv_disp_t * disp);
 172:Drivers/lvgl/src/core/lv_disp.h **** 
 173:Drivers/lvgl/src/core/lv_disp.h **** /*------------------------------------------------
 174:Drivers/lvgl/src/core/lv_disp.h ****  * To improve backward compatibility
 175:Drivers/lvgl/src/core/lv_disp.h ****  * Recommended only if you have one display
 176:Drivers/lvgl/src/core/lv_disp.h ****  *------------------------------------------------*/
 177:Drivers/lvgl/src/core/lv_disp.h **** 
 178:Drivers/lvgl/src/core/lv_disp.h **** /**
 179:Drivers/lvgl/src/core/lv_disp.h ****  * Get the active screen of the default display
 180:Drivers/lvgl/src/core/lv_disp.h ****  * @return pointer to the active screen
 181:Drivers/lvgl/src/core/lv_disp.h ****  */
 182:Drivers/lvgl/src/core/lv_disp.h **** static inline lv_obj_t * lv_scr_act(void)
 183:Drivers/lvgl/src/core/lv_disp.h **** {
  29              		.loc 2 183 1 view -0
  30              		.cfi_startproc
  31              		@ args = 0, pretend = 0, frame = 0
  32              		@ frame_needed = 0, uses_anonymous_args = 0
  33 0000 08B5     		push	{r3, lr}
  34              		.cfi_def_cfa_offset 8
  35              		.cfi_offset 3, -8
  36              		.cfi_offset 14, -4
 184:Drivers/lvgl/src/core/lv_disp.h ****     return lv_disp_get_scr_act(lv_disp_get_default());
  37              		.loc 2 184 5 view .LVU1
  38              		.loc 2 184 12 is_stmt 0 view .LVU2
  39 0002 FFF7FEFF 		bl	lv_disp_get_default
  40              	.LVL0:
  41              		.loc 2 184 12 discriminator 1 view .LVU3
  42 0006 FFF7FEFF 		bl	lv_disp_get_scr_act
  43              	.LVL1:
 185:Drivers/lvgl/src/core/lv_disp.h **** }
  44              		.loc 2 185 1 view .LVU4
ARM GAS  /var/folders/lp/x54gwt890xv47sdkqj1k04q40000gn/T//ccly3Ev6.s 			page 5


  45 000a 08BD     		pop	{r3, pc}
  46              		.cfi_endproc
  47              	.LFE161:
  49              		.section	.rodata.create_arcs.str1.4,"aMS",%progbits,1
  50              		.align	2
  51              	.LC0:
  52 0000 4D455320 		.ascii	"MES MiniSynth\000"
  52      4D696E69 
  52      53796E74 
  52      6800
  53 000e 0000     		.align	2
  54              	.LC1:
  55 0010 76697274 		.ascii	"virtual analog\000"
  55      75616C20 
  55      616E616C 
  55      6F6700
  56 001f 00       		.align	2
  57              	.LC2:
  58 0020 6375746F 		.ascii	"cutoff\000"
  58      666600
  59 0027 00       		.align	2
  60              	.LC3:
  61 0028 64656361 		.ascii	"decay\000"
  61      7900
  62 002e 0000     		.align	2
  63              	.LC4:
  64 0030 64656C61 		.ascii	"delay\000"
  64      7900
  65              		.section	.text.create_arcs,"ax",%progbits
  66              		.align	1
  67              		.global	create_arcs
  68              		.syntax unified
  69              		.thumb
  70              		.thumb_func
  72              	create_arcs:
  73              	.LFB446:
   1:Core/Src/UI_LCD.c **** /**
   2:Core/Src/UI_LCD.c ****  * @file UI_LCD.c
   3:Core/Src/UI_LCD.c ****  * @author johannes regnier
   4:Core/Src/UI_LCD.c ****  * @brief A simple graphical user interface. Basic for now.
   5:Core/Src/UI_LCD.c ****  * @version 0.1
   6:Core/Src/UI_LCD.c ****  * @date 2024-01-08
   7:Core/Src/UI_LCD.c ****  * 
   8:Core/Src/UI_LCD.c ****  * @copyright Copyright (c) 2024
   9:Core/Src/UI_LCD.c ****  * 
  10:Core/Src/UI_LCD.c ****  */
  11:Core/Src/UI_LCD.c **** 
  12:Core/Src/UI_LCD.c **** #include "UI_LCD.h"
  13:Core/Src/UI_LCD.c **** 
  14:Core/Src/UI_LCD.c **** #include "st7789v.h"
  15:Core/Src/UI_LCD.c **** #include "tim.h"
  16:Core/Src/UI_LCD.c **** #include "SEGGER_RTT.h"
  17:Core/Src/UI_LCD.c **** 
  18:Core/Src/UI_LCD.c **** 
  19:Core/Src/UI_LCD.c **** 
  20:Core/Src/UI_LCD.c **** 
  21:Core/Src/UI_LCD.c **** 
ARM GAS  /var/folders/lp/x54gwt890xv47sdkqj1k04q40000gn/T//ccly3Ev6.s 			page 6


  22:Core/Src/UI_LCD.c **** extern float pot1_norm, pot2_norm, pot3_norm;
  23:Core/Src/UI_LCD.c **** extern uint16_t current_count, current_btn;
  24:Core/Src/UI_LCD.c **** extern int8_t enc_diff;
  25:Core/Src/UI_LCD.c **** extern uint8_t btn_pressed;
  26:Core/Src/UI_LCD.c **** 
  27:Core/Src/UI_LCD.c **** lv_obj_t *pot1, *pot2, *pot3, *tabview;
  28:Core/Src/UI_LCD.c **** lv_group_t* g; 
  29:Core/Src/UI_LCD.c **** lv_indev_t * my_indev;
  30:Core/Src/UI_LCD.c **** lv_obj_t * osc_txt;
  31:Core/Src/UI_LCD.c **** 
  32:Core/Src/UI_LCD.c **** /**
  33:Core/Src/UI_LCD.c ****  * @brief Create the 3 arcs displaying the states of the 3 potentiometers, with labels
  34:Core/Src/UI_LCD.c ****  * 
  35:Core/Src/UI_LCD.c ****  */
  36:Core/Src/UI_LCD.c **** void create_arcs(void){
  74              		.loc 1 36 23 is_stmt 1 view -0
  75              		.cfi_startproc
  76              		@ args = 0, pretend = 0, frame = 0
  77              		@ frame_needed = 0, uses_anonymous_args = 0
  78 0000 2DE9F047 		push	{r4, r5, r6, r7, r8, r9, r10, lr}
  79              		.cfi_def_cfa_offset 32
  80              		.cfi_offset 4, -32
  81              		.cfi_offset 5, -28
  82              		.cfi_offset 6, -24
  83              		.cfi_offset 7, -20
  84              		.cfi_offset 8, -16
  85              		.cfi_offset 9, -12
  86              		.cfi_offset 10, -8
  87              		.cfi_offset 14, -4
  88 0004 82B0     		sub	sp, sp, #8
  89              		.cfi_def_cfa_offset 40
  37:Core/Src/UI_LCD.c ****     /* Create text*/
  38:Core/Src/UI_LCD.c ****     lv_obj_t * title = lv_label_create(lv_scr_act());
  90              		.loc 1 38 5 view .LVU6
  91              		.loc 1 38 24 is_stmt 0 view .LVU7
  92 0006 FFF7FEFF 		bl	lv_scr_act
  93              	.LVL2:
  94              		.loc 1 38 24 discriminator 1 view .LVU8
  95 000a FFF7FEFF 		bl	lv_label_create
  96              	.LVL3:
  97 000e 0446     		mov	r4, r0
  98              	.LVL4:
  39:Core/Src/UI_LCD.c ****     lv_label_set_text(title, "MES MiniSynth");
  99              		.loc 1 39 5 is_stmt 1 view .LVU9
 100 0010 6749     		ldr	r1, .L5
 101 0012 FFF7FEFF 		bl	lv_label_set_text
 102              	.LVL5:
  40:Core/Src/UI_LCD.c ****     lv_obj_set_style_text_font(title, &lv_font_montserrat_18, 0);
 103              		.loc 1 40 5 view .LVU10
 104 0016 0022     		movs	r2, #0
 105 0018 6649     		ldr	r1, .L5+4
 106 001a 2046     		mov	r0, r4
 107 001c FFF7FEFF 		bl	lv_obj_set_style_text_font
 108              	.LVL6:
  41:Core/Src/UI_LCD.c ****     lv_obj_set_style_text_align(title, LV_TEXT_ALIGN_CENTER, 0);
 109              		.loc 1 41 5 view .LVU11
 110 0020 0022     		movs	r2, #0
ARM GAS  /var/folders/lp/x54gwt890xv47sdkqj1k04q40000gn/T//ccly3Ev6.s 			page 7


 111 0022 0221     		movs	r1, #2
 112 0024 2046     		mov	r0, r4
 113 0026 FFF7FEFF 		bl	lv_obj_set_style_text_align
 114              	.LVL7:
  42:Core/Src/UI_LCD.c ****     lv_obj_align(title, LV_ALIGN_TOP_MID, 0, 10);
 115              		.loc 1 42 5 view .LVU12
 116 002a 0A23     		movs	r3, #10
 117 002c 0022     		movs	r2, #0
 118 002e 0221     		movs	r1, #2
 119 0030 2046     		mov	r0, r4
 120 0032 FFF7FEFF 		bl	lv_obj_align
 121              	.LVL8:
  43:Core/Src/UI_LCD.c **** 
  44:Core/Src/UI_LCD.c **** 
  45:Core/Src/UI_LCD.c ****      /* Create text*/
  46:Core/Src/UI_LCD.c ****     osc_txt = lv_label_create(lv_scr_act());
 122              		.loc 1 46 5 view .LVU13
 123              		.loc 1 46 15 is_stmt 0 view .LVU14
 124 0036 FFF7FEFF 		bl	lv_scr_act
 125              	.LVL9:
 126              		.loc 1 46 15 discriminator 1 view .LVU15
 127 003a FFF7FEFF 		bl	lv_label_create
 128              	.LVL10:
 129              		.loc 1 46 13 discriminator 2 view .LVU16
 130 003e 5E4C     		ldr	r4, .L5+8
 131              	.LVL11:
 132              		.loc 1 46 13 discriminator 2 view .LVU17
 133 0040 2060     		str	r0, [r4]
  47:Core/Src/UI_LCD.c ****     lv_label_set_text(osc_txt, "virtual analog");
 134              		.loc 1 47 5 is_stmt 1 view .LVU18
 135 0042 5E49     		ldr	r1, .L5+12
 136 0044 FFF7FEFF 		bl	lv_label_set_text
 137              	.LVL12:
  48:Core/Src/UI_LCD.c ****     lv_obj_set_style_text_font(osc_txt, &lv_font_montserrat_16, 0);
 138              		.loc 1 48 5 view .LVU19
 139 0048 0022     		movs	r2, #0
 140 004a 5D49     		ldr	r1, .L5+16
 141 004c 2068     		ldr	r0, [r4]
 142 004e FFF7FEFF 		bl	lv_obj_set_style_text_font
 143              	.LVL13:
  49:Core/Src/UI_LCD.c ****     lv_obj_set_style_text_align(osc_txt, LV_TEXT_ALIGN_CENTER, 0);
 144              		.loc 1 49 5 view .LVU20
 145 0052 0022     		movs	r2, #0
 146 0054 0221     		movs	r1, #2
 147 0056 2068     		ldr	r0, [r4]
 148 0058 FFF7FEFF 		bl	lv_obj_set_style_text_align
 149              	.LVL14:
  50:Core/Src/UI_LCD.c ****     lv_obj_align(osc_txt, LV_ALIGN_TOP_MID, 0, 40);
 150              		.loc 1 50 5 view .LVU21
 151 005c 2823     		movs	r3, #40
 152 005e 0022     		movs	r2, #0
 153 0060 0221     		movs	r1, #2
 154 0062 2068     		ldr	r0, [r4]
 155 0064 FFF7FEFF 		bl	lv_obj_align
 156              	.LVL15:
  51:Core/Src/UI_LCD.c **** 
  52:Core/Src/UI_LCD.c **** 
ARM GAS  /var/folders/lp/x54gwt890xv47sdkqj1k04q40000gn/T//ccly3Ev6.s 			page 8


  53:Core/Src/UI_LCD.c ****     /*Create Arcs for the 3 pots*/
  54:Core/Src/UI_LCD.c ****     pot1 = lv_arc_create(lv_scr_act());
 157              		.loc 1 54 5 view .LVU22
 158              		.loc 1 54 12 is_stmt 0 view .LVU23
 159 0068 FFF7FEFF 		bl	lv_scr_act
 160              	.LVL16:
 161              		.loc 1 54 12 discriminator 1 view .LVU24
 162 006c FFF7FEFF 		bl	lv_arc_create
 163              	.LVL17:
 164              		.loc 1 54 10 discriminator 2 view .LVU25
 165 0070 544E     		ldr	r6, .L5+20
 166 0072 3060     		str	r0, [r6]
  55:Core/Src/UI_LCD.c ****     lv_obj_set_size(pot1, 72, 72);
 167              		.loc 1 55 5 is_stmt 1 view .LVU26
 168 0074 4822     		movs	r2, #72
 169 0076 1146     		mov	r1, r2
 170 0078 FFF7FEFF 		bl	lv_obj_set_size
 171              	.LVL18:
  56:Core/Src/UI_LCD.c **** 	lv_obj_align(pot1, LV_ALIGN_CENTER, -90, -10);
 172              		.loc 1 56 2 view .LVU27
 173 007c 6FF00903 		mvn	r3, #9
 174 0080 6FF05902 		mvn	r2, #89
 175 0084 0921     		movs	r1, #9
 176 0086 3068     		ldr	r0, [r6]
 177 0088 FFF7FEFF 		bl	lv_obj_align
 178              	.LVL19:
  57:Core/Src/UI_LCD.c ****     pot2 = lv_arc_create(lv_scr_act());
 179              		.loc 1 57 5 view .LVU28
 180              		.loc 1 57 12 is_stmt 0 view .LVU29
 181 008c FFF7FEFF 		bl	lv_scr_act
 182              	.LVL20:
 183              		.loc 1 57 12 discriminator 1 view .LVU30
 184 0090 FFF7FEFF 		bl	lv_arc_create
 185              	.LVL21:
 186              		.loc 1 57 10 discriminator 2 view .LVU31
 187 0094 4C4D     		ldr	r5, .L5+24
 188 0096 2860     		str	r0, [r5]
  58:Core/Src/UI_LCD.c ****     lv_obj_set_size(pot2, 72, 72);
 189              		.loc 1 58 5 is_stmt 1 view .LVU32
 190 0098 4822     		movs	r2, #72
 191 009a 1146     		mov	r1, r2
 192 009c FFF7FEFF 		bl	lv_obj_set_size
 193              	.LVL22:
  59:Core/Src/UI_LCD.c **** 	lv_obj_align(pot2, LV_ALIGN_CENTER, 90, -10);
 194              		.loc 1 59 2 view .LVU33
 195 00a0 6FF00903 		mvn	r3, #9
 196 00a4 5A22     		movs	r2, #90
 197 00a6 0921     		movs	r1, #9
 198 00a8 2868     		ldr	r0, [r5]
 199 00aa FFF7FEFF 		bl	lv_obj_align
 200              	.LVL23:
  60:Core/Src/UI_LCD.c ****     pot3 = lv_arc_create(lv_scr_act());
 201              		.loc 1 60 5 view .LVU34
 202              		.loc 1 60 12 is_stmt 0 view .LVU35
 203 00ae FFF7FEFF 		bl	lv_scr_act
 204              	.LVL24:
 205              		.loc 1 60 12 discriminator 1 view .LVU36
ARM GAS  /var/folders/lp/x54gwt890xv47sdkqj1k04q40000gn/T//ccly3Ev6.s 			page 9


 206 00b2 FFF7FEFF 		bl	lv_arc_create
 207              	.LVL25:
 208              		.loc 1 60 10 discriminator 2 view .LVU37
 209 00b6 454C     		ldr	r4, .L5+28
 210 00b8 2060     		str	r0, [r4]
  61:Core/Src/UI_LCD.c ****     lv_obj_set_size(pot3, 72, 72);
 211              		.loc 1 61 5 is_stmt 1 view .LVU38
 212 00ba 4822     		movs	r2, #72
 213 00bc 1146     		mov	r1, r2
 214 00be FFF7FEFF 		bl	lv_obj_set_size
 215              	.LVL26:
  62:Core/Src/UI_LCD.c **** 	lv_obj_align(pot3, LV_ALIGN_CENTER, 0, 65);
 216              		.loc 1 62 2 view .LVU39
 217 00c2 4123     		movs	r3, #65
 218 00c4 0022     		movs	r2, #0
 219 00c6 0921     		movs	r1, #9
 220 00c8 2068     		ldr	r0, [r4]
 221 00ca FFF7FEFF 		bl	lv_obj_align
 222              	.LVL27:
  63:Core/Src/UI_LCD.c ****    
  64:Core/Src/UI_LCD.c ****     lv_arc_set_rotation(pot1, 135);
 223              		.loc 1 64 5 view .LVU40
 224 00ce 8721     		movs	r1, #135
 225 00d0 3068     		ldr	r0, [r6]
 226 00d2 FFF7FEFF 		bl	lv_arc_set_rotation
 227              	.LVL28:
  65:Core/Src/UI_LCD.c ****     lv_arc_set_bg_angles(pot1, 0, 270);
 228              		.loc 1 65 5 view .LVU41
 229 00d6 4FF48772 		mov	r2, #270
 230 00da 0021     		movs	r1, #0
 231 00dc 3068     		ldr	r0, [r6]
 232 00de FFF7FEFF 		bl	lv_arc_set_bg_angles
 233              	.LVL29:
  66:Core/Src/UI_LCD.c ****     lv_arc_set_rotation(pot2, 135);
 234              		.loc 1 66 5 view .LVU42
 235 00e2 8721     		movs	r1, #135
 236 00e4 2868     		ldr	r0, [r5]
 237 00e6 FFF7FEFF 		bl	lv_arc_set_rotation
 238              	.LVL30:
  67:Core/Src/UI_LCD.c ****     lv_arc_set_bg_angles(pot2, 0, 270);
 239              		.loc 1 67 5 view .LVU43
 240 00ea 4FF48772 		mov	r2, #270
 241 00ee 0021     		movs	r1, #0
 242 00f0 2868     		ldr	r0, [r5]
 243 00f2 FFF7FEFF 		bl	lv_arc_set_bg_angles
 244              	.LVL31:
  68:Core/Src/UI_LCD.c ****     lv_arc_set_rotation(pot3, 135);
 245              		.loc 1 68 5 view .LVU44
 246 00f6 8721     		movs	r1, #135
 247 00f8 2068     		ldr	r0, [r4]
 248 00fa FFF7FEFF 		bl	lv_arc_set_rotation
 249              	.LVL32:
  69:Core/Src/UI_LCD.c ****     lv_arc_set_bg_angles(pot3, 0, 270);
 250              		.loc 1 69 5 view .LVU45
 251 00fe 4FF48772 		mov	r2, #270
 252 0102 0021     		movs	r1, #0
 253 0104 2068     		ldr	r0, [r4]
ARM GAS  /var/folders/lp/x54gwt890xv47sdkqj1k04q40000gn/T//ccly3Ev6.s 			page 10


 254 0106 FFF7FEFF 		bl	lv_arc_set_bg_angles
 255              	.LVL33:
  70:Core/Src/UI_LCD.c ****     
  71:Core/Src/UI_LCD.c ****     /*Make them unclickable, and without knob*/
  72:Core/Src/UI_LCD.c ****     lv_obj_remove_style(pot1, NULL, LV_PART_KNOB);
 256              		.loc 1 72 5 view .LVU46
 257 010a 4FF44032 		mov	r2, #196608
 258 010e 0021     		movs	r1, #0
 259 0110 3068     		ldr	r0, [r6]
 260 0112 FFF7FEFF 		bl	lv_obj_remove_style
 261              	.LVL34:
  73:Core/Src/UI_LCD.c ****     lv_obj_clear_flag(pot1, LV_OBJ_FLAG_CLICKABLE);
 262              		.loc 1 73 5 view .LVU47
 263 0116 0221     		movs	r1, #2
 264 0118 3068     		ldr	r0, [r6]
 265 011a FFF7FEFF 		bl	lv_obj_clear_flag
 266              	.LVL35:
  74:Core/Src/UI_LCD.c ****     lv_obj_remove_style(pot2, NULL, LV_PART_KNOB);
 267              		.loc 1 74 5 view .LVU48
 268 011e 4FF44032 		mov	r2, #196608
 269 0122 0021     		movs	r1, #0
 270 0124 2868     		ldr	r0, [r5]
 271 0126 FFF7FEFF 		bl	lv_obj_remove_style
 272              	.LVL36:
  75:Core/Src/UI_LCD.c ****     lv_obj_clear_flag(pot2, LV_OBJ_FLAG_CLICKABLE);
 273              		.loc 1 75 5 view .LVU49
 274 012a 0221     		movs	r1, #2
 275 012c 2868     		ldr	r0, [r5]
 276 012e FFF7FEFF 		bl	lv_obj_clear_flag
 277              	.LVL37:
  76:Core/Src/UI_LCD.c ****     lv_obj_remove_style(pot3, NULL, LV_PART_KNOB);
 278              		.loc 1 76 5 view .LVU50
 279 0132 4FF44032 		mov	r2, #196608
 280 0136 0021     		movs	r1, #0
 281 0138 2068     		ldr	r0, [r4]
 282 013a FFF7FEFF 		bl	lv_obj_remove_style
 283              	.LVL38:
  77:Core/Src/UI_LCD.c ****     lv_obj_clear_flag(pot3, LV_OBJ_FLAG_CLICKABLE);
 284              		.loc 1 77 5 view .LVU51
 285 013e 0221     		movs	r1, #2
 286 0140 2068     		ldr	r0, [r4]
 287 0142 FFF7FEFF 		bl	lv_obj_clear_flag
 288              	.LVL39:
  78:Core/Src/UI_LCD.c ****     
  79:Core/Src/UI_LCD.c **** 
  80:Core/Src/UI_LCD.c ****     // /*Create labels for potentiometers*/
  81:Core/Src/UI_LCD.c ****     lv_obj_t * label1 = lv_label_create(lv_scr_act());
 289              		.loc 1 81 5 view .LVU52
 290              		.loc 1 81 25 is_stmt 0 view .LVU53
 291 0146 FFF7FEFF 		bl	lv_scr_act
 292              	.LVL40:
 293              		.loc 1 81 25 discriminator 1 view .LVU54
 294 014a FFF7FEFF 		bl	lv_label_create
 295              	.LVL41:
 296 014e 8246     		mov	r10, r0
 297              	.LVL42:
  82:Core/Src/UI_LCD.c ****     lv_label_set_text_static(label1, "cutoff");
ARM GAS  /var/folders/lp/x54gwt890xv47sdkqj1k04q40000gn/T//ccly3Ev6.s 			page 11


 298              		.loc 1 82 5 is_stmt 1 view .LVU55
 299 0150 1F49     		ldr	r1, .L5+32
 300 0152 FFF7FEFF 		bl	lv_label_set_text_static
 301              	.LVL43:
  83:Core/Src/UI_LCD.c **** 
  84:Core/Src/UI_LCD.c ****     lv_obj_t * label2 = lv_label_create(lv_scr_act());
 302              		.loc 1 84 5 view .LVU56
 303              		.loc 1 84 25 is_stmt 0 view .LVU57
 304 0156 FFF7FEFF 		bl	lv_scr_act
 305              	.LVL44:
 306              		.loc 1 84 25 discriminator 1 view .LVU58
 307 015a FFF7FEFF 		bl	lv_label_create
 308              	.LVL45:
 309 015e 8146     		mov	r9, r0
 310              	.LVL46:
  85:Core/Src/UI_LCD.c ****     lv_label_set_text_static(label2, "decay");
 311              		.loc 1 85 5 is_stmt 1 view .LVU59
 312 0160 1C49     		ldr	r1, .L5+36
 313 0162 FFF7FEFF 		bl	lv_label_set_text_static
 314              	.LVL47:
  86:Core/Src/UI_LCD.c **** 
  87:Core/Src/UI_LCD.c ****     lv_obj_t * label3 = lv_label_create(lv_scr_act());
 315              		.loc 1 87 5 view .LVU60
 316              		.loc 1 87 25 is_stmt 0 view .LVU61
 317 0166 FFF7FEFF 		bl	lv_scr_act
 318              	.LVL48:
 319              		.loc 1 87 25 discriminator 1 view .LVU62
 320 016a FFF7FEFF 		bl	lv_label_create
 321              	.LVL49:
 322 016e 0746     		mov	r7, r0
 323              	.LVL50:
  88:Core/Src/UI_LCD.c ****     lv_label_set_text_static(label3, "delay");
 324              		.loc 1 88 5 is_stmt 1 view .LVU63
 325 0170 1949     		ldr	r1, .L5+40
 326 0172 FFF7FEFF 		bl	lv_label_set_text_static
 327              	.LVL51:
  89:Core/Src/UI_LCD.c ****     
  90:Core/Src/UI_LCD.c ****     lv_obj_align_to(label1, pot1, LV_ALIGN_BOTTOM_MID, 0, +15);
 328              		.loc 1 90 5 view .LVU64
 329 0176 4FF00F08 		mov	r8, #15
 330 017a CDF80080 		str	r8, [sp]
 331 017e 0023     		movs	r3, #0
 332 0180 0522     		movs	r2, #5
 333 0182 3168     		ldr	r1, [r6]
 334 0184 5046     		mov	r0, r10
 335 0186 FFF7FEFF 		bl	lv_obj_align_to
 336              	.LVL52:
  91:Core/Src/UI_LCD.c ****     lv_obj_align_to(label2, pot2, LV_ALIGN_BOTTOM_MID, 0, +15);
 337              		.loc 1 91 5 view .LVU65
 338 018a CDF80080 		str	r8, [sp]
 339 018e 0023     		movs	r3, #0
 340 0190 0522     		movs	r2, #5
 341 0192 2968     		ldr	r1, [r5]
 342 0194 4846     		mov	r0, r9
 343 0196 FFF7FEFF 		bl	lv_obj_align_to
 344              	.LVL53:
  92:Core/Src/UI_LCD.c ****     lv_obj_align_to(label3, pot3, LV_ALIGN_BOTTOM_MID, 0, +15);
ARM GAS  /var/folders/lp/x54gwt890xv47sdkqj1k04q40000gn/T//ccly3Ev6.s 			page 12


 345              		.loc 1 92 5 view .LVU66
 346 019a CDF80080 		str	r8, [sp]
 347 019e 0023     		movs	r3, #0
 348 01a0 0522     		movs	r2, #5
 349 01a2 2168     		ldr	r1, [r4]
 350 01a4 3846     		mov	r0, r7
 351 01a6 FFF7FEFF 		bl	lv_obj_align_to
 352              	.LVL54:
  93:Core/Src/UI_LCD.c ****     
  94:Core/Src/UI_LCD.c **** }
 353              		.loc 1 94 1 is_stmt 0 view .LVU67
 354 01aa 02B0     		add	sp, sp, #8
 355              		.cfi_def_cfa_offset 32
 356              		@ sp needed
 357 01ac BDE8F087 		pop	{r4, r5, r6, r7, r8, r9, r10, pc}
 358              	.LVL55:
 359              	.L6:
 360              		.loc 1 94 1 view .LVU68
 361              		.align	2
 362              	.L5:
 363 01b0 00000000 		.word	.LC0
 364 01b4 00000000 		.word	lv_font_montserrat_18
 365 01b8 00000000 		.word	osc_txt
 366 01bc 10000000 		.word	.LC1
 367 01c0 00000000 		.word	lv_font_montserrat_16
 368 01c4 00000000 		.word	pot1
 369 01c8 00000000 		.word	pot2
 370 01cc 00000000 		.word	pot3
 371 01d0 20000000 		.word	.LC2
 372 01d4 28000000 		.word	.LC3
 373 01d8 30000000 		.word	.LC4
 374              		.cfi_endproc
 375              	.LFE446:
 377              		.section	.rodata.create_tabs.str1.4,"aMS",%progbits,1
 378              		.align	2
 379              	.LC5:
 380 0000 6F736300 		.ascii	"osc\000"
 381              		.align	2
 382              	.LC6:
 383 0004 66696C74 		.ascii	"filter\000"
 383      657200
 384 000b 00       		.align	2
 385              	.LC7:
 386 000c 7265736F 		.ascii	"resonance\000"
 386      6E616E63 
 386      6500
 387 0016 0000     		.align	2
 388              	.LC8:
 389 0018 5365636F 		.ascii	"Second tab\000"
 389      6E642074 
 389      616200
 390 0023 00       		.align	2
 391              	.LC9:
 392 0024 74696D65 		.ascii	"time\000"
 392      00
 393 0029 000000   		.align	2
 394              	.LC10:
ARM GAS  /var/folders/lp/x54gwt890xv47sdkqj1k04q40000gn/T//ccly3Ev6.s 			page 13


 395 002c 66656564 		.ascii	"feedback\000"
 395      6261636B 
 395      00
 396              		.section	.text.create_tabs,"ax",%progbits
 397              		.align	1
 398              		.global	create_tabs
 399              		.syntax unified
 400              		.thumb
 401              		.thumb_func
 403              	create_tabs:
 404              	.LFB447:
  95:Core/Src/UI_LCD.c **** 
  96:Core/Src/UI_LCD.c **** // TODO: use tabs for oscillators/ filter / amp / fx
  97:Core/Src/UI_LCD.c **** void create_tabs(void){
 405              		.loc 1 97 23 is_stmt 1 view -0
 406              		.cfi_startproc
 407              		@ args = 0, pretend = 0, frame = 0
 408              		@ frame_needed = 0, uses_anonymous_args = 0
 409 0000 2DE9F041 		push	{r4, r5, r6, r7, r8, lr}
 410              		.cfi_def_cfa_offset 24
 411              		.cfi_offset 4, -24
 412              		.cfi_offset 5, -20
 413              		.cfi_offset 6, -16
 414              		.cfi_offset 7, -12
 415              		.cfi_offset 8, -8
 416              		.cfi_offset 14, -4
 417 0004 82B0     		sub	sp, sp, #8
 418              		.cfi_def_cfa_offset 32
  98:Core/Src/UI_LCD.c ****       /*Create a Tab view object*/
  99:Core/Src/UI_LCD.c ****    
 100:Core/Src/UI_LCD.c ****     tabview = lv_tabview_create(lv_scr_act(), LV_DIR_TOP, 40);
 419              		.loc 1 100 5 view .LVU70
 420              		.loc 1 100 15 is_stmt 0 view .LVU71
 421 0006 FFF7FEFF 		bl	lv_scr_act
 422              	.LVL56:
 423              		.loc 1 100 15 discriminator 1 view .LVU72
 424 000a 2822     		movs	r2, #40
 425 000c 0421     		movs	r1, #4
 426 000e FFF7FEFF 		bl	lv_tabview_create
 427              	.LVL57:
 428              		.loc 1 100 13 discriminator 2 view .LVU73
 429 0012 254C     		ldr	r4, .L9
 430 0014 2060     		str	r0, [r4]
 101:Core/Src/UI_LCD.c **** 
 102:Core/Src/UI_LCD.c ****     /*Add 3 tabs (the tabs are page (lv_page) and can be scrolled*/
 103:Core/Src/UI_LCD.c ****     lv_obj_t * tab1 = lv_tabview_add_tab(tabview, "osc");
 431              		.loc 1 103 5 is_stmt 1 view .LVU74
 432              		.loc 1 103 23 is_stmt 0 view .LVU75
 433 0016 2549     		ldr	r1, .L9+4
 434 0018 FFF7FEFF 		bl	lv_tabview_add_tab
 435              	.LVL58:
 436 001c 0546     		mov	r5, r0
 437              	.LVL59:
 104:Core/Src/UI_LCD.c ****     lv_obj_t * tab2 = lv_tabview_add_tab(tabview, "filter");
 438              		.loc 1 104 5 is_stmt 1 view .LVU76
 439              		.loc 1 104 23 is_stmt 0 view .LVU77
 440 001e 2449     		ldr	r1, .L9+8
ARM GAS  /var/folders/lp/x54gwt890xv47sdkqj1k04q40000gn/T//ccly3Ev6.s 			page 14


 441 0020 2068     		ldr	r0, [r4]
 442              	.LVL60:
 443              		.loc 1 104 23 view .LVU78
 444 0022 FFF7FEFF 		bl	lv_tabview_add_tab
 445              	.LVL61:
 446 0026 0646     		mov	r6, r0
 447              	.LVL62:
 105:Core/Src/UI_LCD.c ****     lv_obj_t * tab3 = lv_tabview_add_tab(tabview, "delay");
 448              		.loc 1 105 5 is_stmt 1 view .LVU79
 449              		.loc 1 105 23 is_stmt 0 view .LVU80
 450 0028 2249     		ldr	r1, .L9+12
 451 002a 2068     		ldr	r0, [r4]
 452              	.LVL63:
 453              		.loc 1 105 23 view .LVU81
 454 002c FFF7FEFF 		bl	lv_tabview_add_tab
 455              	.LVL64:
 456 0030 0446     		mov	r4, r0
 457              	.LVL65:
 106:Core/Src/UI_LCD.c **** 
 107:Core/Src/UI_LCD.c ****     /*Add content to the tabs*/
 108:Core/Src/UI_LCD.c ****     lv_obj_t * label1 = lv_label_create(tab1);
 458              		.loc 1 108 5 is_stmt 1 view .LVU82
 459              		.loc 1 108 25 is_stmt 0 view .LVU83
 460 0032 2846     		mov	r0, r5
 461              	.LVL66:
 462              		.loc 1 108 25 view .LVU84
 463 0034 FFF7FEFF 		bl	lv_label_create
 464              	.LVL67:
 465 0038 0746     		mov	r7, r0
 466              	.LVL68:
 109:Core/Src/UI_LCD.c ****     lv_label_set_text_static(label1, "cutoff");
 467              		.loc 1 109 5 is_stmt 1 view .LVU85
 468 003a 1F49     		ldr	r1, .L9+16
 469 003c FFF7FEFF 		bl	lv_label_set_text_static
 470              	.LVL69:
 110:Core/Src/UI_LCD.c **** 
 111:Core/Src/UI_LCD.c ****     lv_obj_t * label2 = lv_label_create(tab1);
 471              		.loc 1 111 5 view .LVU86
 472              		.loc 1 111 25 is_stmt 0 view .LVU87
 473 0040 2846     		mov	r0, r5
 474 0042 FFF7FEFF 		bl	lv_label_create
 475              	.LVL70:
 476 0046 0546     		mov	r5, r0
 477              	.LVL71:
 112:Core/Src/UI_LCD.c ****     lv_label_set_text_static(label2, "resonance");
 478              		.loc 1 112 5 is_stmt 1 view .LVU88
 479 0048 1C49     		ldr	r1, .L9+20
 480 004a FFF7FEFF 		bl	lv_label_set_text_static
 481              	.LVL72:
 113:Core/Src/UI_LCD.c ****     
 114:Core/Src/UI_LCD.c ****     lv_obj_align_to(label1, pot1, LV_ALIGN_BOTTOM_MID, 0, +15);
 482              		.loc 1 114 5 view .LVU89
 483 004e 4FF00F08 		mov	r8, #15
 484 0052 CDF80080 		str	r8, [sp]
 485 0056 0023     		movs	r3, #0
 486 0058 0522     		movs	r2, #5
 487 005a 1949     		ldr	r1, .L9+24
ARM GAS  /var/folders/lp/x54gwt890xv47sdkqj1k04q40000gn/T//ccly3Ev6.s 			page 15


 488 005c 0968     		ldr	r1, [r1]
 489 005e 3846     		mov	r0, r7
 490 0060 FFF7FEFF 		bl	lv_obj_align_to
 491              	.LVL73:
 115:Core/Src/UI_LCD.c ****     lv_obj_align_to(label2, pot2, LV_ALIGN_BOTTOM_MID, 0, +15);;
 492              		.loc 1 115 5 view .LVU90
 493 0064 CDF80080 		str	r8, [sp]
 494 0068 0023     		movs	r3, #0
 495 006a 0522     		movs	r2, #5
 496 006c 1549     		ldr	r1, .L9+28
 497 006e 0968     		ldr	r1, [r1]
 498 0070 2846     		mov	r0, r5
 499 0072 FFF7FEFF 		bl	lv_obj_align_to
 500              	.LVL74:
 501              		.loc 1 115 64 discriminator 1 view .LVU91
 116:Core/Src/UI_LCD.c **** 
 117:Core/Src/UI_LCD.c ****     label1 = lv_label_create(tab2);
 502              		.loc 1 117 5 view .LVU92
 503              		.loc 1 117 14 is_stmt 0 view .LVU93
 504 0076 3046     		mov	r0, r6
 505 0078 FFF7FEFF 		bl	lv_label_create
 506              	.LVL75:
 118:Core/Src/UI_LCD.c ****     lv_label_set_text(label1, "Second tab");
 507              		.loc 1 118 5 is_stmt 1 view .LVU94
 508 007c 1249     		ldr	r1, .L9+32
 509 007e FFF7FEFF 		bl	lv_label_set_text
 510              	.LVL76:
 119:Core/Src/UI_LCD.c **** 
 120:Core/Src/UI_LCD.c ****     label1 = lv_label_create(tab3);
 511              		.loc 1 120 5 view .LVU95
 512              		.loc 1 120 14 is_stmt 0 view .LVU96
 513 0082 2046     		mov	r0, r4
 514 0084 FFF7FEFF 		bl	lv_label_create
 515              	.LVL77:
 516 0088 0546     		mov	r5, r0
 517              	.LVL78:
 121:Core/Src/UI_LCD.c ****     label2 = lv_label_create(tab3);
 518              		.loc 1 121 5 is_stmt 1 view .LVU97
 519              		.loc 1 121 14 is_stmt 0 view .LVU98
 520 008a 2046     		mov	r0, r4
 521              	.LVL79:
 522              		.loc 1 121 14 view .LVU99
 523 008c FFF7FEFF 		bl	lv_label_create
 524              	.LVL80:
 525 0090 0446     		mov	r4, r0
 526              	.LVL81:
 122:Core/Src/UI_LCD.c ****     lv_label_set_text_static(label1, "time");
 527              		.loc 1 122 5 is_stmt 1 view .LVU100
 528 0092 0E49     		ldr	r1, .L9+36
 529 0094 2846     		mov	r0, r5
 530              	.LVL82:
 531              		.loc 1 122 5 is_stmt 0 view .LVU101
 532 0096 FFF7FEFF 		bl	lv_label_set_text_static
 533              	.LVL83:
 123:Core/Src/UI_LCD.c ****     lv_label_set_text_static(label2, "feedback");
 534              		.loc 1 123 5 is_stmt 1 view .LVU102
 535 009a 0D49     		ldr	r1, .L9+40
ARM GAS  /var/folders/lp/x54gwt890xv47sdkqj1k04q40000gn/T//ccly3Ev6.s 			page 16


 536 009c 2046     		mov	r0, r4
 537 009e FFF7FEFF 		bl	lv_label_set_text_static
 538              	.LVL84:
 124:Core/Src/UI_LCD.c **** 
 125:Core/Src/UI_LCD.c ****     
 126:Core/Src/UI_LCD.c **** 
 127:Core/Src/UI_LCD.c **** }
 539              		.loc 1 127 1 is_stmt 0 view .LVU103
 540 00a2 02B0     		add	sp, sp, #8
 541              		.cfi_def_cfa_offset 24
 542              		@ sp needed
 543 00a4 BDE8F081 		pop	{r4, r5, r6, r7, r8, pc}
 544              	.LVL85:
 545              	.L10:
 546              		.loc 1 127 1 view .LVU104
 547              		.align	2
 548              	.L9:
 549 00a8 00000000 		.word	tabview
 550 00ac 00000000 		.word	.LC5
 551 00b0 04000000 		.word	.LC6
 552 00b4 30000000 		.word	.LC4
 553 00b8 20000000 		.word	.LC2
 554 00bc 0C000000 		.word	.LC7
 555 00c0 00000000 		.word	pot1
 556 00c4 00000000 		.word	pot2
 557 00c8 18000000 		.word	.LC8
 558 00cc 24000000 		.word	.LC9
 559 00d0 2C000000 		.word	.LC10
 560              		.cfi_endproc
 561              	.LFE447:
 563              		.section	.text.UI_LCD_init,"ax",%progbits
 564              		.align	1
 565              		.global	UI_LCD_init
 566              		.syntax unified
 567              		.thumb
 568              		.thumb_func
 570              	UI_LCD_init:
 571              	.LFB448:
 128:Core/Src/UI_LCD.c **** 
 129:Core/Src/UI_LCD.c **** // TODO : GUI includes encoder
 130:Core/Src/UI_LCD.c **** 
 131:Core/Src/UI_LCD.c **** // static int32_t encoder_last_value;
 132:Core/Src/UI_LCD.c **** // static lv_indev_state_t encoder_state;
 133:Core/Src/UI_LCD.c **** 
 134:Core/Src/UI_LCD.c **** // static bool encoder_read(lv_indev_drv_t * drv, lv_indev_data_t*data){
 135:Core/Src/UI_LCD.c **** //     static int32_t last_diff = 0;
 136:Core/Src/UI_LCD.c ****     
 137:Core/Src/UI_LCD.c **** 
 138:Core/Src/UI_LCD.c **** //     static int lastBtn;
 139:Core/Src/UI_LCD.c **** //     int btn_state;
 140:Core/Src/UI_LCD.c **** 
 141:Core/Src/UI_LCD.c **** //     if (HAL_GPIO_ReadPin(GPIOB, GPIO_PIN_7) == 0) {
 142:Core/Src/UI_LCD.c **** //         btn_state = LV_INDEV_STATE_PR;
 143:Core/Src/UI_LCD.c **** //     } else {
 144:Core/Src/UI_LCD.c **** //         btn_state = LV_INDEV_STATE_REL;
 145:Core/Src/UI_LCD.c **** //     }
 146:Core/Src/UI_LCD.c **** //     int encoder_value = ((TIM3->CNT)  >> 2);
ARM GAS  /var/folders/lp/x54gwt890xv47sdkqj1k04q40000gn/T//ccly3Ev6.s 			page 17


 147:Core/Src/UI_LCD.c **** //     encoder_state = btn_state;
 148:Core/Src/UI_LCD.c **** //     data->enc_diff = poll_Encoder();
 149:Core/Src/UI_LCD.c **** //     data->state = encoder_state;
 150:Core/Src/UI_LCD.c **** //     encoder_last_value = encoder_value;
 151:Core/Src/UI_LCD.c **** 
 152:Core/Src/UI_LCD.c **** 
 153:Core/Src/UI_LCD.c **** 
 154:Core/Src/UI_LCD.c **** //     // int32_t diff = ((TIM3->CNT) >> 2); // read the rotary encoder position
 155:Core/Src/UI_LCD.c **** //     // int btn_state = 0 ==  HAL_GPIO_ReadPin(GPIOB, GPIO_PIN_7) ? LV_INDEV_STATE_PR : LV_INDEV_
 156:Core/Src/UI_LCD.c **** 
 157:Core/Src/UI_LCD.c **** //     // data->enc_diff = diff - last_diff;;
 158:Core/Src/UI_LCD.c **** //     // data->state = btn_state;
 159:Core/Src/UI_LCD.c ****    
 160:Core/Src/UI_LCD.c **** //     SEGGER_RTT_printf(0, "Encoder diff = %d\r\n", data->enc_diff); // debug
 161:Core/Src/UI_LCD.c **** //     SEGGER_RTT_printf(0, "btn_state = %d\r\n", btn_state); // debug
 162:Core/Src/UI_LCD.c **** 
 163:Core/Src/UI_LCD.c **** //     if (lastBtn != btn_state)
 164:Core/Src/UI_LCD.c **** //     {
 165:Core/Src/UI_LCD.c **** //         lastBtn = btn_state;
 166:Core/Src/UI_LCD.c **** //     }
 167:Core/Src/UI_LCD.c **** 
 168:Core/Src/UI_LCD.c **** //     return false;
 169:Core/Src/UI_LCD.c **** // }
 170:Core/Src/UI_LCD.c **** 
 171:Core/Src/UI_LCD.c **** 
 172:Core/Src/UI_LCD.c **** // static void event_handler(lv_event_t * e)
 173:Core/Src/UI_LCD.c **** // {
 174:Core/Src/UI_LCD.c **** //     lv_event_code_t code = lv_event_get_code(e);
 175:Core/Src/UI_LCD.c **** //     lv_obj_t * obj = lv_event_get_target(e);
 176:Core/Src/UI_LCD.c **** //     if(code == LV_EVENT_VALUE_CHANGED) {
 177:Core/Src/UI_LCD.c **** //         char buf[32];
 178:Core/Src/UI_LCD.c **** //         lv_roller_get_selected_str(obj, buf, sizeof(buf));
 179:Core/Src/UI_LCD.c **** //         LV_LOG_USER("Selected month: %s\n", buf);
 180:Core/Src/UI_LCD.c **** //     }
 181:Core/Src/UI_LCD.c **** // }
 182:Core/Src/UI_LCD.c **** 
 183:Core/Src/UI_LCD.c **** void UI_LCD_init(void){
 572              		.loc 1 183 23 is_stmt 1 view -0
 573              		.cfi_startproc
 574              		@ args = 0, pretend = 0, frame = 0
 575              		@ frame_needed = 0, uses_anonymous_args = 0
 576 0000 08B5     		push	{r3, lr}
 577              		.cfi_def_cfa_offset 8
 578              		.cfi_offset 3, -8
 579              		.cfi_offset 14, -4
 184:Core/Src/UI_LCD.c **** 
 185:Core/Src/UI_LCD.c ****     lv_obj_set_style_bg_color(lv_scr_act(), lv_color_hex(0x003a57), LV_PART_MAIN);
 580              		.loc 1 185 5 view .LVU106
 581              		.loc 1 185 31 is_stmt 0 view .LVU107
 582 0002 FFF7FEFF 		bl	lv_scr_act
 583              	.LVL86:
 584              	.LBB6:
 585              	.LBI6:
 586              		.file 3 "Drivers/lvgl/src/hal/../draw/../misc/lv_color.h"
   1:Drivers/lvgl/src/hal/../draw/../misc/lv_color.h **** /**
   2:Drivers/lvgl/src/hal/../draw/../misc/lv_color.h ****  * @file lv_color.h
   3:Drivers/lvgl/src/hal/../draw/../misc/lv_color.h ****  *
ARM GAS  /var/folders/lp/x54gwt890xv47sdkqj1k04q40000gn/T//ccly3Ev6.s 			page 18


   4:Drivers/lvgl/src/hal/../draw/../misc/lv_color.h ****  */
   5:Drivers/lvgl/src/hal/../draw/../misc/lv_color.h **** 
   6:Drivers/lvgl/src/hal/../draw/../misc/lv_color.h **** #ifndef LV_COLOR_H
   7:Drivers/lvgl/src/hal/../draw/../misc/lv_color.h **** #define LV_COLOR_H
   8:Drivers/lvgl/src/hal/../draw/../misc/lv_color.h **** 
   9:Drivers/lvgl/src/hal/../draw/../misc/lv_color.h **** #ifdef __cplusplus
  10:Drivers/lvgl/src/hal/../draw/../misc/lv_color.h **** extern "C" {
  11:Drivers/lvgl/src/hal/../draw/../misc/lv_color.h **** #endif
  12:Drivers/lvgl/src/hal/../draw/../misc/lv_color.h **** 
  13:Drivers/lvgl/src/hal/../draw/../misc/lv_color.h **** /*********************
  14:Drivers/lvgl/src/hal/../draw/../misc/lv_color.h ****  *      INCLUDES
  15:Drivers/lvgl/src/hal/../draw/../misc/lv_color.h ****  *********************/
  16:Drivers/lvgl/src/hal/../draw/../misc/lv_color.h **** #include "../lv_conf_internal.h"
  17:Drivers/lvgl/src/hal/../draw/../misc/lv_color.h **** #include "lv_assert.h"
  18:Drivers/lvgl/src/hal/../draw/../misc/lv_color.h **** #include "lv_math.h"
  19:Drivers/lvgl/src/hal/../draw/../misc/lv_color.h **** #include "lv_types.h"
  20:Drivers/lvgl/src/hal/../draw/../misc/lv_color.h **** 
  21:Drivers/lvgl/src/hal/../draw/../misc/lv_color.h **** /*Error checking*/
  22:Drivers/lvgl/src/hal/../draw/../misc/lv_color.h **** #if LV_COLOR_DEPTH == 24
  23:Drivers/lvgl/src/hal/../draw/../misc/lv_color.h **** #error "LV_COLOR_DEPTH 24 is deprecated. Use LV_COLOR_DEPTH 32 instead (lv_conf.h)"
  24:Drivers/lvgl/src/hal/../draw/../misc/lv_color.h **** #endif
  25:Drivers/lvgl/src/hal/../draw/../misc/lv_color.h **** 
  26:Drivers/lvgl/src/hal/../draw/../misc/lv_color.h **** #if LV_COLOR_DEPTH != 16 && LV_COLOR_16_SWAP != 0
  27:Drivers/lvgl/src/hal/../draw/../misc/lv_color.h **** #error "LV_COLOR_16_SWAP requires LV_COLOR_DEPTH == 16. Set it in lv_conf.h"
  28:Drivers/lvgl/src/hal/../draw/../misc/lv_color.h **** #endif
  29:Drivers/lvgl/src/hal/../draw/../misc/lv_color.h **** 
  30:Drivers/lvgl/src/hal/../draw/../misc/lv_color.h **** #include <stdint.h>
  31:Drivers/lvgl/src/hal/../draw/../misc/lv_color.h **** 
  32:Drivers/lvgl/src/hal/../draw/../misc/lv_color.h **** /*********************
  33:Drivers/lvgl/src/hal/../draw/../misc/lv_color.h ****  *      DEFINES
  34:Drivers/lvgl/src/hal/../draw/../misc/lv_color.h ****  *********************/
  35:Drivers/lvgl/src/hal/../draw/../misc/lv_color.h **** LV_EXPORT_CONST_INT(LV_COLOR_DEPTH);
  36:Drivers/lvgl/src/hal/../draw/../misc/lv_color.h **** LV_EXPORT_CONST_INT(LV_COLOR_16_SWAP);
  37:Drivers/lvgl/src/hal/../draw/../misc/lv_color.h **** 
  38:Drivers/lvgl/src/hal/../draw/../misc/lv_color.h **** /**
  39:Drivers/lvgl/src/hal/../draw/../misc/lv_color.h ****  * Opacity percentages.
  40:Drivers/lvgl/src/hal/../draw/../misc/lv_color.h ****  */
  41:Drivers/lvgl/src/hal/../draw/../misc/lv_color.h **** enum {
  42:Drivers/lvgl/src/hal/../draw/../misc/lv_color.h ****     LV_OPA_TRANSP = 0,
  43:Drivers/lvgl/src/hal/../draw/../misc/lv_color.h ****     LV_OPA_0      = 0,
  44:Drivers/lvgl/src/hal/../draw/../misc/lv_color.h ****     LV_OPA_10     = 25,
  45:Drivers/lvgl/src/hal/../draw/../misc/lv_color.h ****     LV_OPA_20     = 51,
  46:Drivers/lvgl/src/hal/../draw/../misc/lv_color.h ****     LV_OPA_30     = 76,
  47:Drivers/lvgl/src/hal/../draw/../misc/lv_color.h ****     LV_OPA_40     = 102,
  48:Drivers/lvgl/src/hal/../draw/../misc/lv_color.h ****     LV_OPA_50     = 127,
  49:Drivers/lvgl/src/hal/../draw/../misc/lv_color.h ****     LV_OPA_60     = 153,
  50:Drivers/lvgl/src/hal/../draw/../misc/lv_color.h ****     LV_OPA_70     = 178,
  51:Drivers/lvgl/src/hal/../draw/../misc/lv_color.h ****     LV_OPA_80     = 204,
  52:Drivers/lvgl/src/hal/../draw/../misc/lv_color.h ****     LV_OPA_90     = 229,
  53:Drivers/lvgl/src/hal/../draw/../misc/lv_color.h ****     LV_OPA_100    = 255,
  54:Drivers/lvgl/src/hal/../draw/../misc/lv_color.h ****     LV_OPA_COVER  = 255,
  55:Drivers/lvgl/src/hal/../draw/../misc/lv_color.h **** };
  56:Drivers/lvgl/src/hal/../draw/../misc/lv_color.h **** 
  57:Drivers/lvgl/src/hal/../draw/../misc/lv_color.h **** #define LV_OPA_MIN 2    /*Opacities below this will be transparent*/
  58:Drivers/lvgl/src/hal/../draw/../misc/lv_color.h **** #define LV_OPA_MAX 253  /*Opacities above this will fully cover*/
  59:Drivers/lvgl/src/hal/../draw/../misc/lv_color.h **** 
  60:Drivers/lvgl/src/hal/../draw/../misc/lv_color.h **** #if LV_COLOR_DEPTH == 1
ARM GAS  /var/folders/lp/x54gwt890xv47sdkqj1k04q40000gn/T//ccly3Ev6.s 			page 19


  61:Drivers/lvgl/src/hal/../draw/../misc/lv_color.h **** #define LV_COLOR_SIZE 8
  62:Drivers/lvgl/src/hal/../draw/../misc/lv_color.h **** #elif LV_COLOR_DEPTH == 8
  63:Drivers/lvgl/src/hal/../draw/../misc/lv_color.h **** #define LV_COLOR_SIZE 8
  64:Drivers/lvgl/src/hal/../draw/../misc/lv_color.h **** #elif LV_COLOR_DEPTH == 16
  65:Drivers/lvgl/src/hal/../draw/../misc/lv_color.h **** #define LV_COLOR_SIZE 16
  66:Drivers/lvgl/src/hal/../draw/../misc/lv_color.h **** #elif LV_COLOR_DEPTH == 32
  67:Drivers/lvgl/src/hal/../draw/../misc/lv_color.h **** #define LV_COLOR_SIZE 32
  68:Drivers/lvgl/src/hal/../draw/../misc/lv_color.h **** #else
  69:Drivers/lvgl/src/hal/../draw/../misc/lv_color.h **** #error "Invalid LV_COLOR_DEPTH in lv_conf.h! Set it to 1, 8, 16 or 32!"
  70:Drivers/lvgl/src/hal/../draw/../misc/lv_color.h **** #endif
  71:Drivers/lvgl/src/hal/../draw/../misc/lv_color.h **** 
  72:Drivers/lvgl/src/hal/../draw/../misc/lv_color.h **** #if defined(__cplusplus) && !defined(_LV_COLOR_HAS_MODERN_CPP)
  73:Drivers/lvgl/src/hal/../draw/../misc/lv_color.h **** /**
  74:Drivers/lvgl/src/hal/../draw/../misc/lv_color.h **** * MSVC compiler's definition of the __cplusplus indicating 199711L regardless to C++ standard versi
  75:Drivers/lvgl/src/hal/../draw/../misc/lv_color.h **** * see https://devblogs.microsoft.com/cppblog/msvc-now-correctly-reports-cplusplus
  76:Drivers/lvgl/src/hal/../draw/../misc/lv_color.h **** * so we use _MSC_VER macro instead of __cplusplus
  77:Drivers/lvgl/src/hal/../draw/../misc/lv_color.h **** */
  78:Drivers/lvgl/src/hal/../draw/../misc/lv_color.h **** #ifdef _MSC_VER
  79:Drivers/lvgl/src/hal/../draw/../misc/lv_color.h **** #if _MSC_VER >= 1900 /*Visual Studio 2015*/
  80:Drivers/lvgl/src/hal/../draw/../misc/lv_color.h **** #define _LV_COLOR_HAS_MODERN_CPP 1
  81:Drivers/lvgl/src/hal/../draw/../misc/lv_color.h **** #endif
  82:Drivers/lvgl/src/hal/../draw/../misc/lv_color.h **** #else
  83:Drivers/lvgl/src/hal/../draw/../misc/lv_color.h **** #if __cplusplus >= 201103L
  84:Drivers/lvgl/src/hal/../draw/../misc/lv_color.h **** #define _LV_COLOR_HAS_MODERN_CPP 1
  85:Drivers/lvgl/src/hal/../draw/../misc/lv_color.h **** #endif
  86:Drivers/lvgl/src/hal/../draw/../misc/lv_color.h **** #endif
  87:Drivers/lvgl/src/hal/../draw/../misc/lv_color.h **** #endif /*__cplusplus*/
  88:Drivers/lvgl/src/hal/../draw/../misc/lv_color.h **** 
  89:Drivers/lvgl/src/hal/../draw/../misc/lv_color.h **** #ifndef _LV_COLOR_HAS_MODERN_CPP
  90:Drivers/lvgl/src/hal/../draw/../misc/lv_color.h **** #define _LV_COLOR_HAS_MODERN_CPP 0
  91:Drivers/lvgl/src/hal/../draw/../misc/lv_color.h **** #endif
  92:Drivers/lvgl/src/hal/../draw/../misc/lv_color.h **** 
  93:Drivers/lvgl/src/hal/../draw/../misc/lv_color.h **** #if _LV_COLOR_HAS_MODERN_CPP
  94:Drivers/lvgl/src/hal/../draw/../misc/lv_color.h **** /*Fix msvc compiler error C4576 inside C++ code*/
  95:Drivers/lvgl/src/hal/../draw/../misc/lv_color.h **** #define _LV_COLOR_MAKE_TYPE_HELPER lv_color_t
  96:Drivers/lvgl/src/hal/../draw/../misc/lv_color.h **** #else
  97:Drivers/lvgl/src/hal/../draw/../misc/lv_color.h **** #define _LV_COLOR_MAKE_TYPE_HELPER (lv_color_t)
  98:Drivers/lvgl/src/hal/../draw/../misc/lv_color.h **** #endif
  99:Drivers/lvgl/src/hal/../draw/../misc/lv_color.h **** 
 100:Drivers/lvgl/src/hal/../draw/../misc/lv_color.h **** /*---------------------------------------
 101:Drivers/lvgl/src/hal/../draw/../misc/lv_color.h ****  * Macros for all existing color depths
 102:Drivers/lvgl/src/hal/../draw/../misc/lv_color.h ****  * to set/get values of the color channels
 103:Drivers/lvgl/src/hal/../draw/../misc/lv_color.h ****  *------------------------------------------*/
 104:Drivers/lvgl/src/hal/../draw/../misc/lv_color.h **** # define LV_COLOR_SET_R1(c, v) (c).ch.red = (uint8_t)((v) & 0x1)
 105:Drivers/lvgl/src/hal/../draw/../misc/lv_color.h **** # define LV_COLOR_SET_G1(c, v) (c).ch.green = (uint8_t)((v) & 0x1)
 106:Drivers/lvgl/src/hal/../draw/../misc/lv_color.h **** # define LV_COLOR_SET_B1(c, v) (c).ch.blue = (uint8_t)((v) & 0x1)
 107:Drivers/lvgl/src/hal/../draw/../misc/lv_color.h **** # define LV_COLOR_SET_A1(c, v) do {} while(0)
 108:Drivers/lvgl/src/hal/../draw/../misc/lv_color.h **** 
 109:Drivers/lvgl/src/hal/../draw/../misc/lv_color.h **** # define LV_COLOR_GET_R1(c) (c).ch.red
 110:Drivers/lvgl/src/hal/../draw/../misc/lv_color.h **** # define LV_COLOR_GET_G1(c) (c).ch.green
 111:Drivers/lvgl/src/hal/../draw/../misc/lv_color.h **** # define LV_COLOR_GET_B1(c) (c).ch.blue
 112:Drivers/lvgl/src/hal/../draw/../misc/lv_color.h **** # define LV_COLOR_GET_A1(c) 0xFF
 113:Drivers/lvgl/src/hal/../draw/../misc/lv_color.h **** 
 114:Drivers/lvgl/src/hal/../draw/../misc/lv_color.h **** # define _LV_COLOR_ZERO_INITIALIZER1 {0x00}
 115:Drivers/lvgl/src/hal/../draw/../misc/lv_color.h **** # define LV_COLOR_MAKE1(r8, g8, b8)  {(uint8_t)((b8 >> 7) | (g8 >> 7) | (r8 >> 7))}
 116:Drivers/lvgl/src/hal/../draw/../misc/lv_color.h **** 
 117:Drivers/lvgl/src/hal/../draw/../misc/lv_color.h **** # define LV_COLOR_SET_R8(c, v) (c).ch.red = (uint8_t)((v) & 0x7U)
ARM GAS  /var/folders/lp/x54gwt890xv47sdkqj1k04q40000gn/T//ccly3Ev6.s 			page 20


 118:Drivers/lvgl/src/hal/../draw/../misc/lv_color.h **** # define LV_COLOR_SET_G8(c, v) (c).ch.green = (uint8_t)((v) & 0x7U)
 119:Drivers/lvgl/src/hal/../draw/../misc/lv_color.h **** # define LV_COLOR_SET_B8(c, v) (c).ch.blue = (uint8_t)((v) & 0x3U)
 120:Drivers/lvgl/src/hal/../draw/../misc/lv_color.h **** # define LV_COLOR_SET_A8(c, v) do {} while(0)
 121:Drivers/lvgl/src/hal/../draw/../misc/lv_color.h **** 
 122:Drivers/lvgl/src/hal/../draw/../misc/lv_color.h **** # define LV_COLOR_GET_R8(c) (c).ch.red
 123:Drivers/lvgl/src/hal/../draw/../misc/lv_color.h **** # define LV_COLOR_GET_G8(c) (c).ch.green
 124:Drivers/lvgl/src/hal/../draw/../misc/lv_color.h **** # define LV_COLOR_GET_B8(c) (c).ch.blue
 125:Drivers/lvgl/src/hal/../draw/../misc/lv_color.h **** # define LV_COLOR_GET_A8(c) 0xFF
 126:Drivers/lvgl/src/hal/../draw/../misc/lv_color.h **** 
 127:Drivers/lvgl/src/hal/../draw/../misc/lv_color.h **** # define _LV_COLOR_ZERO_INITIALIZER8 {{0x00, 0x00, 0x00}}
 128:Drivers/lvgl/src/hal/../draw/../misc/lv_color.h **** # define LV_COLOR_MAKE8(r8, g8, b8) {{(uint8_t)((b8 >> 6) & 0x3U), (uint8_t)((g8 >> 5) & 0x7U), (ui
 129:Drivers/lvgl/src/hal/../draw/../misc/lv_color.h **** 
 130:Drivers/lvgl/src/hal/../draw/../misc/lv_color.h **** # define LV_COLOR_SET_R16(c, v) (c).ch.red = (uint8_t)((v) & 0x1FU)
 131:Drivers/lvgl/src/hal/../draw/../misc/lv_color.h **** #if LV_COLOR_16_SWAP == 0
 132:Drivers/lvgl/src/hal/../draw/../misc/lv_color.h **** # define LV_COLOR_SET_G16(c, v) (c).ch.green = (uint8_t)((v) & 0x3FU)
 133:Drivers/lvgl/src/hal/../draw/../misc/lv_color.h **** #else
 134:Drivers/lvgl/src/hal/../draw/../misc/lv_color.h **** # define LV_COLOR_SET_G16(c, v) {(c).ch.green_h = (uint8_t)(((v) >> 3) & 0x7); (c).ch.green_l = (ui
 135:Drivers/lvgl/src/hal/../draw/../misc/lv_color.h **** #endif
 136:Drivers/lvgl/src/hal/../draw/../misc/lv_color.h **** # define LV_COLOR_SET_B16(c, v) (c).ch.blue = (uint8_t)((v) & 0x1FU)
 137:Drivers/lvgl/src/hal/../draw/../misc/lv_color.h **** # define LV_COLOR_SET_A16(c, v) do {} while(0)
 138:Drivers/lvgl/src/hal/../draw/../misc/lv_color.h **** 
 139:Drivers/lvgl/src/hal/../draw/../misc/lv_color.h **** # define LV_COLOR_GET_R16(c) (c).ch.red
 140:Drivers/lvgl/src/hal/../draw/../misc/lv_color.h **** #if LV_COLOR_16_SWAP == 0
 141:Drivers/lvgl/src/hal/../draw/../misc/lv_color.h **** # define LV_COLOR_GET_G16(c) (c).ch.green
 142:Drivers/lvgl/src/hal/../draw/../misc/lv_color.h **** #else
 143:Drivers/lvgl/src/hal/../draw/../misc/lv_color.h **** # define LV_COLOR_GET_G16(c) (((c).ch.green_h << 3) + (c).ch.green_l)
 144:Drivers/lvgl/src/hal/../draw/../misc/lv_color.h **** #endif
 145:Drivers/lvgl/src/hal/../draw/../misc/lv_color.h **** # define LV_COLOR_GET_B16(c) (c).ch.blue
 146:Drivers/lvgl/src/hal/../draw/../misc/lv_color.h **** # define LV_COLOR_GET_A16(c) 0xFF
 147:Drivers/lvgl/src/hal/../draw/../misc/lv_color.h **** 
 148:Drivers/lvgl/src/hal/../draw/../misc/lv_color.h **** #if LV_COLOR_16_SWAP == 0
 149:Drivers/lvgl/src/hal/../draw/../misc/lv_color.h **** # define _LV_COLOR_ZERO_INITIALIZER16  {{0x00, 0x00, 0x00}}
 150:Drivers/lvgl/src/hal/../draw/../misc/lv_color.h **** # define LV_COLOR_MAKE16(r8, g8, b8) {{(uint8_t)((b8 >> 3) & 0x1FU), (uint8_t)((g8 >> 2) & 0x3FU), 
 151:Drivers/lvgl/src/hal/../draw/../misc/lv_color.h **** #else
 152:Drivers/lvgl/src/hal/../draw/../misc/lv_color.h **** # define _LV_COLOR_ZERO_INITIALIZER16 {{0x00, 0x00, 0x00, 0x00}}
 153:Drivers/lvgl/src/hal/../draw/../misc/lv_color.h **** # define LV_COLOR_MAKE16(r8, g8, b8) {{(uint8_t)((g8 >> 5) & 0x7U), (uint8_t)((r8 >> 3) & 0x1FU), (
 154:Drivers/lvgl/src/hal/../draw/../misc/lv_color.h **** #endif
 155:Drivers/lvgl/src/hal/../draw/../misc/lv_color.h **** 
 156:Drivers/lvgl/src/hal/../draw/../misc/lv_color.h **** # define LV_COLOR_SET_R32(c, v) (c).ch.red = (uint8_t)((v) & 0xFF)
 157:Drivers/lvgl/src/hal/../draw/../misc/lv_color.h **** # define LV_COLOR_SET_G32(c, v) (c).ch.green = (uint8_t)((v) & 0xFF)
 158:Drivers/lvgl/src/hal/../draw/../misc/lv_color.h **** # define LV_COLOR_SET_B32(c, v) (c).ch.blue = (uint8_t)((v) & 0xFF)
 159:Drivers/lvgl/src/hal/../draw/../misc/lv_color.h **** # define LV_COLOR_SET_A32(c, v) (c).ch.alpha = (uint8_t)((v) & 0xFF)
 160:Drivers/lvgl/src/hal/../draw/../misc/lv_color.h **** 
 161:Drivers/lvgl/src/hal/../draw/../misc/lv_color.h **** # define LV_COLOR_GET_R32(c) (c).ch.red
 162:Drivers/lvgl/src/hal/../draw/../misc/lv_color.h **** # define LV_COLOR_GET_G32(c) (c).ch.green
 163:Drivers/lvgl/src/hal/../draw/../misc/lv_color.h **** # define LV_COLOR_GET_B32(c) (c).ch.blue
 164:Drivers/lvgl/src/hal/../draw/../misc/lv_color.h **** # define LV_COLOR_GET_A32(c) (c).ch.alpha
 165:Drivers/lvgl/src/hal/../draw/../misc/lv_color.h **** 
 166:Drivers/lvgl/src/hal/../draw/../misc/lv_color.h **** # define _LV_COLOR_ZERO_INITIALIZER32  {{0x00, 0x00, 0x00, 0x00}}
 167:Drivers/lvgl/src/hal/../draw/../misc/lv_color.h **** # define LV_COLOR_MAKE32(r8, g8, b8) {{b8, g8, r8, 0xff}} /*Fix 0xff alpha*/
 168:Drivers/lvgl/src/hal/../draw/../misc/lv_color.h **** 
 169:Drivers/lvgl/src/hal/../draw/../misc/lv_color.h **** /*---------------------------------------
 170:Drivers/lvgl/src/hal/../draw/../misc/lv_color.h ****  * Macros for the current color depth
 171:Drivers/lvgl/src/hal/../draw/../misc/lv_color.h ****  * to set/get values of the color channels
 172:Drivers/lvgl/src/hal/../draw/../misc/lv_color.h ****  *------------------------------------------*/
 173:Drivers/lvgl/src/hal/../draw/../misc/lv_color.h **** #define LV_COLOR_SET_R(c, v) LV_CONCAT(LV_COLOR_SET_R, LV_COLOR_DEPTH)(c, v)
 174:Drivers/lvgl/src/hal/../draw/../misc/lv_color.h **** #define LV_COLOR_SET_G(c, v) LV_CONCAT(LV_COLOR_SET_G, LV_COLOR_DEPTH)(c, v)
ARM GAS  /var/folders/lp/x54gwt890xv47sdkqj1k04q40000gn/T//ccly3Ev6.s 			page 21


 175:Drivers/lvgl/src/hal/../draw/../misc/lv_color.h **** #define LV_COLOR_SET_B(c, v) LV_CONCAT(LV_COLOR_SET_B, LV_COLOR_DEPTH)(c, v)
 176:Drivers/lvgl/src/hal/../draw/../misc/lv_color.h **** #define LV_COLOR_SET_A(c, v) LV_CONCAT(LV_COLOR_SET_A, LV_COLOR_DEPTH)(c, v)
 177:Drivers/lvgl/src/hal/../draw/../misc/lv_color.h **** 
 178:Drivers/lvgl/src/hal/../draw/../misc/lv_color.h **** #define LV_COLOR_GET_R(c) LV_CONCAT(LV_COLOR_GET_R, LV_COLOR_DEPTH)(c)
 179:Drivers/lvgl/src/hal/../draw/../misc/lv_color.h **** #define LV_COLOR_GET_G(c) LV_CONCAT(LV_COLOR_GET_G, LV_COLOR_DEPTH)(c)
 180:Drivers/lvgl/src/hal/../draw/../misc/lv_color.h **** #define LV_COLOR_GET_B(c) LV_CONCAT(LV_COLOR_GET_B, LV_COLOR_DEPTH)(c)
 181:Drivers/lvgl/src/hal/../draw/../misc/lv_color.h **** #define LV_COLOR_GET_A(c) LV_CONCAT(LV_COLOR_GET_A, LV_COLOR_DEPTH)(c)
 182:Drivers/lvgl/src/hal/../draw/../misc/lv_color.h **** 
 183:Drivers/lvgl/src/hal/../draw/../misc/lv_color.h **** #define _LV_COLOR_ZERO_INITIALIZER LV_CONCAT(_LV_COLOR_ZERO_INITIALIZER, LV_COLOR_DEPTH)
 184:Drivers/lvgl/src/hal/../draw/../misc/lv_color.h **** #define LV_COLOR_MAKE(r8, g8, b8) LV_CONCAT(LV_COLOR_MAKE, LV_COLOR_DEPTH)(r8, g8, b8)
 185:Drivers/lvgl/src/hal/../draw/../misc/lv_color.h **** 
 186:Drivers/lvgl/src/hal/../draw/../misc/lv_color.h **** /**********************
 187:Drivers/lvgl/src/hal/../draw/../misc/lv_color.h ****  *      TYPEDEFS
 188:Drivers/lvgl/src/hal/../draw/../misc/lv_color.h ****  **********************/
 189:Drivers/lvgl/src/hal/../draw/../misc/lv_color.h **** 
 190:Drivers/lvgl/src/hal/../draw/../misc/lv_color.h **** typedef union {
 191:Drivers/lvgl/src/hal/../draw/../misc/lv_color.h ****     uint8_t full; /*must be declared first to set all bits of byte via initializer list*/
 192:Drivers/lvgl/src/hal/../draw/../misc/lv_color.h ****     union {
 193:Drivers/lvgl/src/hal/../draw/../misc/lv_color.h ****         uint8_t blue : 1;
 194:Drivers/lvgl/src/hal/../draw/../misc/lv_color.h ****         uint8_t green : 1;
 195:Drivers/lvgl/src/hal/../draw/../misc/lv_color.h ****         uint8_t red : 1;
 196:Drivers/lvgl/src/hal/../draw/../misc/lv_color.h ****     } ch;
 197:Drivers/lvgl/src/hal/../draw/../misc/lv_color.h **** } lv_color1_t;
 198:Drivers/lvgl/src/hal/../draw/../misc/lv_color.h **** 
 199:Drivers/lvgl/src/hal/../draw/../misc/lv_color.h **** typedef union {
 200:Drivers/lvgl/src/hal/../draw/../misc/lv_color.h ****     struct {
 201:Drivers/lvgl/src/hal/../draw/../misc/lv_color.h ****         uint8_t blue : 2;
 202:Drivers/lvgl/src/hal/../draw/../misc/lv_color.h ****         uint8_t green : 3;
 203:Drivers/lvgl/src/hal/../draw/../misc/lv_color.h ****         uint8_t red : 3;
 204:Drivers/lvgl/src/hal/../draw/../misc/lv_color.h ****     } ch;
 205:Drivers/lvgl/src/hal/../draw/../misc/lv_color.h ****     uint8_t full;
 206:Drivers/lvgl/src/hal/../draw/../misc/lv_color.h **** } lv_color8_t;
 207:Drivers/lvgl/src/hal/../draw/../misc/lv_color.h **** 
 208:Drivers/lvgl/src/hal/../draw/../misc/lv_color.h **** typedef union {
 209:Drivers/lvgl/src/hal/../draw/../misc/lv_color.h ****     struct {
 210:Drivers/lvgl/src/hal/../draw/../misc/lv_color.h **** #if LV_COLOR_16_SWAP == 0
 211:Drivers/lvgl/src/hal/../draw/../misc/lv_color.h ****         uint16_t blue : 5;
 212:Drivers/lvgl/src/hal/../draw/../misc/lv_color.h ****         uint16_t green : 6;
 213:Drivers/lvgl/src/hal/../draw/../misc/lv_color.h ****         uint16_t red : 5;
 214:Drivers/lvgl/src/hal/../draw/../misc/lv_color.h **** #else
 215:Drivers/lvgl/src/hal/../draw/../misc/lv_color.h ****         uint16_t green_h : 3;
 216:Drivers/lvgl/src/hal/../draw/../misc/lv_color.h ****         uint16_t red : 5;
 217:Drivers/lvgl/src/hal/../draw/../misc/lv_color.h ****         uint16_t blue : 5;
 218:Drivers/lvgl/src/hal/../draw/../misc/lv_color.h ****         uint16_t green_l : 3;
 219:Drivers/lvgl/src/hal/../draw/../misc/lv_color.h **** #endif
 220:Drivers/lvgl/src/hal/../draw/../misc/lv_color.h ****     } ch;
 221:Drivers/lvgl/src/hal/../draw/../misc/lv_color.h ****     uint16_t full;
 222:Drivers/lvgl/src/hal/../draw/../misc/lv_color.h **** } lv_color16_t;
 223:Drivers/lvgl/src/hal/../draw/../misc/lv_color.h **** 
 224:Drivers/lvgl/src/hal/../draw/../misc/lv_color.h **** typedef union {
 225:Drivers/lvgl/src/hal/../draw/../misc/lv_color.h ****     struct {
 226:Drivers/lvgl/src/hal/../draw/../misc/lv_color.h ****         uint8_t blue;
 227:Drivers/lvgl/src/hal/../draw/../misc/lv_color.h ****         uint8_t green;
 228:Drivers/lvgl/src/hal/../draw/../misc/lv_color.h ****         uint8_t red;
 229:Drivers/lvgl/src/hal/../draw/../misc/lv_color.h ****         uint8_t alpha;
 230:Drivers/lvgl/src/hal/../draw/../misc/lv_color.h ****     } ch;
 231:Drivers/lvgl/src/hal/../draw/../misc/lv_color.h ****     uint32_t full;
ARM GAS  /var/folders/lp/x54gwt890xv47sdkqj1k04q40000gn/T//ccly3Ev6.s 			page 22


 232:Drivers/lvgl/src/hal/../draw/../misc/lv_color.h **** } lv_color32_t;
 233:Drivers/lvgl/src/hal/../draw/../misc/lv_color.h **** 
 234:Drivers/lvgl/src/hal/../draw/../misc/lv_color.h **** typedef LV_CONCAT3(uint, LV_COLOR_SIZE, _t) lv_color_int_t;
 235:Drivers/lvgl/src/hal/../draw/../misc/lv_color.h **** typedef LV_CONCAT3(lv_color, LV_COLOR_DEPTH, _t) lv_color_t;
 236:Drivers/lvgl/src/hal/../draw/../misc/lv_color.h **** 
 237:Drivers/lvgl/src/hal/../draw/../misc/lv_color.h **** typedef struct {
 238:Drivers/lvgl/src/hal/../draw/../misc/lv_color.h ****     uint16_t h;
 239:Drivers/lvgl/src/hal/../draw/../misc/lv_color.h ****     uint8_t s;
 240:Drivers/lvgl/src/hal/../draw/../misc/lv_color.h ****     uint8_t v;
 241:Drivers/lvgl/src/hal/../draw/../misc/lv_color.h **** } lv_color_hsv_t;
 242:Drivers/lvgl/src/hal/../draw/../misc/lv_color.h **** 
 243:Drivers/lvgl/src/hal/../draw/../misc/lv_color.h **** //! @cond Doxygen_Suppress
 244:Drivers/lvgl/src/hal/../draw/../misc/lv_color.h **** /*No idea where the guard is required but else throws warnings in the docs*/
 245:Drivers/lvgl/src/hal/../draw/../misc/lv_color.h **** typedef uint8_t lv_opa_t;
 246:Drivers/lvgl/src/hal/../draw/../misc/lv_color.h **** //! @endcond
 247:Drivers/lvgl/src/hal/../draw/../misc/lv_color.h **** 
 248:Drivers/lvgl/src/hal/../draw/../misc/lv_color.h **** struct _lv_color_filter_dsc_t;
 249:Drivers/lvgl/src/hal/../draw/../misc/lv_color.h **** 
 250:Drivers/lvgl/src/hal/../draw/../misc/lv_color.h **** typedef lv_color_t (*lv_color_filter_cb_t)(const struct _lv_color_filter_dsc_t *, lv_color_t, lv_op
 251:Drivers/lvgl/src/hal/../draw/../misc/lv_color.h **** 
 252:Drivers/lvgl/src/hal/../draw/../misc/lv_color.h **** typedef struct _lv_color_filter_dsc_t {
 253:Drivers/lvgl/src/hal/../draw/../misc/lv_color.h ****     lv_color_filter_cb_t filter_cb;
 254:Drivers/lvgl/src/hal/../draw/../misc/lv_color.h ****     void * user_data;
 255:Drivers/lvgl/src/hal/../draw/../misc/lv_color.h **** } lv_color_filter_dsc_t;
 256:Drivers/lvgl/src/hal/../draw/../misc/lv_color.h **** 
 257:Drivers/lvgl/src/hal/../draw/../misc/lv_color.h **** 
 258:Drivers/lvgl/src/hal/../draw/../misc/lv_color.h **** typedef enum {
 259:Drivers/lvgl/src/hal/../draw/../misc/lv_color.h ****     LV_PALETTE_RED,
 260:Drivers/lvgl/src/hal/../draw/../misc/lv_color.h ****     LV_PALETTE_PINK,
 261:Drivers/lvgl/src/hal/../draw/../misc/lv_color.h ****     LV_PALETTE_PURPLE,
 262:Drivers/lvgl/src/hal/../draw/../misc/lv_color.h ****     LV_PALETTE_DEEP_PURPLE,
 263:Drivers/lvgl/src/hal/../draw/../misc/lv_color.h ****     LV_PALETTE_INDIGO,
 264:Drivers/lvgl/src/hal/../draw/../misc/lv_color.h ****     LV_PALETTE_BLUE,
 265:Drivers/lvgl/src/hal/../draw/../misc/lv_color.h ****     LV_PALETTE_LIGHT_BLUE,
 266:Drivers/lvgl/src/hal/../draw/../misc/lv_color.h ****     LV_PALETTE_CYAN,
 267:Drivers/lvgl/src/hal/../draw/../misc/lv_color.h ****     LV_PALETTE_TEAL,
 268:Drivers/lvgl/src/hal/../draw/../misc/lv_color.h ****     LV_PALETTE_GREEN,
 269:Drivers/lvgl/src/hal/../draw/../misc/lv_color.h ****     LV_PALETTE_LIGHT_GREEN,
 270:Drivers/lvgl/src/hal/../draw/../misc/lv_color.h ****     LV_PALETTE_LIME,
 271:Drivers/lvgl/src/hal/../draw/../misc/lv_color.h ****     LV_PALETTE_YELLOW,
 272:Drivers/lvgl/src/hal/../draw/../misc/lv_color.h ****     LV_PALETTE_AMBER,
 273:Drivers/lvgl/src/hal/../draw/../misc/lv_color.h ****     LV_PALETTE_ORANGE,
 274:Drivers/lvgl/src/hal/../draw/../misc/lv_color.h ****     LV_PALETTE_DEEP_ORANGE,
 275:Drivers/lvgl/src/hal/../draw/../misc/lv_color.h ****     LV_PALETTE_BROWN,
 276:Drivers/lvgl/src/hal/../draw/../misc/lv_color.h ****     LV_PALETTE_BLUE_GREY,
 277:Drivers/lvgl/src/hal/../draw/../misc/lv_color.h ****     LV_PALETTE_GREY,
 278:Drivers/lvgl/src/hal/../draw/../misc/lv_color.h ****     _LV_PALETTE_LAST,
 279:Drivers/lvgl/src/hal/../draw/../misc/lv_color.h ****     LV_PALETTE_NONE = 0xff,
 280:Drivers/lvgl/src/hal/../draw/../misc/lv_color.h **** } lv_palette_t;
 281:Drivers/lvgl/src/hal/../draw/../misc/lv_color.h **** 
 282:Drivers/lvgl/src/hal/../draw/../misc/lv_color.h **** /**********************
 283:Drivers/lvgl/src/hal/../draw/../misc/lv_color.h ****  * GLOBAL PROTOTYPES
 284:Drivers/lvgl/src/hal/../draw/../misc/lv_color.h ****  **********************/
 285:Drivers/lvgl/src/hal/../draw/../misc/lv_color.h **** 
 286:Drivers/lvgl/src/hal/../draw/../misc/lv_color.h **** /*In color conversations:
 287:Drivers/lvgl/src/hal/../draw/../misc/lv_color.h ****  * - When converting to bigger color type the LSB weight of 1 LSB is calculated
 288:Drivers/lvgl/src/hal/../draw/../misc/lv_color.h ****  *   E.g. 16 bit Red has 5 bits
ARM GAS  /var/folders/lp/x54gwt890xv47sdkqj1k04q40000gn/T//ccly3Ev6.s 			page 23


 289:Drivers/lvgl/src/hal/../draw/../misc/lv_color.h ****  *         8 bit Red has 3 bits
 290:Drivers/lvgl/src/hal/../draw/../misc/lv_color.h ****  *        ----------------------
 291:Drivers/lvgl/src/hal/../draw/../misc/lv_color.h ****  *        8 bit red LSB = (2^5 - 1) / (2^3 - 1) = 31 / 7 = 4
 292:Drivers/lvgl/src/hal/../draw/../misc/lv_color.h ****  *
 293:Drivers/lvgl/src/hal/../draw/../misc/lv_color.h ****  * - When calculating to smaller color type simply shift out the LSBs
 294:Drivers/lvgl/src/hal/../draw/../misc/lv_color.h ****  *   E.g.  8 bit Red has 3 bits
 295:Drivers/lvgl/src/hal/../draw/../misc/lv_color.h ****  *        16 bit Red has 5 bits
 296:Drivers/lvgl/src/hal/../draw/../misc/lv_color.h ****  *        ----------------------
 297:Drivers/lvgl/src/hal/../draw/../misc/lv_color.h ****  *         Shift right with 5 - 3 = 2
 298:Drivers/lvgl/src/hal/../draw/../misc/lv_color.h ****  */
 299:Drivers/lvgl/src/hal/../draw/../misc/lv_color.h **** static inline uint8_t lv_color_to1(lv_color_t color)
 300:Drivers/lvgl/src/hal/../draw/../misc/lv_color.h **** {
 301:Drivers/lvgl/src/hal/../draw/../misc/lv_color.h **** #if LV_COLOR_DEPTH == 1
 302:Drivers/lvgl/src/hal/../draw/../misc/lv_color.h ****     return color.full;
 303:Drivers/lvgl/src/hal/../draw/../misc/lv_color.h **** #elif LV_COLOR_DEPTH == 8
 304:Drivers/lvgl/src/hal/../draw/../misc/lv_color.h ****     if((LV_COLOR_GET_R(color) & 0x4) || (LV_COLOR_GET_G(color) & 0x4) || (LV_COLOR_GET_B(color) & 0
 305:Drivers/lvgl/src/hal/../draw/../misc/lv_color.h ****         return 1;
 306:Drivers/lvgl/src/hal/../draw/../misc/lv_color.h ****     }
 307:Drivers/lvgl/src/hal/../draw/../misc/lv_color.h ****     else {
 308:Drivers/lvgl/src/hal/../draw/../misc/lv_color.h ****         return 0;
 309:Drivers/lvgl/src/hal/../draw/../misc/lv_color.h ****     }
 310:Drivers/lvgl/src/hal/../draw/../misc/lv_color.h **** #elif LV_COLOR_DEPTH == 16
 311:Drivers/lvgl/src/hal/../draw/../misc/lv_color.h ****     if((LV_COLOR_GET_R(color) & 0x10) || (LV_COLOR_GET_G(color) & 0x20) || (LV_COLOR_GET_B(color) &
 312:Drivers/lvgl/src/hal/../draw/../misc/lv_color.h ****         return 1;
 313:Drivers/lvgl/src/hal/../draw/../misc/lv_color.h ****     }
 314:Drivers/lvgl/src/hal/../draw/../misc/lv_color.h ****     else {
 315:Drivers/lvgl/src/hal/../draw/../misc/lv_color.h ****         return 0;
 316:Drivers/lvgl/src/hal/../draw/../misc/lv_color.h ****     }
 317:Drivers/lvgl/src/hal/../draw/../misc/lv_color.h **** #elif LV_COLOR_DEPTH == 32
 318:Drivers/lvgl/src/hal/../draw/../misc/lv_color.h ****     if((LV_COLOR_GET_R(color) & 0x80) || (LV_COLOR_GET_G(color) & 0x80) || (LV_COLOR_GET_B(color) &
 319:Drivers/lvgl/src/hal/../draw/../misc/lv_color.h ****         return 1;
 320:Drivers/lvgl/src/hal/../draw/../misc/lv_color.h ****     }
 321:Drivers/lvgl/src/hal/../draw/../misc/lv_color.h ****     else {
 322:Drivers/lvgl/src/hal/../draw/../misc/lv_color.h ****         return 0;
 323:Drivers/lvgl/src/hal/../draw/../misc/lv_color.h ****     }
 324:Drivers/lvgl/src/hal/../draw/../misc/lv_color.h **** #endif
 325:Drivers/lvgl/src/hal/../draw/../misc/lv_color.h **** }
 326:Drivers/lvgl/src/hal/../draw/../misc/lv_color.h **** 
 327:Drivers/lvgl/src/hal/../draw/../misc/lv_color.h **** static inline uint8_t lv_color_to8(lv_color_t color)
 328:Drivers/lvgl/src/hal/../draw/../misc/lv_color.h **** {
 329:Drivers/lvgl/src/hal/../draw/../misc/lv_color.h **** #if LV_COLOR_DEPTH == 1
 330:Drivers/lvgl/src/hal/../draw/../misc/lv_color.h ****     if(color.full == 0)
 331:Drivers/lvgl/src/hal/../draw/../misc/lv_color.h ****         return 0;
 332:Drivers/lvgl/src/hal/../draw/../misc/lv_color.h ****     else
 333:Drivers/lvgl/src/hal/../draw/../misc/lv_color.h ****         return 0xFF;
 334:Drivers/lvgl/src/hal/../draw/../misc/lv_color.h **** #elif LV_COLOR_DEPTH == 8
 335:Drivers/lvgl/src/hal/../draw/../misc/lv_color.h ****     return color.full;
 336:Drivers/lvgl/src/hal/../draw/../misc/lv_color.h **** #elif LV_COLOR_DEPTH == 16
 337:Drivers/lvgl/src/hal/../draw/../misc/lv_color.h ****     lv_color8_t ret;
 338:Drivers/lvgl/src/hal/../draw/../misc/lv_color.h ****     LV_COLOR_SET_R8(ret, LV_COLOR_GET_R(color) >> 2); /*5 - 3  = 2*/
 339:Drivers/lvgl/src/hal/../draw/../misc/lv_color.h ****     LV_COLOR_SET_G8(ret, LV_COLOR_GET_G(color) >> 3); /*6 - 3  = 3*/
 340:Drivers/lvgl/src/hal/../draw/../misc/lv_color.h ****     LV_COLOR_SET_B8(ret, LV_COLOR_GET_B(color) >> 3); /*5 - 2  = 3*/
 341:Drivers/lvgl/src/hal/../draw/../misc/lv_color.h ****     return ret.full;
 342:Drivers/lvgl/src/hal/../draw/../misc/lv_color.h **** #elif LV_COLOR_DEPTH == 32
 343:Drivers/lvgl/src/hal/../draw/../misc/lv_color.h ****     lv_color8_t ret;
 344:Drivers/lvgl/src/hal/../draw/../misc/lv_color.h ****     LV_COLOR_SET_R8(ret, LV_COLOR_GET_R(color) >> 5); /*8 - 3  = 5*/
 345:Drivers/lvgl/src/hal/../draw/../misc/lv_color.h ****     LV_COLOR_SET_G8(ret, LV_COLOR_GET_G(color) >> 5); /*8 - 3  = 5*/
ARM GAS  /var/folders/lp/x54gwt890xv47sdkqj1k04q40000gn/T//ccly3Ev6.s 			page 24


 346:Drivers/lvgl/src/hal/../draw/../misc/lv_color.h ****     LV_COLOR_SET_B8(ret, LV_COLOR_GET_B(color) >> 6); /*8 - 2  = 6*/
 347:Drivers/lvgl/src/hal/../draw/../misc/lv_color.h ****     return ret.full;
 348:Drivers/lvgl/src/hal/../draw/../misc/lv_color.h **** #endif
 349:Drivers/lvgl/src/hal/../draw/../misc/lv_color.h **** }
 350:Drivers/lvgl/src/hal/../draw/../misc/lv_color.h **** 
 351:Drivers/lvgl/src/hal/../draw/../misc/lv_color.h **** static inline uint16_t lv_color_to16(lv_color_t color)
 352:Drivers/lvgl/src/hal/../draw/../misc/lv_color.h **** {
 353:Drivers/lvgl/src/hal/../draw/../misc/lv_color.h **** #if LV_COLOR_DEPTH == 1
 354:Drivers/lvgl/src/hal/../draw/../misc/lv_color.h ****     if(color.full == 0)
 355:Drivers/lvgl/src/hal/../draw/../misc/lv_color.h ****         return 0;
 356:Drivers/lvgl/src/hal/../draw/../misc/lv_color.h ****     else
 357:Drivers/lvgl/src/hal/../draw/../misc/lv_color.h ****         return 0xFFFF;
 358:Drivers/lvgl/src/hal/../draw/../misc/lv_color.h **** #elif LV_COLOR_DEPTH == 8
 359:Drivers/lvgl/src/hal/../draw/../misc/lv_color.h ****     lv_color16_t ret;
 360:Drivers/lvgl/src/hal/../draw/../misc/lv_color.h ****     LV_COLOR_SET_R16(ret, LV_COLOR_GET_R(color) * 4);  /*(2^5 - 1)/(2^3 - 1) = 31/7 = 4*/
 361:Drivers/lvgl/src/hal/../draw/../misc/lv_color.h ****     LV_COLOR_SET_G16(ret, LV_COLOR_GET_G(color) * 9);  /*(2^6 - 1)/(2^3 - 1) = 63/7 = 9*/
 362:Drivers/lvgl/src/hal/../draw/../misc/lv_color.h ****     LV_COLOR_SET_B16(ret, LV_COLOR_GET_B(color) * 10); /*(2^5 - 1)/(2^2 - 1) = 31/3 = 10*/
 363:Drivers/lvgl/src/hal/../draw/../misc/lv_color.h ****     return ret.full;
 364:Drivers/lvgl/src/hal/../draw/../misc/lv_color.h **** #elif LV_COLOR_DEPTH == 16
 365:Drivers/lvgl/src/hal/../draw/../misc/lv_color.h ****     return color.full;
 366:Drivers/lvgl/src/hal/../draw/../misc/lv_color.h **** #elif LV_COLOR_DEPTH == 32
 367:Drivers/lvgl/src/hal/../draw/../misc/lv_color.h ****     lv_color16_t ret;
 368:Drivers/lvgl/src/hal/../draw/../misc/lv_color.h ****     LV_COLOR_SET_R16(ret, LV_COLOR_GET_R(color) >> 3); /*8 - 5  = 3*/
 369:Drivers/lvgl/src/hal/../draw/../misc/lv_color.h ****     LV_COLOR_SET_G16(ret, LV_COLOR_GET_G(color) >> 2); /*8 - 6  = 2*/
 370:Drivers/lvgl/src/hal/../draw/../misc/lv_color.h ****     LV_COLOR_SET_B16(ret, LV_COLOR_GET_B(color) >> 3); /*8 - 5  = 3*/
 371:Drivers/lvgl/src/hal/../draw/../misc/lv_color.h ****     return ret.full;
 372:Drivers/lvgl/src/hal/../draw/../misc/lv_color.h **** #endif
 373:Drivers/lvgl/src/hal/../draw/../misc/lv_color.h **** }
 374:Drivers/lvgl/src/hal/../draw/../misc/lv_color.h **** 
 375:Drivers/lvgl/src/hal/../draw/../misc/lv_color.h **** static inline uint32_t lv_color_to32(lv_color_t color)
 376:Drivers/lvgl/src/hal/../draw/../misc/lv_color.h **** {
 377:Drivers/lvgl/src/hal/../draw/../misc/lv_color.h **** #if LV_COLOR_DEPTH == 1
 378:Drivers/lvgl/src/hal/../draw/../misc/lv_color.h ****     if(color.full == 0)
 379:Drivers/lvgl/src/hal/../draw/../misc/lv_color.h ****         return 0xFF000000;
 380:Drivers/lvgl/src/hal/../draw/../misc/lv_color.h ****     else
 381:Drivers/lvgl/src/hal/../draw/../misc/lv_color.h ****         return 0xFFFFFFFF;
 382:Drivers/lvgl/src/hal/../draw/../misc/lv_color.h **** #elif LV_COLOR_DEPTH == 8
 383:Drivers/lvgl/src/hal/../draw/../misc/lv_color.h ****     lv_color32_t ret;
 384:Drivers/lvgl/src/hal/../draw/../misc/lv_color.h ****     LV_COLOR_SET_R32(ret, LV_COLOR_GET_R(color) * 36); /*(2^8 - 1)/(2^3 - 1) = 255/7 = 36*/
 385:Drivers/lvgl/src/hal/../draw/../misc/lv_color.h ****     LV_COLOR_SET_G32(ret, LV_COLOR_GET_G(color) * 36); /*(2^8 - 1)/(2^3 - 1) = 255/7 = 36*/
 386:Drivers/lvgl/src/hal/../draw/../misc/lv_color.h ****     LV_COLOR_SET_B32(ret, LV_COLOR_GET_B(color) * 85); /*(2^8 - 1)/(2^2 - 1) = 255/3 = 85*/
 387:Drivers/lvgl/src/hal/../draw/../misc/lv_color.h ****     LV_COLOR_SET_A32(ret, 0xFF);
 388:Drivers/lvgl/src/hal/../draw/../misc/lv_color.h ****     return ret.full;
 389:Drivers/lvgl/src/hal/../draw/../misc/lv_color.h **** #elif LV_COLOR_DEPTH == 16
 390:Drivers/lvgl/src/hal/../draw/../misc/lv_color.h ****     /**
 391:Drivers/lvgl/src/hal/../draw/../misc/lv_color.h ****      * The floating point math for conversion is:
 392:Drivers/lvgl/src/hal/../draw/../misc/lv_color.h ****      *  valueto = valuefrom * ( (2^bitsto - 1) / (float)(2^bitsfrom - 1) )
 393:Drivers/lvgl/src/hal/../draw/../misc/lv_color.h ****      * The faster integer math for conversion is:
 394:Drivers/lvgl/src/hal/../draw/../misc/lv_color.h ****      *  valueto = ( valuefrom * multiplier + adder ) >> divisor
 395:Drivers/lvgl/src/hal/../draw/../misc/lv_color.h ****      *   multiplier = FLOOR( ( (2^bitsto - 1) << divisor ) / (float)(2^bitsfrom - 1) )
 396:Drivers/lvgl/src/hal/../draw/../misc/lv_color.h ****      *
 397:Drivers/lvgl/src/hal/../draw/../misc/lv_color.h ****      * Find the first divisor where ( adder >> divisor ) <= 0
 398:Drivers/lvgl/src/hal/../draw/../misc/lv_color.h ****      *
 399:Drivers/lvgl/src/hal/../draw/../misc/lv_color.h ****      * 5-bit to 8-bit: ( 31 * multiplier + adder ) >> divisor = 255
 400:Drivers/lvgl/src/hal/../draw/../misc/lv_color.h ****      * divisor  multiplier  adder  min (0)  max (31)
 401:Drivers/lvgl/src/hal/../draw/../misc/lv_color.h ****      *       0           8      7        7       255
 402:Drivers/lvgl/src/hal/../draw/../misc/lv_color.h ****      *       1          16     14        7       255
ARM GAS  /var/folders/lp/x54gwt890xv47sdkqj1k04q40000gn/T//ccly3Ev6.s 			page 25


 403:Drivers/lvgl/src/hal/../draw/../misc/lv_color.h ****      *       2          32     28        7       255
 404:Drivers/lvgl/src/hal/../draw/../misc/lv_color.h ****      *       3          65     25        3       255
 405:Drivers/lvgl/src/hal/../draw/../misc/lv_color.h ****      *       4         131     19        1       255
 406:Drivers/lvgl/src/hal/../draw/../misc/lv_color.h ****      *       5         263      7        0       255
 407:Drivers/lvgl/src/hal/../draw/../misc/lv_color.h ****      *
 408:Drivers/lvgl/src/hal/../draw/../misc/lv_color.h ****      * 6-bit to 8-bit: 255 = ( 63 * multiplier + adder ) >> divisor
 409:Drivers/lvgl/src/hal/../draw/../misc/lv_color.h ****      * divisor  multiplier  adder  min (0)  max (63)
 410:Drivers/lvgl/src/hal/../draw/../misc/lv_color.h ****      *       0           4      3        3       255
 411:Drivers/lvgl/src/hal/../draw/../misc/lv_color.h ****      *       1           8      6        3       255
 412:Drivers/lvgl/src/hal/../draw/../misc/lv_color.h ****      *       2          16     12        3       255
 413:Drivers/lvgl/src/hal/../draw/../misc/lv_color.h ****      *       3          32     24        3       255
 414:Drivers/lvgl/src/hal/../draw/../misc/lv_color.h ****      *       4          64     48        3       255
 415:Drivers/lvgl/src/hal/../draw/../misc/lv_color.h ****      *       5         129     33        1       255
 416:Drivers/lvgl/src/hal/../draw/../misc/lv_color.h ****      *       6         259      3        0       255
 417:Drivers/lvgl/src/hal/../draw/../misc/lv_color.h ****      */
 418:Drivers/lvgl/src/hal/../draw/../misc/lv_color.h **** 
 419:Drivers/lvgl/src/hal/../draw/../misc/lv_color.h ****     lv_color32_t ret;
 420:Drivers/lvgl/src/hal/../draw/../misc/lv_color.h ****     LV_COLOR_SET_R32(ret, (LV_COLOR_GET_R(color) * 263 + 7) >> 5);
 421:Drivers/lvgl/src/hal/../draw/../misc/lv_color.h ****     LV_COLOR_SET_G32(ret, (LV_COLOR_GET_G(color) * 259 + 3) >> 6);
 422:Drivers/lvgl/src/hal/../draw/../misc/lv_color.h ****     LV_COLOR_SET_B32(ret, (LV_COLOR_GET_B(color) * 263 + 7) >> 5);
 423:Drivers/lvgl/src/hal/../draw/../misc/lv_color.h ****     LV_COLOR_SET_A32(ret, 0xFF);
 424:Drivers/lvgl/src/hal/../draw/../misc/lv_color.h ****     return ret.full;
 425:Drivers/lvgl/src/hal/../draw/../misc/lv_color.h **** #elif LV_COLOR_DEPTH == 32
 426:Drivers/lvgl/src/hal/../draw/../misc/lv_color.h ****     return color.full;
 427:Drivers/lvgl/src/hal/../draw/../misc/lv_color.h **** #endif
 428:Drivers/lvgl/src/hal/../draw/../misc/lv_color.h **** }
 429:Drivers/lvgl/src/hal/../draw/../misc/lv_color.h **** 
 430:Drivers/lvgl/src/hal/../draw/../misc/lv_color.h **** //! @cond Doxygen_Suppress
 431:Drivers/lvgl/src/hal/../draw/../misc/lv_color.h **** 
 432:Drivers/lvgl/src/hal/../draw/../misc/lv_color.h **** /**
 433:Drivers/lvgl/src/hal/../draw/../misc/lv_color.h ****  * Mix two colors with a given ratio.
 434:Drivers/lvgl/src/hal/../draw/../misc/lv_color.h ****  * @param c1 the first color to mix (usually the foreground)
 435:Drivers/lvgl/src/hal/../draw/../misc/lv_color.h ****  * @param c2 the second color to mix (usually the background)
 436:Drivers/lvgl/src/hal/../draw/../misc/lv_color.h ****  * @param mix The ratio of the colors. 0: full `c2`, 255: full `c1`, 127: half `c1` and half`c2`
 437:Drivers/lvgl/src/hal/../draw/../misc/lv_color.h ****  * @return the mixed color
 438:Drivers/lvgl/src/hal/../draw/../misc/lv_color.h ****  */
 439:Drivers/lvgl/src/hal/../draw/../misc/lv_color.h **** static inline lv_color_t LV_ATTRIBUTE_FAST_MEM lv_color_mix(lv_color_t c1, lv_color_t c2, uint8_t m
 440:Drivers/lvgl/src/hal/../draw/../misc/lv_color.h **** {
 441:Drivers/lvgl/src/hal/../draw/../misc/lv_color.h ****     lv_color_t ret;
 442:Drivers/lvgl/src/hal/../draw/../misc/lv_color.h **** 
 443:Drivers/lvgl/src/hal/../draw/../misc/lv_color.h **** #if LV_COLOR_DEPTH == 16 && LV_COLOR_MIX_ROUND_OFS == 0
 444:Drivers/lvgl/src/hal/../draw/../misc/lv_color.h **** #if LV_COLOR_16_SWAP == 1
 445:Drivers/lvgl/src/hal/../draw/../misc/lv_color.h ****     c1.full = c1.full << 8 | c1.full >> 8;
 446:Drivers/lvgl/src/hal/../draw/../misc/lv_color.h ****     c2.full = c2.full << 8 | c2.full >> 8;
 447:Drivers/lvgl/src/hal/../draw/../misc/lv_color.h **** #endif
 448:Drivers/lvgl/src/hal/../draw/../misc/lv_color.h ****     /*Source: https://stackoverflow.com/a/50012418/1999969*/
 449:Drivers/lvgl/src/hal/../draw/../misc/lv_color.h ****     mix = (uint32_t)((uint32_t)mix + 4) >> 3;
 450:Drivers/lvgl/src/hal/../draw/../misc/lv_color.h ****     uint32_t bg = (uint32_t)((uint32_t)c2.full | ((uint32_t)c2.full << 16)) &
 451:Drivers/lvgl/src/hal/../draw/../misc/lv_color.h ****                   0x7E0F81F; /*0b00000111111000001111100000011111*/
 452:Drivers/lvgl/src/hal/../draw/../misc/lv_color.h ****     uint32_t fg = (uint32_t)((uint32_t)c1.full | ((uint32_t)c1.full << 16)) & 0x7E0F81F;
 453:Drivers/lvgl/src/hal/../draw/../misc/lv_color.h ****     uint32_t result = ((((fg - bg) * mix) >> 5) + bg) & 0x7E0F81F;
 454:Drivers/lvgl/src/hal/../draw/../misc/lv_color.h ****     ret.full = (uint16_t)((result >> 16) | result);
 455:Drivers/lvgl/src/hal/../draw/../misc/lv_color.h **** #if LV_COLOR_16_SWAP == 1
 456:Drivers/lvgl/src/hal/../draw/../misc/lv_color.h ****     ret.full = ret.full << 8 | ret.full >> 8;
 457:Drivers/lvgl/src/hal/../draw/../misc/lv_color.h **** #endif
 458:Drivers/lvgl/src/hal/../draw/../misc/lv_color.h **** #elif LV_COLOR_DEPTH != 1
 459:Drivers/lvgl/src/hal/../draw/../misc/lv_color.h ****     /*LV_COLOR_DEPTH == 8, 16 or 32*/
ARM GAS  /var/folders/lp/x54gwt890xv47sdkqj1k04q40000gn/T//ccly3Ev6.s 			page 26


 460:Drivers/lvgl/src/hal/../draw/../misc/lv_color.h ****     LV_COLOR_SET_R(ret, LV_UDIV255((uint16_t)LV_COLOR_GET_R(c1) * mix + LV_COLOR_GET_R(c2) *
 461:Drivers/lvgl/src/hal/../draw/../misc/lv_color.h ****                                    (255 - mix) + LV_COLOR_MIX_ROUND_OFS));
 462:Drivers/lvgl/src/hal/../draw/../misc/lv_color.h ****     LV_COLOR_SET_G(ret, LV_UDIV255((uint16_t)LV_COLOR_GET_G(c1) * mix + LV_COLOR_GET_G(c2) *
 463:Drivers/lvgl/src/hal/../draw/../misc/lv_color.h ****                                    (255 - mix) + LV_COLOR_MIX_ROUND_OFS));
 464:Drivers/lvgl/src/hal/../draw/../misc/lv_color.h ****     LV_COLOR_SET_B(ret, LV_UDIV255((uint16_t)LV_COLOR_GET_B(c1) * mix + LV_COLOR_GET_B(c2) *
 465:Drivers/lvgl/src/hal/../draw/../misc/lv_color.h ****                                    (255 - mix) + LV_COLOR_MIX_ROUND_OFS));
 466:Drivers/lvgl/src/hal/../draw/../misc/lv_color.h ****     LV_COLOR_SET_A(ret, 0xFF);
 467:Drivers/lvgl/src/hal/../draw/../misc/lv_color.h **** #else
 468:Drivers/lvgl/src/hal/../draw/../misc/lv_color.h ****     /*LV_COLOR_DEPTH == 1*/
 469:Drivers/lvgl/src/hal/../draw/../misc/lv_color.h ****     ret.full = mix > LV_OPA_50 ? c1.full : c2.full;
 470:Drivers/lvgl/src/hal/../draw/../misc/lv_color.h **** #endif
 471:Drivers/lvgl/src/hal/../draw/../misc/lv_color.h **** 
 472:Drivers/lvgl/src/hal/../draw/../misc/lv_color.h ****     return ret;
 473:Drivers/lvgl/src/hal/../draw/../misc/lv_color.h **** }
 474:Drivers/lvgl/src/hal/../draw/../misc/lv_color.h **** 
 475:Drivers/lvgl/src/hal/../draw/../misc/lv_color.h **** static inline void LV_ATTRIBUTE_FAST_MEM lv_color_premult(lv_color_t c, uint8_t mix, uint16_t * out
 476:Drivers/lvgl/src/hal/../draw/../misc/lv_color.h **** {
 477:Drivers/lvgl/src/hal/../draw/../misc/lv_color.h **** #if LV_COLOR_DEPTH != 1
 478:Drivers/lvgl/src/hal/../draw/../misc/lv_color.h ****     out[0] = (uint16_t)LV_COLOR_GET_R(c) * mix;
 479:Drivers/lvgl/src/hal/../draw/../misc/lv_color.h ****     out[1] = (uint16_t)LV_COLOR_GET_G(c) * mix;
 480:Drivers/lvgl/src/hal/../draw/../misc/lv_color.h ****     out[2] = (uint16_t)LV_COLOR_GET_B(c) * mix;
 481:Drivers/lvgl/src/hal/../draw/../misc/lv_color.h **** #else
 482:Drivers/lvgl/src/hal/../draw/../misc/lv_color.h ****     (void) mix;
 483:Drivers/lvgl/src/hal/../draw/../misc/lv_color.h ****     /*Pre-multiplication can't be used with 1 bpp*/
 484:Drivers/lvgl/src/hal/../draw/../misc/lv_color.h ****     out[0] = LV_COLOR_GET_R(c);
 485:Drivers/lvgl/src/hal/../draw/../misc/lv_color.h ****     out[1] = LV_COLOR_GET_G(c);
 486:Drivers/lvgl/src/hal/../draw/../misc/lv_color.h ****     out[2] = LV_COLOR_GET_B(c);
 487:Drivers/lvgl/src/hal/../draw/../misc/lv_color.h **** #endif
 488:Drivers/lvgl/src/hal/../draw/../misc/lv_color.h **** 
 489:Drivers/lvgl/src/hal/../draw/../misc/lv_color.h **** }
 490:Drivers/lvgl/src/hal/../draw/../misc/lv_color.h **** 
 491:Drivers/lvgl/src/hal/../draw/../misc/lv_color.h **** /**
 492:Drivers/lvgl/src/hal/../draw/../misc/lv_color.h ****  * Mix two colors with a given ratio. It runs faster then `lv_color_mix` but requires some pre comp
 493:Drivers/lvgl/src/hal/../draw/../misc/lv_color.h ****  * @param premult_c1 The first color. Should be preprocessed with `lv_color_premult(c1)`
 494:Drivers/lvgl/src/hal/../draw/../misc/lv_color.h ****  * @param c2 The second color. As it is no pre computation required on it
 495:Drivers/lvgl/src/hal/../draw/../misc/lv_color.h ****  * @param mix The ratio of the colors. 0: full `c1`, 255: full `c2`, 127: half `c1` and half `c2`.
 496:Drivers/lvgl/src/hal/../draw/../misc/lv_color.h ****  *            Should be modified like mix = `255 - mix`
 497:Drivers/lvgl/src/hal/../draw/../misc/lv_color.h ****  * @return the mixed color
 498:Drivers/lvgl/src/hal/../draw/../misc/lv_color.h ****  * @note 255 won't give clearly `c1`.
 499:Drivers/lvgl/src/hal/../draw/../misc/lv_color.h ****  */
 500:Drivers/lvgl/src/hal/../draw/../misc/lv_color.h **** static inline lv_color_t LV_ATTRIBUTE_FAST_MEM lv_color_mix_premult(uint16_t * premult_c1, lv_color
 501:Drivers/lvgl/src/hal/../draw/../misc/lv_color.h **** {
 502:Drivers/lvgl/src/hal/../draw/../misc/lv_color.h ****     lv_color_t ret;
 503:Drivers/lvgl/src/hal/../draw/../misc/lv_color.h **** #if LV_COLOR_DEPTH != 1
 504:Drivers/lvgl/src/hal/../draw/../misc/lv_color.h ****     /*LV_COLOR_DEPTH == 8 or 32*/
 505:Drivers/lvgl/src/hal/../draw/../misc/lv_color.h ****     LV_COLOR_SET_R(ret, LV_UDIV255(premult_c1[0] + LV_COLOR_GET_R(c2) * mix + LV_COLOR_MIX_ROUND_OF
 506:Drivers/lvgl/src/hal/../draw/../misc/lv_color.h ****     LV_COLOR_SET_G(ret, LV_UDIV255(premult_c1[1] + LV_COLOR_GET_G(c2) * mix + LV_COLOR_MIX_ROUND_OF
 507:Drivers/lvgl/src/hal/../draw/../misc/lv_color.h ****     LV_COLOR_SET_B(ret, LV_UDIV255(premult_c1[2] + LV_COLOR_GET_B(c2) * mix + LV_COLOR_MIX_ROUND_OF
 508:Drivers/lvgl/src/hal/../draw/../misc/lv_color.h ****     LV_COLOR_SET_A(ret, 0xFF);
 509:Drivers/lvgl/src/hal/../draw/../misc/lv_color.h **** #else
 510:Drivers/lvgl/src/hal/../draw/../misc/lv_color.h ****     /*LV_COLOR_DEPTH == 1*/
 511:Drivers/lvgl/src/hal/../draw/../misc/lv_color.h ****     /*Restore color1*/
 512:Drivers/lvgl/src/hal/../draw/../misc/lv_color.h ****     lv_color_t c1;
 513:Drivers/lvgl/src/hal/../draw/../misc/lv_color.h ****     LV_COLOR_SET_R(c1, premult_c1[0]);
 514:Drivers/lvgl/src/hal/../draw/../misc/lv_color.h ****     LV_COLOR_SET_G(c1, premult_c1[1]);
 515:Drivers/lvgl/src/hal/../draw/../misc/lv_color.h ****     LV_COLOR_SET_B(c1, premult_c1[2]);
 516:Drivers/lvgl/src/hal/../draw/../misc/lv_color.h ****     ret.full = mix > LV_OPA_50 ? c2.full : c1.full;
ARM GAS  /var/folders/lp/x54gwt890xv47sdkqj1k04q40000gn/T//ccly3Ev6.s 			page 27


 517:Drivers/lvgl/src/hal/../draw/../misc/lv_color.h **** #endif
 518:Drivers/lvgl/src/hal/../draw/../misc/lv_color.h **** 
 519:Drivers/lvgl/src/hal/../draw/../misc/lv_color.h ****     return ret;
 520:Drivers/lvgl/src/hal/../draw/../misc/lv_color.h **** }
 521:Drivers/lvgl/src/hal/../draw/../misc/lv_color.h **** 
 522:Drivers/lvgl/src/hal/../draw/../misc/lv_color.h **** /**
 523:Drivers/lvgl/src/hal/../draw/../misc/lv_color.h ****  * Mix two colors. Both color can have alpha value.
 524:Drivers/lvgl/src/hal/../draw/../misc/lv_color.h ****  * @param bg_color background color
 525:Drivers/lvgl/src/hal/../draw/../misc/lv_color.h ****  * @param bg_opa alpha of the background color
 526:Drivers/lvgl/src/hal/../draw/../misc/lv_color.h ****  * @param fg_color foreground color
 527:Drivers/lvgl/src/hal/../draw/../misc/lv_color.h ****  * @param fg_opa alpha of the foreground color
 528:Drivers/lvgl/src/hal/../draw/../misc/lv_color.h ****  * @param res_color the result color
 529:Drivers/lvgl/src/hal/../draw/../misc/lv_color.h ****  * @param res_opa the result opacity
 530:Drivers/lvgl/src/hal/../draw/../misc/lv_color.h ****  */
 531:Drivers/lvgl/src/hal/../draw/../misc/lv_color.h **** static inline void LV_ATTRIBUTE_FAST_MEM lv_color_mix_with_alpha(lv_color_t bg_color, lv_opa_t bg_o
 532:Drivers/lvgl/src/hal/../draw/../misc/lv_color.h ****                                                                  lv_color_t fg_color, lv_opa_t fg_o
 533:Drivers/lvgl/src/hal/../draw/../misc/lv_color.h ****                                                                  lv_color_t * res_color, lv_opa_t *
 534:Drivers/lvgl/src/hal/../draw/../misc/lv_color.h **** {
 535:Drivers/lvgl/src/hal/../draw/../misc/lv_color.h ****     /*Pick the foreground if it's fully opaque or the Background is fully transparent*/
 536:Drivers/lvgl/src/hal/../draw/../misc/lv_color.h ****     if(fg_opa >= LV_OPA_MAX || bg_opa <= LV_OPA_MIN) {
 537:Drivers/lvgl/src/hal/../draw/../misc/lv_color.h ****         res_color->full = fg_color.full;
 538:Drivers/lvgl/src/hal/../draw/../misc/lv_color.h ****         *res_opa = fg_opa;
 539:Drivers/lvgl/src/hal/../draw/../misc/lv_color.h ****     }
 540:Drivers/lvgl/src/hal/../draw/../misc/lv_color.h ****     /*Transparent foreground: use the Background*/
 541:Drivers/lvgl/src/hal/../draw/../misc/lv_color.h ****     else if(fg_opa <= LV_OPA_MIN) {
 542:Drivers/lvgl/src/hal/../draw/../misc/lv_color.h ****         res_color->full = bg_color.full;
 543:Drivers/lvgl/src/hal/../draw/../misc/lv_color.h ****         *res_opa = bg_opa;
 544:Drivers/lvgl/src/hal/../draw/../misc/lv_color.h ****     }
 545:Drivers/lvgl/src/hal/../draw/../misc/lv_color.h ****     /*Opaque background: use simple mix*/
 546:Drivers/lvgl/src/hal/../draw/../misc/lv_color.h ****     else if(bg_opa >= LV_OPA_MAX) {
 547:Drivers/lvgl/src/hal/../draw/../misc/lv_color.h ****         *res_color = lv_color_mix(fg_color, bg_color, fg_opa);
 548:Drivers/lvgl/src/hal/../draw/../misc/lv_color.h ****         *res_opa = LV_OPA_COVER;
 549:Drivers/lvgl/src/hal/../draw/../misc/lv_color.h ****     }
 550:Drivers/lvgl/src/hal/../draw/../misc/lv_color.h ****     /*Both colors have alpha. Expensive calculation need to be applied*/
 551:Drivers/lvgl/src/hal/../draw/../misc/lv_color.h ****     else {
 552:Drivers/lvgl/src/hal/../draw/../misc/lv_color.h ****         /*Save the parameters and the result. If they will be asked again don't compute again*/
 553:Drivers/lvgl/src/hal/../draw/../misc/lv_color.h ****         static lv_opa_t fg_opa_save     = 0;
 554:Drivers/lvgl/src/hal/../draw/../misc/lv_color.h ****         static lv_opa_t bg_opa_save     = 0;
 555:Drivers/lvgl/src/hal/../draw/../misc/lv_color.h ****         static lv_color_t fg_color_save = _LV_COLOR_ZERO_INITIALIZER;
 556:Drivers/lvgl/src/hal/../draw/../misc/lv_color.h ****         static lv_color_t bg_color_save = _LV_COLOR_ZERO_INITIALIZER;
 557:Drivers/lvgl/src/hal/../draw/../misc/lv_color.h ****         static lv_color_t res_color_saved = _LV_COLOR_ZERO_INITIALIZER;
 558:Drivers/lvgl/src/hal/../draw/../misc/lv_color.h ****         static lv_opa_t res_opa_saved = 0;
 559:Drivers/lvgl/src/hal/../draw/../misc/lv_color.h **** 
 560:Drivers/lvgl/src/hal/../draw/../misc/lv_color.h ****         if(fg_opa != fg_opa_save || bg_opa != bg_opa_save || fg_color.full != fg_color_save.full ||
 561:Drivers/lvgl/src/hal/../draw/../misc/lv_color.h ****            bg_color.full != bg_color_save.full) {
 562:Drivers/lvgl/src/hal/../draw/../misc/lv_color.h ****             fg_opa_save        = fg_opa;
 563:Drivers/lvgl/src/hal/../draw/../misc/lv_color.h ****             bg_opa_save        = bg_opa;
 564:Drivers/lvgl/src/hal/../draw/../misc/lv_color.h ****             fg_color_save.full = fg_color.full;
 565:Drivers/lvgl/src/hal/../draw/../misc/lv_color.h ****             bg_color_save.full = bg_color.full;
 566:Drivers/lvgl/src/hal/../draw/../misc/lv_color.h ****             /*Info:
 567:Drivers/lvgl/src/hal/../draw/../misc/lv_color.h ****              * https://en.wikipedia.org/wiki/Alpha_compositing#Analytical_derivation_of_the_over_op
 568:Drivers/lvgl/src/hal/../draw/../misc/lv_color.h ****             res_opa_saved = 255 - ((uint16_t)((uint16_t)(255 - fg_opa) * (255 - bg_opa)) >> 8);
 569:Drivers/lvgl/src/hal/../draw/../misc/lv_color.h ****             LV_ASSERT(res_opa_saved != 0);
 570:Drivers/lvgl/src/hal/../draw/../misc/lv_color.h ****             lv_opa_t ratio = (uint16_t)((uint16_t)fg_opa * 255) / res_opa_saved;
 571:Drivers/lvgl/src/hal/../draw/../misc/lv_color.h ****             res_color_saved = lv_color_mix(fg_color, bg_color, ratio);
 572:Drivers/lvgl/src/hal/../draw/../misc/lv_color.h **** 
 573:Drivers/lvgl/src/hal/../draw/../misc/lv_color.h ****         }
ARM GAS  /var/folders/lp/x54gwt890xv47sdkqj1k04q40000gn/T//ccly3Ev6.s 			page 28


 574:Drivers/lvgl/src/hal/../draw/../misc/lv_color.h **** 
 575:Drivers/lvgl/src/hal/../draw/../misc/lv_color.h ****         res_color->full = res_color_saved.full;
 576:Drivers/lvgl/src/hal/../draw/../misc/lv_color.h ****         *res_opa = res_opa_saved;
 577:Drivers/lvgl/src/hal/../draw/../misc/lv_color.h ****     }
 578:Drivers/lvgl/src/hal/../draw/../misc/lv_color.h **** }
 579:Drivers/lvgl/src/hal/../draw/../misc/lv_color.h **** 
 580:Drivers/lvgl/src/hal/../draw/../misc/lv_color.h **** //! @endcond
 581:Drivers/lvgl/src/hal/../draw/../misc/lv_color.h **** 
 582:Drivers/lvgl/src/hal/../draw/../misc/lv_color.h **** /**
 583:Drivers/lvgl/src/hal/../draw/../misc/lv_color.h ****  * Get the brightness of a color
 584:Drivers/lvgl/src/hal/../draw/../misc/lv_color.h ****  * @param color a color
 585:Drivers/lvgl/src/hal/../draw/../misc/lv_color.h ****  * @return the brightness [0..255]
 586:Drivers/lvgl/src/hal/../draw/../misc/lv_color.h ****  */
 587:Drivers/lvgl/src/hal/../draw/../misc/lv_color.h **** static inline uint8_t lv_color_brightness(lv_color_t color)
 588:Drivers/lvgl/src/hal/../draw/../misc/lv_color.h **** {
 589:Drivers/lvgl/src/hal/../draw/../misc/lv_color.h ****     lv_color32_t c32;
 590:Drivers/lvgl/src/hal/../draw/../misc/lv_color.h ****     c32.full        = lv_color_to32(color);
 591:Drivers/lvgl/src/hal/../draw/../misc/lv_color.h ****     uint16_t bright = (uint16_t)(3u * LV_COLOR_GET_R32(c32) + LV_COLOR_GET_B32(c32) + 4u * LV_COLOR
 592:Drivers/lvgl/src/hal/../draw/../misc/lv_color.h ****     return (uint8_t)(bright >> 3);
 593:Drivers/lvgl/src/hal/../draw/../misc/lv_color.h **** }
 594:Drivers/lvgl/src/hal/../draw/../misc/lv_color.h **** 
 595:Drivers/lvgl/src/hal/../draw/../misc/lv_color.h **** static inline lv_color_t lv_color_make(uint8_t r, uint8_t g, uint8_t b)
 596:Drivers/lvgl/src/hal/../draw/../misc/lv_color.h **** {
 597:Drivers/lvgl/src/hal/../draw/../misc/lv_color.h ****     return _LV_COLOR_MAKE_TYPE_HELPER LV_COLOR_MAKE(r, g, b);
 598:Drivers/lvgl/src/hal/../draw/../misc/lv_color.h **** }
 599:Drivers/lvgl/src/hal/../draw/../misc/lv_color.h **** 
 600:Drivers/lvgl/src/hal/../draw/../misc/lv_color.h **** static inline lv_color_t lv_color_hex(uint32_t c)
 587              		.loc 3 600 26 is_stmt 1 view .LVU108
 588              	.LBB7:
 601:Drivers/lvgl/src/hal/../draw/../misc/lv_color.h **** {
 602:Drivers/lvgl/src/hal/../draw/../misc/lv_color.h **** #if LV_COLOR_DEPTH == 16
 603:Drivers/lvgl/src/hal/../draw/../misc/lv_color.h ****     lv_color_t r;
 589              		.loc 3 603 5 view .LVU109
 604:Drivers/lvgl/src/hal/../draw/../misc/lv_color.h **** #if LV_COLOR_16_SWAP == 0
 605:Drivers/lvgl/src/hal/../draw/../misc/lv_color.h ****     /* Convert a 4 bytes per pixel in format ARGB32 to R5G6B5 format
 606:Drivers/lvgl/src/hal/../draw/../misc/lv_color.h ****         naive way (by calling lv_color_make with components):
 607:Drivers/lvgl/src/hal/../draw/../misc/lv_color.h ****                     r = ((c & 0xFF0000) >> 19)
 608:Drivers/lvgl/src/hal/../draw/../misc/lv_color.h ****                     g = ((c & 0xFF00) >> 10)
 609:Drivers/lvgl/src/hal/../draw/../misc/lv_color.h ****                     b = ((c & 0xFF) >> 3)
 610:Drivers/lvgl/src/hal/../draw/../misc/lv_color.h ****                     rgb565 = (r << 11) | (g << 5) | b
 611:Drivers/lvgl/src/hal/../draw/../misc/lv_color.h ****         That's 3 mask, 5 bitshift and 2 or operations
 612:Drivers/lvgl/src/hal/../draw/../misc/lv_color.h **** 
 613:Drivers/lvgl/src/hal/../draw/../misc/lv_color.h ****         A bit better:
 614:Drivers/lvgl/src/hal/../draw/../misc/lv_color.h ****                     r = ((c & 0xF80000) >> 8)
 615:Drivers/lvgl/src/hal/../draw/../misc/lv_color.h ****                     g = ((c & 0xFC00) >> 5)
 616:Drivers/lvgl/src/hal/../draw/../misc/lv_color.h ****                     b = ((c & 0xFF) >> 3)
 617:Drivers/lvgl/src/hal/../draw/../misc/lv_color.h ****                     rgb565 = r | g | b
 618:Drivers/lvgl/src/hal/../draw/../misc/lv_color.h ****         That's 3 mask, 3 bitshifts and 2 or operations */
 619:Drivers/lvgl/src/hal/../draw/../misc/lv_color.h ****     r.full = (uint16_t)(((c & 0xF80000) >> 8) | ((c & 0xFC00) >> 5) | ((c & 0xFF) >> 3));
 620:Drivers/lvgl/src/hal/../draw/../misc/lv_color.h **** #else
 621:Drivers/lvgl/src/hal/../draw/../misc/lv_color.h ****     /* We want: rrrr rrrr GGGg gggg bbbb bbbb => gggb bbbb rrrr rGGG */
 622:Drivers/lvgl/src/hal/../draw/../misc/lv_color.h ****     r.full = (uint16_t)(((c & 0xF80000) >> 16) | ((c & 0xFC00) >> 13) | ((c & 0x1C00) << 3) | ((c &
 590              		.loc 3 622 5 view .LVU110
 623:Drivers/lvgl/src/hal/../draw/../misc/lv_color.h **** #endif
 624:Drivers/lvgl/src/hal/../draw/../misc/lv_color.h ****     return r;
 591              		.loc 3 624 5 view .LVU111
 592              		.loc 3 624 5 is_stmt 0 view .LVU112
ARM GAS  /var/folders/lp/x54gwt890xv47sdkqj1k04q40000gn/T//ccly3Ev6.s 			page 29


 593              	.LBE7:
 594              	.LBE6:
 595              		.loc 1 185 5 discriminator 2 view .LVU113
 596 0006 0022     		movs	r2, #0
 597 0008 4CF60121 		movw	r1, 51713	@ movhi
 598 000c FFF7FEFF 		bl	lv_obj_set_style_bg_color
 599              	.LVL87:
 186:Core/Src/UI_LCD.c ****     lv_obj_set_style_text_color(lv_scr_act(), lv_color_hex(0xffffff), LV_PART_MAIN);
 600              		.loc 1 186 5 is_stmt 1 view .LVU114
 601              		.loc 1 186 33 is_stmt 0 view .LVU115
 602 0010 FFF7FEFF 		bl	lv_scr_act
 603              	.LVL88:
 604              	.LBB8:
 605              	.LBI8:
 600:Drivers/lvgl/src/hal/../draw/../misc/lv_color.h **** {
 606              		.loc 3 600 26 is_stmt 1 view .LVU116
 607              	.LBB9:
 603:Drivers/lvgl/src/hal/../draw/../misc/lv_color.h **** #if LV_COLOR_16_SWAP == 0
 608              		.loc 3 603 5 view .LVU117
 622:Drivers/lvgl/src/hal/../draw/../misc/lv_color.h **** #endif
 609              		.loc 3 622 5 view .LVU118
 610              		.loc 3 624 5 view .LVU119
 611              		.loc 3 624 5 is_stmt 0 view .LVU120
 612              	.LBE9:
 613              	.LBE8:
 614              		.loc 1 186 5 discriminator 2 view .LVU121
 615 0014 0022     		movs	r2, #0
 616 0016 4FF0FF31 		mov	r1, #-1	@ movhi
 617 001a FFF7FEFF 		bl	lv_obj_set_style_text_color
 618              	.LVL89:
 187:Core/Src/UI_LCD.c ****     create_arcs();
 619              		.loc 1 187 5 is_stmt 1 view .LVU122
 620 001e FFF7FEFF 		bl	create_arcs
 621              	.LVL90:
 188:Core/Src/UI_LCD.c **** 
 189:Core/Src/UI_LCD.c ****     
 190:Core/Src/UI_LCD.c **** }
 622              		.loc 1 190 1 is_stmt 0 view .LVU123
 623 0022 08BD     		pop	{r3, pc}
 624              		.cfi_endproc
 625              	.LFE448:
 627              		.section	.rodata.UI_LCD_process.str1.4,"aMS",%progbits,1
 628              		.align	2
 629              	.LC11:
 630 0000 464D2032 		.ascii	"FM 2 operators\000"
 630      206F7065 
 630      7261746F 
 630      727300
 631              		.section	.text.UI_LCD_process,"ax",%progbits
 632              		.align	1
 633              		.global	UI_LCD_process
 634              		.syntax unified
 635              		.thumb
 636              		.thumb_func
 638              	UI_LCD_process:
 639              	.LFB449:
 191:Core/Src/UI_LCD.c **** 
ARM GAS  /var/folders/lp/x54gwt890xv47sdkqj1k04q40000gn/T//ccly3Ev6.s 			page 30


 192:Core/Src/UI_LCD.c **** 
 193:Core/Src/UI_LCD.c **** /**
 194:Core/Src/UI_LCD.c ****  * @brief display the state of the 3 potentiometers, and the current oscillator mode
 195:Core/Src/UI_LCD.c ****  * 
 196:Core/Src/UI_LCD.c ****  */
 197:Core/Src/UI_LCD.c **** void UI_LCD_process(void){
 640              		.loc 1 197 26 is_stmt 1 view -0
 641              		.cfi_startproc
 642              		@ args = 0, pretend = 0, frame = 0
 643              		@ frame_needed = 0, uses_anonymous_args = 0
 644 0000 08B5     		push	{r3, lr}
 645              		.cfi_def_cfa_offset 8
 646              		.cfi_offset 3, -8
 647              		.cfi_offset 14, -4
 648 0002 2DED028B 		vpush.64	{d8}
 649              		.cfi_def_cfa_offset 16
 650              		.cfi_offset 80, -16
 651              		.cfi_offset 81, -12
 198:Core/Src/UI_LCD.c ****     lv_arc_set_angles(pot1, 0, 270 * pot1_norm);
 652              		.loc 1 198 5 view .LVU125
 653              		.loc 1 198 36 is_stmt 0 view .LVU126
 654 0006 214B     		ldr	r3, .L18
 655 0008 D3ED007A 		vldr.32	s15, [r3]
 656 000c 9FED208A 		vldr.32	s16, .L18+4
 657 0010 67EE887A 		vmul.f32	s15, s15, s16
 658              		.loc 1 198 5 view .LVU127
 659 0014 FCEEE77A 		vcvt.u32.f32	s15, s15
 660 0018 17EE903A 		vmov	r3, s15	@ int
 661 001c 9AB2     		uxth	r2, r3
 662 001e 0021     		movs	r1, #0
 663 0020 1C4B     		ldr	r3, .L18+8
 664 0022 1868     		ldr	r0, [r3]
 665 0024 FFF7FEFF 		bl	lv_arc_set_angles
 666              	.LVL91:
 199:Core/Src/UI_LCD.c ****     lv_arc_set_angles(pot2, 0, 270 * pot2_norm); 
 667              		.loc 1 199 5 is_stmt 1 view .LVU128
 668              		.loc 1 199 36 is_stmt 0 view .LVU129
 669 0028 1B4B     		ldr	r3, .L18+12
 670 002a D3ED007A 		vldr.32	s15, [r3]
 671 002e 67EE887A 		vmul.f32	s15, s15, s16
 672              		.loc 1 199 5 view .LVU130
 673 0032 FCEEE77A 		vcvt.u32.f32	s15, s15
 674 0036 17EE903A 		vmov	r3, s15	@ int
 675 003a 9AB2     		uxth	r2, r3
 676 003c 0021     		movs	r1, #0
 677 003e 174B     		ldr	r3, .L18+16
 678 0040 1868     		ldr	r0, [r3]
 679 0042 FFF7FEFF 		bl	lv_arc_set_angles
 680              	.LVL92:
 200:Core/Src/UI_LCD.c ****     lv_arc_set_angles(pot3, 0, 270 * pot3_norm);
 681              		.loc 1 200 5 is_stmt 1 view .LVU131
 682              		.loc 1 200 36 is_stmt 0 view .LVU132
 683 0046 164B     		ldr	r3, .L18+20
 684 0048 D3ED007A 		vldr.32	s15, [r3]
 685 004c 67EE887A 		vmul.f32	s15, s15, s16
 686              		.loc 1 200 5 view .LVU133
 687 0050 FCEEE77A 		vcvt.u32.f32	s15, s15
ARM GAS  /var/folders/lp/x54gwt890xv47sdkqj1k04q40000gn/T//ccly3Ev6.s 			page 31


 688 0054 17EE903A 		vmov	r3, s15	@ int
 689 0058 9AB2     		uxth	r2, r3
 690 005a 0021     		movs	r1, #0
 691 005c 114B     		ldr	r3, .L18+24
 692 005e 1868     		ldr	r0, [r3]
 693 0060 FFF7FEFF 		bl	lv_arc_set_angles
 694              	.LVL93:
 201:Core/Src/UI_LCD.c ****     uint8_t osc_select = current_count % 2;
 695              		.loc 1 201 5 is_stmt 1 view .LVU134
 696              		.loc 1 201 40 is_stmt 0 view .LVU135
 697 0064 104B     		ldr	r3, .L18+28
 698 0066 1B78     		ldrb	r3, [r3]	@ zero_extendqisi2
 699              	.LVL94:
 202:Core/Src/UI_LCD.c ****     switch(osc_select){
 700              		.loc 1 202 5 is_stmt 1 view .LVU136
 701 0068 13F00103 		ands	r3, r3, #1
 702              	.LVL95:
 703              		.loc 1 202 5 is_stmt 0 view .LVU137
 704 006c 06D0     		beq	.L14
 705 006e 53B1     		cbz	r3, .L13
 203:Core/Src/UI_LCD.c **** 			case 0:
 204:Core/Src/UI_LCD.c **** 			// analog waveforms
 205:Core/Src/UI_LCD.c ****                 lv_label_set_text(osc_txt, "virtual analog");
 206:Core/Src/UI_LCD.c ****             break;
 207:Core/Src/UI_LCD.c **** 
 208:Core/Src/UI_LCD.c ****             case 1:
 209:Core/Src/UI_LCD.c **** 			// FM
 210:Core/Src/UI_LCD.c **** 				lv_label_set_text(osc_txt, "FM 2 operators");
 706              		.loc 1 210 5 is_stmt 1 view .LVU138
 707 0070 0E49     		ldr	r1, .L18+32
 708 0072 0F4B     		ldr	r3, .L18+36
 709 0074 1868     		ldr	r0, [r3]
 710 0076 FFF7FEFF 		bl	lv_label_set_text
 711              	.LVL96:
 211:Core/Src/UI_LCD.c **** 				break;
 712              		.loc 1 211 5 view .LVU139
 212:Core/Src/UI_LCD.c **** 		}
 213:Core/Src/UI_LCD.c **** 
 214:Core/Src/UI_LCD.c **** }
 713              		.loc 1 214 1 is_stmt 0 view .LVU140
 714 007a 04E0     		b	.L13
 715              	.LVL97:
 716              	.L14:
 205:Core/Src/UI_LCD.c ****             break;
 717              		.loc 1 205 17 is_stmt 1 view .LVU141
 718 007c 0D49     		ldr	r1, .L18+40
 719 007e 0C4B     		ldr	r3, .L18+36
 720 0080 1868     		ldr	r0, [r3]
 721 0082 FFF7FEFF 		bl	lv_label_set_text
 722              	.LVL98:
 206:Core/Src/UI_LCD.c **** 
 723              		.loc 1 206 13 view .LVU142
 724              	.L13:
 725              		.loc 1 214 1 is_stmt 0 view .LVU143
 726 0086 BDEC028B 		vldm	sp!, {d8}
 727              		.cfi_restore 80
 728              		.cfi_restore 81
ARM GAS  /var/folders/lp/x54gwt890xv47sdkqj1k04q40000gn/T//ccly3Ev6.s 			page 32


 729              		.cfi_def_cfa_offset 8
 730 008a 08BD     		pop	{r3, pc}
 731              	.L19:
 732              		.align	2
 733              	.L18:
 734 008c 00000000 		.word	pot1_norm
 735 0090 00008743 		.word	1132920832
 736 0094 00000000 		.word	pot1
 737 0098 00000000 		.word	pot2_norm
 738 009c 00000000 		.word	pot2
 739 00a0 00000000 		.word	pot3_norm
 740 00a4 00000000 		.word	pot3
 741 00a8 00000000 		.word	current_count
 742 00ac 00000000 		.word	.LC11
 743 00b0 00000000 		.word	osc_txt
 744 00b4 10000000 		.word	.LC1
 745              		.cfi_endproc
 746              	.LFE449:
 748              		.global	osc_txt
 749              		.section	.bss.osc_txt,"aw",%nobits
 750              		.align	2
 753              	osc_txt:
 754 0000 00000000 		.space	4
 755              		.global	my_indev
 756              		.section	.bss.my_indev,"aw",%nobits
 757              		.align	2
 760              	my_indev:
 761 0000 00000000 		.space	4
 762              		.global	g
 763              		.section	.bss.g,"aw",%nobits
 764              		.align	2
 767              	g:
 768 0000 00000000 		.space	4
 769              		.global	tabview
 770              		.section	.bss.tabview,"aw",%nobits
 771              		.align	2
 774              	tabview:
 775 0000 00000000 		.space	4
 776              		.global	pot3
 777              		.section	.bss.pot3,"aw",%nobits
 778              		.align	2
 781              	pot3:
 782 0000 00000000 		.space	4
 783              		.global	pot2
 784              		.section	.bss.pot2,"aw",%nobits
 785              		.align	2
 788              	pot2:
 789 0000 00000000 		.space	4
 790              		.global	pot1
 791              		.section	.bss.pot1,"aw",%nobits
 792              		.align	2
 795              	pot1:
 796 0000 00000000 		.space	4
 797              		.text
 798              	.Letext0:
 799              		.file 4 "/Users/jr/Library/Application Support/Code/User/globalStorage/bmd.stm32-for-vscode/@xpack
 800              		.file 5 "/Users/jr/Library/Application Support/Code/User/globalStorage/bmd.stm32-for-vscode/@xpack
ARM GAS  /var/folders/lp/x54gwt890xv47sdkqj1k04q40000gn/T//ccly3Ev6.s 			page 33


 801              		.file 6 "Drivers/lvgl/src/misc/lv_types.h"
 802              		.file 7 "Drivers/lvgl/src/misc/lv_timer.h"
 803              		.file 8 "/Users/jr/Library/Application Support/Code/User/globalStorage/bmd.stm32-for-vscode/@xpack
 804              		.file 9 "Drivers/lvgl/src/hal/../draw/../misc/../font/../misc/lv_area.h"
 805              		.file 10 "Drivers/lvgl/src/hal/../draw/../misc/../font/lv_font.h"
 806              		.file 11 "Drivers/lvgl/src/hal/../draw/../misc/lv_txt.h"
 807              		.file 12 "Drivers/lvgl/src/hal/../draw/../misc/lv_bidi.h"
 808              		.file 13 "Drivers/lvgl/src/hal/../draw/../misc/lv_style.h"
 809              		.file 14 "Drivers/lvgl/src/hal/../draw/lv_img_buf.h"
 810              		.file 15 "Drivers/lvgl/src/core/lv_obj.h"
 811              		.file 16 "Drivers/lvgl/src/hal/../draw/lv_draw_rect.h"
 812              		.file 17 "Drivers/lvgl/src/hal/../draw/lv_draw_label.h"
 813              		.file 18 "Drivers/lvgl/src/hal/../draw/lv_draw_img.h"
 814              		.file 19 "Drivers/lvgl/src/hal/../draw/lv_draw_line.h"
 815              		.file 20 "Drivers/lvgl/src/hal/../draw/lv_draw_arc.h"
 816              		.file 21 "Drivers/lvgl/src/hal/../draw/lv_draw_layer.h"
 817              		.file 22 "Drivers/lvgl/src/hal/../draw/lv_draw.h"
 818              		.file 23 "Drivers/lvgl/src/hal/../misc/lv_ll.h"
 819              		.file 24 "Drivers/lvgl/src/hal/lv_hal_disp.h"
 820              		.file 25 "Drivers/lvgl/src/core/lv_theme.h"
 821              		.file 26 "Drivers/lvgl/src/hal/lv_hal_indev.h"
 822              		.file 27 "Drivers/lvgl/src/core/lv_group.h"
 823              		.file 28 "Drivers/lvgl/src/core/lv_obj_scroll.h"
 824              		.file 29 "Drivers/lvgl/src/core/lv_obj_style.h"
 825              		.file 30 "Drivers/lvgl/src/core/lv_obj_class.h"
 826              		.file 31 "Drivers/lvgl/src/core/lv_event.h"
 827              		.file 32 "Drivers/lvgl/src/widgets/lv_bar.h"
 828              		.file 33 "Drivers/lvgl/src/extra/widgets/imgbtn/lv_imgbtn.h"
 829              		.file 34 "Drivers/lvgl/src/widgets/lv_arc.h"
 830              		.file 35 "Drivers/lvgl/src/core/lv_obj_style_gen.h"
 831              		.file 36 "Drivers/lvgl/src/extra/widgets/tabview/lv_tabview.h"
 832              		.file 37 "Drivers/lvgl/src/hal/../draw/sw/../../core/lv_obj_pos.h"
 833              		.file 38 "Drivers/lvgl/src/widgets/lv_label.h"
ARM GAS  /var/folders/lp/x54gwt890xv47sdkqj1k04q40000gn/T//ccly3Ev6.s 			page 34

