ARM GAS  /var/folders/lp/x54gwt890xv47sdkqj1k04q40000gn/T//cc9BnrIs.s 			page 1


   1              		.cpu cortex-m4
   2              		.arch armv7e-m
   3              		.fpu fpv4-sp-d16
   4              		.eabi_attribute 27, 1
   5              		.eabi_attribute 28, 1
   6              		.eabi_attribute 20, 1
   7              		.eabi_attribute 21, 1
   8              		.eabi_attribute 23, 3
   9              		.eabi_attribute 24, 1
  10              		.eabi_attribute 25, 1
  11              		.eabi_attribute 26, 1
  12              		.eabi_attribute 30, 2
  13              		.eabi_attribute 34, 1
  14              		.eabi_attribute 18, 4
  15              		.file	"consoleCommands.c"
  16              		.text
  17              		.section	.text.ConsoleCommandComment,"ax",%progbits
  18              		.align	1
  19              		.p2align 2,,3
  20              		.syntax unified
  21              		.thumb
  22              		.thumb_func
  24              	ConsoleCommandComment:
  25              		@ args = 0, pretend = 0, frame = 0
  26              		@ frame_needed = 0, uses_anonymous_args = 0
  27              		@ link register save eliminated.
  28 0000 0020     		movs	r0, #0
  29 0002 7047     		bx	lr
  31              		.section	.text.ConsoleCommandParamSaw2,"ax",%progbits
  32              		.align	1
  33              		.p2align 2,,3
  34              		.syntax unified
  35              		.thumb
  36              		.thumb_func
  38              	ConsoleCommandParamSaw2:
  39              		@ args = 0, pretend = 0, frame = 8
  40              		@ frame_needed = 0, uses_anonymous_args = 0
  41 0000 00B5     		push	{lr}
  42 0002 83B0     		sub	sp, sp, #12
  43 0004 0DF10602 		add	r2, sp, #6
  44 0008 0121     		movs	r1, #1
  45 000a FFF7FEFF 		bl	ConsoleReceiveParamInt16
  46 000e 18B9     		cbnz	r0, .L4
  47 0010 034B     		ldr	r3, .L6
  48 0012 BDF80620 		ldrh	r2, [sp, #6]
  49 0016 1A80     		strh	r2, [r3]	@ movhi
  50              	.L4:
  51 0018 03B0     		add	sp, sp, #12
  52              		@ sp needed
  53 001a 5DF804FB 		ldr	pc, [sp], #4
  54              	.L7:
  55 001e 00BF     		.align	2
  56              	.L6:
  57 0020 00000000 		.word	saw2_freq
  59              		.section	.text.ConsoleCommandParamSaw1,"ax",%progbits
  60              		.align	1
  61              		.p2align 2,,3
ARM GAS  /var/folders/lp/x54gwt890xv47sdkqj1k04q40000gn/T//cc9BnrIs.s 			page 2


  62              		.syntax unified
  63              		.thumb
  64              		.thumb_func
  66              	ConsoleCommandParamSaw1:
  67              		@ args = 0, pretend = 0, frame = 8
  68              		@ frame_needed = 0, uses_anonymous_args = 0
  69 0000 00B5     		push	{lr}
  70 0002 83B0     		sub	sp, sp, #12
  71 0004 0DF10602 		add	r2, sp, #6
  72 0008 0121     		movs	r1, #1
  73 000a FFF7FEFF 		bl	ConsoleReceiveParamInt16
  74 000e 18B9     		cbnz	r0, .L9
  75 0010 034B     		ldr	r3, .L11
  76 0012 BDF80620 		ldrh	r2, [sp, #6]
  77 0016 1A80     		strh	r2, [r3]	@ movhi
  78              	.L9:
  79 0018 03B0     		add	sp, sp, #12
  80              		@ sp needed
  81 001a 5DF804FB 		ldr	pc, [sp], #4
  82              	.L12:
  83 001e 00BF     		.align	2
  84              	.L11:
  85 0020 00000000 		.word	saw1_freq
  87              		.section	.rodata.ConsoleCommandVer.str1.4,"aMS",%progbits,1
  88              		.align	2
  89              	.LC0:
  90 0000 4D455320 		.ascii	"MES Minisynth STM32F407G-disco 0.1\000"
  90      4D696E69 
  90      73796E74 
  90      68205354 
  90      4D333246 
  91 0023 00       		.align	2
  92              	.LC1:
  93 0024 0D0A00   		.ascii	"\015\012\000"
  94              		.section	.text.ConsoleCommandVer,"ax",%progbits
  95              		.align	1
  96              		.p2align 2,,3
  97              		.syntax unified
  98              		.thumb
  99              		.thumb_func
 101              	ConsoleCommandVer:
 102              		@ args = 0, pretend = 0, frame = 0
 103              		@ frame_needed = 0, uses_anonymous_args = 0
 104 0000 08B5     		push	{r3, lr}
 105 0002 0448     		ldr	r0, .L15
 106 0004 FFF7FEFF 		bl	ConsoleIoSendString
 107 0008 0348     		ldr	r0, .L15+4
 108 000a FFF7FEFF 		bl	ConsoleIoSendString
 109 000e 0020     		movs	r0, #0
 110 0010 08BD     		pop	{r3, pc}
 111              	.L16:
 112 0012 00BF     		.align	2
 113              	.L15:
 114 0014 00000000 		.word	.LC0
 115 0018 24000000 		.word	.LC1
 117              		.section	.rodata.ConsoleCommandHelp.str1.4,"aMS",%progbits,1
 118              		.align	2
ARM GAS  /var/folders/lp/x54gwt890xv47sdkqj1k04q40000gn/T//cc9BnrIs.s 			page 3


 119              	.LC2:
 120 0000 203A2000 		.ascii	" : \000"
 121              		.section	.text.ConsoleCommandHelp,"ax",%progbits
 122              		.align	1
 123              		.p2align 2,,3
 124              		.syntax unified
 125              		.thumb
 126              		.thumb_func
 128              	ConsoleCommandHelp:
 129              		@ args = 0, pretend = 0, frame = 0
 130              		@ frame_needed = 0, uses_anonymous_args = 0
 131 0000 F8B5     		push	{r3, r4, r5, r6, r7, lr}
 132 0002 0B4C     		ldr	r4, .L21
 133 0004 0B4F     		ldr	r7, .L21+4
 134 0006 0C4E     		ldr	r6, .L21+8
 135 0008 04F5B475 		add	r5, r4, #360
 136              	.L18:
 137 000c 54F8080C 		ldr	r0, [r4, #-8]
 138 0010 FFF7FEFF 		bl	ConsoleIoSendString
 139 0014 3846     		mov	r0, r7
 140 0016 FFF7FEFF 		bl	ConsoleIoSendString
 141 001a 2046     		mov	r0, r4
 142 001c FFF7FEFF 		bl	ConsoleIoSendString
 143 0020 4834     		adds	r4, r4, #72
 144 0022 3046     		mov	r0, r6
 145 0024 FFF7FEFF 		bl	ConsoleIoSendString
 146 0028 AC42     		cmp	r4, r5
 147 002a EFD1     		bne	.L18
 148 002c 0020     		movs	r0, #0
 149 002e F8BD     		pop	{r3, r4, r5, r6, r7, pc}
 150              	.L22:
 151              		.align	2
 152              	.L21:
 153 0030 08000000 		.word	mConsoleCommandTable+8
 154 0034 00000000 		.word	.LC2
 155 0038 24000000 		.word	.LC1
 157              		.section	.text.ConsoleCommandsGetTable,"ax",%progbits
 158              		.align	1
 159              		.p2align 2,,3
 160              		.global	ConsoleCommandsGetTable
 161              		.syntax unified
 162              		.thumb
 163              		.thumb_func
 165              	ConsoleCommandsGetTable:
 166              		@ args = 0, pretend = 0, frame = 0
 167              		@ frame_needed = 0, uses_anonymous_args = 0
 168              		@ link register save eliminated.
 169 0000 0048     		ldr	r0, .L24
 170 0002 7047     		bx	lr
 171              	.L25:
 172              		.align	2
 173              	.L24:
 174 0004 00000000 		.word	mConsoleCommandTable
 176              		.section	.rodata.str1.4,"aMS",%progbits,1
 177              		.align	2
 178              	.LC3:
 179 0000 3B00     		.ascii	";\000"
ARM GAS  /var/folders/lp/x54gwt890xv47sdkqj1k04q40000gn/T//cc9BnrIs.s 			page 4


 180 0002 0000     		.align	2
 181              	.LC4:
 182 0004 68656C70 		.ascii	"help\000"
 182      00
 183 0009 000000   		.align	2
 184              	.LC5:
 185 000c 76657200 		.ascii	"ver\000"
 186              		.align	2
 187              	.LC6:
 188 0010 73617731 		.ascii	"saw1\000"
 188      00
 189 0015 000000   		.align	2
 190              	.LC7:
 191 0018 73617732 		.ascii	"saw2\000"
 191      00
 192              		.section	.rodata.mConsoleCommandTable,"a"
 193              		.align	2
 196              	mConsoleCommandTable:
 197 0000 00000000 		.word	.LC3
 198 0004 00000000 		.word	ConsoleCommandComment
 199 0008 436F6D6D 		.ascii	"Comment! You do need a space after the semicolon. \000"
 199      656E7421 
 199      20596F75 
 199      20646F20 
 199      6E656564 
 200 003b 00000000 		.space	13
 200      00000000 
 200      00000000 
 200      00
 201 0048 04000000 		.word	.LC4
 202 004c 00000000 		.word	ConsoleCommandHelp
 203 0050 4C697374 		.ascii	"Lists the commands available\000"
 203      73207468 
 203      6520636F 
 203      6D6D616E 
 203      64732061 
 204 006d 00000000 		.space	35
 204      00000000 
 204      00000000 
 204      00000000 
 204      00000000 
 205 0090 0C000000 		.word	.LC5
 206 0094 00000000 		.word	ConsoleCommandVer
 207 0098 47657420 		.ascii	"Get the version string\000"
 207      74686520 
 207      76657273 
 207      696F6E20 
 207      73747269 
 208 00af 00000000 		.space	41
 208      00000000 
 208      00000000 
 208      00000000 
 208      00000000 
 209 00d8 10000000 		.word	.LC6
 210 00dc 00000000 		.word	ConsoleCommandParamSaw1
 211 00e0 53706563 		.ascii	"Specify left-channel sawtooth frequency: saw1 220\000"
 211      69667920 
ARM GAS  /var/folders/lp/x54gwt890xv47sdkqj1k04q40000gn/T//cc9BnrIs.s 			page 5


 211      6C656674 
 211      2D636861 
 211      6E6E656C 
 212 0112 00000000 		.space	14
 212      00000000 
 212      00000000 
 212      0000
 213 0120 18000000 		.word	.LC7
 214 0124 00000000 		.word	ConsoleCommandParamSaw2
 215 0128 53706563 		.ascii	"Specify right-channel sawtooth frequency: saw2 220\000"
 215      69667920 
 215      72696768 
 215      742D6368 
 215      616E6E65 
 216 015b 00000000 		.space	13
 216      00000000 
 216      00000000 
 216      00
 217 0168 00000000 		.word	0
 218 016c 00000000 		.word	0
 219 0170 00       		.ascii	"\000"
 220 0171 00000000 		.space	63
 220      00000000 
 220      00000000 
 220      00000000 
 220      00000000 
 221              		.ident	"GCC: (xPack GNU Arm Embedded GCC arm64) 13.3.1 20240614"
ARM GAS  /var/folders/lp/x54gwt890xv47sdkqj1k04q40000gn/T//cc9BnrIs.s 			page 6

