ARM GAS  /var/folders/lp/x54gwt890xv47sdkqj1k04q40000gn/T//ccaHNj7M.s 			page 1


   1              		.cpu cortex-m4
   2              		.arch armv7e-m
   3              		.fpu fpv4-sp-d16
   4              		.eabi_attribute 27, 1
   5              		.eabi_attribute 28, 1
   6              		.eabi_attribute 20, 1
   7              		.eabi_attribute 21, 1
   8              		.eabi_attribute 23, 3
   9              		.eabi_attribute 24, 1
  10              		.eabi_attribute 25, 1
  11              		.eabi_attribute 26, 1
  12              		.eabi_attribute 30, 2
  13              		.eabi_attribute 34, 1
  14              		.eabi_attribute 18, 4
  15              		.file	"lis3dsh.c"
  16              		.text
  17              		.section	.text.LIS3DSH_DeInit,"ax",%progbits
  18              		.align	1
  19              		.p2align 2,,3
  20              		.global	LIS3DSH_DeInit
  21              		.syntax unified
  22              		.thumb
  23              		.thumb_func
  25              	LIS3DSH_DeInit:
  26              		@ args = 0, pretend = 0, frame = 0
  27              		@ frame_needed = 0, uses_anonymous_args = 0
  28              		@ link register save eliminated.
  29 0000 7047     		bx	lr
  31 0002 00BF     		.section	.text.LIS3DSH_Init,"ax",%progbits
  32              		.align	1
  33              		.p2align 2,,3
  34              		.global	LIS3DSH_Init
  35              		.syntax unified
  36              		.thumb
  37              		.thumb_func
  39              	LIS3DSH_Init:
  40              		@ args = 0, pretend = 0, frame = 8
  41              		@ frame_needed = 0, uses_anonymous_args = 0
  42 0000 10B5     		push	{r4, lr}
  43 0002 82B0     		sub	sp, sp, #8
  44 0004 0023     		movs	r3, #0
  45 0006 0446     		mov	r4, r0
  46 0008 8DF80730 		strb	r3, [sp, #7]
  47 000c FFF7FEFF 		bl	ACCELERO_IO_Init
  48 0010 0DF10700 		add	r0, sp, #7
  49 0014 0122     		movs	r2, #1
  50 0016 2021     		movs	r1, #32
  51 0018 8DF80740 		strb	r4, [sp, #7]
  52 001c FFF7FEFF 		bl	ACCELERO_IO_Write
  53 0020 240A     		lsrs	r4, r4, #8
  54 0022 0122     		movs	r2, #1
  55 0024 2421     		movs	r1, #36
  56 0026 0DF10700 		add	r0, sp, #7
  57 002a 8DF80740 		strb	r4, [sp, #7]
  58 002e FFF7FEFF 		bl	ACCELERO_IO_Write
  59 0032 02B0     		add	sp, sp, #8
  60              		@ sp needed
ARM GAS  /var/folders/lp/x54gwt890xv47sdkqj1k04q40000gn/T//ccaHNj7M.s 			page 2


  61 0034 10BD     		pop	{r4, pc}
  63 0036 00BF     		.section	.text.LIS3DSH_ReadID,"ax",%progbits
  64              		.align	1
  65              		.p2align 2,,3
  66              		.global	LIS3DSH_ReadID
  67              		.syntax unified
  68              		.thumb
  69              		.thumb_func
  71              	LIS3DSH_ReadID:
  72              		@ args = 0, pretend = 0, frame = 8
  73              		@ frame_needed = 0, uses_anonymous_args = 0
  74 0000 00B5     		push	{lr}
  75 0002 83B0     		sub	sp, sp, #12
  76 0004 0023     		movs	r3, #0
  77 0006 8DF80730 		strb	r3, [sp, #7]
  78 000a FFF7FEFF 		bl	ACCELERO_IO_Init
  79 000e 0DF10700 		add	r0, sp, #7
  80 0012 0122     		movs	r2, #1
  81 0014 0F21     		movs	r1, #15
  82 0016 FFF7FEFF 		bl	ACCELERO_IO_Read
  83 001a 9DF80700 		ldrb	r0, [sp, #7]	@ zero_extendqisi2
  84 001e 03B0     		add	sp, sp, #12
  85              		@ sp needed
  86 0020 5DF804FB 		ldr	pc, [sp], #4
  88              		.section	.text.LIS3DSH_RebootCmd,"ax",%progbits
  89              		.align	1
  90              		.p2align 2,,3
  91              		.global	LIS3DSH_RebootCmd
  92              		.syntax unified
  93              		.thumb
  94              		.thumb_func
  96              	LIS3DSH_RebootCmd:
  97              		@ args = 0, pretend = 0, frame = 8
  98              		@ frame_needed = 0, uses_anonymous_args = 0
  99 0000 00B5     		push	{lr}
 100 0002 83B0     		sub	sp, sp, #12
 101 0004 0DF10700 		add	r0, sp, #7
 102 0008 0122     		movs	r2, #1
 103 000a 2521     		movs	r1, #37
 104 000c FFF7FEFF 		bl	ACCELERO_IO_Read
 105 0010 9DF80730 		ldrb	r3, [sp, #7]	@ zero_extendqisi2
 106 0014 0122     		movs	r2, #1
 107 0016 63F07F03 		orn	r3, r3, #127
 108 001a 2521     		movs	r1, #37
 109 001c 0DF10700 		add	r0, sp, #7
 110 0020 8DF80730 		strb	r3, [sp, #7]
 111 0024 FFF7FEFF 		bl	ACCELERO_IO_Write
 112 0028 03B0     		add	sp, sp, #12
 113              		@ sp needed
 114 002a 5DF804FB 		ldr	pc, [sp], #4
 116 002e 00BF     		.section	.text.LIS3DSH_ReadACC,"ax",%progbits
 117              		.align	1
 118              		.p2align 2,,3
 119              		.global	LIS3DSH_ReadACC
 120              		.syntax unified
 121              		.thumb
 122              		.thumb_func
ARM GAS  /var/folders/lp/x54gwt890xv47sdkqj1k04q40000gn/T//ccaHNj7M.s 			page 3


 124              	LIS3DSH_ReadACC:
 125              		@ args = 0, pretend = 0, frame = 16
 126              		@ frame_needed = 0, uses_anonymous_args = 0
 127 0000 10B5     		push	{r4, lr}
 128 0002 84B0     		sub	sp, sp, #16
 129 0004 0446     		mov	r4, r0
 130 0006 0122     		movs	r2, #1
 131 0008 2421     		movs	r1, #36
 132 000a 0DF10700 		add	r0, sp, #7
 133 000e FFF7FEFF 		bl	ACCELERO_IO_Read
 134 0012 0122     		movs	r2, #1
 135 0014 2821     		movs	r1, #40
 136 0016 02A8     		add	r0, sp, #8
 137 0018 FFF7FEFF 		bl	ACCELERO_IO_Read
 138 001c 0122     		movs	r2, #1
 139 001e 2921     		movs	r1, #41
 140 0020 0DF10900 		add	r0, sp, #9
 141 0024 FFF7FEFF 		bl	ACCELERO_IO_Read
 142 0028 0122     		movs	r2, #1
 143 002a 2A21     		movs	r1, #42
 144 002c 0DF10A00 		add	r0, sp, #10
 145 0030 FFF7FEFF 		bl	ACCELERO_IO_Read
 146 0034 0122     		movs	r2, #1
 147 0036 2B21     		movs	r1, #43
 148 0038 0DF10B00 		add	r0, sp, #11
 149 003c FFF7FEFF 		bl	ACCELERO_IO_Read
 150 0040 0122     		movs	r2, #1
 151 0042 2C21     		movs	r1, #44
 152 0044 03A8     		add	r0, sp, #12
 153 0046 FFF7FEFF 		bl	ACCELERO_IO_Read
 154 004a 0122     		movs	r2, #1
 155 004c 2D21     		movs	r1, #45
 156 004e 0DF10D00 		add	r0, sp, #13
 157 0052 FFF7FEFF 		bl	ACCELERO_IO_Read
 158 0056 9DF80730 		ldrb	r3, [sp, #7]	@ zero_extendqisi2
 159 005a 03F03803 		and	r3, r3, #56
 160 005e 083B     		subs	r3, r3, #8
 161 0060 DBB2     		uxtb	r3, r3
 162 0062 182B     		cmp	r3, #24
 163 0064 97BF     		itett	ls
 164 0066 104A     		ldrls	r2, .L15
 165 0068 9FED107A 		vldrhi.32	s14, .L15+4
 166 006c 02EB8303 		addls	r3, r2, r3, lsl #2
 167 0070 93ED007A 		vldrls.32	s14, [r3]
 168 0074 02AA     		add	r2, sp, #8
 169 0076 A11E     		subs	r1, r4, #2
 170 0078 201D     		adds	r0, r4, #4
 171              	.L11:
 172 007a 92F90140 		ldrsb	r4, [r2, #1]
 173 007e 12F9023B 		ldrsb	r3, [r2], #2
 174 0082 03EB0423 		add	r3, r3, r4, lsl #8
 175 0086 07EE903A 		vmov	s15, r3	@ int
 176 008a F8EEE77A 		vcvt.f32.s32	s15, s15
 177 008e 67EE877A 		vmul.f32	s15, s15, s14
 178 0092 FDEEE77A 		vcvt.s32.f32	s15, s15
 179 0096 17EE903A 		vmov	r3, s15	@ int
 180 009a 21F8023F 		strh	r3, [r1, #2]!	@ movhi
ARM GAS  /var/folders/lp/x54gwt890xv47sdkqj1k04q40000gn/T//ccaHNj7M.s 			page 4


 181 009e 8142     		cmp	r1, r0
 182 00a0 EBD1     		bne	.L11
 183 00a2 04B0     		add	sp, sp, #16
 184              		@ sp needed
 185 00a4 10BD     		pop	{r4, pc}
 186              	.L16:
 187 00a6 00BF     		.align	2
 188              	.L15:
 189 00a8 00000000 		.word	CSWTCH.14
 190 00ac 8FC2753D 		.word	1031127695
 192              		.section	.text.LIS3DSH_InterruptConfig,"ax",%progbits
 193              		.align	1
 194              		.p2align 2,,3
 195              		.global	LIS3DSH_InterruptConfig
 196              		.syntax unified
 197              		.thumb
 198              		.thumb_func
 200              	LIS3DSH_InterruptConfig:
 201              		@ args = 0, pretend = 0, frame = 8
 202              		@ frame_needed = 0, uses_anonymous_args = 0
 203 0000 10B5     		push	{r4, lr}
 204 0002 0178     		ldrb	r1, [r0]	@ zero_extendqisi2
 205 0004 4378     		ldrb	r3, [r0, #1]	@ zero_extendqisi2
 206 0006 8278     		ldrb	r2, [r0, #2]	@ zero_extendqisi2
 207 0008 82B0     		sub	sp, sp, #8
 208 000a 0446     		mov	r4, r0
 209 000c 0B43     		orrs	r3, r3, r1
 210 000e 1343     		orrs	r3, r3, r2
 211 0010 0DF10700 		add	r0, sp, #7
 212 0014 0122     		movs	r2, #1
 213 0016 2321     		movs	r1, #35
 214 0018 8DF80730 		strb	r3, [sp, #7]
 215 001c FFF7FEFF 		bl	ACCELERO_IO_Write
 216 0020 2079     		ldrb	r0, [r4, #4]	@ zero_extendqisi2
 217 0022 E378     		ldrb	r3, [r4, #3]	@ zero_extendqisi2
 218 0024 0122     		movs	r2, #1
 219 0026 0343     		orrs	r3, r3, r0
 220 0028 2121     		movs	r1, #33
 221 002a 0DF10700 		add	r0, sp, #7
 222 002e 8DF80730 		strb	r3, [sp, #7]
 223 0032 FFF7FEFF 		bl	ACCELERO_IO_Write
 224 0036 A079     		ldrb	r0, [r4, #6]	@ zero_extendqisi2
 225 0038 6379     		ldrb	r3, [r4, #5]	@ zero_extendqisi2
 226 003a 0122     		movs	r2, #1
 227 003c 0343     		orrs	r3, r3, r0
 228 003e 2221     		movs	r1, #34
 229 0040 0DF10700 		add	r0, sp, #7
 230 0044 8DF80730 		strb	r3, [sp, #7]
 231 0048 FFF7FEFF 		bl	ACCELERO_IO_Write
 232 004c 02B0     		add	sp, sp, #8
 233              		@ sp needed
 234 004e 10BD     		pop	{r4, pc}
 236              		.section	.text.LIS3DSH_Click_IntConfig,"ax",%progbits
 237              		.align	1
 238              		.p2align 2,,3
 239              		.global	LIS3DSH_Click_IntConfig
 240              		.syntax unified
ARM GAS  /var/folders/lp/x54gwt890xv47sdkqj1k04q40000gn/T//ccaHNj7M.s 			page 5


 241              		.thumb
 242              		.thumb_func
 244              	LIS3DSH_Click_IntConfig:
 245              		@ args = 0, pretend = 0, frame = 16
 246              		@ frame_needed = 0, uses_anonymous_args = 0
 247 0000 10B5     		push	{r4, lr}
 248 0002 84B0     		sub	sp, sp, #16
 249 0004 0023     		movs	r3, #0
 250 0006 0124     		movs	r4, #1
 251 0008 8DF80730 		strb	r3, [sp, #7]
 252 000c FFF7FEFF 		bl	ACCELERO_IO_ITConfig
 253 0010 4FF48003 		mov	r3, #4194304
 254 0014 02A8     		add	r0, sp, #8
 255 0016 0293     		str	r3, [sp, #8]
 256 0018 ADF80D40 		strh	r4, [sp, #13]	@ unaligned
 257 001c FFF7FEFF 		bl	LIS3DSH_InterruptConfig
 258 0020 0323     		movs	r3, #3
 259 0022 2246     		mov	r2, r4
 260 0024 0DF10700 		add	r0, sp, #7
 261 0028 5221     		movs	r1, #82
 262 002a 8DF80730 		strb	r3, [sp, #7]
 263 002e FFF7FEFF 		bl	ACCELERO_IO_Write
 264 0032 C823     		movs	r3, #200
 265 0034 2246     		mov	r2, r4
 266 0036 0DF10700 		add	r0, sp, #7
 267 003a 5421     		movs	r1, #84
 268 003c 8DF80730 		strb	r3, [sp, #7]
 269 0040 FFF7FEFF 		bl	ACCELERO_IO_Write
 270 0044 4523     		movs	r3, #69
 271 0046 2246     		mov	r2, r4
 272 0048 0DF10700 		add	r0, sp, #7
 273 004c 5621     		movs	r1, #86
 274 004e 8DF80730 		strb	r3, [sp, #7]
 275 0052 FFF7FEFF 		bl	ACCELERO_IO_Write
 276 0056 FC23     		movs	r3, #252
 277 0058 2246     		mov	r2, r4
 278 005a 0DF10700 		add	r0, sp, #7
 279 005e 5A21     		movs	r1, #90
 280 0060 8DF80730 		strb	r3, [sp, #7]
 281 0064 FFF7FEFF 		bl	ACCELERO_IO_Write
 282 0068 A123     		movs	r3, #161
 283 006a 2246     		mov	r2, r4
 284 006c 0DF10700 		add	r0, sp, #7
 285 0070 5B21     		movs	r1, #91
 286 0072 8DF80730 		strb	r3, [sp, #7]
 287 0076 FFF7FEFF 		bl	ACCELERO_IO_Write
 288 007a 2246     		mov	r2, r4
 289 007c 0DF10700 		add	r0, sp, #7
 290 0080 5C21     		movs	r1, #92
 291 0082 8DF80740 		strb	r4, [sp, #7]
 292 0086 FFF7FEFF 		bl	ACCELERO_IO_Write
 293 008a 2246     		mov	r2, r4
 294 008c 0DF10700 		add	r0, sp, #7
 295 0090 7B21     		movs	r1, #123
 296 0092 FFF7FEFF 		bl	ACCELERO_IO_Write
 297 0096 2246     		mov	r2, r4
 298 0098 0DF10700 		add	r0, sp, #7
ARM GAS  /var/folders/lp/x54gwt890xv47sdkqj1k04q40000gn/T//ccaHNj7M.s 			page 6


 299 009c 6021     		movs	r1, #96
 300 009e FFF7FEFF 		bl	ACCELERO_IO_Write
 301 00a2 0623     		movs	r3, #6
 302 00a4 2246     		mov	r2, r4
 303 00a6 0DF10700 		add	r0, sp, #7
 304 00aa 6121     		movs	r1, #97
 305 00ac 8DF80730 		strb	r3, [sp, #7]
 306 00b0 FFF7FEFF 		bl	ACCELERO_IO_Write
 307 00b4 2823     		movs	r3, #40
 308 00b6 2246     		mov	r2, r4
 309 00b8 0DF10700 		add	r0, sp, #7
 310 00bc 6221     		movs	r1, #98
 311 00be 8DF80730 		strb	r3, [sp, #7]
 312 00c2 FFF7FEFF 		bl	ACCELERO_IO_Write
 313 00c6 1123     		movs	r3, #17
 314 00c8 6321     		movs	r1, #99
 315 00ca 2246     		mov	r2, r4
 316 00cc 0DF10700 		add	r0, sp, #7
 317 00d0 8DF80730 		strb	r3, [sp, #7]
 318 00d4 FFF7FEFF 		bl	ACCELERO_IO_Write
 319 00d8 04B0     		add	sp, sp, #16
 320              		@ sp needed
 321 00da 10BD     		pop	{r4, pc}
 323              		.section	.text.LIS3DSH_ODR_LowpowerCmd,"ax",%progbits
 324              		.align	1
 325              		.p2align 2,,3
 326              		.global	LIS3DSH_ODR_LowpowerCmd
 327              		.syntax unified
 328              		.thumb
 329              		.thumb_func
 331              	LIS3DSH_ODR_LowpowerCmd:
 332              		@ args = 0, pretend = 0, frame = 8
 333              		@ frame_needed = 0, uses_anonymous_args = 0
 334 0000 10B5     		push	{r4, lr}
 335 0002 82B0     		sub	sp, sp, #8
 336 0004 0446     		mov	r4, r0
 337 0006 0122     		movs	r2, #1
 338 0008 0DF10700 		add	r0, sp, #7
 339 000c 2021     		movs	r1, #32
 340 000e FFF7FEFF 		bl	ACCELERO_IO_Read
 341 0012 9DF80730 		ldrb	r3, [sp, #7]	@ zero_extendqisi2
 342 0016 23F06003 		bic	r3, r3, #96
 343 001a 1C43     		orrs	r4, r4, r3
 344 001c 0122     		movs	r2, #1
 345 001e 2021     		movs	r1, #32
 346 0020 0DF10700 		add	r0, sp, #7
 347 0024 8DF80740 		strb	r4, [sp, #7]
 348 0028 FFF7FEFF 		bl	ACCELERO_IO_Write
 349 002c 02B0     		add	sp, sp, #8
 350              		@ sp needed
 351 002e 10BD     		pop	{r4, pc}
 353              		.section	.text.LIS3DSH_DataRateCmd,"ax",%progbits
 354              		.align	1
 355              		.p2align 2,,3
 356              		.global	LIS3DSH_DataRateCmd
 357              		.syntax unified
 358              		.thumb
ARM GAS  /var/folders/lp/x54gwt890xv47sdkqj1k04q40000gn/T//ccaHNj7M.s 			page 7


 359              		.thumb_func
 361              	LIS3DSH_DataRateCmd:
 362              		@ args = 0, pretend = 0, frame = 8
 363              		@ frame_needed = 0, uses_anonymous_args = 0
 364 0000 10B5     		push	{r4, lr}
 365 0002 82B0     		sub	sp, sp, #8
 366 0004 0446     		mov	r4, r0
 367 0006 0122     		movs	r2, #1
 368 0008 0DF10700 		add	r0, sp, #7
 369 000c 2021     		movs	r1, #32
 370 000e FFF7FEFF 		bl	ACCELERO_IO_Read
 371 0012 9DF80730 		ldrb	r3, [sp, #7]	@ zero_extendqisi2
 372 0016 23F07003 		bic	r3, r3, #112
 373 001a 1C43     		orrs	r4, r4, r3
 374 001c 0122     		movs	r2, #1
 375 001e 2021     		movs	r1, #32
 376 0020 0DF10700 		add	r0, sp, #7
 377 0024 8DF80740 		strb	r4, [sp, #7]
 378 0028 FFF7FEFF 		bl	ACCELERO_IO_Write
 379 002c 02B0     		add	sp, sp, #8
 380              		@ sp needed
 381 002e 10BD     		pop	{r4, pc}
 383              		.section	.text.LIS3DSH_FullScaleCmd,"ax",%progbits
 384              		.align	1
 385              		.p2align 2,,3
 386              		.global	LIS3DSH_FullScaleCmd
 387              		.syntax unified
 388              		.thumb
 389              		.thumb_func
 391              	LIS3DSH_FullScaleCmd:
 392              		@ args = 0, pretend = 0, frame = 8
 393              		@ frame_needed = 0, uses_anonymous_args = 0
 394 0000 10B5     		push	{r4, lr}
 395 0002 82B0     		sub	sp, sp, #8
 396 0004 0446     		mov	r4, r0
 397 0006 0122     		movs	r2, #1
 398 0008 0DF10700 		add	r0, sp, #7
 399 000c 2421     		movs	r1, #36
 400 000e FFF7FEFF 		bl	ACCELERO_IO_Read
 401 0012 9DF80730 		ldrb	r3, [sp, #7]	@ zero_extendqisi2
 402 0016 23F02003 		bic	r3, r3, #32
 403 001a 1C43     		orrs	r4, r4, r3
 404 001c 0122     		movs	r2, #1
 405 001e 2421     		movs	r1, #36
 406 0020 0DF10700 		add	r0, sp, #7
 407 0024 8DF80740 		strb	r4, [sp, #7]
 408 0028 FFF7FEFF 		bl	ACCELERO_IO_Write
 409 002c 02B0     		add	sp, sp, #8
 410              		@ sp needed
 411 002e 10BD     		pop	{r4, pc}
 413              		.section	.rodata.CSWTCH.14,"a"
 414              		.align	2
 417              	CSWTCH.14:
 418 0000 8FC2F53D 		.word	1039516303
 419 0004 8FC2753D 		.word	1031127695
 420 0008 8FC2753D 		.word	1031127695
 421 000c 8FC2753D 		.word	1031127695
ARM GAS  /var/folders/lp/x54gwt890xv47sdkqj1k04q40000gn/T//ccaHNj7M.s 			page 8


 422 0010 8FC2753D 		.word	1031127695
 423 0014 8FC2753D 		.word	1031127695
 424 0018 8FC2753D 		.word	1031127695
 425 001c 8FC2753D 		.word	1031127695
 426 0020 EC51383E 		.word	1043878380
 427 0024 8FC2753D 		.word	1031127695
 428 0028 8FC2753D 		.word	1031127695
 429 002c 8FC2753D 		.word	1031127695
 430 0030 8FC2753D 		.word	1031127695
 431 0034 8FC2753D 		.word	1031127695
 432 0038 8FC2753D 		.word	1031127695
 433 003c 8FC2753D 		.word	1031127695
 434 0040 8FC2753E 		.word	1047904911
 435 0044 8FC2753D 		.word	1031127695
 436 0048 8FC2753D 		.word	1031127695
 437 004c 8FC2753D 		.word	1031127695
 438 0050 8FC2753D 		.word	1031127695
 439 0054 8FC2753D 		.word	1031127695
 440 0058 8FC2753D 		.word	1031127695
 441 005c 8FC2753D 		.word	1031127695
 442 0060 48E13A3F 		.word	1060823368
 443              		.global	Lis3dshDrv
 444              		.section	.data.Lis3dshDrv,"aw"
 445              		.align	2
 448              	Lis3dshDrv:
 449 0000 00000000 		.word	LIS3DSH_Init
 450 0004 00000000 		.word	LIS3DSH_DeInit
 451 0008 00000000 		.word	LIS3DSH_ReadID
 452 000c 00000000 		.word	LIS3DSH_RebootCmd
 453 0010 00000000 		.word	LIS3DSH_Click_IntConfig
 454 0014 00000000 		.word	0
 455 0018 00000000 		.word	0
 456 001c 00000000 		.word	0
 457 0020 00000000 		.word	0
 458 0024 00000000 		.word	0
 459 0028 00000000 		.word	0
 460 002c 00000000 		.word	0
 461 0030 00000000 		.word	LIS3DSH_ReadACC
 462              		.ident	"GCC: (xPack GNU Arm Embedded GCC arm64) 13.3.1 20240614"
ARM GAS  /var/folders/lp/x54gwt890xv47sdkqj1k04q40000gn/T//ccaHNj7M.s 			page 9

