ARM GAS  /var/folders/lp/x54gwt890xv47sdkqj1k04q40000gn/T//cckhlJVv.s 			page 1


   1              		.cpu cortex-m4
   2              		.arch armv7e-m
   3              		.fpu fpv4-sp-d16
   4              		.eabi_attribute 27, 1
   5              		.eabi_attribute 28, 1
   6              		.eabi_attribute 20, 1
   7              		.eabi_attribute 21, 1
   8              		.eabi_attribute 23, 3
   9              		.eabi_attribute 24, 1
  10              		.eabi_attribute 25, 1
  11              		.eabi_attribute 26, 1
  12              		.eabi_attribute 30, 2
  13              		.eabi_attribute 34, 1
  14              		.eabi_attribute 18, 4
  15              		.file	"lv_anim_timeline.c"
  16              		.text
  17              		.section	.text.lv_anim_timeline_virtual_exec_cb,"ax",%progbits
  18              		.align	1
  19              		.p2align 2,,3
  20              		.syntax unified
  21              		.thumb
  22              		.thumb_func
  24              	lv_anim_timeline_virtual_exec_cb:
  25              		@ args = 0, pretend = 0, frame = 0
  26              		@ frame_needed = 0, uses_anonymous_args = 0
  27              		@ link register save eliminated.
  28 0000 7047     		bx	lr
  30 0002 00BF     		.section	.text.lv_anim_timeline_create,"ax",%progbits
  31              		.align	1
  32              		.p2align 2,,3
  33              		.global	lv_anim_timeline_create
  34              		.syntax unified
  35              		.thumb
  36              		.thumb_func
  38              	lv_anim_timeline_create:
  39              		@ args = 0, pretend = 0, frame = 0
  40              		@ frame_needed = 0, uses_anonymous_args = 0
  41 0000 10B5     		push	{r4, lr}
  42 0002 0C20     		movs	r0, #12
  43 0004 FFF7FEFF 		bl	lv_mem_alloc
  44 0008 28B1     		cbz	r0, .L5
  45 000a 0446     		mov	r4, r0
  46 000c 0C21     		movs	r1, #12
  47 000e FFF7FEFF 		bl	lv_memset_00
  48 0012 2046     		mov	r0, r4
  49 0014 10BD     		pop	{r4, pc}
  50              	.L5:
  51 0016 FEE7     		b	.L5
  53              		.section	.text.lv_anim_timeline_del,"ax",%progbits
  54              		.align	1
  55              		.p2align 2,,3
  56              		.global	lv_anim_timeline_del
  57              		.syntax unified
  58              		.thumb
  59              		.thumb_func
  61              	lv_anim_timeline_del:
  62              		@ args = 0, pretend = 0, frame = 0
ARM GAS  /var/folders/lp/x54gwt890xv47sdkqj1k04q40000gn/T//cckhlJVv.s 			page 2


  63              		@ frame_needed = 0, uses_anonymous_args = 0
  64 0000 C8B1     		cbz	r0, .L8
  65 0002 4368     		ldr	r3, [r0, #4]
  66 0004 70B5     		push	{r4, r5, r6, lr}
  67 0006 0546     		mov	r5, r0
  68 0008 6BB1     		cbz	r3, .L10
  69 000a 0024     		movs	r4, #0
  70 000c 2646     		mov	r6, r4
  71              	.L9:
  72 000e 2B68     		ldr	r3, [r5]
  73 0010 1A19     		adds	r2, r3, r4
  74 0012 1859     		ldr	r0, [r3, r4]
  75 0014 5168     		ldr	r1, [r2, #4]
  76 0016 FFF7FEFF 		bl	lv_anim_del
  77 001a 6B68     		ldr	r3, [r5, #4]
  78 001c 0136     		adds	r6, r6, #1
  79 001e 9E42     		cmp	r6, r3
  80 0020 04F14804 		add	r4, r4, #72
  81 0024 F3D3     		bcc	.L9
  82              	.L10:
  83 0026 2868     		ldr	r0, [r5]
  84 0028 FFF7FEFF 		bl	lv_mem_free
  85 002c 2846     		mov	r0, r5
  86 002e BDE87040 		pop	{r4, r5, r6, lr}
  87 0032 FFF7FEBF 		b	lv_mem_free
  88              	.L8:
  89 0036 FEE7     		b	.L8
  91              		.section	.text.lv_anim_timeline_add,"ax",%progbits
  92              		.align	1
  93              		.p2align 2,,3
  94              		.global	lv_anim_timeline_add
  95              		.syntax unified
  96              		.thumb
  97              		.thumb_func
  99              	lv_anim_timeline_add:
 100              		@ args = 0, pretend = 0, frame = 0
 101              		@ frame_needed = 0, uses_anonymous_args = 0
 102 0000 00B3     		cbz	r0, .L20
 103 0002 4368     		ldr	r3, [r0, #4]
 104 0004 0133     		adds	r3, r3, #1
 105 0006 2DE9F041 		push	{r4, r5, r6, r7, r8, lr}
 106 000a 0F46     		mov	r7, r1
 107 000c 03EBC301 		add	r1, r3, r3, lsl #3
 108 0010 0446     		mov	r4, r0
 109 0012 4360     		str	r3, [r0, #4]
 110 0014 C900     		lsls	r1, r1, #3
 111 0016 0068     		ldr	r0, [r0]
 112 0018 1546     		mov	r5, r2
 113 001a FFF7FEFF 		bl	lv_mem_realloc
 114 001e 8046     		mov	r8, r0
 115 0020 2060     		str	r0, [r4]
 116 0022 80B1     		cbz	r0, .L22
 117 0024 6368     		ldr	r3, [r4, #4]
 118 0026 03EBC303 		add	r3, r3, r3, lsl #3
 119 002a DE00     		lsls	r6, r3, #3
 120 002c 483E     		subs	r6, r6, #72
 121 002e 8319     		adds	r3, r0, r6
ARM GAS  /var/folders/lp/x54gwt890xv47sdkqj1k04q40000gn/T//cckhlJVv.s 			page 3


 122 0030 4422     		movs	r2, #68
 123 0032 2946     		mov	r1, r5
 124 0034 1846     		mov	r0, r3
 125 0036 FFF7FEFF 		bl	memcpy
 126 003a 2A68     		ldr	r2, [r5]
 127 003c 4764     		str	r7, [r0, #68]
 128 003e 1AB1     		cbz	r2, .L26
 129              	.L18:
 130 0040 BDE8F081 		pop	{r4, r5, r6, r7, r8, pc}
 131              	.L20:
 132 0044 FEE7     		b	.L20
 133              	.L22:
 134 0046 FEE7     		b	.L22
 135              	.L26:
 136 0048 6A68     		ldr	r2, [r5, #4]
 137 004a 002A     		cmp	r2, #0
 138 004c F8D1     		bne	.L18
 139 004e 024A     		ldr	r2, .L27
 140 0050 48F80640 		str	r4, [r8, r6]
 141 0054 4260     		str	r2, [r0, #4]
 142 0056 F3E7     		b	.L18
 143              	.L28:
 144              		.align	2
 145              	.L27:
 146 0058 00000000 		.word	lv_anim_timeline_virtual_exec_cb
 148              		.section	.text.lv_anim_timeline_start,"ax",%progbits
 149              		.align	1
 150              		.p2align 2,,3
 151              		.global	lv_anim_timeline_start
 152              		.syntax unified
 153              		.thumb
 154              		.thumb_func
 156              	lv_anim_timeline_start:
 157              		@ args = 0, pretend = 0, frame = 72
 158              		@ frame_needed = 0, uses_anonymous_args = 0
 159 0000 0028     		cmp	r0, #0
 160 0002 45D0     		beq	.L30
 161 0004 2DE9F041 		push	{r4, r5, r6, r7, r8, lr}
 162 0008 4668     		ldr	r6, [r0, #4]
 163 000a 92B0     		sub	sp, sp, #72
 164 000c 0746     		mov	r7, r0
 165 000e 002E     		cmp	r6, #0
 166 0010 3FD0     		beq	.L29
 167 0012 0026     		movs	r6, #0
 168 0014 0268     		ldr	r2, [r0]
 169 0016 3546     		mov	r5, r6
 170 0018 09E0     		b	.L34
 171              	.L50:
 172 001a D7E90021 		ldrd	r2, r1, [r7]
 173 001e 1319     		adds	r3, r2, r4
 174 0020 5B6C     		ldr	r3, [r3, #68]
 175 0022 0344     		add	r3, r3, r0
 176 0024 9E42     		cmp	r6, r3
 177 0026 38BF     		it	cc
 178 0028 1E46     		movcc	r6, r3
 179 002a 8D42     		cmp	r5, r1
 180 002c 0CD2     		bcs	.L35
ARM GAS  /var/folders/lp/x54gwt890xv47sdkqj1k04q40000gn/T//cckhlJVv.s 			page 4


 181              	.L34:
 182 002e 05EBC503 		add	r3, r5, r5, lsl #3
 183 0032 02EBC300 		add	r0, r2, r3, lsl #3
 184 0036 DC00     		lsls	r4, r3, #3
 185 0038 FFF7FEFF 		bl	lv_anim_get_playtime
 186 003c 431C     		adds	r3, r0, #1
 187 003e 05F10105 		add	r5, r5, #1
 188 0042 EAD1     		bne	.L50
 189 0044 7968     		ldr	r1, [r7, #4]
 190 0046 0646     		mov	r6, r0
 191              	.L35:
 192 0048 97F80880 		ldrb	r8, [r7, #8]	@ zero_extendqisi2
 193 004c 09B3     		cbz	r1, .L29
 194 004e 0024     		movs	r4, #0
 195 0050 0EE0     		b	.L39
 196              	.L51:
 197 0052 0C9A     		ldr	r2, [sp, #48]
 198 0054 0998     		ldr	r0, [sp, #36]
 199 0056 0B99     		ldr	r1, [sp, #44]
 200 0058 0991     		str	r1, [sp, #36]
 201 005a B21A     		subs	r2, r6, r2
 202 005c 0B90     		str	r0, [sp, #44]
 203 005e 9B1A     		subs	r3, r3, r2
 204              	.L38:
 205 0060 01A8     		add	r0, sp, #4
 206 0062 0D93     		str	r3, [sp, #52]
 207 0064 FFF7FEFF 		bl	lv_anim_start
 208 0068 7B68     		ldr	r3, [r7, #4]
 209 006a 0134     		adds	r4, r4, #1
 210 006c A342     		cmp	r3, r4
 211 006e 10D9     		bls	.L29
 212              	.L39:
 213 0070 3D68     		ldr	r5, [r7]
 214 0072 04EBC403 		add	r3, r4, r4, lsl #3
 215 0076 05EBC305 		add	r5, r5, r3, lsl #3
 216 007a 4422     		movs	r2, #68
 217 007c 2946     		mov	r1, r5
 218 007e 01A8     		add	r0, sp, #4
 219 0080 FFF7FEFF 		bl	memcpy
 220 0084 6B6C     		ldr	r3, [r5, #68]
 221 0086 B8F1000F 		cmp	r8, #0
 222 008a E2D1     		bne	.L51
 223 008c 5B42     		rsbs	r3, r3, #0
 224 008e E7E7     		b	.L38
 225              	.L30:
 226 0090 FEE7     		b	.L30
 227              	.L29:
 228 0092 3046     		mov	r0, r6
 229 0094 12B0     		add	sp, sp, #72
 230              		@ sp needed
 231 0096 BDE8F081 		pop	{r4, r5, r6, r7, r8, pc}
 233 009a 00BF     		.section	.text.lv_anim_timeline_stop,"ax",%progbits
 234              		.align	1
 235              		.p2align 2,,3
 236              		.global	lv_anim_timeline_stop
 237              		.syntax unified
 238              		.thumb
ARM GAS  /var/folders/lp/x54gwt890xv47sdkqj1k04q40000gn/T//cckhlJVv.s 			page 5


 239              		.thumb_func
 241              	lv_anim_timeline_stop:
 242              		@ args = 0, pretend = 0, frame = 0
 243              		@ frame_needed = 0, uses_anonymous_args = 0
 244 0000 90B1     		cbz	r0, .L53
 245 0002 4368     		ldr	r3, [r0, #4]
 246 0004 70B5     		push	{r4, r5, r6, lr}
 247 0006 0646     		mov	r6, r0
 248 0008 6BB1     		cbz	r3, .L52
 249 000a 0024     		movs	r4, #0
 250 000c 2546     		mov	r5, r4
 251              	.L54:
 252 000e 3368     		ldr	r3, [r6]
 253 0010 1A19     		adds	r2, r3, r4
 254 0012 1859     		ldr	r0, [r3, r4]
 255 0014 5168     		ldr	r1, [r2, #4]
 256 0016 FFF7FEFF 		bl	lv_anim_del
 257 001a 7368     		ldr	r3, [r6, #4]
 258 001c 0135     		adds	r5, r5, #1
 259 001e 9D42     		cmp	r5, r3
 260 0020 04F14804 		add	r4, r4, #72
 261 0024 F3D3     		bcc	.L54
 262              	.L52:
 263 0026 70BD     		pop	{r4, r5, r6, pc}
 264              	.L53:
 265 0028 FEE7     		b	.L53
 267 002a 00BF     		.section	.text.lv_anim_timeline_set_reverse,"ax",%progbits
 268              		.align	1
 269              		.p2align 2,,3
 270              		.global	lv_anim_timeline_set_reverse
 271              		.syntax unified
 272              		.thumb
 273              		.thumb_func
 275              	lv_anim_timeline_set_reverse:
 276              		@ args = 0, pretend = 0, frame = 0
 277              		@ frame_needed = 0, uses_anonymous_args = 0
 278              		@ link register save eliminated.
 279 0000 08B1     		cbz	r0, .L65
 280 0002 0172     		strb	r1, [r0, #8]
 281 0004 7047     		bx	lr
 282              	.L65:
 283 0006 FEE7     		b	.L65
 285              		.section	.text.lv_anim_timeline_set_progress,"ax",%progbits
 286              		.align	1
 287              		.p2align 2,,3
 288              		.global	lv_anim_timeline_set_progress
 289              		.syntax unified
 290              		.thumb
 291              		.thumb_func
 293              	lv_anim_timeline_set_progress:
 294              		@ args = 0, pretend = 0, frame = 0
 295              		@ frame_needed = 0, uses_anonymous_args = 0
 296 0000 0028     		cmp	r0, #0
 297 0002 4FD0     		beq	.L67
 298 0004 2DE9F843 		push	{r3, r4, r5, r6, r7, r8, r9, lr}
 299 0008 4368     		ldr	r3, [r0, #4]
 300 000a 0646     		mov	r6, r0
ARM GAS  /var/folders/lp/x54gwt890xv47sdkqj1k04q40000gn/T//cckhlJVv.s 			page 6


 301 000c 002B     		cmp	r3, #0
 302 000e 4AD0     		beq	.L66
 303 0010 4FF00008 		mov	r8, #0
 304 0014 0F46     		mov	r7, r1
 305 0016 4546     		mov	r5, r8
 306 0018 0168     		ldr	r1, [r0]
 307 001a 09E0     		b	.L70
 308              	.L91:
 309 001c D6E90012 		ldrd	r1, r2, [r6]
 310 0020 0C44     		add	r4, r4, r1
 311 0022 636C     		ldr	r3, [r4, #68]
 312 0024 0344     		add	r3, r3, r0
 313 0026 9845     		cmp	r8, r3
 314 0028 38BF     		it	cc
 315 002a 9846     		movcc	r8, r3
 316 002c 9542     		cmp	r5, r2
 317 002e 0DD2     		bcs	.L71
 318              	.L70:
 319 0030 05EBC504 		add	r4, r5, r5, lsl #3
 320 0034 01EBC400 		add	r0, r1, r4, lsl #3
 321 0038 FFF7FEFF 		bl	lv_anim_get_playtime
 322 003c 431C     		adds	r3, r0, #1
 323 003e 4FEAC404 		lsl	r4, r4, #3
 324 0042 05F10105 		add	r5, r5, #1
 325 0046 E9D1     		bne	.L91
 326 0048 7268     		ldr	r2, [r6, #4]
 327 004a 8046     		mov	r8, r0
 328              	.L71:
 329 004c 184B     		ldr	r3, .L93
 330 004e 08FB07F8 		mul	r8, r8, r7
 331 0052 A3FB0838 		umull	r3, r8, r3, r8
 332 0056 4FEAD838 		lsr	r8, r8, #15
 333 005a 22B3     		cbz	r2, .L66
 334 005c 0025     		movs	r5, #0
 335 005e 2F46     		mov	r7, r5
 336 0060 08E0     		b	.L77
 337              	.L92:
 338 0062 216A     		ldr	r1, [r4, #32]
 339              	.L75:
 340 0064 2068     		ldr	r0, [r4]
 341 0066 C847     		blx	r9
 342 0068 7268     		ldr	r2, [r6, #4]
 343              	.L73:
 344 006a 0137     		adds	r7, r7, #1
 345 006c BA42     		cmp	r2, r7
 346 006e 05F14805 		add	r5, r5, #72
 347 0072 18D9     		bls	.L66
 348              	.L77:
 349 0074 3468     		ldr	r4, [r6]
 350 0076 2C44     		add	r4, r4, r5
 351 0078 D4F80490 		ldr	r9, [r4, #4]
 352 007c B9F1000F 		cmp	r9, #0
 353 0080 F3D0     		beq	.L73
 354 0082 636C     		ldr	r3, [r4, #68]
 355 0084 9845     		cmp	r8, r3
 356 0086 ECD3     		bcc	.L92
 357 0088 E26A     		ldr	r2, [r4, #44]
ARM GAS  /var/folders/lp/x54gwt890xv47sdkqj1k04q40000gn/T//cckhlJVv.s 			page 7


 358 008a A8EB0301 		sub	r1, r8, r3
 359 008e 1344     		add	r3, r3, r2
 360 0090 4345     		cmp	r3, r8
 361 0092 2046     		mov	r0, r4
 362 0094 09D9     		bls	.L76
 363 0096 2163     		str	r1, [r4, #48]
 364 0098 E369     		ldr	r3, [r4, #28]
 365 009a 9847     		blx	r3
 366 009c D4F80490 		ldr	r9, [r4, #4]
 367 00a0 0146     		mov	r1, r0
 368 00a2 DFE7     		b	.L75
 369              	.L67:
 370 00a4 FEE7     		b	.L67
 371              	.L66:
 372 00a6 BDE8F883 		pop	{r3, r4, r5, r6, r7, r8, r9, pc}
 373              	.L76:
 374 00aa A16A     		ldr	r1, [r4, #40]
 375 00ac DAE7     		b	.L75
 376              	.L94:
 377 00ae 00BF     		.align	2
 378              	.L93:
 379 00b0 01800080 		.word	-2147450879
 381              		.section	.text.lv_anim_timeline_get_playtime,"ax",%progbits
 382              		.align	1
 383              		.p2align 2,,3
 384              		.global	lv_anim_timeline_get_playtime
 385              		.syntax unified
 386              		.thumb
 387              		.thumb_func
 389              	lv_anim_timeline_get_playtime:
 390              		@ args = 0, pretend = 0, frame = 0
 391              		@ frame_needed = 0, uses_anonymous_args = 0
 392 0000 E8B1     		cbz	r0, .L96
 393 0002 F8B5     		push	{r3, r4, r5, r6, r7, lr}
 394 0004 0646     		mov	r6, r0
 395 0006 4068     		ldr	r0, [r0, #4]
 396 0008 C0B1     		cbz	r0, .L95
 397 000a 0027     		movs	r7, #0
 398 000c 3268     		ldr	r2, [r6]
 399 000e 3D46     		mov	r5, r7
 400 0010 09E0     		b	.L99
 401              	.L110:
 402 0012 D6E90021 		ldrd	r2, r1, [r6]
 403 0016 1319     		adds	r3, r2, r4
 404 0018 5B6C     		ldr	r3, [r3, #68]
 405 001a 1844     		add	r0, r0, r3
 406 001c 8742     		cmp	r7, r0
 407 001e 38BF     		it	cc
 408 0020 0746     		movcc	r7, r0
 409 0022 8D42     		cmp	r5, r1
 410 0024 0CD2     		bcs	.L109
 411              	.L99:
 412 0026 05EBC503 		add	r3, r5, r5, lsl #3
 413 002a 02EBC300 		add	r0, r2, r3, lsl #3
 414 002e DC00     		lsls	r4, r3, #3
 415 0030 FFF7FEFF 		bl	lv_anim_get_playtime
 416 0034 431C     		adds	r3, r0, #1
ARM GAS  /var/folders/lp/x54gwt890xv47sdkqj1k04q40000gn/T//cckhlJVv.s 			page 8


 417 0036 05F10105 		add	r5, r5, #1
 418 003a EAD1     		bne	.L110
 419              	.L95:
 420 003c F8BD     		pop	{r3, r4, r5, r6, r7, pc}
 421              	.L96:
 422 003e FEE7     		b	.L96
 423              	.L109:
 424 0040 3846     		mov	r0, r7
 425 0042 F8BD     		pop	{r3, r4, r5, r6, r7, pc}
 427              		.section	.text.lv_anim_timeline_get_reverse,"ax",%progbits
 428              		.align	1
 429              		.p2align 2,,3
 430              		.global	lv_anim_timeline_get_reverse
 431              		.syntax unified
 432              		.thumb
 433              		.thumb_func
 435              	lv_anim_timeline_get_reverse:
 436              		@ args = 0, pretend = 0, frame = 0
 437              		@ frame_needed = 0, uses_anonymous_args = 0
 438              		@ link register save eliminated.
 439 0000 08B1     		cbz	r0, .L113
 440 0002 007A     		ldrb	r0, [r0, #8]	@ zero_extendqisi2
 441 0004 7047     		bx	lr
 442              	.L113:
 443 0006 FEE7     		b	.L113
 445              		.ident	"GCC: (xPack GNU Arm Embedded GCC arm64) 13.3.1 20240614"
ARM GAS  /var/folders/lp/x54gwt890xv47sdkqj1k04q40000gn/T//cckhlJVv.s 			page 9

