ARM GAS  /var/folders/lp/x54gwt890xv47sdkqj1k04q40000gn/T//cc0uNINC.s 			page 1


   1              		.cpu cortex-m4
   2              		.arch armv7e-m
   3              		.fpu fpv4-sp-d16
   4              		.eabi_attribute 27, 1
   5              		.eabi_attribute 28, 1
   6              		.eabi_attribute 20, 1
   7              		.eabi_attribute 21, 1
   8              		.eabi_attribute 23, 3
   9              		.eabi_attribute 24, 1
  10              		.eabi_attribute 25, 1
  11              		.eabi_attribute 26, 1
  12              		.eabi_attribute 30, 2
  13              		.eabi_attribute 34, 1
  14              		.eabi_attribute 18, 4
  15              		.file	"lv_btnmatrix.c"
  16              		.text
  17              		.section	.text.get_button_from_point,"ax",%progbits
  18              		.align	1
  19              		.p2align 2,,3
  20              		.syntax unified
  21              		.thumb
  22              		.thumb_func
  24              	get_button_from_point:
  25              		@ args = 0, pretend = 0, frame = 40
  26              		@ frame_needed = 0, uses_anonymous_args = 0
  27 0000 2DE9F04F 		push	{r4, r5, r6, r7, r8, r9, r10, fp, lr}
  28 0004 8BB0     		sub	sp, sp, #44
  29 0006 0B46     		mov	r3, r1
  30 0008 0546     		mov	r5, r0
  31 000a 06A9     		add	r1, sp, #24
  32 000c 0093     		str	r3, [sp]
  33 000e FFF7FEFF 		bl	lv_obj_get_coords
  34 0012 2846     		mov	r0, r5
  35 0014 FFF7FEFF 		bl	lv_obj_get_width
  36 0018 0646     		mov	r6, r0
  37 001a 2846     		mov	r0, r5
  38 001c FFF7FEFF 		bl	lv_obj_get_height
  39 0020 1222     		movs	r2, #18
  40 0022 0021     		movs	r1, #0
  41 0024 0446     		mov	r4, r0
  42 0026 2846     		mov	r0, r5
  43 0028 FFF7FEFF 		bl	lv_obj_get_style_prop
  44 002c 1322     		movs	r2, #19
  45 002e 0021     		movs	r1, #0
  46 0030 07B2     		sxth	r7, r0
  47 0032 2846     		mov	r0, r5
  48 0034 FFF7FEFF 		bl	lv_obj_get_style_prop
  49 0038 1022     		movs	r2, #16
  50 003a 0FFA80FB 		sxth	fp, r0
  51 003e 0021     		movs	r1, #0
  52 0040 2846     		mov	r0, r5
  53 0042 FFF7FEFF 		bl	lv_obj_get_style_prop
  54 0046 1122     		movs	r2, #17
  55 0048 0FFA80F8 		sxth	r8, r0
  56 004c 0021     		movs	r1, #0
  57 004e 2846     		mov	r0, r5
  58 0050 FFF7FEFF 		bl	lv_obj_get_style_prop
ARM GAS  /var/folders/lp/x54gwt890xv47sdkqj1k04q40000gn/T//cc0uNINC.s 			page 2


  59 0054 1422     		movs	r2, #20
  60 0056 0FFA80F9 		sxth	r9, r0
  61 005a 0021     		movs	r1, #0
  62 005c 2846     		mov	r0, r5
  63 005e FFF7FEFF 		bl	lv_obj_get_style_prop
  64 0062 1522     		movs	r2, #21
  65 0064 8246     		mov	r10, r0
  66 0066 0021     		movs	r1, #0
  67 0068 2846     		mov	r0, r5
  68 006a FFF7FEFF 		bl	lv_obj_get_style_prop
  69 006e 5B46     		mov	r3, fp
  70 0070 0D2B     		cmp	r3, #13
  71 0072 A8BF     		it	ge
  72 0074 0D23     		movge	r3, #13
  73 0076 0393     		str	r3, [sp, #12]
  74 0078 B8F10D0F 		cmp	r8, #13
  75 007c 4B46     		mov	r3, r9
  76 007e A8BF     		it	ge
  77 0080 4FF00D08 		movge	r8, #13
  78 0084 0D2B     		cmp	r3, #13
  79 0086 A8BF     		it	ge
  80 0088 0D23     		movge	r3, #13
  81 008a 0AF00109 		and	r9, r10, #1
  82 008e 0493     		str	r3, [sp, #16]
  83 0090 CAF3C033 		ubfx	r3, r10, #15, #1
  84 0094 03FA8AFA 		sxtah	r10, r3, r10
  85 0098 09F10109 		add	r9, r9, #1
  86 009c 09EB6A09 		add	r9, r9, r10, asr #1
  87 00a0 C0F3C033 		ubfx	r3, r0, #15, #1
  88 00a4 00F0010A 		and	r10, r0, #1
  89 00a8 0AF1010A 		add	r10, r10, #1
  90 00ac 03FA80F0 		sxtah	r0, r3, r0
  91 00b0 0FFA89F9 		sxth	r9, r9
  92 00b4 0AEB600A 		add	r10, r10, r0, asr #1
  93 00b8 B9F10D0F 		cmp	r9, #13
  94 00bc 0FFA8AFA 		sxth	r10, r10
  95 00c0 2B8E     		ldrh	r3, [r5, #48]
  96 00c2 A8BF     		it	ge
  97 00c4 4FF00D09 		movge	r9, #13
  98 00c8 BAF10D0F 		cmp	r10, #13
  99 00cc A8BF     		it	ge
 100 00ce 4FF00D0A 		movge	r10, #13
 101 00d2 002B     		cmp	r3, #0
 102 00d4 7AD0     		beq	.L15
 103 00d6 039B     		ldr	r3, [sp, #12]
 104 00d8 F61A     		subs	r6, r6, r3
 105 00da 049B     		ldr	r3, [sp, #16]
 106 00dc 0D2F     		cmp	r7, #13
 107 00de A4EB0304 		sub	r4, r4, r3
 108 00e2 A4F10203 		sub	r3, r4, #2
 109 00e6 3A46     		mov	r2, r7
 110 00e8 A6F10206 		sub	r6, r6, #2
 111 00ec 4FF00004 		mov	r4, #0
 112 00f0 A8BF     		it	ge
 113 00f2 0D22     		movge	r2, #13
 114 00f4 0193     		str	r3, [sp, #4]
 115 00f6 0592     		str	r2, [sp, #20]
ARM GAS  /var/folders/lp/x54gwt890xv47sdkqj1k04q40000gn/T//cc0uNINC.s 			page 3


 116 00f8 2346     		mov	r3, r4
 117 00fa 0296     		str	r6, [sp, #8]
 118 00fc 36E0     		b	.L13
 119              	.L20:
 120 00fe 059E     		ldr	r6, [sp, #20]
 121 0100 A3EB060E 		sub	lr, r3, r6
 122 0104 9644     		add	lr, lr, r2
 123 0106 0FFA8EF2 		sxth	r2, lr
 124 010a E045     		cmp	r8, ip
 125 010c ADF82020 		strh	r2, [sp, #32]	@ movhi
 126 0110 BDF81AE0 		ldrh	lr, [sp, #26]
 127 0114 1FFA8CF2 		uxth	r2, ip
 128 0118 46DB     		blt	.L6
 129              	.L21:
 130 011a AEEB080C 		sub	ip, lr, r8
 131 011e 9444     		add	ip, ip, r2
 132 0120 0FFA8CF2 		sxth	r2, ip
 133              	.L7:
 134 0124 029E     		ldr	r6, [sp, #8]
 135 0126 ADF82220 		strh	r2, [sp, #34]	@ movhi
 136 012a B042     		cmp	r0, r6
 137 012c 82B2     		uxth	r2, r0
 138 012e AABF     		itet	ge
 139 0130 0398     		ldrge	r0, [sp, #12]
 140 0132 5344     		addlt	r3, r3, r10
 141 0134 1B18     		addge	r3, r3, r0
 142 0136 1344     		add	r3, r3, r2
 143 0138 019A     		ldr	r2, [sp, #4]
 144 013a 9142     		cmp	r1, r2
 145 013c A8BF     		it	ge
 146 013e 049A     		ldrge	r2, [sp, #16]
 147 0140 1BB2     		sxth	r3, r3
 148 0142 ACBF     		ite	ge
 149 0144 9644     		addge	lr, lr, r2
 150 0146 CE44     		addlt	lr, lr, r9
 151 0148 ADF82430 		strh	r3, [sp, #36]	@ movhi
 152 014c 8BB2     		uxth	r3, r1
 153 014e 7344     		add	r3, r3, lr
 154 0150 1BB2     		sxth	r3, r3
 155 0152 0099     		ldr	r1, [sp]
 156 0154 ADF82630 		strh	r3, [sp, #38]	@ movhi
 157 0158 0022     		movs	r2, #0
 158 015a 08A8     		add	r0, sp, #32
 159 015c FFF7FEFF 		bl	_lv_area_is_point_on
 160 0160 38BB     		cbnz	r0, .L12
 161 0162 2A8E     		ldrh	r2, [r5, #48]
 162 0164 0134     		adds	r4, r4, #1
 163 0166 A3B2     		uxth	r3, r4
 164 0168 9342     		cmp	r3, r2
 165 016a 29D2     		bcs	.L19
 166              	.L13:
 167 016c A96A     		ldr	r1, [r5, #40]
 168 016e 31F934E0 		ldrsh	lr, [r1, r4, lsl #3]
 169 0172 01EBC402 		add	r2, r1, r4, lsl #3
 170 0176 7745     		cmp	r7, lr
 171 0178 B2F902C0 		ldrsh	ip, [r2, #2]
 172 017c B2F90400 		ldrsh	r0, [r2, #4]
ARM GAS  /var/folders/lp/x54gwt890xv47sdkqj1k04q40000gn/T//cc0uNINC.s 			page 4


 173 0180 B2F90610 		ldrsh	r1, [r2, #6]
 174 0184 9B46     		mov	fp, r3
 175 0186 1FFA8EF2 		uxth	r2, lr
 176 018a BDF81830 		ldrh	r3, [sp, #24]
 177 018e B6DA     		bge	.L20
 178 0190 A3EB0A0E 		sub	lr, r3, r10
 179 0194 7244     		add	r2, r2, lr
 180 0196 12B2     		sxth	r2, r2
 181 0198 E045     		cmp	r8, ip
 182 019a ADF82020 		strh	r2, [sp, #32]	@ movhi
 183 019e BDF81AE0 		ldrh	lr, [sp, #26]
 184 01a2 1FFA8CF2 		uxth	r2, ip
 185 01a6 B8DA     		bge	.L21
 186              	.L6:
 187 01a8 AEEB090C 		sub	ip, lr, r9
 188 01ac 6244     		add	r2, r2, ip
 189 01ae 12B2     		sxth	r2, r2
 190 01b0 B8E7     		b	.L7
 191              	.L12:
 192 01b2 2A8E     		ldrh	r2, [r5, #48]
 193 01b4 9345     		cmp	fp, r2
 194 01b6 09D0     		beq	.L15
 195              	.L3:
 196 01b8 5846     		mov	r0, fp
 197 01ba 0BB0     		add	sp, sp, #44
 198              		@ sp needed
 199 01bc BDE8F08F 		pop	{r4, r5, r6, r7, r8, r9, r10, fp, pc}
 200              	.L19:
 201 01c0 0BF1010B 		add	fp, fp, #1
 202 01c4 1FFA8BFB 		uxth	fp, fp
 203 01c8 9345     		cmp	fp, r2
 204 01ca F5D1     		bne	.L3
 205              	.L15:
 206 01cc 4FF6FF7B 		movw	fp, #65535
 207 01d0 5846     		mov	r0, fp
 208 01d2 0BB0     		add	sp, sp, #44
 209              		@ sp needed
 210 01d4 BDE8F08F 		pop	{r4, r5, r6, r7, r8, r9, r10, fp, pc}
 212              		.section	.text.draw_main,"ax",%progbits
 213              		.align	1
 214              		.p2align 2,,3
 215              		.syntax unified
 216              		.thumb
 217              		.thumb_func
 219              	draw_main:
 220              		@ args = 0, pretend = 0, frame = 312
 221              		@ frame_needed = 0, uses_anonymous_args = 0
 222 0000 2DE9F04F 		push	{r4, r5, r6, r7, r8, r9, r10, fp, lr}
 223 0004 D3B0     		sub	sp, sp, #332
 224 0006 0446     		mov	r4, r0
 225 0008 FFF7FEFF 		bl	lv_event_get_target
 226 000c 038E     		ldrh	r3, [r0, #48]
 227 000e 13B9     		cbnz	r3, .L79
 228 0010 53B0     		add	sp, sp, #332
 229              		@ sp needed
 230 0012 BDE8F08F 		pop	{r4, r5, r6, r7, r8, r9, r10, fp, pc}
 231              	.L79:
ARM GAS  /var/folders/lp/x54gwt890xv47sdkqj1k04q40000gn/T//cc0uNINC.s 			page 5


 232 0016 8246     		mov	r10, r0
 233 0018 2046     		mov	r0, r4
 234 001a FFF7FEFF 		bl	lv_event_get_draw_ctx
 235 001e 9AF82230 		ldrb	r3, [r10, #34]	@ zero_extendqisi2
 236 0022 0590     		str	r0, [sp, #20]
 237 0024 43F00803 		orr	r3, r3, #8
 238 0028 12A9     		add	r1, sp, #72
 239 002a 0546     		mov	r5, r0
 240 002c 8AF82230 		strb	r3, [r10, #34]
 241 0030 5046     		mov	r0, r10
 242 0032 FFF7FEFF 		bl	lv_obj_get_coords
 243 0036 DAF82020 		ldr	r2, [r10, #32]
 244 003a AB4B     		ldr	r3, .L80
 245 003c BAF82040 		ldrh	r4, [r10, #32]
 246 0040 0694     		str	r4, [sp, #24]
 247 0042 1340     		ands	r3, r3, r2
 248 0044 43F40023 		orr	r3, r3, #524288
 249 0048 CAF82030 		str	r3, [r10, #32]
 250 004c 32A8     		add	r0, sp, #200
 251 004e FFF7FEFF 		bl	lv_draw_rect_dsc_init
 252 0052 1CA8     		add	r0, sp, #112
 253 0054 FFF7FEFF 		bl	lv_draw_label_dsc_init
 254 0058 32AA     		add	r2, sp, #200
 255 005a 4FF4A021 		mov	r1, #327680
 256 005e 5046     		mov	r0, r10
 257 0060 FFF7FEFF 		bl	lv_obj_init_draw_rect_dsc
 258 0064 1CAA     		add	r2, sp, #112
 259 0066 4FF4A021 		mov	r1, #327680
 260 006a 5046     		mov	r0, r10
 261 006c FFF7FEFF 		bl	lv_obj_init_draw_label_dsc
 262 0070 9AF82230 		ldrb	r3, [r10, #34]	@ zero_extendqisi2
 263 0074 AAF82040 		strh	r4, [r10, #32]	@ movhi
 264 0078 23F00803 		bic	r3, r3, #8
 265 007c 8AF82230 		strb	r3, [r10, #34]
 266 0080 1022     		movs	r2, #16
 267 0082 0021     		movs	r1, #0
 268 0084 5046     		mov	r0, r10
 269 0086 FFF7FEFF 		bl	lv_obj_get_style_prop
 270 008a 1122     		movs	r2, #17
 271 008c 03B2     		sxth	r3, r0
 272 008e 0021     		movs	r1, #0
 273 0090 5046     		mov	r0, r10
 274 0092 0993     		str	r3, [sp, #36]
 275 0094 FFF7FEFF 		bl	lv_obj_get_style_prop
 276 0098 1222     		movs	r2, #18
 277 009a 03B2     		sxth	r3, r0
 278 009c 0021     		movs	r1, #0
 279 009e 5046     		mov	r0, r10
 280 00a0 0A93     		str	r3, [sp, #40]
 281 00a2 FFF7FEFF 		bl	lv_obj_get_style_prop
 282 00a6 1322     		movs	r2, #19
 283 00a8 03B2     		sxth	r3, r0
 284 00aa 0021     		movs	r1, #0
 285 00ac 5046     		mov	r0, r10
 286 00ae 0B93     		str	r3, [sp, #44]
 287 00b0 FFF7FEFF 		bl	lv_obj_get_style_prop
 288 00b4 2946     		mov	r1, r5
ARM GAS  /var/folders/lp/x54gwt890xv47sdkqj1k04q40000gn/T//cc0uNINC.s 			page 6


 289 00b6 03B2     		sxth	r3, r0
 290 00b8 40A8     		add	r0, sp, #256
 291 00ba 0C93     		str	r3, [sp, #48]
 292 00bc FFF7FEFF 		bl	lv_obj_draw_dsc_init
 293 00c0 8A4B     		ldr	r3, .L80+4
 294 00c2 BAF83020 		ldrh	r2, [r10, #48]
 295 00c6 4193     		str	r3, [sp, #260]
 296 00c8 24A9     		add	r1, sp, #144
 297 00ca 4FF4A023 		mov	r3, #327680
 298 00ce 4D93     		str	r3, [sp, #308]
 299 00d0 4491     		str	r1, [sp, #272]
 300 00d2 0023     		movs	r3, #0
 301 00d4 14A9     		add	r1, sp, #80
 302 00d6 4293     		str	r3, [sp, #264]
 303 00d8 4591     		str	r1, [sp, #276]
 304 00da 002A     		cmp	r2, #0
 305 00dc 00F0FA80 		beq	.L25
 306 00e0 9B46     		mov	fp, r3
 307 00e2 1C46     		mov	r4, r3
 308 00e4 069B     		ldr	r3, [sp, #24]
 309 00e6 03F02003 		and	r3, r3, #32
 310 00ea 0D93     		str	r3, [sp, #52]
 311 00ec 5D46     		mov	r5, fp
 312              	.L24:
 313 00ee DAF82400 		ldr	r0, [r10, #36]
 314              	.L27:
 315 00f2 50F82410 		ldr	r1, [r0, r4, lsl #2]
 316 00f6 0B78     		ldrb	r3, [r1]	@ zero_extendqisi2
 317 00f8 0A3B     		subs	r3, r3, #10
 318 00fa 08BF     		it	eq
 319 00fc 4B78     		ldrbeq	r3, [r1, #1]	@ zero_extendqisi2
 320 00fe 4FEA8408 		lsl	r8, r4, #2
 321 0102 0134     		adds	r4, r4, #1
 322 0104 A4B2     		uxth	r4, r4
 323 0106 002B     		cmp	r3, #0
 324 0108 F3D0     		beq	.L27
 325 010a DAF82C30 		ldr	r3, [r10, #44]
 326 010e 33F81530 		ldrh	r3, [r3, r5, lsl #1]
 327 0112 DE06     		lsls	r6, r3, #27
 328 0114 4FEA4509 		lsl	r9, r5, #1
 329 0118 00F1D780 		bmi	.L28
 330 011c 5806     		lsls	r0, r3, #25
 331 011e C3F30026 		ubfx	r6, r3, #8, #1
 332 0122 40F14D81 		bpl	.L29
 333 0126 46F08006 		orr	r6, r6, #128
 334              	.L30:
 335 012a DAF82820 		ldr	r2, [r10, #40]
 336 012e BDF84810 		ldrh	r1, [sp, #72]
 337 0132 32F835C0 		ldrh	ip, [r2, r5, lsl #3]
 338 0136 02EBC503 		add	r3, r2, r5, lsl #3
 339 013a 8C44     		add	ip, ip, r1
 340 013c 9A88     		ldrh	r2, [r3, #4]
 341 013e 5F88     		ldrh	r7, [r3, #2]
 342 0140 DB88     		ldrh	r3, [r3, #6]
 343 0142 1144     		add	r1, r1, r2
 344 0144 BDF84A20 		ldrh	r2, [sp, #74]
 345 0148 1744     		add	r7, r7, r2
ARM GAS  /var/folders/lp/x54gwt890xv47sdkqj1k04q40000gn/T//cc0uNINC.s 			page 7


 346 014a 1A44     		add	r2, r2, r3
 347 014c 0023     		movs	r3, #0
 348 014e 1846     		mov	r0, r3
 349 0150 61F30F00 		bfi	r0, r1, #0, #16
 350 0154 6CF30F03 		bfi	r3, ip, #0, #16
 351 0158 67F31F43 		bfi	r3, r7, #16, #16
 352 015c 62F31F40 		bfi	r0, r2, #16, #16
 353 0160 CDE91030 		strd	r3, r0, [sp, #64]
 354 0164 002E     		cmp	r6, #0
 355 0166 40F00781 		bne	.L34
 356 016a 3822     		movs	r2, #56
 357 016c 32A9     		add	r1, sp, #200
 358 016e 24A8     		add	r0, sp, #144
 359 0170 FFF7FEFF 		bl	lv_memcpy
 360 0174 2022     		movs	r2, #32
 361 0176 1CA9     		add	r1, sp, #112
 362 0178 14A8     		add	r0, sp, #80
 363 017a FFF7FEFF 		bl	lv_memcpy
 364              	.L35:
 365 017e DAF82C30 		ldr	r3, [r10, #44]
 366 0182 33F80920 		ldrh	r2, [r3, r9]
 367 0186 9DF86D30 		ldrb	r3, [sp, #109]	@ zero_extendqisi2
 368 018a 4E95     		str	r5, [sp, #312]
 369 018c 1705     		lsls	r7, r2, #20
 370 018e 4CBF     		ite	mi
 371 0190 43F00103 		orrmi	r3, r3, #1
 372 0194 03F0FE03 		andpl	r3, r3, #254
 373 0198 8DF86D30 		strb	r3, [sp, #109]
 374 019c 40AA     		add	r2, sp, #256
 375 019e 10AB     		add	r3, sp, #64
 376 01a0 1A21     		movs	r1, #26
 377 01a2 5046     		mov	r0, r10
 378 01a4 4393     		str	r3, [sp, #268]
 379 01a6 FFF7FEFF 		bl	lv_event_send
 380 01aa 9DF8B330 		ldrb	r3, [sp, #179]	@ zero_extendqisi2
 381 01ae C3F34402 		ubfx	r2, r3, #1, #5
 382 01b2 0F2A     		cmp	r2, #15
 383 01b4 00F29C80 		bhi	.L38
 384 01b8 BDF94230 		ldrsh	r3, [sp, #66]
 385 01bc BDF94670 		ldrsh	r7, [sp, #70]
 386              	.L39:
 387 01c0 0137     		adds	r7, r7, #1
 388 01c2 9AB2     		uxth	r2, r3
 389 01c4 B9B2     		uxth	r1, r7
 390 01c6 16F02006 		ands	r6, r6, #32
 391 01ca 0892     		str	r2, [sp, #32]
 392 01cc 0791     		str	r1, [sp, #28]
 393 01ce 09D0     		beq	.L45
 394 01d0 DAF82C30 		ldr	r3, [r10, #44]
 395 01d4 33F80930 		ldrh	r3, [r3, r9]
 396 01d8 5805     		lsls	r0, r3, #21
 397 01da 44BF     		itt	mi
 398 01dc C1EB4203 		rsbmi	r3, r1, r2, lsl #1
 399 01e0 ADF84230 		strhmi	r3, [sp, #66]	@ movhi
 400              	.L45:
 401 01e4 0598     		ldr	r0, [sp, #20]
 402 01e6 10AA     		add	r2, sp, #64
ARM GAS  /var/folders/lp/x54gwt890xv47sdkqj1k04q40000gn/T//cc0uNINC.s 			page 8


 403 01e8 24A9     		add	r1, sp, #144
 404 01ea FFF7FEFF 		bl	lv_draw_rect
 405 01ee DAF82420 		ldr	r2, [r10, #36]
 406 01f2 BDF84C30 		ldrh	r3, [sp, #76]
 407 01f6 52F80880 		ldr	r8, [r2, r8]
 408 01fa BDF84820 		ldrh	r2, [sp, #72]
 409 01fe 0133     		adds	r3, r3, #1
 410 0200 9B1A     		subs	r3, r3, r2
 411 0202 1BB2     		sxth	r3, r3
 412 0204 0193     		str	r3, [sp, #4]
 413 0206 9DF86D30 		ldrb	r3, [sp, #109]	@ zero_extendqisi2
 414 020a 0293     		str	r3, [sp, #8]
 415 020c BDF96230 		ldrsh	r3, [sp, #98]
 416 0210 149A     		ldr	r2, [sp, #80]
 417 0212 0093     		str	r3, [sp]
 418 0214 4146     		mov	r1, r8
 419 0216 BDF96430 		ldrsh	r3, [sp, #100]
 420 021a 0FA8     		add	r0, sp, #60
 421 021c FFF7FEFF 		bl	lv_txt_get_size
 422 0220 BDF84420 		ldrh	r2, [sp, #68]
 423 0224 BDF84630 		ldrh	r3, [sp, #70]
 424 0228 BDF840B0 		ldrh	fp, [sp, #64]
 425 022c BDF84270 		ldrh	r7, [sp, #66]
 426 0230 BDF93CC0 		ldrsh	ip, [sp, #60]
 427 0234 BDF93E00 		ldrsh	r0, [sp, #62]
 428 0238 0132     		adds	r2, r2, #1
 429 023a 0133     		adds	r3, r3, #1
 430 023c A2EB0B02 		sub	r2, r2, fp
 431 0240 DB1B     		subs	r3, r3, r7
 432 0242 12B2     		sxth	r2, r2
 433 0244 1BB2     		sxth	r3, r3
 434 0246 A2EB0C02 		sub	r2, r2, ip
 435 024a 1B1A     		subs	r3, r3, r0
 436 024c 02EBD272 		add	r2, r2, r2, lsr #31
 437 0250 03EBD373 		add	r3, r3, r3, lsr #31
 438 0254 0BEB6202 		add	r2, fp, r2, asr #1
 439 0258 07EB6303 		add	r3, r7, r3, asr #1
 440 025c 0021     		movs	r1, #0
 441 025e 92B2     		uxth	r2, r2
 442 0260 9BB2     		uxth	r3, r3
 443 0262 8E46     		mov	lr, r1
 444 0264 1844     		add	r0, r0, r3
 445 0266 9444     		add	ip, ip, r2
 446 0268 62F30F01 		bfi	r1, r2, #0, #16
 447 026c 6CF30F0E 		bfi	lr, ip, #0, #16
 448 0270 80B2     		uxth	r0, r0
 449 0272 63F31F41 		bfi	r1, r3, #16, #16
 450 0276 60F31F4E 		bfi	lr, r0, #16, #16
 451 027a 1091     		str	r1, [sp, #64]
 452 027c CDF844E0 		str	lr, [sp, #68]
 453 0280 A6B1     		cbz	r6, .L46
 454 0282 DAF82C20 		ldr	r2, [r10, #44]
 455 0286 32F80920 		ldrh	r2, [r2, r9]
 456 028a 5205     		lsls	r2, r2, #21
 457 028c 0ED5     		bpl	.L46
 458 028e DDE90721 		ldrd	r2, r1, [sp, #28]
 459 0292 571A     		subs	r7, r2, r1
ARM GAS  /var/folders/lp/x54gwt890xv47sdkqj1k04q40000gn/T//cc0uNINC.s 			page 9


 460 0294 C7F3C032 		ubfx	r2, r7, #15, #1
 461 0298 02FA87F7 		sxtah	r7, r2, r7
 462 029c C7F34F02 		ubfx	r2, r7, #1, #16
 463 02a0 9B1A     		subs	r3, r3, r2
 464 02a2 801A     		subs	r0, r0, r2
 465 02a4 ADF84230 		strh	r3, [sp, #66]	@ movhi
 466 02a8 ADF84600 		strh	r0, [sp, #70]	@ movhi
 467              	.L46:
 468 02ac 0022     		movs	r2, #0
 469 02ae 0598     		ldr	r0, [sp, #20]
 470 02b0 0092     		str	r2, [sp]
 471 02b2 4346     		mov	r3, r8
 472 02b4 10AA     		add	r2, sp, #64
 473 02b6 14A9     		add	r1, sp, #80
 474 02b8 FFF7FEFF 		bl	lv_draw_label
 475 02bc 40AA     		add	r2, sp, #256
 476 02be 1B21     		movs	r1, #27
 477 02c0 5046     		mov	r0, r10
 478 02c2 FFF7FEFF 		bl	lv_event_send
 479 02c6 BAF83020 		ldrh	r2, [r10, #48]
 480              	.L28:
 481 02ca 0135     		adds	r5, r5, #1
 482 02cc ABB2     		uxth	r3, r5
 483 02ce 9A42     		cmp	r2, r3
 484 02d0 3FF60DAF 		bhi	.L24
 485              	.L25:
 486 02d4 9AF82230 		ldrb	r3, [r10, #34]	@ zero_extendqisi2
 487 02d8 23F00803 		bic	r3, r3, #8
 488 02dc 8AF82230 		strb	r3, [r10, #34]
 489 02e0 53B0     		add	sp, sp, #332
 490              		@ sp needed
 491 02e2 BDE8F08F 		pop	{r4, r5, r6, r7, r8, r9, r10, fp, pc}
 492              	.L81:
 493 02e6 00BF     		.align	2
 494              	.L80:
 495 02e8 0000F7FF 		.word	-589824
 496 02ec 00000000 		.word	lv_btnmatrix_class
 497              	.L38:
 498 02f0 BAF91410 		ldrsh	r1, [r10, #20]
 499 02f4 0B9A     		ldr	r2, [sp, #44]
 500 02f6 1144     		add	r1, r1, r2
 501 02f8 BDF94020 		ldrsh	r2, [sp, #64]
 502 02fc 8A42     		cmp	r2, r1
 503 02fe 14BF     		ite	ne
 504 0300 0F22     		movne	r2, #15
 505 0302 0B22     		moveq	r2, #11
 506 0304 62F34503 		bfi	r3, r2, #1, #5
 507 0308 8DF8B330 		strb	r3, [sp, #179]
 508 030c 0C99     		ldr	r1, [sp, #48]
 509 030e BAF91830 		ldrsh	r3, [r10, #24]
 510 0312 5B1A     		subs	r3, r3, r1
 511 0314 BDF94410 		ldrsh	r1, [sp, #68]
 512 0318 9942     		cmp	r1, r3
 513 031a 07D1     		bne	.L41
 514 031c 9DF8B330 		ldrb	r3, [sp, #179]	@ zero_extendqisi2
 515 0320 02F01702 		and	r2, r2, #23
 516 0324 62F34503 		bfi	r3, r2, #1, #5
ARM GAS  /var/folders/lp/x54gwt890xv47sdkqj1k04q40000gn/T//cc0uNINC.s 			page 10


 517 0328 8DF8B330 		strb	r3, [sp, #179]
 518              	.L41:
 519 032c 099B     		ldr	r3, [sp, #36]
 520 032e BAF91620 		ldrsh	r2, [r10, #22]
 521 0332 1A44     		add	r2, r2, r3
 522 0334 BDF94230 		ldrsh	r3, [sp, #66]
 523 0338 9342     		cmp	r3, r2
 524 033a 09D1     		bne	.L42
 525 033c 9DF8B320 		ldrb	r2, [sp, #179]	@ zero_extendqisi2
 526 0340 C2F34401 		ubfx	r1, r2, #1, #5
 527 0344 01F01D01 		and	r1, r1, #29
 528 0348 61F34502 		bfi	r2, r1, #1, #5
 529 034c 8DF8B320 		strb	r2, [sp, #179]
 530              	.L42:
 531 0350 BAF91A20 		ldrsh	r2, [r10, #26]
 532 0354 0A99     		ldr	r1, [sp, #40]
 533 0356 BDF94670 		ldrsh	r7, [sp, #70]
 534 035a 521A     		subs	r2, r2, r1
 535 035c 9742     		cmp	r7, r2
 536 035e 7FF42FAF 		bne	.L39
 537 0362 9DF8B320 		ldrb	r2, [sp, #179]	@ zero_extendqisi2
 538 0366 C2F34401 		ubfx	r1, r2, #1, #5
 539 036a 01F01E01 		and	r1, r1, #30
 540 036e 61F34502 		bfi	r2, r1, #1, #5
 541 0372 8DF8B320 		strb	r2, [sp, #179]
 542 0376 23E7     		b	.L39
 543              	.L34:
 544 0378 9AF82230 		ldrb	r3, [r10, #34]	@ zero_extendqisi2
 545 037c AAF82060 		strh	r6, [r10, #32]	@ movhi
 546 0380 43F00803 		orr	r3, r3, #8
 547 0384 8AF82230 		strb	r3, [r10, #34]
 548 0388 24A8     		add	r0, sp, #144
 549 038a FFF7FEFF 		bl	lv_draw_rect_dsc_init
 550 038e 14A8     		add	r0, sp, #80
 551 0390 FFF7FEFF 		bl	lv_draw_label_dsc_init
 552 0394 24AA     		add	r2, sp, #144
 553 0396 4FF4A021 		mov	r1, #327680
 554 039a 5046     		mov	r0, r10
 555 039c FFF7FEFF 		bl	lv_obj_init_draw_rect_dsc
 556 03a0 14AA     		add	r2, sp, #80
 557 03a2 4FF4A021 		mov	r1, #327680
 558 03a6 5046     		mov	r0, r10
 559 03a8 FFF7FEFF 		bl	lv_obj_init_draw_label_dsc
 560 03ac 069B     		ldr	r3, [sp, #24]
 561 03ae AAF82030 		strh	r3, [r10, #32]	@ movhi
 562 03b2 9AF82230 		ldrb	r3, [r10, #34]	@ zero_extendqisi2
 563 03b6 23F00803 		bic	r3, r3, #8
 564 03ba 8AF82230 		strb	r3, [r10, #34]
 565 03be DEE6     		b	.L35
 566              	.L29:
 567 03c0 BAF83420 		ldrh	r2, [r10, #52]
 568 03c4 ABB2     		uxth	r3, r5
 569 03c6 9A42     		cmp	r2, r3
 570 03c8 7FF4AFAE 		bne	.L30
 571 03cc 0D9B     		ldr	r3, [sp, #52]
 572 03ce 0BB1     		cbz	r3, .L31
 573 03d0 46F02006 		orr	r6, r6, #32
ARM GAS  /var/folders/lp/x54gwt890xv47sdkqj1k04q40000gn/T//cc0uNINC.s 			page 11


 574              	.L31:
 575 03d4 069B     		ldr	r3, [sp, #24]
 576 03d6 9907     		lsls	r1, r3, #30
 577 03d8 069B     		ldr	r3, [sp, #24]
 578 03da 48BF     		it	mi
 579 03dc 46F00206 		orrmi	r6, r6, #2
 580 03e0 5A07     		lsls	r2, r3, #29
 581 03e2 069B     		ldr	r3, [sp, #24]
 582 03e4 48BF     		it	mi
 583 03e6 46F00406 		orrmi	r6, r6, #4
 584 03ea 1B07     		lsls	r3, r3, #28
 585 03ec 48BF     		it	mi
 586 03ee 46F00806 		orrmi	r6, r6, #8
 587 03f2 9AE6     		b	.L30
 589              		.section	.text.lv_btnmatrix_destructor,"ax",%progbits
 590              		.align	1
 591              		.p2align 2,,3
 592              		.syntax unified
 593              		.thumb
 594              		.thumb_func
 596              	lv_btnmatrix_destructor:
 597              		@ args = 0, pretend = 0, frame = 0
 598              		@ frame_needed = 0, uses_anonymous_args = 0
 599 0000 10B5     		push	{r4, lr}
 600 0002 0C46     		mov	r4, r1
 601 0004 886A     		ldr	r0, [r1, #40]
 602 0006 FFF7FEFF 		bl	lv_mem_free
 603 000a E06A     		ldr	r0, [r4, #44]
 604 000c FFF7FEFF 		bl	lv_mem_free
 605 0010 0023     		movs	r3, #0
 606 0012 C4E90A33 		strd	r3, r3, [r4, #40]
 607 0016 10BD     		pop	{r4, pc}
 609              		.section	.text.invalidate_button_area.part.0,"ax",%progbits
 610              		.align	1
 611              		.p2align 2,,3
 612              		.syntax unified
 613              		.thumb
 614              		.thumb_func
 616              	invalidate_button_area.part.0:
 617              		@ args = 0, pretend = 0, frame = 16
 618              		@ frame_needed = 0, uses_anonymous_args = 0
 619 0000 F0B5     		push	{r4, r5, r6, r7, lr}
 620 0002 836A     		ldr	r3, [r0, #40]
 621 0004 85B0     		sub	sp, sp, #20
 622 0006 03EBC102 		add	r2, r3, r1, lsl #3
 623 000a 53F83130 		ldr	r3, [r3, r1, lsl #3]	@ unaligned
 624 000e 0093     		str	r3, [sp]
 625 0010 0446     		mov	r4, r0
 626 0012 5368     		ldr	r3, [r2, #4]	@ unaligned
 627 0014 0193     		str	r3, [sp, #4]
 628 0016 0D46     		mov	r5, r1
 629 0018 02A9     		add	r1, sp, #8
 630 001a FFF7FEFF 		bl	lv_obj_get_coords
 631 001e 1422     		movs	r2, #20
 632 0020 0021     		movs	r1, #0
 633 0022 2046     		mov	r0, r4
 634 0024 FFF7FEFF 		bl	lv_obj_get_style_prop
ARM GAS  /var/folders/lp/x54gwt890xv47sdkqj1k04q40000gn/T//cc0uNINC.s 			page 12


 635 0028 1522     		movs	r2, #21
 636 002a 0021     		movs	r1, #0
 637 002c 07B2     		sxth	r7, r0
 638 002e 2046     		mov	r0, r4
 639 0030 FFF7FEFF 		bl	lv_obj_get_style_prop
 640 0034 06B2     		sxth	r6, r0
 641 0036 2046     		mov	r0, r4
 642 0038 FFF7FEFF 		bl	lv_obj_get_disp
 643 003c FFF7FEFF 		bl	lv_disp_get_dpi
 644 0040 224A     		ldr	r2, .L91
 645 0042 BDF80010 		ldrh	r1, [sp]
 646 0046 82FB0032 		smull	r3, r2, r2, r0
 647 004a C317     		asrs	r3, r0, #31
 648 004c C3EBA203 		rsb	r3, r3, r2, asr #2
 649 0050 1BB2     		sxth	r3, r3
 650 0052 9E42     		cmp	r6, r3
 651 0054 B8BF     		it	lt
 652 0056 1E46     		movlt	r6, r3
 653 0058 9F42     		cmp	r7, r3
 654 005a B8BF     		it	lt
 655 005c 1F46     		movlt	r7, r3
 656 005e BDF80A00 		ldrh	r0, [sp, #10]
 657 0062 BDF80220 		ldrh	r2, [sp, #2]
 658 0066 B3B2     		uxth	r3, r6
 659 0068 BDF80660 		ldrh	r6, [sp, #6]
 660 006c 0244     		add	r2, r2, r0
 661 006e 3044     		add	r0, r0, r6
 662 0070 D21A     		subs	r2, r2, r3
 663 0072 0344     		add	r3, r3, r0
 664 0074 BDF80800 		ldrh	r0, [sp, #8]
 665 0078 BFB2     		uxth	r7, r7
 666 007a 0144     		add	r1, r1, r0
 667 007c C91B     		subs	r1, r1, r7
 668 007e ADF80010 		strh	r1, [sp]	@ movhi
 669 0082 BDF80410 		ldrh	r1, [sp, #4]
 670 0086 0844     		add	r0, r0, r1
 671 0088 A18E     		ldrh	r1, [r4, #52]
 672 008a 92B2     		uxth	r2, r2
 673 008c 9BB2     		uxth	r3, r3
 674 008e 0744     		add	r7, r7, r0
 675 0090 A942     		cmp	r1, r5
 676 0092 ADF80220 		strh	r2, [sp, #2]	@ movhi
 677 0096 ADF80630 		strh	r3, [sp, #6]	@ movhi
 678 009a ADF80470 		strh	r7, [sp, #4]	@ movhi
 679 009e 05D0     		beq	.L90
 680              	.L85:
 681 00a0 6946     		mov	r1, sp
 682 00a2 2046     		mov	r0, r4
 683 00a4 FFF7FEFF 		bl	lv_obj_invalidate_area
 684 00a8 05B0     		add	sp, sp, #20
 685              		@ sp needed
 686 00aa F0BD     		pop	{r4, r5, r6, r7, pc}
 687              	.L90:
 688 00ac E06A     		ldr	r0, [r4, #44]
 689 00ae 30F81110 		ldrh	r1, [r0, r1, lsl #1]
 690 00b2 4905     		lsls	r1, r1, #21
 691 00b4 F4D5     		bpl	.L85
ARM GAS  /var/folders/lp/x54gwt890xv47sdkqj1k04q40000gn/T//cc0uNINC.s 			page 13


 692 00b6 DB43     		mvns	r3, r3
 693 00b8 03EB4203 		add	r3, r3, r2, lsl #1
 694 00bc 6946     		mov	r1, sp
 695 00be 2046     		mov	r0, r4
 696 00c0 ADF80230 		strh	r3, [sp, #2]	@ movhi
 697 00c4 FFF7FEFF 		bl	lv_obj_invalidate_area
 698 00c8 05B0     		add	sp, sp, #20
 699              		@ sp needed
 700 00ca F0BD     		pop	{r4, r5, r6, r7, pc}
 701              	.L92:
 702              		.align	2
 703              	.L91:
 704 00cc 67666666 		.word	1717986919
 706              		.section	.text.lv_btnmatrix_set_map.part.0,"ax",%progbits
 707              		.align	1
 708              		.p2align 2,,3
 709              		.syntax unified
 710              		.thumb
 711              		.thumb_func
 713              	lv_btnmatrix_set_map.part.0:
 714              		@ args = 0, pretend = 0, frame = 72
 715              		@ frame_needed = 0, uses_anonymous_args = 0
 716 0000 2DE9F04F 		push	{r4, r5, r6, r7, r8, r9, r10, fp, lr}
 717 0004 0A68     		ldr	r2, [r1]
 718 0006 0123     		movs	r3, #1
 719 0008 95B0     		sub	sp, sp, #84
 720 000a 8946     		mov	r9, r1
 721 000c 8246     		mov	r10, r0
 722 000e 4386     		strh	r3, [r0, #50]	@ movhi
 723 0010 1446     		mov	r4, r2
 724 0012 D2B1     		cbz	r2, .L95
 725 0014 0023     		movs	r3, #0
 726 0016 1C46     		mov	r4, r3
 727 0018 0BE0     		b	.L94
 728              	.L150:
 729 001a 5278     		ldrb	r2, [r2, #1]	@ zero_extendqisi2
 730 001c 72B9     		cbnz	r2, .L123
 731 001e BAF83220 		ldrh	r2, [r10, #50]
 732 0022 0133     		adds	r3, r3, #1
 733 0024 9BB2     		uxth	r3, r3
 734 0026 0132     		adds	r2, r2, #1
 735 0028 AAF83220 		strh	r2, [r10, #50]	@ movhi
 736 002c 59F82320 		ldr	r2, [r9, r3, lsl #2]
 737 0030 5AB1     		cbz	r2, .L95
 738              	.L94:
 739 0032 1178     		ldrb	r1, [r2]	@ zero_extendqisi2
 740 0034 601C     		adds	r0, r4, #1
 741 0036 41B1     		cbz	r1, .L95
 742 0038 0A29     		cmp	r1, #10
 743 003a EED0     		beq	.L150
 744              	.L123:
 745 003c 0133     		adds	r3, r3, #1
 746 003e 9BB2     		uxth	r3, r3
 747 0040 84B2     		uxth	r4, r0
 748 0042 59F82320 		ldr	r2, [r9, r3, lsl #2]
 749 0046 002A     		cmp	r2, #0
 750 0048 F3D1     		bne	.L94
ARM GAS  /var/folders/lp/x54gwt890xv47sdkqj1k04q40000gn/T//cc0uNINC.s 			page 14


 751              	.L95:
 752 004a BAF83030 		ldrh	r3, [r10, #48]
 753 004e A342     		cmp	r3, r4
 754 0050 2BD0     		beq	.L100
 755 0052 DAF82800 		ldr	r0, [r10, #40]
 756 0056 20B1     		cbz	r0, .L101
 757 0058 FFF7FEFF 		bl	lv_mem_free
 758 005c 0023     		movs	r3, #0
 759 005e CAF82830 		str	r3, [r10, #40]
 760              	.L101:
 761 0062 DAF82C00 		ldr	r0, [r10, #44]
 762 0066 20B1     		cbz	r0, .L102
 763 0068 FFF7FEFF 		bl	lv_mem_free
 764 006c 0023     		movs	r3, #0
 765 006e CAF82C30 		str	r3, [r10, #44]
 766              	.L102:
 767 0072 E000     		lsls	r0, r4, #3
 768 0074 FFF7FEFF 		bl	lv_mem_alloc
 769 0078 CAF82800 		str	r0, [r10, #40]
 770 007c 0028     		cmp	r0, #0
 771 007e 00F09680 		beq	.L104
 772 0082 6500     		lsls	r5, r4, #1
 773 0084 2846     		mov	r0, r5
 774 0086 FFF7FEFF 		bl	lv_mem_alloc
 775 008a CAF82C00 		str	r0, [r10, #44]
 776 008e 0028     		cmp	r0, #0
 777 0090 00F09780 		beq	.L106
 778 0094 DAF82830 		ldr	r3, [r10, #40]
 779 0098 002B     		cmp	r3, #0
 780 009a 0ABF     		itet	eq
 781 009c 0024     		moveq	r4, #0
 782 009e 2946     		movne	r1, r5
 783 00a0 0021     		moveq	r1, #0
 784 00a2 FFF7FEFF 		bl	lv_memset_00
 785 00a6 AAF83040 		strh	r4, [r10, #48]	@ movhi
 786              	.L100:
 787 00aa 1622     		movs	r2, #22
 788 00ac 0021     		movs	r1, #0
 789 00ae CAF82490 		str	r9, [r10, #36]
 790 00b2 5046     		mov	r0, r10
 791 00b4 FFF7FEFF 		bl	lv_obj_get_style_prop
 792 00b8 1222     		movs	r2, #18
 793 00ba C3B2     		uxtb	r3, r0
 794 00bc 0021     		movs	r1, #0
 795 00be 5046     		mov	r0, r10
 796 00c0 0793     		str	r3, [sp, #28]
 797 00c2 FFF7FEFF 		bl	lv_obj_get_style_prop
 798 00c6 1022     		movs	r2, #16
 799 00c8 1290     		str	r0, [sp, #72]
 800 00ca 0021     		movs	r1, #0
 801 00cc 5046     		mov	r0, r10
 802 00ce FFF7FEFF 		bl	lv_obj_get_style_prop
 803 00d2 1422     		movs	r2, #20
 804 00d4 0021     		movs	r1, #0
 805 00d6 0546     		mov	r5, r0
 806 00d8 5046     		mov	r0, r10
 807 00da FFF7FEFF 		bl	lv_obj_get_style_prop
ARM GAS  /var/folders/lp/x54gwt890xv47sdkqj1k04q40000gn/T//cc0uNINC.s 			page 15


 808 00de 1522     		movs	r2, #21
 809 00e0 8046     		mov	r8, r0
 810 00e2 0021     		movs	r1, #0
 811 00e4 5046     		mov	r0, r10
 812 00e6 FFF7FEFF 		bl	lv_obj_get_style_prop
 813 00ea 0346     		mov	r3, r0
 814 00ec 1BB2     		sxth	r3, r3
 815 00ee 1190     		str	r0, [sp, #68]
 816 00f0 5046     		mov	r0, r10
 817 00f2 1393     		str	r3, [sp, #76]
 818 00f4 FFF7FEFF 		bl	lv_obj_get_content_width
 819 00f8 0446     		mov	r4, r0
 820 00fa 5046     		mov	r0, r10
 821 00fc FFF7FEFF 		bl	lv_obj_get_content_height
 822 0100 BAF83260 		ldrh	r6, [r10, #50]
 823 0104 731E     		subs	r3, r6, #1
 824 0106 13FB08F3 		smulbb	r3, r3, r8
 825 010a C31A     		subs	r3, r0, r3
 826 010c 1BB2     		sxth	r3, r3
 827 010e 0FFA88F7 		sxth	r7, r8
 828 0112 0A93     		str	r3, [sp, #40]
 829 0114 002E     		cmp	r6, #0
 830 0116 4BD0     		beq	.L108
 831 0118 4A46     		mov	r2, r9
 832 011a BBB2     		uxth	r3, r7
 833 011c A8B2     		uxth	r0, r5
 834 011e 1568     		ldr	r5, [r2]
 835 0120 0B93     		str	r3, [sp, #44]
 836 0122 0027     		movs	r7, #0
 837 0124 A3B2     		uxth	r3, r4
 838 0126 0121     		movs	r1, #1
 839 0128 8446     		mov	ip, r0
 840 012a 0893     		str	r3, [sp, #32]
 841 012c BE46     		mov	lr, r7
 842 012e 0846     		mov	r0, r1
 843 0130 002D     		cmp	r5, #0
 844 0132 39D0     		beq	.L151
 845              	.L122:
 846 0134 0023     		movs	r3, #0
 847 0136 1C46     		mov	r4, r3
 848 0138 1946     		mov	r1, r3
 849 013a 12E0     		b	.L118
 850              	.L124:
 851 013c 2D78     		ldrb	r5, [r5]	@ zero_extendqisi2
 852 013e F5B1     		cbz	r5, .L110
 853 0140 DAF82C10 		ldr	r1, [r10, #44]
 854 0144 1FFA8BF3 		uxth	r3, fp
 855 0148 31F81910 		ldrh	r1, [r1, r9, lsl #1]
 856 014c 52F82350 		ldr	r5, [r2, r3, lsl #2]
 857 0150 01F00F01 		and	r1, r1, #15
 858 0154 0129     		cmp	r1, #1
 859 0156 2CBF     		ite	cs
 860 0158 6418     		addcs	r4, r4, r1
 861 015a 0134     		addcc	r4, r4, #1
 862 015c A4B2     		uxth	r4, r4
 863 015e 1946     		mov	r1, r3
 864 0160 6DB1     		cbz	r5, .L110
ARM GAS  /var/folders/lp/x54gwt890xv47sdkqj1k04q40000gn/T//cc0uNINC.s 			page 16


 865              	.L118:
 866 0162 95F80080 		ldrb	r8, [r5]	@ zero_extendqisi2
 867 0166 B8F10A0F 		cmp	r8, #10
 868 016a 01EB0E09 		add	r9, r1, lr
 869 016e 03F1010B 		add	fp, r3, #1
 870 0172 E3D1     		bne	.L124
 871 0174 95F80180 		ldrb	r8, [r5, #1]	@ zero_extendqisi2
 872 0178 B8F1000F 		cmp	r8, #0
 873 017c DED1     		bne	.L124
 874              	.L110:
 875 017e 4D1C     		adds	r5, r1, #1
 876 0180 AD00     		lsls	r5, r5, #2
 877 0182 0995     		str	r5, [sp, #36]
 878 0184 F3B9     		cbnz	r3, .L113
 879              	.L119:
 880 0186 099B     		ldr	r3, [sp, #36]
 881 0188 1A44     		add	r2, r2, r3
 882 018a 0A9B     		ldr	r3, [sp, #40]
 883 018c FB18     		adds	r3, r7, r3
 884              	.L114:
 885 018e 0B99     		ldr	r1, [sp, #44]
 886 0190 8642     		cmp	r6, r0
 887 0192 6144     		add	r1, r1, ip
 888 0194 1F46     		mov	r7, r3
 889 0196 1FFA81FC 		uxth	ip, r1
 890 019a 00F10103 		add	r3, r0, #1
 891 019e 07D9     		bls	.L108
 892 01a0 1568     		ldr	r5, [r2]
 893 01a2 1846     		mov	r0, r3
 894 01a4 002D     		cmp	r5, #0
 895 01a6 C5D1     		bne	.L122
 896              	.L151:
 897 01a8 0423     		movs	r3, #4
 898 01aa 0993     		str	r3, [sp, #36]
 899 01ac EBE7     		b	.L119
 900              	.L104:
 901 01ae FEE7     		b	.L104
 902              	.L108:
 903 01b0 5046     		mov	r0, r10
 904 01b2 FFF7FEFF 		bl	lv_obj_refresh_ext_draw_size
 905 01b6 5046     		mov	r0, r10
 906 01b8 15B0     		add	sp, sp, #84
 907              		@ sp needed
 908 01ba BDE8F04F 		pop	{r4, r5, r6, r7, r8, r9, r10, fp, lr}
 909 01be FFF7FEBF 		b	lv_obj_invalidate
 910              	.L106:
 911 01c2 FEE7     		b	.L106
 912              	.L113:
 913 01c4 119D     		ldr	r5, [sp, #68]
 914 01c6 013B     		subs	r3, r3, #1
 915 01c8 13FB05F3 		smulbb	r3, r3, r5
 916 01cc 089D     		ldr	r5, [sp, #32]
 917 01ce EB1A     		subs	r3, r5, r3
 918 01d0 1BB2     		sxth	r3, r3
 919 01d2 23EAE379 		bic	r9, r3, r3, asr #31
 920 01d6 0A9B     		ldr	r3, [sp, #40]
 921 01d8 FB18     		adds	r3, r7, r3
ARM GAS  /var/folders/lp/x54gwt890xv47sdkqj1k04q40000gn/T//cc0uNINC.s 			page 17


 922 01da B7FBF6F7 		udiv	r7, r7, r6
 923 01de 6744     		add	r7, r7, ip
 924 01e0 0CF1FF35 		add	r5, ip, #-1
 925 01e4 3FB2     		sxth	r7, r7
 926 01e6 0397     		str	r7, [sp, #12]
 927 01e8 B3FBF6F7 		udiv	r7, r3, r6
 928 01ec 2F44     		add	r7, r7, r5
 929 01ee 3DB2     		sxth	r5, r7
 930 01f0 0495     		str	r5, [sp, #16]
 931 01f2 0029     		cmp	r1, #0
 932 01f4 4BD0     		beq	.L115
 933 01f6 4FEA4E07 		lsl	r7, lr, #1
 934 01fa 8E44     		add	lr, lr, r1
 935 01fc CDE90CEC 		strd	lr, ip, [sp, #48]
 936 0200 BDF84C10 		ldrh	r1, [sp, #76]
 937 0204 0691     		str	r1, [sp, #24]
 938 0206 CDE90E02 		strd	r0, r2, [sp, #56]
 939 020a 0026     		movs	r6, #0
 940 020c 4FEA4E01 		lsl	r1, lr, #1
 941 0210 BDF848B0 		ldrh	fp, [sp, #72]
 942 0214 0591     		str	r1, [sp, #20]
 943 0216 B046     		mov	r8, r6
 944 0218 3546     		mov	r5, r6
 945 021a 1093     		str	r3, [sp, #64]
 946              	.L117:
 947 021c DAF82C30 		ldr	r3, [r10, #44]
 948 0220 B5FBF4F1 		udiv	r1, r5, r4
 949 0224 DB5B     		ldrh	r3, [r3, r7]
 950 0226 039A     		ldr	r2, [sp, #12]
 951 0228 03F00F03 		and	r3, r3, #15
 952 022c 012B     		cmp	r3, #1
 953 022e 2CBF     		ite	cs
 954 0230 9844     		addcs	r8, r8, r3
 955 0232 08F10108 		addcc	r8, r8, #1
 956 0236 701E     		subs	r0, r6, #1
 957 0238 09FB08F5 		mul	r5, r9, r8
 958 023c B5FBF4F3 		udiv	r3, r5, r4
 959 0240 0344     		add	r3, r3, r0
 960 0242 0798     		ldr	r0, [sp, #28]
 961 0244 3144     		add	r1, r1, r6
 962 0246 0128     		cmp	r0, #1
 963 0248 89B2     		uxth	r1, r1
 964 024a 9BB2     		uxth	r3, r3
 965 024c 05D1     		bne	.L116
 966 024e 0898     		ldr	r0, [sp, #32]
 967 0250 C01A     		subs	r0, r0, r3
 968 0252 089B     		ldr	r3, [sp, #32]
 969 0254 5B1A     		subs	r3, r3, r1
 970 0256 9BB2     		uxth	r3, r3
 971 0258 81B2     		uxth	r1, r0
 972              	.L116:
 973 025a 0498     		ldr	r0, [sp, #16]
 974 025c 0090     		str	r0, [sp]
 975 025e DAF82800 		ldr	r0, [r10, #40]
 976 0262 5B44     		add	r3, r3, fp
 977 0264 5944     		add	r1, r1, fp
 978 0266 1BB2     		sxth	r3, r3
ARM GAS  /var/folders/lp/x54gwt890xv47sdkqj1k04q40000gn/T//cc0uNINC.s 			page 18


 979 0268 00EB8700 		add	r0, r0, r7, lsl #2
 980 026c 09B2     		sxth	r1, r1
 981 026e FFF7FEFF 		bl	lv_area_set
 982 0272 069B     		ldr	r3, [sp, #24]
 983 0274 1E44     		add	r6, r6, r3
 984 0276 059B     		ldr	r3, [sp, #20]
 985 0278 0237     		adds	r7, r7, #2
 986 027a 9F42     		cmp	r7, r3
 987 027c B6B2     		uxth	r6, r6
 988 027e CDD1     		bne	.L117
 989 0280 DDE90CEC 		ldrd	lr, ip, [sp, #48]
 990 0284 DDE90E02 		ldrd	r0, r2, [sp, #56]
 991 0288 109B     		ldr	r3, [sp, #64]
 992 028a BAF83260 		ldrh	r6, [r10, #50]
 993              	.L115:
 994 028e 0999     		ldr	r1, [sp, #36]
 995 0290 0A44     		add	r2, r2, r1
 996 0292 7CE7     		b	.L114
 998              		.section	.text.lv_btnmatrix_constructor,"ax",%progbits
 999              		.align	1
 1000              		.p2align 2,,3
 1001              		.syntax unified
 1002              		.thumb
 1003              		.thumb_func
 1005              	lv_btnmatrix_constructor:
 1006              		@ args = 0, pretend = 0, frame = 0
 1007              		@ frame_needed = 0, uses_anonymous_args = 0
 1008              		@ link register save eliminated.
 1009 0000 91F83620 		ldrb	r2, [r1, #54]	@ zero_extendqisi2
 1010 0004 0846     		mov	r0, r1
 1011 0006 0023     		movs	r3, #0
 1012 0008 4FF6FF7C 		movw	ip, #65535
 1013 000c 63F30002 		bfi	r2, r3, #0, #1
 1014 0010 C0E90A33 		strd	r3, r3, [r0, #40]
 1015 0014 0449     		ldr	r1, .L153
 1016 0016 0363     		str	r3, [r0, #48]
 1017 0018 A0F834C0 		strh	ip, [r0, #52]	@ movhi
 1018 001c 4362     		str	r3, [r0, #36]
 1019 001e 80F83620 		strb	r2, [r0, #54]
 1020 0022 FFF7FEBF 		b	lv_btnmatrix_set_map.part.0
 1021              	.L154:
 1022 0026 00BF     		.align	2
 1023              	.L153:
 1024 0028 00000000 		.word	lv_btnmatrix_def_map
 1026              		.section	.text.lv_btnmatrix_set_btn_ctrl.part.0,"ax",%progbits
 1027              		.align	1
 1028              		.p2align 2,,3
 1029              		.syntax unified
 1030              		.thumb
 1031              		.thumb_func
 1033              	lv_btnmatrix_set_btn_ctrl.part.0:
 1034              		@ args = 0, pretend = 0, frame = 0
 1035              		@ frame_needed = 0, uses_anonymous_args = 0
 1036 0000 90F83630 		ldrb	r3, [r0, #54]	@ zero_extendqisi2
 1037 0004 2DE9F041 		push	{r4, r5, r6, r7, r8, lr}
 1038 0008 0D46     		mov	r5, r1
 1039 000a D907     		lsls	r1, r3, #31
ARM GAS  /var/folders/lp/x54gwt890xv47sdkqj1k04q40000gn/T//cc0uNINC.s 			page 19


 1040 000c 0446     		mov	r4, r0
 1041 000e 1746     		mov	r7, r2
 1042 0010 02F01008 		and	r8, r2, #16
 1043 0014 01D5     		bpl	.L159
 1044 0016 FA05     		lsls	r2, r7, #23
 1045 0018 39D4     		bmi	.L177
 1046              	.L159:
 1047 001a B8F1000F 		cmp	r8, #0
 1048 001e 12D0     		beq	.L163
 1049              	.L157:
 1050 0020 208E     		ldrh	r0, [r4, #48]
 1051 0022 0128     		cmp	r0, #1
 1052 0024 2ED9     		bls	.L167
 1053 0026 0023     		movs	r3, #0
 1054 0028 0121     		movs	r1, #1
 1055              	.L166:
 1056 002a 9AB2     		uxth	r2, r3
 1057 002c 9542     		cmp	r5, r2
 1058 002e 06D0     		beq	.L165
 1059 0030 E26A     		ldr	r2, [r4, #44]
 1060 0032 32F81320 		ldrh	r2, [r2, r3, lsl #1]
 1061 0036 12F0100F 		tst	r2, #16
 1062 003a 08BF     		it	eq
 1063 003c 0021     		moveq	r1, #0
 1064              	.L165:
 1065 003e 0133     		adds	r3, r3, #1
 1066 0040 9842     		cmp	r0, r3
 1067 0042 F2D1     		bne	.L166
 1068 0044 F1B9     		cbnz	r1, .L167
 1069              	.L163:
 1070 0046 E26A     		ldr	r2, [r4, #44]
 1071 0048 32F81530 		ldrh	r3, [r2, r5, lsl #1]
 1072 004c 3B43     		orrs	r3, r3, r7
 1073 004e 22F81530 		strh	r3, [r2, r5, lsl #1]	@ movhi
 1074 0052 4FF6FF73 		movw	r3, #65535
 1075 0056 9D42     		cmp	r5, r3
 1076 0058 02D0     		beq	.L168
 1077 005a 238E     		ldrh	r3, [r4, #48]
 1078 005c AB42     		cmp	r3, r5
 1079 005e 03D8     		bhi	.L178
 1080              	.L168:
 1081 0060 7B05     		lsls	r3, r7, #21
 1082 0062 07D4     		bmi	.L179
 1083              	.L155:
 1084 0064 BDE8F081 		pop	{r4, r5, r6, r7, r8, pc}
 1085              	.L178:
 1086 0068 2946     		mov	r1, r5
 1087 006a 2046     		mov	r0, r4
 1088 006c FFF7FEFF 		bl	invalidate_button_area.part.0
 1089 0070 7B05     		lsls	r3, r7, #21
 1090 0072 F7D5     		bpl	.L155
 1091              	.L179:
 1092 0074 2046     		mov	r0, r4
 1093 0076 BDE8F041 		pop	{r4, r5, r6, r7, r8, lr}
 1094 007a FFF7FEBF 		b	lv_obj_refresh_ext_draw_size
 1095              	.L160:
 1096 007e B8F1000F 		cmp	r8, #0
ARM GAS  /var/folders/lp/x54gwt890xv47sdkqj1k04q40000gn/T//cc0uNINC.s 			page 20


 1097 0082 E0D0     		beq	.L163
 1098              	.L167:
 1099 0084 0121     		movs	r1, #1
 1100 0086 2046     		mov	r0, r4
 1101 0088 FFF7FEFF 		bl	lv_obj_add_flag
 1102 008c DBE7     		b	.L163
 1103              	.L177:
 1104 008e 038E     		ldrh	r3, [r0, #48]
 1105 0090 002B     		cmp	r3, #0
 1106 0092 F4D0     		beq	.L160
 1107 0094 0026     		movs	r6, #0
 1108 0096 3146     		mov	r1, r6
 1109              	.L162:
 1110 0098 E26A     		ldr	r2, [r4, #44]
 1111 009a 32F81630 		ldrh	r3, [r2, r6, lsl #1]
 1112 009e 23F48073 		bic	r3, r3, #256
 1113 00a2 22F81630 		strh	r3, [r2, r6, lsl #1]	@ movhi
 1114 00a6 238E     		ldrh	r3, [r4, #48]
 1115 00a8 9942     		cmp	r1, r3
 1116 00aa 2046     		mov	r0, r4
 1117 00ac 02D2     		bcs	.L161
 1118 00ae FFF7FEFF 		bl	invalidate_button_area.part.0
 1119 00b2 238E     		ldrh	r3, [r4, #48]
 1120              	.L161:
 1121 00b4 0136     		adds	r6, r6, #1
 1122 00b6 B1B2     		uxth	r1, r6
 1123 00b8 9942     		cmp	r1, r3
 1124 00ba EDD3     		bcc	.L162
 1125 00bc B8F1000F 		cmp	r8, #0
 1126 00c0 AED1     		bne	.L157
 1127 00c2 C0E7     		b	.L163
 1129              		.section	.text.make_one_button_checked,"ax",%progbits
 1130              		.align	1
 1131              		.p2align 2,,3
 1132              		.syntax unified
 1133              		.thumb
 1134              		.thumb_func
 1136              	make_one_button_checked:
 1137              		@ args = 0, pretend = 0, frame = 0
 1138              		@ frame_needed = 0, uses_anonymous_args = 0
 1139 0000 F8B5     		push	{r3, r4, r5, r6, r7, lr}
 1140 0002 038E     		ldrh	r3, [r0, #48]
 1141 0004 9942     		cmp	r1, r3
 1142 0006 0546     		mov	r5, r0
 1143 0008 0E46     		mov	r6, r1
 1144 000a 25D2     		bcs	.L193
 1145 000c C26A     		ldr	r2, [r0, #44]
 1146 000e 32F81170 		ldrh	r7, [r2, r1, lsl #1]
 1147 0012 C7F30027 		ubfx	r7, r7, #8, #1
 1148              	.L184:
 1149 0016 0024     		movs	r4, #0
 1150 0018 2146     		mov	r1, r4
 1151 001a 00E0     		b	.L187
 1152              	.L194:
 1153 001c EA6A     		ldr	r2, [r5, #44]
 1154              	.L187:
 1155 001e 32F81430 		ldrh	r3, [r2, r4, lsl #1]
ARM GAS  /var/folders/lp/x54gwt890xv47sdkqj1k04q40000gn/T//cc0uNINC.s 			page 21


 1156 0022 23F48073 		bic	r3, r3, #256
 1157 0026 22F81430 		strh	r3, [r2, r4, lsl #1]	@ movhi
 1158 002a 2B8E     		ldrh	r3, [r5, #48]
 1159 002c 9942     		cmp	r1, r3
 1160 002e 2846     		mov	r0, r5
 1161 0030 02D2     		bcs	.L185
 1162 0032 FFF7FEFF 		bl	invalidate_button_area.part.0
 1163 0036 2B8E     		ldrh	r3, [r5, #48]
 1164              	.L185:
 1165 0038 0134     		adds	r4, r4, #1
 1166 003a A1B2     		uxth	r1, r4
 1167 003c 9942     		cmp	r1, r3
 1168 003e EDD3     		bcc	.L194
 1169 0040 4FB1     		cbz	r7, .L180
 1170 0042 9E42     		cmp	r6, r3
 1171 0044 07D2     		bcs	.L180
 1172 0046 3146     		mov	r1, r6
 1173 0048 2846     		mov	r0, r5
 1174 004a 4FF48072 		mov	r2, #256
 1175 004e BDE8F840 		pop	{r3, r4, r5, r6, r7, lr}
 1176 0052 FFF7FEBF 		b	lv_btnmatrix_set_btn_ctrl.part.0
 1177              	.L180:
 1178 0056 F8BD     		pop	{r3, r4, r5, r6, r7, pc}
 1179              	.L193:
 1180 0058 002B     		cmp	r3, #0
 1181 005a FCD0     		beq	.L180
 1182 005c C26A     		ldr	r2, [r0, #44]
 1183 005e 0027     		movs	r7, #0
 1184 0060 D9E7     		b	.L184
 1186 0062 00BF     		.section	.text.lv_btnmatrix_event,"ax",%progbits
 1187              		.align	1
 1188              		.p2align 2,,3
 1189              		.syntax unified
 1190              		.thumb
 1191              		.thumb_func
 1193              	lv_btnmatrix_event:
 1194              		@ args = 0, pretend = 0, frame = 8
 1195              		@ frame_needed = 0, uses_anonymous_args = 0
 1196 0000 2DE9F047 		push	{r4, r5, r6, r7, r8, r9, r10, lr}
 1197 0004 BD48     		ldr	r0, .L354
 1198 0006 82B0     		sub	sp, sp, #8
 1199 0008 0E46     		mov	r6, r1
 1200 000a FFF7FEFF 		bl	lv_obj_event_base
 1201 000e 0128     		cmp	r0, #1
 1202 0010 02D0     		beq	.L344
 1203              	.L195:
 1204 0012 02B0     		add	sp, sp, #8
 1205              		@ sp needed
 1206 0014 BDE8F087 		pop	{r4, r5, r6, r7, r8, r9, r10, pc}
 1207              	.L344:
 1208 0018 3046     		mov	r0, r6
 1209 001a FFF7FEFF 		bl	lv_event_get_code
 1210 001e 0546     		mov	r5, r0
 1211 0020 3046     		mov	r0, r6
 1212 0022 FFF7FEFF 		bl	lv_event_get_target
 1213 0026 132D     		cmp	r5, #19
 1214 0028 0446     		mov	r4, r0
ARM GAS  /var/folders/lp/x54gwt890xv47sdkqj1k04q40000gn/T//cc0uNINC.s 			page 22


 1215 002a 6AD0     		beq	.L345
 1216 002c 013D     		subs	r5, r5, #1
 1217 002e 292D     		cmp	r5, #41
 1218 0030 EFD8     		bhi	.L195
 1219 0032 01A3     		adr	r3, .L205
 1220 0034 53F825F0 		ldr	pc, [r3, r5, lsl #2]
 1221              		.p2align 2
 1222              	.L205:
 1223 0038 0D020000 		.word	.L215+1
 1224 003c 67020000 		.word	.L214+1
 1225 0040 E1000000 		.word	.L208+1
 1226 0044 13000000 		.word	.L195+1
 1227 0048 13000000 		.word	.L195+1
 1228 004c 7B010000 		.word	.L212+1
 1229 0050 13000000 		.word	.L195+1
 1230 0054 01030000 		.word	.L211+1
 1231 0058 13000000 		.word	.L195+1
 1232 005c 13000000 		.word	.L195+1
 1233 0060 13000000 		.word	.L195+1
 1234 0064 13000000 		.word	.L195+1
 1235 0068 7D030000 		.word	.L210+1
 1236 006c A3010000 		.word	.L209+1
 1237 0070 E1000000 		.word	.L208+1
 1238 0074 E1000000 		.word	.L208+1
 1239 0078 13000000 		.word	.L195+1
 1240 007c 13000000 		.word	.L195+1
 1241 0080 13000000 		.word	.L195+1
 1242 0084 13000000 		.word	.L195+1
 1243 0088 6F010000 		.word	.L207+1
 1244 008c 13000000 		.word	.L195+1
 1245 0090 13000000 		.word	.L195+1
 1246 0094 13000000 		.word	.L195+1
 1247 0098 13000000 		.word	.L195+1
 1248 009c 13000000 		.word	.L195+1
 1249 00a0 13000000 		.word	.L195+1
 1250 00a4 13000000 		.word	.L195+1
 1251 00a8 13000000 		.word	.L195+1
 1252 00ac 13000000 		.word	.L195+1
 1253 00b0 13000000 		.word	.L195+1
 1254 00b4 13000000 		.word	.L195+1
 1255 00b8 13000000 		.word	.L195+1
 1256 00bc 13000000 		.word	.L195+1
 1257 00c0 13000000 		.word	.L195+1
 1258 00c4 13000000 		.word	.L195+1
 1259 00c8 13000000 		.word	.L195+1
 1260 00cc 13000000 		.word	.L195+1
 1261 00d0 13000000 		.word	.L195+1
 1262 00d4 13000000 		.word	.L195+1
 1263 00d8 F3000000 		.word	.L206+1
 1264 00dc F3000000 		.word	.L206+1
 1265              		.p2align 1
 1266              	.L208:
 1267 00e0 818E     		ldrh	r1, [r0, #52]
 1268 00e2 4FF6FF73 		movw	r3, #65535
 1269 00e6 9942     		cmp	r1, r3
 1270 00e8 3BD1     		bne	.L346
 1271              	.L338:
ARM GAS  /var/folders/lp/x54gwt890xv47sdkqj1k04q40000gn/T//cc0uNINC.s 			page 23


 1272 00ea 4FF6FF73 		movw	r3, #65535
 1273              	.L339:
 1274 00ee A386     		strh	r3, [r4, #52]	@ movhi
 1275 00f0 8FE7     		b	.L195
 1276              	.L206:
 1277 00f2 416A     		ldr	r1, [r0, #36]
 1278 00f4 0029     		cmp	r1, #0
 1279 00f6 8CD0     		beq	.L195
 1280 00f8 02B0     		add	sp, sp, #8
 1281              		@ sp needed
 1282 00fa BDE8F047 		pop	{r4, r5, r6, r7, r8, r9, r10, lr}
 1283 00fe FFF7FEBF 		b	lv_btnmatrix_set_map.part.0
 1284              	.L345:
 1285 0102 438E     		ldrh	r3, [r0, #50]
 1286 0104 002B     		cmp	r3, #0
 1287 0106 84D0     		beq	.L195
 1288 0108 456A     		ldr	r5, [r0, #36]
 1289 010a 2A68     		ldr	r2, [r5]
 1290 010c 002A     		cmp	r2, #0
 1291 010e 80D0     		beq	.L195
 1292 0110 0023     		movs	r3, #0
 1293 0112 1846     		mov	r0, r3
 1294 0114 04E0     		b	.L199
 1295              	.L347:
 1296 0116 55F82320 		ldr	r2, [r5, r3, lsl #2]
 1297 011a 002A     		cmp	r2, #0
 1298 011c 3FF479AF 		beq	.L195
 1299              	.L199:
 1300 0120 1178     		ldrb	r1, [r2]	@ zero_extendqisi2
 1301 0122 0133     		adds	r3, r3, #1
 1302 0124 0A29     		cmp	r1, #10
 1303 0126 9BB2     		uxth	r3, r3
 1304 0128 03D1     		bne	.L282
 1305 012a 5178     		ldrb	r1, [r2, #1]	@ zero_extendqisi2
 1306 012c 0029     		cmp	r1, #0
 1307 012e 3FF470AF 		beq	.L195
 1308              	.L282:
 1309 0132 1278     		ldrb	r2, [r2]	@ zero_extendqisi2
 1310 0134 002A     		cmp	r2, #0
 1311 0136 3FF46CAF 		beq	.L195
 1312 013a E26A     		ldr	r2, [r4, #44]
 1313 013c 32F81020 		ldrh	r2, [r2, r0, lsl #1]
 1314 0140 5105     		lsls	r1, r2, #21
 1315 0142 1846     		mov	r0, r3
 1316 0144 E7D5     		bpl	.L347
 1317 0146 2046     		mov	r0, r4
 1318 0148 FFF7FEFF 		bl	lv_obj_get_content_height
 1319 014c 638E     		ldrh	r3, [r4, #50]
 1320 014e 0146     		mov	r1, r0
 1321 0150 3046     		mov	r0, r6
 1322 0152 91FBF3F1 		sdiv	r1, r1, r3
 1323 0156 09B2     		sxth	r1, r1
 1324 0158 02B0     		add	sp, sp, #8
 1325              		@ sp needed
 1326 015a BDE8F047 		pop	{r4, r5, r6, r7, r8, r9, r10, lr}
 1327 015e FFF7FEBF 		b	lv_event_set_ext_draw_size
 1328              	.L346:
ARM GAS  /var/folders/lp/x54gwt890xv47sdkqj1k04q40000gn/T//cc0uNINC.s 			page 24


 1329 0162 038E     		ldrh	r3, [r0, #48]
 1330 0164 8B42     		cmp	r3, r1
 1331 0166 C0D9     		bls	.L338
 1332 0168 FFF7FEFF 		bl	invalidate_button_area.part.0
 1333 016c BDE7     		b	.L338
 1334              	.L207:
 1335 016e 3046     		mov	r0, r6
 1336 0170 02B0     		add	sp, sp, #8
 1337              		@ sp needed
 1338 0172 BDE8F047 		pop	{r4, r5, r6, r7, r8, r9, r10, lr}
 1339 0176 FFF7FEBF 		b	draw_main
 1340              	.L212:
 1341 017a 838E     		ldrh	r3, [r0, #52]
 1342 017c 4FF6FF72 		movw	r2, #65535
 1343 0180 9342     		cmp	r3, r2
 1344 0182 3FF446AF 		beq	.L195
 1345 0186 C26A     		ldr	r2, [r0, #44]
 1346 0188 32F81320 		ldrh	r2, [r2, r3, lsl #1]
 1347 018c 02F07002 		and	r2, r2, #112
 1348 0190 002A     		cmp	r2, #0
 1349 0192 7FF43EAF 		bne	.L195
 1350 0196 01AA     		add	r2, sp, #4
 1351 0198 1C21     		movs	r1, #28
 1352 019a 0193     		str	r3, [sp, #4]
 1353 019c FFF7FEFF 		bl	lv_event_send
 1354 01a0 37E7     		b	.L195
 1355              	.L209:
 1356 01a2 038E     		ldrh	r3, [r0, #48]
 1357 01a4 002B     		cmp	r3, #0
 1358 01a6 3FF434AF 		beq	.L195
 1359 01aa 3046     		mov	r0, r6
 1360 01ac FFF7FEFF 		bl	lv_event_get_param
 1361 01b0 0546     		mov	r5, r0
 1362 01b2 FFF7FEFF 		bl	lv_indev_get_type
 1363 01b6 0646     		mov	r6, r0
 1364 01b8 002D     		cmp	r5, #0
 1365 01ba 00F0FC81 		beq	.L348
 1366              	.L233:
 1367 01be 2046     		mov	r0, r4
 1368 01c0 FFF7FEFF 		bl	lv_obj_get_group
 1369 01c4 FFF7FEFF 		bl	lv_group_get_editing
 1370 01c8 A28E     		ldrh	r2, [r4, #52]
 1371 01ca 4FF6FF73 		movw	r3, #65535
 1372 01ce 9A42     		cmp	r2, r3
 1373 01d0 7FF41FAF 		bne	.L195
 1374 01d4 022E     		cmp	r6, #2
 1375 01d6 05D0     		beq	.L234
 1376 01d8 042E     		cmp	r6, #4
 1377 01da 7FF41AAF 		bne	.L195
 1378 01de 0028     		cmp	r0, #0
 1379 01e0 3FF417AF 		beq	.L195
 1380              	.L234:
 1381 01e4 94F83630 		ldrb	r3, [r4, #54]	@ zero_extendqisi2
 1382 01e8 E26A     		ldr	r2, [r4, #44]
 1383 01ea 13F00103 		ands	r3, r3, #1
 1384 01ee 1188     		ldrh	r1, [r2]
 1385 01f0 00F01782 		beq	.L235
ARM GAS  /var/folders/lp/x54gwt890xv47sdkqj1k04q40000gn/T//cc0uNINC.s 			page 25


 1386 01f4 023A     		subs	r2, r2, #2
 1387 01f6 0023     		movs	r3, #0
 1388 01f8 00E0     		b	.L236
 1389              	.L239:
 1390 01fa 0133     		adds	r3, r3, #1
 1391              	.L236:
 1392 01fc 32F8021F 		ldrh	r1, [r2, #2]!
 1393 0200 11F0500F 		tst	r1, #80
 1394 0204 F9D1     		bne	.L239
 1395 0206 CD05     		lsls	r5, r1, #23
 1396 0208 F7D5     		bpl	.L239
 1397 020a 70E7     		b	.L339
 1398              	.L215:
 1399 020c 3046     		mov	r0, r6
 1400 020e FFF7FEFF 		bl	lv_event_get_param
 1401 0212 A18E     		ldrh	r1, [r4, #52]
 1402 0214 4FF6FF73 		movw	r3, #65535
 1403 0218 9942     		cmp	r1, r3
 1404 021a 0546     		mov	r5, r0
 1405 021c 05D0     		beq	.L216
 1406 021e 238E     		ldrh	r3, [r4, #48]
 1407 0220 8B42     		cmp	r3, r1
 1408 0222 02D9     		bls	.L216
 1409 0224 2046     		mov	r0, r4
 1410 0226 FFF7FEFF 		bl	invalidate_button_area.part.0
 1411              	.L216:
 1412 022a FFF7FEFF 		bl	lv_indev_get_act
 1413 022e FFF7FEFF 		bl	lv_indev_get_type
 1414 0232 00F0FD03 		and	r3, r0, #253
 1415 0236 012B     		cmp	r3, #1
 1416 0238 00F08E81 		beq	.L349
 1417              	.L217:
 1418 023c A58E     		ldrh	r5, [r4, #52]
 1419 023e 4FF6FF73 		movw	r3, #65535
 1420 0242 9D42     		cmp	r5, r3
 1421 0244 3FF4E5AE 		beq	.L195
 1422 0248 E36A     		ldr	r3, [r4, #44]
 1423              	.L218:
 1424 024a 33F81530 		ldrh	r3, [r3, r5, lsl #1]
 1425 024e 03F4CA63 		and	r3, r3, #1616
 1426 0252 002B     		cmp	r3, #0
 1427 0254 7FF4DDAE 		bne	.L195
 1428              	.L337:
 1429 0258 01AA     		add	r2, sp, #4
 1430 025a 1C21     		movs	r1, #28
 1431 025c 2046     		mov	r0, r4
 1432 025e 0195     		str	r5, [sp, #4]
 1433 0260 FFF7FEFF 		bl	lv_event_send
 1434 0264 D5E6     		b	.L195
 1435              	.L214:
 1436 0266 3046     		mov	r0, r6
 1437 0268 FFF7FEFF 		bl	lv_event_get_param
 1438 026c 0646     		mov	r6, r0
 1439 026e FFF7FEFF 		bl	lv_indev_get_act
 1440 0272 0546     		mov	r5, r0
 1441 0274 FFF7FEFF 		bl	lv_indev_get_type
 1442 0278 0428     		cmp	r0, #4
ARM GAS  /var/folders/lp/x54gwt890xv47sdkqj1k04q40000gn/T//cc0uNINC.s 			page 26


 1443 027a 3FF4CAAE 		beq	.L195
 1444 027e 0228     		cmp	r0, #2
 1445 0280 3FF4C7AE 		beq	.L195
 1446 0284 2846     		mov	r0, r5
 1447 0286 6946     		mov	r1, sp
 1448 0288 FFF7FEFF 		bl	lv_indev_get_point
 1449 028c 6946     		mov	r1, sp
 1450 028e 2046     		mov	r0, r4
 1451 0290 FFF7FEFF 		bl	get_button_from_point
 1452 0294 A18E     		ldrh	r1, [r4, #52]
 1453 0296 8142     		cmp	r1, r0
 1454 0298 0546     		mov	r5, r0
 1455 029a 3FF4BAAE 		beq	.L195
 1456 029e 4FF6FF73 		movw	r3, #65535
 1457 02a2 9942     		cmp	r1, r3
 1458 02a4 05D0     		beq	.L221
 1459 02a6 238E     		ldrh	r3, [r4, #48]
 1460 02a8 8B42     		cmp	r3, r1
 1461 02aa 02D9     		bls	.L221
 1462 02ac 2046     		mov	r0, r4
 1463 02ae FFF7FEFF 		bl	invalidate_button_area.part.0
 1464              	.L221:
 1465 02b2 A586     		strh	r5, [r4, #52]	@ movhi
 1466 02b4 3046     		mov	r0, r6
 1467 02b6 FFF7FEFF 		bl	lv_indev_reset_long_press
 1468 02ba 4FF6FF73 		movw	r3, #65535
 1469 02be 9D42     		cmp	r5, r3
 1470 02c0 3FF4A7AE 		beq	.L195
 1471 02c4 E36A     		ldr	r3, [r4, #44]
 1472 02c6 33F81520 		ldrh	r2, [r3, r5, lsl #1]
 1473 02ca 02F05002 		and	r2, r2, #80
 1474 02ce 002A     		cmp	r2, #0
 1475 02d0 7FF49FAE 		bne	.L195
 1476 02d4 228E     		ldrh	r2, [r4, #48]
 1477 02d6 AA42     		cmp	r2, r5
 1478 02d8 04D9     		bls	.L222
 1479 02da 2946     		mov	r1, r5
 1480 02dc 2046     		mov	r0, r4
 1481 02de FFF7FEFF 		bl	invalidate_button_area.part.0
 1482 02e2 E36A     		ldr	r3, [r4, #44]
 1483              	.L222:
 1484 02e4 33F81520 		ldrh	r2, [r3, r5, lsl #1]
 1485 02e8 9205     		lsls	r2, r2, #22
 1486 02ea 3FF592AE 		bmi	.L195
 1487 02ee A28E     		ldrh	r2, [r4, #52]
 1488 02f0 33F81230 		ldrh	r3, [r3, r2, lsl #1]
 1489 02f4 5B05     		lsls	r3, r3, #21
 1490 02f6 3FF58CAE 		bmi	.L195
 1491 02fa ADE7     		b	.L337
 1492              	.L355:
 1493              		.align	2
 1494              	.L354:
 1495 02fc 00000000 		.word	lv_btnmatrix_class
 1496              	.L211:
 1497 0300 838E     		ldrh	r3, [r0, #52]
 1498 0302 4FF6FF72 		movw	r2, #65535
 1499 0306 9342     		cmp	r3, r2
ARM GAS  /var/folders/lp/x54gwt890xv47sdkqj1k04q40000gn/T//cc0uNINC.s 			page 27


 1500 0308 1946     		mov	r1, r3
 1501 030a 3FF482AE 		beq	.L195
 1502 030e C06A     		ldr	r0, [r0, #44]
 1503 0310 30F81320 		ldrh	r2, [r0, r3, lsl #1]
 1504 0314 1706     		lsls	r7, r2, #24
 1505 0316 00EB4305 		add	r5, r0, r3, lsl #1
 1506 031a 40F10F81 		bpl	.L224
 1507 031e 5606     		lsls	r6, r2, #25
 1508 0320 00F10C81 		bmi	.L224
 1509 0324 D305     		lsls	r3, r2, #23
 1510 0326 40F13881 		bpl	.L225
 1511 032a 94F83630 		ldrb	r3, [r4, #54]	@ zero_extendqisi2
 1512 032e DF07     		lsls	r7, r3, #31
 1513 0330 00F13381 		bmi	.L225
 1514 0334 22F48072 		bic	r2, r2, #256
 1515 0338 92B2     		uxth	r2, r2
 1516              	.L226:
 1517 033a 2A80     		strh	r2, [r5]	@ movhi
 1518 033c 94F83630 		ldrb	r3, [r4, #54]	@ zero_extendqisi2
 1519 0340 DE07     		lsls	r6, r3, #31
 1520 0342 00F16881 		bmi	.L350
 1521              	.L227:
 1522 0346 A38E     		ldrh	r3, [r4, #52]
 1523 0348 30F81320 		ldrh	r2, [r0, r3, lsl #1]
 1524 034c 12F4C06F 		tst	r2, #1536
 1525 0350 1946     		mov	r1, r3
 1526 0352 04D0     		beq	.L228
 1527              	.L276:
 1528 0354 12F0500F 		tst	r2, #80
 1529 0358 00F02281 		beq	.L229
 1530 035c 1946     		mov	r1, r3
 1531              	.L228:
 1532 035e 4FF6FF73 		movw	r3, #65535
 1533 0362 9942     		cmp	r1, r3
 1534 0364 3FF455AE 		beq	.L195
 1535              	.L277:
 1536 0368 238E     		ldrh	r3, [r4, #48]
 1537 036a 8B42     		cmp	r3, r1
 1538 036c 7FF651AE 		bls	.L195
 1539              	.L268:
 1540 0370 2046     		mov	r0, r4
 1541 0372 02B0     		add	sp, sp, #8
 1542              		@ sp needed
 1543 0374 BDE8F047 		pop	{r4, r5, r6, r7, r8, r9, r10, lr}
 1544 0378 FFF7FEBF 		b	invalidate_button_area.part.0
 1545              	.L210:
 1546 037c 818E     		ldrh	r1, [r0, #52]
 1547 037e 4FF6FF73 		movw	r3, #65535
 1548 0382 9942     		cmp	r1, r3
 1549 0384 04D0     		beq	.L242
 1550 0386 038E     		ldrh	r3, [r0, #48]
 1551 0388 8B42     		cmp	r3, r1
 1552 038a 01D9     		bls	.L242
 1553 038c FFF7FEFF 		bl	invalidate_button_area.part.0
 1554              	.L242:
 1555 0390 3046     		mov	r0, r6
 1556 0392 FFF7FEFF 		bl	lv_event_get_param
ARM GAS  /var/folders/lp/x54gwt890xv47sdkqj1k04q40000gn/T//cc0uNINC.s 			page 28


 1557 0396 0378     		ldrb	r3, [r0]	@ zero_extendqisi2
 1558 0398 113B     		subs	r3, r3, #17
 1559 039a 032B     		cmp	r3, #3
 1560 039c 00F2D380 		bhi	.L243
 1561 03a0 DFE803F0 		tbb	[pc, r3]
 1562              	.L245:
 1563 03a4 8C       		.byte	(.L248-.L245)/2
 1564 03a5 44       		.byte	(.L247-.L245)/2
 1565 03a6 23       		.byte	(.L246-.L245)/2
 1566 03a7 02       		.byte	(.L244-.L245)/2
 1567              		.p2align 1
 1568              	.L244:
 1569 03a8 A28E     		ldrh	r2, [r4, #52]
 1570 03aa 013A     		subs	r2, r2, #1
 1571 03ac 4FF6FD73 		movw	r3, #65533
 1572 03b0 92B2     		uxth	r2, r2
 1573 03b2 9A42     		cmp	r2, r3
 1574 03b4 02D9     		bls	.L255
 1575 03b6 228E     		ldrh	r2, [r4, #48]
 1576 03b8 013A     		subs	r2, r2, #1
 1577 03ba 92B2     		uxth	r2, r2
 1578              	.L255:
 1579 03bc E56A     		ldr	r5, [r4, #44]
 1580 03be A286     		strh	r2, [r4, #52]	@ movhi
 1581 03c0 1146     		mov	r1, r2
 1582 03c2 04E0     		b	.L256
 1583              	.L351:
 1584 03c4 81B2     		uxth	r1, r0
 1585              	.L258:
 1586 03c6 9142     		cmp	r1, r2
 1587 03c8 A186     		strh	r1, [r4, #52]	@ movhi
 1588 03ca 3FF48EAE 		beq	.L338
 1589              	.L256:
 1590 03ce 35F81130 		ldrh	r3, [r5, r1, lsl #1]
 1591 03d2 03F05003 		and	r3, r3, #80
 1592 03d6 481E     		subs	r0, r1, #1
 1593 03d8 002B     		cmp	r3, #0
 1594 03da 00F0B580 		beq	.L260
 1595 03de 0029     		cmp	r1, #0
 1596 03e0 F0D1     		bne	.L351
 1597 03e2 218E     		ldrh	r1, [r4, #48]
 1598 03e4 0139     		subs	r1, r1, #1
 1599 03e6 89B2     		uxth	r1, r1
 1600 03e8 EDE7     		b	.L258
 1601              	.L246:
 1602 03ea A38E     		ldrh	r3, [r4, #52]
 1603 03ec E66A     		ldr	r6, [r4, #44]
 1604 03ee 4FF6FF72 		movw	r2, #65535
 1605 03f2 9342     		cmp	r3, r2
 1606 03f4 18BF     		it	ne
 1607 03f6 0133     		addne	r3, r3, #1
 1608 03f8 228E     		ldrh	r2, [r4, #48]
 1609 03fa 14BF     		ite	ne
 1610 03fc 9DB2     		uxthne	r5, r3
 1611 03fe 0025     		moveq	r5, #0
 1612 0400 AA42     		cmp	r2, r5
 1613 0402 A586     		strh	r5, [r4, #52]	@ movhi
ARM GAS  /var/folders/lp/x54gwt890xv47sdkqj1k04q40000gn/T//cc0uNINC.s 			page 29


 1614 0404 9CBF     		itt	ls
 1615 0406 0025     		movls	r5, #0
 1616 0408 A586     		strhls	r5, [r4, #52]	@ movhi
 1617 040a 2946     		mov	r1, r5
 1618              	.L251:
 1619 040c 36F81130 		ldrh	r3, [r6, r1, lsl #1]
 1620 0410 03F05003 		and	r3, r3, #80
 1621 0414 481C     		adds	r0, r1, #1
 1622 0416 002B     		cmp	r3, #0
 1623 0418 00F09C80 		beq	.L279
 1624 041c 81B2     		uxth	r1, r0
 1625 041e 8A42     		cmp	r2, r1
 1626 0420 98BF     		it	ls
 1627 0422 0021     		movls	r1, #0
 1628 0424 A942     		cmp	r1, r5
 1629 0426 A186     		strh	r1, [r4, #52]	@ movhi
 1630 0428 F0D1     		bne	.L251
 1631 042a 5EE6     		b	.L338
 1632              	.L247:
 1633 042c 0021     		movs	r1, #0
 1634 042e 1522     		movs	r2, #21
 1635 0430 2046     		mov	r0, r4
 1636 0432 FFF7FEFF 		bl	lv_obj_get_style_prop
 1637 0436 A18E     		ldrh	r1, [r4, #52]
 1638 0438 4FF6FF73 		movw	r3, #65535
 1639 043c 9942     		cmp	r1, r3
 1640 043e 00F0D480 		beq	.L352
 1641 0442 D4F82880 		ldr	r8, [r4, #40]
 1642 0446 258E     		ldrh	r5, [r4, #48]
 1643 0448 38F83120 		ldrh	r2, [r8, r1, lsl #3]
 1644 044c 08EBC106 		add	r6, r8, r1, lsl #3
 1645 0450 A942     		cmp	r1, r5
 1646 0452 B388     		ldrh	r3, [r6, #4]
 1647 0454 03F10103 		add	r3, r3, #1
 1648 0458 A3EB0203 		sub	r3, r3, r2
 1649 045c 43F34E03 		sbfx	r3, r3, #1, #15
 1650 0460 1A44     		add	r2, r2, r3
 1651 0462 0FFA82FE 		sxth	lr, r2
 1652 0466 BFF4D4AD 		bcs	.L195
 1653 046a B6F902C0 		ldrsh	ip, [r6, #2]
 1654 046e 0FFA80F9 		sxth	r9, r0
 1655 0472 4B00     		lsls	r3, r1, #1
 1656 0474 0A46     		mov	r2, r1
 1657 0476 08F10206 		add	r6, r8, #2
 1658 047a 08F1040A 		add	r10, r8, #4
 1659              	.L266:
 1660 047e 36F92300 		ldrsh	r0, [r6, r3, lsl #2]
 1661 0482 6045     		cmp	r0, ip
 1662 0484 02F10100 		add	r0, r2, #1
 1663 0488 0FDD     		ble	.L264
 1664 048a 38F92370 		ldrsh	r7, [r8, r3, lsl #2]
 1665 048e 7745     		cmp	r7, lr
 1666 0490 0BDC     		bgt	.L264
 1667 0492 3AF92370 		ldrsh	r7, [r10, r3, lsl #2]
 1668 0496 4F44     		add	r7, r7, r9
 1669 0498 BE45     		cmp	lr, r7
 1670 049a 06DC     		bgt	.L264
ARM GAS  /var/folders/lp/x54gwt890xv47sdkqj1k04q40000gn/T//cc0uNINC.s 			page 30


 1671 049c E76A     		ldr	r7, [r4, #44]
 1672 049e FF5A     		ldrh	r7, [r7, r3]
 1673 04a0 07F05007 		and	r7, r7, #80
 1674 04a4 002F     		cmp	r7, #0
 1675 04a6 00F0B080 		beq	.L265
 1676              	.L264:
 1677 04aa 82B2     		uxth	r2, r0
 1678 04ac AA42     		cmp	r2, r5
 1679 04ae 03F10203 		add	r3, r3, #2
 1680 04b2 E4D3     		bcc	.L266
 1681              	.L278:
 1682 04b4 A942     		cmp	r1, r5
 1683 04b6 BFF4ACAD 		bcs	.L195
 1684 04ba 59E7     		b	.L268
 1685              	.L248:
 1686 04bc 0021     		movs	r1, #0
 1687 04be 1522     		movs	r2, #21
 1688 04c0 2046     		mov	r0, r4
 1689 04c2 FFF7FEFF 		bl	lv_obj_get_style_prop
 1690 04c6 A18E     		ldrh	r1, [r4, #52]
 1691 04c8 4FF6FF73 		movw	r3, #65535
 1692 04cc 9942     		cmp	r1, r3
 1693 04ce 7CD0     		beq	.L353
 1694 04d0 D4F82890 		ldr	r9, [r4, #40]
 1695 04d4 258E     		ldrh	r5, [r4, #48]
 1696 04d6 39F83120 		ldrh	r2, [r9, r1, lsl #3]
 1697 04da 09EBC106 		add	r6, r9, r1, lsl #3
 1698 04de B388     		ldrh	r3, [r6, #4]
 1699 04e0 0133     		adds	r3, r3, #1
 1700 04e2 9B1A     		subs	r3, r3, r2
 1701 04e4 43F34E03 		sbfx	r3, r3, #1, #15
 1702 04e8 1A44     		add	r2, r2, r3
 1703 04ea 17B2     		sxth	r7, r2
 1704 04ec 0AB2     		sxth	r2, r1
 1705 04ee 002A     		cmp	r2, #0
 1706 04f0 E0DB     		blt	.L278
 1707 04f2 B6F902E0 		ldrsh	lr, [r6, #2]
 1708 04f6 0FFA80F8 		sxth	r8, r0
 1709 04fa 4B00     		lsls	r3, r1, #1
 1710 04fc 09F1020C 		add	ip, r9, #2
 1711 0500 09F1040A 		add	r10, r9, #4
 1712              	.L274:
 1713 0504 3CF92300 		ldrsh	r0, [ip, r3, lsl #2]
 1714 0508 7045     		cmp	r0, lr
 1715 050a 02F1FF30 		add	r0, r2, #-1
 1716 050e 0FDA     		bge	.L272
 1717 0510 39F92360 		ldrsh	r6, [r9, r3, lsl #2]
 1718 0514 A6EB0806 		sub	r6, r6, r8
 1719 0518 B742     		cmp	r7, r6
 1720 051a 09DB     		blt	.L272
 1721 051c 3AF92360 		ldrsh	r6, [r10, r3, lsl #2]
 1722 0520 BE42     		cmp	r6, r7
 1723 0522 05DB     		blt	.L272
 1724 0524 E66A     		ldr	r6, [r4, #44]
 1725 0526 F65A     		ldrh	r6, [r6, r3]
 1726 0528 06F05006 		and	r6, r6, #80
 1727 052c 002E     		cmp	r6, #0
ARM GAS  /var/folders/lp/x54gwt890xv47sdkqj1k04q40000gn/T//cc0uNINC.s 			page 31


 1728 052e 49D0     		beq	.L273
 1729              	.L272:
 1730 0530 02B2     		sxth	r2, r0
 1731 0532 501C     		adds	r0, r2, #1
 1732 0534 A3F10203 		sub	r3, r3, #2
 1733 0538 E4D1     		bne	.L274
 1734 053a BBE7     		b	.L278
 1735              	.L224:
 1736 053c 12F4C06F 		tst	r2, #1536
 1737 0540 7FF408AF 		bne	.L276
 1738 0544 10E7     		b	.L277
 1739              	.L243:
 1740 0546 A18E     		ldrh	r1, [r4, #52]
 1741              	.L260:
 1742 0548 4FF6FF73 		movw	r3, #65535
 1743 054c 9942     		cmp	r1, r3
 1744 054e 3FF460AD 		beq	.L195
 1745 0552 228E     		ldrh	r2, [r4, #48]
 1746              	.L279:
 1747 0554 1546     		mov	r5, r2
 1748 0556 ADE7     		b	.L278
 1749              	.L349:
 1750 0558 2846     		mov	r0, r5
 1751 055a 6946     		mov	r1, sp
 1752 055c FFF7FEFF 		bl	lv_indev_get_point
 1753 0560 6946     		mov	r1, sp
 1754 0562 2046     		mov	r0, r4
 1755 0564 FFF7FEFF 		bl	get_button_from_point
 1756 0568 4FF6FF73 		movw	r3, #65535
 1757 056c 9842     		cmp	r0, r3
 1758 056e A386     		strh	r3, [r4, #52]	@ movhi
 1759 0570 0546     		mov	r5, r0
 1760 0572 3FF44EAD 		beq	.L195
 1761 0576 E36A     		ldr	r3, [r4, #44]
 1762 0578 33F81020 		ldrh	r2, [r3, r0, lsl #1]
 1763 057c 02F05002 		and	r2, r2, #80
 1764 0580 002A     		cmp	r2, #0
 1765 0582 7FF446AD 		bne	.L195
 1766 0586 228E     		ldrh	r2, [r4, #48]
 1767 0588 A086     		strh	r0, [r4, #52]	@ movhi
 1768 058a 8242     		cmp	r2, r0
 1769 058c 7FF65DAE 		bls	.L218
 1770 0590 0146     		mov	r1, r0
 1771 0592 2046     		mov	r0, r4
 1772 0594 FFF7FEFF 		bl	invalidate_button_area.part.0
 1773 0598 50E6     		b	.L217
 1774              	.L225:
 1775 059a 42F48072 		orr	r2, r2, #256
 1776 059e CCE6     		b	.L226
 1777              	.L229:
 1778 05a0 01AA     		add	r2, sp, #4
 1779 05a2 1C21     		movs	r1, #28
 1780 05a4 2046     		mov	r0, r4
 1781 05a6 0193     		str	r3, [sp, #4]
 1782 05a8 FFF7FEFF 		bl	lv_event_send
 1783 05ac 0128     		cmp	r0, #1
 1784 05ae 7FF430AD 		bne	.L195
ARM GAS  /var/folders/lp/x54gwt890xv47sdkqj1k04q40000gn/T//cc0uNINC.s 			page 32


 1785 05b2 A18E     		ldrh	r1, [r4, #52]
 1786 05b4 D3E6     		b	.L228
 1787              	.L348:
 1788 05b6 2846     		mov	r0, r5
 1789 05b8 FFF7FEFF 		bl	lv_indev_get_next
 1790 05bc FFF7FEFF 		bl	lv_indev_get_type
 1791 05c0 0646     		mov	r6, r0
 1792 05c2 FCE5     		b	.L233
 1793              	.L273:
 1794 05c4 91B2     		uxth	r1, r2
 1795 05c6 A186     		strh	r1, [r4, #52]	@ movhi
 1796 05c8 74E7     		b	.L278
 1797              	.L353:
 1798 05ca 0021     		movs	r1, #0
 1799 05cc E56A     		ldr	r5, [r4, #44]
 1800 05ce 228E     		ldrh	r2, [r4, #48]
 1801 05d0 A186     		strh	r1, [r4, #52]	@ movhi
 1802              	.L270:
 1803 05d2 35F81130 		ldrh	r3, [r5, r1, lsl #1]
 1804 05d6 03F05003 		and	r3, r3, #80
 1805 05da 481C     		adds	r0, r1, #1
 1806 05dc 002B     		cmp	r3, #0
 1807 05de B9D0     		beq	.L279
 1808 05e0 81B2     		uxth	r1, r0
 1809 05e2 8A42     		cmp	r2, r1
 1810 05e4 A186     		strh	r1, [r4, #52]	@ movhi
 1811 05e6 F4D8     		bhi	.L270
 1812 05e8 7FE5     		b	.L338
 1813              	.L352:
 1814 05ea 0021     		movs	r1, #0
 1815 05ec E56A     		ldr	r5, [r4, #44]
 1816 05ee 228E     		ldrh	r2, [r4, #48]
 1817 05f0 A186     		strh	r1, [r4, #52]	@ movhi
 1818              	.L262:
 1819 05f2 35F81130 		ldrh	r3, [r5, r1, lsl #1]
 1820 05f6 03F05003 		and	r3, r3, #80
 1821 05fa 481C     		adds	r0, r1, #1
 1822 05fc 002B     		cmp	r3, #0
 1823 05fe A9D0     		beq	.L279
 1824 0600 81B2     		uxth	r1, r0
 1825 0602 8A42     		cmp	r2, r1
 1826 0604 A186     		strh	r1, [r4, #52]	@ movhi
 1827 0606 F4D8     		bhi	.L262
 1828 0608 6FE5     		b	.L338
 1829              	.L265:
 1830 060a 9542     		cmp	r5, r2
 1831 060c 7FF652AF 		bls	.L278
 1832 0610 A286     		strh	r2, [r4, #52]	@ movhi
 1833 0612 1146     		mov	r1, r2
 1834 0614 ACE6     		b	.L268
 1835              	.L350:
 1836 0616 2046     		mov	r0, r4
 1837 0618 A18E     		ldrh	r1, [r4, #52]
 1838 061a FFF7FEFF 		bl	make_one_button_checked
 1839 061e E06A     		ldr	r0, [r4, #44]
 1840 0620 91E6     		b	.L227
 1841              	.L235:
ARM GAS  /var/folders/lp/x54gwt890xv47sdkqj1k04q40000gn/T//cc0uNINC.s 			page 33


 1842 0622 11F05001 		ands	r1, r1, #80
 1843 0626 08BF     		it	eq
 1844 0628 0B46     		moveq	r3, r1
 1845 062a 3FF460AD 		beq	.L339
 1846              	.L240:
 1847 062e 32F8021F 		ldrh	r1, [r2, #2]!
 1848 0632 01F05001 		and	r1, r1, #80
 1849 0636 0133     		adds	r3, r3, #1
 1850 0638 0029     		cmp	r1, #0
 1851 063a F8D1     		bne	.L240
 1852 063c 57E5     		b	.L339
 1854 063e 00BF     		.section	.text.lv_btnmatrix_create,"ax",%progbits
 1855              		.align	1
 1856              		.p2align 2,,3
 1857              		.global	lv_btnmatrix_create
 1858              		.syntax unified
 1859              		.thumb
 1860              		.thumb_func
 1862              	lv_btnmatrix_create:
 1863              		@ args = 0, pretend = 0, frame = 0
 1864              		@ frame_needed = 0, uses_anonymous_args = 0
 1865 0000 10B5     		push	{r4, lr}
 1866 0002 0146     		mov	r1, r0
 1867 0004 0348     		ldr	r0, .L358
 1868 0006 FFF7FEFF 		bl	lv_obj_class_create_obj
 1869 000a 0446     		mov	r4, r0
 1870 000c FFF7FEFF 		bl	lv_obj_class_init_obj
 1871 0010 2046     		mov	r0, r4
 1872 0012 10BD     		pop	{r4, pc}
 1873              	.L359:
 1874              		.align	2
 1875              	.L358:
 1876 0014 00000000 		.word	lv_btnmatrix_class
 1878              		.section	.text.lv_btnmatrix_set_map,"ax",%progbits
 1879              		.align	1
 1880              		.p2align 2,,3
 1881              		.global	lv_btnmatrix_set_map
 1882              		.syntax unified
 1883              		.thumb
 1884              		.thumb_func
 1886              	lv_btnmatrix_set_map:
 1887              		@ args = 0, pretend = 0, frame = 0
 1888              		@ frame_needed = 0, uses_anonymous_args = 0
 1889              		@ link register save eliminated.
 1890 0000 09B1     		cbz	r1, .L360
 1891 0002 FFF7FEBF 		b	lv_btnmatrix_set_map.part.0
 1892              	.L360:
 1893 0006 7047     		bx	lr
 1895              		.section	.text.lv_btnmatrix_set_ctrl_map,"ax",%progbits
 1896              		.align	1
 1897              		.p2align 2,,3
 1898              		.global	lv_btnmatrix_set_ctrl_map
 1899              		.syntax unified
 1900              		.thumb
 1901              		.thumb_func
 1903              	lv_btnmatrix_set_ctrl_map:
 1904              		@ args = 0, pretend = 0, frame = 0
ARM GAS  /var/folders/lp/x54gwt890xv47sdkqj1k04q40000gn/T//cc0uNINC.s 			page 34


 1905              		@ frame_needed = 0, uses_anonymous_args = 0
 1906 0000 028E     		ldrh	r2, [r0, #48]
 1907 0002 10B5     		push	{r4, lr}
 1908 0004 0446     		mov	r4, r0
 1909 0006 5200     		lsls	r2, r2, #1
 1910 0008 C06A     		ldr	r0, [r0, #44]
 1911 000a FFF7FEFF 		bl	lv_memcpy
 1912 000e 616A     		ldr	r1, [r4, #36]
 1913 0010 21B1     		cbz	r1, .L362
 1914 0012 2046     		mov	r0, r4
 1915 0014 BDE81040 		pop	{r4, lr}
 1916 0018 FFF7FEBF 		b	lv_btnmatrix_set_map.part.0
 1917              	.L362:
 1918 001c 10BD     		pop	{r4, pc}
 1920 001e 00BF     		.section	.text.lv_btnmatrix_set_selected_btn,"ax",%progbits
 1921              		.align	1
 1922              		.p2align 2,,3
 1923              		.global	lv_btnmatrix_set_selected_btn
 1924              		.syntax unified
 1925              		.thumb
 1926              		.thumb_func
 1928              	lv_btnmatrix_set_selected_btn:
 1929              		@ args = 0, pretend = 0, frame = 0
 1930              		@ frame_needed = 0, uses_anonymous_args = 0
 1931 0000 38B5     		push	{r3, r4, r5, lr}
 1932 0002 038E     		ldrh	r3, [r0, #48]
 1933 0004 8B42     		cmp	r3, r1
 1934 0006 0546     		mov	r5, r0
 1935 0008 0C46     		mov	r4, r1
 1936 000a 0AD8     		bhi	.L378
 1937 000c 4FF6FF72 		movw	r2, #65535
 1938 0010 9142     		cmp	r1, r2
 1939 0012 05D1     		bne	.L365
 1940 0014 818E     		ldrh	r1, [r0, #52]
 1941 0016 A142     		cmp	r1, r4
 1942 0018 02D0     		beq	.L365
 1943 001a 8B42     		cmp	r3, r1
 1944 001c 16D8     		bhi	.L374
 1945              	.L377:
 1946 001e AC86     		strh	r4, [r5, #52]	@ movhi
 1947              	.L365:
 1948 0020 38BD     		pop	{r3, r4, r5, pc}
 1949              	.L378:
 1950 0022 818E     		ldrh	r1, [r0, #52]
 1951 0024 4FF6FF72 		movw	r2, #65535
 1952 0028 9142     		cmp	r1, r2
 1953 002a 01D0     		beq	.L369
 1954 002c 8B42     		cmp	r3, r1
 1955 002e 06D8     		bhi	.L379
 1956              	.L369:
 1957 0030 AC86     		strh	r4, [r5, #52]	@ movhi
 1958              	.L368:
 1959 0032 2146     		mov	r1, r4
 1960 0034 2846     		mov	r0, r5
 1961 0036 BDE83840 		pop	{r3, r4, r5, lr}
 1962 003a FFF7FEBF 		b	invalidate_button_area.part.0
 1963              	.L379:
ARM GAS  /var/folders/lp/x54gwt890xv47sdkqj1k04q40000gn/T//cc0uNINC.s 			page 35


 1964 003e FFF7FEFF 		bl	invalidate_button_area.part.0
 1965 0042 2B8E     		ldrh	r3, [r5, #48]
 1966 0044 AC86     		strh	r4, [r5, #52]	@ movhi
 1967 0046 A342     		cmp	r3, r4
 1968 0048 F3D8     		bhi	.L368
 1969 004a 38BD     		pop	{r3, r4, r5, pc}
 1970              	.L374:
 1971 004c FFF7FEFF 		bl	invalidate_button_area.part.0
 1972 0050 E5E7     		b	.L377
 1974 0052 00BF     		.section	.text.lv_btnmatrix_set_btn_ctrl,"ax",%progbits
 1975              		.align	1
 1976              		.p2align 2,,3
 1977              		.global	lv_btnmatrix_set_btn_ctrl
 1978              		.syntax unified
 1979              		.thumb
 1980              		.thumb_func
 1982              	lv_btnmatrix_set_btn_ctrl:
 1983              		@ args = 0, pretend = 0, frame = 0
 1984              		@ frame_needed = 0, uses_anonymous_args = 0
 1985              		@ link register save eliminated.
 1986 0000 038E     		ldrh	r3, [r0, #48]
 1987 0002 8B42     		cmp	r3, r1
 1988 0004 01D9     		bls	.L380
 1989 0006 FFF7FEBF 		b	lv_btnmatrix_set_btn_ctrl.part.0
 1990              	.L380:
 1991 000a 7047     		bx	lr
 1993              		.section	.text.lv_btnmatrix_clear_btn_ctrl,"ax",%progbits
 1994              		.align	1
 1995              		.p2align 2,,3
 1996              		.global	lv_btnmatrix_clear_btn_ctrl
 1997              		.syntax unified
 1998              		.thumb
 1999              		.thumb_func
 2001              	lv_btnmatrix_clear_btn_ctrl:
 2002              		@ args = 0, pretend = 0, frame = 0
 2003              		@ frame_needed = 0, uses_anonymous_args = 0
 2004 0000 F8B5     		push	{r3, r4, r5, r6, r7, lr}
 2005 0002 038E     		ldrh	r3, [r0, #48]
 2006 0004 8B42     		cmp	r3, r1
 2007 0006 11D9     		bls	.L382
 2008 0008 1546     		mov	r5, r2
 2009 000a D343     		mvns	r3, r2
 2010 000c EA06     		lsls	r2, r5, #27
 2011 000e 0646     		mov	r6, r0
 2012 0010 0C46     		mov	r4, r1
 2013 0012 9FB2     		uxth	r7, r3
 2014 0014 12D4     		bmi	.L385
 2015              	.L387:
 2016 0016 F26A     		ldr	r2, [r6, #44]
 2017 0018 32F81430 		ldrh	r3, [r2, r4, lsl #1]
 2018 001c 3B40     		ands	r3, r3, r7
 2019 001e 22F81430 		strh	r3, [r2, r4, lsl #1]	@ movhi
 2020              	.L386:
 2021 0022 338E     		ldrh	r3, [r6, #48]
 2022 0024 A342     		cmp	r3, r4
 2023 0026 02D8     		bhi	.L394
 2024 0028 6B05     		lsls	r3, r5, #21
ARM GAS  /var/folders/lp/x54gwt890xv47sdkqj1k04q40000gn/T//cc0uNINC.s 			page 36


 2025 002a 17D4     		bmi	.L395
 2026              	.L382:
 2027 002c F8BD     		pop	{r3, r4, r5, r6, r7, pc}
 2028              	.L394:
 2029 002e 2146     		mov	r1, r4
 2030 0030 3046     		mov	r0, r6
 2031 0032 FFF7FEFF 		bl	invalidate_button_area.part.0
 2032 0036 6B05     		lsls	r3, r5, #21
 2033 0038 F8D5     		bpl	.L382
 2034 003a 0FE0     		b	.L395
 2035              	.L385:
 2036 003c 0121     		movs	r1, #1
 2037 003e FFF7FEFF 		bl	lv_obj_has_flag
 2038 0042 0028     		cmp	r0, #0
 2039 0044 E7D0     		beq	.L387
 2040 0046 0121     		movs	r1, #1
 2041 0048 3046     		mov	r0, r6
 2042 004a FFF7FEFF 		bl	lv_obj_clear_flag
 2043 004e F26A     		ldr	r2, [r6, #44]
 2044 0050 32F81430 		ldrh	r3, [r2, r4, lsl #1]
 2045 0054 3B40     		ands	r3, r3, r7
 2046 0056 22F81430 		strh	r3, [r2, r4, lsl #1]	@ movhi
 2047 005a E2E7     		b	.L386
 2048              	.L395:
 2049 005c 3046     		mov	r0, r6
 2050 005e BDE8F840 		pop	{r3, r4, r5, r6, r7, lr}
 2051 0062 FFF7FEBF 		b	lv_obj_refresh_ext_draw_size
 2053 0066 00BF     		.section	.text.lv_btnmatrix_set_btn_ctrl_all,"ax",%progbits
 2054              		.align	1
 2055              		.p2align 2,,3
 2056              		.global	lv_btnmatrix_set_btn_ctrl_all
 2057              		.syntax unified
 2058              		.thumb
 2059              		.thumb_func
 2061              	lv_btnmatrix_set_btn_ctrl_all:
 2062              		@ args = 0, pretend = 0, frame = 0
 2063              		@ frame_needed = 0, uses_anonymous_args = 0
 2064 0000 038E     		ldrh	r3, [r0, #48]
 2065 0002 73B1     		cbz	r3, .L404
 2066 0004 70B5     		push	{r4, r5, r6, lr}
 2067 0006 0024     		movs	r4, #0
 2068 0008 0E46     		mov	r6, r1
 2069 000a 0546     		mov	r5, r0
 2070 000c 2146     		mov	r1, r4
 2071              	.L398:
 2072 000e 3246     		mov	r2, r6
 2073 0010 2846     		mov	r0, r5
 2074 0012 FFF7FEFF 		bl	lv_btnmatrix_set_btn_ctrl.part.0
 2075 0016 0134     		adds	r4, r4, #1
 2076 0018 2B8E     		ldrh	r3, [r5, #48]
 2077 001a A1B2     		uxth	r1, r4
 2078 001c 8B42     		cmp	r3, r1
 2079 001e F6D8     		bhi	.L398
 2080 0020 70BD     		pop	{r4, r5, r6, pc}
 2081              	.L404:
 2082 0022 7047     		bx	lr
 2084              		.section	.text.lv_btnmatrix_clear_btn_ctrl_all,"ax",%progbits
ARM GAS  /var/folders/lp/x54gwt890xv47sdkqj1k04q40000gn/T//cc0uNINC.s 			page 37


 2085              		.align	1
 2086              		.p2align 2,,3
 2087              		.global	lv_btnmatrix_clear_btn_ctrl_all
 2088              		.syntax unified
 2089              		.thumb
 2090              		.thumb_func
 2092              	lv_btnmatrix_clear_btn_ctrl_all:
 2093              		@ args = 0, pretend = 0, frame = 0
 2094              		@ frame_needed = 0, uses_anonymous_args = 0
 2095 0000 038E     		ldrh	r3, [r0, #48]
 2096 0002 002B     		cmp	r3, #0
 2097 0004 44D0     		beq	.L421
 2098 0006 2DE9F047 		push	{r4, r5, r6, r7, r8, r9, r10, lr}
 2099 000a 0024     		movs	r4, #0
 2100 000c 6FEA0108 		mvn	r8, r1
 2101 0010 0546     		mov	r5, r0
 2102 0012 01F01009 		and	r9, r1, #16
 2103 0016 01F48067 		and	r7, r1, #1024
 2104 001a 1FFA88F8 		uxth	r8, r8
 2105 001e 2646     		mov	r6, r4
 2106              	.L414:
 2107 0020 4FEA440A 		lsl	r10, r4, #1
 2108 0024 B9F1000F 		cmp	r9, #0
 2109 0028 19D1     		bne	.L409
 2110 002a EA6A     		ldr	r2, [r5, #44]
 2111 002c 32F81430 		ldrh	r3, [r2, r4, lsl #1]
 2112 0030 08EA0303 		and	r3, r8, r3
 2113 0034 22F81430 		strh	r3, [r2, r4, lsl #1]	@ movhi
 2114              	.L410:
 2115 0038 2B8E     		ldrh	r3, [r5, #48]
 2116 003a B342     		cmp	r3, r6
 2117 003c 3146     		mov	r1, r6
 2118 003e 2846     		mov	r0, r5
 2119 0040 01D9     		bls	.L412
 2120 0042 FFF7FEFF 		bl	invalidate_button_area.part.0
 2121              	.L412:
 2122 0046 37B9     		cbnz	r7, .L424
 2123              	.L413:
 2124 0048 2B8E     		ldrh	r3, [r5, #48]
 2125 004a 0134     		adds	r4, r4, #1
 2126 004c A6B2     		uxth	r6, r4
 2127 004e B342     		cmp	r3, r6
 2128 0050 E6D8     		bhi	.L414
 2129 0052 BDE8F087 		pop	{r4, r5, r6, r7, r8, r9, r10, pc}
 2130              	.L424:
 2131 0056 2846     		mov	r0, r5
 2132 0058 FFF7FEFF 		bl	lv_obj_refresh_ext_draw_size
 2133 005c F4E7     		b	.L413
 2134              	.L409:
 2135 005e 0121     		movs	r1, #1
 2136 0060 2846     		mov	r0, r5
 2137 0062 FFF7FEFF 		bl	lv_obj_has_flag
 2138 0066 38B9     		cbnz	r0, .L425
 2139 0068 EA6A     		ldr	r2, [r5, #44]
 2140 006a 32F80A30 		ldrh	r3, [r2, r10]
 2141 006e 08EA0303 		and	r3, r8, r3
 2142 0072 22F80A30 		strh	r3, [r2, r10]	@ movhi
ARM GAS  /var/folders/lp/x54gwt890xv47sdkqj1k04q40000gn/T//cc0uNINC.s 			page 38


 2143 0076 DFE7     		b	.L410
 2144              	.L425:
 2145 0078 0121     		movs	r1, #1
 2146 007a 2846     		mov	r0, r5
 2147 007c FFF7FEFF 		bl	lv_obj_clear_flag
 2148 0080 EA6A     		ldr	r2, [r5, #44]
 2149 0082 32F80A30 		ldrh	r3, [r2, r10]
 2150 0086 08EA0303 		and	r3, r8, r3
 2151 008a 22F80A30 		strh	r3, [r2, r10]	@ movhi
 2152 008e D3E7     		b	.L410
 2153              	.L421:
 2154 0090 7047     		bx	lr
 2156 0092 00BF     		.section	.text.lv_btnmatrix_set_btn_width,"ax",%progbits
 2157              		.align	1
 2158              		.p2align 2,,3
 2159              		.global	lv_btnmatrix_set_btn_width
 2160              		.syntax unified
 2161              		.thumb
 2162              		.thumb_func
 2164              	lv_btnmatrix_set_btn_width:
 2165              		@ args = 0, pretend = 0, frame = 0
 2166              		@ frame_needed = 0, uses_anonymous_args = 0
 2167 0000 10B5     		push	{r4, lr}
 2168 0002 B0F830E0 		ldrh	lr, [r0, #48]
 2169 0006 8E45     		cmp	lr, r1
 2170 0008 0DD9     		bls	.L426
 2171 000a 0B46     		mov	r3, r1
 2172 000c C46A     		ldr	r4, [r0, #44]
 2173 000e 416A     		ldr	r1, [r0, #36]
 2174 0010 34F813C0 		ldrh	ip, [r4, r3, lsl #1]
 2175 0014 62F3030C 		bfi	ip, r2, #0, #4
 2176 0018 24F813C0 		strh	ip, [r4, r3, lsl #1]	@ movhi
 2177 001c 19B1     		cbz	r1, .L426
 2178 001e BDE81040 		pop	{r4, lr}
 2179 0022 FFF7FEBF 		b	lv_btnmatrix_set_map.part.0
 2180              	.L426:
 2181 0026 10BD     		pop	{r4, pc}
 2183              		.section	.text.lv_btnmatrix_set_one_checked,"ax",%progbits
 2184              		.align	1
 2185              		.p2align 2,,3
 2186              		.global	lv_btnmatrix_set_one_checked
 2187              		.syntax unified
 2188              		.thumb
 2189              		.thumb_func
 2191              	lv_btnmatrix_set_one_checked:
 2192              		@ args = 0, pretend = 0, frame = 0
 2193              		@ frame_needed = 0, uses_anonymous_args = 0
 2194              		@ link register save eliminated.
 2195 0000 90F83620 		ldrb	r2, [r0, #54]	@ zero_extendqisi2
 2196 0004 8C46     		mov	ip, r1
 2197 0006 6CF30002 		bfi	r2, ip, #0, #1
 2198 000a 0021     		movs	r1, #0
 2199 000c 80F83620 		strb	r2, [r0, #54]
 2200 0010 FFF7FEBF 		b	make_one_button_checked
 2202              		.section	.text.lv_btnmatrix_get_map,"ax",%progbits
 2203              		.align	1
 2204              		.p2align 2,,3
ARM GAS  /var/folders/lp/x54gwt890xv47sdkqj1k04q40000gn/T//cc0uNINC.s 			page 39


 2205              		.global	lv_btnmatrix_get_map
 2206              		.syntax unified
 2207              		.thumb
 2208              		.thumb_func
 2210              	lv_btnmatrix_get_map:
 2211              		@ args = 0, pretend = 0, frame = 0
 2212              		@ frame_needed = 0, uses_anonymous_args = 0
 2213              		@ link register save eliminated.
 2214 0000 406A     		ldr	r0, [r0, #36]
 2215 0002 7047     		bx	lr
 2217              		.section	.text.lv_btnmatrix_get_selected_btn,"ax",%progbits
 2218              		.align	1
 2219              		.p2align 2,,3
 2220              		.global	lv_btnmatrix_get_selected_btn
 2221              		.syntax unified
 2222              		.thumb
 2223              		.thumb_func
 2225              	lv_btnmatrix_get_selected_btn:
 2226              		@ args = 0, pretend = 0, frame = 0
 2227              		@ frame_needed = 0, uses_anonymous_args = 0
 2228              		@ link register save eliminated.
 2229 0000 808E     		ldrh	r0, [r0, #52]
 2230 0002 7047     		bx	lr
 2232              		.section	.text.lv_btnmatrix_get_btn_text,"ax",%progbits
 2233              		.align	1
 2234              		.p2align 2,,3
 2235              		.global	lv_btnmatrix_get_btn_text
 2236              		.syntax unified
 2237              		.thumb
 2238              		.thumb_func
 2240              	lv_btnmatrix_get_btn_text:
 2241              		@ args = 0, pretend = 0, frame = 0
 2242              		@ frame_needed = 0, uses_anonymous_args = 0
 2243 0000 4FF6FF73 		movw	r3, #65535
 2244 0004 9942     		cmp	r1, r3
 2245 0006 27D0     		beq	.L443
 2246 0008 70B5     		push	{r4, r5, r6, lr}
 2247 000a 068E     		ldrh	r6, [r0, #48]
 2248 000c 8E42     		cmp	r6, r1
 2249 000e 21D3     		bcc	.L447
 2250 0010 21B3     		cbz	r1, .L445
 2251 0012 4FF0000C 		mov	ip, #0
 2252 0016 456A     		ldr	r5, [r0, #36]
 2253 0018 6346     		mov	r3, ip
 2254 001a 05E0     		b	.L442
 2255              	.L453:
 2256 001c 6478     		ldrb	r4, [r4, #1]	@ zero_extendqisi2
 2257 001e 74B9     		cbnz	r4, .L446
 2258 0020 0CF1010C 		add	ip, ip, #1
 2259 0024 6145     		cmp	r1, ip
 2260 0026 0FD0     		beq	.L439
 2261              	.L442:
 2262 0028 5A1C     		adds	r2, r3, #1
 2263 002a 92B2     		uxth	r2, r2
 2264 002c 0233     		adds	r3, r3, #2
 2265 002e 55F82240 		ldr	r4, [r5, r2, lsl #2]
 2266 0032 94F800E0 		ldrb	lr, [r4]	@ zero_extendqisi2
ARM GAS  /var/folders/lp/x54gwt890xv47sdkqj1k04q40000gn/T//cc0uNINC.s 			page 40


 2267 0036 BEF10A0F 		cmp	lr, #10
 2268 003a 9BB2     		uxth	r3, r3
 2269 003c EED0     		beq	.L453
 2270              	.L446:
 2271 003e 0CF1010C 		add	ip, ip, #1
 2272 0042 6145     		cmp	r1, ip
 2273 0044 1346     		mov	r3, r2
 2274 0046 EFD1     		bne	.L442
 2275              	.L439:
 2276 0048 8E42     		cmp	r6, r1
 2277 004a 03D0     		beq	.L447
 2278 004c 426A     		ldr	r2, [r0, #36]
 2279 004e 52F82300 		ldr	r0, [r2, r3, lsl #2]
 2280 0052 70BD     		pop	{r4, r5, r6, pc}
 2281              	.L447:
 2282 0054 0020     		movs	r0, #0
 2283 0056 70BD     		pop	{r4, r5, r6, pc}
 2284              	.L443:
 2285 0058 0020     		movs	r0, #0
 2286 005a 7047     		bx	lr
 2287              	.L445:
 2288 005c 0B46     		mov	r3, r1
 2289 005e F3E7     		b	.L439
 2291              		.section	.text.lv_btnmatrix_has_btn_ctrl,"ax",%progbits
 2292              		.align	1
 2293              		.p2align 2,,3
 2294              		.global	lv_btnmatrix_has_btn_ctrl
 2295              		.syntax unified
 2296              		.thumb
 2297              		.thumb_func
 2299              	lv_btnmatrix_has_btn_ctrl:
 2300              		@ args = 0, pretend = 0, frame = 0
 2301              		@ frame_needed = 0, uses_anonymous_args = 0
 2302              		@ link register save eliminated.
 2303 0000 038E     		ldrh	r3, [r0, #48]
 2304 0002 8B42     		cmp	r3, r1
 2305 0004 07D9     		bls	.L456
 2306 0006 C36A     		ldr	r3, [r0, #44]
 2307 0008 33F81130 		ldrh	r3, [r3, r1, lsl #1]
 2308 000c 9A43     		bics	r2, r2, r3
 2309 000e 0CBF     		ite	eq
 2310 0010 0120     		moveq	r0, #1
 2311 0012 0020     		movne	r0, #0
 2312 0014 7047     		bx	lr
 2313              	.L456:
 2314 0016 0020     		movs	r0, #0
 2315 0018 7047     		bx	lr
 2317              		.section	.text.lv_btnmatrix_get_one_checked,"ax",%progbits
 2318              		.align	1
 2319              		.p2align 2,,3
 2320              		.global	lv_btnmatrix_get_one_checked
 2321              		.syntax unified
 2322              		.thumb
 2323              		.thumb_func
 2325              	lv_btnmatrix_get_one_checked:
 2326              		@ args = 0, pretend = 0, frame = 0
 2327              		@ frame_needed = 0, uses_anonymous_args = 0
ARM GAS  /var/folders/lp/x54gwt890xv47sdkqj1k04q40000gn/T//cc0uNINC.s 			page 41


 2328              		@ link register save eliminated.
 2329 0000 90F83600 		ldrb	r0, [r0, #54]	@ zero_extendqisi2
 2330 0004 00F00100 		and	r0, r0, #1
 2331 0008 7047     		bx	lr
 2333              		.global	lv_btnmatrix_class
 2334 000a 00BF     		.section	.rodata.lv_btnmatrix_class,"a"
 2335              		.align	2
 2338              	lv_btnmatrix_class:
 2339 0000 00000000 		.word	lv_obj_class
 2340 0004 00000000 		.word	lv_btnmatrix_constructor
 2341 0008 00000000 		.word	lv_btnmatrix_destructor
 2342 000c 00000000 		.space	4
 2343 0010 00000000 		.word	lv_btnmatrix_event
 2344 0014 0401     		.short	260
 2345 0016 8200     		.short	130
 2346 0018 85       		.byte	133
 2347 0019 03       		.byte	3
 2348 001a 00       		.byte	0
 2349 001b 00       		.space	1
 2350              		.section	.rodata.str1.4,"aMS",%progbits,1
 2351              		.align	2
 2352              	.LC0:
 2353 0000 42746E31 		.ascii	"Btn1\000"
 2353      00
 2354 0005 000000   		.align	2
 2355              	.LC1:
 2356 0008 42746E32 		.ascii	"Btn2\000"
 2356      00
 2357 000d 000000   		.align	2
 2358              	.LC2:
 2359 0010 42746E33 		.ascii	"Btn3\000"
 2359      00
 2360 0015 000000   		.align	2
 2361              	.LC3:
 2362 0018 0A00     		.ascii	"\012\000"
 2363 001a 0000     		.align	2
 2364              	.LC4:
 2365 001c 42746E34 		.ascii	"Btn4\000"
 2365      00
 2366 0021 000000   		.align	2
 2367              	.LC5:
 2368 0024 42746E35 		.ascii	"Btn5\000"
 2368      00
 2369 0029 000000   		.align	2
 2370              	.LC6:
 2371 002c 00       		.ascii	"\000"
 2372              		.section	.data.lv_btnmatrix_def_map,"aw"
 2373              		.align	2
 2376              	lv_btnmatrix_def_map:
 2377 0000 00000000 		.word	.LC0
 2378 0004 08000000 		.word	.LC1
 2379 0008 10000000 		.word	.LC2
 2380 000c 18000000 		.word	.LC3
 2381 0010 1C000000 		.word	.LC4
 2382 0014 24000000 		.word	.LC5
 2383 0018 2C000000 		.word	.LC6
 2384              		.ident	"GCC: (xPack GNU Arm Embedded GCC arm64) 13.3.1 20240614"
ARM GAS  /var/folders/lp/x54gwt890xv47sdkqj1k04q40000gn/T//cc0uNINC.s 			page 42


ARM GAS  /var/folders/lp/x54gwt890xv47sdkqj1k04q40000gn/T//cc0uNINC.s 			page 43

