ARM GAS  /var/folders/lp/x54gwt890xv47sdkqj1k04q40000gn/T//ccCJA9wb.s 			page 1


   1              		.cpu cortex-m4
   2              		.arch armv7e-m
   3              		.fpu fpv4-sp-d16
   4              		.eabi_attribute 27, 1
   5              		.eabi_attribute 28, 1
   6              		.eabi_attribute 20, 1
   7              		.eabi_attribute 21, 1
   8              		.eabi_attribute 23, 3
   9              		.eabi_attribute 24, 1
  10              		.eabi_attribute 25, 1
  11              		.eabi_attribute 26, 1
  12              		.eabi_attribute 30, 2
  13              		.eabi_attribute 34, 1
  14              		.eabi_attribute 18, 4
  15              		.file	"lv_colorwheel.c"
  16              		.text
  17              		.section	.text.get_knob_area,"ax",%progbits
  18              		.align	1
  19              		.p2align 2,,3
  20              		.syntax unified
  21              		.thumb
  22              		.thumb_func
  24              	get_knob_area:
  25              		@ args = 0, pretend = 0, frame = 0
  26              		@ frame_needed = 0, uses_anonymous_args = 0
  27 0000 2DE9F843 		push	{r3, r4, r5, r6, r7, r8, r9, lr}
  28 0004 0C46     		mov	r4, r1
  29 0006 0646     		mov	r6, r0
  30 0008 5022     		movs	r2, #80
  31 000a 0021     		movs	r1, #0
  32 000c 2046     		mov	r0, r4
  33 000e FFF7FEFF 		bl	lv_obj_get_style_prop
  34 0012 C0F3C033 		ubfx	r3, r0, #15, #1
  35 0016 03FA80F0 		sxtah	r0, r3, r0
  36 001a C0F34F05 		ubfx	r5, r0, #1, #16
  37 001e 1222     		movs	r2, #18
  38 0020 4FF44031 		mov	r1, #196608
  39 0024 2046     		mov	r0, r4
  40 0026 FFF7FEFF 		bl	lv_obj_get_style_prop
  41 002a 1322     		movs	r2, #19
  42 002c 8046     		mov	r8, r0
  43 002e 4FF44031 		mov	r1, #196608
  44 0032 2046     		mov	r0, r4
  45 0034 FFF7FEFF 		bl	lv_obj_get_style_prop
  46 0038 1022     		movs	r2, #16
  47 003a 8146     		mov	r9, r0
  48 003c 4FF44031 		mov	r1, #196608
  49 0040 2046     		mov	r0, r4
  50 0042 FFF7FEFF 		bl	lv_obj_get_style_prop
  51 0046 1122     		movs	r2, #17
  52 0048 0746     		mov	r7, r0
  53 004a 4FF44031 		mov	r1, #196608
  54 004e 2046     		mov	r0, r4
  55 0050 FFF7FEFF 		bl	lv_obj_get_style_prop
  56 0054 228D     		ldrh	r2, [r4, #40]
  57 0056 A38A     		ldrh	r3, [r4, #20]
  58 0058 1344     		add	r3, r3, r2
ARM GAS  /var/folders/lp/x54gwt890xv47sdkqj1k04q40000gn/T//ccCJA9wb.s 			page 2


  59 005a 9BB2     		uxth	r3, r3
  60 005c A844     		add	r8, r8, r5
  61 005e 2F44     		add	r7, r7, r5
  62 0060 A3EB0808 		sub	r8, r3, r8
  63 0064 DA19     		adds	r2, r3, r7
  64 0066 E38A     		ldrh	r3, [r4, #22]
  65 0068 648D     		ldrh	r4, [r4, #42]
  66 006a 2344     		add	r3, r3, r4
  67 006c 2844     		add	r0, r0, r5
  68 006e 05EB0901 		add	r1, r5, r9
  69 0072 9BB2     		uxth	r3, r3
  70 0074 591A     		subs	r1, r3, r1
  71 0076 0344     		add	r3, r3, r0
  72 0078 0020     		movs	r0, #0
  73 007a 0446     		mov	r4, r0
  74 007c 62F30F04 		bfi	r4, r2, #0, #16
  75 0080 68F30F00 		bfi	r0, r8, #0, #16
  76 0084 61F31F40 		bfi	r0, r1, #16, #16
  77 0088 63F31F44 		bfi	r4, r3, #16, #16
  78 008c 3060     		str	r0, [r6]	@ unaligned
  79 008e 7460     		str	r4, [r6, #4]	@ unaligned
  80 0090 3046     		mov	r0, r6
  81 0092 BDE8F883 		pop	{r3, r4, r5, r6, r7, r8, r9, pc}
  83 0096 00BF     		.section	.text.fast_hsv2rgb.part.0.constprop.0,"ax",%progbits
  84              		.align	1
  85              		.p2align 2,,3
  86              		.syntax unified
  87              		.thumb
  88              		.thumb_func
  90              	fast_hsv2rgb.part.0.constprop.0:
  91              		@ args = 8, pretend = 0, frame = 0
  92              		@ frame_needed = 0, uses_anonymous_args = 0
  93              		@ link register save eliminated.
  94 0000 9446     		mov	ip, r2
  95 0002 020A     		lsrs	r2, r0, #8
  96 0004 30B4     		push	{r4, r5}
  97 0006 12F0020F 		tst	r2, #2
  98 000a 029C     		ldr	r4, [sp, #8]
  99 000c 02F00405 		and	r5, r2, #4
 100 0010 13D0     		beq	.L5
 101 0012 002D     		cmp	r5, #0
 102 0014 1D46     		mov	r5, r3
 103 0016 04BF     		itt	eq
 104 0018 2346     		moveq	r3, r4
 105 001a 2C46     		moveq	r4, r5
 106              	.L6:
 107 001c 12F0060F 		tst	r2, #6
 108 0020 10D0     		beq	.L17
 109 0022 D207     		lsls	r2, r2, #31
 110 0024 36D5     		bpl	.L24
 111 0026 039A     		ldr	r2, [sp, #12]
 112 0028 82F800C0 		strb	ip, [r2]
 113 002c CA43     		mvns	r2, r1
 114 002e D2B2     		uxtb	r2, r2
 115 0030 02FB0CF2 		mul	r2, r2, ip
 116 0034 120A     		lsrs	r2, r2, #8
 117 0036 2270     		strb	r2, [r4]
ARM GAS  /var/folders/lp/x54gwt890xv47sdkqj1k04q40000gn/T//ccCJA9wb.s 			page 3


 118 0038 0FE0     		b	.L14
 119              	.L5:
 120 003a D5B9     		cbnz	r5, .L19
 121 003c 2546     		mov	r5, r4
 122 003e 039C     		ldr	r4, [sp, #12]
 123 0040 0393     		str	r3, [sp, #12]
 124 0042 2B46     		mov	r3, r5
 125              	.L17:
 126 0044 D507     		lsls	r5, r2, #31
 127 0046 18D5     		bpl	.L8
 128 0048 83F800C0 		strb	ip, [r3]
 129 004c CB43     		mvns	r3, r1
 130 004e DBB2     		uxtb	r3, r3
 131 0050 03FB0CF3 		mul	r3, r3, ip
 132 0054 1B0A     		lsrs	r3, r3, #8
 133 0056 2370     		strb	r3, [r4]
 134 0058 039B     		ldr	r3, [sp, #12]
 135              	.L14:
 136 005a C0B2     		uxtb	r0, r0
 137 005c 00FB01F2 		mul	r2, r0, r1
 138              	.L13:
 139 0060 6FEA1222 		mvn	r2, r2, lsr #8
 140 0064 D2B2     		uxtb	r2, r2
 141 0066 02FB0CF2 		mul	r2, r2, ip
 142 006a 120A     		lsrs	r2, r2, #8
 143 006c 1A70     		strb	r2, [r3]
 144 006e 30BC     		pop	{r4, r5}
 145 0070 7047     		bx	lr
 146              	.L19:
 147 0072 039D     		ldr	r5, [sp, #12]
 148 0074 0393     		str	r3, [sp, #12]
 149 0076 2B46     		mov	r3, r5
 150 0078 D0E7     		b	.L6
 151              	.L8:
 152 007a 039A     		ldr	r2, [sp, #12]
 153 007c 82F800C0 		strb	ip, [r2]
 154 0080 CA43     		mvns	r2, r1
 155 0082 D2B2     		uxtb	r2, r2
 156 0084 02FB0CF2 		mul	r2, r2, ip
 157 0088 120A     		lsrs	r2, r2, #8
 158 008a C0B2     		uxtb	r0, r0
 159 008c 2270     		strb	r2, [r4]
 160 008e 68B9     		cbnz	r0, .L12
 161              	.L25:
 162 0090 0A02     		lsls	r2, r1, #8
 163 0092 E5E7     		b	.L13
 164              	.L24:
 165 0094 83F800C0 		strb	ip, [r3]
 166 0098 CB43     		mvns	r3, r1
 167 009a DBB2     		uxtb	r3, r3
 168 009c 03FB0CF3 		mul	r3, r3, ip
 169 00a0 1B0A     		lsrs	r3, r3, #8
 170 00a2 C0B2     		uxtb	r0, r0
 171 00a4 2370     		strb	r3, [r4]
 172 00a6 039B     		ldr	r3, [sp, #12]
 173 00a8 0028     		cmp	r0, #0
 174 00aa F1D0     		beq	.L25
ARM GAS  /var/folders/lp/x54gwt890xv47sdkqj1k04q40000gn/T//ccCJA9wb.s 			page 4


 175              	.L12:
 176 00ac 4042     		rsbs	r0, r0, #0
 177 00ae C0B2     		uxtb	r0, r0
 178 00b0 00FB01F2 		mul	r2, r0, r1
 179 00b4 D4E7     		b	.L13
 181 00b6 00BF     		.section	.text.refr_knob_pos,"ax",%progbits
 182              		.align	1
 183              		.p2align 2,,3
 184              		.syntax unified
 185              		.thumb
 186              		.thumb_func
 188              	refr_knob_pos:
 189              		@ args = 0, pretend = 0, frame = 8
 190              		@ frame_needed = 0, uses_anonymous_args = 0
 191 0000 F0B5     		push	{r4, r5, r6, r7, lr}
 192 0002 83B0     		sub	sp, sp, #12
 193 0004 0446     		mov	r4, r0
 194 0006 0146     		mov	r1, r0
 195 0008 6846     		mov	r0, sp
 196 000a FFF7FEFF 		bl	get_knob_area
 197 000e 6946     		mov	r1, sp
 198 0010 2046     		mov	r0, r4
 199 0012 FFF7FEFF 		bl	lv_obj_invalidate_area
 200 0016 2046     		mov	r0, r4
 201 0018 FFF7FEFF 		bl	lv_obj_get_width
 202 001c 5022     		movs	r2, #80
 203 001e 0546     		mov	r5, r0
 204 0020 0021     		movs	r1, #0
 205 0022 2046     		mov	r0, r4
 206 0024 FFF7FEFF 		bl	lv_obj_get_style_prop
 207 0028 94F83C30 		ldrb	r3, [r4, #60]	@ zero_extendqisi2
 208 002c 06B2     		sxth	r6, r0
 209 002e AE1B     		subs	r6, r5, r6
 210 0030 03F00303 		and	r3, r3, #3
 211 0034 06EBD676 		add	r6, r6, r6, lsr #31
 212 0038 012B     		cmp	r3, #1
 213 003a 4FEA6606 		asr	r6, r6, #1
 214 003e 2FD0     		beq	.L27
 215 0040 022B     		cmp	r3, #2
 216 0042 2BD1     		bne	.L32
 217 0044 94F82770 		ldrb	r7, [r4, #39]	@ zero_extendqisi2
 218              	.L31:
 219 0048 174B     		ldr	r3, .L33
 220 004a 4FF4B472 		mov	r2, #360
 221 004e 02FB07F7 		mul	r7, r2, r7
 222 0052 A3FB0737 		umull	r3, r7, r3, r7
 223 0056 7F09     		lsrs	r7, r7, #5
 224              	.L29:
 225 0058 38B2     		sxth	r0, r7
 226 005a FFF7FEFF 		bl	lv_trigo_sin
 227 005e 06FB00F0 		mul	r0, r6, r0
 228 0062 C013     		asrs	r0, r0, #15
 229 0064 2085     		strh	r0, [r4, #40]	@ movhi
 230 0066 07F15A00 		add	r0, r7, #90
 231 006a 00B2     		sxth	r0, r0
 232 006c FFF7FEFF 		bl	lv_trigo_sin
 233 0070 05EBD575 		add	r5, r5, r5, lsr #31
ARM GAS  /var/folders/lp/x54gwt890xv47sdkqj1k04q40000gn/T//ccCJA9wb.s 			page 5


 234 0074 238D     		ldrh	r3, [r4, #40]
 235 0076 06FB00F0 		mul	r0, r6, r0
 236 007a C5F34F05 		ubfx	r5, r5, #1, #16
 237 007e 05EBE030 		add	r0, r5, r0, asr #15
 238 0082 1D44     		add	r5, r5, r3
 239 0084 6085     		strh	r0, [r4, #42]	@ movhi
 240 0086 2146     		mov	r1, r4
 241 0088 6846     		mov	r0, sp
 242 008a 2585     		strh	r5, [r4, #40]	@ movhi
 243 008c FFF7FEFF 		bl	get_knob_area
 244 0090 6946     		mov	r1, sp
 245 0092 2046     		mov	r0, r4
 246 0094 FFF7FEFF 		bl	lv_obj_invalidate_area
 247 0098 03B0     		add	sp, sp, #12
 248              		@ sp needed
 249 009a F0BD     		pop	{r4, r5, r6, r7, pc}
 250              	.L32:
 251 009c A78C     		ldrh	r7, [r4, #36]
 252 009e DBE7     		b	.L29
 253              	.L27:
 254 00a0 94F82670 		ldrb	r7, [r4, #38]	@ zero_extendqisi2
 255 00a4 D0E7     		b	.L31
 256              	.L34:
 257 00a6 00BF     		.align	2
 258              	.L33:
 259 00a8 1F85EB51 		.word	1374389535
 261              		.section	.text.lv_colorwheel_constructor,"ax",%progbits
 262              		.align	1
 263              		.p2align 2,,3
 264              		.syntax unified
 265              		.thumb
 266              		.thumb_func
 268              	lv_colorwheel_constructor:
 269              		@ args = 0, pretend = 0, frame = 0
 270              		@ frame_needed = 0, uses_anonymous_args = 0
 271 0000 10B5     		push	{r4, lr}
 272 0002 0C46     		mov	r4, r1
 273 0004 1049     		ldr	r1, .L37
 274 0006 94F83C30 		ldrb	r3, [r4, #60]	@ zero_extendqisi2
 275 000a 94F82C20 		ldrb	r2, [r4, #44]	@ zero_extendqisi2
 276 000e 0878     		ldrb	r0, [r1]	@ zero_extendqisi2
 277 0010 23F00703 		bic	r3, r3, #7
 278 0014 60F30002 		bfi	r2, r0, #0, #1
 279 0018 0021     		movs	r1, #0
 280 001a 0C48     		ldr	r0, .L37+4
 281 001c 6062     		str	r0, [r4, #36]
 282 001e C4E90C11 		strd	r1, r1, [r4, #48]
 283 0022 84F83C30 		strb	r3, [r4, #60]
 284 0026 84F82C20 		strb	r2, [r4, #44]
 285 002a 2046     		mov	r0, r4
 286 002c 4FF48031 		mov	r1, #65536
 287 0030 FFF7FEFF 		bl	lv_obj_add_flag
 288 0034 2046     		mov	r0, r4
 289 0036 4FF44071 		mov	r1, #768
 290 003a FFF7FEFF 		bl	lv_obj_clear_flag
 291 003e 2046     		mov	r0, r4
 292 0040 BDE81040 		pop	{r4, lr}
ARM GAS  /var/folders/lp/x54gwt890xv47sdkqj1k04q40000gn/T//ccCJA9wb.s 			page 6


 293 0044 FFF7FEBF 		b	refr_knob_pos
 294              	.L38:
 295              		.align	2
 296              	.L37:
 297 0048 00000000 		.word	create_knob_recolor
 298 004c 00006464 		.word	1684275200
 300              		.section	.text.lv_colorwheel_event,"ax",%progbits
 301              		.align	1
 302              		.p2align 2,,3
 303              		.syntax unified
 304              		.thumb
 305              		.thumb_func
 307              	lv_colorwheel_event:
 308              		@ args = 0, pretend = 0, frame = 136
 309              		@ frame_needed = 0, uses_anonymous_args = 0
 310 0000 2DE9F04F 		push	{r4, r5, r6, r7, r8, r9, r10, fp, lr}
 311 0004 A5B0     		sub	sp, sp, #148
 312 0006 CD48     		ldr	r0, .L158
 313 0008 0591     		str	r1, [sp, #20]
 314 000a FFF7FEFF 		bl	lv_obj_event_base
 315 000e 0128     		cmp	r0, #1
 316 0010 02D0     		beq	.L148
 317              	.L39:
 318 0012 25B0     		add	sp, sp, #148
 319              		@ sp needed
 320 0014 BDE8F08F 		pop	{r4, r5, r6, r7, r8, r9, r10, fp, pc}
 321              	.L148:
 322 0018 059D     		ldr	r5, [sp, #20]
 323 001a 2846     		mov	r0, r5
 324 001c FFF7FEFF 		bl	lv_event_get_code
 325 0020 0446     		mov	r4, r0
 326 0022 2846     		mov	r0, r5
 327 0024 FFF7FEFF 		bl	lv_event_get_target
 328 0028 631E     		subs	r3, r4, #1
 329 002a 0546     		mov	r5, r0
 330 002c 292B     		cmp	r3, #41
 331 002e F0D8     		bhi	.L39
 332 0030 01A2     		adr	r2, .L43
 333 0032 52F823F0 		ldr	pc, [r2, r3, lsl #2]
 334 0036 00BF     		.p2align 2
 335              	.L43:
 336 0038 1D010000 		.word	.L51+1
 337 003c E1010000 		.word	.L50+1
 338 0040 13000000 		.word	.L39+1
 339 0044 13000000 		.word	.L39+1
 340 0048 13000000 		.word	.L39+1
 341 004c 13000000 		.word	.L39+1
 342 0050 13000000 		.word	.L39+1
 343 0054 13000000 		.word	.L39+1
 344 0058 13000000 		.word	.L39+1
 345 005c 13000000 		.word	.L39+1
 346 0060 13000000 		.word	.L39+1
 347 0064 13000000 		.word	.L39+1
 348 0068 45030000 		.word	.L49+1
 349 006c 13000000 		.word	.L39+1
 350 0070 13000000 		.word	.L39+1
 351 0074 13000000 		.word	.L39+1
ARM GAS  /var/folders/lp/x54gwt890xv47sdkqj1k04q40000gn/T//ccCJA9wb.s 			page 7


 352 0078 35040000 		.word	.L48+1
 353 007c 4F040000 		.word	.L47+1
 354 0080 63040000 		.word	.L46+1
 355 0084 13000000 		.word	.L39+1
 356 0088 C5040000 		.word	.L45+1
 357 008c 13000000 		.word	.L39+1
 358 0090 13000000 		.word	.L39+1
 359 0094 13000000 		.word	.L39+1
 360 0098 13000000 		.word	.L39+1
 361 009c 13000000 		.word	.L39+1
 362 00a0 13000000 		.word	.L39+1
 363 00a4 13000000 		.word	.L39+1
 364 00a8 13000000 		.word	.L39+1
 365 00ac 13000000 		.word	.L39+1
 366 00b0 13000000 		.word	.L39+1
 367 00b4 13000000 		.word	.L39+1
 368 00b8 13000000 		.word	.L39+1
 369 00bc 13000000 		.word	.L39+1
 370 00c0 13000000 		.word	.L39+1
 371 00c4 13000000 		.word	.L39+1
 372 00c8 13000000 		.word	.L39+1
 373 00cc 13000000 		.word	.L39+1
 374 00d0 13000000 		.word	.L39+1
 375 00d4 13000000 		.word	.L39+1
 376 00d8 E1000000 		.word	.L44+1
 377 00dc 11010000 		.word	.L42+1
 378              		.p2align 1
 379              	.L44:
 380 00e0 0598     		ldr	r0, [sp, #20]
 381 00e2 FFF7FEFF 		bl	lv_event_get_param
 382 00e6 0446     		mov	r4, r0
 383 00e8 2846     		mov	r0, r5
 384 00ea FFF7FEFF 		bl	lv_obj_get_width
 385 00ee A388     		ldrh	r3, [r4, #4]
 386 00f0 2288     		ldrh	r2, [r4]
 387 00f2 0133     		adds	r3, r3, #1
 388 00f4 9B1A     		subs	r3, r3, r2
 389 00f6 1BB2     		sxth	r3, r3
 390 00f8 9842     		cmp	r0, r3
 391 00fa 09D1     		bne	.L42
 392 00fc 2846     		mov	r0, r5
 393 00fe FFF7FEFF 		bl	lv_obj_get_height
 394 0102 E388     		ldrh	r3, [r4, #6]
 395 0104 6288     		ldrh	r2, [r4, #2]
 396 0106 0133     		adds	r3, r3, #1
 397 0108 9B1A     		subs	r3, r3, r2
 398 010a 1BB2     		sxth	r3, r3
 399 010c 9842     		cmp	r0, r3
 400 010e 80D0     		beq	.L39
 401              	.L42:
 402 0110 2846     		mov	r0, r5
 403 0112 25B0     		add	sp, sp, #148
 404              		@ sp needed
 405 0114 BDE8F04F 		pop	{r4, r5, r6, r7, r8, r9, r10, fp, lr}
 406 0118 FFF7FEBF 		b	refr_knob_pos
 407              	.L51:
 408 011c FFF7FEFF 		bl	lv_tick_get
ARM GAS  /var/folders/lp/x54gwt890xv47sdkqj1k04q40000gn/T//ccCJA9wb.s 			page 8


 409 0120 6863     		str	r0, [r5, #52]
 410 0122 FFF7FEFF 		bl	lv_indev_get_act
 411 0126 05F13801 		add	r1, r5, #56
 412 012a FFF7FEFF 		bl	lv_indev_get_point
 413 012e FFF7FEFF 		bl	lv_indev_get_act
 414 0132 0446     		mov	r4, r0
 415 0134 286B     		ldr	r0, [r5, #48]
 416 0136 FFF7FEFF 		bl	lv_tick_elaps
 417 013a 2368     		ldr	r3, [r4]
 418 013c 9B8B     		ldrh	r3, [r3, #28]
 419 013e 9842     		cmp	r0, r3
 420 0140 4AD2     		bcs	.L73
 421 0142 95F83C60 		ldrb	r6, [r5, #60]	@ zero_extendqisi2
 422 0146 AF8C     		ldrh	r7, [r5, #36]
 423 0148 95F82690 		ldrb	r9, [r5, #38]	@ zero_extendqisi2
 424 014c 95F82780 		ldrb	r8, [r5, #39]	@ zero_extendqisi2
 425 0150 06F00306 		and	r6, r6, #3
 426 0154 012E     		cmp	r6, #1
 427 0156 00F04484 		beq	.L74
 428 015a 022E     		cmp	r6, #2
 429 015c 00F03884 		beq	.L75
 430 0160 002E     		cmp	r6, #0
 431 0162 00F02584 		beq	.L76
 432 0166 B9F1640F 		cmp	r9, #100
 433 016a 28BF     		it	cs
 434 016c 4FF06409 		movcs	r9, #100
 435 0170 B8F1640F 		cmp	r8, #100
 436 0174 28BF     		it	cs
 437 0176 4FF06408 		movcs	r8, #100
 438              	.L77:
 439 017a 2046     		mov	r0, r4
 440 017c FFF7FEFF 		bl	lv_indev_wait_release
 441 0180 B7F5B47F 		cmp	r7, #360
 442 0184 09D9     		bls	.L78
 443 0186 6E4A     		ldr	r2, .L158+4
 444 0188 FB08     		lsrs	r3, r7, #3
 445 018a A2FB0323 		umull	r2, r3, r2, r3
 446 018e 9B08     		lsrs	r3, r3, #2
 447 0190 4FF4B472 		mov	r2, #360
 448 0194 02FB1373 		mls	r3, r2, r3, r7
 449 0198 9FB2     		uxth	r7, r3
 450              	.L78:
 451 019a AB8C     		ldrh	r3, [r5, #36]
 452 019c BB42     		cmp	r3, r7
 453 019e 08D1     		bne	.L81
 454 01a0 EB8C     		ldrh	r3, [r5, #38]
 455 01a2 8DF85A90 		strb	r9, [sp, #90]
 456 01a6 8DF85B80 		strb	r8, [sp, #91]
 457 01aa BDF85A20 		ldrh	r2, [sp, #90]
 458 01ae 9A42     		cmp	r2, r3
 459 01b0 12D0     		beq	.L73
 460              	.L81:
 461 01b2 2846     		mov	r0, r5
 462 01b4 AF84     		strh	r7, [r5, #36]	@ movhi
 463 01b6 85F82690 		strb	r9, [r5, #38]
 464 01ba 85F82780 		strb	r8, [r5, #39]
 465 01be FFF7FEFF 		bl	refr_knob_pos
ARM GAS  /var/folders/lp/x54gwt890xv47sdkqj1k04q40000gn/T//ccCJA9wb.s 			page 9


 466 01c2 2846     		mov	r0, r5
 467 01c4 FFF7FEFF 		bl	lv_obj_invalidate
 468 01c8 0022     		movs	r2, #0
 469 01ca 1C21     		movs	r1, #28
 470 01cc 2846     		mov	r0, r5
 471 01ce FFF7FEFF 		bl	lv_event_send
 472 01d2 0128     		cmp	r0, #1
 473 01d4 7FF41DAF 		bne	.L39
 474              	.L73:
 475 01d8 FFF7FEFF 		bl	lv_tick_get
 476 01dc 2863     		str	r0, [r5, #48]
 477 01de 18E7     		b	.L39
 478              	.L50:
 479 01e0 FFF7FEFF 		bl	lv_indev_get_act
 480 01e4 0646     		mov	r6, r0
 481 01e6 0028     		cmp	r0, #0
 482 01e8 3FF413AF 		beq	.L39
 483 01ec FFF7FEFF 		bl	lv_indev_get_type
 484 01f0 0428     		cmp	r0, #4
 485 01f2 00F05083 		beq	.L83
 486 01f6 0228     		cmp	r0, #2
 487 01f8 00F04D83 		beq	.L83
 488 01fc 16A9     		add	r1, sp, #88
 489 01fe 3046     		mov	r0, r6
 490 0200 FFF7FEFF 		bl	lv_indev_get_point
 491              	.L85:
 492 0204 BDF95840 		ldrsh	r4, [sp, #88]
 493 0208 B5F93830 		ldrsh	r3, [r5, #56]
 494 020c 3268     		ldr	r2, [r6]
 495 020e E31A     		subs	r3, r4, r3
 496 0210 002B     		cmp	r3, #0
 497 0212 107E     		ldrb	r0, [r2, #24]	@ zero_extendqisi2
 498 0214 B8BF     		it	lt
 499 0216 5B42     		rsblt	r3, r3, #0
 500 0218 8342     		cmp	r3, r0
 501 021a 09DC     		bgt	.L86
 502 021c BDF95A20 		ldrsh	r2, [sp, #90]
 503 0220 B5F93A10 		ldrsh	r1, [r5, #58]
 504 0224 511A     		subs	r1, r2, r1
 505 0226 0029     		cmp	r1, #0
 506 0228 B8BF     		it	lt
 507 022a 4942     		rsblt	r1, r1, #0
 508 022c 8842     		cmp	r0, r1
 509 022e 08DA     		bge	.L87
 510              	.L86:
 511 0230 FFF7FEFF 		bl	lv_tick_get
 512 0234 169B     		ldr	r3, [sp, #88]
 513 0236 BDF95840 		ldrsh	r4, [sp, #88]
 514 023a BDF95A20 		ldrsh	r2, [sp, #90]
 515 023e 6863     		str	r0, [r5, #52]
 516 0240 AB63     		str	r3, [r5, #56]
 517              	.L87:
 518 0242 E98A     		ldrh	r1, [r5, #22]
 519 0244 AB8A     		ldrh	r3, [r5, #20]
 520 0246 521A     		subs	r2, r2, r1
 521 0248 E31A     		subs	r3, r4, r3
 522 024a 2846     		mov	r0, r5
ARM GAS  /var/folders/lp/x54gwt890xv47sdkqj1k04q40000gn/T//ccCJA9wb.s 			page 10


 523 024c ADF85830 		strh	r3, [sp, #88]	@ movhi
 524 0250 ADF85A20 		strh	r2, [sp, #90]	@ movhi
 525 0254 FFF7FEFF 		bl	lv_obj_get_width
 526 0258 5022     		movs	r2, #80
 527 025a 0446     		mov	r4, r0
 528 025c 0021     		movs	r1, #0
 529 025e 2846     		mov	r0, r5
 530 0260 FFF7FEFF 		bl	lv_obj_get_style_prop
 531 0264 BDF85820 		ldrh	r2, [sp, #88]
 532 0268 BDF85A10 		ldrh	r1, [sp, #90]
 533 026c C4F34E03 		ubfx	r3, r4, #1, #15
 534 0270 D21A     		subs	r2, r2, r3
 535 0272 C91A     		subs	r1, r1, r3
 536 0274 1B1A     		subs	r3, r3, r0
 537 0276 1CB2     		sxth	r4, r3
 538 0278 12B2     		sxth	r2, r2
 539 027a 09B2     		sxth	r1, r1
 540 027c 412C     		cmp	r4, #65
 541 027e ADF85820 		strh	r2, [sp, #88]	@ movhi
 542 0282 ADF85A10 		strh	r1, [sp, #90]	@ movhi
 543 0286 9BB2     		uxth	r3, r3
 544 0288 09DD     		ble	.L88
 545 028a C0F3C034 		ubfx	r4, r0, #15, #1
 546 028e 04FA80F0 		sxtah	r0, r4, r0
 547 0292 A3EB6003 		sub	r3, r3, r0, asr #1
 548 0296 1CB2     		sxth	r4, r3
 549 0298 412C     		cmp	r4, #65
 550 029a B8BF     		it	lt
 551 029c 4124     		movlt	r4, #65
 552              	.L88:
 553 029e 01FB01F1 		mul	r1, r1, r1
 554 02a2 02FB0212 		mla	r2, r2, r2, r1
 555 02a6 04FB04F4 		mul	r4, r4, r4
 556 02aa A242     		cmp	r2, r4
 557 02ac 686B     		ldr	r0, [r5, #52]
 558 02ae C0F2CB82 		blt	.L149
 559 02b2 FFF7FEFF 		bl	lv_tick_elaps
 560 02b6 BDF95A10 		ldrsh	r1, [sp, #90]
 561 02ba BDF95800 		ldrsh	r0, [sp, #88]
 562 02be 204C     		ldr	r4, .L158+4
 563 02c0 FFF7FEFF 		bl	lv_atan2
 564 02c4 C308     		lsrs	r3, r0, #3
 565 02c6 A4FB0323 		umull	r2, r3, r4, r3
 566 02ca 9B08     		lsrs	r3, r3, #2
 567 02cc 4FF4B472 		mov	r2, #360
 568 02d0 02FB1303 		mls	r3, r2, r3, r0
 569 02d4 95F83C20 		ldrb	r2, [r5, #60]	@ zero_extendqisi2
 570 02d8 A98C     		ldrh	r1, [r5, #36]
 571 02da 95F82660 		ldrb	r6, [r5, #38]	@ zero_extendqisi2
 572 02de 95F82700 		ldrb	r0, [r5, #39]	@ zero_extendqisi2
 573 02e2 02F00302 		and	r2, r2, #3
 574 02e6 012A     		cmp	r2, #1
 575 02e8 9BB2     		uxth	r3, r3
 576 02ea 00F0A683 		beq	.L91
 577 02ee 022A     		cmp	r2, #2
 578 02f0 00F02F83 		beq	.L92
 579 02f4 002A     		cmp	r2, #0
ARM GAS  /var/folders/lp/x54gwt890xv47sdkqj1k04q40000gn/T//ccCJA9wb.s 			page 11


 580 02f6 40F03483 		bne	.L94
 581 02fa 642E     		cmp	r6, #100
 582 02fc 3446     		mov	r4, r6
 583 02fe 28BF     		it	cs
 584 0300 6424     		movcs	r4, #100
 585 0302 6428     		cmp	r0, #100
 586 0304 28BF     		it	cs
 587 0306 6420     		movcs	r0, #100
 588 0308 64F30702 		bfi	r2, r4, #0, #8
 589 030c 8B42     		cmp	r3, r1
 590 030e 60F30F22 		bfi	r2, r0, #8, #8
 591 0312 40F0C383 		bne	.L118
 592              	.L97:
 593 0316 E88C     		ldrh	r0, [r5, #38]
 594 0318 93B2     		uxth	r3, r2
 595 031a 9842     		cmp	r0, r3
 596 031c 3FF479AE 		beq	.L39
 597              	.L98:
 598 0320 A984     		strh	r1, [r5, #36]	@ movhi
 599 0322 EA84     		strh	r2, [r5, #38]	@ movhi
 600 0324 2846     		mov	r0, r5
 601 0326 FFF7FEFF 		bl	refr_knob_pos
 602 032a 2846     		mov	r0, r5
 603 032c FFF7FEFF 		bl	lv_obj_invalidate
 604 0330 0022     		movs	r2, #0
 605 0332 1C21     		movs	r1, #28
 606 0334 2846     		mov	r0, r5
 607 0336 FFF7FEFF 		bl	lv_event_send
 608 033a 6AE6     		b	.L39
 609              	.L159:
 610              		.align	2
 611              	.L158:
 612 033c 00000000 		.word	lv_colorwheel_class
 613 0340 176CC116 		.word	381774871
 614              	.L49:
 615 0344 0598     		ldr	r0, [sp, #20]
 616 0346 FFF7FEFF 		bl	lv_event_get_param
 617 034a 0368     		ldr	r3, [r0]
 618 034c 113B     		subs	r3, r3, #17
 619 034e 032B     		cmp	r3, #3
 620 0350 3FF65FAE 		bhi	.L39
 621 0354 DFE803F0 		tbb	[pc, r3]
 622              	.L56:
 623 0358 3C       		.byte	(.L57-.L56)/2
 624 0359 02       		.byte	(.L55-.L56)/2
 625 035a 3C       		.byte	(.L57-.L56)/2
 626 035b 02       		.byte	(.L55-.L56)/2
 627              		.p2align 1
 628              	.L55:
 629 035c 95F83C30 		ldrb	r3, [r5, #60]	@ zero_extendqisi2
 630 0360 A88C     		ldrh	r0, [r5, #36]
 631 0362 95F82610 		ldrb	r1, [r5, #38]	@ zero_extendqisi2
 632 0366 95F82720 		ldrb	r2, [r5, #39]	@ zero_extendqisi2
 633 036a 03F00303 		and	r3, r3, #3
 634 036e 012B     		cmp	r3, #1
 635 0370 00F0B082 		beq	.L64
 636 0374 022B     		cmp	r3, #2
ARM GAS  /var/folders/lp/x54gwt890xv47sdkqj1k04q40000gn/T//ccCJA9wb.s 			page 12


 637 0376 00F03D83 		beq	.L65
 638 037a 6429     		cmp	r1, #100
 639 037c 28BF     		it	cs
 640 037e 6421     		movcs	r1, #100
 641 0380 642A     		cmp	r2, #100
 642 0382 28BF     		it	cs
 643 0384 6422     		movcs	r2, #100
 644 0386 002B     		cmp	r3, #0
 645 0388 40F0B082 		bne	.L67
 646 038c 0028     		cmp	r0, #0
 647 038e 00F06D83 		beq	.L115
 648 0392 0138     		subs	r0, r0, #1
 649 0394 80B2     		uxth	r0, r0
 650 0396 B0F5B47F 		cmp	r0, #360
 651 039a 06D9     		bls	.L68
 652 039c 4FF4B473 		mov	r3, #360
 653 03a0 B0FBF3F4 		udiv	r4, r0, r3
 654 03a4 03FB1400 		mls	r0, r3, r4, r0
 655 03a8 80B2     		uxth	r0, r0
 656              	.L68:
 657 03aa A884     		strh	r0, [r5, #36]	@ movhi
 658 03ac 85F82610 		strb	r1, [r5, #38]
 659 03b0 85F82720 		strb	r2, [r5, #39]
 660              	.L147:
 661 03b4 2846     		mov	r0, r5
 662 03b6 FFF7FEFF 		bl	refr_knob_pos
 663 03ba 2846     		mov	r0, r5
 664 03bc FFF7FEFF 		bl	lv_obj_invalidate
 665 03c0 0022     		movs	r2, #0
 666 03c2 1C21     		movs	r1, #28
 667 03c4 2846     		mov	r0, r5
 668 03c6 25B0     		add	sp, sp, #148
 669              		@ sp needed
 670 03c8 BDE8F04F 		pop	{r4, r5, r6, r7, r8, r9, r10, fp, lr}
 671 03cc FFF7FEBF 		b	lv_event_send
 672              	.L57:
 673 03d0 95F83C30 		ldrb	r3, [r5, #60]	@ zero_extendqisi2
 674 03d4 A88C     		ldrh	r0, [r5, #36]
 675 03d6 95F82620 		ldrb	r2, [r5, #38]	@ zero_extendqisi2
 676 03da 95F82710 		ldrb	r1, [r5, #39]	@ zero_extendqisi2
 677 03de 03F00303 		and	r3, r3, #3
 678 03e2 012B     		cmp	r3, #1
 679 03e4 00F01283 		beq	.L58
 680 03e8 022B     		cmp	r3, #2
 681 03ea 00F08D82 		beq	.L59
 682 03ee 002B     		cmp	r3, #0
 683 03f0 40F09382 		bne	.L60
 684 03f4 642A     		cmp	r2, #100
 685 03f6 28BF     		it	cs
 686 03f8 6422     		movcs	r2, #100
 687 03fa 6429     		cmp	r1, #100
 688 03fc 28BF     		it	cs
 689 03fe 6421     		movcs	r1, #100
 690 0400 CF4C     		ldr	r4, .L160
 691 0402 62F30703 		bfi	r3, r2, #0, #8
 692 0406 421C     		adds	r2, r0, #1
 693 0408 61F30F23 		bfi	r3, r1, #8, #8
ARM GAS  /var/folders/lp/x54gwt890xv47sdkqj1k04q40000gn/T//ccCJA9wb.s 			page 13


 694 040c D108     		lsrs	r1, r2, #3
 695 040e A4FB0141 		umull	r4, r1, r4, r1
 696 0412 8908     		lsrs	r1, r1, #2
 697 0414 4FF4B474 		mov	r4, #360
 698 0418 04FB1122 		mls	r2, r4, r1, r2
 699 041c 92B2     		uxth	r2, r2
 700 041e 8242     		cmp	r2, r0
 701 0420 40F02983 		bne	.L150
 702              	.L61:
 703 0424 E98C     		ldrh	r1, [r5, #38]
 704 0426 9AB2     		uxth	r2, r3
 705 0428 9142     		cmp	r1, r2
 706 042a 3FF4F2AD 		beq	.L39
 707              	.L62:
 708 042e A884     		strh	r0, [r5, #36]	@ movhi
 709 0430 EB84     		strh	r3, [r5, #38]	@ movhi
 710 0432 BFE7     		b	.L147
 711              	.L48:
 712 0434 0598     		ldr	r0, [sp, #20]
 713 0436 FFF7FEFF 		bl	lv_event_get_param
 714 043a 47F6FF72 		movw	r2, #32767
 715 043e 0168     		ldr	r1, [r0]
 716 0440 0446     		mov	r4, r0
 717 0442 05F11400 		add	r0, r5, #20
 718 0446 FFF7FEFF 		bl	_lv_area_is_point_on
 719 044a 2071     		strb	r0, [r4, #4]
 720 044c E1E5     		b	.L39
 721              	.L47:
 722 044e 0598     		ldr	r0, [sp, #20]
 723 0450 FFF7FEFF 		bl	lv_event_get_param
 724 0454 0378     		ldrb	r3, [r0]	@ zero_extendqisi2
 725 0456 022B     		cmp	r3, #2
 726 0458 3FF4DBAD 		beq	.L39
 727 045c 0123     		movs	r3, #1
 728 045e 0370     		strb	r3, [r0]
 729 0460 D7E5     		b	.L39
 730              	.L46:
 731 0462 1222     		movs	r2, #18
 732 0464 4FF44031 		mov	r1, #196608
 733 0468 FFF7FEFF 		bl	lv_obj_get_style_prop
 734 046c 1322     		movs	r2, #19
 735 046e 04B2     		sxth	r4, r0
 736 0470 4FF44031 		mov	r1, #196608
 737 0474 2846     		mov	r0, r5
 738 0476 FFF7FEFF 		bl	lv_obj_get_style_prop
 739 047a 1022     		movs	r2, #16
 740 047c 07B2     		sxth	r7, r0
 741 047e 4FF44031 		mov	r1, #196608
 742 0482 2846     		mov	r0, r5
 743 0484 FFF7FEFF 		bl	lv_obj_get_style_prop
 744 0488 1122     		movs	r2, #17
 745 048a 06B2     		sxth	r6, r0
 746 048c 4FF44031 		mov	r1, #196608
 747 0490 2846     		mov	r0, r5
 748 0492 FFF7FEFF 		bl	lv_obj_get_style_prop
 749 0496 05B2     		sxth	r5, r0
 750 0498 0598     		ldr	r0, [sp, #20]
ARM GAS  /var/folders/lp/x54gwt890xv47sdkqj1k04q40000gn/T//ccCJA9wb.s 			page 14


 751 049a FFF7FEFF 		bl	lv_event_get_param
 752 049e BC42     		cmp	r4, r7
 753 04a0 2346     		mov	r3, r4
 754 04a2 B8BF     		it	lt
 755 04a4 3B46     		movlt	r3, r7
 756 04a6 B342     		cmp	r3, r6
 757 04a8 B8BF     		it	lt
 758 04aa 3346     		movlt	r3, r6
 759 04ac AB42     		cmp	r3, r5
 760 04ae B8BF     		it	lt
 761 04b0 2B46     		movlt	r3, r5
 762 04b2 B0F90020 		ldrsh	r2, [r0]
 763 04b6 0233     		adds	r3, r3, #2
 764 04b8 1BB2     		sxth	r3, r3
 765 04ba 9342     		cmp	r3, r2
 766 04bc B8BF     		it	lt
 767 04be 1346     		movlt	r3, r2
 768 04c0 0380     		strh	r3, [r0]	@ movhi
 769 04c2 A6E5     		b	.L39
 770              	.L45:
 771 04c4 059C     		ldr	r4, [sp, #20]
 772 04c6 2046     		mov	r0, r4
 773 04c8 FFF7FEFF 		bl	lv_event_get_target
 774 04cc 0646     		mov	r6, r0
 775 04ce 2046     		mov	r0, r4
 776 04d0 FFF7FEFF 		bl	lv_event_get_draw_ctx
 777 04d4 0490     		str	r0, [sp, #16]
 778 04d6 3046     		mov	r0, r6
 779 04d8 FFF7FEFF 		bl	lv_obj_get_width
 780 04dc 0746     		mov	r7, r0
 781 04de 3046     		mov	r0, r6
 782 04e0 FFF7FEFF 		bl	lv_obj_get_height
 783 04e4 B6F81690 		ldrh	r9, [r6, #22]
 784 04e8 B6F814A0 		ldrh	r10, [r6, #20]
 785 04ec 00EBD070 		add	r0, r0, r0, lsr #31
 786 04f0 09EB6009 		add	r9, r9, r0, asr #1
 787 04f4 0DA8     		add	r0, sp, #52
 788 04f6 FFF7FEFF 		bl	lv_draw_line_dsc_init
 789 04fa 07EBD777 		add	r7, r7, r7, lsr #31
 790 04fe 0021     		movs	r1, #0
 791 0500 0DAA     		add	r2, sp, #52
 792 0502 3046     		mov	r0, r6
 793 0504 FFF7FEFF 		bl	lv_obj_init_draw_line_dsc
 794 0508 47F34F07 		sbfx	r7, r7, #1, #16
 795 050c 8D4A     		ldr	r2, .L160+4
 796 050e 4FF41D73 		mov	r3, #628
 797 0512 17FB03F3 		smulbb	r3, r7, r3
 798 0516 82FB0312 		smull	r1, r2, r2, r3
 799 051a DB17     		asrs	r3, r3, #31
 800 051c C3EB2233 		rsb	r3, r3, r2, asr #12
 801 0520 0233     		adds	r3, r3, #2
 802 0522 5022     		movs	r2, #80
 803 0524 0021     		movs	r1, #0
 804 0526 3046     		mov	r0, r6
 805 0528 ADF83630 		strh	r3, [sp, #54]	@ movhi
 806 052c FFF7FEFF 		bl	lv_obj_get_style_prop
 807 0530 0023     		movs	r3, #0
ARM GAS  /var/folders/lp/x54gwt890xv47sdkqj1k04q40000gn/T//ccCJA9wb.s 			page 15


 808 0532 8046     		mov	r8, r0
 809 0534 47F6FF72 		movw	r2, #32767
 810 0538 06F11401 		add	r1, r6, #20
 811 053c 10A8     		add	r0, sp, #64
 812 053e FFF7FEFF 		bl	lv_draw_mask_radius_init
 813 0542 0021     		movs	r1, #0
 814 0544 10A8     		add	r0, sp, #64
 815 0546 FFF7FEFF 		bl	lv_draw_mask_add
 816 054a B6F91A20 		ldrsh	r2, [r6, #26]
 817 054e B6F91610 		ldrsh	r1, [r6, #22]
 818 0552 B58A     		ldrh	r5, [r6, #20]
 819 0554 0690     		str	r0, [sp, #24]
 820 0556 B6F91800 		ldrsh	r0, [r6, #24]
 821 055a 1FFA88F3 		uxth	r3, r8
 822 055e 1D44     		add	r5, r5, r3
 823 0560 C01A     		subs	r0, r0, r3
 824 0562 1944     		add	r1, r1, r3
 825 0564 D31A     		subs	r3, r2, r3
 826 0566 ADF82800 		strh	r0, [sp, #40]	@ movhi
 827 056a ADF82610 		strh	r1, [sp, #38]	@ movhi
 828 056e ADF82A30 		strh	r3, [sp, #42]	@ movhi
 829 0572 47F6FF72 		movw	r2, #32767
 830 0576 0123     		movs	r3, #1
 831 0578 09A9     		add	r1, sp, #36
 832 057a 16A8     		add	r0, sp, #88
 833 057c ADF82450 		strh	r5, [sp, #36]	@ movhi
 834 0580 FFF7FEFF 		bl	lv_draw_mask_radius_init
 835 0584 0021     		movs	r1, #0
 836 0586 16A8     		add	r0, sp, #88
 837 0588 FFF7FEFF 		bl	lv_draw_mask_add
 838 058c 0FFA88F8 		sxth	r8, r8
 839 0590 BDF93630 		ldrsh	r3, [sp, #54]
 840 0594 0790     		str	r0, [sp, #28]
 841 0596 BA44     		add	r10, r10, r7
 842 0598 A7EB0808 		sub	r8, r7, r8
 843 059c 0025     		movs	r5, #0
 844 059e 1FFA8AFA 		uxth	r10, r10
 845 05a2 1FFA89F9 		uxth	r9, r9
 846 05a6 1F44     		add	r7, r7, r3
 847 05a8 A8EB0308 		sub	r8, r8, r3
 848 05ac 2C46     		mov	r4, r5
 849              	.L110:
 850 05ae 664B     		ldr	r3, .L160+8
 851 05b0 1A88     		ldrh	r2, [r3]
 852 05b2 0023     		movs	r3, #0
 853 05b4 A242     		cmp	r2, r4
 854 05b6 8DF82230 		strb	r3, [sp, #34]
 855 05ba 8DF82330 		strb	r3, [sp, #35]
 856 05be 8DF82C30 		strb	r3, [sp, #44]
 857 05c2 00F0CD80 		beq	.L151
 858 05c6 604B     		ldr	r3, .L160+8
 859 05c8 6049     		ldr	r1, .L160+12
 860 05ca 1C80     		strh	r4, [r3]	@ movhi
 861 05cc 96F83C30 		ldrb	r3, [r6, #60]	@ zero_extendqisi2
 862 05d0 03F00303 		and	r3, r3, #3
 863 05d4 FF22     		movs	r2, #255
 864 05d6 012B     		cmp	r3, #1
ARM GAS  /var/folders/lp/x54gwt890xv47sdkqj1k04q40000gn/T//ccCJA9wb.s 			page 16


 865 05d8 0A70     		strb	r2, [r1]
 866 05da 00F0F980 		beq	.L102
 867 05de 022B     		cmp	r3, #2
 868 05e0 00F0D580 		beq	.L103
 869              	.L104:
 870 05e4 594A     		ldr	r2, .L160+12
 871 05e6 96F82610 		ldrb	r1, [r6, #38]	@ zero_extendqisi2
 872 05ea 1370     		strb	r3, [r2]
 873 05ec 96F82720 		ldrb	r2, [r6, #39]	@ zero_extendqisi2
 874 05f0 5748     		ldr	r0, .L160+16
 875 05f2 01EB4101 		add	r1, r1, r1, lsl #1
 876 05f6 02EB4202 		add	r2, r2, r2, lsl #1
 877 05fa 01EB0111 		add	r1, r1, r1, lsl #4
 878 05fe 02EB0212 		add	r2, r2, r2, lsl #4
 879 0602 A0FB0131 		umull	r3, r1, r0, r1
 880 0606 A0FB0232 		umull	r3, r2, r0, r2
 881 060a 524B     		ldr	r3, .L160+20
 882 060c C1F30711 		ubfx	r1, r1, #4, #8
 883 0610 1970     		strb	r1, [r3]
 884 0612 514B     		ldr	r3, .L160+24
 885 0614 C2F30712 		ubfx	r2, r2, #4, #8
 886 0618 1A70     		strb	r2, [r3]
 887 061a 0029     		cmp	r1, #0
 888 061c 00F0B480 		beq	.L121
 889              	.L154:
 890 0620 04EB4400 		add	r0, r4, r4, lsl #1
 891 0624 0BAB     		add	r3, sp, #44
 892 0626 4000     		lsls	r0, r0, #1
 893 0628 0193     		str	r3, [sp, #4]
 894 062a 80B2     		uxth	r0, r0
 895              	.L146:
 896 062c 0DF12303 		add	r3, sp, #35
 897 0630 0093     		str	r3, [sp]
 898 0632 0DF12203 		add	r3, sp, #34
 899 0636 FFF7FEFF 		bl	fast_hsv2rgb.part.0.constprop.0
 900 063a 9DF82220 		ldrb	r2, [sp, #34]	@ zero_extendqisi2
 901 063e 9DF82310 		ldrb	r1, [sp, #35]	@ zero_extendqisi2
 902 0642 9DF82C00 		ldrb	r0, [sp, #44]	@ zero_extendqisi2
 903              	.L107:
 904 0646 02F0F802 		and	r2, r2, #248
 905 064a C1F34713 		ubfx	r3, r1, #5, #8
 906 064e C0F3C700 		ubfx	r0, r0, #3, #8
 907 0652 1343     		orrs	r3, r3, r2
 908 0654 C1F38701 		ubfx	r1, r1, #2, #8
 909 0658 45F30F22 		sbfx	r2, r5, #8, #16
 910 065c 43EA0023 		orr	r3, r3, r0, lsl #8
 911 0660 43EA4133 		orr	r3, r3, r1, lsl #13
 912 0664 1046     		mov	r0, r2
 913 0666 0392     		str	r2, [sp, #12]
 914 0668 ADF83430 		strh	r3, [sp, #52]	@ movhi
 915 066c FFF7FEFF 		bl	lv_trigo_sin
 916 0670 4FEA152B 		lsr	fp, r5, #8
 917 0674 0BF15A03 		add	r3, fp, #90
 918 0678 07FB00F0 		mul	r0, r7, r0
 919 067c 0FFA83FB 		sxth	fp, r3
 920 0680 0AEBE030 		add	r0, r10, r0, asr #15
 921 0684 ADF82C00 		strh	r0, [sp, #44]	@ movhi
ARM GAS  /var/folders/lp/x54gwt890xv47sdkqj1k04q40000gn/T//ccCJA9wb.s 			page 17


 922 0688 5846     		mov	r0, fp
 923 068a FFF7FEFF 		bl	lv_trigo_sin
 924 068e 039A     		ldr	r2, [sp, #12]
 925 0690 07FB00F0 		mul	r0, r7, r0
 926 0694 09EBE030 		add	r0, r9, r0, asr #15
 927 0698 ADF82E00 		strh	r0, [sp, #46]	@ movhi
 928 069c 1046     		mov	r0, r2
 929 069e FFF7FEFF 		bl	lv_trigo_sin
 930 06a2 08FB00F0 		mul	r0, r8, r0
 931 06a6 0AEBE030 		add	r0, r10, r0, asr #15
 932 06aa ADF83000 		strh	r0, [sp, #48]	@ movhi
 933 06ae 5846     		mov	r0, fp
 934 06b0 FFF7FEFF 		bl	lv_trigo_sin
 935 06b4 08FB00F0 		mul	r0, r8, r0
 936 06b8 09EBE030 		add	r0, r9, r0, asr #15
 937 06bc ADF83200 		strh	r0, [sp, #50]	@ movhi
 938 06c0 0CAB     		add	r3, sp, #48
 939 06c2 0498     		ldr	r0, [sp, #16]
 940 06c4 0BAA     		add	r2, sp, #44
 941 06c6 0DA9     		add	r1, sp, #52
 942 06c8 FFF7FEFF 		bl	lv_draw_line
 943 06cc 234B     		ldr	r3, .L160+28
 944 06ce 05F58765 		add	r5, r5, #1080
 945 06d2 0334     		adds	r4, r4, #3
 946 06d4 9D42     		cmp	r5, r3
 947 06d6 A4B2     		uxth	r4, r4
 948 06d8 7FF469AF 		bne	.L110
 949 06dc 10A8     		add	r0, sp, #64
 950 06de FFF7FEFF 		bl	lv_draw_mask_free_param
 951 06e2 16A8     		add	r0, sp, #88
 952 06e4 FFF7FEFF 		bl	lv_draw_mask_free_param
 953 06e8 0698     		ldr	r0, [sp, #24]
 954 06ea FFF7FEFF 		bl	lv_draw_mask_remove_id
 955 06ee 0798     		ldr	r0, [sp, #28]
 956 06f0 FFF7FEFF 		bl	lv_draw_mask_remove_id
 957 06f4 059D     		ldr	r5, [sp, #20]
 958 06f6 2846     		mov	r0, r5
 959 06f8 FFF7FEFF 		bl	lv_event_get_target
 960 06fc 0446     		mov	r4, r0
 961 06fe 2846     		mov	r0, r5
 962 0700 FFF7FEFF 		bl	lv_event_get_draw_ctx
 963 0704 0546     		mov	r5, r0
 964 0706 16A8     		add	r0, sp, #88
 965 0708 FFF7FEFF 		bl	lv_draw_rect_dsc_init
 966 070c 16AA     		add	r2, sp, #88
 967 070e 4FF44031 		mov	r1, #196608
 968 0712 2046     		mov	r0, r4
 969 0714 FFF7FEFF 		bl	lv_obj_init_draw_rect_dsc
 970 0718 47F6FF73 		movw	r3, #32767
 971 071c ADF85830 		strh	r3, [sp, #88]	@ movhi
 972 0720 94F82C30 		ldrb	r3, [r4, #44]	@ zero_extendqisi2
 973 0724 DB07     		lsls	r3, r3, #31
 974 0726 00F1CB80 		bmi	.L152
 975              	.L111:
 976 072a 2146     		mov	r1, r4
 977 072c 10A8     		add	r0, sp, #64
 978 072e FFF7FEFF 		bl	get_knob_area
ARM GAS  /var/folders/lp/x54gwt890xv47sdkqj1k04q40000gn/T//ccCJA9wb.s 			page 18


 979 0732 10AA     		add	r2, sp, #64
 980 0734 16A9     		add	r1, sp, #88
 981 0736 2846     		mov	r0, r5
 982 0738 FFF7FEFF 		bl	lv_draw_rect
 983 073c 69E4     		b	.L39
 984              	.L161:
 985 073e 00BF     		.align	2
 986              	.L160:
 987 0740 176CC116 		.word	381774871
 988 0744 53A45C7B 		.word	2069668947
 989 0748 00000000 		.word	angle_saved.4
 990 074c 00000000 		.word	m.3
 991 0750 CDCCCCCC 		.word	-858993459
 992 0754 00000000 		.word	s.2
 993 0758 00000000 		.word	v.1
 994 075c D06A0100 		.word	92880
 995              	.L151:
 996 0760 96F83C30 		ldrb	r3, [r6, #60]	@ zero_extendqisi2
 997 0764 C54A     		ldr	r2, .L162
 998 0766 03F00303 		and	r3, r3, #3
 999 076a 012B     		cmp	r3, #1
 1000 076c 1278     		ldrb	r2, [r2]	@ zero_extendqisi2
 1001 076e 64D0     		beq	.L153
 1002 0770 022B     		cmp	r3, #2
 1003 0772 5BD0     		beq	.L105
 1004 0774 9A42     		cmp	r2, r3
 1005 0776 7FF435AF 		bne	.L104
 1006 077a C14B     		ldr	r3, .L162+4
 1007 077c 1978     		ldrb	r1, [r3]	@ zero_extendqisi2
 1008 077e C14B     		ldr	r3, .L162+8
 1009 0780 1A78     		ldrb	r2, [r3]	@ zero_extendqisi2
 1010 0782 0029     		cmp	r1, #0
 1011 0784 7FF44CAF 		bne	.L154
 1012              	.L121:
 1013 0788 1046     		mov	r0, r2
 1014 078a 1146     		mov	r1, r2
 1015 078c 5BE7     		b	.L107
 1016              	.L103:
 1017 078e B08C     		ldrh	r0, [r6, #36]
 1018 0790 BD4B     		ldr	r3, .L162+12
 1019 0792 96F82610 		ldrb	r1, [r6, #38]	@ zero_extendqisi2
 1020 0796 B94A     		ldr	r2, .L162
 1021 0798 00EB4000 		add	r0, r0, r0, lsl #1
 1022 079c 8001     		lsls	r0, r0, #6
 1023 079e A3FB0030 		umull	r3, r0, r3, r0
 1024 07a2 BA4B     		ldr	r3, .L162+16
 1025 07a4 C0F38F00 		ubfx	r0, r0, #2, #16
 1026 07a8 1880     		strh	r0, [r3]	@ movhi
 1027 07aa 01EB4101 		add	r1, r1, r1, lsl #1
 1028 07ae B84B     		ldr	r3, .L162+20
 1029 07b0 01EB0111 		add	r1, r1, r1, lsl #4
 1030 07b4 A3FB0131 		umull	r3, r1, r3, r1
 1031 07b8 B14B     		ldr	r3, .L162+4
 1032 07ba C1F30711 		ubfx	r1, r1, #4, #8
 1033 07be 1970     		strb	r1, [r3]
 1034 07c0 0223     		movs	r3, #2
 1035 07c2 1370     		strb	r3, [r2]
ARM GAS  /var/folders/lp/x54gwt890xv47sdkqj1k04q40000gn/T//ccCJA9wb.s 			page 19


 1036              	.L109:
 1037 07c4 E2B2     		uxtb	r2, r4
 1038 07c6 0029     		cmp	r1, #0
 1039 07c8 DED0     		beq	.L121
 1040 07ca 0BAB     		add	r3, sp, #44
 1041 07cc 0193     		str	r3, [sp, #4]
 1042 07ce 2DE7     		b	.L146
 1043              	.L102:
 1044 07d0 B08C     		ldrh	r0, [r6, #36]
 1045 07d2 AD4B     		ldr	r3, .L162+12
 1046 07d4 96F82720 		ldrb	r2, [r6, #39]	@ zero_extendqisi2
 1047 07d8 A849     		ldr	r1, .L162
 1048 07da 00EB4000 		add	r0, r0, r0, lsl #1
 1049 07de 8001     		lsls	r0, r0, #6
 1050 07e0 A3FB0030 		umull	r3, r0, r3, r0
 1051 07e4 A94B     		ldr	r3, .L162+16
 1052 07e6 C0F38F00 		ubfx	r0, r0, #2, #16
 1053 07ea 1880     		strh	r0, [r3]	@ movhi
 1054 07ec 02EB4202 		add	r2, r2, r2, lsl #1
 1055 07f0 A74B     		ldr	r3, .L162+20
 1056 07f2 02EB0212 		add	r2, r2, r2, lsl #4
 1057 07f6 A3FB0232 		umull	r3, r2, r3, r2
 1058 07fa A24B     		ldr	r3, .L162+8
 1059 07fc C2F30712 		ubfx	r2, r2, #4, #8
 1060 0800 1A70     		strb	r2, [r3]
 1061 0802 0123     		movs	r3, #1
 1062 0804 0B70     		strb	r3, [r1]
 1063              	.L108:
 1064 0806 002C     		cmp	r4, #0
 1065 0808 BED0     		beq	.L121
 1066 080a 0BAB     		add	r3, sp, #44
 1067 080c 0193     		str	r3, [sp, #4]
 1068 080e 0DF12303 		add	r3, sp, #35
 1069 0812 0093     		str	r3, [sp]
 1070 0814 E1B2     		uxtb	r1, r4
 1071 0816 0DF12203 		add	r3, sp, #34
 1072 081a FFF7FEFF 		bl	fast_hsv2rgb.part.0.constprop.0
 1073 081e 9DF82220 		ldrb	r2, [sp, #34]	@ zero_extendqisi2
 1074 0822 9DF82310 		ldrb	r1, [sp, #35]	@ zero_extendqisi2
 1075 0826 9DF82C00 		ldrb	r0, [sp, #44]	@ zero_extendqisi2
 1076 082a 0CE7     		b	.L107
 1077              	.L105:
 1078 082c 022A     		cmp	r2, #2
 1079 082e AED1     		bne	.L103
 1080 0830 934B     		ldr	r3, .L162+4
 1081 0832 1978     		ldrb	r1, [r3]	@ zero_extendqisi2
 1082 0834 954B     		ldr	r3, .L162+16
 1083 0836 1888     		ldrh	r0, [r3]
 1084 0838 C4E7     		b	.L109
 1085              	.L153:
 1086 083a 012A     		cmp	r2, #1
 1087 083c C8D1     		bne	.L102
 1088 083e 914B     		ldr	r3, .L162+8
 1089 0840 1A78     		ldrb	r2, [r3]	@ zero_extendqisi2
 1090 0842 924B     		ldr	r3, .L162+16
 1091 0844 1888     		ldrh	r0, [r3]
 1092 0846 DEE7     		b	.L108
ARM GAS  /var/folders/lp/x54gwt890xv47sdkqj1k04q40000gn/T//ccCJA9wb.s 			page 20


 1093              	.L149:
 1094 0848 FFF7FEFF 		bl	lv_tick_elaps
 1095 084c 3368     		ldr	r3, [r6]
 1096 084e 9B8B     		ldrh	r3, [r3, #28]
 1097 0850 8342     		cmp	r3, r0
 1098 0852 BFF4DEAB 		bcs	.L39
 1099 0856 95F83C30 		ldrb	r3, [r5, #60]	@ zero_extendqisi2
 1100 085a 5A07     		lsls	r2, r3, #29
 1101 085c 3FF5D9AB 		bmi	.L39
 1102 0860 03F00302 		and	r2, r3, #3
 1103 0864 8B49     		ldr	r1, .L162+24
 1104 0866 0132     		adds	r2, r2, #1
 1105 0868 A1FB0201 		umull	r0, r1, r1, r2
 1106 086c 01F00600 		and	r0, r1, #6
 1107 0870 00EB5101 		add	r1, r0, r1, lsr #1
 1108 0874 521A     		subs	r2, r2, r1
 1109 0876 62F30103 		bfi	r3, r2, #0, #2
 1110 087a 85F83C30 		strb	r3, [r5, #60]
 1111 087e 2846     		mov	r0, r5
 1112 0880 FFF7FEFF 		bl	refr_knob_pos
 1113 0884 2846     		mov	r0, r5
 1114 0886 FFF7FEFF 		bl	lv_obj_invalidate
 1115 088a FFF7FEFF 		bl	lv_indev_get_act
 1116 088e FFF7FEFF 		bl	lv_indev_wait_release
 1117 0892 FFF7BEBB 		b	.L39
 1118              	.L83:
 1119 0896 2846     		mov	r0, r5
 1120 0898 AC8A     		ldrh	r4, [r5, #20]
 1121 089a FFF7FEFF 		bl	lv_obj_get_width
 1122 089e 00EBD070 		add	r0, r0, r0, lsr #31
 1123 08a2 04EB6003 		add	r3, r4, r0, asr #1
 1124 08a6 2846     		mov	r0, r5
 1125 08a8 EC8A     		ldrh	r4, [r5, #22]
 1126 08aa ADF85830 		strh	r3, [sp, #88]	@ movhi
 1127 08ae FFF7FEFF 		bl	lv_obj_get_height
 1128 08b2 00EBD070 		add	r0, r0, r0, lsr #31
 1129 08b6 04EB6004 		add	r4, r4, r0, asr #1
 1130 08ba ADF85A40 		strh	r4, [sp, #90]	@ movhi
 1131 08be A1E4     		b	.L85
 1132              	.L152:
 1133 08c0 94F82720 		ldrb	r2, [r4, #39]	@ zero_extendqisi2
 1134 08c4 94F82610 		ldrb	r1, [r4, #38]	@ zero_extendqisi2
 1135 08c8 A08C     		ldrh	r0, [r4, #36]
 1136 08ca FFF7FEFF 		bl	lv_color_hsv_to_rgb
 1137 08ce ADF85C00 		strh	r0, [sp, #92]	@ movhi
 1138 08d2 2AE7     		b	.L111
 1139              	.L64:
 1140 08d4 0029     		cmp	r1, #0
 1141 08d6 00F0C780 		beq	.L116
 1142 08da 4B1E     		subs	r3, r1, #1
 1143 08dc DBB2     		uxtb	r3, r3
 1144 08de 642B     		cmp	r3, #100
 1145 08e0 28BF     		it	cs
 1146 08e2 6423     		movcs	r3, #100
 1147 08e4 1946     		mov	r1, r3
 1148              	.L71:
 1149 08e6 642A     		cmp	r2, #100
ARM GAS  /var/folders/lp/x54gwt890xv47sdkqj1k04q40000gn/T//ccCJA9wb.s 			page 21


 1150 08e8 28BF     		it	cs
 1151 08ea 6422     		movcs	r2, #100
 1152              	.L67:
 1153 08ec B0F5B47F 		cmp	r0, #360
 1154 08f0 52D9     		bls	.L155
 1155 08f2 654B     		ldr	r3, .L162+12
 1156 08f4 C408     		lsrs	r4, r0, #3
 1157 08f6 A3FB0434 		umull	r3, r4, r3, r4
 1158 08fa A408     		lsrs	r4, r4, #2
 1159 08fc 4FF4B473 		mov	r3, #360
 1160 0900 03FB1400 		mls	r0, r3, r4, r0
 1161 0904 80B2     		uxth	r0, r0
 1162 0906 50E5     		b	.L68
 1163              	.L59:
 1164 0908 634B     		ldr	r3, .L162+28
 1165 090a 0131     		adds	r1, r1, #1
 1166 090c A3FB0143 		umull	r4, r3, r3, r1
 1167 0910 5B09     		lsrs	r3, r3, #5
 1168 0912 6424     		movs	r4, #100
 1169 0914 04FB1311 		mls	r1, r4, r3, r1
 1170 0918 C9B2     		uxtb	r1, r1
 1171              	.L60:
 1172 091a B0F5B47F 		cmp	r0, #360
 1173 091e 7FD9     		bls	.L156
 1174 0920 594B     		ldr	r3, .L162+12
 1175 0922 642A     		cmp	r2, #100
 1176 0924 4FEAD004 		lsr	r4, r0, #3
 1177 0928 28BF     		it	cs
 1178 092a 6422     		movcs	r2, #100
 1179 092c A3FB0434 		umull	r3, r4, r3, r4
 1180 0930 4FF00003 		mov	r3, #0	@ movhi
 1181 0934 62F30703 		bfi	r3, r2, #0, #8
 1182 0938 6429     		cmp	r1, #100
 1183 093a 4FEA9404 		lsr	r4, r4, #2
 1184 093e 4FF4B472 		mov	r2, #360
 1185 0942 28BF     		it	cs
 1186 0944 6421     		movcs	r1, #100
 1187 0946 02FB1402 		mls	r2, r2, r4, r0
 1188 094a 61F30F23 		bfi	r3, r1, #8, #8
 1189 094e 90B2     		uxth	r0, r2
 1190 0950 6DE5     		b	.L62
 1191              	.L92:
 1192 0952 6422     		movs	r2, #100
 1193 0954 02FB03F3 		mul	r3, r2, r3
 1194 0958 DB08     		lsrs	r3, r3, #3
 1195 095a A4FB0343 		umull	r4, r3, r4, r3
 1196 095e C3F38700 		ubfx	r0, r3, #2, #8
 1197              	.L94:
 1198 0962 B1F5B47F 		cmp	r1, #360
 1199 0966 71D9     		bls	.L157
 1200 0968 474A     		ldr	r2, .L162+12
 1201 096a CB08     		lsrs	r3, r1, #3
 1202 096c 642E     		cmp	r6, #100
 1203 096e 3446     		mov	r4, r6
 1204 0970 A2FB0323 		umull	r2, r3, r2, r3
 1205 0974 28BF     		it	cs
 1206 0976 6424     		movcs	r4, #100
ARM GAS  /var/folders/lp/x54gwt890xv47sdkqj1k04q40000gn/T//ccCJA9wb.s 			page 22


 1207 0978 4FF00002 		mov	r2, #0	@ movhi
 1208 097c 6428     		cmp	r0, #100
 1209 097e 28BF     		it	cs
 1210 0980 6420     		movcs	r0, #100
 1211 0982 64F30702 		bfi	r2, r4, #0, #8
 1212 0986 9B08     		lsrs	r3, r3, #2
 1213 0988 60F30F22 		bfi	r2, r0, #8, #8
 1214 098c 4FF4B470 		mov	r0, #360
 1215 0990 00FB1313 		mls	r3, r0, r3, r1
 1216 0994 99B2     		uxth	r1, r3
 1217 0996 C3E4     		b	.L98
 1218              	.L155:
 1219 0998 EC8C     		ldrh	r4, [r5, #38]
 1220 099a 8DF84210 		strb	r1, [sp, #66]
 1221 099e 8DF84320 		strb	r2, [sp, #67]
 1222 09a2 BDF84260 		ldrh	r6, [sp, #66]
 1223 09a6 A642     		cmp	r6, r4
 1224 09a8 7FF4FFAC 		bne	.L68
 1225 09ac FFF731BB 		b	.L39
 1226              	.L76:
 1227 09b0 2046     		mov	r0, r4
 1228 09b2 FFF7FEFF 		bl	lv_indev_wait_release
 1229 09b6 B9F1640F 		cmp	r9, #100
 1230 09ba 28BF     		it	cs
 1231 09bc 4FF06409 		movcs	r9, #100
 1232 09c0 B8F1640F 		cmp	r8, #100
 1233 09c4 28BF     		it	cs
 1234 09c6 4FF06408 		movcs	r8, #100
 1235 09ca 3746     		mov	r7, r6
 1236 09cc FFF7E5BB 		b	.L78
 1237              	.L75:
 1238 09d0 B9F1640F 		cmp	r9, #100
 1239 09d4 28BF     		it	cs
 1240 09d6 4FF06409 		movcs	r9, #100
 1241 09da 4FF06408 		mov	r8, #100
 1242 09de FFF7CCBB 		b	.L77
 1243              	.L74:
 1244 09e2 B8F1640F 		cmp	r8, #100
 1245 09e6 28BF     		it	cs
 1246 09e8 4FF06408 		movcs	r8, #100
 1247 09ec 4FF06409 		mov	r9, #100
 1248 09f0 FFF7C3BB 		b	.L77
 1249              	.L65:
 1250 09f4 002A     		cmp	r2, #0
 1251 09f6 3CD0     		beq	.L117
 1252 09f8 531E     		subs	r3, r2, #1
 1253 09fa DBB2     		uxtb	r3, r3
 1254 09fc 642B     		cmp	r3, #100
 1255 09fe 28BF     		it	cs
 1256 0a00 6423     		movcs	r3, #100
 1257 0a02 1A46     		mov	r2, r3
 1258              	.L72:
 1259 0a04 6429     		cmp	r1, #100
 1260 0a06 28BF     		it	cs
 1261 0a08 6421     		movcs	r1, #100
 1262 0a0a 6FE7     		b	.L67
 1263              	.L58:
ARM GAS  /var/folders/lp/x54gwt890xv47sdkqj1k04q40000gn/T//ccCJA9wb.s 			page 23


 1264 0a0c 224B     		ldr	r3, .L162+28
 1265 0a0e 0132     		adds	r2, r2, #1
 1266 0a10 A3FB0243 		umull	r4, r3, r3, r2
 1267 0a14 5B09     		lsrs	r3, r3, #5
 1268 0a16 6424     		movs	r4, #100
 1269 0a18 04FB1322 		mls	r2, r4, r3, r2
 1270 0a1c D2B2     		uxtb	r2, r2
 1271 0a1e 7CE7     		b	.L60
 1272              	.L156:
 1273 0a20 642A     		cmp	r2, #100
 1274 0a22 28BF     		it	cs
 1275 0a24 6422     		movcs	r2, #100
 1276 0a26 4FF00003 		mov	r3, #0	@ movhi
 1277 0a2a 6429     		cmp	r1, #100
 1278 0a2c 62F30703 		bfi	r3, r2, #0, #8
 1279 0a30 28BF     		it	cs
 1280 0a32 6421     		movcs	r1, #100
 1281 0a34 61F30F23 		bfi	r3, r1, #8, #8
 1282 0a38 F4E4     		b	.L61
 1283              	.L91:
 1284 0a3a 6422     		movs	r2, #100
 1285 0a3c 02FB03F3 		mul	r3, r2, r3
 1286 0a40 DB08     		lsrs	r3, r3, #3
 1287 0a42 A4FB0343 		umull	r4, r3, r4, r3
 1288 0a46 C3F38706 		ubfx	r6, r3, #2, #8
 1289 0a4a 8AE7     		b	.L94
 1290              	.L157:
 1291 0a4c 642E     		cmp	r6, #100
 1292 0a4e 3446     		mov	r4, r6
 1293 0a50 4FF00002 		mov	r2, #0	@ movhi
 1294 0a54 28BF     		it	cs
 1295 0a56 6424     		movcs	r4, #100
 1296 0a58 6428     		cmp	r0, #100
 1297 0a5a 64F30702 		bfi	r2, r4, #0, #8
 1298 0a5e 28BF     		it	cs
 1299 0a60 6420     		movcs	r0, #100
 1300 0a62 60F30F22 		bfi	r2, r0, #8, #8
 1301 0a66 56E4     		b	.L97
 1302              	.L116:
 1303 0a68 6421     		movs	r1, #100
 1304 0a6a 3CE7     		b	.L71
 1305              	.L115:
 1306 0a6c 4FF4B470 		mov	r0, #360
 1307 0a70 9BE4     		b	.L68
 1308              	.L117:
 1309 0a72 6422     		movs	r2, #100
 1310 0a74 C6E7     		b	.L72
 1311              	.L150:
 1312 0a76 1046     		mov	r0, r2
 1313 0a78 D9E4     		b	.L62
 1314              	.L163:
 1315 0a7a 00BF     		.align	2
 1316              	.L162:
 1317 0a7c 00000000 		.word	m.3
 1318 0a80 00000000 		.word	s.2
 1319 0a84 00000000 		.word	v.1
 1320 0a88 176CC116 		.word	381774871
ARM GAS  /var/folders/lp/x54gwt890xv47sdkqj1k04q40000gn/T//ccCJA9wb.s 			page 24


 1321 0a8c 00000000 		.word	h.0
 1322 0a90 CDCCCCCC 		.word	-858993459
 1323 0a94 ABAAAAAA 		.word	-1431655765
 1324 0a98 1F85EB51 		.word	1374389535
 1325              	.L118:
 1326 0a9c 1946     		mov	r1, r3
 1327 0a9e 3FE4     		b	.L98
 1329              		.section	.text.lv_colorwheel_create,"ax",%progbits
 1330              		.align	1
 1331              		.p2align 2,,3
 1332              		.global	lv_colorwheel_create
 1333              		.syntax unified
 1334              		.thumb
 1335              		.thumb_func
 1337              	lv_colorwheel_create:
 1338              		@ args = 0, pretend = 0, frame = 0
 1339              		@ frame_needed = 0, uses_anonymous_args = 0
 1340 0000 10B5     		push	{r4, lr}
 1341 0002 064B     		ldr	r3, .L166
 1342 0004 0446     		mov	r4, r0
 1343 0006 0A46     		mov	r2, r1
 1344 0008 0548     		ldr	r0, .L166+4
 1345 000a 1A70     		strb	r2, [r3]
 1346 000c 2146     		mov	r1, r4
 1347 000e FFF7FEFF 		bl	lv_obj_class_create_obj
 1348 0012 0446     		mov	r4, r0
 1349 0014 FFF7FEFF 		bl	lv_obj_class_init_obj
 1350 0018 2046     		mov	r0, r4
 1351 001a 10BD     		pop	{r4, pc}
 1352              	.L167:
 1353              		.align	2
 1354              	.L166:
 1355 001c 00000000 		.word	create_knob_recolor
 1356 0020 00000000 		.word	lv_colorwheel_class
 1358              		.section	.text.lv_colorwheel_set_hsv,"ax",%progbits
 1359              		.align	1
 1360              		.p2align 2,,3
 1361              		.global	lv_colorwheel_set_hsv
 1362              		.syntax unified
 1363              		.thumb
 1364              		.thumb_func
 1366              	lv_colorwheel_set_hsv:
 1367              		@ args = 0, pretend = 0, frame = 8
 1368              		@ frame_needed = 0, uses_anonymous_args = 0
 1369 0000 30B5     		push	{r4, r5, lr}
 1370 0002 8BB2     		uxth	r3, r1
 1371 0004 B3F5B47F 		cmp	r3, #360
 1372 0008 C1F30742 		ubfx	r2, r1, #16, #8
 1373 000c 83B0     		sub	sp, sp, #12
 1374 000e 0446     		mov	r4, r0
 1375 0010 4FEA1161 		lsr	r1, r1, #24
 1376 0014 09D9     		bls	.L169
 1377 0016 184D     		ldr	r5, .L175
 1378 0018 D808     		lsrs	r0, r3, #3
 1379 001a A5FB0050 		umull	r5, r0, r5, r0
 1380 001e 8008     		lsrs	r0, r0, #2
 1381 0020 4FF4B475 		mov	r5, #360
ARM GAS  /var/folders/lp/x54gwt890xv47sdkqj1k04q40000gn/T//ccCJA9wb.s 			page 25


 1382 0024 05FB1033 		mls	r3, r5, r0, r3
 1383 0028 9BB2     		uxth	r3, r3
 1384              	.L169:
 1385 002a 642A     		cmp	r2, #100
 1386 002c B4F824C0 		ldrh	ip, [r4, #36]
 1387 0030 28BF     		it	cs
 1388 0032 6422     		movcs	r2, #100
 1389 0034 4FF00000 		mov	r0, #0	@ movhi
 1390 0038 6429     		cmp	r1, #100
 1391 003a 28BF     		it	cs
 1392 003c 6421     		movcs	r1, #100
 1393 003e 62F30700 		bfi	r0, r2, #0, #8
 1394 0042 9C45     		cmp	ip, r3
 1395 0044 61F30F20 		bfi	r0, r1, #8, #8
 1396 0048 08D1     		bne	.L172
 1397 004a 8DF80620 		strb	r2, [sp, #6]
 1398 004e 8DF80710 		strb	r1, [sp, #7]
 1399 0052 BDF80610 		ldrh	r1, [sp, #6]
 1400 0056 E28C     		ldrh	r2, [r4, #38]
 1401 0058 9142     		cmp	r1, r2
 1402 005a 0AD0     		beq	.L174
 1403              	.L172:
 1404 005c A384     		strh	r3, [r4, #36]	@ movhi
 1405 005e E084     		strh	r0, [r4, #38]	@ movhi
 1406 0060 2046     		mov	r0, r4
 1407 0062 FFF7FEFF 		bl	refr_knob_pos
 1408 0066 2046     		mov	r0, r4
 1409 0068 FFF7FEFF 		bl	lv_obj_invalidate
 1410 006c 0120     		movs	r0, #1
 1411 006e 03B0     		add	sp, sp, #12
 1412              		@ sp needed
 1413 0070 30BD     		pop	{r4, r5, pc}
 1414              	.L174:
 1415 0072 0020     		movs	r0, #0
 1416 0074 03B0     		add	sp, sp, #12
 1417              		@ sp needed
 1418 0076 30BD     		pop	{r4, r5, pc}
 1419              	.L176:
 1420              		.align	2
 1421              	.L175:
 1422 0078 176CC116 		.word	381774871
 1424              		.section	.text.lv_colorwheel_set_rgb,"ax",%progbits
 1425              		.align	1
 1426              		.p2align 2,,3
 1427              		.global	lv_colorwheel_set_rgb
 1428              		.syntax unified
 1429              		.thumb
 1430              		.thumb_func
 1432              	lv_colorwheel_set_rgb:
 1433              		@ args = 0, pretend = 0, frame = 8
 1434              		@ frame_needed = 0, uses_anonymous_args = 0
 1435 0000 01F00702 		and	r2, r1, #7
 1436 0004 C1F34233 		ubfx	r3, r1, #13, #3
 1437 0008 03EBC203 		add	r3, r3, r2, lsl #3
 1438 000c C1F3C402 		ubfx	r2, r1, #3, #5
 1439 0010 30B5     		push	{r4, r5, lr}
 1440 0012 02EB4214 		add	r4, r2, r2, lsl #5
ARM GAS  /var/folders/lp/x54gwt890xv47sdkqj1k04q40000gn/T//ccCJA9wb.s 			page 26


 1441 0016 C2EBC402 		rsb	r2, r2, r4, lsl #3
 1442 001a 0732     		adds	r2, r2, #7
 1443 001c 5211     		asrs	r2, r2, #5
 1444 001e 4FF0000C 		mov	ip, #0
 1445 0022 C1F30421 		ubfx	r1, r1, #8, #5
 1446 0026 62F3174C 		bfi	ip, r2, #16, #8
 1447 002a 03EBC312 		add	r2, r3, r3, lsl #7
 1448 002e 03EB4203 		add	r3, r3, r2, lsl #1
 1449 0032 01EB4112 		add	r2, r1, r1, lsl #5
 1450 0036 C1EBC201 		rsb	r1, r1, r2, lsl #3
 1451 003a 0333     		adds	r3, r3, #3
 1452 003c 9B11     		asrs	r3, r3, #6
 1453 003e 0731     		adds	r1, r1, #7
 1454 0040 63F30F2C 		bfi	ip, r3, #8, #8
 1455 0044 4911     		asrs	r1, r1, #5
 1456 0046 61F3070C 		bfi	ip, r1, #0, #8
 1457 004a 4CF07F4C 		orr	ip, ip, #-16777216
 1458 004e 5FFA8CF2 		uxtb	r2, ip
 1459 0052 83B0     		sub	sp, sp, #12
 1460 0054 0446     		mov	r4, r0
 1461 0056 CCF30721 		ubfx	r1, ip, #8, #8
 1462 005a CCF30740 		ubfx	r0, ip, #16, #8
 1463 005e FFF7FEFF 		bl	lv_color_rgb_to_hsv
 1464 0062 83B2     		uxth	r3, r0
 1465 0064 B3F5B47F 		cmp	r3, #360
 1466 0068 C0F30742 		ubfx	r2, r0, #16, #8
 1467 006c 4FEA1060 		lsr	r0, r0, #24
 1468 0070 09D9     		bls	.L178
 1469 0072 184D     		ldr	r5, .L184
 1470 0074 D908     		lsrs	r1, r3, #3
 1471 0076 A5FB0151 		umull	r5, r1, r5, r1
 1472 007a 8908     		lsrs	r1, r1, #2
 1473 007c 4FF4B475 		mov	r5, #360
 1474 0080 05FB1133 		mls	r3, r5, r1, r3
 1475 0084 9BB2     		uxth	r3, r3
 1476              	.L178:
 1477 0086 642A     		cmp	r2, #100
 1478 0088 B4F824C0 		ldrh	ip, [r4, #36]
 1479 008c 28BF     		it	cs
 1480 008e 6422     		movcs	r2, #100
 1481 0090 4FF00001 		mov	r1, #0	@ movhi
 1482 0094 6428     		cmp	r0, #100
 1483 0096 28BF     		it	cs
 1484 0098 6420     		movcs	r0, #100
 1485 009a 62F30701 		bfi	r1, r2, #0, #8
 1486 009e 9C45     		cmp	ip, r3
 1487 00a0 60F30F21 		bfi	r1, r0, #8, #8
 1488 00a4 08D1     		bne	.L181
 1489 00a6 8DF80620 		strb	r2, [sp, #6]
 1490 00aa 8DF80700 		strb	r0, [sp, #7]
 1491 00ae BDF80600 		ldrh	r0, [sp, #6]
 1492 00b2 E28C     		ldrh	r2, [r4, #38]
 1493 00b4 9042     		cmp	r0, r2
 1494 00b6 0AD0     		beq	.L183
 1495              	.L181:
 1496 00b8 A384     		strh	r3, [r4, #36]	@ movhi
 1497 00ba E184     		strh	r1, [r4, #38]	@ movhi
ARM GAS  /var/folders/lp/x54gwt890xv47sdkqj1k04q40000gn/T//ccCJA9wb.s 			page 27


 1498 00bc 2046     		mov	r0, r4
 1499 00be FFF7FEFF 		bl	refr_knob_pos
 1500 00c2 2046     		mov	r0, r4
 1501 00c4 FFF7FEFF 		bl	lv_obj_invalidate
 1502 00c8 0120     		movs	r0, #1
 1503 00ca 03B0     		add	sp, sp, #12
 1504              		@ sp needed
 1505 00cc 30BD     		pop	{r4, r5, pc}
 1506              	.L183:
 1507 00ce 0020     		movs	r0, #0
 1508 00d0 03B0     		add	sp, sp, #12
 1509              		@ sp needed
 1510 00d2 30BD     		pop	{r4, r5, pc}
 1511              	.L185:
 1512              		.align	2
 1513              	.L184:
 1514 00d4 176CC116 		.word	381774871
 1516              		.section	.text.lv_colorwheel_set_mode,"ax",%progbits
 1517              		.align	1
 1518              		.p2align 2,,3
 1519              		.global	lv_colorwheel_set_mode
 1520              		.syntax unified
 1521              		.thumb
 1522              		.thumb_func
 1524              	lv_colorwheel_set_mode:
 1525              		@ args = 0, pretend = 0, frame = 0
 1526              		@ frame_needed = 0, uses_anonymous_args = 0
 1527 0000 10B5     		push	{r4, lr}
 1528 0002 90F83C30 		ldrb	r3, [r0, #60]	@ zero_extendqisi2
 1529 0006 61F30103 		bfi	r3, r1, #0, #2
 1530 000a 0446     		mov	r4, r0
 1531 000c 80F83C30 		strb	r3, [r0, #60]
 1532 0010 FFF7FEFF 		bl	refr_knob_pos
 1533 0014 2046     		mov	r0, r4
 1534 0016 BDE81040 		pop	{r4, lr}
 1535 001a FFF7FEBF 		b	lv_obj_invalidate
 1537 001e 00BF     		.section	.text.lv_colorwheel_set_mode_fixed,"ax",%progbits
 1538              		.align	1
 1539              		.p2align 2,,3
 1540              		.global	lv_colorwheel_set_mode_fixed
 1541              		.syntax unified
 1542              		.thumb
 1543              		.thumb_func
 1545              	lv_colorwheel_set_mode_fixed:
 1546              		@ args = 0, pretend = 0, frame = 0
 1547              		@ frame_needed = 0, uses_anonymous_args = 0
 1548              		@ link register save eliminated.
 1549 0000 90F83C30 		ldrb	r3, [r0, #60]	@ zero_extendqisi2
 1550 0004 61F38203 		bfi	r3, r1, #2, #1
 1551 0008 80F83C30 		strb	r3, [r0, #60]
 1552 000c 7047     		bx	lr
 1554 000e 00BF     		.section	.text.lv_colorwheel_get_hsv,"ax",%progbits
 1555              		.align	1
 1556              		.p2align 2,,3
 1557              		.global	lv_colorwheel_get_hsv
 1558              		.syntax unified
 1559              		.thumb
ARM GAS  /var/folders/lp/x54gwt890xv47sdkqj1k04q40000gn/T//ccCJA9wb.s 			page 28


 1560              		.thumb_func
 1562              	lv_colorwheel_get_hsv:
 1563              		@ args = 0, pretend = 0, frame = 8
 1564              		@ frame_needed = 0, uses_anonymous_args = 0
 1565              		@ link register save eliminated.
 1566 0000 406A     		ldr	r0, [r0, #36]
 1567 0002 82B0     		sub	sp, sp, #8
 1568 0004 02B0     		add	sp, sp, #8
 1569              		@ sp needed
 1570 0006 7047     		bx	lr
 1572              		.section	.text.lv_colorwheel_get_rgb,"ax",%progbits
 1573              		.align	1
 1574              		.p2align 2,,3
 1575              		.global	lv_colorwheel_get_rgb
 1576              		.syntax unified
 1577              		.thumb
 1578              		.thumb_func
 1580              	lv_colorwheel_get_rgb:
 1581              		@ args = 0, pretend = 0, frame = 0
 1582              		@ frame_needed = 0, uses_anonymous_args = 0
 1583              		@ link register save eliminated.
 1584 0000 90F82720 		ldrb	r2, [r0, #39]	@ zero_extendqisi2
 1585 0004 90F82610 		ldrb	r1, [r0, #38]	@ zero_extendqisi2
 1586 0008 808C     		ldrh	r0, [r0, #36]
 1587 000a FFF7FEBF 		b	lv_color_hsv_to_rgb
 1589 000e 00BF     		.section	.text.lv_colorwheel_get_color_mode,"ax",%progbits
 1590              		.align	1
 1591              		.p2align 2,,3
 1592              		.global	lv_colorwheel_get_color_mode
 1593              		.syntax unified
 1594              		.thumb
 1595              		.thumb_func
 1597              	lv_colorwheel_get_color_mode:
 1598              		@ args = 0, pretend = 0, frame = 0
 1599              		@ frame_needed = 0, uses_anonymous_args = 0
 1600              		@ link register save eliminated.
 1601 0000 90F83C00 		ldrb	r0, [r0, #60]	@ zero_extendqisi2
 1602 0004 00F00300 		and	r0, r0, #3
 1603 0008 7047     		bx	lr
 1605 000a 00BF     		.section	.text.lv_colorwheel_get_color_mode_fixed,"ax",%progbits
 1606              		.align	1
 1607              		.p2align 2,,3
 1608              		.global	lv_colorwheel_get_color_mode_fixed
 1609              		.syntax unified
 1610              		.thumb
 1611              		.thumb_func
 1613              	lv_colorwheel_get_color_mode_fixed:
 1614              		@ args = 0, pretend = 0, frame = 0
 1615              		@ frame_needed = 0, uses_anonymous_args = 0
 1616              		@ link register save eliminated.
 1617 0000 90F83C00 		ldrb	r0, [r0, #60]	@ zero_extendqisi2
 1618 0004 C0F38000 		ubfx	r0, r0, #2, #1
 1619 0008 7047     		bx	lr
 1621 000a 00BF     		.section	.bss.h.0,"aw",%nobits
 1622              		.align	1
 1625              	h.0:
 1626 0000 0000     		.space	2
ARM GAS  /var/folders/lp/x54gwt890xv47sdkqj1k04q40000gn/T//ccCJA9wb.s 			page 29


 1627              		.section	.bss.v.1,"aw",%nobits
 1630              	v.1:
 1631 0000 00       		.space	1
 1632              		.section	.bss.s.2,"aw",%nobits
 1635              	s.2:
 1636 0000 00       		.space	1
 1637              		.section	.data.m.3,"aw"
 1640              	m.3:
 1641 0000 FF       		.byte	-1
 1642              		.section	.data.angle_saved.4,"aw"
 1643              		.align	1
 1646              	angle_saved.4:
 1647 0000 FFFF     		.short	-1
 1648              		.section	.bss.create_knob_recolor,"aw",%nobits
 1651              	create_knob_recolor:
 1652 0000 00       		.space	1
 1653              		.global	lv_colorwheel_class
 1654              		.section	.rodata.lv_colorwheel_class,"a"
 1655              		.align	2
 1658              	lv_colorwheel_class:
 1659 0000 00000000 		.word	lv_obj_class
 1660 0004 00000000 		.word	lv_colorwheel_constructor
 1661 0008 00000000 		.space	8
 1661      00000000 
 1662 0010 00000000 		.word	lv_colorwheel_event
 1663 0014 0401     		.short	260
 1664 0016 0401     		.short	260
 1665 0018 01       		.byte	1
 1666 0019 04       		.byte	4
 1667 001a 00       		.byte	0
 1668 001b 00       		.space	1
 1669              		.ident	"GCC: (xPack GNU Arm Embedded GCC arm64) 13.3.1 20240614"
ARM GAS  /var/folders/lp/x54gwt890xv47sdkqj1k04q40000gn/T//ccCJA9wb.s 			page 30

