ARM GAS  /var/folders/lp/x54gwt890xv47sdkqj1k04q40000gn/T//cc9lx2Oh.s 			page 1


   1              		.cpu cortex-m4
   2              		.arch armv7e-m
   3              		.fpu fpv4-sp-d16
   4              		.eabi_attribute 27, 1
   5              		.eabi_attribute 28, 1
   6              		.eabi_attribute 20, 1
   7              		.eabi_attribute 21, 1
   8              		.eabi_attribute 23, 3
   9              		.eabi_attribute 24, 1
  10              		.eabi_attribute 25, 1
  11              		.eabi_attribute 26, 1
  12              		.eabi_attribute 30, 2
  13              		.eabi_attribute 34, 1
  14              		.eabi_attribute 18, 4
  15              		.file	"lv_checkbox.c"
  16              		.text
  17              		.section	.rodata.lv_checkbox_constructor.str1.4,"aMS",%progbits,1
  18              		.align	2
  19              	.LC0:
  20 0000 43686563 		.ascii	"Check box\000"
  20      6B20626F 
  20      7800
  21              		.section	.text.lv_checkbox_constructor,"ax",%progbits
  22              		.align	1
  23              		.p2align 2,,3
  24              		.syntax unified
  25              		.thumb
  26              		.thumb_func
  28              	lv_checkbox_constructor:
  29              		@ args = 0, pretend = 0, frame = 0
  30              		@ frame_needed = 0, uses_anonymous_args = 0
  31 0000 10B5     		push	{r4, lr}
  32 0002 91F82830 		ldrb	r3, [r1, #40]	@ zero_extendqisi2
  33 0006 0B4A     		ldr	r2, .L4
  34 0008 4A62     		str	r2, [r1, #36]
  35 000a 0C46     		mov	r4, r1
  36 000c 43F00103 		orr	r3, r3, #1
  37 0010 81F82830 		strb	r3, [r1, #40]
  38 0014 2046     		mov	r0, r4
  39 0016 0221     		movs	r1, #2
  40 0018 FFF7FEFF 		bl	lv_obj_add_flag
  41 001c 2046     		mov	r0, r4
  42 001e 0821     		movs	r1, #8
  43 0020 FFF7FEFF 		bl	lv_obj_add_flag
  44 0024 2046     		mov	r0, r4
  45 0026 4FF48061 		mov	r1, #1024
  46 002a BDE81040 		pop	{r4, lr}
  47 002e FFF7FEBF 		b	lv_obj_add_flag
  48              	.L5:
  49 0032 00BF     		.align	2
  50              	.L4:
  51 0034 00000000 		.word	.LC0
  53              		.section	.text.lv_checkbox_event,"ax",%progbits
  54              		.align	1
  55              		.p2align 2,,3
  56              		.syntax unified
  57              		.thumb
ARM GAS  /var/folders/lp/x54gwt890xv47sdkqj1k04q40000gn/T//cc9lx2Oh.s 			page 2


  58              		.thumb_func
  60              	lv_checkbox_event:
  61              		@ args = 0, pretend = 0, frame = 216
  62              		@ frame_needed = 0, uses_anonymous_args = 0
  63 0000 2DE9F04F 		push	{r4, r5, r6, r7, r8, r9, r10, fp, lr}
  64 0004 BA4C     		ldr	r4, .L16
  65 0006 BBB0     		sub	sp, sp, #236
  66 0008 2046     		mov	r0, r4
  67 000a 0E46     		mov	r6, r1
  68 000c FFF7FEFF 		bl	lv_obj_event_base
  69 0010 0128     		cmp	r0, #1
  70 0012 02D0     		beq	.L13
  71              	.L6:
  72 0014 3BB0     		add	sp, sp, #236
  73              		@ sp needed
  74 0016 BDE8F08F 		pop	{r4, r5, r6, r7, r8, r9, r10, fp, pc}
  75              	.L13:
  76 001a 3046     		mov	r0, r6
  77 001c FFF7FEFF 		bl	lv_event_get_code
  78 0020 0746     		mov	r7, r0
  79 0022 3046     		mov	r0, r6
  80 0024 FFF7FEFF 		bl	lv_event_get_target
  81 0028 2C2F     		cmp	r7, #44
  82 002a 0546     		mov	r5, r0
  83 002c 00F0F780 		beq	.L14
  84 0030 132F     		cmp	r7, #19
  85 0032 00F04C81 		beq	.L15
  86 0036 152F     		cmp	r7, #21
  87 0038 ECD1     		bne	.L6
  88 003a 3046     		mov	r0, r6
  89 003c FFF7FEFF 		bl	lv_event_get_target
  90 0040 0546     		mov	r5, r0
  91 0042 3046     		mov	r0, r6
  92 0044 FFF7FEFF 		bl	lv_event_get_draw_ctx
  93 0048 5722     		movs	r2, #87
  94 004a 8146     		mov	r9, r0
  95 004c 0021     		movs	r1, #0
  96 004e 2846     		mov	r0, r5
  97 0050 FFF7FEFF 		bl	lv_obj_get_style_prop
  98 0054 0346     		mov	r3, r0
  99 0056 3222     		movs	r2, #50
 100 0058 B3F90860 		ldrsh	r6, [r3, #8]
 101 005c 0693     		str	r3, [sp, #24]
 102 005e 0021     		movs	r1, #0
 103 0060 2846     		mov	r0, r5
 104 0062 0596     		str	r6, [sp, #20]
 105 0064 FFF7FEFF 		bl	lv_obj_get_style_prop
 106 0068 1022     		movs	r2, #16
 107 006a 0646     		mov	r6, r0
 108 006c 0021     		movs	r1, #0
 109 006e 2846     		mov	r0, r5
 110 0070 FFF7FEFF 		bl	lv_obj_get_style_prop
 111 0074 B6B2     		uxth	r6, r6
 112 0076 3044     		add	r0, r0, r6
 113 0078 1FFA80FA 		uxth	r10, r0
 114 007c 1222     		movs	r2, #18
 115 007e 0021     		movs	r1, #0
ARM GAS  /var/folders/lp/x54gwt890xv47sdkqj1k04q40000gn/T//cc9lx2Oh.s 			page 3


 116 0080 2846     		mov	r0, r5
 117 0082 FFF7FEFF 		bl	lv_obj_get_style_prop
 118 0086 3A46     		mov	r2, r7
 119 0088 0644     		add	r6, r6, r0
 120 008a 0021     		movs	r1, #0
 121 008c 2846     		mov	r0, r5
 122 008e FFF7FEFF 		bl	lv_obj_get_style_prop
 123 0092 1222     		movs	r2, #18
 124 0094 0790     		str	r0, [sp, #28]
 125 0096 4FF40031 		mov	r1, #131072
 126 009a 2846     		mov	r0, r5
 127 009c FFF7FEFF 		bl	lv_obj_get_style_prop
 128 00a0 1322     		movs	r2, #19
 129 00a2 0890     		str	r0, [sp, #32]
 130 00a4 4FF40031 		mov	r1, #131072
 131 00a8 2846     		mov	r0, r5
 132 00aa FFF7FEFF 		bl	lv_obj_get_style_prop
 133 00ae 1022     		movs	r2, #16
 134 00b0 0990     		str	r0, [sp, #36]
 135 00b2 4FF40031 		mov	r1, #131072
 136 00b6 2846     		mov	r0, r5
 137 00b8 FFF7FEFF 		bl	lv_obj_get_style_prop
 138 00bc 1122     		movs	r2, #17
 139 00be 8046     		mov	r8, r0
 140 00c0 4FF40031 		mov	r1, #131072
 141 00c4 2846     		mov	r0, r5
 142 00c6 FFF7FEFF 		bl	lv_obj_get_style_prop
 143 00ca 6922     		movs	r2, #105
 144 00cc 0B90     		str	r0, [sp, #44]
 145 00ce 4FF40031 		mov	r1, #131072
 146 00d2 2846     		mov	r0, r5
 147 00d4 FFF7FEFF 		bl	lv_obj_get_style_prop
 148 00d8 6A22     		movs	r2, #106
 149 00da 4FF40031 		mov	r1, #131072
 150 00de 0746     		mov	r7, r0
 151 00e0 2846     		mov	r0, r5
 152 00e2 FFF7FEFF 		bl	lv_obj_get_style_prop
 153 00e6 0DF1680B 		add	fp, sp, #104
 154 00ea 0A90     		str	r0, [sp, #40]
 155 00ec 5846     		mov	r0, fp
 156 00ee FFF7FEFF 		bl	lv_draw_rect_dsc_init
 157 00f2 5A46     		mov	r2, fp
 158 00f4 2846     		mov	r0, r5
 159 00f6 4FF40031 		mov	r1, #131072
 160 00fa FFF7FEFF 		bl	lv_obj_init_draw_rect_dsc
 161 00fe DDE90821 		ldrd	r2, r1, [sp, #32]
 162 0102 0B9B     		ldr	r3, [sp, #44]
 163 0104 BDF82800 		ldrh	r0, [sp, #40]
 164 0108 0A44     		add	r2, r2, r1
 165 010a 9844     		add	r8, r8, r3
 166 010c 531E     		subs	r3, r2, #1
 167 010e AA8A     		ldrh	r2, [r5, #20]
 168 0110 B6B2     		uxth	r6, r6
 169 0112 3244     		add	r2, r2, r6
 170 0114 BDF81460 		ldrh	r6, [sp, #20]
 171 0118 92B2     		uxth	r2, r2
 172 011a 3344     		add	r3, r3, r6
ARM GAS  /var/folders/lp/x54gwt890xv47sdkqj1k04q40000gn/T//cc9lx2Oh.s 			page 4


 173 011c 1344     		add	r3, r3, r2
 174 011e 08F1FF31 		add	r1, r8, #-1
 175 0122 1FFA83F8 		uxth	r8, r3
 176 0126 EB8A     		ldrh	r3, [r5, #22]
 177 0128 BFB2     		uxth	r7, r7
 178 012a 0E44     		add	r6, r6, r1
 179 012c 0021     		movs	r1, #0
 180 012e A2EB070C 		sub	ip, r2, r7
 181 0132 B6B2     		uxth	r6, r6
 182 0134 4744     		add	r7, r7, r8
 183 0136 5344     		add	r3, r3, r10
 184 0138 0A46     		mov	r2, r1
 185 013a 9BB2     		uxth	r3, r3
 186 013c 67F30F02 		bfi	r2, r7, #0, #16
 187 0140 8719     		adds	r7, r0, r6
 188 0142 6CF30F01 		bfi	r1, ip, #0, #16
 189 0146 181A     		subs	r0, r3, r0
 190 0148 3B44     		add	r3, r3, r7
 191 014a 63F31F42 		bfi	r2, r3, #16, #16
 192 014e 60F31F41 		bfi	r1, r0, #16, #16
 193 0152 CDE90E12 		strd	r1, r2, [sp, #56]
 194 0156 28A8     		add	r0, sp, #160
 195 0158 4946     		mov	r1, r9
 196 015a FFF7FEFF 		bl	lv_obj_draw_dsc_init
 197 015e 0EAF     		add	r7, sp, #56
 198 0160 4FF40033 		mov	r3, #131072
 199 0164 2994     		str	r4, [sp, #164]
 200 0166 28AA     		add	r2, sp, #160
 201 0168 0024     		movs	r4, #0
 202 016a 1A21     		movs	r1, #26
 203 016c 2846     		mov	r0, r5
 204 016e 3593     		str	r3, [sp, #212]
 205 0170 2A94     		str	r4, [sp, #168]
 206 0172 2B97     		str	r7, [sp, #172]
 207 0174 CDF8B0B0 		str	fp, [sp, #176]
 208 0178 FFF7FEFF 		bl	lv_event_send
 209 017c 3A46     		mov	r2, r7
 210 017e 5946     		mov	r1, fp
 211 0180 4846     		mov	r0, r9
 212 0182 FFF7FEFF 		bl	lv_draw_rect
 213 0186 28AA     		add	r2, sp, #160
 214 0188 1B21     		movs	r1, #27
 215 018a 2846     		mov	r0, r5
 216 018c FFF7FEFF 		bl	lv_event_send
 217 0190 2146     		mov	r1, r4
 218 0192 5922     		movs	r2, #89
 219 0194 2846     		mov	r0, r5
 220 0196 FFF7FEFF 		bl	lv_obj_get_style_prop
 221 019a 2146     		mov	r1, r4
 222 019c 07B2     		sxth	r7, r0
 223 019e 5822     		movs	r2, #88
 224 01a0 2846     		mov	r0, r5
 225 01a2 FFF7FEFF 		bl	lv_obj_get_style_prop
 226 01a6 03B2     		sxth	r3, r0
 227 01a8 41F6FF70 		movw	r0, #8191
 228 01ac 696A     		ldr	r1, [r5, #36]
 229 01ae 069A     		ldr	r2, [sp, #24]
ARM GAS  /var/folders/lp/x54gwt890xv47sdkqj1k04q40000gn/T//cc9lx2Oh.s 			page 5


 230 01b0 0097     		str	r7, [sp]
 231 01b2 0294     		str	r4, [sp, #8]
 232 01b4 0190     		str	r0, [sp, #4]
 233 01b6 0DA8     		add	r0, sp, #52
 234 01b8 FFF7FEFF 		bl	lv_txt_get_size
 235 01bc 12AA     		add	r2, sp, #72
 236 01be 1046     		mov	r0, r2
 237 01c0 FFF7FEFF 		bl	lv_draw_label_dsc_init
 238 01c4 12AA     		add	r2, sp, #72
 239 01c6 2146     		mov	r1, r4
 240 01c8 2846     		mov	r0, r5
 241 01ca FFF7FEFF 		bl	lv_obj_init_draw_label_dsc
 242 01ce 079B     		ldr	r3, [sp, #28]
 243 01d0 9844     		add	r8, r8, r3
 244 01d2 731C     		adds	r3, r6, #1
 245 01d4 059E     		ldr	r6, [sp, #20]
 246 01d6 1BB2     		sxth	r3, r3
 247 01d8 9B1B     		subs	r3, r3, r6
 248 01da 03EBD373 		add	r3, r3, r3, lsr #31
 249 01de 0AEB6302 		add	r2, r10, r3, asr #1
 250 01e2 EB8A     		ldrh	r3, [r5, #22]
 251 01e4 BDF83460 		ldrh	r6, [sp, #52]
 252 01e8 1FFA88F8 		uxth	r8, r8
 253 01ec 1A44     		add	r2, r2, r3
 254 01ee 6B6A     		ldr	r3, [r5, #36]
 255 01f0 BDF83650 		ldrh	r5, [sp, #54]
 256 01f4 0094     		str	r4, [sp]
 257 01f6 92B2     		uxth	r2, r2
 258 01f8 4644     		add	r6, r6, r8
 259 01fa 2746     		mov	r7, r4
 260 01fc 1544     		add	r5, r5, r2
 261 01fe 68F30F07 		bfi	r7, r8, #0, #16
 262 0202 66F30F04 		bfi	r4, r6, #0, #16
 263 0206 62F31F47 		bfi	r7, r2, #16, #16
 264 020a 65F31F44 		bfi	r4, r5, #16, #16
 265 020e 12A9     		add	r1, sp, #72
 266 0210 4846     		mov	r0, r9
 267 0212 10AA     		add	r2, sp, #64
 268 0214 1097     		str	r7, [sp, #64]
 269 0216 1194     		str	r4, [sp, #68]
 270 0218 FFF7FEFF 		bl	lv_draw_label
 271 021c FAE6     		b	.L6
 272              	.L14:
 273 021e 3046     		mov	r0, r6
 274 0220 FFF7FEFF 		bl	lv_event_get_param
 275 0224 5722     		movs	r2, #87
 276 0226 0646     		mov	r6, r0
 277 0228 0021     		movs	r1, #0
 278 022a 2846     		mov	r0, r5
 279 022c FFF7FEFF 		bl	lv_obj_get_style_prop
 280 0230 5922     		movs	r2, #89
 281 0232 B0F90890 		ldrsh	r9, [r0, #8]
 282 0236 0446     		mov	r4, r0
 283 0238 0021     		movs	r1, #0
 284 023a 2846     		mov	r0, r5
 285 023c FFF7FEFF 		bl	lv_obj_get_style_prop
 286 0240 5822     		movs	r2, #88
ARM GAS  /var/folders/lp/x54gwt890xv47sdkqj1k04q40000gn/T//cc9lx2Oh.s 			page 6


 287 0242 07B2     		sxth	r7, r0
 288 0244 0021     		movs	r1, #0
 289 0246 2846     		mov	r0, r5
 290 0248 FFF7FEFF 		bl	lv_obj_get_style_prop
 291 024c 2246     		mov	r2, r4
 292 024e 03B2     		sxth	r3, r0
 293 0250 0024     		movs	r4, #0
 294 0252 41F6FF70 		movw	r0, #8191
 295 0256 696A     		ldr	r1, [r5, #36]
 296 0258 0097     		str	r7, [sp]
 297 025a CDE90104 		strd	r0, r4, [sp, #4]
 298 025e 28A8     		add	r0, sp, #160
 299 0260 FFF7FEFF 		bl	lv_txt_get_size
 300 0264 2146     		mov	r1, r4
 301 0266 1522     		movs	r2, #21
 302 0268 2846     		mov	r0, r5
 303 026a FFF7FEFF 		bl	lv_obj_get_style_prop
 304 026e 1222     		movs	r2, #18
 305 0270 8046     		mov	r8, r0
 306 0272 4FF40031 		mov	r1, #131072
 307 0276 2846     		mov	r0, r5
 308 0278 FFF7FEFF 		bl	lv_obj_get_style_prop
 309 027c 1322     		movs	r2, #19
 310 027e 0746     		mov	r7, r0
 311 0280 4FF40031 		mov	r1, #131072
 312 0284 2846     		mov	r0, r5
 313 0286 FFF7FEFF 		bl	lv_obj_get_style_prop
 314 028a 1022     		movs	r2, #16
 315 028c 8246     		mov	r10, r0
 316 028e 4FF40031 		mov	r1, #131072
 317 0292 2846     		mov	r0, r5
 318 0294 FFF7FEFF 		bl	lv_obj_get_style_prop
 319 0298 1122     		movs	r2, #17
 320 029a 0446     		mov	r4, r0
 321 029c 4FF40031 		mov	r1, #131072
 322 02a0 2846     		mov	r0, r5
 323 02a2 FFF7FEFF 		bl	lv_obj_get_style_prop
 324 02a6 BDF8A030 		ldrh	r3, [sp, #160]
 325 02aa 1FFA89F9 		uxth	r9, r9
 326 02ae 5744     		add	r7, r7, r10
 327 02b0 0444     		add	r4, r4, r0
 328 02b2 4C44     		add	r4, r4, r9
 329 02b4 1F44     		add	r7, r7, r3
 330 02b6 BDF9A230 		ldrsh	r3, [sp, #162]
 331 02ba 24B2     		sxth	r4, r4
 332 02bc 4744     		add	r7, r7, r8
 333 02be 9C42     		cmp	r4, r3
 334 02c0 B944     		add	r9, r9, r7
 335 02c2 B8BF     		it	lt
 336 02c4 1C46     		movlt	r4, r3
 337 02c6 A6F80090 		strh	r9, [r6]	@ movhi
 338 02ca 7480     		strh	r4, [r6, #2]	@ movhi
 339 02cc A2E6     		b	.L6
 340              	.L15:
 341 02ce 3046     		mov	r0, r6
 342 02d0 FFF7FEFF 		bl	lv_event_get_param
 343 02d4 4FF40031 		mov	r1, #131072
ARM GAS  /var/folders/lp/x54gwt890xv47sdkqj1k04q40000gn/T//cc9lx2Oh.s 			page 7


 344 02d8 0446     		mov	r4, r0
 345 02da 2846     		mov	r0, r5
 346 02dc FFF7FEFF 		bl	lv_obj_calculate_ext_draw_size
 347 02e0 B4F90030 		ldrsh	r3, [r4]
 348 02e4 8342     		cmp	r3, r0
 349 02e6 B8BF     		it	lt
 350 02e8 0346     		movlt	r3, r0
 351 02ea 2380     		strh	r3, [r4]	@ movhi
 352 02ec 92E6     		b	.L6
 353              	.L17:
 354 02ee 00BF     		.align	2
 355              	.L16:
 356 02f0 00000000 		.word	lv_checkbox_class
 358              		.section	.text.lv_checkbox_destructor,"ax",%progbits
 359              		.align	1
 360              		.p2align 2,,3
 361              		.syntax unified
 362              		.thumb
 363              		.thumb_func
 365              	lv_checkbox_destructor:
 366              		@ args = 0, pretend = 0, frame = 0
 367              		@ frame_needed = 0, uses_anonymous_args = 0
 368 0000 38B5     		push	{r3, r4, r5, lr}
 369 0002 91F82830 		ldrb	r3, [r1, #40]	@ zero_extendqisi2
 370 0006 13F00105 		ands	r5, r3, #1
 371 000a 00D0     		beq	.L21
 372 000c 38BD     		pop	{r3, r4, r5, pc}
 373              	.L21:
 374 000e 0C46     		mov	r4, r1
 375 0010 486A     		ldr	r0, [r1, #36]
 376 0012 FFF7FEFF 		bl	lv_mem_free
 377 0016 6562     		str	r5, [r4, #36]
 378 0018 38BD     		pop	{r3, r4, r5, pc}
 380 001a 00BF     		.section	.text.lv_checkbox_create,"ax",%progbits
 381              		.align	1
 382              		.p2align 2,,3
 383              		.global	lv_checkbox_create
 384              		.syntax unified
 385              		.thumb
 386              		.thumb_func
 388              	lv_checkbox_create:
 389              		@ args = 0, pretend = 0, frame = 0
 390              		@ frame_needed = 0, uses_anonymous_args = 0
 391 0000 10B5     		push	{r4, lr}
 392 0002 0146     		mov	r1, r0
 393 0004 0348     		ldr	r0, .L24
 394 0006 FFF7FEFF 		bl	lv_obj_class_create_obj
 395 000a 0446     		mov	r4, r0
 396 000c FFF7FEFF 		bl	lv_obj_class_init_obj
 397 0010 2046     		mov	r0, r4
 398 0012 10BD     		pop	{r4, pc}
 399              	.L25:
 400              		.align	2
 401              	.L24:
 402 0014 00000000 		.word	lv_checkbox_class
 404              		.section	.text.lv_checkbox_set_text,"ax",%progbits
 405              		.align	1
ARM GAS  /var/folders/lp/x54gwt890xv47sdkqj1k04q40000gn/T//cc9lx2Oh.s 			page 8


 406              		.p2align 2,,3
 407              		.global	lv_checkbox_set_text
 408              		.syntax unified
 409              		.thumb
 410              		.thumb_func
 412              	lv_checkbox_set_text:
 413              		@ args = 0, pretend = 0, frame = 0
 414              		@ frame_needed = 0, uses_anonymous_args = 0
 415 0000 38B5     		push	{r3, r4, r5, lr}
 416 0002 0446     		mov	r4, r0
 417 0004 0846     		mov	r0, r1
 418 0006 0D46     		mov	r5, r1
 419 0008 FFF7FEFF 		bl	strlen
 420 000c 94F82830 		ldrb	r3, [r4, #40]	@ zero_extendqisi2
 421 0010 DB07     		lsls	r3, r3, #31
 422 0012 00F10101 		add	r1, r0, #1
 423 0016 606A     		ldr	r0, [r4, #36]
 424 0018 15D4     		bmi	.L27
 425 001a FFF7FEFF 		bl	lv_mem_realloc
 426 001e 0346     		mov	r3, r0
 427              	.L28:
 428 0020 2946     		mov	r1, r5
 429 0022 1846     		mov	r0, r3
 430 0024 FFF7FEFF 		bl	strcpy
 431 0028 94F82820 		ldrb	r2, [r4, #40]	@ zero_extendqisi2
 432 002c 6062     		str	r0, [r4, #36]
 433 002e 22F00102 		bic	r2, r2, #1
 434 0032 84F82820 		strb	r2, [r4, #40]
 435 0036 2046     		mov	r0, r4
 436 0038 FFF7FEFF 		bl	lv_obj_refresh_self_size
 437 003c 2046     		mov	r0, r4
 438 003e BDE83840 		pop	{r3, r4, r5, lr}
 439 0042 FFF7FEBF 		b	lv_obj_invalidate
 440              	.L27:
 441 0046 0846     		mov	r0, r1
 442 0048 FFF7FEFF 		bl	lv_mem_alloc
 443 004c 0346     		mov	r3, r0
 444 004e E7E7     		b	.L28
 446              		.section	.text.lv_checkbox_set_text_static,"ax",%progbits
 447              		.align	1
 448              		.p2align 2,,3
 449              		.global	lv_checkbox_set_text_static
 450              		.syntax unified
 451              		.thumb
 452              		.thumb_func
 454              	lv_checkbox_set_text_static:
 455              		@ args = 0, pretend = 0, frame = 0
 456              		@ frame_needed = 0, uses_anonymous_args = 0
 457 0000 38B5     		push	{r3, r4, r5, lr}
 458 0002 90F82830 		ldrb	r3, [r0, #40]	@ zero_extendqisi2
 459 0006 DB07     		lsls	r3, r3, #31
 460 0008 0446     		mov	r4, r0
 461 000a 0D46     		mov	r5, r1
 462 000c 0ED5     		bpl	.L33
 463              	.L31:
 464 000e 94F82830 		ldrb	r3, [r4, #40]	@ zero_extendqisi2
 465 0012 6562     		str	r5, [r4, #36]
ARM GAS  /var/folders/lp/x54gwt890xv47sdkqj1k04q40000gn/T//cc9lx2Oh.s 			page 9


 466 0014 43F00103 		orr	r3, r3, #1
 467 0018 84F82830 		strb	r3, [r4, #40]
 468 001c 2046     		mov	r0, r4
 469 001e FFF7FEFF 		bl	lv_obj_refresh_self_size
 470 0022 2046     		mov	r0, r4
 471 0024 BDE83840 		pop	{r3, r4, r5, lr}
 472 0028 FFF7FEBF 		b	lv_obj_invalidate
 473              	.L33:
 474 002c 406A     		ldr	r0, [r0, #36]
 475 002e FFF7FEFF 		bl	lv_mem_free
 476 0032 ECE7     		b	.L31
 478              		.section	.text.lv_checkbox_get_text,"ax",%progbits
 479              		.align	1
 480              		.p2align 2,,3
 481              		.global	lv_checkbox_get_text
 482              		.syntax unified
 483              		.thumb
 484              		.thumb_func
 486              	lv_checkbox_get_text:
 487              		@ args = 0, pretend = 0, frame = 0
 488              		@ frame_needed = 0, uses_anonymous_args = 0
 489              		@ link register save eliminated.
 490 0000 406A     		ldr	r0, [r0, #36]
 491 0002 7047     		bx	lr
 493              		.global	lv_checkbox_class
 494              		.section	.rodata.lv_checkbox_class,"a"
 495              		.align	2
 498              	lv_checkbox_class:
 499 0000 00000000 		.word	lv_obj_class
 500 0004 00000000 		.word	lv_checkbox_constructor
 501 0008 00000000 		.word	lv_checkbox_destructor
 502 000c 00000000 		.space	4
 503 0010 00000000 		.word	lv_checkbox_event
 504 0014 D127     		.short	10193
 505 0016 D127     		.short	10193
 506 0018 C4       		.byte	196
 507 0019 02       		.byte	2
 508 001a 00       		.byte	0
 509 001b 00       		.space	1
 510              		.ident	"GCC: (xPack GNU Arm Embedded GCC arm64) 13.3.1 20240614"
ARM GAS  /var/folders/lp/x54gwt890xv47sdkqj1k04q40000gn/T//cc9lx2Oh.s 			page 10

