ARM GAS  /var/folders/lp/x54gwt890xv47sdkqj1k04q40000gn/T//ccmZr6Qm.s 			page 1


   1              		.cpu cortex-m4
   2              		.arch armv7e-m
   3              		.fpu fpv4-sp-d16
   4              		.eabi_attribute 27, 1
   5              		.eabi_attribute 28, 1
   6              		.eabi_attribute 20, 1
   7              		.eabi_attribute 21, 1
   8              		.eabi_attribute 23, 3
   9              		.eabi_attribute 24, 1
  10              		.eabi_attribute 25, 1
  11              		.eabi_attribute 26, 1
  12              		.eabi_attribute 30, 2
  13              		.eabi_attribute 34, 1
  14              		.eabi_attribute 18, 4
  15              		.file	"lv_draw_sw_polygon.c"
  16              		.text
  17              		.section	.text.lv_draw_sw_polygon,"ax",%progbits
  18              		.align	1
  19              		.p2align 2,,3
  20              		.global	lv_draw_sw_polygon
  21              		.syntax unified
  22              		.thumb
  23              		.thumb_func
  25              	lv_draw_sw_polygon:
  26              		@ args = 0, pretend = 0, frame = 40
  27              		@ frame_needed = 0, uses_anonymous_args = 0
  28 0000 022B     		cmp	r3, #2
  29 0002 40F23A81 		bls	.L40
  30 0006 2DE9F04F 		push	{r4, r5, r6, r7, r8, r9, r10, fp, lr}
  31 000a 1646     		mov	r6, r2
  32 000c 8DB0     		sub	sp, sp, #52
  33 000e 002A     		cmp	r2, #0
  34 0010 00F03081 		beq	.L1
  35 0014 9F00     		lsls	r7, r3, #2
  36 0016 8046     		mov	r8, r0
  37 0018 3846     		mov	r0, r7
  38 001a 0D46     		mov	r5, r1
  39 001c FFF7FEFF 		bl	lv_mem_buf_get
  40 0020 8346     		mov	fp, r0
  41 0022 0028     		cmp	r0, #0
  42 0024 00F02681 		beq	.L1
  43 0028 3268     		ldr	r2, [r6]	@ unaligned
  44 002a 0260     		str	r2, [r0]	@ unaligned
  45 002c 321F     		subs	r2, r6, #4
  46 002e 3A44     		add	r2, r2, r7
  47 0030 3146     		mov	r1, r6
  48 0032 0024     		movs	r4, #0
  49 0034 07E0     		b	.L5
  50              	.L3:
  51 0036 0B68     		ldr	r3, [r1]	@ unaligned
  52 0038 4BF82430 		str	r3, [fp, r4, lsl #2]	@ unaligned
  53 003c 0431     		adds	r1, r1, #4
  54 003e 8A42     		cmp	r2, r1
  55 0040 1FFA8CF4 		uxth	r4, ip
  56 0044 10D0     		beq	.L45
  57              	.L5:
  58 0046 B1F90000 		ldrsh	r0, [r1]
ARM GAS  /var/folders/lp/x54gwt890xv47sdkqj1k04q40000gn/T//ccmZr6Qm.s 			page 2


  59 004a B1F90430 		ldrsh	r3, [r1, #4]
  60 004e 9842     		cmp	r0, r3
  61 0050 04F1010C 		add	ip, r4, #1
  62 0054 EFD1     		bne	.L3
  63 0056 B1F90200 		ldrsh	r0, [r1, #2]
  64 005a B1F90630 		ldrsh	r3, [r1, #6]
  65 005e 9842     		cmp	r0, r3
  66 0060 E9D1     		bne	.L3
  67 0062 0431     		adds	r1, r1, #4
  68 0064 8A42     		cmp	r2, r1
  69 0066 EED1     		bne	.L5
  70              	.L45:
  71 0068 043F     		subs	r7, r7, #4
  72 006a B6F90010 		ldrsh	r1, [r6]
  73 006e F25F     		ldrsh	r2, [r6, r7]
  74 0070 9142     		cmp	r1, r2
  75 0072 06EB0700 		add	r0, r6, r7
  76 0076 00F00581 		beq	.L46
  77              	.L6:
  78 007a F259     		ldr	r2, [r6, r7]	@ unaligned
  79 007c 4BF82420 		str	r2, [fp, r4, lsl #2]	@ unaligned
  80 0080 0134     		adds	r4, r4, #1
  81 0082 A4B2     		uxth	r4, r4
  82              	.L7:
  83 0084 022C     		cmp	r4, #2
  84 0086 40F20581 		bls	.L47
  85 008a 874A     		ldr	r2, .L51
  86 008c 92E80300 		ldm	r2, {r0, r1}
  87 0090 08AB     		add	r3, sp, #32
  88 0092 83E80300 		stm	r3, {r0, r1}
  89 0096 8548     		ldr	r0, .L51+4
  90 0098 41F6FF76 		movw	r6, #8191
  91 009c 5A46     		mov	r2, fp
  92 009e 0BEB840E 		add	lr, fp, r4, lsl #2
  93 00a2 8446     		mov	ip, r0
  94 00a4 3746     		mov	r7, r6
  95              	.L9:
  96 00a6 B2F90030 		ldrsh	r3, [r2]
  97 00aa 9F42     		cmp	r7, r3
  98 00ac A8BF     		it	ge
  99 00ae 1F46     		movge	r7, r3
 100 00b0 9C45     		cmp	ip, r3
 101 00b2 B8BF     		it	lt
 102 00b4 9C46     		movlt	ip, r3
 103 00b6 B2F90230 		ldrsh	r3, [r2, #2]
 104 00ba 9E42     		cmp	r6, r3
 105 00bc 02F10402 		add	r2, r2, #4
 106 00c0 A8BF     		it	ge
 107 00c2 1E46     		movge	r6, r3
 108 00c4 9842     		cmp	r0, r3
 109 00c6 B8BF     		it	lt
 110 00c8 1846     		movlt	r0, r3
 111 00ca 7245     		cmp	r2, lr
 112 00cc EBD1     		bne	.L9
 113 00ce 0022     		movs	r2, #0
 114 00d0 1146     		mov	r1, r2
 115 00d2 6CF30F01 		bfi	r1, ip, #0, #16
ARM GAS  /var/folders/lp/x54gwt890xv47sdkqj1k04q40000gn/T//ccmZr6Qm.s 			page 3


 116 00d6 67F30F02 		bfi	r2, r7, #0, #16
 117 00da 60F31F41 		bfi	r1, r0, #16, #16
 118 00de 66F31F42 		bfi	r2, r6, #16, #16
 119 00e2 CDE90821 		strd	r2, r1, [sp, #32]
 120 00e6 0AA8     		add	r0, sp, #40
 121 00e8 D8F80820 		ldr	r2, [r8, #8]
 122 00ec 08A9     		add	r1, sp, #32
 123 00ee FFF7FEFF 		bl	_lv_area_intersect
 124 00f2 0028     		cmp	r0, #0
 125 00f4 00F0D480 		beq	.L48
 126 00f8 5F46     		mov	r7, fp
 127 00fa D8F80830 		ldr	r3, [r8, #8]
 128 00fe 0593     		str	r3, [sp, #20]
 129 0100 37F9020F 		ldrsh	r0, [r7, #2]!
 130 0104 0AAB     		add	r3, sp, #40
 131 0106 C8F80830 		str	r3, [r8, #8]
 132 010a 0122     		movs	r2, #1
 133 010c 0026     		movs	r6, #0
 134              	.L13:
 135 010e 37F92230 		ldrsh	r3, [r7, r2, lsl #2]
 136 0112 8342     		cmp	r3, r0
 137 0114 B8BF     		it	lt
 138 0116 16B2     		sxthlt	r6, r2
 139 0118 02F10102 		add	r2, r2, #1
 140 011c B8BF     		it	lt
 141 011e 1846     		movlt	r0, r3
 142 0120 93B2     		uxth	r3, r2
 143 0122 9C42     		cmp	r4, r3
 144 0124 F3D8     		bhi	.L13
 145 0126 2C20     		movs	r0, #44
 146 0128 04FB00F0 		mul	r0, r4, r0
 147 012c FFF7FEFF 		bl	lv_mem_buf_get
 148 0130 0490     		str	r0, [sp, #16]
 149 0132 701E     		subs	r0, r6, #1
 150 0134 B146     		mov	r9, r6
 151 0136 06F10101 		add	r1, r6, #1
 152 013a 00F19F80 		bmi	.L49
 153 013e 8C42     		cmp	r4, r1
 154 0140 CCBF     		ite	gt
 155 0142 0BEB8101 		addgt	r1, fp, r1, lsl #2
 156 0146 5946     		movle	r1, fp
 157              	.L15:
 158 0148 0BEB8007 		add	r7, fp, r0, lsl #2
 159 014c 0BEB8602 		add	r2, fp, r6, lsl #2
 160 0150 3BF826C0 		ldrh	ip, [fp, r6, lsl #2]
 161 0154 B7F802A0 		ldrh	r10, [r7, #2]
 162 0158 B2F90220 		ldrsh	r2, [r2, #2]
 163 015c 0F88     		ldrh	r7, [r1]
 164 015e 3BF82000 		ldrh	r0, [fp, r0, lsl #2]
 165 0162 4988     		ldrh	r1, [r1, #2]
 166 0164 A7EB0C07 		sub	r7, r7, ip
 167 0168 A0EB0C00 		sub	r0, r0, ip
 168 016c 1FFA82FC 		uxth	ip, r2
 169 0170 AAEB0C0A 		sub	r10, r10, ip
 170 0174 1AFB07F3 		smulbb	r3, r10, r7
 171 0178 A1EB0C01 		sub	r1, r1, ip
 172 017c 0293     		str	r3, [sp, #8]
ARM GAS  /var/folders/lp/x54gwt890xv47sdkqj1k04q40000gn/T//ccmZr6Qm.s 			page 4


 173 017e 11FB00F3 		smulbb	r3, r1, r0
 174 0182 CDE90685 		strd	r8, r5, [sp, #24]
 175 0186 DDF810A0 		ldr	r10, [sp, #16]
 176 018a 0393     		str	r3, [sp, #12]
 177 018c 0027     		movs	r7, #0
 178 018e 4CE0     		b	.L25
 179              	.L50:
 180 0190 B9F10108 		subs	r8, r9, #1
 181 0194 48BF     		it	mi
 182 0196 A044     		addmi	r8, r8, r4
 183 0198 751C     		adds	r5, r6, #1
 184 019a A542     		cmp	r5, r4
 185 019c A8BF     		it	ge
 186 019e 0025     		movge	r5, #0
 187 01a0 0BEB8803 		add	r3, fp, r8, lsl #2
 188              	.L18:
 189 01a4 B3F90200 		ldrsh	r0, [r3, #2]
 190 01a8 9042     		cmp	r0, r2
 191 01aa 14DB     		blt	.L20
 192 01ac 11D0     		beq	.L21
 193 01ae B3F90030 		ldrsh	r3, [r3]
 194 01b2 3BF92910 		ldrsh	r1, [fp, r9, lsl #2]
 195 01b6 8B42     		cmp	r3, r1
 196 01b8 0BD0     		beq	.L21
 197 01ba 0090     		str	r0, [sp]
 198 01bc 0120     		movs	r0, #1
 199 01be 0190     		str	r0, [sp, #4]
 200 01c0 5046     		mov	r0, r10
 201 01c2 FFF7FEFF 		bl	lv_draw_mask_line_points_init
 202 01c6 5046     		mov	r0, r10
 203 01c8 0499     		ldr	r1, [sp, #16]
 204 01ca FFF7FEFF 		bl	lv_draw_mask_add
 205 01ce 0AF12C0A 		add	r10, r10, #44
 206              	.L21:
 207 01d2 0137     		adds	r7, r7, #1
 208 01d4 C146     		mov	r9, r8
 209              	.L20:
 210 01d6 BC42     		cmp	r4, r7
 211 01d8 38D0     		beq	.L22
 212 01da 0BEB8503 		add	r3, fp, r5, lsl #2
 213 01de B100     		lsls	r1, r6, #2
 214 01e0 B3F90200 		ldrsh	r0, [r3, #2]
 215 01e4 0BEB8603 		add	r3, fp, r6, lsl #2
 216 01e8 B3F90220 		ldrsh	r2, [r3, #2]
 217 01ec 9042     		cmp	r0, r2
 218 01ee 4FEA8503 		lsl	r3, r5, #2
 219 01f2 14DB     		blt	.L23
 220 01f4 11D0     		beq	.L24
 221 01f6 3BF90330 		ldrsh	r3, [fp, r3]
 222 01fa 3BF90110 		ldrsh	r1, [fp, r1]
 223 01fe 8B42     		cmp	r3, r1
 224 0200 0BD0     		beq	.L24
 225 0202 0090     		str	r0, [sp]
 226 0204 0020     		movs	r0, #0
 227 0206 0190     		str	r0, [sp, #4]
 228 0208 5046     		mov	r0, r10
 229 020a FFF7FEFF 		bl	lv_draw_mask_line_points_init
ARM GAS  /var/folders/lp/x54gwt890xv47sdkqj1k04q40000gn/T//ccmZr6Qm.s 			page 5


 230 020e 5046     		mov	r0, r10
 231 0210 0499     		ldr	r1, [sp, #16]
 232 0212 FFF7FEFF 		bl	lv_draw_mask_add
 233 0216 0AF12C0A 		add	r10, r10, #44
 234              	.L24:
 235 021a 0137     		adds	r7, r7, #1
 236 021c 2E46     		mov	r6, r5
 237              	.L23:
 238 021e BC42     		cmp	r4, r7
 239 0220 14D9     		bls	.L22
 240 0222 0BEB8903 		add	r3, fp, r9, lsl #2
 241 0226 B3F90220 		ldrsh	r2, [r3, #2]
 242              	.L25:
 243 022a DDE90231 		ldrd	r3, r1, [sp, #8]
 244 022e 8B42     		cmp	r3, r1
 245 0230 AEDA     		bge	.L50
 246 0232 09F10108 		add	r8, r9, #1
 247 0236 A045     		cmp	r8, r4
 248 0238 B2BF     		itee	lt
 249 023a 0BEB8803 		addlt	r3, fp, r8, lsl #2
 250 023e 5B46     		movge	r3, fp
 251 0240 4FF00008 		movge	r8, #0
 252 0244 751E     		subs	r5, r6, #1
 253 0246 48BF     		it	mi
 254 0248 2D19     		addmi	r5, r5, r4
 255 024a ABE7     		b	.L18
 256              	.L22:
 257 024c DDE90685 		ldrd	r8, r5, [sp, #24]
 258 0250 08AA     		add	r2, sp, #32
 259 0252 2946     		mov	r1, r5
 260 0254 4046     		mov	r0, r8
 261 0256 FFF7FEFF 		bl	lv_draw_rect
 262 025a 049C     		ldr	r4, [sp, #16]
 263 025c 2046     		mov	r0, r4
 264 025e FFF7FEFF 		bl	lv_draw_mask_remove_custom
 265 0262 2046     		mov	r0, r4
 266 0264 FFF7FEFF 		bl	lv_mem_buf_release
 267 0268 5846     		mov	r0, fp
 268 026a FFF7FEFF 		bl	lv_mem_buf_release
 269 026e 059B     		ldr	r3, [sp, #20]
 270 0270 C8F80830 		str	r3, [r8, #8]
 271              	.L1:
 272 0274 0DB0     		add	sp, sp, #52
 273              		@ sp needed
 274 0276 BDE8F08F 		pop	{r4, r5, r6, r7, r8, r9, r10, fp, pc}
 275              	.L40:
 276 027a 7047     		bx	lr
 277              	.L49:
 278 027c 2044     		add	r0, r0, r4
 279 027e 0BEB8101 		add	r1, fp, r1, lsl #2
 280 0282 61E7     		b	.L15
 281              	.L46:
 282 0284 B0F90220 		ldrsh	r2, [r0, #2]
 283 0288 B6F90210 		ldrsh	r1, [r6, #2]
 284 028c 9142     		cmp	r1, r2
 285 028e 7FF4F4AE 		bne	.L6
 286 0292 F7E6     		b	.L7
ARM GAS  /var/folders/lp/x54gwt890xv47sdkqj1k04q40000gn/T//ccmZr6Qm.s 			page 6


 287              	.L47:
 288 0294 5846     		mov	r0, fp
 289 0296 0DB0     		add	sp, sp, #52
 290              		@ sp needed
 291 0298 BDE8F04F 		pop	{r4, r5, r6, r7, r8, r9, r10, fp, lr}
 292 029c FFF7FEBF 		b	lv_mem_buf_release
 293              	.L48:
 294 02a0 5846     		mov	r0, fp
 295 02a2 FFF7FEFF 		bl	lv_mem_buf_release
 296 02a6 E5E7     		b	.L1
 297              	.L52:
 298              		.align	2
 299              	.L51:
 300 02a8 00000000 		.word	.LANCHOR0
 301 02ac 01E0FFFF 		.word	-8191
 303              		.section	.rodata
 304              		.align	2
 305              		.set	.LANCHOR0,. + 0
 306              	.LC0:
 307 0000 FF1F     		.short	8191
 308 0002 FF1F     		.short	8191
 309 0004 01E0     		.short	-8191
 310 0006 01E0     		.short	-8191
 311              		.ident	"GCC: (xPack GNU Arm Embedded GCC arm64) 13.3.1 20240614"
ARM GAS  /var/folders/lp/x54gwt890xv47sdkqj1k04q40000gn/T//ccmZr6Qm.s 			page 7


DEFINED SYMBOLS
                            *ABS*:00000000 lv_draw_sw_polygon.c
/var/folders/lp/x54gwt890xv47sdkqj1k04q40000gn/T//ccmZr6Qm.s:18     .text.lv_draw_sw_polygon:00000000 $t
/var/folders/lp/x54gwt890xv47sdkqj1k04q40000gn/T//ccmZr6Qm.s:25     .text.lv_draw_sw_polygon:00000000 lv_draw_sw_polygon
/var/folders/lp/x54gwt890xv47sdkqj1k04q40000gn/T//ccmZr6Qm.s:300    .text.lv_draw_sw_polygon:000002a8 $d
/var/folders/lp/x54gwt890xv47sdkqj1k04q40000gn/T//ccmZr6Qm.s:304    .rodata:00000000 $d

UNDEFINED SYMBOLS
lv_mem_buf_get
_lv_area_intersect
lv_draw_mask_line_points_init
lv_draw_mask_add
lv_draw_rect
lv_draw_mask_remove_custom
lv_mem_buf_release
