ARM GAS  /var/folders/lp/x54gwt890xv47sdkqj1k04q40000gn/T//cc33wlhO.s 			page 1


   1              		.cpu cortex-m4
   2              		.arch armv7e-m
   3              		.fpu fpv4-sp-d16
   4              		.eabi_attribute 27, 1
   5              		.eabi_attribute 28, 1
   6              		.eabi_attribute 20, 1
   7              		.eabi_attribute 21, 1
   8              		.eabi_attribute 23, 3
   9              		.eabi_attribute 24, 1
  10              		.eabi_attribute 25, 1
  11              		.eabi_attribute 26, 1
  12              		.eabi_attribute 30, 2
  13              		.eabi_attribute 34, 1
  14              		.eabi_attribute 18, 4
  15              		.file	"lv_draw_layer.c"
  16              		.text
  17              		.section	.text.lv_draw_layer_create,"ax",%progbits
  18              		.align	1
  19              		.p2align 2,,3
  20              		.global	lv_draw_layer_create
  21              		.syntax unified
  22              		.thumb
  23              		.thumb_func
  25              	lv_draw_layer_create:
  26              		@ args = 0, pretend = 0, frame = 0
  27              		@ frame_needed = 0, uses_anonymous_args = 0
  28 0000 F8B5     		push	{r3, r4, r5, r6, r7, lr}
  29 0002 0446     		mov	r4, r0
  30 0004 C06B     		ldr	r0, [r0, #60]
  31 0006 28B3     		cbz	r0, .L7
  32 0008 E06C     		ldr	r0, [r4, #76]
  33 000a 0F46     		mov	r7, r1
  34 000c 1646     		mov	r6, r2
  35 000e FFF7FEFF 		bl	lv_mem_alloc
  36 0012 0546     		mov	r5, r0
  37 0014 E8B1     		cbz	r0, .L4
  38 0016 E16C     		ldr	r1, [r4, #76]
  39 0018 FFF7FEFF 		bl	lv_memset_00
  40 001c FFF7FEFF 		bl	_lv_refr_get_disp_refreshing
  41 0020 D4E90031 		ldrd	r3, r1, [r4]
  42 0024 3246     		mov	r2, r6
  43 0026 A668     		ldr	r6, [r4, #8]
  44 0028 2B62     		str	r3, [r5, #32]
  45 002a C5E90661 		strd	r6, r1, [r5, #24]
  46 002e 0368     		ldr	r3, [r0]
  47 0030 7968     		ldr	r1, [r7, #4]	@ unaligned
  48 0032 1B7C     		ldrb	r3, [r3, #16]	@ zero_extendqisi2
  49 0034 3868     		ldr	r0, [r7]	@ unaligned
  50 0036 C3F38013 		ubfx	r3, r3, #6, #1
  51 003a 85F82430 		strb	r3, [r5, #36]
  52 003e 2B46     		mov	r3, r5
  53 0040 03C3     		stmia	r3!, {r0, r1}
  54 0042 E36B     		ldr	r3, [r4, #60]
  55 0044 2046     		mov	r0, r4
  56 0046 2946     		mov	r1, r5
  57 0048 9847     		blx	r3
  58 004a 0446     		mov	r4, r0
ARM GAS  /var/folders/lp/x54gwt890xv47sdkqj1k04q40000gn/T//cc33wlhO.s 			page 2


  59 004c 28B1     		cbz	r0, .L10
  60              	.L1:
  61 004e 2046     		mov	r0, r4
  62 0050 F8BD     		pop	{r3, r4, r5, r6, r7, pc}
  63              	.L4:
  64 0052 FEE7     		b	.L4
  65              	.L7:
  66 0054 0446     		mov	r4, r0
  67 0056 2046     		mov	r0, r4
  68 0058 F8BD     		pop	{r3, r4, r5, r6, r7, pc}
  69              	.L10:
  70 005a 2846     		mov	r0, r5
  71 005c FFF7FEFF 		bl	lv_mem_free
  72 0060 F5E7     		b	.L1
  74 0062 00BF     		.section	.text.lv_draw_layer_adjust,"ax",%progbits
  75              		.align	1
  76              		.p2align 2,,3
  77              		.global	lv_draw_layer_adjust
  78              		.syntax unified
  79              		.thumb
  80              		.thumb_func
  82              	lv_draw_layer_adjust:
  83              		@ args = 0, pretend = 0, frame = 0
  84              		@ frame_needed = 0, uses_anonymous_args = 0
  85              		@ link register save eliminated.
  86 0000 036C     		ldr	r3, [r0, #64]
  87 0002 03B1     		cbz	r3, .L11
  88 0004 1847     		bx	r3	@ indirect register sibling call
  89              	.L11:
  90 0006 7047     		bx	lr
  92              		.section	.text.lv_draw_layer_blend,"ax",%progbits
  93              		.align	1
  94              		.p2align 2,,3
  95              		.global	lv_draw_layer_blend
  96              		.syntax unified
  97              		.thumb
  98              		.thumb_func
 100              	lv_draw_layer_blend:
 101              		@ args = 0, pretend = 0, frame = 0
 102              		@ frame_needed = 0, uses_anonymous_args = 0
 103              		@ link register save eliminated.
 104 0000 436C     		ldr	r3, [r0, #68]
 105 0002 03B1     		cbz	r3, .L13
 106 0004 1847     		bx	r3	@ indirect register sibling call
 107              	.L13:
 108 0006 7047     		bx	lr
 110              		.section	.text.lv_draw_layer_destroy,"ax",%progbits
 111              		.align	1
 112              		.p2align 2,,3
 113              		.global	lv_draw_layer_destroy
 114              		.syntax unified
 115              		.thumb
 116              		.thumb_func
 118              	lv_draw_layer_destroy:
 119              		@ args = 0, pretend = 0, frame = 0
 120              		@ frame_needed = 0, uses_anonymous_args = 0
 121 0000 38B5     		push	{r3, r4, r5, lr}
ARM GAS  /var/folders/lp/x54gwt890xv47sdkqj1k04q40000gn/T//cc33wlhO.s 			page 3


 122 0002 0C46     		mov	r4, r1
 123 0004 0546     		mov	r5, r0
 124 0006 FFF7FEFF 		bl	lv_draw_wait_for_finish
 125 000a D4E90632 		ldrd	r3, r2, [r4, #24]
 126 000e 216A     		ldr	r1, [r4, #32]
 127 0010 AB60     		str	r3, [r5, #8]
 128 0012 C5E90012 		strd	r1, r2, [r5]
 129 0016 FFF7FEFF 		bl	_lv_refr_get_disp_refreshing
 130 001a 0368     		ldr	r3, [r0]
 131 001c 94F82410 		ldrb	r1, [r4, #36]	@ zero_extendqisi2
 132 0020 1A7C     		ldrb	r2, [r3, #16]	@ zero_extendqisi2
 133 0022 61F38612 		bfi	r2, r1, #6, #1
 134 0026 1A74     		strb	r2, [r3, #16]
 135 0028 AB6C     		ldr	r3, [r5, #72]
 136 002a 13B1     		cbz	r3, .L16
 137 002c 2146     		mov	r1, r4
 138 002e 2846     		mov	r0, r5
 139 0030 9847     		blx	r3
 140              	.L16:
 141 0032 2046     		mov	r0, r4
 142 0034 BDE83840 		pop	{r3, r4, r5, lr}
 143 0038 FFF7FEBF 		b	lv_mem_free
 145              		.ident	"GCC: (xPack GNU Arm Embedded GCC arm64) 13.3.1 20240614"
ARM GAS  /var/folders/lp/x54gwt890xv47sdkqj1k04q40000gn/T//cc33wlhO.s 			page 4

