ARM GAS  /var/folders/lp/x54gwt890xv47sdkqj1k04q40000gn/T//ccfBcMQq.s 			page 1


   1              		.cpu cortex-m4
   2              		.arch armv7e-m
   3              		.fpu fpv4-sp-d16
   4              		.eabi_attribute 27, 1
   5              		.eabi_attribute 28, 1
   6              		.eabi_attribute 20, 1
   7              		.eabi_attribute 21, 1
   8              		.eabi_attribute 23, 3
   9              		.eabi_attribute 24, 1
  10              		.eabi_attribute 25, 1
  11              		.eabi_attribute 26, 1
  12              		.eabi_attribute 30, 2
  13              		.eabi_attribute 34, 1
  14              		.eabi_attribute 18, 4
  15              		.file	"lv_dropdown.c"
  16              		.text
  17              		.section	.text.lv_dropdownlist_destructor,"ax",%progbits
  18              		.align	1
  19              		.p2align 2,,3
  20              		.syntax unified
  21              		.thumb
  22              		.thumb_func
  24              	lv_dropdownlist_destructor:
  25              		@ args = 0, pretend = 0, frame = 0
  26              		@ frame_needed = 0, uses_anonymous_args = 0
  27              		@ link register save eliminated.
  28 0000 4B6A     		ldr	r3, [r1, #36]
  29 0002 0022     		movs	r2, #0
  30 0004 5A62     		str	r2, [r3, #36]
  31 0006 7047     		bx	lr
  33              		.section	.text.lv_dropdownlist_constructor,"ax",%progbits
  34              		.align	1
  35              		.p2align 2,,3
  36              		.syntax unified
  37              		.thumb
  38              		.thumb_func
  40              	lv_dropdownlist_constructor:
  41              		@ args = 0, pretend = 0, frame = 0
  42              		@ frame_needed = 0, uses_anonymous_args = 0
  43 0000 10B5     		push	{r4, lr}
  44 0002 0C46     		mov	r4, r1
  45 0004 2046     		mov	r0, r4
  46 0006 4FF48061 		mov	r1, #1024
  47 000a FFF7FEFF 		bl	lv_obj_clear_flag
  48 000e 2046     		mov	r0, r4
  49 0010 0421     		movs	r1, #4
  50 0012 FFF7FEFF 		bl	lv_obj_clear_flag
  51 0016 2046     		mov	r0, r4
  52 0018 4FF40031 		mov	r1, #131072
  53 001c FFF7FEFF 		bl	lv_obj_add_flag
  54 0020 2046     		mov	r0, r4
  55 0022 0121     		movs	r1, #1
  56 0024 FFF7FEFF 		bl	lv_obj_add_flag
  57 0028 2046     		mov	r0, r4
  58 002a BDE81040 		pop	{r4, lr}
  59 002e FFF7FEBF 		b	lv_label_create
  61 0032 00BF     		.section	.text.lv_dropdown_destructor,"ax",%progbits
ARM GAS  /var/folders/lp/x54gwt890xv47sdkqj1k04q40000gn/T//ccfBcMQq.s 			page 2


  62              		.align	1
  63              		.p2align 2,,3
  64              		.syntax unified
  65              		.thumb
  66              		.thumb_func
  68              	lv_dropdown_destructor:
  69              		@ args = 0, pretend = 0, frame = 0
  70              		@ frame_needed = 0, uses_anonymous_args = 0
  71 0000 486A     		ldr	r0, [r1, #36]
  72 0002 38B5     		push	{r3, r4, r5, lr}
  73 0004 0C46     		mov	r4, r1
  74 0006 18B1     		cbz	r0, .L6
  75 0008 FFF7FEFF 		bl	lv_obj_del
  76 000c 0023     		movs	r3, #0
  77 000e 6362     		str	r3, [r4, #36]
  78              	.L6:
  79 0010 94F83C30 		ldrb	r3, [r4, #60]	@ zero_extendqisi2
  80 0014 13F01005 		ands	r5, r3, #16
  81 0018 00D0     		beq	.L12
  82 001a 38BD     		pop	{r3, r4, r5, pc}
  83              	.L12:
  84 001c 206B     		ldr	r0, [r4, #48]
  85 001e FFF7FEFF 		bl	lv_mem_free
  86 0022 2563     		str	r5, [r4, #48]
  87 0024 38BD     		pop	{r3, r4, r5, pc}
  89 0026 00BF     		.section	.text.lv_dropdown_set_options_static.part.0.constprop.0,"ax",%progbits
  90              		.align	1
  91              		.p2align 2,,3
  92              		.syntax unified
  93              		.thumb
  94              		.thumb_func
  96              	lv_dropdown_set_options_static.part.0.constprop.0:
  97              		@ args = 0, pretend = 0, frame = 0
  98              		@ frame_needed = 0, uses_anonymous_args = 0
  99 0000 38B5     		push	{r3, r4, r5, lr}
 100 0002 0B78     		ldrb	r3, [r1]	@ zero_extendqisi2
 101 0004 828E     		ldrh	r2, [r0, #52]
 102 0006 0D46     		mov	r5, r1
 103 0008 0446     		mov	r4, r0
 104 000a 4BB1     		cbz	r3, .L14
 105 000c 8C46     		mov	ip, r1
 106              	.L16:
 107 000e 0A2B     		cmp	r3, #10
 108 0010 02D1     		bne	.L15
 109 0012 0132     		adds	r2, r2, #1
 110 0014 92B2     		uxth	r2, r2
 111 0016 A286     		strh	r2, [r4, #52]	@ movhi
 112              	.L15:
 113 0018 1CF8013F 		ldrb	r3, [ip, #1]!	@ zero_extendqisi2
 114 001c 002B     		cmp	r3, #0
 115 001e F6D1     		bne	.L16
 116              	.L14:
 117 0020 94F83C00 		ldrb	r0, [r4, #60]	@ zero_extendqisi2
 118 0024 0023     		movs	r3, #0
 119 0026 0132     		adds	r2, r2, #1
 120 0028 E386     		strh	r3, [r4, #54]	@ movhi
 121 002a 2387     		strh	r3, [r4, #56]	@ movhi
ARM GAS  /var/folders/lp/x54gwt890xv47sdkqj1k04q40000gn/T//ccfBcMQq.s 			page 3


 122 002c C306     		lsls	r3, r0, #27
 123 002e A286     		strh	r2, [r4, #52]	@ movhi
 124 0030 03D4     		bmi	.L17
 125 0032 206B     		ldr	r0, [r4, #48]
 126 0034 08B1     		cbz	r0, .L17
 127 0036 FFF7FEFF 		bl	lv_mem_free
 128              	.L17:
 129 003a 94F83C30 		ldrb	r3, [r4, #60]	@ zero_extendqisi2
 130 003e 2563     		str	r5, [r4, #48]
 131 0040 43F01003 		orr	r3, r3, #16
 132 0044 2046     		mov	r0, r4
 133 0046 84F83C30 		strb	r3, [r4, #60]
 134 004a FFF7FEFF 		bl	lv_obj_invalidate
 135 004e 606A     		ldr	r0, [r4, #36]
 136 0050 18B1     		cbz	r0, .L13
 137 0052 BDE83840 		pop	{r3, r4, r5, lr}
 138 0056 FFF7FEBF 		b	lv_obj_invalidate
 139              	.L13:
 140 005a 38BD     		pop	{r3, r4, r5, pc}
 142              		.section	.rodata.lv_dropdown_constructor.str1.4,"aMS",%progbits,1
 143              		.align	2
 144              	.LC0:
 145 0000 EF81B800 		.ascii	"\357\201\270\000"
 146              		.align	2
 147              	.LC1:
 148 0004 4F707469 		.ascii	"Option 1\012Option 2\012Option 3\000"
 148      6F6E2031 
 148      0A4F7074 
 148      696F6E20 
 148      320A4F70 
 149              		.section	.text.lv_dropdown_constructor,"ax",%progbits
 150              		.align	1
 151              		.p2align 2,,3
 152              		.syntax unified
 153              		.thumb
 154              		.thumb_func
 156              	lv_dropdown_constructor:
 157              		@ args = 0, pretend = 0, frame = 0
 158              		@ frame_needed = 0, uses_anonymous_args = 0
 159 0000 38B5     		push	{r3, r4, r5, lr}
 160 0002 91F83C30 		ldrb	r3, [r1, #60]	@ zero_extendqisi2
 161 0006 134A     		ldr	r2, .L29
 162 0008 0C46     		mov	r4, r1
 163 000a 23F03F03 		bic	r3, r3, #63
 164 000e 1249     		ldr	r1, .L29+4
 165 0010 A263     		str	r2, [r4, #56]
 166 0012 43F03803 		orr	r3, r3, #56
 167 0016 0025     		movs	r5, #0
 168 0018 84F83C30 		strb	r3, [r4, #60]
 169 001c C4E90A51 		strd	r5, r1, [r4, #40]
 170 0020 C4E90C55 		strd	r5, r5, [r4, #48]
 171 0024 6562     		str	r5, [r4, #36]
 172 0026 4FF48061 		mov	r1, #1024
 173 002a 2046     		mov	r0, r4
 174 002c FFF7FEFF 		bl	lv_obj_add_flag
 175 0030 0A49     		ldr	r1, .L29+8
 176 0032 A586     		strh	r5, [r4, #52]	@ movhi
ARM GAS  /var/folders/lp/x54gwt890xv47sdkqj1k04q40000gn/T//ccfBcMQq.s 			page 4


 177 0034 2046     		mov	r0, r4
 178 0036 FFF7FEFF 		bl	lv_dropdown_set_options_static.part.0.constprop.0
 179 003a 2046     		mov	r0, r4
 180 003c FFF7FEFF 		bl	lv_obj_get_screen
 181 0040 0146     		mov	r1, r0
 182 0042 0748     		ldr	r0, .L29+12
 183 0044 FFF7FEFF 		bl	lv_obj_class_create_obj
 184 0048 0546     		mov	r5, r0
 185 004a FFF7FEFF 		bl	lv_obj_class_init_obj
 186 004e 6562     		str	r5, [r4, #36]
 187 0050 6C62     		str	r4, [r5, #36]
 188 0052 38BD     		pop	{r3, r4, r5, pc}
 189              	.L30:
 190              		.align	2
 191              	.L29:
 192 0054 0000FFFF 		.word	-65536
 193 0058 00000000 		.word	.LC0
 194 005c 04000000 		.word	.LC1
 195 0060 00000000 		.word	lv_dropdownlist_class
 197              		.section	.text.get_id_on_point,"ax",%progbits
 198              		.align	1
 199              		.p2align 2,,3
 200              		.syntax unified
 201              		.thumb
 202              		.thumb_func
 204              	get_id_on_point:
 205              		@ args = 0, pretend = 0, frame = 0
 206              		@ frame_needed = 0, uses_anonymous_args = 0
 207 0000 F8B5     		push	{r3, r4, r5, r6, r7, lr}
 208 0002 0646     		mov	r6, r0
 209 0004 406A     		ldr	r0, [r0, #36]
 210 0006 30B3     		cbz	r0, .L34
 211 0008 0C46     		mov	r4, r1
 212 000a 0021     		movs	r1, #0
 213 000c FFF7FEFF 		bl	lv_obj_get_child
 214 0010 0546     		mov	r5, r0
 215 0012 00B3     		cbz	r0, .L34
 216 0014 5722     		movs	r2, #87
 217 0016 0021     		movs	r1, #0
 218 0018 C78A     		ldrh	r7, [r0, #22]
 219 001a FFF7FEFF 		bl	lv_obj_get_style_prop
 220 001e 0346     		mov	r3, r0
 221 0020 5922     		movs	r2, #89
 222 0022 2846     		mov	r0, r5
 223 0024 0021     		movs	r1, #0
 224 0026 B3F90850 		ldrsh	r5, [r3, #8]
 225 002a FFF7FEFF 		bl	lv_obj_get_style_prop
 226 002e C0F3C032 		ubfx	r2, r0, #15, #1
 227 0032 0544     		add	r5, r5, r0
 228 0034 02FA80F0 		sxtah	r0, r2, r0
 229 0038 04EB6000 		add	r0, r4, r0, asr #1
 230 003c B38E     		ldrh	r3, [r6, #52]
 231 003e C01B     		subs	r0, r0, r7
 232 0040 2DB2     		sxth	r5, r5
 233 0042 00B2     		sxth	r0, r0
 234 0044 90FBF5F0 		sdiv	r0, r0, r5
 235 0048 80B2     		uxth	r0, r0
ARM GAS  /var/folders/lp/x54gwt890xv47sdkqj1k04q40000gn/T//ccfBcMQq.s 			page 5


 236 004a 8342     		cmp	r3, r0
 237 004c 9CBF     		itt	ls
 238 004e 03F1FF33 		addls	r3, r3, #-1
 239 0052 98B2     		uxthls	r0, r3
 240 0054 F8BD     		pop	{r3, r4, r5, r6, r7, pc}
 241              	.L34:
 242 0056 0020     		movs	r0, #0
 243 0058 F8BD     		pop	{r3, r4, r5, r6, r7, pc}
 245 005a 00BF     		.section	.text.position_to_selected,"ax",%progbits
 246              		.align	1
 247              		.p2align 2,,3
 248              		.syntax unified
 249              		.thumb
 250              		.thumb_func
 252              	position_to_selected:
 253              		@ args = 0, pretend = 0, frame = 0
 254              		@ frame_needed = 0, uses_anonymous_args = 0
 255 0000 70B5     		push	{r4, r5, r6, lr}
 256 0002 0446     		mov	r4, r0
 257 0004 406A     		ldr	r0, [r0, #36]
 258 0006 60B1     		cbz	r0, .L39
 259 0008 0021     		movs	r1, #0
 260 000a FFF7FEFF 		bl	lv_obj_get_child
 261 000e 0546     		mov	r5, r0
 262 0010 38B1     		cbz	r0, .L39
 263 0012 FFF7FEFF 		bl	lv_obj_get_height
 264 0016 0646     		mov	r6, r0
 265 0018 2046     		mov	r0, r4
 266 001a FFF7FEFF 		bl	lv_obj_get_content_height
 267 001e 8642     		cmp	r6, r0
 268 0020 00DC     		bgt	.L47
 269              	.L39:
 270 0022 70BD     		pop	{r4, r5, r6, pc}
 271              	.L47:
 272 0024 5722     		movs	r2, #87
 273 0026 0021     		movs	r1, #0
 274 0028 2846     		mov	r0, r5
 275 002a FFF7FEFF 		bl	lv_obj_get_style_prop
 276 002e 0346     		mov	r3, r0
 277 0030 5922     		movs	r2, #89
 278 0032 0021     		movs	r1, #0
 279 0034 2846     		mov	r0, r5
 280 0036 B3F90850 		ldrsh	r5, [r3, #8]
 281 003a FFF7FEFF 		bl	lv_obj_get_style_prop
 282 003e E18E     		ldrh	r1, [r4, #54]
 283 0040 0544     		add	r5, r5, r0
 284 0042 11FB05F1 		smulbb	r1, r1, r5
 285 0046 606A     		ldr	r0, [r4, #36]
 286 0048 0022     		movs	r2, #0
 287 004a 09B2     		sxth	r1, r1
 288 004c FFF7FEFF 		bl	lv_obj_scroll_to_y
 289 0050 606A     		ldr	r0, [r4, #36]
 290 0052 BDE87040 		pop	{r4, r5, r6, lr}
 291 0056 FFF7FEBF 		b	lv_obj_invalidate
 293 005a 00BF     		.section	.text.draw_box,"ax",%progbits
 294              		.align	1
 295              		.p2align 2,,3
ARM GAS  /var/folders/lp/x54gwt890xv47sdkqj1k04q40000gn/T//ccfBcMQq.s 			page 6


 296              		.syntax unified
 297              		.thumb
 298              		.thumb_func
 300              	draw_box:
 301              		@ args = 0, pretend = 0, frame = 64
 302              		@ frame_needed = 0, uses_anonymous_args = 0
 303 0000 2DE9F04F 		push	{r4, r5, r6, r7, r8, r9, r10, fp, lr}
 304 0004 9146     		mov	r9, r2
 305 0006 4FF6FF72 		movw	r2, #65535
 306 000a 9145     		cmp	r9, r2
 307 000c 91B0     		sub	sp, sp, #68
 308 000e 59D0     		beq	.L48
 309 0010 476A     		ldr	r7, [r0, #36]
 310 0012 3E8C     		ldrh	r6, [r7, #32]
 311 0014 9E42     		cmp	r6, r3
 312 0016 8346     		mov	fp, r0
 313 0018 0D46     		mov	r5, r1
 314 001a 06D0     		beq	.L50
 315 001c 3B84     		strh	r3, [r7, #32]	@ movhi
 316 001e 97F82230 		ldrb	r3, [r7, #34]	@ zero_extendqisi2
 317 0022 43F00803 		orr	r3, r3, #8
 318 0026 87F82230 		strb	r3, [r7, #34]
 319              	.L50:
 320 002a 5722     		movs	r2, #87
 321 002c 4FF48021 		mov	r1, #262144
 322 0030 3846     		mov	r0, r7
 323 0032 FFF7FEFF 		bl	lv_obj_get_style_prop
 324 0036 5922     		movs	r2, #89
 325 0038 0446     		mov	r4, r0
 326 003a 4FF48021 		mov	r1, #262144
 327 003e 3846     		mov	r0, r7
 328 0040 FFF7FEFF 		bl	lv_obj_get_style_prop
 329 0044 8046     		mov	r8, r0
 330 0046 DBF82400 		ldr	r0, [fp, #36]
 331 004a B4F90840 		ldrsh	r4, [r4, #8]
 332 004e 0FFA88FA 		sxth	r10, r8
 333 0052 0028     		cmp	r0, #0
 334 0054 39D0     		beq	.L51
 335 0056 0021     		movs	r1, #0
 336 0058 FFF7FEFF 		bl	lv_obj_get_child
 337 005c 04EB0A03 		add	r3, r4, r10
 338 0060 DBF82420 		ldr	r2, [fp, #36]
 339 0064 C18A     		ldrh	r1, [r0, #22]
 340 0066 908A     		ldrh	r0, [r2, #20]
 341 0068 13FB09F3 		smulbb	r3, r3, r9
 342 006c 0AEBDA7A 		add	r10, r10, r10, lsr #31
 343 0070 08F1FF38 		add	r8, r8, #-1
 344 0074 A3EB6A03 		sub	r3, r3, r10, asr #1
 345 0078 A044     		add	r8, r8, r4
 346 007a 0B44     		add	r3, r3, r1
 347 007c 148B     		ldrh	r4, [r2, #24]
 348 007e 0022     		movs	r2, #0
 349 0080 9BB2     		uxth	r3, r3
 350 0082 1146     		mov	r1, r2
 351 0084 9844     		add	r8, r8, r3
 352 0086 60F30F02 		bfi	r2, r0, #0, #16
 353 008a 64F30F01 		bfi	r1, r4, #0, #16
ARM GAS  /var/folders/lp/x54gwt890xv47sdkqj1k04q40000gn/T//ccfBcMQq.s 			page 7


 354 008e 63F31F42 		bfi	r2, r3, #16, #16
 355 0092 68F31F41 		bfi	r1, r8, #16, #16
 356 0096 02A8     		add	r0, sp, #8
 357 0098 CDE90021 		strd	r2, r1, [sp]
 358 009c FFF7FEFF 		bl	lv_draw_rect_dsc_init
 359 00a0 02AA     		add	r2, sp, #8
 360 00a2 4FF48021 		mov	r1, #262144
 361 00a6 3846     		mov	r0, r7
 362 00a8 FFF7FEFF 		bl	lv_obj_init_draw_rect_dsc
 363 00ac 6A46     		mov	r2, sp
 364 00ae 02A9     		add	r1, sp, #8
 365 00b0 2846     		mov	r0, r5
 366 00b2 FFF7FEFF 		bl	lv_draw_rect
 367 00b6 97F82230 		ldrb	r3, [r7, #34]	@ zero_extendqisi2
 368 00ba 3E84     		strh	r6, [r7, #32]	@ movhi
 369 00bc 23F00803 		bic	r3, r3, #8
 370 00c0 87F82230 		strb	r3, [r7, #34]
 371              	.L48:
 372 00c4 11B0     		add	sp, sp, #68
 373              		@ sp needed
 374 00c6 BDE8F08F 		pop	{r4, r5, r6, r7, r8, r9, r10, fp, pc}
 375              	.L51:
 376 00ca C38A     		ldrh	r3, [r0, #22]
 377 00cc FFDE     		.inst	0xdeff
 379 00ce 00BF     		.section	.text.draw_box_label,"ax",%progbits
 380              		.align	1
 381              		.p2align 2,,3
 382              		.syntax unified
 383              		.thumb
 384              		.thumb_func
 386              	draw_box_label:
 387              		@ args = 0, pretend = 0, frame = 48
 388              		@ frame_needed = 0, uses_anonymous_args = 0
 389 0000 2DE9F041 		push	{r4, r5, r6, r7, r8, lr}
 390 0004 9046     		mov	r8, r2
 391 0006 4FF6FF72 		movw	r2, #65535
 392 000a 9045     		cmp	r8, r2
 393 000c 8EB0     		sub	sp, sp, #56
 394 000e 54D0     		beq	.L53
 395 0010 446A     		ldr	r4, [r0, #36]
 396 0012 278C     		ldrh	r7, [r4, #32]
 397 0014 9F42     		cmp	r7, r3
 398 0016 0646     		mov	r6, r0
 399 0018 0D46     		mov	r5, r1
 400 001a 06D0     		beq	.L55
 401 001c 2384     		strh	r3, [r4, #32]	@ movhi
 402 001e 94F82230 		ldrb	r3, [r4, #34]	@ zero_extendqisi2
 403 0022 43F00803 		orr	r3, r3, #8
 404 0026 84F82230 		strb	r3, [r4, #34]
 405              	.L55:
 406 002a 06A8     		add	r0, sp, #24
 407 002c FFF7FEFF 		bl	lv_draw_label_dsc_init
 408 0030 06AA     		add	r2, sp, #24
 409 0032 4FF48021 		mov	r1, #262144
 410 0036 2046     		mov	r0, r4
 411 0038 FFF7FEFF 		bl	lv_obj_init_draw_label_dsc
 412 003c 5922     		movs	r2, #89
ARM GAS  /var/folders/lp/x54gwt890xv47sdkqj1k04q40000gn/T//ccfBcMQq.s 			page 8


 413 003e 4FF48021 		mov	r1, #262144
 414 0042 2046     		mov	r0, r4
 415 0044 FFF7FEFF 		bl	lv_obj_get_style_prop
 416 0048 ADF82A00 		strh	r0, [sp, #42]	@ movhi
 417 004c 706A     		ldr	r0, [r6, #36]
 418 004e A0B3     		cbz	r0, .L53
 419 0050 0021     		movs	r1, #0
 420 0052 FFF7FEFF 		bl	lv_obj_get_child
 421 0056 0646     		mov	r6, r0
 422 0058 78B3     		cbz	r0, .L53
 423 005a 069B     		ldr	r3, [sp, #24]
 424 005c B6F816C0 		ldrh	ip, [r6, #22]
 425 0060 B3F90800 		ldrsh	r0, [r3, #8]
 426 0064 BDF92A30 		ldrsh	r3, [sp, #42]
 427 0068 B4F818E0 		ldrh	lr, [r4, #24]
 428 006c C118     		adds	r1, r0, r3
 429 006e 11FB08F2 		smulbb	r2, r1, r8
 430 0072 03EBD371 		add	r1, r3, r3, lsr #31
 431 0076 A2EB6102 		sub	r2, r2, r1, asr #1
 432 007a 6244     		add	r2, r2, ip
 433 007c 0021     		movs	r1, #0
 434 007e B4F814C0 		ldrh	ip, [r4, #20]
 435 0082 013B     		subs	r3, r3, #1
 436 0084 92B2     		uxth	r2, r2
 437 0086 0344     		add	r3, r3, r0
 438 0088 0846     		mov	r0, r1
 439 008a 1344     		add	r3, r3, r2
 440 008c 6EF30F00 		bfi	r0, lr, #0, #16
 441 0090 6CF30F01 		bfi	r1, ip, #0, #16
 442 0094 62F31F41 		bfi	r1, r2, #16, #16
 443 0098 63F31F40 		bfi	r0, r3, #16, #16
 444 009c CDE90210 		strd	r1, r0, [sp, #8]
 445 00a0 02AA     		add	r2, sp, #8
 446 00a2 A968     		ldr	r1, [r5, #8]
 447 00a4 04A8     		add	r0, sp, #16
 448 00a6 FFF7FEFF 		bl	_lv_area_intersect
 449 00aa 48B9     		cbnz	r0, .L68
 450              	.L56:
 451 00ac 94F82230 		ldrb	r3, [r4, #34]	@ zero_extendqisi2
 452 00b0 2784     		strh	r7, [r4, #32]	@ movhi
 453 00b2 23F00803 		bic	r3, r3, #8
 454 00b6 84F82230 		strb	r3, [r4, #34]
 455              	.L53:
 456 00ba 0EB0     		add	sp, sp, #56
 457              		@ sp needed
 458 00bc BDE8F081 		pop	{r4, r5, r6, r7, r8, pc}
 459              	.L68:
 460 00c0 04AB     		add	r3, sp, #16
 461 00c2 D5F80880 		ldr	r8, [r5, #8]
 462 00c6 AB60     		str	r3, [r5, #8]
 463 00c8 3046     		mov	r0, r6
 464 00ca FFF7FEFF 		bl	lv_label_get_text
 465 00ce 0346     		mov	r3, r0
 466 00d0 0020     		movs	r0, #0
 467 00d2 0090     		str	r0, [sp]
 468 00d4 06F11402 		add	r2, r6, #20
 469 00d8 06A9     		add	r1, sp, #24
ARM GAS  /var/folders/lp/x54gwt890xv47sdkqj1k04q40000gn/T//ccfBcMQq.s 			page 9


 470 00da 2846     		mov	r0, r5
 471 00dc FFF7FEFF 		bl	lv_draw_label
 472 00e0 C5F80880 		str	r8, [r5, #8]
 473 00e4 E2E7     		b	.L56
 475 00e6 00BF     		.section	.text.lv_dropdown_list_event,"ax",%progbits
 476              		.align	1
 477              		.p2align 2,,3
 478              		.syntax unified
 479              		.thumb
 480              		.thumb_func
 482              	lv_dropdown_list_event:
 483              		@ args = 0, pretend = 0, frame = 8
 484              		@ frame_needed = 0, uses_anonymous_args = 0
 485 0000 F0B5     		push	{r4, r5, r6, r7, lr}
 486 0002 0846     		mov	r0, r1
 487 0004 83B0     		sub	sp, sp, #12
 488 0006 0C46     		mov	r4, r1
 489 0008 FFF7FEFF 		bl	lv_event_get_code
 490 000c 1828     		cmp	r0, #24
 491 000e 2DD0     		beq	.L104
 492 0010 0546     		mov	r5, r0
 493 0012 2146     		mov	r1, r4
 494 0014 7148     		ldr	r0, .L108
 495 0016 FFF7FEFF 		bl	lv_obj_event_base
 496 001a 0128     		cmp	r0, #1
 497 001c 24D1     		bne	.L69
 498 001e 2046     		mov	r0, r4
 499 0020 FFF7FEFF 		bl	lv_event_get_target
 500 0024 082D     		cmp	r5, #8
 501 0026 466A     		ldr	r6, [r0, #36]
 502 0028 0446     		mov	r4, r0
 503 002a 64D0     		beq	.L75
 504 002c 092D     		cmp	r5, #9
 505 002e 5AD0     		beq	.L76
 506 0030 012D     		cmp	r5, #1
 507 0032 19D1     		bne	.L69
 508 0034 FFF7FEFF 		bl	lv_indev_get_act
 509 0038 0546     		mov	r5, r0
 510 003a A8B1     		cbz	r0, .L69
 511 003c FFF7FEFF 		bl	lv_indev_get_type
 512 0040 0128     		cmp	r0, #1
 513 0042 04D0     		beq	.L87
 514 0044 2846     		mov	r0, r5
 515 0046 FFF7FEFF 		bl	lv_indev_get_type
 516 004a 0328     		cmp	r0, #3
 517 004c 0CD1     		bne	.L69
 518              	.L87:
 519 004e 6946     		mov	r1, sp
 520 0050 2846     		mov	r0, r5
 521 0052 FFF7FEFF 		bl	lv_indev_get_point
 522 0056 BDF90210 		ldrsh	r1, [sp, #2]
 523 005a 3046     		mov	r0, r6
 524 005c FFF7FEFF 		bl	get_id_on_point
 525 0060 7087     		strh	r0, [r6, #58]	@ movhi
 526 0062 2046     		mov	r0, r4
 527 0064 FFF7FEFF 		bl	lv_obj_invalidate
 528              	.L69:
ARM GAS  /var/folders/lp/x54gwt890xv47sdkqj1k04q40000gn/T//ccfBcMQq.s 			page 10


 529 0068 03B0     		add	sp, sp, #12
 530              		@ sp needed
 531 006a F0BD     		pop	{r4, r5, r6, r7, pc}
 532              	.L104:
 533 006c 2046     		mov	r0, r4
 534 006e FFF7FEFF 		bl	lv_event_get_target
 535 0072 2046     		mov	r0, r4
 536 0074 FFF7FEFF 		bl	lv_event_get_target
 537 0078 0346     		mov	r3, r0
 538 007a 2046     		mov	r0, r4
 539 007c 5E6A     		ldr	r6, [r3, #36]
 540 007e FFF7FEFF 		bl	lv_event_get_draw_ctx
 541 0082 726A     		ldr	r2, [r6, #36]
 542 0084 8168     		ldr	r1, [r0, #8]
 543 0086 0546     		mov	r5, r0
 544 0088 1432     		adds	r2, r2, #20
 545 008a 6846     		mov	r0, sp
 546 008c FFF7FEFF 		bl	_lv_area_intersect
 547 0090 10B3     		cbz	r0, .L72
 548 0092 96F83C30 		ldrb	r3, [r6, #60]	@ zero_extendqisi2
 549 0096 AF68     		ldr	r7, [r5, #8]
 550 0098 728F     		ldrh	r2, [r6, #58]
 551 009a C5F808D0 		str	sp, [r5, #8]
 552 009e 9B06     		lsls	r3, r3, #26
 553 00a0 5ED5     		bpl	.L88
 554 00a2 F38E     		ldrh	r3, [r6, #54]
 555 00a4 9342     		cmp	r3, r2
 556 00a6 67D0     		beq	.L105
 557 00a8 2023     		movs	r3, #32
 558 00aa 2946     		mov	r1, r5
 559 00ac 3046     		mov	r0, r6
 560 00ae FFF7FEFF 		bl	draw_box
 561 00b2 728F     		ldrh	r2, [r6, #58]
 562 00b4 2023     		movs	r3, #32
 563 00b6 2946     		mov	r1, r5
 564 00b8 3046     		mov	r0, r6
 565 00ba FFF7FEFF 		bl	draw_box_label
 566 00be F28E     		ldrh	r2, [r6, #54]
 567 00c0 0123     		movs	r3, #1
 568 00c2 2946     		mov	r1, r5
 569 00c4 3046     		mov	r0, r6
 570 00c6 FFF7FEFF 		bl	draw_box
 571 00ca F28E     		ldrh	r2, [r6, #54]
 572 00cc 0123     		movs	r3, #1
 573 00ce 3046     		mov	r0, r6
 574 00d0 2946     		mov	r1, r5
 575 00d2 FFF7FEFF 		bl	draw_box_label
 576              	.L90:
 577 00d6 AF60     		str	r7, [r5, #8]
 578              	.L72:
 579 00d8 4048     		ldr	r0, .L108
 580 00da 2146     		mov	r1, r4
 581 00dc 03B0     		add	sp, sp, #12
 582              		@ sp needed
 583 00de BDE8F040 		pop	{r4, r5, r6, r7, lr}
 584 00e2 FFF7FEBF 		b	lv_obj_event_base
 585              	.L76:
ARM GAS  /var/folders/lp/x54gwt890xv47sdkqj1k04q40000gn/T//ccfBcMQq.s 			page 11


 586 00e6 4FF6FF73 		movw	r3, #65535
 587 00ea 7387     		strh	r3, [r6, #58]	@ movhi
 588 00ec 03B0     		add	sp, sp, #12
 589              		@ sp needed
 590 00ee BDE8F040 		pop	{r4, r5, r6, r7, lr}
 591 00f2 FFF7FEBF 		b	lv_obj_invalidate
 592              	.L75:
 593 00f6 FFF7FEFF 		bl	lv_indev_get_act
 594 00fa FFF7FEFF 		bl	lv_indev_get_scroll_obj
 595 00fe 0546     		mov	r5, r0
 596 0100 0028     		cmp	r0, #0
 597 0102 B1D1     		bne	.L69
 598 0104 646A     		ldr	r4, [r4, #36]
 599 0106 FFF7FEFF 		bl	lv_indev_get_act
 600 010a 0646     		mov	r6, r0
 601 010c FFF7FEFF 		bl	lv_indev_get_type
 602 0110 0428     		cmp	r0, #4
 603 0112 4FD0     		beq	.L106
 604              	.L80:
 605 0114 3046     		mov	r0, r6
 606 0116 FFF7FEFF 		bl	lv_indev_get_type
 607 011a 0128     		cmp	r0, #1
 608 011c 6D46     		mov	r5, sp
 609 011e 38D0     		beq	.L84
 610 0120 3046     		mov	r0, r6
 611 0122 FFF7FEFF 		bl	lv_indev_get_type
 612 0126 0328     		cmp	r0, #3
 613 0128 33D0     		beq	.L84
 614              	.L83:
 615 012a 0121     		movs	r1, #1
 616 012c 2046     		mov	r0, r4
 617 012e FFF7FEFF 		bl	lv_obj_clear_state
 618 0132 4FF6FF73 		movw	r3, #65535
 619 0136 6387     		strh	r3, [r4, #58]	@ movhi
 620 0138 606A     		ldr	r0, [r4, #36]
 621 013a 0121     		movs	r1, #1
 622 013c FFF7FEFF 		bl	lv_obj_add_flag
 623 0140 0022     		movs	r2, #0
 624 0142 2021     		movs	r1, #32
 625 0144 2046     		mov	r0, r4
 626 0146 FFF7FEFF 		bl	lv_event_send
 627 014a A36A     		ldr	r3, [r4, #40]
 628 014c 002B     		cmp	r3, #0
 629 014e 40D0     		beq	.L107
 630              	.L85:
 631 0150 E38E     		ldrh	r3, [r4, #54]
 632 0152 0093     		str	r3, [sp]
 633 0154 2A46     		mov	r2, r5
 634 0156 1C21     		movs	r1, #28
 635 0158 2046     		mov	r0, r4
 636 015a FFF7FEFF 		bl	lv_event_send
 637 015e 83E7     		b	.L69
 638              	.L88:
 639 0160 2946     		mov	r1, r5
 640 0162 3046     		mov	r0, r6
 641 0164 2023     		movs	r3, #32
 642 0166 FFF7FEFF 		bl	draw_box
ARM GAS  /var/folders/lp/x54gwt890xv47sdkqj1k04q40000gn/T//ccfBcMQq.s 			page 12


 643 016a 728F     		ldrh	r2, [r6, #58]
 644 016c 2023     		movs	r3, #32
 645 016e 3046     		mov	r0, r6
 646 0170 2946     		mov	r1, r5
 647 0172 FFF7FEFF 		bl	draw_box_label
 648 0176 AEE7     		b	.L90
 649              	.L105:
 650 0178 1A46     		mov	r2, r3
 651 017a 2946     		mov	r1, r5
 652 017c 3046     		mov	r0, r6
 653 017e 2123     		movs	r3, #33
 654 0180 FFF7FEFF 		bl	draw_box
 655 0184 728F     		ldrh	r2, [r6, #58]
 656 0186 2123     		movs	r3, #33
 657 0188 3046     		mov	r0, r6
 658 018a 2946     		mov	r1, r5
 659 018c FFF7FEFF 		bl	draw_box_label
 660 0190 A1E7     		b	.L90
 661              	.L84:
 662 0192 2946     		mov	r1, r5
 663 0194 3046     		mov	r0, r6
 664 0196 FFF7FEFF 		bl	lv_indev_get_point
 665 019a BDF90210 		ldrsh	r1, [sp, #2]
 666 019e 2046     		mov	r0, r4
 667 01a0 FFF7FEFF 		bl	get_id_on_point
 668 01a4 0023     		movs	r3, #0
 669 01a6 60F30F03 		bfi	r3, r0, #0, #16
 670 01aa 60F31F43 		bfi	r3, r0, #16, #16
 671 01ae C4F83630 		str	r3, [r4, #54]	@ unaligned
 672 01b2 BAE7     		b	.L83
 673              	.L106:
 674 01b4 E38E     		ldrh	r3, [r4, #54]
 675 01b6 2387     		strh	r3, [r4, #56]	@ movhi
 676 01b8 2046     		mov	r0, r4
 677 01ba FFF7FEFF 		bl	lv_obj_get_group
 678 01be 0746     		mov	r7, r0
 679 01c0 FFF7FEFF 		bl	lv_group_get_editing
 680 01c4 0028     		cmp	r0, #0
 681 01c6 A5D0     		beq	.L80
 682 01c8 2946     		mov	r1, r5
 683 01ca 3846     		mov	r0, r7
 684 01cc FFF7FEFF 		bl	lv_group_set_editing
 685 01d0 A0E7     		b	.L80
 686              	.L107:
 687 01d2 2046     		mov	r0, r4
 688 01d4 FFF7FEFF 		bl	lv_obj_invalidate
 689 01d8 BAE7     		b	.L85
 690              	.L109:
 691 01da 00BF     		.align	2
 692              	.L108:
 693 01dc 00000000 		.word	lv_dropdownlist_class
 695              		.section	.text.lv_dropdown_create,"ax",%progbits
 696              		.align	1
 697              		.p2align 2,,3
 698              		.global	lv_dropdown_create
 699              		.syntax unified
 700              		.thumb
ARM GAS  /var/folders/lp/x54gwt890xv47sdkqj1k04q40000gn/T//ccfBcMQq.s 			page 13


 701              		.thumb_func
 703              	lv_dropdown_create:
 704              		@ args = 0, pretend = 0, frame = 0
 705              		@ frame_needed = 0, uses_anonymous_args = 0
 706 0000 10B5     		push	{r4, lr}
 707 0002 0146     		mov	r1, r0
 708 0004 0348     		ldr	r0, .L112
 709 0006 FFF7FEFF 		bl	lv_obj_class_create_obj
 710 000a 0446     		mov	r4, r0
 711 000c FFF7FEFF 		bl	lv_obj_class_init_obj
 712 0010 2046     		mov	r0, r4
 713 0012 10BD     		pop	{r4, pc}
 714              	.L113:
 715              		.align	2
 716              	.L112:
 717 0014 00000000 		.word	lv_dropdown_class
 719              		.section	.text.lv_dropdown_set_text,"ax",%progbits
 720              		.align	1
 721              		.p2align 2,,3
 722              		.global	lv_dropdown_set_text
 723              		.syntax unified
 724              		.thumb
 725              		.thumb_func
 727              	lv_dropdown_set_text:
 728              		@ args = 0, pretend = 0, frame = 0
 729              		@ frame_needed = 0, uses_anonymous_args = 0
 730              		@ link register save eliminated.
 731 0000 826A     		ldr	r2, [r0, #40]
 732 0002 8A42     		cmp	r2, r1
 733 0004 02D0     		beq	.L114
 734 0006 8162     		str	r1, [r0, #40]
 735 0008 FFF7FEBF 		b	lv_obj_invalidate
 736              	.L114:
 737 000c 7047     		bx	lr
 739 000e 00BF     		.section	.text.lv_dropdown_set_options,"ax",%progbits
 740              		.align	1
 741              		.p2align 2,,3
 742              		.global	lv_dropdown_set_options
 743              		.syntax unified
 744              		.thumb
 745              		.thumb_func
 747              	lv_dropdown_set_options:
 748              		@ args = 0, pretend = 0, frame = 0
 749              		@ frame_needed = 0, uses_anonymous_args = 0
 750 0000 0029     		cmp	r1, #0
 751 0002 39D0     		beq	.L118
 752 0004 F8B5     		push	{r3, r4, r5, r6, r7, lr}
 753 0006 0022     		movs	r2, #0
 754 0008 8286     		strh	r2, [r0, #52]	@ movhi
 755 000a 0B78     		ldrb	r3, [r1]	@ zero_extendqisi2
 756 000c 0446     		mov	r4, r0
 757 000e 0D46     		mov	r5, r1
 758 0010 002B     		cmp	r3, #0
 759 0012 3ED0     		beq	.L126
 760 0014 8C46     		mov	ip, r1
 761              	.L121:
 762 0016 0A2B     		cmp	r3, #10
ARM GAS  /var/folders/lp/x54gwt890xv47sdkqj1k04q40000gn/T//ccfBcMQq.s 			page 14


 763 0018 02D1     		bne	.L120
 764 001a 0132     		adds	r2, r2, #1
 765 001c 92B2     		uxth	r2, r2
 766 001e A286     		strh	r2, [r4, #52]	@ movhi
 767              	.L120:
 768 0020 1CF8013F 		ldrb	r3, [ip, #1]!	@ zero_extendqisi2
 769 0024 002B     		cmp	r3, #0
 770 0026 F6D1     		bne	.L121
 771 0028 0132     		adds	r2, r2, #1
 772 002a 92B2     		uxth	r2, r2
 773              	.L119:
 774 002c 0023     		movs	r3, #0
 775 002e A286     		strh	r2, [r4, #52]	@ movhi
 776 0030 E386     		strh	r3, [r4, #54]	@ movhi
 777 0032 2387     		strh	r3, [r4, #56]	@ movhi
 778 0034 2846     		mov	r0, r5
 779 0036 FFF7FEFF 		bl	strlen
 780 003a 461C     		adds	r6, r0, #1
 781 003c 206B     		ldr	r0, [r4, #48]
 782 003e 20B1     		cbz	r0, .L122
 783 0040 94F83C30 		ldrb	r3, [r4, #60]	@ zero_extendqisi2
 784 0044 13F01007 		ands	r7, r3, #16
 785 0048 18D0     		beq	.L133
 786              	.L122:
 787 004a 3046     		mov	r0, r6
 788 004c FFF7FEFF 		bl	lv_mem_alloc
 789 0050 2063     		str	r0, [r4, #48]
 790 0052 90B1     		cbz	r0, .L124
 791              	.L123:
 792 0054 2946     		mov	r1, r5
 793 0056 FFF7FEFF 		bl	strcpy
 794 005a 94F83C30 		ldrb	r3, [r4, #60]	@ zero_extendqisi2
 795 005e 23F01003 		bic	r3, r3, #16
 796 0062 2046     		mov	r0, r4
 797 0064 84F83C30 		strb	r3, [r4, #60]
 798 0068 FFF7FEFF 		bl	lv_obj_invalidate
 799 006c 606A     		ldr	r0, [r4, #36]
 800 006e 78B1     		cbz	r0, .L116
 801 0070 BDE8F840 		pop	{r3, r4, r5, r6, r7, lr}
 802 0074 FFF7FEBF 		b	lv_obj_invalidate
 803              	.L118:
 804 0078 FEE7     		b	.L118
 805              	.L124:
 806 007a FEE7     		b	.L124
 807              	.L133:
 808 007c FFF7FEFF 		bl	lv_mem_free
 809 0080 2763     		str	r7, [r4, #48]
 810 0082 3046     		mov	r0, r6
 811 0084 FFF7FEFF 		bl	lv_mem_alloc
 812 0088 2063     		str	r0, [r4, #48]
 813 008a 0028     		cmp	r0, #0
 814 008c E2D1     		bne	.L123
 815 008e F4E7     		b	.L124
 816              	.L116:
 817 0090 F8BD     		pop	{r3, r4, r5, r6, r7, pc}
 818              	.L126:
 819 0092 0122     		movs	r2, #1
ARM GAS  /var/folders/lp/x54gwt890xv47sdkqj1k04q40000gn/T//ccfBcMQq.s 			page 15


 820 0094 CAE7     		b	.L119
 822 0096 00BF     		.section	.text.lv_dropdown_set_options_static,"ax",%progbits
 823              		.align	1
 824              		.p2align 2,,3
 825              		.global	lv_dropdown_set_options_static
 826              		.syntax unified
 827              		.thumb
 828              		.thumb_func
 830              	lv_dropdown_set_options_static:
 831              		@ args = 0, pretend = 0, frame = 0
 832              		@ frame_needed = 0, uses_anonymous_args = 0
 833              		@ link register save eliminated.
 834 0000 19B1     		cbz	r1, .L136
 835 0002 0022     		movs	r2, #0
 836 0004 8286     		strh	r2, [r0, #52]	@ movhi
 837 0006 FFF7FEBF 		b	lv_dropdown_set_options_static.part.0.constprop.0
 838              	.L136:
 839 000a FEE7     		b	.L136
 841              		.section	.rodata.lv_dropdown_add_option.str1.4,"aMS",%progbits,1
 842              		.align	2
 843              	.LC2:
 844 0000 0A00     		.ascii	"\012\000"
 845              		.section	.text.lv_dropdown_add_option,"ax",%progbits
 846              		.align	1
 847              		.p2align 2,,3
 848              		.global	lv_dropdown_add_option
 849              		.syntax unified
 850              		.thumb
 851              		.thumb_func
 853              	lv_dropdown_add_option:
 854              		@ args = 0, pretend = 0, frame = 0
 855              		@ frame_needed = 0, uses_anonymous_args = 0
 856 0000 0029     		cmp	r1, #0
 857 0002 6BD0     		beq	.L139
 858 0004 90F83C30 		ldrb	r3, [r0, #60]	@ zero_extendqisi2
 859 0008 DB06     		lsls	r3, r3, #27
 860 000a 2DE9F047 		push	{r4, r5, r6, r7, r8, r9, r10, lr}
 861 000e D0F83090 		ldr	r9, [r0, #48]
 862 0012 0546     		mov	r5, r0
 863 0014 1646     		mov	r6, r2
 864 0016 0F46     		mov	r7, r1
 865 0018 62D4     		bmi	.L178
 866 001a B9F1000F 		cmp	r9, #0
 867 001e 77D0     		beq	.L161
 868              	.L179:
 869 0020 4846     		mov	r0, r9
 870 0022 FFF7FEFF 		bl	strlen
 871 0026 0446     		mov	r4, r0
 872              	.L143:
 873 0028 3846     		mov	r0, r7
 874 002a FFF7FEFF 		bl	strlen
 875 002e 8046     		mov	r8, r0
 876 0030 08EB0401 		add	r1, r8, r4
 877 0034 4846     		mov	r0, r9
 878 0036 0431     		adds	r1, r1, #4
 879 0038 FFF7FEFF 		bl	lv_mem_realloc
 880 003c 2863     		str	r0, [r5, #48]
ARM GAS  /var/folders/lp/x54gwt890xv47sdkqj1k04q40000gn/T//ccfBcMQq.s 			page 16


 881 003e 0028     		cmp	r0, #0
 882 0040 4DD0     		beq	.L145
 883 0042 4FF6FF73 		movw	r3, #65535
 884 0046 0021     		movs	r1, #0
 885 0048 9E42     		cmp	r6, r3
 886 004a 0155     		strb	r1, [r0, r4]
 887 004c 08F10308 		add	r8, r8, #3
 888 0050 66D0     		beq	.L146
 889 0052 D5F830A0 		ldr	r10, [r5, #48]
 890 0056 9AF80040 		ldrb	r4, [r10]	@ zero_extendqisi2
 891 005a A4B1     		cbz	r4, .L177
 892 005c 002E     		cmp	r6, #0
 893 005e 79D0     		beq	.L163
 894 0060 5246     		mov	r2, r10
 895 0062 02E0     		b	.L148
 896              	.L153:
 897 0064 B142     		cmp	r1, r6
 898 0066 07D0     		beq	.L151
 899 0068 0246     		mov	r2, r0
 900              	.L148:
 901 006a 0A2C     		cmp	r4, #10
 902 006c 5478     		ldrb	r4, [r2, #1]	@ zero_extendqisi2
 903 006e 08BF     		it	eq
 904 0070 0131     		addeq	r1, r1, #1
 905 0072 501C     		adds	r0, r2, #1
 906 0074 002C     		cmp	r4, #0
 907 0076 F5D1     		bne	.L153
 908              	.L151:
 909 0078 CAF10104 		rsb	r4, r10, #1
 910 007c A418     		adds	r4, r4, r2
 911 007e 02D0     		beq	.L177
 912 0080 AB8E     		ldrh	r3, [r5, #52]
 913 0082 B342     		cmp	r3, r6
 914 0084 50D9     		bls	.L150
 915              	.L177:
 916 0086 DFF8D490 		ldr	r9, .L180+4
 917              	.L147:
 918 008a 4046     		mov	r0, r8
 919 008c FFF7FEFF 		bl	lv_mem_buf_get
 920 0090 8046     		mov	r8, r0
 921 0092 0028     		cmp	r0, #0
 922 0094 43D0     		beq	.L155
 923 0096 3946     		mov	r1, r7
 924 0098 FFF7FEFF 		bl	stpcpy
 925 009c AB8E     		ldrh	r3, [r5, #52]
 926 009e B342     		cmp	r3, r6
 927 00a0 02D9     		bls	.L157
 928 00a2 2D4B     		ldr	r3, .L180
 929 00a4 1B88     		ldrh	r3, [r3]	@ unaligned
 930 00a6 0380     		strh	r3, [r0]	@ unaligned
 931              	.L157:
 932 00a8 2E6B     		ldr	r6, [r5, #48]
 933 00aa D9F80030 		ldr	r3, [r9]
 934 00ae 2146     		mov	r1, r4
 935 00b0 3046     		mov	r0, r6
 936 00b2 9847     		blx	r3
 937 00b4 4246     		mov	r2, r8
ARM GAS  /var/folders/lp/x54gwt890xv47sdkqj1k04q40000gn/T//ccfBcMQq.s 			page 17


 938 00b6 0146     		mov	r1, r0
 939 00b8 3046     		mov	r0, r6
 940 00ba FFF7FEFF 		bl	_lv_txt_ins
 941 00be 4046     		mov	r0, r8
 942 00c0 FFF7FEFF 		bl	lv_mem_buf_release
 943 00c4 AB8E     		ldrh	r3, [r5, #52]
 944 00c6 0133     		adds	r3, r3, #1
 945 00c8 2846     		mov	r0, r5
 946 00ca AB86     		strh	r3, [r5, #52]	@ movhi
 947 00cc FFF7FEFF 		bl	lv_obj_invalidate
 948 00d0 686A     		ldr	r0, [r5, #36]
 949 00d2 B8B3     		cbz	r0, .L137
 950 00d4 BDE8F047 		pop	{r4, r5, r6, r7, r8, r9, r10, lr}
 951 00d8 FFF7FEBF 		b	lv_obj_invalidate
 952              	.L139:
 953 00dc FEE7     		b	.L139
 954              	.L145:
 955 00de FEE7     		b	.L145
 956              	.L178:
 957 00e0 4846     		mov	r0, r9
 958 00e2 FFF7FEFF 		bl	strlen
 959 00e6 0130     		adds	r0, r0, #1
 960 00e8 FFF7FEFF 		bl	lv_mem_alloc
 961 00ec 2863     		str	r0, [r5, #48]
 962 00ee 70B1     		cbz	r0, .L142
 963 00f0 4946     		mov	r1, r9
 964 00f2 FFF7FEFF 		bl	strcpy
 965 00f6 95F83C30 		ldrb	r3, [r5, #60]	@ zero_extendqisi2
 966 00fa D5F83090 		ldr	r9, [r5, #48]
 967 00fe 23F01003 		bic	r3, r3, #16
 968 0102 85F83C30 		strb	r3, [r5, #60]
 969 0106 B9F1000F 		cmp	r9, #0
 970 010a 89D1     		bne	.L179
 971 010c 00E0     		b	.L161
 972              	.L142:
 973 010e FEE7     		b	.L142
 974              	.L161:
 975 0110 4C46     		mov	r4, r9
 976 0112 89E7     		b	.L143
 977              	.L149:
 978 0114 4046     		mov	r0, r8
 979 0116 FFF7FEFF 		bl	lv_mem_buf_get
 980 011a 8046     		mov	r8, r0
 981 011c A0B9     		cbnz	r0, .L174
 982              	.L155:
 983              	.L173:
 984 011e FEE7     		b	.L173
 985              	.L146:
 986 0120 002C     		cmp	r4, #0
 987 0122 F7D0     		beq	.L149
 988 0124 D5F830A0 		ldr	r10, [r5, #48]
 989              	.L150:
 990 0128 DFF83090 		ldr	r9, .L180+4
 991 012c 2146     		mov	r1, r4
 992 012e D9F80030 		ldr	r3, [r9]
 993 0132 5046     		mov	r0, r10
 994 0134 9847     		blx	r3
ARM GAS  /var/folders/lp/x54gwt890xv47sdkqj1k04q40000gn/T//ccfBcMQq.s 			page 18


 995 0136 084A     		ldr	r2, .L180
 996 0138 0146     		mov	r1, r0
 997 013a 5046     		mov	r0, r10
 998 013c 0134     		adds	r4, r4, #1
 999 013e FFF7FEFF 		bl	_lv_txt_ins
 1000 0142 A2E7     		b	.L147
 1001              	.L137:
 1002 0144 BDE8F087 		pop	{r4, r5, r6, r7, r8, r9, r10, pc}
 1003              	.L174:
 1004 0148 3946     		mov	r1, r7
 1005 014a FFF7FEFF 		bl	strcpy
 1006 014e DFF80C90 		ldr	r9, .L180+4
 1007 0152 A9E7     		b	.L157
 1008              	.L163:
 1009 0154 3446     		mov	r4, r6
 1010 0156 96E7     		b	.L177
 1011              	.L181:
 1012              		.align	2
 1013              	.L180:
 1014 0158 00000000 		.word	.LC2
 1015 015c 00000000 		.word	_lv_txt_encoded_get_char_id
 1017              		.section	.text.lv_dropdown_clear_options,"ax",%progbits
 1018              		.align	1
 1019              		.p2align 2,,3
 1020              		.global	lv_dropdown_clear_options
 1021              		.syntax unified
 1022              		.thumb
 1023              		.thumb_func
 1025              	lv_dropdown_clear_options:
 1026              		@ args = 0, pretend = 0, frame = 0
 1027              		@ frame_needed = 0, uses_anonymous_args = 0
 1028 0000 10B5     		push	{r4, lr}
 1029 0002 0446     		mov	r4, r0
 1030 0004 006B     		ldr	r0, [r0, #48]
 1031 0006 A8B1     		cbz	r0, .L182
 1032 0008 94F83C30 		ldrb	r3, [r4, #60]	@ zero_extendqisi2
 1033 000c DB06     		lsls	r3, r3, #27
 1034 000e 12D5     		bpl	.L191
 1035              	.L185:
 1036 0010 94F83C20 		ldrb	r2, [r4, #60]	@ zero_extendqisi2
 1037 0014 0023     		movs	r3, #0
 1038 0016 63F30412 		bfi	r2, r3, #4, #1
 1039 001a 2046     		mov	r0, r4
 1040 001c 2363     		str	r3, [r4, #48]
 1041 001e 84F83C20 		strb	r2, [r4, #60]
 1042 0022 A386     		strh	r3, [r4, #52]	@ movhi
 1043 0024 FFF7FEFF 		bl	lv_obj_invalidate
 1044 0028 606A     		ldr	r0, [r4, #36]
 1045 002a 18B1     		cbz	r0, .L182
 1046 002c BDE81040 		pop	{r4, lr}
 1047 0030 FFF7FEBF 		b	lv_obj_invalidate
 1048              	.L182:
 1049 0034 10BD     		pop	{r4, pc}
 1050              	.L191:
 1051 0036 FFF7FEFF 		bl	lv_mem_free
 1052 003a E9E7     		b	.L185
 1054              		.section	.text.lv_dropdown_set_selected,"ax",%progbits
ARM GAS  /var/folders/lp/x54gwt890xv47sdkqj1k04q40000gn/T//ccfBcMQq.s 			page 19


 1055              		.align	1
 1056              		.p2align 2,,3
 1057              		.global	lv_dropdown_set_selected
 1058              		.syntax unified
 1059              		.thumb
 1060              		.thumb_func
 1062              	lv_dropdown_set_selected:
 1063              		@ args = 0, pretend = 0, frame = 0
 1064              		@ frame_needed = 0, uses_anonymous_args = 0
 1065 0000 C38E     		ldrh	r3, [r0, #54]
 1066 0002 8B42     		cmp	r3, r1
 1067 0004 17D0     		beq	.L192
 1068 0006 838E     		ldrh	r3, [r0, #52]
 1069 0008 426A     		ldr	r2, [r0, #36]
 1070 000a 8B42     		cmp	r3, r1
 1071 000c 9CBF     		itt	ls
 1072 000e 03F1FF33 		addls	r3, r3, #-1
 1073 0012 99B2     		uxthls	r1, r3
 1074 0014 0023     		movs	r3, #0
 1075 0016 61F30F03 		bfi	r3, r1, #0, #16
 1076 001a 61F31F43 		bfi	r3, r1, #16, #16
 1077 001e 10B5     		push	{r4, lr}
 1078 0020 0446     		mov	r4, r0
 1079 0022 C0F83630 		str	r3, [r0, #54]	@ unaligned
 1080 0026 0AB1     		cbz	r2, .L195
 1081 0028 FFF7FEFF 		bl	position_to_selected
 1082              	.L195:
 1083 002c 2046     		mov	r0, r4
 1084 002e BDE81040 		pop	{r4, lr}
 1085 0032 FFF7FEBF 		b	lv_obj_invalidate
 1086              	.L192:
 1087 0036 7047     		bx	lr
 1089              		.section	.text.lv_dropdown_set_dir,"ax",%progbits
 1090              		.align	1
 1091              		.p2align 2,,3
 1092              		.global	lv_dropdown_set_dir
 1093              		.syntax unified
 1094              		.thumb
 1095              		.thumb_func
 1097              	lv_dropdown_set_dir:
 1098              		@ args = 0, pretend = 0, frame = 0
 1099              		@ frame_needed = 0, uses_anonymous_args = 0
 1100              		@ link register save eliminated.
 1101 0000 90F83C20 		ldrb	r2, [r0, #60]	@ zero_extendqisi2
 1102 0004 02F00F0C 		and	ip, r2, #15
 1103 0008 8C45     		cmp	ip, r1
 1104 000a 05D0     		beq	.L202
 1105 000c 61F30302 		bfi	r2, r1, #0, #4
 1106 0010 80F83C20 		strb	r2, [r0, #60]
 1107 0014 FFF7FEBF 		b	lv_obj_invalidate
 1108              	.L202:
 1109 0018 7047     		bx	lr
 1111 001a 00BF     		.section	.text.lv_dropdown_set_symbol,"ax",%progbits
 1112              		.align	1
 1113              		.p2align 2,,3
 1114              		.global	lv_dropdown_set_symbol
 1115              		.syntax unified
ARM GAS  /var/folders/lp/x54gwt890xv47sdkqj1k04q40000gn/T//ccfBcMQq.s 			page 20


 1116              		.thumb
 1117              		.thumb_func
 1119              	lv_dropdown_set_symbol:
 1120              		@ args = 0, pretend = 0, frame = 0
 1121              		@ frame_needed = 0, uses_anonymous_args = 0
 1122              		@ link register save eliminated.
 1123 0000 C162     		str	r1, [r0, #44]
 1124 0002 FFF7FEBF 		b	lv_obj_invalidate
 1126 0006 00BF     		.section	.text.lv_dropdown_set_selected_highlight,"ax",%progbits
 1127              		.align	1
 1128              		.p2align 2,,3
 1129              		.global	lv_dropdown_set_selected_highlight
 1130              		.syntax unified
 1131              		.thumb
 1132              		.thumb_func
 1134              	lv_dropdown_set_selected_highlight:
 1135              		@ args = 0, pretend = 0, frame = 0
 1136              		@ frame_needed = 0, uses_anonymous_args = 0
 1137              		@ link register save eliminated.
 1138 0000 90F83C20 		ldrb	r2, [r0, #60]	@ zero_extendqisi2
 1139 0004 0346     		mov	r3, r0
 1140 0006 406A     		ldr	r0, [r0, #36]
 1141 0008 61F34512 		bfi	r2, r1, #5, #1
 1142 000c 83F83C20 		strb	r2, [r3, #60]
 1143 0010 08B1     		cbz	r0, .L205
 1144 0012 FFF7FEBF 		b	lv_obj_invalidate
 1145              	.L205:
 1146 0016 7047     		bx	lr
 1148              		.section	.text.lv_dropdown_get_list,"ax",%progbits
 1149              		.align	1
 1150              		.p2align 2,,3
 1151              		.global	lv_dropdown_get_list
 1152              		.syntax unified
 1153              		.thumb
 1154              		.thumb_func
 1156              	lv_dropdown_get_list:
 1157              		@ args = 0, pretend = 0, frame = 0
 1158              		@ frame_needed = 0, uses_anonymous_args = 0
 1159              		@ link register save eliminated.
 1160 0000 406A     		ldr	r0, [r0, #36]
 1161 0002 7047     		bx	lr
 1163              		.section	.text.lv_dropdown_get_text,"ax",%progbits
 1164              		.align	1
 1165              		.p2align 2,,3
 1166              		.global	lv_dropdown_get_text
 1167              		.syntax unified
 1168              		.thumb
 1169              		.thumb_func
 1171              	lv_dropdown_get_text:
 1172              		@ args = 0, pretend = 0, frame = 0
 1173              		@ frame_needed = 0, uses_anonymous_args = 0
 1174              		@ link register save eliminated.
 1175 0000 806A     		ldr	r0, [r0, #40]
 1176 0002 7047     		bx	lr
 1178              		.section	.rodata.lv_dropdown_get_options.str1.4,"aMS",%progbits,1
 1179              		.align	2
 1180              	.LC3:
ARM GAS  /var/folders/lp/x54gwt890xv47sdkqj1k04q40000gn/T//ccfBcMQq.s 			page 21


 1181 0000 00       		.ascii	"\000"
 1182              		.section	.text.lv_dropdown_get_options,"ax",%progbits
 1183              		.align	1
 1184              		.p2align 2,,3
 1185              		.global	lv_dropdown_get_options
 1186              		.syntax unified
 1187              		.thumb
 1188              		.thumb_func
 1190              	lv_dropdown_get_options:
 1191              		@ args = 0, pretend = 0, frame = 0
 1192              		@ frame_needed = 0, uses_anonymous_args = 0
 1193              		@ link register save eliminated.
 1194 0000 024B     		ldr	r3, .L211
 1195 0002 006B     		ldr	r0, [r0, #48]
 1196 0004 0028     		cmp	r0, #0
 1197 0006 08BF     		it	eq
 1198 0008 1846     		moveq	r0, r3
 1199 000a 7047     		bx	lr
 1200              	.L212:
 1201              		.align	2
 1202              	.L211:
 1203 000c 00000000 		.word	.LC3
 1205              		.section	.text.lv_dropdown_get_selected,"ax",%progbits
 1206              		.align	1
 1207              		.p2align 2,,3
 1208              		.global	lv_dropdown_get_selected
 1209              		.syntax unified
 1210              		.thumb
 1211              		.thumb_func
 1213              	lv_dropdown_get_selected:
 1214              		@ args = 0, pretend = 0, frame = 0
 1215              		@ frame_needed = 0, uses_anonymous_args = 0
 1216              		@ link register save eliminated.
 1217 0000 C08E     		ldrh	r0, [r0, #54]
 1218 0002 7047     		bx	lr
 1220              		.section	.text.lv_dropdown_get_option_cnt,"ax",%progbits
 1221              		.align	1
 1222              		.p2align 2,,3
 1223              		.global	lv_dropdown_get_option_cnt
 1224              		.syntax unified
 1225              		.thumb
 1226              		.thumb_func
 1228              	lv_dropdown_get_option_cnt:
 1229              		@ args = 0, pretend = 0, frame = 0
 1230              		@ frame_needed = 0, uses_anonymous_args = 0
 1231              		@ link register save eliminated.
 1232 0000 808E     		ldrh	r0, [r0, #52]
 1233 0002 7047     		bx	lr
 1235              		.section	.text.lv_dropdown_get_selected_str,"ax",%progbits
 1236              		.align	1
 1237              		.p2align 2,,3
 1238              		.global	lv_dropdown_get_selected_str
 1239              		.syntax unified
 1240              		.thumb
 1241              		.thumb_func
 1243              	lv_dropdown_get_selected_str:
 1244              		@ args = 0, pretend = 0, frame = 0
ARM GAS  /var/folders/lp/x54gwt890xv47sdkqj1k04q40000gn/T//ccfBcMQq.s 			page 22


 1245              		@ frame_needed = 0, uses_anonymous_args = 0
 1246 0000 F8B5     		push	{r3, r4, r5, r6, r7, lr}
 1247 0002 046B     		ldr	r4, [r0, #48]
 1248 0004 0F46     		mov	r7, r1
 1249 0006 7CB3     		cbz	r4, .L216
 1250 0008 0546     		mov	r5, r0
 1251 000a 2046     		mov	r0, r4
 1252 000c 1646     		mov	r6, r2
 1253 000e FFF7FEFF 		bl	strlen
 1254 0012 30B3     		cbz	r0, .L217
 1255 0014 0021     		movs	r1, #0
 1256 0016 B5F838E0 		ldrh	lr, [r5, #56]
 1257 001a 631E     		subs	r3, r4, #1
 1258 001c 8C46     		mov	ip, r1
 1259 001e 08E0     		b	.L218
 1260              	.L221:
 1261 0020 13F8012F 		ldrb	r2, [r3, #1]!	@ zero_extendqisi2
 1262 0024 0CF1010C 		add	ip, ip, #1
 1263 0028 0A2A     		cmp	r2, #10
 1264 002a 08BF     		it	eq
 1265 002c 0131     		addeq	r1, r1, #1
 1266 002e 6045     		cmp	r0, ip
 1267 0030 17D0     		beq	.L217
 1268              	.L218:
 1269 0032 8E45     		cmp	lr, r1
 1270 0034 F4D1     		bne	.L221
 1271 0036 6045     		cmp	r0, ip
 1272 0038 13D9     		bls	.L217
 1273 003a A0EB0C0E 		sub	lr, r0, ip
 1274 003e 7A1E     		subs	r2, r7, #1
 1275 0040 0023     		movs	r3, #0
 1276 0042 711E     		subs	r1, r6, #1
 1277 0044 08E0     		b	.L222
 1278              	.L225:
 1279 0046 0EB1     		cbz	r6, .L223
 1280 0048 9942     		cmp	r1, r3
 1281 004a 09D9     		bls	.L234
 1282              	.L223:
 1283 004c 0133     		adds	r3, r3, #1
 1284 004e 7345     		cmp	r3, lr
 1285 0050 02F8014F 		strb	r4, [r2, #1]!
 1286 0054 04D0     		beq	.L234
 1287 0056 2C6B     		ldr	r4, [r5, #48]
 1288              	.L222:
 1289 0058 6444     		add	r4, r4, ip
 1290 005a E45C     		ldrb	r4, [r4, r3]	@ zero_extendqisi2
 1291 005c 0A2C     		cmp	r4, #10
 1292 005e F2D1     		bne	.L225
 1293              	.L234:
 1294 0060 1F44     		add	r7, r7, r3
 1295              	.L217:
 1296 0062 0023     		movs	r3, #0
 1297 0064 3B70     		strb	r3, [r7]
 1298 0066 F8BD     		pop	{r3, r4, r5, r6, r7, pc}
 1299              	.L216:
 1300 0068 0C70     		strb	r4, [r1]
 1301 006a F8BD     		pop	{r3, r4, r5, r6, r7, pc}
ARM GAS  /var/folders/lp/x54gwt890xv47sdkqj1k04q40000gn/T//ccfBcMQq.s 			page 23


 1303              		.section	.text.lv_dropdown_get_option_index,"ax",%progbits
 1304              		.align	1
 1305              		.p2align 2,,3
 1306              		.global	lv_dropdown_get_option_index
 1307              		.syntax unified
 1308              		.thumb
 1309              		.thumb_func
 1311              	lv_dropdown_get_option_index:
 1312              		@ args = 0, pretend = 0, frame = 0
 1313              		@ frame_needed = 0, uses_anonymous_args = 0
 1314 0000 2DE9F843 		push	{r3, r4, r5, r6, r7, r8, r9, lr}
 1315 0004 066B     		ldr	r6, [r0, #48]
 1316 0006 D6B1     		cbz	r6, .L249
 1317 0008 0846     		mov	r0, r1
 1318 000a 8946     		mov	r9, r1
 1319 000c FFF7FEFF 		bl	strlen
 1320 0010 3378     		ldrb	r3, [r6]	@ zero_extendqisi2
 1321 0012 8046     		mov	r8, r0
 1322 0014 0027     		movs	r7, #0
 1323 0016 93B1     		cbz	r3, .L249
 1324              	.L237:
 1325 0018 0A2B     		cmp	r3, #10
 1326 001a 21D0     		beq	.L257
 1327 001c 3546     		mov	r5, r6
 1328 001e 0023     		movs	r3, #0
 1329              	.L239:
 1330 0020 15F8014F 		ldrb	r4, [r5, #1]!	@ zero_extendqisi2
 1331 0024 0A2C     		cmp	r4, #10
 1332 0026 03F10103 		add	r3, r3, #1
 1333 002a 15D0     		beq	.L238
 1334 002c 002C     		cmp	r4, #0
 1335 002e F7D1     		bne	.L239
 1336 0030 9845     		cmp	r8, r3
 1337 0032 08D0     		beq	.L245
 1338              	.L248:
 1339 0034 2E46     		mov	r6, r5
 1340              	.L242:
 1341 0036 3378     		ldrb	r3, [r6]	@ zero_extendqisi2
 1342 0038 0137     		adds	r7, r7, #1
 1343 003a 002B     		cmp	r3, #0
 1344 003c ECD1     		bne	.L237
 1345              	.L249:
 1346 003e 4FF0FF30 		mov	r0, #-1
 1347 0042 BDE8F883 		pop	{r3, r4, r5, r6, r7, r8, r9, pc}
 1348              	.L245:
 1349 0046 4246     		mov	r2, r8
 1350 0048 4946     		mov	r1, r9
 1351 004a 3046     		mov	r0, r6
 1352 004c FFF7FEFF 		bl	memcmp
 1353 0050 58B1     		cbz	r0, .L243
 1354 0052 0A2C     		cmp	r4, #10
 1355 0054 EED1     		bne	.L248
 1356 0056 01E0     		b	.L244
 1357              	.L238:
 1358 0058 9845     		cmp	r8, r3
 1359 005a F4D0     		beq	.L245
 1360              	.L244:
ARM GAS  /var/folders/lp/x54gwt890xv47sdkqj1k04q40000gn/T//ccfBcMQq.s 			page 24


 1361 005c 6E1C     		adds	r6, r5, #1
 1362 005e EAE7     		b	.L242
 1363              	.L257:
 1364 0060 B8F1000F 		cmp	r8, #0
 1365 0064 01D0     		beq	.L243
 1366 0066 3546     		mov	r5, r6
 1367 0068 F8E7     		b	.L244
 1368              	.L243:
 1369 006a 3846     		mov	r0, r7
 1370 006c BDE8F883 		pop	{r3, r4, r5, r6, r7, r8, r9, pc}
 1372              		.section	.text.lv_dropdown_get_symbol,"ax",%progbits
 1373              		.align	1
 1374              		.p2align 2,,3
 1375              		.global	lv_dropdown_get_symbol
 1376              		.syntax unified
 1377              		.thumb
 1378              		.thumb_func
 1380              	lv_dropdown_get_symbol:
 1381              		@ args = 0, pretend = 0, frame = 0
 1382              		@ frame_needed = 0, uses_anonymous_args = 0
 1383              		@ link register save eliminated.
 1384 0000 C06A     		ldr	r0, [r0, #44]
 1385 0002 7047     		bx	lr
 1387              		.section	.text.lv_dropdown_get_selected_highlight,"ax",%progbits
 1388              		.align	1
 1389              		.p2align 2,,3
 1390              		.global	lv_dropdown_get_selected_highlight
 1391              		.syntax unified
 1392              		.thumb
 1393              		.thumb_func
 1395              	lv_dropdown_get_selected_highlight:
 1396              		@ args = 0, pretend = 0, frame = 0
 1397              		@ frame_needed = 0, uses_anonymous_args = 0
 1398              		@ link register save eliminated.
 1399 0000 90F83C00 		ldrb	r0, [r0, #60]	@ zero_extendqisi2
 1400 0004 C0F34010 		ubfx	r0, r0, #5, #1
 1401 0008 7047     		bx	lr
 1403 000a 00BF     		.section	.text.lv_dropdown_get_dir,"ax",%progbits
 1404              		.align	1
 1405              		.p2align 2,,3
 1406              		.global	lv_dropdown_get_dir
 1407              		.syntax unified
 1408              		.thumb
 1409              		.thumb_func
 1411              	lv_dropdown_get_dir:
 1412              		@ args = 0, pretend = 0, frame = 0
 1413              		@ frame_needed = 0, uses_anonymous_args = 0
 1414              		@ link register save eliminated.
 1415 0000 90F83C00 		ldrb	r0, [r0, #60]	@ zero_extendqisi2
 1416 0004 00F00F00 		and	r0, r0, #15
 1417 0008 7047     		bx	lr
 1419 000a 00BF     		.section	.text.lv_dropdown_open,"ax",%progbits
 1420              		.align	1
 1421              		.p2align 2,,3
 1422              		.global	lv_dropdown_open
 1423              		.syntax unified
 1424              		.thumb
ARM GAS  /var/folders/lp/x54gwt890xv47sdkqj1k04q40000gn/T//ccfBcMQq.s 			page 25


 1425              		.thumb_func
 1427              	lv_dropdown_open:
 1428              		@ args = 0, pretend = 0, frame = 0
 1429              		@ frame_needed = 0, uses_anonymous_args = 0
 1430 0000 2DE9F041 		push	{r4, r5, r6, r7, r8, lr}
 1431 0004 0121     		movs	r1, #1
 1432 0006 0446     		mov	r4, r0
 1433 0008 82B0     		sub	sp, sp, #8
 1434 000a FFF7FEFF 		bl	lv_obj_add_state
 1435 000e 2046     		mov	r0, r4
 1436 0010 656A     		ldr	r5, [r4, #36]
 1437 0012 FFF7FEFF 		bl	lv_obj_get_screen
 1438 0016 0146     		mov	r1, r0
 1439 0018 2846     		mov	r0, r5
 1440 001a FFF7FEFF 		bl	lv_obj_set_parent
 1441 001e 606A     		ldr	r0, [r4, #36]
 1442 0020 4FF0FF31 		mov	r1, #-1
 1443 0024 FFF7FEFF 		bl	lv_obj_move_to_index
 1444 0028 606A     		ldr	r0, [r4, #36]
 1445 002a 0121     		movs	r1, #1
 1446 002c FFF7FEFF 		bl	lv_obj_clear_flag
 1447 0030 0022     		movs	r2, #0
 1448 0032 1F21     		movs	r1, #31
 1449 0034 2046     		mov	r0, r4
 1450 0036 FFF7FEFF 		bl	lv_event_send
 1451 003a 666A     		ldr	r6, [r4, #36]
 1452 003c 26B1     		cbz	r6, .L262
 1453 003e 3046     		mov	r0, r6
 1454 0040 0021     		movs	r1, #0
 1455 0042 FFF7FEFF 		bl	lv_obj_get_child
 1456 0046 0646     		mov	r6, r0
 1457              	.L262:
 1458 0048 216B     		ldr	r1, [r4, #48]
 1459 004a 3046     		mov	r0, r6
 1460 004c FFF7FEFF 		bl	lv_label_set_text_static
 1461 0050 42F2D171 		movw	r1, #10193
 1462 0054 606A     		ldr	r0, [r4, #36]
 1463 0056 FFF7FEFF 		bl	lv_obj_set_width
 1464 005a 3046     		mov	r0, r6
 1465 005c FFF7FEFF 		bl	lv_obj_update_layout
 1466 0060 606A     		ldr	r0, [r4, #36]
 1467 0062 FFF7FEFF 		bl	lv_obj_get_width
 1468 0066 0546     		mov	r5, r0
 1469 0068 2046     		mov	r0, r4
 1470 006a FFF7FEFF 		bl	lv_obj_get_width
 1471 006e 8542     		cmp	r5, r0
 1472 0070 09DC     		bgt	.L263
 1473 0072 94F83C20 		ldrb	r2, [r4, #60]	@ zero_extendqisi2
 1474 0076 4FF48873 		mov	r3, #272
 1475 007a 02F00F02 		and	r2, r2, #15
 1476 007e D340     		lsrs	r3, r3, r2
 1477 0080 DB07     		lsls	r3, r3, #31
 1478 0082 00F1AD80 		bmi	.L292
 1479              	.L263:
 1480 0086 3046     		mov	r0, r6
 1481 0088 FFF7FEFF 		bl	lv_obj_get_height
 1482 008c 3222     		movs	r2, #50
ARM GAS  /var/folders/lp/x54gwt890xv47sdkqj1k04q40000gn/T//ccfBcMQq.s 			page 26


 1483 008e 0746     		mov	r7, r0
 1484 0090 0021     		movs	r1, #0
 1485 0092 606A     		ldr	r0, [r4, #36]
 1486 0094 FFF7FEFF 		bl	lv_obj_get_style_prop
 1487 0098 1022     		movs	r2, #16
 1488 009a 8046     		mov	r8, r0
 1489 009c 0021     		movs	r1, #0
 1490 009e 606A     		ldr	r0, [r4, #36]
 1491 00a0 FFF7FEFF 		bl	lv_obj_get_style_prop
 1492 00a4 1122     		movs	r2, #17
 1493 00a6 0546     		mov	r5, r0
 1494 00a8 0021     		movs	r1, #0
 1495 00aa 606A     		ldr	r0, [r4, #36]
 1496 00ac FFF7FEFF 		bl	lv_obj_get_style_prop
 1497 00b0 94F83C30 		ldrb	r3, [r4, #60]	@ zero_extendqisi2
 1498 00b4 0544     		add	r5, r5, r0
 1499 00b6 03F00F02 		and	r2, r3, #15
 1500 00ba 05EB4805 		add	r5, r5, r8, lsl #1
 1501 00be 3D44     		add	r5, r5, r7
 1502 00c0 082A     		cmp	r2, #8
 1503 00c2 2DB2     		sxth	r5, r5
 1504 00c4 1746     		mov	r7, r2
 1505 00c6 53D0     		beq	.L293
 1506 00c8 042A     		cmp	r2, #4
 1507 00ca 0FD0     		beq	.L294
 1508              	.L268:
 1509 00cc 606A     		ldr	r0, [r4, #36]
 1510 00ce 2946     		mov	r1, r5
 1511 00d0 FFF7FEFF 		bl	lv_obj_set_height
 1512 00d4 2046     		mov	r0, r4
 1513 00d6 FFF7FEFF 		bl	position_to_selected
 1514 00da 7B1E     		subs	r3, r7, #1
 1515 00dc 072B     		cmp	r3, #7
 1516 00de 2AD8     		bhi	.L272
 1517 00e0 DFE803F0 		tbb	[pc, r3]
 1518              	.L273:
 1519 00e4 76       		.byte	(.L275-.L273)/2
 1520 00e5 6E       		.byte	(.L274-.L273)/2
 1521 00e6 29       		.byte	(.L272-.L273)/2
 1522 00e7 66       		.byte	(.L267-.L273)/2
 1523 00e8 29       		.byte	(.L272-.L273)/2
 1524 00e9 29       		.byte	(.L272-.L273)/2
 1525 00ea 29       		.byte	(.L272-.L273)/2
 1526 00eb 22       		.byte	(.L271-.L273)/2
 1527              		.p2align 1
 1528              	.L294:
 1529 00ec B4F91680 		ldrsh	r8, [r4, #22]
 1530 00f0 A845     		cmp	r8, r5
 1531 00f2 EBDA     		bge	.L268
 1532 00f4 FFF7FEFF 		bl	lv_disp_get_default
 1533 00f8 FFF7FEFF 		bl	lv_disp_get_ver_res
 1534 00fc B4F91A30 		ldrsh	r3, [r4, #26]
 1535 0100 C01A     		subs	r0, r0, r3
 1536 0102 8045     		cmp	r8, r0
 1537 0104 80F29180 		bge	.L270
 1538 0108 FFF7FEFF 		bl	lv_disp_get_default
 1539 010c FFF7FEFF 		bl	lv_disp_get_ver_res
ARM GAS  /var/folders/lp/x54gwt890xv47sdkqj1k04q40000gn/T//ccfBcMQq.s 			page 27


 1540 0110 638B     		ldrh	r3, [r4, #26]
 1541 0112 C11A     		subs	r1, r0, r3
 1542 0114 09B2     		sxth	r1, r1
 1543 0116 A942     		cmp	r1, r5
 1544 0118 606A     		ldr	r0, [r4, #36]
 1545 011a A8BF     		it	ge
 1546 011c 2946     		movge	r1, r5
 1547 011e FFF7FEFF 		bl	lv_obj_set_height
 1548 0122 2046     		mov	r0, r4
 1549 0124 FFF7FEFF 		bl	position_to_selected
 1550              	.L271:
 1551 0128 0023     		movs	r3, #0
 1552 012a 0093     		str	r3, [sp]
 1553 012c 606A     		ldr	r0, [r4, #36]
 1554 012e 0D22     		movs	r2, #13
 1555 0130 2146     		mov	r1, r4
 1556 0132 FFF7FEFF 		bl	lv_obj_align_to
 1557              	.L272:
 1558 0136 606A     		ldr	r0, [r4, #36]
 1559 0138 FFF7FEFF 		bl	lv_obj_update_layout
 1560 013c 94F83C30 		ldrb	r3, [r4, #60]	@ zero_extendqisi2
 1561 0140 03F00F03 		and	r3, r3, #15
 1562 0144 013B     		subs	r3, r3, #1
 1563 0146 012B     		cmp	r3, #1
 1564 0148 53D9     		bls	.L295
 1565              	.L277:
 1566 014a 226B     		ldr	r2, [r4, #48]
 1567 014c 0021     		movs	r1, #0
 1568 014e 3046     		mov	r0, r6
 1569 0150 FFF7FEFF 		bl	lv_obj_calculate_style_text_align
 1570 0154 0023     		movs	r3, #0
 1571 0156 0228     		cmp	r0, #2
 1572 0158 0146     		mov	r1, r0
 1573 015a 1A46     		mov	r2, r3
 1574 015c 02D0     		beq	.L291
 1575 015e 0328     		cmp	r0, #3
 1576 0160 18BF     		it	ne
 1577 0162 0121     		movne	r1, #1
 1578              	.L291:
 1579 0164 3046     		mov	r0, r6
 1580 0166 02B0     		add	sp, sp, #8
 1581              		@ sp needed
 1582 0168 BDE8F041 		pop	{r4, r5, r6, r7, r8, lr}
 1583 016c FFF7FEBF 		b	lv_obj_align
 1584              	.L293:
 1585 0170 B4F91A80 		ldrsh	r8, [r4, #26]
 1586 0174 FFF7FEFF 		bl	lv_disp_get_default
 1587 0178 FFF7FEFF 		bl	lv_disp_get_ver_res
 1588 017c A844     		add	r8, r8, r5
 1589 017e 8045     		cmp	r8, r0
 1590 0180 A4DD     		ble	.L268
 1591 0182 B4F91680 		ldrsh	r8, [r4, #22]
 1592 0186 FFF7FEFF 		bl	lv_disp_get_default
 1593 018a FFF7FEFF 		bl	lv_disp_get_ver_res
 1594 018e B4F91A30 		ldrsh	r3, [r4, #26]
 1595 0192 C01A     		subs	r0, r0, r3
 1596 0194 8045     		cmp	r8, r0
ARM GAS  /var/folders/lp/x54gwt890xv47sdkqj1k04q40000gn/T//ccfBcMQq.s 			page 28


 1597 0196 4EDD     		ble	.L266
 1598 0198 E18A     		ldrh	r1, [r4, #22]
 1599 019a 606A     		ldr	r0, [r4, #36]
 1600 019c 0139     		subs	r1, r1, #1
 1601 019e 09B2     		sxth	r1, r1
 1602 01a0 A942     		cmp	r1, r5
 1603 01a2 A8BF     		it	ge
 1604 01a4 2946     		movge	r1, r5
 1605 01a6 FFF7FEFF 		bl	lv_obj_set_height
 1606 01aa 2046     		mov	r0, r4
 1607 01ac FFF7FEFF 		bl	position_to_selected
 1608              	.L267:
 1609 01b0 0023     		movs	r3, #0
 1610 01b2 0093     		str	r3, [sp]
 1611 01b4 606A     		ldr	r0, [r4, #36]
 1612 01b6 0A22     		movs	r2, #10
 1613 01b8 2146     		mov	r1, r4
 1614 01ba FFF7FEFF 		bl	lv_obj_align_to
 1615 01be BAE7     		b	.L272
 1616              	.L274:
 1617 01c0 0023     		movs	r3, #0
 1618 01c2 0093     		str	r3, [sp]
 1619 01c4 606A     		ldr	r0, [r4, #36]
 1620 01c6 1322     		movs	r2, #19
 1621 01c8 2146     		mov	r1, r4
 1622 01ca FFF7FEFF 		bl	lv_obj_align_to
 1623 01ce B2E7     		b	.L272
 1624              	.L275:
 1625 01d0 0023     		movs	r3, #0
 1626 01d2 0093     		str	r3, [sp]
 1627 01d4 606A     		ldr	r0, [r4, #36]
 1628 01d6 1022     		movs	r2, #16
 1629 01d8 2146     		mov	r1, r4
 1630 01da FFF7FEFF 		bl	lv_obj_align_to
 1631 01de AAE7     		b	.L272
 1632              	.L292:
 1633 01e0 2046     		mov	r0, r4
 1634 01e2 656A     		ldr	r5, [r4, #36]
 1635 01e4 FFF7FEFF 		bl	lv_obj_get_width
 1636 01e8 0146     		mov	r1, r0
 1637 01ea 2846     		mov	r0, r5
 1638 01ec FFF7FEFF 		bl	lv_obj_set_width
 1639 01f0 49E7     		b	.L263
 1640              	.L295:
 1641 01f2 606A     		ldr	r0, [r4, #36]
 1642 01f4 FFF7FEFF 		bl	lv_obj_get_y
 1643 01f8 0546     		mov	r5, r0
 1644 01fa 606A     		ldr	r0, [r4, #36]
 1645 01fc FFF7FEFF 		bl	lv_obj_get_y2
 1646 0200 0746     		mov	r7, r0
 1647 0202 FFF7FEFF 		bl	lv_disp_get_default
 1648 0206 FFF7FEFF 		bl	lv_disp_get_ver_res
 1649 020a B842     		cmp	r0, r7
 1650 020c 9DDC     		bgt	.L277
 1651 020e D4F82480 		ldr	r8, [r4, #36]
 1652 0212 FFF7FEFF 		bl	lv_disp_get_default
 1653 0216 FFF7FEFF 		bl	lv_disp_get_ver_res
ARM GAS  /var/folders/lp/x54gwt890xv47sdkqj1k04q40000gn/T//ccfBcMQq.s 			page 29


 1654 021a 691E     		subs	r1, r5, #1
 1655 021c C91B     		subs	r1, r1, r7
 1656 021e 0144     		add	r1, r1, r0
 1657 0220 09B2     		sxth	r1, r1
 1658 0222 4046     		mov	r0, r8
 1659 0224 FFF7FEFF 		bl	lv_obj_set_y
 1660 0228 8FE7     		b	.L277
 1661              	.L270:
 1662 022a B4F91630 		ldrsh	r3, [r4, #22]
 1663 022e 9D42     		cmp	r5, r3
 1664 0230 A8BF     		it	ge
 1665 0232 1D46     		movge	r5, r3
 1666 0234 4AE7     		b	.L268
 1667              	.L266:
 1668 0236 FFF7FEFF 		bl	lv_disp_get_default
 1669 023a FFF7FEFF 		bl	lv_disp_get_ver_res
 1670 023e 638B     		ldrh	r3, [r4, #26]
 1671 0240 C31A     		subs	r3, r0, r3
 1672 0242 013B     		subs	r3, r3, #1
 1673 0244 1BB2     		sxth	r3, r3
 1674 0246 9D42     		cmp	r5, r3
 1675 0248 A8BF     		it	ge
 1676 024a 1D46     		movge	r5, r3
 1677 024c 3EE7     		b	.L268
 1679 024e 00BF     		.section	.text.btn_release_handler.isra.0,"ax",%progbits
 1680              		.align	1
 1681              		.p2align 2,,3
 1682              		.syntax unified
 1683              		.thumb
 1684              		.thumb_func
 1686              	btn_release_handler.isra.0:
 1687              		@ args = 0, pretend = 0, frame = 8
 1688              		@ frame_needed = 0, uses_anonymous_args = 0
 1689 0000 70B5     		push	{r4, r5, r6, lr}
 1690 0002 82B0     		sub	sp, sp, #8
 1691 0004 0446     		mov	r4, r0
 1692 0006 FFF7FEFF 		bl	lv_indev_get_act
 1693 000a 0546     		mov	r5, r0
 1694 000c FFF7FEFF 		bl	lv_indev_get_scroll_obj
 1695 0010 38B1     		cbz	r0, .L303
 1696 0012 238F     		ldrh	r3, [r4, #56]
 1697 0014 E386     		strh	r3, [r4, #54]	@ movhi
 1698 0016 2046     		mov	r0, r4
 1699 0018 02B0     		add	sp, sp, #8
 1700              		@ sp needed
 1701 001a BDE87040 		pop	{r4, r5, r6, lr}
 1702 001e FFF7FEBF 		b	lv_obj_invalidate
 1703              	.L303:
 1704 0022 606A     		ldr	r0, [r4, #36]
 1705 0024 0121     		movs	r1, #1
 1706 0026 FFF7FEFF 		bl	lv_obj_has_flag
 1707 002a 0646     		mov	r6, r0
 1708 002c F0B9     		cbnz	r0, .L298
 1709 002e 0121     		movs	r1, #1
 1710 0030 2046     		mov	r0, r4
 1711 0032 FFF7FEFF 		bl	lv_obj_clear_state
 1712 0036 4FF6FF73 		movw	r3, #65535
ARM GAS  /var/folders/lp/x54gwt890xv47sdkqj1k04q40000gn/T//ccfBcMQq.s 			page 30


 1713 003a 6387     		strh	r3, [r4, #58]	@ movhi
 1714 003c 606A     		ldr	r0, [r4, #36]
 1715 003e 0121     		movs	r1, #1
 1716 0040 FFF7FEFF 		bl	lv_obj_add_flag
 1717 0044 3246     		mov	r2, r6
 1718 0046 2021     		movs	r1, #32
 1719 0048 2046     		mov	r0, r4
 1720 004a FFF7FEFF 		bl	lv_event_send
 1721 004e E38E     		ldrh	r3, [r4, #54]
 1722 0050 228F     		ldrh	r2, [r4, #56]
 1723 0052 9A42     		cmp	r2, r3
 1724 0054 13D0     		beq	.L299
 1725 0056 2387     		strh	r3, [r4, #56]	@ movhi
 1726 0058 01AA     		add	r2, sp, #4
 1727 005a 1C21     		movs	r1, #28
 1728 005c 2046     		mov	r0, r4
 1729 005e 0193     		str	r3, [sp, #4]
 1730 0060 FFF7FEFF 		bl	lv_event_send
 1731 0064 0128     		cmp	r0, #1
 1732 0066 07D0     		beq	.L304
 1733              	.L296:
 1734 0068 02B0     		add	sp, sp, #8
 1735              		@ sp needed
 1736 006a 70BD     		pop	{r4, r5, r6, pc}
 1737              	.L298:
 1738 006c 2046     		mov	r0, r4
 1739 006e 02B0     		add	sp, sp, #8
 1740              		@ sp needed
 1741 0070 BDE87040 		pop	{r4, r5, r6, lr}
 1742 0074 FFF7FEBF 		b	lv_dropdown_open
 1743              	.L304:
 1744 0078 2046     		mov	r0, r4
 1745 007a FFF7FEFF 		bl	lv_obj_invalidate
 1746              	.L299:
 1747 007e 2846     		mov	r0, r5
 1748 0080 FFF7FEFF 		bl	lv_indev_get_type
 1749 0084 0428     		cmp	r0, #4
 1750 0086 EFD1     		bne	.L296
 1751 0088 2046     		mov	r0, r4
 1752 008a FFF7FEFF 		bl	lv_obj_get_group
 1753 008e 0021     		movs	r1, #0
 1754 0090 02B0     		add	sp, sp, #8
 1755              		@ sp needed
 1756 0092 BDE87040 		pop	{r4, r5, r6, lr}
 1757 0096 FFF7FEBF 		b	lv_group_set_editing
 1759 009a 00BF     		.section	.text.lv_dropdown_event,"ax",%progbits
 1760              		.align	1
 1761              		.p2align 2,,3
 1762              		.syntax unified
 1763              		.thumb
 1764              		.thumb_func
 1766              	lv_dropdown_event:
 1767              		@ args = 0, pretend = 0, frame = 96
 1768              		@ frame_needed = 0, uses_anonymous_args = 0
 1769 0000 2DE9F04F 		push	{r4, r5, r6, r7, r8, r9, r10, fp, lr}
 1770 0004 6B48     		ldr	r0, .L363
 1771 0006 9DB0     		sub	sp, sp, #116
ARM GAS  /var/folders/lp/x54gwt890xv47sdkqj1k04q40000gn/T//ccfBcMQq.s 			page 31


 1772 0008 0D46     		mov	r5, r1
 1773 000a FFF7FEFF 		bl	lv_obj_event_base
 1774 000e 0128     		cmp	r0, #1
 1775 0010 02D0     		beq	.L356
 1776              	.L305:
 1777 0012 1DB0     		add	sp, sp, #116
 1778              		@ sp needed
 1779 0014 BDE8F08F 		pop	{r4, r5, r6, r7, r8, r9, r10, fp, pc}
 1780              	.L356:
 1781 0018 2846     		mov	r0, r5
 1782 001a FFF7FEFF 		bl	lv_event_get_code
 1783 001e 0446     		mov	r4, r0
 1784 0020 2846     		mov	r0, r5
 1785 0022 FFF7FEFF 		bl	lv_event_get_target
 1786 0026 A4F10803 		sub	r3, r4, #8
 1787 002a 0646     		mov	r6, r0
 1788 002c 242B     		cmp	r3, #36
 1789 002e F0D8     		bhi	.L305
 1790 0030 01A2     		adr	r2, .L310
 1791 0032 52F823F0 		ldr	pc, [r2, r3, lsl #2]
 1792 0036 00BF     		.p2align 2
 1793              	.L310:
 1794 0038 09010000 		.word	.L353+1
 1795 003c 13000000 		.word	.L305+1
 1796 0040 13000000 		.word	.L305+1
 1797 0044 13000000 		.word	.L305+1
 1798 0048 13000000 		.word	.L305+1
 1799 004c 15010000 		.word	.L315+1
 1800 0050 75010000 		.word	.L314+1
 1801 0054 DB000000 		.word	.L352+1
 1802 0058 DB000000 		.word	.L352+1
 1803 005c 13000000 		.word	.L305+1
 1804 0060 13000000 		.word	.L305+1
 1805 0064 13000000 		.word	.L305+1
 1806 0068 13000000 		.word	.L305+1
 1807 006c B9010000 		.word	.L312+1
 1808 0070 13000000 		.word	.L305+1
 1809 0074 13000000 		.word	.L305+1
 1810 0078 13000000 		.word	.L305+1
 1811 007c 13000000 		.word	.L305+1
 1812 0080 13000000 		.word	.L305+1
 1813 0084 13000000 		.word	.L305+1
 1814 0088 13000000 		.word	.L305+1
 1815 008c 13000000 		.word	.L305+1
 1816 0090 13000000 		.word	.L305+1
 1817 0094 13000000 		.word	.L305+1
 1818 0098 13000000 		.word	.L305+1
 1819 009c 13000000 		.word	.L305+1
 1820 00a0 13000000 		.word	.L305+1
 1821 00a4 13000000 		.word	.L305+1
 1822 00a8 13000000 		.word	.L305+1
 1823 00ac 13000000 		.word	.L305+1
 1824 00b0 13000000 		.word	.L305+1
 1825 00b4 13000000 		.word	.L305+1
 1826 00b8 13000000 		.word	.L305+1
 1827 00bc CD000000 		.word	.L311+1
 1828 00c0 CD000000 		.word	.L311+1
ARM GAS  /var/folders/lp/x54gwt890xv47sdkqj1k04q40000gn/T//ccfBcMQq.s 			page 32


 1829 00c4 13000000 		.word	.L305+1
 1830 00c8 9D010000 		.word	.L309+1
 1831              		.p2align 1
 1832              	.L311:
 1833 00cc 1DB0     		add	sp, sp, #116
 1834              		@ sp needed
 1835 00ce BDE8F04F 		pop	{r4, r5, r6, r7, r8, r9, r10, fp, lr}
 1836 00d2 FFF7FEBF 		b	lv_obj_refresh_self_size
 1837              	.L319:
 1838 00d6 338F     		ldrh	r3, [r6, #56]
 1839 00d8 F386     		strh	r3, [r6, #54]	@ movhi
 1840              	.L352:
 1841 00da 3046     		mov	r0, r6
 1842 00dc 0121     		movs	r1, #1
 1843 00de FFF7FEFF 		bl	lv_obj_clear_state
 1844 00e2 4FF6FF73 		movw	r3, #65535
 1845 00e6 706A     		ldr	r0, [r6, #36]
 1846 00e8 7387     		strh	r3, [r6, #58]	@ movhi
 1847 00ea 0121     		movs	r1, #1
 1848 00ec FFF7FEFF 		bl	lv_obj_add_flag
 1849 00f0 0022     		movs	r2, #0
 1850 00f2 2021     		movs	r1, #32
 1851 00f4 3046     		mov	r0, r6
 1852 00f6 1DB0     		add	sp, sp, #116
 1853              		@ sp needed
 1854 00f8 BDE8F04F 		pop	{r4, r5, r6, r7, r8, r9, r10, fp, lr}
 1855 00fc FFF7FEBF 		b	lv_event_send
 1856              	.L323:
 1857 0100 FFF7FEFF 		bl	lv_indev_get_obj_act
 1858 0104 8642     		cmp	r6, r0
 1859 0106 84D0     		beq	.L305
 1860              	.L353:
 1861 0108 3046     		mov	r0, r6
 1862 010a 1DB0     		add	sp, sp, #116
 1863              		@ sp needed
 1864 010c BDE8F04F 		pop	{r4, r5, r6, r7, r8, r9, r10, fp, lr}
 1865 0110 FFF7FEBF 		b	btn_release_handler.isra.0
 1866              	.L315:
 1867 0114 2846     		mov	r0, r5
 1868 0116 FFF7FEFF 		bl	lv_event_get_param
 1869 011a 0378     		ldrb	r3, [r0]	@ zero_extendqisi2
 1870 011c 0A3B     		subs	r3, r3, #10
 1871 011e 112B     		cmp	r3, #17
 1872 0120 3FF677AF 		bhi	.L305
 1873 0124 01A2     		adr	r2, .L320
 1874 0126 52F823F0 		ldr	pc, [r2, r3, lsl #2]
 1875 012a 00BF     		.p2align 2
 1876              	.L320:
 1877 012c 01010000 		.word	.L323+1
 1878 0130 13000000 		.word	.L305+1
 1879 0134 13000000 		.word	.L305+1
 1880 0138 13000000 		.word	.L305+1
 1881 013c 13000000 		.word	.L305+1
 1882 0140 13000000 		.word	.L305+1
 1883 0144 13000000 		.word	.L305+1
 1884 0148 C7030000 		.word	.L321+1
 1885 014c 9F030000 		.word	.L322+1
ARM GAS  /var/folders/lp/x54gwt890xv47sdkqj1k04q40000gn/T//ccfBcMQq.s 			page 33


 1886 0150 9F030000 		.word	.L322+1
 1887 0154 C7030000 		.word	.L321+1
 1888 0158 13000000 		.word	.L305+1
 1889 015c 13000000 		.word	.L305+1
 1890 0160 13000000 		.word	.L305+1
 1891 0164 13000000 		.word	.L305+1
 1892 0168 13000000 		.word	.L305+1
 1893 016c 13000000 		.word	.L305+1
 1894 0170 D7000000 		.word	.L319+1
 1895              		.p2align 1
 1896              	.L314:
 1897 0174 FFF7FEFF 		bl	lv_obj_get_group
 1898 0178 FFF7FEFF 		bl	lv_group_get_editing
 1899 017c 0446     		mov	r4, r0
 1900 017e FFF7FEFF 		bl	lv_indev_get_act
 1901 0182 FFF7FEFF 		bl	lv_indev_get_type
 1902 0186 0428     		cmp	r0, #4
 1903 0188 7FF443AF 		bne	.L305
 1904 018c 002C     		cmp	r4, #0
 1905 018e A2D0     		beq	.L319
 1906              	.L354:
 1907 0190 3046     		mov	r0, r6
 1908 0192 1DB0     		add	sp, sp, #116
 1909              		@ sp needed
 1910 0194 BDE8F04F 		pop	{r4, r5, r6, r7, r8, r9, r10, fp, lr}
 1911 0198 FFF7FEBF 		b	lv_dropdown_open
 1912              	.L309:
 1913 019c 2846     		mov	r0, r5
 1914 019e FFF7FEFF 		bl	lv_event_get_param
 1915 01a2 5722     		movs	r2, #87
 1916 01a4 0446     		mov	r4, r0
 1917 01a6 0021     		movs	r1, #0
 1918 01a8 3046     		mov	r0, r6
 1919 01aa FFF7FEFF 		bl	lv_obj_get_style_prop
 1920 01ae 0389     		ldrh	r3, [r0, #8]
 1921 01b0 6380     		strh	r3, [r4, #2]	@ movhi
 1922 01b2 2EE7     		b	.L305
 1923              	.L364:
 1924              		.align	2
 1925              	.L363:
 1926 01b4 00000000 		.word	lv_dropdown_class
 1927              	.L312:
 1928 01b8 2846     		mov	r0, r5
 1929 01ba FFF7FEFF 		bl	lv_event_get_target
 1930 01be 0446     		mov	r4, r0
 1931 01c0 2846     		mov	r0, r5
 1932 01c2 FFF7FEFF 		bl	lv_event_get_draw_ctx
 1933 01c6 3222     		movs	r2, #50
 1934 01c8 0021     		movs	r1, #0
 1935 01ca 8146     		mov	r9, r0
 1936 01cc 2046     		mov	r0, r4
 1937 01ce FFF7FEFF 		bl	lv_obj_get_style_prop
 1938 01d2 1222     		movs	r2, #18
 1939 01d4 0021     		movs	r1, #0
 1940 01d6 0546     		mov	r5, r0
 1941 01d8 2046     		mov	r0, r4
 1942 01da FFF7FEFF 		bl	lv_obj_get_style_prop
ARM GAS  /var/folders/lp/x54gwt890xv47sdkqj1k04q40000gn/T//ccfBcMQq.s 			page 34


 1943 01de ADB2     		uxth	r5, r5
 1944 01e0 2844     		add	r0, r0, r5
 1945 01e2 1322     		movs	r2, #19
 1946 01e4 0021     		movs	r1, #0
 1947 01e6 1FFA80FB 		uxth	fp, r0
 1948 01ea 2046     		mov	r0, r4
 1949 01ec FFF7FEFF 		bl	lv_obj_get_style_prop
 1950 01f0 2844     		add	r0, r0, r5
 1951 01f2 83B2     		uxth	r3, r0
 1952 01f4 1022     		movs	r2, #16
 1953 01f6 0021     		movs	r1, #0
 1954 01f8 2046     		mov	r0, r4
 1955 01fa 0493     		str	r3, [sp, #16]
 1956 01fc FFF7FEFF 		bl	lv_obj_get_style_prop
 1957 0200 0544     		add	r5, r5, r0
 1958 0202 0CA8     		add	r0, sp, #48
 1959 0204 FFF7FEFF 		bl	lv_draw_label_dsc_init
 1960 0208 0CAA     		add	r2, sp, #48
 1961 020a 4FF40031 		mov	r1, #131072
 1962 020e 2046     		mov	r0, r4
 1963 0210 FFF7FEFF 		bl	lv_obj_init_draw_label_dsc
 1964 0214 D4F82880 		ldr	r8, [r4, #40]
 1965 0218 ADB2     		uxth	r5, r5
 1966 021a B8F1000F 		cmp	r8, #0
 1967 021e 00F02181 		beq	.L357
 1968              	.L326:
 1969 0222 1622     		movs	r2, #22
 1970 0224 0021     		movs	r1, #0
 1971 0226 2046     		mov	r0, r4
 1972 0228 94F83C70 		ldrb	r7, [r4, #60]	@ zero_extendqisi2
 1973 022c FFF7FEFF 		bl	lv_obj_get_style_prop
 1974 0230 C6B2     		uxtb	r6, r0
 1975 0232 012E     		cmp	r6, #1
 1976 0234 06D0     		beq	.L327
 1977 0236 07F00F07 		and	r7, r7, #15
 1978 023a A7F10106 		sub	r6, r7, #1
 1979 023e B6FA86F6 		clz	r6, r6
 1980 0242 7609     		lsrs	r6, r6, #5
 1981              	.L327:
 1982 0244 E06A     		ldr	r0, [r4, #44]
 1983 0246 0028     		cmp	r0, #0
 1984 0248 00F0CA80 		beq	.L358
 1985 024c FFF7FEFF 		bl	lv_img_src_get_type
 1986 0250 0228     		cmp	r0, #2
 1987 0252 0590     		str	r0, [sp, #20]
 1988 0254 00F0EC80 		beq	.L359
 1989 0258 14AF     		add	r7, sp, #80
 1990 025a E06A     		ldr	r0, [r4, #44]
 1991 025c 3946     		mov	r1, r7
 1992 025e FFF7FEFF 		bl	lv_img_decoder_get_info
 1993 0262 0128     		cmp	r0, #1
 1994 0264 00F01881 		beq	.L360
 1995 0268 4FF6FF72 		movw	r2, #65535
 1996 026c 4FF0FF3A 		mov	r10, #-1
 1997 0270 9646     		mov	lr, r2
 1998 0272 5346     		mov	r3, r10
 1999              	.L330:
ARM GAS  /var/folders/lp/x54gwt890xv47sdkqj1k04q40000gn/T//ccfBcMQq.s 			page 35


 2000 0274 002E     		cmp	r6, #0
 2001 0276 00F0BE80 		beq	.L332
 2002 027a B4F814C0 		ldrh	ip, [r4, #20]
 2003 027e DC44     		add	ip, ip, fp
 2004 0280 1FFA8CF1 		uxth	r1, ip
 2005 0284 0139     		subs	r1, r1, #1
 2006 0286 7144     		add	r1, r1, lr
 2007 0288 0FFA8CF0 		sxth	r0, ip
 2008 028c 09B2     		sxth	r1, r1
 2009              	.L333:
 2010 028e ADF82800 		strh	r0, [sp, #40]	@ movhi
 2011 0292 0598     		ldr	r0, [sp, #20]
 2012 0294 ADF82C10 		strh	r1, [sp, #44]	@ movhi
 2013 0298 0228     		cmp	r0, #2
 2014 029a E18A     		ldrh	r1, [r4, #22]
 2015 029c 00F0B580 		beq	.L361
 2016 02a0 2046     		mov	r0, r4
 2017 02a2 0593     		str	r3, [sp, #20]
 2018 02a4 CDE90621 		strd	r2, r1, [sp, #24]
 2019 02a8 FFF7FEFF 		bl	lv_obj_get_height
 2020 02ac 0799     		ldr	r1, [sp, #28]
 2021 02ae 069A     		ldr	r2, [sp, #24]
 2022 02b0 A0EB0A00 		sub	r0, r0, r10
 2023 02b4 00EBD070 		add	r0, r0, r0, lsr #31
 2024 02b8 01EB6001 		add	r1, r1, r0, asr #1
 2025 02bc 89B2     		uxth	r1, r1
 2026 02be 013A     		subs	r2, r2, #1
 2027 02c0 0A44     		add	r2, r2, r1
 2028 02c2 3846     		mov	r0, r7
 2029 02c4 ADF82A10 		strh	r1, [sp, #42]	@ movhi
 2030 02c8 ADF82E20 		strh	r2, [sp, #46]	@ movhi
 2031 02cc FFF7FEFF 		bl	lv_draw_img_dsc_init
 2032 02d0 3A46     		mov	r2, r7
 2033 02d2 4FF40031 		mov	r1, #131072
 2034 02d6 2046     		mov	r0, r4
 2035 02d8 FFF7FEFF 		bl	lv_obj_init_draw_img_dsc
 2036 02dc 059B     		ldr	r3, [sp, #20]
 2037 02de 03EBD373 		add	r3, r3, r3, lsr #31
 2038 02e2 0AEBDA7A 		add	r10, r10, r10, lsr #31
 2039 02e6 5B10     		asrs	r3, r3, #1
 2040 02e8 ADF85430 		strh	r3, [sp, #84]	@ movhi
 2041 02ec 6E22     		movs	r2, #110
 2042 02ee 4FEA6A03 		asr	r3, r10, #1
 2043 02f2 4FF40031 		mov	r1, #131072
 2044 02f6 2046     		mov	r0, r4
 2045 02f8 ADF85630 		strh	r3, [sp, #86]	@ movhi
 2046 02fc FFF7FEFF 		bl	lv_obj_get_style_prop
 2047 0300 0DF1280A 		add	r10, sp, #40
 2048 0304 ADF85000 		strh	r0, [sp, #80]	@ movhi
 2049 0308 E36A     		ldr	r3, [r4, #44]
 2050 030a 5246     		mov	r2, r10
 2051 030c 3946     		mov	r1, r7
 2052 030e 4846     		mov	r0, r9
 2053 0310 FFF7FEFF 		bl	lv_draw_img
 2054              	.L328:
 2055 0314 3846     		mov	r0, r7
 2056 0316 FFF7FEFF 		bl	lv_draw_label_dsc_init
ARM GAS  /var/folders/lp/x54gwt890xv47sdkqj1k04q40000gn/T//ccfBcMQq.s 			page 36


 2057 031a 3A46     		mov	r2, r7
 2058 031c 0021     		movs	r1, #0
 2059 031e 2046     		mov	r0, r4
 2060 0320 FFF7FEFF 		bl	lv_obj_init_draw_label_dsc
 2061 0324 41F6FF73 		movw	r3, #8191
 2062 0328 0193     		str	r3, [sp, #4]
 2063 032a 9DF86D30 		ldrb	r3, [sp, #109]	@ zero_extendqisi2
 2064 032e 0293     		str	r3, [sp, #8]
 2065 0330 BDF96230 		ldrsh	r3, [sp, #98]
 2066 0334 0093     		str	r3, [sp]
 2067 0336 149A     		ldr	r2, [sp, #80]
 2068 0338 BDF96430 		ldrsh	r3, [sp, #100]
 2069 033c 4146     		mov	r1, r8
 2070 033e 09A8     		add	r0, sp, #36
 2071 0340 FFF7FEFF 		bl	lv_txt_get_size
 2072 0344 E38A     		ldrh	r3, [r4, #22]
 2073 0346 1D44     		add	r5, r5, r3
 2074 0348 BDF82630 		ldrh	r3, [sp, #38]
 2075 034c ADB2     		uxth	r5, r5
 2076 034e ADF82A50 		strh	r5, [sp, #42]	@ movhi
 2077 0352 1D44     		add	r5, r5, r3
 2078 0354 E36A     		ldr	r3, [r4, #44]
 2079 0356 ADF82E50 		strh	r5, [sp, #46]	@ movhi
 2080 035a 002B     		cmp	r3, #0
 2081 035c 00F08C80 		beq	.L362
 2082 0360 BDF82430 		ldrh	r3, [sp, #36]
 2083 0364 002E     		cmp	r6, #0
 2084 0366 3FD0     		beq	.L338
 2085 0368 049A     		ldr	r2, [sp, #16]
 2086 036a 218B     		ldrh	r1, [r4, #24]
 2087 036c 891A     		subs	r1, r1, r2
 2088 036e 89B2     		uxth	r1, r1
 2089 0370 CB1A     		subs	r3, r1, r3
 2090 0372 1AB2     		sxth	r2, r3
 2091 0374 0BB2     		sxth	r3, r1
 2092              	.L337:
 2093 0376 ADF82C30 		strh	r3, [sp, #44]	@ movhi
 2094 037a 0023     		movs	r3, #0
 2095 037c ADF82820 		strh	r2, [sp, #40]	@ movhi
 2096 0380 0093     		str	r3, [sp]
 2097 0382 5246     		mov	r2, r10
 2098 0384 4346     		mov	r3, r8
 2099 0386 3946     		mov	r1, r7
 2100 0388 4846     		mov	r0, r9
 2101 038a FFF7FEFF 		bl	lv_draw_label
 2102 038e A36A     		ldr	r3, [r4, #40]
 2103 0390 002B     		cmp	r3, #0
 2104 0392 7FF43EAE 		bne	.L305
 2105 0396 4046     		mov	r0, r8
 2106 0398 FFF7FEFF 		bl	lv_mem_buf_release
 2107 039c 39E6     		b	.L305
 2108              	.L322:
 2109 039e 706A     		ldr	r0, [r6, #36]
 2110 03a0 0121     		movs	r1, #1
 2111 03a2 FFF7FEFF 		bl	lv_obj_has_flag
 2112 03a6 0028     		cmp	r0, #0
 2113 03a8 7FF4F2AE 		bne	.L354
ARM GAS  /var/folders/lp/x54gwt890xv47sdkqj1k04q40000gn/T//ccfBcMQq.s 			page 37


 2114 03ac F38E     		ldrh	r3, [r6, #54]
 2115 03ae B28E     		ldrh	r2, [r6, #52]
 2116 03b0 0133     		adds	r3, r3, #1
 2117 03b2 9342     		cmp	r3, r2
 2118 03b4 BFF62DAE 		bge	.L305
 2119              	.L355:
 2120 03b8 3046     		mov	r0, r6
 2121 03ba F386     		strh	r3, [r6, #54]	@ movhi
 2122 03bc 1DB0     		add	sp, sp, #116
 2123              		@ sp needed
 2124 03be BDE8F04F 		pop	{r4, r5, r6, r7, r8, r9, r10, fp, lr}
 2125 03c2 FFF7FEBF 		b	position_to_selected
 2126              	.L321:
 2127 03c6 706A     		ldr	r0, [r6, #36]
 2128 03c8 0121     		movs	r1, #1
 2129 03ca FFF7FEFF 		bl	lv_obj_has_flag
 2130 03ce 0028     		cmp	r0, #0
 2131 03d0 7FF4DEAE 		bne	.L354
 2132 03d4 F38E     		ldrh	r3, [r6, #54]
 2133 03d6 002B     		cmp	r3, #0
 2134 03d8 3FF41BAE 		beq	.L305
 2135 03dc 013B     		subs	r3, r3, #1
 2136 03de EBE7     		b	.L355
 2137              	.L358:
 2138 03e0 14AF     		add	r7, sp, #80
 2139 03e2 0DF1280A 		add	r10, sp, #40
 2140 03e6 95E7     		b	.L328
 2141              	.L338:
 2142 03e8 A28A     		ldrh	r2, [r4, #20]
 2143 03ea 5A44     		add	r2, r2, fp
 2144 03ec 13FA82F3 		uxtah	r3, r3, r2
 2145 03f0 1BB2     		sxth	r3, r3
 2146 03f2 12B2     		sxth	r2, r2
 2147 03f4 BFE7     		b	.L337
 2148              	.L332:
 2149 03f6 0498     		ldr	r0, [sp, #16]
 2150 03f8 218B     		ldrh	r1, [r4, #24]
 2151 03fa 091A     		subs	r1, r1, r0
 2152 03fc 89B2     		uxth	r1, r1
 2153 03fe A1EB0E00 		sub	r0, r1, lr
 2154 0402 0139     		subs	r1, r1, #1
 2155 0404 00B2     		sxth	r0, r0
 2156 0406 09B2     		sxth	r1, r1
 2157 0408 41E7     		b	.L333
 2158              	.L361:
 2159 040a 6B18     		adds	r3, r5, r1
 2160 040c 9BB2     		uxth	r3, r3
 2161 040e ADF82A30 		strh	r3, [sp, #42]	@ movhi
 2162 0412 013B     		subs	r3, r3, #1
 2163 0414 1344     		add	r3, r3, r2
 2164 0416 0DF1280A 		add	r10, sp, #40
 2165 041a 0022     		movs	r2, #0
 2166 041c ADF82E30 		strh	r3, [sp, #46]	@ movhi
 2167 0420 0CA9     		add	r1, sp, #48
 2168 0422 E36A     		ldr	r3, [r4, #44]
 2169 0424 0092     		str	r2, [sp]
 2170 0426 4846     		mov	r0, r9
ARM GAS  /var/folders/lp/x54gwt890xv47sdkqj1k04q40000gn/T//ccfBcMQq.s 			page 38


 2171 0428 5246     		mov	r2, r10
 2172 042a FFF7FEFF 		bl	lv_draw_label
 2173 042e 71E7     		b	.L328
 2174              	.L359:
 2175 0430 9DF84D30 		ldrb	r3, [sp, #77]	@ zero_extendqisi2
 2176 0434 E16A     		ldr	r1, [r4, #44]
 2177 0436 0293     		str	r3, [sp, #8]
 2178 0438 BDF94230 		ldrsh	r3, [sp, #66]
 2179 043c 0093     		str	r3, [sp]
 2180 043e 14AF     		add	r7, sp, #80
 2181 0440 41F6FF73 		movw	r3, #8191
 2182 0444 0C9A     		ldr	r2, [sp, #48]
 2183 0446 0193     		str	r3, [sp, #4]
 2184 0448 3846     		mov	r0, r7
 2185 044a BDF94430 		ldrsh	r3, [sp, #68]
 2186 044e FFF7FEFF 		bl	lv_txt_get_size
 2187 0452 BDF95030 		ldrsh	r3, [sp, #80]
 2188 0456 BDF952A0 		ldrsh	r10, [sp, #82]
 2189 045a 1FFA83FE 		uxth	lr, r3
 2190 045e 1FFA8AF2 		uxth	r2, r10
 2191 0462 07E7     		b	.L330
 2192              	.L357:
 2193 0464 8020     		movs	r0, #128
 2194 0466 FFF7FEFF 		bl	lv_mem_buf_get
 2195 046a 8022     		movs	r2, #128
 2196 046c 8046     		mov	r8, r0
 2197 046e 0146     		mov	r1, r0
 2198 0470 2046     		mov	r0, r4
 2199 0472 FFF7FEFF 		bl	lv_dropdown_get_selected_str
 2200 0476 D4E6     		b	.L326
 2201              	.L362:
 2202 0478 2046     		mov	r0, r4
 2203 047a A58A     		ldrh	r5, [r4, #20]
 2204 047c FFF7FEFF 		bl	lv_obj_get_width
 2205 0480 BDF92430 		ldrsh	r3, [sp, #36]
 2206 0484 C21A     		subs	r2, r0, r3
 2207 0486 02EBD272 		add	r2, r2, r2, lsr #31
 2208 048a 05EB6202 		add	r2, r5, r2, asr #1
 2209 048e 13FA82F3 		uxtah	r3, r3, r2
 2210 0492 1BB2     		sxth	r3, r3
 2211 0494 12B2     		sxth	r2, r2
 2212 0496 6EE7     		b	.L337
 2213              	.L360:
 2214 0498 BDF85220 		ldrh	r2, [sp, #82]
 2215 049c 1498     		ldr	r0, [sp, #80]
 2216 049e C2F34A1A 		ubfx	r10, r2, #5, #11
 2217 04a2 C0F38A23 		ubfx	r3, r0, #10, #11
 2218 04a6 9E46     		mov	lr, r3
 2219 04a8 5246     		mov	r2, r10
 2220 04aa E3E6     		b	.L330
 2222              		.section	.text.lv_dropdown_close,"ax",%progbits
 2223              		.align	1
 2224              		.p2align 2,,3
 2225              		.global	lv_dropdown_close
 2226              		.syntax unified
 2227              		.thumb
 2228              		.thumb_func
ARM GAS  /var/folders/lp/x54gwt890xv47sdkqj1k04q40000gn/T//ccfBcMQq.s 			page 39


 2230              	lv_dropdown_close:
 2231              		@ args = 0, pretend = 0, frame = 0
 2232              		@ frame_needed = 0, uses_anonymous_args = 0
 2233 0000 10B5     		push	{r4, lr}
 2234 0002 0121     		movs	r1, #1
 2235 0004 0446     		mov	r4, r0
 2236 0006 FFF7FEFF 		bl	lv_obj_clear_state
 2237 000a 4FF6FF73 		movw	r3, #65535
 2238 000e 606A     		ldr	r0, [r4, #36]
 2239 0010 6387     		strh	r3, [r4, #58]	@ movhi
 2240 0012 0121     		movs	r1, #1
 2241 0014 FFF7FEFF 		bl	lv_obj_add_flag
 2242 0018 2046     		mov	r0, r4
 2243 001a 0022     		movs	r2, #0
 2244 001c BDE81040 		pop	{r4, lr}
 2245 0020 2021     		movs	r1, #32
 2246 0022 FFF7FEBF 		b	lv_event_send
 2248 0026 00BF     		.section	.text.lv_dropdown_is_open,"ax",%progbits
 2249              		.align	1
 2250              		.p2align 2,,3
 2251              		.global	lv_dropdown_is_open
 2252              		.syntax unified
 2253              		.thumb
 2254              		.thumb_func
 2256              	lv_dropdown_is_open:
 2257              		@ args = 0, pretend = 0, frame = 0
 2258              		@ frame_needed = 0, uses_anonymous_args = 0
 2259 0000 08B5     		push	{r3, lr}
 2260 0002 0121     		movs	r1, #1
 2261 0004 406A     		ldr	r0, [r0, #36]
 2262 0006 FFF7FEFF 		bl	lv_obj_has_flag
 2263 000a 80F00100 		eor	r0, r0, #1
 2264 000e C0B2     		uxtb	r0, r0
 2265 0010 08BD     		pop	{r3, pc}
 2267              		.global	lv_dropdownlist_class
 2268 0012 00BF     		.section	.rodata.lv_dropdownlist_class,"a"
 2269              		.align	2
 2272              	lv_dropdownlist_class:
 2273 0000 00000000 		.word	lv_obj_class
 2274 0004 00000000 		.word	lv_dropdownlist_constructor
 2275 0008 00000000 		.word	lv_dropdownlist_destructor
 2276 000c 00000000 		.space	4
 2277 0010 00000000 		.word	lv_dropdown_list_event
 2278 0014 00000000 		.space	4
 2279 0018 80       		.byte	128
 2280 0019 02       		.byte	2
 2281 001a 00       		.byte	0
 2282 001b 00       		.space	1
 2283              		.global	lv_dropdown_class
 2284              		.section	.rodata.lv_dropdown_class,"a"
 2285              		.align	2
 2288              	lv_dropdown_class:
 2289 0000 00000000 		.word	lv_obj_class
 2290 0004 00000000 		.word	lv_dropdown_constructor
 2291 0008 00000000 		.word	lv_dropdown_destructor
 2292 000c 00000000 		.space	4
 2293 0010 00000000 		.word	lv_dropdown_event
ARM GAS  /var/folders/lp/x54gwt890xv47sdkqj1k04q40000gn/T//ccfBcMQq.s 			page 40


 2294 0014 8200     		.short	130
 2295 0016 D127     		.short	10193
 2296 0018 05       		.byte	5
 2297 0019 04       		.byte	4
 2298 001a 00       		.byte	0
 2299 001b 00       		.space	1
 2300              		.ident	"GCC: (xPack GNU Arm Embedded GCC arm64) 13.3.1 20240614"
ARM GAS  /var/folders/lp/x54gwt890xv47sdkqj1k04q40000gn/T//ccfBcMQq.s 			page 41

