ARM GAS  /var/folders/lp/x54gwt890xv47sdkqj1k04q40000gn/T//cc5jfzfu.s 			page 1


   1              		.cpu cortex-m4
   2              		.arch armv7e-m
   3              		.fpu fpv4-sp-d16
   4              		.eabi_attribute 27, 1
   5              		.eabi_attribute 28, 1
   6              		.eabi_attribute 20, 1
   7              		.eabi_attribute 21, 1
   8              		.eabi_attribute 23, 3
   9              		.eabi_attribute 24, 1
  10              		.eabi_attribute 25, 1
  11              		.eabi_attribute 26, 1
  12              		.eabi_attribute 30, 2
  13              		.eabi_attribute 34, 1
  14              		.eabi_attribute 18, 4
  15              		.file	"lv_flex.c"
  16              		.text
  17              		.section	.text.lv_area_get_width,"ax",%progbits
  18              		.align	1
  19              		.p2align 2,,3
  20              		.syntax unified
  21              		.thumb
  22              		.thumb_func
  24              	lv_area_get_width:
  25              		@ args = 0, pretend = 0, frame = 0
  26              		@ frame_needed = 0, uses_anonymous_args = 0
  27              		@ link register save eliminated.
  28 0000 8388     		ldrh	r3, [r0, #4]
  29 0002 0288     		ldrh	r2, [r0]
  30 0004 581C     		adds	r0, r3, #1
  31 0006 801A     		subs	r0, r0, r2
  32 0008 00B2     		sxth	r0, r0
  33 000a 7047     		bx	lr
  35              		.section	.text.lv_area_get_height,"ax",%progbits
  36              		.align	1
  37              		.p2align 2,,3
  38              		.syntax unified
  39              		.thumb
  40              		.thumb_func
  42              	lv_area_get_height:
  43              		@ args = 0, pretend = 0, frame = 0
  44              		@ frame_needed = 0, uses_anonymous_args = 0
  45              		@ link register save eliminated.
  46 0000 C388     		ldrh	r3, [r0, #6]
  47 0002 4288     		ldrh	r2, [r0, #2]
  48 0004 581C     		adds	r0, r3, #1
  49 0006 801A     		subs	r0, r0, r2
  50 0008 00B2     		sxth	r0, r0
  51 000a 7047     		bx	lr
  53              		.section	.text.place_content,"ax",%progbits
  54              		.align	1
  55              		.p2align 2,,3
  56              		.syntax unified
  57              		.thumb
  58              		.thumb_func
  60              	place_content:
  61              		@ args = 8, pretend = 0, frame = 0
  62              		@ frame_needed = 0, uses_anonymous_args = 0
ARM GAS  /var/folders/lp/x54gwt890xv47sdkqj1k04q40000gn/T//cc5jfzfu.s 			page 2


  63              		@ link register save eliminated.
  64 0000 10B4     		push	{r4}
  65 0002 012B     		cmp	r3, #1
  66 0004 019C     		ldr	r4, [sp, #4]
  67 0006 07DD     		ble	.L16
  68              	.L5:
  69 0008 0138     		subs	r0, r0, #1
  70 000a 0428     		cmp	r0, #4
  71 000c 4CD8     		bhi	.L7
  72 000e DFE800F0 		tbb	[pc, r0]
  73              	.L9:
  74 0012 15       		.byte	(.L12-.L9)/2
  75 0013 08       		.byte	(.L6-.L9)/2
  76 0014 1F       		.byte	(.L11-.L9)/2
  77 0015 2D       		.byte	(.L10-.L9)/2
  78 0016 40       		.byte	(.L8-.L9)/2
  79 0017 00       		.p2align 1
  80              	.L16:
  81 0018 A0F1030C 		sub	ip, r0, #3
  82 001c BCF1020F 		cmp	ip, #2
  83 0020 F2D8     		bhi	.L5
  84              	.L6:
  85 0022 0298     		ldr	r0, [sp, #8]
  86 0024 0023     		movs	r3, #0
  87 0026 0380     		strh	r3, [r0]	@ movhi
  88 0028 2388     		ldrh	r3, [r4]
  89 002a 891A     		subs	r1, r1, r2
  90 002c 01EBD171 		add	r1, r1, r1, lsr #31
  91 0030 03EB6103 		add	r3, r3, r1, asr #1
  92 0034 2380     		strh	r3, [r4]	@ movhi
  93              	.L4:
  94 0036 5DF8044B 		ldr	r4, [sp], #4
  95 003a 7047     		bx	lr
  96              	.L12:
  97 003c 0298     		ldr	r0, [sp, #8]
  98 003e 0023     		movs	r3, #0
  99 0040 0380     		strh	r3, [r0]	@ movhi
 100 0042 2388     		ldrh	r3, [r4]
 101 0044 8A1A     		subs	r2, r1, r2
 102 0046 D118     		adds	r1, r2, r3
 103 0048 2180     		strh	r1, [r4]	@ movhi
 104 004a 5DF8044B 		ldr	r4, [sp], #4
 105 004e 7047     		bx	lr
 106              	.L11:
 107 0050 8A1A     		subs	r2, r1, r2
 108 0052 11B2     		sxth	r1, r2
 109 0054 029A     		ldr	r2, [sp, #8]
 110 0056 0133     		adds	r3, r3, #1
 111 0058 1BB2     		sxth	r3, r3
 112 005a 91FBF3F3 		sdiv	r3, r1, r3
 113 005e 1380     		strh	r3, [r2]	@ movhi
 114 0060 2288     		ldrh	r2, [r4]
 115 0062 1344     		add	r3, r3, r2
 116 0064 2380     		strh	r3, [r4]	@ movhi
 117 0066 5DF8044B 		ldr	r4, [sp], #4
 118 006a 7047     		bx	lr
 119              	.L10:
ARM GAS  /var/folders/lp/x54gwt890xv47sdkqj1k04q40000gn/T//cc5jfzfu.s 			page 3


 120 006c 0298     		ldr	r0, [sp, #8]
 121 006e 0088     		ldrh	r0, [r0]
 122 0070 8A1A     		subs	r2, r1, r2
 123 0072 11B2     		sxth	r1, r2
 124 0074 029A     		ldr	r2, [sp, #8]
 125 0076 91FBF3F3 		sdiv	r3, r1, r3
 126 007a 0344     		add	r3, r3, r0
 127 007c 1BB2     		sxth	r3, r3
 128 007e 1380     		strh	r3, [r2]	@ movhi
 129 0080 2288     		ldrh	r2, [r4]
 130 0082 03EBD373 		add	r3, r3, r3, lsr #31
 131 0086 02EB6303 		add	r3, r2, r3, asr #1
 132 008a 2380     		strh	r3, [r4]	@ movhi
 133 008c 5DF8044B 		ldr	r4, [sp], #4
 134 0090 7047     		bx	lr
 135              	.L8:
 136 0092 8A1A     		subs	r2, r1, r2
 137 0094 11B2     		sxth	r1, r2
 138 0096 029A     		ldr	r2, [sp, #8]
 139 0098 5DF8044B 		ldr	r4, [sp], #4
 140 009c 013B     		subs	r3, r3, #1
 141 009e 1BB2     		sxth	r3, r3
 142 00a0 91FBF3F3 		sdiv	r3, r1, r3
 143 00a4 1380     		strh	r3, [r2]	@ movhi
 144 00a6 7047     		bx	lr
 145              	.L7:
 146 00a8 029A     		ldr	r2, [sp, #8]
 147 00aa 0023     		movs	r3, #0
 148 00ac 1380     		strh	r3, [r2]	@ movhi
 149 00ae C2E7     		b	.L4
 151              		.section	.text.get_next_item,"ax",%progbits
 152              		.align	1
 153              		.p2align 2,,3
 154              		.syntax unified
 155              		.thumb
 156              		.thumb_func
 158              	get_next_item:
 159              		@ args = 0, pretend = 0, frame = 0
 160              		@ frame_needed = 0, uses_anonymous_args = 0
 161              		@ link register save eliminated.
 162 0000 1368     		ldr	r3, [r2]
 163 0002 41B1     		cbz	r1, .L18
 164 0004 013B     		subs	r3, r3, #1
 165 0006 002B     		cmp	r3, #0
 166 0008 1360     		str	r3, [r2]
 167 000a 0EDB     		blt	.L21
 168 000c 8268     		ldr	r2, [r0, #8]
 169 000e 1268     		ldr	r2, [r2]
 170 0010 52F82300 		ldr	r0, [r2, r3, lsl #2]
 171 0014 7047     		bx	lr
 172              	.L18:
 173 0016 8168     		ldr	r1, [r0, #8]
 174 0018 0133     		adds	r3, r3, #1
 175 001a 1360     		str	r3, [r2]
 176 001c 4A68     		ldr	r2, [r1, #4]
 177 001e 9342     		cmp	r3, r2
 178 0020 03DA     		bge	.L21
ARM GAS  /var/folders/lp/x54gwt890xv47sdkqj1k04q40000gn/T//cc5jfzfu.s 			page 4


 179 0022 0A68     		ldr	r2, [r1]
 180 0024 52F82300 		ldr	r0, [r2, r3, lsl #2]
 181 0028 7047     		bx	lr
 182              	.L21:
 183 002a 0020     		movs	r0, #0
 184 002c 7047     		bx	lr
 186 002e 00BF     		.section	.text.find_track_end,"ax",%progbits
 187              		.align	1
 188              		.p2align 2,,3
 189              		.syntax unified
 190              		.thumb
 191              		.thumb_func
 193              	find_track_end:
 194              		@ args = 8, pretend = 0, frame = 32
 195              		@ frame_needed = 0, uses_anonymous_args = 0
 196 0000 2DE9F04F 		push	{r4, r5, r6, r7, r8, r9, r10, fp, lr}
 197 0004 89B0     		sub	sp, sp, #36
 198 0006 0F46     		mov	r7, r1
 199 0008 0293     		str	r3, [sp, #8]
 200 000a 0021     		movs	r1, #0
 201 000c BDF94830 		ldrsh	r3, [sp, #72]
 202 0010 0193     		str	r3, [sp, #4]
 203 0012 9146     		mov	r9, r2
 204 0014 0122     		movs	r2, #1
 205 0016 8246     		mov	r10, r0
 206 0018 139E     		ldr	r6, [sp, #76]
 207 001a FFF7FEFF 		bl	lv_obj_get_style_prop
 208 001e 0422     		movs	r2, #4
 209 0020 0446     		mov	r4, r0
 210 0022 0021     		movs	r1, #0
 211 0024 5046     		mov	r0, r10
 212 0026 FFF7FEFF 		bl	lv_obj_get_style_prop
 213 002a FB78     		ldrb	r3, [r7, #3]	@ zero_extendqisi2
 214 002c 9A07     		lsls	r2, r3, #30
 215 002e 15D5     		bpl	.L23
 216 0030 DD07     		lsls	r5, r3, #31
 217 0032 09D5     		bpl	.L24
 218 0034 24B2     		sxth	r4, r4
 219 0036 42F2D173 		movw	r3, #10193
 220 003a 9C42     		cmp	r4, r3
 221 003c 09D0     		beq	.L25
 222              	.L28:
 223 003e 824B     		ldr	r3, .L80
 224 0040 DFF80882 		ldr	r8, .L80+4
 225 0044 0393     		str	r3, [sp, #12]
 226 0046 0FE0     		b	.L26
 227              	.L24:
 228 0048 00B2     		sxth	r0, r0
 229 004a 42F2D173 		movw	r3, #10193
 230 004e 9842     		cmp	r0, r3
 231 0050 06D1     		bne	.L27
 232              	.L25:
 233 0052 FB78     		ldrb	r3, [r7, #3]	@ zero_extendqisi2
 234 0054 23F00203 		bic	r3, r3, #2
 235 0058 FB70     		strb	r3, [r7, #3]
 236 005a DBB2     		uxtb	r3, r3
 237              	.L23:
ARM GAS  /var/folders/lp/x54gwt890xv47sdkqj1k04q40000gn/T//cc5jfzfu.s 			page 5


 238 005c D907     		lsls	r1, r3, #31
 239 005e EED4     		bmi	.L28
 240              	.L27:
 241 0060 7A4B     		ldr	r3, .L80+4
 242 0062 DFF8E481 		ldr	r8, .L80
 243 0066 0393     		str	r3, [sp, #12]
 244              	.L26:
 245 0068 0023     		movs	r3, #0
 246 006a C6E90233 		strd	r3, r3, [r6, #8]
 247 006e B380     		strh	r3, [r6, #4]	@ movhi
 248 0070 3361     		str	r3, [r6, #16]
 249 0072 3360     		str	r3, [r6]
 250 0074 4946     		mov	r1, r9
 251 0076 5046     		mov	r0, r10
 252 0078 CDF81C90 		str	r9, [sp, #28]
 253 007c FFF7FEFF 		bl	lv_obj_get_child
 254 0080 0446     		mov	r4, r0
 255 0082 0028     		cmp	r0, #0
 256 0084 00F0DC80 		beq	.L74
 257 0088 DFF8C8B1 		ldr	fp, .L80+12
 258 008c 4D46     		mov	r5, r9
 259              	.L29:
 260 008e 5946     		mov	r1, fp
 261 0090 2046     		mov	r0, r4
 262 0092 FFF7FEFF 		bl	lv_obj_has_flag_any
 263 0096 68B3     		cbz	r0, .L75
 264              	.L33:
 265 0098 FB78     		ldrb	r3, [r7, #3]	@ zero_extendqisi2
 266 009a 13F0040F 		tst	r3, #4
 267 009e 0CBF     		ite	eq
 268 00a0 0123     		moveq	r3, #1
 269 00a2 4FF0FF33 		movne	r3, #-1
 270 00a6 1D44     		add	r5, r5, r3
 271 00a8 002D     		cmp	r5, #0
 272 00aa 0795     		str	r5, [sp, #28]
 273 00ac 0DDB     		blt	.L73
 274 00ae 2946     		mov	r1, r5
 275 00b0 5046     		mov	r0, r10
 276 00b2 FFF7FEFF 		bl	lv_obj_get_child
 277 00b6 0446     		mov	r4, r0
 278 00b8 38B1     		cbz	r0, .L73
 279 00ba 4D45     		cmp	r5, r9
 280 00bc E7D0     		beq	.L29
 281 00be 4FF40001 		mov	r1, #8388608
 282 00c2 FFF7FEFF 		bl	lv_obj_has_flag
 283 00c6 0028     		cmp	r0, #0
 284 00c8 E1D0     		beq	.L29
 285              	.L73:
 286 00ca B6F90430 		ldrsh	r3, [r6, #4]
 287              	.L32:
 288 00ce 002B     		cmp	r3, #0
 289 00d0 02DD     		ble	.L49
 290 00d2 019A     		ldr	r2, [sp, #4]
 291 00d4 9B1A     		subs	r3, r3, r2
 292 00d6 B380     		strh	r3, [r6, #4]	@ movhi
 293              	.L49:
 294 00d8 3369     		ldr	r3, [r6, #16]
ARM GAS  /var/folders/lp/x54gwt890xv47sdkqj1k04q40000gn/T//cc5jfzfu.s 			page 6


 295 00da 002B     		cmp	r3, #0
 296 00dc 00F09280 		beq	.L76
 297              	.L50:
 298 00e0 029B     		ldr	r3, [sp, #8]
 299 00e2 7380     		strh	r3, [r6, #2]	@ movhi
 300 00e4 14B1     		cbz	r4, .L22
 301 00e6 A945     		cmp	r9, r5
 302 00e8 00F09080 		beq	.L77
 303              	.L22:
 304 00ec 2846     		mov	r0, r5
 305 00ee 09B0     		add	sp, sp, #36
 306              		@ sp needed
 307 00f0 BDE8F08F 		pop	{r4, r5, r6, r7, r8, r9, r10, fp, pc}
 308              	.L75:
 309 00f4 564B     		ldr	r3, .L80+8
 310 00f6 0146     		mov	r1, r0
 311 00f8 1A88     		ldrh	r2, [r3]
 312 00fa 2046     		mov	r0, r4
 313 00fc FFF7FEFF 		bl	lv_obj_get_style_prop
 314 0100 10F0FF03 		ands	r3, r0, #255
 315 0104 17D0     		beq	.L34
 316 0106 B288     		ldrh	r2, [r6, #4]
 317 0108 0199     		ldr	r1, [sp, #4]
 318 010a 3069     		ldr	r0, [r6, #16]
 319 010c 0A44     		add	r2, r2, r1
 320 010e B280     		strh	r2, [r6, #4]	@ movhi
 321 0110 327D     		ldrb	r2, [r6, #20]	@ zero_extendqisi2
 322 0112 0130     		adds	r0, r0, #1
 323 0114 D207     		lsls	r2, r2, #31
 324 0116 3061     		str	r0, [r6, #16]
 325 0118 1FD4     		bmi	.L78
 326              	.L35:
 327 011a 2046     		mov	r0, r4
 328 011c C047     		blx	r8
 329 011e B6F90030 		ldrsh	r3, [r6]
 330 0122 9842     		cmp	r0, r3
 331 0124 02DD     		ble	.L45
 332 0126 2046     		mov	r0, r4
 333 0128 C047     		blx	r8
 334 012a 0346     		mov	r3, r0
 335              	.L45:
 336 012c 3380     		strh	r3, [r6]	@ movhi
 337 012e B368     		ldr	r3, [r6, #8]
 338 0130 0133     		adds	r3, r3, #1
 339 0132 B360     		str	r3, [r6, #8]
 340 0134 B0E7     		b	.L33
 341              	.L34:
 342 0136 039B     		ldr	r3, [sp, #12]
 343 0138 2046     		mov	r0, r4
 344 013a 9847     		blx	r3
 345 013c FB78     		ldrb	r3, [r7, #3]	@ zero_extendqisi2
 346 013e 13F0020F 		tst	r3, #2
 347 0142 B6F90430 		ldrsh	r3, [r6, #4]
 348 0146 03D0     		beq	.L44
 349 0148 0299     		ldr	r1, [sp, #8]
 350 014a 1A18     		adds	r2, r3, r0
 351 014c 8A42     		cmp	r2, r1
ARM GAS  /var/folders/lp/x54gwt890xv47sdkqj1k04q40000gn/T//cc5jfzfu.s 			page 7


 352 014e BEDC     		bgt	.L32
 353              	.L44:
 354 0150 019A     		ldr	r2, [sp, #4]
 355 0152 1044     		add	r0, r0, r2
 356 0154 1844     		add	r0, r0, r3
 357 0156 B080     		strh	r0, [r6, #4]	@ movhi
 358 0158 DFE7     		b	.L35
 359              	.L78:
 360 015a 00EB8000 		add	r0, r0, r0, lsl #2
 361 015e 8000     		lsls	r0, r0, #2
 362 0160 0593     		str	r3, [sp, #20]
 363 0162 FFF7FEFF 		bl	lv_mem_buf_get
 364 0166 059B     		ldr	r3, [sp, #20]
 365 0168 0490     		str	r0, [sp, #16]
 366 016a 0028     		cmp	r0, #0
 367 016c 49D0     		beq	.L37
 368 016e F168     		ldr	r1, [r6, #12]
 369 0170 59B1     		cbz	r1, .L38
 370 0172 3269     		ldr	r2, [r6, #16]
 371 0174 0593     		str	r3, [sp, #20]
 372 0176 02EB8202 		add	r2, r2, r2, lsl #2
 373 017a 9200     		lsls	r2, r2, #2
 374 017c 143A     		subs	r2, r2, #20
 375 017e FFF7FEFF 		bl	lv_memcpy
 376 0182 F068     		ldr	r0, [r6, #12]
 377 0184 FFF7FEFF 		bl	lv_mem_buf_release
 378 0188 059B     		ldr	r3, [sp, #20]
 379              	.L38:
 380 018a 3269     		ldr	r2, [r6, #16]
 381 018c 0499     		ldr	r1, [sp, #16]
 382 018e 0593     		str	r3, [sp, #20]
 383 0190 02EB8202 		add	r2, r2, r2, lsl #2
 384 0194 01EB8202 		add	r2, r1, r2, lsl #2
 385 0198 F978     		ldrb	r1, [r7, #3]	@ zero_extendqisi2
 386 019a 42F8144C 		str	r4, [r2, #-20]
 387 019e 11F00101 		ands	r1, r1, #1
 388 01a2 1ABF     		itte	ne
 389 01a4 0222     		movne	r2, #2
 390 01a6 0021     		movne	r1, #0
 391 01a8 0522     		moveq	r2, #5
 392 01aa 2046     		mov	r0, r4
 393 01ac FFF7FEFF 		bl	lv_obj_get_style_prop
 394 01b0 3269     		ldr	r2, [r6, #16]
 395 01b2 0499     		ldr	r1, [sp, #16]
 396 01b4 059B     		ldr	r3, [sp, #20]
 397 01b6 0593     		str	r3, [sp, #20]
 398 01b8 02EB8202 		add	r2, r2, r2, lsl #2
 399 01bc 01EB8202 		add	r2, r1, r2, lsl #2
 400 01c0 F978     		ldrb	r1, [r7, #3]	@ zero_extendqisi2
 401 01c2 00B2     		sxth	r0, r0
 402 01c4 11F00101 		ands	r1, r1, #1
 403 01c8 22F8100C 		strh	r0, [r2, #-16]	@ movhi
 404 01cc 1ABF     		itte	ne
 405 01ce 0021     		movne	r1, #0
 406 01d0 0322     		movne	r2, #3
 407 01d2 0622     		moveq	r2, #6
 408 01d4 2046     		mov	r0, r4
ARM GAS  /var/folders/lp/x54gwt890xv47sdkqj1k04q40000gn/T//cc5jfzfu.s 			page 8


 409 01d6 FFF7FEFF 		bl	lv_obj_get_style_prop
 410 01da 3269     		ldr	r2, [r6, #16]
 411 01dc 0499     		ldr	r1, [sp, #16]
 412 01de 059B     		ldr	r3, [sp, #20]
 413 01e0 02EB8202 		add	r2, r2, r2, lsl #2
 414 01e4 01EB8202 		add	r2, r1, r2, lsl #2
 415 01e8 00B2     		sxth	r0, r0
 416 01ea 42F8083C 		str	r3, [r2, #-8]
 417 01ee 12F8043C 		ldrb	r3, [r2, #-4]	@ zero_extendqisi2
 418 01f2 22F80E0C 		strh	r0, [r2, #-14]	@ movhi
 419 01f6 23F00103 		bic	r3, r3, #1
 420 01fa 02F8043C 		strb	r3, [r2, #-4]
 421 01fe F160     		str	r1, [r6, #12]
 422 0200 8BE7     		b	.L35
 423              	.L37:
 424 0202 FEE7     		b	.L37
 425              	.L76:
 426 0204 B6F90430 		ldrsh	r3, [r6, #4]
 427 0208 0293     		str	r3, [sp, #8]
 428 020a 69E7     		b	.L50
 429              	.L77:
 430 020c DAF80830 		ldr	r3, [r10, #8]
 431 0210 F978     		ldrb	r1, [r7, #3]	@ zero_extendqisi2
 432 0212 1B68     		ldr	r3, [r3]
 433 0214 53F82540 		ldr	r4, [r3, r5, lsl #2]
 434 0218 C1F38001 		ubfx	r1, r1, #2, #1
 435 021c 5046     		mov	r0, r10
 436 021e 07AA     		add	r2, sp, #28
 437 0220 FFF7FEFF 		bl	get_next_item
 438 0224 54B1     		cbz	r4, .L79
 439 0226 2046     		mov	r0, r4
 440 0228 C047     		blx	r8
 441 022a 039B     		ldr	r3, [sp, #12]
 442 022c 3080     		strh	r0, [r6]	@ movhi
 443 022e 2046     		mov	r0, r4
 444 0230 9847     		blx	r3
 445 0232 0123     		movs	r3, #1
 446 0234 079D     		ldr	r5, [sp, #28]
 447 0236 7080     		strh	r0, [r6, #2]	@ movhi
 448 0238 B360     		str	r3, [r6, #8]
 449 023a 57E7     		b	.L22
 450              	.L79:
 451 023c 079D     		ldr	r5, [sp, #28]
 452 023e 55E7     		b	.L22
 453              	.L74:
 454 0240 B6F90430 		ldrsh	r3, [r6, #4]
 455 0244 4D46     		mov	r5, r9
 456 0246 42E7     		b	.L32
 457              	.L81:
 458              		.align	2
 459              	.L80:
 460 0248 00000000 		.word	lv_obj_get_width
 461 024c 00000000 		.word	lv_obj_get_height
 462 0250 00000000 		.word	LV_STYLE_FLEX_GROW
 463 0254 01000600 		.word	393217
 465              		.section	.text.flex_update,"ax",%progbits
 466              		.align	1
ARM GAS  /var/folders/lp/x54gwt890xv47sdkqj1k04q40000gn/T//cc5jfzfu.s 			page 9


 467              		.p2align 2,,3
 468              		.syntax unified
 469              		.thumb
 470              		.thumb_func
 472              	flex_update:
 473              		@ args = 0, pretend = 0, frame = 152
 474              		@ frame_needed = 0, uses_anonymous_args = 0
 475 0000 2DE9F04F 		push	{r4, r5, r6, r7, r8, r9, r10, fp, lr}
 476 0004 AE4B     		ldr	r3, .L229
 477 0006 A9B0     		sub	sp, sp, #164
 478 0008 1A88     		ldrh	r2, [r3]
 479 000a 0290     		str	r0, [sp, #8]
 480 000c 0021     		movs	r1, #0
 481 000e 0446     		mov	r4, r0
 482 0010 FFF7FEFF 		bl	lv_obj_get_style_prop
 483 0014 C343     		mvns	r3, r0
 484 0016 C0F38001 		ubfx	r1, r0, #2, #1
 485 001a 03F00103 		and	r3, r3, #1
 486 001e 9DF87B20 		ldrb	r2, [sp, #123]	@ zero_extendqisi2
 487 0022 43EA4103 		orr	r3, r3, r1, lsl #1
 488 0026 C0F3C000 		ubfx	r0, r0, #3, #1
 489 002a A649     		ldr	r1, .L229+4
 490 002c 43EA8003 		orr	r3, r3, r0, lsl #2
 491 0030 22F00702 		bic	r2, r2, #7
 492 0034 03F00703 		and	r3, r3, #7
 493 0038 1343     		orrs	r3, r3, r2
 494 003a 2046     		mov	r0, r4
 495 003c 0A88     		ldrh	r2, [r1]
 496 003e 8DF87B30 		strb	r3, [sp, #123]
 497 0042 0021     		movs	r1, #0
 498 0044 FFF7FEFF 		bl	lv_obj_get_style_prop
 499 0048 9F4A     		ldr	r2, .L229+8
 500 004a 0346     		mov	r3, r0
 501 004c 1288     		ldrh	r2, [r2]
 502 004e 8DF87830 		strb	r3, [sp, #120]
 503 0052 0021     		movs	r1, #0
 504 0054 2046     		mov	r0, r4
 505 0056 FFF7FEFF 		bl	lv_obj_get_style_prop
 506 005a 9C4A     		ldr	r2, .L229+12
 507 005c 0346     		mov	r3, r0
 508 005e 1288     		ldrh	r2, [r2]
 509 0060 8DF87930 		strb	r3, [sp, #121]
 510 0064 0021     		movs	r1, #0
 511 0066 2046     		mov	r0, r4
 512 0068 FFF7FEFF 		bl	lv_obj_get_style_prop
 513 006c 1622     		movs	r2, #22
 514 006e 5FFA80F8 		uxtb	r8, r0
 515 0072 0021     		movs	r1, #0
 516 0074 2046     		mov	r0, r4
 517 0076 8DF87A80 		strb	r8, [sp, #122]
 518 007a FFF7FEFF 		bl	lv_obj_get_style_prop
 519 007e 9DF87BA0 		ldrb	r10, [sp, #123]	@ zero_extendqisi2
 520 0082 C3B2     		uxtb	r3, r0
 521 0084 1AF0010B 		ands	fp, r10, #1
 522 0088 0693     		str	r3, [sp, #24]
 523 008a 0AF00107 		and	r7, r10, #1
 524 008e 40F07082 		bne	.L83
ARM GAS  /var/folders/lp/x54gwt890xv47sdkqj1k04q40000gn/T//cc5jfzfu.s 			page 10


 525 0092 1522     		movs	r2, #21
 526 0094 5946     		mov	r1, fp
 527 0096 2046     		mov	r0, r4
 528 0098 FFF7FEFF 		bl	lv_obj_get_style_prop
 529 009c 1422     		movs	r2, #20
 530 009e 03B2     		sxth	r3, r0
 531 00a0 5946     		mov	r1, fp
 532 00a2 2046     		mov	r0, r4
 533 00a4 0393     		str	r3, [sp, #12]
 534 00a6 FFF7FEFF 		bl	lv_obj_get_style_prop
 535 00aa 03B2     		sxth	r3, r0
 536 00ac 2046     		mov	r0, r4
 537 00ae 0793     		str	r3, [sp, #28]
 538 00b0 FFF7FEFF 		bl	lv_obj_get_content_height
 539 00b4 0890     		str	r0, [sp, #32]
 540              	.L84:
 541 00b6 029E     		ldr	r6, [sp, #8]
 542 00b8 3222     		movs	r2, #50
 543 00ba 0021     		movs	r1, #0
 544 00bc 3046     		mov	r0, r6
 545 00be FFF7FEFF 		bl	lv_obj_get_style_prop
 546 00c2 1022     		movs	r2, #16
 547 00c4 0021     		movs	r1, #0
 548 00c6 0446     		mov	r4, r0
 549 00c8 3046     		mov	r0, r6
 550 00ca F58A     		ldrh	r5, [r6, #22]
 551 00cc FFF7FEFF 		bl	lv_obj_get_style_prop
 552 00d0 A4B2     		uxth	r4, r4
 553 00d2 2318     		adds	r3, r4, r0
 554 00d4 3046     		mov	r0, r6
 555 00d6 1D44     		add	r5, r5, r3
 556 00d8 FFF7FEFF 		bl	lv_obj_get_scroll_y
 557 00dc ADB2     		uxth	r5, r5
 558 00de 2D1A     		subs	r5, r5, r0
 559 00e0 1222     		movs	r2, #18
 560 00e2 0021     		movs	r1, #0
 561 00e4 3046     		mov	r0, r6
 562 00e6 ADF86E50 		strh	r5, [sp, #110]	@ movhi
 563 00ea B58A     		ldrh	r5, [r6, #20]
 564 00ec FFF7FEFF 		bl	lv_obj_get_style_prop
 565 00f0 0444     		add	r4, r4, r0
 566 00f2 3046     		mov	r0, r6
 567 00f4 FFF7FEFF 		bl	lv_obj_get_scroll_x
 568 00f8 2C44     		add	r4, r4, r5
 569 00fa A4B2     		uxth	r4, r4
 570 00fc 241A     		subs	r4, r4, r0
 571 00fe ADF87040 		strh	r4, [sp, #112]	@ movhi
 572 0102 0AF00404 		and	r4, r10, #4
 573 0106 BBF1000F 		cmp	fp, #0
 574 010a 00F04682 		beq	.L211
 575 010e 029D     		ldr	r5, [sp, #8]
 576 0110 0122     		movs	r2, #1
 577 0112 0021     		movs	r1, #0
 578 0114 2846     		mov	r0, r5
 579 0116 FFF7FEFF 		bl	lv_obj_get_style_prop
 580 011a 0422     		movs	r2, #4
 581 011c 03B2     		sxth	r3, r0
ARM GAS  /var/folders/lp/x54gwt890xv47sdkqj1k04q40000gn/T//cc5jfzfu.s 			page 11


 582 011e 0021     		movs	r1, #0
 583 0120 2846     		mov	r0, r5
 584 0122 1493     		str	r3, [sp, #80]
 585 0124 FFF7FEFF 		bl	lv_obj_get_style_prop
 586 0128 03B2     		sxth	r3, r0
 587 012a 1A46     		mov	r2, r3
 588 012c 1393     		str	r3, [sp, #76]
 589 012e 42F2D173 		movw	r3, #10193
 590 0132 9A42     		cmp	r2, r3
 591 0134 00F09F82 		beq	.L158
 592              	.L161:
 593 0138 0DF16E03 		add	r3, sp, #110
 594 013c 0A93     		str	r3, [sp, #40]
 595 013e 0023     		movs	r3, #0
 596 0140 ADF87230 		strh	r3, [sp, #114]	@ movhi
 597 0144 B8F1000F 		cmp	r8, #0
 598 0148 00F04882 		beq	.L166
 599              	.L95:
 600 014c 029B     		ldr	r3, [sp, #8]
 601 014e 9B68     		ldr	r3, [r3, #8]
 602 0150 5B68     		ldr	r3, [r3, #4]
 603 0152 002C     		cmp	r4, #0
 604 0154 40F07882 		bne	.L100
 605 0158 002B     		cmp	r3, #0
 606 015a C8BF     		it	gt
 607 015c 2246     		movgt	r2, r4
 608 015e 40F3C383 		ble	.L212
 609              	.L101:
 610 0162 BDF80C30 		ldrh	r3, [sp, #12]
 611 0166 CDF81080 		str	r8, [sp, #16]
 612 016a 0026     		movs	r6, #0
 613 016c 1EA9     		add	r1, sp, #120
 614 016e DDE90778 		ldrd	r7, r8, [sp, #28]
 615 0172 029C     		ldr	r4, [sp, #8]
 616 0174 0F93     		str	r3, [sp, #60]
 617 0176 3546     		mov	r5, r6
 618 0178 0DF1880A 		add	r10, sp, #136
 619 017c 8946     		mov	r9, r1
 620 017e 9B46     		mov	fp, r3
 621 0180 01E0     		b	.L104
 622              	.L213:
 623 0182 002A     		cmp	r2, #0
 624 0184 1ADB     		blt	.L103
 625              	.L104:
 626 0186 9DF89C00 		ldrb	r0, [sp, #156]	@ zero_extendqisi2
 627 018a CDF804A0 		str	r10, [sp, #4]
 628 018e 20F00100 		bic	r0, r0, #1
 629 0192 4346     		mov	r3, r8
 630 0194 4946     		mov	r1, r9
 631 0196 8DF89C00 		strb	r0, [sp, #156]
 632 019a 0097     		str	r7, [sp]
 633 019c 2046     		mov	r0, r4
 634 019e FFF7FEFF 		bl	find_track_end
 635 01a2 A368     		ldr	r3, [r4, #8]
 636 01a4 BDF88810 		ldrh	r1, [sp, #136]
 637 01a8 0246     		mov	r2, r0
 638 01aa 5868     		ldr	r0, [r3, #4]
ARM GAS  /var/folders/lp/x54gwt890xv47sdkqj1k04q40000gn/T//cc5jfzfu.s 			page 12


 639 01ac 5944     		add	r1, r1, fp
 640 01ae 2944     		add	r1, r1, r5
 641 01b0 9042     		cmp	r0, r2
 642 01b2 8BB2     		uxth	r3, r1
 643 01b4 0DB2     		sxth	r5, r1
 644 01b6 06F10106 		add	r6, r6, #1
 645 01ba E2DC     		bgt	.L213
 646              	.L103:
 647 01bc 9DF87BA0 		ldrb	r10, [sp, #123]	@ zero_extendqisi2
 648 01c0 DDF81080 		ldr	r8, [sp, #16]
 649 01c4 0AF00107 		and	r7, r10, #1
 650 01c8 BB46     		mov	fp, r7
 651 01ca 0AF00404 		and	r4, r10, #4
 652 01ce 1EB1     		cbz	r6, .L102
 653 01d0 0F9A     		ldr	r2, [sp, #60]
 654 01d2 9A1A     		subs	r2, r3, r2
 655 01d4 36B2     		sxth	r6, r6
 656 01d6 15B2     		sxth	r5, r2
 657              	.L102:
 658 01d8 0298     		ldr	r0, [sp, #8]
 659 01da BBF1000F 		cmp	fp, #0
 660 01de 00F02F82 		beq	.L105
 661 01e2 FFF7FEFF 		bl	lv_obj_get_content_height
 662 01e6 0146     		mov	r1, r0
 663              	.L106:
 664 01e8 0A9B     		ldr	r3, [sp, #40]
 665 01ea 0093     		str	r3, [sp]
 666 01ec 0DF17202 		add	r2, sp, #114
 667 01f0 3346     		mov	r3, r6
 668 01f2 0192     		str	r2, [sp, #4]
 669 01f4 4046     		mov	r0, r8
 670 01f6 2A46     		mov	r2, r5
 671 01f8 FFF7FEFF 		bl	place_content
 672 01fc 029B     		ldr	r3, [sp, #8]
 673 01fe 9B68     		ldr	r3, [r3, #8]
 674 0200 5A68     		ldr	r2, [r3, #4]
 675 0202 002C     		cmp	r4, #0
 676 0204 40F0F181 		bne	.L89
 677              	.L171:
 678 0208 069B     		ldr	r3, [sp, #24]
 679 020a 012B     		cmp	r3, #1
 680 020c A046     		mov	r8, r4
 681 020e 00F0F381 		beq	.L214
 682              	.L108:
 683 0212 9045     		cmp	r8, r2
 684 0214 80F24A82 		bge	.L98
 685 0218 B8F1000F 		cmp	r8, #0
 686 021c C0F24682 		blt	.L98
 687              	.L97:
 688 0220 BDF80C30 		ldrh	r3, [sp, #12]
 689 0224 0F93     		str	r3, [sp, #60]
 690 0226 0DF1880A 		add	r10, sp, #136
 691 022a 1EAB     		add	r3, sp, #120
 692 022c 0E93     		str	r3, [sp, #56]
 693 022e C346     		mov	fp, r8
 694 0230 5546     		mov	r5, r10
 695              	.L156:
ARM GAS  /var/folders/lp/x54gwt890xv47sdkqj1k04q40000gn/T//cc5jfzfu.s 			page 13


 696 0232 079B     		ldr	r3, [sp, #28]
 697 0234 0093     		str	r3, [sp]
 698 0236 9DF89C30 		ldrb	r3, [sp, #156]	@ zero_extendqisi2
 699 023a 0E99     		ldr	r1, [sp, #56]
 700 023c 0298     		ldr	r0, [sp, #8]
 701 023e 0195     		str	r5, [sp, #4]
 702 0240 43F00103 		orr	r3, r3, #1
 703 0244 8DF89C30 		strb	r3, [sp, #156]
 704 0248 5A46     		mov	r2, fp
 705 024a 089B     		ldr	r3, [sp, #32]
 706 024c FFF7FEFF 		bl	find_track_end
 707 0250 069B     		ldr	r3, [sp, #24]
 708 0252 0990     		str	r0, [sp, #36]
 709 0254 012B     		cmp	r3, #1
 710 0256 00F0D881 		beq	.L215
 711 025a 9DF87B30 		ldrb	r3, [sp, #123]	@ zero_extendqisi2
 712 025e 1C48     		ldr	r0, .L229+16
 713 0260 1C49     		ldr	r1, .L229+20
 714 0262 1D4A     		ldr	r2, .L229+24
 715 0264 CDF87CB0 		str	fp, [sp, #124]
 716 0268 03F00103 		and	r3, r3, #1
 717 026c 002B     		cmp	r3, #0
 718 026e 18BF     		it	ne
 719 0270 0146     		movne	r1, r0
 720 0272 1193     		str	r3, [sp, #68]
 721 0274 1291     		str	r1, [sp, #72]
 722 0276 194B     		ldr	r3, .L229+28
 723 0278 BDF97010 		ldrsh	r1, [sp, #112]
 724 027c 0C91     		str	r1, [sp, #48]
 725 027e BDF96E10 		ldrsh	r1, [sp, #110]
 726 0282 0D91     		str	r1, [sp, #52]
 727 0284 16BF     		itet	ne
 728 0286 1946     		movne	r1, r3
 729 0288 1146     		moveq	r1, r2
 730 028a 1346     		movne	r3, r2
 731 028c 0B91     		str	r1, [sp, #44]
 732 028e 1093     		str	r3, [sp, #64]
 733              	.L114:
 734 0290 269E     		ldr	r6, [sp, #152]
 735 0292 BDF98A40 		ldrsh	r4, [sp, #138]
 736 0296 BDF98C30 		ldrsh	r3, [sp, #140]
 737 029a 259F     		ldr	r7, [sp, #148]
 738 029c 002E     		cmp	r6, #0
 739 029e 69D0     		beq	.L127
 740 02a0 E31A     		subs	r3, r4, r3
 741 02a2 0FFA83FA 		sxth	r10, r3
 742 02a6 06EB8608 		add	r8, r6, r6, lsl #2
 743 02aa 2B46     		mov	r3, r5
 744 02ac 07EB8808 		add	r8, r7, r8, lsl #2
 745 02b0 5D46     		mov	r5, fp
 746 02b2 B946     		mov	r9, r7
 747 02b4 9B46     		mov	fp, r3
 748              	.L126:
 749 02b6 4946     		mov	r1, r9
 750 02b8 5046     		mov	r0, r10
 751 02ba 0023     		movs	r3, #0
 752 02bc 16E0     		b	.L120
ARM GAS  /var/folders/lp/x54gwt890xv47sdkqj1k04q40000gn/T//cc5jfzfu.s 			page 14


 753              	.L230:
 754 02be 00BF     		.align	2
 755              	.L229:
 756 02c0 00000000 		.word	LV_STYLE_FLEX_FLOW
 757 02c4 00000000 		.word	LV_STYLE_FLEX_MAIN_PLACE
 758 02c8 00000000 		.word	LV_STYLE_FLEX_CROSS_PLACE
 759 02cc 00000000 		.word	LV_STYLE_FLEX_TRACK_PLACE
 760 02d0 00000000 		.word	lv_area_set_width
 761 02d4 00000000 		.word	lv_area_set_height
 762 02d8 00000000 		.word	lv_area_get_height
 763 02dc 00000000 		.word	lv_area_get_width
 764              	.L217:
 765 02e0 CA68     		ldr	r2, [r1, #12]
 766 02e2 1431     		adds	r1, r1, #20
 767 02e4 1344     		add	r3, r3, r2
 768 02e6 4145     		cmp	r1, r8
 769 02e8 1BB2     		sxth	r3, r3
 770 02ea 08D0     		beq	.L216
 771              	.L120:
 772 02ec 0A7C     		ldrb	r2, [r1, #16]	@ zero_extendqisi2
 773 02ee D707     		lsls	r7, r2, #31
 774 02f0 F6D5     		bpl	.L217
 775 02f2 0A89     		ldrh	r2, [r1, #8]
 776 02f4 1431     		adds	r1, r1, #20
 777 02f6 801A     		subs	r0, r0, r2
 778 02f8 4145     		cmp	r1, r8
 779 02fa 00B2     		sxth	r0, r0
 780 02fc F6D1     		bne	.L120
 781              	.L216:
 782 02fe CDE90354 		strd	r5, r4, [sp, #12]
 783 0302 0027     		movs	r7, #0
 784 0304 4946     		mov	r1, r9
 785 0306 BC46     		mov	ip, r7
 786 0308 CDF814A0 		str	r10, [sp, #20]
 787              	.L125:
 788 030c 0D7C     		ldrb	r5, [r1, #16]	@ zero_extendqisi2
 789 030e EA07     		lsls	r2, r5, #31
 790 0310 0CF1010C 		add	ip, ip, #1
 791 0314 20D4     		bmi	.L121
 792 0316 002B     		cmp	r3, #0
 793 0318 00F07681 		beq	.L123
 794 031c 90FBF3F2 		sdiv	r2, r0, r3
 795 0320 B1F80CE0 		ldrh	lr, [r1, #12]
 796 0324 B1F90640 		ldrsh	r4, [r1, #6]
 797 0328 B1F904A0 		ldrsh	r10, [r1, #4]
 798 032c 12FB0EF2 		smulbb	r2, r2, lr
 799 0330 12B2     		sxth	r2, r2
 800 0332 9442     		cmp	r4, r2
 801 0334 A8BF     		it	ge
 802 0336 1446     		movge	r4, r2
 803 0338 5445     		cmp	r4, r10
 804 033a B8BF     		it	lt
 805 033c 5446     		movlt	r4, r10
 806 033e A242     		cmp	r2, r4
 807 0340 03D0     		beq	.L124
 808 0342 45F00105 		orr	r5, r5, #1
 809 0346 0D74     		strb	r5, [r1, #16]
ARM GAS  /var/folders/lp/x54gwt890xv47sdkqj1k04q40000gn/T//cc5jfzfu.s 			page 15


 810 0348 0127     		movs	r7, #1
 811              	.L124:
 812 034a A3EB0E0E 		sub	lr, r3, lr
 813 034e 001B     		subs	r0, r0, r4
 814 0350 0C81     		strh	r4, [r1, #8]	@ movhi
 815 0352 0FFA8EF3 		sxth	r3, lr
 816 0356 00B2     		sxth	r0, r0
 817              	.L121:
 818 0358 B445     		cmp	ip, r6
 819 035a 01F11401 		add	r1, r1, #20
 820 035e D5D1     		bne	.L125
 821 0360 DDE90354 		ldrd	r5, r4, [sp, #12]
 822 0364 DDF814A0 		ldr	r10, [sp, #20]
 823 0368 002F     		cmp	r7, #0
 824 036a A4D1     		bne	.L126
 825 036c 5B46     		mov	r3, fp
 826 036e 4F46     		mov	r7, r9
 827 0370 AB46     		mov	fp, r5
 828 0372 1D46     		mov	r5, r3
 829              	.L127:
 830 0374 1622     		movs	r2, #22
 831 0376 0021     		movs	r1, #0
 832 0378 0298     		ldr	r0, [sp, #8]
 833 037a FFF7FEFF 		bl	lv_obj_get_style_prop
 834 037e C3B2     		uxtb	r3, r0
 835 0380 0593     		str	r3, [sp, #20]
 836 0382 0DF17603 		add	r3, sp, #118
 837 0386 0193     		str	r3, [sp, #4]
 838 0388 1DAB     		add	r3, sp, #116
 839 038a 0093     		str	r3, [sp]
 840 038c 0023     		movs	r3, #0
 841 038e ADF87430 		strh	r3, [sp, #116]	@ movhi
 842 0392 ADF87630 		strh	r3, [sp, #118]	@ movhi
 843 0396 9DF87800 		ldrb	r0, [sp, #120]	@ zero_extendqisi2
 844 039a BDF99030 		ldrsh	r3, [sp, #144]
 845 039e 0899     		ldr	r1, [sp, #32]
 846 03a0 2246     		mov	r2, r4
 847 03a2 FFF7FEFF 		bl	place_content
 848 03a6 119B     		ldr	r3, [sp, #68]
 849 03a8 002B     		cmp	r3, #0
 850 03aa 40F0AA81 		bne	.L116
 851              	.L117:
 852 03ae 0298     		ldr	r0, [sp, #8]
 853 03b0 5946     		mov	r1, fp
 854 03b2 FFF7FEFF 		bl	lv_obj_get_child
 855 03b6 0446     		mov	r4, r0
 856 03b8 0028     		cmp	r0, #0
 857 03ba 00F03A82 		beq	.L153
 858 03be 119B     		ldr	r3, [sp, #68]
 859 03c0 1696     		str	r6, [sp, #88]
 860 03c2 83F00102 		eor	r2, r3, #1
 861 03c6 1792     		str	r2, [sp, #92]
 862 03c8 06EB8602 		add	r2, r6, r6, lsl #2
 863 03cc BB46     		mov	fp, r7
 864 03ce 1892     		str	r2, [sp, #96]
 865 03d0 1F46     		mov	r7, r3
 866 03d2 1995     		str	r5, [sp, #100]
ARM GAS  /var/folders/lp/x54gwt890xv47sdkqj1k04q40000gn/T//cc5jfzfu.s 			page 16


 867 03d4 43E0     		b	.L131
 868              	.L222:
 869 03d6 049E     		ldr	r6, [sp, #16]
 870 03d8 4944     		add	r1, r1, r9
 871 03da 1E44     		add	r6, r6, r3
 872 03dc 0FFA81FA 		sxth	r10, r1
 873 03e0 B3B2     		uxth	r3, r6
 874 03e2 8DB2     		uxth	r5, r1
 875 03e4 36B2     		sxth	r6, r6
 876 03e6 BAF1000F 		cmp	r10, #0
 877 03ea 01D1     		bne	.L147
 878 03ec DEB1     		cbz	r6, .L152
 879 03ee 5546     		mov	r5, r10
 880              	.L147:
 881 03f0 2046     		mov	r0, r4
 882 03f2 0393     		str	r3, [sp, #12]
 883 03f4 FFF7FEFF 		bl	lv_obj_invalidate
 884 03f8 A28A     		ldrh	r2, [r4, #20]
 885 03fa 039B     		ldr	r3, [sp, #12]
 886 03fc 2A44     		add	r2, r2, r5
 887 03fe A282     		strh	r2, [r4, #20]	@ movhi
 888 0400 228B     		ldrh	r2, [r4, #24]
 889 0402 1544     		add	r5, r5, r2
 890 0404 E28A     		ldrh	r2, [r4, #22]
 891 0406 2583     		strh	r5, [r4, #24]	@ movhi
 892 0408 1A44     		add	r2, r2, r3
 893 040a E282     		strh	r2, [r4, #22]	@ movhi
 894 040c 628B     		ldrh	r2, [r4, #26]
 895 040e 1344     		add	r3, r3, r2
 896 0410 6383     		strh	r3, [r4, #26]	@ movhi
 897 0412 2046     		mov	r0, r4
 898 0414 FFF7FEFF 		bl	lv_obj_invalidate
 899 0418 3246     		mov	r2, r6
 900 041a 5146     		mov	r1, r10
 901 041c 0023     		movs	r3, #0
 902 041e 2046     		mov	r0, r4
 903 0420 FFF7FEFF 		bl	lv_obj_move_children_by
 904 0424 2FB1     		cbz	r7, .L150
 905              	.L152:
 906 0426 059A     		ldr	r2, [sp, #20]
 907 0428 BDF97630 		ldrsh	r3, [sp, #118]
 908 042c 012A     		cmp	r2, #1
 909 042e 00F02082 		beq	.L218
 910              	.L150:
 911 0432 0B9B     		ldr	r3, [sp, #44]
 912 0434 04F11400 		add	r0, r4, #20
 913 0438 9847     		blx	r3
 914 043a 079B     		ldr	r3, [sp, #28]
 915 043c BDF97620 		ldrsh	r2, [sp, #118]
 916 0440 C318     		adds	r3, r0, r3
 917 0442 1344     		add	r3, r3, r2
 918 0444 4B44     		add	r3, r3, r9
 919 0446 1BB2     		sxth	r3, r3
 920              	.L149:
 921 0448 ADF87430 		strh	r3, [sp, #116]	@ movhi
 922              	.L210:
 923 044c 0298     		ldr	r0, [sp, #8]
ARM GAS  /var/folders/lp/x54gwt890xv47sdkqj1k04q40000gn/T//cc5jfzfu.s 			page 17


 924 044e 4146     		mov	r1, r8
 925 0450 1FAA     		add	r2, sp, #124
 926 0452 FFF7FEFF 		bl	get_next_item
 927 0456 0446     		mov	r4, r0
 928 0458 0028     		cmp	r0, #0
 929 045a 00F0E881 		beq	.L207
 930              	.L131:
 931 045e 1F9B     		ldr	r3, [sp, #124]
 932 0460 099A     		ldr	r2, [sp, #36]
 933 0462 9A42     		cmp	r2, r3
 934 0464 00F0E381 		beq	.L207
 935 0468 B749     		ldr	r1, .L231
 936 046a 2046     		mov	r0, r4
 937 046c FFF7FEFF 		bl	lv_obj_has_flag_any
 938 0470 9DF87B80 		ldrb	r8, [sp, #123]	@ zero_extendqisi2
 939 0474 0546     		mov	r5, r0
 940 0476 C8F38008 		ubfx	r8, r8, #2, #1
 941 047a 0028     		cmp	r0, #0
 942 047c E6D1     		bne	.L210
 943 047e B34B     		ldr	r3, .L231+4
 944 0480 0146     		mov	r1, r0
 945 0482 1A88     		ldrh	r2, [r3]
 946 0484 2046     		mov	r0, r4
 947 0486 FFF7FEFF 		bl	lv_obj_get_style_prop
 948 048a C0B2     		uxtb	r0, r0
 949 048c 0028     		cmp	r0, #0
 950 048e 40F08C81 		bne	.L219
 951 0492 94F82330 		ldrb	r3, [r4, #35]	@ zero_extendqisi2
 952 0496 23F00C03 		bic	r3, r3, #12
 953 049a 84F82330 		strb	r3, [r4, #35]
 954              	.L138:
 955 049e 9DF87930 		ldrb	r3, [sp, #121]	@ zero_extendqisi2
 956 04a2 012B     		cmp	r3, #1
 957 04a4 00F07481 		beq	.L139
 958 04a8 022B     		cmp	r3, #2
 959 04aa 40F07B81 		bne	.L174
 960 04ae BDF98860 		ldrsh	r6, [sp, #136]
 961 04b2 109B     		ldr	r3, [sp, #64]
 962 04b4 04F11400 		add	r0, r4, #20
 963 04b8 9847     		blx	r3
 964 04ba 0136     		adds	r6, r6, #1
 965 04bc 26F00106 		bic	r6, r6, #1
 966 04c0 361A     		subs	r6, r6, r0
 967 04c2 06EBD676 		add	r6, r6, r6, lsr #31
 968 04c6 C6F34F03 		ubfx	r3, r6, #1, #16
 969 04ca 0493     		str	r3, [sp, #16]
 970              	.L140:
 971 04cc BDF87490 		ldrh	r9, [sp, #116]
 972 04d0 67B1     		cbz	r7, .L141
 973 04d2 059B     		ldr	r3, [sp, #20]
 974 04d4 012B     		cmp	r3, #1
 975 04d6 09D1     		bne	.L141
 976 04d8 0B9B     		ldr	r3, [sp, #44]
 977 04da 04F11400 		add	r0, r4, #20
 978 04de 9847     		blx	r3
 979 04e0 A9EB0003 		sub	r3, r9, r0
 980 04e4 1FFA83F9 		uxth	r9, r3
ARM GAS  /var/folders/lp/x54gwt890xv47sdkqj1k04q40000gn/T//cc5jfzfu.s 			page 18


 981 04e8 ADF87490 		strh	r9, [sp, #116]	@ movhi
 982              	.L141:
 983 04ec 6B22     		movs	r2, #107
 984 04ee 0021     		movs	r1, #0
 985 04f0 2046     		mov	r0, r4
 986 04f2 FFF7FEFF 		bl	lv_obj_get_style_prop
 987 04f6 6C22     		movs	r2, #108
 988 04f8 0546     		mov	r5, r0
 989 04fa 0021     		movs	r1, #0
 990 04fc 2046     		mov	r0, r4
 991 04fe FFF7FEFF 		bl	lv_obj_get_style_prop
 992 0502 0146     		mov	r1, r0
 993 0504 2046     		mov	r0, r4
 994 0506 0FFA81FA 		sxth	r10, r1
 995 050a 0391     		str	r1, [sp, #12]
 996 050c FFF7FEFF 		bl	lv_obj_get_width
 997 0510 2EB2     		sxth	r6, r5
 998 0512 1590     		str	r0, [sp, #84]
 999 0514 05F4C045 		and	r5, r5, #24576
 1000 0518 2046     		mov	r0, r4
 1001 051a FFF7FEFF 		bl	lv_obj_get_height
 1002 051e B5F5005F 		cmp	r5, #8192
 1003 0522 0399     		ldr	r1, [sp, #12]
 1004 0524 00F01E81 		beq	.L220
 1005              	.L142:
 1006 0528 01F4C041 		and	r1, r1, #24576
 1007 052c B1F5005F 		cmp	r1, #8192
 1008 0530 00F0F480 		beq	.L221
 1009              	.L144:
 1010 0534 0C9B     		ldr	r3, [sp, #48]
 1011 0536 A18A     		ldrh	r1, [r4, #20]
 1012 0538 0D9A     		ldr	r2, [sp, #52]
 1013 053a 591A     		subs	r1, r3, r1
 1014 053c E38A     		ldrh	r3, [r4, #22]
 1015 053e D31A     		subs	r3, r2, r3
 1016 0540 3144     		add	r1, r1, r6
 1017 0542 5344     		add	r3, r3, r10
 1018 0544 89B2     		uxth	r1, r1
 1019 0546 9BB2     		uxth	r3, r3
 1020 0548 002F     		cmp	r7, #0
 1021 054a 7FF444AF 		bne	.L222
 1022 054e 049A     		ldr	r2, [sp, #16]
 1023 0550 1144     		add	r1, r1, r2
 1024 0552 03EB0906 		add	r6, r3, r9
 1025 0556 0FFA81FA 		sxth	r10, r1
 1026 055a B3B2     		uxth	r3, r6
 1027 055c 8DB2     		uxth	r5, r1
 1028 055e 36B2     		sxth	r6, r6
 1029 0560 BAF1000F 		cmp	r10, #0
 1030 0564 7FF444AF 		bne	.L147
 1031 0568 002E     		cmp	r6, #0
 1032 056a 3FF462AF 		beq	.L150
 1033 056e 3D46     		mov	r5, r7
 1034 0570 3EE7     		b	.L147
 1035              	.L83:
 1036 0572 029C     		ldr	r4, [sp, #8]
 1037 0574 1422     		movs	r2, #20
ARM GAS  /var/folders/lp/x54gwt890xv47sdkqj1k04q40000gn/T//cc5jfzfu.s 			page 19


 1038 0576 0021     		movs	r1, #0
 1039 0578 2046     		mov	r0, r4
 1040 057a FFF7FEFF 		bl	lv_obj_get_style_prop
 1041 057e 1522     		movs	r2, #21
 1042 0580 03B2     		sxth	r3, r0
 1043 0582 0021     		movs	r1, #0
 1044 0584 2046     		mov	r0, r4
 1045 0586 0393     		str	r3, [sp, #12]
 1046 0588 FFF7FEFF 		bl	lv_obj_get_style_prop
 1047 058c 03B2     		sxth	r3, r0
 1048 058e 2046     		mov	r0, r4
 1049 0590 0793     		str	r3, [sp, #28]
 1050 0592 FFF7FEFF 		bl	lv_obj_get_content_width
 1051 0596 0890     		str	r0, [sp, #32]
 1052 0598 8DE5     		b	.L84
 1053              	.L211:
 1054 059a 029E     		ldr	r6, [sp, #8]
 1055 059c 0122     		movs	r2, #1
 1056 059e 5946     		mov	r1, fp
 1057 05a0 3046     		mov	r0, r6
 1058 05a2 FFF7FEFF 		bl	lv_obj_get_style_prop
 1059 05a6 0422     		movs	r2, #4
 1060 05a8 05B2     		sxth	r5, r0
 1061 05aa 5946     		mov	r1, fp
 1062 05ac 3046     		mov	r0, r6
 1063 05ae 1495     		str	r5, [sp, #80]
 1064 05b0 FFF7FEFF 		bl	lv_obj_get_style_prop
 1065 05b4 03B2     		sxth	r3, r0
 1066 05b6 1393     		str	r3, [sp, #76]
 1067 05b8 42F2D173 		movw	r3, #10193
 1068 05bc 9D42     		cmp	r5, r3
 1069 05be 00F08780 		beq	.L223
 1070 05c2 069B     		ldr	r3, [sp, #24]
 1071 05c4 012B     		cmp	r3, #1
 1072 05c6 00F08E80 		beq	.L91
 1073              	.L209:
 1074 05ca 1CAB     		add	r3, sp, #112
 1075 05cc 0A93     		str	r3, [sp, #40]
 1076 05ce 0023     		movs	r3, #0
 1077 05d0 ADF87230 		strh	r3, [sp, #114]	@ movhi
 1078 05d4 B8F1000F 		cmp	r8, #0
 1079 05d8 7FF4B8AD 		bne	.L95
 1080              	.L166:
 1081 05dc 029B     		ldr	r3, [sp, #8]
 1082 05de 9B68     		ldr	r3, [r3, #8]
 1083 05e0 4546     		mov	r5, r8
 1084 05e2 5A68     		ldr	r2, [r3, #4]
 1085 05e4 002C     		cmp	r4, #0
 1086 05e6 3FF40FAE 		beq	.L171
 1087              	.L89:
 1088 05ea 5A68     		ldr	r2, [r3, #4]
 1089 05ec 069B     		ldr	r3, [sp, #24]
 1090 05ee 012B     		cmp	r3, #1
 1091 05f0 02F1FF38 		add	r8, r2, #-1
 1092 05f4 7FF40DAE 		bne	.L108
 1093              	.L214:
 1094 05f8 002F     		cmp	r7, #0
ARM GAS  /var/folders/lp/x54gwt890xv47sdkqj1k04q40000gn/T//cc5jfzfu.s 			page 20


 1095 05fa 7FF40AAE 		bne	.L108
 1096 05fe 0A99     		ldr	r1, [sp, #40]
 1097 0600 0B88     		ldrh	r3, [r1]
 1098 0602 1D44     		add	r5, r5, r3
 1099 0604 0D80     		strh	r5, [r1]	@ movhi
 1100 0606 04E6     		b	.L108
 1101              	.L123:
 1102 0608 FEE7     		b	.L123
 1103              	.L215:
 1104 060a 9DF87B30 		ldrb	r3, [sp, #123]	@ zero_extendqisi2
 1105 060e CDF87CB0 		str	fp, [sp, #124]
 1106 0612 13F00103 		ands	r3, r3, #1
 1107 0616 1193     		str	r3, [sp, #68]
 1108 0618 20D1     		bne	.L113
 1109 061a 0A99     		ldr	r1, [sp, #40]
 1110 061c BDF88820 		ldrh	r2, [sp, #136]
 1111 0620 0B88     		ldrh	r3, [r1]
 1112 0622 9B1A     		subs	r3, r3, r2
 1113 0624 0B80     		strh	r3, [r1]	@ movhi
 1114 0626 BDF97030 		ldrsh	r3, [sp, #112]
 1115 062a 0C93     		str	r3, [sp, #48]
 1116 062c BDF96E30 		ldrsh	r3, [sp, #110]
 1117 0630 0D93     		str	r3, [sp, #52]
 1118 0632 474B     		ldr	r3, .L231+8
 1119 0634 1293     		str	r3, [sp, #72]
 1120 0636 474B     		ldr	r3, .L231+12
 1121 0638 0B93     		str	r3, [sp, #44]
 1122 063a 474B     		ldr	r3, .L231+16
 1123 063c 1093     		str	r3, [sp, #64]
 1124 063e 27E6     		b	.L114
 1125              	.L105:
 1126 0640 FFF7FEFF 		bl	lv_obj_get_content_width
 1127 0644 0146     		mov	r1, r0
 1128 0646 CFE5     		b	.L106
 1129              	.L100:
 1130 0648 5A1E     		subs	r2, r3, #1
 1131 064a 9A42     		cmp	r2, r3
 1132 064c 02DA     		bge	.L169
 1133 064e 002A     		cmp	r2, #0
 1134 0650 BFF687AD 		bge	.L101
 1135              	.L169:
 1136 0654 0026     		movs	r6, #0
 1137 0656 0424     		movs	r4, #4
 1138 0658 3546     		mov	r5, r6
 1139 065a BDE5     		b	.L102
 1140              	.L113:
 1141 065c BDF97030 		ldrsh	r3, [sp, #112]
 1142 0660 0C93     		str	r3, [sp, #48]
 1143 0662 BDF96E30 		ldrsh	r3, [sp, #110]
 1144 0666 0D93     		str	r3, [sp, #52]
 1145 0668 3C4B     		ldr	r3, .L231+20
 1146 066a 1293     		str	r3, [sp, #72]
 1147 066c 3A4B     		ldr	r3, .L231+16
 1148 066e 0B93     		str	r3, [sp, #44]
 1149 0670 384B     		ldr	r3, .L231+12
 1150 0672 1093     		str	r3, [sp, #64]
 1151 0674 0CE6     		b	.L114
ARM GAS  /var/folders/lp/x54gwt890xv47sdkqj1k04q40000gn/T//cc5jfzfu.s 			page 21


 1152              	.L158:
 1153 0676 029B     		ldr	r3, [sp, #8]
 1154 0678 93F82350 		ldrb	r5, [r3, #35]	@ zero_extendqisi2
 1155 067c 15F00405 		ands	r5, r5, #4
 1156 0680 7FF45AAD 		bne	.L161
 1157 0684 069B     		ldr	r3, [sp, #24]
 1158 0686 012B     		cmp	r3, #1
 1159 0688 00F02481 		beq	.L224
 1160 068c 0DF16E03 		add	r3, sp, #110
 1161 0690 0A93     		str	r3, [sp, #40]
 1162              	.L88:
 1163 0692 029B     		ldr	r3, [sp, #8]
 1164 0694 9B68     		ldr	r3, [r3, #8]
 1165 0696 0025     		movs	r5, #0
 1166 0698 5A68     		ldr	r2, [r3, #4]
 1167 069a ADF87250 		strh	r5, [sp, #114]	@ movhi
 1168 069e 002C     		cmp	r4, #0
 1169 06a0 A3D1     		bne	.L89
 1170 06a2 AA42     		cmp	r2, r5
 1171 06a4 C8BF     		it	gt
 1172 06a6 A046     		movgt	r8, r4
 1173 06a8 3FF7BAAD 		bgt	.L97
 1174              	.L98:
 1175 06ac 149A     		ldr	r2, [sp, #80]
 1176 06ae 42F2D173 		movw	r3, #10193
 1177 06b2 9A42     		cmp	r2, r3
 1178 06b4 00F0F280 		beq	.L110
 1179 06b8 139A     		ldr	r2, [sp, #76]
 1180 06ba 9A42     		cmp	r2, r3
 1181 06bc 00F0EE80 		beq	.L110
 1182              	.L157:
 1183 06c0 0298     		ldr	r0, [sp, #8]
 1184 06c2 0022     		movs	r2, #0
 1185 06c4 2B21     		movs	r1, #43
 1186 06c6 29B0     		add	sp, sp, #164
 1187              		@ sp needed
 1188 06c8 BDE8F04F 		pop	{r4, r5, r6, r7, r8, r9, r10, fp, lr}
 1189 06cc FFF7FEBF 		b	lv_event_send
 1190              	.L223:
 1191 06d0 029B     		ldr	r3, [sp, #8]
 1192 06d2 93F82330 		ldrb	r3, [r3, #35]	@ zero_extendqisi2
 1193 06d6 13F0080F 		tst	r3, #8
 1194 06da 069B     		ldr	r3, [sp, #24]
 1195 06dc 00F0D980 		beq	.L92
 1196 06e0 012B     		cmp	r3, #1
 1197 06e2 7FF472AF 		bne	.L209
 1198              	.L91:
 1199 06e6 B8F1000F 		cmp	r8, #0
 1200 06ea 00F0CA80 		beq	.L93
 1201 06ee B8F1010F 		cmp	r8, #1
 1202 06f2 00F0E180 		beq	.L225
 1203 06f6 0023     		movs	r3, #0
 1204 06f8 ADF87230 		strh	r3, [sp, #114]	@ movhi
 1205 06fc 1CAB     		add	r3, sp, #112
 1206 06fe 0A93     		str	r3, [sp, #40]
 1207 0700 24E5     		b	.L95
 1208              	.L116:
ARM GAS  /var/folders/lp/x54gwt890xv47sdkqj1k04q40000gn/T//cc5jfzfu.s 			page 22


 1209 0702 059B     		ldr	r3, [sp, #20]
 1210 0704 012B     		cmp	r3, #1
 1211 0706 7FF452AE 		bne	.L117
 1212 070a 0298     		ldr	r0, [sp, #8]
 1213 070c FFF7FEFF 		bl	lv_obj_get_content_width
 1214 0710 BDF87430 		ldrh	r3, [sp, #116]
 1215 0714 0344     		add	r3, r3, r0
 1216 0716 ADF87430 		strh	r3, [sp, #116]	@ movhi
 1217 071a 48E6     		b	.L117
 1218              	.L221:
 1219 071c 2AF4C041 		bic	r1, r10, #24576
 1220 0720 B1F5FA6F 		cmp	r1, #2000
 1221 0724 3FF706AF 		bgt	.L144
 1222 0728 B1F57A7F 		cmp	r1, #1000
 1223 072c C8BF     		it	gt
 1224 072e C1F57A71 		rsbgt	r1, r1, #1000
 1225 0732 0B4B     		ldr	r3, .L231+24
 1226 0734 01FB00F0 		mul	r0, r1, r0
 1227 0738 83FB0012 		smull	r1, r2, r3, r0
 1228 073c C017     		asrs	r0, r0, #31
 1229 073e C0EB6212 		rsb	r2, r0, r2, asr #5
 1230 0742 0FFA82FA 		sxth	r10, r2
 1231 0746 F5E6     		b	.L144
 1232              	.L232:
 1233              		.align	2
 1234              	.L231:
 1235 0748 01000600 		.word	393217
 1236 074c 00000000 		.word	LV_STYLE_FLEX_GROW
 1237 0750 00000000 		.word	lv_area_set_height
 1238 0754 00000000 		.word	lv_area_get_height
 1239 0758 00000000 		.word	lv_area_get_width
 1240 075c 00000000 		.word	lv_area_set_width
 1241 0760 1F85EB51 		.word	1374389535
 1242              	.L220:
 1243 0764 26F4C045 		bic	r5, r6, #24576
 1244 0768 B5F5FA6F 		cmp	r5, #2000
 1245 076c 3FF7DCAE 		bgt	.L142
 1246 0770 B5F57A7F 		cmp	r5, #1000
 1247 0774 159A     		ldr	r2, [sp, #84]
 1248 0776 644B     		ldr	r3, .L233
 1249 0778 C8BF     		it	gt
 1250 077a C5F57A75 		rsbgt	r5, r5, #1000
 1251 077e 05FB02F2 		mul	r2, r5, r2
 1252 0782 83FB0253 		smull	r5, r3, r3, r2
 1253 0786 D217     		asrs	r2, r2, #31
 1254 0788 C2EB6313 		rsb	r3, r2, r3, asr #5
 1255 078c 1EB2     		sxth	r6, r3
 1256 078e CBE6     		b	.L142
 1257              	.L139:
 1258 0790 109B     		ldr	r3, [sp, #64]
 1259 0792 BDF88850 		ldrh	r5, [sp, #136]
 1260 0796 04F11400 		add	r0, r4, #20
 1261 079a 9847     		blx	r3
 1262 079c 2D1A     		subs	r5, r5, r0
 1263 079e ABB2     		uxth	r3, r5
 1264 07a0 0493     		str	r3, [sp, #16]
 1265 07a2 93E6     		b	.L140
ARM GAS  /var/folders/lp/x54gwt890xv47sdkqj1k04q40000gn/T//cc5jfzfu.s 			page 23


 1266              	.L174:
 1267 07a4 0023     		movs	r3, #0
 1268 07a6 0493     		str	r3, [sp, #16]
 1269 07a8 90E6     		b	.L140
 1270              	.L219:
 1271 07aa 169B     		ldr	r3, [sp, #88]
 1272 07ac 002B     		cmp	r3, #0
 1273 07ae 00F0A180 		beq	.L173
 1274 07b2 1898     		ldr	r0, [sp, #96]
 1275 07b4 2B46     		mov	r3, r5
 1276 07b6 5946     		mov	r1, fp
 1277 07b8 03E0     		b	.L137
 1278              	.L136:
 1279 07ba 8342     		cmp	r3, r0
 1280 07bc 01F11401 		add	r1, r1, #20
 1281 07c0 5DD0     		beq	.L226
 1282              	.L137:
 1283 07c2 5BF82320 		ldr	r2, [fp, r3, lsl #2]
 1284 07c6 A242     		cmp	r2, r4
 1285 07c8 03F10503 		add	r3, r3, #5
 1286 07cc F5D1     		bne	.L136
 1287 07ce B1F90860 		ldrsh	r6, [r1, #8]
 1288              	.L135:
 1289 07d2 179B     		ldr	r3, [sp, #92]
 1290 07d4 94F82320 		ldrb	r2, [r4, #35]	@ zero_extendqisi2
 1291 07d8 9B00     		lsls	r3, r3, #2
 1292 07da 22F00C02 		bic	r2, r2, #12
 1293 07de 43EAC703 		orr	r3, r3, r7, lsl #3
 1294 07e2 1343     		orrs	r3, r3, r2
 1295 07e4 04F11405 		add	r5, r4, #20
 1296 07e8 84F82330 		strb	r3, [r4, #35]
 1297 07ec 2846     		mov	r0, r5
 1298 07ee 0B9B     		ldr	r3, [sp, #44]
 1299 07f0 9847     		blx	r3
 1300 07f2 B042     		cmp	r0, r6
 1301 07f4 3FF453AE 		beq	.L138
 1302 07f8 2046     		mov	r0, r4
 1303 07fa FFF7FEFF 		bl	lv_obj_invalidate
 1304 07fe A369     		ldr	r3, [r4, #24]	@ unaligned
 1305 0800 2193     		str	r3, [sp, #132]
 1306 0802 6369     		ldr	r3, [r4, #20]	@ unaligned
 1307 0804 2093     		str	r3, [sp, #128]
 1308 0806 3146     		mov	r1, r6
 1309 0808 129B     		ldr	r3, [sp, #72]
 1310 080a 2846     		mov	r0, r5
 1311 080c 9847     		blx	r3
 1312 080e 20AA     		add	r2, sp, #128
 1313 0810 2921     		movs	r1, #41
 1314 0812 2046     		mov	r0, r4
 1315 0814 FFF7FEFF 		bl	lv_event_send
 1316 0818 2046     		mov	r0, r4
 1317 081a FFF7FEFF 		bl	lv_obj_get_parent
 1318 081e 2246     		mov	r2, r4
 1319 0820 2221     		movs	r1, #34
 1320 0822 FFF7FEFF 		bl	lv_event_send
 1321 0826 2046     		mov	r0, r4
 1322 0828 FFF7FEFF 		bl	lv_obj_invalidate
ARM GAS  /var/folders/lp/x54gwt890xv47sdkqj1k04q40000gn/T//cc5jfzfu.s 			page 24


 1323 082c 37E6     		b	.L138
 1324              	.L207:
 1325 082e 199D     		ldr	r5, [sp, #100]
 1326 0830 5F46     		mov	r7, fp
 1327              	.L153:
 1328 0832 3846     		mov	r0, r7
 1329 0834 FFF7FEFF 		bl	lv_mem_buf_release
 1330 0838 069A     		ldr	r2, [sp, #24]
 1331 083a BDF87230 		ldrh	r3, [sp, #114]
 1332 083e 012A     		cmp	r2, #1
 1333 0840 30D0     		beq	.L227
 1334              	.L130:
 1335 0842 BDF88820 		ldrh	r2, [sp, #136]
 1336 0846 1344     		add	r3, r3, r2
 1337 0848 0F9A     		ldr	r2, [sp, #60]
 1338 084a 1344     		add	r3, r3, r2
 1339 084c 0A9A     		ldr	r2, [sp, #40]
 1340 084e 1288     		ldrh	r2, [r2]
 1341 0850 1344     		add	r3, r3, r2
 1342 0852 1BB2     		sxth	r3, r3
 1343              	.L155:
 1344 0854 0A9A     		ldr	r2, [sp, #40]
 1345 0856 1380     		strh	r3, [r2]	@ movhi
 1346 0858 029B     		ldr	r3, [sp, #8]
 1347 085a 099A     		ldr	r2, [sp, #36]
 1348 085c 9B68     		ldr	r3, [r3, #8]
 1349 085e 5B68     		ldr	r3, [r3, #4]
 1350 0860 9342     		cmp	r3, r2
 1351 0862 7FF723AF 		ble	.L98
 1352 0866 002A     		cmp	r2, #0
 1353 0868 FFF620AF 		blt	.L98
 1354 086c DDF824B0 		ldr	fp, [sp, #36]
 1355 0870 DFE4     		b	.L156
 1356              	.L218:
 1357 0872 079A     		ldr	r2, [sp, #28]
 1358 0874 1344     		add	r3, r3, r2
 1359 0876 A9EB0303 		sub	r3, r9, r3
 1360 087a 1BB2     		sxth	r3, r3
 1361 087c E4E5     		b	.L149
 1362              	.L226:
 1363 087e 0026     		movs	r6, #0
 1364 0880 A7E7     		b	.L135
 1365              	.L93:
 1366 0882 0023     		movs	r3, #0
 1367 0884 ADF87230 		strh	r3, [sp, #114]	@ movhi
 1368 0888 1CAB     		add	r3, sp, #112
 1369 088a 0A93     		str	r3, [sp, #40]
 1370 088c 4FF00108 		mov	r8, #1
 1371 0890 5CE4     		b	.L95
 1372              	.L92:
 1373 0892 012B     		cmp	r3, #1
 1374 0894 F5D0     		beq	.L93
 1375 0896 1CAB     		add	r3, sp, #112
 1376 0898 0A93     		str	r3, [sp, #40]
 1377 089a FAE6     		b	.L88
 1378              	.L110:
 1379 089c 0298     		ldr	r0, [sp, #8]
ARM GAS  /var/folders/lp/x54gwt890xv47sdkqj1k04q40000gn/T//cc5jfzfu.s 			page 25


 1380 089e FFF7FEFF 		bl	lv_obj_refr_size
 1381 08a2 0DE7     		b	.L157
 1382              	.L227:
 1383 08a4 119A     		ldr	r2, [sp, #68]
 1384 08a6 002A     		cmp	r2, #0
 1385 08a8 CBD1     		bne	.L130
 1386 08aa 0F9A     		ldr	r2, [sp, #60]
 1387 08ac 1344     		add	r3, r3, r2
 1388 08ae 0A9A     		ldr	r2, [sp, #40]
 1389 08b0 1288     		ldrh	r2, [r2]
 1390 08b2 D31A     		subs	r3, r2, r3
 1391 08b4 1BB2     		sxth	r3, r3
 1392 08b6 CDE7     		b	.L155
 1393              	.L225:
 1394 08b8 029B     		ldr	r3, [sp, #8]
 1395 08ba 9B68     		ldr	r3, [r3, #8]
 1396 08bc 0025     		movs	r5, #0
 1397 08be 5A68     		ldr	r2, [r3, #4]
 1398 08c0 ADF87250 		strh	r5, [sp, #114]	@ movhi
 1399 08c4 9CB9     		cbnz	r4, .L164
 1400 08c6 AA42     		cmp	r2, r5
 1401 08c8 7FF7F0AE 		ble	.L98
 1402 08cc 1CAB     		add	r3, sp, #112
 1403 08ce A046     		mov	r8, r4
 1404 08d0 0A93     		str	r3, [sp, #40]
 1405 08d2 A5E4     		b	.L97
 1406              	.L224:
 1407 08d4 029B     		ldr	r3, [sp, #8]
 1408 08d6 ADF87250 		strh	r5, [sp, #114]	@ movhi
 1409 08da 9B68     		ldr	r3, [r3, #8]
 1410 08dc 5A68     		ldr	r2, [r3, #4]
 1411 08de 5CB1     		cbz	r4, .L228
 1412 08e0 0DF16E02 		add	r2, sp, #110
 1413 08e4 0A92     		str	r2, [sp, #40]
 1414 08e6 80E6     		b	.L89
 1415              	.L212:
 1416 08e8 2646     		mov	r6, r4
 1417 08ea 2546     		mov	r5, r4
 1418 08ec 74E4     		b	.L102
 1419              	.L164:
 1420 08ee 1CAA     		add	r2, sp, #112
 1421 08f0 0A92     		str	r2, [sp, #40]
 1422 08f2 7AE6     		b	.L89
 1423              	.L173:
 1424 08f4 169E     		ldr	r6, [sp, #88]
 1425 08f6 6CE7     		b	.L135
 1426              	.L228:
 1427 08f8 002A     		cmp	r2, #0
 1428 08fa 7FF7D7AE 		ble	.L98
 1429 08fe 0DF16E03 		add	r3, sp, #110
 1430 0902 A046     		mov	r8, r4
 1431 0904 0A93     		str	r3, [sp, #40]
 1432 0906 8BE4     		b	.L97
 1433              	.L234:
 1434              		.align	2
 1435              	.L233:
 1436 0908 1F85EB51 		.word	1374389535
ARM GAS  /var/folders/lp/x54gwt890xv47sdkqj1k04q40000gn/T//cc5jfzfu.s 			page 26


 1438              		.section	.text.lv_flex_init,"ax",%progbits
 1439              		.align	1
 1440              		.p2align 2,,3
 1441              		.global	lv_flex_init
 1442              		.syntax unified
 1443              		.thumb
 1444              		.thumb_func
 1446              	lv_flex_init:
 1447              		@ args = 0, pretend = 0, frame = 0
 1448              		@ frame_needed = 0, uses_anonymous_args = 0
 1449 0000 08B5     		push	{r3, lr}
 1450 0002 0021     		movs	r1, #0
 1451 0004 1148     		ldr	r0, .L237
 1452 0006 FFF7FEFF 		bl	lv_layout_register
 1453 000a 114B     		ldr	r3, .L237+4
 1454 000c 0246     		mov	r2, r0
 1455 000e 0020     		movs	r0, #0
 1456 0010 1A80     		strh	r2, [r3]	@ movhi
 1457 0012 FFF7FEFF 		bl	lv_style_register_prop
 1458 0016 0F4B     		ldr	r3, .L237+8
 1459 0018 0246     		mov	r2, r0
 1460 001a 0420     		movs	r0, #4
 1461 001c 1A80     		strh	r2, [r3]	@ movhi
 1462 001e FFF7FEFF 		bl	lv_style_register_prop
 1463 0022 0D4B     		ldr	r3, .L237+12
 1464 0024 0246     		mov	r2, r0
 1465 0026 0420     		movs	r0, #4
 1466 0028 1A80     		strh	r2, [r3]	@ movhi
 1467 002a FFF7FEFF 		bl	lv_style_register_prop
 1468 002e 0B4B     		ldr	r3, .L237+16
 1469 0030 0246     		mov	r2, r0
 1470 0032 0420     		movs	r0, #4
 1471 0034 1A80     		strh	r2, [r3]	@ movhi
 1472 0036 FFF7FEFF 		bl	lv_style_register_prop
 1473 003a 094B     		ldr	r3, .L237+20
 1474 003c 0246     		mov	r2, r0
 1475 003e 0420     		movs	r0, #4
 1476 0040 1A80     		strh	r2, [r3]	@ movhi
 1477 0042 FFF7FEFF 		bl	lv_style_register_prop
 1478 0046 074B     		ldr	r3, .L237+24
 1479 0048 1880     		strh	r0, [r3]	@ movhi
 1480 004a 08BD     		pop	{r3, pc}
 1481              	.L238:
 1482              		.align	2
 1483              	.L237:
 1484 004c 00000000 		.word	flex_update
 1485 0050 00000000 		.word	LV_LAYOUT_FLEX
 1486 0054 00000000 		.word	LV_STYLE_FLEX_FLOW
 1487 0058 00000000 		.word	LV_STYLE_FLEX_MAIN_PLACE
 1488 005c 00000000 		.word	LV_STYLE_FLEX_CROSS_PLACE
 1489 0060 00000000 		.word	LV_STYLE_FLEX_TRACK_PLACE
 1490 0064 00000000 		.word	LV_STYLE_FLEX_GROW
 1492              		.section	.text.lv_obj_set_flex_flow,"ax",%progbits
 1493              		.align	1
 1494              		.p2align 2,,3
 1495              		.global	lv_obj_set_flex_flow
 1496              		.syntax unified
ARM GAS  /var/folders/lp/x54gwt890xv47sdkqj1k04q40000gn/T//cc5jfzfu.s 			page 27


 1497              		.thumb
 1498              		.thumb_func
 1500              	lv_obj_set_flex_flow:
 1501              		@ args = 0, pretend = 0, frame = 0
 1502              		@ frame_needed = 0, uses_anonymous_args = 0
 1503 0000 10B5     		push	{r4, lr}
 1504 0002 074B     		ldr	r3, .L241
 1505 0004 0A46     		mov	r2, r1
 1506 0006 1988     		ldrh	r1, [r3]
 1507 0008 0023     		movs	r3, #0
 1508 000a 0446     		mov	r4, r0
 1509 000c FFF7FEFF 		bl	lv_obj_set_local_style_prop
 1510 0010 044B     		ldr	r3, .L241+4
 1511 0012 2046     		mov	r0, r4
 1512 0014 1988     		ldrh	r1, [r3]
 1513 0016 BDE81040 		pop	{r4, lr}
 1514 001a 0022     		movs	r2, #0
 1515 001c FFF7FEBF 		b	lv_obj_set_style_layout
 1516              	.L242:
 1517              		.align	2
 1518              	.L241:
 1519 0020 00000000 		.word	LV_STYLE_FLEX_FLOW
 1520 0024 00000000 		.word	LV_LAYOUT_FLEX
 1522              		.section	.text.lv_obj_set_flex_align,"ax",%progbits
 1523              		.align	1
 1524              		.p2align 2,,3
 1525              		.global	lv_obj_set_flex_align
 1526              		.syntax unified
 1527              		.thumb
 1528              		.thumb_func
 1530              	lv_obj_set_flex_align:
 1531              		@ args = 0, pretend = 0, frame = 0
 1532              		@ frame_needed = 0, uses_anonymous_args = 0
 1533 0000 70B5     		push	{r4, r5, r6, lr}
 1534 0002 1D46     		mov	r5, r3
 1535 0004 0E4B     		ldr	r3, .L245
 1536 0006 1646     		mov	r6, r2
 1537 0008 0A46     		mov	r2, r1
 1538 000a 1988     		ldrh	r1, [r3]
 1539 000c 0023     		movs	r3, #0
 1540 000e 0446     		mov	r4, r0
 1541 0010 FFF7FEFF 		bl	lv_obj_set_local_style_prop
 1542 0014 0B4A     		ldr	r2, .L245+4
 1543 0016 2046     		mov	r0, r4
 1544 0018 1188     		ldrh	r1, [r2]
 1545 001a 0023     		movs	r3, #0
 1546 001c 3246     		mov	r2, r6
 1547 001e FFF7FEFF 		bl	lv_obj_set_local_style_prop
 1548 0022 094A     		ldr	r2, .L245+8
 1549 0024 2046     		mov	r0, r4
 1550 0026 1188     		ldrh	r1, [r2]
 1551 0028 0023     		movs	r3, #0
 1552 002a 2A46     		mov	r2, r5
 1553 002c FFF7FEFF 		bl	lv_obj_set_local_style_prop
 1554 0030 064B     		ldr	r3, .L245+12
 1555 0032 2046     		mov	r0, r4
 1556 0034 1988     		ldrh	r1, [r3]
ARM GAS  /var/folders/lp/x54gwt890xv47sdkqj1k04q40000gn/T//cc5jfzfu.s 			page 28


 1557 0036 BDE87040 		pop	{r4, r5, r6, lr}
 1558 003a 0022     		movs	r2, #0
 1559 003c FFF7FEBF 		b	lv_obj_set_style_layout
 1560              	.L246:
 1561              		.align	2
 1562              	.L245:
 1563 0040 00000000 		.word	LV_STYLE_FLEX_MAIN_PLACE
 1564 0044 00000000 		.word	LV_STYLE_FLEX_CROSS_PLACE
 1565 0048 00000000 		.word	LV_STYLE_FLEX_TRACK_PLACE
 1566 004c 00000000 		.word	LV_LAYOUT_FLEX
 1568              		.section	.text.lv_obj_set_flex_grow,"ax",%progbits
 1569              		.align	1
 1570              		.p2align 2,,3
 1571              		.global	lv_obj_set_flex_grow
 1572              		.syntax unified
 1573              		.thumb
 1574              		.thumb_func
 1576              	lv_obj_set_flex_grow:
 1577              		@ args = 0, pretend = 0, frame = 0
 1578              		@ frame_needed = 0, uses_anonymous_args = 0
 1579 0000 10B5     		push	{r4, lr}
 1580 0002 074B     		ldr	r3, .L249
 1581 0004 0A46     		mov	r2, r1
 1582 0006 0446     		mov	r4, r0
 1583 0008 1988     		ldrh	r1, [r3]
 1584 000a 0023     		movs	r3, #0
 1585 000c FFF7FEFF 		bl	lv_obj_set_local_style_prop
 1586 0010 2046     		mov	r0, r4
 1587 0012 FFF7FEFF 		bl	lv_obj_get_parent
 1588 0016 BDE81040 		pop	{r4, lr}
 1589 001a FFF7FEBF 		b	lv_obj_mark_layout_as_dirty
 1590              	.L250:
 1591 001e 00BF     		.align	2
 1592              	.L249:
 1593 0020 00000000 		.word	LV_STYLE_FLEX_GROW
 1595              		.section	.text.lv_style_set_flex_flow,"ax",%progbits
 1596              		.align	1
 1597              		.p2align 2,,3
 1598              		.global	lv_style_set_flex_flow
 1599              		.syntax unified
 1600              		.thumb
 1601              		.thumb_func
 1603              	lv_style_set_flex_flow:
 1604              		@ args = 0, pretend = 0, frame = 0
 1605              		@ frame_needed = 0, uses_anonymous_args = 0
 1606              		@ link register save eliminated.
 1607 0000 024B     		ldr	r3, .L252
 1608 0002 0A46     		mov	r2, r1
 1609 0004 1988     		ldrh	r1, [r3]
 1610 0006 FFF7FEBF 		b	lv_style_set_prop
 1611              	.L253:
 1612 000a 00BF     		.align	2
 1613              	.L252:
 1614 000c 00000000 		.word	LV_STYLE_FLEX_FLOW
 1616              		.section	.text.lv_style_set_flex_main_place,"ax",%progbits
 1617              		.align	1
 1618              		.p2align 2,,3
ARM GAS  /var/folders/lp/x54gwt890xv47sdkqj1k04q40000gn/T//cc5jfzfu.s 			page 29


 1619              		.global	lv_style_set_flex_main_place
 1620              		.syntax unified
 1621              		.thumb
 1622              		.thumb_func
 1624              	lv_style_set_flex_main_place:
 1625              		@ args = 0, pretend = 0, frame = 0
 1626              		@ frame_needed = 0, uses_anonymous_args = 0
 1627              		@ link register save eliminated.
 1628 0000 024B     		ldr	r3, .L255
 1629 0002 0A46     		mov	r2, r1
 1630 0004 1988     		ldrh	r1, [r3]
 1631 0006 FFF7FEBF 		b	lv_style_set_prop
 1632              	.L256:
 1633 000a 00BF     		.align	2
 1634              	.L255:
 1635 000c 00000000 		.word	LV_STYLE_FLEX_MAIN_PLACE
 1637              		.section	.text.lv_style_set_flex_cross_place,"ax",%progbits
 1638              		.align	1
 1639              		.p2align 2,,3
 1640              		.global	lv_style_set_flex_cross_place
 1641              		.syntax unified
 1642              		.thumb
 1643              		.thumb_func
 1645              	lv_style_set_flex_cross_place:
 1646              		@ args = 0, pretend = 0, frame = 0
 1647              		@ frame_needed = 0, uses_anonymous_args = 0
 1648              		@ link register save eliminated.
 1649 0000 024B     		ldr	r3, .L258
 1650 0002 0A46     		mov	r2, r1
 1651 0004 1988     		ldrh	r1, [r3]
 1652 0006 FFF7FEBF 		b	lv_style_set_prop
 1653              	.L259:
 1654 000a 00BF     		.align	2
 1655              	.L258:
 1656 000c 00000000 		.word	LV_STYLE_FLEX_CROSS_PLACE
 1658              		.section	.text.lv_style_set_flex_track_place,"ax",%progbits
 1659              		.align	1
 1660              		.p2align 2,,3
 1661              		.global	lv_style_set_flex_track_place
 1662              		.syntax unified
 1663              		.thumb
 1664              		.thumb_func
 1666              	lv_style_set_flex_track_place:
 1667              		@ args = 0, pretend = 0, frame = 0
 1668              		@ frame_needed = 0, uses_anonymous_args = 0
 1669              		@ link register save eliminated.
 1670 0000 024B     		ldr	r3, .L261
 1671 0002 0A46     		mov	r2, r1
 1672 0004 1988     		ldrh	r1, [r3]
 1673 0006 FFF7FEBF 		b	lv_style_set_prop
 1674              	.L262:
 1675 000a 00BF     		.align	2
 1676              	.L261:
 1677 000c 00000000 		.word	LV_STYLE_FLEX_TRACK_PLACE
 1679              		.section	.text.lv_style_set_flex_grow,"ax",%progbits
 1680              		.align	1
 1681              		.p2align 2,,3
ARM GAS  /var/folders/lp/x54gwt890xv47sdkqj1k04q40000gn/T//cc5jfzfu.s 			page 30


 1682              		.global	lv_style_set_flex_grow
 1683              		.syntax unified
 1684              		.thumb
 1685              		.thumb_func
 1687              	lv_style_set_flex_grow:
 1688              		@ args = 0, pretend = 0, frame = 0
 1689              		@ frame_needed = 0, uses_anonymous_args = 0
 1690              		@ link register save eliminated.
 1691 0000 024B     		ldr	r3, .L264
 1692 0002 0A46     		mov	r2, r1
 1693 0004 1988     		ldrh	r1, [r3]
 1694 0006 FFF7FEBF 		b	lv_style_set_prop
 1695              	.L265:
 1696 000a 00BF     		.align	2
 1697              	.L264:
 1698 000c 00000000 		.word	LV_STYLE_FLEX_GROW
 1700              		.section	.text.lv_obj_set_style_flex_flow,"ax",%progbits
 1701              		.align	1
 1702              		.p2align 2,,3
 1703              		.global	lv_obj_set_style_flex_flow
 1704              		.syntax unified
 1705              		.thumb
 1706              		.thumb_func
 1708              	lv_obj_set_style_flex_flow:
 1709              		@ args = 0, pretend = 0, frame = 0
 1710              		@ frame_needed = 0, uses_anonymous_args = 0
 1711              		@ link register save eliminated.
 1712 0000 10B4     		push	{r4}
 1713 0002 044C     		ldr	r4, .L268
 1714 0004 8C46     		mov	ip, r1
 1715 0006 1346     		mov	r3, r2
 1716 0008 2188     		ldrh	r1, [r4]
 1717 000a 5DF8044B 		ldr	r4, [sp], #4
 1718 000e 6246     		mov	r2, ip
 1719 0010 FFF7FEBF 		b	lv_obj_set_local_style_prop
 1720              	.L269:
 1721              		.align	2
 1722              	.L268:
 1723 0014 00000000 		.word	LV_STYLE_FLEX_FLOW
 1725              		.section	.text.lv_obj_set_style_flex_main_place,"ax",%progbits
 1726              		.align	1
 1727              		.p2align 2,,3
 1728              		.global	lv_obj_set_style_flex_main_place
 1729              		.syntax unified
 1730              		.thumb
 1731              		.thumb_func
 1733              	lv_obj_set_style_flex_main_place:
 1734              		@ args = 0, pretend = 0, frame = 0
 1735              		@ frame_needed = 0, uses_anonymous_args = 0
 1736              		@ link register save eliminated.
 1737 0000 10B4     		push	{r4}
 1738 0002 044C     		ldr	r4, .L272
 1739 0004 8C46     		mov	ip, r1
 1740 0006 1346     		mov	r3, r2
 1741 0008 2188     		ldrh	r1, [r4]
 1742 000a 5DF8044B 		ldr	r4, [sp], #4
 1743 000e 6246     		mov	r2, ip
ARM GAS  /var/folders/lp/x54gwt890xv47sdkqj1k04q40000gn/T//cc5jfzfu.s 			page 31


 1744 0010 FFF7FEBF 		b	lv_obj_set_local_style_prop
 1745              	.L273:
 1746              		.align	2
 1747              	.L272:
 1748 0014 00000000 		.word	LV_STYLE_FLEX_MAIN_PLACE
 1750              		.section	.text.lv_obj_set_style_flex_cross_place,"ax",%progbits
 1751              		.align	1
 1752              		.p2align 2,,3
 1753              		.global	lv_obj_set_style_flex_cross_place
 1754              		.syntax unified
 1755              		.thumb
 1756              		.thumb_func
 1758              	lv_obj_set_style_flex_cross_place:
 1759              		@ args = 0, pretend = 0, frame = 0
 1760              		@ frame_needed = 0, uses_anonymous_args = 0
 1761              		@ link register save eliminated.
 1762 0000 10B4     		push	{r4}
 1763 0002 044C     		ldr	r4, .L276
 1764 0004 8C46     		mov	ip, r1
 1765 0006 1346     		mov	r3, r2
 1766 0008 2188     		ldrh	r1, [r4]
 1767 000a 5DF8044B 		ldr	r4, [sp], #4
 1768 000e 6246     		mov	r2, ip
 1769 0010 FFF7FEBF 		b	lv_obj_set_local_style_prop
 1770              	.L277:
 1771              		.align	2
 1772              	.L276:
 1773 0014 00000000 		.word	LV_STYLE_FLEX_CROSS_PLACE
 1775              		.section	.text.lv_obj_set_style_flex_track_place,"ax",%progbits
 1776              		.align	1
 1777              		.p2align 2,,3
 1778              		.global	lv_obj_set_style_flex_track_place
 1779              		.syntax unified
 1780              		.thumb
 1781              		.thumb_func
 1783              	lv_obj_set_style_flex_track_place:
 1784              		@ args = 0, pretend = 0, frame = 0
 1785              		@ frame_needed = 0, uses_anonymous_args = 0
 1786              		@ link register save eliminated.
 1787 0000 10B4     		push	{r4}
 1788 0002 044C     		ldr	r4, .L280
 1789 0004 8C46     		mov	ip, r1
 1790 0006 1346     		mov	r3, r2
 1791 0008 2188     		ldrh	r1, [r4]
 1792 000a 5DF8044B 		ldr	r4, [sp], #4
 1793 000e 6246     		mov	r2, ip
 1794 0010 FFF7FEBF 		b	lv_obj_set_local_style_prop
 1795              	.L281:
 1796              		.align	2
 1797              	.L280:
 1798 0014 00000000 		.word	LV_STYLE_FLEX_TRACK_PLACE
 1800              		.section	.text.lv_obj_set_style_flex_grow,"ax",%progbits
 1801              		.align	1
 1802              		.p2align 2,,3
 1803              		.global	lv_obj_set_style_flex_grow
 1804              		.syntax unified
 1805              		.thumb
ARM GAS  /var/folders/lp/x54gwt890xv47sdkqj1k04q40000gn/T//cc5jfzfu.s 			page 32


 1806              		.thumb_func
 1808              	lv_obj_set_style_flex_grow:
 1809              		@ args = 0, pretend = 0, frame = 0
 1810              		@ frame_needed = 0, uses_anonymous_args = 0
 1811              		@ link register save eliminated.
 1812 0000 10B4     		push	{r4}
 1813 0002 044C     		ldr	r4, .L284
 1814 0004 8C46     		mov	ip, r1
 1815 0006 1346     		mov	r3, r2
 1816 0008 2188     		ldrh	r1, [r4]
 1817 000a 5DF8044B 		ldr	r4, [sp], #4
 1818 000e 6246     		mov	r2, ip
 1819 0010 FFF7FEBF 		b	lv_obj_set_local_style_prop
 1820              	.L285:
 1821              		.align	2
 1822              	.L284:
 1823 0014 00000000 		.word	LV_STYLE_FLEX_GROW
 1825              		.global	LV_STYLE_FLEX_GROW
 1826              		.section	.bss.LV_STYLE_FLEX_GROW,"aw",%nobits
 1827              		.align	1
 1830              	LV_STYLE_FLEX_GROW:
 1831 0000 0000     		.space	2
 1832              		.global	LV_STYLE_FLEX_TRACK_PLACE
 1833              		.section	.bss.LV_STYLE_FLEX_TRACK_PLACE,"aw",%nobits
 1834              		.align	1
 1837              	LV_STYLE_FLEX_TRACK_PLACE:
 1838 0000 0000     		.space	2
 1839              		.global	LV_STYLE_FLEX_CROSS_PLACE
 1840              		.section	.bss.LV_STYLE_FLEX_CROSS_PLACE,"aw",%nobits
 1841              		.align	1
 1844              	LV_STYLE_FLEX_CROSS_PLACE:
 1845 0000 0000     		.space	2
 1846              		.global	LV_STYLE_FLEX_MAIN_PLACE
 1847              		.section	.bss.LV_STYLE_FLEX_MAIN_PLACE,"aw",%nobits
 1848              		.align	1
 1851              	LV_STYLE_FLEX_MAIN_PLACE:
 1852 0000 0000     		.space	2
 1853              		.global	LV_STYLE_FLEX_FLOW
 1854              		.section	.bss.LV_STYLE_FLEX_FLOW,"aw",%nobits
 1855              		.align	1
 1858              	LV_STYLE_FLEX_FLOW:
 1859 0000 0000     		.space	2
 1860              		.global	LV_LAYOUT_FLEX
 1861              		.section	.bss.LV_LAYOUT_FLEX,"aw",%nobits
 1862              		.align	1
 1865              	LV_LAYOUT_FLEX:
 1866 0000 0000     		.space	2
 1867              		.ident	"GCC: (xPack GNU Arm Embedded GCC arm64) 13.3.1 20240614"
ARM GAS  /var/folders/lp/x54gwt890xv47sdkqj1k04q40000gn/T//cc5jfzfu.s 			page 33

