ARM GAS  /var/folders/lp/x54gwt890xv47sdkqj1k04q40000gn/T//cciuhJba.s 			page 1


   1              		.cpu cortex-m4
   2              		.arch armv7e-m
   3              		.fpu fpv4-sp-d16
   4              		.eabi_attribute 27, 1
   5              		.eabi_attribute 28, 1
   6              		.eabi_attribute 20, 1
   7              		.eabi_attribute 21, 1
   8              		.eabi_attribute 23, 3
   9              		.eabi_attribute 24, 1
  10              		.eabi_attribute 25, 1
  11              		.eabi_attribute 26, 1
  12              		.eabi_attribute 30, 2
  13              		.eabi_attribute 34, 1
  14              		.eabi_attribute 18, 4
  15              		.file	"lv_hal_indev.c"
  16              		.text
  17              		.section	.text.lv_indev_drv_init,"ax",%progbits
  18              		.align	1
  19              		.p2align 2,,3
  20              		.global	lv_indev_drv_init
  21              		.syntax unified
  22              		.thumb
  23              		.thumb_func
  25              	lv_indev_drv_init:
  26              		@ args = 0, pretend = 0, frame = 0
  27              		@ frame_needed = 0, uses_anonymous_args = 0
  28 0000 10B5     		push	{r4, lr}
  29 0002 2021     		movs	r1, #32
  30 0004 0446     		mov	r4, r0
  31 0006 FFF7FEFF 		bl	lv_memset_00
  32 000a 034A     		ldr	r2, .L4
  33 000c 034B     		ldr	r3, .L4+4
  34 000e C4E90632 		strd	r3, r2, [r4, #24]
  35 0012 0021     		movs	r1, #0
  36 0014 2170     		strb	r1, [r4]
  37 0016 10BD     		pop	{r4, pc}
  38              	.L5:
  39              		.align	2
  40              	.L4:
  41 0018 90016400 		.word	6554000
  42 001c 0A0A0332 		.word	839059978
  44              		.section	.text.lv_indev_drv_register,"ax",%progbits
  45              		.align	1
  46              		.p2align 2,,3
  47              		.global	lv_indev_drv_register
  48              		.syntax unified
  49              		.thumb
  50              		.thumb_func
  52              	lv_indev_drv_register:
  53              		@ args = 0, pretend = 0, frame = 0
  54              		@ frame_needed = 0, uses_anonymous_args = 0
  55 0000 38B5     		push	{r3, r4, r5, lr}
  56 0002 0369     		ldr	r3, [r0, #16]
  57 0004 0546     		mov	r5, r0
  58 0006 ABB1     		cbz	r3, .L7
  59              	.L11:
  60 0008 0E48     		ldr	r0, .L20
ARM GAS  /var/folders/lp/x54gwt890xv47sdkqj1k04q40000gn/T//cciuhJba.s 			page 2


  61 000a FFF7FEFF 		bl	_lv_ll_ins_head
  62 000e 0446     		mov	r4, r0
  63 0010 78B1     		cbz	r0, .L19
  64 0012 5C21     		movs	r1, #92
  65 0014 FFF7FEFF 		bl	lv_memset_00
  66 0018 6379     		ldrb	r3, [r4, #5]	@ zero_extendqisi2
  67 001a 2560     		str	r5, [r4]
  68 001c 43F00203 		orr	r3, r3, #2
  69 0020 3221     		movs	r1, #50
  70 0022 6371     		strb	r3, [r4, #5]
  71 0024 2246     		mov	r2, r4
  72 0026 0848     		ldr	r0, .L20+4
  73 0028 FFF7FEFF 		bl	lv_timer_create
  74 002c 6861     		str	r0, [r5, #20]
  75 002e 2046     		mov	r0, r4
  76 0030 38BD     		pop	{r3, r4, r5, pc}
  77              	.L19:
  78              	.L8:
  79 0032 FEE7     		b	.L8
  80              	.L7:
  81 0034 FFF7FEFF 		bl	lv_disp_get_default
  82 0038 0446     		mov	r4, r0
  83 003a 2861     		str	r0, [r5, #16]
  84 003c 0028     		cmp	r0, #0
  85 003e E3D1     		bne	.L11
  86 0040 2046     		mov	r0, r4
  87 0042 38BD     		pop	{r3, r4, r5, pc}
  88              	.L21:
  89              		.align	2
  90              	.L20:
  91 0044 00000000 		.word	_lv_indev_ll
  92 0048 00000000 		.word	lv_indev_read_timer_cb
  94              		.section	.text.lv_indev_drv_update,"ax",%progbits
  95              		.align	1
  96              		.p2align 2,,3
  97              		.global	lv_indev_drv_update
  98              		.syntax unified
  99              		.thumb
 100              		.thumb_func
 102              	lv_indev_drv_update:
 103              		@ args = 0, pretend = 0, frame = 0
 104              		@ frame_needed = 0, uses_anonymous_args = 0
 105 0000 B8B1     		cbz	r0, .L24
 106 0002 38B5     		push	{r3, r4, r5, lr}
 107 0004 0368     		ldr	r3, [r0]
 108 0006 0446     		mov	r4, r0
 109 0008 A3B1     		cbz	r3, .L26
 110 000a 5869     		ldr	r0, [r3, #20]
 111 000c 98B1     		cbz	r0, .L28
 112 000e 0D46     		mov	r5, r1
 113 0010 FFF7FEFF 		bl	lv_timer_del
 114 0014 85B1     		cbz	r5, .L30
 115 0016 2B69     		ldr	r3, [r5, #16]
 116 0018 7BB1     		cbz	r3, .L35
 117              	.L31:
 118 001a 0D48     		ldr	r0, .L36
 119 001c 2560     		str	r5, [r4]
ARM GAS  /var/folders/lp/x54gwt890xv47sdkqj1k04q40000gn/T//cciuhJba.s 			page 3


 120 001e 2246     		mov	r2, r4
 121 0020 3221     		movs	r1, #50
 122 0022 FFF7FEFF 		bl	lv_timer_create
 123 0026 6379     		ldrb	r3, [r4, #5]	@ zero_extendqisi2
 124 0028 6861     		str	r0, [r5, #20]
 125 002a 43F00203 		orr	r3, r3, #2
 126 002e 6371     		strb	r3, [r4, #5]
 127 0030 38BD     		pop	{r3, r4, r5, pc}
 128              	.L24:
 129 0032 FEE7     		b	.L24
 130              	.L26:
 131 0034 FEE7     		b	.L26
 132              	.L28:
 133 0036 FEE7     		b	.L28
 134              	.L30:
 135 0038 FEE7     		b	.L30
 136              	.L35:
 137 003a FFF7FEFF 		bl	lv_disp_get_default
 138 003e 2861     		str	r0, [r5, #16]
 139 0040 0028     		cmp	r0, #0
 140 0042 EAD1     		bne	.L31
 141 0044 6379     		ldrb	r3, [r4, #5]	@ zero_extendqisi2
 142 0046 43F00403 		orr	r3, r3, #4
 143 004a 6371     		strb	r3, [r4, #5]
 144 004c 38BD     		pop	{r3, r4, r5, pc}
 145              	.L37:
 146 004e 00BF     		.align	2
 147              	.L36:
 148 0050 00000000 		.word	lv_indev_read_timer_cb
 150              		.section	.text.lv_indev_delete,"ax",%progbits
 151              		.align	1
 152              		.p2align 2,,3
 153              		.global	lv_indev_delete
 154              		.syntax unified
 155              		.thumb
 156              		.thumb_func
 158              	lv_indev_delete:
 159              		@ args = 0, pretend = 0, frame = 0
 160              		@ frame_needed = 0, uses_anonymous_args = 0
 161 0000 80B1     		cbz	r0, .L40
 162 0002 0368     		ldr	r3, [r0]
 163 0004 10B5     		push	{r4, lr}
 164 0006 0446     		mov	r4, r0
 165 0008 6BB1     		cbz	r3, .L42
 166 000a 5869     		ldr	r0, [r3, #20]
 167 000c 60B1     		cbz	r0, .L44
 168 000e FFF7FEFF 		bl	lv_timer_del
 169 0012 0648     		ldr	r0, .L47
 170 0014 2146     		mov	r1, r4
 171 0016 FFF7FEFF 		bl	_lv_ll_remove
 172 001a 2046     		mov	r0, r4
 173 001c BDE81040 		pop	{r4, lr}
 174 0020 FFF7FEBF 		b	lv_mem_free
 175              	.L40:
 176 0024 FEE7     		b	.L40
 177              	.L42:
 178 0026 FEE7     		b	.L42
ARM GAS  /var/folders/lp/x54gwt890xv47sdkqj1k04q40000gn/T//cciuhJba.s 			page 4


 179              	.L44:
 180 0028 FEE7     		b	.L44
 181              	.L48:
 182 002a 00BF     		.align	2
 183              	.L47:
 184 002c 00000000 		.word	_lv_indev_ll
 186              		.section	.text.lv_indev_get_next,"ax",%progbits
 187              		.align	1
 188              		.p2align 2,,3
 189              		.global	lv_indev_get_next
 190              		.syntax unified
 191              		.thumb
 192              		.thumb_func
 194              	lv_indev_get_next:
 195              		@ args = 0, pretend = 0, frame = 0
 196              		@ frame_needed = 0, uses_anonymous_args = 0
 197              		@ link register save eliminated.
 198 0000 0146     		mov	r1, r0
 199 0002 0348     		ldr	r0, .L52
 200 0004 09B1     		cbz	r1, .L51
 201 0006 FFF7FEBF 		b	_lv_ll_get_next
 202              	.L51:
 203 000a FFF7FEBF 		b	_lv_ll_get_head
 204              	.L53:
 205 000e 00BF     		.align	2
 206              	.L52:
 207 0010 00000000 		.word	_lv_indev_ll
 209              		.section	.text._lv_indev_read,"ax",%progbits
 210              		.align	1
 211              		.p2align 2,,3
 212              		.global	_lv_indev_read
 213              		.syntax unified
 214              		.thumb
 215              		.thumb_func
 217              	_lv_indev_read:
 218              		@ args = 0, pretend = 0, frame = 0
 219              		@ frame_needed = 0, uses_anonymous_args = 0
 220 0000 70B5     		push	{r4, r5, r6, lr}
 221 0002 0C46     		mov	r4, r1
 222 0004 0546     		mov	r5, r0
 223 0006 1021     		movs	r1, #16
 224 0008 2046     		mov	r0, r4
 225 000a FFF7FEFF 		bl	lv_memset_00
 226 000e 2868     		ldr	r0, [r5]
 227 0010 0378     		ldrb	r3, [r0]	@ zero_extendqisi2
 228 0012 012B     		cmp	r3, #1
 229 0014 11D0     		beq	.L60
 230 0016 022B     		cmp	r3, #2
 231 0018 09D0     		beq	.L61
 232 001a 042B     		cmp	r3, #4
 233 001c 04BF     		itt	eq
 234 001e 0A23     		moveq	r3, #10
 235 0020 6360     		streq	r3, [r4, #4]
 236              	.L56:
 237 0022 4368     		ldr	r3, [r0, #4]
 238 0024 43B1     		cbz	r3, .L54
 239              	.L62:
ARM GAS  /var/folders/lp/x54gwt890xv47sdkqj1k04q40000gn/T//cciuhJba.s 			page 5


 240 0026 2146     		mov	r1, r4
 241 0028 BDE87040 		pop	{r4, r5, r6, lr}
 242 002c 1847     		bx	r3	@ indirect register sibling call
 243              	.L61:
 244 002e EB68     		ldr	r3, [r5, #12]
 245 0030 6360     		str	r3, [r4, #4]
 246 0032 4368     		ldr	r3, [r0, #4]
 247 0034 002B     		cmp	r3, #0
 248 0036 F6D1     		bne	.L62
 249              	.L54:
 250 0038 70BD     		pop	{r4, r5, r6, pc}
 251              	.L60:
 252 003a 6B69     		ldr	r3, [r5, #20]
 253 003c 2360     		str	r3, [r4]
 254 003e F0E7     		b	.L56
 256              		.ident	"GCC: (xPack GNU Arm Embedded GCC arm64) 13.3.1 20240614"
ARM GAS  /var/folders/lp/x54gwt890xv47sdkqj1k04q40000gn/T//cciuhJba.s 			page 6

