ARM GAS  /var/folders/lp/x54gwt890xv47sdkqj1k04q40000gn/T//cc9QG5rv.s 			page 1


   1              		.cpu cortex-m4
   2              		.arch armv7e-m
   3              		.fpu fpv4-sp-d16
   4              		.eabi_attribute 27, 1
   5              		.eabi_attribute 28, 1
   6              		.eabi_attribute 20, 1
   7              		.eabi_attribute 21, 1
   8              		.eabi_attribute 23, 3
   9              		.eabi_attribute 24, 1
  10              		.eabi_attribute 25, 1
  11              		.eabi_attribute 26, 1
  12              		.eabi_attribute 30, 2
  13              		.eabi_attribute 34, 1
  14              		.eabi_attribute 18, 4
  15              		.file	"lv_indev.c"
  16              		.text
  17              		.section	.text.indev_proc_release,"ax",%progbits
  18              		.align	1
  19              		.p2align 2,,3
  20              		.syntax unified
  21              		.thumb
  22              		.thumb_func
  24              	indev_proc_release:
  25              		@ args = 0, pretend = 0, frame = 8
  26              		@ frame_needed = 0, uses_anonymous_args = 0
  27 0000 2DE9F043 		push	{r4, r5, r6, r7, r8, r9, lr}
  28 0004 4378     		ldrb	r3, [r0, #1]	@ zero_extendqisi2
  29 0006 13F00805 		ands	r5, r3, #8
  30 000a 0446     		mov	r4, r0
  31 000c 83B0     		sub	sp, sp, #12
  32 000e 406A     		ldr	r0, [r0, #36]
  33 0010 5BD1     		bne	.L44
  34 0012 4F4F     		ldr	r7, .L46
  35 0014 D4F82C90 		ldr	r9, [r4, #44]
  36 0018 3860     		str	r0, [r7]
  37 001a 0028     		cmp	r0, #0
  38 001c 6DD0     		beq	.L6
  39 001e 4D4E     		ldr	r6, .L46+4
  40 0020 0821     		movs	r1, #8
  41 0022 3268     		ldr	r2, [r6]
  42 0024 FFF7FEFF 		bl	lv_event_send
  43 0028 6378     		ldrb	r3, [r4, #1]	@ zero_extendqisi2
  44 002a 9907     		lsls	r1, r3, #30
  45 002c 48BF     		it	mi
  46 002e 3D60     		strmi	r5, [r7]
  47 0030 9A07     		lsls	r2, r3, #30
  48 0032 C3F34005 		ubfx	r5, r3, #1, #1
  49 0036 63D4     		bmi	.L1
  50 0038 B9F1000F 		cmp	r9, #0
  51 003c 67D0     		beq	.L9
  52 003e C4E91155 		strd	r5, r5, [r4, #68]
  53 0042 6562     		str	r5, [r4, #36]
  54 0044 0195     		str	r5, [sp, #4]
  55 0046 4FF48078 		mov	r8, #256
  56              	.L10:
  57 004a 6E22     		movs	r2, #110
  58 004c 0021     		movs	r1, #0
ARM GAS  /var/folders/lp/x54gwt890xv47sdkqj1k04q40000gn/T//cc9QG5rv.s 			page 2


  59 004e 4846     		mov	r0, r9
  60 0050 FFF7FEFF 		bl	lv_obj_get_style_prop
  61 0054 6D22     		movs	r2, #109
  62 0056 4319     		adds	r3, r0, r5
  63 0058 0021     		movs	r1, #0
  64 005a 4846     		mov	r0, r9
  65 005c 9EB2     		uxth	r6, r3
  66 005e 1DB2     		sxth	r5, r3
  67 0060 FFF7FEFF 		bl	lv_obj_get_style_prop
  68 0064 03B2     		sxth	r3, r0
  69 0066 002B     		cmp	r3, #0
  70 0068 B8BF     		it	lt
  71 006a FF33     		addlt	r3, r3, #255
  72 006c 1B12     		asrs	r3, r3, #8
  73 006e 4846     		mov	r0, r9
  74 0070 13FB08F3 		smulbb	r3, r3, r8
  75 0074 0FFA83F8 		sxth	r8, r3
  76 0078 FFF7FEFF 		bl	lv_obj_get_parent
  77 007c 8146     		mov	r9, r0
  78 007e 0028     		cmp	r0, #0
  79 0080 E3D1     		bne	.L10
  80 0082 15B9     		cbnz	r5, .L17
  81 0084 B8F5807F 		cmp	r8, #256
  82 0088 14D0     		beq	.L19
  83              	.L17:
  84 008a 7642     		rsbs	r6, r6, #0
  85 008c 36B2     		sxth	r6, r6
  86 008e 4FF48035 		mov	r5, #65536
  87 0092 95FBF8F5 		sdiv	r5, r5, r8
  88 0096 2DB2     		sxth	r5, r5
  89 0098 01AB     		add	r3, sp, #4
  90 009a 2A46     		mov	r2, r5
  91 009c 3146     		mov	r1, r6
  92 009e 04F11C00 		add	r0, r4, #28
  93 00a2 FFF7FEFF 		bl	lv_point_transform
  94 00a6 01AB     		add	r3, sp, #4
  95 00a8 2A46     		mov	r2, r5
  96 00aa 3146     		mov	r1, r6
  97 00ac 04F12000 		add	r0, r4, #32
  98 00b0 FFF7FEFF 		bl	lv_point_transform
  99              	.L19:
 100 00b4 2046     		mov	r0, r4
 101 00b6 FFF7FEFF 		bl	_lv_indev_scroll_throw_handler
 102 00ba 6378     		ldrb	r3, [r4, #1]	@ zero_extendqisi2
 103 00bc 9B07     		lsls	r3, r3, #30
 104 00be 44BF     		itt	mi
 105 00c0 0023     		movmi	r3, #0
 106 00c2 3B60     		strmi	r3, [r7]
 107 00c4 03B0     		add	sp, sp, #12
 108              		@ sp needed
 109 00c6 BDE8F083 		pop	{r4, r5, r6, r7, r8, r9, pc}
 110              	.L44:
 111 00ca 224B     		ldr	r3, .L46+4
 112 00cc 0321     		movs	r1, #3
 113 00ce 1A68     		ldr	r2, [r3]
 114 00d0 FFF7FEFF 		bl	lv_event_send
 115 00d4 6278     		ldrb	r2, [r4, #1]	@ zero_extendqisi2
ARM GAS  /var/folders/lp/x54gwt890xv47sdkqj1k04q40000gn/T//cc9QG5rv.s 			page 3


 116 00d6 9507     		lsls	r5, r2, #30
 117 00d8 15D4     		bmi	.L45
 118              	.L3:
 119 00da 9007     		lsls	r0, r2, #30
 120 00dc C2F34003 		ubfx	r3, r2, #1, #1
 121 00e0 0ED4     		bmi	.L1
 122 00e2 6278     		ldrb	r2, [r4, #1]	@ zero_extendqisi2
 123 00e4 1A4F     		ldr	r7, .L46
 124 00e6 D4F82C90 		ldr	r9, [r4, #44]
 125 00ea 3B60     		str	r3, [r7]
 126 00ec C4E90933 		strd	r3, r3, [r4, #36]
 127 00f0 C4E91133 		strd	r3, r3, [r4, #68]
 128 00f4 63F3C302 		bfi	r2, r3, #3, #1
 129 00f8 6270     		strb	r2, [r4, #1]
 130              	.L6:
 131 00fa B9F1000F 		cmp	r9, #0
 132 00fe D9D1     		bne	.L19
 133              	.L1:
 134 0100 03B0     		add	sp, sp, #12
 135              		@ sp needed
 136 0102 BDE8F083 		pop	{r4, r5, r6, r7, r8, r9, pc}
 137              	.L45:
 138 0106 124B     		ldr	r3, .L46
 139 0108 0021     		movs	r1, #0
 140 010a 1960     		str	r1, [r3]
 141 010c E5E7     		b	.L3
 142              	.L9:
 143 010e DD07     		lsls	r5, r3, #31
 144 0110 3868     		ldr	r0, [r7]
 145 0112 3268     		ldr	r2, [r6]
 146 0114 09D4     		bmi	.L15
 147 0116 0421     		movs	r1, #4
 148 0118 FFF7FEFF 		bl	lv_event_send
 149 011c 6378     		ldrb	r3, [r4, #1]	@ zero_extendqisi2
 150 011e 13F0020F 		tst	r3, #2
 151 0122 02D0     		beq	.L15
 152 0124 C7F80090 		str	r9, [r7]
 153 0128 EAD1     		bne	.L1
 154              	.L15:
 155 012a 3268     		ldr	r2, [r6]
 156 012c 3868     		ldr	r0, [r7]
 157 012e 0721     		movs	r1, #7
 158 0130 FFF7FEFF 		bl	lv_event_send
 159 0134 6378     		ldrb	r3, [r4, #1]	@ zero_extendqisi2
 160 0136 9807     		lsls	r0, r3, #30
 161 0138 07D4     		bmi	.L12
 162              	.L13:
 163 013a 9907     		lsls	r1, r3, #30
 164 013c C3F34002 		ubfx	r2, r3, #1, #1
 165 0140 DED4     		bmi	.L1
 166 0142 C4E91122 		strd	r2, r2, [r4, #68]
 167 0146 6262     		str	r2, [r4, #36]
 168 0148 DAE7     		b	.L1
 169              	.L12:
 170 014a 0022     		movs	r2, #0
 171 014c 3A60     		str	r2, [r7]
 172 014e F4E7     		b	.L13
ARM GAS  /var/folders/lp/x54gwt890xv47sdkqj1k04q40000gn/T//cc9QG5rv.s 			page 4


 173              	.L47:
 174              		.align	2
 175              	.L46:
 176 0150 00000000 		.word	indev_obj_act
 177 0154 00000000 		.word	indev_act
 179              		.section	.text.lv_indev_enable,"ax",%progbits
 180              		.align	1
 181              		.p2align 2,,3
 182              		.global	lv_indev_enable
 183              		.syntax unified
 184              		.thumb
 185              		.thumb_func
 187              	lv_indev_enable:
 188              		@ args = 0, pretend = 0, frame = 0
 189              		@ frame_needed = 0, uses_anonymous_args = 0
 190 0000 10B5     		push	{r4, lr}
 191 0002 81F00104 		eor	r4, r1, #1
 192 0006 40B1     		cbz	r0, .L58
 193 0008 4279     		ldrb	r2, [r0, #5]	@ zero_extendqisi2
 194 000a 64F38202 		bfi	r2, r4, #2, #1
 195 000e 4271     		strb	r2, [r0, #5]
 196 0010 10BD     		pop	{r4, pc}
 197              	.L52:
 198 0012 4379     		ldrb	r3, [r0, #5]	@ zero_extendqisi2
 199 0014 64F38203 		bfi	r3, r4, #2, #1
 200 0018 4371     		strb	r3, [r0, #5]
 201              	.L58:
 202 001a FFF7FEFF 		bl	lv_indev_get_next
 203 001e 0028     		cmp	r0, #0
 204 0020 F7D1     		bne	.L52
 205 0022 10BD     		pop	{r4, pc}
 207              		.section	.text.lv_indev_get_act,"ax",%progbits
 208              		.align	1
 209              		.p2align 2,,3
 210              		.global	lv_indev_get_act
 211              		.syntax unified
 212              		.thumb
 213              		.thumb_func
 215              	lv_indev_get_act:
 216              		@ args = 0, pretend = 0, frame = 0
 217              		@ frame_needed = 0, uses_anonymous_args = 0
 218              		@ link register save eliminated.
 219 0000 014B     		ldr	r3, .L60
 220 0002 1868     		ldr	r0, [r3]
 221 0004 7047     		bx	lr
 222              	.L61:
 223 0006 00BF     		.align	2
 224              	.L60:
 225 0008 00000000 		.word	indev_act
 227              		.section	.text.lv_indev_get_type,"ax",%progbits
 228              		.align	1
 229              		.p2align 2,,3
 230              		.global	lv_indev_get_type
 231              		.syntax unified
 232              		.thumb
 233              		.thumb_func
 235              	lv_indev_get_type:
ARM GAS  /var/folders/lp/x54gwt890xv47sdkqj1k04q40000gn/T//cc9QG5rv.s 			page 5


 236              		@ args = 0, pretend = 0, frame = 0
 237              		@ frame_needed = 0, uses_anonymous_args = 0
 238              		@ link register save eliminated.
 239 0000 08B1     		cbz	r0, .L63
 240 0002 0368     		ldr	r3, [r0]
 241 0004 1878     		ldrb	r0, [r3]	@ zero_extendqisi2
 242              	.L63:
 243 0006 7047     		bx	lr
 245              		.section	.text.lv_indev_reset,"ax",%progbits
 246              		.align	1
 247              		.p2align 2,,3
 248              		.global	lv_indev_reset
 249              		.syntax unified
 250              		.thumb
 251              		.thumb_func
 253              	lv_indev_reset:
 254              		@ args = 0, pretend = 0, frame = 0
 255              		@ frame_needed = 0, uses_anonymous_args = 0
 256 0000 38B5     		push	{r3, r4, r5, lr}
 257 0002 0D46     		mov	r5, r1
 258 0004 0446     		mov	r4, r0
 259 0006 88B1     		cbz	r0, .L66
 260 0008 274A     		ldr	r2, .L96
 261 000a 4379     		ldrb	r3, [r0, #5]	@ zero_extendqisi2
 262 000c 1268     		ldr	r2, [r2]
 263 000e 43F00203 		orr	r3, r3, #2
 264 0012 8242     		cmp	r2, r0
 265 0014 4371     		strb	r3, [r0, #5]
 266 0016 3DD0     		beq	.L90
 267              	.L67:
 268 0018 2368     		ldr	r3, [r4]
 269 001a 1B78     		ldrb	r3, [r3]	@ zero_extendqisi2
 270 001c 013B     		subs	r3, r3, #1
 271 001e 012B     		cmp	r3, #1
 272 0020 27D9     		bls	.L91
 273              	.L65:
 274 0022 38BD     		pop	{r3, r4, r5, pc}
 275              	.L92:
 276 0024 B5B9     		cbnz	r5, .L78
 277 0026 4563     		str	r5, [r0, #52]
 278 0028 8562     		str	r5, [r0, #40]
 279 002a C462     		str	r4, [r0, #44]
 280              	.L66:
 281 002c FFF7FEFF 		bl	lv_indev_get_next
 282 0030 60B1     		cbz	r0, .L75
 283              	.L93:
 284 0032 4379     		ldrb	r3, [r0, #5]	@ zero_extendqisi2
 285 0034 0268     		ldr	r2, [r0]
 286 0036 43F00203 		orr	r3, r3, #2
 287 003a 4371     		strb	r3, [r0, #5]
 288 003c 1378     		ldrb	r3, [r2]	@ zero_extendqisi2
 289 003e 013B     		subs	r3, r3, #1
 290 0040 012B     		cmp	r3, #1
 291 0042 EFD9     		bls	.L92
 292 0044 FFF7FEFF 		bl	lv_indev_get_next
 293 0048 0028     		cmp	r0, #0
 294 004a F2D1     		bne	.L93
ARM GAS  /var/folders/lp/x54gwt890xv47sdkqj1k04q40000gn/T//cc9QG5rv.s 			page 6


 295              	.L75:
 296 004c 174B     		ldr	r3, .L96+4
 297 004e 0022     		movs	r2, #0
 298 0050 1A60     		str	r2, [r3]
 299 0052 38BD     		pop	{r3, r4, r5, pc}
 300              	.L78:
 301 0054 436B     		ldr	r3, [r0, #52]
 302 0056 AB42     		cmp	r3, r5
 303 0058 04BF     		itt	eq
 304 005a 0023     		moveq	r3, #0
 305 005c 4363     		streq	r3, [r0, #52]
 306 005e 836A     		ldr	r3, [r0, #40]
 307 0060 AB42     		cmp	r3, r5
 308 0062 04BF     		itt	eq
 309 0064 0023     		moveq	r3, #0
 310 0066 8362     		streq	r3, [r0, #40]
 311 0068 C36A     		ldr	r3, [r0, #44]
 312 006a AB42     		cmp	r3, r5
 313 006c DED1     		bne	.L66
 314 006e C462     		str	r4, [r0, #44]
 315 0070 DCE7     		b	.L66
 316              	.L91:
 317 0072 9DB1     		cbz	r5, .L94
 318 0074 636B     		ldr	r3, [r4, #52]
 319 0076 AB42     		cmp	r3, r5
 320 0078 04BF     		itt	eq
 321 007a 0023     		moveq	r3, #0
 322 007c 6363     		streq	r3, [r4, #52]
 323 007e A36A     		ldr	r3, [r4, #40]
 324 0080 AB42     		cmp	r3, r5
 325 0082 04BF     		itt	eq
 326 0084 0023     		moveq	r3, #0
 327 0086 A362     		streq	r3, [r4, #40]
 328 0088 E36A     		ldr	r3, [r4, #44]
 329 008a AB42     		cmp	r3, r5
 330 008c C9D1     		bne	.L65
 331 008e 0023     		movs	r3, #0
 332 0090 E362     		str	r3, [r4, #44]
 333              	.L95:
 334 0092 38BD     		pop	{r3, r4, r5, pc}
 335              	.L90:
 336 0094 054B     		ldr	r3, .L96+4
 337 0096 0022     		movs	r2, #0
 338 0098 1A60     		str	r2, [r3]
 339 009a BDE7     		b	.L67
 340              	.L94:
 341 009c 0023     		movs	r3, #0
 342 009e 6563     		str	r5, [r4, #52]
 343 00a0 A562     		str	r5, [r4, #40]
 344 00a2 E362     		str	r3, [r4, #44]
 345 00a4 F5E7     		b	.L95
 346              	.L97:
 347 00a6 00BF     		.align	2
 348              	.L96:
 349 00a8 00000000 		.word	indev_act
 350 00ac 00000000 		.word	indev_obj_act
 352              		.section	.text.lv_indev_reset_long_press,"ax",%progbits
ARM GAS  /var/folders/lp/x54gwt890xv47sdkqj1k04q40000gn/T//cc9QG5rv.s 			page 7


 353              		.align	1
 354              		.p2align 2,,3
 355              		.global	lv_indev_reset_long_press
 356              		.syntax unified
 357              		.thumb
 358              		.thumb_func
 360              	lv_indev_reset_long_press:
 361              		@ args = 0, pretend = 0, frame = 0
 362              		@ frame_needed = 0, uses_anonymous_args = 0
 363 0000 4379     		ldrb	r3, [r0, #5]	@ zero_extendqisi2
 364 0002 23F00103 		bic	r3, r3, #1
 365 0006 10B5     		push	{r4, lr}
 366 0008 4371     		strb	r3, [r0, #5]
 367 000a 0446     		mov	r4, r0
 368 000c FFF7FEFF 		bl	lv_tick_get
 369 0010 E064     		str	r0, [r4, #76]
 370 0012 FFF7FEFF 		bl	lv_tick_get
 371 0016 A064     		str	r0, [r4, #72]
 372 0018 10BD     		pop	{r4, pc}
 374 001a 00BF     		.section	.text.lv_indev_set_cursor,"ax",%progbits
 375              		.align	1
 376              		.p2align 2,,3
 377              		.global	lv_indev_set_cursor
 378              		.syntax unified
 379              		.thumb
 380              		.thumb_func
 382              	lv_indev_set_cursor:
 383              		@ args = 0, pretend = 0, frame = 0
 384              		@ frame_needed = 0, uses_anonymous_args = 0
 385 0000 38B5     		push	{r3, r4, r5, lr}
 386 0002 0368     		ldr	r3, [r0]
 387 0004 1A78     		ldrb	r2, [r3]	@ zero_extendqisi2
 388 0006 012A     		cmp	r2, #1
 389 0008 00D0     		beq	.L103
 390 000a 38BD     		pop	{r3, r4, r5, pc}
 391              	.L103:
 392 000c 0446     		mov	r4, r0
 393 000e 1869     		ldr	r0, [r3, #16]
 394 0010 2165     		str	r1, [r4, #80]
 395 0012 0D46     		mov	r5, r1
 396 0014 FFF7FEFF 		bl	lv_disp_get_layer_sys
 397 0018 0146     		mov	r1, r0
 398 001a 2846     		mov	r0, r5
 399 001c FFF7FEFF 		bl	lv_obj_set_parent
 400 0020 B4F90A20 		ldrsh	r2, [r4, #10]
 401 0024 B4F90810 		ldrsh	r1, [r4, #8]
 402 0028 206D     		ldr	r0, [r4, #80]
 403 002a FFF7FEFF 		bl	lv_obj_set_pos
 404 002e 206D     		ldr	r0, [r4, #80]
 405 0030 0221     		movs	r1, #2
 406 0032 FFF7FEFF 		bl	lv_obj_clear_flag
 407 0036 206D     		ldr	r0, [r4, #80]
 408 0038 4FF4C021 		mov	r1, #393216
 409 003c BDE83840 		pop	{r3, r4, r5, lr}
 410 0040 FFF7FEBF 		b	lv_obj_add_flag
 412              		.section	.text.lv_indev_set_group,"ax",%progbits
 413              		.align	1
ARM GAS  /var/folders/lp/x54gwt890xv47sdkqj1k04q40000gn/T//cc9QG5rv.s 			page 8


 414              		.p2align 2,,3
 415              		.global	lv_indev_set_group
 416              		.syntax unified
 417              		.thumb
 418              		.thumb_func
 420              	lv_indev_set_group:
 421              		@ args = 0, pretend = 0, frame = 0
 422              		@ frame_needed = 0, uses_anonymous_args = 0
 423              		@ link register save eliminated.
 424 0000 0368     		ldr	r3, [r0]
 425 0002 1B78     		ldrb	r3, [r3]	@ zero_extendqisi2
 426 0004 022B     		cmp	r3, #2
 427 0006 02D0     		beq	.L105
 428 0008 042B     		cmp	r3, #4
 429 000a 00D0     		beq	.L105
 430 000c 7047     		bx	lr
 431              	.L105:
 432 000e 4165     		str	r1, [r0, #84]
 433 0010 7047     		bx	lr
 435 0012 00BF     		.section	.text.lv_indev_set_button_points,"ax",%progbits
 436              		.align	1
 437              		.p2align 2,,3
 438              		.global	lv_indev_set_button_points
 439              		.syntax unified
 440              		.thumb
 441              		.thumb_func
 443              	lv_indev_set_button_points:
 444              		@ args = 0, pretend = 0, frame = 0
 445              		@ frame_needed = 0, uses_anonymous_args = 0
 446              		@ link register save eliminated.
 447 0000 0368     		ldr	r3, [r0]
 448 0002 1B78     		ldrb	r3, [r3]	@ zero_extendqisi2
 449 0004 032B     		cmp	r3, #3
 450 0006 08BF     		it	eq
 451 0008 8165     		streq	r1, [r0, #88]
 452 000a 7047     		bx	lr
 454              		.section	.text.lv_indev_get_point,"ax",%progbits
 455              		.align	1
 456              		.p2align 2,,3
 457              		.global	lv_indev_get_point
 458              		.syntax unified
 459              		.thumb
 460              		.thumb_func
 462              	lv_indev_get_point:
 463              		@ args = 0, pretend = 0, frame = 0
 464              		@ frame_needed = 0, uses_anonymous_args = 0
 465              		@ link register save eliminated.
 466 0000 98B1     		cbz	r0, .L116
 467 0002 0368     		ldr	r3, [r0]
 468 0004 1B78     		ldrb	r3, [r3]	@ zero_extendqisi2
 469 0006 03F0FD03 		and	r3, r3, #253
 470 000a 012B     		cmp	r3, #1
 471 000c 06D0     		beq	.L115
 472 000e 4FF6FF73 		movw	r3, #65535
 473 0012 4FF0FF30 		mov	r0, #-1
 474 0016 0B80     		strh	r3, [r1]	@ movhi
 475 0018 4880     		strh	r0, [r1, #2]	@ movhi
ARM GAS  /var/folders/lp/x54gwt890xv47sdkqj1k04q40000gn/T//cc9QG5rv.s 			page 9


 476 001a 7047     		bx	lr
 477              	.L115:
 478 001c B0F90830 		ldrsh	r3, [r0, #8]
 479 0020 0B80     		strh	r3, [r1]	@ movhi
 480 0022 B0F90A00 		ldrsh	r0, [r0, #10]
 481 0026 4880     		strh	r0, [r1, #2]	@ movhi
 482 0028 7047     		bx	lr
 483              	.L116:
 484 002a 0880     		strh	r0, [r1]	@ movhi
 485 002c 4880     		strh	r0, [r1, #2]	@ movhi
 486 002e 7047     		bx	lr
 488              		.section	.text.lv_indev_get_gesture_dir,"ax",%progbits
 489              		.align	1
 490              		.p2align 2,,3
 491              		.global	lv_indev_get_gesture_dir
 492              		.syntax unified
 493              		.thumb
 494              		.thumb_func
 496              	lv_indev_get_gesture_dir:
 497              		@ args = 0, pretend = 0, frame = 0
 498              		@ frame_needed = 0, uses_anonymous_args = 0
 499              		@ link register save eliminated.
 500 0000 90F84400 		ldrb	r0, [r0, #68]	@ zero_extendqisi2
 501 0004 0009     		lsrs	r0, r0, #4
 502 0006 7047     		bx	lr
 504              		.section	.text.lv_indev_get_key,"ax",%progbits
 505              		.align	1
 506              		.p2align 2,,3
 507              		.global	lv_indev_get_key
 508              		.syntax unified
 509              		.thumb
 510              		.thumb_func
 512              	lv_indev_get_key:
 513              		@ args = 0, pretend = 0, frame = 0
 514              		@ frame_needed = 0, uses_anonymous_args = 0
 515              		@ link register save eliminated.
 516 0000 0368     		ldr	r3, [r0]
 517 0002 1B78     		ldrb	r3, [r3]	@ zero_extendqisi2
 518 0004 022B     		cmp	r3, #2
 519 0006 0CBF     		ite	eq
 520 0008 C068     		ldreq	r0, [r0, #12]
 521 000a 0020     		movne	r0, #0
 522 000c 7047     		bx	lr
 524 000e 00BF     		.section	.text.lv_indev_get_scroll_dir,"ax",%progbits
 525              		.align	1
 526              		.p2align 2,,3
 527              		.global	lv_indev_get_scroll_dir
 528              		.syntax unified
 529              		.thumb
 530              		.thumb_func
 532              	lv_indev_get_scroll_dir:
 533              		@ args = 0, pretend = 0, frame = 0
 534              		@ frame_needed = 0, uses_anonymous_args = 0
 535              		@ link register save eliminated.
 536 0000 30B1     		cbz	r0, .L122
 537 0002 0368     		ldr	r3, [r0]
 538 0004 1B78     		ldrb	r3, [r3]	@ zero_extendqisi2
ARM GAS  /var/folders/lp/x54gwt890xv47sdkqj1k04q40000gn/T//cc9QG5rv.s 			page 10


 539 0006 03F0FD03 		and	r3, r3, #253
 540 000a 012B     		cmp	r3, #1
 541 000c 01D0     		beq	.L125
 542 000e 0020     		movs	r0, #0
 543              	.L122:
 544 0010 7047     		bx	lr
 545              	.L125:
 546 0012 90F84400 		ldrb	r0, [r0, #68]	@ zero_extendqisi2
 547 0016 00F00F00 		and	r0, r0, #15
 548 001a 7047     		bx	lr
 550              		.section	.text.lv_indev_get_scroll_obj,"ax",%progbits
 551              		.align	1
 552              		.p2align 2,,3
 553              		.global	lv_indev_get_scroll_obj
 554              		.syntax unified
 555              		.thumb
 556              		.thumb_func
 558              	lv_indev_get_scroll_obj:
 559              		@ args = 0, pretend = 0, frame = 0
 560              		@ frame_needed = 0, uses_anonymous_args = 0
 561              		@ link register save eliminated.
 562 0000 30B1     		cbz	r0, .L126
 563 0002 0368     		ldr	r3, [r0]
 564 0004 1B78     		ldrb	r3, [r3]	@ zero_extendqisi2
 565 0006 03F0FD03 		and	r3, r3, #253
 566 000a 012B     		cmp	r3, #1
 567 000c 01D0     		beq	.L130
 568 000e 0020     		movs	r0, #0
 569              	.L126:
 570 0010 7047     		bx	lr
 571              	.L130:
 572 0012 006B     		ldr	r0, [r0, #48]
 573 0014 7047     		bx	lr
 575 0016 00BF     		.section	.text.lv_indev_get_vect,"ax",%progbits
 576              		.align	1
 577              		.p2align 2,,3
 578              		.global	lv_indev_get_vect
 579              		.syntax unified
 580              		.thumb
 581              		.thumb_func
 583              	lv_indev_get_vect:
 584              		@ args = 0, pretend = 0, frame = 0
 585              		@ frame_needed = 0, uses_anonymous_args = 0
 586              		@ link register save eliminated.
 587 0000 0023     		movs	r3, #0
 588 0002 0B60     		str	r3, [r1]	@ unaligned
 589 0004 58B1     		cbz	r0, .L131
 590 0006 0368     		ldr	r3, [r0]
 591 0008 1B78     		ldrb	r3, [r3]	@ zero_extendqisi2
 592 000a 03F0FD03 		and	r3, r3, #253
 593 000e 012B     		cmp	r3, #1
 594 0010 05D1     		bne	.L131
 595 0012 B0F91830 		ldrsh	r3, [r0, #24]
 596 0016 0B80     		strh	r3, [r1]	@ movhi
 597 0018 B0F91A30 		ldrsh	r3, [r0, #26]
 598 001c 4B80     		strh	r3, [r1, #2]	@ movhi
 599              	.L131:
ARM GAS  /var/folders/lp/x54gwt890xv47sdkqj1k04q40000gn/T//cc9QG5rv.s 			page 11


 600 001e 7047     		bx	lr
 602              		.section	.text.lv_indev_wait_release,"ax",%progbits
 603              		.align	1
 604              		.p2align 2,,3
 605              		.global	lv_indev_wait_release
 606              		.syntax unified
 607              		.thumb
 608              		.thumb_func
 610              	lv_indev_wait_release:
 611              		@ args = 0, pretend = 0, frame = 0
 612              		@ frame_needed = 0, uses_anonymous_args = 0
 613              		@ link register save eliminated.
 614 0000 18B1     		cbz	r0, .L136
 615 0002 4379     		ldrb	r3, [r0, #5]	@ zero_extendqisi2
 616 0004 43F00803 		orr	r3, r3, #8
 617 0008 4371     		strb	r3, [r0, #5]
 618              	.L136:
 619 000a 7047     		bx	lr
 621              		.section	.text.lv_indev_get_obj_act,"ax",%progbits
 622              		.align	1
 623              		.p2align 2,,3
 624              		.global	lv_indev_get_obj_act
 625              		.syntax unified
 626              		.thumb
 627              		.thumb_func
 629              	lv_indev_get_obj_act:
 630              		@ args = 0, pretend = 0, frame = 0
 631              		@ frame_needed = 0, uses_anonymous_args = 0
 632              		@ link register save eliminated.
 633 0000 014B     		ldr	r3, .L142
 634 0002 1868     		ldr	r0, [r3]
 635 0004 7047     		bx	lr
 636              	.L143:
 637 0006 00BF     		.align	2
 638              	.L142:
 639 0008 00000000 		.word	indev_obj_act
 641              		.section	.text.lv_indev_get_read_timer,"ax",%progbits
 642              		.align	1
 643              		.p2align 2,,3
 644              		.global	lv_indev_get_read_timer
 645              		.syntax unified
 646              		.thumb
 647              		.thumb_func
 649              	lv_indev_get_read_timer:
 650              		@ args = 0, pretend = 0, frame = 0
 651              		@ frame_needed = 0, uses_anonymous_args = 0
 652              		@ link register save eliminated.
 653 0000 00B1     		cbz	r0, .L144
 654 0002 4068     		ldr	r0, [r0, #4]
 655              	.L144:
 656 0004 7047     		bx	lr
 658 0006 00BF     		.section	.text.lv_indev_search_obj,"ax",%progbits
 659              		.align	1
 660              		.p2align 2,,3
 661              		.global	lv_indev_search_obj
 662              		.syntax unified
 663              		.thumb
ARM GAS  /var/folders/lp/x54gwt890xv47sdkqj1k04q40000gn/T//cc9QG5rv.s 			page 12


 664              		.thumb_func
 666              	lv_indev_search_obj:
 667              		@ args = 0, pretend = 0, frame = 8
 668              		@ frame_needed = 0, uses_anonymous_args = 0
 669 0000 70B5     		push	{r4, r5, r6, lr}
 670 0002 0E46     		mov	r6, r1
 671 0004 82B0     		sub	sp, sp, #8
 672 0006 0121     		movs	r1, #1
 673 0008 0446     		mov	r4, r0
 674 000a FFF7FEFF 		bl	lv_obj_has_flag
 675 000e 0028     		cmp	r0, #0
 676 0010 35D1     		bne	.L154
 677 0012 0546     		mov	r5, r0
 678 0014 3068     		ldr	r0, [r6]	@ unaligned
 679 0016 0190     		str	r0, [sp, #4]
 680 0018 2A46     		mov	r2, r5
 681 001a 0123     		movs	r3, #1
 682 001c 01A9     		add	r1, sp, #4
 683 001e 2046     		mov	r0, r4
 684 0020 FFF7FEFF 		bl	lv_obj_transform_point
 685 0024 01A9     		add	r1, sp, #4
 686 0026 2046     		mov	r0, r4
 687 0028 FFF7FEFF 		bl	lv_obj_hit_test
 688 002c 2A46     		mov	r2, r5
 689 002e 0646     		mov	r6, r0
 690 0030 01A9     		add	r1, sp, #4
 691 0032 04F11400 		add	r0, r4, #20
 692 0036 FFF7FEFF 		bl	_lv_area_is_point_on
 693 003a 98B1     		cbz	r0, .L150
 694 003c 2046     		mov	r0, r4
 695 003e FFF7FEFF 		bl	lv_obj_get_child_cnt
 696 0042 451E     		subs	r5, r0, #1
 697 0044 0AD4     		bmi	.L152
 698              	.L151:
 699 0046 A368     		ldr	r3, [r4, #8]
 700 0048 1B68     		ldr	r3, [r3]
 701 004a 01A9     		add	r1, sp, #4
 702 004c 53F82500 		ldr	r0, [r3, r5, lsl #2]
 703 0050 FFF7FEFF 		bl	lv_indev_search_obj
 704 0054 013D     		subs	r5, r5, #1
 705 0056 18B9     		cbnz	r0, .L147
 706 0058 6B1C     		adds	r3, r5, #1
 707 005a F4D1     		bne	.L151
 708              	.L152:
 709 005c 7EB1     		cbz	r6, .L154
 710 005e 2046     		mov	r0, r4
 711              	.L147:
 712 0060 02B0     		add	sp, sp, #8
 713              		@ sp needed
 714 0062 70BD     		pop	{r4, r5, r6, pc}
 715              	.L150:
 716 0064 4FF40021 		mov	r1, #524288
 717 0068 2046     		mov	r0, r4
 718 006a FFF7FEFF 		bl	lv_obj_has_flag
 719 006e 0028     		cmp	r0, #0
 720 0070 F4D0     		beq	.L152
 721 0072 2046     		mov	r0, r4
ARM GAS  /var/folders/lp/x54gwt890xv47sdkqj1k04q40000gn/T//cc9QG5rv.s 			page 13


 722 0074 FFF7FEFF 		bl	lv_obj_get_child_cnt
 723 0078 451E     		subs	r5, r0, #1
 724 007a E4D5     		bpl	.L151
 725 007c EEE7     		b	.L152
 726              	.L154:
 727 007e 0020     		movs	r0, #0
 728 0080 02B0     		add	sp, sp, #8
 729              		@ sp needed
 730 0082 70BD     		pop	{r4, r5, r6, pc}
 732              		.section	.text.indev_proc_press,"ax",%progbits
 733              		.align	1
 734              		.p2align 2,,3
 735              		.syntax unified
 736              		.thumb
 737              		.thumb_func
 739              	indev_proc_press:
 740              		@ args = 0, pretend = 0, frame = 0
 741              		@ frame_needed = 0, uses_anonymous_args = 0
 742 0000 4378     		ldrb	r3, [r0, #1]	@ zero_extendqisi2
 743 0002 2DE9F047 		push	{r4, r5, r6, r7, r8, r9, r10, lr}
 744 0006 734D     		ldr	r5, .L324
 745 0008 0446     		mov	r4, r0
 746 000a 1E07     		lsls	r6, r3, #28
 747 000c 406A     		ldr	r0, [r0, #36]
 748 000e 2860     		str	r0, [r5]
 749 0010 3BD4     		bmi	.L162
 750 0012 714E     		ldr	r6, .L324+4
 751 0014 3368     		ldr	r3, [r6]
 752 0016 1B68     		ldr	r3, [r3]
 753 0018 1F69     		ldr	r7, [r3, #16]
 754 001a 0028     		cmp	r0, #0
 755 001c 00F05181 		beq	.L170
 756 0020 E36A     		ldr	r3, [r4, #44]
 757 0022 002B     		cmp	r3, #0
 758 0024 38D0     		beq	.L316
 759              	.L169:
 760 0026 A389     		ldrh	r3, [r4, #12]
 761 0028 A188     		ldrh	r1, [r4, #4]
 762 002a E288     		ldrh	r2, [r4, #6]
 763 002c C91A     		subs	r1, r1, r3
 764 002e E389     		ldrh	r3, [r4, #14]
 765 0030 D21A     		subs	r2, r2, r3
 766 0032 B4F91C30 		ldrsh	r3, [r4, #28]
 767 0036 09B2     		sxth	r1, r1
 768 0038 0B44     		add	r3, r3, r1
 769 003a 03EBD373 		add	r3, r3, r3, lsr #31
 770 003e 5B10     		asrs	r3, r3, #1
 771 0040 A383     		strh	r3, [r4, #28]	@ movhi
 772 0042 B4F91E30 		ldrsh	r3, [r4, #30]
 773 0046 A182     		strh	r1, [r4, #20]	@ movhi
 774 0048 12B2     		sxth	r2, r2
 775 004a 1344     		add	r3, r3, r2
 776 004c 03EBD373 		add	r3, r3, r3, lsr #31
 777 0050 5B10     		asrs	r3, r3, #1
 778 0052 E383     		strh	r3, [r4, #30]	@ movhi
 779 0054 E369     		ldr	r3, [r4, #28]
 780 0056 E282     		strh	r2, [r4, #22]	@ movhi
ARM GAS  /var/folders/lp/x54gwt890xv47sdkqj1k04q40000gn/T//cc9QG5rv.s 			page 14


 781 0058 2362     		str	r3, [r4, #32]
 782 005a B0B1     		cbz	r0, .L162
 783 005c 3268     		ldr	r2, [r6]
 784 005e 0221     		movs	r1, #2
 785 0060 FFF7FEFF 		bl	lv_event_send
 786 0064 6378     		ldrb	r3, [r4, #1]	@ zero_extendqisi2
 787 0066 13F0020F 		tst	r3, #2
 788 006a 10D1     		bne	.L317
 789              	.L300:
 790 006c 3368     		ldr	r3, [r6]
 791 006e 5B79     		ldrb	r3, [r3, #5]	@ zero_extendqisi2
 792 0070 13F00807 		ands	r7, r3, #8
 793 0074 09D1     		bne	.L162
 794 0076 2046     		mov	r0, r4
 795 0078 FFF7FEFF 		bl	_lv_indev_scroll_handler
 796 007c 6278     		ldrb	r2, [r4, #1]	@ zero_extendqisi2
 797 007e 12F00201 		ands	r1, r2, #2
 798 0082 2DD0     		beq	.L311
 799 0084 9307     		lsls	r3, r2, #30
 800 0086 2F60     		str	r7, [r5]
 801 0088 2AD5     		bpl	.L311
 802              	.L162:
 803 008a BDE8F087 		pop	{r4, r5, r6, r7, r8, r9, r10, pc}
 804              	.L317:
 805 008e 4FF00002 		mov	r2, #0
 806 0092 2A60     		str	r2, [r5]
 807 0094 F9D1     		bne	.L162
 808 0096 E9E7     		b	.L300
 809              	.L316:
 810 0098 4FF40051 		mov	r1, #8192
 811 009c FFF7FEFF 		bl	lv_obj_has_flag
 812 00a0 0028     		cmp	r0, #0
 813 00a2 00F00E81 		beq	.L170
 814              	.L172:
 815 00a6 636A     		ldr	r3, [r4, #36]
 816 00a8 2868     		ldr	r0, [r5]
 817 00aa 6268     		ldr	r2, [r4, #4]
 818 00ac 8342     		cmp	r3, r0
 819 00ae BAD0     		beq	.L169
 820 00b0 E260     		str	r2, [r4, #12]
 821 00b2 002B     		cmp	r3, #0
 822 00b4 00F09380 		beq	.L175
 823 00b8 1846     		mov	r0, r3
 824 00ba 3268     		ldr	r2, [r6]
 825 00bc 0321     		movs	r1, #3
 826 00be FFF7FEFF 		bl	lv_event_send
 827 00c2 6378     		ldrb	r3, [r4, #1]	@ zero_extendqisi2
 828 00c4 13F0020F 		tst	r3, #2
 829 00c8 00F08880 		beq	.L176
 830 00cc 4FF00002 		mov	r2, #0
 831 00d0 2A60     		str	r2, [r5]
 832 00d2 C3F34002 		ubfx	r2, r3, #1, #1
 833 00d6 D8D1     		bne	.L162
 834 00d8 C4E90922 		strd	r2, r2, [r4, #36]
 835              	.L227:
 836 00dc 0020     		movs	r0, #0
 837 00de A2E7     		b	.L169
ARM GAS  /var/folders/lp/x54gwt890xv47sdkqj1k04q40000gn/T//cc9QG5rv.s 			page 15


 838              	.L311:
 839 00e0 E36A     		ldr	r3, [r4, #44]
 840 00e2 002B     		cmp	r3, #0
 841 00e4 D1D1     		bne	.L162
 842 00e6 94F84130 		ldrb	r3, [r4, #65]	@ zero_extendqisi2
 843 00ea DF07     		lsls	r7, r3, #31
 844 00ec 00F14181 		bmi	.L207
 845 00f0 676A     		ldr	r7, [r4, #36]
 846 00f2 2FB9     		cbnz	r7, .L208
 847 00f4 3DE1     		b	.L207
 848              	.L210:
 849 00f6 FFF7FEFF 		bl	lv_obj_get_parent
 850 00fa 0746     		mov	r7, r0
 851 00fc 0028     		cmp	r0, #0
 852 00fe 3AD0     		beq	.L209
 853              	.L208:
 854 0100 4FF40041 		mov	r1, #32768
 855 0104 3846     		mov	r0, r7
 856 0106 FFF7FEFF 		bl	lv_obj_has_flag
 857 010a 0346     		mov	r3, r0
 858 010c 3846     		mov	r0, r7
 859 010e 002B     		cmp	r3, #0
 860 0110 F1D1     		bne	.L210
 861 0112 3268     		ldr	r2, [r6]
 862 0114 B4F914C0 		ldrsh	ip, [r4, #20]
 863 0118 1068     		ldr	r0, [r2]
 864 011a B4F916E0 		ldrsh	lr, [r4, #22]
 865 011e 90F81A80 		ldrb	r8, [r0, #26]	@ zero_extendqisi2
 866 0122 8CEAEC71 		eor	r1, ip, ip, asr #31
 867 0126 A1EBEC71 		sub	r1, r1, ip, asr #31
 868 012a 89B2     		uxth	r1, r1
 869 012c 4145     		cmp	r1, r8
 870 012e 80F01D81 		bcs	.L213
 871 0132 8EEAEE71 		eor	r1, lr, lr, asr #31
 872 0136 A1EBEE71 		sub	r1, r1, lr, asr #31
 873 013a 89B2     		uxth	r1, r1
 874 013c 8845     		cmp	r8, r1
 875 013e 40F21581 		bls	.L213
 876 0142 1946     		mov	r1, r3
 877              	.L212:
 878 0144 6144     		add	r1, r1, ip
 879 0146 7344     		add	r3, r3, lr
 880 0148 09B2     		sxth	r1, r1
 881 014a 1BB2     		sxth	r3, r3
 882 014c A187     		strh	r1, [r4, #60]	@ movhi
 883 014e E387     		strh	r3, [r4, #62]	@ movhi
 884 0150 90F81BE0 		ldrb	lr, [r0, #27]	@ zero_extendqisi2
 885 0154 81EAE170 		eor	r0, r1, r1, asr #31
 886 0158 A0EBE170 		sub	r0, r0, r1, asr #31
 887 015c 80B2     		uxth	r0, r0
 888 015e 83EAE37C 		eor	ip, r3, r3, asr #31
 889 0162 ACEBE37C 		sub	ip, ip, r3, asr #31
 890 0166 7045     		cmp	r0, lr
 891 0168 1FFA8CFC 		uxth	ip, ip
 892 016c 00F2E380 		bhi	.L214
 893 0170 E645     		cmp	lr, ip
 894 0172 C0F0E080 		bcc	.L214
ARM GAS  /var/folders/lp/x54gwt890xv47sdkqj1k04q40000gn/T//cc9QG5rv.s 			page 16


 895              	.L209:
 896 0176 6278     		ldrb	r2, [r4, #1]	@ zero_extendqisi2
 897 0178 9107     		lsls	r1, r2, #30
 898 017a C2F34003 		ubfx	r3, r2, #1, #1
 899 017e 01D5     		bpl	.L217
 900              	.L218:
 901 0180 0021     		movs	r1, #0
 902 0182 2960     		str	r1, [r5]
 903              	.L217:
 904 0184 002B     		cmp	r3, #0
 905 0186 80D1     		bne	.L162
 906              	.L312:
 907 0188 E36A     		ldr	r3, [r4, #44]
 908 018a 002B     		cmp	r3, #0
 909 018c 7FF47DAF 		bne	.L162
 910              	.L225:
 911 0190 12F00107 		ands	r7, r2, #1
 912 0194 00F02781 		beq	.L219
 913              	.L223:
 914 0198 D307     		lsls	r3, r2, #31
 915 019a 7FF576AF 		bpl	.L162
 916 019e A06C     		ldr	r0, [r4, #72]
 917 01a0 FFF7FEFF 		bl	lv_tick_elaps
 918 01a4 3268     		ldr	r2, [r6]
 919 01a6 1368     		ldr	r3, [r2]
 920 01a8 DB8B     		ldrh	r3, [r3, #30]
 921 01aa 9842     		cmp	r0, r3
 922 01ac 7FF66DAF 		bls	.L162
 923 01b0 2868     		ldr	r0, [r5]
 924 01b2 0621     		movs	r1, #6
 925 01b4 FFF7FEFF 		bl	lv_event_send
 926 01b8 6378     		ldrb	r3, [r4, #1]	@ zero_extendqisi2
 927 01ba 13F0020F 		tst	r3, #2
 928 01be 04D0     		beq	.L302
 929 01c0 4FF00002 		mov	r2, #0
 930 01c4 2A60     		str	r2, [r5]
 931 01c6 7FF460AF 		bne	.L162
 932              	.L302:
 933 01ca FFF7FEFF 		bl	lv_tick_get
 934 01ce A064     		str	r0, [r4, #72]
 935 01d0 5BE7     		b	.L162
 936              	.L325:
 937 01d2 00BF     		.align	2
 938              	.L324:
 939 01d4 00000000 		.word	indev_obj_act
 940 01d8 00000000 		.word	indev_act
 941              	.L176:
 942 01dc 2868     		ldr	r0, [r5]
 943              	.L175:
 944 01de C4E90900 		strd	r0, r0, [r4, #36]
 945 01e2 0028     		cmp	r0, #0
 946 01e4 3FF47AAF 		beq	.L227
 947 01e8 FFF7FEFF 		bl	lv_tick_get
 948 01ec 6378     		ldrb	r3, [r4, #1]	@ zero_extendqisi2
 949 01ee 6064     		str	r0, [r4, #68]
 950 01f0 23F00103 		bic	r3, r3, #1
 951 01f4 6370     		strb	r3, [r4, #1]
ARM GAS  /var/folders/lp/x54gwt890xv47sdkqj1k04q40000gn/T//cc9QG5rv.s 			page 17


 952 01f6 B4F84030 		ldrh	r3, [r4, #64]
 953 01fa 3268     		ldr	r2, [r6]
 954 01fc 2868     		ldr	r0, [r5]
 955 01fe 0027     		movs	r7, #0
 956 0200 6FF30803 		bfc	r3, #0, #9
 957 0204 A4F84030 		strh	r3, [r4, #64]	@ movhi
 958 0208 A761     		str	r7, [r4, #24]
 959 020a E763     		str	r7, [r4, #60]
 960 020c 6761     		str	r7, [r4, #20]
 961 020e 0121     		movs	r1, #1
 962 0210 FFF7FEFF 		bl	lv_event_send
 963 0214 6378     		ldrb	r3, [r4, #1]	@ zero_extendqisi2
 964 0216 13F0020F 		tst	r3, #2
 965 021a 02D0     		beq	.L298
 966 021c 2F60     		str	r7, [r5]
 967 021e 7FF434AF 		bne	.L162
 968              	.L298:
 969 0222 D6F80080 		ldr	r8, [r6]
 970 0226 98F80530 		ldrb	r3, [r8, #5]	@ zero_extendqisi2
 971 022a 13F00807 		ands	r7, r3, #8
 972 022e 7FF42CAF 		bne	.L162
 973 0232 2868     		ldr	r0, [r5]
 974 0234 0421     		movs	r1, #4
 975 0236 FFF7FEFF 		bl	lv_obj_has_flag
 976 023a 0028     		cmp	r0, #0
 977 023c 36D0     		beq	.L181
 978 023e 2868     		ldr	r0, [r5]
 979 0240 D8F83430 		ldr	r3, [r8, #52]
 980 0244 8342     		cmp	r3, r0
 981 0246 31D0     		beq	.L181
 982 0248 FFF7FEFF 		bl	lv_obj_get_group
 983 024c 8246     		mov	r10, r0
 984 024e D8F83400 		ldr	r0, [r8, #52]
 985 0252 0028     		cmp	r0, #0
 986 0254 62D0     		beq	.L318
 987 0256 FFF7FEFF 		bl	lv_obj_get_group
 988 025a 8245     		cmp	r10, r0
 989 025c 8146     		mov	r9, r0
 990 025e 00F08E80 		beq	.L319
 991 0262 D8F83400 		ldr	r0, [r8, #52]
 992 0266 B9F1000F 		cmp	r9, #0
 993 026a 00F0DD80 		beq	.L320
 994 026e 50B1     		cbz	r0, .L199
 995 0270 3268     		ldr	r2, [r6]
 996 0272 1021     		movs	r1, #16
 997 0274 FFF7FEFF 		bl	lv_event_send
 998 0278 98F80530 		ldrb	r3, [r8, #5]	@ zero_extendqisi2
 999 027c 13F0020F 		tst	r3, #2
 1000 0280 01D0     		beq	.L199
 1001 0282 2F60     		str	r7, [r5]
 1002 0284 12D1     		bne	.L181
 1003              	.L199:
 1004 0286 2868     		ldr	r0, [r5]
 1005 0288 BAF1000F 		cmp	r10, #0
 1006 028c 00F08580 		beq	.L321
 1007              	.L196:
 1008 0290 2868     		ldr	r0, [r5]
ARM GAS  /var/folders/lp/x54gwt890xv47sdkqj1k04q40000gn/T//cc9QG5rv.s 			page 18


 1009 0292 FFF7FEFF 		bl	lv_group_focus_obj
 1010 0296 98F80530 		ldrb	r3, [r8, #5]	@ zero_extendqisi2
 1011 029a 9807     		lsls	r0, r3, #30
 1012 029c 03D5     		bpl	.L193
 1013              	.L185:
 1014 029e 0022     		movs	r2, #0
 1015 02a0 2A60     		str	r2, [r5]
 1016 02a2 9A07     		lsls	r2, r3, #30
 1017 02a4 02D4     		bmi	.L181
 1018              	.L193:
 1019 02a6 2B68     		ldr	r3, [r5]
 1020 02a8 C8F83430 		str	r3, [r8, #52]
 1021              	.L181:
 1022 02ac 6378     		ldrb	r3, [r4, #1]	@ zero_extendqisi2
 1023 02ae 13F0020F 		tst	r3, #2
 1024 02b2 04D0     		beq	.L299
 1025 02b4 4FF00002 		mov	r2, #0
 1026 02b8 2A60     		str	r2, [r5]
 1027 02ba 7FF4E6AE 		bne	.L162
 1028              	.L299:
 1029 02be 2868     		ldr	r0, [r5]
 1030 02c0 B1E6     		b	.L169
 1031              	.L170:
 1032 02c2 3846     		mov	r0, r7
 1033 02c4 04F10408 		add	r8, r4, #4
 1034 02c8 FFF7FEFF 		bl	lv_disp_get_layer_sys
 1035 02cc 4146     		mov	r1, r8
 1036 02ce FFF7FEFF 		bl	lv_indev_search_obj
 1037 02d2 2860     		str	r0, [r5]
 1038 02d4 88B1     		cbz	r0, .L322
 1039              	.L167:
 1040 02d6 A36A     		ldr	r3, [r4, #40]
 1041 02d8 002B     		cmp	r3, #0
 1042 02da 3FF4E4AE 		beq	.L172
 1043 02de 0027     		movs	r7, #0
 1044 02e0 E761     		str	r7, [r4, #28]
 1045 02e2 2046     		mov	r0, r4
 1046 02e4 FFF7FEFF 		bl	_lv_indev_scroll_throw_handler
 1047 02e8 6378     		ldrb	r3, [r4, #1]	@ zero_extendqisi2
 1048 02ea 13F0020F 		tst	r3, #2
 1049 02ee 3FF4DAAE 		beq	.L172
 1050 02f2 2F60     		str	r7, [r5]
 1051 02f4 7FF4C9AE 		bne	.L162
 1052 02f8 D5E6     		b	.L172
 1053              	.L322:
 1054 02fa 3846     		mov	r0, r7
 1055 02fc FFF7FEFF 		bl	lv_disp_get_layer_top
 1056 0300 4146     		mov	r1, r8
 1057 0302 FFF7FEFF 		bl	lv_indev_search_obj
 1058 0306 2860     		str	r0, [r5]
 1059 0308 0028     		cmp	r0, #0
 1060 030a E4D1     		bne	.L167
 1061 030c 3846     		mov	r0, r7
 1062 030e FFF7FEFF 		bl	lv_disp_get_scr_act
 1063 0312 4146     		mov	r1, r8
 1064 0314 FFF7FEFF 		bl	lv_indev_search_obj
 1065 0318 2860     		str	r0, [r5]
ARM GAS  /var/folders/lp/x54gwt890xv47sdkqj1k04q40000gn/T//cc9QG5rv.s 			page 19


 1066 031a DCE7     		b	.L167
 1067              	.L318:
 1068 031c BAF1000F 		cmp	r10, #0
 1069 0320 B6D1     		bne	.L196
 1070              	.L184:
 1071 0322 0E21     		movs	r1, #14
 1072 0324 3268     		ldr	r2, [r6]
 1073 0326 2868     		ldr	r0, [r5]
 1074 0328 FFF7FEFF 		bl	lv_event_send
 1075 032c 98F80530 		ldrb	r3, [r8, #5]	@ zero_extendqisi2
 1076 0330 9907     		lsls	r1, r3, #30
 1077 0332 B4D4     		bmi	.L185
 1078 0334 B7E7     		b	.L193
 1079              	.L214:
 1080 0336 6045     		cmp	r0, ip
 1081 0338 3ED9     		bls	.L215
 1082 033a 0029     		cmp	r1, #0
 1083 033c CCBF     		ite	gt
 1084 033e 0223     		movgt	r3, #2
 1085 0340 0123     		movle	r3, #1
 1086              	.L216:
 1087 0342 B4F84010 		ldrh	r1, [r4, #64]
 1088 0346 1B01     		lsls	r3, r3, #4
 1089 0348 21F4F871 		bic	r1, r1, #496
 1090 034c 43F48073 		orr	r3, r3, #256
 1091 0350 0B43     		orrs	r3, r3, r1
 1092 0352 3846     		mov	r0, r7
 1093 0354 A4F84030 		strh	r3, [r4, #64]	@ movhi
 1094 0358 0C21     		movs	r1, #12
 1095 035a FFF7FEFF 		bl	lv_event_send
 1096 035e 6278     		ldrb	r2, [r4, #1]	@ zero_extendqisi2
 1097 0360 9007     		lsls	r0, r2, #30
 1098 0362 7FF511AF 		bpl	.L312
 1099 0366 C2F34003 		ubfx	r3, r2, #1, #1
 1100 036a 09E7     		b	.L218
 1101              	.L213:
 1102 036c A18F     		ldrh	r1, [r4, #60]
 1103 036e E38F     		ldrh	r3, [r4, #62]
 1104 0370 E8E6     		b	.L212
 1105              	.L207:
 1106 0372 0029     		cmp	r1, #0
 1107 0374 3FF40CAF 		beq	.L225
 1108 0378 0023     		movs	r3, #0
 1109 037a 2B60     		str	r3, [r5]
 1110 037c 08E7     		b	.L225
 1111              	.L319:
 1112 037e BAF1000F 		cmp	r10, #0
 1113 0382 1ED0     		beq	.L190
 1114 0384 2868     		ldr	r0, [r5]
 1115 0386 FFF7FEFF 		bl	lv_group_focus_obj
 1116 038a 98F80530 		ldrb	r3, [r8, #5]	@ zero_extendqisi2
 1117 038e 13F0020F 		tst	r3, #2
 1118 0392 88D0     		beq	.L193
 1119 0394 2F60     		str	r7, [r5]
 1120 0396 89D1     		bne	.L181
 1121 0398 85E7     		b	.L193
 1122              	.L321:
ARM GAS  /var/folders/lp/x54gwt890xv47sdkqj1k04q40000gn/T//cc9QG5rv.s 			page 20


 1123 039a 3268     		ldr	r2, [r6]
 1124 039c 0E21     		movs	r1, #14
 1125 039e FFF7FEFF 		bl	lv_event_send
 1126 03a2 98F80530 		ldrb	r3, [r8, #5]	@ zero_extendqisi2
 1127 03a6 13F0020F 		tst	r3, #2
 1128 03aa 3FF47CAF 		beq	.L193
 1129 03ae C5F800A0 		str	r10, [r5]
 1130 03b2 7FF47BAF 		bne	.L181
 1131 03b6 76E7     		b	.L193
 1132              	.L215:
 1133 03b8 002B     		cmp	r3, #0
 1134 03ba CCBF     		ite	gt
 1135 03bc 0823     		movgt	r3, #8
 1136 03be 0423     		movle	r3, #4
 1137 03c0 BFE7     		b	.L216
 1138              	.L190:
 1139 03c2 D8F83400 		ldr	r0, [r8, #52]
 1140 03c6 3268     		ldr	r2, [r6]
 1141 03c8 0028     		cmp	r0, #0
 1142 03ca AAD0     		beq	.L184
 1143 03cc 0F21     		movs	r1, #15
 1144 03ce FFF7FEFF 		bl	lv_event_send
 1145 03d2 98F80530 		ldrb	r3, [r8, #5]	@ zero_extendqisi2
 1146 03d6 13F0020F 		tst	r3, #2
 1147 03da A2D0     		beq	.L184
 1148 03dc C5F800A0 		str	r10, [r5]
 1149 03e0 7FF464AF 		bne	.L181
 1150 03e4 9DE7     		b	.L184
 1151              	.L219:
 1152 03e6 606C     		ldr	r0, [r4, #68]
 1153 03e8 FFF7FEFF 		bl	lv_tick_elaps
 1154 03ec 3268     		ldr	r2, [r6]
 1155 03ee 1368     		ldr	r3, [r2]
 1156 03f0 9B8B     		ldrh	r3, [r3, #28]
 1157 03f2 9842     		cmp	r0, r3
 1158 03f4 05D8     		bhi	.L323
 1159              	.L221:
 1160 03f6 E36A     		ldr	r3, [r4, #44]
 1161 03f8 002B     		cmp	r3, #0
 1162 03fa 7FF446AE 		bne	.L162
 1163 03fe 6278     		ldrb	r2, [r4, #1]	@ zero_extendqisi2
 1164 0400 CAE6     		b	.L223
 1165              	.L323:
 1166 0402 2868     		ldr	r0, [r5]
 1167 0404 0521     		movs	r1, #5
 1168 0406 FFF7FEFF 		bl	lv_event_send
 1169 040a 6378     		ldrb	r3, [r4, #1]	@ zero_extendqisi2
 1170 040c 13F0020F 		tst	r3, #2
 1171 0410 02D0     		beq	.L301
 1172 0412 2F60     		str	r7, [r5]
 1173 0414 7FF439AE 		bne	.L162
 1174              	.L301:
 1175 0418 6378     		ldrb	r3, [r4, #1]	@ zero_extendqisi2
 1176 041a 43F00103 		orr	r3, r3, #1
 1177 041e 6370     		strb	r3, [r4, #1]
 1178 0420 FFF7FEFF 		bl	lv_tick_get
 1179 0424 A064     		str	r0, [r4, #72]
ARM GAS  /var/folders/lp/x54gwt890xv47sdkqj1k04q40000gn/T//cc9QG5rv.s 			page 21


 1180 0426 E6E7     		b	.L221
 1181              	.L320:
 1182 0428 0028     		cmp	r0, #0
 1183 042a 3FF42CAF 		beq	.L199
 1184 042e 3268     		ldr	r2, [r6]
 1185 0430 0F21     		movs	r1, #15
 1186 0432 FFF7FEFF 		bl	lv_event_send
 1187 0436 98F80530 		ldrb	r3, [r8, #5]	@ zero_extendqisi2
 1188 043a 13F0020F 		tst	r3, #2
 1189 043e 3FF422AF 		beq	.L199
 1190 0442 C5F80090 		str	r9, [r5]
 1191 0446 7FF431AF 		bne	.L181
 1192 044a 1CE7     		b	.L199
 1194              		.section	.text.lv_indev_read_timer_cb,"ax",%progbits
 1195              		.align	1
 1196              		.p2align 2,,3
 1197              		.global	lv_indev_read_timer_cb
 1198              		.syntax unified
 1199              		.thumb
 1200              		.thumb_func
 1202              	lv_indev_read_timer_cb:
 1203              		@ args = 0, pretend = 0, frame = 24
 1204              		@ frame_needed = 0, uses_anonymous_args = 0
 1205 0000 2DE9F04F 		push	{r4, r5, r6, r7, r8, r9, r10, fp, lr}
 1206 0004 C468     		ldr	r4, [r0, #12]
 1207 0006 984E     		ldr	r6, .L711
 1208 0008 2368     		ldr	r3, [r4]
 1209 000a 1969     		ldr	r1, [r3, #16]
 1210 000c 87B0     		sub	sp, sp, #28
 1211 000e 3460     		str	r4, [r6]
 1212 0010 0029     		cmp	r1, #0
 1213 0012 7CD0     		beq	.L326
 1214 0014 6379     		ldrb	r3, [r4, #5]	@ zero_extendqisi2
 1215 0016 9D07     		lsls	r5, r3, #30
 1216 0018 13D5     		bpl	.L328
 1217 001a 0022     		movs	r2, #0
 1218 001c 94F84400 		ldrb	r0, [r4, #68]	@ zero_extendqisi2
 1219 0020 924F     		ldr	r7, .L711+4
 1220 0022 2263     		str	r2, [r4, #48]
 1221 0024 C4E90A22 		strd	r2, r2, [r4, #40]
 1222 0028 C4E91222 		strd	r2, r2, [r4, #72]
 1223 002c C4E90722 		strd	r2, r2, [r4, #28]
 1224 0030 23F00303 		bic	r3, r3, #3
 1225 0034 62F30300 		bfi	r0, r2, #0, #4
 1226 0038 2264     		str	r2, [r4, #64]
 1227 003a 6371     		strb	r3, [r4, #5]
 1228 003c 84F84400 		strb	r0, [r4, #68]
 1229 0040 3A60     		str	r2, [r7]
 1230              	.L328:
 1231 0042 5807     		lsls	r0, r3, #29
 1232 0044 63D4     		bmi	.L326
 1233 0046 4D69     		ldr	r5, [r1, #20]
 1234 0048 002D     		cmp	r5, #0
 1235 004a 60D1     		bne	.L326
 1236 004c 874F     		ldr	r7, .L711+4
 1237              	.L491:
 1238 004e 02A9     		add	r1, sp, #8
ARM GAS  /var/folders/lp/x54gwt890xv47sdkqj1k04q40000gn/T//cc9QG5rv.s 			page 22


 1239 0050 2046     		mov	r0, r4
 1240 0052 FFF7FEFF 		bl	_lv_indev_read
 1241 0056 3468     		ldr	r4, [r6]
 1242 0058 9DF81780 		ldrb	r8, [sp, #23]	@ zero_extendqisi2
 1243 005c 6379     		ldrb	r3, [r4, #5]	@ zero_extendqisi2
 1244 005e 9907     		lsls	r1, r3, #30
 1245 0060 10D5     		bpl	.L329
 1246 0062 23F00303 		bic	r3, r3, #3
 1247 0066 6371     		strb	r3, [r4, #5]
 1248 0068 94F84430 		ldrb	r3, [r4, #68]	@ zero_extendqisi2
 1249 006c 2563     		str	r5, [r4, #48]
 1250 006e C4E90A55 		strd	r5, r5, [r4, #40]
 1251 0072 C4E91255 		strd	r5, r5, [r4, #72]
 1252 0076 C4E90755 		strd	r5, r5, [r4, #28]
 1253 007a 65F30303 		bfi	r3, r5, #0, #4
 1254 007e 2564     		str	r5, [r4, #64]
 1255 0080 84F84430 		strb	r3, [r4, #68]
 1256              	.L329:
 1257 0084 9DF81620 		ldrb	r2, [sp, #22]	@ zero_extendqisi2
 1258 0088 2168     		ldr	r1, [r4]
 1259 008a 3D60     		str	r5, [r7]
 1260 008c 012A     		cmp	r2, #1
 1261 008e 2271     		strb	r2, [r4, #4]
 1262 0090 00F0D380 		beq	.L658
 1263 0094 0B78     		ldrb	r3, [r1]	@ zero_extendqisi2
 1264 0096 042B     		cmp	r3, #4
 1265 0098 00F0EA80 		beq	.L686
 1266 009c 013B     		subs	r3, r3, #1
 1267 009e 022B     		cmp	r3, #2
 1268 00a0 18D8     		bhi	.L663
 1269 00a2 DFE803F0 		tbb	[pc, r3]
 1270              	.L495:
 1271 00a6 37       		.byte	(.L339-.L495)/2
 1272 00a7 78       		.byte	(.L347-.L495)/2
 1273 00a8 02       		.byte	(.L337-.L495)/2
 1274 00a9 00       		.p2align 1
 1275              	.L337:
 1276 00aa A36D     		ldr	r3, [r4, #88]
 1277 00ac 8BB1     		cbz	r3, .L394
 1278 00ae 049A     		ldr	r2, [sp, #16]
 1279 00b0 53F82290 		ldr	r9, [r3, r2, lsl #2]	@ unaligned
 1280 00b4 9DF81630 		ldrb	r3, [sp, #22]	@ zero_extendqisi2
 1281 00b8 012B     		cmp	r3, #1
 1282 00ba 00F07C81 		beq	.L687
 1283              	.L482:
 1284 00be 6379     		ldrb	r3, [r4, #5]	@ zero_extendqisi2
 1285 00c0 13F0020F 		tst	r3, #2
 1286 00c4 00F09F80 		beq	.L485
 1287 00c8 4FF00002 		mov	r2, #0
 1288 00cc 3A60     		str	r2, [r7]
 1289 00ce 00F09A80 		beq	.L485
 1290              	.L394:
 1291 00d2 3468     		ldr	r4, [r6]
 1292              	.L663:
 1293 00d4 6379     		ldrb	r3, [r4, #5]	@ zero_extendqisi2
 1294              	.L340:
 1295 00d6 9B07     		lsls	r3, r3, #30
ARM GAS  /var/folders/lp/x54gwt890xv47sdkqj1k04q40000gn/T//cc9QG5rv.s 			page 23


 1296 00d8 12D5     		bpl	.L490
 1297 00da 94F84430 		ldrb	r3, [r4, #68]	@ zero_extendqisi2
 1298 00de 2563     		str	r5, [r4, #48]
 1299 00e0 65F30303 		bfi	r3, r5, #0, #4
 1300 00e4 84F84430 		strb	r3, [r4, #68]
 1301 00e8 6379     		ldrb	r3, [r4, #5]	@ zero_extendqisi2
 1302 00ea 2564     		str	r5, [r4, #64]
 1303 00ec C4E90A55 		strd	r5, r5, [r4, #40]
 1304 00f0 C4E91255 		strd	r5, r5, [r4, #72]
 1305 00f4 C4E90755 		strd	r5, r5, [r4, #28]
 1306 00f8 23F00303 		bic	r3, r3, #3
 1307 00fc 3D60     		str	r5, [r7]
 1308 00fe 6371     		strb	r3, [r4, #5]
 1309              	.L490:
 1310 0100 B8F1000F 		cmp	r8, #0
 1311 0104 A3D1     		bne	.L491
 1312 0106 C6F80080 		str	r8, [r6]
 1313 010a C7F80080 		str	r8, [r7]
 1314              	.L326:
 1315 010e 07B0     		add	sp, sp, #28
 1316              		@ sp needed
 1317 0110 BDE8F08F 		pop	{r4, r5, r6, r7, r8, r9, r10, fp, pc}
 1318              	.L339:
 1319 0114 0869     		ldr	r0, [r1, #16]
 1320 0116 029A     		ldr	r2, [sp, #8]
 1321 0118 0168     		ldr	r1, [r0]
 1322 011a BDF908E0 		ldrsh	lr, [sp, #8]
 1323 011e 0B7C     		ldrb	r3, [r1, #16]	@ zero_extendqisi2
 1324 0120 BDF90AC0 		ldrsh	ip, [sp, #10]
 1325 0124 6261     		str	r2, [r4, #20]
 1326 0126 03F03003 		and	r3, r3, #48
 1327 012a 202B     		cmp	r3, #32
 1328 012c 00F03681 		beq	.L341
 1329 0130 302B     		cmp	r3, #48
 1330 0132 42F30F4C 		sbfx	ip, r2, #16, #16
 1331 0136 12B2     		sxth	r2, r2
 1332 0138 00F01E81 		beq	.L342
 1333 013c 102B     		cmp	r3, #16
 1334 013e 09D1     		bne	.L343
 1335 0140 4B88     		ldrh	r3, [r1, #2]
 1336 0142 1FFA8CFC 		uxth	ip, ip
 1337              	.L493:
 1338 0146 013B     		subs	r3, r3, #1
 1339 0148 A3EB0C03 		sub	r3, r3, ip
 1340 014c ADF80A20 		strh	r2, [sp, #10]	@ movhi
 1341 0150 ADF80830 		strh	r3, [sp, #8]	@ movhi
 1342              	.L343:
 1343 0154 FFF7FEFF 		bl	lv_disp_get_hor_res
 1344 0158 2368     		ldr	r3, [r4]
 1345 015a 1869     		ldr	r0, [r3, #16]
 1346 015c FFF7FEFF 		bl	lv_disp_get_ver_res
 1347 0160 206D     		ldr	r0, [r4, #80]
 1348 0162 48B1     		cbz	r0, .L344
 1349 0164 2269     		ldr	r2, [r4, #16]
 1350 0166 029B     		ldr	r3, [sp, #8]
 1351 0168 9A42     		cmp	r2, r3
 1352 016a 05D0     		beq	.L344
ARM GAS  /var/folders/lp/x54gwt890xv47sdkqj1k04q40000gn/T//cc9QG5rv.s 			page 24


 1353 016c BDF90A20 		ldrsh	r2, [sp, #10]
 1354 0170 BDF90810 		ldrsh	r1, [sp, #8]
 1355 0174 FFF7FEFF 		bl	lv_obj_set_pos
 1356              	.L344:
 1357 0178 2379     		ldrb	r3, [r4, #4]	@ zero_extendqisi2
 1358 017a 029A     		ldr	r2, [sp, #8]
 1359 017c A260     		str	r2, [r4, #8]
 1360 017e 012B     		cmp	r3, #1
 1361 0180 04F10400 		add	r0, r4, #4
 1362 0184 00F00781 		beq	.L688
 1363 0188 FFF7FEFF 		bl	indev_proc_release
 1364              	.L346:
 1365 018c A368     		ldr	r3, [r4, #8]
 1366 018e 2361     		str	r3, [r4, #16]
 1367 0190 3468     		ldr	r4, [r6]
 1368 0192 6379     		ldrb	r3, [r4, #5]	@ zero_extendqisi2
 1369 0194 9FE7     		b	.L340
 1370              	.L347:
 1371 0196 6379     		ldrb	r3, [r4, #5]	@ zero_extendqisi2
 1372 0198 1A07     		lsls	r2, r3, #28
 1373 019a 05D5     		bpl	.L348
 1374 019c 23F00903 		bic	r3, r3, #9
 1375 01a0 6371     		strb	r3, [r4, #5]
 1376 01a2 0023     		movs	r3, #0
 1377 01a4 A364     		str	r3, [r4, #72]
 1378 01a6 2372     		strb	r3, [r4, #8]
 1379              	.L348:
 1380 01a8 D4F85490 		ldr	r9, [r4, #84]
 1381 01ac B9F1000F 		cmp	r9, #0
 1382 01b0 8FD0     		beq	.L394
 1383 01b2 4846     		mov	r0, r9
 1384 01b4 FFF7FEFF 		bl	lv_group_get_focused
 1385 01b8 3860     		str	r0, [r7]
 1386 01ba 0028     		cmp	r0, #0
 1387 01bc 89D0     		beq	.L394
 1388 01be 8021     		movs	r1, #128
 1389 01c0 FFF7FEFF 		bl	lv_obj_has_state
 1390 01c4 039A     		ldr	r2, [sp, #12]
 1391 01c6 E168     		ldr	r1, [r4, #12]
 1392 01c8 E260     		str	r2, [r4, #12]
 1393 01ca 9DF81630 		ldrb	r3, [sp, #22]	@ zero_extendqisi2
 1394 01ce 94F808B0 		ldrb	fp, [r4, #8]	@ zero_extendqisi2
 1395 01d2 2372     		strb	r3, [r4, #8]
 1396 01d4 012B     		cmp	r3, #1
 1397 01d6 8246     		mov	r10, r0
 1398 01d8 00F0FD80 		beq	.L689
 1399 01dc 3268     		ldr	r2, [r6]
 1400 01de 68B9     		cbnz	r0, .L357
 1401 01e0 63B9     		cbnz	r3, .L357
 1402 01e2 BBF1010F 		cmp	fp, #1
 1403 01e6 09D1     		bne	.L357
 1404 01e8 0A29     		cmp	r1, #10
 1405 01ea 0391     		str	r1, [sp, #12]
 1406 01ec 00F0DE82 		beq	.L690
 1407              	.L387:
 1408 01f0 6379     		ldrb	r3, [r4, #5]	@ zero_extendqisi2
 1409 01f2 0022     		movs	r2, #0
ARM GAS  /var/folders/lp/x54gwt890xv47sdkqj1k04q40000gn/T//cc9QG5rv.s 			page 25


 1410 01f4 62F30003 		bfi	r3, r2, #0, #1
 1411 01f8 A264     		str	r2, [r4, #72]
 1412 01fa 6371     		strb	r3, [r4, #5]
 1413              	.L357:
 1414 01fc 0023     		movs	r3, #0
 1415 01fe 3468     		ldr	r4, [r6]
 1416 0200 3B60     		str	r3, [r7]
 1417 0202 6379     		ldrb	r3, [r4, #5]	@ zero_extendqisi2
 1418 0204 67E7     		b	.L340
 1419              	.L485:
 1420 0206 C4F80890 		str	r9, [r4, #8]
 1421 020a 9DF81630 		ldrb	r3, [sp, #22]	@ zero_extendqisi2
 1422 020e 012B     		cmp	r3, #1
 1423 0210 04F10400 		add	r0, r4, #4
 1424 0214 00F0BC80 		beq	.L691
 1425 0218 FFF7FEFF 		bl	indev_proc_release
 1426              	.L487:
 1427 021c 6279     		ldrb	r2, [r4, #5]	@ zero_extendqisi2
 1428 021e 9107     		lsls	r1, r2, #30
 1429 0220 48BF     		it	mi
 1430 0222 0023     		movmi	r3, #0
 1431 0224 3168     		ldr	r1, [r6]
 1432 0226 48BF     		it	mi
 1433 0228 3B60     		strmi	r3, [r7]
 1434 022a 9207     		lsls	r2, r2, #30
 1435 022c 58BF     		it	pl
 1436 022e A268     		ldrpl	r2, [r4, #8]
 1437 0230 4B79     		ldrb	r3, [r1, #5]	@ zero_extendqisi2
 1438 0232 58BF     		it	pl
 1439 0234 2261     		strpl	r2, [r4, #16]
 1440 0236 0C46     		mov	r4, r1
 1441 0238 4DE7     		b	.L340
 1442              	.L658:
 1443 023a 0C69     		ldr	r4, [r1, #16]
 1444 023c FFF7FEFF 		bl	lv_tick_get
 1445 0240 C4F86401 		str	r0, [r4, #356]
 1446 0244 3468     		ldr	r4, [r6]
 1447 0246 2168     		ldr	r1, [r4]
 1448 0248 0B78     		ldrb	r3, [r1]	@ zero_extendqisi2
 1449 024a 013B     		subs	r3, r3, #1
 1450 024c 032B     		cmp	r3, #3
 1451 024e 3FF641AF 		bhi	.L663
 1452 0252 01A2     		adr	r2, .L336
 1453 0254 52F823F0 		ldr	pc, [r2, r3, lsl #2]
 1454              		.p2align 2
 1455              	.L336:
 1456 0258 15010000 		.word	.L339+1
 1457 025c 47030000 		.word	.L338+1
 1458 0260 AB000000 		.word	.L337+1
 1459 0264 5F030000 		.word	.L335+1
 1460              		.p2align 1
 1461              	.L712:
 1462              		.align	2
 1463              	.L711:
 1464 0268 00000000 		.word	indev_act
 1465 026c 00000000 		.word	indev_obj_act
 1466              	.L686:
ARM GAS  /var/folders/lp/x54gwt890xv47sdkqj1k04q40000gn/T//cc9QG5rv.s 			page 26


 1467 0270 BDF91430 		ldrsh	r3, [sp, #20]
 1468 0274 002B     		cmp	r3, #0
 1469 0276 E0D1     		bne	.L658
 1470 0278 6379     		ldrb	r3, [r4, #5]	@ zero_extendqisi2
 1471 027a 03F00803 		and	r3, r3, #8
 1472              	.L393:
 1473 027e 002B     		cmp	r3, #0
 1474 0280 77D0     		beq	.L659
 1475 0282 6379     		ldrb	r3, [r4, #5]	@ zero_extendqisi2
 1476 0284 23F00903 		bic	r3, r3, #9
 1477 0288 6371     		strb	r3, [r4, #5]
 1478 028a 0023     		movs	r3, #0
 1479 028c A364     		str	r3, [r4, #72]
 1480 028e 9A46     		mov	r10, r3
 1481              	.L395:
 1482 0290 D4F85490 		ldr	r9, [r4, #84]
 1483 0294 039B     		ldr	r3, [sp, #12]
 1484 0296 2272     		strb	r2, [r4, #8]
 1485 0298 E360     		str	r3, [r4, #12]
 1486 029a B9F1000F 		cmp	r9, #0
 1487 029e 3FF418AF 		beq	.L394
 1488 02a2 4846     		mov	r0, r9
 1489 02a4 FFF7FEFF 		bl	lv_group_get_focused
 1490 02a8 3860     		str	r0, [r7]
 1491 02aa 0028     		cmp	r0, #0
 1492 02ac 3FF411AF 		beq	.L394
 1493 02b0 9DF81630 		ldrb	r3, [sp, #22]	@ zero_extendqisi2
 1494 02b4 13B1     		cbz	r3, .L399
 1495 02b6 0023     		movs	r3, #0
 1496 02b8 ADF81430 		strh	r3, [sp, #20]	@ movhi
 1497              	.L399:
 1498 02bc 4846     		mov	r0, r9
 1499 02be FFF7FEFF 		bl	lv_group_get_focused
 1500 02c2 3860     		str	r0, [r7]
 1501 02c4 0028     		cmp	r0, #0
 1502 02c6 3FF404AF 		beq	.L394
 1503 02ca 9DF81630 		ldrb	r3, [sp, #22]	@ zero_extendqisi2
 1504 02ce 012B     		cmp	r3, #1
 1505 02d0 00F0B680 		beq	.L692
 1506 02d4 63B9     		cbnz	r3, .L660
 1507 02d6 BAF1010F 		cmp	r10, #1
 1508 02da 09D1     		bne	.L660
 1509 02dc 039B     		ldr	r3, [sp, #12]
 1510 02de 0A2B     		cmp	r3, #10
 1511 02e0 00F0DB81 		beq	.L693
 1512              	.L443:
 1513 02e4 6279     		ldrb	r2, [r4, #5]	@ zero_extendqisi2
 1514 02e6 0023     		movs	r3, #0
 1515 02e8 63F30002 		bfi	r2, r3, #0, #1
 1516 02ec 6271     		strb	r2, [r4, #5]
 1517 02ee A364     		str	r3, [r4, #72]
 1518              	.L660:
 1519 02f0 BDF91430 		ldrsh	r3, [sp, #20]
 1520              	.L412:
 1521 02f4 4FF0000A 		mov	r10, #0
 1522 02f8 C7F800A0 		str	r10, [r7]
 1523 02fc 002B     		cmp	r3, #0
ARM GAS  /var/folders/lp/x54gwt890xv47sdkqj1k04q40000gn/T//cc9QG5rv.s 			page 27


 1524 02fe 3FF4E8AE 		beq	.L394
 1525 0302 4846     		mov	r0, r9
 1526 0304 FFF7FEFF 		bl	lv_group_get_editing
 1527 0308 BDF91430 		ldrsh	r3, [sp, #20]
 1528 030c 0028     		cmp	r0, #0
 1529 030e 00F05F81 		beq	.L466
 1530 0312 002B     		cmp	r3, #0
 1531 0314 C0F28B81 		blt	.L694
 1532 0318 3FF4DBAE 		beq	.L394
 1533 031c D346     		mov	fp, r10
 1534 031e 04E0     		b	.L471
 1535              	.L473:
 1536 0320 BDF91430 		ldrsh	r3, [sp, #20]
 1537 0324 9A45     		cmp	r10, r3
 1538 0326 BFF6D4AE 		bge	.L394
 1539              	.L471:
 1540 032a 1321     		movs	r1, #19
 1541 032c 4846     		mov	r0, r9
 1542 032e FFF7FEFF 		bl	lv_group_send_data
 1543 0332 6379     		ldrb	r3, [r4, #5]	@ zero_extendqisi2
 1544 0334 13F0020F 		tst	r3, #2
 1545 0338 0AF1010A 		add	r10, r10, #1
 1546 033c F0D0     		beq	.L473
 1547 033e C7F800B0 		str	fp, [r7]
 1548 0342 EDD0     		beq	.L473
 1549 0344 C5E6     		b	.L394
 1550              	.L338:
 1551 0346 9DF81620 		ldrb	r2, [sp, #22]	@ zero_extendqisi2
 1552 034a 6379     		ldrb	r3, [r4, #5]	@ zero_extendqisi2
 1553 034c 012A     		cmp	r2, #1
 1554 034e 03F00801 		and	r1, r3, #8
 1555 0352 7FF420AF 		bne	.L347
 1556 0356 0029     		cmp	r1, #0
 1557 0358 3FF426AF 		beq	.L348
 1558 035c BBE6     		b	.L340
 1559              	.L335:
 1560 035e 9DF81620 		ldrb	r2, [sp, #22]	@ zero_extendqisi2
 1561 0362 6379     		ldrb	r3, [r4, #5]	@ zero_extendqisi2
 1562 0364 012A     		cmp	r2, #1
 1563 0366 03F00803 		and	r3, r3, #8
 1564 036a 88D1     		bne	.L393
 1565 036c 002B     		cmp	r3, #0
 1566 036e 7FF4B0AE 		bne	.L394
 1567              	.L659:
 1568 0372 94F808A0 		ldrb	r10, [r4, #8]	@ zero_extendqisi2
 1569 0376 8BE7     		b	.L395
 1570              	.L342:
 1571 0378 0B88     		ldrh	r3, [r1]
 1572 037a 9A1A     		subs	r2, r3, r2
 1573 037c 4B88     		ldrh	r3, [r1, #2]
 1574 037e A3EB0C0C 		sub	ip, r3, ip
 1575 0382 013A     		subs	r2, r2, #1
 1576 0384 0CF1FF3C 		add	ip, ip, #-1
 1577 0388 12B2     		sxth	r2, r2
 1578 038a 1FFA8CFC 		uxth	ip, ip
 1579 038e DAE6     		b	.L493
 1580              	.L691:
ARM GAS  /var/folders/lp/x54gwt890xv47sdkqj1k04q40000gn/T//cc9QG5rv.s 			page 28


 1581 0390 FFF7FEFF 		bl	indev_proc_press
 1582 0394 42E7     		b	.L487
 1583              	.L688:
 1584 0396 FFF7FEFF 		bl	indev_proc_press
 1585 039a F7E6     		b	.L346
 1586              	.L341:
 1587 039c 0A88     		ldrh	r2, [r1]
 1588 039e 4B88     		ldrh	r3, [r1, #2]
 1589 03a0 A2EB0E02 		sub	r2, r2, lr
 1590 03a4 A3EB0C03 		sub	r3, r3, ip
 1591 03a8 013A     		subs	r2, r2, #1
 1592 03aa 013B     		subs	r3, r3, #1
 1593 03ac ADF80820 		strh	r2, [sp, #8]	@ movhi
 1594 03b0 ADF80A30 		strh	r3, [sp, #10]	@ movhi
 1595 03b4 CEE6     		b	.L343
 1596              	.L687:
 1597 03b6 B4F91020 		ldrsh	r2, [r4, #16]
 1598 03ba 0FFA89F3 		sxth	r3, r9
 1599 03be 9A42     		cmp	r2, r3
 1600 03c0 05D1     		bne	.L483
 1601 03c2 B4F91230 		ldrsh	r3, [r4, #18]
 1602 03c6 B3EB294F 		cmp	r3, r9, asr #16
 1603 03ca 3FF478AE 		beq	.L482
 1604              	.L483:
 1605 03ce 201D     		adds	r0, r4, #4
 1606 03d0 FFF7FEFF 		bl	indev_proc_release
 1607 03d4 73E6     		b	.L482
 1608              	.L689:
 1609 03d6 BBF1000F 		cmp	fp, #0
 1610 03da 56D0     		beq	.L695
 1611 03dc 0028     		cmp	r0, #0
 1612 03de 7FF40DAF 		bne	.L357
 1613 03e2 BBF1010F 		cmp	fp, #1
 1614 03e6 7FF409AF 		bne	.L357
 1615 03ea 0A2A     		cmp	r2, #10
 1616 03ec 00F01B82 		beq	.L372
 1617 03f0 6379     		ldrb	r3, [r4, #5]	@ zero_extendqisi2
 1618              	.L373:
 1619 03f2 13F0010A 		ands	r10, r3, #1
 1620 03f6 00F0B781 		beq	.L375
 1621              	.L379:
 1622 03fa E06C     		ldr	r0, [r4, #76]
 1623 03fc FFF7FEFF 		bl	lv_tick_elaps
 1624 0400 2368     		ldr	r3, [r4]
 1625 0402 DB8B     		ldrh	r3, [r3, #30]
 1626 0404 9842     		cmp	r0, r3
 1627 0406 7FF6F9AE 		bls	.L357
 1628 040a FFF7FEFF 		bl	lv_tick_get
 1629 040e 0399     		ldr	r1, [sp, #12]
 1630 0410 E064     		str	r0, [r4, #76]
 1631 0412 0A29     		cmp	r1, #10
 1632 0414 00F09682 		beq	.L696
 1633 0418 0929     		cmp	r1, #9
 1634 041a 00F0AE82 		beq	.L697
 1635 041e 0B29     		cmp	r1, #11
 1636 0420 00F09F82 		beq	.L698
 1637 0424 4846     		mov	r0, r9
ARM GAS  /var/folders/lp/x54gwt890xv47sdkqj1k04q40000gn/T//cc9QG5rv.s 			page 29


 1638              	.L684:
 1639 0426 FFF7FEFF 		bl	lv_group_send_data
 1640 042a 6279     		ldrb	r2, [r4, #5]	@ zero_extendqisi2
 1641 042c 9107     		lsls	r1, r2, #30
 1642 042e 01D5     		bpl	.L386
 1643              	.L676:
 1644 0430 0023     		movs	r3, #0
 1645 0432 3B60     		str	r3, [r7]
 1646              	.L386:
 1647 0434 3468     		ldr	r4, [r6]
 1648 0436 9207     		lsls	r2, r2, #30
 1649 0438 6379     		ldrb	r3, [r4, #5]	@ zero_extendqisi2
 1650 043a 7FF5DFAE 		bpl	.L357
 1651 043e 4AE6     		b	.L340
 1652              	.L692:
 1653 0440 BAF1000F 		cmp	r10, #0
 1654 0444 4CD0     		beq	.L699
 1655 0446 BAF1010F 		cmp	r10, #1
 1656 044a 7FF451AF 		bne	.L660
 1657 044e 6379     		ldrb	r3, [r4, #5]	@ zero_extendqisi2
 1658 0450 D907     		lsls	r1, r3, #31
 1659 0452 40F11581 		bpl	.L700
 1660              	.L424:
 1661 0456 E06C     		ldr	r0, [r4, #76]
 1662 0458 FFF7FEFF 		bl	lv_tick_elaps
 1663 045c 2368     		ldr	r3, [r4]
 1664 045e DB8B     		ldrh	r3, [r3, #30]
 1665 0460 9842     		cmp	r0, r3
 1666 0462 7FF645AF 		bls	.L660
 1667 0466 FFF7FEFF 		bl	lv_tick_get
 1668 046a 0399     		ldr	r1, [sp, #12]
 1669 046c E064     		str	r0, [r4, #76]
 1670 046e 0A29     		cmp	r1, #10
 1671 0470 00F03F82 		beq	.L701
 1672 0474 1429     		cmp	r1, #20
 1673 0476 71D0     		beq	.L661
 1674 0478 1329     		cmp	r1, #19
 1675 047a 61D1     		bne	.L438
 1676              	.L662:
 1677 047c BDF81430 		ldrh	r3, [sp, #20]
 1678 0480 0133     		adds	r3, r3, #1
 1679 0482 1BB2     		sxth	r3, r3
 1680 0484 ADF81430 		strh	r3, [sp, #20]	@ movhi
 1681 0488 34E7     		b	.L412
 1682              	.L695:
 1683 048a FFF7FEFF 		bl	lv_tick_get
 1684 048e 0399     		ldr	r1, [sp, #12]
 1685 0490 A064     		str	r0, [r4, #72]
 1686 0492 0929     		cmp	r1, #9
 1687 0494 00F04E81 		beq	.L702
 1688 0498 0B29     		cmp	r1, #11
 1689 049a 00F05981 		beq	.L703
 1690 049e BAF1000F 		cmp	r10, #0
 1691 04a2 7FF4ABAE 		bne	.L357
 1692 04a6 0A29     		cmp	r1, #10
 1693 04a8 4846     		mov	r0, r9
 1694 04aa 00F00282 		beq	.L704
ARM GAS  /var/folders/lp/x54gwt890xv47sdkqj1k04q40000gn/T//cc9QG5rv.s 			page 30


 1695 04ae 1B29     		cmp	r1, #27
 1696 04b0 B9D1     		bne	.L684
 1697 04b2 FFF7FEFF 		bl	lv_group_send_data
 1698 04b6 6379     		ldrb	r3, [r4, #5]	@ zero_extendqisi2
 1699 04b8 9A07     		lsls	r2, r3, #30
 1700 04ba 44BF     		itt	mi
 1701 04bc 0022     		movmi	r2, #0
 1702 04be 3A60     		strmi	r2, [r7]
 1703 04c0 C3F34009 		ubfx	r9, r3, #1, #1
 1704 04c4 9B07     		lsls	r3, r3, #30
 1705 04c6 3268     		ldr	r2, [r6]
 1706 04c8 00F1D780 		bmi	.L666
 1707 04cc 3868     		ldr	r0, [r7]
 1708 04ce 2021     		movs	r1, #32
 1709 04d0 FFF7FEFF 		bl	lv_event_send
 1710 04d4 6279     		ldrb	r2, [r4, #5]	@ zero_extendqisi2
 1711 04d6 9007     		lsls	r0, r2, #30
 1712 04d8 ACD5     		bpl	.L386
 1713              	.L675:
 1714 04da C7F80090 		str	r9, [r7]
 1715 04de A9E7     		b	.L386
 1716              	.L699:
 1717 04e0 FFF7FEFF 		bl	lv_tick_get
 1718 04e4 0399     		ldr	r1, [sp, #12]
 1719 04e6 A064     		str	r0, [r4, #72]
 1720 04e8 A1F10A03 		sub	r3, r1, #10
 1721 04ec 112B     		cmp	r3, #17
 1722 04ee 27D8     		bhi	.L438
 1723 04f0 01A2     		adr	r2, .L405
 1724 04f2 52F823F0 		ldr	pc, [r2, r3, lsl #2]
 1725 04f6 00BF     		.p2align 2
 1726              	.L405:
 1727 04f8 A3050000 		.word	.L408+1
 1728 04fc 41050000 		.word	.L438+1
 1729 0500 41050000 		.word	.L438+1
 1730 0504 41050000 		.word	.L438+1
 1731 0508 41050000 		.word	.L438+1
 1732 050c 41050000 		.word	.L438+1
 1733 0510 41050000 		.word	.L438+1
 1734 0514 41050000 		.word	.L438+1
 1735 0518 41050000 		.word	.L438+1
 1736 051c 7D040000 		.word	.L662+1
 1737 0520 5D050000 		.word	.L661+1
 1738 0524 41050000 		.word	.L438+1
 1739 0528 41050000 		.word	.L438+1
 1740 052c 41050000 		.word	.L438+1
 1741 0530 41050000 		.word	.L438+1
 1742 0534 41050000 		.word	.L438+1
 1743 0538 41050000 		.word	.L438+1
 1744 053c 6B050000 		.word	.L404+1
 1745              		.p2align 1
 1746              	.L438:
 1747 0540 4846     		mov	r0, r9
 1748 0542 FFF7FEFF 		bl	lv_group_send_data
 1749 0546 6379     		ldrb	r3, [r4, #5]	@ zero_extendqisi2
 1750 0548 13F0020F 		tst	r3, #2
 1751 054c 3FF4D0AE 		beq	.L660
ARM GAS  /var/folders/lp/x54gwt890xv47sdkqj1k04q40000gn/T//cc9QG5rv.s 			page 31


 1752              	.L680:
 1753 0550 4FF00002 		mov	r2, #0
 1754 0554 3A60     		str	r2, [r7]
 1755 0556 7FF4BCAD 		bne	.L394
 1756 055a C9E6     		b	.L660
 1757              	.L661:
 1758 055c BDF81430 		ldrh	r3, [sp, #20]
 1759 0560 013B     		subs	r3, r3, #1
 1760 0562 1BB2     		sxth	r3, r3
 1761 0564 ADF81430 		strh	r3, [sp, #20]	@ movhi
 1762 0568 C4E6     		b	.L412
 1763              	.L404:
 1764 056a 1B21     		movs	r1, #27
 1765 056c 4846     		mov	r0, r9
 1766 056e FFF7FEFF 		bl	lv_group_send_data
 1767 0572 6379     		ldrb	r3, [r4, #5]	@ zero_extendqisi2
 1768 0574 9A07     		lsls	r2, r3, #30
 1769 0576 44BF     		itt	mi
 1770 0578 0022     		movmi	r2, #0
 1771 057a 3A60     		strmi	r2, [r7]
 1772 057c 9807     		lsls	r0, r3, #30
 1773 057e 3268     		ldr	r2, [r6]
 1774 0580 C3F3400A 		ubfx	r10, r3, #1, #1
 1775 0584 79D4     		bmi	.L666
 1776 0586 3868     		ldr	r0, [r7]
 1777 0588 2021     		movs	r1, #32
 1778 058a FFF7FEFF 		bl	lv_event_send
 1779 058e 6379     		ldrb	r3, [r4, #5]	@ zero_extendqisi2
 1780 0590 13F0020F 		tst	r3, #2
 1781 0594 3FF4ACAE 		beq	.L660
 1782 0598 C7F800A0 		str	r10, [r7]
 1783 059c 7FF499AD 		bne	.L394
 1784 05a0 A6E6     		b	.L660
 1785              	.L408:
 1786 05a2 3868     		ldr	r0, [r7]
 1787 05a4 FFF7FEFF 		bl	lv_obj_is_editable
 1788 05a8 0028     		cmp	r0, #0
 1789 05aa 00F06F81 		beq	.L409
 1790              	.L678:
 1791 05ae 4846     		mov	r0, r9
 1792 05b0 FFF7FEFF 		bl	lv_group_get_editing
 1793 05b4 0028     		cmp	r0, #0
 1794 05b6 3FF49BAE 		beq	.L660
 1795              	.L411:
 1796 05ba 3268     		ldr	r2, [r6]
 1797 05bc 3868     		ldr	r0, [r7]
 1798 05be 0121     		movs	r1, #1
 1799 05c0 FFF7FEFF 		bl	lv_event_send
 1800 05c4 6379     		ldrb	r3, [r4, #5]	@ zero_extendqisi2
 1801 05c6 13F0020F 		tst	r3, #2
 1802 05ca 3FF491AE 		beq	.L660
 1803 05ce BFE7     		b	.L680
 1804              	.L466:
 1805 05d0 002B     		cmp	r3, #0
 1806 05d2 16DB     		blt	.L705
 1807 05d4 3FF47DAD 		beq	.L394
 1808 05d8 8246     		mov	r10, r0
ARM GAS  /var/folders/lp/x54gwt890xv47sdkqj1k04q40000gn/T//cc9QG5rv.s 			page 32


 1809 05da 8346     		mov	fp, r0
 1810 05dc 04E0     		b	.L478
 1811              	.L480:
 1812 05de BDF91430 		ldrsh	r3, [sp, #20]
 1813 05e2 9A45     		cmp	r10, r3
 1814 05e4 BFF675AD 		bge	.L394
 1815              	.L478:
 1816 05e8 4846     		mov	r0, r9
 1817 05ea FFF7FEFF 		bl	lv_group_focus_next
 1818 05ee 6379     		ldrb	r3, [r4, #5]	@ zero_extendqisi2
 1819 05f0 13F0020F 		tst	r3, #2
 1820 05f4 0AF1010A 		add	r10, r10, #1
 1821 05f8 F1D0     		beq	.L480
 1822 05fa C7F800B0 		str	fp, [r7]
 1823 05fe EED0     		beq	.L480
 1824 0600 67E5     		b	.L394
 1825              	.L705:
 1826 0602 8246     		mov	r10, r0
 1827 0604 8346     		mov	fp, r0
 1828 0606 05E0     		b	.L477
 1829              	.L476:
 1830 0608 BDF91430 		ldrsh	r3, [sp, #20]
 1831 060c 5B42     		rsbs	r3, r3, #0
 1832 060e 9A45     		cmp	r10, r3
 1833 0610 BFF65FAD 		bge	.L394
 1834              	.L477:
 1835 0614 4846     		mov	r0, r9
 1836 0616 FFF7FEFF 		bl	lv_group_focus_prev
 1837 061a 6379     		ldrb	r3, [r4, #5]	@ zero_extendqisi2
 1838 061c 13F0020F 		tst	r3, #2
 1839 0620 0AF1010A 		add	r10, r10, #1
 1840 0624 F0D0     		beq	.L476
 1841 0626 C7F800B0 		str	fp, [r7]
 1842 062a EDD0     		beq	.L476
 1843 062c 51E5     		b	.L394
 1844              	.L694:
 1845 062e D346     		mov	fp, r10
 1846 0630 05E0     		b	.L470
 1847              	.L469:
 1848 0632 BDF91430 		ldrsh	r3, [sp, #20]
 1849 0636 5B42     		rsbs	r3, r3, #0
 1850 0638 9A45     		cmp	r10, r3
 1851 063a BFF64AAD 		bge	.L394
 1852              	.L470:
 1853 063e 1421     		movs	r1, #20
 1854 0640 4846     		mov	r0, r9
 1855 0642 FFF7FEFF 		bl	lv_group_send_data
 1856 0646 6379     		ldrb	r3, [r4, #5]	@ zero_extendqisi2
 1857 0648 13F0020F 		tst	r3, #2
 1858 064c 0AF1010A 		add	r10, r10, #1
 1859 0650 EFD0     		beq	.L469
 1860 0652 C7F800B0 		str	fp, [r7]
 1861 0656 ECD0     		beq	.L469
 1862 0658 3BE5     		b	.L394
 1863              	.L445:
 1864 065a 9807     		lsls	r0, r3, #30
 1865 065c 3268     		ldr	r2, [r6]
ARM GAS  /var/folders/lp/x54gwt890xv47sdkqj1k04q40000gn/T//cc9QG5rv.s 			page 33


 1866 065e C7F800A0 		str	r10, [r7]
 1867 0662 4FEA5301 		lsr	r1, r3, #1
 1868 0666 08D4     		bmi	.L666
 1869 0668 D807     		lsls	r0, r3, #31
 1870 066a 40F13881 		bpl	.L446
 1871              	.L449:
 1872 066e 0023     		movs	r3, #0
 1873 0670 3B60     		str	r3, [r7]
 1874              	.L450:
 1875 0672 C807     		lsls	r0, r1, #31
 1876 0674 3268     		ldr	r2, [r6]
 1877 0676 40F1F980 		bpl	.L447
 1878              	.L666:
 1879 067a 5379     		ldrb	r3, [r2, #5]	@ zero_extendqisi2
 1880 067c 1446     		mov	r4, r2
 1881 067e 2AE5     		b	.L340
 1882              	.L700:
 1883 0680 A06C     		ldr	r0, [r4, #72]
 1884 0682 FFF7FEFF 		bl	lv_tick_elaps
 1885 0686 2368     		ldr	r3, [r4]
 1886 0688 9B8B     		ldrh	r3, [r3, #28]
 1887 068a 9842     		cmp	r0, r3
 1888 068c 6379     		ldrb	r3, [r4, #5]	@ zero_extendqisi2
 1889 068e 00F2BA80 		bhi	.L706
 1890 0692 D907     		lsls	r1, r3, #31
 1891 0694 3FF5DFAE 		bmi	.L424
 1892 0698 2AE6     		b	.L660
 1893              	.L693:
 1894 069a FFF7FEFF 		bl	lv_obj_is_editable
 1895 069e 0028     		cmp	r0, #0
 1896 06a0 00F0D080 		beq	.L707
 1897              	.L444:
 1898 06a4 4846     		mov	r0, r9
 1899 06a6 FFF7FEFF 		bl	lv_group_get_editing
 1900 06aa 6379     		ldrb	r3, [r4, #5]	@ zero_extendqisi2
 1901 06ac 0028     		cmp	r0, #0
 1902 06ae 00F0F880 		beq	.L453
 1903 06b2 D907     		lsls	r1, r3, #31
 1904 06b4 05D5     		bpl	.L457
 1905 06b6 4846     		mov	r0, r9
 1906 06b8 FFF7FEFF 		bl	lv_group_get_obj_count
 1907 06bc 0128     		cmp	r0, #1
 1908 06be 00F24B81 		bhi	.L708
 1909              	.L457:
 1910 06c2 3268     		ldr	r2, [r6]
 1911 06c4 3868     		ldr	r0, [r7]
 1912 06c6 0821     		movs	r1, #8
 1913 06c8 FFF7FEFF 		bl	lv_event_send
 1914 06cc 6379     		ldrb	r3, [r4, #5]	@ zero_extendqisi2
 1915 06ce 9A07     		lsls	r2, r3, #30
 1916 06d0 01D5     		bpl	.L456
 1917 06d2 0022     		movs	r2, #0
 1918 06d4 3A60     		str	r2, [r7]
 1919              	.L456:
 1920 06d6 C3F3400A 		ubfx	r10, r3, #1, #1
 1921 06da 9B07     		lsls	r3, r3, #30
 1922 06dc 3268     		ldr	r2, [r6]
ARM GAS  /var/folders/lp/x54gwt890xv47sdkqj1k04q40000gn/T//cc9QG5rv.s 			page 34


 1923 06de CCD4     		bmi	.L666
 1924 06e0 0421     		movs	r1, #4
 1925 06e2 3868     		ldr	r0, [r7]
 1926 06e4 FFF7FEFF 		bl	lv_event_send
 1927 06e8 6379     		ldrb	r3, [r4, #5]	@ zero_extendqisi2
 1928 06ea 3268     		ldr	r2, [r6]
 1929 06ec 9807     		lsls	r0, r3, #30
 1930 06ee 48BF     		it	mi
 1931 06f0 C7F800A0 		strmi	r10, [r7]
 1932 06f4 9907     		lsls	r1, r3, #30
 1933 06f6 C3F3400A 		ubfx	r10, r3, #1, #1
 1934 06fa BED4     		bmi	.L666
 1935 06fc 3868     		ldr	r0, [r7]
 1936 06fe 0721     		movs	r1, #7
 1937 0700 FFF7FEFF 		bl	lv_event_send
 1938 0704 6379     		ldrb	r3, [r4, #5]	@ zero_extendqisi2
 1939 0706 9A07     		lsls	r2, r3, #30
 1940 0708 48BF     		it	mi
 1941 070a C7F800A0 		strmi	r10, [r7]
 1942 070e C3F3400A 		ubfx	r10, r3, #1, #1
 1943 0712 9B07     		lsls	r3, r3, #30
 1944 0714 3FF5DDAC 		bmi	.L394
 1945 0718 0A21     		movs	r1, #10
 1946 071a 4846     		mov	r0, r9
 1947 071c FFF7FEFF 		bl	lv_group_send_data
 1948 0720 6379     		ldrb	r3, [r4, #5]	@ zero_extendqisi2
 1949 0722 13F0020F 		tst	r3, #2
 1950 0726 3FF4DDAD 		beq	.L443
 1951 072a C7F800A0 		str	r10, [r7]
 1952 072e 7FF4D0AC 		bne	.L394
 1953 0732 D7E5     		b	.L443
 1954              	.L702:
 1955 0734 5946     		mov	r1, fp
 1956 0736 4846     		mov	r0, r9
 1957 0738 FFF7FEFF 		bl	lv_group_set_editing
 1958 073c 4846     		mov	r0, r9
 1959 073e FFF7FEFF 		bl	lv_group_focus_next
 1960 0742 6279     		ldrb	r2, [r4, #5]	@ zero_extendqisi2
 1961 0744 9007     		lsls	r0, r2, #30
 1962 0746 7FF575AE 		bpl	.L386
 1963              	.L674:
 1964 074a C7F800B0 		str	fp, [r7]
 1965 074e 71E6     		b	.L386
 1966              	.L703:
 1967 0750 5946     		mov	r1, fp
 1968 0752 4846     		mov	r0, r9
 1969 0754 FFF7FEFF 		bl	lv_group_set_editing
 1970 0758 4846     		mov	r0, r9
 1971 075a FFF7FEFF 		bl	lv_group_focus_prev
 1972 075e 6279     		ldrb	r2, [r4, #5]	@ zero_extendqisi2
 1973 0760 9107     		lsls	r1, r2, #30
 1974 0762 7FF567AE 		bpl	.L386
 1975 0766 F0E7     		b	.L674
 1976              	.L375:
 1977 0768 A06C     		ldr	r0, [r4, #72]
 1978 076a FFF7FEFF 		bl	lv_tick_elaps
 1979 076e 2368     		ldr	r3, [r4]
ARM GAS  /var/folders/lp/x54gwt890xv47sdkqj1k04q40000gn/T//cc9QG5rv.s 			page 35


 1980 0770 9B8B     		ldrh	r3, [r3, #28]
 1981 0772 9842     		cmp	r0, r3
 1982 0774 6379     		ldrb	r3, [r4, #5]	@ zero_extendqisi2
 1983 0776 15D9     		bls	.L377
 1984 0778 43F00103 		orr	r3, r3, #1
 1985 077c 6371     		strb	r3, [r4, #5]
 1986 077e 039B     		ldr	r3, [sp, #12]
 1987 0780 0A2B     		cmp	r3, #10
 1988 0782 7FF43BAD 		bne	.L357
 1989 0786 FFF7FEFF 		bl	lv_tick_get
 1990 078a 3268     		ldr	r2, [r6]
 1991 078c E064     		str	r0, [r4, #76]
 1992 078e 0521     		movs	r1, #5
 1993 0790 3868     		ldr	r0, [r7]
 1994 0792 FFF7FEFF 		bl	lv_event_send
 1995 0796 6279     		ldrb	r2, [r4, #5]	@ zero_extendqisi2
 1996 0798 9107     		lsls	r1, r2, #30
 1997 079a 7FF54BAE 		bpl	.L386
 1998 079e C7F800A0 		str	r10, [r7]
 1999 07a2 47E6     		b	.L386
 2000              	.L377:
 2001 07a4 DA07     		lsls	r2, r3, #31
 2002 07a6 7FF529AD 		bpl	.L357
 2003 07aa 26E6     		b	.L379
 2004              	.L690:
 2005 07ac 0821     		movs	r1, #8
 2006 07ae 3868     		ldr	r0, [r7]
 2007 07b0 0193     		str	r3, [sp, #4]
 2008 07b2 FFF7FEFF 		bl	lv_event_send
 2009 07b6 6179     		ldrb	r1, [r4, #5]	@ zero_extendqisi2
 2010 07b8 3268     		ldr	r2, [r6]
 2011 07ba 8B07     		lsls	r3, r1, #30
 2012 07bc 44BF     		itt	mi
 2013 07be 019B     		ldrmi	r3, [sp, #4]
 2014 07c0 3B60     		strmi	r3, [r7]
 2015 07c2 8807     		lsls	r0, r1, #30
 2016 07c4 3FF559AF 		bmi	.L666
 2017 07c8 11F00109 		ands	r9, r1, #1
 2018 07cc 3868     		ldr	r0, [r7]
 2019 07ce 0BD1     		bne	.L390
 2020 07d0 0421     		movs	r1, #4
 2021 07d2 FFF7FEFF 		bl	lv_event_send
 2022 07d6 6379     		ldrb	r3, [r4, #5]	@ zero_extendqisi2
 2023 07d8 9A07     		lsls	r2, r3, #30
 2024 07da 48BF     		it	mi
 2025 07dc C7F80090 		strmi	r9, [r7]
 2026 07e0 9B07     		lsls	r3, r3, #30
 2027 07e2 3268     		ldr	r2, [r6]
 2028 07e4 3FF549AF 		bmi	.L666
 2029              	.L390:
 2030 07e8 3268     		ldr	r2, [r6]
 2031 07ea 3868     		ldr	r0, [r7]
 2032 07ec 0721     		movs	r1, #7
 2033 07ee FFF7FEFF 		bl	lv_event_send
 2034 07f2 6379     		ldrb	r3, [r4, #5]	@ zero_extendqisi2
 2035 07f4 9807     		lsls	r0, r3, #30
 2036 07f6 44BF     		itt	mi
ARM GAS  /var/folders/lp/x54gwt890xv47sdkqj1k04q40000gn/T//cc9QG5rv.s 			page 36


 2037 07f8 0022     		movmi	r2, #0
 2038 07fa 3A60     		strmi	r2, [r7]
 2039 07fc 9907     		lsls	r1, r3, #30
 2040 07fe 3268     		ldr	r2, [r6]
 2041 0800 7FF5F6AC 		bpl	.L387
 2042 0804 39E7     		b	.L666
 2043              	.L706:
 2044 0806 43F00103 		orr	r3, r3, #1
 2045 080a 6371     		strb	r3, [r4, #5]
 2046 080c FFF7FEFF 		bl	lv_tick_get
 2047 0810 039B     		ldr	r3, [sp, #12]
 2048 0812 E064     		str	r0, [r4, #76]
 2049 0814 0A2B     		cmp	r3, #10
 2050 0816 77D0     		beq	.L709
 2051              	.L432:
 2052 0818 6379     		ldrb	r3, [r4, #5]	@ zero_extendqisi2
 2053 081a 43F00103 		orr	r3, r3, #1
 2054 081e 6371     		strb	r3, [r4, #5]
 2055 0820 BDF91430 		ldrsh	r3, [sp, #20]
 2056 0824 66E5     		b	.L412
 2057              	.L372:
 2058 0826 3268     		ldr	r2, [r6]
 2059 0828 3868     		ldr	r0, [r7]
 2060 082a 0221     		movs	r1, #2
 2061 082c FFF7FEFF 		bl	lv_event_send
 2062 0830 6379     		ldrb	r3, [r4, #5]	@ zero_extendqisi2
 2063 0832 13F0020F 		tst	r3, #2
 2064 0836 3FF4DCAD 		beq	.L373
 2065 083a C7F800A0 		str	r10, [r7]
 2066 083e 7FF448AC 		bne	.L394
 2067 0842 D6E5     		b	.L373
 2068              	.L707:
 2069 0844 3868     		ldr	r0, [r7]
 2070 0846 1021     		movs	r1, #16
 2071 0848 FFF7FEFF 		bl	lv_obj_has_flag
 2072 084c 8246     		mov	r10, r0
 2073 084e 0028     		cmp	r0, #0
 2074 0850 7FF428AF 		bne	.L444
 2075 0854 3268     		ldr	r2, [r6]
 2076 0856 3868     		ldr	r0, [r7]
 2077 0858 0821     		movs	r1, #8
 2078 085a FFF7FEFF 		bl	lv_event_send
 2079 085e 6379     		ldrb	r3, [r4, #5]	@ zero_extendqisi2
 2080 0860 9A07     		lsls	r2, r3, #30
 2081 0862 3FF5FAAE 		bmi	.L445
 2082 0866 DB07     		lsls	r3, r3, #31
 2083 0868 3268     		ldr	r2, [r6]
 2084 086a 38D5     		bpl	.L446
 2085              	.L447:
 2086 086c 3268     		ldr	r2, [r6]
 2087 086e 3868     		ldr	r0, [r7]
 2088 0870 0721     		movs	r1, #7
 2089 0872 FFF7FEFF 		bl	lv_event_send
 2090 0876 6379     		ldrb	r3, [r4, #5]	@ zero_extendqisi2
 2091 0878 13F0020F 		tst	r3, #2
 2092 087c 3FF432AD 		beq	.L443
 2093 0880 4FF00002 		mov	r2, #0
ARM GAS  /var/folders/lp/x54gwt890xv47sdkqj1k04q40000gn/T//cc9QG5rv.s 			page 37


 2094 0884 3A60     		str	r2, [r7]
 2095 0886 7FF424AC 		bne	.L394
 2096 088a 2BE5     		b	.L443
 2097              	.L409:
 2098 088c 3868     		ldr	r0, [r7]
 2099 088e 1021     		movs	r1, #16
 2100 0890 FFF7FEFF 		bl	lv_obj_has_flag
 2101 0894 0028     		cmp	r0, #0
 2102 0896 7FF48AAE 		bne	.L678
 2103 089a 4846     		mov	r0, r9
 2104 089c FFF7FEFF 		bl	lv_group_get_editing
 2105 08a0 8BE6     		b	.L411
 2106              	.L453:
 2107 08a2 D807     		lsls	r0, r3, #31
 2108 08a4 3FF51EAD 		bmi	.L443
 2109 08a8 0121     		movs	r1, #1
 2110 08aa 4846     		mov	r0, r9
 2111 08ac FFF7FEFF 		bl	lv_group_set_editing
 2112 08b0 18E5     		b	.L443
 2113              	.L704:
 2114 08b2 FFF7FEFF 		bl	lv_group_send_data
 2115 08b6 6379     		ldrb	r3, [r4, #5]	@ zero_extendqisi2
 2116 08b8 9A07     		lsls	r2, r3, #30
 2117 08ba 48BF     		it	mi
 2118 08bc C7F800A0 		strmi	r10, [r7]
 2119 08c0 9807     		lsls	r0, r3, #30
 2120 08c2 3268     		ldr	r2, [r6]
 2121 08c4 C3F34009 		ubfx	r9, r3, #1, #1
 2122 08c8 3FF5D7AE 		bmi	.L666
 2123 08cc 0121     		movs	r1, #1
 2124 08ce 3868     		ldr	r0, [r7]
 2125 08d0 FFF7FEFF 		bl	lv_event_send
 2126 08d4 6279     		ldrb	r2, [r4, #5]	@ zero_extendqisi2
 2127 08d6 9107     		lsls	r1, r2, #30
 2128 08d8 7FF5ACAD 		bpl	.L386
 2129 08dc FDE5     		b	.L675
 2130              	.L446:
 2131 08de 0421     		movs	r1, #4
 2132 08e0 3868     		ldr	r0, [r7]
 2133 08e2 FFF7FEFF 		bl	lv_event_send
 2134 08e6 6379     		ldrb	r3, [r4, #5]	@ zero_extendqisi2
 2135 08e8 5908     		lsrs	r1, r3, #1
 2136 08ea 9B07     		lsls	r3, r3, #30
 2137 08ec 3FF5BFAE 		bmi	.L449
 2138 08f0 BFE6     		b	.L450
 2139              	.L701:
 2140 08f2 3268     		ldr	r2, [r6]
 2141 08f4 3868     		ldr	r0, [r7]
 2142 08f6 0621     		movs	r1, #6
 2143 08f8 FFF7FEFF 		bl	lv_event_send
 2144 08fc 6379     		ldrb	r3, [r4, #5]	@ zero_extendqisi2
 2145 08fe 13F0020F 		tst	r3, #2
 2146 0902 3FF4F5AC 		beq	.L660
 2147 0906 23E6     		b	.L680
 2148              	.L709:
 2149 0908 3868     		ldr	r0, [r7]
 2150 090a FFF7FEFF 		bl	lv_obj_is_editable
ARM GAS  /var/folders/lp/x54gwt890xv47sdkqj1k04q40000gn/T//cc9QG5rv.s 			page 38


 2151 090e 28B9     		cbnz	r0, .L429
 2152 0910 3868     		ldr	r0, [r7]
 2153 0912 1021     		movs	r1, #16
 2154 0914 FFF7FEFF 		bl	lv_obj_has_flag
 2155 0918 0028     		cmp	r0, #0
 2156 091a 3AD0     		beq	.L710
 2157              	.L429:
 2158 091c 4846     		mov	r0, r9
 2159 091e FFF7FEFF 		bl	lv_group_get_obj_count
 2160 0922 0128     		cmp	r0, #1
 2161 0924 7FF678AF 		bls	.L432
 2162 0928 4846     		mov	r0, r9
 2163 092a FFF7FEFF 		bl	lv_group_get_editing
 2164 092e 80F00101 		eor	r1, r0, #1
 2165 0932 C9B2     		uxtb	r1, r1
 2166 0934 4846     		mov	r0, r9
 2167 0936 FFF7FEFF 		bl	lv_group_set_editing
 2168 093a 3868     		ldr	r0, [r7]
 2169 093c 2021     		movs	r1, #32
 2170 093e FFF7FEFF 		bl	lv_obj_clear_state
 2171 0942 69E7     		b	.L432
 2172              	.L696:
 2173 0944 3268     		ldr	r2, [r6]
 2174 0946 3868     		ldr	r0, [r7]
 2175 0948 0621     		movs	r1, #6
 2176 094a FFF7FEFF 		bl	lv_event_send
 2177 094e 6279     		ldrb	r2, [r4, #5]	@ zero_extendqisi2
 2178 0950 9307     		lsls	r3, r2, #30
 2179 0952 7FF56FAD 		bpl	.L386
 2180 0956 6BE5     		b	.L676
 2181              	.L708:
 2182 0958 3868     		ldr	r0, [r7]
 2183 095a 2021     		movs	r1, #32
 2184 095c FFF7FEFF 		bl	lv_obj_clear_state
 2185 0960 C0E4     		b	.L443
 2186              	.L698:
 2187 0962 0021     		movs	r1, #0
 2188 0964 4846     		mov	r0, r9
 2189 0966 FFF7FEFF 		bl	lv_group_set_editing
 2190 096a 4846     		mov	r0, r9
 2191 096c FFF7FEFF 		bl	lv_group_focus_prev
 2192 0970 6279     		ldrb	r2, [r4, #5]	@ zero_extendqisi2
 2193 0972 9007     		lsls	r0, r2, #30
 2194 0974 7FF55EAD 		bpl	.L386
 2195 0978 5AE5     		b	.L676
 2196              	.L697:
 2197 097a 0021     		movs	r1, #0
 2198 097c 4846     		mov	r0, r9
 2199 097e FFF7FEFF 		bl	lv_group_set_editing
 2200 0982 4846     		mov	r0, r9
 2201 0984 FFF7FEFF 		bl	lv_group_focus_next
 2202 0988 6279     		ldrb	r2, [r4, #5]	@ zero_extendqisi2
 2203 098a 9407     		lsls	r4, r2, #30
 2204 098c 7FF552AD 		bpl	.L386
 2205 0990 4EE5     		b	.L676
 2206              	.L710:
 2207 0992 3268     		ldr	r2, [r6]
ARM GAS  /var/folders/lp/x54gwt890xv47sdkqj1k04q40000gn/T//cc9QG5rv.s 			page 39


 2208 0994 3868     		ldr	r0, [r7]
 2209 0996 0521     		movs	r1, #5
 2210 0998 FFF7FEFF 		bl	lv_event_send
 2211 099c 6379     		ldrb	r3, [r4, #5]	@ zero_extendqisi2
 2212 099e 9A07     		lsls	r2, r3, #30
 2213 09a0 7FF53AAF 		bpl	.L432
 2214 09a4 0022     		movs	r2, #0
 2215 09a6 9807     		lsls	r0, r3, #30
 2216 09a8 3A60     		str	r2, [r7]
 2217 09aa 7FF535AF 		bpl	.L432
 2218 09ae FFF790BB 		b	.L394
 2220 09b2 00BF     		.section	.bss.indev_obj_act,"aw",%nobits
 2221              		.align	2
 2224              	indev_obj_act:
 2225 0000 00000000 		.space	4
 2226              		.section	.bss.indev_act,"aw",%nobits
 2227              		.align	2
 2230              	indev_act:
 2231 0000 00000000 		.space	4
 2232              		.ident	"GCC: (xPack GNU Arm Embedded GCC arm64) 13.3.1 20240614"
ARM GAS  /var/folders/lp/x54gwt890xv47sdkqj1k04q40000gn/T//cc9QG5rv.s 			page 40

