ARM GAS  /var/folders/lp/x54gwt890xv47sdkqj1k04q40000gn/T//cc3L5Qus.s 			page 1


   1              		.cpu cortex-m4
   2              		.arch armv7e-m
   3              		.fpu fpv4-sp-d16
   4              		.eabi_attribute 27, 1
   5              		.eabi_attribute 28, 1
   6              		.eabi_attribute 20, 1
   7              		.eabi_attribute 21, 1
   8              		.eabi_attribute 23, 3
   9              		.eabi_attribute 24, 1
  10              		.eabi_attribute 25, 1
  11              		.eabi_attribute 26, 1
  12              		.eabi_attribute 30, 2
  13              		.eabi_attribute 34, 1
  14              		.eabi_attribute 18, 4
  15              		.file	"lv_img.c"
  16              		.text
  17              		.section	.text.lv_img_get_transformed_size,"ax",%progbits
  18              		.align	1
  19              		.p2align 2,,3
  20              		.syntax unified
  21              		.thumb
  22              		.thumb_func
  24              	lv_img_get_transformed_size:
  25              		@ args = 0, pretend = 0, frame = 16
  26              		@ frame_needed = 0, uses_anonymous_args = 0
  27 0000 30B5     		push	{r4, r5, lr}
  28 0002 C48E     		ldrh	r4, [r0, #54]
  29 0004 B0F93030 		ldrsh	r3, [r0, #48]
  30 0008 B0F92E20 		ldrsh	r2, [r0, #46]
  31 000c B0F92C10 		ldrsh	r1, [r0, #44]
  32 0010 87B0     		sub	sp, sp, #28
  33 0012 00F13205 		add	r5, r0, #50
  34 0016 CDE90045 		strd	r4, r5, [sp]
  35 001a 04A8     		add	r0, sp, #16
  36 001c FFF7FEFF 		bl	_lv_img_buf_get_transformed_area
  37 0020 BDF81420 		ldrh	r2, [sp, #20]
  38 0024 BDF81630 		ldrh	r3, [sp, #22]
  39 0028 BDF810C0 		ldrh	ip, [sp, #16]
  40 002c BDF81210 		ldrh	r1, [sp, #18]
  41 0030 0132     		adds	r2, r2, #1
  42 0032 A2EB0C02 		sub	r2, r2, ip
  43 0036 0133     		adds	r3, r3, #1
  44 0038 5B1A     		subs	r3, r3, r1
  45 003a 92B2     		uxth	r2, r2
  46 003c 0020     		movs	r0, #0
  47 003e 62F30F00 		bfi	r0, r2, #0, #16
  48 0042 9BB2     		uxth	r3, r3
  49 0044 63F31F40 		bfi	r0, r3, #16, #16
  50 0048 07B0     		add	sp, sp, #28
  51              		@ sp needed
  52 004a 30BD     		pop	{r4, r5, pc}
  54              		.section	.text.lv_img_constructor,"ax",%progbits
  55              		.align	1
  56              		.p2align 2,,3
  57              		.syntax unified
  58              		.thumb
  59              		.thumb_func
ARM GAS  /var/folders/lp/x54gwt890xv47sdkqj1k04q40000gn/T//cc3L5Qus.s 			page 2


  61              	lv_img_constructor:
  62              		@ args = 0, pretend = 0, frame = 0
  63              		@ frame_needed = 0, uses_anonymous_args = 0
  64 0000 38B5     		push	{r3, r4, r5, lr}
  65 0002 91F83830 		ldrb	r3, [r1, #56]	@ zero_extendqisi2
  66 0006 23F07F03 		bic	r3, r3, #127
  67 000a 0025     		movs	r5, #0
  68 000c 43F00303 		orr	r3, r3, #3
  69 0010 4D62     		str	r5, [r1, #36]
  70 0012 81F83830 		strb	r3, [r1, #56]
  71 0016 0846     		mov	r0, r1
  72 0018 0C46     		mov	r4, r1
  73 001a FFF7FEFF 		bl	lv_obj_get_width
  74 001e A085     		strh	r0, [r4, #44]	@ movhi
  75 0020 2046     		mov	r0, r4
  76 0022 FFF7FEFF 		bl	lv_obj_get_height
  77 0026 238F     		ldrh	r3, [r4, #56]
  78 0028 E085     		strh	r0, [r4, #46]	@ movhi
  79 002a 23F46073 		bic	r3, r3, #896
  80 002e 43F08003 		orr	r3, r3, #128
  81 0032 4FF08072 		mov	r2, #16777216
  82 0036 2046     		mov	r0, r4
  83 0038 C4E90C52 		strd	r5, r2, [r4, #48]
  84 003c A562     		str	r5, [r4, #40]
  85 003e 2387     		strh	r3, [r4, #56]	@ movhi
  86 0040 0221     		movs	r1, #2
  87 0042 FFF7FEFF 		bl	lv_obj_clear_flag
  88 0046 2046     		mov	r0, r4
  89 0048 4FF48031 		mov	r1, #65536
  90 004c BDE83840 		pop	{r3, r4, r5, lr}
  91 0050 FFF7FEBF 		b	lv_obj_add_flag
  93              		.section	.text.lv_img_destructor,"ax",%progbits
  94              		.align	1
  95              		.p2align 2,,3
  96              		.syntax unified
  97              		.thumb
  98              		.thumb_func
 100              	lv_img_destructor:
 101              		@ args = 0, pretend = 0, frame = 0
 102              		@ frame_needed = 0, uses_anonymous_args = 0
 103 0000 91F83830 		ldrb	r3, [r1, #56]	@ zero_extendqisi2
 104 0004 03F00303 		and	r3, r3, #3
 105 0008 013B     		subs	r3, r3, #1
 106 000a 012B     		cmp	r3, #1
 107 000c 00D9     		bls	.L12
 108 000e 7047     		bx	lr
 109              	.L12:
 110 0010 10B5     		push	{r4, lr}
 111 0012 0C46     		mov	r4, r1
 112 0014 486A     		ldr	r0, [r1, #36]
 113 0016 FFF7FEFF 		bl	lv_mem_free
 114 001a 94F83830 		ldrb	r3, [r4, #56]	@ zero_extendqisi2
 115 001e 0022     		movs	r2, #0
 116 0020 43F00303 		orr	r3, r3, #3
 117 0024 6262     		str	r2, [r4, #36]
 118 0026 84F83830 		strb	r3, [r4, #56]
 119 002a 10BD     		pop	{r4, pc}
ARM GAS  /var/folders/lp/x54gwt890xv47sdkqj1k04q40000gn/T//cc3L5Qus.s 			page 3


 121              		.section	.text.lv_img_create,"ax",%progbits
 122              		.align	1
 123              		.p2align 2,,3
 124              		.global	lv_img_create
 125              		.syntax unified
 126              		.thumb
 127              		.thumb_func
 129              	lv_img_create:
 130              		@ args = 0, pretend = 0, frame = 0
 131              		@ frame_needed = 0, uses_anonymous_args = 0
 132 0000 10B5     		push	{r4, lr}
 133 0002 0146     		mov	r1, r0
 134 0004 0348     		ldr	r0, .L15
 135 0006 FFF7FEFF 		bl	lv_obj_class_create_obj
 136 000a 0446     		mov	r4, r0
 137 000c FFF7FEFF 		bl	lv_obj_class_init_obj
 138 0010 2046     		mov	r0, r4
 139 0012 10BD     		pop	{r4, pc}
 140              	.L16:
 141              		.align	2
 142              	.L15:
 143 0014 00000000 		.word	lv_img_class
 145              		.section	.text.lv_img_set_src,"ax",%progbits
 146              		.align	1
 147              		.p2align 2,,3
 148              		.global	lv_img_set_src
 149              		.syntax unified
 150              		.thumb
 151              		.thumb_func
 153              	lv_img_set_src:
 154              		@ args = 0, pretend = 0, frame = 8
 155              		@ frame_needed = 0, uses_anonymous_args = 0
 156 0000 2DE9F041 		push	{r4, r5, r6, r7, r8, lr}
 157 0004 0E46     		mov	r6, r1
 158 0006 86B0     		sub	sp, sp, #24
 159 0008 0446     		mov	r4, r0
 160 000a FFF7FEFF 		bl	lv_obj_invalidate
 161 000e 3046     		mov	r0, r6
 162 0010 FFF7FEFF 		bl	lv_img_src_get_type
 163 0014 0328     		cmp	r0, #3
 164 0016 4DD0     		beq	.L46
 165 0018 0546     		mov	r5, r0
 166 001a 04A9     		add	r1, sp, #16
 167 001c 3046     		mov	r0, r6
 168 001e FFF7FEFF 		bl	lv_img_decoder_get_info
 169 0022 002D     		cmp	r5, #0
 170 0024 3AD1     		bne	.L21
 171 0026 94F83830 		ldrb	r3, [r4, #56]	@ zero_extendqisi2
 172 002a 03F00303 		and	r3, r3, #3
 173 002e 013B     		subs	r3, r3, #1
 174 0030 012B     		cmp	r3, #1
 175 0032 40F2AC80 		bls	.L47
 176              	.L22:
 177 0036 049A     		ldr	r2, [sp, #16]
 178 0038 BDF81230 		ldrh	r3, [sp, #18]
 179 003c 6662     		str	r6, [r4, #36]
 180 003e C2F38A22 		ubfx	r2, r2, #10, #11
ARM GAS  /var/folders/lp/x54gwt890xv47sdkqj1k04q40000gn/T//cc3L5Qus.s 			page 4


 181 0042 C3F34A13 		ubfx	r3, r3, #5, #11
 182              	.L23:
 183 0046 0021     		movs	r1, #0
 184 0048 62F30F01 		bfi	r1, r2, #0, #16
 185 004c 63F31F41 		bfi	r1, r3, #16, #16
 186 0050 E162     		str	r1, [r4, #44]
 187 0052 9DF81010 		ldrb	r1, [sp, #16]	@ zero_extendqisi2
 188 0056 5210     		asrs	r2, r2, #1
 189 0058 6286     		strh	r2, [r4, #50]	@ movhi
 190 005a 05F00305 		and	r5, r5, #3
 191 005e C1F30402 		ubfx	r2, r1, #0, #5
 192 0062 45EA8205 		orr	r5, r5, r2, lsl #2
 193 0066 94F83820 		ldrb	r2, [r4, #56]	@ zero_extendqisi2
 194 006a 5B10     		asrs	r3, r3, #1
 195 006c A386     		strh	r3, [r4, #52]	@ movhi
 196 006e 22F07F03 		bic	r3, r2, #127
 197 0072 1D43     		orrs	r5, r5, r3
 198 0074 84F83850 		strb	r5, [r4, #56]
 199 0078 2046     		mov	r0, r4
 200 007a FFF7FEFF 		bl	lv_obj_refresh_self_size
 201 007e 238E     		ldrh	r3, [r4, #48]
 202 0080 1BB9     		cbnz	r3, .L32
 203 0082 E38E     		ldrh	r3, [r4, #54]
 204 0084 B3F5807F 		cmp	r3, #256
 205 0088 02D0     		beq	.L33
 206              	.L32:
 207 008a 2046     		mov	r0, r4
 208 008c FFF7FEFF 		bl	lv_obj_refresh_ext_draw_size
 209              	.L33:
 210 0090 2046     		mov	r0, r4
 211 0092 FFF7FEFF 		bl	lv_obj_invalidate
 212 0096 06B0     		add	sp, sp, #24
 213              		@ sp needed
 214 0098 BDE8F081 		pop	{r4, r5, r6, r7, r8, pc}
 215              	.L21:
 216 009c 6B1E     		subs	r3, r5, #1
 217 009e DBB2     		uxtb	r3, r3
 218 00a0 012B     		cmp	r3, #1
 219 00a2 19D9     		bls	.L24
 220              	.L45:
 221 00a4 049A     		ldr	r2, [sp, #16]
 222 00a6 BDF81230 		ldrh	r3, [sp, #18]
 223 00aa C2F38A22 		ubfx	r2, r2, #10, #11
 224 00ae C3F34A13 		ubfx	r3, r3, #5, #11
 225 00b2 C8E7     		b	.L23
 226              	.L46:
 227 00b4 94F83830 		ldrb	r3, [r4, #56]	@ zero_extendqisi2
 228 00b8 03F00303 		and	r3, r3, #3
 229 00bc 013B     		subs	r3, r3, #1
 230 00be 012B     		cmp	r3, #1
 231 00c0 61D9     		bls	.L48
 232              	.L19:
 233 00c2 94F83830 		ldrb	r3, [r4, #56]	@ zero_extendqisi2
 234 00c6 0022     		movs	r2, #0
 235 00c8 43F00303 		orr	r3, r3, #3
 236 00cc 6262     		str	r2, [r4, #36]
 237 00ce 84F83830 		strb	r3, [r4, #56]
ARM GAS  /var/folders/lp/x54gwt890xv47sdkqj1k04q40000gn/T//cc3L5Qus.s 			page 5


 238 00d2 06B0     		add	sp, sp, #24
 239              		@ sp needed
 240 00d4 BDE8F081 		pop	{r4, r5, r6, r7, r8, pc}
 241              	.L24:
 242 00d8 676A     		ldr	r7, [r4, #36]
 243 00da B742     		cmp	r7, r6
 244 00dc 1FD0     		beq	.L26
 245 00de 3046     		mov	r0, r6
 246 00e0 FFF7FEFF 		bl	strlen
 247 00e4 94F83830 		ldrb	r3, [r4, #56]	@ zero_extendqisi2
 248 00e8 03F00303 		and	r3, r3, #3
 249 00ec 013B     		subs	r3, r3, #1
 250 00ee 012B     		cmp	r3, #1
 251 00f0 00F10100 		add	r0, r0, #1
 252 00f4 05D9     		bls	.L49
 253 00f6 FFF7FEFF 		bl	lv_mem_alloc
 254 00fa 0746     		mov	r7, r0
 255 00fc 0028     		cmp	r0, #0
 256 00fe 4AD1     		bne	.L43
 257              	.L29:
 258              	.L42:
 259 0100 FEE7     		b	.L42
 260              	.L49:
 261 0102 FFF7FEFF 		bl	lv_mem_alloc
 262 0106 8046     		mov	r8, r0
 263 0108 0028     		cmp	r0, #0
 264 010a F9D0     		beq	.L29
 265 010c 3146     		mov	r1, r6
 266 010e FFF7FEFF 		bl	strcpy
 267 0112 C4F82480 		str	r8, [r4, #36]
 268 0116 17B1     		cbz	r7, .L26
 269 0118 3846     		mov	r0, r7
 270 011a FFF7FEFF 		bl	lv_mem_free
 271              	.L26:
 272 011e 022D     		cmp	r5, #2
 273 0120 C0D1     		bne	.L45
 274 0122 5722     		movs	r2, #87
 275 0124 0021     		movs	r1, #0
 276 0126 2046     		mov	r0, r4
 277 0128 FFF7FEFF 		bl	lv_obj_get_style_prop
 278 012c 5822     		movs	r2, #88
 279 012e 0746     		mov	r7, r0
 280 0130 0021     		movs	r1, #0
 281 0132 2046     		mov	r0, r4
 282 0134 FFF7FEFF 		bl	lv_obj_get_style_prop
 283 0138 5922     		movs	r2, #89
 284 013a 0FFA80F8 		sxth	r8, r0
 285 013e 0021     		movs	r1, #0
 286 0140 2046     		mov	r0, r4
 287 0142 FFF7FEFF 		bl	lv_obj_get_style_prop
 288 0146 00B2     		sxth	r0, r0
 289 0148 3146     		mov	r1, r6
 290 014a 0090     		str	r0, [sp]
 291 014c 0026     		movs	r6, #0
 292 014e 41F6FF70 		movw	r0, #8191
 293 0152 CDE90106 		strd	r0, r6, [sp, #4]
 294 0156 4346     		mov	r3, r8
ARM GAS  /var/folders/lp/x54gwt890xv47sdkqj1k04q40000gn/T//cc3L5Qus.s 			page 6


 295 0158 3A46     		mov	r2, r7
 296 015a 05A8     		add	r0, sp, #20
 297 015c FFF7FEFF 		bl	lv_txt_get_size
 298 0160 BDF81420 		ldrh	r2, [sp, #20]
 299 0164 0499     		ldr	r1, [sp, #16]
 300 0166 BDF81630 		ldrh	r3, [sp, #22]
 301 016a C2F30A02 		ubfx	r2, r2, #0, #11
 302 016e 62F39421 		bfi	r1, r2, #10, #11
 303 0172 0491     		str	r1, [sp, #16]
 304 0174 C3F30A03 		ubfx	r3, r3, #0, #11
 305 0178 C1F30F41 		ubfx	r1, r1, #16, #16
 306 017c 63F34F11 		bfi	r1, r3, #5, #11
 307 0180 ADF81210 		strh	r1, [sp, #18]	@ movhi
 308 0184 5FE7     		b	.L23
 309              	.L48:
 310 0186 606A     		ldr	r0, [r4, #36]
 311 0188 FFF7FEFF 		bl	lv_mem_free
 312 018c 99E7     		b	.L19
 313              	.L47:
 314 018e 606A     		ldr	r0, [r4, #36]
 315 0190 FFF7FEFF 		bl	lv_mem_free
 316 0194 4FE7     		b	.L22
 317              	.L43:
 318 0196 3146     		mov	r1, r6
 319 0198 FFF7FEFF 		bl	strcpy
 320 019c 6762     		str	r7, [r4, #36]
 321 019e BEE7     		b	.L26
 323              		.section	.text.lv_img_event,"ax",%progbits
 324              		.align	1
 325              		.p2align 2,,3
 326              		.syntax unified
 327              		.thumb
 328              		.thumb_func
 330              	lv_img_event:
 331              		@ args = 0, pretend = 0, frame = 88
 332              		@ frame_needed = 0, uses_anonymous_args = 0
 333 0000 2DE9F04F 		push	{r4, r5, r6, r7, r8, r9, r10, fp, lr}
 334 0004 0846     		mov	r0, r1
 335 0006 99B0     		sub	sp, sp, #100
 336 0008 0C46     		mov	r4, r1
 337 000a FFF7FEFF 		bl	lv_event_get_code
 338 000e 1528     		cmp	r0, #21
 339 0010 02D0     		beq	.L53
 340 0012 1828     		cmp	r0, #24
 341 0014 0546     		mov	r5, r0
 342 0016 14D1     		bne	.L128
 343              	.L53:
 344 0018 2046     		mov	r0, r4
 345 001a FFF7FEFF 		bl	lv_event_get_target
 346              	.L52:
 347 001e 2046     		mov	r0, r4
 348 0020 FFF7FEFF 		bl	lv_event_get_code
 349 0024 0646     		mov	r6, r0
 350 0026 2046     		mov	r0, r4
 351 0028 FFF7FEFF 		bl	lv_event_get_target
 352 002c 122E     		cmp	r6, #18
 353 002e 0546     		mov	r5, r0
ARM GAS  /var/folders/lp/x54gwt890xv47sdkqj1k04q40000gn/T//cc3L5Qus.s 			page 7


 354 0030 00F08E81 		beq	.L129
 355 0034 152E     		cmp	r6, #21
 356 0036 4DD0     		beq	.L74
 357 0038 182E     		cmp	r6, #24
 358 003a 4BD0     		beq	.L74
 359              	.L50:
 360 003c 19B0     		add	sp, sp, #100
 361              		@ sp needed
 362 003e BDE8F08F 		pop	{r4, r5, r6, r7, r8, r9, r10, fp, pc}
 363              	.L128:
 364 0042 C248     		ldr	r0, .L139
 365 0044 2146     		mov	r1, r4
 366 0046 FFF7FEFF 		bl	lv_obj_event_base
 367 004a 0128     		cmp	r0, #1
 368 004c F6D1     		bne	.L50
 369 004e 2046     		mov	r0, r4
 370 0050 FFF7FEFF 		bl	lv_event_get_target
 371 0054 113D     		subs	r5, r5, #17
 372 0056 0646     		mov	r6, r0
 373 0058 1B2D     		cmp	r5, #27
 374 005a EFD8     		bhi	.L50
 375 005c 01A3     		adr	r3, .L57
 376 005e 53F825F0 		ldr	pc, [r3, r5, lsl #2]
 377 0062 00BF     		.p2align 2
 378              	.L57:
 379 0064 1B030000 		.word	.L60+1
 380 0068 1F000000 		.word	.L52+1
 381 006c 93020000 		.word	.L59+1
 382 0070 3D000000 		.word	.L50+1
 383 0074 3D000000 		.word	.L50+1
 384 0078 3D000000 		.word	.L50+1
 385 007c 3D000000 		.word	.L50+1
 386 0080 1F000000 		.word	.L52+1
 387 0084 3D000000 		.word	.L50+1
 388 0088 3D000000 		.word	.L50+1
 389 008c 3D000000 		.word	.L50+1
 390 0090 3D000000 		.word	.L50+1
 391 0094 3D000000 		.word	.L50+1
 392 0098 3D000000 		.word	.L50+1
 393 009c 3D000000 		.word	.L50+1
 394 00a0 3D000000 		.word	.L50+1
 395 00a4 3D000000 		.word	.L50+1
 396 00a8 3D000000 		.word	.L50+1
 397 00ac 3D000000 		.word	.L50+1
 398 00b0 3D000000 		.word	.L50+1
 399 00b4 3D000000 		.word	.L50+1
 400 00b8 3D000000 		.word	.L50+1
 401 00bc 3D000000 		.word	.L50+1
 402 00c0 3D000000 		.word	.L50+1
 403 00c4 3D000000 		.word	.L50+1
 404 00c8 7B020000 		.word	.L58+1
 405 00cc 3D000000 		.word	.L50+1
 406 00d0 5B020000 		.word	.L56+1
 407              		.p2align 1
 408              	.L74:
 409 00d4 2846     		mov	r0, r5
 410 00d6 FFF7FEFF 		bl	lv_obj_get_width
ARM GAS  /var/folders/lp/x54gwt890xv47sdkqj1k04q40000gn/T//cc3L5Qus.s 			page 8


 411 00da 8046     		mov	r8, r0
 412 00dc 2846     		mov	r0, r5
 413 00de FFF7FEFF 		bl	lv_obj_get_height
 414 00e2 3222     		movs	r2, #50
 415 00e4 0021     		movs	r1, #0
 416 00e6 8146     		mov	r9, r0
 417 00e8 2846     		mov	r0, r5
 418 00ea FFF7FEFF 		bl	lv_obj_get_style_prop
 419 00ee 1222     		movs	r2, #18
 420 00f0 0746     		mov	r7, r0
 421 00f2 0021     		movs	r1, #0
 422 00f4 2846     		mov	r0, r5
 423 00f6 FFF7FEFF 		bl	lv_obj_get_style_prop
 424 00fa BFB2     		uxth	r7, r7
 425 00fc 3844     		add	r0, r0, r7
 426 00fe 1FFA80FB 		uxth	fp, r0
 427 0102 1322     		movs	r2, #19
 428 0104 0021     		movs	r1, #0
 429 0106 2846     		mov	r0, r5
 430 0108 FFF7FEFF 		bl	lv_obj_get_style_prop
 431 010c 1022     		movs	r2, #16
 432 010e 0290     		str	r0, [sp, #8]
 433 0110 0021     		movs	r1, #0
 434 0112 2846     		mov	r0, r5
 435 0114 FFF7FEFF 		bl	lv_obj_get_style_prop
 436 0118 3844     		add	r0, r0, r7
 437 011a 1FFA80FA 		uxth	r10, r0
 438 011e 1122     		movs	r2, #17
 439 0120 0021     		movs	r1, #0
 440 0122 2846     		mov	r0, r5
 441 0124 FFF7FEFF 		bl	lv_obj_get_style_prop
 442 0128 6B8E     		ldrh	r3, [r5, #50]
 443 012a 0390     		str	r0, [sp, #12]
 444 012c 5B44     		add	r3, r3, fp
 445 012e ADF82030 		strh	r3, [sp, #32]	@ movhi
 446 0132 AB8E     		ldrh	r3, [r5, #52]
 447 0134 5344     		add	r3, r3, r10
 448 0136 ADF82230 		strh	r3, [sp, #34]	@ movhi
 449 013a 95F83930 		ldrb	r3, [r5, #57]	@ zero_extendqisi2
 450 013e 03F00303 		and	r3, r3, #3
 451 0142 012B     		cmp	r3, #1
 452 0144 00F05D81 		beq	.L130
 453 0148 08A8     		add	r0, sp, #32
 454 014a B5F93030 		ldrsh	r3, [r5, #48]
 455 014e 0190     		str	r0, [sp, #4]
 456 0150 E88E     		ldrh	r0, [r5, #54]
 457 0152 0090     		str	r0, [sp]
 458 0154 4A46     		mov	r2, r9
 459 0156 4146     		mov	r1, r8
 460 0158 0AA8     		add	r0, sp, #40
 461 015a FFF7FEFF 		bl	_lv_img_buf_get_transformed_area
 462 015e A98A     		ldrh	r1, [r5, #20]
 463 0160 BDF82800 		ldrh	r0, [sp, #40]
 464 0164 D5F81490 		ldr	r9, [r5, #20]
 465 0168 0844     		add	r0, r0, r1
 466 016a 0022     		movs	r2, #0
 467 016c 1346     		mov	r3, r2
ARM GAS  /var/folders/lp/x54gwt890xv47sdkqj1k04q40000gn/T//cc3L5Qus.s 			page 9


 468 016e 60F30F02 		bfi	r2, r0, #0, #16
 469 0172 BDF82C00 		ldrh	r0, [sp, #44]
 470 0176 0144     		add	r1, r1, r0
 471 0178 61F30F03 		bfi	r3, r1, #0, #16
 472 017c BDF82A00 		ldrh	r0, [sp, #42]
 473 0180 E98A     		ldrh	r1, [r5, #22]
 474 0182 0844     		add	r0, r0, r1
 475 0184 60F31F42 		bfi	r2, r0, #16, #16
 476 0188 BDF82E00 		ldrh	r0, [sp, #46]
 477 018c 0A92     		str	r2, [sp, #40]
 478 018e 0144     		add	r1, r1, r0
 479 0190 61F31F43 		bfi	r3, r1, #16, #16
 480 0194 0B93     		str	r3, [sp, #44]
 481              	.L76:
 482 0196 D5F81880 		ldr	r8, [r5, #24]
 483 019a 6C48     		ldr	r0, .L139
 484 019c 6A61     		str	r2, [r5, #20]
 485 019e AB61     		str	r3, [r5, #24]
 486 01a0 2146     		mov	r1, r4
 487 01a2 FFF7FEFF 		bl	lv_obj_event_base
 488 01a6 0128     		cmp	r0, #1
 489 01a8 7FF448AF 		bne	.L50
 490 01ac 152E     		cmp	r6, #21
 491 01ae C5E90598 		strd	r9, r8, [r5, #20]
 492 01b2 7FF443AF 		bne	.L50
 493 01b6 B5F92E30 		ldrsh	r3, [r5, #46]
 494 01ba 002B     		cmp	r3, #0
 495 01bc 3FF43EAF 		beq	.L50
 496 01c0 B5F92C30 		ldrsh	r3, [r5, #44]
 497 01c4 002B     		cmp	r3, #0
 498 01c6 3FF439AF 		beq	.L50
 499 01ca EB8E     		ldrh	r3, [r5, #54]
 500 01cc 002B     		cmp	r3, #0
 501 01ce 3FF435AF 		beq	.L50
 502 01d2 2046     		mov	r0, r4
 503 01d4 FFF7FEFF 		bl	lv_event_get_draw_ctx
 504 01d8 B5F91830 		ldrsh	r3, [r5, #24]
 505 01dc 0693     		str	r3, [sp, #24]
 506 01de 0446     		mov	r4, r0
 507 01e0 2846     		mov	r0, r5
 508 01e2 B5F91480 		ldrsh	r8, [r5, #20]
 509 01e6 B5F91660 		ldrsh	r6, [r5, #22]
 510 01ea B5F91A90 		ldrsh	r9, [r5, #26]
 511 01ee FFF7FEFF 		bl	lv_img_get_transformed_size
 512 01f2 95F83910 		ldrb	r1, [r5, #57]	@ zero_extendqisi2
 513 01f6 0990     		str	r0, [sp, #36]
 514 01f8 03B2     		sxth	r3, r0
 515 01fa 01F00301 		and	r1, r1, #3
 516 01fe 0493     		str	r3, [sp, #16]
 517 0200 0129     		cmp	r1, #1
 518 0202 4FEA2043 		asr	r3, r0, #16
 519 0206 0593     		str	r3, [sp, #20]
 520 0208 069B     		ldr	r3, [sp, #24]
 521 020a 00F01E82 		beq	.L131
 522 020e BDF82820 		ldrh	r2, [sp, #40]
 523 0212 BDF82C30 		ldrh	r3, [sp, #44]
 524 0216 BDF82A10 		ldrh	r1, [sp, #42]
ARM GAS  /var/folders/lp/x54gwt890xv47sdkqj1k04q40000gn/T//cc3L5Qus.s 			page 10


 525 021a 9B1A     		subs	r3, r3, r2
 526 021c BDF82E20 		ldrh	r2, [sp, #46]
 527 0220 1FFA88F8 		uxth	r8, r8
 528 0224 B6B2     		uxth	r6, r6
 529 0226 521A     		subs	r2, r2, r1
 530 0228 4344     		add	r3, r3, r8
 531 022a 3244     		add	r2, r2, r6
 532 022c 9BB2     		uxth	r3, r3
 533 022e 1FFA82F9 		uxth	r9, r2
 534              	.L79:
 535 0232 95F83820 		ldrb	r2, [r5, #56]	@ zero_extendqisi2
 536 0236 12F00201 		ands	r1, r2, #2
 537 023a 00F05281 		beq	.L132
 538 023e 02F00302 		and	r2, r2, #3
 539 0242 022A     		cmp	r2, #2
 540 0244 05F11406 		add	r6, r5, #20
 541 0248 00F02082 		beq	.L133
 542 024c 0023     		movs	r3, #0
 543 024e 3246     		mov	r2, r6
 544 0250 1946     		mov	r1, r3
 545 0252 2046     		mov	r0, r4
 546 0254 FFF7FEFF 		bl	lv_draw_img
 547 0258 F0E6     		b	.L50
 548              	.L56:
 549 025a 2046     		mov	r0, r4
 550 025c FFF7FEFF 		bl	lv_event_get_param
 551 0260 96F83930 		ldrb	r3, [r6, #57]	@ zero_extendqisi2
 552 0264 03F00303 		and	r3, r3, #3
 553 0268 012B     		cmp	r3, #1
 554 026a 0446     		mov	r4, r0
 555 026c 00F01E81 		beq	.L134
 556 0270 F36A     		ldr	r3, [r6, #44]
 557 0272 0360     		str	r3, [r0]	@ unaligned
 558 0274 19B0     		add	sp, sp, #100
 559              		@ sp needed
 560 0276 BDE8F08F 		pop	{r4, r5, r6, r7, r8, r9, r10, fp, pc}
 561              	.L58:
 562 027a 90F83830 		ldrb	r3, [r0, #56]	@ zero_extendqisi2
 563 027e 03F00303 		and	r3, r3, #3
 564 0282 022B     		cmp	r3, #2
 565 0284 00F00C81 		beq	.L135
 566 0288 19B0     		add	sp, sp, #100
 567              		@ sp needed
 568 028a BDE8F04F 		pop	{r4, r5, r6, r7, r8, r9, r10, fp, lr}
 569 028e FFF7FEBF 		b	lv_obj_refresh_ext_draw_size
 570              	.L59:
 571 0292 2046     		mov	r0, r4
 572 0294 FFF7FEFF 		bl	lv_event_get_param
 573 0298 338E     		ldrh	r3, [r6, #48]
 574 029a 0546     		mov	r5, r0
 575 029c 23B9     		cbnz	r3, .L62
 576 029e F38E     		ldrh	r3, [r6, #54]
 577 02a0 B3F5807F 		cmp	r3, #256
 578 02a4 3FF4CAAE 		beq	.L50
 579              	.L62:
 580 02a8 3046     		mov	r0, r6
 581 02aa FFF7FEFF 		bl	lv_obj_get_width
ARM GAS  /var/folders/lp/x54gwt890xv47sdkqj1k04q40000gn/T//cc3L5Qus.s 			page 11


 582 02ae 8046     		mov	r8, r0
 583 02b0 3046     		mov	r0, r6
 584 02b2 FFF7FEFF 		bl	lv_obj_get_height
 585 02b6 06F13202 		add	r2, r6, #50
 586 02ba B6F93030 		ldrsh	r3, [r6, #48]
 587 02be 0192     		str	r2, [sp, #4]
 588 02c0 F28E     		ldrh	r2, [r6, #54]
 589 02c2 0092     		str	r2, [sp]
 590 02c4 0746     		mov	r7, r0
 591 02c6 0246     		mov	r2, r0
 592 02c8 4146     		mov	r1, r8
 593 02ca 10A8     		add	r0, sp, #64
 594 02cc FFF7FEFF 		bl	_lv_img_buf_get_transformed_area
 595 02d0 BDF94030 		ldrsh	r3, [sp, #64]
 596 02d4 B5F90020 		ldrsh	r2, [r5]
 597 02d8 5B42     		rsbs	r3, r3, #0
 598 02da 9342     		cmp	r3, r2
 599 02dc B8BF     		it	lt
 600 02de 1346     		movlt	r3, r2
 601 02e0 1BB2     		sxth	r3, r3
 602 02e2 2B80     		strh	r3, [r5]	@ movhi
 603 02e4 BDF94240 		ldrsh	r4, [sp, #66]
 604 02e8 6442     		rsbs	r4, r4, #0
 605 02ea 9C42     		cmp	r4, r3
 606 02ec B8BF     		it	lt
 607 02ee 1C46     		movlt	r4, r3
 608 02f0 24B2     		sxth	r4, r4
 609 02f2 2C80     		strh	r4, [r5]	@ movhi
 610 02f4 BDF94430 		ldrsh	r3, [sp, #68]
 611 02f8 A3EB0803 		sub	r3, r3, r8
 612 02fc A342     		cmp	r3, r4
 613 02fe B8BF     		it	lt
 614 0300 2346     		movlt	r3, r4
 615 0302 1BB2     		sxth	r3, r3
 616 0304 2B80     		strh	r3, [r5]	@ movhi
 617 0306 BDF94620 		ldrsh	r2, [sp, #70]
 618 030a D21B     		subs	r2, r2, r7
 619 030c 9A42     		cmp	r2, r3
 620 030e B8BF     		it	lt
 621 0310 1A46     		movlt	r2, r3
 622 0312 2A80     		strh	r2, [r5]	@ movhi
 623 0314 19B0     		add	sp, sp, #100
 624              		@ sp needed
 625 0316 BDE8F08F 		pop	{r4, r5, r6, r7, r8, r9, r10, fp, pc}
 626              	.L60:
 627 031a 2046     		mov	r0, r4
 628 031c FFF7FEFF 		bl	lv_event_get_param
 629 0320 0446     		mov	r4, r0
 630 0322 3046     		mov	r0, r6
 631 0324 B6F92C50 		ldrsh	r5, [r6, #44]
 632 0328 FFF7FEFF 		bl	lv_obj_get_width
 633 032c 8542     		cmp	r5, r0
 634 032e 71D0     		beq	.L136
 635              	.L64:
 636 0330 10A9     		add	r1, sp, #64
 637 0332 3046     		mov	r0, r6
 638 0334 FFF7FEFF 		bl	lv_obj_get_click_area
ARM GAS  /var/folders/lp/x54gwt890xv47sdkqj1k04q40000gn/T//cc3L5Qus.s 			page 12


 639 0338 2168     		ldr	r1, [r4]
 640 033a 0022     		movs	r2, #0
 641 033c 10A8     		add	r0, sp, #64
 642 033e FFF7FEFF 		bl	_lv_area_is_point_on
 643 0342 2071     		strb	r0, [r4, #4]
 644 0344 19B0     		add	sp, sp, #100
 645              		@ sp needed
 646 0346 BDE8F08F 		pop	{r4, r5, r6, r7, r8, r9, r10, fp, pc}
 647              	.L140:
 648 034a 00BF     		.align	2
 649              	.L139:
 650 034c 00000000 		.word	lv_img_class
 651              	.L129:
 652 0350 2046     		mov	r0, r4
 653 0352 FFF7FEFF 		bl	lv_event_get_param
 654 0356 0378     		ldrb	r3, [r0]	@ zero_extendqisi2
 655 0358 022B     		cmp	r3, #2
 656 035a 0646     		mov	r6, r0
 657 035c 3FF46EAE 		beq	.L50
 658 0360 95F83830 		ldrb	r3, [r5, #56]	@ zero_extendqisi2
 659 0364 9A07     		lsls	r2, r3, #30
 660 0366 49D4     		bmi	.L127
 661 0368 03F07C03 		and	r3, r3, #124
 662 036c 102B     		cmp	r3, #16
 663 036e 01D0     		beq	.L69
 664 0370 042B     		cmp	r3, #4
 665 0372 43D1     		bne	.L127
 666              	.L69:
 667 0374 4622     		movs	r2, #70
 668 0376 0021     		movs	r1, #0
 669 0378 2846     		mov	r0, r5
 670 037a FFF7FEFF 		bl	lv_obj_get_style_prop
 671 037e C3B2     		uxtb	r3, r0
 672 0380 FF2B     		cmp	r3, #255
 673 0382 3BD1     		bne	.L127
 674 0384 2F8E     		ldrh	r7, [r5, #48]
 675 0386 002F     		cmp	r7, #0
 676 0388 38D1     		bne	.L127
 677 038a 2046     		mov	r0, r4
 678 038c FFF7FEFF 		bl	lv_event_get_param
 679 0390 EB8E     		ldrh	r3, [r5, #54]
 680 0392 B3F5807F 		cmp	r3, #256
 681 0396 8046     		mov	r8, r0
 682 0398 00F09A80 		beq	.L137
 683 039c 2846     		mov	r0, r5
 684 039e FFF7FEFF 		bl	lv_obj_get_width
 685 03a2 0446     		mov	r4, r0
 686 03a4 2846     		mov	r0, r5
 687 03a6 FFF7FEFF 		bl	lv_obj_get_height
 688 03aa 05F13203 		add	r3, r5, #50
 689 03ae 0193     		str	r3, [sp, #4]
 690 03b0 EB8E     		ldrh	r3, [r5, #54]
 691 03b2 0093     		str	r3, [sp]
 692 03b4 0246     		mov	r2, r0
 693 03b6 2146     		mov	r1, r4
 694 03b8 3B46     		mov	r3, r7
 695 03ba 10A8     		add	r0, sp, #64
ARM GAS  /var/folders/lp/x54gwt890xv47sdkqj1k04q40000gn/T//cc3L5Qus.s 			page 13


 696 03bc FFF7FEFF 		bl	_lv_img_buf_get_transformed_area
 697 03c0 AC8A     		ldrh	r4, [r5, #20]
 698 03c2 EB8A     		ldrh	r3, [r5, #22]
 699 03c4 BDF84050 		ldrh	r5, [sp, #64]
 700 03c8 2544     		add	r5, r5, r4
 701 03ca ADF84050 		strh	r5, [sp, #64]	@ movhi
 702 03ce BDF84250 		ldrh	r5, [sp, #66]
 703 03d2 1D44     		add	r5, r5, r3
 704 03d4 ADF84250 		strh	r5, [sp, #66]	@ movhi
 705 03d8 BDF84450 		ldrh	r5, [sp, #68]
 706 03dc 2C44     		add	r4, r4, r5
 707 03de ADF84440 		strh	r4, [sp, #68]	@ movhi
 708 03e2 BDF84640 		ldrh	r4, [sp, #70]
 709 03e6 3A46     		mov	r2, r7
 710 03e8 2344     		add	r3, r3, r4
 711 03ea 10A9     		add	r1, sp, #64
 712 03ec 4046     		mov	r0, r8
 713 03ee ADF84630 		strh	r3, [sp, #70]	@ movhi
 714 03f2 FFF7FEFF 		bl	_lv_area_is_in
 715 03f6 0028     		cmp	r0, #0
 716 03f8 7FF420AE 		bne	.L50
 717              	.L127:
 718 03fc 0123     		movs	r3, #1
 719 03fe 3370     		strb	r3, [r6]
 720 0400 1CE6     		b	.L50
 721              	.L130:
 722 0402 0AA9     		add	r1, sp, #40
 723 0404 2846     		mov	r0, r5
 724 0406 FFF7FEFF 		bl	lv_obj_get_coords
 725 040a DDE90A23 		ldrd	r2, r3, [sp, #40]
 726 040e D5F81490 		ldr	r9, [r5, #20]
 727 0412 C0E6     		b	.L76
 728              	.L136:
 729 0414 3046     		mov	r0, r6
 730 0416 B6F92E50 		ldrsh	r5, [r6, #46]
 731 041a FFF7FEFF 		bl	lv_obj_get_height
 732 041e 8542     		cmp	r5, r0
 733 0420 86D1     		bne	.L64
 734 0422 F38E     		ldrh	r3, [r6, #54]
 735 0424 B3F5807F 		cmp	r3, #256
 736 0428 0AD1     		bne	.L65
 737 042a 338E     		ldrh	r3, [r6, #48]
 738 042c 43B9     		cbnz	r3, .L65
 739 042e B6F92C30 		ldrsh	r3, [r6, #44]
 740 0432 B6F93220 		ldrsh	r2, [r6, #50]
 741 0436 03EBD373 		add	r3, r3, r3, lsr #31
 742 043a B2EB630F 		cmp	r2, r3, asr #1
 743 043e 3DD0     		beq	.L138
 744              	.L65:
 745 0440 3046     		mov	r0, r6
 746 0442 FFF7FEFF 		bl	lv_obj_get_width
 747 0446 0546     		mov	r5, r0
 748 0448 3046     		mov	r0, r6
 749 044a FFF7FEFF 		bl	lv_obj_get_height
 750 044e 0246     		mov	r2, r0
 751 0450 06F13200 		add	r0, r6, #50
 752 0454 B6F93030 		ldrsh	r3, [r6, #48]
ARM GAS  /var/folders/lp/x54gwt890xv47sdkqj1k04q40000gn/T//cc3L5Qus.s 			page 14


 753 0458 0190     		str	r0, [sp, #4]
 754 045a F08E     		ldrh	r0, [r6, #54]
 755 045c 0090     		str	r0, [sp]
 756 045e 2946     		mov	r1, r5
 757 0460 10A8     		add	r0, sp, #64
 758 0462 FFF7FEFF 		bl	_lv_img_buf_get_transformed_area
 759 0466 B28A     		ldrh	r2, [r6, #20]
 760 0468 BDF84010 		ldrh	r1, [sp, #64]
 761 046c F38A     		ldrh	r3, [r6, #22]
 762 046e 1144     		add	r1, r1, r2
 763 0470 ADF84010 		strh	r1, [sp, #64]	@ movhi
 764 0474 BDF84210 		ldrh	r1, [sp, #66]
 765 0478 1944     		add	r1, r1, r3
 766 047a ADF84210 		strh	r1, [sp, #66]	@ movhi
 767 047e BDF84410 		ldrh	r1, [sp, #68]
 768 0482 0A44     		add	r2, r2, r1
 769 0484 BDF84610 		ldrh	r1, [sp, #70]
 770 0488 ADF84420 		strh	r2, [sp, #68]	@ movhi
 771 048c 0B44     		add	r3, r3, r1
 772 048e 10A8     		add	r0, sp, #64
 773 0490 2168     		ldr	r1, [r4]
 774 0492 ADF84630 		strh	r3, [sp, #70]	@ movhi
 775 0496 0022     		movs	r2, #0
 776 0498 FFF7FEFF 		bl	_lv_area_is_point_on
 777 049c 2071     		strb	r0, [r4, #4]
 778 049e CDE5     		b	.L50
 779              	.L135:
 780 04a0 416A     		ldr	r1, [r0, #36]
 781 04a2 19B0     		add	sp, sp, #100
 782              		@ sp needed
 783 04a4 BDE8F04F 		pop	{r4, r5, r6, r7, r8, r9, r10, fp, lr}
 784 04a8 FFF7FEBF 		b	lv_img_set_src
 785              	.L134:
 786 04ac 3046     		mov	r0, r6
 787 04ae FFF7FEFF 		bl	lv_img_get_transformed_size
 788 04b2 C0F30F43 		ubfx	r3, r0, #16, #16
 789 04b6 2080     		strh	r0, [r4]	@ movhi
 790 04b8 6380     		strh	r3, [r4, #2]	@ movhi
 791 04ba BFE5     		b	.L50
 792              	.L138:
 793 04bc B6F92E30 		ldrsh	r3, [r6, #46]
 794 04c0 B6F93420 		ldrsh	r2, [r6, #52]
 795 04c4 03EBD373 		add	r3, r3, r3, lsr #31
 796 04c8 B2EB630F 		cmp	r2, r3, asr #1
 797 04cc B8D1     		bne	.L65
 798 04ce 2FE7     		b	.L64
 799              	.L137:
 800 04d0 3A46     		mov	r2, r7
 801 04d2 05F11401 		add	r1, r5, #20
 802 04d6 FFF7FEFF 		bl	_lv_area_is_in
 803 04da 0028     		cmp	r0, #0
 804 04dc 7FF4AEAD 		bne	.L50
 805 04e0 8CE7     		b	.L127
 806              	.L132:
 807 04e2 029A     		ldr	r2, [sp, #8]
 808 04e4 CDE90631 		strd	r3, r1, [sp, #24]
 809 04e8 039B     		ldr	r3, [sp, #12]
ARM GAS  /var/folders/lp/x54gwt890xv47sdkqj1k04q40000gn/T//cc3L5Qus.s 			page 15


 810 04ea 3A44     		add	r2, r2, r7
 811 04ec 10A8     		add	r0, sp, #64
 812 04ee 1F44     		add	r7, r7, r3
 813 04f0 93B2     		uxth	r3, r2
 814 04f2 0293     		str	r3, [sp, #8]
 815 04f4 FFF7FEFF 		bl	lv_draw_img_dsc_init
 816 04f8 0799     		ldr	r1, [sp, #28]
 817 04fa 10AA     		add	r2, sp, #64
 818 04fc 2846     		mov	r0, r5
 819 04fe FFF7FEFF 		bl	lv_obj_init_draw_img_dsc
 820 0502 EA8E     		ldrh	r2, [r5, #54]
 821 0504 ADF84220 		strh	r2, [sp, #66]	@ movhi
 822 0508 2A8E     		ldrh	r2, [r5, #48]
 823 050a ADF84020 		strh	r2, [sp, #64]	@ movhi
 824 050e D5F83220 		ldr	r2, [r5, #50]	@ unaligned
 825 0512 1192     		str	r2, [sp, #68]
 826 0514 95F83820 		ldrb	r2, [r5, #56]	@ zero_extendqisi2
 827 0518 9DF85410 		ldrb	r1, [sp, #84]	@ zero_extendqisi2
 828 051c 029B     		ldr	r3, [sp, #8]
 829 051e D209     		lsrs	r2, r2, #7
 830 0520 62F30001 		bfi	r1, r2, #0, #1
 831 0524 BDF82820 		ldrh	r2, [sp, #40]
 832 0528 8DF85410 		strb	r1, [sp, #84]
 833 052c 5A44     		add	r2, r2, fp
 834 052e ADF83020 		strh	r2, [sp, #48]	@ movhi
 835 0532 BDF82A20 		ldrh	r2, [sp, #42]
 836 0536 5244     		add	r2, r2, r10
 837 0538 ADF83220 		strh	r2, [sp, #50]	@ movhi
 838 053c BDF82C20 		ldrh	r2, [sp, #44]
 839 0540 D21A     		subs	r2, r2, r3
 840 0542 ADF83420 		strh	r2, [sp, #52]	@ movhi
 841 0546 BDF82E20 		ldrh	r2, [sp, #46]
 842 054a A368     		ldr	r3, [r4, #8]
 843 054c 0393     		str	r3, [sp, #12]
 844 054e BFB2     		uxth	r7, r7
 845 0550 D21B     		subs	r2, r2, r7
 846 0552 ADF83620 		strh	r2, [sp, #54]	@ movhi
 847 0556 0CAA     		add	r2, sp, #48
 848 0558 1946     		mov	r1, r3
 849 055a 1046     		mov	r0, r2
 850 055c FFF7FEFF 		bl	_lv_area_intersect
 851 0560 0028     		cmp	r0, #0
 852 0562 3FF46BAD 		beq	.L50
 853 0566 0CAA     		add	r2, sp, #48
 854 0568 B5F92E00 		ldrsh	r0, [r5, #46]
 855 056c A260     		str	r2, [r4, #8]
 856 056e B5F92A20 		ldrsh	r2, [r5, #42]
 857 0572 92FBF0F1 		sdiv	r1, r2, r0
 858 0576 5644     		add	r6, r6, r10
 859 0578 00FB1121 		mls	r1, r0, r1, r2
 860 057c 11FA86F1 		uxtah	r1, r1, r6
 861 0580 0FFA86FC 		sxth	ip, r6
 862 0584 0EB2     		sxth	r6, r1
 863 0586 B445     		cmp	ip, r6
 864 0588 89B2     		uxth	r1, r1
 865 058a 80B2     		uxth	r0, r0
 866 058c BCBF     		itt	lt
ARM GAS  /var/folders/lp/x54gwt890xv47sdkqj1k04q40000gn/T//cc3L5Qus.s 			page 16


 867 058e 091A     		sublt	r1, r1, r0
 868 0590 0EB2     		sxthlt	r6, r1
 869 0592 A9EB0707 		sub	r7, r9, r7
 870 0596 B5F92820 		ldrsh	r2, [r5, #40]
 871 059a B5F92CE0 		ldrsh	lr, [r5, #44]
 872 059e 069B     		ldr	r3, [sp, #24]
 873 05a0 92FBFEFA 		sdiv	r10, r2, lr
 874 05a4 3FB2     		sxth	r7, r7
 875 05a6 711E     		subs	r1, r6, #1
 876 05a8 0844     		add	r0, r0, r1
 877 05aa B742     		cmp	r7, r6
 878 05ac 0EFB1A22 		mls	r2, lr, r10, r2
 879 05b0 ADF83A60 		strh	r6, [sp, #58]	@ movhi
 880 05b4 ADF83E00 		strh	r0, [sp, #62]	@ movhi
 881 05b8 42DD     		ble	.L88
 882 05ba 0299     		ldr	r1, [sp, #8]
 883 05bc BDF81060 		ldrh	r6, [sp, #16]
 884 05c0 0BEB0809 		add	r9, fp, r8
 885 05c4 12FA89F2 		uxtah	r2, r2, r9
 886 05c8 5B1A     		subs	r3, r3, r1
 887 05ca 0FFA83FA 		sxth	r10, r3
 888 05ce BDF814B0 		ldrh	fp, [sp, #20]
 889 05d2 93B2     		uxth	r3, r2
 890 05d4 0FFA89F9 		sxth	r9, r9
 891 05d8 0293     		str	r3, [sp, #8]
 892 05da 0FFA82F8 		sxth	r8, r2
 893              	.L87:
 894 05de C145     		cmp	r9, r8
 895 05e0 AA8D     		ldrh	r2, [r5, #44]
 896 05e2 029B     		ldr	r3, [sp, #8]
 897 05e4 ADF83880 		strh	r8, [sp, #56]	@ movhi
 898 05e8 2DDA     		bge	.L92
 899 05ea 9B1A     		subs	r3, r3, r2
 900 05ec 19B2     		sxth	r1, r3
 901 05ee ADF83810 		strh	r1, [sp, #56]	@ movhi
 902 05f2 9BB2     		uxth	r3, r3
 903              	.L85:
 904 05f4 013A     		subs	r2, r2, #1
 905 05f6 1344     		add	r3, r3, r2
 906 05f8 8A45     		cmp	r10, r1
 907 05fa ADF83C30 		strh	r3, [sp, #60]	@ movhi
 908 05fe 12DD     		ble	.L90
 909              	.L89:
 910 0600 6B6A     		ldr	r3, [r5, #36]
 911 0602 0EAA     		add	r2, sp, #56
 912 0604 10A9     		add	r1, sp, #64
 913 0606 2046     		mov	r0, r4
 914 0608 FFF7FEFF 		bl	lv_draw_img
 915 060c BDF83830 		ldrh	r3, [sp, #56]
 916 0610 BDF83C20 		ldrh	r2, [sp, #60]
 917 0614 3344     		add	r3, r3, r6
 918 0616 1BB2     		sxth	r3, r3
 919 0618 3244     		add	r2, r2, r6
 920 061a 9A45     		cmp	r10, r3
 921 061c ADF83830 		strh	r3, [sp, #56]	@ movhi
 922 0620 ADF83C20 		strh	r2, [sp, #60]	@ movhi
 923 0624 ECDC     		bgt	.L89
ARM GAS  /var/folders/lp/x54gwt890xv47sdkqj1k04q40000gn/T//cc3L5Qus.s 			page 17


 924              	.L90:
 925 0626 BDF83A30 		ldrh	r3, [sp, #58]
 926 062a BDF83E20 		ldrh	r2, [sp, #62]
 927 062e 5B44     		add	r3, r3, fp
 928 0630 1BB2     		sxth	r3, r3
 929 0632 5A44     		add	r2, r2, fp
 930 0634 9F42     		cmp	r7, r3
 931 0636 ADF83A30 		strh	r3, [sp, #58]	@ movhi
 932 063a ADF83E20 		strh	r2, [sp, #62]	@ movhi
 933 063e CEDC     		bgt	.L87
 934              	.L88:
 935 0640 039B     		ldr	r3, [sp, #12]
 936 0642 A360     		str	r3, [r4, #8]
 937 0644 FAE4     		b	.L50
 938              	.L92:
 939 0646 4146     		mov	r1, r8
 940 0648 D4E7     		b	.L85
 941              	.L131:
 942 064a 0499     		ldr	r1, [sp, #16]
 943 064c B5F92C20 		ldrsh	r2, [r5, #44]
 944 0650 521A     		subs	r2, r2, r1
 945 0652 0132     		adds	r2, r2, #1
 946 0654 02EBD272 		add	r2, r2, r2, lsr #31
 947 0658 5210     		asrs	r2, r2, #1
 948 065a 5242     		rsbs	r2, r2, #0
 949 065c 18FA82F8 		uxtah	r8, r8, r2
 950 0660 13FA82F2 		uxtah	r2, r3, r2
 951 0664 0599     		ldr	r1, [sp, #20]
 952 0666 93B2     		uxth	r3, r2
 953 0668 B5F92E20 		ldrsh	r2, [r5, #46]
 954 066c 521A     		subs	r2, r2, r1
 955 066e 0132     		adds	r2, r2, #1
 956 0670 02EBD272 		add	r2, r2, r2, lsr #31
 957 0674 5210     		asrs	r2, r2, #1
 958 0676 5242     		rsbs	r2, r2, #0
 959 0678 16FA82F6 		uxtah	r6, r6, r2
 960 067c 19FA82F2 		uxtah	r2, r9, r2
 961 0680 1FFA88F8 		uxth	r8, r8
 962 0684 B6B2     		uxth	r6, r6
 963 0686 1FFA82F9 		uxth	r9, r2
 964 068a D2E5     		b	.L79
 965              	.L133:
 966 068c 10A8     		add	r0, sp, #64
 967 068e FFF7FEFF 		bl	lv_draw_label_dsc_init
 968 0692 10AA     		add	r2, sp, #64
 969 0694 2846     		mov	r0, r5
 970 0696 0021     		movs	r1, #0
 971 0698 FFF7FEFF 		bl	lv_obj_init_draw_label_dsc
 972 069c 0023     		movs	r3, #0
 973 069e 0093     		str	r3, [sp]
 974 06a0 6B6A     		ldr	r3, [r5, #36]
 975 06a2 3246     		mov	r2, r6
 976 06a4 10A9     		add	r1, sp, #64
 977 06a6 2046     		mov	r0, r4
 978 06a8 FFF7FEFF 		bl	lv_draw_label
 979 06ac C6E4     		b	.L50
 981 06ae 00BF     		.section	.text.lv_img_set_offset_x,"ax",%progbits
ARM GAS  /var/folders/lp/x54gwt890xv47sdkqj1k04q40000gn/T//cc3L5Qus.s 			page 18


 982              		.align	1
 983              		.p2align 2,,3
 984              		.global	lv_img_set_offset_x
 985              		.syntax unified
 986              		.thumb
 987              		.thumb_func
 989              	lv_img_set_offset_x:
 990              		@ args = 0, pretend = 0, frame = 0
 991              		@ frame_needed = 0, uses_anonymous_args = 0
 992              		@ link register save eliminated.
 993 0000 0185     		strh	r1, [r0, #40]	@ movhi
 994 0002 FFF7FEBF 		b	lv_obj_invalidate
 996 0006 00BF     		.section	.text.lv_img_set_offset_y,"ax",%progbits
 997              		.align	1
 998              		.p2align 2,,3
 999              		.global	lv_img_set_offset_y
 1000              		.syntax unified
 1001              		.thumb
 1002              		.thumb_func
 1004              	lv_img_set_offset_y:
 1005              		@ args = 0, pretend = 0, frame = 0
 1006              		@ frame_needed = 0, uses_anonymous_args = 0
 1007              		@ link register save eliminated.
 1008 0000 4185     		strh	r1, [r0, #42]	@ movhi
 1009 0002 FFF7FEBF 		b	lv_obj_invalidate
 1011 0006 00BF     		.section	.text.lv_img_set_angle,"ax",%progbits
 1012              		.align	1
 1013              		.p2align 2,,3
 1014              		.global	lv_img_set_angle
 1015              		.syntax unified
 1016              		.thumb
 1017              		.thumb_func
 1019              	lv_img_set_angle:
 1020              		@ args = 0, pretend = 0, frame = 8
 1021              		@ frame_needed = 0, uses_anonymous_args = 0
 1022 0000 2DE9F041 		push	{r4, r5, r6, r7, r8, lr}
 1023 0004 B1F5616F 		cmp	r1, #3600
 1024 0008 84B0     		sub	sp, sp, #16
 1025 000a 0C46     		mov	r4, r1
 1026 000c 0546     		mov	r5, r0
 1027 000e 7DDB     		blt	.L152
 1028              	.L145:
 1029 0010 A4F56164 		sub	r4, r4, #3600
 1030 0014 A3B2     		uxth	r3, r4
 1031 0016 B3F5616F 		cmp	r3, #3600
 1032 001a 24B2     		sxth	r4, r4
 1033 001c F8D2     		bcs	.L145
 1034              	.L146:
 1035 001e 2B8E     		ldrh	r3, [r5, #48]
 1036 0020 9C42     		cmp	r4, r3
 1037 0022 6DD0     		beq	.L143
 1038 0024 2846     		mov	r0, r5
 1039 0026 FFF7FEFF 		bl	lv_obj_update_layout
 1040 002a 2846     		mov	r0, r5
 1041 002c FFF7FEFF 		bl	lv_obj_get_width
 1042 0030 05F13208 		add	r8, r5, #50
 1043 0034 0646     		mov	r6, r0
ARM GAS  /var/folders/lp/x54gwt890xv47sdkqj1k04q40000gn/T//cc3L5Qus.s 			page 19


 1044 0036 2846     		mov	r0, r5
 1045 0038 FFF7FEFF 		bl	lv_obj_get_height
 1046 003c CDF80480 		str	r8, [sp, #4]
 1047 0040 EB8E     		ldrh	r3, [r5, #54]
 1048 0042 0093     		str	r3, [sp]
 1049 0044 B5F93030 		ldrsh	r3, [r5, #48]
 1050 0048 0246     		mov	r2, r0
 1051 004a 3146     		mov	r1, r6
 1052 004c 0746     		mov	r7, r0
 1053 004e 02A8     		add	r0, sp, #8
 1054 0050 FFF7FEFF 		bl	_lv_img_buf_get_transformed_area
 1055 0054 AB8A     		ldrh	r3, [r5, #20]
 1056 0056 BDF80800 		ldrh	r0, [sp, #8]
 1057 005a 0022     		movs	r2, #0
 1058 005c 1844     		add	r0, r0, r3
 1059 005e 1146     		mov	r1, r2
 1060 0060 60F30F02 		bfi	r2, r0, #0, #16
 1061 0064 BDF80C00 		ldrh	r0, [sp, #12]
 1062 0068 0344     		add	r3, r3, r0
 1063 006a 63F30F01 		bfi	r1, r3, #0, #16
 1064 006e BDF80A00 		ldrh	r0, [sp, #10]
 1065 0072 EB8A     		ldrh	r3, [r5, #22]
 1066 0074 1844     		add	r0, r0, r3
 1067 0076 60F31F42 		bfi	r2, r0, #16, #16
 1068 007a 0292     		str	r2, [sp, #8]
 1069 007c BDF80E20 		ldrh	r2, [sp, #14]
 1070 0080 1344     		add	r3, r3, r2
 1071 0082 63F31F41 		bfi	r1, r3, #16, #16
 1072 0086 2846     		mov	r0, r5
 1073 0088 0391     		str	r1, [sp, #12]
 1074 008a 02A9     		add	r1, sp, #8
 1075 008c FFF7FEFF 		bl	lv_obj_invalidate_area
 1076 0090 2C86     		strh	r4, [r5, #48]	@ movhi
 1077 0092 2846     		mov	r0, r5
 1078 0094 FFF7FEFF 		bl	lv_obj_get_disp
 1079 0098 0021     		movs	r1, #0
 1080 009a 0446     		mov	r4, r0
 1081 009c FFF7FEFF 		bl	lv_disp_enable_invalidation
 1082 00a0 2846     		mov	r0, r5
 1083 00a2 FFF7FEFF 		bl	lv_obj_refresh_ext_draw_size
 1084 00a6 2046     		mov	r0, r4
 1085 00a8 0121     		movs	r1, #1
 1086 00aa FFF7FEFF 		bl	lv_disp_enable_invalidation
 1087 00ae CDF80480 		str	r8, [sp, #4]
 1088 00b2 EB8E     		ldrh	r3, [r5, #54]
 1089 00b4 0093     		str	r3, [sp]
 1090 00b6 B5F93030 		ldrsh	r3, [r5, #48]
 1091 00ba 3146     		mov	r1, r6
 1092 00bc 3A46     		mov	r2, r7
 1093 00be 02A8     		add	r0, sp, #8
 1094 00c0 FFF7FEFF 		bl	_lv_img_buf_get_transformed_area
 1095 00c4 AA8A     		ldrh	r2, [r5, #20]
 1096 00c6 BDF80800 		ldrh	r0, [sp, #8]
 1097 00ca BDF80E60 		ldrh	r6, [sp, #14]
 1098 00ce 1044     		add	r0, r0, r2
 1099 00d0 0023     		movs	r3, #0
 1100 00d2 1C46     		mov	r4, r3
ARM GAS  /var/folders/lp/x54gwt890xv47sdkqj1k04q40000gn/T//cc3L5Qus.s 			page 20


 1101 00d4 60F30F03 		bfi	r3, r0, #0, #16
 1102 00d8 BDF80C00 		ldrh	r0, [sp, #12]
 1103 00dc 0244     		add	r2, r2, r0
 1104 00de 62F30F04 		bfi	r4, r2, #0, #16
 1105 00e2 EA8A     		ldrh	r2, [r5, #22]
 1106 00e4 2846     		mov	r0, r5
 1107 00e6 9519     		adds	r5, r2, r6
 1108 00e8 65F31F44 		bfi	r4, r5, #16, #16
 1109 00ec 0394     		str	r4, [sp, #12]
 1110 00ee BDF80A40 		ldrh	r4, [sp, #10]
 1111 00f2 2244     		add	r2, r2, r4
 1112 00f4 62F31F43 		bfi	r3, r2, #16, #16
 1113 00f8 02A9     		add	r1, sp, #8
 1114 00fa 0293     		str	r3, [sp, #8]
 1115 00fc FFF7FEFF 		bl	lv_obj_invalidate_area
 1116              	.L143:
 1117 0100 04B0     		add	sp, sp, #16
 1118              		@ sp needed
 1119 0102 BDE8F081 		pop	{r4, r5, r6, r7, r8, pc}
 1120              	.L147:
 1121 0106 04F56164 		add	r4, r4, #3600
 1122 010a 24B2     		sxth	r4, r4
 1123              	.L152:
 1124 010c 002C     		cmp	r4, #0
 1125 010e FADB     		blt	.L147
 1126 0110 85E7     		b	.L146
 1128 0112 00BF     		.section	.text.lv_img_set_pivot,"ax",%progbits
 1129              		.align	1
 1130              		.p2align 2,,3
 1131              		.global	lv_img_set_pivot
 1132              		.syntax unified
 1133              		.thumb
 1134              		.thumb_func
 1136              	lv_img_set_pivot:
 1137              		@ args = 0, pretend = 0, frame = 8
 1138              		@ frame_needed = 0, uses_anonymous_args = 0
 1139 0000 2DE9F043 		push	{r4, r5, r6, r7, r8, r9, lr}
 1140 0004 B0F93230 		ldrsh	r3, [r0, #50]
 1141 0008 8B42     		cmp	r3, r1
 1142 000a 85B0     		sub	sp, sp, #20
 1143 000c 0446     		mov	r4, r0
 1144 000e 0D46     		mov	r5, r1
 1145 0010 9046     		mov	r8, r2
 1146 0012 03D1     		bne	.L154
 1147 0014 B0F93430 		ldrsh	r3, [r0, #52]
 1148 0018 9342     		cmp	r3, r2
 1149 001a 6FD0     		beq	.L153
 1150              	.L154:
 1151 001c 2046     		mov	r0, r4
 1152 001e FFF7FEFF 		bl	lv_obj_update_layout
 1153 0022 2046     		mov	r0, r4
 1154 0024 FFF7FEFF 		bl	lv_obj_get_width
 1155 0028 0646     		mov	r6, r0
 1156 002a 2046     		mov	r0, r4
 1157 002c FFF7FEFF 		bl	lv_obj_get_height
 1158 0030 04F13209 		add	r9, r4, #50
 1159 0034 E38E     		ldrh	r3, [r4, #54]
ARM GAS  /var/folders/lp/x54gwt890xv47sdkqj1k04q40000gn/T//cc3L5Qus.s 			page 21


 1160 0036 0093     		str	r3, [sp]
 1161 0038 CDF80490 		str	r9, [sp, #4]
 1162 003c B4F93030 		ldrsh	r3, [r4, #48]
 1163 0040 0246     		mov	r2, r0
 1164 0042 3146     		mov	r1, r6
 1165 0044 0746     		mov	r7, r0
 1166 0046 02A8     		add	r0, sp, #8
 1167 0048 FFF7FEFF 		bl	_lv_img_buf_get_transformed_area
 1168 004c A38A     		ldrh	r3, [r4, #20]
 1169 004e BDF80800 		ldrh	r0, [sp, #8]
 1170 0052 0022     		movs	r2, #0
 1171 0054 1844     		add	r0, r0, r3
 1172 0056 1146     		mov	r1, r2
 1173 0058 60F30F02 		bfi	r2, r0, #0, #16
 1174 005c BDF80C00 		ldrh	r0, [sp, #12]
 1175 0060 0344     		add	r3, r3, r0
 1176 0062 63F30F01 		bfi	r1, r3, #0, #16
 1177 0066 BDF80A00 		ldrh	r0, [sp, #10]
 1178 006a E38A     		ldrh	r3, [r4, #22]
 1179 006c 1844     		add	r0, r0, r3
 1180 006e 60F31F42 		bfi	r2, r0, #16, #16
 1181 0072 0292     		str	r2, [sp, #8]
 1182 0074 BDF80E20 		ldrh	r2, [sp, #14]
 1183 0078 1344     		add	r3, r3, r2
 1184 007a 63F31F41 		bfi	r1, r3, #16, #16
 1185 007e 2046     		mov	r0, r4
 1186 0080 0391     		str	r1, [sp, #12]
 1187 0082 02A9     		add	r1, sp, #8
 1188 0084 FFF7FEFF 		bl	lv_obj_invalidate_area
 1189 0088 6586     		strh	r5, [r4, #50]	@ movhi
 1190 008a A4F83480 		strh	r8, [r4, #52]	@ movhi
 1191 008e 2046     		mov	r0, r4
 1192 0090 FFF7FEFF 		bl	lv_obj_get_disp
 1193 0094 0021     		movs	r1, #0
 1194 0096 0546     		mov	r5, r0
 1195 0098 FFF7FEFF 		bl	lv_disp_enable_invalidation
 1196 009c 2046     		mov	r0, r4
 1197 009e FFF7FEFF 		bl	lv_obj_refresh_ext_draw_size
 1198 00a2 2846     		mov	r0, r5
 1199 00a4 0121     		movs	r1, #1
 1200 00a6 FFF7FEFF 		bl	lv_disp_enable_invalidation
 1201 00aa CDF80490 		str	r9, [sp, #4]
 1202 00ae E38E     		ldrh	r3, [r4, #54]
 1203 00b0 0093     		str	r3, [sp]
 1204 00b2 B4F93030 		ldrsh	r3, [r4, #48]
 1205 00b6 3146     		mov	r1, r6
 1206 00b8 3A46     		mov	r2, r7
 1207 00ba 02A8     		add	r0, sp, #8
 1208 00bc FFF7FEFF 		bl	_lv_img_buf_get_transformed_area
 1209 00c0 A28A     		ldrh	r2, [r4, #20]
 1210 00c2 BDF80800 		ldrh	r0, [sp, #8]
 1211 00c6 BDF80E60 		ldrh	r6, [sp, #14]
 1212 00ca 1044     		add	r0, r0, r2
 1213 00cc 0023     		movs	r3, #0
 1214 00ce 1D46     		mov	r5, r3
 1215 00d0 60F30F03 		bfi	r3, r0, #0, #16
 1216 00d4 BDF80C00 		ldrh	r0, [sp, #12]
ARM GAS  /var/folders/lp/x54gwt890xv47sdkqj1k04q40000gn/T//cc3L5Qus.s 			page 22


 1217 00d8 0244     		add	r2, r2, r0
 1218 00da 62F30F05 		bfi	r5, r2, #0, #16
 1219 00de E28A     		ldrh	r2, [r4, #22]
 1220 00e0 2046     		mov	r0, r4
 1221 00e2 9419     		adds	r4, r2, r6
 1222 00e4 64F31F45 		bfi	r5, r4, #16, #16
 1223 00e8 BDF80A40 		ldrh	r4, [sp, #10]
 1224 00ec 0395     		str	r5, [sp, #12]
 1225 00ee 2244     		add	r2, r2, r4
 1226 00f0 62F31F43 		bfi	r3, r2, #16, #16
 1227 00f4 02A9     		add	r1, sp, #8
 1228 00f6 0293     		str	r3, [sp, #8]
 1229 00f8 FFF7FEFF 		bl	lv_obj_invalidate_area
 1230              	.L153:
 1231 00fc 05B0     		add	sp, sp, #20
 1232              		@ sp needed
 1233 00fe BDE8F083 		pop	{r4, r5, r6, r7, r8, r9, pc}
 1235 0102 00BF     		.section	.text.lv_img_set_zoom,"ax",%progbits
 1236              		.align	1
 1237              		.p2align 2,,3
 1238              		.global	lv_img_set_zoom
 1239              		.syntax unified
 1240              		.thumb
 1241              		.thumb_func
 1243              	lv_img_set_zoom:
 1244              		@ args = 0, pretend = 0, frame = 8
 1245              		@ frame_needed = 0, uses_anonymous_args = 0
 1246 0000 C38E     		ldrh	r3, [r0, #54]
 1247 0002 8B42     		cmp	r3, r1
 1248 0004 00F08180 		beq	.L160
 1249 0008 2DE9F041 		push	{r4, r5, r6, r7, r8, lr}
 1250 000c 0446     		mov	r4, r0
 1251 000e 84B0     		sub	sp, sp, #16
 1252 0010 0D46     		mov	r5, r1
 1253 0012 FFF7FEFF 		bl	lv_obj_update_layout
 1254 0016 2046     		mov	r0, r4
 1255 0018 FFF7FEFF 		bl	lv_obj_get_width
 1256 001c 04F13207 		add	r7, r4, #50
 1257 0020 0646     		mov	r6, r0
 1258 0022 2046     		mov	r0, r4
 1259 0024 FFF7FEFF 		bl	lv_obj_get_height
 1260 0028 0197     		str	r7, [sp, #4]
 1261 002a E38E     		ldrh	r3, [r4, #54]
 1262 002c 1B0A     		lsrs	r3, r3, #8
 1263 002e 0093     		str	r3, [sp]
 1264 0030 B4F93030 		ldrsh	r3, [r4, #48]
 1265 0034 8046     		mov	r8, r0
 1266 0036 0246     		mov	r2, r0
 1267 0038 3146     		mov	r1, r6
 1268 003a 02A8     		add	r0, sp, #8
 1269 003c FFF7FEFF 		bl	_lv_img_buf_get_transformed_area
 1270 0040 BDF80830 		ldrh	r3, [sp, #8]
 1271 0044 BDF80CC0 		ldrh	ip, [sp, #12]
 1272 0048 A18A     		ldrh	r1, [r4, #20]
 1273 004a 013B     		subs	r3, r3, #1
 1274 004c 0B44     		add	r3, r3, r1
 1275 004e 0022     		movs	r2, #0
ARM GAS  /var/folders/lp/x54gwt890xv47sdkqj1k04q40000gn/T//cc3L5Qus.s 			page 23


 1276 0050 0CF1010C 		add	ip, ip, #1
 1277 0054 6144     		add	r1, r1, ip
 1278 0056 1046     		mov	r0, r2
 1279 0058 BDF80EC0 		ldrh	ip, [sp, #14]
 1280 005c 63F30F02 		bfi	r2, r3, #0, #16
 1281 0060 BDF80A30 		ldrh	r3, [sp, #10]
 1282 0064 61F30F00 		bfi	r0, r1, #0, #16
 1283 0068 E18A     		ldrh	r1, [r4, #22]
 1284 006a 0CF1010C 		add	ip, ip, #1
 1285 006e 013B     		subs	r3, r3, #1
 1286 0070 0B44     		add	r3, r3, r1
 1287 0072 6144     		add	r1, r1, ip
 1288 0074 63F31F42 		bfi	r2, r3, #16, #16
 1289 0078 61F31F40 		bfi	r0, r1, #16, #16
 1290 007c CDE90220 		strd	r2, r0, [sp, #8]
 1291 0080 02A9     		add	r1, sp, #8
 1292 0082 2046     		mov	r0, r4
 1293 0084 FFF7FEFF 		bl	lv_obj_invalidate_area
 1294 0088 012D     		cmp	r5, #1
 1295 008a 38BF     		it	cc
 1296 008c 0125     		movcc	r5, #1
 1297 008e E586     		strh	r5, [r4, #54]	@ movhi
 1298 0090 2046     		mov	r0, r4
 1299 0092 FFF7FEFF 		bl	lv_obj_get_disp
 1300 0096 0021     		movs	r1, #0
 1301 0098 0546     		mov	r5, r0
 1302 009a FFF7FEFF 		bl	lv_disp_enable_invalidation
 1303 009e 2046     		mov	r0, r4
 1304 00a0 FFF7FEFF 		bl	lv_obj_refresh_ext_draw_size
 1305 00a4 2846     		mov	r0, r5
 1306 00a6 0121     		movs	r1, #1
 1307 00a8 FFF7FEFF 		bl	lv_disp_enable_invalidation
 1308 00ac 0197     		str	r7, [sp, #4]
 1309 00ae E38E     		ldrh	r3, [r4, #54]
 1310 00b0 0093     		str	r3, [sp]
 1311 00b2 B4F93030 		ldrsh	r3, [r4, #48]
 1312 00b6 4246     		mov	r2, r8
 1313 00b8 3146     		mov	r1, r6
 1314 00ba 02A8     		add	r0, sp, #8
 1315 00bc FFF7FEFF 		bl	_lv_img_buf_get_transformed_area
 1316 00c0 BDF80830 		ldrh	r3, [sp, #8]
 1317 00c4 A08A     		ldrh	r0, [r4, #20]
 1318 00c6 BDF80E70 		ldrh	r7, [sp, #14]
 1319 00ca E58A     		ldrh	r5, [r4, #22]
 1320 00cc 013B     		subs	r3, r3, #1
 1321 00ce 0344     		add	r3, r3, r0
 1322 00d0 0022     		movs	r2, #0
 1323 00d2 1646     		mov	r6, r2
 1324 00d4 63F30F02 		bfi	r2, r3, #0, #16
 1325 00d8 BDF80C30 		ldrh	r3, [sp, #12]
 1326 00dc 0133     		adds	r3, r3, #1
 1327 00de 1844     		add	r0, r0, r3
 1328 00e0 BDF80A30 		ldrh	r3, [sp, #10]
 1329 00e4 0137     		adds	r7, r7, #1
 1330 00e6 013B     		subs	r3, r3, #1
 1331 00e8 2B44     		add	r3, r3, r5
 1332 00ea 60F30F06 		bfi	r6, r0, #0, #16
ARM GAS  /var/folders/lp/x54gwt890xv47sdkqj1k04q40000gn/T//cc3L5Qus.s 			page 24


 1333 00ee 3D44     		add	r5, r5, r7
 1334 00f0 63F31F42 		bfi	r2, r3, #16, #16
 1335 00f4 02A9     		add	r1, sp, #8
 1336 00f6 2046     		mov	r0, r4
 1337 00f8 65F31F46 		bfi	r6, r5, #16, #16
 1338 00fc CDE90226 		strd	r2, r6, [sp, #8]
 1339 0100 FFF7FEFF 		bl	lv_obj_invalidate_area
 1340 0104 04B0     		add	sp, sp, #16
 1341              		@ sp needed
 1342 0106 BDE8F081 		pop	{r4, r5, r6, r7, r8, pc}
 1343              	.L160:
 1344 010a 7047     		bx	lr
 1346              		.section	.text.lv_img_set_antialias,"ax",%progbits
 1347              		.align	1
 1348              		.p2align 2,,3
 1349              		.global	lv_img_set_antialias
 1350              		.syntax unified
 1351              		.thumb
 1352              		.thumb_func
 1354              	lv_img_set_antialias:
 1355              		@ args = 0, pretend = 0, frame = 0
 1356              		@ frame_needed = 0, uses_anonymous_args = 0
 1357              		@ link register save eliminated.
 1358 0000 90F83820 		ldrb	r2, [r0, #56]	@ zero_extendqisi2
 1359 0004 B1EBD21F 		cmp	r1, r2, lsr #7
 1360 0008 05D0     		beq	.L163
 1361 000a 61F3C712 		bfi	r2, r1, #7, #1
 1362 000e 80F83820 		strb	r2, [r0, #56]
 1363 0012 FFF7FEBF 		b	lv_obj_invalidate
 1364              	.L163:
 1365 0016 7047     		bx	lr
 1367              		.section	.text.lv_img_set_size_mode,"ax",%progbits
 1368              		.align	1
 1369              		.p2align 2,,3
 1370              		.global	lv_img_set_size_mode
 1371              		.syntax unified
 1372              		.thumb
 1373              		.thumb_func
 1375              	lv_img_set_size_mode:
 1376              		@ args = 0, pretend = 0, frame = 0
 1377              		@ frame_needed = 0, uses_anonymous_args = 0
 1378              		@ link register save eliminated.
 1379 0000 90F83920 		ldrb	r2, [r0, #57]	@ zero_extendqisi2
 1380 0004 02F0030C 		and	ip, r2, #3
 1381 0008 8C45     		cmp	ip, r1
 1382 000a 05D0     		beq	.L165
 1383 000c 61F30102 		bfi	r2, r1, #0, #2
 1384 0010 80F83920 		strb	r2, [r0, #57]
 1385 0014 FFF7FEBF 		b	lv_obj_invalidate
 1386              	.L165:
 1387 0018 7047     		bx	lr
 1389 001a 00BF     		.section	.text.lv_img_get_src,"ax",%progbits
 1390              		.align	1
 1391              		.p2align 2,,3
 1392              		.global	lv_img_get_src
 1393              		.syntax unified
 1394              		.thumb
ARM GAS  /var/folders/lp/x54gwt890xv47sdkqj1k04q40000gn/T//cc3L5Qus.s 			page 25


 1395              		.thumb_func
 1397              	lv_img_get_src:
 1398              		@ args = 0, pretend = 0, frame = 0
 1399              		@ frame_needed = 0, uses_anonymous_args = 0
 1400              		@ link register save eliminated.
 1401 0000 406A     		ldr	r0, [r0, #36]
 1402 0002 7047     		bx	lr
 1404              		.section	.text.lv_img_get_offset_x,"ax",%progbits
 1405              		.align	1
 1406              		.p2align 2,,3
 1407              		.global	lv_img_get_offset_x
 1408              		.syntax unified
 1409              		.thumb
 1410              		.thumb_func
 1412              	lv_img_get_offset_x:
 1413              		@ args = 0, pretend = 0, frame = 0
 1414              		@ frame_needed = 0, uses_anonymous_args = 0
 1415              		@ link register save eliminated.
 1416 0000 B0F92800 		ldrsh	r0, [r0, #40]
 1417 0004 7047     		bx	lr
 1419 0006 00BF     		.section	.text.lv_img_get_offset_y,"ax",%progbits
 1420              		.align	1
 1421              		.p2align 2,,3
 1422              		.global	lv_img_get_offset_y
 1423              		.syntax unified
 1424              		.thumb
 1425              		.thumb_func
 1427              	lv_img_get_offset_y:
 1428              		@ args = 0, pretend = 0, frame = 0
 1429              		@ frame_needed = 0, uses_anonymous_args = 0
 1430              		@ link register save eliminated.
 1431 0000 B0F92A00 		ldrsh	r0, [r0, #42]
 1432 0004 7047     		bx	lr
 1434 0006 00BF     		.section	.text.lv_img_get_angle,"ax",%progbits
 1435              		.align	1
 1436              		.p2align 2,,3
 1437              		.global	lv_img_get_angle
 1438              		.syntax unified
 1439              		.thumb
 1440              		.thumb_func
 1442              	lv_img_get_angle:
 1443              		@ args = 0, pretend = 0, frame = 0
 1444              		@ frame_needed = 0, uses_anonymous_args = 0
 1445              		@ link register save eliminated.
 1446 0000 008E     		ldrh	r0, [r0, #48]
 1447 0002 7047     		bx	lr
 1449              		.section	.text.lv_img_get_pivot,"ax",%progbits
 1450              		.align	1
 1451              		.p2align 2,,3
 1452              		.global	lv_img_get_pivot
 1453              		.syntax unified
 1454              		.thumb
 1455              		.thumb_func
 1457              	lv_img_get_pivot:
 1458              		@ args = 0, pretend = 0, frame = 0
 1459              		@ frame_needed = 0, uses_anonymous_args = 0
 1460              		@ link register save eliminated.
ARM GAS  /var/folders/lp/x54gwt890xv47sdkqj1k04q40000gn/T//cc3L5Qus.s 			page 26


 1461 0000 D0F83230 		ldr	r3, [r0, #50]	@ unaligned
 1462 0004 0B60     		str	r3, [r1]	@ unaligned
 1463 0006 7047     		bx	lr
 1465              		.section	.text.lv_img_get_zoom,"ax",%progbits
 1466              		.align	1
 1467              		.p2align 2,,3
 1468              		.global	lv_img_get_zoom
 1469              		.syntax unified
 1470              		.thumb
 1471              		.thumb_func
 1473              	lv_img_get_zoom:
 1474              		@ args = 0, pretend = 0, frame = 0
 1475              		@ frame_needed = 0, uses_anonymous_args = 0
 1476              		@ link register save eliminated.
 1477 0000 C08E     		ldrh	r0, [r0, #54]
 1478 0002 7047     		bx	lr
 1480              		.section	.text.lv_img_get_antialias,"ax",%progbits
 1481              		.align	1
 1482              		.p2align 2,,3
 1483              		.global	lv_img_get_antialias
 1484              		.syntax unified
 1485              		.thumb
 1486              		.thumb_func
 1488              	lv_img_get_antialias:
 1489              		@ args = 0, pretend = 0, frame = 0
 1490              		@ frame_needed = 0, uses_anonymous_args = 0
 1491              		@ link register save eliminated.
 1492 0000 90F83800 		ldrb	r0, [r0, #56]	@ zero_extendqisi2
 1493 0004 C009     		lsrs	r0, r0, #7
 1494 0006 7047     		bx	lr
 1496              		.section	.text.lv_img_get_size_mode,"ax",%progbits
 1497              		.align	1
 1498              		.p2align 2,,3
 1499              		.global	lv_img_get_size_mode
 1500              		.syntax unified
 1501              		.thumb
 1502              		.thumb_func
 1504              	lv_img_get_size_mode:
 1505              		@ args = 0, pretend = 0, frame = 0
 1506              		@ frame_needed = 0, uses_anonymous_args = 0
 1507              		@ link register save eliminated.
 1508 0000 90F83900 		ldrb	r0, [r0, #57]	@ zero_extendqisi2
 1509 0004 00F00300 		and	r0, r0, #3
 1510 0008 7047     		bx	lr
 1512              		.global	lv_img_class
 1513 000a 00BF     		.section	.rodata.lv_img_class,"a"
 1514              		.align	2
 1517              	lv_img_class:
 1518 0000 00000000 		.word	lv_obj_class
 1519 0004 00000000 		.word	lv_img_constructor
 1520 0008 00000000 		.word	lv_img_destructor
 1521 000c 00000000 		.space	4
 1522 0010 00000000 		.word	lv_img_event
 1523 0014 D127     		.short	10193
 1524 0016 D127     		.short	10193
 1525 0018 C0       		.byte	192
 1526 0019 03       		.byte	3
ARM GAS  /var/folders/lp/x54gwt890xv47sdkqj1k04q40000gn/T//cc3L5Qus.s 			page 27


 1527 001a 00       		.byte	0
 1528 001b 00       		.space	1
 1529              		.ident	"GCC: (xPack GNU Arm Embedded GCC arm64) 13.3.1 20240614"
ARM GAS  /var/folders/lp/x54gwt890xv47sdkqj1k04q40000gn/T//cc3L5Qus.s 			page 28

