ARM GAS  /var/folders/lp/x54gwt890xv47sdkqj1k04q40000gn/T//ccvZ4GSR.s 			page 1


   1              		.cpu cortex-m4
   2              		.arch armv7e-m
   3              		.fpu fpv4-sp-d16
   4              		.eabi_attribute 27, 1
   5              		.eabi_attribute 28, 1
   6              		.eabi_attribute 20, 1
   7              		.eabi_attribute 21, 1
   8              		.eabi_attribute 23, 3
   9              		.eabi_attribute 24, 1
  10              		.eabi_attribute 25, 1
  11              		.eabi_attribute 26, 1
  12              		.eabi_attribute 30, 2
  13              		.eabi_attribute 34, 1
  14              		.eabi_attribute 18, 4
  15              		.file	"lv_ll.c"
  16              		.text
  17              		.section	.text._lv_ll_init,"ax",%progbits
  18              		.align	1
  19              		.p2align 2,,3
  20              		.global	_lv_ll_init
  21              		.syntax unified
  22              		.thumb
  23              		.thumb_func
  25              	_lv_ll_init:
  26              		@ args = 0, pretend = 0, frame = 0
  27              		@ frame_needed = 0, uses_anonymous_args = 0
  28              		@ link register save eliminated.
  29 0000 0331     		adds	r1, r1, #3
  30 0002 0023     		movs	r3, #0
  31 0004 21F00301 		bic	r1, r1, #3
  32 0008 C0E90133 		strd	r3, r3, [r0, #4]
  33 000c 0160     		str	r1, [r0]
  34 000e 7047     		bx	lr
  36              		.section	.text._lv_ll_ins_head,"ax",%progbits
  37              		.align	1
  38              		.p2align 2,,3
  39              		.global	_lv_ll_ins_head
  40              		.syntax unified
  41              		.thumb
  42              		.thumb_func
  44              	_lv_ll_ins_head:
  45              		@ args = 0, pretend = 0, frame = 0
  46              		@ frame_needed = 0, uses_anonymous_args = 0
  47 0000 10B5     		push	{r4, lr}
  48 0002 0446     		mov	r4, r0
  49 0004 0068     		ldr	r0, [r0]
  50 0006 0830     		adds	r0, r0, #8
  51 0008 FFF7FEFF 		bl	lv_mem_alloc
  52 000c 50B1     		cbz	r0, .L3
  53 000e 2368     		ldr	r3, [r4]
  54 0010 0022     		movs	r2, #0
  55 0012 C250     		str	r2, [r0, r3]
  56 0014 C118     		adds	r1, r0, r3
  57 0016 6268     		ldr	r2, [r4, #4]
  58 0018 4A60     		str	r2, [r1, #4]
  59 001a 02B1     		cbz	r2, .L6
  60 001c D050     		str	r0, [r2, r3]
ARM GAS  /var/folders/lp/x54gwt890xv47sdkqj1k04q40000gn/T//ccvZ4GSR.s 			page 2


  61              	.L6:
  62 001e A368     		ldr	r3, [r4, #8]
  63 0020 6060     		str	r0, [r4, #4]
  64 0022 03B1     		cbz	r3, .L12
  65              	.L3:
  66 0024 10BD     		pop	{r4, pc}
  67              	.L12:
  68 0026 A060     		str	r0, [r4, #8]
  69 0028 10BD     		pop	{r4, pc}
  71 002a 00BF     		.section	.text._lv_ll_ins_prev,"ax",%progbits
  72              		.align	1
  73              		.p2align 2,,3
  74              		.global	_lv_ll_ins_prev
  75              		.syntax unified
  76              		.thumb
  77              		.thumb_func
  79              	_lv_ll_ins_prev:
  80              		@ args = 0, pretend = 0, frame = 0
  81              		@ frame_needed = 0, uses_anonymous_args = 0
  82 0000 D0B1     		cbz	r0, .L31
  83 0002 38B5     		push	{r3, r4, r5, lr}
  84 0004 0C46     		mov	r4, r1
  85 0006 A9B1     		cbz	r1, .L16
  86 0008 4368     		ldr	r3, [r0, #4]
  87 000a 9942     		cmp	r1, r3
  88 000c 0546     		mov	r5, r0
  89 000e 0DD0     		beq	.L32
  90 0010 0068     		ldr	r0, [r0]
  91 0012 0830     		adds	r0, r0, #8
  92 0014 FFF7FEFF 		bl	lv_mem_alloc
  93 0018 60B1     		cbz	r0, .L16
  94 001a 2B68     		ldr	r3, [r5]
  95 001c E258     		ldr	r2, [r4, r3]
  96 001e 191D     		adds	r1, r3, #4
  97 0020 02B1     		cbz	r2, .L18
  98 0022 5050     		str	r0, [r2, r1]
  99              	.L18:
 100 0024 C250     		str	r2, [r0, r3]
 101 0026 E050     		str	r0, [r4, r3]
 102 0028 4450     		str	r4, [r0, r1]
 103 002a 38BD     		pop	{r3, r4, r5, pc}
 104              	.L32:
 105 002c BDE83840 		pop	{r3, r4, r5, lr}
 106 0030 FFF7FEBF 		b	_lv_ll_ins_head
 107              	.L16:
 108 0034 0020     		movs	r0, #0
 109 0036 38BD     		pop	{r3, r4, r5, pc}
 110              	.L31:
 111 0038 0020     		movs	r0, #0
 112 003a 7047     		bx	lr
 114              		.section	.text._lv_ll_ins_tail,"ax",%progbits
 115              		.align	1
 116              		.p2align 2,,3
 117              		.global	_lv_ll_ins_tail
 118              		.syntax unified
 119              		.thumb
 120              		.thumb_func
ARM GAS  /var/folders/lp/x54gwt890xv47sdkqj1k04q40000gn/T//ccvZ4GSR.s 			page 3


 122              	_lv_ll_ins_tail:
 123              		@ args = 0, pretend = 0, frame = 0
 124              		@ frame_needed = 0, uses_anonymous_args = 0
 125 0000 10B5     		push	{r4, lr}
 126 0002 0446     		mov	r4, r0
 127 0004 0068     		ldr	r0, [r0]
 128 0006 0830     		adds	r0, r0, #8
 129 0008 FFF7FEFF 		bl	lv_mem_alloc
 130 000c 50B1     		cbz	r0, .L33
 131 000e 2268     		ldr	r2, [r4]
 132 0010 111D     		adds	r1, r2, #4
 133 0012 0023     		movs	r3, #0
 134 0014 4350     		str	r3, [r0, r1]
 135 0016 A368     		ldr	r3, [r4, #8]
 136 0018 8350     		str	r3, [r0, r2]
 137 001a 03B1     		cbz	r3, .L36
 138 001c 5850     		str	r0, [r3, r1]
 139              	.L36:
 140 001e 6368     		ldr	r3, [r4, #4]
 141 0020 A060     		str	r0, [r4, #8]
 142 0022 03B1     		cbz	r3, .L42
 143              	.L33:
 144 0024 10BD     		pop	{r4, pc}
 145              	.L42:
 146 0026 6060     		str	r0, [r4, #4]
 147 0028 10BD     		pop	{r4, pc}
 149 002a 00BF     		.section	.text._lv_ll_remove,"ax",%progbits
 150              		.align	1
 151              		.p2align 2,,3
 152              		.global	_lv_ll_remove
 153              		.syntax unified
 154              		.thumb
 155              		.thumb_func
 157              	_lv_ll_remove:
 158              		@ args = 0, pretend = 0, frame = 0
 159              		@ frame_needed = 0, uses_anonymous_args = 0
 160              		@ link register save eliminated.
 161 0000 88B1     		cbz	r0, .L59
 162 0002 D0E90032 		ldrd	r3, r2, [r0]
 163 0006 9142     		cmp	r1, r2
 164 0008 0ED0     		beq	.L61
 165 000a 10B4     		push	{r4}
 166 000c 8468     		ldr	r4, [r0, #8]
 167 000e CA58     		ldr	r2, [r1, r3]
 168 0010 A142     		cmp	r1, r4
 169 0012 10D0     		beq	.L62
 170 0014 181D     		adds	r0, r3, #4
 171 0016 0958     		ldr	r1, [r1, r0]
 172 0018 02B1     		cbz	r2, .L50
 173 001a 1150     		str	r1, [r2, r0]
 174              	.L50:
 175 001c 01B1     		cbz	r1, .L43
 176 001e CA50     		str	r2, [r1, r3]
 177              	.L43:
 178 0020 5DF8044B 		ldr	r4, [sp], #4
 179 0024 7047     		bx	lr
 180              	.L59:
ARM GAS  /var/folders/lp/x54gwt890xv47sdkqj1k04q40000gn/T//ccvZ4GSR.s 			page 4


 181 0026 7047     		bx	lr
 182              	.L61:
 183 0028 1944     		add	r1, r1, r3
 184 002a 4A68     		ldr	r2, [r1, #4]
 185 002c 4260     		str	r2, [r0, #4]
 186 002e 52B1     		cbz	r2, .L63
 187 0030 0021     		movs	r1, #0
 188 0032 D150     		str	r1, [r2, r3]
 189 0034 7047     		bx	lr
 190              	.L62:
 191 0036 8260     		str	r2, [r0, #8]
 192 0038 3AB1     		cbz	r2, .L64
 193 003a 1A44     		add	r2, r2, r3
 194 003c 0023     		movs	r3, #0
 195 003e 5DF8044B 		ldr	r4, [sp], #4
 196 0042 5360     		str	r3, [r2, #4]
 197 0044 7047     		bx	lr
 198              	.L63:
 199 0046 8260     		str	r2, [r0, #8]
 200 0048 7047     		bx	lr
 201              	.L64:
 202 004a 4260     		str	r2, [r0, #4]
 203 004c E8E7     		b	.L43
 205 004e 00BF     		.section	.text._lv_ll_clear,"ax",%progbits
 206              		.align	1
 207              		.p2align 2,,3
 208              		.global	_lv_ll_clear
 209              		.syntax unified
 210              		.thumb
 211              		.thumb_func
 213              	_lv_ll_clear:
 214              		@ args = 0, pretend = 0, frame = 0
 215              		@ frame_needed = 0, uses_anonymous_args = 0
 216 0000 88B1     		cbz	r0, .L74
 217 0002 70B5     		push	{r4, r5, r6, lr}
 218 0004 4568     		ldr	r5, [r0, #4]
 219 0006 0646     		mov	r6, r0
 220 0008 65B1     		cbz	r5, .L65
 221              	.L68:
 222 000a 3368     		ldr	r3, [r6]
 223 000c 2B44     		add	r3, r3, r5
 224 000e 2C46     		mov	r4, r5
 225 0010 2946     		mov	r1, r5
 226 0012 3046     		mov	r0, r6
 227 0014 5D68     		ldr	r5, [r3, #4]
 228 0016 FFF7FEFF 		bl	_lv_ll_remove
 229 001a 2046     		mov	r0, r4
 230 001c FFF7FEFF 		bl	lv_mem_free
 231 0020 002D     		cmp	r5, #0
 232 0022 F2D1     		bne	.L68
 233              	.L65:
 234 0024 70BD     		pop	{r4, r5, r6, pc}
 235              	.L74:
 236 0026 7047     		bx	lr
 238              		.section	.text._lv_ll_chg_list,"ax",%progbits
 239              		.align	1
 240              		.p2align 2,,3
ARM GAS  /var/folders/lp/x54gwt890xv47sdkqj1k04q40000gn/T//ccvZ4GSR.s 			page 5


 241              		.global	_lv_ll_chg_list
 242              		.syntax unified
 243              		.thumb
 244              		.thumb_func
 246              	_lv_ll_chg_list:
 247              		@ args = 0, pretend = 0, frame = 0
 248              		@ frame_needed = 0, uses_anonymous_args = 0
 249 0000 70B5     		push	{r4, r5, r6, lr}
 250 0002 0C46     		mov	r4, r1
 251 0004 1E46     		mov	r6, r3
 252 0006 1146     		mov	r1, r2
 253 0008 1546     		mov	r5, r2
 254 000a FFF7FEFF 		bl	_lv_ll_remove
 255 000e 76B1     		cbz	r6, .L78
 256 0010 2DB1     		cbz	r5, .L79
 257 0012 2368     		ldr	r3, [r4]
 258 0014 0022     		movs	r2, #0
 259 0016 EA50     		str	r2, [r5, r3]
 260 0018 2B44     		add	r3, r3, r5
 261 001a 6268     		ldr	r2, [r4, #4]
 262 001c 5A60     		str	r2, [r3, #4]
 263              	.L79:
 264 001e 6368     		ldr	r3, [r4, #4]
 265 0020 0BB1     		cbz	r3, .L80
 266 0022 2268     		ldr	r2, [r4]
 267 0024 9D50     		str	r5, [r3, r2]
 268              	.L80:
 269 0026 A368     		ldr	r3, [r4, #8]
 270 0028 6560     		str	r5, [r4, #4]
 271 002a 8BB1     		cbz	r3, .L99
 272              	.L77:
 273 002c 70BD     		pop	{r4, r5, r6, pc}
 274              	.L78:
 275 002e A368     		ldr	r3, [r4, #8]
 276 0030 25B1     		cbz	r5, .L83
 277 0032 2268     		ldr	r2, [r4]
 278 0034 AB50     		str	r3, [r5, r2]
 279 0036 2A44     		add	r2, r2, r5
 280 0038 5660     		str	r6, [r2, #4]
 281 003a A368     		ldr	r3, [r4, #8]
 282              	.L83:
 283 003c 13B1     		cbz	r3, .L84
 284 003e 2268     		ldr	r2, [r4]
 285 0040 1344     		add	r3, r3, r2
 286 0042 5D60     		str	r5, [r3, #4]
 287              	.L84:
 288 0044 6368     		ldr	r3, [r4, #4]
 289 0046 A560     		str	r5, [r4, #8]
 290 0048 002B     		cmp	r3, #0
 291 004a EFD1     		bne	.L77
 292 004c 6560     		str	r5, [r4, #4]
 293 004e 70BD     		pop	{r4, r5, r6, pc}
 294              	.L99:
 295 0050 A560     		str	r5, [r4, #8]
 296 0052 70BD     		pop	{r4, r5, r6, pc}
 298              		.section	.text._lv_ll_get_head,"ax",%progbits
 299              		.align	1
ARM GAS  /var/folders/lp/x54gwt890xv47sdkqj1k04q40000gn/T//ccvZ4GSR.s 			page 6


 300              		.p2align 2,,3
 301              		.global	_lv_ll_get_head
 302              		.syntax unified
 303              		.thumb
 304              		.thumb_func
 306              	_lv_ll_get_head:
 307              		@ args = 0, pretend = 0, frame = 0
 308              		@ frame_needed = 0, uses_anonymous_args = 0
 309              		@ link register save eliminated.
 310 0000 00B1     		cbz	r0, .L100
 311 0002 4068     		ldr	r0, [r0, #4]
 312              	.L100:
 313 0004 7047     		bx	lr
 315 0006 00BF     		.section	.text._lv_ll_get_tail,"ax",%progbits
 316              		.align	1
 317              		.p2align 2,,3
 318              		.global	_lv_ll_get_tail
 319              		.syntax unified
 320              		.thumb
 321              		.thumb_func
 323              	_lv_ll_get_tail:
 324              		@ args = 0, pretend = 0, frame = 0
 325              		@ frame_needed = 0, uses_anonymous_args = 0
 326              		@ link register save eliminated.
 327 0000 00B1     		cbz	r0, .L103
 328 0002 8068     		ldr	r0, [r0, #8]
 329              	.L103:
 330 0004 7047     		bx	lr
 332 0006 00BF     		.section	.text._lv_ll_get_next,"ax",%progbits
 333              		.align	1
 334              		.p2align 2,,3
 335              		.global	_lv_ll_get_next
 336              		.syntax unified
 337              		.thumb
 338              		.thumb_func
 340              	_lv_ll_get_next:
 341              		@ args = 0, pretend = 0, frame = 0
 342              		@ frame_needed = 0, uses_anonymous_args = 0
 343              		@ link register save eliminated.
 344 0000 0368     		ldr	r3, [r0]
 345 0002 1944     		add	r1, r1, r3
 346 0004 4868     		ldr	r0, [r1, #4]
 347 0006 7047     		bx	lr
 349              		.section	.text._lv_ll_get_prev,"ax",%progbits
 350              		.align	1
 351              		.p2align 2,,3
 352              		.global	_lv_ll_get_prev
 353              		.syntax unified
 354              		.thumb
 355              		.thumb_func
 357              	_lv_ll_get_prev:
 358              		@ args = 0, pretend = 0, frame = 0
 359              		@ frame_needed = 0, uses_anonymous_args = 0
 360              		@ link register save eliminated.
 361 0000 0368     		ldr	r3, [r0]
 362 0002 C858     		ldr	r0, [r1, r3]
 363 0004 7047     		bx	lr
ARM GAS  /var/folders/lp/x54gwt890xv47sdkqj1k04q40000gn/T//ccvZ4GSR.s 			page 7


 365 0006 00BF     		.section	.text._lv_ll_get_len,"ax",%progbits
 366              		.align	1
 367              		.p2align 2,,3
 368              		.global	_lv_ll_get_len
 369              		.syntax unified
 370              		.thumb
 371              		.thumb_func
 373              	_lv_ll_get_len:
 374              		@ args = 0, pretend = 0, frame = 0
 375              		@ frame_needed = 0, uses_anonymous_args = 0
 376              		@ link register save eliminated.
 377 0000 50B1     		cbz	r0, .L108
 378 0002 4368     		ldr	r3, [r0, #4]
 379 0004 3BB1     		cbz	r3, .L112
 380 0006 0268     		ldr	r2, [r0]
 381 0008 0020     		movs	r0, #0
 382 000a 0432     		adds	r2, r2, #4
 383              	.L110:
 384 000c 9B58     		ldr	r3, [r3, r2]
 385 000e 0130     		adds	r0, r0, #1
 386 0010 002B     		cmp	r3, #0
 387 0012 FBD1     		bne	.L110
 388 0014 7047     		bx	lr
 389              	.L112:
 390 0016 1846     		mov	r0, r3
 391              	.L108:
 392 0018 7047     		bx	lr
 394 001a 00BF     		.section	.text._lv_ll_move_before,"ax",%progbits
 395              		.align	1
 396              		.p2align 2,,3
 397              		.global	_lv_ll_move_before
 398              		.syntax unified
 399              		.thumb
 400              		.thumb_func
 402              	_lv_ll_move_before:
 403              		@ args = 0, pretend = 0, frame = 0
 404              		@ frame_needed = 0, uses_anonymous_args = 0
 405 0000 9142     		cmp	r1, r2
 406 0002 22D0     		beq	.L140
 407 0004 F8B5     		push	{r3, r4, r5, r6, r7, lr}
 408 0006 0C46     		mov	r4, r1
 409 0008 1546     		mov	r5, r2
 410 000a 0746     		mov	r7, r0
 411 000c 8AB1     		cbz	r2, .L117
 412 000e 0368     		ldr	r3, [r0]
 413 0010 D658     		ldr	r6, [r2, r3]
 414              	.L118:
 415 0012 A642     		cmp	r6, r4
 416 0014 0CD0     		beq	.L114
 417 0016 2146     		mov	r1, r4
 418 0018 3846     		mov	r0, r7
 419 001a FFF7FEFF 		bl	_lv_ll_remove
 420 001e 5EB1     		cbz	r6, .L144
 421 0020 3B68     		ldr	r3, [r7]
 422 0022 1A1D     		adds	r2, r3, #4
 423 0024 B450     		str	r4, [r6, r2]
 424 0026 8CB1     		cbz	r4, .L145
ARM GAS  /var/folders/lp/x54gwt890xv47sdkqj1k04q40000gn/T//ccvZ4GSR.s 			page 8


 425 0028 E650     		str	r6, [r4, r3]
 426 002a 95B1     		cbz	r5, .L146
 427 002c EC50     		str	r4, [r5, r3]
 428 002e A550     		str	r5, [r4, r2]
 429              	.L114:
 430 0030 F8BD     		pop	{r3, r4, r5, r6, r7, pc}
 431              	.L117:
 432 0032 88B1     		cbz	r0, .L147
 433 0034 8668     		ldr	r6, [r0, #8]
 434 0036 ECE7     		b	.L118
 435              	.L144:
 436 0038 CCB1     		cbz	r4, .L148
 437 003a 3B68     		ldr	r3, [r7]
 438 003c E650     		str	r6, [r4, r3]
 439 003e 1A1D     		adds	r2, r3, #4
 440 0040 8DB1     		cbz	r5, .L121
 441 0042 EC50     		str	r4, [r5, r3]
 442 0044 A550     		str	r5, [r4, r2]
 443              	.L125:
 444 0046 7C60     		str	r4, [r7, #4]
 445 0048 F8BD     		pop	{r3, r4, r5, r6, r7, pc}
 446              	.L140:
 447 004a 7047     		bx	lr
 448              	.L145:
 449 004c 15B1     		cbz	r5, .L127
 450 004e EC50     		str	r4, [r5, r3]
 451 0050 F8BD     		pop	{r3, r4, r5, r6, r7, pc}
 452              	.L146:
 453 0052 A550     		str	r5, [r4, r2]
 454              	.L127:
 455 0054 BC60     		str	r4, [r7, #8]
 456 0056 F8BD     		pop	{r3, r4, r5, r6, r7, pc}
 457              	.L147:
 458 0058 0029     		cmp	r1, #0
 459 005a E9D0     		beq	.L114
 460 005c FFF7FEFF 		bl	_lv_ll_remove
 461 0060 3A68     		ldr	r2, [r7]
 462 0062 A750     		str	r7, [r4, r2]
 463 0064 0432     		adds	r2, r2, #4
 464              	.L121:
 465 0066 0023     		movs	r3, #0
 466 0068 A350     		str	r3, [r4, r2]
 467              	.L143:
 468 006a BC60     		str	r4, [r7, #8]
 469 006c EBE7     		b	.L125
 470              	.L148:
 471 006e 002D     		cmp	r5, #0
 472 0070 FBD0     		beq	.L143
 473 0072 3B68     		ldr	r3, [r7]
 474 0074 EC50     		str	r4, [r5, r3]
 475 0076 E6E7     		b	.L125
 477              		.section	.text._lv_ll_is_empty,"ax",%progbits
 478              		.align	1
 479              		.p2align 2,,3
 480              		.global	_lv_ll_is_empty
 481              		.syntax unified
 482              		.thumb
ARM GAS  /var/folders/lp/x54gwt890xv47sdkqj1k04q40000gn/T//ccvZ4GSR.s 			page 9


 483              		.thumb_func
 485              	_lv_ll_is_empty:
 486              		@ args = 0, pretend = 0, frame = 0
 487              		@ frame_needed = 0, uses_anonymous_args = 0
 488              		@ link register save eliminated.
 489 0000 40B1     		cbz	r0, .L151
 490 0002 4368     		ldr	r3, [r0, #4]
 491 0004 0BB1     		cbz	r3, .L153
 492 0006 0020     		movs	r0, #0
 493 0008 7047     		bx	lr
 494              	.L153:
 495 000a 8068     		ldr	r0, [r0, #8]
 496 000c B0FA80F0 		clz	r0, r0
 497 0010 4009     		lsrs	r0, r0, #5
 498 0012 7047     		bx	lr
 499              	.L151:
 500 0014 0120     		movs	r0, #1
 501 0016 7047     		bx	lr
 503              		.ident	"GCC: (xPack GNU Arm Embedded GCC arm64) 13.3.1 20240614"
ARM GAS  /var/folders/lp/x54gwt890xv47sdkqj1k04q40000gn/T//ccvZ4GSR.s 			page 10

