ARM GAS  /var/folders/lp/x54gwt890xv47sdkqj1k04q40000gn/T//ccBbT2Mz.s 			page 1


   1              		.cpu cortex-m4
   2              		.arch armv7e-m
   3              		.fpu fpv4-sp-d16
   4              		.eabi_attribute 27, 1
   5              		.eabi_attribute 28, 1
   6              		.eabi_attribute 20, 1
   7              		.eabi_attribute 21, 1
   8              		.eabi_attribute 23, 3
   9              		.eabi_attribute 24, 1
  10              		.eabi_attribute 25, 1
  11              		.eabi_attribute 26, 1
  12              		.eabi_attribute 30, 2
  13              		.eabi_attribute 34, 1
  14              		.eabi_attribute 18, 4
  15              		.file	"lv_list.c"
  16              		.text
  17              		.section	.text.lv_list_create,"ax",%progbits
  18              		.align	1
  19              		.p2align 2,,3
  20              		.global	lv_list_create
  21              		.syntax unified
  22              		.thumb
  23              		.thumb_func
  25              	lv_list_create:
  26              		@ args = 0, pretend = 0, frame = 0
  27              		@ frame_needed = 0, uses_anonymous_args = 0
  28 0000 10B5     		push	{r4, lr}
  29 0002 0146     		mov	r1, r0
  30 0004 0548     		ldr	r0, .L4
  31 0006 FFF7FEFF 		bl	lv_obj_class_create_obj
  32 000a 0446     		mov	r4, r0
  33 000c FFF7FEFF 		bl	lv_obj_class_init_obj
  34 0010 2046     		mov	r0, r4
  35 0012 0121     		movs	r1, #1
  36 0014 FFF7FEFF 		bl	lv_obj_set_flex_flow
  37 0018 2046     		mov	r0, r4
  38 001a 10BD     		pop	{r4, pc}
  39              	.L5:
  40              		.align	2
  41              	.L4:
  42 001c 00000000 		.word	lv_list_class
  44              		.section	.text.lv_list_add_text,"ax",%progbits
  45              		.align	1
  46              		.p2align 2,,3
  47              		.global	lv_list_add_text
  48              		.syntax unified
  49              		.thumb
  50              		.thumb_func
  52              	lv_list_add_text:
  53              		@ args = 0, pretend = 0, frame = 0
  54              		@ frame_needed = 0, uses_anonymous_args = 0
  55 0000 38B5     		push	{r3, r4, r5, lr}
  56 0002 0346     		mov	r3, r0
  57 0004 0D46     		mov	r5, r1
  58 0006 0B48     		ldr	r0, .L8
  59 0008 1946     		mov	r1, r3
  60 000a FFF7FEFF 		bl	lv_obj_class_create_obj
ARM GAS  /var/folders/lp/x54gwt890xv47sdkqj1k04q40000gn/T//ccBbT2Mz.s 			page 2


  61 000e 0446     		mov	r4, r0
  62 0010 FFF7FEFF 		bl	lv_obj_class_init_obj
  63 0014 2946     		mov	r1, r5
  64 0016 2046     		mov	r0, r4
  65 0018 FFF7FEFF 		bl	lv_label_set_text
  66 001c 2046     		mov	r0, r4
  67 001e 0321     		movs	r1, #3
  68 0020 FFF7FEFF 		bl	lv_label_set_long_mode
  69 0024 2046     		mov	r0, r4
  70 0026 42F26401 		movw	r1, #8292
  71 002a FFF7FEFF 		bl	lv_obj_set_width
  72 002e 2046     		mov	r0, r4
  73 0030 38BD     		pop	{r3, r4, r5, pc}
  74              	.L9:
  75 0032 00BF     		.align	2
  76              	.L8:
  77 0034 00000000 		.word	lv_list_text_class
  79              		.section	.text.lv_list_add_btn,"ax",%progbits
  80              		.align	1
  81              		.p2align 2,,3
  82              		.global	lv_list_add_btn
  83              		.syntax unified
  84              		.thumb
  85              		.thumb_func
  87              	lv_list_add_btn:
  88              		@ args = 0, pretend = 0, frame = 0
  89              		@ frame_needed = 0, uses_anonymous_args = 0
  90 0000 0346     		mov	r3, r0
  91 0002 70B5     		push	{r4, r5, r6, lr}
  92 0004 1648     		ldr	r0, .L20
  93 0006 0E46     		mov	r6, r1
  94 0008 1946     		mov	r1, r3
  95 000a 1546     		mov	r5, r2
  96 000c FFF7FEFF 		bl	lv_obj_class_create_obj
  97 0010 0446     		mov	r4, r0
  98 0012 FFF7FEFF 		bl	lv_obj_class_init_obj
  99 0016 42F26401 		movw	r1, #8292
 100 001a 2046     		mov	r0, r4
 101 001c 42F2D172 		movw	r2, #10193
 102 0020 FFF7FEFF 		bl	lv_obj_set_size
 103 0024 0021     		movs	r1, #0
 104 0026 2046     		mov	r0, r4
 105 0028 FFF7FEFF 		bl	lv_obj_set_flex_flow
 106 002c 2EB1     		cbz	r6, .L11
 107 002e 2046     		mov	r0, r4
 108 0030 FFF7FEFF 		bl	lv_img_create
 109 0034 3146     		mov	r1, r6
 110 0036 FFF7FEFF 		bl	lv_img_set_src
 111              	.L11:
 112 003a 75B1     		cbz	r5, .L10
 113 003c 2046     		mov	r0, r4
 114 003e FFF7FEFF 		bl	lv_label_create
 115 0042 2946     		mov	r1, r5
 116 0044 0646     		mov	r6, r0
 117 0046 FFF7FEFF 		bl	lv_label_set_text
 118 004a 0321     		movs	r1, #3
 119 004c 3046     		mov	r0, r6
ARM GAS  /var/folders/lp/x54gwt890xv47sdkqj1k04q40000gn/T//ccBbT2Mz.s 			page 3


 120 004e FFF7FEFF 		bl	lv_label_set_long_mode
 121 0052 0121     		movs	r1, #1
 122 0054 3046     		mov	r0, r6
 123 0056 FFF7FEFF 		bl	lv_obj_set_flex_grow
 124              	.L10:
 125 005a 2046     		mov	r0, r4
 126 005c 70BD     		pop	{r4, r5, r6, pc}
 127              	.L21:
 128 005e 00BF     		.align	2
 129              	.L20:
 130 0060 00000000 		.word	lv_list_btn_class
 132              		.section	.rodata.lv_list_get_btn_text.str1.4,"aMS",%progbits,1
 133              		.align	2
 134              	.LC0:
 135 0000 00       		.ascii	"\000"
 136              		.section	.text.lv_list_get_btn_text,"ax",%progbits
 137              		.align	1
 138              		.p2align 2,,3
 139              		.global	lv_list_get_btn_text
 140              		.syntax unified
 141              		.thumb
 142              		.thumb_func
 144              	lv_list_get_btn_text:
 145              		@ args = 0, pretend = 0, frame = 0
 146              		@ frame_needed = 0, uses_anonymous_args = 0
 147 0000 F8B5     		push	{r3, r4, r5, r6, r7, lr}
 148 0002 0D4F     		ldr	r7, .L28
 149 0004 0E46     		mov	r6, r1
 150 0006 0024     		movs	r4, #0
 151 0008 07E0     		b	.L23
 152              	.L25:
 153 000a FFF7FEFF 		bl	lv_obj_get_child
 154 000e 3946     		mov	r1, r7
 155 0010 0546     		mov	r5, r0
 156 0012 FFF7FEFF 		bl	lv_obj_check_type
 157 0016 50B9     		cbnz	r0, .L27
 158 0018 0134     		adds	r4, r4, #1
 159              	.L23:
 160 001a 3046     		mov	r0, r6
 161 001c FFF7FEFF 		bl	lv_obj_get_child_cnt
 162 0020 0346     		mov	r3, r0
 163 0022 A342     		cmp	r3, r4
 164 0024 2146     		mov	r1, r4
 165 0026 3046     		mov	r0, r6
 166 0028 EFD8     		bhi	.L25
 167 002a 0448     		ldr	r0, .L28+4
 168 002c F8BD     		pop	{r3, r4, r5, r6, r7, pc}
 169              	.L27:
 170 002e 2846     		mov	r0, r5
 171 0030 BDE8F840 		pop	{r3, r4, r5, r6, r7, lr}
 172 0034 FFF7FEBF 		b	lv_label_get_text
 173              	.L29:
 174              		.align	2
 175              	.L28:
 176 0038 00000000 		.word	lv_label_class
 177 003c 00000000 		.word	.LC0
 179              		.global	lv_list_text_class
ARM GAS  /var/folders/lp/x54gwt890xv47sdkqj1k04q40000gn/T//ccBbT2Mz.s 			page 4


 180              		.section	.rodata.lv_list_text_class,"a"
 181              		.align	2
 184              	lv_list_text_class:
 185 0000 00000000 		.word	lv_label_class
 186 0004 00000000 		.space	24
 186      00000000 
 186      00000000 
 186      00000000 
 186      00000000 
 187              		.global	lv_list_btn_class
 188              		.section	.rodata.lv_list_btn_class,"a"
 189              		.align	2
 192              	lv_list_btn_class:
 193 0000 00000000 		.word	lv_btn_class
 194 0004 00000000 		.space	24
 194      00000000 
 194      00000000 
 194      00000000 
 194      00000000 
 195              		.global	lv_list_class
 196              		.section	.rodata.lv_list_class,"a"
 197              		.align	2
 200              	lv_list_class:
 201 0000 00000000 		.word	lv_obj_class
 202 0004 00000000 		.space	16
 202      00000000 
 202      00000000 
 202      00000000 
 203 0014 C300     		.short	195
 204 0016 0401     		.short	260
 205 0018 00000000 		.space	4
 206              		.ident	"GCC: (xPack GNU Arm Embedded GCC arm64) 13.3.1 20240614"
ARM GAS  /var/folders/lp/x54gwt890xv47sdkqj1k04q40000gn/T//ccBbT2Mz.s 			page 5

