ARM GAS  /var/folders/lp/x54gwt890xv47sdkqj1k04q40000gn/T//ccK0uHT5.s 			page 1


   1              		.cpu cortex-m4
   2              		.arch armv7e-m
   3              		.fpu fpv4-sp-d16
   4              		.eabi_attribute 27, 1
   5              		.eabi_attribute 28, 1
   6              		.eabi_attribute 20, 1
   7              		.eabi_attribute 21, 1
   8              		.eabi_attribute 23, 3
   9              		.eabi_attribute 24, 1
  10              		.eabi_attribute 25, 1
  11              		.eabi_attribute 26, 1
  12              		.eabi_attribute 30, 2
  13              		.eabi_attribute 34, 1
  14              		.eabi_attribute 18, 4
  15              		.file	"lv_label.c"
  16              		.text
  17              		.section	.text.set_ofs_y_anim,"ax",%progbits
  18              		.align	1
  19              		.p2align 2,,3
  20              		.syntax unified
  21              		.thumb
  22              		.thumb_func
  24              	set_ofs_y_anim:
  25              		@ args = 0, pretend = 0, frame = 0
  26              		@ frame_needed = 0, uses_anonymous_args = 0
  27              		@ link register save eliminated.
  28 0000 A0F84610 		strh	r1, [r0, #70]	@ movhi
  29 0004 FFF7FEBF 		b	lv_obj_invalidate
  31              		.section	.text.set_ofs_x_anim,"ax",%progbits
  32              		.align	1
  33              		.p2align 2,,3
  34              		.syntax unified
  35              		.thumb
  36              		.thumb_func
  38              	set_ofs_x_anim:
  39              		@ args = 0, pretend = 0, frame = 0
  40              		@ frame_needed = 0, uses_anonymous_args = 0
  41              		@ link register save eliminated.
  42 0000 A0F84410 		strh	r1, [r0, #68]	@ movhi
  43 0004 FFF7FEBF 		b	lv_obj_invalidate
  45              		.section	.text.lv_label_revert_dots,"ax",%progbits
  46              		.align	1
  47              		.p2align 2,,3
  48              		.syntax unified
  49              		.thumb
  50              		.thumb_func
  52              	lv_label_revert_dots:
  53              		@ args = 0, pretend = 0, frame = 0
  54              		@ frame_needed = 0, uses_anonymous_args = 0
  55 0000 90F84830 		ldrb	r3, [r0, #72]	@ zero_extendqisi2
  56 0004 03F00703 		and	r3, r3, #7
  57 0008 012B     		cmp	r3, #1
  58 000a 3BD1     		bne	.L25
  59 000c C16A     		ldr	r1, [r0, #44]
  60 000e 70B5     		push	{r4, r5, r6, lr}
  61 0010 0446     		mov	r4, r0
  62 0012 481C     		adds	r0, r1, #1
ARM GAS  /var/folders/lp/x54gwt890xv47sdkqj1k04q40000gn/T//ccK0uHT5.s 			page 2


  63 0014 35D0     		beq	.L4
  64 0016 1C4B     		ldr	r3, .L28
  65 0018 606A     		ldr	r0, [r4, #36]
  66 001a 1B68     		ldr	r3, [r3]
  67 001c 0339     		subs	r1, r1, #3
  68 001e 9847     		blx	r3
  69 0020 94F84830 		ldrb	r3, [r4, #72]	@ zero_extendqisi2
  70 0024 5A06     		lsls	r2, r3, #25
  71 0026 636A     		ldr	r3, [r4, #36]
  72 0028 48BF     		it	mi
  73 002a A66A     		ldrmi	r6, [r4, #40]
  74 002c 03EB0002 		add	r2, r3, r0
  75 0030 1B5C     		ldrb	r3, [r3, r0]	@ zero_extendqisi2
  76 0032 58BF     		it	pl
  77 0034 04F12806 		addpl	r6, r4, #40
  78 0038 73B1     		cbz	r3, .L8
  79 003a 0023     		movs	r3, #0
  80 003c 9C46     		mov	ip, r3
  81              	.L9:
  82 003e 16F80C10 		ldrb	r1, [r6, ip]	@ zero_extendqisi2
  83 0042 1170     		strb	r1, [r2]
  84 0044 0133     		adds	r3, r3, #1
  85 0046 DBB2     		uxtb	r3, r3
  86 0048 626A     		ldr	r2, [r4, #36]
  87 004a C118     		adds	r1, r0, r3
  88 004c 9C46     		mov	ip, r3
  89 004e 555C     		ldrb	r5, [r2, r1]	@ zero_extendqisi2
  90 0050 0A44     		add	r2, r2, r1
  91 0052 002D     		cmp	r5, #0
  92 0054 F3D1     		bne	.L9
  93 0056 1E44     		add	r6, r6, r3
  94              	.L8:
  95 0058 3378     		ldrb	r3, [r6]	@ zero_extendqisi2
  96 005a 1370     		strb	r3, [r2]
  97 005c 94F84830 		ldrb	r3, [r4, #72]	@ zero_extendqisi2
  98 0060 5B06     		lsls	r3, r3, #25
  99 0062 03D5     		bpl	.L10
 100 0064 A06A     		ldr	r0, [r4, #40]
 101 0066 08B1     		cbz	r0, .L10
 102 0068 FFF7FEFF 		bl	lv_mem_free
 103              	.L10:
 104 006c 94F84830 		ldrb	r3, [r4, #72]	@ zero_extendqisi2
 105 0070 0021     		movs	r1, #0
 106 0072 4FF0FF32 		mov	r2, #-1
 107 0076 C4E90A12 		strd	r1, r2, [r4, #40]
 108 007a 23F04003 		bic	r3, r3, #64
 109 007e 84F84830 		strb	r3, [r4, #72]
 110              	.L4:
 111 0082 70BD     		pop	{r4, r5, r6, pc}
 112              	.L25:
 113 0084 7047     		bx	lr
 114              	.L29:
 115 0086 00BF     		.align	2
 116              	.L28:
 117 0088 00000000 		.word	_lv_txt_encoded_get_byte_id
 119              		.section	.text.lv_label_get_letter_on.part.0,"ax",%progbits
 120              		.align	1
ARM GAS  /var/folders/lp/x54gwt890xv47sdkqj1k04q40000gn/T//ccK0uHT5.s 			page 3


 121              		.p2align 2,,3
 122              		.syntax unified
 123              		.thumb
 124              		.thumb_func
 126              	lv_label_get_letter_on.part.0:
 127              		@ args = 0, pretend = 0, frame = 56
 128              		@ frame_needed = 0, uses_anonymous_args = 0
 129 0000 2DE9F04F 		push	{r4, r5, r6, r7, r8, r9, r10, fp, lr}
 130 0004 0D46     		mov	r5, r1
 131 0006 91B0     		sub	sp, sp, #68
 132 0008 B5F90030 		ldrsh	r3, [r5]
 133 000c 0893     		str	r3, [sp, #32]
 134 000e 1222     		movs	r2, #18
 135 0010 0021     		movs	r1, #0
 136 0012 0446     		mov	r4, r0
 137 0014 FFF7FEFF 		bl	lv_obj_get_style_prop
 138 0018 1022     		movs	r2, #16
 139 001a 0990     		str	r0, [sp, #36]
 140 001c 0021     		movs	r1, #0
 141 001e 2046     		mov	r0, r4
 142 0020 6D88     		ldrh	r5, [r5, #2]
 143 0022 FFF7FEFF 		bl	lv_obj_get_style_prop
 144 0026 2D1A     		subs	r5, r5, r0
 145 0028 2BB2     		sxth	r3, r5
 146 002a 0EA9     		add	r1, sp, #56
 147 002c 2046     		mov	r0, r4
 148 002e 9846     		mov	r8, r3
 149 0030 FFF7FEFF 		bl	lv_obj_get_content_coords
 150 0034 BDF83C30 		ldrh	r3, [sp, #60]
 151 0038 BDF83820 		ldrh	r2, [sp, #56]
 152 003c 676A     		ldr	r7, [r4, #36]
 153 003e 0133     		adds	r3, r3, #1
 154 0040 9B1A     		subs	r3, r3, r2
 155 0042 1BB2     		sxth	r3, r3
 156 0044 5722     		movs	r2, #87
 157 0046 0021     		movs	r1, #0
 158 0048 2046     		mov	r0, r4
 159 004a 0593     		str	r3, [sp, #20]
 160 004c FFF7FEFF 		bl	lv_obj_get_style_prop
 161 0050 5922     		movs	r2, #89
 162 0052 8246     		mov	r10, r0
 163 0054 0021     		movs	r1, #0
 164 0056 2046     		mov	r0, r4
 165 0058 FFF7FEFF 		bl	lv_obj_get_style_prop
 166 005c 0021     		movs	r1, #0
 167 005e 5822     		movs	r2, #88
 168 0060 8346     		mov	fp, r0
 169 0062 2046     		mov	r0, r4
 170 0064 FFF7FEFF 		bl	lv_obj_get_style_prop
 171 0068 94F84830 		ldrb	r3, [r4, #72]	@ zero_extendqisi2
 172 006c 0690     		str	r0, [sp, #24]
 173 006e 02B2     		sxth	r2, r0
 174 0070 9906     		lsls	r1, r3, #26
 175 0072 0492     		str	r2, [sp, #16]
 176 0074 C3F30012 		ubfx	r2, r3, #4, #1
 177 0078 48BF     		it	mi
 178 007a 42F00203 		orrmi	r3, r2, #2
ARM GAS  /var/folders/lp/x54gwt890xv47sdkqj1k04q40000gn/T//ccK0uHT5.s 			page 4


 179 007e 0392     		str	r2, [sp, #12]
 180 0080 4FF00001 		mov	r1, #0
 181 0084 4FF00102 		mov	r2, #1
 182 0088 2046     		mov	r0, r4
 183 008a 48BF     		it	mi
 184 008c 0393     		strmi	r3, [sp, #12]
 185 008e BAF90890 		ldrsh	r9, [r10, #8]
 186 0092 FFF7FEFF 		bl	lv_obj_get_style_prop
 187 0096 42F2D173 		movw	r3, #10193
 188 009a 00B2     		sxth	r0, r0
 189 009c 9842     		cmp	r0, r3
 190 009e 00F0B280 		beq	.L66
 191              	.L32:
 192 00a2 626A     		ldr	r2, [r4, #36]
 193 00a4 2046     		mov	r0, r4
 194 00a6 0021     		movs	r1, #0
 195 00a8 FFF7FEFF 		bl	lv_obj_calculate_style_text_align
 196 00ac 3B78     		ldrb	r3, [r7]	@ zero_extendqisi2
 197 00ae 0790     		str	r0, [sp, #28]
 198 00b0 002B     		cmp	r3, #0
 199 00b2 00F0CA80 		beq	.L45
 200 00b6 0025     		movs	r5, #0
 201 00b8 CB44     		add	fp, fp, r9
 202 00ba 3E46     		mov	r6, r7
 203 00bc 2C46     		mov	r4, r5
 204 00be 04E0     		b	.L36
 205              	.L34:
 206 00c0 3B5D     		ldrb	r3, [r7, r4]	@ zero_extendqisi2
 207 00c2 2DB2     		sxth	r5, r5
 208 00c4 3E19     		adds	r6, r7, r4
 209 00c6 002B     		cmp	r3, #0
 210 00c8 7AD0     		beq	.L67
 211              	.L36:
 212 00ca 039B     		ldr	r3, [sp, #12]
 213 00cc 0193     		str	r3, [sp, #4]
 214 00ce 0023     		movs	r3, #0
 215 00d0 0093     		str	r3, [sp]
 216 00d2 5146     		mov	r1, r10
 217 00d4 DDE90423 		ldrd	r2, r3, [sp, #16]
 218 00d8 3046     		mov	r0, r6
 219 00da FFF7FEFF 		bl	_lv_txt_get_next_line
 220 00de 05EB0903 		add	r3, r5, r9
 221 00e2 4345     		cmp	r3, r8
 222 00e4 2246     		mov	r2, r4
 223 00e6 5D44     		add	r5, r5, fp
 224 00e8 0444     		add	r4, r4, r0
 225 00ea E9DB     		blt	.L34
 226 00ec 5A4B     		ldr	r3, .L72
 227 00ee 0D94     		str	r4, [sp, #52]
 228 00f0 1B68     		ldr	r3, [r3]
 229 00f2 0DA9     		add	r1, sp, #52
 230 00f4 3846     		mov	r0, r7
 231 00f6 9046     		mov	r8, r2
 232 00f8 9847     		blx	r3
 233 00fa 0A28     		cmp	r0, #10
 234 00fc 03D0     		beq	.L33
 235 00fe 3B5D     		ldrb	r3, [r7, r4]	@ zero_extendqisi2
ARM GAS  /var/folders/lp/x54gwt890xv47sdkqj1k04q40000gn/T//ccK0uHT5.s 			page 5


 236 0100 002B     		cmp	r3, #0
 237 0102 00F08A80 		beq	.L68
 238              	.L33:
 239 0106 079B     		ldr	r3, [sp, #28]
 240 0108 022B     		cmp	r3, #2
 241 010a 5DD0     		beq	.L69
 242              	.L37:
 243 010c 079B     		ldr	r3, [sp, #28]
 244 010e 032B     		cmp	r3, #3
 245 0110 00F08580 		beq	.L70
 246 0114 4FF0000B 		mov	fp, #0
 247              	.L38:
 248 0118 0022     		movs	r2, #0
 249 011a 8DF82B20 		strb	r2, [sp, #43]
 250 011e 0B92     		str	r2, [sp, #44]
 251 0120 002C     		cmp	r4, #0
 252 0122 3FD0     		beq	.L39
 253 0124 4445     		cmp	r4, r8
 254 0126 40F29480 		bls	.L47
 255 012a DDE90831 		ldrd	r3, r1, [sp, #32]
 256 012e 5D1A     		subs	r5, r3, r1
 257 0130 2BB2     		sxth	r3, r5
 258 0132 0493     		str	r3, [sp, #16]
 259 0134 039B     		ldr	r3, [sp, #12]
 260 0136 9146     		mov	r9, r2
 261 0138 03F00105 		and	r5, r3, #1
 262 013c 1CE0     		b	.L44
 263              	.L40:
 264 013e DDE90C12 		ldrd	r1, r2, [sp, #48]
 265 0142 5046     		mov	r0, r10
 266 0144 FFF7FEFF 		bl	lv_font_get_glyph_width
 267 0148 049A     		ldr	r2, [sp, #16]
 268 014a 0BFA80F3 		sxtah	r3, fp, r0
 269 014e 9A42     		cmp	r2, r3
 270 0150 07EB0901 		add	r1, r7, r9
 271 0154 53DB     		blt	.L42
 272 0156 069A     		ldr	r2, [sp, #24]
 273 0158 0B9B     		ldr	r3, [sp, #44]
 274 015a 9344     		add	fp, fp, r2
 275 015c 03EB0802 		add	r2, r3, r8
 276 0160 5844     		add	r0, r0, fp
 277 0162 9442     		cmp	r4, r2
 278 0164 0FFA80FB 		sxth	fp, r0
 279 0168 49D0     		beq	.L42
 280 016a 11F80810 		ldrb	r1, [r1, r8]	@ zero_extendqisi2
 281 016e 0029     		cmp	r1, #0
 282 0170 45D0     		beq	.L42
 283 0172 9442     		cmp	r4, r2
 284 0174 9946     		mov	r9, r3
 285 0176 14D9     		bls	.L71
 286              	.L44:
 287 0178 3046     		mov	r0, r6
 288 017a 0BAB     		add	r3, sp, #44
 289 017c 0DAA     		add	r2, sp, #52
 290 017e 0CA9     		add	r1, sp, #48
 291 0180 FFF7FEFF 		bl	_lv_txt_encoded_letter_next_2
 292 0184 0DF12B00 		add	r0, sp, #43
ARM GAS  /var/folders/lp/x54gwt890xv47sdkqj1k04q40000gn/T//ccK0uHT5.s 			page 6


 293 0188 002D     		cmp	r5, #0
 294 018a D8D0     		beq	.L40
 295 018c 0B9B     		ldr	r3, [sp, #44]
 296 018e F15C     		ldrb	r1, [r6, r3]	@ zero_extendqisi2
 297 0190 FFF7FEFF 		bl	_lv_txt_is_cmd
 298 0194 0028     		cmp	r0, #0
 299 0196 D2D0     		beq	.L40
 300 0198 0B9B     		ldr	r3, [sp, #44]
 301 019a 03EB0802 		add	r2, r3, r8
 302 019e 9442     		cmp	r4, r2
 303 01a0 EAD8     		bhi	.L44
 304              	.L71:
 305 01a2 1C46     		mov	r4, r3
 306              	.L39:
 307 01a4 2D4D     		ldr	r5, .L72+4
 308 01a6 2146     		mov	r1, r4
 309 01a8 2B68     		ldr	r3, [r5]
 310 01aa 3046     		mov	r0, r6
 311 01ac 9847     		blx	r3
 312 01ae 2B68     		ldr	r3, [r5]
 313 01b0 0446     		mov	r4, r0
 314 01b2 4146     		mov	r1, r8
 315 01b4 3846     		mov	r0, r7
 316 01b6 9847     		blx	r3
 317 01b8 2044     		add	r0, r0, r4
 318 01ba 11B0     		add	sp, sp, #68
 319              		@ sp needed
 320 01bc BDE8F08F 		pop	{r4, r5, r6, r7, r8, r9, r10, fp, pc}
 321              	.L67:
 322 01c0 079B     		ldr	r3, [sp, #28]
 323 01c2 022B     		cmp	r3, #2
 324 01c4 A046     		mov	r8, r4
 325 01c6 A1D1     		bne	.L37
 326              	.L69:
 327 01c8 039B     		ldr	r3, [sp, #12]
 328 01ca 0093     		str	r3, [sp]
 329 01cc 5246     		mov	r2, r10
 330 01ce 049B     		ldr	r3, [sp, #16]
 331 01d0 A4EB0801 		sub	r1, r4, r8
 332 01d4 3046     		mov	r0, r6
 333 01d6 FFF7FEFF 		bl	lv_txt_get_width
 334 01da BDF83C30 		ldrh	r3, [sp, #60]
 335 01de BDF83820 		ldrh	r2, [sp, #56]
 336 01e2 0133     		adds	r3, r3, #1
 337 01e4 9B1A     		subs	r3, r3, r2
 338 01e6 00EBD070 		add	r0, r0, r0, lsr #31
 339 01ea C3F3C032 		ubfx	r2, r3, #15, #1
 340 01ee 4010     		asrs	r0, r0, #1
 341 01f0 02FA83F3 		sxtah	r3, r2, r3
 342 01f4 C0EB630B 		rsb	fp, r0, r3, asr #1
 343 01f8 0FFA8BFB 		sxth	fp, fp
 344 01fc 8CE7     		b	.L38
 345              	.L42:
 346 01fe CDF82C90 		str	r9, [sp, #44]
 347 0202 4C46     		mov	r4, r9
 348 0204 CEE7     		b	.L39
 349              	.L66:
ARM GAS  /var/folders/lp/x54gwt890xv47sdkqj1k04q40000gn/T//ccK0uHT5.s 			page 7


 350 0206 94F82330 		ldrb	r3, [r4, #35]	@ zero_extendqisi2
 351 020a 1B07     		lsls	r3, r3, #28
 352 020c 3FF549AF 		bmi	.L32
 353 0210 039B     		ldr	r3, [sp, #12]
 354 0212 43F00403 		orr	r3, r3, #4
 355 0216 0393     		str	r3, [sp, #12]
 356 0218 43E7     		b	.L32
 357              	.L68:
 358 021a 0134     		adds	r4, r4, #1
 359 021c 73E7     		b	.L33
 360              	.L70:
 361 021e 039B     		ldr	r3, [sp, #12]
 362 0220 0093     		str	r3, [sp]
 363 0222 5246     		mov	r2, r10
 364 0224 049B     		ldr	r3, [sp, #16]
 365 0226 A4EB0801 		sub	r1, r4, r8
 366 022a 3046     		mov	r0, r6
 367 022c FFF7FEFF 		bl	lv_txt_get_width
 368 0230 BDF83CB0 		ldrh	fp, [sp, #60]
 369 0234 BDF83830 		ldrh	r3, [sp, #56]
 370 0238 0BF1010B 		add	fp, fp, #1
 371 023c ABEB030B 		sub	fp, fp, r3
 372 0240 ABEB000B 		sub	fp, fp, r0
 373 0244 0FFA8BFB 		sxth	fp, fp
 374 0248 66E7     		b	.L38
 375              	.L45:
 376 024a 9846     		mov	r8, r3
 377 024c 3E46     		mov	r6, r7
 378 024e 1C46     		mov	r4, r3
 379 0250 59E7     		b	.L33
 380              	.L47:
 381 0252 1446     		mov	r4, r2
 382 0254 A6E7     		b	.L39
 383              	.L73:
 384 0256 00BF     		.align	2
 385              	.L72:
 386 0258 00000000 		.word	_lv_txt_encoded_prev
 387 025c 00000000 		.word	_lv_txt_encoded_get_char_id
 389              		.section	.text.lv_label_destructor,"ax",%progbits
 390              		.align	1
 391              		.p2align 2,,3
 392              		.syntax unified
 393              		.thumb
 394              		.thumb_func
 396              	lv_label_destructor:
 397              		@ args = 0, pretend = 0, frame = 0
 398              		@ frame_needed = 0, uses_anonymous_args = 0
 399 0000 91F84830 		ldrb	r3, [r1, #72]	@ zero_extendqisi2
 400 0004 5A06     		lsls	r2, r3, #25
 401 0006 10B5     		push	{r4, lr}
 402 0008 0C46     		mov	r4, r1
 403 000a 03D5     		bpl	.L75
 404 000c 886A     		ldr	r0, [r1, #40]
 405 000e 08B1     		cbz	r0, .L75
 406 0010 FFF7FEFF 		bl	lv_mem_free
 407              	.L75:
 408 0014 94F84830 		ldrb	r3, [r4, #72]	@ zero_extendqisi2
ARM GAS  /var/folders/lp/x54gwt890xv47sdkqj1k04q40000gn/T//ccK0uHT5.s 			page 8


 409 0018 23F04003 		bic	r3, r3, #64
 410 001c 0022     		movs	r2, #0
 411 001e 84F84830 		strb	r3, [r4, #72]
 412 0022 1B07     		lsls	r3, r3, #28
 413 0024 A262     		str	r2, [r4, #40]
 414 0026 02D5     		bpl	.L84
 415 0028 0023     		movs	r3, #0
 416 002a 6362     		str	r3, [r4, #36]
 417 002c 10BD     		pop	{r4, pc}
 418              	.L84:
 419 002e 606A     		ldr	r0, [r4, #36]
 420 0030 FFF7FEFF 		bl	lv_mem_free
 421 0034 0023     		movs	r3, #0
 422 0036 6362     		str	r3, [r4, #36]
 423 0038 10BD     		pop	{r4, pc}
 425 003a 00BF     		.section	.text.lv_label_refr_text.part.0,"ax",%progbits
 426              		.align	1
 427              		.p2align 2,,3
 428              		.syntax unified
 429              		.thumb
 430              		.thumb_func
 432              	lv_label_refr_text.part.0:
 433              		@ args = 0, pretend = 0, frame = 96
 434              		@ frame_needed = 0, uses_anonymous_args = 0
 435 0000 2DE9F04F 		push	{r4, r5, r6, r7, r8, r9, r10, fp, lr}
 436 0004 4FF0FF33 		mov	r3, #-1
 437 0008 9DB0     		sub	sp, sp, #116
 438 000a 08A9     		add	r1, sp, #32
 439 000c 0363     		str	r3, [r0, #48]
 440 000e 0446     		mov	r4, r0
 441 0010 FFF7FEFF 		bl	lv_obj_get_content_coords
 442 0014 BDF82450 		ldrh	r5, [sp, #36]
 443 0018 BDF82030 		ldrh	r3, [sp, #32]
 444 001c 5722     		movs	r2, #87
 445 001e 0021     		movs	r1, #0
 446 0020 0135     		adds	r5, r5, #1
 447 0022 2046     		mov	r0, r4
 448 0024 ED1A     		subs	r5, r5, r3
 449 0026 FFF7FEFF 		bl	lv_obj_get_style_prop
 450 002a 5922     		movs	r2, #89
 451 002c 0021     		movs	r1, #0
 452 002e 0646     		mov	r6, r0
 453 0030 2046     		mov	r0, r4
 454 0032 FFF7FEFF 		bl	lv_obj_get_style_prop
 455 0036 5822     		movs	r2, #88
 456 0038 0021     		movs	r1, #0
 457 003a 8046     		mov	r8, r0
 458 003c 0FFA80F9 		sxth	r9, r0
 459 0040 2046     		mov	r0, r4
 460 0042 FFF7FEFF 		bl	lv_obj_get_style_prop
 461 0046 94F84830 		ldrb	r3, [r4, #72]	@ zero_extendqisi2
 462 004a 07B2     		sxth	r7, r0
 463 004c 9A06     		lsls	r2, r3, #26
 464 004e C3F3001A 		ubfx	r10, r3, #4, #1
 465 0052 4FF00102 		mov	r2, #1
 466 0056 4FF00001 		mov	r1, #0
 467 005a 2046     		mov	r0, r4
ARM GAS  /var/folders/lp/x54gwt890xv47sdkqj1k04q40000gn/T//ccK0uHT5.s 			page 9


 468 005c 48BF     		it	mi
 469 005e 4AF0020A 		orrmi	r10, r10, #2
 470 0062 FFF7FEFF 		bl	lv_obj_get_style_prop
 471 0066 42F2D173 		movw	r3, #10193
 472 006a 00B2     		sxth	r0, r0
 473 006c 9842     		cmp	r0, r3
 474 006e 2DB2     		sxth	r5, r5
 475 0070 05D1     		bne	.L87
 476 0072 94F82330 		ldrb	r3, [r4, #35]	@ zero_extendqisi2
 477 0076 1B07     		lsls	r3, r3, #28
 478 0078 58BF     		it	pl
 479 007a 4AF0040A 		orrpl	r10, r10, #4
 480              	.L87:
 481 007e CDE9015A 		strd	r5, r10, [sp, #4]
 482 0082 CDF80090 		str	r9, [sp]
 483 0086 616A     		ldr	r1, [r4, #36]
 484 0088 3B46     		mov	r3, r7
 485 008a 3246     		mov	r2, r6
 486 008c 06A8     		add	r0, sp, #24
 487 008e FFF7FEFF 		bl	lv_txt_get_size
 488 0092 2046     		mov	r0, r4
 489 0094 FFF7FEFF 		bl	lv_obj_refresh_self_size
 490 0098 94F84810 		ldrb	r1, [r4, #72]	@ zero_extendqisi2
 491 009c 01F00701 		and	r1, r1, #7
 492 00a0 0229     		cmp	r1, #2
 493 00a2 29D0     		beq	.L159
 494 00a4 0329     		cmp	r1, #3
 495 00a6 00F0DF80 		beq	.L160
 496 00aa 0129     		cmp	r1, #1
 497 00ac 05D0     		beq	.L161
 498              	.L105:
 499 00ae 2046     		mov	r0, r4
 500 00b0 FFF7FEFF 		bl	lv_obj_invalidate
 501 00b4 1DB0     		add	sp, sp, #116
 502              		@ sp needed
 503 00b6 BDE8F08F 		pop	{r4, r5, r6, r7, r8, r9, r10, fp, pc}
 504              	.L161:
 505 00ba BDF82630 		ldrh	r3, [sp, #38]
 506 00be BDF82220 		ldrh	r2, [sp, #34]
 507 00c2 0133     		adds	r3, r3, #1
 508 00c4 9B1A     		subs	r3, r3, r2
 509 00c6 BDF91A20 		ldrsh	r2, [sp, #26]
 510 00ca 1BB2     		sxth	r3, r3
 511 00cc 9A42     		cmp	r2, r3
 512 00ce 0ADD     		ble	.L118
 513 00d0 B6F90830 		ldrsh	r3, [r6, #8]
 514 00d4 9342     		cmp	r3, r2
 515 00d6 06DA     		bge	.L118
 516 00d8 AC4B     		ldr	r3, .L167
 517 00da 606A     		ldr	r0, [r4, #36]
 518 00dc 1B68     		ldr	r3, [r3]
 519 00de 9847     		blx	r3
 520 00e0 0328     		cmp	r0, #3
 521 00e2 00F25B81 		bhi	.L162
 522              	.L118:
 523 00e6 4FF0FF33 		mov	r3, #-1
 524 00ea E362     		str	r3, [r4, #44]
ARM GAS  /var/folders/lp/x54gwt890xv47sdkqj1k04q40000gn/T//ccK0uHT5.s 			page 10


 525 00ec 2046     		mov	r0, r4
 526 00ee FFF7FEFF 		bl	lv_obj_invalidate
 527 00f2 1DB0     		add	sp, sp, #116
 528              		@ sp needed
 529 00f4 BDE8F08F 		pop	{r4, r5, r6, r7, r8, r9, r10, fp, pc}
 530              	.L159:
 531 00f8 6622     		movs	r2, #102
 532 00fa 0021     		movs	r1, #0
 533 00fc 2046     		mov	r0, r4
 534 00fe FFF7FEFF 		bl	lv_obj_get_style_prop
 535 0102 87B2     		uxth	r7, r0
 536 0104 002F     		cmp	r7, #0
 537 0106 00F0A280 		beq	.L163
 538              	.L89:
 539 010a 0AAD     		add	r5, sp, #40
 540 010c 2846     		mov	r0, r5
 541 010e FFF7FEFF 		bl	lv_anim_init
 542 0112 4FF6FF73 		movw	r3, #65535
 543 0116 ADF86830 		strh	r3, [sp, #104]	@ movhi
 544 011a 4FF49673 		mov	r3, #300
 545 011e 1793     		str	r3, [sp, #92]
 546 0120 1993     		str	r3, [sp, #100]
 547 0122 BDF82430 		ldrh	r3, [sp, #36]
 548 0126 BDF82010 		ldrh	r1, [sp, #32]
 549 012a BDF91820 		ldrsh	r2, [sp, #24]
 550 012e 0A94     		str	r4, [sp, #40]
 551 0130 0133     		adds	r3, r3, #1
 552 0132 5B1A     		subs	r3, r3, r1
 553 0134 1BB2     		sxth	r3, r3
 554 0136 9A42     		cmp	r2, r3
 555 0138 3FDD     		ble	.L90
 556 013a 9B1A     		subs	r3, r3, r2
 557 013c 9449     		ldr	r1, .L167+4
 558 013e 1493     		str	r3, [sp, #80]
 559 0140 0022     		movs	r2, #0
 560 0142 0023     		movs	r3, #0
 561 0144 2046     		mov	r0, r4
 562 0146 CDE91223 		strd	r2, [sp, #72]
 563 014a 0B91     		str	r1, [sp, #44]
 564 014c FFF7FEFF 		bl	lv_anim_get
 565 0150 0028     		cmp	r0, #0
 566 0152 00F0C481 		beq	.L164
 567 0156 036B     		ldr	r3, [r0, #48]
 568 0158 159E     		ldr	r6, [sp, #84]
 569 015a 1299     		ldr	r1, [sp, #72]
 570 015c 149A     		ldr	r2, [sp, #80]
 571 015e B342     		cmp	r3, r6
 572 0160 15DA     		bge	.L93
 573 0162 90F84200 		ldrb	r0, [r0, #66]	@ zero_extendqisi2
 574 0166 1693     		str	r3, [sp, #88]
 575 0168 9DF86A30 		ldrb	r3, [sp, #106]	@ zero_extendqisi2
 576 016c 8607     		lsls	r6, r0, #30
 577 016e 23F00103 		bic	r3, r3, #1
 578 0172 8DF86A30 		strb	r3, [sp, #106]
 579 0176 0AD5     		bpl	.L93
 580 0178 0B46     		mov	r3, r1
 581 017a 1292     		str	r2, [sp, #72]
ARM GAS  /var/folders/lp/x54gwt890xv47sdkqj1k04q40000gn/T//ccK0uHT5.s 			page 11


 582 017c 1491     		str	r1, [sp, #80]
 583 017e 1146     		mov	r1, r2
 584 0180 1A46     		mov	r2, r3
 585 0182 9DF86A30 		ldrb	r3, [sp, #106]	@ zero_extendqisi2
 586 0186 43F00203 		orr	r3, r3, #2
 587 018a 8DF86A30 		strb	r3, [sp, #106]
 588              	.L93:
 589 018e 3846     		mov	r0, r7
 590 0190 FFF7FEFF 		bl	lv_anim_speed_to_time
 591 0194 0346     		mov	r3, r0
 592 0196 2846     		mov	r0, r5
 593 0198 1593     		str	r3, [sp, #84]
 594 019a 1893     		str	r3, [sp, #96]
 595 019c FFF7FEFF 		bl	lv_anim_start
 596              	.L112:
 597 01a0 7C49     		ldr	r1, .L167+8
 598 01a2 2046     		mov	r0, r4
 599 01a4 FFF7FEFF 		bl	lv_anim_del
 600 01a8 0023     		movs	r3, #0
 601 01aa A4F84630 		strh	r3, [r4, #70]	@ movhi
 602 01ae 2046     		mov	r0, r4
 603 01b0 FFF7FEFF 		bl	lv_obj_invalidate
 604 01b4 1DB0     		add	sp, sp, #116
 605              		@ sp needed
 606 01b6 BDE8F08F 		pop	{r4, r5, r6, r7, r8, r9, r10, fp, pc}
 607              	.L90:
 608 01ba 7549     		ldr	r1, .L167+4
 609 01bc 2046     		mov	r0, r4
 610 01be FFF7FEFF 		bl	lv_anim_del
 611 01c2 BDF82630 		ldrh	r3, [sp, #38]
 612 01c6 BDF82220 		ldrh	r2, [sp, #34]
 613 01ca 0133     		adds	r3, r3, #1
 614 01cc 9B1A     		subs	r3, r3, r2
 615 01ce BDF91A20 		ldrsh	r2, [sp, #26]
 616 01d2 1BB2     		sxth	r3, r3
 617 01d4 4FF00008 		mov	r8, #0
 618 01d8 9A42     		cmp	r2, r3
 619 01da A4F84480 		strh	r8, [r4, #68]	@ movhi
 620 01de DFDD     		ble	.L112
 621 01e0 9B1A     		subs	r3, r3, r2
 622 01e2 B6F90820 		ldrsh	r2, [r6, #8]
 623 01e6 6B49     		ldr	r1, .L167+8
 624 01e8 0B91     		str	r1, [sp, #44]
 625 01ea 9B1A     		subs	r3, r3, r2
 626 01ec 1493     		str	r3, [sp, #80]
 627 01ee 0022     		movs	r2, #0
 628 01f0 0023     		movs	r3, #0
 629 01f2 2046     		mov	r0, r4
 630 01f4 CDE91223 		strd	r2, [sp, #72]
 631 01f8 FFF7FEFF 		bl	lv_anim_get
 632 01fc 0028     		cmp	r0, #0
 633 01fe 00F06081 		beq	.L165
 634 0202 066B     		ldr	r6, [r0, #48]
 635 0204 159B     		ldr	r3, [sp, #84]
 636 0206 1299     		ldr	r1, [sp, #72]
 637 0208 149A     		ldr	r2, [sp, #80]
 638 020a 9E42     		cmp	r6, r3
ARM GAS  /var/folders/lp/x54gwt890xv47sdkqj1k04q40000gn/T//ccK0uHT5.s 			page 12


 639 020c 15DA     		bge	.L100
 640 020e 90F84200 		ldrb	r0, [r0, #66]	@ zero_extendqisi2
 641 0212 9DF86A30 		ldrb	r3, [sp, #106]	@ zero_extendqisi2
 642 0216 1696     		str	r6, [sp, #88]
 643 0218 68F30003 		bfi	r3, r8, #0, #1
 644 021c 8007     		lsls	r0, r0, #30
 645 021e 8DF86A30 		strb	r3, [sp, #106]
 646 0222 0AD5     		bpl	.L100
 647 0224 0B46     		mov	r3, r1
 648 0226 1292     		str	r2, [sp, #72]
 649 0228 1491     		str	r1, [sp, #80]
 650 022a 1146     		mov	r1, r2
 651 022c 1A46     		mov	r2, r3
 652 022e 9DF86A30 		ldrb	r3, [sp, #106]	@ zero_extendqisi2
 653 0232 43F00203 		orr	r3, r3, #2
 654 0236 8DF86A30 		strb	r3, [sp, #106]
 655              	.L100:
 656 023a 3846     		mov	r0, r7
 657 023c FFF7FEFF 		bl	lv_anim_speed_to_time
 658 0240 0346     		mov	r3, r0
 659 0242 2846     		mov	r0, r5
 660 0244 1593     		str	r3, [sp, #84]
 661 0246 1893     		str	r3, [sp, #96]
 662 0248 FFF7FEFF 		bl	lv_anim_start
 663 024c 2FE7     		b	.L105
 664              	.L163:
 665 024e 2046     		mov	r0, r4
 666 0250 FFF7FEFF 		bl	lv_obj_get_disp
 667 0254 FFF7FEFF 		bl	lv_disp_get_dpi
 668 0258 A7F1AA37 		sub	r7, r7, #-1431655766
 669 025c 87FB0037 		smull	r3, r7, r7, r0
 670 0260 A7EBE077 		sub	r7, r7, r0, asr #31
 671 0264 BFB2     		uxth	r7, r7
 672 0266 50E7     		b	.L89
 673              	.L160:
 674 0268 6422     		movs	r2, #100
 675 026a 0021     		movs	r1, #0
 676 026c 2046     		mov	r0, r4
 677 026e FFF7FEFF 		bl	lv_obj_get_style_prop
 678 0272 6622     		movs	r2, #102
 679 0274 0021     		movs	r1, #0
 680 0276 8046     		mov	r8, r0
 681 0278 2046     		mov	r0, r4
 682 027a FFF7FEFF 		bl	lv_obj_get_style_prop
 683 027e 87B2     		uxth	r7, r0
 684 0280 002F     		cmp	r7, #0
 685 0282 77D0     		beq	.L166
 686              	.L107:
 687 0284 0AAD     		add	r5, sp, #40
 688 0286 2846     		mov	r0, r5
 689 0288 FFF7FEFF 		bl	lv_anim_init
 690 028c BDF82430 		ldrh	r3, [sp, #36]
 691 0290 BDF82020 		ldrh	r2, [sp, #32]
 692 0294 0A94     		str	r4, [sp, #40]
 693 0296 0133     		adds	r3, r3, #1
 694 0298 9B1A     		subs	r3, r3, r2
 695 029a BDF91820 		ldrsh	r2, [sp, #24]
ARM GAS  /var/folders/lp/x54gwt890xv47sdkqj1k04q40000gn/T//ccK0uHT5.s 			page 13


 696 029e 1BB2     		sxth	r3, r3
 697 02a0 4FF6FF71 		movw	r1, #65535
 698 02a4 9A42     		cmp	r2, r3
 699 02a6 ADF86810 		strh	r1, [sp, #104]	@ movhi
 700 02aa 2BDD     		ble	.L108
 701 02ac 2022     		movs	r2, #32
 702 02ae 1146     		mov	r1, r2
 703 02b0 3046     		mov	r0, r6
 704 02b2 FFF7FEFF 		bl	lv_font_get_glyph_width
 705 02b6 BDF91830 		ldrsh	r3, [sp, #24]
 706 02ba 354E     		ldr	r6, .L167+4
 707 02bc 0B96     		str	r6, [sp, #44]
 708 02be A0EB8002 		sub	r2, r0, r0, lsl #2
 709 02c2 D21A     		subs	r2, r2, r3
 710 02c4 0021     		movs	r1, #0
 711 02c6 3846     		mov	r0, r7
 712 02c8 4FF0000A 		mov	r10, #0
 713 02cc 4FF0000B 		mov	fp, #0
 714 02d0 CDE912AB 		strd	r10, [sp, #72]
 715 02d4 1492     		str	r2, [sp, #80]
 716 02d6 FFF7FEFF 		bl	lv_anim_speed_to_time
 717 02da 3146     		mov	r1, r6
 718 02dc 1590     		str	r0, [sp, #84]
 719 02de 2046     		mov	r0, r4
 720 02e0 FFF7FEFF 		bl	lv_anim_get
 721 02e4 00B1     		cbz	r0, .L109
 722 02e6 006B     		ldr	r0, [r0, #48]
 723              	.L109:
 724 02e8 B8F1000F 		cmp	r8, #0
 725 02ec 00F00581 		beq	.L110
 726 02f0 D8F83020 		ldr	r2, [r8, #48]
 727 02f4 D8F83C30 		ldr	r3, [r8, #60]
 728 02f8 1993     		str	r3, [sp, #100]
 729 02fa 1692     		str	r2, [sp, #88]
 730              	.L111:
 731 02fc 2846     		mov	r0, r5
 732 02fe FFF7FEFF 		bl	lv_anim_start
 733 0302 4DE7     		b	.L112
 734              	.L108:
 735 0304 2249     		ldr	r1, .L167+4
 736 0306 2046     		mov	r0, r4
 737 0308 FFF7FEFF 		bl	lv_anim_del
 738 030c BDF82630 		ldrh	r3, [sp, #38]
 739 0310 BDF82220 		ldrh	r2, [sp, #34]
 740 0314 BDF91A00 		ldrsh	r0, [sp, #26]
 741 0318 0133     		adds	r3, r3, #1
 742 031a 9B1A     		subs	r3, r3, r2
 743 031c 1BB2     		sxth	r3, r3
 744 031e 0021     		movs	r1, #0
 745 0320 9842     		cmp	r0, r3
 746 0322 A4F84410 		strh	r1, [r4, #68]	@ movhi
 747 0326 7FF73BAF 		ble	.L112
 748 032a B6F90830 		ldrsh	r3, [r6, #8]
 749 032e 194E     		ldr	r6, .L167+8
 750 0330 0B96     		str	r6, [sp, #44]
 751 0332 4242     		rsbs	r2, r0, #0
 752 0334 D21A     		subs	r2, r2, r3
ARM GAS  /var/folders/lp/x54gwt890xv47sdkqj1k04q40000gn/T//ccK0uHT5.s 			page 14


 753 0336 3846     		mov	r0, r7
 754 0338 4FF0000A 		mov	r10, #0
 755 033c 4FF0000B 		mov	fp, #0
 756 0340 CDE912AB 		strd	r10, [sp, #72]
 757 0344 1492     		str	r2, [sp, #80]
 758 0346 FFF7FEFF 		bl	lv_anim_speed_to_time
 759 034a 3146     		mov	r1, r6
 760 034c 1590     		str	r0, [sp, #84]
 761 034e 2046     		mov	r0, r4
 762 0350 FFF7FEFF 		bl	lv_anim_get
 763 0354 00B1     		cbz	r0, .L113
 764 0356 006B     		ldr	r0, [r0, #48]
 765              	.L113:
 766 0358 B8F1000F 		cmp	r8, #0
 767 035c 00F0D980 		beq	.L114
 768 0360 D8F83020 		ldr	r2, [r8, #48]
 769 0364 D8F83C30 		ldr	r3, [r8, #60]
 770 0368 1993     		str	r3, [sp, #100]
 771 036a 1692     		str	r2, [sp, #88]
 772              	.L115:
 773 036c 2846     		mov	r0, r5
 774 036e FFF7FEFF 		bl	lv_anim_start
 775 0372 9CE6     		b	.L105
 776              	.L166:
 777 0374 2046     		mov	r0, r4
 778 0376 FFF7FEFF 		bl	lv_obj_get_disp
 779 037a FFF7FEFF 		bl	lv_disp_get_dpi
 780 037e 064B     		ldr	r3, .L167+12
 781 0380 83FB0037 		smull	r3, r7, r3, r0
 782 0384 A7EBE077 		sub	r7, r7, r0, asr #31
 783 0388 BFB2     		uxth	r7, r7
 784 038a 7BE7     		b	.L107
 785              	.L168:
 786              		.align	2
 787              	.L167:
 788 038c 00000000 		.word	_lv_txt_get_encoded_length
 789 0390 00000000 		.word	set_ofs_x_anim
 790 0394 00000000 		.word	set_ofs_y_anim
 791 0398 56555555 		.word	1431655766
 792              	.L162:
 793 039c BDF82450 		ldrh	r5, [sp, #36]
 794 03a0 BDF82030 		ldrh	r3, [sp, #32]
 795 03a4 2E22     		movs	r2, #46
 796 03a6 1146     		mov	r1, r2
 797 03a8 3046     		mov	r0, r6
 798 03aa 0135     		adds	r5, r5, #1
 799 03ac ED1A     		subs	r5, r5, r3
 800 03ae FFF7FEFF 		bl	lv_font_get_glyph_width
 801 03b2 BDF82630 		ldrh	r3, [sp, #38]
 802 03b6 BDF82220 		ldrh	r2, [sp, #34]
 803 03ba B6F90810 		ldrsh	r1, [r6, #8]
 804 03be 3844     		add	r0, r0, r7
 805 03c0 0133     		adds	r3, r3, #1
 806 03c2 9B1A     		subs	r3, r3, r2
 807 03c4 C0EB8036 		rsb	r6, r0, r0, lsl #14
 808 03c8 8944     		add	r9, r9, r1
 809 03ca 1AB2     		sxth	r2, r3
ARM GAS  /var/folders/lp/x54gwt890xv47sdkqj1k04q40000gn/T//ccK0uHT5.s 			page 15


 810 03cc 00EB8600 		add	r0, r0, r6, lsl #2
 811 03d0 ADB2     		uxth	r5, r5
 812 03d2 0544     		add	r5, r5, r0
 813 03d4 92FBF9F0 		sdiv	r0, r2, r9
 814 03d8 09FB1022 		mls	r2, r9, r0, r2
 815 03dc 10B2     		sxth	r0, r2
 816 03de 8142     		cmp	r1, r0
 817 03e0 9BB2     		uxth	r3, r3
 818 03e2 D4BF     		ite	le
 819 03e4 5B18     		addle	r3, r3, r1
 820 03e6 A3EB0803 		subgt	r3, r3, r8
 821 03ea 9B1A     		subs	r3, r3, r2
 822 03ec 1BB2     		sxth	r3, r3
 823 03ee 07A9     		add	r1, sp, #28
 824 03f0 2046     		mov	r0, r4
 825 03f2 ADF81E30 		strh	r3, [sp, #30]	@ movhi
 826 03f6 ADF81C50 		strh	r5, [sp, #28]	@ movhi
 827 03fa FFF7FEFF 		bl	lv_label_get_letter_on.part.0
 828 03fe 656A     		ldr	r5, [r4, #36]
 829 0400 8046     		mov	r8, r0
 830 0402 2846     		mov	r0, r5
 831 0404 FFF7FEFF 		bl	strlen
 832 0408 5E4B     		ldr	r3, .L169
 833 040a 8246     		mov	r10, r0
 834 040c 1B68     		ldr	r3, [r3]
 835 040e 2846     		mov	r0, r5
 836 0410 4146     		mov	r1, r8
 837 0412 9847     		blx	r3
 838 0414 00F10309 		add	r9, r0, #3
 839 0418 CA45     		cmp	r10, r9
 840 041a 0746     		mov	r7, r0
 841 041c 0A90     		str	r0, [sp, #40]
 842 041e 28BF     		it	cs
 843 0420 0AAD     		addcs	r5, sp, #40
 844 0422 0CD2     		bcs	.L121
 845 0424 584E     		ldr	r6, .L169+4
 846 0426 0AAD     		add	r5, sp, #40
 847              	.L122:
 848 0428 3368     		ldr	r3, [r6]
 849 042a 606A     		ldr	r0, [r4, #36]
 850 042c 2946     		mov	r1, r5
 851 042e 9847     		blx	r3
 852 0430 0A9F     		ldr	r7, [sp, #40]
 853 0432 07F10309 		add	r9, r7, #3
 854 0436 CA45     		cmp	r10, r9
 855 0438 08F1FF38 		add	r8, r8, #-1
 856 043c F4D3     		bcc	.L122
 857              	.L121:
 858 043e 0423     		movs	r3, #4
 859 0440 524A     		ldr	r2, .L169+8
 860 0442 DFF84CB1 		ldr	fp, .L169+12
 861 0446 CDF81480 		str	r8, [sp, #20]
 862 044a 3846     		mov	r0, r7
 863 044c 0026     		movs	r6, #0
 864 044e 9846     		mov	r8, r3
 865              	.L125:
 866 0450 636A     		ldr	r3, [r4, #36]
ARM GAS  /var/folders/lp/x54gwt890xv47sdkqj1k04q40000gn/T//ccK0uHT5.s 			page 16


 867 0452 1844     		add	r0, r0, r3
 868 0454 1368     		ldr	r3, [r2]
 869 0456 9847     		blx	r3
 870 0458 3044     		add	r0, r0, r6
 871 045a C6B2     		uxtb	r6, r0
 872 045c DBF80030 		ldr	r3, [fp]
 873 0460 606A     		ldr	r0, [r4, #36]
 874 0462 2946     		mov	r1, r5
 875 0464 9847     		blx	r3
 876 0466 032E     		cmp	r6, #3
 877 0468 5FD8     		bhi	.L123
 878 046a 0A98     		ldr	r0, [sp, #40]
 879 046c 8245     		cmp	r10, r0
 880 046e 03D3     		bcc	.L157
 881 0470 B8F10108 		subs	r8, r8, #1
 882 0474 454A     		ldr	r2, .L169+8
 883 0476 EBD1     		bne	.L125
 884              	.L157:
 885 0478 94F84830 		ldrb	r3, [r4, #72]	@ zero_extendqisi2
 886 047c 656A     		ldr	r5, [r4, #36]
 887 047e DDF81480 		ldr	r8, [sp, #20]
 888 0482 13F04002 		ands	r2, r3, #64
 889 0486 3D44     		add	r5, r5, r7
 890 0488 57D1     		bne	.L132
 891 048a 62F38613 		bfi	r3, r2, #6, #1
 892 048e 84F84830 		strb	r3, [r4, #72]
 893 0492 A262     		str	r2, [r4, #40]
 894              	.L129:
 895 0494 3246     		mov	r2, r6
 896 0496 2946     		mov	r1, r5
 897 0498 04F12800 		add	r0, r4, #40
 898 049c FFF7FEFF 		bl	lv_memcpy
 899              	.L131:
 900 04a0 636A     		ldr	r3, [r4, #36]
 901 04a2 2E22     		movs	r2, #46
 902 04a4 DA55     		strb	r2, [r3, r7]
 903 04a6 636A     		ldr	r3, [r4, #36]
 904 04a8 3B44     		add	r3, r3, r7
 905 04aa 08F10301 		add	r1, r8, #3
 906 04ae 5A70     		strb	r2, [r3, #1]
 907 04b0 636A     		ldr	r3, [r4, #36]
 908 04b2 3B44     		add	r3, r3, r7
 909 04b4 0020     		movs	r0, #0
 910 04b6 9A70     		strb	r2, [r3, #2]
 911 04b8 636A     		ldr	r3, [r4, #36]
 912 04ba 03F80900 		strb	r0, [r3, r9]
 913 04be E162     		str	r1, [r4, #44]
 914 04c0 F5E5     		b	.L105
 915              	.L165:
 916 04c2 DDE91423 		ldrd	r2, r3, [sp, #80]
 917 04c6 4345     		cmp	r3, r8
 918 04c8 1299     		ldr	r1, [sp, #72]
 919 04ca 7FF7B6AE 		ble	.L100
 920 04ce 9DF86A30 		ldrb	r3, [sp, #106]	@ zero_extendqisi2
 921 04d2 1690     		str	r0, [sp, #88]
 922 04d4 60F30003 		bfi	r3, r0, #0, #1
 923 04d8 8DF86A30 		strb	r3, [sp, #106]
ARM GAS  /var/folders/lp/x54gwt890xv47sdkqj1k04q40000gn/T//ccK0uHT5.s 			page 17


 924 04dc ADE6     		b	.L100
 925              	.L164:
 926 04de DDE91423 		ldrd	r2, r3, [sp, #80]
 927 04e2 002B     		cmp	r3, #0
 928 04e4 1299     		ldr	r1, [sp, #72]
 929 04e6 7FF752AE 		ble	.L93
 930 04ea 9DF86A30 		ldrb	r3, [sp, #106]	@ zero_extendqisi2
 931 04ee 1690     		str	r0, [sp, #88]
 932 04f0 60F30003 		bfi	r3, r0, #0, #1
 933 04f4 8DF86A30 		strb	r3, [sp, #106]
 934 04f8 49E6     		b	.L93
 935              	.L110:
 936 04fa 159B     		ldr	r3, [sp, #84]
 937 04fc 8342     		cmp	r3, r0
 938 04fe 7FF7FDAE 		ble	.L111
 939 0502 9DF86A30 		ldrb	r3, [sp, #106]	@ zero_extendqisi2
 940 0506 1690     		str	r0, [sp, #88]
 941 0508 68F30003 		bfi	r3, r8, #0, #1
 942 050c 8DF86A30 		strb	r3, [sp, #106]
 943 0510 F4E6     		b	.L111
 944              	.L114:
 945 0512 159B     		ldr	r3, [sp, #84]
 946 0514 8342     		cmp	r3, r0
 947 0516 7FF729AF 		ble	.L115
 948 051a 9DF86A30 		ldrb	r3, [sp, #106]	@ zero_extendqisi2
 949 051e 1690     		str	r0, [sp, #88]
 950 0520 68F30003 		bfi	r3, r8, #0, #1
 951 0524 8DF86A30 		strb	r3, [sp, #106]
 952 0528 20E7     		b	.L115
 953              	.L123:
 954 052a 94F84830 		ldrb	r3, [r4, #72]	@ zero_extendqisi2
 955 052e 656A     		ldr	r5, [r4, #36]
 956 0530 DDF81480 		ldr	r8, [sp, #20]
 957 0534 5B06     		lsls	r3, r3, #25
 958 0536 3D44     		add	r5, r5, r7
 959 0538 03D5     		bpl	.L126
 960              	.L132:
 961 053a A06A     		ldr	r0, [r4, #40]
 962 053c 08B1     		cbz	r0, .L126
 963 053e FFF7FEFF 		bl	lv_mem_free
 964              	.L126:
 965 0542 94F84830 		ldrb	r3, [r4, #72]	@ zero_extendqisi2
 966 0546 4FF0000A 		mov	r10, #0
 967 054a 23F04003 		bic	r3, r3, #64
 968 054e 042E     		cmp	r6, #4
 969 0550 84F84830 		strb	r3, [r4, #72]
 970 0554 C4F828A0 		str	r10, [r4, #40]
 971 0558 9CD9     		bls	.L129
 972 055a 701C     		adds	r0, r6, #1
 973 055c FFF7FEFF 		bl	lv_mem_alloc
 974 0560 A062     		str	r0, [r4, #40]
 975 0562 0028     		cmp	r0, #0
 976 0564 3FF4A3AD 		beq	.L105
 977 0568 2946     		mov	r1, r5
 978 056a 3246     		mov	r2, r6
 979 056c FFF7FEFF 		bl	lv_memcpy
 980 0570 A36A     		ldr	r3, [r4, #40]
ARM GAS  /var/folders/lp/x54gwt890xv47sdkqj1k04q40000gn/T//ccK0uHT5.s 			page 18


 981 0572 03F806A0 		strb	r10, [r3, r6]
 982 0576 94F84830 		ldrb	r3, [r4, #72]	@ zero_extendqisi2
 983 057a 43F04003 		orr	r3, r3, #64
 984 057e 84F84830 		strb	r3, [r4, #72]
 985 0582 8DE7     		b	.L131
 986              	.L170:
 987              		.align	2
 988              	.L169:
 989 0584 00000000 		.word	_lv_txt_encoded_get_byte_id
 990 0588 00000000 		.word	_lv_txt_encoded_prev
 991 058c 00000000 		.word	_lv_txt_encoded_size
 992 0590 00000000 		.word	_lv_txt_encoded_next
 994              		.section	.text.lv_label_event,"ax",%progbits
 995              		.align	1
 996              		.p2align 2,,3
 997              		.syntax unified
 998              		.thumb
 999              		.thumb_func
 1001              	lv_label_event:
 1002              		@ args = 0, pretend = 0, frame = 56
 1003              		@ frame_needed = 0, uses_anonymous_args = 0
 1004 0000 2DE9F043 		push	{r4, r5, r6, r7, r8, r9, lr}
 1005 0004 CB48     		ldr	r0, .L229
 1006 0006 93B0     		sub	sp, sp, #76
 1007 0008 0D46     		mov	r5, r1
 1008 000a FFF7FEFF 		bl	lv_obj_event_base
 1009 000e 0128     		cmp	r0, #1
 1010 0010 02D0     		beq	.L223
 1011              	.L171:
 1012 0012 13B0     		add	sp, sp, #76
 1013              		@ sp needed
 1014 0014 BDE8F083 		pop	{r4, r5, r6, r7, r8, r9, pc}
 1015              	.L223:
 1016 0018 2846     		mov	r0, r5
 1017 001a FFF7FEFF 		bl	lv_event_get_code
 1018 001e 0446     		mov	r4, r0
 1019 0020 2846     		mov	r0, r5
 1020 0022 FFF7FEFF 		bl	lv_event_get_target
 1021 0026 A4F11303 		sub	r3, r4, #19
 1022 002a 0646     		mov	r6, r0
 1023 002c 192B     		cmp	r3, #25
 1024 002e F0D8     		bhi	.L171
 1025 0030 01A2     		adr	r2, .L175
 1026 0032 52F823F0 		ldr	pc, [r2, r3, lsl #2]
 1027 0036 00BF     		.p2align 2
 1028              	.L175:
 1029 0038 E1010000 		.word	.L179+1
 1030 003c 13000000 		.word	.L171+1
 1031 0040 B7000000 		.word	.L178+1
 1032 0044 13000000 		.word	.L171+1
 1033 0048 13000000 		.word	.L171+1
 1034 004c 13000000 		.word	.L171+1
 1035 0050 13000000 		.word	.L171+1
 1036 0054 13000000 		.word	.L171+1
 1037 0058 13000000 		.word	.L171+1
 1038 005c 13000000 		.word	.L171+1
 1039 0060 13000000 		.word	.L171+1
ARM GAS  /var/folders/lp/x54gwt890xv47sdkqj1k04q40000gn/T//ccK0uHT5.s 			page 19


 1040 0064 13000000 		.word	.L171+1
 1041 0068 13000000 		.word	.L171+1
 1042 006c 13000000 		.word	.L171+1
 1043 0070 13000000 		.word	.L171+1
 1044 0074 13000000 		.word	.L171+1
 1045 0078 13000000 		.word	.L171+1
 1046 007c 13000000 		.word	.L171+1
 1047 0080 13000000 		.word	.L171+1
 1048 0084 13000000 		.word	.L171+1
 1049 0088 13000000 		.word	.L171+1
 1050 008c 13000000 		.word	.L171+1
 1051 0090 A1000000 		.word	.L177+1
 1052 0094 A1000000 		.word	.L177+1
 1053 0098 13000000 		.word	.L171+1
 1054 009c 01020000 		.word	.L174+1
 1055              		.p2align 1
 1056              	.L177:
 1057 00a0 FFF7FEFF 		bl	lv_label_revert_dots
 1058 00a4 736A     		ldr	r3, [r6, #36]
 1059 00a6 002B     		cmp	r3, #0
 1060 00a8 B3D0     		beq	.L171
 1061 00aa 3046     		mov	r0, r6
 1062 00ac 13B0     		add	sp, sp, #76
 1063              		@ sp needed
 1064 00ae BDE8F043 		pop	{r4, r5, r6, r7, r8, r9, lr}
 1065 00b2 FFF7FEBF 		b	lv_label_refr_text.part.0
 1066              	.L178:
 1067 00b6 2846     		mov	r0, r5
 1068 00b8 FFF7FEFF 		bl	lv_event_get_target
 1069 00bc 0446     		mov	r4, r0
 1070 00be 2846     		mov	r0, r5
 1071 00c0 FFF7FEFF 		bl	lv_event_get_draw_ctx
 1072 00c4 06A9     		add	r1, sp, #24
 1073 00c6 0546     		mov	r5, r0
 1074 00c8 2046     		mov	r0, r4
 1075 00ca FFF7FEFF 		bl	lv_obj_get_content_coords
 1076 00ce 94F84830 		ldrb	r3, [r4, #72]	@ zero_extendqisi2
 1077 00d2 0021     		movs	r1, #0
 1078 00d4 9A06     		lsls	r2, r3, #26
 1079 00d6 C3F30016 		ubfx	r6, r3, #4, #1
 1080 00da 4FF00102 		mov	r2, #1
 1081 00de 2046     		mov	r0, r4
 1082 00e0 48BF     		it	mi
 1083 00e2 46F00206 		orrmi	r6, r6, #2
 1084 00e6 FFF7FEFF 		bl	lv_obj_get_style_prop
 1085 00ea 42F2D173 		movw	r3, #10193
 1086 00ee 00B2     		sxth	r0, r0
 1087 00f0 9842     		cmp	r0, r3
 1088 00f2 00F0D780 		beq	.L224
 1089              	.L186:
 1090 00f6 0AA8     		add	r0, sp, #40
 1091 00f8 FFF7FEFF 		bl	lv_draw_label_dsc_init
 1092 00fc 636C     		ldr	r3, [r4, #68]
 1093 00fe CDF83E30 		str	r3, [sp, #62]	@ unaligned
 1094 0102 0021     		movs	r1, #0
 1095 0104 0AAA     		add	r2, sp, #40
 1096 0106 2046     		mov	r0, r4
ARM GAS  /var/folders/lp/x54gwt890xv47sdkqj1k04q40000gn/T//ccK0uHT5.s 			page 20


 1097 0108 8DF84560 		strb	r6, [sp, #69]
 1098 010c FFF7FEFF 		bl	lv_obj_init_draw_label_dsc
 1099 0110 9DF84430 		ldrb	r3, [sp, #68]	@ zero_extendqisi2
 1100 0114 13B9     		cbnz	r3, .L187
 1101 0116 0123     		movs	r3, #1
 1102 0118 8DF84430 		strb	r3, [sp, #68]
 1103              	.L187:
 1104 011c E36B     		ldr	r3, [r4, #60]
 1105 011e 216C     		ldr	r1, [r4, #64]
 1106 0120 0B93     		str	r3, [sp, #44]
 1107 0122 4FF6FF72 		movw	r2, #65535
 1108 0126 9342     		cmp	r3, r2
 1109 0128 0C91     		str	r1, [sp, #48]
 1110 012a 17D0     		beq	.L188
 1111 012c 9142     		cmp	r1, r2
 1112 012e 15D0     		beq	.L188
 1113 0130 5522     		movs	r2, #85
 1114 0132 4FF48021 		mov	r1, #262144
 1115 0136 2046     		mov	r0, r4
 1116 0138 FFF7FEFF 		bl	lv_obj_get_style_prop
 1117 013c 4FF48021 		mov	r1, #262144
 1118 0140 0246     		mov	r2, r0
 1119 0142 2046     		mov	r0, r4
 1120 0144 FFF7FEFF 		bl	_lv_obj_style_apply_color_filter
 1121 0148 2022     		movs	r2, #32
 1122 014a ADF83600 		strh	r0, [sp, #54]	@ movhi
 1123 014e 4FF48021 		mov	r1, #262144
 1124 0152 2046     		mov	r0, r4
 1125 0154 FFF7FEFF 		bl	lv_obj_get_style_prop
 1126 0158 ADF83800 		strh	r0, [sp, #56]	@ movhi
 1127              	.L188:
 1128 015c 94F84830 		ldrb	r3, [r4, #72]	@ zero_extendqisi2
 1129 0160 03F00602 		and	r2, r3, #6
 1130 0164 022A     		cmp	r2, #2
 1131 0166 00F0A480 		beq	.L216
 1132              	.L220:
 1133 016a 08AF     		add	r7, sp, #32
 1134              	.L189:
 1135 016c 03F00703 		and	r3, r3, #7
 1136 0170 032B     		cmp	r3, #3
 1137 0172 00F09480 		beq	.L201
 1138 0176 BDF81E30 		ldrh	r3, [sp, #30]
 1139 017a BDF81A20 		ldrh	r2, [sp, #26]
 1140 017e 0133     		adds	r3, r3, #1
 1141 0180 9B1A     		subs	r3, r3, r2
 1142 0182 1BB2     		sxth	r3, r3
 1143 0184 B3F5806F 		cmp	r3, #1024
 1144 0188 C0F28980 		blt	.L201
 1145 018c 04F13008 		add	r8, r4, #48
 1146              	.L191:
 1147 0190 AA68     		ldr	r2, [r5, #8]
 1148 0192 06A9     		add	r1, sp, #24
 1149 0194 3846     		mov	r0, r7
 1150 0196 FFF7FEFF 		bl	_lv_area_intersect
 1151 019a 0028     		cmp	r0, #0
 1152 019c 3FF439AF 		beq	.L171
 1153 01a0 94F84830 		ldrb	r3, [r4, #72]	@ zero_extendqisi2
ARM GAS  /var/folders/lp/x54gwt890xv47sdkqj1k04q40000gn/T//ccK0uHT5.s 			page 21


 1154 01a4 13F00709 		ands	r9, r3, #7
 1155 01a8 00F0B480 		beq	.L225
 1156              	.L193:
 1157 01ac 03F00602 		and	r2, r3, #6
 1158 01b0 022A     		cmp	r2, #2
 1159 01b2 636A     		ldr	r3, [r4, #36]
 1160 01b4 00F0A380 		beq	.L226
 1161 01b8 CDF80080 		str	r8, [sp]
 1162 01bc 06AA     		add	r2, sp, #24
 1163 01be 0AA9     		add	r1, sp, #40
 1164 01c0 2846     		mov	r0, r5
 1165 01c2 FFF7FEFF 		bl	lv_draw_label
 1166 01c6 D5F80890 		ldr	r9, [r5, #8]
 1167              	.L195:
 1168 01ca 94F84830 		ldrb	r3, [r4, #72]	@ zero_extendqisi2
 1169 01ce AF60     		str	r7, [r5, #8]
 1170 01d0 03F00703 		and	r3, r3, #7
 1171 01d4 032B     		cmp	r3, #3
 1172 01d6 00F0AF80 		beq	.L227
 1173              	.L196:
 1174 01da C5F80890 		str	r9, [r5, #8]
 1175 01de 18E7     		b	.L171
 1176              	.L179:
 1177 01e0 5722     		movs	r2, #87
 1178 01e2 0021     		movs	r1, #0
 1179 01e4 FFF7FEFF 		bl	lv_obj_get_style_prop
 1180 01e8 B0F90810 		ldrsh	r1, [r0, #8]
 1181 01ec 0029     		cmp	r1, #0
 1182 01ee B8BF     		it	lt
 1183 01f0 0331     		addlt	r1, r1, #3
 1184 01f2 8910     		asrs	r1, r1, #2
 1185 01f4 2846     		mov	r0, r5
 1186 01f6 13B0     		add	sp, sp, #76
 1187              		@ sp needed
 1188 01f8 BDE8F043 		pop	{r4, r5, r6, r7, r8, r9, lr}
 1189 01fc FFF7FEBF 		b	lv_event_set_ext_draw_size
 1190              	.L174:
 1191 0200 5722     		movs	r2, #87
 1192 0202 0021     		movs	r1, #0
 1193 0204 FFF7FEFF 		bl	lv_obj_get_style_prop
 1194 0208 5822     		movs	r2, #88
 1195 020a 0021     		movs	r1, #0
 1196 020c 0446     		mov	r4, r0
 1197 020e 3046     		mov	r0, r6
 1198 0210 FFF7FEFF 		bl	lv_obj_get_style_prop
 1199 0214 5922     		movs	r2, #89
 1200 0216 0021     		movs	r1, #0
 1201 0218 07B2     		sxth	r7, r0
 1202 021a 3046     		mov	r0, r6
 1203 021c FFF7FEFF 		bl	lv_obj_get_style_prop
 1204 0220 96F84830 		ldrb	r3, [r6, #72]	@ zero_extendqisi2
 1205 0224 0FFA80F8 		sxth	r8, r0
 1206 0228 C3F30019 		ubfx	r9, r3, #4, #1
 1207 022c 9806     		lsls	r0, r3, #26
 1208 022e 3046     		mov	r0, r6
 1209 0230 48BF     		it	mi
 1210 0232 49F00209 		orrmi	r9, r9, #2
ARM GAS  /var/folders/lp/x54gwt890xv47sdkqj1k04q40000gn/T//ccK0uHT5.s 			page 22


 1211 0236 FFF7FEFF 		bl	lv_obj_get_content_width
 1212 023a 0122     		movs	r2, #1
 1213 023c 0021     		movs	r1, #0
 1214 023e 3046     		mov	r0, r6
 1215 0240 FFF7FEFF 		bl	lv_obj_get_style_prop
 1216 0244 42F2D173 		movw	r3, #10193
 1217 0248 00B2     		sxth	r0, r0
 1218 024a 9842     		cmp	r0, r3
 1219 024c 23D1     		bne	.L183
 1220 024e 96F82330 		ldrb	r3, [r6, #35]	@ zero_extendqisi2
 1221 0252 1907     		lsls	r1, r3, #28
 1222 0254 1FD4     		bmi	.L183
 1223 0256 41F6FF70 		movw	r0, #8191
 1224              	.L184:
 1225 025a 716A     		ldr	r1, [r6, #36]
 1226 025c CDF80080 		str	r8, [sp]
 1227 0260 2246     		mov	r2, r4
 1228 0262 3B46     		mov	r3, r7
 1229 0264 CDE90109 		strd	r0, r9, [sp, #4]
 1230 0268 0AA8     		add	r0, sp, #40
 1231 026a FFF7FEFF 		bl	lv_txt_get_size
 1232 026e 2846     		mov	r0, r5
 1233 0270 FFF7FEFF 		bl	lv_event_get_param
 1234 0274 BDF92820 		ldrsh	r2, [sp, #40]
 1235 0278 B0F90040 		ldrsh	r4, [r0]
 1236 027c BDF92A30 		ldrsh	r3, [sp, #42]
 1237 0280 B0F90210 		ldrsh	r1, [r0, #2]
 1238 0284 A242     		cmp	r2, r4
 1239 0286 B8BF     		it	lt
 1240 0288 2246     		movlt	r2, r4
 1241 028a 8B42     		cmp	r3, r1
 1242 028c B8BF     		it	lt
 1243 028e 0B46     		movlt	r3, r1
 1244 0290 0280     		strh	r2, [r0]	@ movhi
 1245 0292 4380     		strh	r3, [r0, #2]	@ movhi
 1246 0294 BDE6     		b	.L171
 1247              	.L183:
 1248 0296 3046     		mov	r0, r6
 1249 0298 FFF7FEFF 		bl	lv_obj_get_content_width
 1250 029c DDE7     		b	.L184
 1251              	.L201:
 1252 029e 4FF00008 		mov	r8, #0
 1253 02a2 75E7     		b	.L191
 1254              	.L224:
 1255 02a4 94F82330 		ldrb	r3, [r4, #35]	@ zero_extendqisi2
 1256 02a8 1B07     		lsls	r3, r3, #28
 1257 02aa 58BF     		it	pl
 1258 02ac 46F00406 		orrpl	r6, r6, #4
 1259 02b0 21E7     		b	.L186
 1260              	.L216:
 1261 02b2 9DF84420 		ldrb	r2, [sp, #68]	@ zero_extendqisi2
 1262 02b6 023A     		subs	r2, r2, #2
 1263 02b8 012A     		cmp	r2, #1
 1264 02ba 3FF656AF 		bhi	.L220
 1265 02be BDF93A30 		ldrsh	r3, [sp, #58]
 1266 02c2 616A     		ldr	r1, [r4, #36]
 1267 02c4 0093     		str	r3, [sp]
ARM GAS  /var/folders/lp/x54gwt890xv47sdkqj1k04q40000gn/T//ccK0uHT5.s 			page 23


 1268 02c6 08AF     		add	r7, sp, #32
 1269 02c8 41F6FF73 		movw	r3, #8191
 1270 02cc 0A9A     		ldr	r2, [sp, #40]
 1271 02ce 0193     		str	r3, [sp, #4]
 1272 02d0 0296     		str	r6, [sp, #8]
 1273 02d2 BDF93C30 		ldrsh	r3, [sp, #60]
 1274 02d6 3846     		mov	r0, r7
 1275 02d8 FFF7FEFF 		bl	lv_txt_get_size
 1276 02dc BDF81C30 		ldrh	r3, [sp, #28]
 1277 02e0 BDF81820 		ldrh	r2, [sp, #24]
 1278 02e4 0133     		adds	r3, r3, #1
 1279 02e6 9B1A     		subs	r3, r3, r2
 1280 02e8 BDF92020 		ldrsh	r2, [sp, #32]
 1281 02ec 1BB2     		sxth	r3, r3
 1282 02ee 9A42     		cmp	r2, r3
 1283 02f0 C4BF     		itt	gt
 1284 02f2 0123     		movgt	r3, #1
 1285 02f4 8DF84430 		strbgt	r3, [sp, #68]
 1286 02f8 94F84830 		ldrb	r3, [r4, #72]	@ zero_extendqisi2
 1287 02fc 36E7     		b	.L189
 1288              	.L226:
 1289 02fe D5F80890 		ldr	r9, [r5, #8]
 1290 0302 AF60     		str	r7, [r5, #8]
 1291 0304 06AA     		add	r2, sp, #24
 1292 0306 CDF80080 		str	r8, [sp]
 1293 030a 0AA9     		add	r1, sp, #40
 1294 030c 2846     		mov	r0, r5
 1295 030e FFF7FEFF 		bl	lv_draw_label
 1296 0312 5AE7     		b	.L195
 1297              	.L225:
 1298 0314 2046     		mov	r0, r4
 1299 0316 FFF7FEFF 		bl	lv_obj_get_scroll_top
 1300 031a 4242     		rsbs	r2, r0, #0
 1301 031c 12B2     		sxth	r2, r2
 1302 031e 4946     		mov	r1, r9
 1303 0320 06A8     		add	r0, sp, #24
 1304 0322 FFF7FEFF 		bl	lv_area_move
 1305 0326 638B     		ldrh	r3, [r4, #26]
 1306 0328 ADF81E30 		strh	r3, [sp, #30]	@ movhi
 1307 032c 94F84830 		ldrb	r3, [r4, #72]	@ zero_extendqisi2
 1308 0330 3CE7     		b	.L193
 1309              	.L230:
 1310 0332 00BF     		.align	2
 1311              	.L229:
 1312 0334 00000000 		.word	lv_label_class
 1313              	.L227:
 1314 0338 BDF93A30 		ldrsh	r3, [sp, #58]
 1315 033c 616A     		ldr	r1, [r4, #36]
 1316 033e 0093     		str	r3, [sp]
 1317 0340 41F6FF73 		movw	r3, #8191
 1318 0344 0A9A     		ldr	r2, [sp, #40]
 1319 0346 0193     		str	r3, [sp, #4]
 1320 0348 0296     		str	r6, [sp, #8]
 1321 034a BDF93C30 		ldrsh	r3, [sp, #60]
 1322 034e 05A8     		add	r0, sp, #20
 1323 0350 FFF7FEFF 		bl	lv_txt_get_size
 1324 0354 BDF81C30 		ldrh	r3, [sp, #28]
ARM GAS  /var/folders/lp/x54gwt890xv47sdkqj1k04q40000gn/T//ccK0uHT5.s 			page 24


 1325 0358 BDF81820 		ldrh	r2, [sp, #24]
 1326 035c 0133     		adds	r3, r3, #1
 1327 035e 9B1A     		subs	r3, r3, r2
 1328 0360 BDF91420 		ldrsh	r2, [sp, #20]
 1329 0364 1BB2     		sxth	r3, r3
 1330 0366 9A42     		cmp	r2, r3
 1331 0368 20DC     		bgt	.L228
 1332              	.L197:
 1333 036a BDF81E30 		ldrh	r3, [sp, #30]
 1334 036e BDF81A20 		ldrh	r2, [sp, #26]
 1335 0372 BDF91600 		ldrsh	r0, [sp, #22]
 1336 0376 0133     		adds	r3, r3, #1
 1337 0378 9B1A     		subs	r3, r3, r2
 1338 037a 1BB2     		sxth	r3, r3
 1339 037c 9842     		cmp	r0, r3
 1340 037e 7FF72CAF 		ble	.L196
 1341 0382 0A9B     		ldr	r3, [sp, #40]
 1342 0384 1B89     		ldrh	r3, [r3, #8]
 1343 0386 1844     		add	r0, r0, r3
 1344 0388 B4F84630 		ldrh	r3, [r4, #70]
 1345 038c 1844     		add	r0, r0, r3
 1346 038e 06AA     		add	r2, sp, #24
 1347 0390 636A     		ldr	r3, [r4, #36]
 1348 0392 B4F84440 		ldrh	r4, [r4, #68]
 1349 0396 ADF84000 		strh	r0, [sp, #64]	@ movhi
 1350 039a 0AA9     		add	r1, sp, #40
 1351 039c CDF80080 		str	r8, [sp]
 1352 03a0 2846     		mov	r0, r5
 1353 03a2 ADF83E40 		strh	r4, [sp, #62]	@ movhi
 1354 03a6 FFF7FEFF 		bl	lv_draw_label
 1355 03aa 16E7     		b	.L196
 1356              	.L228:
 1357 03ac B4F84430 		ldrh	r3, [r4, #68]
 1358 03b0 0A98     		ldr	r0, [sp, #40]
 1359 03b2 1A44     		add	r2, r2, r3
 1360 03b4 96B2     		uxth	r6, r2
 1361 03b6 2022     		movs	r2, #32
 1362 03b8 1146     		mov	r1, r2
 1363 03ba FFF7FEFF 		bl	lv_font_get_glyph_width
 1364 03be B4F84620 		ldrh	r2, [r4, #70]
 1365 03c2 636A     		ldr	r3, [r4, #36]
 1366 03c4 ADF84020 		strh	r2, [sp, #64]	@ movhi
 1367 03c8 00EB4000 		add	r0, r0, r0, lsl #1
 1368 03cc 0644     		add	r6, r6, r0
 1369 03ce CDF80080 		str	r8, [sp]
 1370 03d2 06AA     		add	r2, sp, #24
 1371 03d4 0AA9     		add	r1, sp, #40
 1372 03d6 2846     		mov	r0, r5
 1373 03d8 ADF83E60 		strh	r6, [sp, #62]	@ movhi
 1374 03dc FFF7FEFF 		bl	lv_draw_label
 1375 03e0 C3E7     		b	.L197
 1377 03e2 00BF     		.section	.text.lv_label_create,"ax",%progbits
 1378              		.align	1
 1379              		.p2align 2,,3
 1380              		.global	lv_label_create
 1381              		.syntax unified
 1382              		.thumb
ARM GAS  /var/folders/lp/x54gwt890xv47sdkqj1k04q40000gn/T//ccK0uHT5.s 			page 25


 1383              		.thumb_func
 1385              	lv_label_create:
 1386              		@ args = 0, pretend = 0, frame = 0
 1387              		@ frame_needed = 0, uses_anonymous_args = 0
 1388 0000 10B5     		push	{r4, lr}
 1389 0002 0146     		mov	r1, r0
 1390 0004 0348     		ldr	r0, .L233
 1391 0006 FFF7FEFF 		bl	lv_obj_class_create_obj
 1392 000a 0446     		mov	r4, r0
 1393 000c FFF7FEFF 		bl	lv_obj_class_init_obj
 1394 0010 2046     		mov	r0, r4
 1395 0012 10BD     		pop	{r4, pc}
 1396              	.L234:
 1397              		.align	2
 1398              	.L233:
 1399 0014 00000000 		.word	lv_label_class
 1401              		.section	.text.lv_label_set_text,"ax",%progbits
 1402              		.align	1
 1403              		.p2align 2,,3
 1404              		.global	lv_label_set_text
 1405              		.syntax unified
 1406              		.thumb
 1407              		.thumb_func
 1409              	lv_label_set_text:
 1410              		@ args = 0, pretend = 0, frame = 0
 1411              		@ frame_needed = 0, uses_anonymous_args = 0
 1412 0000 70B5     		push	{r4, r5, r6, lr}
 1413 0002 0E46     		mov	r6, r1
 1414 0004 0446     		mov	r4, r0
 1415 0006 FFF7FEFF 		bl	lv_obj_invalidate
 1416 000a 26B3     		cbz	r6, .L252
 1417 000c 606A     		ldr	r0, [r4, #36]
 1418 000e B042     		cmp	r0, r6
 1419 0010 22D0     		beq	.L237
 1420 0012 38B1     		cbz	r0, .L239
 1421 0014 94F84830 		ldrb	r3, [r4, #72]	@ zero_extendqisi2
 1422 0018 13F00805 		ands	r5, r3, #8
 1423 001c 02D1     		bne	.L239
 1424 001e FFF7FEFF 		bl	lv_mem_free
 1425 0022 6562     		str	r5, [r4, #36]
 1426              	.L239:
 1427 0024 3046     		mov	r0, r6
 1428 0026 FFF7FEFF 		bl	strlen
 1429 002a 0130     		adds	r0, r0, #1
 1430 002c FFF7FEFF 		bl	lv_mem_alloc
 1431 0030 6062     		str	r0, [r4, #36]
 1432 0032 78B1     		cbz	r0, .L244
 1433 0034 3146     		mov	r1, r6
 1434 0036 FFF7FEFF 		bl	strcpy
 1435 003a 94F84830 		ldrb	r3, [r4, #72]	@ zero_extendqisi2
 1436 003e 626A     		ldr	r2, [r4, #36]
 1437 0040 23F00803 		bic	r3, r3, #8
 1438 0044 84F84830 		strb	r3, [r4, #72]
 1439 0048 AAB1     		cbz	r2, .L253
 1440              	.L245:
 1441 004a 2046     		mov	r0, r4
 1442 004c BDE87040 		pop	{r4, r5, r6, lr}
ARM GAS  /var/folders/lp/x54gwt890xv47sdkqj1k04q40000gn/T//ccK0uHT5.s 			page 26


 1443 0050 FFF7FEBF 		b	lv_label_refr_text.part.0
 1444              	.L244:
 1445 0054 FEE7     		b	.L244
 1446              	.L252:
 1447 0056 666A     		ldr	r6, [r4, #36]
 1448              	.L237:
 1449 0058 3046     		mov	r0, r6
 1450 005a FFF7FEFF 		bl	strlen
 1451 005e 94F84830 		ldrb	r3, [r4, #72]	@ zero_extendqisi2
 1452 0062 1B07     		lsls	r3, r3, #28
 1453 0064 DED4     		bmi	.L239
 1454 0066 411C     		adds	r1, r0, #1
 1455 0068 3046     		mov	r0, r6
 1456 006a FFF7FEFF 		bl	lv_mem_realloc
 1457 006e 08B1     		cbz	r0, .L240
 1458 0070 6062     		str	r0, [r4, #36]
 1459 0072 EAE7     		b	.L245
 1460              	.L240:
 1461 0074 FEE7     		b	.L240
 1462              	.L253:
 1463 0076 70BD     		pop	{r4, r5, r6, pc}
 1465              		.section	.text.lv_label_set_text_fmt,"ax",%progbits
 1466              		.align	1
 1467              		.p2align 2,,3
 1468              		.global	lv_label_set_text_fmt
 1469              		.syntax unified
 1470              		.thumb
 1471              		.thumb_func
 1473              	lv_label_set_text_fmt:
 1474              		@ args = 4, pretend = 12, frame = 8
 1475              		@ frame_needed = 0, uses_anonymous_args = 1
 1476 0000 0EB4     		push	{r1, r2, r3}
 1477 0002 70B5     		push	{r4, r5, r6, lr}
 1478 0004 83B0     		sub	sp, sp, #12
 1479 0006 079D     		ldr	r5, [sp, #28]
 1480 0008 F5B1     		cbz	r5, .L256
 1481 000a 0446     		mov	r4, r0
 1482 000c FFF7FEFF 		bl	lv_obj_invalidate
 1483 0010 606A     		ldr	r0, [r4, #36]
 1484 0012 20B1     		cbz	r0, .L257
 1485 0014 94F84830 		ldrb	r3, [r4, #72]	@ zero_extendqisi2
 1486 0018 13F00806 		ands	r6, r3, #8
 1487 001c 15D0     		beq	.L266
 1488              	.L257:
 1489 001e 08A9     		add	r1, sp, #32
 1490 0020 2846     		mov	r0, r5
 1491 0022 0191     		str	r1, [sp, #4]
 1492 0024 FFF7FEFF 		bl	_lv_txt_set_text_vfmt
 1493 0028 94F84830 		ldrb	r3, [r4, #72]	@ zero_extendqisi2
 1494 002c 6062     		str	r0, [r4, #36]
 1495 002e 23F00803 		bic	r3, r3, #8
 1496 0032 84F84830 		strb	r3, [r4, #72]
 1497 0036 10B1     		cbz	r0, .L254
 1498 0038 2046     		mov	r0, r4
 1499 003a FFF7FEFF 		bl	lv_label_refr_text.part.0
 1500              	.L254:
 1501 003e 03B0     		add	sp, sp, #12
ARM GAS  /var/folders/lp/x54gwt890xv47sdkqj1k04q40000gn/T//ccK0uHT5.s 			page 27


 1502              		@ sp needed
 1503 0040 BDE87040 		pop	{r4, r5, r6, lr}
 1504 0044 03B0     		add	sp, sp, #12
 1505 0046 7047     		bx	lr
 1506              	.L256:
 1507 0048 FEE7     		b	.L256
 1508              	.L266:
 1509 004a FFF7FEFF 		bl	lv_mem_free
 1510 004e 6662     		str	r6, [r4, #36]
 1511 0050 E5E7     		b	.L257
 1513 0052 00BF     		.section	.text.lv_label_set_text_static,"ax",%progbits
 1514              		.align	1
 1515              		.p2align 2,,3
 1516              		.global	lv_label_set_text_static
 1517              		.syntax unified
 1518              		.thumb
 1519              		.thumb_func
 1521              	lv_label_set_text_static:
 1522              		@ args = 0, pretend = 0, frame = 0
 1523              		@ frame_needed = 0, uses_anonymous_args = 0
 1524 0000 90F84830 		ldrb	r3, [r0, #72]	@ zero_extendqisi2
 1525 0004 70B5     		push	{r4, r5, r6, lr}
 1526 0006 13F00806 		ands	r6, r3, #8
 1527 000a 0446     		mov	r4, r0
 1528 000c 0D46     		mov	r5, r1
 1529 000e 11D1     		bne	.L268
 1530 0010 406A     		ldr	r0, [r0, #36]
 1531 0012 10B1     		cbz	r0, .L269
 1532 0014 FFF7FEFF 		bl	lv_mem_free
 1533 0018 6662     		str	r6, [r4, #36]
 1534              	.L269:
 1535 001a 85B1     		cbz	r5, .L267
 1536              	.L273:
 1537 001c 94F84830 		ldrb	r3, [r4, #72]	@ zero_extendqisi2
 1538 0020 6562     		str	r5, [r4, #36]
 1539 0022 43F00803 		orr	r3, r3, #8
 1540 0026 84F84830 		strb	r3, [r4, #72]
 1541              	.L271:
 1542 002a 2046     		mov	r0, r4
 1543 002c BDE87040 		pop	{r4, r5, r6, lr}
 1544 0030 FFF7FEBF 		b	lv_label_refr_text.part.0
 1545              	.L268:
 1546 0034 0029     		cmp	r1, #0
 1547 0036 F1D1     		bne	.L273
 1548 0038 436A     		ldr	r3, [r0, #36]
 1549 003a 002B     		cmp	r3, #0
 1550 003c F5D1     		bne	.L271
 1551              	.L267:
 1552 003e 70BD     		pop	{r4, r5, r6, pc}
 1554              		.section	.text.lv_label_set_long_mode,"ax",%progbits
 1555              		.align	1
 1556              		.p2align 2,,3
 1557              		.global	lv_label_set_long_mode
 1558              		.syntax unified
 1559              		.thumb
 1560              		.thumb_func
 1562              	lv_label_set_long_mode:
ARM GAS  /var/folders/lp/x54gwt890xv47sdkqj1k04q40000gn/T//ccK0uHT5.s 			page 28


 1563              		@ args = 0, pretend = 0, frame = 0
 1564              		@ frame_needed = 0, uses_anonymous_args = 0
 1565 0000 38B5     		push	{r3, r4, r5, lr}
 1566 0002 0446     		mov	r4, r0
 1567 0004 0D46     		mov	r5, r1
 1568 0006 1649     		ldr	r1, .L287
 1569 0008 FFF7FEFF 		bl	lv_anim_del
 1570 000c 1549     		ldr	r1, .L287+4
 1571 000e 2046     		mov	r0, r4
 1572 0010 FFF7FEFF 		bl	lv_anim_del
 1573 0014 AA1E     		subs	r2, r5, #2
 1574 0016 022A     		cmp	r2, #2
 1575 0018 94F84830 		ldrb	r3, [r4, #72]	@ zero_extendqisi2
 1576 001c 8CBF     		ite	hi
 1577 001e 0022     		movhi	r2, #0
 1578 0020 0122     		movls	r2, #1
 1579 0022 62F34513 		bfi	r3, r2, #5, #1
 1580 0026 03F00702 		and	r2, r3, #7
 1581 002a 0021     		movs	r1, #0
 1582 002c 012A     		cmp	r2, #1
 1583 002e 6164     		str	r1, [r4, #68]
 1584 0030 84F84830 		strb	r3, [r4, #72]
 1585 0034 0CD0     		beq	.L286
 1586              	.L280:
 1587 0036 94F84830 		ldrb	r3, [r4, #72]	@ zero_extendqisi2
 1588 003a 626A     		ldr	r2, [r4, #36]
 1589 003c 65F30203 		bfi	r3, r5, #0, #3
 1590 0040 84F84830 		strb	r3, [r4, #72]
 1591 0044 5AB1     		cbz	r2, .L279
 1592 0046 2046     		mov	r0, r4
 1593 0048 BDE83840 		pop	{r3, r4, r5, lr}
 1594 004c FFF7FEBF 		b	lv_label_refr_text.part.0
 1595              	.L286:
 1596 0050 E36A     		ldr	r3, [r4, #44]
 1597 0052 0133     		adds	r3, r3, #1
 1598 0054 EFD0     		beq	.L280
 1599 0056 2046     		mov	r0, r4
 1600 0058 FFF7FEFF 		bl	lv_label_revert_dots
 1601 005c EBE7     		b	.L280
 1602              	.L279:
 1603 005e 38BD     		pop	{r3, r4, r5, pc}
 1604              	.L288:
 1605              		.align	2
 1606              	.L287:
 1607 0060 00000000 		.word	set_ofs_x_anim
 1608 0064 00000000 		.word	set_ofs_y_anim
 1610              		.section	.rodata.lv_label_constructor.str1.4,"aMS",%progbits,1
 1611              		.align	2
 1612              	.LC0:
 1613 0000 54657874 		.ascii	"Text\000"
 1613      00
 1614              		.section	.text.lv_label_constructor,"ax",%progbits
 1615              		.align	1
 1616              		.p2align 2,,3
 1617              		.syntax unified
 1618              		.thumb
 1619              		.thumb_func
ARM GAS  /var/folders/lp/x54gwt890xv47sdkqj1k04q40000gn/T//ccK0uHT5.s 			page 29


 1621              	lv_label_constructor:
 1622              		@ args = 0, pretend = 0, frame = 0
 1623              		@ frame_needed = 0, uses_anonymous_args = 0
 1624 0000 38B5     		push	{r3, r4, r5, lr}
 1625 0002 91F84830 		ldrb	r3, [r1, #72]	@ zero_extendqisi2
 1626 0006 0C46     		mov	r4, r1
 1627 0008 0025     		movs	r5, #0
 1628 000a 23F05F03 		bic	r3, r3, #95
 1629 000e 4FF6FF72 		movw	r2, #65535
 1630 0012 4FF0FF31 		mov	r1, #-1
 1631 0016 C4E90B11 		strd	r1, r1, [r4, #44]
 1632 001a C4E90F22 		strd	r2, r2, [r4, #60]
 1633 001e 84F84830 		strb	r3, [r4, #72]
 1634 0022 2046     		mov	r0, r4
 1635 0024 C4E90955 		strd	r5, r5, [r4, #36]
 1636 0028 C4E90D55 		strd	r5, r5, [r4, #52]
 1637 002c 6564     		str	r5, [r4, #68]
 1638 002e 0221     		movs	r1, #2
 1639 0030 FFF7FEFF 		bl	lv_obj_clear_flag
 1640 0034 2946     		mov	r1, r5
 1641 0036 2046     		mov	r0, r4
 1642 0038 FFF7FEFF 		bl	lv_label_set_long_mode
 1643 003c 2046     		mov	r0, r4
 1644 003e 0249     		ldr	r1, .L291
 1645 0040 BDE83840 		pop	{r3, r4, r5, lr}
 1646 0044 FFF7FEBF 		b	lv_label_set_text
 1647              	.L292:
 1648              		.align	2
 1649              	.L291:
 1650 0048 00000000 		.word	.LC0
 1652              		.section	.text.lv_label_set_recolor,"ax",%progbits
 1653              		.align	1
 1654              		.p2align 2,,3
 1655              		.global	lv_label_set_recolor
 1656              		.syntax unified
 1657              		.thumb
 1658              		.thumb_func
 1660              	lv_label_set_recolor:
 1661              		@ args = 0, pretend = 0, frame = 0
 1662              		@ frame_needed = 0, uses_anonymous_args = 0
 1663              		@ link register save eliminated.
 1664 0000 90F84820 		ldrb	r2, [r0, #72]	@ zero_extendqisi2
 1665 0004 C2F3001C 		ubfx	ip, r2, #4, #1
 1666 0008 8C45     		cmp	ip, r1
 1667 000a 0DD0     		beq	.L301
 1668 000c 10B4     		push	{r4}
 1669 000e 446A     		ldr	r4, [r0, #36]
 1670 0010 61F30412 		bfi	r2, r1, #4, #1
 1671 0014 80F84820 		strb	r2, [r0, #72]
 1672 0018 1CB1     		cbz	r4, .L293
 1673 001a 5DF8044B 		ldr	r4, [sp], #4
 1674 001e FFF7FEBF 		b	lv_label_refr_text.part.0
 1675              	.L293:
 1676 0022 5DF8044B 		ldr	r4, [sp], #4
 1677 0026 7047     		bx	lr
 1678              	.L301:
 1679 0028 7047     		bx	lr
ARM GAS  /var/folders/lp/x54gwt890xv47sdkqj1k04q40000gn/T//ccK0uHT5.s 			page 30


 1681 002a 00BF     		.section	.text.lv_label_set_text_sel_start,"ax",%progbits
 1682              		.align	1
 1683              		.p2align 2,,3
 1684              		.global	lv_label_set_text_sel_start
 1685              		.syntax unified
 1686              		.thumb
 1687              		.thumb_func
 1689              	lv_label_set_text_sel_start:
 1690              		@ args = 0, pretend = 0, frame = 0
 1691              		@ frame_needed = 0, uses_anonymous_args = 0
 1692              		@ link register save eliminated.
 1693 0000 C163     		str	r1, [r0, #60]
 1694 0002 FFF7FEBF 		b	lv_obj_invalidate
 1696 0006 00BF     		.section	.text.lv_label_set_text_sel_end,"ax",%progbits
 1697              		.align	1
 1698              		.p2align 2,,3
 1699              		.global	lv_label_set_text_sel_end
 1700              		.syntax unified
 1701              		.thumb
 1702              		.thumb_func
 1704              	lv_label_set_text_sel_end:
 1705              		@ args = 0, pretend = 0, frame = 0
 1706              		@ frame_needed = 0, uses_anonymous_args = 0
 1707              		@ link register save eliminated.
 1708 0000 0164     		str	r1, [r0, #64]
 1709 0002 FFF7FEBF 		b	lv_obj_invalidate
 1711 0006 00BF     		.section	.text.lv_label_get_text,"ax",%progbits
 1712              		.align	1
 1713              		.p2align 2,,3
 1714              		.global	lv_label_get_text
 1715              		.syntax unified
 1716              		.thumb
 1717              		.thumb_func
 1719              	lv_label_get_text:
 1720              		@ args = 0, pretend = 0, frame = 0
 1721              		@ frame_needed = 0, uses_anonymous_args = 0
 1722              		@ link register save eliminated.
 1723 0000 406A     		ldr	r0, [r0, #36]
 1724 0002 7047     		bx	lr
 1726              		.section	.text.lv_label_get_long_mode,"ax",%progbits
 1727              		.align	1
 1728              		.p2align 2,,3
 1729              		.global	lv_label_get_long_mode
 1730              		.syntax unified
 1731              		.thumb
 1732              		.thumb_func
 1734              	lv_label_get_long_mode:
 1735              		@ args = 0, pretend = 0, frame = 0
 1736              		@ frame_needed = 0, uses_anonymous_args = 0
 1737              		@ link register save eliminated.
 1738 0000 90F84800 		ldrb	r0, [r0, #72]	@ zero_extendqisi2
 1739 0004 00F00700 		and	r0, r0, #7
 1740 0008 7047     		bx	lr
 1742 000a 00BF     		.section	.text.lv_label_get_recolor,"ax",%progbits
 1743              		.align	1
 1744              		.p2align 2,,3
 1745              		.global	lv_label_get_recolor
ARM GAS  /var/folders/lp/x54gwt890xv47sdkqj1k04q40000gn/T//ccK0uHT5.s 			page 31


 1746              		.syntax unified
 1747              		.thumb
 1748              		.thumb_func
 1750              	lv_label_get_recolor:
 1751              		@ args = 0, pretend = 0, frame = 0
 1752              		@ frame_needed = 0, uses_anonymous_args = 0
 1753              		@ link register save eliminated.
 1754 0000 90F84800 		ldrb	r0, [r0, #72]	@ zero_extendqisi2
 1755 0004 C0F30010 		ubfx	r0, r0, #4, #1
 1756 0008 7047     		bx	lr
 1758 000a 00BF     		.section	.text.lv_label_get_letter_pos,"ax",%progbits
 1759              		.align	1
 1760              		.p2align 2,,3
 1761              		.global	lv_label_get_letter_pos
 1762              		.syntax unified
 1763              		.thumb
 1764              		.thumb_func
 1766              	lv_label_get_letter_pos:
 1767              		@ args = 0, pretend = 0, frame = 48
 1768              		@ frame_needed = 0, uses_anonymous_args = 0
 1769 0000 2DE9F04F 		push	{r4, r5, r6, r7, r8, r9, r10, fp, lr}
 1770 0004 8FB0     		sub	sp, sp, #60
 1771 0006 0491     		str	r1, [sp, #16]
 1772 0008 C2B1     		cbz	r2, .L311
 1773 000a 456A     		ldr	r5, [r0, #36]
 1774 000c 9346     		mov	fp, r2
 1775 000e 0021     		movs	r1, #0
 1776 0010 2A46     		mov	r2, r5
 1777 0012 0446     		mov	r4, r0
 1778 0014 FFF7FEFF 		bl	lv_obj_calculate_style_text_align
 1779 0018 2B78     		ldrb	r3, [r5]	@ zero_extendqisi2
 1780 001a 0590     		str	r0, [sp, #20]
 1781 001c 7BB9     		cbnz	r3, .L312
 1782 001e 0228     		cmp	r0, #2
 1783 0020 ABF80230 		strh	r3, [fp, #2]	@ movhi
 1784 0024 00F0BC80 		beq	.L313
 1785 0028 0328     		cmp	r0, #3
 1786 002a 00F09A80 		beq	.L314
 1787 002e 0128     		cmp	r0, #1
 1788 0030 01D1     		bne	.L309
 1789              	.L345:
 1790 0032 ABF80030 		strh	r3, [fp]	@ movhi
 1791              	.L309:
 1792 0036 0FB0     		add	sp, sp, #60
 1793              		@ sp needed
 1794 0038 BDE8F08F 		pop	{r4, r5, r6, r7, r8, r9, r10, fp, pc}
 1795              	.L311:
 1796 003c FEE7     		b	.L311
 1797              	.L312:
 1798 003e 0CA9     		add	r1, sp, #48
 1799 0040 2046     		mov	r0, r4
 1800 0042 FFF7FEFF 		bl	lv_obj_get_content_coords
 1801 0046 BDF83480 		ldrh	r8, [sp, #52]
 1802 004a BDF83030 		ldrh	r3, [sp, #48]
 1803 004e 08F10108 		add	r8, r8, #1
 1804 0052 A8EB0308 		sub	r8, r8, r3
 1805 0056 0FFA88F3 		sxth	r3, r8
ARM GAS  /var/folders/lp/x54gwt890xv47sdkqj1k04q40000gn/T//ccK0uHT5.s 			page 32


 1806 005a 5722     		movs	r2, #87
 1807 005c 0021     		movs	r1, #0
 1808 005e 2046     		mov	r0, r4
 1809 0060 0993     		str	r3, [sp, #36]
 1810 0062 FFF7FEFF 		bl	lv_obj_get_style_prop
 1811 0066 5922     		movs	r2, #89
 1812 0068 0646     		mov	r6, r0
 1813 006a 0690     		str	r0, [sp, #24]
 1814 006c 0021     		movs	r1, #0
 1815 006e 2046     		mov	r0, r4
 1816 0070 FFF7FEFF 		bl	lv_obj_get_style_prop
 1817 0074 5822     		movs	r2, #88
 1818 0076 0790     		str	r0, [sp, #28]
 1819 0078 0021     		movs	r1, #0
 1820 007a 2046     		mov	r0, r4
 1821 007c FFF7FEFF 		bl	lv_obj_get_style_prop
 1822 0080 94F84830 		ldrb	r3, [r4, #72]	@ zero_extendqisi2
 1823 0084 B6F90820 		ldrsh	r2, [r6, #8]
 1824 0088 0892     		str	r2, [sp, #32]
 1825 008a 02B2     		sxth	r2, r0
 1826 008c 0392     		str	r2, [sp, #12]
 1827 008e C3F30019 		ubfx	r9, r3, #4, #1
 1828 0092 9A06     		lsls	r2, r3, #26
 1829 0094 0A90     		str	r0, [sp, #40]
 1830 0096 4FF00102 		mov	r2, #1
 1831 009a 4FF00001 		mov	r1, #0
 1832 009e 2046     		mov	r0, r4
 1833 00a0 48BF     		it	mi
 1834 00a2 49F00209 		orrmi	r9, r9, #2
 1835 00a6 FFF7FEFF 		bl	lv_obj_get_style_prop
 1836 00aa 42F2D172 		movw	r2, #10193
 1837 00ae 03B2     		sxth	r3, r0
 1838 00b0 9342     		cmp	r3, r2
 1839 00b2 4FD0     		beq	.L346
 1840              	.L318:
 1841 00b4 564B     		ldr	r3, .L350
 1842 00b6 0499     		ldr	r1, [sp, #16]
 1843 00b8 1B68     		ldr	r3, [r3]
 1844 00ba 2846     		mov	r0, r5
 1845 00bc 9847     		blx	r3
 1846 00be 2E78     		ldrb	r6, [r5]	@ zero_extendqisi2
 1847 00c0 8246     		mov	r10, r0
 1848 00c2 002E     		cmp	r6, #0
 1849 00c4 00F0A180 		beq	.L328
 1850 00c8 DDE90723 		ldrd	r2, r3, [sp, #28]
 1851 00cc 0026     		movs	r6, #0
 1852 00ce 4C46     		mov	r4, r9
 1853 00d0 CDF82CB0 		str	fp, [sp, #44]
 1854 00d4 DDF81890 		ldr	r9, [sp, #24]
 1855 00d8 DDF824B0 		ldr	fp, [sp, #36]
 1856 00dc 2846     		mov	r0, r5
 1857 00de 3746     		mov	r7, r6
 1858 00e0 03EB0208 		add	r8, r3, r2
 1859 00e4 04E0     		b	.L320
 1860              	.L347:
 1861 00e6 E95C     		ldrb	r1, [r5, r3]	@ zero_extendqisi2
 1862 00e8 E818     		adds	r0, r5, r3
ARM GAS  /var/folders/lp/x54gwt890xv47sdkqj1k04q40000gn/T//ccK0uHT5.s 			page 33


 1863 00ea 71B1     		cbz	r1, .L342
 1864 00ec 16B2     		sxth	r6, r2
 1865 00ee 1F46     		mov	r7, r3
 1866              	.L320:
 1867 00f0 0023     		movs	r3, #0
 1868 00f2 039A     		ldr	r2, [sp, #12]
 1869 00f4 0093     		str	r3, [sp]
 1870 00f6 0194     		str	r4, [sp, #4]
 1871 00f8 5B46     		mov	r3, fp
 1872 00fa 4946     		mov	r1, r9
 1873 00fc FFF7FEFF 		bl	_lv_txt_get_next_line
 1874 0100 C319     		adds	r3, r0, r7
 1875 0102 9A45     		cmp	r10, r3
 1876 0104 08EB0602 		add	r2, r8, r6
 1877 0108 EDD2     		bcs	.L347
 1878              	.L342:
 1879 010a DDF82CB0 		ldr	fp, [sp, #44]
 1880 010e A146     		mov	r9, r4
 1881 0110 1C46     		mov	r4, r3
 1882              	.L319:
 1883 0112 BAF1000F 		cmp	r10, #0
 1884 0116 2AD1     		bne	.L321
 1885 0118 05EB0708 		add	r8, r5, r7
 1886 011c 7942     		rsbs	r1, r7, #0
 1887              	.L322:
 1888 011e 039B     		ldr	r3, [sp, #12]
 1889 0120 069A     		ldr	r2, [sp, #24]
 1890 0122 CDF80090 		str	r9, [sp]
 1891 0126 4046     		mov	r0, r8
 1892 0128 FFF7FEFF 		bl	lv_txt_get_width
 1893 012c 049B     		ldr	r3, [sp, #16]
 1894 012e 9F42     		cmp	r7, r3
 1895 0130 0546     		mov	r5, r0
 1896 0132 02D0     		beq	.L325
 1897 0134 0A9B     		ldr	r3, [sp, #40]
 1898 0136 0344     		add	r3, r3, r0
 1899 0138 1DB2     		sxth	r5, r3
 1900              	.L325:
 1901 013a 059B     		ldr	r3, [sp, #20]
 1902 013c 022B     		cmp	r3, #2
 1903 013e 36D0     		beq	.L348
 1904 0140 059B     		ldr	r3, [sp, #20]
 1905 0142 032B     		cmp	r3, #3
 1906 0144 4ED0     		beq	.L349
 1907              	.L327:
 1908 0146 ABF80050 		strh	r5, [fp]	@ movhi
 1909 014a ABF80260 		strh	r6, [fp, #2]	@ movhi
 1910 014e 0FB0     		add	sp, sp, #60
 1911              		@ sp needed
 1912 0150 BDE8F08F 		pop	{r4, r5, r6, r7, r8, r9, r10, fp, pc}
 1913              	.L346:
 1914 0154 94F82330 		ldrb	r3, [r4, #35]	@ zero_extendqisi2
 1915 0158 1B07     		lsls	r3, r3, #28
 1916 015a 58BF     		it	pl
 1917 015c 49F00409 		orrpl	r9, r9, #4
 1918 0160 A8E7     		b	.L318
 1919              	.L314:
ARM GAS  /var/folders/lp/x54gwt890xv47sdkqj1k04q40000gn/T//ccK0uHT5.s 			page 34


 1920 0162 2046     		mov	r0, r4
 1921 0164 FFF7FEFF 		bl	lv_obj_get_content_width
 1922 0168 ABF80000 		strh	r0, [fp]	@ movhi
 1923 016c 63E7     		b	.L309
 1924              	.L321:
 1925 016e 05EB0A08 		add	r8, r5, r10
 1926 0172 18F8013C 		ldrb	r3, [r8, #-1]	@ zero_extendqisi2
 1927 0176 0A2B     		cmp	r3, #10
 1928 0178 06D0     		beq	.L323
 1929 017a 0D2B     		cmp	r3, #13
 1930 017c 04D0     		beq	.L323
 1931              	.L344:
 1932 017e 05EB0708 		add	r8, r5, r7
 1933 0182 AAEB0701 		sub	r1, r10, r7
 1934 0186 CAE7     		b	.L322
 1935              	.L323:
 1936 0188 15F80A20 		ldrb	r2, [r5, r10]	@ zero_extendqisi2
 1937 018c 002A     		cmp	r2, #0
 1938 018e F6D1     		bne	.L344
 1939 0190 DDE90713 		ldrd	r1, r3, [sp, #28]
 1940 0194 0B44     		add	r3, r3, r1
 1941 0196 3344     		add	r3, r3, r6
 1942 0198 1EB2     		sxth	r6, r3
 1943 019a 5746     		mov	r7, r10
 1944 019c 1146     		mov	r1, r2
 1945 019e BEE7     		b	.L322
 1946              	.L313:
 1947 01a0 2046     		mov	r0, r4
 1948 01a2 FFF7FEFF 		bl	lv_obj_get_content_width
 1949 01a6 00EBD070 		add	r0, r0, r0, lsr #31
 1950 01aa 4310     		asrs	r3, r0, #1
 1951 01ac 41E7     		b	.L345
 1952              	.L348:
 1953 01ae 039B     		ldr	r3, [sp, #12]
 1954 01b0 069A     		ldr	r2, [sp, #24]
 1955 01b2 CDF80090 		str	r9, [sp]
 1956 01b6 E11B     		subs	r1, r4, r7
 1957 01b8 4046     		mov	r0, r8
 1958 01ba FFF7FEFF 		bl	lv_txt_get_width
 1959 01be BDF83420 		ldrh	r2, [sp, #52]
 1960 01c2 BDF83010 		ldrh	r1, [sp, #48]
 1961 01c6 0132     		adds	r2, r2, #1
 1962 01c8 521A     		subs	r2, r2, r1
 1963 01ca 00EBD070 		add	r0, r0, r0, lsr #31
 1964 01ce C2F3C031 		ubfx	r1, r2, #15, #1
 1965 01d2 40F34F03 		sbfx	r3, r0, #1, #16
 1966 01d6 01FA82F2 		sxtah	r2, r1, r2
 1967 01da C3EB6203 		rsb	r3, r3, r2, asr #1
 1968 01de 2B44     		add	r3, r3, r5
 1969 01e0 1DB2     		sxth	r5, r3
 1970 01e2 B0E7     		b	.L327
 1971              	.L349:
 1972 01e4 039B     		ldr	r3, [sp, #12]
 1973 01e6 069A     		ldr	r2, [sp, #24]
 1974 01e8 CDF80090 		str	r9, [sp]
 1975 01ec E11B     		subs	r1, r4, r7
 1976 01ee 4046     		mov	r0, r8
ARM GAS  /var/folders/lp/x54gwt890xv47sdkqj1k04q40000gn/T//ccK0uHT5.s 			page 35


 1977 01f0 FFF7FEFF 		bl	lv_txt_get_width
 1978 01f4 BDF83430 		ldrh	r3, [sp, #52]
 1979 01f8 BDF83020 		ldrh	r2, [sp, #48]
 1980 01fc 0133     		adds	r3, r3, #1
 1981 01fe 9B1A     		subs	r3, r3, r2
 1982 0200 1BB2     		sxth	r3, r3
 1983 0202 1B1A     		subs	r3, r3, r0
 1984 0204 2B44     		add	r3, r3, r5
 1985 0206 1DB2     		sxth	r5, r3
 1986 0208 9DE7     		b	.L327
 1987              	.L328:
 1988 020a 3746     		mov	r7, r6
 1989 020c 3446     		mov	r4, r6
 1990 020e 80E7     		b	.L319
 1991              	.L351:
 1992              		.align	2
 1993              	.L350:
 1994 0210 00000000 		.word	_lv_txt_encoded_get_byte_id
 1996              		.section	.text.lv_label_get_letter_on,"ax",%progbits
 1997              		.align	1
 1998              		.p2align 2,,3
 1999              		.global	lv_label_get_letter_on
 2000              		.syntax unified
 2001              		.thumb
 2002              		.thumb_func
 2004              	lv_label_get_letter_on:
 2005              		@ args = 0, pretend = 0, frame = 0
 2006              		@ frame_needed = 0, uses_anonymous_args = 0
 2007              		@ link register save eliminated.
 2008 0000 09B1     		cbz	r1, .L354
 2009 0002 FFF7FEBF 		b	lv_label_get_letter_on.part.0
 2010              	.L354:
 2011 0006 FEE7     		b	.L354
 2013              		.section	.text.lv_label_is_char_under_pos,"ax",%progbits
 2014              		.align	1
 2015              		.p2align 2,,3
 2016              		.global	lv_label_is_char_under_pos
 2017              		.syntax unified
 2018              		.thumb
 2019              		.thumb_func
 2021              	lv_label_is_char_under_pos:
 2022              		@ args = 0, pretend = 0, frame = 48
 2023              		@ frame_needed = 0, uses_anonymous_args = 0
 2024 0000 0029     		cmp	r1, #0
 2025 0002 00F0B580 		beq	.L357
 2026 0006 2DE9F04F 		push	{r4, r5, r6, r7, r8, r9, r10, fp, lr}
 2027 000a 8FB0     		sub	sp, sp, #60
 2028 000c 0F46     		mov	r7, r1
 2029 000e 0CA9     		add	r1, sp, #48
 2030 0010 0446     		mov	r4, r0
 2031 0012 FFF7FEFF 		bl	lv_obj_get_content_coords
 2032 0016 BDF83430 		ldrh	r3, [sp, #52]
 2033 001a BDF83020 		ldrh	r2, [sp, #48]
 2034 001e 666A     		ldr	r6, [r4, #36]
 2035 0020 0133     		adds	r3, r3, #1
 2036 0022 9B1A     		subs	r3, r3, r2
 2037 0024 1BB2     		sxth	r3, r3
ARM GAS  /var/folders/lp/x54gwt890xv47sdkqj1k04q40000gn/T//ccK0uHT5.s 			page 36


 2038 0026 5722     		movs	r2, #87
 2039 0028 0021     		movs	r1, #0
 2040 002a 2046     		mov	r0, r4
 2041 002c 0593     		str	r3, [sp, #20]
 2042 002e FFF7FEFF 		bl	lv_obj_get_style_prop
 2043 0032 5922     		movs	r2, #89
 2044 0034 8246     		mov	r10, r0
 2045 0036 0021     		movs	r1, #0
 2046 0038 2046     		mov	r0, r4
 2047 003a FFF7FEFF 		bl	lv_obj_get_style_prop
 2048 003e 5822     		movs	r2, #88
 2049 0040 0021     		movs	r1, #0
 2050 0042 0546     		mov	r5, r0
 2051 0044 2046     		mov	r0, r4
 2052 0046 FFF7FEFF 		bl	lv_obj_get_style_prop
 2053 004a 0346     		mov	r3, r0
 2054 004c 0021     		movs	r1, #0
 2055 004e 1BB2     		sxth	r3, r3
 2056 0050 626A     		ldr	r2, [r4, #36]
 2057 0052 0690     		str	r0, [sp, #24]
 2058 0054 2046     		mov	r0, r4
 2059 0056 0493     		str	r3, [sp, #16]
 2060 0058 BAF908B0 		ldrsh	fp, [r10, #8]
 2061 005c FFF7FEFF 		bl	lv_obj_calculate_style_text_align
 2062 0060 94F84830 		ldrb	r3, [r4, #72]	@ zero_extendqisi2
 2063 0064 0790     		str	r0, [sp, #28]
 2064 0066 9906     		lsls	r1, r3, #26
 2065 0068 C3F30012 		ubfx	r2, r3, #4, #1
 2066 006c 48BF     		it	mi
 2067 006e 42F00203 		orrmi	r3, r2, #2
 2068 0072 0392     		str	r2, [sp, #12]
 2069 0074 4FF00001 		mov	r1, #0
 2070 0078 4FF00102 		mov	r2, #1
 2071 007c 2046     		mov	r0, r4
 2072 007e 48BF     		it	mi
 2073 0080 0393     		strmi	r3, [sp, #12]
 2074 0082 FFF7FEFF 		bl	lv_obj_get_style_prop
 2075 0086 42F2D172 		movw	r2, #10193
 2076 008a 03B2     		sxth	r3, r0
 2077 008c 9342     		cmp	r3, r2
 2078 008e 00F0AA80 		beq	.L389
 2079              	.L359:
 2080 0092 3378     		ldrb	r3, [r6]	@ zero_extendqisi2
 2081 0094 002B     		cmp	r3, #0
 2082 0096 00F0C780 		beq	.L390
 2083 009a 0BEB0503 		add	r3, fp, r5
 2084 009e 0025     		movs	r5, #0
 2085 00a0 B146     		mov	r9, r6
 2086 00a2 2C46     		mov	r4, r5
 2087 00a4 9846     		mov	r8, r3
 2088 00a6 05E0     		b	.L361
 2089              	.L392:
 2090 00a8 335D     		ldrb	r3, [r6, r4]	@ zero_extendqisi2
 2091 00aa 15B2     		sxth	r5, r2
 2092 00ac 06EB0409 		add	r9, r6, r4
 2093 00b0 002B     		cmp	r3, #0
 2094 00b2 7AD0     		beq	.L391
ARM GAS  /var/folders/lp/x54gwt890xv47sdkqj1k04q40000gn/T//ccK0uHT5.s 			page 37


 2095              	.L361:
 2096 00b4 039B     		ldr	r3, [sp, #12]
 2097 00b6 0193     		str	r3, [sp, #4]
 2098 00b8 0023     		movs	r3, #0
 2099 00ba 0093     		str	r3, [sp]
 2100 00bc 5146     		mov	r1, r10
 2101 00be DDE90423 		ldrd	r2, r3, [sp, #16]
 2102 00c2 4846     		mov	r0, r9
 2103 00c4 FFF7FEFF 		bl	_lv_txt_get_next_line
 2104 00c8 B7F90230 		ldrsh	r3, [r7, #2]
 2105 00cc 08EB0502 		add	r2, r8, r5
 2106 00d0 5D44     		add	r5, r5, fp
 2107 00d2 AB42     		cmp	r3, r5
 2108 00d4 2146     		mov	r1, r4
 2109 00d6 0444     		add	r4, r4, r0
 2110 00d8 E6DC     		bgt	.L392
 2111 00da 8846     		mov	r8, r1
 2112              	.L360:
 2113 00dc 079B     		ldr	r3, [sp, #28]
 2114 00de 022B     		cmp	r3, #2
 2115 00e0 67D0     		beq	.L393
 2116              	.L363:
 2117 00e2 079B     		ldr	r3, [sp, #28]
 2118 00e4 032B     		cmp	r3, #3
 2119 00e6 00F08D80 		beq	.L394
 2120 00ea 0025     		movs	r5, #0
 2121              	.L364:
 2122 00ec 0023     		movs	r3, #0
 2123 00ee CDE90A33 		strd	r3, r3, [sp, #40]
 2124 00f2 CDF82480 		str	r8, [sp, #36]
 2125 00f6 8DF82330 		strb	r3, [sp, #35]
 2126 00fa 002C     		cmp	r4, #0
 2127 00fc 39D0     		beq	.L372
 2128 00fe 04F1FF39 		add	r9, r4, #-1
 2129 0102 C145     		cmp	r9, r8
 2130 0104 C0F09480 		bcc	.L373
 2131 0108 039A     		ldr	r2, [sp, #12]
 2132 010a 9B46     		mov	fp, r3
 2133 010c 02F00104 		and	r4, r2, #1
 2134 0110 3B46     		mov	r3, r7
 2135 0112 2746     		mov	r7, r4
 2136 0114 4446     		mov	r4, r8
 2137 0116 9846     		mov	r8, r3
 2138 0118 13E0     		b	.L369
 2139              	.L366:
 2140 011a DDE90A12 		ldrd	r1, r2, [sp, #40]
 2141 011e 5046     		mov	r0, r10
 2142 0120 FFF7FEFF 		bl	lv_font_get_glyph_width
 2143 0124 B8F90020 		ldrsh	r2, [r8]
 2144 0128 2844     		add	r0, r0, r5
 2145 012a 03B2     		sxth	r3, r0
 2146 012c 9A42     		cmp	r2, r3
 2147 012e AB46     		mov	fp, r5
 2148 0130 80B2     		uxth	r0, r0
 2149 0132 62DB     		blt	.L395
 2150 0134 069B     		ldr	r3, [sp, #24]
 2151 0136 099C     		ldr	r4, [sp, #36]
ARM GAS  /var/folders/lp/x54gwt890xv47sdkqj1k04q40000gn/T//ccK0uHT5.s 			page 38


 2152 0138 1844     		add	r0, r0, r3
 2153 013a 2346     		mov	r3, r4
 2154 013c 4B45     		cmp	r3, r9
 2155 013e 05B2     		sxth	r5, r0
 2156 0140 12D8     		bhi	.L396
 2157              	.L369:
 2158 0142 3046     		mov	r0, r6
 2159 0144 09AB     		add	r3, sp, #36
 2160 0146 0BAA     		add	r2, sp, #44
 2161 0148 0AA9     		add	r1, sp, #40
 2162 014a FFF7FEFF 		bl	_lv_txt_encoded_letter_next_2
 2163 014e 0DF12300 		add	r0, sp, #35
 2164 0152 002F     		cmp	r7, #0
 2165 0154 E1D0     		beq	.L366
 2166 0156 099B     		ldr	r3, [sp, #36]
 2167 0158 F15C     		ldrb	r1, [r6, r3]	@ zero_extendqisi2
 2168 015a FFF7FEFF 		bl	_lv_txt_is_cmd
 2169 015e 0028     		cmp	r0, #0
 2170 0160 DBD0     		beq	.L366
 2171 0162 099B     		ldr	r3, [sp, #36]
 2172 0164 4B45     		cmp	r3, r9
 2173 0166 ECD9     		bls	.L369
 2174              	.L396:
 2175 0168 DDE90A42 		ldrd	r4, r2, [sp, #40]
 2176 016c 4746     		mov	r7, r8
 2177 016e 02E0     		b	.L365
 2178              	.L357:
 2179 0170 FEE7     		b	.L357
 2180              	.L372:
 2181 0172 2246     		mov	r2, r4
 2182 0174 A346     		mov	fp, r4
 2183              	.L365:
 2184 0176 2146     		mov	r1, r4
 2185 0178 5046     		mov	r0, r10
 2186 017a FFF7FEFF 		bl	lv_font_get_glyph_width
 2187 017e 0499     		ldr	r1, [sp, #16]
 2188 0180 B7F90020 		ldrsh	r2, [r7]
 2189 0184 ABEB0103 		sub	r3, fp, r1
 2190 0188 9A42     		cmp	r2, r3
 2191 018a 0ADB     		blt	.L374
 2192 018c 0B46     		mov	r3, r1
 2193 018e 0344     		add	r3, r3, r0
 2194 0190 0133     		adds	r3, r3, #1
 2195 0192 5B44     		add	r3, r3, fp
 2196 0194 9A42     		cmp	r2, r3
 2197 0196 CCBF     		ite	gt
 2198 0198 0020     		movgt	r0, #0
 2199 019a 0120     		movle	r0, #1
 2200 019c 0FB0     		add	sp, sp, #60
 2201              		@ sp needed
 2202 019e BDE8F08F 		pop	{r4, r5, r6, r7, r8, r9, r10, fp, pc}
 2203              	.L374:
 2204 01a2 0020     		movs	r0, #0
 2205 01a4 0FB0     		add	sp, sp, #60
 2206              		@ sp needed
 2207 01a6 BDE8F08F 		pop	{r4, r5, r6, r7, r8, r9, r10, fp, pc}
 2208              	.L391:
ARM GAS  /var/folders/lp/x54gwt890xv47sdkqj1k04q40000gn/T//ccK0uHT5.s 			page 39


 2209 01aa 079B     		ldr	r3, [sp, #28]
 2210 01ac 022B     		cmp	r3, #2
 2211 01ae A046     		mov	r8, r4
 2212 01b0 97D1     		bne	.L363
 2213              	.L393:
 2214 01b2 039B     		ldr	r3, [sp, #12]
 2215 01b4 0093     		str	r3, [sp]
 2216 01b6 5246     		mov	r2, r10
 2217 01b8 049B     		ldr	r3, [sp, #16]
 2218 01ba 4846     		mov	r0, r9
 2219 01bc A4EB0801 		sub	r1, r4, r8
 2220 01c0 FFF7FEFF 		bl	lv_txt_get_width
 2221 01c4 BDF83430 		ldrh	r3, [sp, #52]
 2222 01c8 BDF83020 		ldrh	r2, [sp, #48]
 2223 01cc 0133     		adds	r3, r3, #1
 2224 01ce 9B1A     		subs	r3, r3, r2
 2225 01d0 00EBD070 		add	r0, r0, r0, lsr #31
 2226 01d4 C3F3C032 		ubfx	r2, r3, #15, #1
 2227 01d8 4010     		asrs	r0, r0, #1
 2228 01da 02FA83F3 		sxtah	r3, r2, r3
 2229 01de C0EB6305 		rsb	r5, r0, r3, asr #1
 2230 01e2 2DB2     		sxth	r5, r5
 2231 01e4 82E7     		b	.L364
 2232              	.L389:
 2233 01e6 94F82330 		ldrb	r3, [r4, #35]	@ zero_extendqisi2
 2234 01ea 1B07     		lsls	r3, r3, #28
 2235 01ec 3FF551AF 		bmi	.L359
 2236 01f0 039B     		ldr	r3, [sp, #12]
 2237 01f2 43F00403 		orr	r3, r3, #4
 2238 01f6 0393     		str	r3, [sp, #12]
 2239 01f8 4BE7     		b	.L359
 2240              	.L395:
 2241 01fa 0994     		str	r4, [sp, #36]
 2242 01fc 4746     		mov	r7, r8
 2243 01fe DDE90A42 		ldrd	r4, r2, [sp, #40]
 2244 0202 B8E7     		b	.L365
 2245              	.L394:
 2246 0204 039B     		ldr	r3, [sp, #12]
 2247 0206 0093     		str	r3, [sp]
 2248 0208 5246     		mov	r2, r10
 2249 020a 049B     		ldr	r3, [sp, #16]
 2250 020c 4846     		mov	r0, r9
 2251 020e A4EB0801 		sub	r1, r4, r8
 2252 0212 FFF7FEFF 		bl	lv_txt_get_width
 2253 0216 BDF83430 		ldrh	r3, [sp, #52]
 2254 021a BDF83020 		ldrh	r2, [sp, #48]
 2255 021e 0133     		adds	r3, r3, #1
 2256 0220 9B1A     		subs	r3, r3, r2
 2257 0222 1B1A     		subs	r3, r3, r0
 2258 0224 1DB2     		sxth	r5, r3
 2259 0226 61E7     		b	.L364
 2260              	.L390:
 2261 0228 9846     		mov	r8, r3
 2262 022a B146     		mov	r9, r6
 2263 022c 1C46     		mov	r4, r3
 2264 022e 55E7     		b	.L360
 2265              	.L373:
ARM GAS  /var/folders/lp/x54gwt890xv47sdkqj1k04q40000gn/T//ccK0uHT5.s 			page 40


 2266 0230 9B46     		mov	fp, r3
 2267 0232 1A46     		mov	r2, r3
 2268 0234 1C46     		mov	r4, r3
 2269 0236 9EE7     		b	.L365
 2271              		.section	.text.lv_label_get_text_selection_start,"ax",%progbits
 2272              		.align	1
 2273              		.p2align 2,,3
 2274              		.global	lv_label_get_text_selection_start
 2275              		.syntax unified
 2276              		.thumb
 2277              		.thumb_func
 2279              	lv_label_get_text_selection_start:
 2280              		@ args = 0, pretend = 0, frame = 0
 2281              		@ frame_needed = 0, uses_anonymous_args = 0
 2282              		@ link register save eliminated.
 2283 0000 C06B     		ldr	r0, [r0, #60]
 2284 0002 7047     		bx	lr
 2286              		.section	.text.lv_label_get_text_selection_end,"ax",%progbits
 2287              		.align	1
 2288              		.p2align 2,,3
 2289              		.global	lv_label_get_text_selection_end
 2290              		.syntax unified
 2291              		.thumb
 2292              		.thumb_func
 2294              	lv_label_get_text_selection_end:
 2295              		@ args = 0, pretend = 0, frame = 0
 2296              		@ frame_needed = 0, uses_anonymous_args = 0
 2297              		@ link register save eliminated.
 2298 0000 006C     		ldr	r0, [r0, #64]
 2299 0002 7047     		bx	lr
 2301              		.section	.text.lv_label_ins_text,"ax",%progbits
 2302              		.align	1
 2303              		.p2align 2,,3
 2304              		.global	lv_label_ins_text
 2305              		.syntax unified
 2306              		.thumb
 2307              		.thumb_func
 2309              	lv_label_ins_text:
 2310              		@ args = 0, pretend = 0, frame = 0
 2311              		@ frame_needed = 0, uses_anonymous_args = 0
 2312 0000 42B1     		cbz	r2, .L401
 2313 0002 90F84830 		ldrb	r3, [r0, #72]	@ zero_extendqisi2
 2314 0006 1B07     		lsls	r3, r3, #28
 2315 0008 2DE9F041 		push	{r4, r5, r6, r7, r8, lr}
 2316 000c 0446     		mov	r4, r0
 2317 000e 02D5     		bpl	.L408
 2318 0010 BDE8F081 		pop	{r4, r5, r6, r7, r8, pc}
 2319              	.L401:
 2320 0014 FEE7     		b	.L401
 2321              	.L408:
 2322 0016 1546     		mov	r5, r2
 2323 0018 0F46     		mov	r7, r1
 2324 001a FFF7FEFF 		bl	lv_obj_invalidate
 2325 001e D4F82480 		ldr	r8, [r4, #36]
 2326 0022 4046     		mov	r0, r8
 2327 0024 FFF7FEFF 		bl	strlen
 2328 0028 0646     		mov	r6, r0
ARM GAS  /var/folders/lp/x54gwt890xv47sdkqj1k04q40000gn/T//ccK0uHT5.s 			page 41


 2329 002a 2846     		mov	r0, r5
 2330 002c FFF7FEFF 		bl	strlen
 2331 0030 0644     		add	r6, r6, r0
 2332 0032 711C     		adds	r1, r6, #1
 2333 0034 4046     		mov	r0, r8
 2334 0036 FFF7FEFF 		bl	lv_mem_realloc
 2335 003a 0346     		mov	r3, r0
 2336 003c 6062     		str	r0, [r4, #36]
 2337 003e 70B1     		cbz	r0, .L404
 2338 0040 4FF6FF72 		movw	r2, #65535
 2339 0044 9742     		cmp	r7, r2
 2340 0046 0BD0     		beq	.L409
 2341              	.L405:
 2342 0048 3946     		mov	r1, r7
 2343 004a 2A46     		mov	r2, r5
 2344 004c 1846     		mov	r0, r3
 2345 004e FFF7FEFF 		bl	_lv_txt_ins
 2346 0052 2046     		mov	r0, r4
 2347 0054 0021     		movs	r1, #0
 2348 0056 BDE8F041 		pop	{r4, r5, r6, r7, r8, lr}
 2349 005a FFF7FEBF 		b	lv_label_set_text
 2350              	.L404:
 2351 005e FEE7     		b	.L404
 2352              	.L409:
 2353 0060 024B     		ldr	r3, .L410
 2354 0062 1B68     		ldr	r3, [r3]
 2355 0064 9847     		blx	r3
 2356 0066 636A     		ldr	r3, [r4, #36]
 2357 0068 0746     		mov	r7, r0
 2358 006a EDE7     		b	.L405
 2359              	.L411:
 2360              		.align	2
 2361              	.L410:
 2362 006c 00000000 		.word	_lv_txt_get_encoded_length
 2364              		.section	.text.lv_label_cut_text,"ax",%progbits
 2365              		.align	1
 2366              		.p2align 2,,3
 2367              		.global	lv_label_cut_text
 2368              		.syntax unified
 2369              		.thumb
 2370              		.thumb_func
 2372              	lv_label_cut_text:
 2373              		@ args = 0, pretend = 0, frame = 0
 2374              		@ frame_needed = 0, uses_anonymous_args = 0
 2375 0000 90F84830 		ldrb	r3, [r0, #72]	@ zero_extendqisi2
 2376 0004 1B07     		lsls	r3, r3, #28
 2377 0006 00D5     		bpl	.L423
 2378 0008 7047     		bx	lr
 2379              	.L423:
 2380 000a 70B5     		push	{r4, r5, r6, lr}
 2381 000c 0446     		mov	r4, r0
 2382 000e 0D46     		mov	r5, r1
 2383 0010 1646     		mov	r6, r2
 2384 0012 FFF7FEFF 		bl	lv_obj_invalidate
 2385 0016 606A     		ldr	r0, [r4, #36]
 2386 0018 3246     		mov	r2, r6
 2387 001a 2946     		mov	r1, r5
ARM GAS  /var/folders/lp/x54gwt890xv47sdkqj1k04q40000gn/T//ccK0uHT5.s 			page 42


 2388 001c FFF7FEFF 		bl	_lv_txt_cut
 2389 0020 636A     		ldr	r3, [r4, #36]
 2390 0022 23B1     		cbz	r3, .L412
 2391 0024 2046     		mov	r0, r4
 2392 0026 BDE87040 		pop	{r4, r5, r6, lr}
 2393 002a FFF7FEBF 		b	lv_label_refr_text.part.0
 2394              	.L412:
 2395 002e 70BD     		pop	{r4, r5, r6, pc}
 2397              		.global	lv_label_class
 2398              		.section	.rodata.lv_label_class,"a"
 2399              		.align	2
 2402              	lv_label_class:
 2403 0000 00000000 		.word	lv_obj_class
 2404 0004 00000000 		.word	lv_label_constructor
 2405 0008 00000000 		.word	lv_label_destructor
 2406 000c 00000000 		.space	4
 2407 0010 00000000 		.word	lv_label_event
 2408 0014 D127     		.short	10193
 2409 0016 D127     		.short	10193
 2410 0018 C0       		.byte	192
 2411 0019 04       		.byte	4
 2412 001a 00       		.byte	0
 2413 001b 00       		.space	1
 2414              		.ident	"GCC: (xPack GNU Arm Embedded GCC arm64) 13.3.1 20240614"
ARM GAS  /var/folders/lp/x54gwt890xv47sdkqj1k04q40000gn/T//ccK0uHT5.s 			page 43

