ARM GAS  /var/folders/lp/x54gwt890xv47sdkqj1k04q40000gn/T//ccf4e5F1.s 			page 1


   1              		.cpu cortex-m4
   2              		.arch armv7e-m
   3              		.fpu fpv4-sp-d16
   4              		.eabi_attribute 27, 1
   5              		.eabi_attribute 28, 1
   6              		.eabi_attribute 20, 1
   7              		.eabi_attribute 21, 1
   8              		.eabi_attribute 23, 3
   9              		.eabi_attribute 24, 1
  10              		.eabi_attribute 25, 1
  11              		.eabi_attribute 26, 1
  12              		.eabi_attribute 30, 2
  13              		.eabi_attribute 34, 1
  14              		.eabi_attribute 18, 4
  15              		.file	"lv_math.c"
  16              		.text
  17              		.section	.text.lv_trigo_sin,"ax",%progbits
  18              		.align	1
  19              		.p2align 2,,3
  20              		.global	lv_trigo_sin
  21              		.syntax unified
  22              		.thumb
  23              		.thumb_func
  25              	lv_trigo_sin:
  26              		@ args = 0, pretend = 0, frame = 0
  27              		@ frame_needed = 0, uses_anonymous_args = 0
  28              		@ link register save eliminated.
  29 0000 1A4B     		ldr	r3, .L8
  30 0002 83FB0023 		smull	r2, r3, r3, r0
  31 0006 0344     		add	r3, r3, r0
  32 0008 C217     		asrs	r2, r0, #31
  33 000a C2EB2323 		rsb	r3, r2, r3, asr #8
  34 000e 4FF4B472 		mov	r2, #360
  35 0012 02FB1300 		mls	r0, r2, r3, r0
  36 0016 00B2     		sxth	r0, r0
  37 0018 0028     		cmp	r0, #0
  38 001a BCBF     		itt	lt
  39 001c 8018     		addlt	r0, r0, r2
  40 001e 00B2     		sxthlt	r0, r0
  41 0020 5928     		cmp	r0, #89
  42 0022 03DC     		bgt	.L3
  43 0024 124B     		ldr	r3, .L8+4
  44 0026 33F91000 		ldrsh	r0, [r3, r0, lsl #1]
  45 002a 7047     		bx	lr
  46              	.L3:
  47 002c 80B2     		uxth	r0, r0
  48 002e A0F15A03 		sub	r3, r0, #90
  49 0032 592B     		cmp	r3, #89
  50 0034 06D8     		bhi	.L5
  51 0036 C0F1B400 		rsb	r0, r0, #180
  52 003a 0D4B     		ldr	r3, .L8+4
  53 003c 80B2     		uxth	r0, r0
  54 003e 33F91000 		ldrsh	r0, [r3, r0, lsl #1]
  55 0042 7047     		bx	lr
  56              	.L5:
  57 0044 A0F1B403 		sub	r3, r0, #180
  58 0048 9BB2     		uxth	r3, r3
ARM GAS  /var/folders/lp/x54gwt890xv47sdkqj1k04q40000gn/T//ccf4e5F1.s 			page 2


  59 004a 592B     		cmp	r3, #89
  60 004c 05D8     		bhi	.L6
  61 004e 084A     		ldr	r2, .L8+4
  62 0050 32F81300 		ldrh	r0, [r2, r3, lsl #1]
  63 0054 4042     		rsbs	r0, r0, #0
  64 0056 00B2     		sxth	r0, r0
  65 0058 7047     		bx	lr
  66              	.L6:
  67 005a C0F5B470 		rsb	r0, r0, #360
  68 005e 044B     		ldr	r3, .L8+4
  69 0060 80B2     		uxth	r0, r0
  70 0062 33F81000 		ldrh	r0, [r3, r0, lsl #1]
  71 0066 4042     		rsbs	r0, r0, #0
  72 0068 00B2     		sxth	r0, r0
  73 006a 7047     		bx	lr
  74              	.L9:
  75              		.align	2
  76              	.L8:
  77 006c B7600BB6 		.word	-1240768329
  78 0070 00000000 		.word	sin0_90_table
  80              		.section	.text.lv_bezier3,"ax",%progbits
  81              		.align	1
  82              		.p2align 2,,3
  83              		.global	lv_bezier3
  84              		.syntax unified
  85              		.thumb
  86              		.thumb_func
  88              	lv_bezier3:
  89              		@ args = 4, pretend = 0, frame = 0
  90              		@ frame_needed = 0, uses_anonymous_args = 0
  91 0000 10B5     		push	{r4, lr}
  92 0002 00FB00FE 		mul	lr, r0, r0
  93 0006 4FEA9E2E 		lsr	lr, lr, #10
  94 000a C0F5806C 		rsb	ip, r0, #1024
  95 000e 029C     		ldr	r4, [sp, #8]
  96 0010 00FB02F2 		mul	r2, r0, r2
  97 0014 0EFB00F0 		mul	r0, lr, r0
  98 0018 800A     		lsrs	r0, r0, #10
  99 001a 04FB00F0 		mul	r0, r4, r0
 100 001e 03FB0CF3 		mul	r3, r3, ip
 101 0022 0EFB03FE 		mul	lr, lr, r3
 102 0026 830A     		lsrs	r3, r0, #10
 103 0028 0CFB0CF0 		mul	r0, ip, ip
 104 002c 800A     		lsrs	r0, r0, #10
 105 002e 00FB02F2 		mul	r2, r0, r2
 106 0032 00FB0CFC 		mul	ip, r0, ip
 107 0036 02EB4202 		add	r2, r2, r2, lsl #1
 108 003a 0EEB4E0E 		add	lr, lr, lr, lsl #1
 109 003e 03EB1253 		add	r3, r3, r2, lsr #20
 110 0042 4FEA9C2C 		lsr	ip, ip, #10
 111 0046 03EB1E53 		add	r3, r3, lr, lsr #20
 112 004a 01FB0CFC 		mul	ip, r1, ip
 113 004e 03EB9C20 		add	r0, r3, ip, lsr #10
 114 0052 10BD     		pop	{r4, pc}
 116              		.section	.text.lv_sqrt,"ax",%progbits
 117              		.align	1
 118              		.p2align 2,,3
ARM GAS  /var/folders/lp/x54gwt890xv47sdkqj1k04q40000gn/T//ccf4e5F1.s 			page 3


 119              		.global	lv_sqrt
 120              		.syntax unified
 121              		.thumb
 122              		.thumb_func
 124              	lv_sqrt:
 125              		@ args = 0, pretend = 0, frame = 0
 126              		@ frame_needed = 0, uses_anonymous_args = 0
 127 0000 00B5     		push	{lr}
 128 0002 0002     		lsls	r0, r0, #8
 129 0004 4FF0000C 		mov	ip, #0
 130              	.L14:
 131 0008 0CEB0203 		add	r3, ip, r2
 132 000c 03FB03FE 		mul	lr, r3, r3
 133 0010 7045     		cmp	r0, lr
 134 0012 28BF     		it	cs
 135 0014 9C46     		movcs	ip, r3
 136 0016 5208     		lsrs	r2, r2, #1
 137 0018 F6D1     		bne	.L14
 138 001a 4FEA0C13 		lsl	r3, ip, #4
 139 001e DBB2     		uxtb	r3, r3
 140 0020 4FEA1C1C 		lsr	ip, ip, #4
 141 0024 A1F800C0 		strh	ip, [r1]	@ movhi
 142 0028 4B80     		strh	r3, [r1, #2]	@ movhi
 143 002a 5DF804FB 		ldr	pc, [sp], #4
 145 002e 00BF     		.section	.text.lv_atan2,"ax",%progbits
 146              		.align	1
 147              		.p2align 2,,3
 148              		.global	lv_atan2
 149              		.syntax unified
 150              		.thumb
 151              		.thumb_func
 153              	lv_atan2:
 154              		@ args = 0, pretend = 0, frame = 0
 155              		@ frame_needed = 0, uses_anonymous_args = 0
 156              		@ link register save eliminated.
 157 0000 0028     		cmp	r0, #0
 158 0002 BABF     		itte	lt
 159 0004 4042     		rsblt	r0, r0, #0
 160 0006 0123     		movlt	r3, #1
 161 0008 0023     		movge	r3, #0
 162 000a 0029     		cmp	r1, #0
 163 000c 02DA     		bge	.L19
 164 000e 0233     		adds	r3, r3, #2
 165 0010 DBB2     		uxtb	r3, r3
 166 0012 4942     		rsbs	r1, r1, #0
 167              	.L19:
 168 0014 8842     		cmp	r0, r1
 169 0016 22D9     		bls	.L20
 170 0018 1033     		adds	r3, r3, #16
 171 001a 01EB4101 		add	r1, r1, r1, lsl #1
 172 001e DBB2     		uxtb	r3, r3
 173 0020 C1EB0111 		rsb	r1, r1, r1, lsl #4
 174 0024 B1FBF0F0 		udiv	r0, r1, r0
 175              	.L21:
 176 0028 C2B2     		uxtb	r2, r0
 177 002a 162A     		cmp	r2, #22
 178 002c 0DD9     		bls	.L22
ARM GAS  /var/folders/lp/x54gwt890xv47sdkqj1k04q40000gn/T//ccf4e5F1.s 			page 4


 179 002e 2C2A     		cmp	r2, #44
 180 0030 26D9     		bls	.L44
 181              	.L23:
 182 0032 DA06     		lsls	r2, r3, #27
 183 0034 48BF     		it	mi
 184 0036 C0F15A00 		rsbmi	r0, r0, #90
 185 003a 03F00102 		and	r2, r3, #1
 186 003e 9B07     		lsls	r3, r3, #30
 187 0040 14D5     		bpl	.L31
 188 0042 CAB1     		cbz	r2, .L32
 189 0044 B430     		adds	r0, r0, #180
 190              	.L33:
 191 0046 80B2     		uxth	r0, r0
 192 0048 7047     		bx	lr
 193              	.L22:
 194 004a 012A     		cmp	r2, #1
 195 004c F1D9     		bls	.L23
 196 004e 052A     		cmp	r2, #5
 197 0050 1ED9     		bls	.L43
 198 0052 092A     		cmp	r2, #9
 199 0054 1ED9     		bls	.L42
 200 0056 0E2A     		cmp	r2, #14
 201 0058 18D8     		bhi	.L29
 202              	.L41:
 203 005a 0330     		adds	r0, r0, #3
 204 005c E9E7     		b	.L23
 205              	.L20:
 206 005e 00EB4000 		add	r0, r0, r0, lsl #1
 207 0062 C0EB0010 		rsb	r0, r0, r0, lsl #4
 208 0066 B0FBF1F0 		udiv	r0, r0, r1
 209 006a DDE7     		b	.L21
 210              	.L31:
 211 006c 002A     		cmp	r2, #0
 212 006e EAD0     		beq	.L33
 213 0070 C0F5B470 		rsb	r0, r0, #360
 214 0074 80B2     		uxth	r0, r0
 215 0076 7047     		bx	lr
 216              	.L32:
 217 0078 C0F1B400 		rsb	r0, r0, #180
 218 007c 80B2     		uxth	r0, r0
 219 007e 7047     		bx	lr
 220              	.L44:
 221 0080 292A     		cmp	r2, #41
 222 0082 05D8     		bhi	.L43
 223 0084 252A     		cmp	r2, #37
 224 0086 05D8     		bhi	.L42
 225 0088 202A     		cmp	r2, #32
 226 008a E6D8     		bhi	.L41
 227              	.L29:
 228 008c 0430     		adds	r0, r0, #4
 229 008e D0E7     		b	.L23
 230              	.L43:
 231 0090 0130     		adds	r0, r0, #1
 232 0092 CEE7     		b	.L23
 233              	.L42:
 234 0094 0230     		adds	r0, r0, #2
 235 0096 CCE7     		b	.L23
ARM GAS  /var/folders/lp/x54gwt890xv47sdkqj1k04q40000gn/T//ccf4e5F1.s 			page 5


 237              		.section	.text.lv_pow,"ax",%progbits
 238              		.align	1
 239              		.p2align 2,,3
 240              		.global	lv_pow
 241              		.syntax unified
 242              		.thumb
 243              		.thumb_func
 245              	lv_pow:
 246              		@ args = 0, pretend = 0, frame = 0
 247              		@ frame_needed = 0, uses_anonymous_args = 0
 248 0000 C2B1     		cbz	r2, .L49
 249 0002 00B5     		push	{lr}
 250 0004 0346     		mov	r3, r0
 251 0006 8C46     		mov	ip, r1
 252 0008 0120     		movs	r0, #1
 253 000a 0021     		movs	r1, #0
 254              	.L48:
 255 000c 12F0010F 		tst	r2, #1
 256 0010 03FB0CFE 		mul	lr, r3, ip
 257 0014 06D0     		beq	.L47
 258 0016 00FB0CFC 		mul	ip, r0, ip
 259 001a 03FB01CC 		mla	ip, r3, r1, ip
 260 001e A0FB0301 		umull	r0, r1, r0, r3
 261 0022 6144     		add	r1, r1, ip
 262              	.L47:
 263 0024 A3FB033C 		umull	r3, ip, r3, r3
 264 0028 5210     		asrs	r2, r2, #1
 265 002a 0CEB4E0C 		add	ip, ip, lr, lsl #1
 266 002e EDD1     		bne	.L48
 267 0030 5DF804FB 		ldr	pc, [sp], #4
 268              	.L49:
 269 0034 0120     		movs	r0, #1
 270 0036 1146     		mov	r1, r2
 271 0038 7047     		bx	lr
 273 003a 00BF     		.section	.text.lv_map,"ax",%progbits
 274              		.align	1
 275              		.p2align 2,,3
 276              		.global	lv_map
 277              		.syntax unified
 278              		.thumb
 279              		.thumb_func
 281              	lv_map:
 282              		@ args = 4, pretend = 0, frame = 0
 283              		@ frame_needed = 0, uses_anonymous_args = 0
 284              		@ link register save eliminated.
 285 0000 8A42     		cmp	r2, r1
 286 0002 07DA     		bge	.L66
 287 0004 8242     		cmp	r2, r0
 288 0006 03DA     		bge	.L64
 289 0008 8142     		cmp	r1, r0
 290 000a 07DC     		bgt	.L61
 291              	.L65:
 292 000c 1846     		mov	r0, r3
 293 000e 7047     		bx	lr
 294              	.L64:
 295 0010 0098     		ldr	r0, [sp]
 296 0012 7047     		bx	lr
ARM GAS  /var/folders/lp/x54gwt890xv47sdkqj1k04q40000gn/T//ccf4e5F1.s 			page 6


 297              	.L66:
 298 0014 8242     		cmp	r2, r0
 299 0016 FBDD     		ble	.L64
 300 0018 8142     		cmp	r1, r0
 301 001a F7DA     		bge	.L65
 302              	.L61:
 303 001c A0EB010C 		sub	ip, r0, r1
 304 0020 0098     		ldr	r0, [sp]
 305 0022 C01A     		subs	r0, r0, r3
 306 0024 00FB0CFC 		mul	ip, r0, ip
 307 0028 521A     		subs	r2, r2, r1
 308 002a 9CFBF2F2 		sdiv	r2, ip, r2
 309 002e D018     		adds	r0, r2, r3
 310 0030 7047     		bx	lr
 312 0032 00BF     		.section	.text.lv_rand,"ax",%progbits
 313              		.align	1
 314              		.p2align 2,,3
 315              		.global	lv_rand
 316              		.syntax unified
 317              		.thumb
 318              		.thumb_func
 320              	lv_rand:
 321              		@ args = 0, pretend = 0, frame = 0
 322              		@ frame_needed = 0, uses_anonymous_args = 0
 323              		@ link register save eliminated.
 324 0000 10B4     		push	{r4}
 325 0002 094C     		ldr	r4, .L69
 326 0004 2368     		ldr	r3, [r4]
 327 0006 83EA4333 		eor	r3, r3, r3, lsl #13
 328 000a 091A     		subs	r1, r1, r0
 329 000c 83EA5343 		eor	r3, r3, r3, lsr #17
 330 0010 83EA4313 		eor	r3, r3, r3, lsl #5
 331 0014 0131     		adds	r1, r1, #1
 332 0016 B3FBF1F2 		udiv	r2, r3, r1
 333 001a 01FB1232 		mls	r2, r1, r2, r3
 334 001e 2360     		str	r3, [r4]
 335 0020 1044     		add	r0, r0, r2
 336 0022 5DF8044B 		ldr	r4, [sp], #4
 337 0026 7047     		bx	lr
 338              	.L70:
 339              		.align	2
 340              	.L69:
 341 0028 00000000 		.word	a.0
 343              		.section	.data.a.0,"aw"
 344              		.align	2
 347              	a.0:
 348 0000 CDAB3412 		.word	305441741
 349              		.section	.rodata.sin0_90_table,"a"
 350              		.align	2
 353              	sin0_90_table:
 354 0000 0000     		.short	0
 355 0002 3C02     		.short	572
 356 0004 7804     		.short	1144
 357 0006 B306     		.short	1715
 358 0008 EE08     		.short	2286
 359 000a 280B     		.short	2856
 360 000c 610D     		.short	3425
ARM GAS  /var/folders/lp/x54gwt890xv47sdkqj1k04q40000gn/T//ccf4e5F1.s 			page 7


 361 000e 990F     		.short	3993
 362 0010 D011     		.short	4560
 363 0012 0614     		.short	5126
 364 0014 3A16     		.short	5690
 365 0016 6C18     		.short	6252
 366 0018 9D1A     		.short	6813
 367 001a CB1C     		.short	7371
 368 001c F71E     		.short	7927
 369 001e 2121     		.short	8481
 370 0020 4823     		.short	9032
 371 0022 6C25     		.short	9580
 372 0024 8E27     		.short	10126
 373 0026 AC29     		.short	10668
 374 0028 C72B     		.short	11207
 375 002a DF2D     		.short	11743
 376 002c F32F     		.short	12275
 377 002e 0332     		.short	12803
 378 0030 1034     		.short	13328
 379 0032 1836     		.short	13848
 380 0034 1C38     		.short	14364
 381 0036 1C3A     		.short	14876
 382 0038 173C     		.short	15383
 383 003a 0E3E     		.short	15886
 384 003c FF3F     		.short	16383
 385 003e EC41     		.short	16876
 386 0040 D443     		.short	17364
 387 0042 B645     		.short	17846
 388 0044 9347     		.short	18323
 389 0046 6A49     		.short	18794
 390 0048 3C4B     		.short	19260
 391 004a 084D     		.short	19720
 392 004c CD4E     		.short	20173
 393 004e 8D50     		.short	20621
 394 0050 4652     		.short	21062
 395 0052 F953     		.short	21497
 396 0054 A555     		.short	21925
 397 0056 4B57     		.short	22347
 398 0058 EA58     		.short	22762
 399 005a 825A     		.short	23170
 400 005c 135C     		.short	23571
 401 005e 9C5D     		.short	23964
 402 0060 1F5F     		.short	24351
 403 0062 9A60     		.short	24730
 404 0064 0D62     		.short	25101
 405 0066 7963     		.short	25465
 406 0068 DD64     		.short	25821
 407 006a 3966     		.short	26169
 408 006c 8D67     		.short	26509
 409 006e D968     		.short	26841
 410 0070 1D6A     		.short	27165
 411 0072 596B     		.short	27481
 412 0074 8C6C     		.short	27788
 413 0076 B76D     		.short	28087
 414 0078 D96E     		.short	28377
 415 007a F36F     		.short	28659
 416 007c 0471     		.short	28932
 417 007e 0C72     		.short	29196
ARM GAS  /var/folders/lp/x54gwt890xv47sdkqj1k04q40000gn/T//ccf4e5F1.s 			page 8


 418 0080 0B73     		.short	29451
 419 0082 0174     		.short	29697
 420 0084 EE74     		.short	29934
 421 0086 D275     		.short	30162
 422 0088 AD76     		.short	30381
 423 008a 7F77     		.short	30591
 424 008c 4778     		.short	30791
 425 008e 0679     		.short	30982
 426 0090 BB79     		.short	31163
 427 0092 677A     		.short	31335
 428 0094 0A7B     		.short	31498
 429 0096 A27B     		.short	31650
 430 0098 327C     		.short	31794
 431 009a B77C     		.short	31927
 432 009c 337D     		.short	32051
 433 009e A57D     		.short	32165
 434 00a0 0D7E     		.short	32269
 435 00a2 6C7E     		.short	32364
 436 00a4 C07E     		.short	32448
 437 00a6 0B7F     		.short	32523
 438 00a8 4B7F     		.short	32587
 439 00aa 827F     		.short	32642
 440 00ac AF7F     		.short	32687
 441 00ae D27F     		.short	32722
 442 00b0 EB7F     		.short	32747
 443 00b2 FA7F     		.short	32762
 444 00b4 FF7F     		.short	32767
 445              		.ident	"GCC: (xPack GNU Arm Embedded GCC arm64) 13.3.1 20240614"
ARM GAS  /var/folders/lp/x54gwt890xv47sdkqj1k04q40000gn/T//ccf4e5F1.s 			page 9

