ARM GAS  /var/folders/lp/x54gwt890xv47sdkqj1k04q40000gn/T//cc8VlKrm.s 			page 1


   1              		.cpu cortex-m4
   2              		.arch armv7e-m
   3              		.fpu fpv4-sp-d16
   4              		.eabi_attribute 27, 1
   5              		.eabi_attribute 28, 1
   6              		.eabi_attribute 20, 1
   7              		.eabi_attribute 21, 1
   8              		.eabi_attribute 23, 3
   9              		.eabi_attribute 24, 1
  10              		.eabi_attribute 25, 1
  11              		.eabi_attribute 26, 1
  12              		.eabi_attribute 30, 2
  13              		.eabi_attribute 34, 1
  14              		.eabi_attribute 18, 4
  15              		.file	"lv_msgbox.c"
  16              		.text
  17              		.section	.text.msgbox_close_click_event_cb,"ax",%progbits
  18              		.align	1
  19              		.p2align 2,,3
  20              		.syntax unified
  21              		.thumb
  22              		.thumb_func
  24              	msgbox_close_click_event_cb:
  25              		@ args = 0, pretend = 0, frame = 0
  26              		@ frame_needed = 0, uses_anonymous_args = 0
  27 0000 10B5     		push	{r4, lr}
  28 0002 FFF7FEFF 		bl	lv_event_get_target
  29 0006 FFF7FEFF 		bl	lv_obj_get_parent
  30 000a 4FF00071 		mov	r1, #33554432
  31 000e 0446     		mov	r4, r0
  32 0010 FFF7FEFF 		bl	lv_obj_has_flag
  33 0014 30B1     		cbz	r0, .L2
  34 0016 2046     		mov	r0, r4
  35 0018 FFF7FEFF 		bl	lv_obj_get_parent
  36 001c BDE81040 		pop	{r4, lr}
  37 0020 FFF7FEBF 		b	lv_obj_del
  38              	.L2:
  39 0024 2046     		mov	r0, r4
  40 0026 BDE81040 		pop	{r4, lr}
  41 002a FFF7FEBF 		b	lv_obj_del
  43 002e 00BF     		.section	.rodata.lv_msgbox_create.str1.4,"aMS",%progbits,1
  44              		.align	2
  45              	.LC0:
  46 0000 00       		.ascii	"\000"
  47 0001 000000   		.align	2
  48              	.LC1:
  49 0004 EF808D00 		.ascii	"\357\200\215\000"
  50              		.section	.text.lv_msgbox_create,"ax",%progbits
  51              		.align	1
  52              		.p2align 2,,3
  53              		.global	lv_msgbox_create
  54              		.syntax unified
  55              		.thumb
  56              		.thumb_func
  58              	lv_msgbox_create:
  59              		@ args = 4, pretend = 0, frame = 0
  60              		@ frame_needed = 0, uses_anonymous_args = 0
ARM GAS  /var/folders/lp/x54gwt890xv47sdkqj1k04q40000gn/T//cc8VlKrm.s 			page 2


  61 0000 2DE9F041 		push	{r4, r5, r6, r7, r8, lr}
  62 0004 0D46     		mov	r5, r1
  63 0006 9DF81880 		ldrb	r8, [sp, #24]	@ zero_extendqisi2
  64 000a 1646     		mov	r6, r2
  65 000c 1F46     		mov	r7, r3
  66 000e 0028     		cmp	r0, #0
  67 0010 6DD0     		beq	.L55
  68 0012 0146     		mov	r1, r0
  69 0014 8A48     		ldr	r0, .L60
  70 0016 FFF7FEFF 		bl	lv_obj_class_create_obj
  71 001a 0446     		mov	r4, r0
  72 001c 00B9     		cbnz	r0, .L52
  73              	.L10:
  74              	.L50:
  75 001e FEE7     		b	.L50
  76              	.L52:
  77 0020 FFF7FEFF 		bl	lv_obj_class_init_obj
  78              	.L27:
  79 0024 0421     		movs	r1, #4
  80 0026 2046     		mov	r0, r4
  81 0028 FFF7FEFF 		bl	lv_obj_set_flex_flow
  82 002c 1DB1     		cbz	r5, .L11
  83 002e 2B78     		ldrb	r3, [r5]	@ zero_extendqisi2
  84 0030 002B     		cmp	r3, #0
  85 0032 40F08480 		bne	.L56
  86              	.L11:
  87 0036 B8F1000F 		cmp	r8, #0
  88 003a 40F09480 		bne	.L57
  89              	.L14:
  90 003e 8148     		ldr	r0, .L60+4
  91 0040 2146     		mov	r1, r4
  92 0042 FFF7FEFF 		bl	lv_obj_class_create_obj
  93 0046 E062     		str	r0, [r4, #44]
  94 0048 0028     		cmp	r0, #0
  95 004a 4FD0     		beq	.L18
  96 004c FFF7FEFF 		bl	lv_obj_class_init_obj
  97 0050 8EB1     		cbz	r6, .L19
  98 0052 3378     		ldrb	r3, [r6]	@ zero_extendqisi2
  99 0054 7BB1     		cbz	r3, .L19
 100 0056 E06A     		ldr	r0, [r4, #44]
 101 0058 FFF7FEFF 		bl	lv_label_create
 102 005c 3146     		mov	r1, r6
 103 005e 2063     		str	r0, [r4, #48]
 104 0060 FFF7FEFF 		bl	lv_label_set_text
 105 0064 206B     		ldr	r0, [r4, #48]
 106 0066 0021     		movs	r1, #0
 107 0068 FFF7FEFF 		bl	lv_label_set_long_mode
 108 006c 206B     		ldr	r0, [r4, #48]
 109 006e 42F26401 		movw	r1, #8292
 110 0072 FFF7FEFF 		bl	lv_obj_set_width
 111              	.L19:
 112 0076 002F     		cmp	r7, #0
 113 0078 35D0     		beq	.L5
 114 007a 2046     		mov	r0, r4
 115 007c FFF7FEFF 		bl	lv_btnmatrix_create
 116 0080 3946     		mov	r1, r7
 117 0082 6063     		str	r0, [r4, #52]
ARM GAS  /var/folders/lp/x54gwt890xv47sdkqj1k04q40000gn/T//cc8VlKrm.s 			page 3


 118 0084 FFF7FEFF 		bl	lv_btnmatrix_set_map
 119 0088 606B     		ldr	r0, [r4, #52]
 120 008a 4FF40871 		mov	r1, #544
 121 008e FFF7FEFF 		bl	lv_btnmatrix_set_btn_ctrl_all
 122 0092 3D68     		ldr	r5, [r7]
 123 0094 7DB1     		cbz	r5, .L22
 124 0096 3946     		mov	r1, r7
 125 0098 0023     		movs	r3, #0
 126 009a 03E0     		b	.L23
 127              	.L24:
 128 009c 51F8045F 		ldr	r5, [r1, #4]!
 129 00a0 0133     		adds	r3, r3, #1
 130 00a2 15B1     		cbz	r5, .L54
 131              	.L23:
 132 00a4 2A78     		ldrb	r2, [r5]	@ zero_extendqisi2
 133 00a6 002A     		cmp	r2, #0
 134 00a8 F8D1     		bne	.L24
 135              	.L54:
 136 00aa 03EB8302 		add	r2, r3, r3, lsl #2
 137 00ae 02EB0212 		add	r2, r2, r2, lsl #4
 138 00b2 1344     		add	r3, r3, r2
 139 00b4 1DB2     		sxth	r5, r3
 140              	.L22:
 141 00b6 5722     		movs	r2, #87
 142 00b8 4FF4A021 		mov	r1, #327680
 143 00bc 606B     		ldr	r0, [r4, #52]
 144 00be FFF7FEFF 		bl	lv_obj_get_style_prop
 145 00c2 0289     		ldrh	r2, [r0, #8]
 146 00c4 606B     		ldr	r0, [r4, #52]
 147 00c6 0D32     		adds	r2, r2, #13
 148 00c8 12B2     		sxth	r2, r2
 149 00ca 2946     		mov	r1, r5
 150 00cc FFF7FEFF 		bl	lv_obj_set_size
 151 00d0 606B     		ldr	r0, [r4, #52]
 152 00d2 42F26401 		movw	r1, #8292
 153 00d6 0022     		movs	r2, #0
 154 00d8 FFF7FEFF 		bl	lv_obj_set_style_max_width
 155 00dc 606B     		ldr	r0, [r4, #52]
 156 00de 4FF48041 		mov	r1, #16384
 157 00e2 FFF7FEFF 		bl	lv_obj_add_flag
 158              	.L5:
 159 00e6 2046     		mov	r0, r4
 160 00e8 BDE8F081 		pop	{r4, r5, r6, r7, r8, pc}
 161              	.L18:
 162 00ec FEE7     		b	.L18
 163              	.L55:
 164 00ee FFF7FEFF 		bl	lv_disp_get_default
 165 00f2 FFF7FEFF 		bl	lv_disp_get_layer_top
 166 00f6 0146     		mov	r1, r0
 167 00f8 5348     		ldr	r0, .L60+8
 168 00fa FFF7FEFF 		bl	lv_obj_class_create_obj
 169 00fe 0446     		mov	r4, r0
 170 0100 E0B1     		cbz	r0, .L8
 171 0102 FFF7FEFF 		bl	lv_obj_class_init_obj
 172 0106 2046     		mov	r0, r4
 173 0108 4FF40031 		mov	r1, #131072
 174 010c FFF7FEFF 		bl	lv_obj_clear_flag
ARM GAS  /var/folders/lp/x54gwt890xv47sdkqj1k04q40000gn/T//cc8VlKrm.s 			page 4


 175 0110 42F26402 		movw	r2, #8292
 176 0114 1146     		mov	r1, r2
 177 0116 2046     		mov	r0, r4
 178 0118 FFF7FEFF 		bl	lv_obj_set_size
 179 011c 2146     		mov	r1, r4
 180 011e 4848     		ldr	r0, .L60
 181 0120 FFF7FEFF 		bl	lv_obj_class_create_obj
 182 0124 0446     		mov	r4, r0
 183 0126 0028     		cmp	r0, #0
 184 0128 3FF479AF 		beq	.L10
 185 012c FFF7FEFF 		bl	lv_obj_class_init_obj
 186 0130 4FF00071 		mov	r1, #33554432
 187 0134 2046     		mov	r0, r4
 188 0136 FFF7FEFF 		bl	lv_obj_add_flag
 189 013a 73E7     		b	.L27
 190              	.L8:
 191 013c FEE7     		b	.L8
 192              	.L56:
 193 013e B8F1000F 		cmp	r8, #0
 194 0142 5AD1     		bne	.L58
 195 0144 2046     		mov	r0, r4
 196 0146 FFF7FEFF 		bl	lv_label_create
 197 014a 2946     		mov	r1, r5
 198 014c 6062     		str	r0, [r4, #36]
 199 014e FFF7FEFF 		bl	lv_label_set_text
 200 0152 606A     		ldr	r0, [r4, #36]
 201 0154 0321     		movs	r1, #3
 202 0156 FFF7FEFF 		bl	lv_label_set_long_mode
 203 015a 606A     		ldr	r0, [r4, #36]
 204 015c 42F26401 		movw	r1, #8292
 205 0160 FFF7FEFF 		bl	lv_obj_set_width
 206 0164 6BE7     		b	.L14
 207              	.L57:
 208 0166 2046     		mov	r0, r4
 209 0168 FFF7FEFF 		bl	lv_label_create
 210 016c 374D     		ldr	r5, .L60+12
 211              	.L15:
 212 016e 6062     		str	r0, [r4, #36]
 213 0170 2946     		mov	r1, r5
 214 0172 FFF7FEFF 		bl	lv_label_set_text
 215 0176 606A     		ldr	r0, [r4, #36]
 216 0178 0321     		movs	r1, #3
 217 017a FFF7FEFF 		bl	lv_label_set_long_mode
 218 017e 0121     		movs	r1, #1
 219 0180 606A     		ldr	r0, [r4, #36]
 220 0182 FFF7FEFF 		bl	lv_obj_set_flex_grow
 221 0186 2046     		mov	r0, r4
 222 0188 FFF7FEFF 		bl	lv_btn_create
 223 018c A062     		str	r0, [r4, #40]
 224 018e 0546     		mov	r5, r0
 225 0190 0020     		movs	r0, #0
 226 0192 FFF7FEFF 		bl	lv_disp_get_dpi
 227 0196 00EB8000 		add	r0, r0, r0, lsl #2
 228 019a 4300     		lsls	r3, r0, #1
 229 019c EF2B     		cmp	r3, #239
 230 019e 3FDC     		bgt	.L25
 231 01a0 0121     		movs	r1, #1
ARM GAS  /var/folders/lp/x54gwt890xv47sdkqj1k04q40000gn/T//cc8VlKrm.s 			page 5


 232              	.L26:
 233 01a2 2846     		mov	r0, r5
 234 01a4 FFF7FEFF 		bl	lv_obj_set_ext_click_area
 235 01a8 0023     		movs	r3, #0
 236 01aa 0722     		movs	r2, #7
 237 01ac 2849     		ldr	r1, .L60+16
 238 01ae A06A     		ldr	r0, [r4, #40]
 239 01b0 FFF7FEFF 		bl	lv_obj_add_event_cb
 240 01b4 A06A     		ldr	r0, [r4, #40]
 241 01b6 FFF7FEFF 		bl	lv_label_create
 242 01ba 2649     		ldr	r1, .L60+20
 243 01bc 8046     		mov	r8, r0
 244 01be FFF7FEFF 		bl	lv_label_set_text
 245 01c2 5722     		movs	r2, #87
 246 01c4 0021     		movs	r1, #0
 247 01c6 A06A     		ldr	r0, [r4, #40]
 248 01c8 FFF7FEFF 		bl	lv_obj_get_style_prop
 249 01cc 0589     		ldrh	r5, [r0, #8]
 250 01ce 0020     		movs	r0, #0
 251 01d0 FFF7FEFF 		bl	lv_disp_get_dpi
 252 01d4 00EB8000 		add	r0, r0, r0, lsl #2
 253 01d8 4300     		lsls	r3, r0, #1
 254 01da EF2B     		cmp	r3, #239
 255 01dc 11DC     		bgt	.L59
 256 01de 0123     		movs	r3, #1
 257              	.L16:
 258 01e0 EA18     		adds	r2, r5, r3
 259 01e2 12B2     		sxth	r2, r2
 260 01e4 A06A     		ldr	r0, [r4, #40]
 261 01e6 1146     		mov	r1, r2
 262 01e8 FFF7FEFF 		bl	lv_obj_set_size
 263 01ec 0023     		movs	r3, #0
 264 01ee 4046     		mov	r0, r8
 265 01f0 1A46     		mov	r2, r3
 266 01f2 0921     		movs	r1, #9
 267 01f4 FFF7FEFF 		bl	lv_obj_align
 268 01f8 21E7     		b	.L14
 269              	.L58:
 270 01fa 2046     		mov	r0, r4
 271 01fc FFF7FEFF 		bl	lv_label_create
 272 0200 B5E7     		b	.L15
 273              	.L59:
 274 0202 0020     		movs	r0, #0
 275 0204 FFF7FEFF 		bl	lv_disp_get_dpi
 276 0208 0A21     		movs	r1, #10
 277 020a 134A     		ldr	r2, .L60+24
 278 020c 5023     		movs	r3, #80
 279 020e 00FB0133 		mla	r3, r0, r1, r3
 280 0212 82FB0312 		smull	r1, r2, r2, r3
 281 0216 DB17     		asrs	r3, r3, #31
 282 0218 C3EBA213 		rsb	r3, r3, r2, asr #6
 283 021c 9BB2     		uxth	r3, r3
 284 021e DFE7     		b	.L16
 285              	.L25:
 286 0220 0020     		movs	r0, #0
 287 0222 FFF7FEFF 		bl	lv_disp_get_dpi
 288 0226 0A21     		movs	r1, #10
ARM GAS  /var/folders/lp/x54gwt890xv47sdkqj1k04q40000gn/T//cc8VlKrm.s 			page 6


 289 0228 0B4A     		ldr	r2, .L60+24
 290 022a 5023     		movs	r3, #80
 291 022c 00FB0133 		mla	r3, r0, r1, r3
 292 0230 82FB0312 		smull	r1, r2, r2, r3
 293 0234 D917     		asrs	r1, r3, #31
 294 0236 C1EBA211 		rsb	r1, r1, r2, asr #6
 295 023a 09B2     		sxth	r1, r1
 296 023c B1E7     		b	.L26
 297              	.L61:
 298 023e 00BF     		.align	2
 299              	.L60:
 300 0240 00000000 		.word	lv_msgbox_class
 301 0244 00000000 		.word	lv_msgbox_content_class
 302 0248 00000000 		.word	lv_msgbox_backdrop_class
 303 024c 00000000 		.word	.LC0
 304 0250 00000000 		.word	msgbox_close_click_event_cb
 305 0254 04000000 		.word	.LC1
 306 0258 67666666 		.word	1717986919
 308              		.section	.text.lv_msgbox_get_title,"ax",%progbits
 309              		.align	1
 310              		.p2align 2,,3
 311              		.global	lv_msgbox_get_title
 312              		.syntax unified
 313              		.thumb
 314              		.thumb_func
 316              	lv_msgbox_get_title:
 317              		@ args = 0, pretend = 0, frame = 0
 318              		@ frame_needed = 0, uses_anonymous_args = 0
 319              		@ link register save eliminated.
 320 0000 406A     		ldr	r0, [r0, #36]
 321 0002 7047     		bx	lr
 323              		.section	.text.lv_msgbox_get_close_btn,"ax",%progbits
 324              		.align	1
 325              		.p2align 2,,3
 326              		.global	lv_msgbox_get_close_btn
 327              		.syntax unified
 328              		.thumb
 329              		.thumb_func
 331              	lv_msgbox_get_close_btn:
 332              		@ args = 0, pretend = 0, frame = 0
 333              		@ frame_needed = 0, uses_anonymous_args = 0
 334              		@ link register save eliminated.
 335 0000 806A     		ldr	r0, [r0, #40]
 336 0002 7047     		bx	lr
 338              		.section	.text.lv_msgbox_get_text,"ax",%progbits
 339              		.align	1
 340              		.p2align 2,,3
 341              		.global	lv_msgbox_get_text
 342              		.syntax unified
 343              		.thumb
 344              		.thumb_func
 346              	lv_msgbox_get_text:
 347              		@ args = 0, pretend = 0, frame = 0
 348              		@ frame_needed = 0, uses_anonymous_args = 0
 349              		@ link register save eliminated.
 350 0000 006B     		ldr	r0, [r0, #48]
 351 0002 7047     		bx	lr
ARM GAS  /var/folders/lp/x54gwt890xv47sdkqj1k04q40000gn/T//cc8VlKrm.s 			page 7


 353              		.section	.text.lv_msgbox_get_content,"ax",%progbits
 354              		.align	1
 355              		.p2align 2,,3
 356              		.global	lv_msgbox_get_content
 357              		.syntax unified
 358              		.thumb
 359              		.thumb_func
 361              	lv_msgbox_get_content:
 362              		@ args = 0, pretend = 0, frame = 0
 363              		@ frame_needed = 0, uses_anonymous_args = 0
 364              		@ link register save eliminated.
 365 0000 C06A     		ldr	r0, [r0, #44]
 366 0002 7047     		bx	lr
 368              		.section	.text.lv_msgbox_get_btns,"ax",%progbits
 369              		.align	1
 370              		.p2align 2,,3
 371              		.global	lv_msgbox_get_btns
 372              		.syntax unified
 373              		.thumb
 374              		.thumb_func
 376              	lv_msgbox_get_btns:
 377              		@ args = 0, pretend = 0, frame = 0
 378              		@ frame_needed = 0, uses_anonymous_args = 0
 379              		@ link register save eliminated.
 380 0000 406B     		ldr	r0, [r0, #52]
 381 0002 7047     		bx	lr
 383              		.section	.text.lv_msgbox_get_active_btn,"ax",%progbits
 384              		.align	1
 385              		.p2align 2,,3
 386              		.global	lv_msgbox_get_active_btn
 387              		.syntax unified
 388              		.thumb
 389              		.thumb_func
 391              	lv_msgbox_get_active_btn:
 392              		@ args = 0, pretend = 0, frame = 0
 393              		@ frame_needed = 0, uses_anonymous_args = 0
 394              		@ link register save eliminated.
 395 0000 406B     		ldr	r0, [r0, #52]
 396 0002 FFF7FEBF 		b	lv_btnmatrix_get_selected_btn
 398 0006 00BF     		.section	.text.lv_msgbox_get_active_btn_text,"ax",%progbits
 399              		.align	1
 400              		.p2align 2,,3
 401              		.global	lv_msgbox_get_active_btn_text
 402              		.syntax unified
 403              		.thumb
 404              		.thumb_func
 406              	lv_msgbox_get_active_btn_text:
 407              		@ args = 0, pretend = 0, frame = 0
 408              		@ frame_needed = 0, uses_anonymous_args = 0
 409 0000 10B5     		push	{r4, lr}
 410 0002 446B     		ldr	r4, [r0, #52]
 411 0004 2046     		mov	r0, r4
 412 0006 FFF7FEFF 		bl	lv_btnmatrix_get_selected_btn
 413 000a 0146     		mov	r1, r0
 414 000c 2046     		mov	r0, r4
 415 000e BDE81040 		pop	{r4, lr}
 416 0012 FFF7FEBF 		b	lv_btnmatrix_get_btn_text
ARM GAS  /var/folders/lp/x54gwt890xv47sdkqj1k04q40000gn/T//cc8VlKrm.s 			page 8


 418 0016 00BF     		.section	.text.lv_msgbox_close,"ax",%progbits
 419              		.align	1
 420              		.p2align 2,,3
 421              		.global	lv_msgbox_close
 422              		.syntax unified
 423              		.thumb
 424              		.thumb_func
 426              	lv_msgbox_close:
 427              		@ args = 0, pretend = 0, frame = 0
 428              		@ frame_needed = 0, uses_anonymous_args = 0
 429 0000 10B5     		push	{r4, lr}
 430 0002 4FF00071 		mov	r1, #33554432
 431 0006 0446     		mov	r4, r0
 432 0008 FFF7FEFF 		bl	lv_obj_has_flag
 433 000c 30B1     		cbz	r0, .L71
 434 000e 2046     		mov	r0, r4
 435 0010 FFF7FEFF 		bl	lv_obj_get_parent
 436 0014 BDE81040 		pop	{r4, lr}
 437 0018 FFF7FEBF 		b	lv_obj_del
 438              	.L71:
 439 001c 2046     		mov	r0, r4
 440 001e BDE81040 		pop	{r4, lr}
 441 0022 FFF7FEBF 		b	lv_obj_del
 443 0026 00BF     		.section	.text.lv_msgbox_close_async,"ax",%progbits
 444              		.align	1
 445              		.p2align 2,,3
 446              		.global	lv_msgbox_close_async
 447              		.syntax unified
 448              		.thumb
 449              		.thumb_func
 451              	lv_msgbox_close_async:
 452              		@ args = 0, pretend = 0, frame = 0
 453              		@ frame_needed = 0, uses_anonymous_args = 0
 454 0000 10B5     		push	{r4, lr}
 455 0002 4FF00071 		mov	r1, #33554432
 456 0006 0446     		mov	r4, r0
 457 0008 FFF7FEFF 		bl	lv_obj_has_flag
 458 000c 30B1     		cbz	r0, .L74
 459 000e 2046     		mov	r0, r4
 460 0010 FFF7FEFF 		bl	lv_obj_get_parent
 461 0014 BDE81040 		pop	{r4, lr}
 462 0018 FFF7FEBF 		b	lv_obj_del_async
 463              	.L74:
 464 001c 2046     		mov	r0, r4
 465 001e BDE81040 		pop	{r4, lr}
 466 0022 FFF7FEBF 		b	lv_obj_del_async
 468              		.global	lv_msgbox_backdrop_class
 469 0026 00BF     		.section	.rodata.lv_msgbox_backdrop_class,"a"
 470              		.align	2
 473              	lv_msgbox_backdrop_class:
 474 0000 00000000 		.word	lv_obj_class
 475 0004 00000000 		.space	16
 475      00000000 
 475      00000000 
 475      00000000 
 476 0014 6420     		.short	8292
 477 0016 6420     		.short	8292
ARM GAS  /var/folders/lp/x54gwt890xv47sdkqj1k04q40000gn/T//cc8VlKrm.s 			page 9


 478 0018 40       		.byte	64
 479 0019 02       		.byte	2
 480 001a 00       		.byte	0
 481 001b 00       		.space	1
 482              		.global	lv_msgbox_content_class
 483              		.section	.rodata.lv_msgbox_content_class,"a"
 484              		.align	2
 487              	lv_msgbox_content_class:
 488 0000 00000000 		.word	lv_obj_class
 489 0004 00000000 		.space	16
 489      00000000 
 489      00000000 
 489      00000000 
 490 0014 6420     		.short	8292
 491 0016 D127     		.short	10193
 492 0018 40       		.byte	64
 493 0019 02       		.byte	2
 494 001a 00       		.byte	0
 495 001b 00       		.space	1
 496              		.global	lv_msgbox_class
 497              		.section	.rodata.lv_msgbox_class,"a"
 498              		.align	2
 501              	lv_msgbox_class:
 502 0000 00000000 		.word	lv_obj_class
 503 0004 00000000 		.space	16
 503      00000000 
 503      00000000 
 503      00000000 
 504 0014 0401     		.short	260
 505 0016 D127     		.short	10193
 506 0018 80       		.byte	128
 507 0019 03       		.byte	3
 508 001a 00       		.byte	0
 509 001b 00       		.space	1
 510              		.ident	"GCC: (xPack GNU Arm Embedded GCC arm64) 13.3.1 20240614"
ARM GAS  /var/folders/lp/x54gwt890xv47sdkqj1k04q40000gn/T//cc8VlKrm.s 			page 10

