ARM GAS  /var/folders/lp/x54gwt890xv47sdkqj1k04q40000gn/T//cclpOcXq.s 			page 1


   1              		.cpu cortex-m4
   2              		.arch armv7e-m
   3              		.fpu fpv4-sp-d16
   4              		.eabi_attribute 27, 1
   5              		.eabi_attribute 28, 1
   6              		.eabi_attribute 20, 1
   7              		.eabi_attribute 21, 1
   8              		.eabi_attribute 23, 3
   9              		.eabi_attribute 24, 1
  10              		.eabi_attribute 25, 1
  11              		.eabi_attribute 26, 1
  12              		.eabi_attribute 30, 2
  13              		.eabi_attribute 34, 1
  14              		.eabi_attribute 18, 4
  15              		.file	"lv_meter.c"
  16              		.text
  17              		.section	.text.lv_meter_destructor,"ax",%progbits
  18              		.align	1
  19              		.p2align 2,,3
  20              		.syntax unified
  21              		.thumb
  22              		.thumb_func
  24              	lv_meter_destructor:
  25              		@ args = 0, pretend = 0, frame = 0
  26              		@ frame_needed = 0, uses_anonymous_args = 0
  27 0000 10B5     		push	{r4, lr}
  28 0002 01F13000 		add	r0, r1, #48
  29 0006 0C46     		mov	r4, r1
  30 0008 FFF7FEFF 		bl	_lv_ll_clear
  31 000c 04F12400 		add	r0, r4, #36
  32 0010 BDE81040 		pop	{r4, lr}
  33 0014 FFF7FEBF 		b	_lv_ll_clear
  35              		.section	.text.lv_meter_constructor,"ax",%progbits
  36              		.align	1
  37              		.p2align 2,,3
  38              		.syntax unified
  39              		.thumb
  40              		.thumb_func
  42              	lv_meter_constructor:
  43              		@ args = 0, pretend = 0, frame = 0
  44              		@ frame_needed = 0, uses_anonymous_args = 0
  45 0000 10B5     		push	{r4, lr}
  46 0002 0C46     		mov	r4, r1
  47 0004 2421     		movs	r1, #36
  48 0006 6018     		adds	r0, r4, r1
  49 0008 FFF7FEFF 		bl	_lv_ll_init
  50 000c 04F13000 		add	r0, r4, #48
  51 0010 1C21     		movs	r1, #28
  52 0012 BDE81040 		pop	{r4, lr}
  53 0016 FFF7FEBF 		b	_lv_ll_init
  55 001a 00BF     		.section	.text.inv_arc,"ax",%progbits
  56              		.align	1
  57              		.p2align 2,,3
  58              		.syntax unified
  59              		.thumb
  60              		.thumb_func
  62              	inv_arc:
ARM GAS  /var/folders/lp/x54gwt890xv47sdkqj1k04q40000gn/T//cclpOcXq.s 			page 2


  63              		@ args = 0, pretend = 0, frame = 24
  64              		@ frame_needed = 0, uses_anonymous_args = 0
  65 0000 2DE9F04F 		push	{r4, r5, r6, r7, r8, r9, r10, fp, lr}
  66 0004 8846     		mov	r8, r1
  67 0006 8BB0     		sub	sp, sp, #44
  68 0008 1446     		mov	r4, r2
  69 000a 4FF4A021 		mov	r1, #327680
  70 000e 5122     		movs	r2, #81
  71 0010 8146     		mov	r9, r0
  72 0012 9A46     		mov	r10, r3
  73 0014 FFF7FEFF 		bl	lv_obj_get_style_prop
  74 0018 031E     		subs	r3, r0, #0
  75 001a 18BF     		it	ne
  76 001c 0123     		movne	r3, #1
  77 001e 06A9     		add	r1, sp, #24
  78 0020 4846     		mov	r0, r9
  79 0022 0593     		str	r3, [sp, #20]
  80 0024 FFF7FEFF 		bl	lv_obj_get_content_coords
  81 0028 2046     		mov	r0, r4
  82 002a BDF81C40 		ldrh	r4, [sp, #28]
  83 002e BDF818B0 		ldrh	fp, [sp, #24]
  84 0032 D8F80050 		ldr	r5, [r8]
  85 0036 0134     		adds	r4, r4, #1
  86 0038 A4EB0B04 		sub	r4, r4, fp
  87 003c C4F3C033 		ubfx	r3, r4, #15, #1
  88 0040 EE8B     		ldrh	r6, [r5, #30]
  89 0042 03FA84F4 		sxtah	r4, r3, r4
  90 0046 B5F92030 		ldrsh	r3, [r5, #32]
  91 004a 1E44     		add	r6, r6, r3
  92 004c D5E90512 		ldrd	r1, r2, [r5, #20]
  93 0050 0096     		str	r6, [sp]
  94 0052 BDF81A60 		ldrh	r6, [sp, #26]
  95 0056 B8F81A70 		ldrh	r7, [r8, #26]
  96 005a C4F34F04 		ubfx	r4, r4, #1, #16
  97 005e 2644     		add	r6, r6, r4
  98 0060 36B2     		sxth	r6, r6
  99 0062 0496     		str	r6, [sp, #16]
 100 0064 FFF7FEFF 		bl	lv_map
 101 0068 B5F92030 		ldrsh	r3, [r5, #32]
 102 006c B5F81EC0 		ldrh	ip, [r5, #30]
 103 0070 9C44     		add	ip, ip, r3
 104 0072 0646     		mov	r6, r0
 105 0074 D5E90512 		ldrd	r1, r2, [r5, #20]
 106 0078 5046     		mov	r0, r10
 107 007a CDF800C0 		str	ip, [sp]
 108 007e FFF7FEFF 		bl	lv_map
 109 0082 059B     		ldr	r3, [sp, #20]
 110 0084 0293     		str	r3, [sp, #8]
 111 0086 0346     		mov	r3, r0
 112 0088 9E42     		cmp	r6, r3
 113 008a 2744     		add	r7, r7, r4
 114 008c 5C44     		add	r4, r4, fp
 115 008e 20B2     		sxth	r0, r4
 116 0090 3446     		mov	r4, r6
 117 0092 B8BF     		it	lt
 118 0094 1C46     		movlt	r4, r3
 119 0096 A4B2     		uxth	r4, r4
ARM GAS  /var/folders/lp/x54gwt890xv47sdkqj1k04q40000gn/T//cclpOcXq.s 			page 3


 120 0098 9E42     		cmp	r6, r3
 121 009a B8F91020 		ldrsh	r2, [r8, #16]
 122 009e 0094     		str	r4, [sp]
 123 00a0 A8BF     		it	ge
 124 00a2 1E46     		movge	r6, r3
 125 00a4 08AC     		add	r4, sp, #32
 126 00a6 BFB2     		uxth	r7, r7
 127 00a8 0499     		ldr	r1, [sp, #16]
 128 00aa 0192     		str	r2, [sp, #4]
 129 00ac B3B2     		uxth	r3, r6
 130 00ae 3A46     		mov	r2, r7
 131 00b0 0394     		str	r4, [sp, #12]
 132 00b2 FFF7FEFF 		bl	lv_draw_arc_get_area
 133 00b6 2146     		mov	r1, r4
 134 00b8 4846     		mov	r0, r9
 135 00ba FFF7FEFF 		bl	lv_obj_invalidate_area
 136 00be 0BB0     		add	sp, sp, #44
 137              		@ sp needed
 138 00c0 BDE8F08F 		pop	{r4, r5, r6, r7, r8, r9, r10, fp, pc}
 140              		.section	.text.inv_line,"ax",%progbits
 141              		.align	1
 142              		.p2align 2,,3
 143              		.syntax unified
 144              		.thumb
 145              		.thumb_func
 147              	inv_line:
 148              		@ args = 0, pretend = 0, frame = 32
 149              		@ frame_needed = 0, uses_anonymous_args = 0
 150 0000 2DE9F04F 		push	{r4, r5, r6, r7, r8, r9, r10, fp, lr}
 151 0004 8BB0     		sub	sp, sp, #44
 152 0006 0D46     		mov	r5, r1
 153 0008 08A9     		add	r1, sp, #32
 154 000a 1746     		mov	r7, r2
 155 000c 0646     		mov	r6, r0
 156 000e FFF7FEFF 		bl	lv_obj_get_content_coords
 157 0012 BDF82440 		ldrh	r4, [sp, #36]
 158 0016 BDF82030 		ldrh	r3, [sp, #32]
 159 001a BDF82280 		ldrh	r8, [sp, #34]
 160 001e D5F800A0 		ldr	r10, [r5]
 161 0022 0134     		adds	r4, r4, #1
 162 0024 E41A     		subs	r4, r4, r3
 163 0026 C4F3C032 		ubfx	r2, r4, #15, #1
 164 002a 02FA84F4 		sxtah	r4, r2, r4
 165 002e C4F34F04 		ubfx	r4, r4, #1, #16
 166 0032 2344     		add	r3, r3, r4
 167 0034 1FFA83F9 		uxth	r9, r3
 168 0038 2B79     		ldrb	r3, [r5, #4]	@ zero_extendqisi2
 169 003a A044     		add	r8, r8, r4
 170 003c 012B     		cmp	r3, #1
 171 003e 1FFA88F8 		uxth	r8, r8
 172 0042 58D0     		beq	.L13
 173 0044 13B1     		cbz	r3, .L14
 174 0046 0BB0     		add	sp, sp, #44
 175              		@ sp needed
 176 0048 BDE8F08F 		pop	{r4, r5, r6, r7, r8, r9, r10, fp, pc}
 177              	.L14:
 178 004c BAF92030 		ldrsh	r3, [r10, #32]
ARM GAS  /var/folders/lp/x54gwt890xv47sdkqj1k04q40000gn/T//cclpOcXq.s 			page 4


 179 0050 BAF81E40 		ldrh	r4, [r10, #30]
 180 0054 1C44     		add	r4, r4, r3
 181 0056 DAE90512 		ldrd	r1, r2, [r10, #20]
 182 005a 3846     		mov	r0, r7
 183 005c 0094     		str	r4, [sp]
 184 005e FFF7FEFF 		bl	lv_map
 185 0062 05A9     		add	r1, sp, #20
 186 0064 0446     		mov	r4, r0
 187 0066 2869     		ldr	r0, [r5, #16]
 188 0068 FFF7FEFF 		bl	lv_img_decoder_get_info
 189 006c AA8A     		ldrh	r2, [r5, #20]
 190 006e 0599     		ldr	r1, [sp, #20]
 191 0070 A9EB0209 		sub	r9, r9, r2
 192 0074 EA8A     		ldrh	r2, [r5, #22]
 193 0076 04EB8404 		add	r4, r4, r4, lsl #2
 194 007a 6300     		lsls	r3, r4, #1
 195 007c A8EB0208 		sub	r8, r8, r2
 196 0080 4FF48072 		mov	r2, #256
 197 0084 B3F5616F 		cmp	r3, #3600
 198 0088 0092     		str	r2, [sp]
 199 008a BDF81620 		ldrh	r2, [sp, #22]
 200 008e C8BF     		it	gt
 201 0090 A3F56163 		subgt	r3, r3, #3600
 202 0094 1435     		adds	r5, r5, #20
 203 0096 0195     		str	r5, [sp, #4]
 204 0098 06A8     		add	r0, sp, #24
 205 009a 1BB2     		sxth	r3, r3
 206 009c C2F34A12 		ubfx	r2, r2, #5, #11
 207 00a0 C1F38A21 		ubfx	r1, r1, #10, #11
 208 00a4 FFF7FEFF 		bl	_lv_img_buf_get_transformed_area
 209 00a8 BDF81840 		ldrh	r4, [sp, #24]
 210 00ac BDF81C30 		ldrh	r3, [sp, #28]
 211 00b0 BDF81A20 		ldrh	r2, [sp, #26]
 212 00b4 1FFA89F9 		uxth	r9, r9
 213 00b8 0233     		adds	r3, r3, #2
 214 00ba 023C     		subs	r4, r4, #2
 215 00bc 4C44     		add	r4, r4, r9
 216 00be 9944     		add	r9, r9, r3
 217 00c0 BDF81E30 		ldrh	r3, [sp, #30]
 218 00c4 1FFA88F8 		uxth	r8, r8
 219 00c8 0025     		movs	r5, #0
 220 00ca 0233     		adds	r3, r3, #2
 221 00cc 023A     		subs	r2, r2, #2
 222 00ce 4244     		add	r2, r2, r8
 223 00d0 9844     		add	r8, r8, r3
 224 00d2 2B46     		mov	r3, r5
 225 00d4 69F30F03 		bfi	r3, r9, #0, #16
 226 00d8 64F30F05 		bfi	r5, r4, #0, #16
 227 00dc 62F31F45 		bfi	r5, r2, #16, #16
 228 00e0 68F31F43 		bfi	r3, r8, #16, #16
 229 00e4 06A9     		add	r1, sp, #24
 230 00e6 3046     		mov	r0, r6
 231 00e8 CDE90653 		strd	r5, r3, [sp, #24]
 232 00ec FFF7FEFF 		bl	lv_obj_invalidate_area
 233 00f0 0BB0     		add	sp, sp, #44
 234              		@ sp needed
 235 00f2 BDE8F08F 		pop	{r4, r5, r6, r7, r8, r9, r10, fp, pc}
ARM GAS  /var/folders/lp/x54gwt890xv47sdkqj1k04q40000gn/T//cclpOcXq.s 			page 5


 236              	.L13:
 237 00f6 BAF92030 		ldrsh	r3, [r10, #32]
 238 00fa 3846     		mov	r0, r7
 239 00fc BAF81E70 		ldrh	r7, [r10, #30]
 240 0100 1F44     		add	r7, r7, r3
 241 0102 DAE90512 		ldrd	r1, r2, [r10, #20]
 242 0106 0097     		str	r7, [sp]
 243 0108 FFF7FEFF 		bl	lv_map
 244 010c BAF81C20 		ldrh	r2, [r10, #28]
 245 0110 DFF8ACA0 		ldr	r10, .L15
 246 0114 1444     		add	r4, r4, r2
 247 0116 6A8A     		ldrh	r2, [r5, #18]
 248 0118 0346     		mov	r3, r0
 249 011a 00B2     		sxth	r0, r0
 250 011c 1444     		add	r4, r4, r2
 251 011e 0393     		str	r3, [sp, #12]
 252 0120 FFF7FEFF 		bl	lv_trigo_sin
 253 0124 24B2     		sxth	r4, r4
 254 0126 00FB04F2 		mul	r2, r0, r4
 255 012a 039B     		ldr	r3, [sp, #12]
 256 012c 8AFB02C1 		smull	ip, r1, r10, r2
 257 0130 03F15A00 		add	r0, r3, #90
 258 0134 D317     		asrs	r3, r2, #31
 259 0136 0A44     		add	r2, r2, r1
 260 0138 C3EBA233 		rsb	r3, r3, r2, asr #14
 261 013c 00B2     		sxth	r0, r0
 262 013e 0FFA88F7 		sxth	r7, r8
 263 0142 9844     		add	r8, r8, r3
 264 0144 FFF7FEFF 		bl	lv_trigo_sin
 265 0148 04FB00F0 		mul	r0, r4, r0
 266 014c 2A8A     		ldrh	r2, [r5, #16]
 267 014e 8AFB003A 		smull	r3, r10, r10, r0
 268 0152 8244     		add	r10, r10, r0
 269 0154 C317     		asrs	r3, r0, #31
 270 0156 C3EBAA33 		rsb	r3, r3, r10, asr #14
 271 015a C2F57F41 		rsb	r1, r2, #65280
 272 015e 4B44     		add	r3, r3, r9
 273 0160 FE31     		adds	r1, r1, #254
 274 0162 0232     		adds	r2, r2, #2
 275 0164 1BB2     		sxth	r3, r3
 276 0166 0FFA89FB 		sxth	fp, r9
 277 016a 89B2     		uxth	r1, r1
 278 016c 92B2     		uxth	r2, r2
 279 016e 0024     		movs	r4, #0
 280 0170 9B45     		cmp	fp, r3
 281 0172 D4BF     		ite	le
 282 0174 01EB0B0C 		addle	ip, r1, fp
 283 0178 01EB030C 		addgt	ip, r1, r3
 284 017c 0FFA88F8 		sxth	r8, r8
 285 0180 3046     		mov	r0, r6
 286 0182 2546     		mov	r5, r4
 287 0184 9B45     		cmp	fp, r3
 288 0186 ACBF     		ite	ge
 289 0188 02EB0B06 		addge	r6, r2, fp
 290 018c D618     		addlt	r6, r2, r3
 291 018e 6CF30F04 		bfi	r4, ip, #0, #16
 292 0192 4745     		cmp	r7, r8
ARM GAS  /var/folders/lp/x54gwt890xv47sdkqj1k04q40000gn/T//cclpOcXq.s 			page 6


 293 0194 D4BF     		ite	le
 294 0196 C919     		addle	r1, r1, r7
 295 0198 4144     		addgt	r1, r1, r8
 296 019a 4745     		cmp	r7, r8
 297 019c ACBF     		ite	ge
 298 019e D219     		addge	r2, r2, r7
 299 01a0 4244     		addlt	r2, r2, r8
 300 01a2 66F30F05 		bfi	r5, r6, #0, #16
 301 01a6 61F31F44 		bfi	r4, r1, #16, #16
 302 01aa 62F31F45 		bfi	r5, r2, #16, #16
 303 01ae 06A9     		add	r1, sp, #24
 304 01b0 CDE90645 		strd	r4, r5, [sp, #24]
 305 01b4 FFF7FEFF 		bl	lv_obj_invalidate_area
 306 01b8 0BB0     		add	sp, sp, #44
 307              		@ sp needed
 308 01ba BDE8F08F 		pop	{r4, r5, r6, r7, r8, r9, r10, fp, pc}
 309              	.L16:
 310 01be 00BF     		.align	2
 311              	.L15:
 312 01c0 03000180 		.word	-2147418109
 314              		.section	.rodata.lv_meter_event.str1.4,"aMS",%progbits,1
 315              		.align	2
 316              	.LC0:
 317 0000 256C6400 		.ascii	"%ld\000"
 318              		.section	.text.lv_meter_event,"ax",%progbits
 319              		.align	1
 320              		.p2align 2,,3
 321              		.syntax unified
 322              		.thumb
 323              		.thumb_func
 325              	lv_meter_event:
 326              		@ args = 0, pretend = 0, frame = 344
 327              		@ frame_needed = 0, uses_anonymous_args = 0
 328 0000 2DE9F04F 		push	{r4, r5, r6, r7, r8, r9, r10, fp, lr}
 329 0004 0448     		ldr	r0, .L69
 330 0006 DBB0     		sub	sp, sp, #364
 331 0008 0C46     		mov	r4, r1
 332 000a FFF7FEFF 		bl	lv_obj_event_base
 333 000e 0128     		cmp	r0, #1
 334 0010 04D0     		beq	.L66
 335              	.L17:
 336 0012 5BB0     		add	sp, sp, #364
 337              		@ sp needed
 338 0014 BDE8F08F 		pop	{r4, r5, r6, r7, r8, r9, r10, fp, pc}
 339              	.L70:
 340              		.align	2
 341              	.L69:
 342 0018 00000000 		.word	lv_meter_class
 343              	.L66:
 344 001c 2046     		mov	r0, r4
 345 001e FFF7FEFF 		bl	lv_event_get_code
 346 0022 0546     		mov	r5, r0
 347 0024 2046     		mov	r0, r4
 348 0026 FFF7FEFF 		bl	lv_event_get_target
 349 002a 152D     		cmp	r5, #21
 350 002c 0790     		str	r0, [sp, #28]
 351 002e F0D1     		bne	.L17
ARM GAS  /var/folders/lp/x54gwt890xv47sdkqj1k04q40000gn/T//cclpOcXq.s 			page 7


 352 0030 2046     		mov	r0, r4
 353 0032 FFF7FEFF 		bl	lv_event_get_draw_ctx
 354 0036 079C     		ldr	r4, [sp, #28]
 355 0038 0890     		str	r0, [sp, #32]
 356 003a 15A9     		add	r1, sp, #84
 357 003c 0546     		mov	r5, r0
 358 003e 2046     		mov	r0, r4
 359 0040 FFF7FEFF 		bl	lv_obj_get_content_coords
 360 0044 40A8     		add	r0, sp, #256
 361 0046 FFF7FEFF 		bl	lv_draw_arc_dsc_init
 362 004a 5122     		movs	r2, #81
 363 004c 4FF4A021 		mov	r1, #327680
 364 0050 2046     		mov	r0, r4
 365 0052 FFF7FEFF 		bl	lv_obj_get_style_prop
 366 0056 BDF85830 		ldrh	r3, [sp, #88]
 367 005a BDF85420 		ldrh	r2, [sp, #84]
 368 005e 0133     		adds	r3, r3, #1
 369 0060 9B1A     		subs	r3, r3, r2
 370 0062 011E     		subs	r1, r0, #0
 371 0064 C3F3C030 		ubfx	r0, r3, #15, #1
 372 0068 00FA83F3 		sxtah	r3, r0, r3
 373 006c C3F34F07 		ubfx	r7, r3, #1, #16
 374 0070 9DF80D31 		ldrb	r3, [sp, #269]	@ zero_extendqisi2
 375 0074 18BF     		it	ne
 376 0076 0121     		movne	r1, #1
 377 0078 61F38203 		bfi	r3, r1, #2, #1
 378 007c 8DF80D31 		strb	r3, [sp, #269]
 379 0080 BDF85630 		ldrh	r3, [sp, #86]
 380 0084 3A44     		add	r2, r2, r7
 381 0086 3B44     		add	r3, r3, r7
 382 0088 0021     		movs	r1, #0
 383 008a 2046     		mov	r0, r4
 384 008c ADF8E020 		strh	r2, [sp, #224]	@ movhi
 385 0090 ADF8E230 		strh	r3, [sp, #226]	@ movhi
 386 0094 FFF7FEFF 		bl	lv_obj_get_style_opa_recursive
 387 0098 2946     		mov	r1, r5
 388 009a 8046     		mov	r8, r0
 389 009c 48A8     		add	r0, sp, #288
 390 009e FFF7FEFF 		bl	lv_obj_draw_dsc_init
 391 00a2 40AB     		add	r3, sp, #256
 392 00a4 5093     		str	r3, [sp, #320]
 393 00a6 A54B     		ldr	r3, .L71
 394 00a8 4993     		str	r3, [sp, #292]
 395 00aa 04F1300B 		add	fp, r4, #48
 396 00ae 4FF40033 		mov	r3, #131072
 397 00b2 5593     		str	r3, [sp, #340]
 398 00b4 5846     		mov	r0, fp
 399 00b6 0023     		movs	r3, #0
 400 00b8 4A93     		str	r3, [sp, #296]
 401 00ba FFF7FEFF 		bl	_lv_ll_get_tail
 402 00be 38AB     		add	r3, sp, #224
 403 00c0 0446     		mov	r4, r0
 404 00c2 0993     		str	r3, [sp, #36]
 405 00c4 0028     		cmp	r0, #0
 406 00c6 54D0     		beq	.L26
 407 00c8 DDF81C90 		ldr	r9, [sp, #28]
 408 00cc BA46     		mov	r10, r7
ARM GAS  /var/folders/lp/x54gwt890xv47sdkqj1k04q40000gn/T//cclpOcXq.s 			page 8


 409 00ce 1F46     		mov	r7, r3
 410              	.L21:
 411 00d0 2379     		ldrb	r3, [r4, #4]	@ zero_extendqisi2
 412 00d2 032B     		cmp	r3, #3
 413 00d4 46D1     		bne	.L24
 414 00d6 238B     		ldrh	r3, [r4, #24]
 415 00d8 ADF80031 		strh	r3, [sp, #256]	@ movhi
 416 00dc 238A     		ldrh	r3, [r4, #16]
 417 00de ADF80231 		strh	r3, [sp, #258]	@ movhi
 418 00e2 6379     		ldrb	r3, [r4, #5]	@ zero_extendqisi2
 419 00e4 FD2B     		cmp	r3, #253
 420 00e6 18FB03F3 		smulbb	r3, r8, r3
 421 00ea 4246     		mov	r2, r8
 422 00ec 98BF     		it	ls
 423 00ee C3F30722 		ubfxls	r2, r3, #8, #8
 424 00f2 8DF80C21 		strb	r2, [sp, #268]
 425 00f6 2568     		ldr	r5, [r4]
 426 00f8 A068     		ldr	r0, [r4, #8]
 427 00fa B5F92030 		ldrsh	r3, [r5, #32]
 428 00fe EE8B     		ldrh	r6, [r5, #30]
 429 0100 1E44     		add	r6, r6, r3
 430 0102 D5E90512 		ldrd	r1, r2, [r5, #20]
 431 0106 0096     		str	r6, [sp]
 432 0108 FFF7FEFF 		bl	lv_map
 433 010c B5F92030 		ldrsh	r3, [r5, #32]
 434 0110 B5F81EC0 		ldrh	ip, [r5, #30]
 435 0114 9C44     		add	ip, ip, r3
 436 0116 D5E90512 		ldrd	r1, r2, [r5, #20]
 437 011a 0646     		mov	r6, r0
 438 011c E068     		ldr	r0, [r4, #12]
 439 011e CDF800C0 		str	ip, [sp]
 440 0122 FFF7FEFF 		bl	lv_map
 441 0126 638B     		ldrh	r3, [r4, #26]
 442 0128 5994     		str	r4, [sp, #356]
 443 012a 85B2     		uxth	r5, r0
 444 012c 5344     		add	r3, r3, r10
 445 012e B6B2     		uxth	r6, r6
 446 0130 48AA     		add	r2, sp, #288
 447 0132 1A21     		movs	r1, #26
 448 0134 4846     		mov	r0, r9
 449 0136 ADF85C31 		strh	r3, [sp, #348]	@ movhi
 450 013a ADF80461 		strh	r6, [sp, #260]	@ movhi
 451 013e ADF80651 		strh	r5, [sp, #262]	@ movhi
 452 0142 5197     		str	r7, [sp, #324]
 453 0144 FFF7FEFF 		bl	lv_event_send
 454 0148 0898     		ldr	r0, [sp, #32]
 455 014a BDF85C31 		ldrh	r3, [sp, #348]
 456 014e 3A46     		mov	r2, r7
 457 0150 40A9     		add	r1, sp, #256
 458 0152 CDE90065 		strd	r6, r5, [sp]
 459 0156 FFF7FEFF 		bl	lv_draw_arc
 460 015a 48AA     		add	r2, sp, #288
 461 015c 1B21     		movs	r1, #27
 462 015e 4846     		mov	r0, r9
 463 0160 FFF7FEFF 		bl	lv_event_send
 464              	.L24:
 465 0164 2146     		mov	r1, r4
ARM GAS  /var/folders/lp/x54gwt890xv47sdkqj1k04q40000gn/T//cclpOcXq.s 			page 9


 466 0166 5846     		mov	r0, fp
 467 0168 FFF7FEFF 		bl	_lv_ll_get_prev
 468 016c 0446     		mov	r4, r0
 469 016e 0028     		cmp	r0, #0
 470 0170 AED1     		bne	.L21
 471              	.L26:
 472 0172 BDF85800 		ldrh	r0, [sp, #88]
 473 0176 BDF85410 		ldrh	r1, [sp, #84]
 474 017a BDF85A30 		ldrh	r3, [sp, #90]
 475 017e BDF85620 		ldrh	r2, [sp, #86]
 476 0182 0130     		adds	r0, r0, #1
 477 0184 401A     		subs	r0, r0, r1
 478 0186 0133     		adds	r3, r3, #1
 479 0188 9B1A     		subs	r3, r3, r2
 480 018a C0F3C034 		ubfx	r4, r0, #15, #1
 481 018e 04FA80F4 		sxtah	r4, r4, r0
 482 0192 C3F3C030 		ubfx	r0, r3, #15, #1
 483 0196 00FA83F3 		sxtah	r3, r0, r3
 484 019a 6410     		asrs	r4, r4, #1
 485 019c 5B10     		asrs	r3, r3, #1
 486 019e 9C42     		cmp	r4, r3
 487 01a0 A8BF     		it	ge
 488 01a2 1C46     		movge	r4, r3
 489 01a4 A3B2     		uxth	r3, r4
 490 01a6 1944     		add	r1, r1, r3
 491 01a8 1A44     		add	r2, r2, r3
 492 01aa 1FA8     		add	r0, sp, #124
 493 01ac 0A93     		str	r3, [sp, #40]
 494 01ae ADF84410 		strh	r1, [sp, #68]	@ movhi
 495 01b2 ADF84620 		strh	r2, [sp, #70]	@ movhi
 496 01b6 FFF7FEFF 		bl	lv_draw_line_dsc_init
 497 01ba 079D     		ldr	r5, [sp, #28]
 498 01bc 1FAA     		add	r2, sp, #124
 499 01be 4FF4C021 		mov	r1, #393216
 500 01c2 2846     		mov	r0, r5
 501 01c4 FFF7FEFF 		bl	lv_obj_init_draw_line_dsc
 502 01c8 9DF88530 		ldrb	r3, [sp, #133]	@ zero_extendqisi2
 503 01cc 099E     		ldr	r6, [sp, #36]
 504 01ce 43F01003 		orr	r3, r3, #16
 505 01d2 3046     		mov	r0, r6
 506 01d4 8DF88530 		strb	r3, [sp, #133]
 507 01d8 FFF7FEFF 		bl	lv_draw_label_dsc_init
 508 01dc 3246     		mov	r2, r6
 509 01de 4FF4C021 		mov	r1, #393216
 510 01e2 2846     		mov	r0, r5
 511 01e4 FFF7FEFF 		bl	lv_obj_init_draw_label_dsc
 512 01e8 48A8     		add	r0, sp, #288
 513 01ea 0899     		ldr	r1, [sp, #32]
 514 01ec FFF7FEFF 		bl	lv_obj_draw_dsc_init
 515 01f0 524B     		ldr	r3, .L71
 516 01f2 4993     		str	r3, [sp, #292]
 517 01f4 1FAB     		add	r3, sp, #124
 518 01f6 4E93     		str	r3, [sp, #312]
 519 01f8 05F12409 		add	r9, r5, #36
 520 01fc 4FF4C023 		mov	r3, #393216
 521 0200 5593     		str	r3, [sp, #340]
 522 0202 4846     		mov	r0, r9
ARM GAS  /var/folders/lp/x54gwt890xv47sdkqj1k04q40000gn/T//cclpOcXq.s 			page 10


 523 0204 0323     		movs	r3, #3
 524 0206 4A93     		str	r3, [sp, #296]
 525 0208 FFF7FEFF 		bl	_lv_ll_get_tail
 526 020c 0028     		cmp	r0, #0
 527 020e 00F03A83 		beq	.L67
 528 0212 822C     		cmp	r4, #130
 529 0214 B8BF     		it	lt
 530 0216 8224     		movlt	r4, #130
 531 0218 A3B2     		uxth	r3, r4
 532 021a 0C93     		str	r3, [sp, #48]
 533 021c 26AB     		add	r3, sp, #152
 534 021e 0D93     		str	r3, [sp, #52]
 535 0220 CDF83C90 		str	r9, [sp, #60]
 536 0224 0646     		mov	r6, r0
 537              	.L22:
 538 0226 B388     		ldrh	r3, [r6, #4]
 539 0228 0A9F     		ldr	r7, [sp, #40]
 540 022a BDF84610 		ldrh	r1, [sp, #70]
 541 022e B489     		ldrh	r4, [r6, #12]
 542 0230 BDF84420 		ldrh	r2, [sp, #68]
 543 0234 5996     		str	r6, [sp, #356]
 544 0236 F81A     		subs	r0, r7, r3
 545 0238 DB1B     		subs	r3, r3, r7
 546 023a 80B2     		uxth	r0, r0
 547 023c 9BB2     		uxth	r3, r3
 548 023e 3F1B     		subs	r7, r7, r4
 549 0240 D518     		adds	r5, r2, r3
 550 0242 0B44     		add	r3, r3, r1
 551 0244 0244     		add	r2, r2, r0
 552 0246 0844     		add	r0, r0, r1
 553 0248 0FFA87FC 		sxth	ip, r7
 554 024c ADF85E30 		strh	r3, [sp, #94]	@ movhi
 555 0250 ADF86020 		strh	r2, [sp, #96]	@ movhi
 556 0254 ADF86200 		strh	r0, [sp, #98]	@ movhi
 557 0258 0123     		movs	r3, #1
 558 025a 0D98     		ldr	r0, [sp, #52]
 559 025c CDF838C0 		str	ip, [sp, #56]
 560 0260 47F6FF72 		movw	r2, #32767
 561 0264 17A9     		add	r1, sp, #92
 562 0266 ADF85C50 		strh	r5, [sp, #92]	@ movhi
 563 026a FFF7FEFF 		bl	lv_draw_mask_radius_init
 564 026e BDB2     		uxth	r5, r7
 565 0270 0A9F     		ldr	r7, [sp, #40]
 566 0272 BDF84410 		ldrh	r1, [sp, #68]
 567 0276 BDF84620 		ldrh	r2, [sp, #70]
 568 027a E31B     		subs	r3, r4, r7
 569 027c 9BB2     		uxth	r3, r3
 570 027e 481E     		subs	r0, r1, #1
 571 0280 2844     		add	r0, r0, r5
 572 0282 1944     		add	r1, r1, r3
 573 0284 1344     		add	r3, r3, r2
 574 0286 013A     		subs	r2, r2, #1
 575 0288 ADF86410 		strh	r1, [sp, #100]	@ movhi
 576 028c ADF86630 		strh	r3, [sp, #102]	@ movhi
 577 0290 1544     		add	r5, r5, r2
 578 0292 ADF86800 		strh	r0, [sp, #104]	@ movhi
 579 0296 0123     		movs	r3, #1
ARM GAS  /var/folders/lp/x54gwt890xv47sdkqj1k04q40000gn/T//cclpOcXq.s 			page 11


 580 0298 47F6FF72 		movw	r2, #32767
 581 029c 19A9     		add	r1, sp, #100
 582 029e 2CA8     		add	r0, sp, #176
 583 02a0 ADF86A50 		strh	r5, [sp, #106]	@ movhi
 584 02a4 FFF7FEFF 		bl	lv_draw_mask_radius_init
 585 02a8 BDF84400 		ldrh	r0, [sp, #68]
 586 02ac BDF84610 		ldrh	r1, [sp, #70]
 587 02b0 441E     		subs	r4, r0, #1
 588 02b2 C01B     		subs	r0, r0, r7
 589 02b4 ADF86C00 		strh	r0, [sp, #108]	@ movhi
 590 02b8 3819     		adds	r0, r7, r4
 591 02ba ADF87000 		strh	r0, [sp, #112]	@ movhi
 592 02be 481E     		subs	r0, r1, #1
 593 02c0 C91B     		subs	r1, r1, r7
 594 02c2 ADF86E10 		strh	r1, [sp, #110]	@ movhi
 595 02c6 3918     		adds	r1, r7, r0
 596 02c8 0023     		movs	r3, #0
 597 02ca 47F6FF72 		movw	r2, #32767
 598 02ce ADF87210 		strh	r1, [sp, #114]	@ movhi
 599 02d2 32A8     		add	r0, sp, #200
 600 02d4 1BA9     		add	r1, sp, #108
 601 02d6 FFF7FEFF 		bl	lv_draw_mask_radius_init
 602 02da 0021     		movs	r1, #0
 603 02dc 32A8     		add	r0, sp, #200
 604 02de FFF7FEFF 		bl	lv_draw_mask_add
 605 02e2 7189     		ldrh	r1, [r6, #10]
 606 02e4 0B90     		str	r0, [sp, #44]
 607 02e6 0029     		cmp	r1, #0
 608 02e8 00F08382 		beq	.L49
 609 02ec 01F1FF38 		add	r8, r1, #-1
 610              	.L29:
 611 02f0 7288     		ldrh	r2, [r6, #2]
 612 02f2 002A     		cmp	r2, #0
 613 02f4 00F05581 		beq	.L30
 614 02f8 08F10108 		add	r8, r8, #1
 615 02fc 8845     		cmp	r8, r1
 616 02fe D6E90530 		ldrd	r3, r0, [r6, #20]
 617 0302 4FF00007 		mov	r7, #0
 618 0306 02F1FF32 		add	r2, r2, #-1
 619 030a 00F02F81 		beq	.L68
 620              	.L63:
 621 030e 0090     		str	r0, [sp]
 622 0310 0021     		movs	r1, #0
 623 0312 3846     		mov	r0, r7
 624 0314 FFF7FEFF 		bl	lv_map
 625 0318 3388     		ldrh	r3, [r6]
 626 031a 0493     		str	r3, [sp, #16]
 627 031c B6F90630 		ldrsh	r3, [r6, #6]
 628 0320 0593     		str	r3, [sp, #20]
 629 0322 0023     		movs	r3, #0
 630 0324 0546     		mov	r5, r0
 631 0326 5890     		str	r0, [sp, #352]
 632 0328 0693     		str	r3, [sp, #24]
 633              	.L47:
 634 032a 5846     		mov	r0, fp
 635 032c FFF7FEFF 		bl	_lv_ll_get_tail
 636 0330 DDE904A9 		ldrd	r10, r9, [sp, #16]
ARM GAS  /var/folders/lp/x54gwt890xv47sdkqj1k04q40000gn/T//cclpOcXq.s 			page 12


 637 0334 0446     		mov	r4, r0
 638 0336 0028     		cmp	r0, #0
 639 0338 5CD0     		beq	.L33
 640 033a 01E0     		b	.L72
 641              	.L73:
 642              		.align	2
 643              	.L71:
 644 033c 00000000 		.word	lv_meter_class
 645              	.L72:
 646              	.L37:
 647 0340 2379     		ldrb	r3, [r4, #4]	@ zero_extendqisi2
 648 0342 022B     		cmp	r3, #2
 649 0344 4FD1     		bne	.L34
 650 0346 A168     		ldr	r1, [r4, #8]
 651 0348 A942     		cmp	r1, r5
 652 034a 4CDC     		bgt	.L34
 653 034c E268     		ldr	r2, [r4, #12]
 654 034e AA42     		cmp	r2, r5
 655 0350 49DB     		blt	.L34
 656 0352 238A     		ldrh	r3, [r4, #16]
 657 0354 B4F814A0 		ldrh	r10, [r4, #20]
 658 0358 608A     		ldrh	r0, [r4, #18]
 659 035a 4B44     		add	r3, r3, r9
 660 035c 5045     		cmp	r0, r10
 661 035e 0FFA83F9 		sxth	r9, r3
 662 0362 40D0     		beq	.L34
 663 0364 A07D     		ldrb	r0, [r4, #22]	@ zero_extendqisi2
 664 0366 4FF0FF0C 		mov	ip, #255
 665 036a 10F00100 		ands	r0, r0, #1
 666 036e 08BF     		it	eq
 667 0370 D6E90512 		ldrdeq	r1, r2, [r6, #20]
 668 0374 4FF00003 		mov	r3, #0
 669 0378 12BF     		itee	ne
 670 037a CDF800C0 		strne	ip, [sp]
 671 037e 0346     		moveq	r3, r0
 672 0380 CDF800C0 		streq	ip, [sp]
 673 0384 2846     		mov	r0, r5
 674 0386 FFF7FEFF 		bl	lv_map
 675 038a B4F812A0 		ldrh	r10, [r4, #18]
 676 038e A38A     		ldrh	r3, [r4, #20]
 677 0390 9AFA9AFA 		rev16	r10, r10
 678 0394 5BBA     		rev16	r3, r3
 679 0396 4FEA0A42 		lsl	r2, r10, #16
 680 039a 12FA8AFA 		uxtah	r10, r2, r10
 681 039e 1A04     		lsls	r2, r3, #16
 682 03a0 12FA83F3 		uxtah	r3, r2, r3
 683 03a4 2AF0784A 		bic	r10, r10, #-134217728
 684 03a8 23F07843 		bic	r3, r3, #-134217728
 685 03ac C0B2     		uxtb	r0, r0
 686 03ae 2AF4F81A 		bic	r10, r10, #2031616
 687 03b2 23F4F813 		bic	r3, r3, #2031616
 688 03b6 2AF4FC6A 		bic	r10, r10, #2016
 689 03ba 23F4FC63 		bic	r3, r3, #2016
 690 03be 0430     		adds	r0, r0, #4
 691 03c0 A3EB0A03 		sub	r3, r3, r10
 692 03c4 C008     		lsrs	r0, r0, #3
 693 03c6 00FB03F3 		mul	r3, r0, r3
ARM GAS  /var/folders/lp/x54gwt890xv47sdkqj1k04q40000gn/T//cclpOcXq.s 			page 13


 694 03ca 0AEB531A 		add	r10, r10, r3, lsr #5
 695 03ce 2AF0784A 		bic	r10, r10, #-134217728
 696 03d2 2AF4F81A 		bic	r10, r10, #2031616
 697 03d6 2AF4FC6A 		bic	r10, r10, #2016
 698 03da 4AEA1A4A 		orr	r10, r10, r10, lsr #16
 699 03de 9AFA9AFA 		rev16	r10, r10
 700 03e2 1FFA8AFA 		uxth	r10, r10
 701              	.L34:
 702 03e6 2146     		mov	r1, r4
 703 03e8 5846     		mov	r0, fp
 704 03ea FFF7FEFF 		bl	_lv_ll_get_prev
 705 03ee 0446     		mov	r4, r0
 706 03f0 0028     		cmp	r0, #0
 707 03f2 A5D1     		bne	.L37
 708              	.L33:
 709 03f4 F28B     		ldrh	r2, [r6, #30]
 710 03f6 7188     		ldrh	r1, [r6, #2]
 711 03f8 348C     		ldrh	r4, [r6, #32]
 712 03fa ADF87CA0 		strh	r10, [sp, #124]	@ movhi
 713 03fe 07FB02F2 		mul	r2, r7, r2
 714 0402 02EB8202 		add	r2, r2, r2, lsl #2
 715 0406 4B1E     		subs	r3, r1, #1
 716 0408 5200     		lsls	r2, r2, #1
 717 040a 0A99     		ldr	r1, [sp, #40]
 718 040c 92FBF3F2 		sdiv	r2, r2, r3
 719 0410 BDF84430 		ldrh	r3, [sp, #68]
 720 0414 ADF87E90 		strh	r9, [sp, #126]	@ movhi
 721 0418 0B44     		add	r3, r3, r1
 722 041a 0C99     		ldr	r1, [sp, #48]
 723 041c 0B44     		add	r3, r3, r1
 724 041e ADF84830 		strh	r3, [sp, #72]	@ movhi
 725 0422 0A23     		movs	r3, #10
 726 0424 14FB0324 		smlabb	r4, r4, r3, r2
 727 0428 BDF84630 		ldrh	r3, [sp, #70]
 728 042c ADF84A30 		strh	r3, [sp, #74]	@ movhi
 729 0430 4FF48072 		mov	r2, #256
 730 0434 11AB     		add	r3, sp, #68
 731 0436 2146     		mov	r1, r4
 732 0438 12A8     		add	r0, sp, #72
 733 043a FFF7FEFF 		bl	lv_point_transform
 734 043e 11AB     		add	r3, sp, #68
 735 0440 5193     		str	r3, [sp, #324]
 736 0442 069A     		ldr	r2, [sp, #24]
 737 0444 5697     		str	r7, [sp, #344]
 738 0446 12AB     		add	r3, sp, #72
 739 0448 5293     		str	r3, [sp, #328]
 740 044a 099B     		ldr	r3, [sp, #36]
 741 044c 4D93     		str	r3, [sp, #308]
 742 044e 002A     		cmp	r2, #0
 743 0450 00F09D80 		beq	.L38
 744 0454 0B98     		ldr	r0, [sp, #44]
 745 0456 FFF7FEFF 		bl	lv_draw_mask_remove_id
 746 045a 0E9A     		ldr	r2, [sp, #56]
 747 045c B6F91030 		ldrsh	r3, [r6, #16]
 748 0460 D31A     		subs	r3, r2, r3
 749 0462 BDF84420 		ldrh	r2, [sp, #68]
 750 0466 1344     		add	r3, r3, r2
ARM GAS  /var/folders/lp/x54gwt890xv47sdkqj1k04q40000gn/T//cclpOcXq.s 			page 14


 751 0468 ADF84C30 		strh	r3, [sp, #76]	@ movhi
 752 046c 11AA     		add	r2, sp, #68
 753 046e BDF84630 		ldrh	r3, [sp, #70]
 754 0472 ADF84E30 		strh	r3, [sp, #78]	@ movhi
 755 0476 2146     		mov	r1, r4
 756 0478 1346     		mov	r3, r2
 757 047a 13A8     		add	r0, sp, #76
 758 047c 4FF48072 		mov	r2, #256
 759 0480 FFF7FEFF 		bl	lv_point_transform
 760 0484 0999     		ldr	r1, [sp, #36]
 761 0486 2022     		movs	r2, #32
 762 0488 40A8     		add	r0, sp, #256
 763 048a FFF7FEFF 		bl	lv_memcpy
 764 048e 22AC     		add	r4, sp, #136
 765 0490 40AA     		add	r2, sp, #256
 766 0492 2B46     		mov	r3, r5
 767 0494 4D92     		str	r2, [sp, #308]
 768 0496 1021     		movs	r1, #16
 769 0498 6E4A     		ldr	r2, .L74
 770 049a 2046     		mov	r0, r4
 771 049c FFF7FEFF 		bl	lv_snprintf
 772 04a0 48AA     		add	r2, sp, #288
 773 04a2 1A21     		movs	r1, #26
 774 04a4 0798     		ldr	r0, [sp, #28]
 775 04a6 5394     		str	r4, [sp, #332]
 776 04a8 FFF7FEFF 		bl	lv_event_send
 777 04ac 0023     		movs	r3, #0
 778 04ae 0293     		str	r3, [sp, #8]
 779 04b0 BDF91231 		ldrsh	r3, [sp, #274]
 780 04b4 0093     		str	r3, [sp]
 781 04b6 41F6FF73 		movw	r3, #8191
 782 04ba 409A     		ldr	r2, [sp, #256]
 783 04bc 5399     		ldr	r1, [sp, #332]
 784 04be 0193     		str	r3, [sp, #4]
 785 04c0 14A8     		add	r0, sp, #80
 786 04c2 BDF91431 		ldrsh	r3, [sp, #276]
 787 04c6 FFF7FEFF 		bl	lv_txt_get_size
 788 04ca BDF95000 		ldrsh	r0, [sp, #80]
 789 04ce BDF84C20 		ldrh	r2, [sp, #76]
 790 04d2 BDF95210 		ldrsh	r1, [sp, #82]
 791 04d6 00EBD074 		add	r4, r0, r0, lsr #31
 792 04da 0023     		movs	r3, #0
 793 04dc A2EB6402 		sub	r2, r2, r4, asr #1
 794 04e0 92B2     		uxth	r2, r2
 795 04e2 0093     		str	r3, [sp]
 796 04e4 BDF84E30 		ldrh	r3, [sp, #78]
 797 04e8 ADF87420 		strh	r2, [sp, #116]	@ movhi
 798 04ec 1044     		add	r0, r0, r2
 799 04ee 01EBD172 		add	r2, r1, r1, lsr #31
 800 04f2 A3EB6203 		sub	r3, r3, r2, asr #1
 801 04f6 9BB2     		uxth	r3, r3
 802 04f8 1944     		add	r1, r1, r3
 803 04fa ADF87800 		strh	r0, [sp, #120]	@ movhi
 804 04fe ADF87630 		strh	r3, [sp, #118]	@ movhi
 805 0502 0898     		ldr	r0, [sp, #32]
 806 0504 539B     		ldr	r3, [sp, #332]
 807 0506 ADF87A10 		strh	r1, [sp, #122]	@ movhi
ARM GAS  /var/folders/lp/x54gwt890xv47sdkqj1k04q40000gn/T//cclpOcXq.s 			page 15


 808 050a 1DAA     		add	r2, sp, #116
 809 050c 4D99     		ldr	r1, [sp, #308]
 810 050e FFF7FEFF 		bl	lv_draw_label
 811 0512 0021     		movs	r1, #0
 812 0514 32A8     		add	r0, sp, #200
 813 0516 FFF7FEFF 		bl	lv_draw_mask_add
 814 051a 0B90     		str	r0, [sp, #44]
 815 051c 2CA8     		add	r0, sp, #176
 816              	.L39:
 817 051e 0021     		movs	r1, #0
 818 0520 FFF7FEFF 		bl	lv_draw_mask_add
 819 0524 11AB     		add	r3, sp, #68
 820 0526 12AA     		add	r2, sp, #72
 821 0528 1FA9     		add	r1, sp, #124
 822 052a 0446     		mov	r4, r0
 823 052c 0898     		ldr	r0, [sp, #32]
 824 052e FFF7FEFF 		bl	lv_draw_line
 825 0532 2046     		mov	r0, r4
 826 0534 FFF7FEFF 		bl	lv_draw_mask_remove_id
 827 0538 48AA     		add	r2, sp, #288
 828 053a 0798     		ldr	r0, [sp, #28]
 829 053c 1621     		movs	r1, #22
 830 053e FFF7FEFF 		bl	lv_event_send
 831 0542 049B     		ldr	r3, [sp, #16]
 832 0544 7288     		ldrh	r2, [r6, #2]
 833 0546 ADF87C30 		strh	r3, [sp, #124]	@ movhi
 834 054a 0137     		adds	r7, r7, #1
 835 054c 059B     		ldr	r3, [sp, #20]
 836 054e ADF87E30 		strh	r3, [sp, #126]	@ movhi
 837 0552 BBB2     		uxth	r3, r7
 838 0554 9A42     		cmp	r2, r3
 839 0556 24D9     		bls	.L30
 840 0558 7189     		ldrh	r1, [r6, #10]
 841 055a 08F10108 		add	r8, r8, #1
 842 055e 8845     		cmp	r8, r1
 843 0560 D6E90530 		ldrd	r3, r0, [r6, #20]
 844 0564 02F1FF32 		add	r2, r2, #-1
 845 0568 7FF4D1AE 		bne	.L63
 846              	.L68:
 847 056c 0090     		str	r0, [sp]
 848 056e 0021     		movs	r1, #0
 849 0570 3846     		mov	r0, r7
 850 0572 FFF7FEFF 		bl	lv_map
 851 0576 3389     		ldrh	r3, [r6, #8]
 852 0578 0493     		str	r3, [sp, #16]
 853 057a B6F90E30 		ldrsh	r3, [r6, #14]
 854 057e 0593     		str	r3, [sp, #20]
 855 0580 0123     		movs	r3, #1
 856 0582 0546     		mov	r5, r0
 857 0584 5890     		str	r0, [sp, #352]
 858 0586 4FF00008 		mov	r8, #0
 859 058a 0693     		str	r3, [sp, #24]
 860 058c CDE6     		b	.L47
 861              	.L38:
 862 058e 069B     		ldr	r3, [sp, #24]
 863 0590 0798     		ldr	r0, [sp, #28]
 864 0592 4D93     		str	r3, [sp, #308]
ARM GAS  /var/folders/lp/x54gwt890xv47sdkqj1k04q40000gn/T//cclpOcXq.s 			page 16


 865 0594 48AA     		add	r2, sp, #288
 866 0596 1A21     		movs	r1, #26
 867 0598 5393     		str	r3, [sp, #332]
 868 059a FFF7FEFF 		bl	lv_event_send
 869 059e 0D98     		ldr	r0, [sp, #52]
 870 05a0 BDE7     		b	.L39
 871              	.L30:
 872 05a2 0D98     		ldr	r0, [sp, #52]
 873 05a4 FFF7FEFF 		bl	lv_draw_mask_free_param
 874 05a8 2CA8     		add	r0, sp, #176
 875 05aa FFF7FEFF 		bl	lv_draw_mask_free_param
 876 05ae 32A8     		add	r0, sp, #200
 877 05b0 FFF7FEFF 		bl	lv_draw_mask_free_param
 878 05b4 0B98     		ldr	r0, [sp, #44]
 879 05b6 FFF7FEFF 		bl	lv_draw_mask_remove_id
 880 05ba 3146     		mov	r1, r6
 881 05bc 0F98     		ldr	r0, [sp, #60]
 882 05be FFF7FEFF 		bl	_lv_ll_get_prev
 883 05c2 0646     		mov	r6, r0
 884 05c4 0028     		cmp	r0, #0
 885 05c6 7FF42EAE 		bne	.L22
 886              	.L23:
 887 05ca BDF85830 		ldrh	r3, [sp, #88]
 888 05ce BDF85420 		ldrh	r2, [sp, #84]
 889 05d2 099C     		ldr	r4, [sp, #36]
 890 05d4 0133     		adds	r3, r3, #1
 891 05d6 9B1A     		subs	r3, r3, r2
 892 05d8 C3F3C031 		ubfx	r1, r3, #15, #1
 893 05dc 01FA83F3 		sxtah	r3, r1, r3
 894 05e0 C3F34F07 		ubfx	r7, r3, #1, #16
 895 05e4 BDF95630 		ldrsh	r3, [sp, #86]
 896 05e8 3A44     		add	r2, r2, r7
 897 05ea 3B44     		add	r3, r3, r7
 898 05ec 2046     		mov	r0, r4
 899 05ee ADF89A30 		strh	r3, [sp, #154]	@ movhi
 900 05f2 ADF89820 		strh	r2, [sp, #152]	@ movhi
 901 05f6 FFF7FEFF 		bl	lv_draw_line_dsc_init
 902 05fa DDF81CA0 		ldr	r10, [sp, #28]
 903 05fe 2246     		mov	r2, r4
 904 0600 4FF4A021 		mov	r1, #327680
 905 0604 5046     		mov	r0, r10
 906 0606 FFF7FEFF 		bl	lv_obj_init_draw_line_dsc
 907 060a 40A8     		add	r0, sp, #256
 908 060c FFF7FEFF 		bl	lv_draw_img_dsc_init
 909 0610 40AA     		add	r2, sp, #256
 910 0612 4FF4A021 		mov	r1, #327680
 911 0616 5046     		mov	r0, r10
 912 0618 FFF7FEFF 		bl	lv_obj_init_draw_img_dsc
 913 061c 0021     		movs	r1, #0
 914 061e 5046     		mov	r0, r10
 915 0620 FFF7FEFF 		bl	lv_obj_get_style_opa_recursive
 916 0624 0899     		ldr	r1, [sp, #32]
 917 0626 0646     		mov	r6, r0
 918 0628 48A8     		add	r0, sp, #288
 919 062a FFF7FEFF 		bl	lv_obj_draw_dsc_init
 920 062e 0A4B     		ldr	r3, .L74+4
 921 0630 4993     		str	r3, [sp, #292]
ARM GAS  /var/folders/lp/x54gwt890xv47sdkqj1k04q40000gn/T//cclpOcXq.s 			page 17


 922 0632 0D9B     		ldr	r3, [sp, #52]
 923 0634 5193     		str	r3, [sp, #324]
 924 0636 5846     		mov	r0, fp
 925 0638 4FF40033 		mov	r3, #131072
 926 063c 5593     		str	r3, [sp, #340]
 927 063e FFF7FEFF 		bl	_lv_ll_get_tail
 928 0642 0446     		mov	r4, r0
 929 0644 0028     		cmp	r0, #0
 930 0646 00F0D780 		beq	.L28
 931 064a DFF81080 		ldr	r8, .L74+8
 932 064e 4FF00209 		mov	r9, #2
 933 0652 6BE0     		b	.L27
 934              	.L75:
 935              		.align	2
 936              	.L74:
 937 0654 00000000 		.word	.LC0
 938 0658 00000000 		.word	lv_meter_class
 939 065c 03000180 		.word	-2147418109
 940              	.L41:
 941 0660 002B     		cmp	r3, #0
 942 0662 5CD1     		bne	.L43
 943 0664 2369     		ldr	r3, [r4, #16]
 944 0666 002B     		cmp	r3, #0
 945 0668 59D0     		beq	.L43
 946 066a B5F92030 		ldrsh	r3, [r5, #32]
 947 066e B5F81EC0 		ldrh	ip, [r5, #30]
 948 0672 E068     		ldr	r0, [r4, #12]
 949 0674 9C44     		add	ip, ip, r3
 950 0676 D5E90512 		ldrd	r1, r2, [r5, #20]
 951 067a CDF800C0 		str	ip, [sp]
 952 067e FFF7FEFF 		bl	lv_map
 953 0682 2CA9     		add	r1, sp, #176
 954 0684 0546     		mov	r5, r0
 955 0686 2069     		ldr	r0, [r4, #16]
 956 0688 FFF7FEFF 		bl	lv_img_decoder_get_info
 957 068c E38A     		ldrh	r3, [r4, #22]
 958 068e BDF89A10 		ldrh	r1, [sp, #154]
 959 0692 A28A     		ldrh	r2, [r4, #20]
 960 0694 BDF89800 		ldrh	r0, [sp, #152]
 961 0698 D4F814C0 		ldr	ip, [r4, #20]
 962 069c C91A     		subs	r1, r1, r3
 963 069e 2C9B     		ldr	r3, [sp, #176]
 964 06a0 801A     		subs	r0, r0, r2
 965 06a2 C3F38A22 		ubfx	r2, r3, #10, #11
 966 06a6 BDF8B230 		ldrh	r3, [sp, #178]
 967 06aa C3F34A13 		ubfx	r3, r3, #5, #11
 968 06ae 80B2     		uxth	r0, r0
 969 06b0 89B2     		uxth	r1, r1
 970 06b2 013A     		subs	r2, r2, #1
 971 06b4 013B     		subs	r3, r3, #1
 972 06b6 0244     		add	r2, r2, r0
 973 06b8 0B44     		add	r3, r3, r1
 974 06ba ADF8C800 		strh	r0, [sp, #200]	@ movhi
 975 06be ADF8CA10 		strh	r1, [sp, #202]	@ movhi
 976 06c2 ADF8CC20 		strh	r2, [sp, #204]	@ movhi
 977 06c6 ADF8CE30 		strh	r3, [sp, #206]	@ movhi
 978 06ca 6379     		ldrb	r3, [r4, #5]	@ zero_extendqisi2
ARM GAS  /var/folders/lp/x54gwt890xv47sdkqj1k04q40000gn/T//cclpOcXq.s 			page 18


 979 06cc CDF804C1 		str	ip, [sp, #260]
 980 06d0 FD2B     		cmp	r3, #253
 981 06d2 9ABF     		itte	ls
 982 06d4 16FB03F3 		smulbbls	r3, r6, r3
 983 06d8 C3F30723 		ubfxls	r3, r3, #8, #8
 984 06dc 3346     		movhi	r3, r6
 985 06de 05EB8505 		add	r5, r5, r5, lsl #2
 986 06e2 8DF80B31 		strb	r3, [sp, #267]
 987 06e6 6B00     		lsls	r3, r5, #1
 988 06e8 B3F5616F 		cmp	r3, #3600
 989 06ec C8BF     		it	gt
 990 06ee A3F56163 		subgt	r3, r3, #3600
 991 06f2 ADF80031 		strh	r3, [sp, #256]	@ movhi
 992 06f6 48AA     		add	r2, sp, #288
 993 06f8 40AB     		add	r3, sp, #256
 994 06fa 1A21     		movs	r1, #26
 995 06fc 5046     		mov	r0, r10
 996 06fe 4F93     		str	r3, [sp, #316]
 997 0700 CDF82891 		str	r9, [sp, #296]
 998 0704 FFF7FEFF 		bl	lv_event_send
 999 0708 0898     		ldr	r0, [sp, #32]
 1000 070a 2369     		ldr	r3, [r4, #16]
 1001 070c 32AA     		add	r2, sp, #200
 1002 070e 40A9     		add	r1, sp, #256
 1003 0710 FFF7FEFF 		bl	lv_draw_img
 1004 0714 48AA     		add	r2, sp, #288
 1005 0716 1B21     		movs	r1, #27
 1006 0718 5046     		mov	r0, r10
 1007 071a FFF7FEFF 		bl	lv_event_send
 1008              	.L43:
 1009 071e 2146     		mov	r1, r4
 1010 0720 5846     		mov	r0, fp
 1011 0722 FFF7FEFF 		bl	_lv_ll_get_prev
 1012 0726 0446     		mov	r4, r0
 1013 0728 0028     		cmp	r0, #0
 1014 072a 65D0     		beq	.L28
 1015              	.L27:
 1016 072c 2568     		ldr	r5, [r4]
 1017 072e 5994     		str	r4, [sp, #356]
 1018 0730 2379     		ldrb	r3, [r4, #4]	@ zero_extendqisi2
 1019 0732 012B     		cmp	r3, #1
 1020 0734 94D1     		bne	.L41
 1021 0736 B5F92030 		ldrsh	r3, [r5, #32]
 1022 073a B5F81EC0 		ldrh	ip, [r5, #30]
 1023 073e E068     		ldr	r0, [r4, #12]
 1024 0740 9C44     		add	ip, ip, r3
 1025 0742 D5E90512 		ldrd	r1, r2, [r5, #20]
 1026 0746 CDF800C0 		str	ip, [sp]
 1027 074a FFF7FEFF 		bl	lv_map
 1028 074e AB8B     		ldrh	r3, [r5, #28]
 1029 0750 658A     		ldrh	r5, [r4, #18]
 1030 0752 0246     		mov	r2, r0
 1031 0754 3D44     		add	r5, r5, r7
 1032 0756 00B2     		sxth	r0, r0
 1033 0758 1D44     		add	r5, r5, r3
 1034 075a 0492     		str	r2, [sp, #16]
 1035 075c FFF7FEFF 		bl	lv_trigo_sin
ARM GAS  /var/folders/lp/x54gwt890xv47sdkqj1k04q40000gn/T//cclpOcXq.s 			page 19


 1036 0760 049A     		ldr	r2, [sp, #16]
 1037 0762 2DB2     		sxth	r5, r5
 1038 0764 00FB05F3 		mul	r3, r0, r5
 1039 0768 5A32     		adds	r2, r2, #90
 1040 076a 10B2     		sxth	r0, r2
 1041 076c 88FB0312 		smull	r1, r2, r8, r3
 1042 0770 1A44     		add	r2, r2, r3
 1043 0772 DB17     		asrs	r3, r3, #31
 1044 0774 C3EBA233 		rsb	r3, r3, r2, asr #14
 1045 0778 BDF89A20 		ldrh	r2, [sp, #154]
 1046 077c 1344     		add	r3, r3, r2
 1047 077e ADF8CA30 		strh	r3, [sp, #202]	@ movhi
 1048 0782 FFF7FEFF 		bl	lv_trigo_sin
 1049 0786 05FB00F3 		mul	r3, r5, r0
 1050 078a 88FB0312 		smull	r1, r2, r8, r3
 1051 078e 1A44     		add	r2, r2, r3
 1052 0790 DB17     		asrs	r3, r3, #31
 1053 0792 C3EBA233 		rsb	r3, r3, r2, asr #14
 1054 0796 BDF89820 		ldrh	r2, [sp, #152]
 1055 079a 1344     		add	r3, r3, r2
 1056 079c ADF8C830 		strh	r3, [sp, #200]	@ movhi
 1057 07a0 A38A     		ldrh	r3, [r4, #20]
 1058 07a2 ADF8E030 		strh	r3, [sp, #224]	@ movhi
 1059 07a6 238A     		ldrh	r3, [r4, #16]
 1060 07a8 ADF8E230 		strh	r3, [sp, #226]	@ movhi
 1061 07ac 6379     		ldrb	r3, [r4, #5]	@ zero_extendqisi2
 1062 07ae 0D9A     		ldr	r2, [sp, #52]
 1063 07b0 5192     		str	r2, [sp, #324]
 1064 07b2 FD2B     		cmp	r3, #253
 1065 07b4 9ABF     		itte	ls
 1066 07b6 16FB03F3 		smulbbls	r3, r6, r3
 1067 07ba C3F30723 		ubfxls	r3, r3, #8, #8
 1068 07be 3346     		movhi	r3, r6
 1069 07c0 8DF8E830 		strb	r3, [sp, #232]
 1070 07c4 099B     		ldr	r3, [sp, #36]
 1071 07c6 4E93     		str	r3, [sp, #312]
 1072 07c8 32AD     		add	r5, sp, #200
 1073 07ca 0123     		movs	r3, #1
 1074 07cc 48AA     		add	r2, sp, #288
 1075 07ce 1A21     		movs	r1, #26
 1076 07d0 5046     		mov	r0, r10
 1077 07d2 4A93     		str	r3, [sp, #296]
 1078 07d4 5295     		str	r5, [sp, #328]
 1079 07d6 FFF7FEFF 		bl	lv_event_send
 1080 07da DDE90801 		ldrd	r0, r1, [sp, #32]
 1081 07de 519A     		ldr	r2, [sp, #324]
 1082 07e0 2B46     		mov	r3, r5
 1083 07e2 FFF7FEFF 		bl	lv_draw_line
 1084 07e6 48AA     		add	r2, sp, #288
 1085 07e8 1B21     		movs	r1, #27
 1086 07ea 5046     		mov	r0, r10
 1087 07ec FFF7FEFF 		bl	lv_event_send
 1088 07f0 95E7     		b	.L43
 1089              	.L49:
 1090 07f2 4FF6FF78 		movw	r8, #65535
 1091 07f6 7BE5     		b	.L29
 1092              	.L28:
ARM GAS  /var/folders/lp/x54gwt890xv47sdkqj1k04q40000gn/T//cclpOcXq.s 			page 20


 1093 07f8 BDF85830 		ldrh	r3, [sp, #88]
 1094 07fc BDF85420 		ldrh	r2, [sp, #84]
 1095 0800 BDF85610 		ldrh	r1, [sp, #86]
 1096 0804 0133     		adds	r3, r3, #1
 1097 0806 9B1A     		subs	r3, r3, r2
 1098 0808 C3F3C030 		ubfx	r0, r3, #15, #1
 1099 080c 00FA83F3 		sxtah	r3, r0, r3
 1100 0810 C3F34F03 		ubfx	r3, r3, #1, #16
 1101 0814 1A44     		add	r2, r2, r3
 1102 0816 48A8     		add	r0, sp, #288
 1103 0818 0B44     		add	r3, r3, r1
 1104 081a 9CB2     		uxth	r4, r3
 1105 081c 95B2     		uxth	r5, r2
 1106 081e FFF7FEFF 		bl	lv_draw_rect_dsc_init
 1107 0822 079F     		ldr	r7, [sp, #28]
 1108 0824 48AA     		add	r2, sp, #288
 1109 0826 3846     		mov	r0, r7
 1110 0828 4FF40031 		mov	r1, #131072
 1111 082c FFF7FEFF 		bl	lv_obj_init_draw_rect_dsc
 1112 0830 0122     		movs	r2, #1
 1113 0832 4FF40031 		mov	r1, #131072
 1114 0836 3846     		mov	r0, r7
 1115 0838 FFF7FEFF 		bl	lv_obj_get_style_prop
 1116 083c 0422     		movs	r2, #4
 1117 083e 06B2     		sxth	r6, r0
 1118 0840 4FF40031 		mov	r1, #131072
 1119 0844 3846     		mov	r0, r7
 1120 0846 FFF7FEFF 		bl	lv_obj_get_style_prop
 1121 084a 06EBD676 		add	r6, r6, r6, lsr #31
 1122 084e 0746     		mov	r7, r0
 1123 0850 C6F34F03 		ubfx	r3, r6, #1, #16
 1124 0854 C7F3C036 		ubfx	r6, r7, #15, #1
 1125 0858 06FA87F6 		sxtah	r6, r6, r7
 1126 085c C6F34F06 		ubfx	r6, r6, #1, #16
 1127 0860 EF1A     		subs	r7, r5, r3
 1128 0862 0898     		ldr	r0, [sp, #32]
 1129 0864 ADF80071 		strh	r7, [sp, #256]	@ movhi
 1130 0868 1D44     		add	r5, r5, r3
 1131 086a 40AA     		add	r2, sp, #256
 1132 086c A31B     		subs	r3, r4, r6
 1133 086e 48A9     		add	r1, sp, #288
 1134 0870 3444     		add	r4, r4, r6
 1135 0872 ADF80451 		strh	r5, [sp, #260]	@ movhi
 1136 0876 ADF80231 		strh	r3, [sp, #258]	@ movhi
 1137 087a ADF80641 		strh	r4, [sp, #262]	@ movhi
 1138 087e FFF7FEFF 		bl	lv_draw_rect
 1139 0882 FFF7C6BB 		b	.L17
 1140              	.L67:
 1141 0886 26AB     		add	r3, sp, #152
 1142 0888 0D93     		str	r3, [sp, #52]
 1143 088a 9EE6     		b	.L23
 1145              		.section	.text.lv_meter_create,"ax",%progbits
 1146              		.align	1
 1147              		.p2align 2,,3
 1148              		.global	lv_meter_create
 1149              		.syntax unified
 1150              		.thumb
ARM GAS  /var/folders/lp/x54gwt890xv47sdkqj1k04q40000gn/T//cclpOcXq.s 			page 21


 1151              		.thumb_func
 1153              	lv_meter_create:
 1154              		@ args = 0, pretend = 0, frame = 0
 1155              		@ frame_needed = 0, uses_anonymous_args = 0
 1156 0000 10B5     		push	{r4, lr}
 1157 0002 0146     		mov	r1, r0
 1158 0004 0348     		ldr	r0, .L78
 1159 0006 FFF7FEFF 		bl	lv_obj_class_create_obj
 1160 000a 0446     		mov	r4, r0
 1161 000c FFF7FEFF 		bl	lv_obj_class_init_obj
 1162 0010 2046     		mov	r0, r4
 1163 0012 10BD     		pop	{r4, pc}
 1164              	.L79:
 1165              		.align	2
 1166              	.L78:
 1167 0014 00000000 		.word	lv_meter_class
 1169              		.section	.text.lv_meter_add_scale,"ax",%progbits
 1170              		.align	1
 1171              		.p2align 2,,3
 1172              		.global	lv_meter_add_scale
 1173              		.syntax unified
 1174              		.thumb
 1175              		.thumb_func
 1177              	lv_meter_add_scale:
 1178              		@ args = 0, pretend = 0, frame = 0
 1179              		@ frame_needed = 0, uses_anonymous_args = 0
 1180 0000 10B5     		push	{r4, lr}
 1181 0002 2430     		adds	r0, r0, #36
 1182 0004 FFF7FEFF 		bl	_lv_ll_ins_head
 1183 0008 A0B1     		cbz	r0, .L82
 1184 000a 0446     		mov	r4, r0
 1185 000c 2421     		movs	r1, #36
 1186 000e FFF7FEFF 		bl	lv_memset_00
 1187 0012 4FF48770 		mov	r0, #270
 1188 0016 8721     		movs	r1, #135
 1189 0018 0223     		movs	r3, #2
 1190 001a 074A     		ldr	r2, .L84
 1191 001c E083     		strh	r0, [r4, #30]	@ movhi
 1192 001e 2184     		strh	r1, [r4, #32]	@ movhi
 1193 0020 0020     		movs	r0, #0
 1194 0022 6421     		movs	r1, #100
 1195 0024 C4E90501 		strd	r0, r1, [r4, #20]
 1196 0028 C4F80220 		str	r2, [r4, #2]	@ unaligned
 1197 002c E380     		strh	r3, [r4, #6]	@ movhi
 1198 002e 2382     		strh	r3, [r4, #16]	@ movhi
 1199 0030 2046     		mov	r0, r4
 1200 0032 10BD     		pop	{r4, pc}
 1201              	.L82:
 1202 0034 FEE7     		b	.L82
 1203              	.L85:
 1204 0036 00BF     		.align	2
 1205              	.L84:
 1206 0038 06000800 		.word	524294
 1208              		.section	.text.lv_meter_set_scale_ticks,"ax",%progbits
 1209              		.align	1
 1210              		.p2align 2,,3
 1211              		.global	lv_meter_set_scale_ticks
ARM GAS  /var/folders/lp/x54gwt890xv47sdkqj1k04q40000gn/T//cclpOcXq.s 			page 22


 1212              		.syntax unified
 1213              		.thumb
 1214              		.thumb_func
 1216              	lv_meter_set_scale_ticks:
 1217              		@ args = 8, pretend = 0, frame = 0
 1218              		@ frame_needed = 0, uses_anonymous_args = 0
 1219              		@ link register save eliminated.
 1220 0000 BDF800C0 		ldrh	ip, [sp]
 1221 0004 CB80     		strh	r3, [r1, #6]	@ movhi
 1222 0006 BDF80430 		ldrh	r3, [sp, #4]
 1223 000a A1F804C0 		strh	ip, [r1, #4]	@ movhi
 1224 000e 4A80     		strh	r2, [r1, #2]	@ movhi
 1225 0010 0B80     		strh	r3, [r1]	@ movhi
 1226 0012 FFF7FEBF 		b	lv_obj_invalidate
 1228 0016 00BF     		.section	.text.lv_meter_set_scale_major_ticks,"ax",%progbits
 1229              		.align	1
 1230              		.p2align 2,,3
 1231              		.global	lv_meter_set_scale_major_ticks
 1232              		.syntax unified
 1233              		.thumb
 1234              		.thumb_func
 1236              	lv_meter_set_scale_major_ticks:
 1237              		@ args = 12, pretend = 0, frame = 0
 1238              		@ frame_needed = 0, uses_anonymous_args = 0
 1239              		@ link register save eliminated.
 1240 0000 BDF800C0 		ldrh	ip, [sp]
 1241 0004 4A81     		strh	r2, [r1, #10]	@ movhi
 1242 0006 CB81     		strh	r3, [r1, #14]	@ movhi
 1243 0008 BDF80420 		ldrh	r2, [sp, #4]
 1244 000c BDF90830 		ldrsh	r3, [sp, #8]
 1245 0010 A1F80CC0 		strh	ip, [r1, #12]	@ movhi
 1246 0014 0A81     		strh	r2, [r1, #8]	@ movhi
 1247 0016 0B82     		strh	r3, [r1, #16]	@ movhi
 1248 0018 FFF7FEBF 		b	lv_obj_invalidate
 1250              		.section	.text.lv_meter_set_scale_range,"ax",%progbits
 1251              		.align	1
 1252              		.p2align 2,,3
 1253              		.global	lv_meter_set_scale_range
 1254              		.syntax unified
 1255              		.thumb
 1256              		.thumb_func
 1258              	lv_meter_set_scale_range:
 1259              		@ args = 8, pretend = 0, frame = 0
 1260              		@ frame_needed = 0, uses_anonymous_args = 0
 1261              		@ link register save eliminated.
 1262 0000 C1E90523 		strd	r2, r3, [r1, #20]
 1263 0004 DDF800C0 		ldr	ip, [sp]
 1264 0008 019B     		ldr	r3, [sp, #4]
 1265 000a A1F81EC0 		strh	ip, [r1, #30]	@ movhi
 1266 000e 0B84     		strh	r3, [r1, #32]	@ movhi
 1267 0010 FFF7FEBF 		b	lv_obj_invalidate
 1269              		.section	.text.lv_meter_add_needle_line,"ax",%progbits
 1270              		.align	1
 1271              		.p2align 2,,3
 1272              		.global	lv_meter_add_needle_line
 1273              		.syntax unified
 1274              		.thumb
ARM GAS  /var/folders/lp/x54gwt890xv47sdkqj1k04q40000gn/T//cclpOcXq.s 			page 23


 1275              		.thumb_func
 1277              	lv_meter_add_needle_line:
 1278              		@ args = 4, pretend = 0, frame = 0
 1279              		@ frame_needed = 0, uses_anonymous_args = 0
 1280 0000 2DE9F843 		push	{r3, r4, r5, r6, r7, r8, r9, lr}
 1281 0004 0546     		mov	r5, r0
 1282 0006 3030     		adds	r0, r0, #48
 1283 0008 BDF92080 		ldrsh	r8, [sp, #32]
 1284 000c 0F46     		mov	r7, r1
 1285 000e 9146     		mov	r9, r2
 1286 0010 1E46     		mov	r6, r3	@ movhi
 1287 0012 FFF7FEFF 		bl	_lv_ll_ins_head
 1288 0016 90B1     		cbz	r0, .L91
 1289 0018 0446     		mov	r4, r0
 1290 001a 1C21     		movs	r1, #28
 1291 001c FFF7FEFF 		bl	lv_memset_00
 1292 0020 4FF60173 		movw	r3, #65281
 1293 0024 2846     		mov	r0, r5
 1294 0026 2760     		str	r7, [r4]
 1295 0028 A4F81090 		strh	r9, [r4, #16]	@ movhi
 1296 002c A682     		strh	r6, [r4, #20]	@ movhi
 1297 002e A4F81280 		strh	r8, [r4, #18]	@ movhi
 1298 0032 A380     		strh	r3, [r4, #4]	@ movhi
 1299 0034 FFF7FEFF 		bl	lv_obj_invalidate
 1300 0038 2046     		mov	r0, r4
 1301 003a BDE8F883 		pop	{r3, r4, r5, r6, r7, r8, r9, pc}
 1302              	.L91:
 1303 003e FEE7     		b	.L91
 1305              		.section	.text.lv_meter_add_needle_img,"ax",%progbits
 1306              		.align	1
 1307              		.p2align 2,,3
 1308              		.global	lv_meter_add_needle_img
 1309              		.syntax unified
 1310              		.thumb
 1311              		.thumb_func
 1313              	lv_meter_add_needle_img:
 1314              		@ args = 4, pretend = 0, frame = 0
 1315              		@ frame_needed = 0, uses_anonymous_args = 0
 1316 0000 2DE9F843 		push	{r3, r4, r5, r6, r7, r8, r9, lr}
 1317 0004 0546     		mov	r5, r0
 1318 0006 3030     		adds	r0, r0, #48
 1319 0008 BDF92080 		ldrsh	r8, [sp, #32]
 1320 000c 0F46     		mov	r7, r1
 1321 000e 9146     		mov	r9, r2
 1322 0010 1E46     		mov	r6, r3
 1323 0012 FFF7FEFF 		bl	_lv_ll_ins_head
 1324 0016 90B1     		cbz	r0, .L95
 1325 0018 0446     		mov	r4, r0
 1326 001a 1C21     		movs	r1, #28
 1327 001c FFF7FEFF 		bl	lv_memset_00
 1328 0020 4FF47F43 		mov	r3, #65280
 1329 0024 2846     		mov	r0, r5
 1330 0026 2760     		str	r7, [r4]
 1331 0028 C4F81090 		str	r9, [r4, #16]
 1332 002c A682     		strh	r6, [r4, #20]	@ movhi
 1333 002e A4F81680 		strh	r8, [r4, #22]	@ movhi
 1334 0032 A380     		strh	r3, [r4, #4]	@ movhi
ARM GAS  /var/folders/lp/x54gwt890xv47sdkqj1k04q40000gn/T//cclpOcXq.s 			page 24


 1335 0034 FFF7FEFF 		bl	lv_obj_invalidate
 1336 0038 2046     		mov	r0, r4
 1337 003a BDE8F883 		pop	{r3, r4, r5, r6, r7, r8, r9, pc}
 1338              	.L95:
 1339 003e FEE7     		b	.L95
 1341              		.section	.text.lv_meter_add_arc,"ax",%progbits
 1342              		.align	1
 1343              		.p2align 2,,3
 1344              		.global	lv_meter_add_arc
 1345              		.syntax unified
 1346              		.thumb
 1347              		.thumb_func
 1349              	lv_meter_add_arc:
 1350              		@ args = 4, pretend = 0, frame = 0
 1351              		@ frame_needed = 0, uses_anonymous_args = 0
 1352 0000 2DE9F843 		push	{r3, r4, r5, r6, r7, r8, r9, lr}
 1353 0004 0546     		mov	r5, r0
 1354 0006 3030     		adds	r0, r0, #48
 1355 0008 BDF92080 		ldrsh	r8, [sp, #32]
 1356 000c 0F46     		mov	r7, r1
 1357 000e 9146     		mov	r9, r2
 1358 0010 1E46     		mov	r6, r3	@ movhi
 1359 0012 FFF7FEFF 		bl	_lv_ll_ins_head
 1360 0016 90B1     		cbz	r0, .L99
 1361 0018 0446     		mov	r4, r0
 1362 001a 1C21     		movs	r1, #28
 1363 001c FFF7FEFF 		bl	lv_memset_00
 1364 0020 4FF60373 		movw	r3, #65283
 1365 0024 2846     		mov	r0, r5
 1366 0026 2760     		str	r7, [r4]
 1367 0028 A4F81090 		strh	r9, [r4, #16]	@ movhi
 1368 002c 2683     		strh	r6, [r4, #24]	@ movhi
 1369 002e A4F81A80 		strh	r8, [r4, #26]	@ movhi
 1370 0032 A380     		strh	r3, [r4, #4]	@ movhi
 1371 0034 FFF7FEFF 		bl	lv_obj_invalidate
 1372 0038 2046     		mov	r0, r4
 1373 003a BDE8F883 		pop	{r3, r4, r5, r6, r7, r8, r9, pc}
 1374              	.L99:
 1375 003e FEE7     		b	.L99
 1377              		.section	.text.lv_meter_add_scale_lines,"ax",%progbits
 1378              		.align	1
 1379              		.p2align 2,,3
 1380              		.global	lv_meter_add_scale_lines
 1381              		.syntax unified
 1382              		.thumb
 1383              		.thumb_func
 1385              	lv_meter_add_scale_lines:
 1386              		@ args = 8, pretend = 0, frame = 0
 1387              		@ frame_needed = 0, uses_anonymous_args = 0
 1388 0000 2DE9F047 		push	{r4, r5, r6, r7, r8, r9, r10, lr}
 1389 0004 0546     		mov	r5, r0
 1390 0006 3030     		adds	r0, r0, #48
 1391 0008 9DF82080 		ldrb	r8, [sp, #32]	@ zero_extendqisi2
 1392 000c BDF924A0 		ldrsh	r10, [sp, #36]
 1393 0010 0F46     		mov	r7, r1
 1394 0012 9146     		mov	r9, r2	@ movhi
 1395 0014 1E46     		mov	r6, r3	@ movhi
ARM GAS  /var/folders/lp/x54gwt890xv47sdkqj1k04q40000gn/T//cclpOcXq.s 			page 25


 1396 0016 FFF7FEFF 		bl	_lv_ll_ins_head
 1397 001a B0B1     		cbz	r0, .L103
 1398 001c 0446     		mov	r4, r0
 1399 001e 1C21     		movs	r1, #28
 1400 0020 FFF7FEFF 		bl	lv_memset_00
 1401 0024 A37D     		ldrb	r3, [r4, #22]	@ zero_extendqisi2
 1402 0026 2760     		str	r7, [r4]
 1403 0028 68F30003 		bfi	r3, r8, #0, #1
 1404 002c A375     		strb	r3, [r4, #22]
 1405 002e 4FF60273 		movw	r3, #65282
 1406 0032 2846     		mov	r0, r5
 1407 0034 A4F81290 		strh	r9, [r4, #18]	@ movhi
 1408 0038 A682     		strh	r6, [r4, #20]	@ movhi
 1409 003a A4F810A0 		strh	r10, [r4, #16]	@ movhi
 1410 003e A380     		strh	r3, [r4, #4]	@ movhi
 1411 0040 FFF7FEFF 		bl	lv_obj_invalidate
 1412 0044 2046     		mov	r0, r4
 1413 0046 BDE8F087 		pop	{r4, r5, r6, r7, r8, r9, r10, pc}
 1414              	.L103:
 1415 004a FEE7     		b	.L103
 1417              		.section	.text.lv_meter_set_indicator_value,"ax",%progbits
 1418              		.align	1
 1419              		.p2align 2,,3
 1420              		.global	lv_meter_set_indicator_value
 1421              		.syntax unified
 1422              		.thumb
 1423              		.thumb_func
 1425              	lv_meter_set_indicator_value:
 1426              		@ args = 0, pretend = 0, frame = 0
 1427              		@ frame_needed = 0, uses_anonymous_args = 0
 1428 0000 2DE9F041 		push	{r4, r5, r6, r7, r8, lr}
 1429 0004 0B79     		ldrb	r3, [r1, #4]	@ zero_extendqisi2
 1430 0006 CF68     		ldr	r7, [r1, #12]
 1431 0008 1546     		mov	r5, r2
 1432 000a 032B     		cmp	r3, #3
 1433 000c 8A68     		ldr	r2, [r1, #8]
 1434 000e CD60     		str	r5, [r1, #12]
 1435 0010 0C46     		mov	r4, r1
 1436 0012 0646     		mov	r6, r0
 1437 0014 8D60     		str	r5, [r1, #8]
 1438 0016 13D0     		beq	.L109
 1439 0018 012B     		cmp	r3, #1
 1440 001a 03D9     		bls	.L110
 1441 001c BDE8F041 		pop	{r4, r5, r6, r7, r8, lr}
 1442 0020 FFF7FEBF 		b	lv_obj_invalidate
 1443              	.L110:
 1444 0024 FFF7FEFF 		bl	inv_line
 1445 0028 3A46     		mov	r2, r7
 1446 002a 2146     		mov	r1, r4
 1447 002c 3046     		mov	r0, r6
 1448 002e FFF7FEFF 		bl	inv_line
 1449 0032 2A46     		mov	r2, r5
 1450 0034 2146     		mov	r1, r4
 1451 0036 3046     		mov	r0, r6
 1452 0038 BDE8F041 		pop	{r4, r5, r6, r7, r8, lr}
 1453 003c FFF7FEBF 		b	inv_line
 1454              	.L109:
ARM GAS  /var/folders/lp/x54gwt890xv47sdkqj1k04q40000gn/T//cclpOcXq.s 			page 26


 1455 0040 2B46     		mov	r3, r5
 1456 0042 FFF7FEFF 		bl	inv_arc
 1457 0046 2B46     		mov	r3, r5
 1458 0048 3A46     		mov	r2, r7
 1459 004a 2146     		mov	r1, r4
 1460 004c 3046     		mov	r0, r6
 1461 004e BDE8F041 		pop	{r4, r5, r6, r7, r8, lr}
 1462 0052 FFF7FEBF 		b	inv_arc
 1464 0056 00BF     		.section	.text.lv_meter_set_indicator_start_value,"ax",%progbits
 1465              		.align	1
 1466              		.p2align 2,,3
 1467              		.global	lv_meter_set_indicator_start_value
 1468              		.syntax unified
 1469              		.thumb
 1470              		.thumb_func
 1472              	lv_meter_set_indicator_start_value:
 1473              		@ args = 0, pretend = 0, frame = 0
 1474              		@ frame_needed = 0, uses_anonymous_args = 0
 1475 0000 70B5     		push	{r4, r5, r6, lr}
 1476 0002 0B79     		ldrb	r3, [r1, #4]	@ zero_extendqisi2
 1477 0004 1546     		mov	r5, r2
 1478 0006 032B     		cmp	r3, #3
 1479 0008 8A68     		ldr	r2, [r1, #8]
 1480 000a 8D60     		str	r5, [r1, #8]
 1481 000c 10D0     		beq	.L115
 1482 000e 012B     		cmp	r3, #1
 1483 0010 03D9     		bls	.L116
 1484 0012 BDE87040 		pop	{r4, r5, r6, lr}
 1485 0016 FFF7FEBF 		b	lv_obj_invalidate
 1486              	.L116:
 1487 001a 0C46     		mov	r4, r1
 1488 001c 0646     		mov	r6, r0
 1489 001e FFF7FEFF 		bl	inv_line
 1490 0022 2A46     		mov	r2, r5
 1491 0024 2146     		mov	r1, r4
 1492 0026 3046     		mov	r0, r6
 1493 0028 BDE87040 		pop	{r4, r5, r6, lr}
 1494 002c FFF7FEBF 		b	inv_line
 1495              	.L115:
 1496 0030 2B46     		mov	r3, r5
 1497 0032 BDE87040 		pop	{r4, r5, r6, lr}
 1498 0036 FFF7FEBF 		b	inv_arc
 1500 003a 00BF     		.section	.text.lv_meter_set_indicator_end_value,"ax",%progbits
 1501              		.align	1
 1502              		.p2align 2,,3
 1503              		.global	lv_meter_set_indicator_end_value
 1504              		.syntax unified
 1505              		.thumb
 1506              		.thumb_func
 1508              	lv_meter_set_indicator_end_value:
 1509              		@ args = 0, pretend = 0, frame = 0
 1510              		@ frame_needed = 0, uses_anonymous_args = 0
 1511 0000 70B5     		push	{r4, r5, r6, lr}
 1512 0002 0B79     		ldrb	r3, [r1, #4]	@ zero_extendqisi2
 1513 0004 1546     		mov	r5, r2
 1514 0006 032B     		cmp	r3, #3
 1515 0008 CA68     		ldr	r2, [r1, #12]
ARM GAS  /var/folders/lp/x54gwt890xv47sdkqj1k04q40000gn/T//cclpOcXq.s 			page 27


 1516 000a CD60     		str	r5, [r1, #12]
 1517 000c 10D0     		beq	.L121
 1518 000e 012B     		cmp	r3, #1
 1519 0010 03D9     		bls	.L122
 1520 0012 BDE87040 		pop	{r4, r5, r6, lr}
 1521 0016 FFF7FEBF 		b	lv_obj_invalidate
 1522              	.L122:
 1523 001a 0C46     		mov	r4, r1
 1524 001c 0646     		mov	r6, r0
 1525 001e FFF7FEFF 		bl	inv_line
 1526 0022 2A46     		mov	r2, r5
 1527 0024 2146     		mov	r1, r4
 1528 0026 3046     		mov	r0, r6
 1529 0028 BDE87040 		pop	{r4, r5, r6, lr}
 1530 002c FFF7FEBF 		b	inv_line
 1531              	.L121:
 1532 0030 2B46     		mov	r3, r5
 1533 0032 BDE87040 		pop	{r4, r5, r6, lr}
 1534 0036 FFF7FEBF 		b	inv_arc
 1536              		.global	lv_meter_class
 1537 003a 00BF     		.section	.rodata.lv_meter_class,"a"
 1538              		.align	2
 1541              	lv_meter_class:
 1542 0000 00000000 		.word	lv_obj_class
 1543 0004 00000000 		.word	lv_meter_constructor
 1544 0008 00000000 		.word	lv_meter_destructor
 1545 000c 00000000 		.space	4
 1546 0010 00000000 		.word	lv_meter_event
 1547 0014 00000000 		.space	4
 1548 0018 C0       		.byte	192
 1549 0019 03       		.byte	3
 1550 001a 00       		.byte	0
 1551 001b 00       		.space	1
 1552              		.ident	"GCC: (xPack GNU Arm Embedded GCC arm64) 13.3.1 20240614"
ARM GAS  /var/folders/lp/x54gwt890xv47sdkqj1k04q40000gn/T//cclpOcXq.s 			page 28

