ARM GAS  /var/folders/lp/x54gwt890xv47sdkqj1k04q40000gn/T//cclfjKTm.s 			page 1


   1              		.cpu cortex-m4
   2              		.arch armv7e-m
   3              		.fpu fpv4-sp-d16
   4              		.eabi_attribute 27, 1
   5              		.eabi_attribute 28, 1
   6              		.eabi_attribute 20, 1
   7              		.eabi_attribute 21, 1
   8              		.eabi_attribute 23, 3
   9              		.eabi_attribute 24, 1
  10              		.eabi_attribute 25, 1
  11              		.eabi_attribute 26, 1
  12              		.eabi_attribute 30, 2
  13              		.eabi_attribute 34, 1
  14              		.eabi_attribute 18, 4
  15              		.file	"lv_menu.c"
  16              		.text
  17              		.section	.text.lv_menu_destructor,"ax",%progbits
  18              		.align	1
  19              		.p2align 2,,3
  20              		.syntax unified
  21              		.thumb
  22              		.thumb_func
  24              	lv_menu_destructor:
  25              		@ args = 0, pretend = 0, frame = 0
  26              		@ frame_needed = 0, uses_anonymous_args = 0
  27              		@ link register save eliminated.
  28 0000 01F15400 		add	r0, r1, #84
  29 0004 FFF7FEBF 		b	_lv_ll_clear
  31              		.section	.text.lv_menu_section_constructor,"ax",%progbits
  32              		.align	1
  33              		.p2align 2,,3
  34              		.syntax unified
  35              		.thumb
  36              		.thumb_func
  38              	lv_menu_section_constructor:
  39              		@ args = 0, pretend = 0, frame = 0
  40              		@ frame_needed = 0, uses_anonymous_args = 0
  41 0000 10B5     		push	{r4, lr}
  42 0002 0C46     		mov	r4, r1
  43 0004 2046     		mov	r0, r4
  44 0006 0121     		movs	r1, #1
  45 0008 FFF7FEFF 		bl	lv_obj_set_flex_flow
  46 000c 2046     		mov	r0, r4
  47 000e 0221     		movs	r1, #2
  48 0010 BDE81040 		pop	{r4, lr}
  49 0014 FFF7FEBF 		b	lv_obj_clear_flag
  51              		.section	.text.lv_menu_cont_constructor,"ax",%progbits
  52              		.align	1
  53              		.p2align 2,,3
  54              		.syntax unified
  55              		.thumb
  56              		.thumb_func
  58              	lv_menu_cont_constructor:
  59              		@ args = 0, pretend = 0, frame = 0
  60              		@ frame_needed = 0, uses_anonymous_args = 0
  61 0000 10B5     		push	{r4, lr}
  62 0002 0C46     		mov	r4, r1
ARM GAS  /var/folders/lp/x54gwt890xv47sdkqj1k04q40000gn/T//cclfjKTm.s 			page 2


  63 0004 2046     		mov	r0, r4
  64 0006 0021     		movs	r1, #0
  65 0008 FFF7FEFF 		bl	lv_obj_set_flex_flow
  66 000c 0223     		movs	r3, #2
  67 000e 2046     		mov	r0, r4
  68 0010 0021     		movs	r1, #0
  69 0012 1A46     		mov	r2, r3
  70 0014 FFF7FEFF 		bl	lv_obj_set_flex_align
  71 0018 2046     		mov	r0, r4
  72 001a 0221     		movs	r1, #2
  73 001c BDE81040 		pop	{r4, lr}
  74 0020 FFF7FEBF 		b	lv_obj_clear_flag
  76              		.section	.rodata.lv_menu_constructor.str1.4,"aMS",%progbits,1
  77              		.align	2
  78              	.LC0:
  79 0000 EF819300 		.ascii	"\357\201\223\000"
  80              		.section	.text.lv_menu_constructor,"ax",%progbits
  81              		.align	1
  82              		.p2align 2,,3
  83              		.syntax unified
  84              		.thumb
  85              		.thumb_func
  87              	lv_menu_constructor:
  88              		@ args = 0, pretend = 0, frame = 0
  89              		@ frame_needed = 0, uses_anonymous_args = 0
  90 0000 474B     		ldr	r3, .L9
  91 0002 70B5     		push	{r4, r5, r6, lr}
  92 0004 0C46     		mov	r4, r1
  93 0006 2046     		mov	r0, r4
  94 0008 1988     		ldrh	r1, [r3]
  95 000a FFF7FEFF 		bl	lv_obj_set_layout
  96 000e 2046     		mov	r0, r4
  97 0010 0021     		movs	r1, #0
  98 0012 FFF7FEFF 		bl	lv_obj_set_flex_flow
  99 0016 94F86230 		ldrb	r3, [r4, #98]	@ zero_extendqisi2
 100 001a 0025     		movs	r5, #0
 101 001c 23F00F03 		bic	r3, r3, #15
 102 0020 84F86230 		strb	r3, [r4, #98]
 103 0024 0421     		movs	r1, #4
 104 0026 04F15400 		add	r0, r4, #84
 105 002a A4F86050 		strh	r5, [r4, #96]	@ movhi
 106 002e FFF7FEFF 		bl	_lv_ll_init
 107 0032 2046     		mov	r0, r4
 108 0034 FFF7FEFF 		bl	lv_obj_create
 109 0038 0121     		movs	r1, #1
 110 003a 6062     		str	r0, [r4, #36]
 111 003c FFF7FEFF 		bl	lv_obj_add_flag
 112 0040 2146     		mov	r1, r4
 113 0042 C4E91155 		strd	r5, r5, [r4, #68]
 114 0046 E563     		str	r5, [r4, #60]
 115 0048 E564     		str	r5, [r4, #76]
 116 004a 2564     		str	r5, [r4, #64]
 117 004c 3548     		ldr	r0, .L9+4
 118 004e FFF7FEFF 		bl	lv_obj_class_create_obj
 119 0052 0646     		mov	r6, r0
 120 0054 FFF7FEFF 		bl	lv_obj_class_init_obj
 121 0058 3046     		mov	r0, r6
ARM GAS  /var/folders/lp/x54gwt890xv47sdkqj1k04q40000gn/T//cclfjKTm.s 			page 3


 122 005a 42F26401 		movw	r1, #8292
 123 005e FFF7FEFF 		bl	lv_obj_set_height
 124 0062 3046     		mov	r0, r6
 125 0064 0121     		movs	r1, #1
 126 0066 FFF7FEFF 		bl	lv_obj_set_flex_grow
 127 006a 3046     		mov	r0, r6
 128 006c 0121     		movs	r1, #1
 129 006e FFF7FEFF 		bl	lv_obj_set_flex_flow
 130 0072 3046     		mov	r0, r6
 131 0074 4FF48041 		mov	r1, #16384
 132 0078 FFF7FEFF 		bl	lv_obj_add_flag
 133 007c 3046     		mov	r0, r6
 134 007e 0221     		movs	r1, #2
 135 0080 FFF7FEFF 		bl	lv_obj_clear_flag
 136 0084 3146     		mov	r1, r6
 137 0086 A662     		str	r6, [r4, #40]
 138 0088 2748     		ldr	r0, .L9+8
 139 008a FFF7FEFF 		bl	lv_obj_class_create_obj
 140 008e 0646     		mov	r6, r0
 141 0090 FFF7FEFF 		bl	lv_obj_class_init_obj
 142 0094 42F2D172 		movw	r2, #10193
 143 0098 3046     		mov	r0, r6
 144 009a 42F26401 		movw	r1, #8292
 145 009e FFF7FEFF 		bl	lv_obj_set_size
 146 00a2 2946     		mov	r1, r5
 147 00a4 3046     		mov	r0, r6
 148 00a6 FFF7FEFF 		bl	lv_obj_set_flex_flow
 149 00aa 0223     		movs	r3, #2
 150 00ac 1A46     		mov	r2, r3
 151 00ae 2946     		mov	r1, r5
 152 00b0 3046     		mov	r0, r6
 153 00b2 FFF7FEFF 		bl	lv_obj_set_flex_align
 154 00b6 3046     		mov	r0, r6
 155 00b8 0221     		movs	r1, #2
 156 00ba FFF7FEFF 		bl	lv_obj_clear_flag
 157 00be 4FF48041 		mov	r1, #16384
 158 00c2 3046     		mov	r0, r6
 159 00c4 FFF7FEFF 		bl	lv_obj_add_flag
 160 00c8 2663     		str	r6, [r4, #48]
 161 00ca 3046     		mov	r0, r6
 162 00cc FFF7FEFF 		bl	lv_btn_create
 163 00d0 2346     		mov	r3, r4
 164 00d2 0722     		movs	r2, #7
 165 00d4 0646     		mov	r6, r0
 166 00d6 1549     		ldr	r1, .L9+12
 167 00d8 FFF7FEFF 		bl	lv_obj_add_event_cb
 168 00dc 3046     		mov	r0, r6
 169 00de 4FF48041 		mov	r1, #16384
 170 00e2 FFF7FEFF 		bl	lv_obj_add_flag
 171 00e6 2946     		mov	r1, r5
 172 00e8 3046     		mov	r0, r6
 173 00ea FFF7FEFF 		bl	lv_obj_set_flex_flow
 174 00ee 6663     		str	r6, [r4, #52]
 175 00f0 3046     		mov	r0, r6
 176 00f2 FFF7FEFF 		bl	lv_img_create
 177 00f6 0E49     		ldr	r1, .L9+16
 178 00f8 FFF7FEFF 		bl	lv_img_set_src
ARM GAS  /var/folders/lp/x54gwt890xv47sdkqj1k04q40000gn/T//cclfjKTm.s 			page 4


 179 00fc 206B     		ldr	r0, [r4, #48]
 180 00fe FFF7FEFF 		bl	lv_label_create
 181 0102 0121     		movs	r1, #1
 182 0104 0646     		mov	r6, r0
 183 0106 FFF7FEFF 		bl	lv_obj_add_flag
 184 010a A663     		str	r6, [r4, #56]
 185 010c E562     		str	r5, [r4, #44]
 186 010e 2565     		str	r5, [r4, #80]
 187 0110 2346     		mov	r3, r4
 188 0112 2046     		mov	r0, r4
 189 0114 0749     		ldr	r1, .L9+20
 190 0116 BDE87040 		pop	{r4, r5, r6, lr}
 191 011a 1C22     		movs	r2, #28
 192 011c FFF7FEBF 		b	lv_obj_add_event_cb
 193              	.L10:
 194              		.align	2
 195              	.L9:
 196 0120 00000000 		.word	LV_LAYOUT_FLEX
 197 0124 00000000 		.word	lv_menu_main_cont_class
 198 0128 00000000 		.word	lv_menu_main_header_cont_class
 199 012c 00000000 		.word	lv_menu_back_event_cb
 200 0130 00000000 		.word	.LC0
 201 0134 00000000 		.word	lv_menu_value_changed_event_cb
 203              		.section	.text.lv_menu_value_changed_event_cb,"ax",%progbits
 204              		.align	1
 205              		.p2align 2,,3
 206              		.syntax unified
 207              		.thumb
 208              		.thumb_func
 210              	lv_menu_value_changed_event_cb:
 211              		@ args = 0, pretend = 0, frame = 0
 212              		@ frame_needed = 0, uses_anonymous_args = 0
 213 0000 10B5     		push	{r4, lr}
 214 0002 FFF7FEFF 		bl	lv_event_get_user_data
 215 0006 C36A     		ldr	r3, [r0, #44]
 216 0008 0446     		mov	r4, r0
 217 000a 4BB1     		cbz	r3, .L12
 218 000c 806B     		ldr	r0, [r0, #56]
 219 000e 38B1     		cbz	r0, .L12
 220 0010 596A     		ldr	r1, [r3, #36]
 221 0012 C9B1     		cbz	r1, .L13
 222 0014 FFF7FEFF 		bl	lv_label_set_text
 223 0018 A06B     		ldr	r0, [r4, #56]
 224 001a 0121     		movs	r1, #1
 225 001c FFF7FEFF 		bl	lv_obj_clear_flag
 226              	.L12:
 227 0020 236C     		ldr	r3, [r4, #64]
 228 0022 5BB1     		cbz	r3, .L11
 229 0024 E06C     		ldr	r0, [r4, #76]
 230 0026 48B1     		cbz	r0, .L11
 231 0028 596A     		ldr	r1, [r3, #36]
 232 002a 41B1     		cbz	r1, .L15
 233 002c FFF7FEFF 		bl	lv_label_set_text
 234 0030 E06C     		ldr	r0, [r4, #76]
 235 0032 0121     		movs	r1, #1
 236 0034 BDE81040 		pop	{r4, lr}
 237 0038 FFF7FEBF 		b	lv_obj_clear_flag
ARM GAS  /var/folders/lp/x54gwt890xv47sdkqj1k04q40000gn/T//cclfjKTm.s 			page 5


 238              	.L11:
 239 003c 10BD     		pop	{r4, pc}
 240              	.L15:
 241 003e BDE81040 		pop	{r4, lr}
 242 0042 0121     		movs	r1, #1
 243 0044 FFF7FEBF 		b	lv_obj_add_flag
 244              	.L13:
 245 0048 0121     		movs	r1, #1
 246 004a FFF7FEFF 		bl	lv_obj_add_flag
 247 004e E7E7     		b	.L12
 249              		.section	.text.lv_menu_page_destructor,"ax",%progbits
 250              		.align	1
 251              		.p2align 2,,3
 252              		.syntax unified
 253              		.thumb
 254              		.thumb_func
 256              	lv_menu_page_destructor:
 257              		@ args = 0, pretend = 0, frame = 0
 258              		@ frame_needed = 0, uses_anonymous_args = 0
 259 0000 486A     		ldr	r0, [r1, #36]
 260 0002 30B1     		cbz	r0, .L35
 261 0004 10B5     		push	{r4, lr}
 262 0006 0C46     		mov	r4, r1
 263 0008 FFF7FEFF 		bl	lv_mem_free
 264 000c 0023     		movs	r3, #0
 265 000e 6362     		str	r3, [r4, #36]
 266 0010 10BD     		pop	{r4, pc}
 267              	.L35:
 268 0012 7047     		bx	lr
 270              		.section	.text.lv_menu_obj_del_event_cb,"ax",%progbits
 271              		.align	1
 272              		.p2align 2,,3
 273              		.syntax unified
 274              		.thumb
 275              		.thumb_func
 277              	lv_menu_obj_del_event_cb:
 278              		@ args = 0, pretend = 0, frame = 0
 279              		@ frame_needed = 0, uses_anonymous_args = 0
 280 0000 08B5     		push	{r3, lr}
 281 0002 FFF7FEFF 		bl	lv_event_get_user_data
 282 0006 BDE80840 		pop	{r3, lr}
 283 000a FFF7FEBF 		b	lv_mem_free
 285 000e 00BF     		.section	.text.lv_menu_page_constructor,"ax",%progbits
 286              		.align	1
 287              		.p2align 2,,3
 288              		.syntax unified
 289              		.thumb
 290              		.thumb_func
 292              	lv_menu_page_constructor:
 293              		@ args = 0, pretend = 0, frame = 0
 294              		@ frame_needed = 0, uses_anonymous_args = 0
 295 0000 10B5     		push	{r4, lr}
 296 0002 0846     		mov	r0, r1
 297 0004 0C46     		mov	r4, r1
 298 0006 FFF7FEFF 		bl	lv_obj_get_parent
 299 000a 0346     		mov	r3, r0
 300 000c 2046     		mov	r0, r4
ARM GAS  /var/folders/lp/x54gwt890xv47sdkqj1k04q40000gn/T//cclfjKTm.s 			page 6


 301 000e 596A     		ldr	r1, [r3, #36]
 302 0010 FFF7FEFF 		bl	lv_obj_set_parent
 303 0014 2046     		mov	r0, r4
 304 0016 0121     		movs	r1, #1
 305 0018 FFF7FEFF 		bl	lv_obj_set_flex_flow
 306 001c 0223     		movs	r3, #2
 307 001e 2046     		mov	r0, r4
 308 0020 0021     		movs	r1, #0
 309 0022 1A46     		mov	r2, r3
 310 0024 FFF7FEFF 		bl	lv_obj_set_flex_align
 311 0028 2046     		mov	r0, r4
 312 002a 4FF48041 		mov	r1, #16384
 313 002e BDE81040 		pop	{r4, lr}
 314 0032 FFF7FEBF 		b	lv_obj_add_flag
 316 0036 00BF     		.section	.text.lv_menu_refr_main_header_mode,"ax",%progbits
 317              		.align	1
 318              		.p2align 2,,3
 319              		.syntax unified
 320              		.thumb
 321              		.thumb_func
 323              	lv_menu_refr_main_header_mode:
 324              		@ args = 0, pretend = 0, frame = 0
 325              		@ frame_needed = 0, uses_anonymous_args = 0
 326 0000 10B5     		push	{r4, lr}
 327 0002 0446     		mov	r4, r0
 328 0004 006B     		ldr	r0, [r0, #48]
 329 0006 58B3     		cbz	r0, .L42
 330 0008 E36A     		ldr	r3, [r4, #44]
 331 000a 4BB3     		cbz	r3, .L42
 332 000c 94F86210 		ldrb	r1, [r4, #98]	@ zero_extendqisi2
 333 0010 C1F34101 		ubfx	r1, r1, #1, #2
 334 0014 0129     		cmp	r1, #1
 335 0016 24D0     		beq	.L44
 336 0018 0229     		cmp	r1, #2
 337 001a 12D0     		beq	.L45
 338 001c 91B1     		cbz	r1, .L55
 339              	.L46:
 340 001e FFF7FEFF 		bl	lv_obj_refr_size
 341 0022 E06A     		ldr	r0, [r4, #44]
 342 0024 FFF7FEFF 		bl	lv_obj_refr_size
 343 0028 206B     		ldr	r0, [r4, #48]
 344 002a FFF7FEFF 		bl	lv_obj_update_layout
 345 002e 206B     		ldr	r0, [r4, #48]
 346 0030 FFF7FEFF 		bl	lv_obj_get_content_height
 347 0034 70B9     		cbnz	r0, .L47
 348 0036 206B     		ldr	r0, [r4, #48]
 349 0038 0121     		movs	r1, #1
 350 003a BDE81040 		pop	{r4, lr}
 351 003e FFF7FEBF 		b	lv_obj_add_flag
 352              	.L45:
 353 0042 0121     		movs	r1, #1
 354              	.L55:
 355 0044 FFF7FEFF 		bl	lv_obj_move_to_index
 356 0048 E06A     		ldr	r0, [r4, #44]
 357 004a 0121     		movs	r1, #1
 358 004c FFF7FEFF 		bl	lv_obj_set_flex_grow
 359 0050 206B     		ldr	r0, [r4, #48]
ARM GAS  /var/folders/lp/x54gwt890xv47sdkqj1k04q40000gn/T//cclfjKTm.s 			page 7


 360 0052 E4E7     		b	.L46
 361              	.L47:
 362 0054 206B     		ldr	r0, [r4, #48]
 363 0056 0121     		movs	r1, #1
 364 0058 BDE81040 		pop	{r4, lr}
 365 005c FFF7FEBF 		b	lv_obj_clear_flag
 366              	.L42:
 367 0060 10BD     		pop	{r4, pc}
 368              	.L44:
 369 0062 0021     		movs	r1, #0
 370 0064 FFF7FEFF 		bl	lv_obj_move_to_index
 371 0068 E06A     		ldr	r0, [r4, #44]
 372 006a 0021     		movs	r1, #0
 373 006c FFF7FEFF 		bl	lv_obj_set_flex_grow
 374 0070 206B     		ldr	r0, [r4, #48]
 375 0072 D4E7     		b	.L46
 377              		.section	.text.lv_menu_refr_sidebar_header_mode,"ax",%progbits
 378              		.align	1
 379              		.p2align 2,,3
 380              		.syntax unified
 381              		.thumb
 382              		.thumb_func
 384              	lv_menu_refr_sidebar_header_mode:
 385              		@ args = 0, pretend = 0, frame = 0
 386              		@ frame_needed = 0, uses_anonymous_args = 0
 387 0000 10B5     		push	{r4, lr}
 388 0002 0446     		mov	r4, r0
 389 0004 406C     		ldr	r0, [r0, #68]
 390 0006 40B3     		cbz	r0, .L56
 391 0008 236C     		ldr	r3, [r4, #64]
 392 000a 33B3     		cbz	r3, .L56
 393 000c 94F86210 		ldrb	r1, [r4, #98]	@ zero_extendqisi2
 394 0010 C1F34101 		ubfx	r1, r1, #1, #2
 395 0014 0129     		cmp	r1, #1
 396 0016 21D0     		beq	.L58
 397 0018 0229     		cmp	r1, #2
 398 001a 0FD0     		beq	.L59
 399 001c 79B1     		cbz	r1, .L69
 400              	.L60:
 401 001e FFF7FEFF 		bl	lv_obj_refr_size
 402 0022 206C     		ldr	r0, [r4, #64]
 403 0024 FFF7FEFF 		bl	lv_obj_refr_size
 404 0028 606C     		ldr	r0, [r4, #68]
 405 002a FFF7FEFF 		bl	lv_obj_get_content_height
 406 002e 70B9     		cbnz	r0, .L61
 407 0030 606C     		ldr	r0, [r4, #68]
 408 0032 0121     		movs	r1, #1
 409 0034 BDE81040 		pop	{r4, lr}
 410 0038 FFF7FEBF 		b	lv_obj_add_flag
 411              	.L59:
 412 003c 0121     		movs	r1, #1
 413              	.L69:
 414 003e FFF7FEFF 		bl	lv_obj_move_to_index
 415 0042 206C     		ldr	r0, [r4, #64]
 416 0044 0121     		movs	r1, #1
 417 0046 FFF7FEFF 		bl	lv_obj_set_flex_grow
 418 004a 606C     		ldr	r0, [r4, #68]
ARM GAS  /var/folders/lp/x54gwt890xv47sdkqj1k04q40000gn/T//cclfjKTm.s 			page 8


 419 004c E7E7     		b	.L60
 420              	.L61:
 421 004e 606C     		ldr	r0, [r4, #68]
 422 0050 0121     		movs	r1, #1
 423 0052 BDE81040 		pop	{r4, lr}
 424 0056 FFF7FEBF 		b	lv_obj_clear_flag
 425              	.L56:
 426 005a 10BD     		pop	{r4, pc}
 427              	.L58:
 428 005c 0021     		movs	r1, #0
 429 005e FFF7FEFF 		bl	lv_obj_move_to_index
 430 0062 206C     		ldr	r0, [r4, #64]
 431 0064 0021     		movs	r1, #0
 432 0066 FFF7FEFF 		bl	lv_obj_set_flex_grow
 433 006a 606C     		ldr	r0, [r4, #68]
 434 006c D7E7     		b	.L60
 436 006e 00BF     		.section	.text.lv_menu_create,"ax",%progbits
 437              		.align	1
 438              		.p2align 2,,3
 439              		.global	lv_menu_create
 440              		.syntax unified
 441              		.thumb
 442              		.thumb_func
 444              	lv_menu_create:
 445              		@ args = 0, pretend = 0, frame = 0
 446              		@ frame_needed = 0, uses_anonymous_args = 0
 447 0000 10B5     		push	{r4, lr}
 448 0002 0146     		mov	r1, r0
 449 0004 0348     		ldr	r0, .L72
 450 0006 FFF7FEFF 		bl	lv_obj_class_create_obj
 451 000a 0446     		mov	r4, r0
 452 000c FFF7FEFF 		bl	lv_obj_class_init_obj
 453 0010 2046     		mov	r0, r4
 454 0012 10BD     		pop	{r4, pc}
 455              	.L73:
 456              		.align	2
 457              	.L72:
 458 0014 00000000 		.word	lv_menu_class
 460              		.section	.text.lv_menu_page_create,"ax",%progbits
 461              		.align	1
 462              		.p2align 2,,3
 463              		.global	lv_menu_page_create
 464              		.syntax unified
 465              		.thumb
 466              		.thumb_func
 468              	lv_menu_page_create:
 469              		@ args = 0, pretend = 0, frame = 0
 470              		@ frame_needed = 0, uses_anonymous_args = 0
 471 0000 38B5     		push	{r3, r4, r5, lr}
 472 0002 0346     		mov	r3, r0
 473 0004 0C46     		mov	r4, r1
 474 0006 0C48     		ldr	r0, .L80
 475 0008 1946     		mov	r1, r3
 476 000a FFF7FEFF 		bl	lv_obj_class_create_obj
 477 000e 0546     		mov	r5, r0
 478 0010 FFF7FEFF 		bl	lv_obj_class_init_obj
 479 0014 6CB1     		cbz	r4, .L75
ARM GAS  /var/folders/lp/x54gwt890xv47sdkqj1k04q40000gn/T//cclfjKTm.s 			page 9


 480 0016 2046     		mov	r0, r4
 481 0018 FFF7FEFF 		bl	strlen
 482 001c 0130     		adds	r0, r0, #1
 483 001e FFF7FEFF 		bl	lv_mem_alloc
 484 0022 6862     		str	r0, [r5, #36]
 485 0024 20B1     		cbz	r0, .L77
 486 0026 2146     		mov	r1, r4
 487 0028 FFF7FEFF 		bl	strcpy
 488 002c 2846     		mov	r0, r5
 489 002e 38BD     		pop	{r3, r4, r5, pc}
 490              	.L77:
 491 0030 FEE7     		b	.L77
 492              	.L75:
 493 0032 6C62     		str	r4, [r5, #36]
 494 0034 2846     		mov	r0, r5
 495 0036 38BD     		pop	{r3, r4, r5, pc}
 496              	.L81:
 497              		.align	2
 498              	.L80:
 499 0038 00000000 		.word	lv_menu_page_class
 501              		.section	.text.lv_menu_cont_create,"ax",%progbits
 502              		.align	1
 503              		.p2align 2,,3
 504              		.global	lv_menu_cont_create
 505              		.syntax unified
 506              		.thumb
 507              		.thumb_func
 509              	lv_menu_cont_create:
 510              		@ args = 0, pretend = 0, frame = 0
 511              		@ frame_needed = 0, uses_anonymous_args = 0
 512 0000 10B5     		push	{r4, lr}
 513 0002 0146     		mov	r1, r0
 514 0004 0348     		ldr	r0, .L84
 515 0006 FFF7FEFF 		bl	lv_obj_class_create_obj
 516 000a 0446     		mov	r4, r0
 517 000c FFF7FEFF 		bl	lv_obj_class_init_obj
 518 0010 2046     		mov	r0, r4
 519 0012 10BD     		pop	{r4, pc}
 520              	.L85:
 521              		.align	2
 522              	.L84:
 523 0014 00000000 		.word	lv_menu_cont_class
 525              		.section	.text.lv_menu_section_create,"ax",%progbits
 526              		.align	1
 527              		.p2align 2,,3
 528              		.global	lv_menu_section_create
 529              		.syntax unified
 530              		.thumb
 531              		.thumb_func
 533              	lv_menu_section_create:
 534              		@ args = 0, pretend = 0, frame = 0
 535              		@ frame_needed = 0, uses_anonymous_args = 0
 536 0000 10B5     		push	{r4, lr}
 537 0002 0146     		mov	r1, r0
 538 0004 0348     		ldr	r0, .L88
 539 0006 FFF7FEFF 		bl	lv_obj_class_create_obj
 540 000a 0446     		mov	r4, r0
ARM GAS  /var/folders/lp/x54gwt890xv47sdkqj1k04q40000gn/T//cclfjKTm.s 			page 10


 541 000c FFF7FEFF 		bl	lv_obj_class_init_obj
 542 0010 2046     		mov	r0, r4
 543 0012 10BD     		pop	{r4, pc}
 544              	.L89:
 545              		.align	2
 546              	.L88:
 547 0014 00000000 		.word	lv_menu_section_class
 549              		.section	.text.lv_menu_separator_create,"ax",%progbits
 550              		.align	1
 551              		.p2align 2,,3
 552              		.global	lv_menu_separator_create
 553              		.syntax unified
 554              		.thumb
 555              		.thumb_func
 557              	lv_menu_separator_create:
 558              		@ args = 0, pretend = 0, frame = 0
 559              		@ frame_needed = 0, uses_anonymous_args = 0
 560 0000 10B5     		push	{r4, lr}
 561 0002 0146     		mov	r1, r0
 562 0004 0348     		ldr	r0, .L92
 563 0006 FFF7FEFF 		bl	lv_obj_class_create_obj
 564 000a 0446     		mov	r4, r0
 565 000c FFF7FEFF 		bl	lv_obj_class_init_obj
 566 0010 2046     		mov	r0, r4
 567 0012 10BD     		pop	{r4, pc}
 568              	.L93:
 569              		.align	2
 570              	.L92:
 571 0014 00000000 		.word	lv_menu_separator_class
 573              		.section	.text.lv_menu_set_page,"ax",%progbits
 574              		.align	1
 575              		.p2align 2,,3
 576              		.global	lv_menu_set_page
 577              		.syntax unified
 578              		.thumb
 579              		.thumb_func
 581              	lv_menu_set_page:
 582              		@ args = 0, pretend = 0, frame = 0
 583              		@ frame_needed = 0, uses_anonymous_args = 0
 584 0000 38B5     		push	{r3, r4, r5, lr}
 585 0002 0446     		mov	r4, r0
 586 0004 C06A     		ldr	r0, [r0, #44]
 587 0006 8842     		cmp	r0, r1
 588 0008 5ED0     		beq	.L94
 589 000a 0D46     		mov	r5, r1
 590 000c 10B1     		cbz	r0, .L96
 591 000e 616A     		ldr	r1, [r4, #36]
 592 0010 FFF7FEFF 		bl	lv_obj_set_parent
 593              	.L96:
 594 0014 04F15400 		add	r0, r4, #84
 595 0018 9DB3     		cbz	r5, .L97
 596 001a FFF7FEFF 		bl	_lv_ll_ins_head
 597 001e 78B3     		cbz	r0, .L99
 598 0020 0560     		str	r5, [r0]
 599 0022 94F86030 		ldrb	r3, [r4, #96]	@ zero_extendqisi2
 600 0026 A16A     		ldr	r1, [r4, #40]
 601 0028 0133     		adds	r3, r3, #1
ARM GAS  /var/folders/lp/x54gwt890xv47sdkqj1k04q40000gn/T//cclfjKTm.s 			page 11


 602 002a 84F86030 		strb	r3, [r4, #96]
 603 002e 2846     		mov	r0, r5
 604 0030 FFF7FEFF 		bl	lv_obj_set_parent
 605              	.L100:
 606 0034 206D     		ldr	r0, [r4, #80]
 607 0036 E562     		str	r5, [r4, #44]
 608 0038 28B1     		cbz	r0, .L101
 609 003a 236C     		ldr	r3, [r4, #64]
 610 003c 0121     		movs	r1, #1
 611 003e 002B     		cmp	r3, #0
 612 0040 43D0     		beq	.L102
 613 0042 FFF7FEFF 		bl	lv_obj_add_state
 614              	.L101:
 615 0046 236C     		ldr	r3, [r4, #64]
 616 0048 63B3     		cbz	r3, .L103
 617 004a 94F86230 		ldrb	r3, [r4, #98]	@ zero_extendqisi2
 618 004e D907     		lsls	r1, r3, #31
 619 0050 1CD4     		bmi	.L120
 620              	.L104:
 621 0052 94F86030 		ldrb	r3, [r4, #96]	@ zero_extendqisi2
 622 0056 606B     		ldr	r0, [r4, #52]
 623 0058 012B     		cmp	r3, #1
 624 005a 4FF00101 		mov	r1, #1
 625 005e 2CD9     		bls	.L109
 626              	.L108:
 627 0060 FFF7FEFF 		bl	lv_obj_clear_flag
 628 0064 606B     		ldr	r0, [r4, #52]
 629 0066 0221     		movs	r1, #2
 630 0068 FFF7FEFF 		bl	lv_obj_add_flag
 631              	.L107:
 632 006c 2046     		mov	r0, r4
 633 006e 0022     		movs	r2, #0
 634 0070 1C21     		movs	r1, #28
 635 0072 FFF7FEFF 		bl	lv_event_send
 636 0076 2046     		mov	r0, r4
 637 0078 BDE83840 		pop	{r3, r4, r5, lr}
 638 007c FFF7FEBF 		b	lv_menu_refr_main_header_mode
 639              	.L99:
 640 0080 FEE7     		b	.L99
 641              	.L97:
 642 0082 FFF7FEFF 		bl	_lv_ll_clear
 643 0086 84F86050 		strb	r5, [r4, #96]
 644 008a D3E7     		b	.L100
 645              	.L120:
 646 008c 1A07     		lsls	r2, r3, #28
 647 008e A06C     		ldr	r0, [r4, #72]
 648 0090 4FF00101 		mov	r1, #1
 649 0094 1CD5     		bpl	.L105
 650 0096 FFF7FEFF 		bl	lv_obj_clear_flag
 651 009a A06C     		ldr	r0, [r4, #72]
 652 009c 0221     		movs	r1, #2
 653 009e FFF7FEFF 		bl	lv_obj_add_flag
 654 00a2 D6E7     		b	.L104
 655              	.L103:
 656 00a4 94F86030 		ldrb	r3, [r4, #96]	@ zero_extendqisi2
 657 00a8 606B     		ldr	r0, [r4, #52]
 658 00aa 012B     		cmp	r3, #1
ARM GAS  /var/folders/lp/x54gwt890xv47sdkqj1k04q40000gn/T//cclfjKTm.s 			page 12


 659 00ac 4FF00101 		mov	r1, #1
 660 00b0 D6D8     		bhi	.L108
 661 00b2 94F86230 		ldrb	r3, [r4, #98]	@ zero_extendqisi2
 662 00b6 1B07     		lsls	r3, r3, #28
 663 00b8 D2D4     		bmi	.L108
 664              	.L109:
 665 00ba FFF7FEFF 		bl	lv_obj_add_flag
 666 00be 606B     		ldr	r0, [r4, #52]
 667 00c0 0221     		movs	r1, #2
 668 00c2 FFF7FEFF 		bl	lv_obj_clear_flag
 669 00c6 D1E7     		b	.L107
 670              	.L94:
 671 00c8 38BD     		pop	{r3, r4, r5, pc}
 672              	.L102:
 673 00ca FFF7FEFF 		bl	lv_obj_clear_state
 674 00ce BAE7     		b	.L101
 675              	.L105:
 676 00d0 FFF7FEFF 		bl	lv_obj_add_flag
 677 00d4 A06C     		ldr	r0, [r4, #72]
 678 00d6 0221     		movs	r1, #2
 679 00d8 FFF7FEFF 		bl	lv_obj_clear_flag
 680 00dc B9E7     		b	.L104
 682 00de 00BF     		.section	.text.lv_menu_back_event_cb,"ax",%progbits
 683              		.align	1
 684              		.p2align 2,,3
 685              		.syntax unified
 686              		.thumb
 687              		.thumb_func
 689              	lv_menu_back_event_cb:
 690              		@ args = 0, pretend = 0, frame = 0
 691              		@ frame_needed = 0, uses_anonymous_args = 0
 692 0000 F8B5     		push	{r3, r4, r5, r6, r7, lr}
 693 0002 0446     		mov	r4, r0
 694 0004 FFF7FEFF 		bl	lv_event_get_code
 695 0008 0728     		cmp	r0, #7
 696 000a 00D0     		beq	.L132
 697              	.L121:
 698 000c F8BD     		pop	{r3, r4, r5, r6, r7, pc}
 699              	.L132:
 700 000e 2046     		mov	r0, r4
 701 0010 FFF7FEFF 		bl	lv_event_get_target
 702 0014 0546     		mov	r5, r0
 703 0016 2046     		mov	r0, r4
 704 0018 FFF7FEFF 		bl	lv_event_get_user_data
 705 001c 436B     		ldr	r3, [r0, #52]
 706 001e 9D42     		cmp	r5, r3
 707 0020 0446     		mov	r4, r0
 708 0022 07D0     		beq	.L133
 709 0024 836C     		ldr	r3, [r0, #72]
 710 0026 9D42     		cmp	r5, r3
 711 0028 F0D1     		bne	.L121
 712 002a 90F86030 		ldrb	r3, [r0, #96]	@ zero_extendqisi2
 713 002e 80F86130 		strb	r3, [r0, #97]
 714 0032 F8BD     		pop	{r3, r4, r5, r6, r7, pc}
 715              	.L133:
 716 0034 826C     		ldr	r2, [r0, #72]
 717 0036 90F86030 		ldrb	r3, [r0, #96]	@ zero_extendqisi2
ARM GAS  /var/folders/lp/x54gwt890xv47sdkqj1k04q40000gn/T//cclfjKTm.s 			page 13


 718 003a 80F86130 		strb	r3, [r0, #97]
 719 003e 9542     		cmp	r5, r2
 720 0040 E4D0     		beq	.L121
 721 0042 012B     		cmp	r3, #1
 722 0044 E2D9     		bls	.L121
 723 0046 00F15407 		add	r7, r0, #84
 724 004a 3846     		mov	r0, r7
 725 004c FFF7FEFF 		bl	_lv_ll_get_head
 726 0050 0146     		mov	r1, r0
 727 0052 0646     		mov	r6, r0
 728 0054 3846     		mov	r0, r7
 729 0056 FFF7FEFF 		bl	_lv_ll_get_next
 730 005a 0546     		mov	r5, r0
 731 005c 0028     		cmp	r0, #0
 732 005e D5D0     		beq	.L121
 733 0060 3146     		mov	r1, r6
 734 0062 3846     		mov	r0, r7
 735 0064 FFF7FEFF 		bl	_lv_ll_remove
 736 0068 3046     		mov	r0, r6
 737 006a FFF7FEFF 		bl	lv_mem_free
 738 006e 94F86030 		ldrb	r3, [r4, #96]	@ zero_extendqisi2
 739 0072 013B     		subs	r3, r3, #1
 740 0074 2946     		mov	r1, r5
 741 0076 84F86030 		strb	r3, [r4, #96]
 742 007a 3846     		mov	r0, r7
 743 007c FFF7FEFF 		bl	_lv_ll_remove
 744 0080 94F86030 		ldrb	r3, [r4, #96]	@ zero_extendqisi2
 745 0084 013B     		subs	r3, r3, #1
 746 0086 84F86030 		strb	r3, [r4, #96]
 747 008a 2046     		mov	r0, r4
 748 008c 2968     		ldr	r1, [r5]
 749 008e FFF7FEFF 		bl	lv_menu_set_page
 750 0092 2846     		mov	r0, r5
 751 0094 BDE8F840 		pop	{r3, r4, r5, r6, r7, lr}
 752 0098 FFF7FEBF 		b	lv_mem_free
 754              		.section	.text.lv_menu_load_page_event_cb,"ax",%progbits
 755              		.align	1
 756              		.p2align 2,,3
 757              		.syntax unified
 758              		.thumb
 759              		.thumb_func
 761              	lv_menu_load_page_event_cb:
 762              		@ args = 0, pretend = 0, frame = 0
 763              		@ frame_needed = 0, uses_anonymous_args = 0
 764 0000 70B5     		push	{r4, r5, r6, lr}
 765 0002 0446     		mov	r4, r0
 766 0004 FFF7FEFF 		bl	lv_event_get_target
 767 0008 0546     		mov	r5, r0
 768 000a 2046     		mov	r0, r4
 769 000c FFF7FEFF 		bl	lv_event_get_user_data
 770 0010 D0E90046 		ldrd	r4, r6, [r0]
 771 0014 236C     		ldr	r3, [r4, #64]
 772 0016 DBB1     		cbz	r3, .L137
 773 0018 D5B1     		cbz	r5, .L137
 774 001a A542     		cmp	r5, r4
 775 001c 18D0     		beq	.L137
 776 001e 2846     		mov	r0, r5
ARM GAS  /var/folders/lp/x54gwt890xv47sdkqj1k04q40000gn/T//cclfjKTm.s 			page 14


 777 0020 04E0     		b	.L138
 778              	.L153:
 779 0022 FFF7FEFF 		bl	lv_obj_get_parent
 780 0026 98B1     		cbz	r0, .L137
 781 0028 8442     		cmp	r4, r0
 782 002a 11D0     		beq	.L137
 783              	.L138:
 784 002c E36B     		ldr	r3, [r4, #60]
 785 002e 8342     		cmp	r3, r0
 786 0030 F7D1     		bne	.L153
 787 0032 206D     		ldr	r0, [r4, #80]
 788 0034 A842     		cmp	r0, r5
 789 0036 03D0     		beq	.L141
 790 0038 10B1     		cbz	r0, .L141
 791 003a 0121     		movs	r1, #1
 792 003c FFF7FEFF 		bl	lv_obj_clear_state
 793              	.L141:
 794 0040 04F15400 		add	r0, r4, #84
 795 0044 FFF7FEFF 		bl	_lv_ll_clear
 796 0048 0023     		movs	r3, #0
 797 004a 84F86030 		strb	r3, [r4, #96]
 798 004e 2565     		str	r5, [r4, #80]
 799              	.L137:
 800 0050 3146     		mov	r1, r6
 801 0052 2046     		mov	r0, r4
 802 0054 FFF7FEFF 		bl	lv_menu_set_page
 803 0058 FFF7FEFF 		bl	lv_group_get_default
 804 005c 08B1     		cbz	r0, .L134
 805 005e 236C     		ldr	r3, [r4, #64]
 806 0060 03B1     		cbz	r3, .L154
 807              	.L134:
 808 0062 70BD     		pop	{r4, r5, r6, pc}
 809              	.L154:
 810 0064 FFF7FEFF 		bl	lv_group_get_default
 811 0068 BDE87040 		pop	{r4, r5, r6, lr}
 812 006c FFF7FEBF 		b	lv_group_focus_next
 814              		.section	.text.lv_menu_set_sidebar_page,"ax",%progbits
 815              		.align	1
 816              		.p2align 2,,3
 817              		.global	lv_menu_set_sidebar_page
 818              		.syntax unified
 819              		.thumb
 820              		.thumb_func
 822              	lv_menu_set_sidebar_page:
 823              		@ args = 0, pretend = 0, frame = 0
 824              		@ frame_needed = 0, uses_anonymous_args = 0
 825 0000 F8B5     		push	{r3, r4, r5, r6, r7, lr}
 826 0002 90F86260 		ldrb	r6, [r0, #98]	@ zero_extendqisi2
 827 0006 0446     		mov	r4, r0
 828 0008 0D46     		mov	r5, r1
 829 000a 06F00106 		and	r6, r6, #1
 830 000e 0029     		cmp	r1, #0
 831 0010 00F08E80 		beq	.L156
 832 0014 16B3     		cbz	r6, .L167
 833              	.L157:
 834 0016 2846     		mov	r0, r5
 835 0018 E16B     		ldr	r1, [r4, #60]
ARM GAS  /var/folders/lp/x54gwt890xv47sdkqj1k04q40000gn/T//cclfjKTm.s 			page 15


 836 001a FFF7FEFF 		bl	lv_obj_set_parent
 837 001e 2046     		mov	r0, r4
 838 0020 FFF7FEFF 		bl	lv_menu_refr_sidebar_header_mode
 839              	.L158:
 840 0024 04F15406 		add	r6, r4, #84
 841 0028 2564     		str	r5, [r4, #64]
 842 002a 3046     		mov	r0, r6
 843 002c FFF7FEFF 		bl	_lv_ll_get_head
 844 0030 0546     		mov	r5, r0
 845 0032 68B1     		cbz	r0, .L159
 846 0034 0146     		mov	r1, r0
 847 0036 3046     		mov	r0, r6
 848 0038 2E68     		ldr	r6, [r5]
 849 003a FFF7FEFF 		bl	_lv_ll_remove
 850 003e 2846     		mov	r0, r5
 851 0040 FFF7FEFF 		bl	lv_mem_free
 852 0044 94F86030 		ldrb	r3, [r4, #96]	@ zero_extendqisi2
 853 0048 013B     		subs	r3, r3, #1
 854 004a 3546     		mov	r5, r6
 855 004c 84F86030 		strb	r3, [r4, #96]
 856              	.L159:
 857 0050 2946     		mov	r1, r5
 858 0052 2046     		mov	r0, r4
 859 0054 BDE8F840 		pop	{r3, r4, r5, r6, r7, lr}
 860 0058 FFF7FEBF 		b	lv_menu_set_page
 861              	.L167:
 862 005c 2146     		mov	r1, r4
 863 005e 3D48     		ldr	r0, .L168
 864 0060 FFF7FEFF 		bl	lv_obj_class_create_obj
 865 0064 0746     		mov	r7, r0
 866 0066 FFF7FEFF 		bl	lv_obj_class_init_obj
 867 006a 3846     		mov	r0, r7
 868 006c 0121     		movs	r1, #1
 869 006e FFF7FEFF 		bl	lv_obj_move_to_index
 870 0072 42F26402 		movw	r2, #8292
 871 0076 3846     		mov	r0, r7
 872 0078 42F21E01 		movw	r1, #8222
 873 007c FFF7FEFF 		bl	lv_obj_set_size
 874 0080 3846     		mov	r0, r7
 875 0082 0121     		movs	r1, #1
 876 0084 FFF7FEFF 		bl	lv_obj_set_flex_flow
 877 0088 3846     		mov	r0, r7
 878 008a 4FF48041 		mov	r1, #16384
 879 008e FFF7FEFF 		bl	lv_obj_add_flag
 880 0092 3846     		mov	r0, r7
 881 0094 0221     		movs	r1, #2
 882 0096 FFF7FEFF 		bl	lv_obj_clear_flag
 883 009a 3946     		mov	r1, r7
 884 009c E763     		str	r7, [r4, #60]
 885 009e 2E48     		ldr	r0, .L168+4
 886 00a0 FFF7FEFF 		bl	lv_obj_class_create_obj
 887 00a4 0746     		mov	r7, r0
 888 00a6 FFF7FEFF 		bl	lv_obj_class_init_obj
 889 00aa 42F2D172 		movw	r2, #10193
 890 00ae 3846     		mov	r0, r7
 891 00b0 42F26401 		movw	r1, #8292
 892 00b4 FFF7FEFF 		bl	lv_obj_set_size
ARM GAS  /var/folders/lp/x54gwt890xv47sdkqj1k04q40000gn/T//cclfjKTm.s 			page 16


 893 00b8 3146     		mov	r1, r6
 894 00ba 3846     		mov	r0, r7
 895 00bc FFF7FEFF 		bl	lv_obj_set_flex_flow
 896 00c0 0223     		movs	r3, #2
 897 00c2 1A46     		mov	r2, r3
 898 00c4 3146     		mov	r1, r6
 899 00c6 3846     		mov	r0, r7
 900 00c8 FFF7FEFF 		bl	lv_obj_set_flex_align
 901 00cc 3846     		mov	r0, r7
 902 00ce 0221     		movs	r1, #2
 903 00d0 FFF7FEFF 		bl	lv_obj_clear_flag
 904 00d4 4FF48041 		mov	r1, #16384
 905 00d8 3846     		mov	r0, r7
 906 00da FFF7FEFF 		bl	lv_obj_add_flag
 907 00de 6764     		str	r7, [r4, #68]
 908 00e0 3846     		mov	r0, r7
 909 00e2 FFF7FEFF 		bl	lv_btn_create
 910 00e6 2346     		mov	r3, r4
 911 00e8 0722     		movs	r2, #7
 912 00ea 0746     		mov	r7, r0
 913 00ec 1B49     		ldr	r1, .L168+8
 914 00ee FFF7FEFF 		bl	lv_obj_add_event_cb
 915 00f2 4FF48041 		mov	r1, #16384
 916 00f6 3846     		mov	r0, r7
 917 00f8 FFF7FEFF 		bl	lv_obj_add_flag
 918 00fc 3146     		mov	r1, r6
 919 00fe 3846     		mov	r0, r7
 920 0100 FFF7FEFF 		bl	lv_obj_set_flex_flow
 921 0104 A764     		str	r7, [r4, #72]
 922 0106 3846     		mov	r0, r7
 923 0108 FFF7FEFF 		bl	lv_img_create
 924 010c 1449     		ldr	r1, .L168+12
 925 010e FFF7FEFF 		bl	lv_img_set_src
 926 0112 606C     		ldr	r0, [r4, #68]
 927 0114 FFF7FEFF 		bl	lv_label_create
 928 0118 0121     		movs	r1, #1
 929 011a 0646     		mov	r6, r0
 930 011c FFF7FEFF 		bl	lv_obj_add_flag
 931 0120 94F86230 		ldrb	r3, [r4, #98]	@ zero_extendqisi2
 932 0124 E664     		str	r6, [r4, #76]
 933 0126 43F00103 		orr	r3, r3, #1
 934 012a 84F86230 		strb	r3, [r4, #98]
 935 012e 72E7     		b	.L157
 936              	.L156:
 937 0130 002E     		cmp	r6, #0
 938 0132 3FF477AF 		beq	.L158
 939 0136 416A     		ldr	r1, [r0, #36]
 940 0138 006C     		ldr	r0, [r0, #64]
 941 013a FFF7FEFF 		bl	lv_obj_set_parent
 942 013e E06B     		ldr	r0, [r4, #60]
 943 0140 FFF7FEFF 		bl	lv_obj_del
 944 0144 94F86230 		ldrb	r3, [r4, #98]	@ zero_extendqisi2
 945 0148 65F30003 		bfi	r3, r5, #0, #1
 946 014c 84F86230 		strb	r3, [r4, #98]
 947 0150 68E7     		b	.L158
 948              	.L169:
 949 0152 00BF     		.align	2
ARM GAS  /var/folders/lp/x54gwt890xv47sdkqj1k04q40000gn/T//cclfjKTm.s 			page 17


 950              	.L168:
 951 0154 00000000 		.word	lv_menu_sidebar_cont_class
 952 0158 00000000 		.word	lv_menu_sidebar_header_cont_class
 953 015c 00000000 		.word	lv_menu_back_event_cb
 954 0160 00000000 		.word	.LC0
 956              		.section	.text.lv_menu_set_mode_header,"ax",%progbits
 957              		.align	1
 958              		.p2align 2,,3
 959              		.global	lv_menu_set_mode_header
 960              		.syntax unified
 961              		.thumb
 962              		.thumb_func
 964              	lv_menu_set_mode_header:
 965              		@ args = 0, pretend = 0, frame = 0
 966              		@ frame_needed = 0, uses_anonymous_args = 0
 967 0000 90F86230 		ldrb	r3, [r0, #98]	@ zero_extendqisi2
 968 0004 C3F34102 		ubfx	r2, r3, #1, #2
 969 0008 8A42     		cmp	r2, r1
 970 000a 00D1     		bne	.L181
 971 000c 7047     		bx	lr
 972              	.L181:
 973 000e 10B5     		push	{r4, lr}
 974 0010 61F34203 		bfi	r3, r1, #1, #2
 975 0014 0446     		mov	r4, r0
 976 0016 80F86230 		strb	r3, [r0, #98]
 977 001a FFF7FEFF 		bl	lv_menu_refr_main_header_mode
 978 001e 94F86230 		ldrb	r3, [r4, #98]	@ zero_extendqisi2
 979 0022 DB07     		lsls	r3, r3, #31
 980 0024 00D4     		bmi	.L182
 981 0026 10BD     		pop	{r4, pc}
 982              	.L182:
 983 0028 2046     		mov	r0, r4
 984 002a BDE81040 		pop	{r4, lr}
 985 002e FFF7FEBF 		b	lv_menu_refr_sidebar_header_mode
 987 0032 00BF     		.section	.text.lv_menu_set_mode_root_back_btn,"ax",%progbits
 988              		.align	1
 989              		.p2align 2,,3
 990              		.global	lv_menu_set_mode_root_back_btn
 991              		.syntax unified
 992              		.thumb
 993              		.thumb_func
 995              	lv_menu_set_mode_root_back_btn:
 996              		@ args = 0, pretend = 0, frame = 0
 997              		@ frame_needed = 0, uses_anonymous_args = 0
 998 0000 90F86230 		ldrb	r3, [r0, #98]	@ zero_extendqisi2
 999 0004 C3F3C002 		ubfx	r2, r3, #3, #1
 1000 0008 8A42     		cmp	r2, r1
 1001 000a 00D1     		bne	.L192
 1002 000c 7047     		bx	lr
 1003              	.L192:
 1004 000e 70B5     		push	{r4, r5, r6, lr}
 1005 0010 61F3C303 		bfi	r3, r1, #3, #1
 1006 0014 00F15406 		add	r6, r0, #84
 1007 0018 80F86230 		strb	r3, [r0, #98]
 1008 001c 0446     		mov	r4, r0
 1009 001e 3046     		mov	r0, r6
 1010 0020 FFF7FEFF 		bl	_lv_ll_get_head
ARM GAS  /var/folders/lp/x54gwt890xv47sdkqj1k04q40000gn/T//cclfjKTm.s 			page 18


 1011 0024 0546     		mov	r5, r0
 1012 0026 68B1     		cbz	r0, .L185
 1013 0028 0146     		mov	r1, r0
 1014 002a 3046     		mov	r0, r6
 1015 002c 2E68     		ldr	r6, [r5]
 1016 002e FFF7FEFF 		bl	_lv_ll_remove
 1017 0032 2846     		mov	r0, r5
 1018 0034 FFF7FEFF 		bl	lv_mem_free
 1019 0038 94F86030 		ldrb	r3, [r4, #96]	@ zero_extendqisi2
 1020 003c 013B     		subs	r3, r3, #1
 1021 003e 3546     		mov	r5, r6
 1022 0040 84F86030 		strb	r3, [r4, #96]
 1023              	.L185:
 1024 0044 2946     		mov	r1, r5
 1025 0046 2046     		mov	r0, r4
 1026 0048 BDE87040 		pop	{r4, r5, r6, lr}
 1027 004c FFF7FEBF 		b	lv_menu_set_page
 1029              		.section	.text.lv_menu_set_load_page_event,"ax",%progbits
 1030              		.align	1
 1031              		.p2align 2,,3
 1032              		.global	lv_menu_set_load_page_event
 1033              		.syntax unified
 1034              		.thumb
 1035              		.thumb_func
 1037              	lv_menu_set_load_page_event:
 1038              		@ args = 0, pretend = 0, frame = 0
 1039              		@ frame_needed = 0, uses_anonymous_args = 0
 1040 0000 2DE9F041 		push	{r4, r5, r6, r7, r8, lr}
 1041 0004 0C46     		mov	r4, r1
 1042 0006 0746     		mov	r7, r0
 1043 0008 0221     		movs	r1, #2
 1044 000a 2046     		mov	r0, r4
 1045 000c 1646     		mov	r6, r2
 1046 000e FFF7FEFF 		bl	lv_obj_add_flag
 1047 0012 1021     		movs	r1, #16
 1048 0014 2046     		mov	r0, r4
 1049 0016 FFF7FEFF 		bl	lv_obj_clear_flag
 1050 001a 4FF48061 		mov	r1, #1024
 1051 001e 2046     		mov	r0, r4
 1052 0020 FFF7FEFF 		bl	lv_obj_add_flag
 1053 0024 1149     		ldr	r1, .L200
 1054 0026 2046     		mov	r0, r4
 1055 0028 FFF7FEFF 		bl	lv_obj_remove_event_cb
 1056 002c 98B9     		cbnz	r0, .L199
 1057              	.L194:
 1058 002e 0820     		movs	r0, #8
 1059 0030 FFF7FEFF 		bl	lv_mem_alloc
 1060 0034 0D49     		ldr	r1, .L200
 1061 0036 C0E90076 		strd	r7, r6, [r0]
 1062 003a 0546     		mov	r5, r0
 1063 003c 0346     		mov	r3, r0
 1064 003e 0722     		movs	r2, #7
 1065 0040 2046     		mov	r0, r4
 1066 0042 FFF7FEFF 		bl	lv_obj_add_event_cb
 1067 0046 2B46     		mov	r3, r5
 1068 0048 2046     		mov	r0, r4
 1069 004a 0949     		ldr	r1, .L200+4
ARM GAS  /var/folders/lp/x54gwt890xv47sdkqj1k04q40000gn/T//cclfjKTm.s 			page 19


 1070 004c BDE8F041 		pop	{r4, r5, r6, r7, r8, lr}
 1071 0050 2122     		movs	r2, #33
 1072 0052 FFF7FEBF 		b	lv_obj_add_event_cb
 1073              	.L199:
 1074 0056 0022     		movs	r2, #0
 1075 0058 2121     		movs	r1, #33
 1076 005a 2046     		mov	r0, r4
 1077 005c FFF7FEFF 		bl	lv_event_send
 1078 0060 0349     		ldr	r1, .L200+4
 1079 0062 2046     		mov	r0, r4
 1080 0064 FFF7FEFF 		bl	lv_obj_remove_event_cb
 1081 0068 E1E7     		b	.L194
 1082              	.L201:
 1083 006a 00BF     		.align	2
 1084              	.L200:
 1085 006c 00000000 		.word	lv_menu_load_page_event_cb
 1086 0070 00000000 		.word	lv_menu_obj_del_event_cb
 1088              		.section	.text.lv_menu_get_cur_main_page,"ax",%progbits
 1089              		.align	1
 1090              		.p2align 2,,3
 1091              		.global	lv_menu_get_cur_main_page
 1092              		.syntax unified
 1093              		.thumb
 1094              		.thumb_func
 1096              	lv_menu_get_cur_main_page:
 1097              		@ args = 0, pretend = 0, frame = 0
 1098              		@ frame_needed = 0, uses_anonymous_args = 0
 1099              		@ link register save eliminated.
 1100 0000 C06A     		ldr	r0, [r0, #44]
 1101 0002 7047     		bx	lr
 1103              		.section	.text.lv_menu_get_cur_sidebar_page,"ax",%progbits
 1104              		.align	1
 1105              		.p2align 2,,3
 1106              		.global	lv_menu_get_cur_sidebar_page
 1107              		.syntax unified
 1108              		.thumb
 1109              		.thumb_func
 1111              	lv_menu_get_cur_sidebar_page:
 1112              		@ args = 0, pretend = 0, frame = 0
 1113              		@ frame_needed = 0, uses_anonymous_args = 0
 1114              		@ link register save eliminated.
 1115 0000 006C     		ldr	r0, [r0, #64]
 1116 0002 7047     		bx	lr
 1118              		.section	.text.lv_menu_get_main_header,"ax",%progbits
 1119              		.align	1
 1120              		.p2align 2,,3
 1121              		.global	lv_menu_get_main_header
 1122              		.syntax unified
 1123              		.thumb
 1124              		.thumb_func
 1126              	lv_menu_get_main_header:
 1127              		@ args = 0, pretend = 0, frame = 0
 1128              		@ frame_needed = 0, uses_anonymous_args = 0
 1129              		@ link register save eliminated.
 1130 0000 006B     		ldr	r0, [r0, #48]
 1131 0002 7047     		bx	lr
 1133              		.section	.text.lv_menu_get_main_header_back_btn,"ax",%progbits
ARM GAS  /var/folders/lp/x54gwt890xv47sdkqj1k04q40000gn/T//cclfjKTm.s 			page 20


 1134              		.align	1
 1135              		.p2align 2,,3
 1136              		.global	lv_menu_get_main_header_back_btn
 1137              		.syntax unified
 1138              		.thumb
 1139              		.thumb_func
 1141              	lv_menu_get_main_header_back_btn:
 1142              		@ args = 0, pretend = 0, frame = 0
 1143              		@ frame_needed = 0, uses_anonymous_args = 0
 1144              		@ link register save eliminated.
 1145 0000 406B     		ldr	r0, [r0, #52]
 1146 0002 7047     		bx	lr
 1148              		.section	.text.lv_menu_get_sidebar_header,"ax",%progbits
 1149              		.align	1
 1150              		.p2align 2,,3
 1151              		.global	lv_menu_get_sidebar_header
 1152              		.syntax unified
 1153              		.thumb
 1154              		.thumb_func
 1156              	lv_menu_get_sidebar_header:
 1157              		@ args = 0, pretend = 0, frame = 0
 1158              		@ frame_needed = 0, uses_anonymous_args = 0
 1159              		@ link register save eliminated.
 1160 0000 406C     		ldr	r0, [r0, #68]
 1161 0002 7047     		bx	lr
 1163              		.section	.text.lv_menu_get_sidebar_header_back_btn,"ax",%progbits
 1164              		.align	1
 1165              		.p2align 2,,3
 1166              		.global	lv_menu_get_sidebar_header_back_btn
 1167              		.syntax unified
 1168              		.thumb
 1169              		.thumb_func
 1171              	lv_menu_get_sidebar_header_back_btn:
 1172              		@ args = 0, pretend = 0, frame = 0
 1173              		@ frame_needed = 0, uses_anonymous_args = 0
 1174              		@ link register save eliminated.
 1175 0000 806C     		ldr	r0, [r0, #72]
 1176 0002 7047     		bx	lr
 1178              		.section	.text.lv_menu_back_btn_is_root,"ax",%progbits
 1179              		.align	1
 1180              		.p2align 2,,3
 1181              		.global	lv_menu_back_btn_is_root
 1182              		.syntax unified
 1183              		.thumb
 1184              		.thumb_func
 1186              	lv_menu_back_btn_is_root:
 1187              		@ args = 0, pretend = 0, frame = 0
 1188              		@ frame_needed = 0, uses_anonymous_args = 0
 1189              		@ link register save eliminated.
 1190 0000 836C     		ldr	r3, [r0, #72]
 1191 0002 8B42     		cmp	r3, r1
 1192 0004 0BD0     		beq	.L210
 1193 0006 436B     		ldr	r3, [r0, #52]
 1194 0008 8B42     		cmp	r3, r1
 1195 000a 01D0     		beq	.L212
 1196 000c 0020     		movs	r0, #0
 1197 000e 7047     		bx	lr
ARM GAS  /var/folders/lp/x54gwt890xv47sdkqj1k04q40000gn/T//cclfjKTm.s 			page 21


 1198              	.L212:
 1199 0010 90F86100 		ldrb	r0, [r0, #97]	@ zero_extendqisi2
 1200 0014 0128     		cmp	r0, #1
 1201 0016 8CBF     		ite	hi
 1202 0018 0020     		movhi	r0, #0
 1203 001a 0120     		movls	r0, #1
 1204 001c 7047     		bx	lr
 1205              	.L210:
 1206 001e 0120     		movs	r0, #1
 1207 0020 7047     		bx	lr
 1209 0022 00BF     		.section	.text.lv_menu_clear_history,"ax",%progbits
 1210              		.align	1
 1211              		.p2align 2,,3
 1212              		.global	lv_menu_clear_history
 1213              		.syntax unified
 1214              		.thumb
 1215              		.thumb_func
 1217              	lv_menu_clear_history:
 1218              		@ args = 0, pretend = 0, frame = 0
 1219              		@ frame_needed = 0, uses_anonymous_args = 0
 1220 0000 10B5     		push	{r4, lr}
 1221 0002 0446     		mov	r4, r0
 1222 0004 5430     		adds	r0, r0, #84
 1223 0006 FFF7FEFF 		bl	_lv_ll_clear
 1224 000a 0023     		movs	r3, #0
 1225 000c 84F86030 		strb	r3, [r4, #96]
 1226 0010 10BD     		pop	{r4, pc}
 1228              		.global	lv_menu_sidebar_header_cont_class
 1229 0012 00BF     		.section	.rodata.lv_menu_sidebar_header_cont_class,"a"
 1230              		.align	2
 1233              	lv_menu_sidebar_header_cont_class:
 1234 0000 00000000 		.word	lv_obj_class
 1235 0004 00000000 		.space	24
 1235      00000000 
 1235      00000000 
 1235      00000000 
 1235      00000000 
 1236              		.global	lv_menu_main_header_cont_class
 1237              		.section	.rodata.lv_menu_main_header_cont_class,"a"
 1238              		.align	2
 1241              	lv_menu_main_header_cont_class:
 1242 0000 00000000 		.word	lv_obj_class
 1243 0004 00000000 		.space	24
 1243      00000000 
 1243      00000000 
 1243      00000000 
 1243      00000000 
 1244              		.global	lv_menu_main_cont_class
 1245              		.section	.rodata.lv_menu_main_cont_class,"a"
 1246              		.align	2
 1249              	lv_menu_main_cont_class:
 1250 0000 00000000 		.word	lv_obj_class
 1251 0004 00000000 		.space	24
 1251      00000000 
 1251      00000000 
 1251      00000000 
 1251      00000000 
ARM GAS  /var/folders/lp/x54gwt890xv47sdkqj1k04q40000gn/T//cclfjKTm.s 			page 22


 1252              		.global	lv_menu_sidebar_cont_class
 1253              		.section	.rodata.lv_menu_sidebar_cont_class,"a"
 1254              		.align	2
 1257              	lv_menu_sidebar_cont_class:
 1258 0000 00000000 		.word	lv_obj_class
 1259 0004 00000000 		.space	24
 1259      00000000 
 1259      00000000 
 1259      00000000 
 1259      00000000 
 1260              		.global	lv_menu_separator_class
 1261              		.section	.rodata.lv_menu_separator_class,"a"
 1262              		.align	2
 1265              	lv_menu_separator_class:
 1266 0000 00000000 		.word	lv_obj_class
 1267 0004 00000000 		.space	16
 1267      00000000 
 1267      00000000 
 1267      00000000 
 1268 0014 D127     		.short	10193
 1269 0016 D127     		.short	10193
 1270 0018 00000000 		.space	4
 1271              		.global	lv_menu_section_class
 1272              		.section	.rodata.lv_menu_section_class,"a"
 1273              		.align	2
 1276              	lv_menu_section_class:
 1277 0000 00000000 		.word	lv_obj_class
 1278 0004 00000000 		.word	lv_menu_section_constructor
 1279 0008 00000000 		.space	12
 1279      00000000 
 1279      00000000 
 1280 0014 6420     		.short	8292
 1281 0016 D127     		.short	10193
 1282 0018 00000000 		.space	4
 1283              		.global	lv_menu_cont_class
 1284              		.section	.rodata.lv_menu_cont_class,"a"
 1285              		.align	2
 1288              	lv_menu_cont_class:
 1289 0000 00000000 		.word	lv_obj_class
 1290 0004 00000000 		.word	lv_menu_cont_constructor
 1291 0008 00000000 		.space	12
 1291      00000000 
 1291      00000000 
 1292 0014 6420     		.short	8292
 1293 0016 D127     		.short	10193
 1294 0018 00000000 		.space	4
 1295              		.global	lv_menu_page_class
 1296              		.section	.rodata.lv_menu_page_class,"a"
 1297              		.align	2
 1300              	lv_menu_page_class:
 1301 0000 00000000 		.word	lv_obj_class
 1302 0004 00000000 		.word	lv_menu_page_constructor
 1303 0008 00000000 		.word	lv_menu_page_destructor
 1304 000c 00000000 		.space	8
 1304      00000000 
 1305 0014 6420     		.short	8292
 1306 0016 D127     		.short	10193
ARM GAS  /var/folders/lp/x54gwt890xv47sdkqj1k04q40000gn/T//cclfjKTm.s 			page 23


 1307 0018 80       		.byte	128
 1308 0019 02       		.byte	2
 1309 001a 00       		.byte	0
 1310 001b 00       		.space	1
 1311              		.global	lv_menu_class
 1312              		.section	.rodata.lv_menu_class,"a"
 1313              		.align	2
 1316              	lv_menu_class:
 1317 0000 00000000 		.word	lv_obj_class
 1318 0004 00000000 		.word	lv_menu_constructor
 1319 0008 00000000 		.word	lv_menu_destructor
 1320 000c 00000000 		.space	8
 1320      00000000 
 1321 0014 C300     		.short	195
 1322 0016 0401     		.short	260
 1323 0018 40       		.byte	64
 1324 0019 06       		.byte	6
 1325 001a 00       		.byte	0
 1326 001b 00       		.space	1
 1327              		.ident	"GCC: (xPack GNU Arm Embedded GCC arm64) 13.3.1 20240614"
ARM GAS  /var/folders/lp/x54gwt890xv47sdkqj1k04q40000gn/T//cclfjKTm.s 			page 24

