ARM GAS  /var/folders/lp/x54gwt890xv47sdkqj1k04q40000gn/T//ccn4yuDn.s 			page 1


   1              		.cpu cortex-m4
   2              		.arch armv7e-m
   3              		.fpu fpv4-sp-d16
   4              		.eabi_attribute 27, 1
   5              		.eabi_attribute 28, 1
   6              		.eabi_attribute 20, 1
   7              		.eabi_attribute 21, 1
   8              		.eabi_attribute 23, 3
   9              		.eabi_attribute 24, 1
  10              		.eabi_attribute 25, 1
  11              		.eabi_attribute 26, 1
  12              		.eabi_attribute 30, 2
  13              		.eabi_attribute 34, 1
  14              		.eabi_attribute 18, 4
  15              		.file	"lv_obj.c"
  16              		.text
  17              		.section	.text.lv_obj_draw,"ax",%progbits
  18              		.align	1
  19              		.p2align 2,,3
  20              		.syntax unified
  21              		.thumb
  22              		.thumb_func
  24              	lv_obj_draw:
  25              		@ args = 0, pretend = 0, frame = 144
  26              		@ frame_needed = 0, uses_anonymous_args = 0
  27 0000 2DE9F04F 		push	{r4, r5, r6, r7, r8, r9, r10, fp, lr}
  28 0004 A5B0     		sub	sp, sp, #148
  29 0006 0646     		mov	r6, r0
  30 0008 FFF7FEFF 		bl	lv_event_get_code
  31 000c 0546     		mov	r5, r0
  32 000e 3046     		mov	r0, r6
  33 0010 FFF7FEFF 		bl	lv_event_get_target
  34 0014 122D     		cmp	r5, #18
  35 0016 0446     		mov	r4, r0
  36 0018 07D0     		beq	.L66
  37 001a 152D     		cmp	r5, #21
  38 001c 18D0     		beq	.L67
  39 001e 182D     		cmp	r5, #24
  40 0020 00F0AA80 		beq	.L68
  41              	.L1:
  42 0024 25B0     		add	sp, sp, #148
  43              		@ sp needed
  44 0026 BDE8F08F 		pop	{r4, r5, r6, r7, r8, r9, r10, fp, pc}
  45              	.L66:
  46 002a 3046     		mov	r0, r6
  47 002c FFF7FEFF 		bl	lv_event_get_param
  48 0030 0378     		ldrb	r3, [r0]	@ zero_extendqisi2
  49 0032 022B     		cmp	r3, #2
  50 0034 0546     		mov	r5, r0
  51 0036 F5D0     		beq	.L1
  52 0038 1722     		movs	r2, #23
  53 003a 0021     		movs	r1, #0
  54 003c 2046     		mov	r0, r4
  55 003e FFF7FEFF 		bl	lv_obj_get_style_prop
  56 0042 0646     		mov	r6, r0
  57 0044 0028     		cmp	r0, #0
  58 0046 00F06781 		beq	.L4
ARM GAS  /var/folders/lp/x54gwt890xv47sdkqj1k04q40000gn/T//ccn4yuDn.s 			page 2


  59 004a 0223     		movs	r3, #2
  60 004c 2B70     		strb	r3, [r5]
  61 004e E9E7     		b	.L1
  62              	.L67:
  63 0050 3046     		mov	r0, r6
  64 0052 FFF7FEFF 		bl	lv_event_get_draw_ctx
  65 0056 04AE     		add	r6, sp, #16
  66 0058 0746     		mov	r7, r0
  67 005a 3046     		mov	r0, r6
  68 005c FFF7FEFF 		bl	lv_draw_rect_dsc_init
  69 0060 3422     		movs	r2, #52
  70 0062 0021     		movs	r1, #0
  71 0064 2046     		mov	r0, r4
  72 0066 FFF7FEFF 		bl	lv_obj_get_style_prop
  73 006a 28B1     		cbz	r0, .L10
  74 006c 9DF83330 		ldrb	r3, [sp, #51]	@ zero_extendqisi2
  75 0070 43F00103 		orr	r3, r3, #1
  76 0074 8DF83330 		strb	r3, [sp, #51]
  77              	.L10:
  78 0078 3246     		mov	r2, r6
  79 007a 0021     		movs	r1, #0
  80 007c 2046     		mov	r0, r4
  81 007e FFF7FEFF 		bl	lv_obj_init_draw_rect_dsc
  82 0082 6922     		movs	r2, #105
  83 0084 0021     		movs	r1, #0
  84 0086 2046     		mov	r0, r4
  85 0088 FFF7FEFF 		bl	lv_obj_get_style_prop
  86 008c 6A22     		movs	r2, #106
  87 008e 0546     		mov	r5, r0
  88 0090 0021     		movs	r1, #0
  89 0092 2046     		mov	r0, r4
  90 0094 FFF7FEFF 		bl	lv_obj_get_style_prop
  91 0098 218B     		ldrh	r1, [r4, #24]
  92 009a B4F814C0 		ldrh	ip, [r4, #20]
  93 009e ABB2     		uxth	r3, r5
  94 00a0 ACEB030C 		sub	ip, ip, r3
  95 00a4 E58A     		ldrh	r5, [r4, #22]
  96 00a6 0B44     		add	r3, r3, r1
  97 00a8 618B     		ldrh	r1, [r4, #26]
  98 00aa 82B2     		uxth	r2, r0
  99 00ac AD1A     		subs	r5, r5, r2
 100 00ae 0A44     		add	r2, r2, r1
 101 00b0 0021     		movs	r1, #0
 102 00b2 0846     		mov	r0, r1
 103 00b4 63F30F00 		bfi	r0, r3, #0, #16
 104 00b8 6CF30F01 		bfi	r1, ip, #0, #16
 105 00bc 62F31F40 		bfi	r0, r2, #16, #16
 106 00c0 65F31F41 		bfi	r1, r5, #16, #16
 107 00c4 0DF14809 		add	r9, sp, #72
 108 00c8 0291     		str	r1, [sp, #8]
 109 00ca 0390     		str	r0, [sp, #12]
 110 00cc 3946     		mov	r1, r7
 111 00ce 4846     		mov	r0, r9
 112 00d0 FFF7FEFF 		bl	lv_obj_draw_dsc_init
 113 00d4 4FF00008 		mov	r8, #0
 114 00d8 D34B     		ldr	r3, .L78
 115 00da 1393     		str	r3, [sp, #76]
ARM GAS  /var/folders/lp/x54gwt890xv47sdkqj1k04q40000gn/T//ccn4yuDn.s 			page 3


 116 00dc 4A46     		mov	r2, r9
 117 00de 1A21     		movs	r1, #26
 118 00e0 02AD     		add	r5, sp, #8
 119 00e2 2046     		mov	r0, r4
 120 00e4 CDF85080 		str	r8, [sp, #80]
 121 00e8 1696     		str	r6, [sp, #88]
 122 00ea CDF87C80 		str	r8, [sp, #124]
 123 00ee 1595     		str	r5, [sp, #84]
 124 00f0 FFF7FEFF 		bl	lv_event_send
 125 00f4 1722     		movs	r2, #23
 126 00f6 4146     		mov	r1, r8
 127 00f8 2046     		mov	r0, r4
 128 00fa FFF7FEFF 		bl	lv_obj_get_style_prop
 129 00fe 10B1     		cbz	r0, .L11
 130 0100 BDF91030 		ldrsh	r3, [sp, #16]
 131 0104 63B9     		cbnz	r3, .L69
 132              	.L11:
 133 0106 2A46     		mov	r2, r5
 134 0108 3146     		mov	r1, r6
 135 010a 3846     		mov	r0, r7
 136 010c FFF7FEFF 		bl	lv_draw_rect
 137              	.L13:
 138 0110 4A46     		mov	r2, r9
 139 0112 1B21     		movs	r1, #27
 140 0114 2046     		mov	r0, r4
 141 0116 FFF7FEFF 		bl	lv_event_send
 142 011a 25B0     		add	sp, sp, #148
 143              		@ sp needed
 144 011c BDE8F08F 		pop	{r4, r5, r6, r7, r8, r9, r10, fp, pc}
 145              	.L69:
 146 0120 2A46     		mov	r2, r5
 147 0122 3146     		mov	r1, r6
 148 0124 3846     		mov	r0, r7
 149 0126 DDF820B0 		ldr	fp, [sp, #32]
 150 012a CDF82080 		str	r8, [sp, #32]
 151 012e FFF7FEFF 		bl	lv_draw_rect
 152 0132 1820     		movs	r0, #24
 153 0134 FFF7FEFF 		bl	lv_mem_buf_get
 154 0138 04F11401 		add	r1, r4, #20
 155 013c 8246     		mov	r10, r0
 156 013e BDF91020 		ldrsh	r2, [sp, #16]
 157 0142 4346     		mov	r3, r8
 158 0144 FFF7FEFF 		bl	lv_draw_mask_radius_init
 159 0148 5046     		mov	r0, r10
 160 014a 04F59071 		add	r1, r4, #288
 161 014e FFF7FEFF 		bl	lv_draw_mask_add
 162 0152 BBF1000F 		cmp	fp, #0
 163 0156 DBD0     		beq	.L13
 164 0158 2A46     		mov	r2, r5
 165 015a 3146     		mov	r1, r6
 166 015c 3846     		mov	r0, r7
 167 015e CDF820B0 		str	fp, [sp, #32]
 168 0162 8DF81380 		strb	r8, [sp, #19]
 169 0166 8DF83280 		strb	r8, [sp, #50]
 170 016a 8DF83A80 		strb	r8, [sp, #58]
 171 016e 8DF84680 		strb	r8, [sp, #70]
 172 0172 FFF7FEFF 		bl	lv_draw_rect
ARM GAS  /var/folders/lp/x54gwt890xv47sdkqj1k04q40000gn/T//ccn4yuDn.s 			page 4


 173 0176 CBE7     		b	.L13
 174              	.L68:
 175 0178 3046     		mov	r0, r6
 176 017a FFF7FEFF 		bl	lv_event_get_draw_ctx
 177 017e 02AD     		add	r5, sp, #8
 178 0180 0746     		mov	r7, r0
 179 0182 2A46     		mov	r2, r5
 180 0184 2046     		mov	r0, r4
 181 0186 6946     		mov	r1, sp
 182 0188 FFF7FEFF 		bl	lv_obj_get_scrollbar_area
 183 018c 6846     		mov	r0, sp
 184 018e FFF7FEFF 		bl	lv_area_get_size
 185 0192 20B9     		cbnz	r0, .L19
 186 0194 2846     		mov	r0, r5
 187 0196 FFF7FEFF 		bl	lv_area_get_size
 188 019a 0028     		cmp	r0, #0
 189 019c 5AD0     		beq	.L29
 190              	.L19:
 191 019e 04AE     		add	r6, sp, #16
 192 01a0 3046     		mov	r0, r6
 193 01a2 FFF7FEFF 		bl	lv_draw_rect_dsc_init
 194 01a6 2122     		movs	r2, #33
 195 01a8 4FF48031 		mov	r1, #65536
 196 01ac 2046     		mov	r0, r4
 197 01ae FFF7FEFF 		bl	lv_obj_get_style_prop
 198 01b2 C0B2     		uxtb	r0, r0
 199 01b4 0228     		cmp	r0, #2
 200 01b6 8DF81300 		strb	r0, [sp, #19]
 201 01ba 00F24681 		bhi	.L70
 202              	.L17:
 203 01be 3122     		movs	r2, #49
 204 01c0 4FF48031 		mov	r1, #65536
 205 01c4 2046     		mov	r0, r4
 206 01c6 FFF7FEFF 		bl	lv_obj_get_style_prop
 207 01ca C0B2     		uxtb	r0, r0
 208 01cc 0228     		cmp	r0, #2
 209 01ce 8DF83200 		strb	r0, [sp, #50]
 210 01d2 00F22B81 		bhi	.L71
 211              	.L20:
 212 01d6 4522     		movs	r2, #69
 213 01d8 4FF48031 		mov	r1, #65536
 214 01dc 2046     		mov	r0, r4
 215 01de FFF7FEFF 		bl	lv_obj_get_style_prop
 216 01e2 C0B2     		uxtb	r0, r0
 217 01e4 0228     		cmp	r0, #2
 218 01e6 8DF84600 		strb	r0, [sp, #70]
 219 01ea 00F20D81 		bhi	.L72
 220              	.L22:
 221 01ee 4FF48031 		mov	r1, #65536
 222 01f2 2046     		mov	r0, r4
 223 01f4 FFF7FEFF 		bl	lv_obj_get_style_opa_recursive
 224 01f8 FC28     		cmp	r0, #252
 225 01fa 40F2C080 		bls	.L24
 226 01fe 9DF84630 		ldrb	r3, [sp, #70]	@ zero_extendqisi2
 227 0202 9DF81320 		ldrb	r2, [sp, #19]	@ zero_extendqisi2
 228 0206 9DF83210 		ldrb	r1, [sp, #50]	@ zero_extendqisi2
 229              	.L25:
ARM GAS  /var/folders/lp/x54gwt890xv47sdkqj1k04q40000gn/T//ccn4yuDn.s 			page 5


 230 020a 1A43     		orrs	r2, r2, r3
 231 020c 1143     		orrs	r1, r1, r2
 232 020e 21D0     		beq	.L29
 233 0210 0B22     		movs	r2, #11
 234 0212 4FF48031 		mov	r1, #65536
 235 0216 2046     		mov	r0, r4
 236 0218 FFF7FEFF 		bl	lv_obj_get_style_prop
 237 021c 0DF14809 		add	r9, sp, #72
 238 0220 ADF81000 		strh	r0, [sp, #16]	@ movhi
 239 0224 3946     		mov	r1, r7
 240 0226 4846     		mov	r0, r9
 241 0228 FFF7FEFF 		bl	lv_obj_draw_dsc_init
 242 022c 7E4B     		ldr	r3, .L78
 243 022e 1393     		str	r3, [sp, #76]
 244 0230 0223     		movs	r3, #2
 245 0232 1493     		str	r3, [sp, #80]
 246 0234 6846     		mov	r0, sp
 247 0236 4FF48033 		mov	r3, #65536
 248 023a 1696     		str	r6, [sp, #88]
 249 023c 1F93     		str	r3, [sp, #124]
 250 023e FFF7FEFF 		bl	lv_area_get_size
 251 0242 0028     		cmp	r0, #0
 252 0244 40F02481 		bne	.L73
 253              	.L26:
 254 0248 2846     		mov	r0, r5
 255 024a FFF7FEFF 		bl	lv_area_get_size
 256 024e 0028     		cmp	r0, #0
 257 0250 40F0BA80 		bne	.L74
 258              	.L29:
 259 0254 1722     		movs	r2, #23
 260 0256 0021     		movs	r1, #0
 261 0258 2046     		mov	r0, r4
 262 025a FFF7FEFF 		bl	lv_obj_get_style_prop
 263 025e 0028     		cmp	r0, #0
 264 0260 40F0C480 		bne	.L75
 265              	.L30:
 266 0264 3422     		movs	r2, #52
 267 0266 0021     		movs	r1, #0
 268 0268 2046     		mov	r0, r4
 269 026a FFF7FEFF 		bl	lv_obj_get_style_prop
 270 026e 0028     		cmp	r0, #0
 271 0270 3FF4D8AE 		beq	.L1
 272 0274 0DF11009 		add	r9, sp, #16
 273 0278 0026     		movs	r6, #0
 274 027a 4846     		mov	r0, r9
 275 027c FFF7FEFF 		bl	lv_draw_rect_dsc_init
 276 0280 4A46     		mov	r2, r9
 277 0282 3146     		mov	r1, r6
 278 0284 2046     		mov	r0, r4
 279 0286 8DF81360 		strb	r6, [sp, #19]
 280 028a 8DF82A60 		strb	r6, [sp, #42]
 281 028e 8DF83A60 		strb	r6, [sp, #58]
 282 0292 8DF84660 		strb	r6, [sp, #70]
 283 0296 FFF7FEFF 		bl	lv_obj_init_draw_rect_dsc
 284 029a 3146     		mov	r1, r6
 285 029c 6922     		movs	r2, #105
 286 029e 2046     		mov	r0, r4
ARM GAS  /var/folders/lp/x54gwt890xv47sdkqj1k04q40000gn/T//ccn4yuDn.s 			page 6


 287 02a0 FFF7FEFF 		bl	lv_obj_get_style_prop
 288 02a4 3146     		mov	r1, r6
 289 02a6 8046     		mov	r8, r0
 290 02a8 6A22     		movs	r2, #106
 291 02aa 2046     		mov	r0, r4
 292 02ac FFF7FEFF 		bl	lv_obj_get_style_prop
 293 02b0 228B     		ldrh	r2, [r4, #24]
 294 02b2 B4F814C0 		ldrh	ip, [r4, #20]
 295 02b6 E18A     		ldrh	r1, [r4, #22]
 296 02b8 1FFA88F3 		uxth	r3, r8
 297 02bc ACEB030C 		sub	ip, ip, r3
 298 02c0 1344     		add	r3, r3, r2
 299 02c2 628B     		ldrh	r2, [r4, #26]
 300 02c4 80B2     		uxth	r0, r0
 301 02c6 091A     		subs	r1, r1, r0
 302 02c8 1044     		add	r0, r0, r2
 303 02ca 3246     		mov	r2, r6
 304 02cc 6CF30F02 		bfi	r2, ip, #0, #16
 305 02d0 61F31F42 		bfi	r2, r1, #16, #16
 306 02d4 0292     		str	r2, [sp, #8]
 307 02d6 3246     		mov	r2, r6
 308 02d8 63F30F02 		bfi	r2, r3, #0, #16
 309 02dc 60F31F42 		bfi	r2, r0, #16, #16
 310 02e0 3946     		mov	r1, r7
 311 02e2 12A8     		add	r0, sp, #72
 312 02e4 0392     		str	r2, [sp, #12]
 313 02e6 FFF7FEFF 		bl	lv_obj_draw_dsc_init
 314 02ea 4F4B     		ldr	r3, .L78
 315 02ec 1393     		str	r3, [sp, #76]
 316 02ee 12AA     		add	r2, sp, #72
 317 02f0 0123     		movs	r3, #1
 318 02f2 1A21     		movs	r1, #26
 319 02f4 2046     		mov	r0, r4
 320 02f6 1493     		str	r3, [sp, #80]
 321 02f8 CDE91559 		strd	r5, r9, [sp, #84]
 322 02fc 1F96     		str	r6, [sp, #124]
 323 02fe FFF7FEFF 		bl	lv_event_send
 324 0302 2A46     		mov	r2, r5
 325 0304 4946     		mov	r1, r9
 326 0306 3846     		mov	r0, r7
 327 0308 FFF7FEFF 		bl	lv_draw_rect
 328 030c 12AA     		add	r2, sp, #72
 329 030e 1B21     		movs	r1, #27
 330 0310 2046     		mov	r0, r4
 331 0312 FFF7FEFF 		bl	lv_event_send
 332 0316 85E6     		b	.L1
 333              	.L4:
 334 0318 0146     		mov	r1, r0
 335 031a 0B22     		movs	r2, #11
 336 031c 2046     		mov	r0, r4
 337 031e FFF7FEFF 		bl	lv_obj_get_style_prop
 338 0322 6922     		movs	r2, #105
 339 0324 0FFA80F8 		sxth	r8, r0
 340 0328 3146     		mov	r1, r6
 341 032a 2046     		mov	r0, r4
 342 032c FFF7FEFF 		bl	lv_obj_get_style_prop
 343 0330 6A22     		movs	r2, #106
ARM GAS  /var/folders/lp/x54gwt890xv47sdkqj1k04q40000gn/T//ccn4yuDn.s 			page 7


 344 0332 0746     		mov	r7, r0
 345 0334 3146     		mov	r1, r6
 346 0336 2046     		mov	r0, r4
 347 0338 FFF7FEFF 		bl	lv_obj_get_style_prop
 348 033c B4F814C0 		ldrh	ip, [r4, #20]
 349 0340 81B2     		uxth	r1, r0
 350 0342 208B     		ldrh	r0, [r4, #24]
 351 0344 BBB2     		uxth	r3, r7
 352 0346 ACEB030C 		sub	ip, ip, r3
 353 034a E78A     		ldrh	r7, [r4, #22]
 354 034c 0344     		add	r3, r3, r0
 355 034e 608B     		ldrh	r0, [r4, #26]
 356 0350 7F1A     		subs	r7, r7, r1
 357 0352 0144     		add	r1, r1, r0
 358 0354 3046     		mov	r0, r6
 359 0356 6CF30F00 		bfi	r0, ip, #0, #16
 360 035a 67F31F40 		bfi	r0, r7, #16, #16
 361 035e 1290     		str	r0, [sp, #72]
 362 0360 3046     		mov	r0, r6
 363 0362 63F30F00 		bfi	r0, r3, #0, #16
 364 0366 61F31F40 		bfi	r0, r1, #16, #16
 365 036a 1390     		str	r0, [sp, #76]
 366 036c 4246     		mov	r2, r8
 367 036e 6868     		ldr	r0, [r5, #4]
 368 0370 12A9     		add	r1, sp, #72
 369 0372 FFF7FEFF 		bl	_lv_area_is_in
 370 0376 A8B9     		cbnz	r0, .L5
 371              	.L64:
 372 0378 0123     		movs	r3, #1
 373 037a 2B70     		strb	r3, [r5]
 374 037c 52E6     		b	.L1
 375              	.L24:
 376 037e 9DF81320 		ldrb	r2, [sp, #19]	@ zero_extendqisi2
 377 0382 12FB00F2 		smulbb	r2, r2, r0
 378 0386 1312     		asrs	r3, r2, #8
 379 0388 00FB03F3 		mul	r3, r0, r3
 380 038c C3F30723 		ubfx	r3, r3, #8, #8
 381 0390 C2F30722 		ubfx	r2, r2, #8, #8
 382 0394 8DF81320 		strb	r2, [sp, #19]
 383 0398 8DF83230 		strb	r3, [sp, #50]
 384 039c 8DF84630 		strb	r3, [sp, #70]
 385 03a0 1946     		mov	r1, r3
 386 03a2 32E7     		b	.L25
 387              	.L5:
 388 03a4 2122     		movs	r2, #33
 389 03a6 3146     		mov	r1, r6
 390 03a8 2046     		mov	r0, r4
 391 03aa FFF7FEFF 		bl	lv_obj_get_style_prop
 392 03ae C0B2     		uxtb	r0, r0
 393 03b0 FC28     		cmp	r0, #252
 394 03b2 E1D9     		bls	.L64
 395 03b4 6022     		movs	r2, #96
 396 03b6 3146     		mov	r1, r6
 397 03b8 2046     		mov	r0, r4
 398 03ba FFF7FEFF 		bl	lv_obj_get_style_prop
 399 03be C3B2     		uxtb	r3, r0
 400 03c0 FC2B     		cmp	r3, #252
ARM GAS  /var/folders/lp/x54gwt890xv47sdkqj1k04q40000gn/T//ccn4yuDn.s 			page 8


 401 03c2 D9D9     		bls	.L64
 402 03c4 2E70     		strb	r6, [r5]
 403 03c6 2DE6     		b	.L1
 404              	.L74:
 405 03c8 4A46     		mov	r2, r9
 406 03ca 1A21     		movs	r1, #26
 407 03cc 2046     		mov	r0, r4
 408 03ce 1595     		str	r5, [sp, #84]
 409 03d0 FFF7FEFF 		bl	lv_event_send
 410 03d4 3146     		mov	r1, r6
 411 03d6 2A46     		mov	r2, r5
 412 03d8 3846     		mov	r0, r7
 413 03da 1595     		str	r5, [sp, #84]
 414 03dc FFF7FEFF 		bl	lv_draw_rect
 415 03e0 4A46     		mov	r2, r9
 416 03e2 1B21     		movs	r1, #27
 417 03e4 2046     		mov	r0, r4
 418 03e6 FFF7FEFF 		bl	lv_event_send
 419 03ea 33E7     		b	.L29
 420              	.L75:
 421 03ec 04F59070 		add	r0, r4, #288
 422 03f0 FFF7FEFF 		bl	lv_draw_mask_remove_custom
 423 03f4 0646     		mov	r6, r0
 424 03f6 0028     		cmp	r0, #0
 425 03f8 3FF434AF 		beq	.L30
 426 03fc FFF7FEFF 		bl	lv_draw_mask_free_param
 427 0400 3046     		mov	r0, r6
 428 0402 FFF7FEFF 		bl	lv_mem_buf_release
 429 0406 2DE7     		b	.L30
 430              	.L72:
 431 0408 4022     		movs	r2, #64
 432 040a 4FF48031 		mov	r1, #65536
 433 040e 2046     		mov	r0, r4
 434 0410 FFF7FEFF 		bl	lv_obj_get_style_prop
 435 0414 00B2     		sxth	r0, r0
 436 0416 0028     		cmp	r0, #0
 437 0418 ADF83E00 		strh	r0, [sp, #62]	@ movhi
 438 041c 1EDC     		bgt	.L76
 439 041e 0023     		movs	r3, #0
 440 0420 8DF84630 		strb	r3, [sp, #70]
 441 0424 E3E6     		b	.L22
 442              	.L79:
 443 0426 00BF     		.align	2
 444              	.L78:
 445 0428 00000000 		.word	lv_obj_class
 446              	.L71:
 447 042c 3222     		movs	r2, #50
 448 042e 4FF48031 		mov	r1, #65536
 449 0432 2046     		mov	r0, r4
 450 0434 FFF7FEFF 		bl	lv_obj_get_style_prop
 451 0438 00B2     		sxth	r0, r0
 452 043a 0028     		cmp	r0, #0
 453 043c ADF83000 		strh	r0, [sp, #48]	@ movhi
 454 0440 1DDC     		bgt	.L77
 455 0442 0023     		movs	r3, #0
 456 0444 8DF83230 		strb	r3, [sp, #50]
 457 0448 C5E6     		b	.L20
ARM GAS  /var/folders/lp/x54gwt890xv47sdkqj1k04q40000gn/T//ccn4yuDn.s 			page 9


 458              	.L70:
 459 044a 2022     		movs	r2, #32
 460 044c 4FF48031 		mov	r1, #65536
 461 0450 2046     		mov	r0, r4
 462 0452 FFF7FEFF 		bl	lv_obj_get_style_prop
 463 0456 ADF81400 		strh	r0, [sp, #20]	@ movhi
 464 045a B0E6     		b	.L17
 465              	.L76:
 466 045c 4322     		movs	r2, #67
 467 045e 4FF48031 		mov	r1, #65536
 468 0462 2046     		mov	r0, r4
 469 0464 FFF7FEFF 		bl	lv_obj_get_style_prop
 470 0468 4422     		movs	r2, #68
 471 046a ADF84400 		strh	r0, [sp, #68]	@ movhi
 472 046e 4FF48031 		mov	r1, #65536
 473 0472 2046     		mov	r0, r4
 474 0474 FFF7FEFF 		bl	lv_obj_get_style_prop
 475 0478 ADF83C00 		strh	r0, [sp, #60]	@ movhi
 476 047c B7E6     		b	.L22
 477              	.L77:
 478 047e 3022     		movs	r2, #48
 479 0480 4FF48031 		mov	r1, #65536
 480 0484 2046     		mov	r0, r4
 481 0486 FFF7FEFF 		bl	lv_obj_get_style_prop
 482 048a ADF82E00 		strh	r0, [sp, #46]	@ movhi
 483 048e A2E6     		b	.L20
 484              	.L73:
 485 0490 4A46     		mov	r2, r9
 486 0492 1A21     		movs	r1, #26
 487 0494 2046     		mov	r0, r4
 488 0496 CDF854D0 		str	sp, [sp, #84]
 489 049a FFF7FEFF 		bl	lv_event_send
 490 049e 6A46     		mov	r2, sp
 491 04a0 3146     		mov	r1, r6
 492 04a2 3846     		mov	r0, r7
 493 04a4 FFF7FEFF 		bl	lv_draw_rect
 494 04a8 4A46     		mov	r2, r9
 495 04aa 1B21     		movs	r1, #27
 496 04ac 2046     		mov	r0, r4
 497 04ae FFF7FEFF 		bl	lv_event_send
 498 04b2 C9E6     		b	.L26
 500              		.section	.text.lv_obj_destructor,"ax",%progbits
 501              		.align	1
 502              		.p2align 2,,3
 503              		.syntax unified
 504              		.thumb
 505              		.thumb_func
 507              	lv_obj_destructor:
 508              		@ args = 0, pretend = 0, frame = 0
 509              		@ frame_needed = 0, uses_anonymous_args = 0
 510 0000 10B5     		push	{r4, lr}
 511 0002 0846     		mov	r0, r1
 512 0004 0C46     		mov	r4, r1
 513 0006 FFF7FEFF 		bl	_lv_event_mark_deleted
 514 000a 0020     		movs	r0, #0
 515 000c FFF7FEFF 		bl	lv_obj_enable_style_refresh
 516 0010 154A     		ldr	r2, .L99
ARM GAS  /var/folders/lp/x54gwt890xv47sdkqj1k04q40000gn/T//ccn4yuDn.s 			page 10


 517 0012 0021     		movs	r1, #0
 518 0014 2046     		mov	r0, r4
 519 0016 FFF7FEFF 		bl	lv_obj_remove_style
 520 001a 0120     		movs	r0, #1
 521 001c FFF7FEFF 		bl	lv_obj_enable_style_refresh
 522 0020 0021     		movs	r1, #0
 523 0022 2046     		mov	r0, r4
 524 0024 FFF7FEFF 		bl	lv_anim_del
 525 0028 A368     		ldr	r3, [r4, #8]
 526 002a CBB1     		cbz	r3, .L80
 527 002c 9A68     		ldr	r2, [r3, #8]
 528 002e 22B1     		cbz	r2, .L83
 529 0030 2046     		mov	r0, r4
 530 0032 FFF7FEFF 		bl	lv_group_remove_obj
 531 0036 A368     		ldr	r3, [r4, #8]
 532 0038 93B1     		cbz	r3, .L80
 533              	.L83:
 534 003a 1868     		ldr	r0, [r3]
 535 003c 88B1     		cbz	r0, .L98
 536 003e FFF7FEFF 		bl	lv_mem_free
 537 0042 A068     		ldr	r0, [r4, #8]
 538 0044 0023     		movs	r3, #0
 539 0046 0360     		str	r3, [r0]
 540              	.L86:
 541 0048 C368     		ldr	r3, [r0, #12]
 542 004a 2BB1     		cbz	r3, .L87
 543 004c 1846     		mov	r0, r3
 544 004e FFF7FEFF 		bl	lv_mem_free
 545 0052 A068     		ldr	r0, [r4, #8]
 546 0054 0023     		movs	r3, #0
 547 0056 C360     		str	r3, [r0, #12]
 548              	.L87:
 549 0058 FFF7FEFF 		bl	lv_mem_free
 550 005c 0023     		movs	r3, #0
 551 005e A360     		str	r3, [r4, #8]
 552              	.L80:
 553 0060 10BD     		pop	{r4, pc}
 554              	.L98:
 555 0062 1846     		mov	r0, r3
 556 0064 F0E7     		b	.L86
 557              	.L100:
 558 0066 00BF     		.align	2
 559              	.L99:
 560 0068 FFFF0F00 		.word	1048575
 562              		.section	.text.lv_obj_constructor,"ax",%progbits
 563              		.align	1
 564              		.p2align 2,,3
 565              		.syntax unified
 566              		.thumb
 567              		.thumb_func
 569              	lv_obj_constructor:
 570              		@ args = 0, pretend = 0, frame = 0
 571              		@ frame_needed = 0, uses_anonymous_args = 0
 572 0000 2DE9F041 		push	{r4, r5, r6, r7, r8, lr}
 573 0004 4E68     		ldr	r6, [r1, #4]
 574 0006 0C46     		mov	r4, r1
 575 0008 2EB3     		cbz	r6, .L103
ARM GAS  /var/folders/lp/x54gwt890xv47sdkqj1k04q40000gn/T//ccn4yuDn.s 			page 11


 576 000a 3046     		mov	r0, r6
 577 000c FFF7FEFF 		bl	lv_obj_get_scroll_left
 578 0010 0746     		mov	r7, r0
 579 0012 3046     		mov	r0, r6
 580 0014 FFF7FEFF 		bl	lv_obj_get_scroll_top
 581 0018 1022     		movs	r2, #16
 582 001a 8046     		mov	r8, r0
 583 001c 0021     		movs	r1, #0
 584 001e 3046     		mov	r0, r6
 585 0020 F58A     		ldrh	r5, [r6, #22]
 586 0022 FFF7FEFF 		bl	lv_obj_get_style_prop
 587 0026 2B18     		adds	r3, r5, r0
 588 0028 A3EB0803 		sub	r3, r3, r8
 589 002c 9BB2     		uxth	r3, r3
 590 002e 5A1E     		subs	r2, r3, #1
 591 0030 E382     		strh	r3, [r4, #22]	@ movhi
 592 0032 6283     		strh	r2, [r4, #26]	@ movhi
 593 0034 0021     		movs	r1, #0
 594 0036 1222     		movs	r2, #18
 595 0038 3046     		mov	r0, r6
 596 003a B58A     		ldrh	r5, [r6, #20]
 597 003c FFF7FEFF 		bl	lv_obj_get_style_prop
 598 0040 0544     		add	r5, r5, r0
 599 0042 E81B     		subs	r0, r5, r7
 600 0044 80B2     		uxth	r0, r0
 601 0046 4BF67633 		movw	r3, #47990
 602 004a 421E     		subs	r2, r0, #1
 603 004c A082     		strh	r0, [r4, #20]	@ movhi
 604 004e 2283     		strh	r2, [r4, #24]	@ movhi
 605 0050 E361     		str	r3, [r4, #28]
 606 0052 BDE8F081 		pop	{r4, r5, r6, r7, r8, pc}
 607              	.L103:
 608 0056 41F67603 		movw	r3, #6262
 609 005a E361     		str	r3, [r4, #28]
 610 005c BDE8F081 		pop	{r4, r5, r6, r7, r8, pc}
 612              		.section	.text.lv_obj_set_state,"ax",%progbits
 613              		.align	1
 614              		.p2align 2,,3
 615              		.syntax unified
 616              		.thumb
 617              		.thumb_func
 619              	lv_obj_set_state:
 620              		@ args = 0, pretend = 0, frame = 40
 621              		@ frame_needed = 0, uses_anonymous_args = 0
 622 0000 2DE9F04F 		push	{r4, r5, r6, r7, r8, r9, r10, fp, lr}
 623 0004 B0F820B0 		ldrh	fp, [r0, #32]
 624 0008 8B45     		cmp	fp, r1
 625 000a 8DB0     		sub	sp, sp, #52
 626 000c 08D0     		beq	.L105
 627 000e 0184     		strh	r1, [r0, #32]	@ movhi
 628 0010 0A46     		mov	r2, r1
 629 0012 0C46     		mov	r4, r1
 630 0014 5946     		mov	r1, fp
 631 0016 0646     		mov	r6, r0
 632 0018 FFF7FEFF 		bl	_lv_obj_style_state_compare
 633 001c 8146     		mov	r9, r0
 634 001e 10B9     		cbnz	r0, .L170
ARM GAS  /var/folders/lp/x54gwt890xv47sdkqj1k04q40000gn/T//ccn4yuDn.s 			page 12


 635              	.L105:
 636 0020 0DB0     		add	sp, sp, #52
 637              		@ sp needed
 638 0022 BDE8F08F 		pop	{r4, r5, r6, r7, r8, r9, r10, fp, pc}
 639              	.L170:
 640 0026 4FF42070 		mov	r0, #640
 641 002a FFF7FEFF 		bl	lv_mem_buf_get
 642 002e 4FF42071 		mov	r1, #640
 643 0032 0590     		str	r0, [sp, #20]
 644 0034 FFF7FEFF 		bl	lv_memset_00
 645 0038 738C     		ldrh	r3, [r6, #34]
 646 003a 13F47C7F 		tst	r3, #1008
 647 003e 58D0     		beq	.L137
 648 0040 0025     		movs	r5, #0
 649 0042 E343     		mvns	r3, r4
 650 0044 CDE90AB9 		strd	fp, r9, [sp, #40]
 651 0048 0693     		str	r3, [sp, #24]
 652 004a A846     		mov	r8, r5
 653 004c 0396     		str	r6, [sp, #12]
 654 004e A146     		mov	r9, r4
 655              	.L135:
 656 0050 039B     		ldr	r3, [sp, #12]
 657 0052 DE68     		ldr	r6, [r3, #12]
 658 0054 06EBC504 		add	r4, r6, r5, lsl #3
 659 0058 EF00     		lsls	r7, r5, #3
 660 005a 6068     		ldr	r0, [r4, #4]
 661 005c 20F07F40 		bic	r0, r0, #-16777216
 662 0060 FFF7FEFF 		bl	lv_obj_style_get_selector_state
 663 0064 039B     		ldr	r3, [sp, #12]
 664 0066 0490     		str	r0, [sp, #16]
 665 0068 DB68     		ldr	r3, [r3, #12]
 666 006a 3B44     		add	r3, r3, r7
 667 006c 8246     		mov	r10, r0
 668 006e 5868     		ldr	r0, [r3, #4]
 669 0070 20F07F40 		bic	r0, r0, #-16777216
 670 0074 FFF7FEFF 		bl	lv_obj_style_get_selector_part
 671 0078 069A     		ldr	r2, [sp, #24]
 672 007a 1AEA020F 		tst	r10, r2
 673 007e 8346     		mov	fp, r0
 674 0080 27D1     		bne	.L112
 675 0082 E379     		ldrb	r3, [r4, #7]	@ zero_extendqisi2
 676 0084 13F00203 		ands	r3, r3, #2
 677 0088 23D1     		bne	.L112
 678 008a F259     		ldr	r2, [r6, r7]
 679 008c 9188     		ldrh	r1, [r2, #4]
 680 008e 1668     		ldr	r6, [r2]
 681 0090 D279     		ldrb	r2, [r2, #7]	@ zero_extendqisi2
 682 0092 4FF6FF70 		movw	r0, #65535
 683 0096 8142     		cmp	r1, r0
 684 0098 42D0     		beq	.L171
 685 009a D2B1     		cbz	r2, .L112
 686 009c 012A     		cmp	r2, #1
 687 009e 13D0     		beq	.L118
 688 00a0 06EB8201 		add	r1, r6, r2, lsl #2
 689 00a4 02E0     		b	.L121
 690              	.L119:
 691 00a6 0133     		adds	r3, r3, #1
ARM GAS  /var/folders/lp/x54gwt890xv47sdkqj1k04q40000gn/T//ccn4yuDn.s 			page 13


 692 00a8 9A42     		cmp	r2, r3
 693 00aa 12D0     		beq	.L112
 694              	.L121:
 695 00ac 31F8020B 		ldrh	r0, [r1], #2
 696 00b0 C0F30D07 		ubfx	r7, r0, #0, #14
 697 00b4 672F     		cmp	r7, #103
 698 00b6 F6D1     		bne	.L119
 699 00b8 0704     		lsls	r7, r0, #16
 700 00ba 0AD4     		bmi	.L112
 701 00bc 4104     		lsls	r1, r0, #17
 702 00be 00F1D880 		bmi	.L120
 703 00c2 56F82360 		ldr	r6, [r6, r3, lsl #2]
 704 00c6 41E0     		b	.L116
 705              	.L118:
 706 00c8 C1F30D03 		ubfx	r3, r1, #0, #14
 707 00cc 672B     		cmp	r3, #103
 708 00ce 00F0CA80 		beq	.L172
 709              	.L112:
 710 00d2 039B     		ldr	r3, [sp, #12]
 711 00d4 5B8C     		ldrh	r3, [r3, #34]
 712 00d6 0135     		adds	r5, r5, #1
 713 00d8 C3F30513 		ubfx	r3, r3, #4, #6
 714 00dc 9D42     		cmp	r5, r3
 715 00de B7D3     		bcc	.L135
 716              	.L168:
 717 00e0 4C46     		mov	r4, r9
 718 00e2 DDF828B0 		ldr	fp, [sp, #40]
 719 00e6 039E     		ldr	r6, [sp, #12]
 720 00e8 DDF82C90 		ldr	r9, [sp, #44]
 721 00ec B8F1000F 		cmp	r8, #0
 722 00f0 79D1     		bne	.L134
 723              	.L137:
 724 00f2 0598     		ldr	r0, [sp, #20]
 725 00f4 FFF7FEFF 		bl	lv_mem_buf_release
 726 00f8 B9F1010F 		cmp	r9, #1
 727 00fc 00F0BE80 		beq	.L173
 728 0100 B9F1030F 		cmp	r9, #3
 729 0104 00F0C080 		beq	.L174
 730 0108 B9F1020F 		cmp	r9, #2
 731 010c 88D1     		bne	.L105
 732 010e 3046     		mov	r0, r6
 733 0110 FFF7FEFF 		bl	lv_obj_invalidate
 734 0114 3046     		mov	r0, r6
 735 0116 0DB0     		add	sp, sp, #52
 736              		@ sp needed
 737 0118 BDE8F04F 		pop	{r4, r5, r6, r7, r8, r9, r10, fp, lr}
 738 011c FFF7FEBF 		b	lv_obj_refresh_ext_draw_size
 739              	.L171:
 740 0120 002A     		cmp	r2, #0
 741 0122 D6D0     		beq	.L112
 742 0124 3046     		mov	r0, r6
 743 0126 03E0     		b	.L117
 744              	.L114:
 745 0128 9A42     		cmp	r2, r3
 746 012a 00F10800 		add	r0, r0, #8
 747 012e D0D0     		beq	.L112
 748              	.L117:
ARM GAS  /var/folders/lp/x54gwt890xv47sdkqj1k04q40000gn/T//ccn4yuDn.s 			page 14


 749 0130 36F83310 		ldrh	r1, [r6, r3, lsl #3]
 750 0134 C1F30D07 		ubfx	r7, r1, #0, #14
 751 0138 672F     		cmp	r7, #103
 752 013a 03F10103 		add	r3, r3, #1
 753 013e F3D1     		bne	.L114
 754 0140 0A04     		lsls	r2, r1, #16
 755 0142 C6D4     		bmi	.L112
 756 0144 4B04     		lsls	r3, r1, #17
 757 0146 00F19480 		bmi	.L120
 758 014a 4668     		ldr	r6, [r0, #4]
 759              	.L116:
 760 014c 3268     		ldr	r2, [r6]
 761 014e 1388     		ldrh	r3, [r2]
 762 0150 002B     		cmp	r3, #0
 763 0152 00F0A380 		beq	.L175
 764 0156 B8F1000F 		cmp	r8, #0
 765 015a 00F08180 		beq	.L176
 766 015e 4FF0000A 		mov	r10, #0
 767 0162 0994     		str	r4, [sp, #36]
 768 0164 0795     		str	r5, [sp, #28]
 769 0166 5746     		mov	r7, r10
 770 0168 CDF82090 		str	r9, [sp, #32]
 771              	.L128:
 772 016c 4FF0000A 		mov	r10, #0
 773 0170 3D46     		mov	r5, r7
 774 0172 059C     		ldr	r4, [sp, #20]
 775 0174 5746     		mov	r7, r10
 776 0176 02E0     		b	.L126
 777              	.L124:
 778 0178 0137     		adds	r7, r7, #1
 779 017a 4745     		cmp	r7, r8
 780 017c 46D0     		beq	.L177
 781              	.L126:
 782 017e D4F80490 		ldr	r9, [r4, #4]
 783 0182 4846     		mov	r0, r9
 784 0184 FFF7FEFF 		bl	lv_obj_style_get_selector_state
 785 0188 8246     		mov	r10, r0
 786 018a 4846     		mov	r0, r9
 787 018c FFF7FEFF 		bl	lv_obj_style_get_selector_part
 788 0190 3268     		ldr	r2, [r6]
 789 0192 B4F808C0 		ldrh	ip, [r4, #8]
 790 0196 515B     		ldrh	r1, [r2, r5]
 791 0198 8C45     		cmp	ip, r1
 792 019a 02EB050E 		add	lr, r2, r5
 793 019e 04F11404 		add	r4, r4, #20
 794 01a2 E9D1     		bne	.L124
 795 01a4 8345     		cmp	fp, r0
 796 01a6 E7D1     		bne	.L124
 797 01a8 049B     		ldr	r3, [sp, #16]
 798 01aa 5345     		cmp	r3, r10
 799 01ac E4D8     		bhi	.L124
 800 01ae BA46     		mov	r10, r7
 801 01b0 D045     		cmp	r8, r10
 802 01b2 7046     		mov	r0, lr
 803 01b4 2F46     		mov	r7, r5
 804 01b6 7AD0     		beq	.L166
 805 01b8 0237     		adds	r7, r7, #2
ARM GAS  /var/folders/lp/x54gwt890xv47sdkqj1k04q40000gn/T//ccn4yuDn.s 			page 15


 806 01ba D35B     		ldrh	r3, [r2, r7]
 807 01bc 002B     		cmp	r3, #0
 808 01be D5D1     		bne	.L128
 809 01c0 DDE90759 		ldrd	r5, r9, [sp, #28]
 810              	.L129:
 811 01c4 039B     		ldr	r3, [sp, #12]
 812 01c6 5B8C     		ldrh	r3, [r3, #34]
 813 01c8 0135     		adds	r5, r5, #1
 814 01ca C3F30513 		ubfx	r3, r3, #4, #6
 815 01ce AB42     		cmp	r3, r5
 816 01d0 86D9     		bls	.L168
 817 01d2 B8F1200F 		cmp	r8, #32
 818 01d6 7FF43BAF 		bne	.L135
 819 01da 4C46     		mov	r4, r9
 820 01dc DDF828B0 		ldr	fp, [sp, #40]
 821 01e0 039E     		ldr	r6, [sp, #12]
 822 01e2 DDF82C90 		ldr	r9, [sp, #44]
 823              	.L134:
 824 01e6 059D     		ldr	r5, [sp, #20]
 825 01e8 08EB8808 		add	r8, r8, r8, lsl #2
 826 01ec 05EB8808 		add	r8, r5, r8, lsl #2
 827              	.L136:
 828 01f0 6868     		ldr	r0, [r5, #4]
 829 01f2 FFF7FEFF 		bl	lv_obj_style_get_selector_part
 830 01f6 0095     		str	r5, [sp]
 831 01f8 0146     		mov	r1, r0
 832 01fa 2346     		mov	r3, r4
 833 01fc 5A46     		mov	r2, fp
 834 01fe 3046     		mov	r0, r6
 835 0200 1435     		adds	r5, r5, #20
 836 0202 FFF7FEFF 		bl	_lv_obj_style_create_transition
 837 0206 4545     		cmp	r5, r8
 838 0208 F2D1     		bne	.L136
 839 020a 72E7     		b	.L137
 840              	.L177:
 841 020c AA46     		mov	r10, r5
 842 020e DDE90759 		ldrd	r5, r9, [sp, #28]
 843 0212 099C     		ldr	r4, [sp, #36]
 844 0214 7046     		mov	r0, lr
 845              	.L127:
 846 0216 08EB8801 		add	r1, r8, r8, lsl #2
 847 021a 059F     		ldr	r7, [sp, #20]
 848 021c F368     		ldr	r3, [r6, #12]
 849 021e 27F82130 		strh	r3, [r7, r1, lsl #2]	@ movhi
 850 0222 07EB8101 		add	r1, r7, r1, lsl #2
 851 0226 3369     		ldr	r3, [r6, #16]
 852 0228 4B80     		strh	r3, [r1, #2]	@ movhi
 853 022a 0388     		ldrh	r3, [r0]
 854 022c B068     		ldr	r0, [r6, #8]
 855 022e 0B81     		strh	r3, [r1, #8]	@ movhi
 856 0230 0AF1020A 		add	r10, r10, #2
 857 0234 6368     		ldr	r3, [r4, #4]
 858 0236 32F80A20 		ldrh	r2, [r2, r10]
 859 023a C860     		str	r0, [r1, #12]
 860 023c C3F31703 		ubfx	r3, r3, #0, #24
 861 0240 7068     		ldr	r0, [r6, #4]
 862 0242 0861     		str	r0, [r1, #16]
ARM GAS  /var/folders/lp/x54gwt890xv47sdkqj1k04q40000gn/T//ccn4yuDn.s 			page 16


 863 0244 08F10108 		add	r8, r8, #1
 864 0248 4B60     		str	r3, [r1, #4]
 865 024a 002A     		cmp	r2, #0
 866 024c BAD0     		beq	.L129
 867 024e B8F1200F 		cmp	r8, #32
 868 0252 B7D0     		beq	.L129
 869 0254 0994     		str	r4, [sp, #36]
 870 0256 0795     		str	r5, [sp, #28]
 871 0258 5746     		mov	r7, r10
 872 025a CDF82090 		str	r9, [sp, #32]
 873 025e 85E7     		b	.L128
 874              	.L176:
 875 0260 C246     		mov	r10, r8
 876 0262 1046     		mov	r0, r2
 877 0264 D7E7     		b	.L127
 878              	.L172:
 879 0266 0A04     		lsls	r2, r1, #16
 880 0268 3FF533AF 		bmi	.L112
 881 026c 4B04     		lsls	r3, r1, #17
 882 026e 7FF56DAF 		bpl	.L116
 883              	.L120:
 884 0272 6720     		movs	r0, #103
 885 0274 FFF7FEFF 		bl	lv_style_prop_get_default
 886 0278 0646     		mov	r6, r0
 887 027a 67E7     		b	.L116
 888              	.L173:
 889 027c 3046     		mov	r0, r6
 890 027e 0DB0     		add	sp, sp, #52
 891              		@ sp needed
 892 0280 BDE8F04F 		pop	{r4, r5, r6, r7, r8, r9, r10, fp, lr}
 893 0284 FFF7FEBF 		b	lv_obj_invalidate
 894              	.L174:
 895 0288 4FF6FF72 		movw	r2, #65535
 896 028c 4FF47021 		mov	r1, #983040
 897 0290 3046     		mov	r0, r6
 898 0292 0DB0     		add	sp, sp, #52
 899              		@ sp needed
 900 0294 BDE8F04F 		pop	{r4, r5, r6, r7, r8, r9, r10, fp, lr}
 901 0298 FFF7FEBF 		b	lv_obj_refresh_style
 902              	.L175:
 903 029c 039B     		ldr	r3, [sp, #12]
 904 029e 5B8C     		ldrh	r3, [r3, #34]
 905 02a0 0135     		adds	r5, r5, #1
 906 02a2 C3F30513 		ubfx	r3, r3, #4, #6
 907 02a6 AB42     		cmp	r3, r5
 908 02a8 3FF6D2AE 		bhi	.L135
 909 02ac 18E7     		b	.L168
 910              	.L166:
 911 02ae 099C     		ldr	r4, [sp, #36]
 912 02b0 079D     		ldr	r5, [sp, #28]
 913 02b2 DDF82090 		ldr	r9, [sp, #32]
 914 02b6 BA46     		mov	r10, r7
 915 02b8 ADE7     		b	.L127
 917 02ba 00BF     		.section	.text.obj_valid_child.isra.0,"ax",%progbits
 918              		.align	1
 919              		.p2align 2,,3
 920              		.syntax unified
ARM GAS  /var/folders/lp/x54gwt890xv47sdkqj1k04q40000gn/T//ccn4yuDn.s 			page 17


 921              		.thumb
 922              		.thumb_func
 924              	obj_valid_child.isra.0:
 925              		@ args = 0, pretend = 0, frame = 0
 926              		@ frame_needed = 0, uses_anonymous_args = 0
 927 0000 A8B1     		cbz	r0, .L186
 928 0002 F8B5     		push	{r3, r4, r5, r6, r7, lr}
 929 0004 4768     		ldr	r7, [r0, #4]
 930 0006 9FB1     		cbz	r7, .L182
 931 0008 0568     		ldr	r5, [r0]
 932 000a 0C46     		mov	r4, r1
 933 000c 0026     		movs	r6, #0
 934 000e 043D     		subs	r5, r5, #4
 935              	.L180:
 936 0010 55F8043F 		ldr	r3, [r5, #4]!
 937 0014 A342     		cmp	r3, r4
 938 0016 2146     		mov	r1, r4
 939 0018 07D0     		beq	.L183
 940 001a 9868     		ldr	r0, [r3, #8]
 941 001c FFF7F0FF 		bl	obj_valid_child.isra.0
 942 0020 0136     		adds	r6, r6, #1
 943 0022 08B9     		cbnz	r0, .L179
 944 0024 B742     		cmp	r7, r6
 945 0026 F3D1     		bne	.L180
 946              	.L179:
 947 0028 F8BD     		pop	{r3, r4, r5, r6, r7, pc}
 948              	.L183:
 949 002a 0120     		movs	r0, #1
 950 002c F8BD     		pop	{r3, r4, r5, r6, r7, pc}
 951              	.L186:
 952 002e 7047     		bx	lr
 953              	.L182:
 954 0030 3846     		mov	r0, r7
 955 0032 F8BD     		pop	{r3, r4, r5, r6, r7, pc}
 957              		.section	.text.lv_obj_event,"ax",%progbits
 958              		.align	1
 959              		.p2align 2,,3
 960              		.syntax unified
 961              		.thumb
 962              		.thumb_func
 964              	lv_obj_event:
 965              		@ args = 0, pretend = 0, frame = 16
 966              		@ frame_needed = 0, uses_anonymous_args = 0
 967 0000 F0B5     		push	{r4, r5, r6, r7, lr}
 968 0002 0846     		mov	r0, r1
 969 0004 85B0     		sub	sp, sp, #20
 970 0006 0E46     		mov	r6, r1
 971 0008 FFF7FEFF 		bl	lv_event_get_code
 972 000c 0446     		mov	r4, r0
 973 000e 3046     		mov	r0, r6
 974 0010 FFF7FEFF 		bl	lv_event_get_current_target
 975 0014 631E     		subs	r3, r4, #1
 976 0016 0546     		mov	r5, r0
 977 0018 292B     		cmp	r3, #41
 978 001a 4BD8     		bhi	.L189
 979 001c DFE813F0 		tbh	[pc, r3, lsl #1]
 980              	.L192:
ARM GAS  /var/folders/lp/x54gwt890xv47sdkqj1k04q40000gn/T//ccn4yuDn.s 			page 18


 981 0020 9B00     		.2byte	(.L205-.L192)/2
 982 0022 4A00     		.2byte	(.L189-.L192)/2
 983 0024 A600     		.2byte	(.L204-.L192)/2
 984 0026 4A00     		.2byte	(.L189-.L192)/2
 985 0028 4A00     		.2byte	(.L189-.L192)/2
 986 002a 4A00     		.2byte	(.L189-.L192)/2
 987 002c 4A00     		.2byte	(.L189-.L192)/2
 988 002e 0E01     		.2byte	(.L203-.L192)/2
 989 0030 2F01     		.2byte	(.L202-.L192)/2
 990 0032 AC00     		.2byte	(.L201-.L192)/2
 991 0034 4A00     		.2byte	(.L189-.L192)/2
 992 0036 4A00     		.2byte	(.L189-.L192)/2
 993 0038 C300     		.2byte	(.L200-.L192)/2
 994 003a E500     		.2byte	(.L199-.L192)/2
 995 003c 0601     		.2byte	(.L198-.L192)/2
 996 003e 4A00     		.2byte	(.L189-.L192)/2
 997 0040 4A00     		.2byte	(.L189-.L192)/2
 998 0042 4C00     		.2byte	(.L196-.L192)/2
 999 0044 5200     		.2byte	(.L197-.L192)/2
 1000 0046 4A00     		.2byte	(.L189-.L192)/2
 1001 0048 4C00     		.2byte	(.L196-.L192)/2
 1002 004a 4A00     		.2byte	(.L189-.L192)/2
 1003 004c 4A00     		.2byte	(.L189-.L192)/2
 1004 004e 4C00     		.2byte	(.L196-.L192)/2
 1005 0050 4A00     		.2byte	(.L189-.L192)/2
 1006 0052 4A00     		.2byte	(.L189-.L192)/2
 1007 0054 4A00     		.2byte	(.L189-.L192)/2
 1008 0056 4A00     		.2byte	(.L189-.L192)/2
 1009 0058 4A00     		.2byte	(.L189-.L192)/2
 1010 005a 4A00     		.2byte	(.L189-.L192)/2
 1011 005c 4A00     		.2byte	(.L189-.L192)/2
 1012 005e 4A00     		.2byte	(.L189-.L192)/2
 1013 0060 4A00     		.2byte	(.L189-.L192)/2
 1014 0062 5C00     		.2byte	(.L195-.L192)/2
 1015 0064 4A00     		.2byte	(.L189-.L192)/2
 1016 0066 8000     		.2byte	(.L194-.L192)/2
 1017 0068 4A00     		.2byte	(.L189-.L192)/2
 1018 006a 4A00     		.2byte	(.L189-.L192)/2
 1019 006c 4A00     		.2byte	(.L189-.L192)/2
 1020 006e 4A00     		.2byte	(.L189-.L192)/2
 1021 0070 2A00     		.2byte	(.L193-.L192)/2
 1022 0072 8B00     		.2byte	(.L191-.L192)/2
 1023              		.p2align 1
 1024              	.L193:
 1025 0074 0922     		movs	r2, #9
 1026 0076 0021     		movs	r1, #0
 1027 0078 FFF7FEFF 		bl	lv_obj_get_style_prop
 1028 007c 0A22     		movs	r2, #10
 1029 007e 0446     		mov	r4, r0
 1030 0080 0021     		movs	r1, #0
 1031 0082 2846     		mov	r0, r5
 1032 0084 FFF7FEFF 		bl	lv_obj_get_style_prop
 1033 0088 80B2     		uxth	r0, r0
 1034 008a 08B9     		cbnz	r0, .L241
 1035 008c E4B2     		uxtb	r4, r4
 1036 008e 14B1     		cbz	r4, .L242
 1037              	.L241:
ARM GAS  /var/folders/lp/x54gwt890xv47sdkqj1k04q40000gn/T//ccn4yuDn.s 			page 19


 1038 0090 2846     		mov	r0, r5
 1039 0092 FFF7FEFF 		bl	lv_obj_mark_layout_as_dirty
 1040              	.L242:
 1041 0096 2846     		mov	r0, r5
 1042 0098 FFF7FEFF 		bl	lv_obj_get_child_cnt
 1043 009c 0646     		mov	r6, r0
 1044 009e 48B1     		cbz	r0, .L189
 1045 00a0 0024     		movs	r4, #0
 1046              	.L243:
 1047 00a2 AB68     		ldr	r3, [r5, #8]
 1048 00a4 1B68     		ldr	r3, [r3]
 1049 00a6 53F82400 		ldr	r0, [r3, r4, lsl #2]
 1050 00aa 0134     		adds	r4, r4, #1
 1051 00ac FFF7FEFF 		bl	lv_obj_mark_layout_as_dirty
 1052 00b0 A642     		cmp	r6, r4
 1053 00b2 F6D1     		bne	.L243
 1054              	.L189:
 1055 00b4 05B0     		add	sp, sp, #20
 1056              		@ sp needed
 1057 00b6 F0BD     		pop	{r4, r5, r6, r7, pc}
 1058              	.L196:
 1059 00b8 3046     		mov	r0, r6
 1060 00ba 05B0     		add	sp, sp, #20
 1061              		@ sp needed
 1062 00bc BDE8F040 		pop	{r4, r5, r6, r7, lr}
 1063 00c0 FFF7FEBF 		b	lv_obj_draw
 1064              	.L197:
 1065 00c4 0021     		movs	r1, #0
 1066 00c6 FFF7FEFF 		bl	lv_obj_calculate_ext_draw_size
 1067 00ca 0146     		mov	r1, r0
 1068 00cc 3046     		mov	r0, r6
 1069 00ce 05B0     		add	sp, sp, #20
 1070              		@ sp needed
 1071 00d0 BDE8F040 		pop	{r4, r5, r6, r7, lr}
 1072 00d4 FFF7FEBF 		b	lv_event_set_ext_draw_size
 1073              	.L195:
 1074 00d8 0122     		movs	r2, #1
 1075 00da 0021     		movs	r1, #0
 1076 00dc FFF7FEFF 		bl	lv_obj_get_style_prop
 1077 00e0 0422     		movs	r2, #4
 1078 00e2 0021     		movs	r1, #0
 1079 00e4 0646     		mov	r6, r0
 1080 00e6 2846     		mov	r0, r5
 1081 00e8 FFF7FEFF 		bl	lv_obj_get_style_prop
 1082 00ec 0922     		movs	r2, #9
 1083 00ee 0021     		movs	r1, #0
 1084 00f0 0746     		mov	r7, r0
 1085 00f2 2846     		mov	r0, r5
 1086 00f4 FFF7FEFF 		bl	lv_obj_get_style_prop
 1087 00f8 0A22     		movs	r2, #10
 1088 00fa 0446     		mov	r4, r0
 1089 00fc 0021     		movs	r1, #0
 1090 00fe 2846     		mov	r0, r5
 1091 0100 FFF7FEFF 		bl	lv_obj_get_style_prop
 1092 0104 80B2     		uxth	r0, r0
 1093 0106 48B9     		cbnz	r0, .L244
 1094 0108 E4B2     		uxtb	r4, r4
ARM GAS  /var/folders/lp/x54gwt890xv47sdkqj1k04q40000gn/T//ccn4yuDn.s 			page 20


 1095 010a 3CB9     		cbnz	r4, .L244
 1096 010c 36B2     		sxth	r6, r6
 1097 010e 42F2D173 		movw	r3, #10193
 1098 0112 9E42     		cmp	r6, r3
 1099 0114 02D0     		beq	.L244
 1100 0116 3FB2     		sxth	r7, r7
 1101 0118 9F42     		cmp	r7, r3
 1102 011a CBD1     		bne	.L189
 1103              	.L244:
 1104 011c 2846     		mov	r0, r5
 1105 011e 05E0     		b	.L301
 1106              	.L194:
 1107 0120 90F82230 		ldrb	r3, [r0, #34]	@ zero_extendqisi2
 1108 0124 43F00203 		orr	r3, r3, #2
 1109 0128 80F82230 		strb	r3, [r0, #34]
 1110              	.L301:
 1111 012c 05B0     		add	sp, sp, #20
 1112              		@ sp needed
 1113 012e BDE8F040 		pop	{r4, r5, r6, r7, lr}
 1114 0132 FFF7FEBF 		b	lv_obj_mark_layout_as_dirty
 1115              	.L191:
 1116 0136 FFF7FEFF 		bl	lv_obj_get_child_cnt
 1117 013a 0646     		mov	r6, r0
 1118 013c 0028     		cmp	r0, #0
 1119 013e B9D0     		beq	.L189
 1120 0140 0024     		movs	r4, #0
 1121              	.L212:
 1122 0142 AB68     		ldr	r3, [r5, #8]
 1123 0144 1B68     		ldr	r3, [r3]
 1124 0146 53F82400 		ldr	r0, [r3, r4, lsl #2]
 1125 014a 0134     		adds	r4, r4, #1
 1126 014c FFF7FEFF 		bl	lv_obj_mark_layout_as_dirty
 1127 0150 A642     		cmp	r6, r4
 1128 0152 F6D1     		bne	.L212
 1129 0154 AEE7     		b	.L189
 1130              	.L205:
 1131 0156 038C     		ldrh	r3, [r0, #32]
 1132 0158 43F02001 		orr	r1, r3, #32
 1133 015c 8B42     		cmp	r3, r1
 1134 015e A9D0     		beq	.L189
 1135              	.L299:
 1136 0160 2846     		mov	r0, r5
 1137 0162 05B0     		add	sp, sp, #20
 1138              		@ sp needed
 1139 0164 BDE8F040 		pop	{r4, r5, r6, r7, lr}
 1140 0168 FFF7FEBF 		b	lv_obj_set_state
 1141              	.L204:
 1142 016c 018C     		ldrh	r1, [r0, #32]
 1143 016e 8806     		lsls	r0, r1, #26
 1144 0170 A0D5     		bpl	.L189
 1145 0172 21F02001 		bic	r1, r1, #32
 1146 0176 F3E7     		b	.L299
 1147              	.L201:
 1148 0178 018C     		ldrh	r1, [r0, #32]
 1149 017a 4B06     		lsls	r3, r1, #25
 1150 017c 00F18680 		bmi	.L306
 1151              	.L240:
ARM GAS  /var/folders/lp/x54gwt890xv47sdkqj1k04q40000gn/T//ccn4yuDn.s 			page 21


 1152 0180 2846     		mov	r0, r5
 1153 0182 FFF7FEFF 		bl	lv_obj_get_scrollbar_mode
 1154 0186 0228     		cmp	r0, #2
 1155 0188 94D1     		bne	.L189
 1156 018a 02AA     		add	r2, sp, #8
 1157 018c 6946     		mov	r1, sp
 1158 018e 2846     		mov	r0, r5
 1159 0190 FFF7FEFF 		bl	lv_obj_get_scrollbar_area
 1160 0194 6946     		mov	r1, sp
 1161 0196 2846     		mov	r0, r5
 1162 0198 FFF7FEFF 		bl	lv_obj_invalidate_area
 1163 019c 02A9     		add	r1, sp, #8
 1164 019e 2846     		mov	r0, r5
 1165 01a0 FFF7FEFF 		bl	lv_obj_invalidate_area
 1166 01a4 86E7     		b	.L189
 1167              	.L200:
 1168 01a6 C369     		ldr	r3, [r0, #28]
 1169 01a8 1A07     		lsls	r2, r3, #28
 1170 01aa 7BD4     		bmi	.L307
 1171 01ac 03F40163 		and	r3, r3, #2064
 1172 01b0 B3F5016F 		cmp	r3, #2064
 1173 01b4 7FF47EAF 		bne	.L189
 1174 01b8 FFF7FEFF 		bl	lv_obj_is_editable
 1175 01bc 0028     		cmp	r0, #0
 1176 01be 7FF479AF 		bne	.L189
 1177 01c2 2846     		mov	r0, r5
 1178 01c4 FFF7FEFF 		bl	lv_obj_get_scroll_left
 1179 01c8 0746     		mov	r7, r0
 1180 01ca 2846     		mov	r0, r5
 1181 01cc FFF7FEFF 		bl	lv_obj_get_scroll_right
 1182 01d0 0446     		mov	r4, r0
 1183 01d2 3046     		mov	r0, r6
 1184 01d4 FFF7FEFF 		bl	lv_event_get_param
 1185 01d8 0378     		ldrb	r3, [r0]	@ zero_extendqisi2
 1186 01da 113B     		subs	r3, r3, #17
 1187 01dc 032B     		cmp	r3, #3
 1188 01de 3FF669AF 		bhi	.L189
 1189 01e2 DFE803F0 		tbb	[pc, r3]
 1190              	.L220:
 1191 01e6 8F       		.byte	(.L230-.L220)/2
 1192 01e7 7B       		.byte	(.L226-.L220)/2
 1193 01e8 B9       		.byte	(.L221-.L220)/2
 1194 01e9 9C       		.byte	(.L219-.L220)/2
 1195              		.p2align 1
 1196              	.L199:
 1197 01ea C369     		ldr	r3, [r0, #28]
 1198 01ec 5905     		lsls	r1, r3, #21
 1199 01ee 65D4     		bmi	.L308
 1200              	.L234:
 1201 01f0 A868     		ldr	r0, [r5, #8]
 1202 01f2 00B1     		cbz	r0, .L235
 1203 01f4 8068     		ldr	r0, [r0, #8]
 1204              	.L235:
 1205 01f6 FFF7FEFF 		bl	lv_group_get_editing
 1206 01fa 0446     		mov	r4, r0
 1207 01fc FFF7FEFF 		bl	lv_indev_get_act
 1208 0200 0028     		cmp	r0, #0
ARM GAS  /var/folders/lp/x54gwt890xv47sdkqj1k04q40000gn/T//ccn4yuDn.s 			page 22


 1209 0202 00F0CC80 		beq	.L309
 1210              	.L236:
 1211 0206 FFF7FEFF 		bl	lv_indev_get_type
 1212 020a 0228     		cmp	r0, #2
 1213 020c 48D0     		beq	.L245
 1214 020e 0428     		cmp	r0, #4
 1215 0210 0CBF     		ite	eq
 1216 0212 0621     		moveq	r1, #6
 1217 0214 0221     		movne	r1, #2
 1218              	.L237:
 1219 0216 2B8C     		ldrh	r3, [r5, #32]
 1220 0218 1943     		orrs	r1, r1, r3
 1221 021a 002C     		cmp	r4, #0
 1222 021c 00F0B280 		beq	.L238
 1223 0220 41F00801 		orr	r1, r1, #8
 1224 0224 8B42     		cmp	r3, r1
 1225 0226 3FF445AF 		beq	.L189
 1226 022a 99E7     		b	.L299
 1227              	.L198:
 1228 022c 018C     		ldrh	r1, [r0, #32]
 1229 022e 11F00E0F 		tst	r1, #14
 1230 0232 3FF43FAF 		beq	.L189
 1231 0236 21F00E01 		bic	r1, r1, #14
 1232 023a 91E7     		b	.L299
 1233              	.L203:
 1234 023c 018C     		ldrh	r1, [r0, #32]
 1235 023e 8F06     		lsls	r7, r1, #26
 1236 0240 29D4     		bmi	.L310
 1237              	.L208:
 1238 0242 3046     		mov	r0, r6
 1239 0244 FFF7FEFF 		bl	lv_event_get_indev
 1240 0248 FFF7FEFF 		bl	lv_indev_get_scroll_obj
 1241 024c 0028     		cmp	r0, #0
 1242 024e 7FF431AF 		bne	.L189
 1243 0252 EB69     		ldr	r3, [r5, #28]
 1244 0254 1C07     		lsls	r4, r3, #28
 1245 0256 7FF52DAF 		bpl	.L189
 1246 025a 2B8C     		ldrh	r3, [r5, #32]
 1247 025c 13F0010F 		tst	r3, #1
 1248 0260 33D1     		bne	.L303
 1249 0262 43F00101 		orr	r1, r3, #1
 1250 0266 02D1     		bne	.L218
 1251              	.L298:
 1252 0268 2846     		mov	r0, r5
 1253 026a FFF7FEFF 		bl	lv_obj_set_state
 1254              	.L218:
 1255 026e 0022     		movs	r2, #0
 1256 0270 1C21     		movs	r1, #28
 1257 0272 2846     		mov	r0, r5
 1258 0274 05B0     		add	sp, sp, #20
 1259              		@ sp needed
 1260 0276 BDE8F040 		pop	{r4, r5, r6, r7, lr}
 1261 027a FFF7FEBF 		b	lv_event_send
 1262              	.L202:
 1263 027e 038C     		ldrh	r3, [r0, #32]
 1264 0280 43F04001 		orr	r1, r3, #64
 1265 0284 8B42     		cmp	r3, r1
ARM GAS  /var/folders/lp/x54gwt890xv47sdkqj1k04q40000gn/T//ccn4yuDn.s 			page 23


 1266 0286 3FF415AF 		beq	.L189
 1267 028a 69E7     		b	.L299
 1268              	.L306:
 1269 028c 21F04001 		bic	r1, r1, #64
 1270 0290 FFF7FEFF 		bl	lv_obj_set_state
 1271 0294 74E7     		b	.L240
 1272              	.L310:
 1273 0296 21F02001 		bic	r1, r1, #32
 1274 029a FFF7FEFF 		bl	lv_obj_set_state
 1275 029e D0E7     		b	.L208
 1276              	.L245:
 1277 02a0 0621     		movs	r1, #6
 1278 02a2 B8E7     		b	.L237
 1279              	.L307:
 1280 02a4 3046     		mov	r0, r6
 1281 02a6 FFF7FEFF 		bl	lv_event_get_param
 1282 02aa 0278     		ldrb	r2, [r0]	@ zero_extendqisi2
 1283 02ac A2F11103 		sub	r3, r2, #17
 1284 02b0 032B     		cmp	r3, #3
 1285 02b2 78D8     		bhi	.L214
 1286 02b4 DFE803F0 		tbb	[pc, r3]
 1287              	.L216:
 1288 02b8 0C       		.byte	(.L217-.L216)/2
 1289 02b9 06       		.byte	(.L215-.L216)/2
 1290 02ba 0C       		.byte	(.L217-.L216)/2
 1291 02bb 06       		.byte	(.L215-.L216)/2
 1292              		.p2align 1
 1293              	.L308:
 1294 02bc 0121     		movs	r1, #1
 1295 02be FFF7FEFF 		bl	lv_obj_scroll_to_view_recursive
 1296 02c2 95E7     		b	.L234
 1297              	.L215:
 1298 02c4 2B8C     		ldrh	r3, [r5, #32]
 1299 02c6 DF07     		lsls	r7, r3, #31
 1300 02c8 D1D5     		bpl	.L218
 1301              	.L303:
 1302 02ca 23F00101 		bic	r1, r3, #1
 1303 02ce CBE7     		b	.L298
 1304              	.L217:
 1305 02d0 2B8C     		ldrh	r3, [r5, #32]
 1306 02d2 43F00101 		orr	r1, r3, #1
 1307 02d6 DB07     		lsls	r3, r3, #31
 1308 02d8 C9D4     		bmi	.L218
 1309 02da C5E7     		b	.L298
 1310              	.L226:
 1311 02dc 2846     		mov	r0, r5
 1312 02de FFF7FEFF 		bl	lv_obj_get_scroll_y
 1313 02e2 0446     		mov	r4, r0
 1314 02e4 2846     		mov	r0, r5
 1315 02e6 FFF7FEFF 		bl	lv_obj_get_height
 1316 02ea 031E     		subs	r3, r0, #0
 1317 02ec B8BF     		it	lt
 1318 02ee 0333     		addlt	r3, r3, #3
 1319 02f0 04EBA301 		add	r1, r4, r3, asr #2
 1320              	.L300:
 1321 02f4 0022     		movs	r2, #0
 1322 02f6 09B2     		sxth	r1, r1
ARM GAS  /var/folders/lp/x54gwt890xv47sdkqj1k04q40000gn/T//ccn4yuDn.s 			page 24


 1323 02f8 2846     		mov	r0, r5
 1324 02fa 05B0     		add	sp, sp, #20
 1325              		@ sp needed
 1326 02fc BDE8F040 		pop	{r4, r5, r6, r7, lr}
 1327 0300 FFF7FEBF 		b	lv_obj_scroll_to_y
 1328              	.L230:
 1329 0304 2846     		mov	r0, r5
 1330 0306 FFF7FEFF 		bl	lv_obj_get_scroll_y
 1331 030a 0446     		mov	r4, r0
 1332 030c 2846     		mov	r0, r5
 1333 030e FFF7FEFF 		bl	lv_obj_get_height
 1334 0312 031E     		subs	r3, r0, #0
 1335 0314 00DA     		bge	.L225
 1336 0316 0333     		adds	r3, r3, #3
 1337              	.L225:
 1338 0318 A4EBA301 		sub	r1, r4, r3, asr #2
 1339 031c EAE7     		b	.L300
 1340              	.L219:
 1341 031e 2846     		mov	r0, r5
 1342 0320 FFF7FEFF 		bl	lv_obj_get_scroll_dir
 1343 0324 8007     		lsls	r0, r0, #30
 1344 0326 EDD0     		beq	.L230
 1345 0328 002F     		cmp	r7, #0
 1346 032a 01DC     		bgt	.L231
 1347 032c 002C     		cmp	r4, #0
 1348 032e E9DD     		ble	.L230
 1349              	.L231:
 1350 0330 2846     		mov	r0, r5
 1351 0332 FFF7FEFF 		bl	lv_obj_get_scroll_x
 1352 0336 0446     		mov	r4, r0
 1353 0338 2846     		mov	r0, r5
 1354 033a FFF7FEFF 		bl	lv_obj_get_width
 1355 033e 031E     		subs	r3, r0, #0
 1356 0340 B8BF     		it	lt
 1357 0342 0333     		addlt	r3, r3, #3
 1358 0344 A4EBA301 		sub	r1, r4, r3, asr #2
 1359              	.L302:
 1360 0348 0022     		movs	r2, #0
 1361 034a 09B2     		sxth	r1, r1
 1362 034c 2846     		mov	r0, r5
 1363 034e 05B0     		add	sp, sp, #20
 1364              		@ sp needed
 1365 0350 BDE8F040 		pop	{r4, r5, r6, r7, lr}
 1366 0354 FFF7FEBF 		b	lv_obj_scroll_to_x
 1367              	.L221:
 1368 0358 2846     		mov	r0, r5
 1369 035a FFF7FEFF 		bl	lv_obj_get_scroll_dir
 1370 035e 8607     		lsls	r6, r0, #30
 1371 0360 BCD0     		beq	.L226
 1372 0362 002F     		cmp	r7, #0
 1373 0364 01DC     		bgt	.L227
 1374 0366 002C     		cmp	r4, #0
 1375 0368 B8DD     		ble	.L226
 1376              	.L227:
 1377 036a 2846     		mov	r0, r5
 1378 036c FFF7FEFF 		bl	lv_obj_get_scroll_x
 1379 0370 0446     		mov	r4, r0
ARM GAS  /var/folders/lp/x54gwt890xv47sdkqj1k04q40000gn/T//ccn4yuDn.s 			page 25


 1380 0372 2846     		mov	r0, r5
 1381 0374 FFF7FEFF 		bl	lv_obj_get_width
 1382 0378 031E     		subs	r3, r0, #0
 1383 037a B8BF     		it	lt
 1384 037c 0333     		addlt	r3, r3, #3
 1385 037e 04EBA301 		add	r1, r4, r3, asr #2
 1386 0382 E1E7     		b	.L302
 1387              	.L238:
 1388 0384 8B42     		cmp	r3, r1
 1389 0386 03D0     		beq	.L239
 1390 0388 2846     		mov	r0, r5
 1391 038a FFF7FEFF 		bl	lv_obj_set_state
 1392 038e 298C     		ldrh	r1, [r5, #32]
 1393              	.L239:
 1394 0390 0A07     		lsls	r2, r1, #28
 1395 0392 7FF58FAE 		bpl	.L189
 1396 0396 21F00801 		bic	r1, r1, #8
 1397 039a 89B2     		uxth	r1, r1
 1398 039c E0E6     		b	.L299
 1399              	.L309:
 1400 039e 3046     		mov	r0, r6
 1401 03a0 FFF7FEFF 		bl	lv_event_get_indev
 1402 03a4 2FE7     		b	.L236
 1403              	.L214:
 1404 03a6 0A2A     		cmp	r2, #10
 1405 03a8 3FF484AE 		beq	.L189
 1406 03ac 5FE7     		b	.L218
 1408 03ae 00BF     		.section	.text.lv_is_initialized,"ax",%progbits
 1409              		.align	1
 1410              		.p2align 2,,3
 1411              		.global	lv_is_initialized
 1412              		.syntax unified
 1413              		.thumb
 1414              		.thumb_func
 1416              	lv_is_initialized:
 1417              		@ args = 0, pretend = 0, frame = 0
 1418              		@ frame_needed = 0, uses_anonymous_args = 0
 1419              		@ link register save eliminated.
 1420 0000 014B     		ldr	r3, .L312
 1421 0002 1878     		ldrb	r0, [r3]	@ zero_extendqisi2
 1422 0004 7047     		bx	lr
 1423              	.L313:
 1424 0006 00BF     		.align	2
 1425              	.L312:
 1426 0008 00000000 		.word	lv_initialized
 1428              		.section	.text.lv_init,"ax",%progbits
 1429              		.align	1
 1430              		.p2align 2,,3
 1431              		.global	lv_init
 1432              		.syntax unified
 1433              		.thumb
 1434              		.thumb_func
 1436              	lv_init:
 1437              		@ args = 0, pretend = 0, frame = 0
 1438              		@ frame_needed = 0, uses_anonymous_args = 0
 1439 0000 10B5     		push	{r4, lr}
 1440 0002 124C     		ldr	r4, .L318
ARM GAS  /var/folders/lp/x54gwt890xv47sdkqj1k04q40000gn/T//ccn4yuDn.s 			page 26


 1441 0004 2378     		ldrb	r3, [r4]	@ zero_extendqisi2
 1442 0006 03B1     		cbz	r3, .L317
 1443 0008 10BD     		pop	{r4, pc}
 1444              	.L317:
 1445 000a FFF7FEFF 		bl	lv_mem_init
 1446 000e FFF7FEFF 		bl	_lv_timer_core_init
 1447 0012 FFF7FEFF 		bl	_lv_fs_init
 1448 0016 FFF7FEFF 		bl	_lv_anim_core_init
 1449 001a FFF7FEFF 		bl	_lv_group_init
 1450 001e FFF7FEFF 		bl	lv_draw_init
 1451 0022 FFF7FEFF 		bl	_lv_obj_style_init
 1452 0026 0A48     		ldr	r0, .L318+4
 1453 0028 4FF4B471 		mov	r1, #360
 1454 002c FFF7FEFF 		bl	_lv_ll_init
 1455 0030 0848     		ldr	r0, .L318+8
 1456 0032 5C21     		movs	r1, #92
 1457 0034 FFF7FEFF 		bl	_lv_ll_init
 1458 0038 FFF7FEFF 		bl	_lv_refr_init
 1459 003c FFF7FEFF 		bl	_lv_img_decoder_init
 1460 0040 FFF7FEFF 		bl	lv_extra_init
 1461 0044 0123     		movs	r3, #1
 1462 0046 2370     		strb	r3, [r4]
 1463 0048 10BD     		pop	{r4, pc}
 1464              	.L319:
 1465 004a 00BF     		.align	2
 1466              	.L318:
 1467 004c 00000000 		.word	lv_initialized
 1468 0050 00000000 		.word	_lv_disp_ll
 1469 0054 00000000 		.word	_lv_indev_ll
 1471              		.section	.text.lv_deinit,"ax",%progbits
 1472              		.align	1
 1473              		.p2align 2,,3
 1474              		.global	lv_deinit
 1475              		.syntax unified
 1476              		.thumb
 1477              		.thumb_func
 1479              	lv_deinit:
 1480              		@ args = 0, pretend = 0, frame = 0
 1481              		@ frame_needed = 0, uses_anonymous_args = 0
 1482 0000 08B5     		push	{r3, lr}
 1483 0002 FFF7FEFF 		bl	_lv_gc_clear_roots
 1484 0006 0020     		movs	r0, #0
 1485 0008 FFF7FEFF 		bl	lv_disp_set_default
 1486 000c FFF7FEFF 		bl	lv_mem_deinit
 1487 0010 014B     		ldr	r3, .L322
 1488 0012 0022     		movs	r2, #0
 1489 0014 1A70     		strb	r2, [r3]
 1490 0016 08BD     		pop	{r3, pc}
 1491              	.L323:
 1492              		.align	2
 1493              	.L322:
 1494 0018 00000000 		.word	lv_initialized
 1496              		.section	.text.lv_obj_create,"ax",%progbits
 1497              		.align	1
 1498              		.p2align 2,,3
 1499              		.global	lv_obj_create
 1500              		.syntax unified
ARM GAS  /var/folders/lp/x54gwt890xv47sdkqj1k04q40000gn/T//ccn4yuDn.s 			page 27


 1501              		.thumb
 1502              		.thumb_func
 1504              	lv_obj_create:
 1505              		@ args = 0, pretend = 0, frame = 0
 1506              		@ frame_needed = 0, uses_anonymous_args = 0
 1507 0000 10B5     		push	{r4, lr}
 1508 0002 0146     		mov	r1, r0
 1509 0004 0348     		ldr	r0, .L326
 1510 0006 FFF7FEFF 		bl	lv_obj_class_create_obj
 1511 000a 0446     		mov	r4, r0
 1512 000c FFF7FEFF 		bl	lv_obj_class_init_obj
 1513 0010 2046     		mov	r0, r4
 1514 0012 10BD     		pop	{r4, pc}
 1515              	.L327:
 1516              		.align	2
 1517              	.L326:
 1518 0014 00000000 		.word	lv_obj_class
 1520              		.section	.text.lv_obj_add_flag,"ax",%progbits
 1521              		.align	1
 1522              		.p2align 2,,3
 1523              		.global	lv_obj_add_flag
 1524              		.syntax unified
 1525              		.thumb
 1526              		.thumb_func
 1528              	lv_obj_add_flag:
 1529              		@ args = 0, pretend = 0, frame = 16
 1530              		@ frame_needed = 0, uses_anonymous_args = 0
 1531 0000 F0B5     		push	{r4, r5, r6, r7, lr}
 1532 0002 85B0     		sub	sp, sp, #20
 1533 0004 0D46     		mov	r5, r1
 1534 0006 0446     		mov	r4, r0
 1535 0008 FFF7FEFF 		bl	lv_obj_is_layout_positioned
 1536 000c E907     		lsls	r1, r5, #31
 1537 000e 0646     		mov	r6, r0
 1538 0010 27D4     		bmi	.L329
 1539 0012 E369     		ldr	r3, [r4, #28]
 1540 0014 2B43     		orrs	r3, r3, r5
 1541 0016 E361     		str	r3, [r4, #28]
 1542              	.L330:
 1543 0018 2046     		mov	r0, r4
 1544 001a FFF7FEFF 		bl	lv_obj_is_layout_positioned
 1545 001e B042     		cmp	r0, r6
 1546 0020 06D1     		bne	.L333
 1547 0022 15F0C07F 		tst	r5, #25165824
 1548 0026 03D1     		bne	.L333
 1549 0028 EB06     		lsls	r3, r5, #27
 1550 002a 0BD4     		bmi	.L352
 1551              	.L328:
 1552 002c 05B0     		add	sp, sp, #20
 1553              		@ sp needed
 1554 002e F0BD     		pop	{r4, r5, r6, r7, pc}
 1555              	.L333:
 1556 0030 2046     		mov	r0, r4
 1557 0032 FFF7FEFF 		bl	lv_obj_get_parent
 1558 0036 FFF7FEFF 		bl	lv_obj_mark_layout_as_dirty
 1559 003a 2046     		mov	r0, r4
 1560 003c FFF7FEFF 		bl	lv_obj_mark_layout_as_dirty
ARM GAS  /var/folders/lp/x54gwt890xv47sdkqj1k04q40000gn/T//ccn4yuDn.s 			page 28


 1561 0040 EB06     		lsls	r3, r5, #27
 1562 0042 F3D5     		bpl	.L328
 1563              	.L352:
 1564 0044 02AA     		add	r2, sp, #8
 1565 0046 6946     		mov	r1, sp
 1566 0048 2046     		mov	r0, r4
 1567 004a FFF7FEFF 		bl	lv_obj_get_scrollbar_area
 1568 004e 6946     		mov	r1, sp
 1569 0050 2046     		mov	r0, r4
 1570 0052 FFF7FEFF 		bl	lv_obj_invalidate_area
 1571 0056 02A9     		add	r1, sp, #8
 1572 0058 2046     		mov	r0, r4
 1573 005a FFF7FEFF 		bl	lv_obj_invalidate_area
 1574 005e 05B0     		add	sp, sp, #20
 1575              		@ sp needed
 1576 0060 F0BD     		pop	{r4, r5, r6, r7, pc}
 1577              	.L329:
 1578 0062 2046     		mov	r0, r4
 1579 0064 FFF7FEFF 		bl	lv_obj_invalidate
 1580 0068 E369     		ldr	r3, [r4, #28]
 1581 006a 228C     		ldrh	r2, [r4, #32]
 1582 006c 2B43     		orrs	r3, r3, r5
 1583 006e 9207     		lsls	r2, r2, #30
 1584 0070 E361     		str	r3, [r4, #28]
 1585 0072 D1D5     		bpl	.L330
 1586 0074 A368     		ldr	r3, [r4, #8]
 1587 0076 002B     		cmp	r3, #0
 1588 0078 CED0     		beq	.L330
 1589 007a 9F68     		ldr	r7, [r3, #8]
 1590 007c 002F     		cmp	r7, #0
 1591 007e CBD0     		beq	.L330
 1592 0080 3846     		mov	r0, r7
 1593 0082 FFF7FEFF 		bl	lv_group_focus_next
 1594 0086 3846     		mov	r0, r7
 1595 0088 FFF7FEFF 		bl	lv_group_get_focused
 1596 008c 0028     		cmp	r0, #0
 1597 008e C3D0     		beq	.L330
 1598 0090 FFF7FEFF 		bl	lv_obj_invalidate
 1599 0094 C0E7     		b	.L330
 1601 0096 00BF     		.section	.text.lv_obj_clear_flag,"ax",%progbits
 1602              		.align	1
 1603              		.p2align 2,,3
 1604              		.global	lv_obj_clear_flag
 1605              		.syntax unified
 1606              		.thumb
 1607              		.thumb_func
 1609              	lv_obj_clear_flag:
 1610              		@ args = 0, pretend = 0, frame = 16
 1611              		@ frame_needed = 0, uses_anonymous_args = 0
 1612 0000 70B5     		push	{r4, r5, r6, lr}
 1613 0002 84B0     		sub	sp, sp, #16
 1614 0004 0D46     		mov	r5, r1
 1615 0006 0446     		mov	r4, r0
 1616 0008 FFF7FEFF 		bl	lv_obj_is_layout_positioned
 1617 000c EA06     		lsls	r2, r5, #27
 1618 000e 0646     		mov	r6, r0
 1619 0010 28D4     		bmi	.L367
ARM GAS  /var/folders/lp/x54gwt890xv47sdkqj1k04q40000gn/T//ccn4yuDn.s 			page 29


 1620              	.L354:
 1621 0012 E369     		ldr	r3, [r4, #28]
 1622 0014 23EA0503 		bic	r3, r3, r5
 1623 0018 E361     		str	r3, [r4, #28]
 1624 001a EB07     		lsls	r3, r5, #31
 1625 001c 11D4     		bmi	.L368
 1626              	.L356:
 1627 001e 2046     		mov	r0, r4
 1628 0020 FFF7FEFF 		bl	lv_obj_is_layout_positioned
 1629 0024 B042     		cmp	r0, r6
 1630 0026 02D1     		bne	.L358
 1631 0028 15F0C07F 		tst	r5, #25165824
 1632 002c 07D0     		beq	.L353
 1633              	.L358:
 1634 002e 2046     		mov	r0, r4
 1635 0030 FFF7FEFF 		bl	lv_obj_get_parent
 1636 0034 04B0     		add	sp, sp, #16
 1637              		@ sp needed
 1638 0036 BDE87040 		pop	{r4, r5, r6, lr}
 1639 003a FFF7FEBF 		b	lv_obj_mark_layout_as_dirty
 1640              	.L353:
 1641 003e 04B0     		add	sp, sp, #16
 1642              		@ sp needed
 1643 0040 70BD     		pop	{r4, r5, r6, pc}
 1644              	.L368:
 1645 0042 2046     		mov	r0, r4
 1646 0044 FFF7FEFF 		bl	lv_obj_invalidate
 1647 0048 2046     		mov	r0, r4
 1648 004a FFF7FEFF 		bl	lv_obj_is_layout_positioned
 1649 004e 0028     		cmp	r0, #0
 1650 0050 E5D0     		beq	.L356
 1651 0052 2046     		mov	r0, r4
 1652 0054 FFF7FEFF 		bl	lv_obj_get_parent
 1653 0058 FFF7FEFF 		bl	lv_obj_mark_layout_as_dirty
 1654 005c 2046     		mov	r0, r4
 1655 005e FFF7FEFF 		bl	lv_obj_mark_layout_as_dirty
 1656 0062 DCE7     		b	.L356
 1657              	.L367:
 1658 0064 02AA     		add	r2, sp, #8
 1659 0066 6946     		mov	r1, sp
 1660 0068 2046     		mov	r0, r4
 1661 006a FFF7FEFF 		bl	lv_obj_get_scrollbar_area
 1662 006e 6946     		mov	r1, sp
 1663 0070 2046     		mov	r0, r4
 1664 0072 FFF7FEFF 		bl	lv_obj_invalidate_area
 1665 0076 02A9     		add	r1, sp, #8
 1666 0078 2046     		mov	r0, r4
 1667 007a FFF7FEFF 		bl	lv_obj_invalidate_area
 1668 007e C8E7     		b	.L354
 1670              		.section	.text.lv_obj_add_state,"ax",%progbits
 1671              		.align	1
 1672              		.p2align 2,,3
 1673              		.global	lv_obj_add_state
 1674              		.syntax unified
 1675              		.thumb
 1676              		.thumb_func
 1678              	lv_obj_add_state:
ARM GAS  /var/folders/lp/x54gwt890xv47sdkqj1k04q40000gn/T//ccn4yuDn.s 			page 30


 1679              		@ args = 0, pretend = 0, frame = 0
 1680              		@ frame_needed = 0, uses_anonymous_args = 0
 1681              		@ link register save eliminated.
 1682 0000 038C     		ldrh	r3, [r0, #32]
 1683 0002 43EA0102 		orr	r2, r3, r1
 1684 0006 31EA0303 		bics	r3, r1, r3
 1685 000a 00D1     		bne	.L371
 1686 000c 7047     		bx	lr
 1687              	.L371:
 1688 000e 1146     		mov	r1, r2
 1689 0010 FFF7FEBF 		b	lv_obj_set_state
 1691              		.section	.text.lv_obj_clear_state,"ax",%progbits
 1692              		.align	1
 1693              		.p2align 2,,3
 1694              		.global	lv_obj_clear_state
 1695              		.syntax unified
 1696              		.thumb
 1697              		.thumb_func
 1699              	lv_obj_clear_state:
 1700              		@ args = 0, pretend = 0, frame = 0
 1701              		@ frame_needed = 0, uses_anonymous_args = 0
 1702              		@ link register save eliminated.
 1703 0000 038C     		ldrh	r3, [r0, #32]
 1704 0002 1942     		tst	r1, r3
 1705 0004 23EA0102 		bic	r2, r3, r1
 1706 0008 00D1     		bne	.L374
 1707 000a 7047     		bx	lr
 1708              	.L374:
 1709 000c 1146     		mov	r1, r2
 1710 000e FFF7FEBF 		b	lv_obj_set_state
 1712 0012 00BF     		.section	.text.lv_obj_has_flag,"ax",%progbits
 1713              		.align	1
 1714              		.p2align 2,,3
 1715              		.global	lv_obj_has_flag
 1716              		.syntax unified
 1717              		.thumb
 1718              		.thumb_func
 1720              	lv_obj_has_flag:
 1721              		@ args = 0, pretend = 0, frame = 0
 1722              		@ frame_needed = 0, uses_anonymous_args = 0
 1723              		@ link register save eliminated.
 1724 0000 C369     		ldr	r3, [r0, #28]
 1725 0002 9943     		bics	r1, r1, r3
 1726 0004 0CBF     		ite	eq
 1727 0006 0120     		moveq	r0, #1
 1728 0008 0020     		movne	r0, #0
 1729 000a 7047     		bx	lr
 1731              		.section	.text.lv_obj_has_flag_any,"ax",%progbits
 1732              		.align	1
 1733              		.p2align 2,,3
 1734              		.global	lv_obj_has_flag_any
 1735              		.syntax unified
 1736              		.thumb
 1737              		.thumb_func
 1739              	lv_obj_has_flag_any:
 1740              		@ args = 0, pretend = 0, frame = 0
 1741              		@ frame_needed = 0, uses_anonymous_args = 0
ARM GAS  /var/folders/lp/x54gwt890xv47sdkqj1k04q40000gn/T//ccn4yuDn.s 			page 31


 1742              		@ link register save eliminated.
 1743 0000 C369     		ldr	r3, [r0, #28]
 1744 0002 1942     		tst	r1, r3
 1745 0004 14BF     		ite	ne
 1746 0006 0120     		movne	r0, #1
 1747 0008 0020     		moveq	r0, #0
 1748 000a 7047     		bx	lr
 1750              		.section	.text.lv_obj_get_state,"ax",%progbits
 1751              		.align	1
 1752              		.p2align 2,,3
 1753              		.global	lv_obj_get_state
 1754              		.syntax unified
 1755              		.thumb
 1756              		.thumb_func
 1758              	lv_obj_get_state:
 1759              		@ args = 0, pretend = 0, frame = 0
 1760              		@ frame_needed = 0, uses_anonymous_args = 0
 1761              		@ link register save eliminated.
 1762 0000 008C     		ldrh	r0, [r0, #32]
 1763 0002 7047     		bx	lr
 1765              		.section	.text.lv_obj_has_state,"ax",%progbits
 1766              		.align	1
 1767              		.p2align 2,,3
 1768              		.global	lv_obj_has_state
 1769              		.syntax unified
 1770              		.thumb
 1771              		.thumb_func
 1773              	lv_obj_has_state:
 1774              		@ args = 0, pretend = 0, frame = 0
 1775              		@ frame_needed = 0, uses_anonymous_args = 0
 1776              		@ link register save eliminated.
 1777 0000 038C     		ldrh	r3, [r0, #32]
 1778 0002 1942     		tst	r1, r3
 1779 0004 14BF     		ite	ne
 1780 0006 0120     		movne	r0, #1
 1781 0008 0020     		moveq	r0, #0
 1782 000a 7047     		bx	lr
 1784              		.section	.text.lv_obj_get_group,"ax",%progbits
 1785              		.align	1
 1786              		.p2align 2,,3
 1787              		.global	lv_obj_get_group
 1788              		.syntax unified
 1789              		.thumb
 1790              		.thumb_func
 1792              	lv_obj_get_group:
 1793              		@ args = 0, pretend = 0, frame = 0
 1794              		@ frame_needed = 0, uses_anonymous_args = 0
 1795              		@ link register save eliminated.
 1796 0000 8068     		ldr	r0, [r0, #8]
 1797 0002 00B1     		cbz	r0, .L379
 1798 0004 8068     		ldr	r0, [r0, #8]
 1799              	.L379:
 1800 0006 7047     		bx	lr
 1802              		.section	.text.lv_obj_allocate_spec_attr,"ax",%progbits
 1803              		.align	1
 1804              		.p2align 2,,3
 1805              		.global	lv_obj_allocate_spec_attr
ARM GAS  /var/folders/lp/x54gwt890xv47sdkqj1k04q40000gn/T//ccn4yuDn.s 			page 32


 1806              		.syntax unified
 1807              		.thumb
 1808              		.thumb_func
 1810              	lv_obj_allocate_spec_attr:
 1811              		@ args = 0, pretend = 0, frame = 0
 1812              		@ frame_needed = 0, uses_anonymous_args = 0
 1813 0000 8368     		ldr	r3, [r0, #8]
 1814 0002 03B1     		cbz	r3, .L392
 1815 0004 7047     		bx	lr
 1816              	.L392:
 1817 0006 0B4A     		ldr	r2, .L393
 1818 0008 1368     		ldr	r3, [r2]
 1819 000a 10B5     		push	{r4, lr}
 1820 000c 0133     		adds	r3, r3, #1
 1821 000e 0446     		mov	r4, r0
 1822 0010 1C20     		movs	r0, #28
 1823 0012 1360     		str	r3, [r2]
 1824 0014 FFF7FEFF 		bl	lv_mem_alloc
 1825 0018 A060     		str	r0, [r4, #8]
 1826 001a 50B1     		cbz	r0, .L387
 1827 001c 1C21     		movs	r1, #28
 1828 001e FFF7FEFF 		bl	lv_memset_00
 1829 0022 A268     		ldr	r2, [r4, #8]
 1830 0024 138B     		ldrh	r3, [r2, #24]
 1831 0026 43F47063 		orr	r3, r3, #3840
 1832 002a 43F00303 		orr	r3, r3, #3
 1833 002e 1383     		strh	r3, [r2, #24]	@ movhi
 1834 0030 10BD     		pop	{r4, pc}
 1835              	.L387:
 1836 0032 FEE7     		b	.L387
 1837              	.L394:
 1838              		.align	2
 1839              	.L393:
 1840 0034 00000000 		.word	x.0
 1842              		.section	.text.lv_obj_check_type,"ax",%progbits
 1843              		.align	1
 1844              		.p2align 2,,3
 1845              		.global	lv_obj_check_type
 1846              		.syntax unified
 1847              		.thumb
 1848              		.thumb_func
 1850              	lv_obj_check_type:
 1851              		@ args = 0, pretend = 0, frame = 0
 1852              		@ frame_needed = 0, uses_anonymous_args = 0
 1853              		@ link register save eliminated.
 1854 0000 20B1     		cbz	r0, .L396
 1855 0002 0068     		ldr	r0, [r0]
 1856 0004 401A     		subs	r0, r0, r1
 1857 0006 B0FA80F0 		clz	r0, r0
 1858 000a 4009     		lsrs	r0, r0, #5
 1859              	.L396:
 1860 000c 7047     		bx	lr
 1862 000e 00BF     		.section	.text.lv_obj_has_class,"ax",%progbits
 1863              		.align	1
 1864              		.p2align 2,,3
 1865              		.global	lv_obj_has_class
 1866              		.syntax unified
ARM GAS  /var/folders/lp/x54gwt890xv47sdkqj1k04q40000gn/T//ccn4yuDn.s 			page 33


 1867              		.thumb
 1868              		.thumb_func
 1870              	lv_obj_has_class:
 1871              		@ args = 0, pretend = 0, frame = 0
 1872              		@ frame_needed = 0, uses_anonymous_args = 0
 1873              		@ link register save eliminated.
 1874 0000 0068     		ldr	r0, [r0]
 1875 0002 48B1     		cbz	r0, .L399
 1876 0004 8842     		cmp	r0, r1
 1877 0006 02D1     		bne	.L400
 1878 0008 05E0     		b	.L404
 1879              	.L401:
 1880 000a 8142     		cmp	r1, r0
 1881 000c 03D0     		beq	.L404
 1882              	.L400:
 1883 000e 0068     		ldr	r0, [r0]
 1884 0010 0028     		cmp	r0, #0
 1885 0012 FAD1     		bne	.L401
 1886 0014 7047     		bx	lr
 1887              	.L404:
 1888 0016 0120     		movs	r0, #1
 1889              	.L399:
 1890 0018 7047     		bx	lr
 1892 001a 00BF     		.section	.text.lv_obj_get_class,"ax",%progbits
 1893              		.align	1
 1894              		.p2align 2,,3
 1895              		.global	lv_obj_get_class
 1896              		.syntax unified
 1897              		.thumb
 1898              		.thumb_func
 1900              	lv_obj_get_class:
 1901              		@ args = 0, pretend = 0, frame = 0
 1902              		@ frame_needed = 0, uses_anonymous_args = 0
 1903              		@ link register save eliminated.
 1904 0000 0068     		ldr	r0, [r0]
 1905 0002 7047     		bx	lr
 1907              		.section	.text.lv_obj_is_valid,"ax",%progbits
 1908              		.align	1
 1909              		.p2align 2,,3
 1910              		.global	lv_obj_is_valid
 1911              		.syntax unified
 1912              		.thumb
 1913              		.thumb_func
 1915              	lv_obj_is_valid:
 1916              		@ args = 0, pretend = 0, frame = 0
 1917              		@ frame_needed = 0, uses_anonymous_args = 0
 1918 0000 F8B5     		push	{r3, r4, r5, r6, r7, lr}
 1919 0002 0546     		mov	r5, r0
 1920 0004 0020     		movs	r0, #0
 1921 0006 FFF7FEFF 		bl	lv_disp_get_next
 1922 000a 0746     		mov	r7, r0
 1923 000c C8B1     		cbz	r0, .L408
 1924              	.L407:
 1925 000e 7E6A     		ldr	r6, [r7, #36]
 1926 0010 8EB1     		cbz	r6, .L412
 1927 0012 FC68     		ldr	r4, [r7, #12]
 1928 0014 0022     		movs	r2, #0
ARM GAS  /var/folders/lp/x54gwt890xv47sdkqj1k04q40000gn/T//ccn4yuDn.s 			page 34


 1929 0016 043C     		subs	r4, r4, #4
 1930 0018 06E0     		b	.L410
 1931              	.L421:
 1932 001a 9868     		ldr	r0, [r3, #8]
 1933 001c FFF7FEFF 		bl	obj_valid_child.isra.0
 1934 0020 0132     		adds	r2, r2, #1
 1935 0022 38B9     		cbnz	r0, .L409
 1936 0024 B242     		cmp	r2, r6
 1937 0026 06D0     		beq	.L412
 1938              	.L410:
 1939 0028 54F8043F 		ldr	r3, [r4, #4]!
 1940 002c AB42     		cmp	r3, r5
 1941 002e 2946     		mov	r1, r5
 1942 0030 F3D1     		bne	.L421
 1943 0032 0120     		movs	r0, #1
 1944              	.L409:
 1945 0034 F8BD     		pop	{r3, r4, r5, r6, r7, pc}
 1946              	.L412:
 1947 0036 3846     		mov	r0, r7
 1948 0038 FFF7FEFF 		bl	lv_disp_get_next
 1949 003c 0746     		mov	r7, r0
 1950 003e 0028     		cmp	r0, #0
 1951 0040 E5D1     		bne	.L407
 1952              	.L408:
 1953 0042 0020     		movs	r0, #0
 1954 0044 F8BD     		pop	{r3, r4, r5, r6, r7, pc}
 1956 0046 00BF     		.section	.bss.x.0,"aw",%nobits
 1957              		.align	2
 1960              	x.0:
 1961 0000 00000000 		.space	4
 1962              		.global	lv_obj_class
 1963              		.section	.rodata.lv_obj_class,"a"
 1964              		.align	2
 1967              	lv_obj_class:
 1968 0000 00000000 		.word	0
 1969 0004 00000000 		.word	lv_obj_constructor
 1970 0008 00000000 		.word	lv_obj_destructor
 1971 000c 00000000 		.space	4
 1972 0010 00000000 		.word	lv_obj_event
 1973 0014 8200     		.short	130
 1974 0016 8200     		.short	130
 1975 0018 4A       		.byte	74
 1976 0019 02       		.byte	2
 1977 001a 00       		.byte	0
 1978 001b 00       		.space	1
 1979              		.section	.bss.lv_initialized,"aw",%nobits
 1982              	lv_initialized:
 1983 0000 00       		.space	1
 1984              		.ident	"GCC: (xPack GNU Arm Embedded GCC arm64) 13.3.1 20240614"
ARM GAS  /var/folders/lp/x54gwt890xv47sdkqj1k04q40000gn/T//ccn4yuDn.s 			page 35

