ARM GAS  /var/folders/lp/x54gwt890xv47sdkqj1k04q40000gn/T//cckdTqel.s 			page 1


   1              		.cpu cortex-m4
   2              		.arch armv7e-m
   3              		.fpu fpv4-sp-d16
   4              		.eabi_attribute 27, 1
   5              		.eabi_attribute 28, 1
   6              		.eabi_attribute 20, 1
   7              		.eabi_attribute 21, 1
   8              		.eabi_attribute 23, 3
   9              		.eabi_attribute 24, 1
  10              		.eabi_attribute 25, 1
  11              		.eabi_attribute 26, 1
  12              		.eabi_attribute 30, 2
  13              		.eabi_attribute 34, 1
  14              		.eabi_attribute 18, 4
  15              		.file	"lv_spinbox.c"
  16              		.text
  17              		.section	.rodata.lv_spinbox_updatevalue.str1.4,"aMS",%progbits,1
  18              		.align	2
  19              	.LC0:
  20 0000 256C6400 		.ascii	"%ld\000"
  21              		.section	.text.lv_spinbox_updatevalue,"ax",%progbits
  22              		.align	1
  23              		.p2align 2,,3
  24              		.syntax unified
  25              		.thumb
  26              		.thumb_func
  28              	lv_spinbox_updatevalue:
  29              		@ args = 0, pretend = 0, frame = 40
  30              		@ frame_needed = 0, uses_anonymous_args = 0
  31 0000 2DE9F047 		push	{r4, r5, r6, r7, r8, r9, r10, lr}
  32 0004 0446     		mov	r4, r0
  33 0006 8AB0     		sub	sp, sp, #40
  34 0008 1221     		movs	r1, #18
  35 000a 05A8     		add	r0, sp, #20
  36 000c FFF7FEFF 		bl	lv_memset_00
  37 0010 E36E     		ldr	r3, [r4, #108]
  38 0012 002B     		cmp	r3, #0
  39 0014 636E     		ldr	r3, [r4, #100]
  40 0016 7DDB     		blt	.L2
  41 0018 0125     		movs	r5, #1
  42 001a 05AF     		add	r7, sp, #20
  43              	.L3:
  44 001c 002B     		cmp	r3, #0
  45 001e 0DF10408 		add	r8, sp, #4
  46 0022 414A     		ldr	r2, .L32
  47 0024 B8BF     		it	lt
  48 0026 5B42     		rsblt	r3, r3, #0
  49 0028 0E21     		movs	r1, #14
  50 002a 4046     		mov	r0, r8
  51 002c FFF7FEFF 		bl	lv_snprintf
  52 0030 4046     		mov	r0, r8
  53 0032 FFF7FEFF 		bl	strlen
  54 0036 94F874A0 		ldrb	r10, [r4, #116]	@ zero_extendqisi2
  55 003a 0AF00F09 		and	r9, r10, #15
  56 003e A9EB0002 		sub	r2, r9, r0
  57 0042 002A     		cmp	r2, #0
  58 0044 5EDD     		ble	.L31
ARM GAS  /var/folders/lp/x54gwt890xv47sdkqj1k04q40000gn/T//cckdTqel.s 			page 2


  59 0046 431C     		adds	r3, r0, #1
  60 0048 4344     		add	r3, r3, r8
  61 004a 08EB0901 		add	r1, r8, r9
  62              	.L8:
  63 004e 13F8010D 		ldrb	r0, [r3, #-1]!	@ zero_extendqisi2
  64 0052 01F80109 		strb	r0, [r1], #-1
  65 0056 4345     		cmp	r3, r8
  66 0058 F9D1     		bne	.L8
  67 005a 3021     		movs	r1, #48
  68 005c 4046     		mov	r0, r8
  69 005e FFF7FEFF 		bl	memset
  70 0062 94F874A0 		ldrb	r10, [r4, #116]	@ zero_extendqisi2
  71 0066 BAF10F0F 		cmp	r10, #15
  72 006a 30D8     		bhi	.L7
  73 006c 4E46     		mov	r6, r9
  74              	.L9:
  75 006e 4146     		mov	r1, r8
  76 0070 0023     		movs	r3, #0
  77 0072 04E0     		b	.L12
  78              	.L14:
  79 0074 0133     		adds	r3, r3, #1
  80 0076 B342     		cmp	r3, r6
  81 0078 07F8012B 		strb	r2, [r7], #1
  82 007c 03DA     		bge	.L13
  83              	.L12:
  84 007e 11F8012B 		ldrb	r2, [r1], #1	@ zero_extendqisi2
  85 0082 002A     		cmp	r2, #0
  86 0084 F6D1     		bne	.L14
  87              	.L13:
  88 0086 BAF10F0F 		cmp	r10, #15
  89 008a 24D8     		bhi	.L11
  90              	.L10:
  91 008c 05A9     		add	r1, sp, #20
  92 008e 2046     		mov	r0, r4
  93 0090 FFF7FEFF 		bl	lv_textarea_set_text
  94 0094 236F     		ldr	r3, [r4, #112]
  95 0096 94F87410 		ldrb	r1, [r4, #116]	@ zero_extendqisi2
  96 009a 092B     		cmp	r3, #9
  97 009c 01F00F01 		and	r1, r1, #15
  98 00a0 09DD     		ble	.L18
  99 00a2 2248     		ldr	r0, .L32+4
 100              	.L19:
 101 00a4 1A46     		mov	r2, r3
 102 00a6 0139     		subs	r1, r1, #1
 103 00a8 A0FB0373 		umull	r7, r3, r0, r3
 104 00ac 632A     		cmp	r2, #99
 105 00ae 4FEAD303 		lsr	r3, r3, #3
 106 00b2 C9B2     		uxtb	r1, r1
 107 00b4 F6DC     		bgt	.L19
 108              	.L18:
 109 00b6 B142     		cmp	r1, r6
 110 00b8 C4BF     		itt	gt
 111 00ba 0131     		addgt	r1, r1, #1
 112 00bc C9B2     		uxtbgt	r1, r1
 113 00be 491B     		subs	r1, r1, r5
 114 00c0 C9B2     		uxtb	r1, r1
 115 00c2 2046     		mov	r0, r4
ARM GAS  /var/folders/lp/x54gwt890xv47sdkqj1k04q40000gn/T//cckdTqel.s 			page 3


 116 00c4 FFF7FEFF 		bl	lv_textarea_set_cursor_pos
 117 00c8 0AB0     		add	sp, sp, #40
 118              		@ sp needed
 119 00ca BDE8F087 		pop	{r4, r5, r6, r7, r8, r9, r10, pc}
 120              	.L7:
 121 00ce 5FEA1A16 		lsrs	r6, r10, #4
 122 00d2 CCD1     		bne	.L9
 123 00d4 3346     		mov	r3, r6
 124              	.L11:
 125 00d6 3A46     		mov	r2, r7
 126 00d8 2E21     		movs	r1, #46
 127 00da 9945     		cmp	r9, r3
 128 00dc 02F8011B 		strb	r1, [r2], #1
 129 00e0 D4DD     		ble	.L10
 130 00e2 09F10109 		add	r9, r9, #1
 131 00e6 A9EB0309 		sub	r9, r9, r3
 132 00ea 013B     		subs	r3, r3, #1
 133 00ec 4F44     		add	r7, r7, r9
 134 00ee 9844     		add	r8, r8, r3
 135 00f0 03E0     		b	.L16
 136              	.L17:
 137 00f2 02F8013B 		strb	r3, [r2], #1
 138 00f6 BA42     		cmp	r2, r7
 139 00f8 C8D0     		beq	.L10
 140              	.L16:
 141 00fa 18F8013F 		ldrb	r3, [r8, #1]!	@ zero_extendqisi2
 142 00fe 002B     		cmp	r3, #0
 143 0100 F7D1     		bne	.L17
 144 0102 C3E7     		b	.L10
 145              	.L31:
 146 0104 BAF10F0F 		cmp	r10, #15
 147 0108 E1D8     		bhi	.L7
 148 010a 4E46     		mov	r6, r9
 149 010c B9F1000F 		cmp	r9, #0
 150 0110 ADD1     		bne	.L9
 151 0112 BBE7     		b	.L10
 152              	.L2:
 153 0114 0025     		movs	r5, #0
 154 0116 AB42     		cmp	r3, r5
 155 0118 B4BF     		ite	lt
 156 011a 2D22     		movlt	r2, #45
 157 011c 2B22     		movge	r2, #43
 158 011e 8DF81420 		strb	r2, [sp, #20]
 159 0122 0DF11507 		add	r7, sp, #21
 160 0126 79E7     		b	.L3
 161              	.L33:
 162              		.align	2
 163              	.L32:
 164 0128 00000000 		.word	.LC0
 165 012c CDCCCCCC 		.word	-858993459
 167              		.section	.text.lv_spinbox_constructor,"ax",%progbits
 168              		.align	1
 169              		.p2align 2,,3
 170              		.syntax unified
 171              		.thumb
 172              		.thumb_func
 174              	lv_spinbox_constructor:
ARM GAS  /var/folders/lp/x54gwt890xv47sdkqj1k04q40000gn/T//cckdTqel.s 			page 4


 175              		@ args = 0, pretend = 0, frame = 0
 176              		@ frame_needed = 0, uses_anonymous_args = 0
 177 0000 38B5     		push	{r3, r4, r5, lr}
 178 0002 B1F87430 		ldrh	r3, [r1, #116]
 179 0006 0F4A     		ldr	r2, .L36
 180 0008 6FF30A03 		bfc	r3, #0, #11
 181 000c 0C46     		mov	r4, r1
 182 000e 43F48063 		orr	r3, r3, #1024
 183 0012 0D49     		ldr	r1, .L36+4
 184 0014 0125     		movs	r5, #1
 185 0016 43F00503 		orr	r3, r3, #5
 186 001a 0020     		movs	r0, #0
 187 001c C4E91A12 		strd	r1, r2, [r4, #104]
 188 0020 6066     		str	r0, [r4, #100]
 189 0022 A4F87430 		strh	r3, [r4, #116]	@ movhi
 190 0026 2946     		mov	r1, r5
 191 0028 2046     		mov	r0, r4
 192 002a 2567     		str	r5, [r4, #112]
 193 002c FFF7FEFF 		bl	lv_textarea_set_one_line
 194 0030 2046     		mov	r0, r4
 195 0032 2946     		mov	r1, r5
 196 0034 FFF7FEFF 		bl	lv_textarea_set_cursor_click_pos
 197 0038 2046     		mov	r0, r4
 198 003a BDE83840 		pop	{r3, r4, r5, lr}
 199 003e FFF7FEBF 		b	lv_spinbox_updatevalue
 200              	.L37:
 201 0042 00BF     		.align	2
 202              	.L36:
 203 0044 6179FEFF 		.word	-99999
 204 0048 9F860100 		.word	99999
 206              		.section	.text.lv_spinbox_create,"ax",%progbits
 207              		.align	1
 208              		.p2align 2,,3
 209              		.global	lv_spinbox_create
 210              		.syntax unified
 211              		.thumb
 212              		.thumb_func
 214              	lv_spinbox_create:
 215              		@ args = 0, pretend = 0, frame = 0
 216              		@ frame_needed = 0, uses_anonymous_args = 0
 217 0000 10B5     		push	{r4, lr}
 218 0002 0146     		mov	r1, r0
 219 0004 0348     		ldr	r0, .L40
 220 0006 FFF7FEFF 		bl	lv_obj_class_create_obj
 221 000a 0446     		mov	r4, r0
 222 000c FFF7FEFF 		bl	lv_obj_class_init_obj
 223 0010 2046     		mov	r0, r4
 224 0012 10BD     		pop	{r4, pc}
 225              	.L41:
 226              		.align	2
 227              	.L40:
 228 0014 00000000 		.word	lv_spinbox_class
 230              		.section	.text.lv_spinbox_set_value,"ax",%progbits
 231              		.align	1
 232              		.p2align 2,,3
 233              		.global	lv_spinbox_set_value
 234              		.syntax unified
ARM GAS  /var/folders/lp/x54gwt890xv47sdkqj1k04q40000gn/T//cckdTqel.s 			page 5


 235              		.thumb
 236              		.thumb_func
 238              	lv_spinbox_set_value:
 239              		@ args = 0, pretend = 0, frame = 0
 240              		@ frame_needed = 0, uses_anonymous_args = 0
 241              		@ link register save eliminated.
 242 0000 10B4     		push	{r4}
 243 0002 D0E91A42 		ldrd	r4, r2, [r0, #104]
 244 0006 A142     		cmp	r1, r4
 245 0008 A8BF     		it	ge
 246 000a 2146     		movge	r1, r4
 247 000c 9142     		cmp	r1, r2
 248 000e B8BF     		it	lt
 249 0010 1146     		movlt	r1, r2
 250 0012 5DF8044B 		ldr	r4, [sp], #4
 251 0016 4166     		str	r1, [r0, #100]
 252 0018 FFF7FEBF 		b	lv_spinbox_updatevalue
 254              		.section	.text.lv_spinbox_set_rollover,"ax",%progbits
 255              		.align	1
 256              		.p2align 2,,3
 257              		.global	lv_spinbox_set_rollover
 258              		.syntax unified
 259              		.thumb
 260              		.thumb_func
 262              	lv_spinbox_set_rollover:
 263              		@ args = 0, pretend = 0, frame = 0
 264              		@ frame_needed = 0, uses_anonymous_args = 0
 265              		@ link register save eliminated.
 266 0000 90F87530 		ldrb	r3, [r0, #117]	@ zero_extendqisi2
 267 0004 61F30003 		bfi	r3, r1, #0, #1
 268 0008 80F87530 		strb	r3, [r0, #117]
 269 000c 7047     		bx	lr
 271 000e 00BF     		.section	.text.lv_spinbox_set_digit_format,"ax",%progbits
 272              		.align	1
 273              		.p2align 2,,3
 274              		.global	lv_spinbox_set_digit_format
 275              		.syntax unified
 276              		.thumb
 277              		.thumb_func
 279              	lv_spinbox_set_digit_format:
 280              		@ args = 0, pretend = 0, frame = 0
 281              		@ frame_needed = 0, uses_anonymous_args = 0
 282 0000 0A29     		cmp	r1, #10
 283 0002 70B5     		push	{r4, r5, r6, lr}
 284 0004 0D46     		mov	r5, r1
 285 0006 28BF     		it	cs
 286 0008 0A25     		movcs	r5, #10
 287 000a 9542     		cmp	r5, r2
 288 000c 8CBF     		ite	hi
 289 000e 1646     		movhi	r6, r2
 290 0010 0026     		movls	r6, #0
 291 0012 0929     		cmp	r1, #9
 292 0014 0446     		mov	r4, r0
 293 0016 16D8     		bhi	.L48
 294 0018 6AB2     		sxtb	r2, r5
 295 001a 0A20     		movs	r0, #10
 296 001c 0021     		movs	r1, #0
ARM GAS  /var/folders/lp/x54gwt890xv47sdkqj1k04q40000gn/T//cckdTqel.s 			page 6


 297 001e FFF7FEFF 		bl	lv_pow
 298 0022 A26E     		ldr	r2, [r4, #104]
 299 0024 D317     		asrs	r3, r2, #31
 300 0026 8242     		cmp	r2, r0
 301 0028 8B41     		sbcs	r3, r3, r1
 302 002a E26E     		ldr	r2, [r4, #108]
 303 002c A4BF     		itt	ge
 304 002e 00F1FF33 		addge	r3, r0, #-1
 305 0032 A366     		strge	r3, [r4, #104]
 306 0034 D0F10100 		rsbs	r0, r0, #1
 307 0038 61EB4101 		sbc	r1, r1, r1, lsl #1
 308 003c D317     		asrs	r3, r2, #31
 309 003e 8242     		cmp	r2, r0
 310 0040 8B41     		sbcs	r3, r3, r1
 311 0042 B8BF     		it	lt
 312 0044 E066     		strlt	r0, [r4, #108]
 313              	.L48:
 314 0046 45EA0615 		orr	r5, r5, r6, lsl #4
 315 004a 84F87450 		strb	r5, [r4, #116]
 316 004e 2046     		mov	r0, r4
 317 0050 BDE87040 		pop	{r4, r5, r6, lr}
 318 0054 FFF7FEBF 		b	lv_spinbox_updatevalue
 320              		.section	.text.lv_spinbox_set_step,"ax",%progbits
 321              		.align	1
 322              		.p2align 2,,3
 323              		.global	lv_spinbox_set_step
 324              		.syntax unified
 325              		.thumb
 326              		.thumb_func
 328              	lv_spinbox_set_step:
 329              		@ args = 0, pretend = 0, frame = 0
 330              		@ frame_needed = 0, uses_anonymous_args = 0
 331              		@ link register save eliminated.
 332 0000 0167     		str	r1, [r0, #112]
 333 0002 FFF7FEBF 		b	lv_spinbox_updatevalue
 335 0006 00BF     		.section	.text.lv_spinbox_set_range,"ax",%progbits
 336              		.align	1
 337              		.p2align 2,,3
 338              		.global	lv_spinbox_set_range
 339              		.syntax unified
 340              		.thumb
 341              		.thumb_func
 343              	lv_spinbox_set_range:
 344              		@ args = 0, pretend = 0, frame = 0
 345              		@ frame_needed = 0, uses_anonymous_args = 0
 346              		@ link register save eliminated.
 347 0000 436E     		ldr	r3, [r0, #100]
 348 0002 9342     		cmp	r3, r2
 349 0004 C4BF     		itt	gt
 350 0006 1346     		movgt	r3, r2
 351 0008 4266     		strgt	r2, [r0, #100]
 352 000a 9942     		cmp	r1, r3
 353 000c C0E91A21 		strd	r2, r1, [r0, #104]
 354 0010 C8BF     		it	gt
 355 0012 4166     		strgt	r1, [r0, #100]
 356 0014 FFF7FEBF 		b	lv_spinbox_updatevalue
 358              		.section	.text.lv_spinbox_set_cursor_pos,"ax",%progbits
ARM GAS  /var/folders/lp/x54gwt890xv47sdkqj1k04q40000gn/T//cckdTqel.s 			page 7


 359              		.align	1
 360              		.p2align 2,,3
 361              		.global	lv_spinbox_set_cursor_pos
 362              		.syntax unified
 363              		.thumb
 364              		.thumb_func
 366              	lv_spinbox_set_cursor_pos:
 367              		@ args = 0, pretend = 0, frame = 0
 368              		@ frame_needed = 0, uses_anonymous_args = 0
 369 0000 2DE9F041 		push	{r4, r5, r6, r7, r8, lr}
 370 0004 4AB2     		sxtb	r2, r1
 371 0006 0D46     		mov	r5, r1
 372 0008 D0E91A86 		ldrd	r8, r6, [r0, #104]
 373 000c 076F     		ldr	r7, [r0, #112]
 374 000e 0446     		mov	r4, r0
 375 0010 0021     		movs	r1, #0
 376 0012 0A20     		movs	r0, #10
 377 0014 FFF7FEFF 		bl	lv_pow
 378 0018 35B9     		cbnz	r5, .L57
 379 001a 0123     		movs	r3, #1
 380 001c 2367     		str	r3, [r4, #112]
 381 001e 2046     		mov	r0, r4
 382 0020 BDE8F041 		pop	{r4, r5, r6, r7, r8, lr}
 383 0024 FFF7FEBF 		b	lv_spinbox_updatevalue
 384              	.L57:
 385 0028 002E     		cmp	r6, #0
 386 002a B8BF     		it	lt
 387 002c 7642     		rsblt	r6, r6, #0
 388 002e 4645     		cmp	r6, r8
 389 0030 00FB07F7 		mul	r7, r0, r7
 390 0034 B8BF     		it	lt
 391 0036 4646     		movlt	r6, r8
 392 0038 BE42     		cmp	r6, r7
 393 003a A8BF     		it	ge
 394 003c 2767     		strge	r7, [r4, #112]
 395 003e 2046     		mov	r0, r4
 396 0040 BDE8F041 		pop	{r4, r5, r6, r7, r8, lr}
 397 0044 FFF7FEBF 		b	lv_spinbox_updatevalue
 399              		.section	.text.lv_spinbox_set_digit_step_direction,"ax",%progbits
 400              		.align	1
 401              		.p2align 2,,3
 402              		.global	lv_spinbox_set_digit_step_direction
 403              		.syntax unified
 404              		.thumb
 405              		.thumb_func
 407              	lv_spinbox_set_digit_step_direction:
 408              		@ args = 0, pretend = 0, frame = 0
 409              		@ frame_needed = 0, uses_anonymous_args = 0
 410              		@ link register save eliminated.
 411 0000 90F87520 		ldrb	r2, [r0, #117]	@ zero_extendqisi2
 412 0004 61F34202 		bfi	r2, r1, #1, #2
 413 0008 80F87520 		strb	r2, [r0, #117]
 414 000c FFF7FEBF 		b	lv_spinbox_updatevalue
 416              		.section	.text.lv_spinbox_get_value,"ax",%progbits
 417              		.align	1
 418              		.p2align 2,,3
 419              		.global	lv_spinbox_get_value
ARM GAS  /var/folders/lp/x54gwt890xv47sdkqj1k04q40000gn/T//cckdTqel.s 			page 8


 420              		.syntax unified
 421              		.thumb
 422              		.thumb_func
 424              	lv_spinbox_get_value:
 425              		@ args = 0, pretend = 0, frame = 0
 426              		@ frame_needed = 0, uses_anonymous_args = 0
 427              		@ link register save eliminated.
 428 0000 406E     		ldr	r0, [r0, #100]
 429 0002 7047     		bx	lr
 431              		.section	.text.lv_spinbox_get_step,"ax",%progbits
 432              		.align	1
 433              		.p2align 2,,3
 434              		.global	lv_spinbox_get_step
 435              		.syntax unified
 436              		.thumb
 437              		.thumb_func
 439              	lv_spinbox_get_step:
 440              		@ args = 0, pretend = 0, frame = 0
 441              		@ frame_needed = 0, uses_anonymous_args = 0
 442              		@ link register save eliminated.
 443 0000 006F     		ldr	r0, [r0, #112]
 444 0002 7047     		bx	lr
 446              		.section	.text.lv_spinbox_step_next,"ax",%progbits
 447              		.align	1
 448              		.p2align 2,,3
 449              		.global	lv_spinbox_step_next
 450              		.syntax unified
 451              		.thumb
 452              		.thumb_func
 454              	lv_spinbox_step_next:
 455              		@ args = 0, pretend = 0, frame = 0
 456              		@ frame_needed = 0, uses_anonymous_args = 0
 457              		@ link register save eliminated.
 458 0000 036F     		ldr	r3, [r0, #112]
 459 0002 092B     		cmp	r3, #9
 460 0004 08DD     		ble	.L65
 461 0006 0649     		ldr	r1, .L66
 462 0008 DA17     		asrs	r2, r3, #31
 463 000a 81FB0313 		smull	r1, r3, r1, r3
 464 000e C2EBA303 		rsb	r3, r2, r3, asr #2
 465 0012 0367     		str	r3, [r0, #112]
 466 0014 FFF7FEBF 		b	lv_spinbox_updatevalue
 467              	.L65:
 468 0018 0123     		movs	r3, #1
 469 001a 0367     		str	r3, [r0, #112]
 470 001c FFF7FEBF 		b	lv_spinbox_updatevalue
 471              	.L67:
 472              		.align	2
 473              	.L66:
 474 0020 67666666 		.word	1717986919
 476              		.section	.text.lv_spinbox_step_prev,"ax",%progbits
 477              		.align	1
 478              		.p2align 2,,3
 479              		.global	lv_spinbox_step_prev
 480              		.syntax unified
 481              		.thumb
 482              		.thumb_func
ARM GAS  /var/folders/lp/x54gwt890xv47sdkqj1k04q40000gn/T//cckdTqel.s 			page 9


 484              	lv_spinbox_step_prev:
 485              		@ args = 0, pretend = 0, frame = 0
 486              		@ frame_needed = 0, uses_anonymous_args = 0
 487              		@ link register save eliminated.
 488 0000 D0E91B32 		ldrd	r3, r2, [r0, #108]
 489 0004 816E     		ldr	r1, [r0, #104]
 490 0006 002B     		cmp	r3, #0
 491 0008 B8BF     		it	lt
 492 000a 5B42     		rsblt	r3, r3, #0
 493 000c 8B42     		cmp	r3, r1
 494 000e 02EB8202 		add	r2, r2, r2, lsl #2
 495 0012 B8BF     		it	lt
 496 0014 0B46     		movlt	r3, r1
 497 0016 B3EB420F 		cmp	r3, r2, lsl #1
 498 001a 4FEA4201 		lsl	r1, r2, #1
 499 001e A8BF     		it	ge
 500 0020 0167     		strge	r1, [r0, #112]
 501 0022 FFF7FEBF 		b	lv_spinbox_updatevalue
 503 0026 00BF     		.section	.text.lv_spinbox_get_rollover,"ax",%progbits
 504              		.align	1
 505              		.p2align 2,,3
 506              		.global	lv_spinbox_get_rollover
 507              		.syntax unified
 508              		.thumb
 509              		.thumb_func
 511              	lv_spinbox_get_rollover:
 512              		@ args = 0, pretend = 0, frame = 0
 513              		@ frame_needed = 0, uses_anonymous_args = 0
 514              		@ link register save eliminated.
 515 0000 90F87500 		ldrb	r0, [r0, #117]	@ zero_extendqisi2
 516 0004 00F00100 		and	r0, r0, #1
 517 0008 7047     		bx	lr
 519 000a 00BF     		.section	.text.lv_spinbox_increment,"ax",%progbits
 520              		.align	1
 521              		.p2align 2,,3
 522              		.global	lv_spinbox_increment
 523              		.syntax unified
 524              		.thumb
 525              		.thumb_func
 527              	lv_spinbox_increment:
 528              		@ args = 0, pretend = 0, frame = 0
 529              		@ frame_needed = 0, uses_anonymous_args = 0
 530              		@ link register save eliminated.
 531 0000 416E     		ldr	r1, [r0, #100]
 532 0002 036F     		ldr	r3, [r0, #112]
 533 0004 826E     		ldr	r2, [r0, #104]
 534 0006 0B44     		add	r3, r3, r1
 535 0008 9342     		cmp	r3, r2
 536 000a 09DC     		bgt	.L72
 537 000c 002B     		cmp	r3, #0
 538 000e 03DD     		ble	.L73
 539 0010 0029     		cmp	r1, #0
 540 0012 B8BF     		it	lt
 541 0014 A3EB4103 		sublt	r3, r3, r1, lsl #1
 542              	.L73:
 543 0018 1A46     		mov	r2, r3
 544              	.L74:
ARM GAS  /var/folders/lp/x54gwt890xv47sdkqj1k04q40000gn/T//cckdTqel.s 			page 10


 545 001a 4266     		str	r2, [r0, #100]
 546 001c FFF7FEBF 		b	lv_spinbox_updatevalue
 547              	.L72:
 548 0020 90F87530 		ldrb	r3, [r0, #117]	@ zero_extendqisi2
 549 0024 DB07     		lsls	r3, r3, #31
 550 0026 F8D5     		bpl	.L74
 551 0028 9142     		cmp	r1, r2
 552 002a 08BF     		it	eq
 553 002c C26E     		ldreq	r2, [r0, #108]
 554 002e 4266     		str	r2, [r0, #100]
 555 0030 FFF7FEBF 		b	lv_spinbox_updatevalue
 557              		.section	.text.lv_spinbox_decrement,"ax",%progbits
 558              		.align	1
 559              		.p2align 2,,3
 560              		.global	lv_spinbox_decrement
 561              		.syntax unified
 562              		.thumb
 563              		.thumb_func
 565              	lv_spinbox_decrement:
 566              		@ args = 0, pretend = 0, frame = 0
 567              		@ frame_needed = 0, uses_anonymous_args = 0
 568              		@ link register save eliminated.
 569 0000 10B4     		push	{r4}
 570 0002 D0E91B34 		ldrd	r3, r4, [r0, #108]
 571 0006 416E     		ldr	r1, [r0, #100]
 572 0008 0A1B     		subs	r2, r1, r4
 573 000a 9A42     		cmp	r2, r3
 574 000c 0CDB     		blt	.L79
 575 000e 002A     		cmp	r2, #0
 576 0010 05DB     		blt	.L86
 577              	.L80:
 578 0012 1346     		mov	r3, r2
 579              	.L81:
 580 0014 5DF8044B 		ldr	r4, [sp], #4
 581 0018 4366     		str	r3, [r0, #100]
 582 001a FFF7FEBF 		b	lv_spinbox_updatevalue
 583              	.L86:
 584 001e 0029     		cmp	r1, #0
 585 0020 C4BF     		itt	gt
 586 0022 4942     		rsbgt	r1, r1, #0
 587 0024 0A1B     		subgt	r2, r1, r4
 588 0026 F4E7     		b	.L80
 589              	.L79:
 590 0028 90F87520 		ldrb	r2, [r0, #117]	@ zero_extendqisi2
 591 002c D207     		lsls	r2, r2, #31
 592 002e F1D5     		bpl	.L81
 593 0030 9942     		cmp	r1, r3
 594 0032 08BF     		it	eq
 595 0034 836E     		ldreq	r3, [r0, #104]
 596 0036 5DF8044B 		ldr	r4, [sp], #4
 597 003a 4366     		str	r3, [r0, #100]
 598 003c FFF7FEBF 		b	lv_spinbox_updatevalue
 600              		.section	.text.lv_spinbox_event,"ax",%progbits
 601              		.align	1
 602              		.p2align 2,,3
 603              		.syntax unified
 604              		.thumb
ARM GAS  /var/folders/lp/x54gwt890xv47sdkqj1k04q40000gn/T//cckdTqel.s 			page 11


 605              		.thumb_func
 607              	lv_spinbox_event:
 608              		@ args = 0, pretend = 0, frame = 0
 609              		@ frame_needed = 0, uses_anonymous_args = 0
 610 0000 F8B5     		push	{r3, r4, r5, r6, r7, lr}
 611 0002 7848     		ldr	r0, .L134
 612 0004 0D46     		mov	r5, r1
 613 0006 FFF7FEFF 		bl	lv_obj_event_base
 614 000a 0128     		cmp	r0, #1
 615 000c 00D0     		beq	.L128
 616              	.L87:
 617 000e F8BD     		pop	{r3, r4, r5, r6, r7, pc}
 618              	.L128:
 619 0010 0446     		mov	r4, r0
 620 0012 2846     		mov	r0, r5
 621 0014 FFF7FEFF 		bl	lv_event_get_code
 622 0018 0646     		mov	r6, r0
 623 001a 2846     		mov	r0, r5
 624 001c FFF7FEFF 		bl	lv_event_get_target
 625 0020 082E     		cmp	r6, #8
 626 0022 0746     		mov	r7, r0
 627 0024 11D0     		beq	.L129
 628 0026 0D2E     		cmp	r6, #13
 629 0028 F1D1     		bne	.L87
 630 002a FFF7FEFF 		bl	lv_indev_get_act
 631 002e FFF7FEFF 		bl	lv_indev_get_type
 632 0032 0446     		mov	r4, r0
 633 0034 2846     		mov	r0, r5
 634 0036 FFF7FEFF 		bl	lv_event_get_param
 635 003a 0368     		ldr	r3, [r0]
 636 003c 113B     		subs	r3, r3, #17
 637 003e 032B     		cmp	r3, #3
 638 0040 E5D8     		bhi	.L87
 639 0042 DFE803F0 		tbb	[pc, r3]
 640              	.L107:
 641 0046 55       		.byte	(.L110-.L107)/2
 642 0047 50       		.byte	(.L109-.L107)/2
 643 0048 6E       		.byte	(.L108-.L107)/2
 644 0049 5A       		.byte	(.L106-.L107)/2
 645              		.p2align 1
 646              	.L129:
 647 004a FFF7FEFF 		bl	lv_indev_get_act
 648 004e FFF7FEFF 		bl	lv_indev_get_type
 649 0052 0428     		cmp	r0, #4
 650 0054 3846     		mov	r0, r7
 651 0056 23D0     		beq	.L130
 652 0058 FFF7FEFF 		bl	lv_textarea_get_text
 653 005c 0546     		mov	r5, r0
 654 005e FFF7FEFF 		bl	strlen
 655 0062 7B6C     		ldr	r3, [r7, #68]
 656 0064 EA5C     		ldrb	r2, [r5, r3]	@ zero_extendqisi2
 657 0066 2E2A     		cmp	r2, #46
 658 0068 6CD0     		beq	.L131
 659 006a 9842     		cmp	r0, r3
 660 006c 00F08380 		beq	.L132
 661 0070 FD6E     		ldr	r5, [r7, #108]
 662 0072 002B     		cmp	r3, #0
ARM GAS  /var/folders/lp/x54gwt890xv47sdkqj1k04q40000gn/T//cckdTqel.s 			page 12


 663 0074 6BD1     		bne	.L100
 664 0076 002D     		cmp	r5, #0
 665 0078 C0F28480 		blt	.L133
 666 007c 97F87410 		ldrb	r1, [r7, #116]	@ zero_extendqisi2
 667 0080 01F00F01 		and	r1, r1, #15
 668 0084 0139     		subs	r1, r1, #1
 669              	.L104:
 670 0086 0123     		movs	r3, #1
 671 0088 0022     		movs	r2, #0
 672 008a 39B1     		cbz	r1, .L124
 673              	.L105:
 674 008c 0132     		adds	r2, r2, #1
 675 008e 92B2     		uxth	r2, r2
 676 0090 03EB8303 		add	r3, r3, r3, lsl #2
 677 0094 8A42     		cmp	r2, r1
 678 0096 4FEA4303 		lsl	r3, r3, #1
 679 009a F7D3     		bcc	.L105
 680              	.L124:
 681 009c 3B67     		str	r3, [r7, #112]
 682 009e F8BD     		pop	{r3, r4, r5, r6, r7, pc}
 683              	.L130:
 684 00a0 FFF7FEFF 		bl	lv_obj_get_group
 685 00a4 FFF7FEFF 		bl	lv_group_get_editing
 686 00a8 0028     		cmp	r0, #0
 687 00aa B0D0     		beq	.L87
 688 00ac 97F87420 		ldrb	r2, [r7, #116]	@ zero_extendqisi2
 689 00b0 02F00F02 		and	r2, r2, #15
 690 00b4 012A     		cmp	r2, #1
 691 00b6 AAD9     		bls	.L87
 692 00b8 97F87530 		ldrb	r3, [r7, #117]	@ zero_extendqisi2
 693 00bc 3D6F     		ldr	r5, [r7, #112]
 694 00be 03F00603 		and	r3, r3, #6
 695 00c2 042B     		cmp	r3, #4
 696 00c4 67D1     		bne	.L93
 697 00c6 012D     		cmp	r5, #1
 698 00c8 6FDD     		ble	.L94
 699 00ca 092D     		cmp	r5, #9
 700 00cc 05DD     		ble	.L97
 701 00ce 464B     		ldr	r3, .L134+4
 702 00d0 EC17     		asrs	r4, r5, #31
 703 00d2 83FB0553 		smull	r5, r3, r3, r5
 704 00d6 C4EBA304 		rsb	r4, r4, r3, asr #2
 705              	.L97:
 706 00da 3C67     		str	r4, [r7, #112]
 707              	.L125:
 708 00dc 3846     		mov	r0, r7
 709 00de BDE8F840 		pop	{r3, r4, r5, r6, r7, lr}
 710 00e2 FFF7FEBF 		b	lv_spinbox_updatevalue
 711              	.L109:
 712 00e6 3846     		mov	r0, r7
 713 00e8 BDE8F840 		pop	{r3, r4, r5, r6, r7, lr}
 714 00ec FFF7FEBF 		b	lv_spinbox_decrement
 715              	.L110:
 716 00f0 3846     		mov	r0, r7
 717 00f2 BDE8F840 		pop	{r3, r4, r5, r6, r7, lr}
 718 00f6 FFF7FEBF 		b	lv_spinbox_increment
 719              	.L106:
ARM GAS  /var/folders/lp/x54gwt890xv47sdkqj1k04q40000gn/T//cckdTqel.s 			page 13


 720 00fa 042C     		cmp	r4, #4
 721 00fc F3D0     		beq	.L109
 722              	.L113:
 723 00fe D7E91B32 		ldrd	r3, r2, [r7, #108]
 724 0102 B96E     		ldr	r1, [r7, #104]
 725 0104 002B     		cmp	r3, #0
 726 0106 B8BF     		it	lt
 727 0108 5B42     		rsblt	r3, r3, #0
 728 010a 8B42     		cmp	r3, r1
 729 010c 02EB8202 		add	r2, r2, r2, lsl #2
 730 0110 B8BF     		it	lt
 731 0112 0B46     		movlt	r3, r1
 732 0114 B3EB420F 		cmp	r3, r2, lsl #1
 733 0118 4FEA4201 		lsl	r1, r2, #1
 734 011c DEDB     		blt	.L125
 735 011e 3967     		str	r1, [r7, #112]
 736 0120 DCE7     		b	.L125
 737              	.L108:
 738 0122 042C     		cmp	r4, #4
 739 0124 E4D0     		beq	.L110
 740 0126 3B6F     		ldr	r3, [r7, #112]
 741 0128 092B     		cmp	r3, #9
 742 012a 32DD     		ble	.L117
 743 012c 2E49     		ldr	r1, .L134+4
 744 012e DA17     		asrs	r2, r3, #31
 745 0130 81FB0313 		smull	r1, r3, r1, r3
 746 0134 C2EBA303 		rsb	r3, r2, r3, asr #2
 747              	.L112:
 748 0138 3B67     		str	r3, [r7, #112]
 749 013a 3846     		mov	r0, r7
 750 013c BDE8F840 		pop	{r3, r4, r5, r6, r7, lr}
 751 0140 FFF7FEBF 		b	lv_spinbox_updatevalue
 752              	.L131:
 753 0144 3846     		mov	r0, r7
 754 0146 FFF7FEFF 		bl	lv_textarea_cursor_left
 755 014a 7B6C     		ldr	r3, [r7, #68]
 756 014c FD6E     		ldr	r5, [r7, #108]
 757              	.L100:
 758 014e 97F87420 		ldrb	r2, [r7, #116]	@ zero_extendqisi2
 759 0152 02F00F01 		and	r1, r2, #15
 760 0156 B3EB121F 		cmp	r3, r2, lsr #4
 761 015a 01F1FF31 		add	r1, r1, #-1
 762 015e 98B2     		uxth	r0, r3
 763 0160 04D9     		bls	.L103
 764 0162 0F2A     		cmp	r2, #15
 765 0164 84BF     		itt	hi
 766 0166 00F1FF30 		addhi	r0, r0, #-1
 767 016a 80B2     		uxthhi	r0, r0
 768              	.L103:
 769 016c 091A     		subs	r1, r1, r0
 770 016e 002D     		cmp	r5, #0
 771 0170 B8BF     		it	lt
 772 0172 0131     		addlt	r1, r1, #1
 773 0174 87E7     		b	.L104
 774              	.L132:
 775 0176 591E     		subs	r1, r3, #1
 776 0178 3846     		mov	r0, r7
ARM GAS  /var/folders/lp/x54gwt890xv47sdkqj1k04q40000gn/T//cckdTqel.s 			page 14


 777 017a FFF7FEFF 		bl	lv_textarea_set_cursor_pos
 778 017e 7B6C     		ldr	r3, [r7, #68]
 779 0180 FD6E     		ldr	r5, [r7, #108]
 780 0182 E4E7     		b	.L100
 781              	.L133:
 782 0184 2146     		mov	r1, r4
 783 0186 3846     		mov	r0, r7
 784 0188 FFF7FEFF 		bl	lv_textarea_set_cursor_pos
 785 018c 7B6C     		ldr	r3, [r7, #68]
 786 018e FD6E     		ldr	r5, [r7, #108]
 787 0190 DDE7     		b	.L100
 788              	.L117:
 789 0192 0123     		movs	r3, #1
 790 0194 D0E7     		b	.L112
 791              	.L93:
 792 0196 013A     		subs	r2, r2, #1
 793 0198 0A20     		movs	r0, #10
 794 019a 0021     		movs	r1, #0
 795 019c FFF7FEFF 		bl	lv_pow
 796 01a0 EB17     		asrs	r3, r5, #31
 797 01a2 8542     		cmp	r5, r0
 798 01a4 8B41     		sbcs	r3, r3, r1
 799 01a6 98DA     		bge	.L97
 800 01a8 A9E7     		b	.L113
 801              	.L94:
 802 01aa 023A     		subs	r2, r2, #2
 803 01ac 0A20     		movs	r0, #10
 804 01ae 0021     		movs	r1, #0
 805 01b0 FFF7FEFF 		bl	lv_pow
 806 01b4 FA6E     		ldr	r2, [r7, #108]
 807 01b6 BC6E     		ldr	r4, [r7, #104]
 808 01b8 002A     		cmp	r2, #0
 809 01ba B8BF     		it	lt
 810 01bc 5242     		rsblt	r2, r2, #0
 811 01be A242     		cmp	r2, r4
 812 01c0 00EB8001 		add	r1, r0, r0, lsl #2
 813 01c4 B8BF     		it	lt
 814 01c6 2246     		movlt	r2, r4
 815 01c8 0346     		mov	r3, r0
 816 01ca B2EB410F 		cmp	r2, r1, lsl #1
 817 01ce 4FEA4100 		lsl	r0, r1, #1
 818 01d2 A8BF     		it	ge
 819 01d4 0346     		movge	r3, r0
 820 01d6 3B67     		str	r3, [r7, #112]
 821 01d8 3846     		mov	r0, r7
 822 01da BDE8F840 		pop	{r3, r4, r5, r6, r7, lr}
 823 01de FFF7FEBF 		b	lv_spinbox_updatevalue
 824              	.L135:
 825 01e2 00BF     		.align	2
 826              	.L134:
 827 01e4 00000000 		.word	lv_spinbox_class
 828 01e8 67666666 		.word	1717986919
 830              		.global	lv_spinbox_class
 831              		.section	.rodata.lv_spinbox_class,"a"
 832              		.align	2
 835              	lv_spinbox_class:
 836 0000 00000000 		.word	lv_textarea_class
ARM GAS  /var/folders/lp/x54gwt890xv47sdkqj1k04q40000gn/T//cckdTqel.s 			page 15


 837 0004 00000000 		.word	lv_spinbox_constructor
 838 0008 00000000 		.space	8
 838      00000000 
 839 0010 00000000 		.word	lv_spinbox_event
 840 0014 8200     		.short	130
 841 0016 0000     		.space	2
 842 0018 81       		.byte	129
 843 0019 07       		.byte	7
 844 001a 00       		.byte	0
 845 001b 00       		.space	1
 846              		.ident	"GCC: (xPack GNU Arm Embedded GCC arm64) 13.3.1 20240614"
ARM GAS  /var/folders/lp/x54gwt890xv47sdkqj1k04q40000gn/T//cckdTqel.s 			page 16

