ARM GAS  /var/folders/lp/x54gwt890xv47sdkqj1k04q40000gn/T//ccI3RSAH.s 			page 1


   1              		.cpu cortex-m4
   2              		.arch armv7e-m
   3              		.fpu fpv4-sp-d16
   4              		.eabi_attribute 27, 1
   5              		.eabi_attribute 28, 1
   6              		.eabi_attribute 20, 1
   7              		.eabi_attribute 21, 1
   8              		.eabi_attribute 23, 3
   9              		.eabi_attribute 24, 1
  10              		.eabi_attribute 25, 1
  11              		.eabi_attribute 26, 1
  12              		.eabi_attribute 30, 2
  13              		.eabi_attribute 34, 1
  14              		.eabi_attribute 18, 4
  15              		.file	"lv_spinner.c"
  16              		.text
  17              		.section	.text.lv_spinner_constructor,"ax",%progbits
  18              		.align	1
  19              		.p2align 2,,3
  20              		.syntax unified
  21              		.thumb
  22              		.thumb_func
  24              	lv_spinner_constructor:
  25              		@ args = 0, pretend = 0, frame = 72
  26              		@ frame_needed = 0, uses_anonymous_args = 0
  27 0000 30B5     		push	{r4, r5, lr}
  28 0002 0C46     		mov	r4, r1
  29 0004 93B0     		sub	sp, sp, #76
  30 0006 0221     		movs	r1, #2
  31 0008 2046     		mov	r0, r4
  32 000a FFF7FEFF 		bl	lv_obj_clear_flag
  33 000e 6846     		mov	r0, sp
  34 0010 FFF7FEFF 		bl	lv_anim_init
  35 0014 164B     		ldr	r3, .L4
  36 0016 174A     		ldr	r2, .L4+4
  37 0018 1B68     		ldr	r3, [r3]
  38 001a 1749     		ldr	r1, .L4+8
  39 001c 1268     		ldr	r2, [r2]
  40 001e 0B92     		str	r2, [sp, #44]
  41 0020 CDE90041 		strd	r4, r1, [sp]
  42 0024 03F5B472 		add	r2, r3, #360
  43 0028 4FF6FF71 		movw	r1, #65535
  44 002c 6846     		mov	r0, sp
  45 002e CDE90833 		strd	r3, r3, [sp, #32]
  46 0032 ADF84010 		strh	r1, [sp, #64]	@ movhi
  47 0036 0A92     		str	r2, [sp, #40]
  48 0038 FFF7FEFF 		bl	lv_anim_start
  49 003c 0021     		movs	r1, #0
  50 003e 0020     		movs	r0, #0
  51 0040 0E4B     		ldr	r3, .L4+12
  52 0042 0F4A     		ldr	r2, .L4+16
  53 0044 0193     		str	r3, [sp, #4]
  54 0046 CDE90801 		strd	r0, [sp, #32]
  55 004a 4FF4B475 		mov	r5, #360
  56 004e 6846     		mov	r0, sp
  57 0050 0792     		str	r2, [sp, #28]
  58 0052 0A95     		str	r5, [sp, #40]
ARM GAS  /var/folders/lp/x54gwt890xv47sdkqj1k04q40000gn/T//ccI3RSAH.s 			page 2


  59 0054 FFF7FEFF 		bl	lv_anim_start
  60 0058 2A46     		mov	r2, r5
  61 005a 2046     		mov	r0, r4
  62 005c 0021     		movs	r1, #0
  63 005e FFF7FEFF 		bl	lv_arc_set_bg_angles
  64 0062 4FF48771 		mov	r1, #270
  65 0066 2046     		mov	r0, r4
  66 0068 FFF7FEFF 		bl	lv_arc_set_rotation
  67 006c 13B0     		add	sp, sp, #76
  68              		@ sp needed
  69 006e 30BD     		pop	{r4, r5, pc}
  70              	.L5:
  71              		.align	2
  72              	.L4:
  73 0070 00000000 		.word	arc_length_param
  74 0074 00000000 		.word	time_param
  75 0078 00000000 		.word	arc_anim_end_angle
  76 007c 00000000 		.word	arc_anim_start_angle
  77 0080 00000000 		.word	lv_anim_path_ease_in_out
  79              		.section	.text.arc_anim_start_angle,"ax",%progbits
  80              		.align	1
  81              		.p2align 2,,3
  82              		.syntax unified
  83              		.thumb
  84              		.thumb_func
  86              	arc_anim_start_angle:
  87              		@ args = 0, pretend = 0, frame = 0
  88              		@ frame_needed = 0, uses_anonymous_args = 0
  89              		@ link register save eliminated.
  90 0000 89B2     		uxth	r1, r1
  91 0002 FFF7FEBF 		b	lv_arc_set_start_angle
  93 0006 00BF     		.section	.text.arc_anim_end_angle,"ax",%progbits
  94              		.align	1
  95              		.p2align 2,,3
  96              		.syntax unified
  97              		.thumb
  98              		.thumb_func
 100              	arc_anim_end_angle:
 101              		@ args = 0, pretend = 0, frame = 0
 102              		@ frame_needed = 0, uses_anonymous_args = 0
 103              		@ link register save eliminated.
 104 0000 89B2     		uxth	r1, r1
 105 0002 FFF7FEBF 		b	lv_arc_set_end_angle
 107 0006 00BF     		.section	.text.lv_spinner_create,"ax",%progbits
 108              		.align	1
 109              		.p2align 2,,3
 110              		.global	lv_spinner_create
 111              		.syntax unified
 112              		.thumb
 113              		.thumb_func
 115              	lv_spinner_create:
 116              		@ args = 0, pretend = 0, frame = 0
 117              		@ frame_needed = 0, uses_anonymous_args = 0
 118 0000 38B5     		push	{r3, r4, r5, lr}
 119 0002 074B     		ldr	r3, .L10
 120 0004 074C     		ldr	r4, .L10+4
 121 0006 1A60     		str	r2, [r3]
ARM GAS  /var/folders/lp/x54gwt890xv47sdkqj1k04q40000gn/T//ccI3RSAH.s 			page 3


 122 0008 0D46     		mov	r5, r1
 123 000a 0146     		mov	r1, r0
 124 000c 0648     		ldr	r0, .L10+8
 125 000e 2560     		str	r5, [r4]
 126 0010 FFF7FEFF 		bl	lv_obj_class_create_obj
 127 0014 0446     		mov	r4, r0
 128 0016 FFF7FEFF 		bl	lv_obj_class_init_obj
 129 001a 2046     		mov	r0, r4
 130 001c 38BD     		pop	{r3, r4, r5, pc}
 131              	.L11:
 132 001e 00BF     		.align	2
 133              	.L10:
 134 0020 00000000 		.word	arc_length_param
 135 0024 00000000 		.word	time_param
 136 0028 00000000 		.word	lv_spinner_class
 138              		.section	.bss.arc_length_param,"aw",%nobits
 139              		.align	2
 142              	arc_length_param:
 143 0000 00000000 		.space	4
 144              		.section	.bss.time_param,"aw",%nobits
 145              		.align	2
 148              	time_param:
 149 0000 00000000 		.space	4
 150              		.global	lv_spinner_class
 151              		.section	.rodata.lv_spinner_class,"a"
 152              		.align	2
 155              	lv_spinner_class:
 156 0000 00000000 		.word	lv_arc_class
 157 0004 00000000 		.word	lv_spinner_constructor
 158 0008 00000000 		.space	20
 158      00000000 
 158      00000000 
 158      00000000 
 158      00000000 
 159              		.ident	"GCC: (xPack GNU Arm Embedded GCC arm64) 13.3.1 20240614"
ARM GAS  /var/folders/lp/x54gwt890xv47sdkqj1k04q40000gn/T//ccI3RSAH.s 			page 4

