ARM GAS  /var/folders/lp/x54gwt890xv47sdkqj1k04q40000gn/T//ccppYrcD.s 			page 1


   1              		.cpu cortex-m4
   2              		.arch armv7e-m
   3              		.fpu fpv4-sp-d16
   4              		.eabi_attribute 27, 1
   5              		.eabi_attribute 28, 1
   6              		.eabi_attribute 20, 1
   7              		.eabi_attribute 21, 1
   8              		.eabi_attribute 23, 3
   9              		.eabi_attribute 24, 1
  10              		.eabi_attribute 25, 1
  11              		.eabi_attribute 26, 1
  12              		.eabi_attribute 30, 2
  13              		.eabi_attribute 34, 1
  14              		.eabi_attribute 18, 4
  15              		.file	"lv_style_gen.c"
  16              		.text
  17              		.section	.text.lv_style_set_width,"ax",%progbits
  18              		.align	1
  19              		.p2align 2,,3
  20              		.global	lv_style_set_width
  21              		.syntax unified
  22              		.thumb
  23              		.thumb_func
  25              	lv_style_set_width:
  26              		@ args = 0, pretend = 0, frame = 0
  27              		@ frame_needed = 0, uses_anonymous_args = 0
  28              		@ link register save eliminated.
  29 0000 0A46     		mov	r2, r1
  30 0002 0121     		movs	r1, #1
  31 0004 FFF7FEBF 		b	lv_style_set_prop
  33              		.section	.text.lv_style_set_min_width,"ax",%progbits
  34              		.align	1
  35              		.p2align 2,,3
  36              		.global	lv_style_set_min_width
  37              		.syntax unified
  38              		.thumb
  39              		.thumb_func
  41              	lv_style_set_min_width:
  42              		@ args = 0, pretend = 0, frame = 0
  43              		@ frame_needed = 0, uses_anonymous_args = 0
  44              		@ link register save eliminated.
  45 0000 0A46     		mov	r2, r1
  46 0002 0221     		movs	r1, #2
  47 0004 FFF7FEBF 		b	lv_style_set_prop
  49              		.section	.text.lv_style_set_max_width,"ax",%progbits
  50              		.align	1
  51              		.p2align 2,,3
  52              		.global	lv_style_set_max_width
  53              		.syntax unified
  54              		.thumb
  55              		.thumb_func
  57              	lv_style_set_max_width:
  58              		@ args = 0, pretend = 0, frame = 0
  59              		@ frame_needed = 0, uses_anonymous_args = 0
  60              		@ link register save eliminated.
  61 0000 0A46     		mov	r2, r1
  62 0002 0321     		movs	r1, #3
ARM GAS  /var/folders/lp/x54gwt890xv47sdkqj1k04q40000gn/T//ccppYrcD.s 			page 2


  63 0004 FFF7FEBF 		b	lv_style_set_prop
  65              		.section	.text.lv_style_set_height,"ax",%progbits
  66              		.align	1
  67              		.p2align 2,,3
  68              		.global	lv_style_set_height
  69              		.syntax unified
  70              		.thumb
  71              		.thumb_func
  73              	lv_style_set_height:
  74              		@ args = 0, pretend = 0, frame = 0
  75              		@ frame_needed = 0, uses_anonymous_args = 0
  76              		@ link register save eliminated.
  77 0000 0A46     		mov	r2, r1
  78 0002 0421     		movs	r1, #4
  79 0004 FFF7FEBF 		b	lv_style_set_prop
  81              		.section	.text.lv_style_set_min_height,"ax",%progbits
  82              		.align	1
  83              		.p2align 2,,3
  84              		.global	lv_style_set_min_height
  85              		.syntax unified
  86              		.thumb
  87              		.thumb_func
  89              	lv_style_set_min_height:
  90              		@ args = 0, pretend = 0, frame = 0
  91              		@ frame_needed = 0, uses_anonymous_args = 0
  92              		@ link register save eliminated.
  93 0000 0A46     		mov	r2, r1
  94 0002 0521     		movs	r1, #5
  95 0004 FFF7FEBF 		b	lv_style_set_prop
  97              		.section	.text.lv_style_set_max_height,"ax",%progbits
  98              		.align	1
  99              		.p2align 2,,3
 100              		.global	lv_style_set_max_height
 101              		.syntax unified
 102              		.thumb
 103              		.thumb_func
 105              	lv_style_set_max_height:
 106              		@ args = 0, pretend = 0, frame = 0
 107              		@ frame_needed = 0, uses_anonymous_args = 0
 108              		@ link register save eliminated.
 109 0000 0A46     		mov	r2, r1
 110 0002 0621     		movs	r1, #6
 111 0004 FFF7FEBF 		b	lv_style_set_prop
 113              		.section	.text.lv_style_set_x,"ax",%progbits
 114              		.align	1
 115              		.p2align 2,,3
 116              		.global	lv_style_set_x
 117              		.syntax unified
 118              		.thumb
 119              		.thumb_func
 121              	lv_style_set_x:
 122              		@ args = 0, pretend = 0, frame = 0
 123              		@ frame_needed = 0, uses_anonymous_args = 0
 124              		@ link register save eliminated.
 125 0000 0A46     		mov	r2, r1
 126 0002 0721     		movs	r1, #7
 127 0004 FFF7FEBF 		b	lv_style_set_prop
ARM GAS  /var/folders/lp/x54gwt890xv47sdkqj1k04q40000gn/T//ccppYrcD.s 			page 3


 129              		.section	.text.lv_style_set_y,"ax",%progbits
 130              		.align	1
 131              		.p2align 2,,3
 132              		.global	lv_style_set_y
 133              		.syntax unified
 134              		.thumb
 135              		.thumb_func
 137              	lv_style_set_y:
 138              		@ args = 0, pretend = 0, frame = 0
 139              		@ frame_needed = 0, uses_anonymous_args = 0
 140              		@ link register save eliminated.
 141 0000 0A46     		mov	r2, r1
 142 0002 0821     		movs	r1, #8
 143 0004 FFF7FEBF 		b	lv_style_set_prop
 145              		.section	.text.lv_style_set_align,"ax",%progbits
 146              		.align	1
 147              		.p2align 2,,3
 148              		.global	lv_style_set_align
 149              		.syntax unified
 150              		.thumb
 151              		.thumb_func
 153              	lv_style_set_align:
 154              		@ args = 0, pretend = 0, frame = 0
 155              		@ frame_needed = 0, uses_anonymous_args = 0
 156              		@ link register save eliminated.
 157 0000 0A46     		mov	r2, r1
 158 0002 0921     		movs	r1, #9
 159 0004 FFF7FEBF 		b	lv_style_set_prop
 161              		.section	.text.lv_style_set_transform_width,"ax",%progbits
 162              		.align	1
 163              		.p2align 2,,3
 164              		.global	lv_style_set_transform_width
 165              		.syntax unified
 166              		.thumb
 167              		.thumb_func
 169              	lv_style_set_transform_width:
 170              		@ args = 0, pretend = 0, frame = 0
 171              		@ frame_needed = 0, uses_anonymous_args = 0
 172              		@ link register save eliminated.
 173 0000 0A46     		mov	r2, r1
 174 0002 6921     		movs	r1, #105
 175 0004 FFF7FEBF 		b	lv_style_set_prop
 177              		.section	.text.lv_style_set_transform_height,"ax",%progbits
 178              		.align	1
 179              		.p2align 2,,3
 180              		.global	lv_style_set_transform_height
 181              		.syntax unified
 182              		.thumb
 183              		.thumb_func
 185              	lv_style_set_transform_height:
 186              		@ args = 0, pretend = 0, frame = 0
 187              		@ frame_needed = 0, uses_anonymous_args = 0
 188              		@ link register save eliminated.
 189 0000 0A46     		mov	r2, r1
 190 0002 6A21     		movs	r1, #106
 191 0004 FFF7FEBF 		b	lv_style_set_prop
 193              		.section	.text.lv_style_set_translate_x,"ax",%progbits
ARM GAS  /var/folders/lp/x54gwt890xv47sdkqj1k04q40000gn/T//ccppYrcD.s 			page 4


 194              		.align	1
 195              		.p2align 2,,3
 196              		.global	lv_style_set_translate_x
 197              		.syntax unified
 198              		.thumb
 199              		.thumb_func
 201              	lv_style_set_translate_x:
 202              		@ args = 0, pretend = 0, frame = 0
 203              		@ frame_needed = 0, uses_anonymous_args = 0
 204              		@ link register save eliminated.
 205 0000 0A46     		mov	r2, r1
 206 0002 6B21     		movs	r1, #107
 207 0004 FFF7FEBF 		b	lv_style_set_prop
 209              		.section	.text.lv_style_set_translate_y,"ax",%progbits
 210              		.align	1
 211              		.p2align 2,,3
 212              		.global	lv_style_set_translate_y
 213              		.syntax unified
 214              		.thumb
 215              		.thumb_func
 217              	lv_style_set_translate_y:
 218              		@ args = 0, pretend = 0, frame = 0
 219              		@ frame_needed = 0, uses_anonymous_args = 0
 220              		@ link register save eliminated.
 221 0000 0A46     		mov	r2, r1
 222 0002 6C21     		movs	r1, #108
 223 0004 FFF7FEBF 		b	lv_style_set_prop
 225              		.section	.text.lv_style_set_transform_zoom,"ax",%progbits
 226              		.align	1
 227              		.p2align 2,,3
 228              		.global	lv_style_set_transform_zoom
 229              		.syntax unified
 230              		.thumb
 231              		.thumb_func
 233              	lv_style_set_transform_zoom:
 234              		@ args = 0, pretend = 0, frame = 0
 235              		@ frame_needed = 0, uses_anonymous_args = 0
 236              		@ link register save eliminated.
 237 0000 0A46     		mov	r2, r1
 238 0002 6D21     		movs	r1, #109
 239 0004 FFF7FEBF 		b	lv_style_set_prop
 241              		.section	.text.lv_style_set_transform_angle,"ax",%progbits
 242              		.align	1
 243              		.p2align 2,,3
 244              		.global	lv_style_set_transform_angle
 245              		.syntax unified
 246              		.thumb
 247              		.thumb_func
 249              	lv_style_set_transform_angle:
 250              		@ args = 0, pretend = 0, frame = 0
 251              		@ frame_needed = 0, uses_anonymous_args = 0
 252              		@ link register save eliminated.
 253 0000 0A46     		mov	r2, r1
 254 0002 6E21     		movs	r1, #110
 255 0004 FFF7FEBF 		b	lv_style_set_prop
 257              		.section	.text.lv_style_set_transform_pivot_x,"ax",%progbits
 258              		.align	1
ARM GAS  /var/folders/lp/x54gwt890xv47sdkqj1k04q40000gn/T//ccppYrcD.s 			page 5


 259              		.p2align 2,,3
 260              		.global	lv_style_set_transform_pivot_x
 261              		.syntax unified
 262              		.thumb
 263              		.thumb_func
 265              	lv_style_set_transform_pivot_x:
 266              		@ args = 0, pretend = 0, frame = 0
 267              		@ frame_needed = 0, uses_anonymous_args = 0
 268              		@ link register save eliminated.
 269 0000 0A46     		mov	r2, r1
 270 0002 6F21     		movs	r1, #111
 271 0004 FFF7FEBF 		b	lv_style_set_prop
 273              		.section	.text.lv_style_set_transform_pivot_y,"ax",%progbits
 274              		.align	1
 275              		.p2align 2,,3
 276              		.global	lv_style_set_transform_pivot_y
 277              		.syntax unified
 278              		.thumb
 279              		.thumb_func
 281              	lv_style_set_transform_pivot_y:
 282              		@ args = 0, pretend = 0, frame = 0
 283              		@ frame_needed = 0, uses_anonymous_args = 0
 284              		@ link register save eliminated.
 285 0000 0A46     		mov	r2, r1
 286 0002 7021     		movs	r1, #112
 287 0004 FFF7FEBF 		b	lv_style_set_prop
 289              		.section	.text.lv_style_set_pad_top,"ax",%progbits
 290              		.align	1
 291              		.p2align 2,,3
 292              		.global	lv_style_set_pad_top
 293              		.syntax unified
 294              		.thumb
 295              		.thumb_func
 297              	lv_style_set_pad_top:
 298              		@ args = 0, pretend = 0, frame = 0
 299              		@ frame_needed = 0, uses_anonymous_args = 0
 300              		@ link register save eliminated.
 301 0000 0A46     		mov	r2, r1
 302 0002 1021     		movs	r1, #16
 303 0004 FFF7FEBF 		b	lv_style_set_prop
 305              		.section	.text.lv_style_set_pad_bottom,"ax",%progbits
 306              		.align	1
 307              		.p2align 2,,3
 308              		.global	lv_style_set_pad_bottom
 309              		.syntax unified
 310              		.thumb
 311              		.thumb_func
 313              	lv_style_set_pad_bottom:
 314              		@ args = 0, pretend = 0, frame = 0
 315              		@ frame_needed = 0, uses_anonymous_args = 0
 316              		@ link register save eliminated.
 317 0000 0A46     		mov	r2, r1
 318 0002 1121     		movs	r1, #17
 319 0004 FFF7FEBF 		b	lv_style_set_prop
 321              		.section	.text.lv_style_set_pad_left,"ax",%progbits
 322              		.align	1
 323              		.p2align 2,,3
ARM GAS  /var/folders/lp/x54gwt890xv47sdkqj1k04q40000gn/T//ccppYrcD.s 			page 6


 324              		.global	lv_style_set_pad_left
 325              		.syntax unified
 326              		.thumb
 327              		.thumb_func
 329              	lv_style_set_pad_left:
 330              		@ args = 0, pretend = 0, frame = 0
 331              		@ frame_needed = 0, uses_anonymous_args = 0
 332              		@ link register save eliminated.
 333 0000 0A46     		mov	r2, r1
 334 0002 1221     		movs	r1, #18
 335 0004 FFF7FEBF 		b	lv_style_set_prop
 337              		.section	.text.lv_style_set_pad_right,"ax",%progbits
 338              		.align	1
 339              		.p2align 2,,3
 340              		.global	lv_style_set_pad_right
 341              		.syntax unified
 342              		.thumb
 343              		.thumb_func
 345              	lv_style_set_pad_right:
 346              		@ args = 0, pretend = 0, frame = 0
 347              		@ frame_needed = 0, uses_anonymous_args = 0
 348              		@ link register save eliminated.
 349 0000 0A46     		mov	r2, r1
 350 0002 1321     		movs	r1, #19
 351 0004 FFF7FEBF 		b	lv_style_set_prop
 353              		.section	.text.lv_style_set_pad_row,"ax",%progbits
 354              		.align	1
 355              		.p2align 2,,3
 356              		.global	lv_style_set_pad_row
 357              		.syntax unified
 358              		.thumb
 359              		.thumb_func
 361              	lv_style_set_pad_row:
 362              		@ args = 0, pretend = 0, frame = 0
 363              		@ frame_needed = 0, uses_anonymous_args = 0
 364              		@ link register save eliminated.
 365 0000 0A46     		mov	r2, r1
 366 0002 1421     		movs	r1, #20
 367 0004 FFF7FEBF 		b	lv_style_set_prop
 369              		.section	.text.lv_style_set_pad_column,"ax",%progbits
 370              		.align	1
 371              		.p2align 2,,3
 372              		.global	lv_style_set_pad_column
 373              		.syntax unified
 374              		.thumb
 375              		.thumb_func
 377              	lv_style_set_pad_column:
 378              		@ args = 0, pretend = 0, frame = 0
 379              		@ frame_needed = 0, uses_anonymous_args = 0
 380              		@ link register save eliminated.
 381 0000 0A46     		mov	r2, r1
 382 0002 1521     		movs	r1, #21
 383 0004 FFF7FEBF 		b	lv_style_set_prop
 385              		.section	.text.lv_style_set_bg_color,"ax",%progbits
 386              		.align	1
 387              		.p2align 2,,3
 388              		.global	lv_style_set_bg_color
ARM GAS  /var/folders/lp/x54gwt890xv47sdkqj1k04q40000gn/T//ccppYrcD.s 			page 7


 389              		.syntax unified
 390              		.thumb
 391              		.thumb_func
 393              	lv_style_set_bg_color:
 394              		@ args = 0, pretend = 0, frame = 8
 395              		@ frame_needed = 0, uses_anonymous_args = 0
 396              		@ link register save eliminated.
 397 0000 82B0     		sub	sp, sp, #8
 398 0002 0023     		movs	r3, #0
 399 0004 8AB2     		uxth	r2, r1
 400 0006 2021     		movs	r1, #32
 401 0008 ADF80030 		strh	r3, [sp]	@ movhi
 402 000c 02B0     		add	sp, sp, #8
 403              		@ sp needed
 404 000e FFF7FEBF 		b	lv_style_set_prop
 406 0012 00BF     		.section	.text.lv_style_set_bg_opa,"ax",%progbits
 407              		.align	1
 408              		.p2align 2,,3
 409              		.global	lv_style_set_bg_opa
 410              		.syntax unified
 411              		.thumb
 412              		.thumb_func
 414              	lv_style_set_bg_opa:
 415              		@ args = 0, pretend = 0, frame = 0
 416              		@ frame_needed = 0, uses_anonymous_args = 0
 417              		@ link register save eliminated.
 418 0000 0A46     		mov	r2, r1
 419 0002 2121     		movs	r1, #33
 420 0004 FFF7FEBF 		b	lv_style_set_prop
 422              		.section	.text.lv_style_set_bg_grad_color,"ax",%progbits
 423              		.align	1
 424              		.p2align 2,,3
 425              		.global	lv_style_set_bg_grad_color
 426              		.syntax unified
 427              		.thumb
 428              		.thumb_func
 430              	lv_style_set_bg_grad_color:
 431              		@ args = 0, pretend = 0, frame = 8
 432              		@ frame_needed = 0, uses_anonymous_args = 0
 433              		@ link register save eliminated.
 434 0000 82B0     		sub	sp, sp, #8
 435 0002 0023     		movs	r3, #0
 436 0004 8AB2     		uxth	r2, r1
 437 0006 2221     		movs	r1, #34
 438 0008 ADF80030 		strh	r3, [sp]	@ movhi
 439 000c 02B0     		add	sp, sp, #8
 440              		@ sp needed
 441 000e FFF7FEBF 		b	lv_style_set_prop
 443 0012 00BF     		.section	.text.lv_style_set_bg_grad_dir,"ax",%progbits
 444              		.align	1
 445              		.p2align 2,,3
 446              		.global	lv_style_set_bg_grad_dir
 447              		.syntax unified
 448              		.thumb
 449              		.thumb_func
 451              	lv_style_set_bg_grad_dir:
 452              		@ args = 0, pretend = 0, frame = 0
ARM GAS  /var/folders/lp/x54gwt890xv47sdkqj1k04q40000gn/T//ccppYrcD.s 			page 8


 453              		@ frame_needed = 0, uses_anonymous_args = 0
 454              		@ link register save eliminated.
 455 0000 0A46     		mov	r2, r1
 456 0002 2321     		movs	r1, #35
 457 0004 FFF7FEBF 		b	lv_style_set_prop
 459              		.section	.text.lv_style_set_bg_main_stop,"ax",%progbits
 460              		.align	1
 461              		.p2align 2,,3
 462              		.global	lv_style_set_bg_main_stop
 463              		.syntax unified
 464              		.thumb
 465              		.thumb_func
 467              	lv_style_set_bg_main_stop:
 468              		@ args = 0, pretend = 0, frame = 0
 469              		@ frame_needed = 0, uses_anonymous_args = 0
 470              		@ link register save eliminated.
 471 0000 0A46     		mov	r2, r1
 472 0002 2421     		movs	r1, #36
 473 0004 FFF7FEBF 		b	lv_style_set_prop
 475              		.section	.text.lv_style_set_bg_grad_stop,"ax",%progbits
 476              		.align	1
 477              		.p2align 2,,3
 478              		.global	lv_style_set_bg_grad_stop
 479              		.syntax unified
 480              		.thumb
 481              		.thumb_func
 483              	lv_style_set_bg_grad_stop:
 484              		@ args = 0, pretend = 0, frame = 0
 485              		@ frame_needed = 0, uses_anonymous_args = 0
 486              		@ link register save eliminated.
 487 0000 0A46     		mov	r2, r1
 488 0002 2521     		movs	r1, #37
 489 0004 FFF7FEBF 		b	lv_style_set_prop
 491              		.section	.text.lv_style_set_bg_grad,"ax",%progbits
 492              		.align	1
 493              		.p2align 2,,3
 494              		.global	lv_style_set_bg_grad
 495              		.syntax unified
 496              		.thumb
 497              		.thumb_func
 499              	lv_style_set_bg_grad:
 500              		@ args = 0, pretend = 0, frame = 0
 501              		@ frame_needed = 0, uses_anonymous_args = 0
 502              		@ link register save eliminated.
 503 0000 0A46     		mov	r2, r1
 504 0002 2621     		movs	r1, #38
 505 0004 FFF7FEBF 		b	lv_style_set_prop
 507              		.section	.text.lv_style_set_bg_dither_mode,"ax",%progbits
 508              		.align	1
 509              		.p2align 2,,3
 510              		.global	lv_style_set_bg_dither_mode
 511              		.syntax unified
 512              		.thumb
 513              		.thumb_func
 515              	lv_style_set_bg_dither_mode:
 516              		@ args = 0, pretend = 0, frame = 0
 517              		@ frame_needed = 0, uses_anonymous_args = 0
ARM GAS  /var/folders/lp/x54gwt890xv47sdkqj1k04q40000gn/T//ccppYrcD.s 			page 9


 518              		@ link register save eliminated.
 519 0000 0A46     		mov	r2, r1
 520 0002 2721     		movs	r1, #39
 521 0004 FFF7FEBF 		b	lv_style_set_prop
 523              		.section	.text.lv_style_set_bg_img_src,"ax",%progbits
 524              		.align	1
 525              		.p2align 2,,3
 526              		.global	lv_style_set_bg_img_src
 527              		.syntax unified
 528              		.thumb
 529              		.thumb_func
 531              	lv_style_set_bg_img_src:
 532              		@ args = 0, pretend = 0, frame = 0
 533              		@ frame_needed = 0, uses_anonymous_args = 0
 534              		@ link register save eliminated.
 535 0000 0A46     		mov	r2, r1
 536 0002 2821     		movs	r1, #40
 537 0004 FFF7FEBF 		b	lv_style_set_prop
 539              		.section	.text.lv_style_set_bg_img_opa,"ax",%progbits
 540              		.align	1
 541              		.p2align 2,,3
 542              		.global	lv_style_set_bg_img_opa
 543              		.syntax unified
 544              		.thumb
 545              		.thumb_func
 547              	lv_style_set_bg_img_opa:
 548              		@ args = 0, pretend = 0, frame = 0
 549              		@ frame_needed = 0, uses_anonymous_args = 0
 550              		@ link register save eliminated.
 551 0000 0A46     		mov	r2, r1
 552 0002 2921     		movs	r1, #41
 553 0004 FFF7FEBF 		b	lv_style_set_prop
 555              		.section	.text.lv_style_set_bg_img_recolor,"ax",%progbits
 556              		.align	1
 557              		.p2align 2,,3
 558              		.global	lv_style_set_bg_img_recolor
 559              		.syntax unified
 560              		.thumb
 561              		.thumb_func
 563              	lv_style_set_bg_img_recolor:
 564              		@ args = 0, pretend = 0, frame = 8
 565              		@ frame_needed = 0, uses_anonymous_args = 0
 566              		@ link register save eliminated.
 567 0000 82B0     		sub	sp, sp, #8
 568 0002 0023     		movs	r3, #0
 569 0004 8AB2     		uxth	r2, r1
 570 0006 2A21     		movs	r1, #42
 571 0008 ADF80030 		strh	r3, [sp]	@ movhi
 572 000c 02B0     		add	sp, sp, #8
 573              		@ sp needed
 574 000e FFF7FEBF 		b	lv_style_set_prop
 576 0012 00BF     		.section	.text.lv_style_set_bg_img_recolor_opa,"ax",%progbits
 577              		.align	1
 578              		.p2align 2,,3
 579              		.global	lv_style_set_bg_img_recolor_opa
 580              		.syntax unified
 581              		.thumb
ARM GAS  /var/folders/lp/x54gwt890xv47sdkqj1k04q40000gn/T//ccppYrcD.s 			page 10


 582              		.thumb_func
 584              	lv_style_set_bg_img_recolor_opa:
 585              		@ args = 0, pretend = 0, frame = 0
 586              		@ frame_needed = 0, uses_anonymous_args = 0
 587              		@ link register save eliminated.
 588 0000 0A46     		mov	r2, r1
 589 0002 2B21     		movs	r1, #43
 590 0004 FFF7FEBF 		b	lv_style_set_prop
 592              		.section	.text.lv_style_set_bg_img_tiled,"ax",%progbits
 593              		.align	1
 594              		.p2align 2,,3
 595              		.global	lv_style_set_bg_img_tiled
 596              		.syntax unified
 597              		.thumb
 598              		.thumb_func
 600              	lv_style_set_bg_img_tiled:
 601              		@ args = 0, pretend = 0, frame = 0
 602              		@ frame_needed = 0, uses_anonymous_args = 0
 603              		@ link register save eliminated.
 604 0000 0A46     		mov	r2, r1
 605 0002 2C21     		movs	r1, #44
 606 0004 FFF7FEBF 		b	lv_style_set_prop
 608              		.section	.text.lv_style_set_border_color,"ax",%progbits
 609              		.align	1
 610              		.p2align 2,,3
 611              		.global	lv_style_set_border_color
 612              		.syntax unified
 613              		.thumb
 614              		.thumb_func
 616              	lv_style_set_border_color:
 617              		@ args = 0, pretend = 0, frame = 8
 618              		@ frame_needed = 0, uses_anonymous_args = 0
 619              		@ link register save eliminated.
 620 0000 82B0     		sub	sp, sp, #8
 621 0002 0023     		movs	r3, #0
 622 0004 8AB2     		uxth	r2, r1
 623 0006 3021     		movs	r1, #48
 624 0008 ADF80030 		strh	r3, [sp]	@ movhi
 625 000c 02B0     		add	sp, sp, #8
 626              		@ sp needed
 627 000e FFF7FEBF 		b	lv_style_set_prop
 629 0012 00BF     		.section	.text.lv_style_set_border_opa,"ax",%progbits
 630              		.align	1
 631              		.p2align 2,,3
 632              		.global	lv_style_set_border_opa
 633              		.syntax unified
 634              		.thumb
 635              		.thumb_func
 637              	lv_style_set_border_opa:
 638              		@ args = 0, pretend = 0, frame = 0
 639              		@ frame_needed = 0, uses_anonymous_args = 0
 640              		@ link register save eliminated.
 641 0000 0A46     		mov	r2, r1
 642 0002 3121     		movs	r1, #49
 643 0004 FFF7FEBF 		b	lv_style_set_prop
 645              		.section	.text.lv_style_set_border_width,"ax",%progbits
 646              		.align	1
ARM GAS  /var/folders/lp/x54gwt890xv47sdkqj1k04q40000gn/T//ccppYrcD.s 			page 11


 647              		.p2align 2,,3
 648              		.global	lv_style_set_border_width
 649              		.syntax unified
 650              		.thumb
 651              		.thumb_func
 653              	lv_style_set_border_width:
 654              		@ args = 0, pretend = 0, frame = 0
 655              		@ frame_needed = 0, uses_anonymous_args = 0
 656              		@ link register save eliminated.
 657 0000 0A46     		mov	r2, r1
 658 0002 3221     		movs	r1, #50
 659 0004 FFF7FEBF 		b	lv_style_set_prop
 661              		.section	.text.lv_style_set_border_side,"ax",%progbits
 662              		.align	1
 663              		.p2align 2,,3
 664              		.global	lv_style_set_border_side
 665              		.syntax unified
 666              		.thumb
 667              		.thumb_func
 669              	lv_style_set_border_side:
 670              		@ args = 0, pretend = 0, frame = 0
 671              		@ frame_needed = 0, uses_anonymous_args = 0
 672              		@ link register save eliminated.
 673 0000 0A46     		mov	r2, r1
 674 0002 3321     		movs	r1, #51
 675 0004 FFF7FEBF 		b	lv_style_set_prop
 677              		.section	.text.lv_style_set_border_post,"ax",%progbits
 678              		.align	1
 679              		.p2align 2,,3
 680              		.global	lv_style_set_border_post
 681              		.syntax unified
 682              		.thumb
 683              		.thumb_func
 685              	lv_style_set_border_post:
 686              		@ args = 0, pretend = 0, frame = 0
 687              		@ frame_needed = 0, uses_anonymous_args = 0
 688              		@ link register save eliminated.
 689 0000 0A46     		mov	r2, r1
 690 0002 3421     		movs	r1, #52
 691 0004 FFF7FEBF 		b	lv_style_set_prop
 693              		.section	.text.lv_style_set_outline_width,"ax",%progbits
 694              		.align	1
 695              		.p2align 2,,3
 696              		.global	lv_style_set_outline_width
 697              		.syntax unified
 698              		.thumb
 699              		.thumb_func
 701              	lv_style_set_outline_width:
 702              		@ args = 0, pretend = 0, frame = 0
 703              		@ frame_needed = 0, uses_anonymous_args = 0
 704              		@ link register save eliminated.
 705 0000 0A46     		mov	r2, r1
 706 0002 3521     		movs	r1, #53
 707 0004 FFF7FEBF 		b	lv_style_set_prop
 709              		.section	.text.lv_style_set_outline_color,"ax",%progbits
 710              		.align	1
 711              		.p2align 2,,3
ARM GAS  /var/folders/lp/x54gwt890xv47sdkqj1k04q40000gn/T//ccppYrcD.s 			page 12


 712              		.global	lv_style_set_outline_color
 713              		.syntax unified
 714              		.thumb
 715              		.thumb_func
 717              	lv_style_set_outline_color:
 718              		@ args = 0, pretend = 0, frame = 8
 719              		@ frame_needed = 0, uses_anonymous_args = 0
 720              		@ link register save eliminated.
 721 0000 82B0     		sub	sp, sp, #8
 722 0002 0023     		movs	r3, #0
 723 0004 8AB2     		uxth	r2, r1
 724 0006 3621     		movs	r1, #54
 725 0008 ADF80030 		strh	r3, [sp]	@ movhi
 726 000c 02B0     		add	sp, sp, #8
 727              		@ sp needed
 728 000e FFF7FEBF 		b	lv_style_set_prop
 730 0012 00BF     		.section	.text.lv_style_set_outline_opa,"ax",%progbits
 731              		.align	1
 732              		.p2align 2,,3
 733              		.global	lv_style_set_outline_opa
 734              		.syntax unified
 735              		.thumb
 736              		.thumb_func
 738              	lv_style_set_outline_opa:
 739              		@ args = 0, pretend = 0, frame = 0
 740              		@ frame_needed = 0, uses_anonymous_args = 0
 741              		@ link register save eliminated.
 742 0000 0A46     		mov	r2, r1
 743 0002 3721     		movs	r1, #55
 744 0004 FFF7FEBF 		b	lv_style_set_prop
 746              		.section	.text.lv_style_set_outline_pad,"ax",%progbits
 747              		.align	1
 748              		.p2align 2,,3
 749              		.global	lv_style_set_outline_pad
 750              		.syntax unified
 751              		.thumb
 752              		.thumb_func
 754              	lv_style_set_outline_pad:
 755              		@ args = 0, pretend = 0, frame = 0
 756              		@ frame_needed = 0, uses_anonymous_args = 0
 757              		@ link register save eliminated.
 758 0000 0A46     		mov	r2, r1
 759 0002 3821     		movs	r1, #56
 760 0004 FFF7FEBF 		b	lv_style_set_prop
 762              		.section	.text.lv_style_set_shadow_width,"ax",%progbits
 763              		.align	1
 764              		.p2align 2,,3
 765              		.global	lv_style_set_shadow_width
 766              		.syntax unified
 767              		.thumb
 768              		.thumb_func
 770              	lv_style_set_shadow_width:
 771              		@ args = 0, pretend = 0, frame = 0
 772              		@ frame_needed = 0, uses_anonymous_args = 0
 773              		@ link register save eliminated.
 774 0000 0A46     		mov	r2, r1
 775 0002 4021     		movs	r1, #64
ARM GAS  /var/folders/lp/x54gwt890xv47sdkqj1k04q40000gn/T//ccppYrcD.s 			page 13


 776 0004 FFF7FEBF 		b	lv_style_set_prop
 778              		.section	.text.lv_style_set_shadow_ofs_x,"ax",%progbits
 779              		.align	1
 780              		.p2align 2,,3
 781              		.global	lv_style_set_shadow_ofs_x
 782              		.syntax unified
 783              		.thumb
 784              		.thumb_func
 786              	lv_style_set_shadow_ofs_x:
 787              		@ args = 0, pretend = 0, frame = 0
 788              		@ frame_needed = 0, uses_anonymous_args = 0
 789              		@ link register save eliminated.
 790 0000 0A46     		mov	r2, r1
 791 0002 4121     		movs	r1, #65
 792 0004 FFF7FEBF 		b	lv_style_set_prop
 794              		.section	.text.lv_style_set_shadow_ofs_y,"ax",%progbits
 795              		.align	1
 796              		.p2align 2,,3
 797              		.global	lv_style_set_shadow_ofs_y
 798              		.syntax unified
 799              		.thumb
 800              		.thumb_func
 802              	lv_style_set_shadow_ofs_y:
 803              		@ args = 0, pretend = 0, frame = 0
 804              		@ frame_needed = 0, uses_anonymous_args = 0
 805              		@ link register save eliminated.
 806 0000 0A46     		mov	r2, r1
 807 0002 4221     		movs	r1, #66
 808 0004 FFF7FEBF 		b	lv_style_set_prop
 810              		.section	.text.lv_style_set_shadow_spread,"ax",%progbits
 811              		.align	1
 812              		.p2align 2,,3
 813              		.global	lv_style_set_shadow_spread
 814              		.syntax unified
 815              		.thumb
 816              		.thumb_func
 818              	lv_style_set_shadow_spread:
 819              		@ args = 0, pretend = 0, frame = 0
 820              		@ frame_needed = 0, uses_anonymous_args = 0
 821              		@ link register save eliminated.
 822 0000 0A46     		mov	r2, r1
 823 0002 4321     		movs	r1, #67
 824 0004 FFF7FEBF 		b	lv_style_set_prop
 826              		.section	.text.lv_style_set_shadow_color,"ax",%progbits
 827              		.align	1
 828              		.p2align 2,,3
 829              		.global	lv_style_set_shadow_color
 830              		.syntax unified
 831              		.thumb
 832              		.thumb_func
 834              	lv_style_set_shadow_color:
 835              		@ args = 0, pretend = 0, frame = 8
 836              		@ frame_needed = 0, uses_anonymous_args = 0
 837              		@ link register save eliminated.
 838 0000 82B0     		sub	sp, sp, #8
 839 0002 0023     		movs	r3, #0
 840 0004 8AB2     		uxth	r2, r1
ARM GAS  /var/folders/lp/x54gwt890xv47sdkqj1k04q40000gn/T//ccppYrcD.s 			page 14


 841 0006 4421     		movs	r1, #68
 842 0008 ADF80030 		strh	r3, [sp]	@ movhi
 843 000c 02B0     		add	sp, sp, #8
 844              		@ sp needed
 845 000e FFF7FEBF 		b	lv_style_set_prop
 847 0012 00BF     		.section	.text.lv_style_set_shadow_opa,"ax",%progbits
 848              		.align	1
 849              		.p2align 2,,3
 850              		.global	lv_style_set_shadow_opa
 851              		.syntax unified
 852              		.thumb
 853              		.thumb_func
 855              	lv_style_set_shadow_opa:
 856              		@ args = 0, pretend = 0, frame = 0
 857              		@ frame_needed = 0, uses_anonymous_args = 0
 858              		@ link register save eliminated.
 859 0000 0A46     		mov	r2, r1
 860 0002 4521     		movs	r1, #69
 861 0004 FFF7FEBF 		b	lv_style_set_prop
 863              		.section	.text.lv_style_set_img_opa,"ax",%progbits
 864              		.align	1
 865              		.p2align 2,,3
 866              		.global	lv_style_set_img_opa
 867              		.syntax unified
 868              		.thumb
 869              		.thumb_func
 871              	lv_style_set_img_opa:
 872              		@ args = 0, pretend = 0, frame = 0
 873              		@ frame_needed = 0, uses_anonymous_args = 0
 874              		@ link register save eliminated.
 875 0000 0A46     		mov	r2, r1
 876 0002 4621     		movs	r1, #70
 877 0004 FFF7FEBF 		b	lv_style_set_prop
 879              		.section	.text.lv_style_set_img_recolor,"ax",%progbits
 880              		.align	1
 881              		.p2align 2,,3
 882              		.global	lv_style_set_img_recolor
 883              		.syntax unified
 884              		.thumb
 885              		.thumb_func
 887              	lv_style_set_img_recolor:
 888              		@ args = 0, pretend = 0, frame = 8
 889              		@ frame_needed = 0, uses_anonymous_args = 0
 890              		@ link register save eliminated.
 891 0000 82B0     		sub	sp, sp, #8
 892 0002 0023     		movs	r3, #0
 893 0004 8AB2     		uxth	r2, r1
 894 0006 4721     		movs	r1, #71
 895 0008 ADF80030 		strh	r3, [sp]	@ movhi
 896 000c 02B0     		add	sp, sp, #8
 897              		@ sp needed
 898 000e FFF7FEBF 		b	lv_style_set_prop
 900 0012 00BF     		.section	.text.lv_style_set_img_recolor_opa,"ax",%progbits
 901              		.align	1
 902              		.p2align 2,,3
 903              		.global	lv_style_set_img_recolor_opa
 904              		.syntax unified
ARM GAS  /var/folders/lp/x54gwt890xv47sdkqj1k04q40000gn/T//ccppYrcD.s 			page 15


 905              		.thumb
 906              		.thumb_func
 908              	lv_style_set_img_recolor_opa:
 909              		@ args = 0, pretend = 0, frame = 0
 910              		@ frame_needed = 0, uses_anonymous_args = 0
 911              		@ link register save eliminated.
 912 0000 0A46     		mov	r2, r1
 913 0002 4821     		movs	r1, #72
 914 0004 FFF7FEBF 		b	lv_style_set_prop
 916              		.section	.text.lv_style_set_line_width,"ax",%progbits
 917              		.align	1
 918              		.p2align 2,,3
 919              		.global	lv_style_set_line_width
 920              		.syntax unified
 921              		.thumb
 922              		.thumb_func
 924              	lv_style_set_line_width:
 925              		@ args = 0, pretend = 0, frame = 0
 926              		@ frame_needed = 0, uses_anonymous_args = 0
 927              		@ link register save eliminated.
 928 0000 0A46     		mov	r2, r1
 929 0002 4921     		movs	r1, #73
 930 0004 FFF7FEBF 		b	lv_style_set_prop
 932              		.section	.text.lv_style_set_line_dash_width,"ax",%progbits
 933              		.align	1
 934              		.p2align 2,,3
 935              		.global	lv_style_set_line_dash_width
 936              		.syntax unified
 937              		.thumb
 938              		.thumb_func
 940              	lv_style_set_line_dash_width:
 941              		@ args = 0, pretend = 0, frame = 0
 942              		@ frame_needed = 0, uses_anonymous_args = 0
 943              		@ link register save eliminated.
 944 0000 0A46     		mov	r2, r1
 945 0002 4A21     		movs	r1, #74
 946 0004 FFF7FEBF 		b	lv_style_set_prop
 948              		.section	.text.lv_style_set_line_dash_gap,"ax",%progbits
 949              		.align	1
 950              		.p2align 2,,3
 951              		.global	lv_style_set_line_dash_gap
 952              		.syntax unified
 953              		.thumb
 954              		.thumb_func
 956              	lv_style_set_line_dash_gap:
 957              		@ args = 0, pretend = 0, frame = 0
 958              		@ frame_needed = 0, uses_anonymous_args = 0
 959              		@ link register save eliminated.
 960 0000 0A46     		mov	r2, r1
 961 0002 4B21     		movs	r1, #75
 962 0004 FFF7FEBF 		b	lv_style_set_prop
 964              		.section	.text.lv_style_set_line_rounded,"ax",%progbits
 965              		.align	1
 966              		.p2align 2,,3
 967              		.global	lv_style_set_line_rounded
 968              		.syntax unified
 969              		.thumb
ARM GAS  /var/folders/lp/x54gwt890xv47sdkqj1k04q40000gn/T//ccppYrcD.s 			page 16


 970              		.thumb_func
 972              	lv_style_set_line_rounded:
 973              		@ args = 0, pretend = 0, frame = 0
 974              		@ frame_needed = 0, uses_anonymous_args = 0
 975              		@ link register save eliminated.
 976 0000 0A46     		mov	r2, r1
 977 0002 4C21     		movs	r1, #76
 978 0004 FFF7FEBF 		b	lv_style_set_prop
 980              		.section	.text.lv_style_set_line_color,"ax",%progbits
 981              		.align	1
 982              		.p2align 2,,3
 983              		.global	lv_style_set_line_color
 984              		.syntax unified
 985              		.thumb
 986              		.thumb_func
 988              	lv_style_set_line_color:
 989              		@ args = 0, pretend = 0, frame = 8
 990              		@ frame_needed = 0, uses_anonymous_args = 0
 991              		@ link register save eliminated.
 992 0000 82B0     		sub	sp, sp, #8
 993 0002 0023     		movs	r3, #0
 994 0004 8AB2     		uxth	r2, r1
 995 0006 4D21     		movs	r1, #77
 996 0008 ADF80030 		strh	r3, [sp]	@ movhi
 997 000c 02B0     		add	sp, sp, #8
 998              		@ sp needed
 999 000e FFF7FEBF 		b	lv_style_set_prop
 1001 0012 00BF     		.section	.text.lv_style_set_line_opa,"ax",%progbits
 1002              		.align	1
 1003              		.p2align 2,,3
 1004              		.global	lv_style_set_line_opa
 1005              		.syntax unified
 1006              		.thumb
 1007              		.thumb_func
 1009              	lv_style_set_line_opa:
 1010              		@ args = 0, pretend = 0, frame = 0
 1011              		@ frame_needed = 0, uses_anonymous_args = 0
 1012              		@ link register save eliminated.
 1013 0000 0A46     		mov	r2, r1
 1014 0002 4E21     		movs	r1, #78
 1015 0004 FFF7FEBF 		b	lv_style_set_prop
 1017              		.section	.text.lv_style_set_arc_width,"ax",%progbits
 1018              		.align	1
 1019              		.p2align 2,,3
 1020              		.global	lv_style_set_arc_width
 1021              		.syntax unified
 1022              		.thumb
 1023              		.thumb_func
 1025              	lv_style_set_arc_width:
 1026              		@ args = 0, pretend = 0, frame = 0
 1027              		@ frame_needed = 0, uses_anonymous_args = 0
 1028              		@ link register save eliminated.
 1029 0000 0A46     		mov	r2, r1
 1030 0002 5021     		movs	r1, #80
 1031 0004 FFF7FEBF 		b	lv_style_set_prop
 1033              		.section	.text.lv_style_set_arc_rounded,"ax",%progbits
 1034              		.align	1
ARM GAS  /var/folders/lp/x54gwt890xv47sdkqj1k04q40000gn/T//ccppYrcD.s 			page 17


 1035              		.p2align 2,,3
 1036              		.global	lv_style_set_arc_rounded
 1037              		.syntax unified
 1038              		.thumb
 1039              		.thumb_func
 1041              	lv_style_set_arc_rounded:
 1042              		@ args = 0, pretend = 0, frame = 0
 1043              		@ frame_needed = 0, uses_anonymous_args = 0
 1044              		@ link register save eliminated.
 1045 0000 0A46     		mov	r2, r1
 1046 0002 5121     		movs	r1, #81
 1047 0004 FFF7FEBF 		b	lv_style_set_prop
 1049              		.section	.text.lv_style_set_arc_color,"ax",%progbits
 1050              		.align	1
 1051              		.p2align 2,,3
 1052              		.global	lv_style_set_arc_color
 1053              		.syntax unified
 1054              		.thumb
 1055              		.thumb_func
 1057              	lv_style_set_arc_color:
 1058              		@ args = 0, pretend = 0, frame = 8
 1059              		@ frame_needed = 0, uses_anonymous_args = 0
 1060              		@ link register save eliminated.
 1061 0000 82B0     		sub	sp, sp, #8
 1062 0002 0023     		movs	r3, #0
 1063 0004 8AB2     		uxth	r2, r1
 1064 0006 5221     		movs	r1, #82
 1065 0008 ADF80030 		strh	r3, [sp]	@ movhi
 1066 000c 02B0     		add	sp, sp, #8
 1067              		@ sp needed
 1068 000e FFF7FEBF 		b	lv_style_set_prop
 1070 0012 00BF     		.section	.text.lv_style_set_arc_opa,"ax",%progbits
 1071              		.align	1
 1072              		.p2align 2,,3
 1073              		.global	lv_style_set_arc_opa
 1074              		.syntax unified
 1075              		.thumb
 1076              		.thumb_func
 1078              	lv_style_set_arc_opa:
 1079              		@ args = 0, pretend = 0, frame = 0
 1080              		@ frame_needed = 0, uses_anonymous_args = 0
 1081              		@ link register save eliminated.
 1082 0000 0A46     		mov	r2, r1
 1083 0002 5321     		movs	r1, #83
 1084 0004 FFF7FEBF 		b	lv_style_set_prop
 1086              		.section	.text.lv_style_set_arc_img_src,"ax",%progbits
 1087              		.align	1
 1088              		.p2align 2,,3
 1089              		.global	lv_style_set_arc_img_src
 1090              		.syntax unified
 1091              		.thumb
 1092              		.thumb_func
 1094              	lv_style_set_arc_img_src:
 1095              		@ args = 0, pretend = 0, frame = 0
 1096              		@ frame_needed = 0, uses_anonymous_args = 0
 1097              		@ link register save eliminated.
 1098 0000 0A46     		mov	r2, r1
ARM GAS  /var/folders/lp/x54gwt890xv47sdkqj1k04q40000gn/T//ccppYrcD.s 			page 18


 1099 0002 5421     		movs	r1, #84
 1100 0004 FFF7FEBF 		b	lv_style_set_prop
 1102              		.section	.text.lv_style_set_text_color,"ax",%progbits
 1103              		.align	1
 1104              		.p2align 2,,3
 1105              		.global	lv_style_set_text_color
 1106              		.syntax unified
 1107              		.thumb
 1108              		.thumb_func
 1110              	lv_style_set_text_color:
 1111              		@ args = 0, pretend = 0, frame = 8
 1112              		@ frame_needed = 0, uses_anonymous_args = 0
 1113              		@ link register save eliminated.
 1114 0000 82B0     		sub	sp, sp, #8
 1115 0002 0023     		movs	r3, #0
 1116 0004 8AB2     		uxth	r2, r1
 1117 0006 5521     		movs	r1, #85
 1118 0008 ADF80030 		strh	r3, [sp]	@ movhi
 1119 000c 02B0     		add	sp, sp, #8
 1120              		@ sp needed
 1121 000e FFF7FEBF 		b	lv_style_set_prop
 1123 0012 00BF     		.section	.text.lv_style_set_text_opa,"ax",%progbits
 1124              		.align	1
 1125              		.p2align 2,,3
 1126              		.global	lv_style_set_text_opa
 1127              		.syntax unified
 1128              		.thumb
 1129              		.thumb_func
 1131              	lv_style_set_text_opa:
 1132              		@ args = 0, pretend = 0, frame = 0
 1133              		@ frame_needed = 0, uses_anonymous_args = 0
 1134              		@ link register save eliminated.
 1135 0000 0A46     		mov	r2, r1
 1136 0002 5621     		movs	r1, #86
 1137 0004 FFF7FEBF 		b	lv_style_set_prop
 1139              		.section	.text.lv_style_set_text_font,"ax",%progbits
 1140              		.align	1
 1141              		.p2align 2,,3
 1142              		.global	lv_style_set_text_font
 1143              		.syntax unified
 1144              		.thumb
 1145              		.thumb_func
 1147              	lv_style_set_text_font:
 1148              		@ args = 0, pretend = 0, frame = 0
 1149              		@ frame_needed = 0, uses_anonymous_args = 0
 1150              		@ link register save eliminated.
 1151 0000 0A46     		mov	r2, r1
 1152 0002 5721     		movs	r1, #87
 1153 0004 FFF7FEBF 		b	lv_style_set_prop
 1155              		.section	.text.lv_style_set_text_letter_space,"ax",%progbits
 1156              		.align	1
 1157              		.p2align 2,,3
 1158              		.global	lv_style_set_text_letter_space
 1159              		.syntax unified
 1160              		.thumb
 1161              		.thumb_func
 1163              	lv_style_set_text_letter_space:
ARM GAS  /var/folders/lp/x54gwt890xv47sdkqj1k04q40000gn/T//ccppYrcD.s 			page 19


 1164              		@ args = 0, pretend = 0, frame = 0
 1165              		@ frame_needed = 0, uses_anonymous_args = 0
 1166              		@ link register save eliminated.
 1167 0000 0A46     		mov	r2, r1
 1168 0002 5821     		movs	r1, #88
 1169 0004 FFF7FEBF 		b	lv_style_set_prop
 1171              		.section	.text.lv_style_set_text_line_space,"ax",%progbits
 1172              		.align	1
 1173              		.p2align 2,,3
 1174              		.global	lv_style_set_text_line_space
 1175              		.syntax unified
 1176              		.thumb
 1177              		.thumb_func
 1179              	lv_style_set_text_line_space:
 1180              		@ args = 0, pretend = 0, frame = 0
 1181              		@ frame_needed = 0, uses_anonymous_args = 0
 1182              		@ link register save eliminated.
 1183 0000 0A46     		mov	r2, r1
 1184 0002 5921     		movs	r1, #89
 1185 0004 FFF7FEBF 		b	lv_style_set_prop
 1187              		.section	.text.lv_style_set_text_decor,"ax",%progbits
 1188              		.align	1
 1189              		.p2align 2,,3
 1190              		.global	lv_style_set_text_decor
 1191              		.syntax unified
 1192              		.thumb
 1193              		.thumb_func
 1195              	lv_style_set_text_decor:
 1196              		@ args = 0, pretend = 0, frame = 0
 1197              		@ frame_needed = 0, uses_anonymous_args = 0
 1198              		@ link register save eliminated.
 1199 0000 0A46     		mov	r2, r1
 1200 0002 5A21     		movs	r1, #90
 1201 0004 FFF7FEBF 		b	lv_style_set_prop
 1203              		.section	.text.lv_style_set_text_align,"ax",%progbits
 1204              		.align	1
 1205              		.p2align 2,,3
 1206              		.global	lv_style_set_text_align
 1207              		.syntax unified
 1208              		.thumb
 1209              		.thumb_func
 1211              	lv_style_set_text_align:
 1212              		@ args = 0, pretend = 0, frame = 0
 1213              		@ frame_needed = 0, uses_anonymous_args = 0
 1214              		@ link register save eliminated.
 1215 0000 0A46     		mov	r2, r1
 1216 0002 5B21     		movs	r1, #91
 1217 0004 FFF7FEBF 		b	lv_style_set_prop
 1219              		.section	.text.lv_style_set_radius,"ax",%progbits
 1220              		.align	1
 1221              		.p2align 2,,3
 1222              		.global	lv_style_set_radius
 1223              		.syntax unified
 1224              		.thumb
 1225              		.thumb_func
 1227              	lv_style_set_radius:
 1228              		@ args = 0, pretend = 0, frame = 0
ARM GAS  /var/folders/lp/x54gwt890xv47sdkqj1k04q40000gn/T//ccppYrcD.s 			page 20


 1229              		@ frame_needed = 0, uses_anonymous_args = 0
 1230              		@ link register save eliminated.
 1231 0000 0A46     		mov	r2, r1
 1232 0002 0B21     		movs	r1, #11
 1233 0004 FFF7FEBF 		b	lv_style_set_prop
 1235              		.section	.text.lv_style_set_clip_corner,"ax",%progbits
 1236              		.align	1
 1237              		.p2align 2,,3
 1238              		.global	lv_style_set_clip_corner
 1239              		.syntax unified
 1240              		.thumb
 1241              		.thumb_func
 1243              	lv_style_set_clip_corner:
 1244              		@ args = 0, pretend = 0, frame = 0
 1245              		@ frame_needed = 0, uses_anonymous_args = 0
 1246              		@ link register save eliminated.
 1247 0000 0A46     		mov	r2, r1
 1248 0002 1721     		movs	r1, #23
 1249 0004 FFF7FEBF 		b	lv_style_set_prop
 1251              		.section	.text.lv_style_set_opa,"ax",%progbits
 1252              		.align	1
 1253              		.p2align 2,,3
 1254              		.global	lv_style_set_opa
 1255              		.syntax unified
 1256              		.thumb
 1257              		.thumb_func
 1259              	lv_style_set_opa:
 1260              		@ args = 0, pretend = 0, frame = 0
 1261              		@ frame_needed = 0, uses_anonymous_args = 0
 1262              		@ link register save eliminated.
 1263 0000 0A46     		mov	r2, r1
 1264 0002 6021     		movs	r1, #96
 1265 0004 FFF7FEBF 		b	lv_style_set_prop
 1267              		.section	.text.lv_style_set_opa_layered,"ax",%progbits
 1268              		.align	1
 1269              		.p2align 2,,3
 1270              		.global	lv_style_set_opa_layered
 1271              		.syntax unified
 1272              		.thumb
 1273              		.thumb_func
 1275              	lv_style_set_opa_layered:
 1276              		@ args = 0, pretend = 0, frame = 0
 1277              		@ frame_needed = 0, uses_anonymous_args = 0
 1278              		@ link register save eliminated.
 1279 0000 0A46     		mov	r2, r1
 1280 0002 6121     		movs	r1, #97
 1281 0004 FFF7FEBF 		b	lv_style_set_prop
 1283              		.section	.text.lv_style_set_color_filter_dsc,"ax",%progbits
 1284              		.align	1
 1285              		.p2align 2,,3
 1286              		.global	lv_style_set_color_filter_dsc
 1287              		.syntax unified
 1288              		.thumb
 1289              		.thumb_func
 1291              	lv_style_set_color_filter_dsc:
 1292              		@ args = 0, pretend = 0, frame = 0
 1293              		@ frame_needed = 0, uses_anonymous_args = 0
ARM GAS  /var/folders/lp/x54gwt890xv47sdkqj1k04q40000gn/T//ccppYrcD.s 			page 21


 1294              		@ link register save eliminated.
 1295 0000 0A46     		mov	r2, r1
 1296 0002 6221     		movs	r1, #98
 1297 0004 FFF7FEBF 		b	lv_style_set_prop
 1299              		.section	.text.lv_style_set_color_filter_opa,"ax",%progbits
 1300              		.align	1
 1301              		.p2align 2,,3
 1302              		.global	lv_style_set_color_filter_opa
 1303              		.syntax unified
 1304              		.thumb
 1305              		.thumb_func
 1307              	lv_style_set_color_filter_opa:
 1308              		@ args = 0, pretend = 0, frame = 0
 1309              		@ frame_needed = 0, uses_anonymous_args = 0
 1310              		@ link register save eliminated.
 1311 0000 0A46     		mov	r2, r1
 1312 0002 6321     		movs	r1, #99
 1313 0004 FFF7FEBF 		b	lv_style_set_prop
 1315              		.section	.text.lv_style_set_anim,"ax",%progbits
 1316              		.align	1
 1317              		.p2align 2,,3
 1318              		.global	lv_style_set_anim
 1319              		.syntax unified
 1320              		.thumb
 1321              		.thumb_func
 1323              	lv_style_set_anim:
 1324              		@ args = 0, pretend = 0, frame = 0
 1325              		@ frame_needed = 0, uses_anonymous_args = 0
 1326              		@ link register save eliminated.
 1327 0000 0A46     		mov	r2, r1
 1328 0002 6421     		movs	r1, #100
 1329 0004 FFF7FEBF 		b	lv_style_set_prop
 1331              		.section	.text.lv_style_set_anim_time,"ax",%progbits
 1332              		.align	1
 1333              		.p2align 2,,3
 1334              		.global	lv_style_set_anim_time
 1335              		.syntax unified
 1336              		.thumb
 1337              		.thumb_func
 1339              	lv_style_set_anim_time:
 1340              		@ args = 0, pretend = 0, frame = 0
 1341              		@ frame_needed = 0, uses_anonymous_args = 0
 1342              		@ link register save eliminated.
 1343 0000 0A46     		mov	r2, r1
 1344 0002 6521     		movs	r1, #101
 1345 0004 FFF7FEBF 		b	lv_style_set_prop
 1347              		.section	.text.lv_style_set_anim_speed,"ax",%progbits
 1348              		.align	1
 1349              		.p2align 2,,3
 1350              		.global	lv_style_set_anim_speed
 1351              		.syntax unified
 1352              		.thumb
 1353              		.thumb_func
 1355              	lv_style_set_anim_speed:
 1356              		@ args = 0, pretend = 0, frame = 0
 1357              		@ frame_needed = 0, uses_anonymous_args = 0
 1358              		@ link register save eliminated.
ARM GAS  /var/folders/lp/x54gwt890xv47sdkqj1k04q40000gn/T//ccppYrcD.s 			page 22


 1359 0000 0A46     		mov	r2, r1
 1360 0002 6621     		movs	r1, #102
 1361 0004 FFF7FEBF 		b	lv_style_set_prop
 1363              		.section	.text.lv_style_set_transition,"ax",%progbits
 1364              		.align	1
 1365              		.p2align 2,,3
 1366              		.global	lv_style_set_transition
 1367              		.syntax unified
 1368              		.thumb
 1369              		.thumb_func
 1371              	lv_style_set_transition:
 1372              		@ args = 0, pretend = 0, frame = 0
 1373              		@ frame_needed = 0, uses_anonymous_args = 0
 1374              		@ link register save eliminated.
 1375 0000 0A46     		mov	r2, r1
 1376 0002 6721     		movs	r1, #103
 1377 0004 FFF7FEBF 		b	lv_style_set_prop
 1379              		.section	.text.lv_style_set_blend_mode,"ax",%progbits
 1380              		.align	1
 1381              		.p2align 2,,3
 1382              		.global	lv_style_set_blend_mode
 1383              		.syntax unified
 1384              		.thumb
 1385              		.thumb_func
 1387              	lv_style_set_blend_mode:
 1388              		@ args = 0, pretend = 0, frame = 0
 1389              		@ frame_needed = 0, uses_anonymous_args = 0
 1390              		@ link register save eliminated.
 1391 0000 0A46     		mov	r2, r1
 1392 0002 6821     		movs	r1, #104
 1393 0004 FFF7FEBF 		b	lv_style_set_prop
 1395              		.section	.text.lv_style_set_layout,"ax",%progbits
 1396              		.align	1
 1397              		.p2align 2,,3
 1398              		.global	lv_style_set_layout
 1399              		.syntax unified
 1400              		.thumb
 1401              		.thumb_func
 1403              	lv_style_set_layout:
 1404              		@ args = 0, pretend = 0, frame = 0
 1405              		@ frame_needed = 0, uses_anonymous_args = 0
 1406              		@ link register save eliminated.
 1407 0000 0A46     		mov	r2, r1
 1408 0002 0A21     		movs	r1, #10
 1409 0004 FFF7FEBF 		b	lv_style_set_prop
 1411              		.section	.text.lv_style_set_base_dir,"ax",%progbits
 1412              		.align	1
 1413              		.p2align 2,,3
 1414              		.global	lv_style_set_base_dir
 1415              		.syntax unified
 1416              		.thumb
 1417              		.thumb_func
 1419              	lv_style_set_base_dir:
 1420              		@ args = 0, pretend = 0, frame = 0
 1421              		@ frame_needed = 0, uses_anonymous_args = 0
 1422              		@ link register save eliminated.
 1423 0000 0A46     		mov	r2, r1
ARM GAS  /var/folders/lp/x54gwt890xv47sdkqj1k04q40000gn/T//ccppYrcD.s 			page 23


 1424 0002 1621     		movs	r1, #22
 1425 0004 FFF7FEBF 		b	lv_style_set_prop
 1427              		.ident	"GCC: (xPack GNU Arm Embedded GCC arm64) 13.3.1 20240614"
ARM GAS  /var/folders/lp/x54gwt890xv47sdkqj1k04q40000gn/T//ccppYrcD.s 			page 24

