ARM GAS  /var/folders/lp/x54gwt890xv47sdkqj1k04q40000gn/T//ccj2JiqO.s 			page 1


   1              		.cpu cortex-m4
   2              		.arch armv7e-m
   3              		.fpu fpv4-sp-d16
   4              		.eabi_attribute 27, 1
   5              		.eabi_attribute 28, 1
   6              		.eabi_attribute 20, 1
   7              		.eabi_attribute 21, 1
   8              		.eabi_attribute 23, 3
   9              		.eabi_attribute 24, 1
  10              		.eabi_attribute 25, 1
  11              		.eabi_attribute 26, 1
  12              		.eabi_attribute 30, 2
  13              		.eabi_attribute 34, 1
  14              		.eabi_attribute 18, 4
  15              		.file	"lv_theme.c"
  16              		.text
  17              		.section	.text.apply_theme,"ax",%progbits
  18              		.align	1
  19              		.p2align 2,,3
  20              		.syntax unified
  21              		.thumb
  22              		.thumb_func
  24              	apply_theme:
  25              		@ args = 0, pretend = 0, frame = 0
  26              		@ frame_needed = 0, uses_anonymous_args = 0
  27 0000 2DE9F041 		push	{r4, r5, r6, r7, r8, lr}
  28 0004 4668     		ldr	r6, [r0, #4]
  29 0006 0446     		mov	r4, r0
  30 0008 0D46     		mov	r5, r1
  31 000a DEB1     		cbz	r6, .L3
  32 000c 7768     		ldr	r7, [r6, #4]
  33 000e A7B1     		cbz	r7, .L5
  34 0010 D7F80480 		ldr	r8, [r7, #4]
  35 0014 B8F1000F 		cmp	r8, #0
  36 0018 0AD0     		beq	.L7
  37 001a D8F80400 		ldr	r0, [r8, #4]
  38 001e 08B1     		cbz	r0, .L8
  39 0020 FFF7EEFF 		bl	apply_theme
  40              	.L8:
  41 0024 D8F80030 		ldr	r3, [r8]
  42 0028 13B1     		cbz	r3, .L7
  43 002a 4046     		mov	r0, r8
  44 002c 2946     		mov	r1, r5
  45 002e 9847     		blx	r3
  46              	.L7:
  47 0030 3B68     		ldr	r3, [r7]
  48 0032 13B1     		cbz	r3, .L5
  49 0034 3846     		mov	r0, r7
  50 0036 2946     		mov	r1, r5
  51 0038 9847     		blx	r3
  52              	.L5:
  53 003a 3368     		ldr	r3, [r6]
  54 003c 13B1     		cbz	r3, .L3
  55 003e 2946     		mov	r1, r5
  56 0040 3046     		mov	r0, r6
  57 0042 9847     		blx	r3
  58              	.L3:
ARM GAS  /var/folders/lp/x54gwt890xv47sdkqj1k04q40000gn/T//ccj2JiqO.s 			page 2


  59 0044 2368     		ldr	r3, [r4]
  60 0046 23B1     		cbz	r3, .L1
  61 0048 2946     		mov	r1, r5
  62 004a 2046     		mov	r0, r4
  63 004c BDE8F041 		pop	{r4, r5, r6, r7, r8, lr}
  64 0050 1847     		bx	r3	@ indirect register sibling call
  65              	.L1:
  66 0052 BDE8F081 		pop	{r4, r5, r6, r7, r8, pc}
  68 0056 00BF     		.section	.text.lv_theme_get_from_obj,"ax",%progbits
  69              		.align	1
  70              		.p2align 2,,3
  71              		.global	lv_theme_get_from_obj
  72              		.syntax unified
  73              		.thumb
  74              		.thumb_func
  76              	lv_theme_get_from_obj:
  77              		@ args = 0, pretend = 0, frame = 0
  78              		@ frame_needed = 0, uses_anonymous_args = 0
  79 0000 08B5     		push	{r3, lr}
  80 0002 28B1     		cbz	r0, .L28
  81 0004 FFF7FEFF 		bl	lv_obj_get_disp
  82 0008 BDE80840 		pop	{r3, lr}
  83 000c FFF7FEBF 		b	lv_disp_get_theme
  84              	.L28:
  85 0010 FFF7FEFF 		bl	lv_disp_get_default
  86 0014 BDE80840 		pop	{r3, lr}
  87 0018 FFF7FEBF 		b	lv_disp_get_theme
  89              		.section	.text.lv_theme_apply,"ax",%progbits
  90              		.align	1
  91              		.p2align 2,,3
  92              		.global	lv_theme_apply
  93              		.syntax unified
  94              		.thumb
  95              		.thumb_func
  97              	lv_theme_apply:
  98              		@ args = 0, pretend = 0, frame = 0
  99              		@ frame_needed = 0, uses_anonymous_args = 0
 100 0000 2DE9F041 		push	{r4, r5, r6, r7, r8, lr}
 101 0004 0646     		mov	r6, r0
 102 0006 90B3     		cbz	r0, .L32
 103 0008 FFF7FEFF 		bl	lv_obj_get_disp
 104              	.L33:
 105 000c FFF7FEFF 		bl	lv_disp_get_theme
 106 0010 0446     		mov	r4, r0
 107 0012 50B3     		cbz	r0, .L31
 108 0014 174A     		ldr	r2, .L63
 109 0016 0021     		movs	r1, #0
 110 0018 3046     		mov	r0, r6
 111 001a FFF7FEFF 		bl	lv_obj_remove_style
 112 001e 6568     		ldr	r5, [r4, #4]
 113 0020 E5B1     		cbz	r5, .L37
 114 0022 6F68     		ldr	r7, [r5, #4]
 115 0024 AFB1     		cbz	r7, .L39
 116 0026 D7F80480 		ldr	r8, [r7, #4]
 117 002a B8F1000F 		cmp	r8, #0
 118 002e 0BD0     		beq	.L41
 119 0030 D8F80400 		ldr	r0, [r8, #4]
ARM GAS  /var/folders/lp/x54gwt890xv47sdkqj1k04q40000gn/T//ccj2JiqO.s 			page 3


 120 0034 10B1     		cbz	r0, .L42
 121 0036 3146     		mov	r1, r6
 122 0038 FFF7FEFF 		bl	apply_theme
 123              	.L42:
 124 003c D8F80030 		ldr	r3, [r8]
 125 0040 13B1     		cbz	r3, .L41
 126 0042 4046     		mov	r0, r8
 127 0044 3146     		mov	r1, r6
 128 0046 9847     		blx	r3
 129              	.L41:
 130 0048 3B68     		ldr	r3, [r7]
 131 004a 13B1     		cbz	r3, .L39
 132 004c 3846     		mov	r0, r7
 133 004e 3146     		mov	r1, r6
 134 0050 9847     		blx	r3
 135              	.L39:
 136 0052 2B68     		ldr	r3, [r5]
 137 0054 13B1     		cbz	r3, .L37
 138 0056 3146     		mov	r1, r6
 139 0058 2846     		mov	r0, r5
 140 005a 9847     		blx	r3
 141              	.L37:
 142 005c 2368     		ldr	r3, [r4]
 143 005e 23B1     		cbz	r3, .L31
 144 0060 3146     		mov	r1, r6
 145 0062 2046     		mov	r0, r4
 146 0064 BDE8F041 		pop	{r4, r5, r6, r7, r8, lr}
 147 0068 1847     		bx	r3	@ indirect register sibling call
 148              	.L31:
 149 006a BDE8F081 		pop	{r4, r5, r6, r7, r8, pc}
 150              	.L32:
 151 006e FFF7FEFF 		bl	lv_disp_get_default
 152 0072 CBE7     		b	.L33
 153              	.L64:
 154              		.align	2
 155              	.L63:
 156 0074 FFFF0F00 		.word	1048575
 158              		.section	.text.lv_theme_set_parent,"ax",%progbits
 159              		.align	1
 160              		.p2align 2,,3
 161              		.global	lv_theme_set_parent
 162              		.syntax unified
 163              		.thumb
 164              		.thumb_func
 166              	lv_theme_set_parent:
 167              		@ args = 0, pretend = 0, frame = 0
 168              		@ frame_needed = 0, uses_anonymous_args = 0
 169              		@ link register save eliminated.
 170 0000 4160     		str	r1, [r0, #4]
 171 0002 7047     		bx	lr
 173              		.section	.text.lv_theme_set_apply_cb,"ax",%progbits
 174              		.align	1
 175              		.p2align 2,,3
 176              		.global	lv_theme_set_apply_cb
 177              		.syntax unified
 178              		.thumb
 179              		.thumb_func
ARM GAS  /var/folders/lp/x54gwt890xv47sdkqj1k04q40000gn/T//ccj2JiqO.s 			page 4


 181              	lv_theme_set_apply_cb:
 182              		@ args = 0, pretend = 0, frame = 0
 183              		@ frame_needed = 0, uses_anonymous_args = 0
 184              		@ link register save eliminated.
 185 0000 0160     		str	r1, [r0]
 186 0002 7047     		bx	lr
 188              		.section	.text.lv_theme_get_font_small,"ax",%progbits
 189              		.align	1
 190              		.p2align 2,,3
 191              		.global	lv_theme_get_font_small
 192              		.syntax unified
 193              		.thumb
 194              		.thumb_func
 196              	lv_theme_get_font_small:
 197              		@ args = 0, pretend = 0, frame = 0
 198              		@ frame_needed = 0, uses_anonymous_args = 0
 199 0000 08B5     		push	{r3, lr}
 200 0002 30B1     		cbz	r0, .L68
 201 0004 FFF7FEFF 		bl	lv_obj_get_disp
 202 0008 FFF7FEFF 		bl	lv_disp_get_theme
 203 000c 38B1     		cbz	r0, .L71
 204              	.L73:
 205 000e 4069     		ldr	r0, [r0, #20]
 206 0010 08BD     		pop	{r3, pc}
 207              	.L68:
 208 0012 FFF7FEFF 		bl	lv_disp_get_default
 209 0016 FFF7FEFF 		bl	lv_disp_get_theme
 210 001a 0028     		cmp	r0, #0
 211 001c F7D1     		bne	.L73
 212              	.L71:
 213 001e 0148     		ldr	r0, .L74
 214 0020 08BD     		pop	{r3, pc}
 215              	.L75:
 216 0022 00BF     		.align	2
 217              	.L74:
 218 0024 00000000 		.word	lv_font_montserrat_14
 220              		.section	.text.lv_theme_get_font_normal,"ax",%progbits
 221              		.align	1
 222              		.p2align 2,,3
 223              		.global	lv_theme_get_font_normal
 224              		.syntax unified
 225              		.thumb
 226              		.thumb_func
 228              	lv_theme_get_font_normal:
 229              		@ args = 0, pretend = 0, frame = 0
 230              		@ frame_needed = 0, uses_anonymous_args = 0
 231 0000 08B5     		push	{r3, lr}
 232 0002 30B1     		cbz	r0, .L77
 233 0004 FFF7FEFF 		bl	lv_obj_get_disp
 234 0008 FFF7FEFF 		bl	lv_disp_get_theme
 235 000c 38B1     		cbz	r0, .L80
 236              	.L82:
 237 000e 8069     		ldr	r0, [r0, #24]
 238 0010 08BD     		pop	{r3, pc}
 239              	.L77:
 240 0012 FFF7FEFF 		bl	lv_disp_get_default
 241 0016 FFF7FEFF 		bl	lv_disp_get_theme
ARM GAS  /var/folders/lp/x54gwt890xv47sdkqj1k04q40000gn/T//ccj2JiqO.s 			page 5


 242 001a 0028     		cmp	r0, #0
 243 001c F7D1     		bne	.L82
 244              	.L80:
 245 001e 0148     		ldr	r0, .L83
 246 0020 08BD     		pop	{r3, pc}
 247              	.L84:
 248 0022 00BF     		.align	2
 249              	.L83:
 250 0024 00000000 		.word	lv_font_montserrat_14
 252              		.section	.text.lv_theme_get_font_large,"ax",%progbits
 253              		.align	1
 254              		.p2align 2,,3
 255              		.global	lv_theme_get_font_large
 256              		.syntax unified
 257              		.thumb
 258              		.thumb_func
 260              	lv_theme_get_font_large:
 261              		@ args = 0, pretend = 0, frame = 0
 262              		@ frame_needed = 0, uses_anonymous_args = 0
 263 0000 08B5     		push	{r3, lr}
 264 0002 30B1     		cbz	r0, .L86
 265 0004 FFF7FEFF 		bl	lv_obj_get_disp
 266 0008 FFF7FEFF 		bl	lv_disp_get_theme
 267 000c 38B1     		cbz	r0, .L89
 268              	.L91:
 269 000e C069     		ldr	r0, [r0, #28]
 270 0010 08BD     		pop	{r3, pc}
 271              	.L86:
 272 0012 FFF7FEFF 		bl	lv_disp_get_default
 273 0016 FFF7FEFF 		bl	lv_disp_get_theme
 274 001a 0028     		cmp	r0, #0
 275 001c F7D1     		bne	.L91
 276              	.L89:
 277 001e 0148     		ldr	r0, .L92
 278 0020 08BD     		pop	{r3, pc}
 279              	.L93:
 280 0022 00BF     		.align	2
 281              	.L92:
 282 0024 00000000 		.word	lv_font_montserrat_14
 284              		.section	.text.lv_theme_get_color_primary,"ax",%progbits
 285              		.align	1
 286              		.p2align 2,,3
 287              		.global	lv_theme_get_color_primary
 288              		.syntax unified
 289              		.thumb
 290              		.thumb_func
 292              	lv_theme_get_color_primary:
 293              		@ args = 0, pretend = 0, frame = 0
 294              		@ frame_needed = 0, uses_anonymous_args = 0
 295 0000 08B5     		push	{r3, lr}
 296 0002 30B1     		cbz	r0, .L95
 297 0004 FFF7FEFF 		bl	lv_obj_get_disp
 298 0008 FFF7FEFF 		bl	lv_disp_get_theme
 299 000c 38B1     		cbz	r0, .L102
 300              	.L100:
 301 000e 008A     		ldrh	r0, [r0, #16]
 302 0010 08BD     		pop	{r3, pc}
ARM GAS  /var/folders/lp/x54gwt890xv47sdkqj1k04q40000gn/T//ccj2JiqO.s 			page 6


 303              	.L95:
 304 0012 FFF7FEFF 		bl	lv_disp_get_default
 305 0016 FFF7FEFF 		bl	lv_disp_get_theme
 306 001a 0028     		cmp	r0, #0
 307 001c F7D1     		bne	.L100
 308              	.L102:
 309 001e BDE80840 		pop	{r3, lr}
 310 0022 1120     		movs	r0, #17
 311 0024 FFF7FEBF 		b	lv_palette_main
 313              		.section	.text.lv_theme_get_color_secondary,"ax",%progbits
 314              		.align	1
 315              		.p2align 2,,3
 316              		.global	lv_theme_get_color_secondary
 317              		.syntax unified
 318              		.thumb
 319              		.thumb_func
 321              	lv_theme_get_color_secondary:
 322              		@ args = 0, pretend = 0, frame = 0
 323              		@ frame_needed = 0, uses_anonymous_args = 0
 324 0000 08B5     		push	{r3, lr}
 325 0002 30B1     		cbz	r0, .L104
 326 0004 FFF7FEFF 		bl	lv_obj_get_disp
 327 0008 FFF7FEFF 		bl	lv_disp_get_theme
 328 000c 38B1     		cbz	r0, .L111
 329              	.L109:
 330 000e 408A     		ldrh	r0, [r0, #18]
 331 0010 08BD     		pop	{r3, pc}
 332              	.L104:
 333 0012 FFF7FEFF 		bl	lv_disp_get_default
 334 0016 FFF7FEFF 		bl	lv_disp_get_theme
 335 001a 0028     		cmp	r0, #0
 336 001c F7D1     		bne	.L109
 337              	.L111:
 338 001e BDE80840 		pop	{r3, lr}
 339 0022 0520     		movs	r0, #5
 340 0024 FFF7FEBF 		b	lv_palette_main
 342              		.ident	"GCC: (xPack GNU Arm Embedded GCC arm64) 13.3.1 20240614"
ARM GAS  /var/folders/lp/x54gwt890xv47sdkqj1k04q40000gn/T//ccj2JiqO.s 			page 7

