ARM GAS  /var/folders/lp/x54gwt890xv47sdkqj1k04q40000gn/T//ccJoQ5RK.s 			page 1


   1              		.cpu cortex-m4
   2              		.arch armv7e-m
   3              		.fpu fpv4-sp-d16
   4              		.eabi_attribute 27, 1
   5              		.eabi_attribute 28, 1
   6              		.eabi_attribute 20, 1
   7              		.eabi_attribute 21, 1
   8              		.eabi_attribute 23, 3
   9              		.eabi_attribute 24, 1
  10              		.eabi_attribute 25, 1
  11              		.eabi_attribute 26, 1
  12              		.eabi_attribute 30, 2
  13              		.eabi_attribute 34, 1
  14              		.eabi_attribute 18, 4
  15              		.file	"lv_textarea.c"
  16              		.text
  17              		.section	.text.pwd_char_hider_anim,"ax",%progbits
  18              		.align	1
  19              		.p2align 2,,3
  20              		.syntax unified
  21              		.thumb
  22              		.thumb_func
  24              	pwd_char_hider_anim:
  25              		@ args = 0, pretend = 0, frame = 0
  26              		@ frame_needed = 0, uses_anonymous_args = 0
  27              		@ link register save eliminated.
  28 0000 7047     		bx	lr
  30 0002 00BF     		.section	.text.lv_textarea_destructor,"ax",%progbits
  31              		.align	1
  32              		.p2align 2,,3
  33              		.syntax unified
  34              		.thumb
  35              		.thumb_func
  37              	lv_textarea_destructor:
  38              		@ args = 0, pretend = 0, frame = 0
  39              		@ frame_needed = 0, uses_anonymous_args = 0
  40 0000 C86A     		ldr	r0, [r1, #44]
  41 0002 10B5     		push	{r4, lr}
  42 0004 0C46     		mov	r4, r1
  43 0006 18B1     		cbz	r0, .L4
  44 0008 FFF7FEFF 		bl	lv_mem_free
  45 000c 0023     		movs	r3, #0
  46 000e E362     		str	r3, [r4, #44]
  47              	.L4:
  48 0010 206B     		ldr	r0, [r4, #48]
  49 0012 18B1     		cbz	r0, .L5
  50 0014 FFF7FEFF 		bl	lv_mem_free
  51 0018 0023     		movs	r3, #0
  52 001a 2363     		str	r3, [r4, #48]
  53              	.L5:
  54 001c A06A     		ldr	r0, [r4, #40]
  55 001e 18B1     		cbz	r0, .L3
  56 0020 FFF7FEFF 		bl	lv_mem_free
  57 0024 0023     		movs	r3, #0
  58 0026 A362     		str	r3, [r4, #40]
  59              	.L3:
  60 0028 10BD     		pop	{r4, pc}
ARM GAS  /var/folders/lp/x54gwt890xv47sdkqj1k04q40000gn/T//ccJoQ5RK.s 			page 2


  62 002a 00BF     		.section	.text.refr_cursor_area,"ax",%progbits
  63              		.align	1
  64              		.p2align 2,,3
  65              		.syntax unified
  66              		.thumb
  67              		.thumb_func
  69              	refr_cursor_area:
  70              		@ args = 0, pretend = 0, frame = 32
  71              		@ frame_needed = 0, uses_anonymous_args = 0
  72 0000 2DE9F04F 		push	{r4, r5, r6, r7, r8, r9, r10, fp, lr}
  73 0004 5722     		movs	r2, #87
  74 0006 89B0     		sub	sp, sp, #36
  75 0008 0021     		movs	r1, #0
  76 000a 0446     		mov	r4, r0
  77 000c FFF7FEFF 		bl	lv_obj_get_style_prop
  78 0010 5922     		movs	r2, #89
  79 0012 0021     		movs	r1, #0
  80 0014 8046     		mov	r8, r0
  81 0016 2046     		mov	r0, r4
  82 0018 FFF7FEFF 		bl	lv_obj_get_style_prop
  83 001c 0290     		str	r0, [sp, #8]
  84 001e 606A     		ldr	r0, [r4, #36]
  85 0020 666C     		ldr	r6, [r4, #68]
  86 0022 DFF804A2 		ldr	r10, .L30+8
  87 0026 FFF7FEFF 		bl	lv_label_get_text
  88 002a 7D4B     		ldr	r3, .L30
  89 002c 3146     		mov	r1, r6
  90 002e 1B68     		ldr	r3, [r3]
  91 0030 8146     		mov	r9, r0
  92 0032 9847     		blx	r3
  93 0034 09EB0003 		add	r3, r9, r0
  94 0038 0393     		str	r3, [sp, #12]
  95 003a 0746     		mov	r7, r0
  96 003c 0021     		movs	r1, #0
  97 003e 1846     		mov	r0, r3
  98 0040 DAF80030 		ldr	r3, [r10]
  99 0044 9847     		blx	r3
 100 0046 B8F90830 		ldrsh	r3, [r8, #8]
 101 004a 0193     		str	r3, [sp, #4]
 102 004c 0D28     		cmp	r0, #13
 103 004e 8346     		mov	fp, r0
 104 0050 00F2E180 		bhi	.L21
 105 0054 42F20142 		movw	r2, #9217
 106 0058 C240     		lsrs	r2, r2, r0
 107 005a 12F0010F 		tst	r2, #1
 108 005e 0CBF     		ite	eq
 109 0060 0146     		moveq	r1, r0
 110 0062 2021     		movne	r1, #32
 111              	.L18:
 112 0064 0022     		movs	r2, #0
 113 0066 4046     		mov	r0, r8
 114 0068 FFF7FEFF 		bl	lv_font_get_glyph_width
 115 006c 3146     		mov	r1, r6
 116 006e 05AA     		add	r2, sp, #20
 117 0070 0546     		mov	r5, r0
 118 0072 606A     		ldr	r0, [r4, #36]
 119 0074 FFF7FEFF 		bl	lv_label_get_letter_pos
ARM GAS  /var/folders/lp/x54gwt890xv47sdkqj1k04q40000gn/T//ccJoQ5RK.s 			page 3


 120 0078 666A     		ldr	r6, [r4, #36]
 121 007a 3046     		mov	r0, r6
 122 007c FFF7FEFF 		bl	lv_label_get_text
 123 0080 0021     		movs	r1, #0
 124 0082 0246     		mov	r2, r0
 125 0084 3046     		mov	r0, r6
 126 0086 FFF7FEFF 		bl	lv_obj_calculate_style_text_align
 127 008a 616A     		ldr	r1, [r4, #36]
 128 008c BDF91420 		ldrsh	r2, [sp, #20]
 129 0090 B1F914C0 		ldrsh	ip, [r1, #20]
 130 0094 B1F91810 		ldrsh	r1, [r1, #24]
 131 0098 BDF80460 		ldrh	r6, [sp, #4]
 132 009c 6244     		add	r2, r2, ip
 133 009e 02FA85F2 		sxtah	r2, r2, r5
 134 00a2 8A42     		cmp	r2, r1
 135 00a4 2FDD     		ble	.L19
 136 00a6 94F86010 		ldrb	r1, [r4, #96]	@ zero_extendqisi2
 137 00aa 11F00801 		ands	r1, r1, #8
 138 00ae 2AD1     		bne	.L19
 139 00b0 0328     		cmp	r0, #3
 140 00b2 28D0     		beq	.L19
 141 00b4 BDF81620 		ldrh	r2, [sp, #22]
 142 00b8 029B     		ldr	r3, [sp, #8]
 143 00ba ADF81410 		strh	r1, [sp, #20]	@ movhi
 144 00be 1344     		add	r3, r3, r2
 145 00c0 1A46     		mov	r2, r3
 146 00c2 3244     		add	r2, r2, r6
 147 00c4 0191     		str	r1, [sp, #4]
 148 00c6 ADF81620 		strh	r2, [sp, #22]	@ movhi
 149 00ca BBF1000F 		cmp	fp, #0
 150 00ce 00F0A480 		beq	.L23
 151 00d2 544B     		ldr	r3, .L30+4
 152 00d4 0398     		ldr	r0, [sp, #12]
 153 00d6 1B68     		ldr	r3, [r3]
 154 00d8 9847     		blx	r3
 155 00da 0744     		add	r7, r7, r0
 156 00dc 0199     		ldr	r1, [sp, #4]
 157 00de DAF80030 		ldr	r3, [r10]
 158 00e2 09EB0700 		add	r0, r9, r7
 159 00e6 9847     		blx	r3
 160 00e8 0D28     		cmp	r0, #13
 161 00ea 0146     		mov	r1, r0
 162 00ec 06D8     		bhi	.L20
 163 00ee 42F20143 		movw	r3, #9217
 164 00f2 C340     		lsrs	r3, r3, r0
 165 00f4 13F0010F 		tst	r3, #1
 166 00f8 18BF     		it	ne
 167 00fa 2021     		movne	r1, #32
 168              	.L20:
 169 00fc 4046     		mov	r0, r8
 170 00fe 0022     		movs	r2, #0
 171 0100 FFF7FEFF 		bl	lv_font_get_glyph_width
 172 0104 0546     		mov	r5, r0
 173              	.L19:
 174 0106 2765     		str	r7, [r4, #80]
 175 0108 3222     		movs	r2, #50
 176 010a 4FF4E021 		mov	r1, #458752
ARM GAS  /var/folders/lp/x54gwt890xv47sdkqj1k04q40000gn/T//ccJoQ5RK.s 			page 4


 177 010e 2046     		mov	r0, r4
 178 0110 FFF7FEFF 		bl	lv_obj_get_style_prop
 179 0114 1022     		movs	r2, #16
 180 0116 0746     		mov	r7, r0
 181 0118 4FF4E021 		mov	r1, #458752
 182 011c 2046     		mov	r0, r4
 183 011e FFF7FEFF 		bl	lv_obj_get_style_prop
 184 0122 BFB2     		uxth	r7, r7
 185 0124 07EB0008 		add	r8, r7, r0
 186 0128 1122     		movs	r2, #17
 187 012a 4FF4E021 		mov	r1, #458752
 188 012e 2046     		mov	r0, r4
 189 0130 FFF7FEFF 		bl	lv_obj_get_style_prop
 190 0134 1222     		movs	r2, #18
 191 0136 3B18     		adds	r3, r7, r0
 192 0138 4FF4E021 		mov	r1, #458752
 193 013c 2046     		mov	r0, r4
 194 013e 1FFA83FA 		uxth	r10, r3
 195 0142 FFF7FEFF 		bl	lv_obj_get_style_prop
 196 0146 1322     		movs	r2, #19
 197 0148 07EB0009 		add	r9, r7, r0
 198 014c 4FF4E021 		mov	r1, #458752
 199 0150 2046     		mov	r0, r4
 200 0152 FFF7FEFF 		bl	lv_obj_get_style_prop
 201 0156 626A     		ldr	r2, [r4, #36]
 202 0158 B4F84AE0 		ldrh	lr, [r4, #74]
 203 015c 918A     		ldrh	r1, [r2, #20]
 204 015e B2F816C0 		ldrh	ip, [r2, #22]
 205 0162 B4F84C20 		ldrh	r2, [r4, #76]
 206 0166 0744     		add	r7, r7, r0
 207 0168 B4F84800 		ldrh	r0, [r4, #72]
 208 016c 0844     		add	r0, r0, r1
 209 016e 1144     		add	r1, r1, r2
 210 0170 BDF81420 		ldrh	r2, [sp, #20]
 211 0174 013F     		subs	r7, r7, #1
 212 0176 1744     		add	r7, r7, r2
 213 0178 3D44     		add	r5, r5, r7
 214 017a BDF81670 		ldrh	r7, [sp, #22]
 215 017e 0AF1FF33 		add	r3, r10, #-1
 216 0182 3B44     		add	r3, r3, r7
 217 0184 1E44     		add	r6, r6, r3
 218 0186 B4F84E30 		ldrh	r3, [r4, #78]
 219 018a 1FFA89F9 		uxth	r9, r9
 220 018e E644     		add	lr, lr, ip
 221 0190 A2EB0902 		sub	r2, r2, r9
 222 0194 9C44     		add	ip, ip, r3
 223 0196 0023     		movs	r3, #0
 224 0198 1FFA82F9 		uxth	r9, r2
 225 019c 1A46     		mov	r2, r3
 226 019e 61F30F02 		bfi	r2, r1, #0, #16
 227 01a2 60F30F03 		bfi	r3, r0, #0, #16
 228 01a6 6EF31F43 		bfi	r3, lr, #16, #16
 229 01aa 6CF31F42 		bfi	r2, ip, #16, #16
 230 01ae 06A9     		add	r1, sp, #24
 231 01b0 2046     		mov	r0, r4
 232 01b2 1FFA88F8 		uxth	r8, r8
 233 01b6 CDE90632 		strd	r3, r2, [sp, #24]
ARM GAS  /var/folders/lp/x54gwt890xv47sdkqj1k04q40000gn/T//ccJoQ5RK.s 			page 5


 234 01ba A7EB0807 		sub	r7, r7, r8
 235 01be FFF7FEFF 		bl	lv_obj_invalidate_area
 236 01c2 0023     		movs	r3, #0
 237 01c4 ADB2     		uxth	r5, r5
 238 01c6 BFB2     		uxth	r7, r7
 239 01c8 1A46     		mov	r2, r3
 240 01ca 69F30F03 		bfi	r3, r9, #0, #16
 241 01ce 67F31F43 		bfi	r3, r7, #16, #16
 242 01d2 B6B2     		uxth	r6, r6
 243 01d4 65F30F02 		bfi	r2, r5, #0, #16
 244 01d8 A364     		str	r3, [r4, #72]	@ unaligned
 245 01da 66F31F42 		bfi	r2, r6, #16, #16
 246 01de 636A     		ldr	r3, [r4, #36]
 247 01e0 E264     		str	r2, [r4, #76]	@ unaligned
 248 01e2 2046     		mov	r0, r4
 249 01e4 9C8A     		ldrh	r4, [r3, #20]
 250 01e6 DB8A     		ldrh	r3, [r3, #22]
 251 01e8 1F44     		add	r7, r7, r3
 252 01ea 1E44     		add	r6, r6, r3
 253 01ec 0023     		movs	r3, #0
 254 01ee 09EB0402 		add	r2, r9, r4
 255 01f2 2544     		add	r5, r5, r4
 256 01f4 1C46     		mov	r4, r3
 257 01f6 65F30F04 		bfi	r4, r5, #0, #16
 258 01fa 62F30F03 		bfi	r3, r2, #0, #16
 259 01fe 67F31F43 		bfi	r3, r7, #16, #16
 260 0202 06A9     		add	r1, sp, #24
 261 0204 66F31F44 		bfi	r4, r6, #16, #16
 262 0208 CDE90634 		strd	r3, r4, [sp, #24]
 263 020c FFF7FEFF 		bl	lv_obj_invalidate_area
 264 0210 09B0     		add	sp, sp, #36
 265              		@ sp needed
 266 0212 BDE8F08F 		pop	{r4, r5, r6, r7, r8, r9, r10, fp, pc}
 267              	.L21:
 268 0216 0146     		mov	r1, r0
 269 0218 24E7     		b	.L18
 270              	.L23:
 271 021a 2021     		movs	r1, #32
 272 021c 6EE7     		b	.L20
 273              	.L31:
 274 021e 00BF     		.align	2
 275              	.L30:
 276 0220 00000000 		.word	_lv_txt_encoded_get_byte_id
 277 0224 00000000 		.word	_lv_txt_encoded_size
 278 0228 00000000 		.word	_lv_txt_encoded_next
 280              		.section	.text.cursor_blink_anim_cb,"ax",%progbits
 281              		.align	1
 282              		.p2align 2,,3
 283              		.syntax unified
 284              		.thumb
 285              		.thumb_func
 287              	cursor_blink_anim_cb:
 288              		@ args = 0, pretend = 0, frame = 8
 289              		@ frame_needed = 0, uses_anonymous_args = 0
 290 0000 10B5     		push	{r4, lr}
 291 0002 90F85420 		ldrb	r2, [r0, #84]	@ zero_extendqisi2
 292 0006 02F00104 		and	r4, r2, #1
ARM GAS  /var/folders/lp/x54gwt890xv47sdkqj1k04q40000gn/T//ccJoQ5RK.s 			page 6


 293 000a 8C42     		cmp	r4, r1
 294 000c 82B0     		sub	sp, sp, #8
 295 000e 24D0     		beq	.L32
 296 0010 0039     		subs	r1, r1, #0
 297 0012 18BF     		it	ne
 298 0014 0121     		movne	r1, #1
 299 0016 446A     		ldr	r4, [r0, #36]
 300 0018 B0F84CC0 		ldrh	ip, [r0, #76]
 301 001c B0F84E30 		ldrh	r3, [r0, #78]
 302 0020 B0F84AE0 		ldrh	lr, [r0, #74]
 303 0024 61F30002 		bfi	r2, r1, #0, #1
 304 0028 80F85420 		strb	r2, [r0, #84]
 305 002c A28A     		ldrh	r2, [r4, #20]
 306 002e E18A     		ldrh	r1, [r4, #22]
 307 0030 B0F84840 		ldrh	r4, [r0, #72]
 308 0034 9444     		add	ip, ip, r2
 309 0036 1444     		add	r4, r4, r2
 310 0038 0022     		movs	r2, #0
 311 003a 8E44     		add	lr, lr, r1
 312 003c 1944     		add	r1, r1, r3
 313 003e 1346     		mov	r3, r2
 314 0040 6CF30F03 		bfi	r3, ip, #0, #16
 315 0044 64F30F02 		bfi	r2, r4, #0, #16
 316 0048 61F31F43 		bfi	r3, r1, #16, #16
 317 004c 6EF31F42 		bfi	r2, lr, #16, #16
 318 0050 6946     		mov	r1, sp
 319 0052 CDE90023 		strd	r2, r3, [sp]
 320 0056 FFF7FEFF 		bl	lv_obj_invalidate_area
 321              	.L32:
 322 005a 02B0     		add	sp, sp, #8
 323              		@ sp needed
 324 005c 10BD     		pop	{r4, pc}
 326 005e 00BF     		.section	.text.start_cursor_blink,"ax",%progbits
 327              		.align	1
 328              		.p2align 2,,3
 329              		.syntax unified
 330              		.thumb
 331              		.thumb_func
 333              	start_cursor_blink:
 334              		@ args = 0, pretend = 0, frame = 72
 335              		@ frame_needed = 0, uses_anonymous_args = 0
 336 0000 30B5     		push	{r4, r5, lr}
 337 0002 6522     		movs	r2, #101
 338 0004 93B0     		sub	sp, sp, #76
 339 0006 4FF4E021 		mov	r1, #458752
 340 000a 0546     		mov	r5, r0
 341 000c FFF7FEFF 		bl	lv_obj_get_style_prop
 342 0010 58B9     		cbnz	r0, .L36
 343 0012 1549     		ldr	r1, .L39+8
 344 0014 2846     		mov	r0, r5
 345 0016 FFF7FEFF 		bl	lv_anim_del
 346 001a 95F85430 		ldrb	r3, [r5, #84]	@ zero_extendqisi2
 347 001e 43F00103 		orr	r3, r3, #1
 348 0022 85F85430 		strb	r3, [r5, #84]
 349 0026 13B0     		add	sp, sp, #76
 350              		@ sp needed
 351 0028 30BD     		pop	{r4, r5, pc}
ARM GAS  /var/folders/lp/x54gwt890xv47sdkqj1k04q40000gn/T//ccJoQ5RK.s 			page 7


 352              	.L36:
 353 002a 0446     		mov	r4, r0
 354 002c 6846     		mov	r0, sp
 355 002e FFF7FEFF 		bl	lv_anim_init
 356 0032 9FED0B7B 		vldr.64	d7, .L39	@ int
 357 0036 0C4B     		ldr	r3, .L39+8
 358 0038 0C4A     		ldr	r2, .L39+12
 359 003a 0B94     		str	r4, [sp, #44]
 360 003c CDE90053 		strd	r5, r3, [sp]
 361 0040 0021     		movs	r1, #0
 362 0042 4FF6FF73 		movw	r3, #65535
 363 0046 6846     		mov	r0, sp
 364 0048 8DED087B 		vstr.64	d7, [sp, #32]	@ int
 365 004c 0E94     		str	r4, [sp, #56]
 366 004e 0A91     		str	r1, [sp, #40]
 367 0050 0792     		str	r2, [sp, #28]
 368 0052 ADF84030 		strh	r3, [sp, #64]	@ movhi
 369 0056 FFF7FEFF 		bl	lv_anim_start
 370 005a 13B0     		add	sp, sp, #76
 371              		@ sp needed
 372 005c 30BD     		pop	{r4, r5, pc}
 373              	.L40:
 374 005e 00BF     		.align	3
 375              	.L39:
 376 0060 01000000 		.word	1
 377 0064 01000000 		.word	1
 378 0068 00000000 		.word	cursor_blink_anim_cb
 379 006c 00000000 		.word	lv_anim_path_step
 381              		.section	.text.label_event_cb,"ax",%progbits
 382              		.align	1
 383              		.p2align 2,,3
 384              		.syntax unified
 385              		.thumb
 386              		.thumb_func
 388              	label_event_cb:
 389              		@ args = 0, pretend = 0, frame = 0
 390              		@ frame_needed = 0, uses_anonymous_args = 0
 391 0000 70B5     		push	{r4, r5, r6, lr}
 392 0002 0546     		mov	r5, r0
 393 0004 FFF7FEFF 		bl	lv_event_get_code
 394 0008 0446     		mov	r4, r0
 395 000a 2846     		mov	r0, r5
 396 000c FFF7FEFF 		bl	lv_event_get_target
 397 0010 293C     		subs	r4, r4, #41
 398 0012 E4B2     		uxtb	r4, r4
 399 0014 0646     		mov	r6, r0
 400 0016 FFF7FEFF 		bl	lv_obj_get_parent
 401 001a 012C     		cmp	r4, #1
 402 001c 00D9     		bls	.L44
 403 001e 70BD     		pop	{r4, r5, r6, pc}
 404              	.L44:
 405 0020 0546     		mov	r5, r0
 406 0022 0021     		movs	r1, #0
 407 0024 3046     		mov	r0, r6
 408 0026 FFF7FEFF 		bl	lv_label_set_text
 409 002a 2846     		mov	r0, r5
 410 002c FFF7FEFF 		bl	refr_cursor_area
ARM GAS  /var/folders/lp/x54gwt890xv47sdkqj1k04q40000gn/T//ccJoQ5RK.s 			page 8


 411 0030 2846     		mov	r0, r5
 412 0032 BDE87040 		pop	{r4, r5, r6, lr}
 413 0036 FFF7FEBF 		b	start_cursor_blink
 415 003a 00BF     		.section	.rodata.pwd_char_hider.part.0.str1.4,"aMS",%progbits,1
 416              		.align	2
 417              	.LC0:
 418 0000 2A00     		.ascii	"*\000"
 419 0002 0000     		.align	2
 420              	.LC1:
 421 0004 E280A200 		.ascii	"\342\200\242\000"
 422              		.section	.text.pwd_char_hider.part.0,"ax",%progbits
 423              		.align	1
 424              		.p2align 2,,3
 425              		.syntax unified
 426              		.thumb
 427              		.thumb_func
 429              	pwd_char_hider.part.0:
 430              		@ args = 0, pretend = 0, frame = 16
 431              		@ frame_needed = 0, uses_anonymous_args = 0
 432 0000 2DE9F04F 		push	{r4, r5, r6, r7, r8, r9, r10, fp, lr}
 433 0004 8146     		mov	r9, r0
 434 0006 85B0     		sub	sp, sp, #20
 435 0008 406A     		ldr	r0, [r0, #36]
 436 000a FFF7FEFF 		bl	lv_label_get_text
 437 000e 234B     		ldr	r3, .L54
 438 0010 1B68     		ldr	r3, [r3]
 439 0012 9847     		blx	r3
 440 0014 60B3     		cbz	r0, .L45
 441 0016 D9F830A0 		ldr	r10, [r9, #48]
 442 001a 0746     		mov	r7, r0
 443 001c BAF1000F 		cmp	r10, #0
 444 0020 29D0     		beq	.L53
 445              	.L47:
 446 0022 5046     		mov	r0, r10
 447 0024 FFF7FEFF 		bl	strlen
 448 0028 00FB07FB 		mul	fp, r0, r7
 449 002c 0646     		mov	r6, r0
 450 002e 0BF10100 		add	r0, fp, #1
 451 0032 FFF7FEFF 		bl	lv_mem_buf_get
 452 0036 0024     		movs	r4, #0
 453 0038 8046     		mov	r8, r0
 454 003a 0546     		mov	r5, r0
 455              	.L49:
 456 003c 2846     		mov	r0, r5
 457 003e 3246     		mov	r2, r6
 458 0040 5146     		mov	r1, r10
 459 0042 0134     		adds	r4, r4, #1
 460 0044 FFF7FEFF 		bl	lv_memcpy
 461 0048 A742     		cmp	r7, r4
 462 004a 3544     		add	r5, r5, r6
 463 004c F6D1     		bne	.L49
 464 004e 0023     		movs	r3, #0
 465 0050 08F80B30 		strb	r3, [r8, fp]
 466 0054 4146     		mov	r1, r8
 467 0056 D9F82400 		ldr	r0, [r9, #36]
 468 005a FFF7FEFF 		bl	lv_label_set_text
 469 005e 4046     		mov	r0, r8
ARM GAS  /var/folders/lp/x54gwt890xv47sdkqj1k04q40000gn/T//ccJoQ5RK.s 			page 9


 470 0060 FFF7FEFF 		bl	lv_mem_buf_release
 471 0064 4846     		mov	r0, r9
 472 0066 05B0     		add	sp, sp, #20
 473              		@ sp needed
 474 0068 BDE8F04F 		pop	{r4, r5, r6, r7, r8, r9, r10, fp, lr}
 475 006c FFF7FEBF 		b	refr_cursor_area
 476              	.L45:
 477 0070 05B0     		add	sp, sp, #20
 478              		@ sp needed
 479 0072 BDE8F08F 		pop	{r4, r5, r6, r7, r8, r9, r10, fp, pc}
 480              	.L53:
 481 0076 5146     		mov	r1, r10
 482 0078 5722     		movs	r2, #87
 483 007a 4846     		mov	r0, r9
 484 007c FFF7FEFF 		bl	lv_obj_get_style_prop
 485 0080 5346     		mov	r3, r10
 486 0082 42F22202 		movw	r2, #8226
 487 0086 6946     		mov	r1, sp
 488 0088 FFF7FEFF 		bl	lv_font_get_glyph_dsc
 489 008c 044A     		ldr	r2, .L54+4
 490 008e 054B     		ldr	r3, .L54+8
 491 0090 0028     		cmp	r0, #0
 492 0092 14BF     		ite	ne
 493 0094 9246     		movne	r10, r2
 494 0096 9A46     		moveq	r10, r3
 495 0098 C3E7     		b	.L47
 496              	.L55:
 497 009a 00BF     		.align	2
 498              	.L54:
 499 009c 00000000 		.word	_lv_txt_get_encoded_length
 500 00a0 04000000 		.word	.LC1
 501 00a4 00000000 		.word	.LC0
 503              		.section	.text.pwd_char_hider_anim_ready,"ax",%progbits
 504              		.align	1
 505              		.p2align 2,,3
 506              		.syntax unified
 507              		.thumb
 508              		.thumb_func
 510              	pwd_char_hider_anim_ready:
 511              		@ args = 0, pretend = 0, frame = 0
 512              		@ frame_needed = 0, uses_anonymous_args = 0
 513              		@ link register save eliminated.
 514 0000 0068     		ldr	r0, [r0]
 515 0002 90F86030 		ldrb	r3, [r0, #96]	@ zero_extendqisi2
 516 0006 5B07     		lsls	r3, r3, #29
 517 0008 00D4     		bmi	.L58
 518 000a 7047     		bx	lr
 519              	.L58:
 520 000c FFF7FEBF 		b	pwd_char_hider.part.0
 522              		.section	.text.auto_hide_characters,"ax",%progbits
 523              		.align	1
 524              		.p2align 2,,3
 525              		.syntax unified
 526              		.thumb
 527              		.thumb_func
 529              	auto_hide_characters:
 530              		@ args = 0, pretend = 0, frame = 72
ARM GAS  /var/folders/lp/x54gwt890xv47sdkqj1k04q40000gn/T//ccJoQ5RK.s 			page 10


 531              		@ frame_needed = 0, uses_anonymous_args = 0
 532 0000 30B5     		push	{r4, r5, lr}
 533 0002 838F     		ldrh	r3, [r0, #60]
 534 0004 93B0     		sub	sp, sp, #76
 535 0006 0446     		mov	r4, r0
 536 0008 2BB9     		cbnz	r3, .L60
 537 000a 90F86030 		ldrb	r3, [r0, #96]	@ zero_extendqisi2
 538 000e 5B07     		lsls	r3, r3, #29
 539 0010 18D4     		bmi	.L66
 540 0012 13B0     		add	sp, sp, #76
 541              		@ sp needed
 542 0014 30BD     		pop	{r4, r5, pc}
 543              	.L60:
 544 0016 6846     		mov	r0, sp
 545 0018 FFF7FEFF 		bl	lv_anim_init
 546 001c 9FED0C7B 		vldr.64	d7, .L67	@ int
 547 0020 0D4B     		ldr	r3, .L67+8
 548 0022 A18F     		ldrh	r1, [r4, #60]
 549 0024 0793     		str	r3, [sp, #28]
 550 0026 0122     		movs	r2, #1
 551 0028 0C4B     		ldr	r3, .L67+12
 552 002a 0D4D     		ldr	r5, .L67+16
 553 002c 0094     		str	r4, [sp]
 554 002e 6846     		mov	r0, sp
 555 0030 8DED087B 		vstr.64	d7, [sp, #32]	@ int
 556 0034 0195     		str	r5, [sp, #4]
 557 0036 0B91     		str	r1, [sp, #44]
 558 0038 0A92     		str	r2, [sp, #40]
 559 003a 0393     		str	r3, [sp, #12]
 560 003c FFF7FEFF 		bl	lv_anim_start
 561 0040 13B0     		add	sp, sp, #76
 562              		@ sp needed
 563 0042 30BD     		pop	{r4, r5, pc}
 564              	.L66:
 565 0044 13B0     		add	sp, sp, #76
 566              		@ sp needed
 567 0046 BDE83040 		pop	{r4, r5, lr}
 568 004a FFF7FEBF 		b	pwd_char_hider.part.0
 569              	.L68:
 570 004e 00BF     		.align	3
 571              	.L67:
 572 0050 00000000 		.word	0
 573 0054 00000000 		.word	0
 574 0058 00000000 		.word	lv_anim_path_step
 575 005c 00000000 		.word	pwd_char_hider_anim_ready
 576 0060 00000000 		.word	pwd_char_hider_anim
 578              		.section	.text.lv_textarea_create,"ax",%progbits
 579              		.align	1
 580              		.p2align 2,,3
 581              		.global	lv_textarea_create
 582              		.syntax unified
 583              		.thumb
 584              		.thumb_func
 586              	lv_textarea_create:
 587              		@ args = 0, pretend = 0, frame = 0
 588              		@ frame_needed = 0, uses_anonymous_args = 0
 589 0000 10B5     		push	{r4, lr}
ARM GAS  /var/folders/lp/x54gwt890xv47sdkqj1k04q40000gn/T//ccJoQ5RK.s 			page 11


 590 0002 0146     		mov	r1, r0
 591 0004 0348     		ldr	r0, .L71
 592 0006 FFF7FEFF 		bl	lv_obj_class_create_obj
 593 000a 0446     		mov	r4, r0
 594 000c FFF7FEFF 		bl	lv_obj_class_init_obj
 595 0010 2046     		mov	r0, r4
 596 0012 10BD     		pop	{r4, pc}
 597              	.L72:
 598              		.align	2
 599              	.L71:
 600 0014 00000000 		.word	lv_textarea_class
 602              		.section	.text.lv_textarea_set_placeholder_text,"ax",%progbits
 603              		.align	1
 604              		.p2align 2,,3
 605              		.global	lv_textarea_set_placeholder_text
 606              		.syntax unified
 607              		.thumb
 608              		.thumb_func
 610              	lv_textarea_set_placeholder_text:
 611              		@ args = 0, pretend = 0, frame = 0
 612              		@ frame_needed = 0, uses_anonymous_args = 0
 613 0000 89B1     		cbz	r1, .L75
 614 0002 70B5     		push	{r4, r5, r6, lr}
 615 0004 0446     		mov	r4, r0
 616 0006 0846     		mov	r0, r1
 617 0008 0D46     		mov	r5, r1
 618 000a FFF7FEFF 		bl	strlen
 619 000e 0646     		mov	r6, r0
 620 0010 A06A     		ldr	r0, [r4, #40]
 621 0012 4EB9     		cbnz	r6, .L76
 622 0014 40B1     		cbz	r0, .L76
 623 0016 FFF7FEFF 		bl	lv_mem_free
 624 001a A662     		str	r6, [r4, #40]
 625 001c 2046     		mov	r0, r4
 626 001e BDE87040 		pop	{r4, r5, r6, lr}
 627 0022 FFF7FEBF 		b	lv_obj_invalidate
 628              	.L75:
 629 0026 FEE7     		b	.L75
 630              	.L76:
 631 0028 711C     		adds	r1, r6, #1
 632 002a FFF7FEFF 		bl	lv_mem_realloc
 633 002e A062     		str	r0, [r4, #40]
 634 0030 50B1     		cbz	r0, .L79
 635 0032 2946     		mov	r1, r5
 636 0034 FFF7FEFF 		bl	strcpy
 637 0038 A36A     		ldr	r3, [r4, #40]
 638 003a 0022     		movs	r2, #0
 639 003c 9A55     		strb	r2, [r3, r6]
 640 003e 2046     		mov	r0, r4
 641 0040 BDE87040 		pop	{r4, r5, r6, lr}
 642 0044 FFF7FEBF 		b	lv_obj_invalidate
 643              	.L79:
 644 0048 FEE7     		b	.L79
 646 004a 00BF     		.section	.text.lv_textarea_set_cursor_pos,"ax",%progbits
 647              		.align	1
 648              		.p2align 2,,3
 649              		.global	lv_textarea_set_cursor_pos
ARM GAS  /var/folders/lp/x54gwt890xv47sdkqj1k04q40000gn/T//ccJoQ5RK.s 			page 12


 650              		.syntax unified
 651              		.thumb
 652              		.thumb_func
 654              	lv_textarea_set_cursor_pos:
 655              		@ args = 0, pretend = 0, frame = 8
 656              		@ frame_needed = 0, uses_anonymous_args = 0
 657 0000 436C     		ldr	r3, [r0, #68]
 658 0002 8B42     		cmp	r3, r1
 659 0004 00F08480 		beq	.L94
 660 0008 F0B5     		push	{r4, r5, r6, r7, lr}
 661 000a 424B     		ldr	r3, .L102
 662 000c 83B0     		sub	sp, sp, #12
 663 000e 0446     		mov	r4, r0
 664 0010 406A     		ldr	r0, [r0, #36]
 665 0012 1E68     		ldr	r6, [r3]
 666 0014 0D46     		mov	r5, r1
 667 0016 FFF7FEFF 		bl	lv_label_get_text
 668 001a B047     		blx	r6
 669 001c 002D     		cmp	r5, #0
 670 001e B8BF     		it	lt
 671 0020 2D18     		addlt	r5, r5, r0
 672 0022 A842     		cmp	r0, r5
 673 0024 0646     		mov	r6, r0
 674 0026 44DA     		bge	.L97
 675              	.L88:
 676 0028 6664     		str	r6, [r4, #68]
 677 002a 2046     		mov	r0, r4
 678 002c FFF7FEFF 		bl	lv_obj_update_layout
 679 0030 5722     		movs	r2, #87
 680 0032 0021     		movs	r1, #0
 681 0034 2046     		mov	r0, r4
 682 0036 FFF7FEFF 		bl	lv_obj_get_style_prop
 683 003a 3146     		mov	r1, r6
 684 003c 0546     		mov	r5, r0
 685 003e 01AA     		add	r2, sp, #4
 686 0040 606A     		ldr	r0, [r4, #36]
 687 0042 FFF7FEFF 		bl	lv_label_get_letter_pos
 688 0046 2046     		mov	r0, r4
 689 0048 B5F90860 		ldrsh	r6, [r5, #8]
 690 004c BDF90650 		ldrsh	r5, [sp, #6]
 691 0050 FFF7FEFF 		bl	lv_obj_get_scroll_top
 692 0054 8542     		cmp	r5, r0
 693 0056 54DB     		blt	.L98
 694              	.L89:
 695 0058 2046     		mov	r0, r4
 696 005a FFF7FEFF 		bl	lv_obj_get_content_height
 697 005e 0746     		mov	r7, r0
 698 0060 2046     		mov	r0, r4
 699 0062 BDF90650 		ldrsh	r5, [sp, #6]
 700 0066 FFF7FEFF 		bl	lv_obj_get_scroll_top
 701 006a 3544     		add	r5, r5, r6
 702 006c 2D1A     		subs	r5, r5, r0
 703 006e BD42     		cmp	r5, r7
 704 0070 36DC     		bgt	.L99
 705 0072 2046     		mov	r0, r4
 706 0074 BDF90450 		ldrsh	r5, [sp, #4]
 707 0078 FFF7FEFF 		bl	lv_obj_get_scroll_left
ARM GAS  /var/folders/lp/x54gwt890xv47sdkqj1k04q40000gn/T//ccJoQ5RK.s 			page 13


 708 007c 8542     		cmp	r5, r0
 709 007e 28DB     		blt	.L100
 710              	.L91:
 711 0080 2046     		mov	r0, r4
 712 0082 FFF7FEFF 		bl	lv_obj_get_content_width
 713 0086 0746     		mov	r7, r0
 714 0088 2046     		mov	r0, r4
 715 008a BDF90450 		ldrsh	r5, [sp, #4]
 716 008e FFF7FEFF 		bl	lv_obj_get_scroll_left
 717 0092 3544     		add	r5, r5, r6
 718 0094 2D1A     		subs	r5, r5, r0
 719 0096 BD42     		cmp	r5, r7
 720 0098 11DC     		bgt	.L101
 721              	.L92:
 722 009a BDF80430 		ldrh	r3, [sp, #4]
 723 009e A4F84030 		strh	r3, [r4, #64]	@ movhi
 724 00a2 2046     		mov	r0, r4
 725 00a4 FFF7FEFF 		bl	start_cursor_blink
 726 00a8 2046     		mov	r0, r4
 727 00aa FFF7FEFF 		bl	refr_cursor_area
 728 00ae 03B0     		add	sp, sp, #12
 729              		@ sp needed
 730 00b0 F0BD     		pop	{r4, r5, r6, r7, pc}
 731              	.L97:
 732 00b2 47F6FF73 		movw	r3, #32767
 733 00b6 9D42     		cmp	r5, r3
 734 00b8 18BF     		it	ne
 735 00ba 2E46     		movne	r6, r5
 736 00bc B4E7     		b	.L88
 737              	.L101:
 738 00be BDF80430 		ldrh	r3, [sp, #4]
 739 00c2 1E44     		add	r6, r6, r3
 740 00c4 F11B     		subs	r1, r6, r7
 741 00c6 0122     		movs	r2, #1
 742 00c8 09B2     		sxth	r1, r1
 743 00ca 2046     		mov	r0, r4
 744 00cc FFF7FEFF 		bl	lv_obj_scroll_to_x
 745 00d0 E3E7     		b	.L92
 746              	.L100:
 747 00d2 BDF90410 		ldrsh	r1, [sp, #4]
 748 00d6 0122     		movs	r2, #1
 749 00d8 2046     		mov	r0, r4
 750 00da FFF7FEFF 		bl	lv_obj_scroll_to_x
 751 00de CFE7     		b	.L91
 752              	.L99:
 753 00e0 BDF80610 		ldrh	r1, [sp, #6]
 754 00e4 3144     		add	r1, r1, r6
 755 00e6 C91B     		subs	r1, r1, r7
 756 00e8 0122     		movs	r2, #1
 757 00ea 09B2     		sxth	r1, r1
 758 00ec 2046     		mov	r0, r4
 759 00ee FFF7FEFF 		bl	lv_obj_scroll_to_y
 760 00f2 2046     		mov	r0, r4
 761 00f4 BDF90450 		ldrsh	r5, [sp, #4]
 762 00f8 FFF7FEFF 		bl	lv_obj_get_scroll_left
 763 00fc 8542     		cmp	r5, r0
 764 00fe BFDA     		bge	.L91
ARM GAS  /var/folders/lp/x54gwt890xv47sdkqj1k04q40000gn/T//ccJoQ5RK.s 			page 14


 765 0100 E7E7     		b	.L100
 766              	.L98:
 767 0102 BDF90610 		ldrsh	r1, [sp, #6]
 768 0106 0122     		movs	r2, #1
 769 0108 2046     		mov	r0, r4
 770 010a FFF7FEFF 		bl	lv_obj_scroll_to_y
 771 010e A3E7     		b	.L89
 772              	.L94:
 773 0110 7047     		bx	lr
 774              	.L103:
 775 0112 00BF     		.align	2
 776              	.L102:
 777 0114 00000000 		.word	_lv_txt_get_encoded_length
 779              		.section	.rodata.lv_textarea_constructor.str1.4,"aMS",%progbits,1
 780              		.align	2
 781              	.LC2:
 782 0000 00       		.ascii	"\000"
 783              		.section	.text.lv_textarea_constructor,"ax",%progbits
 784              		.align	1
 785              		.p2align 2,,3
 786              		.syntax unified
 787              		.thumb
 788              		.thumb_func
 790              	lv_textarea_constructor:
 791              		@ args = 0, pretend = 0, frame = 0
 792              		@ frame_needed = 0, uses_anonymous_args = 0
 793 0000 38B5     		push	{r3, r4, r5, lr}
 794 0002 91F85430 		ldrb	r3, [r1, #84]	@ zero_extendqisi2
 795 0006 91F86020 		ldrb	r2, [r1, #96]	@ zero_extendqisi2
 796 000a 0C46     		mov	r4, r1
 797 000c 23F00303 		bic	r3, r3, #3
 798 0010 40F2DC51 		movw	r1, #1500
 799 0014 0025     		movs	r5, #0
 800 0016 43F00303 		orr	r3, r3, #3
 801 001a 22F00E02 		bic	r2, r2, #14
 802 001e A187     		strh	r1, [r4, #60]	@ movhi
 803 0020 0121     		movs	r1, #1
 804 0022 84F85430 		strb	r3, [r4, #84]
 805 0026 84F86020 		strb	r2, [r4, #96]
 806 002a 6164     		str	r1, [r4, #68]
 807 002c C4E90B55 		strd	r5, r5, [r4, #44]
 808 0030 C4E90D55 		strd	r5, r5, [r4, #52]
 809 0034 C4E90955 		strd	r5, r5, [r4, #36]
 810 0038 A4F84050 		strh	r5, [r4, #64]	@ movhi
 811 003c 2046     		mov	r0, r4
 812 003e FFF7FEFF 		bl	lv_label_create
 813 0042 42F26401 		movw	r1, #8292
 814 0046 6062     		str	r0, [r4, #36]
 815 0048 FFF7FEFF 		bl	lv_obj_set_width
 816 004c 606A     		ldr	r0, [r4, #36]
 817 004e 0B49     		ldr	r1, .L106
 818 0050 FFF7FEFF 		bl	lv_label_set_text
 819 0054 2B46     		mov	r3, r5
 820 0056 2A46     		mov	r2, r5
 821 0058 0949     		ldr	r1, .L106+4
 822 005a 606A     		ldr	r0, [r4, #36]
 823 005c FFF7FEFF 		bl	lv_obj_add_event_cb
ARM GAS  /var/folders/lp/x54gwt890xv47sdkqj1k04q40000gn/T//ccJoQ5RK.s 			page 15


 824 0060 2046     		mov	r0, r4
 825 0062 4FF48061 		mov	r1, #1024
 826 0066 FFF7FEFF 		bl	lv_obj_add_flag
 827 006a 2046     		mov	r0, r4
 828 006c 2946     		mov	r1, r5
 829 006e FFF7FEFF 		bl	lv_textarea_set_cursor_pos
 830 0072 2046     		mov	r0, r4
 831 0074 BDE83840 		pop	{r3, r4, r5, lr}
 832 0078 FFF7FEBF 		b	start_cursor_blink
 833              	.L107:
 834              		.align	2
 835              	.L106:
 836 007c 00000000 		.word	.LC2
 837 0080 00000000 		.word	label_event_cb
 839              		.section	.text.lv_textarea_set_cursor_click_pos,"ax",%progbits
 840              		.align	1
 841              		.p2align 2,,3
 842              		.global	lv_textarea_set_cursor_click_pos
 843              		.syntax unified
 844              		.thumb
 845              		.thumb_func
 847              	lv_textarea_set_cursor_click_pos:
 848              		@ args = 0, pretend = 0, frame = 0
 849              		@ frame_needed = 0, uses_anonymous_args = 0
 850              		@ link register save eliminated.
 851 0000 90F85430 		ldrb	r3, [r0, #84]	@ zero_extendqisi2
 852 0004 61F34103 		bfi	r3, r1, #1, #1
 853 0008 80F85430 		strb	r3, [r0, #84]
 854 000c 7047     		bx	lr
 856 000e 00BF     		.section	.text.lv_textarea_set_password_bullet,"ax",%progbits
 857              		.align	1
 858              		.p2align 2,,3
 859              		.global	lv_textarea_set_password_bullet
 860              		.syntax unified
 861              		.thumb
 862              		.thumb_func
 864              	lv_textarea_set_password_bullet:
 865              		@ args = 0, pretend = 0, frame = 0
 866              		@ frame_needed = 0, uses_anonymous_args = 0
 867 0000 B9B1     		cbz	r1, .L111
 868 0002 70B5     		push	{r4, r5, r6, lr}
 869 0004 0546     		mov	r5, r0
 870 0006 0846     		mov	r0, r1
 871 0008 0C46     		mov	r4, r1
 872 000a FFF7FEFF 		bl	strlen
 873 000e 0646     		mov	r6, r0
 874 0010 711C     		adds	r1, r6, #1
 875 0012 286B     		ldr	r0, [r5, #48]
 876 0014 FFF7FEFF 		bl	lv_mem_realloc
 877 0018 2863     		str	r0, [r5, #48]
 878 001a 58B1     		cbz	r0, .L113
 879 001c 2146     		mov	r1, r4
 880 001e FFF7FEFF 		bl	strcpy
 881 0022 2B6B     		ldr	r3, [r5, #48]
 882 0024 0022     		movs	r2, #0
 883 0026 9A55     		strb	r2, [r3, r6]
 884 0028 2846     		mov	r0, r5
ARM GAS  /var/folders/lp/x54gwt890xv47sdkqj1k04q40000gn/T//ccJoQ5RK.s 			page 16


 885 002a BDE87040 		pop	{r4, r5, r6, lr}
 886 002e FFF7FEBF 		b	lv_obj_invalidate
 887              	.L111:
 888 0032 FEE7     		b	.L111
 889              	.L113:
 890 0034 FEE7     		b	.L113
 892 0036 00BF     		.section	.text.lv_textarea_set_one_line,"ax",%progbits
 893              		.align	1
 894              		.p2align 2,,3
 895              		.global	lv_textarea_set_one_line
 896              		.syntax unified
 897              		.thumb
 898              		.thumb_func
 900              	lv_textarea_set_one_line:
 901              		@ args = 0, pretend = 0, frame = 0
 902              		@ frame_needed = 0, uses_anonymous_args = 0
 903 0000 90F86030 		ldrb	r3, [r0, #96]	@ zero_extendqisi2
 904 0004 C3F3C002 		ubfx	r2, r3, #3, #1
 905 0008 8A42     		cmp	r2, r1
 906 000a 2ED0     		beq	.L116
 907 000c 70B5     		push	{r4, r5, r6, lr}
 908 000e 0446     		mov	r4, r0
 909 0010 61F3C303 		bfi	r3, r1, #3, #1
 910 0014 406A     		ldr	r0, [r0, #36]
 911 0016 84F86030 		strb	r3, [r4, #96]
 912 001a 0D46     		mov	r5, r1
 913 001c B1B1     		cbz	r1, .L125
 914 001e 42F2D171 		movw	r1, #10193
 915 0022 FFF7FEFF 		bl	lv_obj_set_width
 916 0026 606A     		ldr	r0, [r4, #36]
 917 0028 42F26401 		movw	r1, #8292
 918 002c 0022     		movs	r2, #0
 919 002e FFF7FEFF 		bl	lv_obj_set_style_min_width
 920 0032 42F2D171 		movw	r1, #10193
 921 0036 2046     		mov	r0, r4
 922 0038 FFF7FEFF 		bl	lv_obj_set_height
 923              	.L120:
 924 003c 0023     		movs	r3, #0
 925 003e 2046     		mov	r0, r4
 926 0040 1A46     		mov	r2, r3
 927 0042 BDE87040 		pop	{r4, r5, r6, lr}
 928 0046 1946     		mov	r1, r3
 929 0048 FFF7FEBF 		b	lv_obj_scroll_to
 930              	.L125:
 931 004c 42F26401 		movw	r1, #8292
 932 0050 FFF7FEFF 		bl	lv_obj_set_width
 933 0054 606A     		ldr	r0, [r4, #36]
 934 0056 2A46     		mov	r2, r5
 935 0058 2946     		mov	r1, r5
 936 005a FFF7FEFF 		bl	lv_obj_set_style_min_width
 937 005e 2A46     		mov	r2, r5
 938 0060 0421     		movs	r1, #4
 939 0062 2046     		mov	r0, r4
 940 0064 FFF7FEFF 		bl	lv_obj_remove_local_style_prop
 941 0068 E8E7     		b	.L120
 942              	.L116:
 943 006a 7047     		bx	lr
ARM GAS  /var/folders/lp/x54gwt890xv47sdkqj1k04q40000gn/T//ccJoQ5RK.s 			page 17


 945              		.section	.text.lv_textarea_set_accepted_chars,"ax",%progbits
 946              		.align	1
 947              		.p2align 2,,3
 948              		.global	lv_textarea_set_accepted_chars
 949              		.syntax unified
 950              		.thumb
 951              		.thumb_func
 953              	lv_textarea_set_accepted_chars:
 954              		@ args = 0, pretend = 0, frame = 0
 955              		@ frame_needed = 0, uses_anonymous_args = 0
 956              		@ link register save eliminated.
 957 0000 4163     		str	r1, [r0, #52]
 958 0002 7047     		bx	lr
 960              		.section	.text.lv_textarea_set_max_length,"ax",%progbits
 961              		.align	1
 962              		.p2align 2,,3
 963              		.global	lv_textarea_set_max_length
 964              		.syntax unified
 965              		.thumb
 966              		.thumb_func
 968              	lv_textarea_set_max_length:
 969              		@ args = 0, pretend = 0, frame = 0
 970              		@ frame_needed = 0, uses_anonymous_args = 0
 971              		@ link register save eliminated.
 972 0000 8163     		str	r1, [r0, #56]
 973 0002 7047     		bx	lr
 975              		.section	.text.lv_textarea_set_insert_replace,"ax",%progbits
 976              		.align	1
 977              		.p2align 2,,3
 978              		.global	lv_textarea_set_insert_replace
 979              		.syntax unified
 980              		.thumb
 981              		.thumb_func
 983              	lv_textarea_set_insert_replace:
 984              		@ args = 0, pretend = 0, frame = 0
 985              		@ frame_needed = 0, uses_anonymous_args = 0
 986              		@ link register save eliminated.
 987 0000 014B     		ldr	r3, .L129
 988 0002 1960     		str	r1, [r3]
 989 0004 7047     		bx	lr
 990              	.L130:
 991 0006 00BF     		.align	2
 992              	.L129:
 993 0008 00000000 		.word	ta_insert_replace
 995              		.section	.text.lv_textarea_set_password_show_time,"ax",%progbits
 996              		.align	1
 997              		.p2align 2,,3
 998              		.global	lv_textarea_set_password_show_time
 999              		.syntax unified
 1000              		.thumb
 1001              		.thumb_func
 1003              	lv_textarea_set_password_show_time:
 1004              		@ args = 0, pretend = 0, frame = 0
 1005              		@ frame_needed = 0, uses_anonymous_args = 0
 1006              		@ link register save eliminated.
 1007 0000 8187     		strh	r1, [r0, #60]	@ movhi
 1008 0002 7047     		bx	lr
ARM GAS  /var/folders/lp/x54gwt890xv47sdkqj1k04q40000gn/T//ccJoQ5RK.s 			page 18


 1010              		.section	.text.lv_textarea_set_align,"ax",%progbits
 1011              		.align	1
 1012              		.p2align 2,,3
 1013              		.global	lv_textarea_set_align
 1014              		.syntax unified
 1015              		.thumb
 1016              		.thumb_func
 1018              	lv_textarea_set_align:
 1019              		@ args = 0, pretend = 0, frame = 0
 1020              		@ frame_needed = 0, uses_anonymous_args = 0
 1021 0000 70B5     		push	{r4, r5, r6, lr}
 1022 0002 0022     		movs	r2, #0
 1023 0004 0546     		mov	r5, r0
 1024 0006 0C46     		mov	r4, r1
 1025 0008 FFF7FEFF 		bl	lv_obj_set_style_text_align
 1026 000c 0023     		movs	r3, #0
 1027 000e 022C     		cmp	r4, #2
 1028 0010 686A     		ldr	r0, [r5, #36]
 1029 0012 1A46     		mov	r2, r3
 1030 0014 06D0     		beq	.L136
 1031 0016 032C     		cmp	r4, #3
 1032 0018 04D0     		beq	.L136
 1033 001a BDE87040 		pop	{r4, r5, r6, lr}
 1034 001e 0121     		movs	r1, #1
 1035 0020 FFF7FEBF 		b	lv_obj_align
 1036              	.L136:
 1037 0024 2146     		mov	r1, r4
 1038 0026 BDE87040 		pop	{r4, r5, r6, lr}
 1039 002a FFF7FEBF 		b	lv_obj_align
 1041 002e 00BF     		.section	.text.lv_textarea_get_text,"ax",%progbits
 1042              		.align	1
 1043              		.p2align 2,,3
 1044              		.global	lv_textarea_get_text
 1045              		.syntax unified
 1046              		.thumb
 1047              		.thumb_func
 1049              	lv_textarea_get_text:
 1050              		@ args = 0, pretend = 0, frame = 0
 1051              		@ frame_needed = 0, uses_anonymous_args = 0
 1052              		@ link register save eliminated.
 1053 0000 90F86030 		ldrb	r3, [r0, #96]	@ zero_extendqisi2
 1054 0004 5B07     		lsls	r3, r3, #29
 1055 0006 01D5     		bpl	.L139
 1056 0008 C06A     		ldr	r0, [r0, #44]
 1057 000a 7047     		bx	lr
 1058              	.L139:
 1059 000c 406A     		ldr	r0, [r0, #36]
 1060 000e FFF7FEBF 		b	lv_label_get_text
 1062 0012 00BF     		.section	.text.lv_textarea_get_placeholder_text,"ax",%progbits
 1063              		.align	1
 1064              		.p2align 2,,3
 1065              		.global	lv_textarea_get_placeholder_text
 1066              		.syntax unified
 1067              		.thumb
 1068              		.thumb_func
 1070              	lv_textarea_get_placeholder_text:
 1071              		@ args = 0, pretend = 0, frame = 0
ARM GAS  /var/folders/lp/x54gwt890xv47sdkqj1k04q40000gn/T//ccJoQ5RK.s 			page 19


 1072              		@ frame_needed = 0, uses_anonymous_args = 0
 1073              		@ link register save eliminated.
 1074 0000 024B     		ldr	r3, .L143
 1075 0002 806A     		ldr	r0, [r0, #40]
 1076 0004 0028     		cmp	r0, #0
 1077 0006 08BF     		it	eq
 1078 0008 1846     		moveq	r0, r3
 1079 000a 7047     		bx	lr
 1080              	.L144:
 1081              		.align	2
 1082              	.L143:
 1083 000c 00000000 		.word	.LC2
 1085              		.section	.text.lv_textarea_get_label,"ax",%progbits
 1086              		.align	1
 1087              		.p2align 2,,3
 1088              		.global	lv_textarea_get_label
 1089              		.syntax unified
 1090              		.thumb
 1091              		.thumb_func
 1093              	lv_textarea_get_label:
 1094              		@ args = 0, pretend = 0, frame = 0
 1095              		@ frame_needed = 0, uses_anonymous_args = 0
 1096              		@ link register save eliminated.
 1097 0000 406A     		ldr	r0, [r0, #36]
 1098 0002 7047     		bx	lr
 1100              		.section	.text.lv_textarea_get_cursor_pos,"ax",%progbits
 1101              		.align	1
 1102              		.p2align 2,,3
 1103              		.global	lv_textarea_get_cursor_pos
 1104              		.syntax unified
 1105              		.thumb
 1106              		.thumb_func
 1108              	lv_textarea_get_cursor_pos:
 1109              		@ args = 0, pretend = 0, frame = 0
 1110              		@ frame_needed = 0, uses_anonymous_args = 0
 1111              		@ link register save eliminated.
 1112 0000 406C     		ldr	r0, [r0, #68]
 1113 0002 7047     		bx	lr
 1115              		.section	.text.lv_textarea_get_cursor_click_pos,"ax",%progbits
 1116              		.align	1
 1117              		.p2align 2,,3
 1118              		.global	lv_textarea_get_cursor_click_pos
 1119              		.syntax unified
 1120              		.thumb
 1121              		.thumb_func
 1123              	lv_textarea_get_cursor_click_pos:
 1124              		@ args = 0, pretend = 0, frame = 0
 1125              		@ frame_needed = 0, uses_anonymous_args = 0
 1126              		@ link register save eliminated.
 1127 0000 90F85400 		ldrb	r0, [r0, #84]	@ zero_extendqisi2
 1128 0004 C0F34000 		ubfx	r0, r0, #1, #1
 1129 0008 7047     		bx	lr
 1131 000a 00BF     		.section	.text.lv_textarea_get_password_mode,"ax",%progbits
 1132              		.align	1
 1133              		.p2align 2,,3
 1134              		.global	lv_textarea_get_password_mode
 1135              		.syntax unified
ARM GAS  /var/folders/lp/x54gwt890xv47sdkqj1k04q40000gn/T//ccJoQ5RK.s 			page 20


 1136              		.thumb
 1137              		.thumb_func
 1139              	lv_textarea_get_password_mode:
 1140              		@ args = 0, pretend = 0, frame = 0
 1141              		@ frame_needed = 0, uses_anonymous_args = 0
 1142              		@ link register save eliminated.
 1143 0000 90F86000 		ldrb	r0, [r0, #96]	@ zero_extendqisi2
 1144 0004 C0F38000 		ubfx	r0, r0, #2, #1
 1145 0008 7047     		bx	lr
 1147 000a 00BF     		.section	.text.lv_textarea_get_password_bullet,"ax",%progbits
 1148              		.align	1
 1149              		.p2align 2,,3
 1150              		.global	lv_textarea_get_password_bullet
 1151              		.syntax unified
 1152              		.thumb
 1153              		.thumb_func
 1155              	lv_textarea_get_password_bullet:
 1156              		@ args = 0, pretend = 0, frame = 16
 1157              		@ frame_needed = 0, uses_anonymous_args = 0
 1158 0000 10B5     		push	{r4, lr}
 1159 0002 046B     		ldr	r4, [r0, #48]
 1160 0004 84B0     		sub	sp, sp, #16
 1161 0006 14B1     		cbz	r4, .L154
 1162 0008 2046     		mov	r0, r4
 1163 000a 04B0     		add	sp, sp, #16
 1164              		@ sp needed
 1165 000c 10BD     		pop	{r4, pc}
 1166              	.L154:
 1167 000e 2146     		mov	r1, r4
 1168 0010 5722     		movs	r2, #87
 1169 0012 FFF7FEFF 		bl	lv_obj_get_style_prop
 1170 0016 2346     		mov	r3, r4
 1171 0018 42F22202 		movw	r2, #8226
 1172 001c 6946     		mov	r1, sp
 1173 001e FFF7FEFF 		bl	lv_font_get_glyph_dsc
 1174 0022 044C     		ldr	r4, .L155
 1175 0024 044B     		ldr	r3, .L155+4
 1176 0026 0028     		cmp	r0, #0
 1177 0028 08BF     		it	eq
 1178 002a 1C46     		moveq	r4, r3
 1179 002c 2046     		mov	r0, r4
 1180 002e 04B0     		add	sp, sp, #16
 1181              		@ sp needed
 1182 0030 10BD     		pop	{r4, pc}
 1183              	.L156:
 1184 0032 00BF     		.align	2
 1185              	.L155:
 1186 0034 04000000 		.word	.LC1
 1187 0038 00000000 		.word	.LC0
 1189              		.section	.text.lv_textarea_get_one_line,"ax",%progbits
 1190              		.align	1
 1191              		.p2align 2,,3
 1192              		.global	lv_textarea_get_one_line
 1193              		.syntax unified
 1194              		.thumb
 1195              		.thumb_func
 1197              	lv_textarea_get_one_line:
ARM GAS  /var/folders/lp/x54gwt890xv47sdkqj1k04q40000gn/T//ccJoQ5RK.s 			page 21


 1198              		@ args = 0, pretend = 0, frame = 0
 1199              		@ frame_needed = 0, uses_anonymous_args = 0
 1200              		@ link register save eliminated.
 1201 0000 90F86000 		ldrb	r0, [r0, #96]	@ zero_extendqisi2
 1202 0004 C0F3C000 		ubfx	r0, r0, #3, #1
 1203 0008 7047     		bx	lr
 1205 000a 00BF     		.section	.text.lv_textarea_get_accepted_chars,"ax",%progbits
 1206              		.align	1
 1207              		.p2align 2,,3
 1208              		.global	lv_textarea_get_accepted_chars
 1209              		.syntax unified
 1210              		.thumb
 1211              		.thumb_func
 1213              	lv_textarea_get_accepted_chars:
 1214              		@ args = 0, pretend = 0, frame = 0
 1215              		@ frame_needed = 0, uses_anonymous_args = 0
 1216              		@ link register save eliminated.
 1217 0000 406B     		ldr	r0, [r0, #52]
 1218 0002 7047     		bx	lr
 1220              		.section	.text.lv_textarea_get_max_length,"ax",%progbits
 1221              		.align	1
 1222              		.p2align 2,,3
 1223              		.global	lv_textarea_get_max_length
 1224              		.syntax unified
 1225              		.thumb
 1226              		.thumb_func
 1228              	lv_textarea_get_max_length:
 1229              		@ args = 0, pretend = 0, frame = 0
 1230              		@ frame_needed = 0, uses_anonymous_args = 0
 1231              		@ link register save eliminated.
 1232 0000 806B     		ldr	r0, [r0, #56]
 1233 0002 7047     		bx	lr
 1235              		.section	.text.lv_textarea_text_is_selected,"ax",%progbits
 1236              		.align	1
 1237              		.p2align 2,,3
 1238              		.global	lv_textarea_text_is_selected
 1239              		.syntax unified
 1240              		.thumb
 1241              		.thumb_func
 1243              	lv_textarea_text_is_selected:
 1244              		@ args = 0, pretend = 0, frame = 0
 1245              		@ frame_needed = 0, uses_anonymous_args = 0
 1246 0000 38B5     		push	{r3, r4, r5, lr}
 1247 0002 0546     		mov	r5, r0
 1248 0004 406A     		ldr	r0, [r0, #36]
 1249 0006 FFF7FEFF 		bl	lv_label_get_text_selection_start
 1250 000a 4FF6FF73 		movw	r3, #65535
 1251 000e 9842     		cmp	r0, r3
 1252 0010 01D0     		beq	.L164
 1253 0012 0120     		movs	r0, #1
 1254 0014 38BD     		pop	{r3, r4, r5, pc}
 1255              	.L164:
 1256 0016 0446     		mov	r4, r0
 1257 0018 686A     		ldr	r0, [r5, #36]
 1258 001a FFF7FEFF 		bl	lv_label_get_text_selection_end
 1259 001e 001B     		subs	r0, r0, r4
 1260 0020 18BF     		it	ne
ARM GAS  /var/folders/lp/x54gwt890xv47sdkqj1k04q40000gn/T//ccJoQ5RK.s 			page 22


 1261 0022 0120     		movne	r0, #1
 1262 0024 38BD     		pop	{r3, r4, r5, pc}
 1264 0026 00BF     		.section	.text.lv_textarea_get_text_selection,"ax",%progbits
 1265              		.align	1
 1266              		.p2align 2,,3
 1267              		.global	lv_textarea_get_text_selection
 1268              		.syntax unified
 1269              		.thumb
 1270              		.thumb_func
 1272              	lv_textarea_get_text_selection:
 1273              		@ args = 0, pretend = 0, frame = 0
 1274              		@ frame_needed = 0, uses_anonymous_args = 0
 1275              		@ link register save eliminated.
 1276 0000 90F86000 		ldrb	r0, [r0, #96]	@ zero_extendqisi2
 1277 0004 C0F34000 		ubfx	r0, r0, #1, #1
 1278 0008 7047     		bx	lr
 1280 000a 00BF     		.section	.text.lv_textarea_get_password_show_time,"ax",%progbits
 1281              		.align	1
 1282              		.p2align 2,,3
 1283              		.global	lv_textarea_get_password_show_time
 1284              		.syntax unified
 1285              		.thumb
 1286              		.thumb_func
 1288              	lv_textarea_get_password_show_time:
 1289              		@ args = 0, pretend = 0, frame = 0
 1290              		@ frame_needed = 0, uses_anonymous_args = 0
 1291              		@ link register save eliminated.
 1292 0000 808F     		ldrh	r0, [r0, #60]
 1293 0002 7047     		bx	lr
 1295              		.section	.text.lv_textarea_clear_selection,"ax",%progbits
 1296              		.align	1
 1297              		.p2align 2,,3
 1298              		.global	lv_textarea_clear_selection
 1299              		.syntax unified
 1300              		.thumb
 1301              		.thumb_func
 1303              	lv_textarea_clear_selection:
 1304              		@ args = 0, pretend = 0, frame = 0
 1305              		@ frame_needed = 0, uses_anonymous_args = 0
 1306 0000 38B5     		push	{r3, r4, r5, lr}
 1307 0002 0446     		mov	r4, r0
 1308 0004 406A     		ldr	r0, [r0, #36]
 1309 0006 FFF7FEFF 		bl	lv_label_get_text_selection_start
 1310 000a 4FF6FF73 		movw	r3, #65535
 1311 000e 9842     		cmp	r0, r3
 1312 0010 0BD0     		beq	.L168
 1313              	.L169:
 1314 0012 606A     		ldr	r0, [r4, #36]
 1315 0014 4FF6FF71 		movw	r1, #65535
 1316 0018 FFF7FEFF 		bl	lv_label_set_text_sel_start
 1317 001c 606A     		ldr	r0, [r4, #36]
 1318 001e 4FF6FF71 		movw	r1, #65535
 1319 0022 BDE83840 		pop	{r3, r4, r5, lr}
 1320 0026 FFF7FEBF 		b	lv_label_set_text_sel_end
 1321              	.L168:
 1322 002a 0546     		mov	r5, r0
 1323 002c 606A     		ldr	r0, [r4, #36]
ARM GAS  /var/folders/lp/x54gwt890xv47sdkqj1k04q40000gn/T//ccJoQ5RK.s 			page 23


 1324 002e FFF7FEFF 		bl	lv_label_get_text_selection_end
 1325 0032 A842     		cmp	r0, r5
 1326 0034 EDD1     		bne	.L169
 1327 0036 38BD     		pop	{r3, r4, r5, pc}
 1329              		.section	.text.lv_textarea_add_text,"ax",%progbits
 1330              		.align	1
 1331              		.p2align 2,,3
 1332              		.global	lv_textarea_add_text
 1333              		.syntax unified
 1334              		.thumb
 1335              		.thumb_func
 1337              	lv_textarea_add_text:
 1338              		@ args = 0, pretend = 0, frame = 8
 1339              		@ frame_needed = 0, uses_anonymous_args = 0
 1340 0000 F9B1     		cbz	r1, .L173
 1341 0002 F0B5     		push	{r4, r5, r6, r7, lr}
 1342 0004 90F86030 		ldrb	r3, [r0, #96]	@ zero_extendqisi2
 1343 0008 5A07     		lsls	r2, r3, #29
 1344 000a 83B0     		sub	sp, sp, #12
 1345 000c 0546     		mov	r5, r0
 1346 000e 0C46     		mov	r4, r1
 1347 0010 46D4     		bmi	.L199
 1348 0012 6B6B     		ldr	r3, [r5, #52]
 1349 0014 B3B1     		cbz	r3, .L200
 1350              	.L175:
 1351 0016 2378     		ldrb	r3, [r4]	@ zero_extendqisi2
 1352 0018 0022     		movs	r2, #0
 1353 001a 0192     		str	r2, [sp, #4]
 1354 001c 7BB1     		cbz	r3, .L171
 1355 001e 314F     		ldr	r7, .L202
 1356 0020 314E     		ldr	r6, .L202+4
 1357              	.L177:
 1358 0022 3B68     		ldr	r3, [r7]
 1359 0024 01A9     		add	r1, sp, #4
 1360 0026 2046     		mov	r0, r4
 1361 0028 9847     		blx	r3
 1362 002a 3368     		ldr	r3, [r6]
 1363 002c 9847     		blx	r3
 1364 002e 0146     		mov	r1, r0
 1365 0030 2846     		mov	r0, r5
 1366 0032 FFF7FEFF 		bl	lv_textarea_add_char
 1367 0036 019B     		ldr	r3, [sp, #4]
 1368 0038 E35C     		ldrb	r3, [r4, r3]	@ zero_extendqisi2
 1369 003a 002B     		cmp	r3, #0
 1370 003c F1D1     		bne	.L177
 1371              	.L171:
 1372 003e 03B0     		add	sp, sp, #12
 1373              		@ sp needed
 1374 0040 F0BD     		pop	{r4, r5, r6, r7, pc}
 1375              	.L173:
 1376 0042 FEE7     		b	.L173
 1377              	.L200:
 1378 0044 AB6B     		ldr	r3, [r5, #56]
 1379 0046 002B     		cmp	r3, #0
 1380 0048 E5D1     		bne	.L175
 1381 004a 2146     		mov	r1, r4
 1382 004c 2846     		mov	r0, r5
ARM GAS  /var/folders/lp/x54gwt890xv47sdkqj1k04q40000gn/T//ccJoQ5RK.s 			page 24


 1383 004e FFF7FEFF 		bl	insert_handler
 1384 0052 0128     		cmp	r0, #1
 1385 0054 F3D1     		bne	.L171
 1386 0056 D5E90903 		ldrd	r0, r3, [r5, #36]
 1387 005a 2BB1     		cbz	r3, .L181
 1388 005c FFF7FEFF 		bl	lv_label_get_text
 1389 0060 0378     		ldrb	r3, [r0]	@ zero_extendqisi2
 1390 0062 002B     		cmp	r3, #0
 1391 0064 3AD0     		beq	.L195
 1392              	.L198:
 1393 0066 686A     		ldr	r0, [r5, #36]
 1394              	.L181:
 1395 0068 696C     		ldr	r1, [r5, #68]
 1396 006a 2246     		mov	r2, r4
 1397 006c FFF7FEFF 		bl	lv_label_ins_text
 1398 0070 2846     		mov	r0, r5
 1399 0072 FFF7FEFF 		bl	lv_textarea_clear_selection
 1400 0076 95F86030 		ldrb	r3, [r5, #96]	@ zero_extendqisi2
 1401 007a 5B07     		lsls	r3, r3, #29
 1402 007c 16D4     		bmi	.L201
 1403              	.L183:
 1404 007e 1B4B     		ldr	r3, .L202+8
 1405 0080 2046     		mov	r0, r4
 1406 0082 1B68     		ldr	r3, [r3]
 1407 0084 6C6C     		ldr	r4, [r5, #68]
 1408 0086 9847     		blx	r3
 1409 0088 0119     		adds	r1, r0, r4
 1410 008a 2846     		mov	r0, r5
 1411 008c FFF7FEFF 		bl	lv_textarea_set_cursor_pos
 1412 0090 0022     		movs	r2, #0
 1413 0092 1C21     		movs	r1, #28
 1414 0094 2846     		mov	r0, r5
 1415 0096 03B0     		add	sp, sp, #12
 1416              		@ sp needed
 1417 0098 BDE8F040 		pop	{r4, r5, r6, r7, lr}
 1418 009c FFF7FEBF 		b	lv_event_send
 1419              	.L199:
 1420 00a0 FFF7FEFF 		bl	pwd_char_hider.part.0
 1421 00a4 6B6B     		ldr	r3, [r5, #52]
 1422 00a6 002B     		cmp	r3, #0
 1423 00a8 B5D1     		bne	.L175
 1424 00aa CBE7     		b	.L200
 1425              	.L201:
 1426 00ac EF6A     		ldr	r7, [r5, #44]
 1427 00ae 3846     		mov	r0, r7
 1428 00b0 FFF7FEFF 		bl	strlen
 1429 00b4 0646     		mov	r6, r0
 1430 00b6 2046     		mov	r0, r4
 1431 00b8 FFF7FEFF 		bl	strlen
 1432 00bc 3118     		adds	r1, r6, r0
 1433 00be 0131     		adds	r1, r1, #1
 1434 00c0 3846     		mov	r0, r7
 1435 00c2 FFF7FEFF 		bl	lv_mem_realloc
 1436 00c6 E862     		str	r0, [r5, #44]
 1437 00c8 38B1     		cbz	r0, .L185
 1438 00ca 696C     		ldr	r1, [r5, #68]
 1439 00cc 2246     		mov	r2, r4
ARM GAS  /var/folders/lp/x54gwt890xv47sdkqj1k04q40000gn/T//ccJoQ5RK.s 			page 25


 1440 00ce FFF7FEFF 		bl	_lv_txt_ins
 1441 00d2 2846     		mov	r0, r5
 1442 00d4 FFF7FEFF 		bl	auto_hide_characters
 1443 00d8 D1E7     		b	.L183
 1444              	.L185:
 1445 00da FEE7     		b	.L185
 1446              	.L195:
 1447 00dc 2846     		mov	r0, r5
 1448 00de FFF7FEFF 		bl	lv_obj_invalidate
 1449 00e2 C0E7     		b	.L198
 1450              	.L203:
 1451              		.align	2
 1452              	.L202:
 1453 00e4 00000000 		.word	_lv_txt_encoded_next
 1454 00e8 00000000 		.word	_lv_txt_unicode_to_encoded
 1455 00ec 00000000 		.word	_lv_txt_get_encoded_length
 1457              		.section	.text.insert_handler,"ax",%progbits
 1458              		.align	1
 1459              		.p2align 2,,3
 1460              		.syntax unified
 1461              		.thumb
 1462              		.thumb_func
 1464              	insert_handler:
 1465              		@ args = 0, pretend = 0, frame = 0
 1466              		@ frame_needed = 0, uses_anonymous_args = 0
 1467 0000 70B5     		push	{r4, r5, r6, lr}
 1468 0002 0D4D     		ldr	r5, .L214
 1469 0004 0023     		movs	r3, #0
 1470 0006 0A46     		mov	r2, r1
 1471 0008 0C46     		mov	r4, r1
 1472 000a 1D21     		movs	r1, #29
 1473 000c 2B60     		str	r3, [r5]
 1474 000e 0646     		mov	r6, r0
 1475 0010 FFF7FEFF 		bl	lv_event_send
 1476 0014 2D68     		ldr	r5, [r5]
 1477 0016 35B1     		cbz	r5, .L208
 1478 0018 2B78     		ldrb	r3, [r5]	@ zero_extendqisi2
 1479 001a 53B1     		cbz	r3, .L206
 1480 001c 2146     		mov	r1, r4
 1481 001e 2846     		mov	r0, r5
 1482 0020 FFF7FEFF 		bl	strcmp
 1483 0024 08B9     		cbnz	r0, .L213
 1484              	.L208:
 1485 0026 0120     		movs	r0, #1
 1486 0028 70BD     		pop	{r4, r5, r6, pc}
 1487              	.L213:
 1488 002a 2946     		mov	r1, r5
 1489 002c 3046     		mov	r0, r6
 1490 002e FFF7FEFF 		bl	lv_textarea_add_text
 1491              	.L206:
 1492 0032 0020     		movs	r0, #0
 1493 0034 70BD     		pop	{r4, r5, r6, pc}
 1494              	.L215:
 1495 0036 00BF     		.align	2
 1496              	.L214:
 1497 0038 00000000 		.word	ta_insert_replace
 1499              		.section	.text.lv_textarea_add_char,"ax",%progbits
ARM GAS  /var/folders/lp/x54gwt890xv47sdkqj1k04q40000gn/T//ccJoQ5RK.s 			page 26


 1500              		.align	1
 1501              		.p2align 2,,3
 1502              		.global	lv_textarea_add_char
 1503              		.syntax unified
 1504              		.thumb
 1505              		.thumb_func
 1507              	lv_textarea_add_char:
 1508              		@ args = 0, pretend = 0, frame = 24
 1509              		@ frame_needed = 0, uses_anonymous_args = 0
 1510 0000 F0B5     		push	{r4, r5, r6, r7, lr}
 1511 0002 90F86020 		ldrb	r2, [r0, #96]	@ zero_extendqisi2
 1512 0006 87B0     		sub	sp, sp, #28
 1513 0008 0446     		mov	r4, r0
 1514 000a 1007     		lsls	r0, r2, #28
 1515 000c 0191     		str	r1, [sp, #4]
 1516 000e 0B46     		mov	r3, r1
 1517 0010 03D5     		bpl	.L217
 1518 0012 0A29     		cmp	r1, #10
 1519 0014 24D0     		beq	.L216
 1520 0016 0D29     		cmp	r1, #13
 1521 0018 22D0     		beq	.L216
 1522              	.L217:
 1523 001a 0025     		movs	r5, #0
 1524 001c 04A9     		add	r1, sp, #16
 1525 001e 2046     		mov	r0, r4
 1526 0020 CDE90435 		strd	r3, r5, [sp, #16]
 1527 0024 FFF7FEFF 		bl	insert_handler
 1528 0028 0128     		cmp	r0, #1
 1529 002a 19D1     		bne	.L216
 1530 002c 374E     		ldr	r6, .L266
 1531 002e 2946     		mov	r1, r5
 1532 0030 3368     		ldr	r3, [r6]
 1533 0032 01A8     		add	r0, sp, #4
 1534 0034 9847     		blx	r3
 1535 0036 A36B     		ldr	r3, [r4, #56]
 1536 0038 0546     		mov	r5, r0
 1537 003a 002B     		cmp	r3, #0
 1538 003c 51D1     		bne	.L263
 1539              	.L219:
 1540 003e 606B     		ldr	r0, [r4, #52]
 1541 0040 80B1     		cbz	r0, .L223
 1542 0042 0378     		ldrb	r3, [r0]	@ zero_extendqisi2
 1543 0044 73B1     		cbz	r3, .L223
 1544 0046 0023     		movs	r3, #0
 1545 0048 0393     		str	r3, [sp, #12]
 1546 004a 05E0     		b	.L224
 1547              	.L225:
 1548 004c 3368     		ldr	r3, [r6]
 1549 004e 9847     		blx	r3
 1550 0050 8542     		cmp	r5, r0
 1551 0052 07D0     		beq	.L223
 1552 0054 606B     		ldr	r0, [r4, #52]
 1553 0056 039B     		ldr	r3, [sp, #12]
 1554              	.L224:
 1555 0058 C35C     		ldrb	r3, [r0, r3]	@ zero_extendqisi2
 1556 005a 03A9     		add	r1, sp, #12
 1557 005c 002B     		cmp	r3, #0
ARM GAS  /var/folders/lp/x54gwt890xv47sdkqj1k04q40000gn/T//ccJoQ5RK.s 			page 27


 1558 005e F5D1     		bne	.L225
 1559              	.L216:
 1560 0060 07B0     		add	sp, sp, #28
 1561              		@ sp needed
 1562 0062 F0BD     		pop	{r4, r5, r6, r7, pc}
 1563              	.L223:
 1564 0064 94F86030 		ldrb	r3, [r4, #96]	@ zero_extendqisi2
 1565 0068 5A07     		lsls	r2, r3, #29
 1566 006a 36D4     		bmi	.L264
 1567              	.L227:
 1568 006c D4E90903 		ldrd	r0, r3, [r4, #36]
 1569 0070 2BB1     		cbz	r3, .L229
 1570 0072 FFF7FEFF 		bl	lv_label_get_text
 1571 0076 0378     		ldrb	r3, [r0]	@ zero_extendqisi2
 1572 0078 002B     		cmp	r3, #0
 1573 007a 3ED0     		beq	.L260
 1574              	.L262:
 1575 007c 606A     		ldr	r0, [r4, #36]
 1576              	.L229:
 1577 007e 616C     		ldr	r1, [r4, #68]
 1578 0080 04AA     		add	r2, sp, #16
 1579 0082 FFF7FEFF 		bl	lv_label_ins_text
 1580 0086 2046     		mov	r0, r4
 1581 0088 FFF7FEFF 		bl	lv_textarea_clear_selection
 1582 008c 94F86030 		ldrb	r3, [r4, #96]	@ zero_extendqisi2
 1583 0090 5B07     		lsls	r3, r3, #29
 1584 0092 15D5     		bpl	.L231
 1585 0094 E66A     		ldr	r6, [r4, #44]
 1586 0096 3046     		mov	r0, r6
 1587 0098 FFF7FEFF 		bl	strlen
 1588 009c 0546     		mov	r5, r0
 1589 009e 04A8     		add	r0, sp, #16
 1590 00a0 FFF7FEFF 		bl	strlen
 1591 00a4 2918     		adds	r1, r5, r0
 1592 00a6 0131     		adds	r1, r1, #1
 1593 00a8 3046     		mov	r0, r6
 1594 00aa FFF7FEFF 		bl	lv_mem_realloc
 1595 00ae E062     		str	r0, [r4, #44]
 1596 00b0 90B1     		cbz	r0, .L233
 1597 00b2 616C     		ldr	r1, [r4, #68]
 1598 00b4 04AA     		add	r2, sp, #16
 1599 00b6 FFF7FEFF 		bl	_lv_txt_ins
 1600 00ba 2046     		mov	r0, r4
 1601 00bc FFF7FEFF 		bl	auto_hide_characters
 1602              	.L231:
 1603 00c0 616C     		ldr	r1, [r4, #68]
 1604 00c2 2046     		mov	r0, r4
 1605 00c4 0131     		adds	r1, r1, #1
 1606 00c6 FFF7FEFF 		bl	lv_textarea_set_cursor_pos
 1607 00ca 0022     		movs	r2, #0
 1608 00cc 1C21     		movs	r1, #28
 1609 00ce 2046     		mov	r0, r4
 1610 00d0 FFF7FEFF 		bl	lv_event_send
 1611 00d4 07B0     		add	sp, sp, #28
 1612              		@ sp needed
 1613 00d6 F0BD     		pop	{r4, r5, r6, r7, pc}
 1614              	.L233:
ARM GAS  /var/folders/lp/x54gwt890xv47sdkqj1k04q40000gn/T//ccJoQ5RK.s 			page 28


 1615 00d8 FEE7     		b	.L233
 1616              	.L264:
 1617 00da 2046     		mov	r0, r4
 1618 00dc FFF7FEFF 		bl	pwd_char_hider.part.0
 1619 00e0 C4E7     		b	.L227
 1620              	.L263:
 1621 00e2 0B4B     		ldr	r3, .L266+4
 1622 00e4 1F68     		ldr	r7, [r3]
 1623 00e6 94F86030 		ldrb	r3, [r4, #96]	@ zero_extendqisi2
 1624 00ea 5907     		lsls	r1, r3, #29
 1625 00ec 09D5     		bpl	.L265
 1626 00ee E06A     		ldr	r0, [r4, #44]
 1627              	.L221:
 1628 00f0 B847     		blx	r7
 1629 00f2 A36B     		ldr	r3, [r4, #56]
 1630 00f4 9842     		cmp	r0, r3
 1631 00f6 A2D3     		bcc	.L219
 1632 00f8 B2E7     		b	.L216
 1633              	.L260:
 1634 00fa 2046     		mov	r0, r4
 1635 00fc FFF7FEFF 		bl	lv_obj_invalidate
 1636 0100 BCE7     		b	.L262
 1637              	.L265:
 1638 0102 606A     		ldr	r0, [r4, #36]
 1639 0104 FFF7FEFF 		bl	lv_label_get_text
 1640 0108 F2E7     		b	.L221
 1641              	.L267:
 1642 010a 00BF     		.align	2
 1643              	.L266:
 1644 010c 00000000 		.word	_lv_txt_encoded_next
 1645 0110 00000000 		.word	_lv_txt_get_encoded_length
 1647              		.section	.text.lv_textarea_del_char,"ax",%progbits
 1648              		.align	1
 1649              		.p2align 2,,3
 1650              		.global	lv_textarea_del_char
 1651              		.syntax unified
 1652              		.thumb
 1653              		.thumb_func
 1655              	lv_textarea_del_char:
 1656              		@ args = 0, pretend = 0, frame = 8
 1657              		@ frame_needed = 0, uses_anonymous_args = 0
 1658 0000 436C     		ldr	r3, [r0, #68]
 1659 0002 03B9     		cbnz	r3, .L288
 1660 0004 7047     		bx	lr
 1661              	.L288:
 1662 0006 70B5     		push	{r4, r5, r6, lr}
 1663 0008 82B0     		sub	sp, sp, #8
 1664 000a 7F23     		movs	r3, #127
 1665 000c 01A9     		add	r1, sp, #4
 1666 000e 0446     		mov	r4, r0
 1667 0010 ADF80430 		strh	r3, [sp, #4]	@ movhi
 1668 0014 FFF7FEFF 		bl	insert_handler
 1669 0018 0128     		cmp	r0, #1
 1670 001a 0546     		mov	r5, r0
 1671 001c 01D0     		beq	.L289
 1672 001e 02B0     		add	sp, sp, #8
 1673              		@ sp needed
ARM GAS  /var/folders/lp/x54gwt890xv47sdkqj1k04q40000gn/T//ccJoQ5RK.s 			page 29


 1674 0020 70BD     		pop	{r4, r5, r6, pc}
 1675              	.L289:
 1676 0022 606A     		ldr	r0, [r4, #36]
 1677 0024 FFF7FEFF 		bl	lv_label_get_text
 1678 0028 616C     		ldr	r1, [r4, #68]
 1679 002a 0646     		mov	r6, r0
 1680 002c 2A46     		mov	r2, r5
 1681 002e 0139     		subs	r1, r1, #1
 1682 0030 FFF7FEFF 		bl	_lv_txt_cut
 1683 0034 606A     		ldr	r0, [r4, #36]
 1684 0036 3146     		mov	r1, r6
 1685 0038 FFF7FEFF 		bl	lv_label_set_text
 1686 003c 2046     		mov	r0, r4
 1687 003e FFF7FEFF 		bl	lv_textarea_clear_selection
 1688 0042 A36A     		ldr	r3, [r4, #40]
 1689 0044 23B1     		cbz	r3, .L271
 1690 0046 606A     		ldr	r0, [r4, #36]
 1691 0048 FFF7FEFF 		bl	lv_label_get_text
 1692 004c 0378     		ldrb	r3, [r0]	@ zero_extendqisi2
 1693 004e 03B3     		cbz	r3, .L290
 1694              	.L271:
 1695 0050 94F86030 		ldrb	r3, [r4, #96]	@ zero_extendqisi2
 1696 0054 616C     		ldr	r1, [r4, #68]
 1697 0056 5B07     		lsls	r3, r3, #29
 1698 0058 0FD5     		bpl	.L273
 1699 005a 0139     		subs	r1, r1, #1
 1700 005c E06A     		ldr	r0, [r4, #44]
 1701 005e 0122     		movs	r2, #1
 1702 0060 FFF7FEFF 		bl	_lv_txt_cut
 1703 0064 E56A     		ldr	r5, [r4, #44]
 1704 0066 2846     		mov	r0, r5
 1705 0068 FFF7FEFF 		bl	strlen
 1706 006c 411C     		adds	r1, r0, #1
 1707 006e 2846     		mov	r0, r5
 1708 0070 FFF7FEFF 		bl	lv_mem_realloc
 1709 0074 60B1     		cbz	r0, .L274
 1710 0076 616C     		ldr	r1, [r4, #68]
 1711 0078 E062     		str	r0, [r4, #44]
 1712              	.L273:
 1713 007a 2046     		mov	r0, r4
 1714 007c 0139     		subs	r1, r1, #1
 1715 007e FFF7FEFF 		bl	lv_textarea_set_cursor_pos
 1716 0082 0022     		movs	r2, #0
 1717 0084 1C21     		movs	r1, #28
 1718 0086 2046     		mov	r0, r4
 1719 0088 FFF7FEFF 		bl	lv_event_send
 1720 008c 02B0     		add	sp, sp, #8
 1721              		@ sp needed
 1722 008e 70BD     		pop	{r4, r5, r6, pc}
 1723              	.L274:
 1724 0090 FEE7     		b	.L274
 1725              	.L290:
 1726 0092 2046     		mov	r0, r4
 1727 0094 FFF7FEFF 		bl	lv_obj_invalidate
 1728 0098 DAE7     		b	.L271
 1730 009a 00BF     		.section	.text.lv_textarea_del_char_forward,"ax",%progbits
 1731              		.align	1
ARM GAS  /var/folders/lp/x54gwt890xv47sdkqj1k04q40000gn/T//ccJoQ5RK.s 			page 30


 1732              		.p2align 2,,3
 1733              		.global	lv_textarea_del_char_forward
 1734              		.syntax unified
 1735              		.thumb
 1736              		.thumb_func
 1738              	lv_textarea_del_char_forward:
 1739              		@ args = 0, pretend = 0, frame = 0
 1740              		@ frame_needed = 0, uses_anonymous_args = 0
 1741 0000 38B5     		push	{r3, r4, r5, lr}
 1742 0002 456C     		ldr	r5, [r0, #68]
 1743 0004 0446     		mov	r4, r0
 1744 0006 691C     		adds	r1, r5, #1
 1745 0008 FFF7FEFF 		bl	lv_textarea_set_cursor_pos
 1746 000c 636C     		ldr	r3, [r4, #68]
 1747 000e 9D42     		cmp	r5, r3
 1748 0010 00D1     		bne	.L294
 1749 0012 38BD     		pop	{r3, r4, r5, pc}
 1750              	.L294:
 1751 0014 2046     		mov	r0, r4
 1752 0016 BDE83840 		pop	{r3, r4, r5, lr}
 1753 001a FFF7FEBF 		b	lv_textarea_del_char
 1755 001e 00BF     		.section	.text.lv_textarea_set_text,"ax",%progbits
 1756              		.align	1
 1757              		.p2align 2,,3
 1758              		.global	lv_textarea_set_text
 1759              		.syntax unified
 1760              		.thumb
 1761              		.thumb_func
 1763              	lv_textarea_set_text:
 1764              		@ args = 0, pretend = 0, frame = 8
 1765              		@ frame_needed = 0, uses_anonymous_args = 0
 1766 0000 0029     		cmp	r1, #0
 1767 0002 4ED0     		beq	.L297
 1768 0004 F0B5     		push	{r4, r5, r6, r7, lr}
 1769 0006 0546     		mov	r5, r0
 1770 0008 83B0     		sub	sp, sp, #12
 1771 000a 0C46     		mov	r4, r1
 1772 000c FFF7FEFF 		bl	lv_textarea_clear_selection
 1773 0010 6B6B     		ldr	r3, [r5, #52]
 1774 0012 002B     		cmp	r3, #0
 1775 0014 46D0     		beq	.L320
 1776              	.L298:
 1777 0016 2C49     		ldr	r1, .L322
 1778 0018 686A     		ldr	r0, [r5, #36]
 1779 001a FFF7FEFF 		bl	lv_label_set_text
 1780 001e 47F6FF71 		movw	r1, #32767
 1781 0022 2846     		mov	r0, r5
 1782 0024 FFF7FEFF 		bl	lv_textarea_set_cursor_pos
 1783 0028 95F86030 		ldrb	r3, [r5, #96]	@ zero_extendqisi2
 1784 002c 5A07     		lsls	r2, r3, #29
 1785 002e 02D5     		bpl	.L300
 1786 0030 EB6A     		ldr	r3, [r5, #44]
 1787 0032 0022     		movs	r2, #0
 1788 0034 1A70     		strb	r2, [r3]
 1789              	.L300:
 1790 0036 2378     		ldrb	r3, [r4]	@ zero_extendqisi2
 1791 0038 0022     		movs	r2, #0
ARM GAS  /var/folders/lp/x54gwt890xv47sdkqj1k04q40000gn/T//ccJoQ5RK.s 			page 31


 1792 003a 0192     		str	r2, [sp, #4]
 1793 003c 7BB1     		cbz	r3, .L302
 1794 003e 234F     		ldr	r7, .L322+4
 1795 0040 234E     		ldr	r6, .L322+8
 1796              	.L301:
 1797 0042 3B68     		ldr	r3, [r7]
 1798 0044 01A9     		add	r1, sp, #4
 1799 0046 2046     		mov	r0, r4
 1800 0048 9847     		blx	r3
 1801 004a 3368     		ldr	r3, [r6]
 1802 004c 9847     		blx	r3
 1803 004e 0146     		mov	r1, r0
 1804 0050 2846     		mov	r0, r5
 1805 0052 FFF7FEFF 		bl	lv_textarea_add_char
 1806 0056 019B     		ldr	r3, [sp, #4]
 1807 0058 E35C     		ldrb	r3, [r4, r3]	@ zero_extendqisi2
 1808 005a 002B     		cmp	r3, #0
 1809 005c F1D1     		bne	.L301
 1810              	.L302:
 1811 005e AB6A     		ldr	r3, [r5, #40]
 1812 0060 23B1     		cbz	r3, .L305
 1813 0062 686A     		ldr	r0, [r5, #36]
 1814 0064 FFF7FEFF 		bl	lv_label_get_text
 1815 0068 0378     		ldrb	r3, [r0]	@ zero_extendqisi2
 1816 006a 4BB3     		cbz	r3, .L321
 1817              	.L305:
 1818 006c 95F86030 		ldrb	r3, [r5, #96]	@ zero_extendqisi2
 1819 0070 5B07     		lsls	r3, r3, #29
 1820 0072 0ED5     		bpl	.L307
 1821 0074 2046     		mov	r0, r4
 1822 0076 FFF7FEFF 		bl	strlen
 1823 007a 411C     		adds	r1, r0, #1
 1824 007c E86A     		ldr	r0, [r5, #44]
 1825 007e FFF7FEFF 		bl	lv_mem_realloc
 1826 0082 E862     		str	r0, [r5, #44]
 1827 0084 D8B1     		cbz	r0, .L309
 1828 0086 2146     		mov	r1, r4
 1829 0088 FFF7FEFF 		bl	strcpy
 1830 008c 2846     		mov	r0, r5
 1831 008e FFF7FEFF 		bl	auto_hide_characters
 1832              	.L307:
 1833 0092 0022     		movs	r2, #0
 1834 0094 1C21     		movs	r1, #28
 1835 0096 2846     		mov	r0, r5
 1836 0098 03B0     		add	sp, sp, #12
 1837              		@ sp needed
 1838 009a BDE8F040 		pop	{r4, r5, r6, r7, lr}
 1839 009e FFF7FEBF 		b	lv_event_send
 1840              	.L297:
 1841 00a2 FEE7     		b	.L297
 1842              	.L320:
 1843 00a4 AB6B     		ldr	r3, [r5, #56]
 1844 00a6 002B     		cmp	r3, #0
 1845 00a8 B5D1     		bne	.L298
 1846 00aa 686A     		ldr	r0, [r5, #36]
 1847 00ac 2146     		mov	r1, r4
 1848 00ae FFF7FEFF 		bl	lv_label_set_text
ARM GAS  /var/folders/lp/x54gwt890xv47sdkqj1k04q40000gn/T//ccJoQ5RK.s 			page 32


 1849 00b2 47F6FF71 		movw	r1, #32767
 1850 00b6 2846     		mov	r0, r5
 1851 00b8 FFF7FEFF 		bl	lv_textarea_set_cursor_pos
 1852 00bc CFE7     		b	.L302
 1853              	.L309:
 1854 00be FEE7     		b	.L309
 1855              	.L321:
 1856 00c0 2846     		mov	r0, r5
 1857 00c2 FFF7FEFF 		bl	lv_obj_invalidate
 1858 00c6 D1E7     		b	.L305
 1859              	.L323:
 1860              		.align	2
 1861              	.L322:
 1862 00c8 00000000 		.word	.LC2
 1863 00cc 00000000 		.word	_lv_txt_encoded_next
 1864 00d0 00000000 		.word	_lv_txt_unicode_to_encoded
 1866              		.section	.text.lv_textarea_set_password_mode,"ax",%progbits
 1867              		.align	1
 1868              		.p2align 2,,3
 1869              		.global	lv_textarea_set_password_mode
 1870              		.syntax unified
 1871              		.thumb
 1872              		.thumb_func
 1874              	lv_textarea_set_password_mode:
 1875              		@ args = 0, pretend = 0, frame = 0
 1876              		@ frame_needed = 0, uses_anonymous_args = 0
 1877 0000 38B5     		push	{r3, r4, r5, lr}
 1878 0002 90F86030 		ldrb	r3, [r0, #96]	@ zero_extendqisi2
 1879 0006 C3F38002 		ubfx	r2, r3, #2, #1
 1880 000a 8A42     		cmp	r2, r1
 1881 000c 30D0     		beq	.L324
 1882 000e 61F38203 		bfi	r3, r1, #2, #1
 1883 0012 0446     		mov	r4, r0
 1884 0014 0D46     		mov	r5, r1
 1885 0016 80F86030 		strb	r3, [r0, #96]
 1886 001a C9B1     		cbz	r1, .L326
 1887 001c 406A     		ldr	r0, [r0, #36]
 1888 001e FFF7FEFF 		bl	lv_label_get_text
 1889 0022 0546     		mov	r5, r0
 1890 0024 FFF7FEFF 		bl	strlen
 1891 0028 0130     		adds	r0, r0, #1
 1892 002a FFF7FEFF 		bl	lv_mem_alloc
 1893 002e E062     		str	r0, [r4, #44]
 1894 0030 E8B1     		cbz	r0, .L328
 1895 0032 2946     		mov	r1, r5
 1896 0034 FFF7FEFF 		bl	strcpy
 1897 0038 94F86030 		ldrb	r3, [r4, #96]	@ zero_extendqisi2
 1898 003c 5B07     		lsls	r3, r3, #29
 1899 003e 18D4     		bmi	.L335
 1900 0040 2046     		mov	r0, r4
 1901 0042 FFF7FEFF 		bl	lv_textarea_clear_selection
 1902              	.L336:
 1903 0046 2046     		mov	r0, r4
 1904 0048 BDE83840 		pop	{r3, r4, r5, lr}
 1905 004c FFF7FEBF 		b	refr_cursor_area
 1906              	.L326:
 1907 0050 FFF7FEFF 		bl	lv_textarea_clear_selection
ARM GAS  /var/folders/lp/x54gwt890xv47sdkqj1k04q40000gn/T//ccJoQ5RK.s 			page 33


 1908 0054 E16A     		ldr	r1, [r4, #44]
 1909 0056 606A     		ldr	r0, [r4, #36]
 1910 0058 FFF7FEFF 		bl	lv_label_set_text
 1911 005c E06A     		ldr	r0, [r4, #44]
 1912 005e FFF7FEFF 		bl	lv_mem_free
 1913 0062 E562     		str	r5, [r4, #44]
 1914 0064 2046     		mov	r0, r4
 1915 0066 BDE83840 		pop	{r3, r4, r5, lr}
 1916 006a FFF7FEBF 		b	refr_cursor_area
 1917              	.L328:
 1918 006e FEE7     		b	.L328
 1919              	.L324:
 1920 0070 38BD     		pop	{r3, r4, r5, pc}
 1921              	.L335:
 1922 0072 2046     		mov	r0, r4
 1923 0074 FFF7FEFF 		bl	pwd_char_hider.part.0
 1924 0078 2046     		mov	r0, r4
 1925 007a FFF7FEFF 		bl	lv_textarea_clear_selection
 1926 007e E2E7     		b	.L336
 1928              		.section	.text.lv_textarea_set_text_selection,"ax",%progbits
 1929              		.align	1
 1930              		.p2align 2,,3
 1931              		.global	lv_textarea_set_text_selection
 1932              		.syntax unified
 1933              		.thumb
 1934              		.thumb_func
 1936              	lv_textarea_set_text_selection:
 1937              		@ args = 0, pretend = 0, frame = 0
 1938              		@ frame_needed = 0, uses_anonymous_args = 0
 1939              		@ link register save eliminated.
 1940 0000 90F86020 		ldrb	r2, [r0, #96]	@ zero_extendqisi2
 1941 0004 61F34102 		bfi	r2, r1, #1, #1
 1942 0008 80F86020 		strb	r2, [r0, #96]
 1943 000c 01B1     		cbz	r1, .L339
 1944 000e 7047     		bx	lr
 1945              	.L339:
 1946 0010 FFF7FEBF 		b	lv_textarea_clear_selection
 1948              		.section	.text.lv_textarea_cursor_right,"ax",%progbits
 1949              		.align	1
 1950              		.p2align 2,,3
 1951              		.global	lv_textarea_cursor_right
 1952              		.syntax unified
 1953              		.thumb
 1954              		.thumb_func
 1956              	lv_textarea_cursor_right:
 1957              		@ args = 0, pretend = 0, frame = 0
 1958              		@ frame_needed = 0, uses_anonymous_args = 0
 1959              		@ link register save eliminated.
 1960 0000 416C     		ldr	r1, [r0, #68]
 1961 0002 0131     		adds	r1, r1, #1
 1962 0004 FFF7FEBF 		b	lv_textarea_set_cursor_pos
 1964              		.section	.text.lv_textarea_cursor_left,"ax",%progbits
 1965              		.align	1
 1966              		.p2align 2,,3
 1967              		.global	lv_textarea_cursor_left
 1968              		.syntax unified
 1969              		.thumb
ARM GAS  /var/folders/lp/x54gwt890xv47sdkqj1k04q40000gn/T//ccJoQ5RK.s 			page 34


 1970              		.thumb_func
 1972              	lv_textarea_cursor_left:
 1973              		@ args = 0, pretend = 0, frame = 0
 1974              		@ frame_needed = 0, uses_anonymous_args = 0
 1975              		@ link register save eliminated.
 1976 0000 416C     		ldr	r1, [r0, #68]
 1977 0002 01B9     		cbnz	r1, .L343
 1978 0004 7047     		bx	lr
 1979              	.L343:
 1980 0006 0139     		subs	r1, r1, #1
 1981 0008 FFF7FEBF 		b	lv_textarea_set_cursor_pos
 1983              		.section	.text.lv_textarea_cursor_down,"ax",%progbits
 1984              		.align	1
 1985              		.p2align 2,,3
 1986              		.global	lv_textarea_cursor_down
 1987              		.syntax unified
 1988              		.thumb
 1989              		.thumb_func
 1991              	lv_textarea_cursor_down:
 1992              		@ args = 0, pretend = 0, frame = 8
 1993              		@ frame_needed = 0, uses_anonymous_args = 0
 1994 0000 30B5     		push	{r4, r5, lr}
 1995 0002 83B0     		sub	sp, sp, #12
 1996 0004 0546     		mov	r5, r0
 1997 0006 416C     		ldr	r1, [r0, #68]
 1998 0008 406A     		ldr	r0, [r0, #36]
 1999 000a 01AA     		add	r2, sp, #4
 2000 000c FFF7FEFF 		bl	lv_label_get_letter_pos
 2001 0010 5922     		movs	r2, #89
 2002 0012 0021     		movs	r1, #0
 2003 0014 2846     		mov	r0, r5
 2004 0016 FFF7FEFF 		bl	lv_obj_get_style_prop
 2005 001a 5722     		movs	r2, #87
 2006 001c 0021     		movs	r1, #0
 2007 001e 0446     		mov	r4, r0
 2008 0020 2846     		mov	r0, r5
 2009 0022 FFF7FEFF 		bl	lv_obj_get_style_prop
 2010 0026 BDF80620 		ldrh	r2, [sp, #6]
 2011 002a 0389     		ldrh	r3, [r0, #8]
 2012 002c 686A     		ldr	r0, [r5, #36]
 2013 002e 1444     		add	r4, r4, r2
 2014 0030 0134     		adds	r4, r4, #1
 2015 0032 1C44     		add	r4, r4, r3
 2016 0034 24B2     		sxth	r4, r4
 2017 0036 B5F84030 		ldrh	r3, [r5, #64]
 2018 003a ADF80640 		strh	r4, [sp, #6]	@ movhi
 2019 003e ADF80430 		strh	r3, [sp, #4]	@ movhi
 2020 0042 FFF7FEFF 		bl	lv_obj_get_height
 2021 0046 8442     		cmp	r4, r0
 2022 0048 01DB     		blt	.L347
 2023 004a 03B0     		add	sp, sp, #12
 2024              		@ sp needed
 2025 004c 30BD     		pop	{r4, r5, pc}
 2026              	.L347:
 2027 004e 01A9     		add	r1, sp, #4
 2028 0050 686A     		ldr	r0, [r5, #36]
 2029 0052 FFF7FEFF 		bl	lv_label_get_letter_on
ARM GAS  /var/folders/lp/x54gwt890xv47sdkqj1k04q40000gn/T//ccJoQ5RK.s 			page 35


 2030 0056 0146     		mov	r1, r0
 2031 0058 2846     		mov	r0, r5
 2032 005a B5F94040 		ldrsh	r4, [r5, #64]
 2033 005e FFF7FEFF 		bl	lv_textarea_set_cursor_pos
 2034 0062 A5F84040 		strh	r4, [r5, #64]	@ movhi
 2035 0066 03B0     		add	sp, sp, #12
 2036              		@ sp needed
 2037 0068 30BD     		pop	{r4, r5, pc}
 2039 006a 00BF     		.section	.text.lv_textarea_cursor_up,"ax",%progbits
 2040              		.align	1
 2041              		.p2align 2,,3
 2042              		.global	lv_textarea_cursor_up
 2043              		.syntax unified
 2044              		.thumb
 2045              		.thumb_func
 2047              	lv_textarea_cursor_up:
 2048              		@ args = 0, pretend = 0, frame = 8
 2049              		@ frame_needed = 0, uses_anonymous_args = 0
 2050 0000 30B5     		push	{r4, r5, lr}
 2051 0002 83B0     		sub	sp, sp, #12
 2052 0004 0446     		mov	r4, r0
 2053 0006 416C     		ldr	r1, [r0, #68]
 2054 0008 406A     		ldr	r0, [r0, #36]
 2055 000a 01AA     		add	r2, sp, #4
 2056 000c FFF7FEFF 		bl	lv_label_get_letter_pos
 2057 0010 5922     		movs	r2, #89
 2058 0012 0021     		movs	r1, #0
 2059 0014 2046     		mov	r0, r4
 2060 0016 FFF7FEFF 		bl	lv_obj_get_style_prop
 2061 001a 5722     		movs	r2, #87
 2062 001c 0546     		mov	r5, r0
 2063 001e 0021     		movs	r1, #0
 2064 0020 2046     		mov	r0, r4
 2065 0022 FFF7FEFF 		bl	lv_obj_get_style_prop
 2066 0026 BDF80630 		ldrh	r3, [sp, #6]
 2067 002a 0289     		ldrh	r2, [r0, #8]
 2068 002c 0133     		adds	r3, r3, #1
 2069 002e 581B     		subs	r0, r3, r5
 2070 0030 801A     		subs	r0, r0, r2
 2071 0032 B4F84030 		ldrh	r3, [r4, #64]
 2072 0036 ADF80600 		strh	r0, [sp, #6]	@ movhi
 2073 003a 01A9     		add	r1, sp, #4
 2074 003c 606A     		ldr	r0, [r4, #36]
 2075 003e ADF80430 		strh	r3, [sp, #4]	@ movhi
 2076 0042 FFF7FEFF 		bl	lv_label_get_letter_on
 2077 0046 0146     		mov	r1, r0
 2078 0048 2046     		mov	r0, r4
 2079 004a B4F94050 		ldrsh	r5, [r4, #64]
 2080 004e FFF7FEFF 		bl	lv_textarea_set_cursor_pos
 2081 0052 A4F84050 		strh	r5, [r4, #64]	@ movhi
 2082 0056 03B0     		add	sp, sp, #12
 2083              		@ sp needed
 2084 0058 30BD     		pop	{r4, r5, pc}
 2086 005a 00BF     		.section	.text.lv_textarea_event,"ax",%progbits
 2087              		.align	1
 2088              		.p2align 2,,3
 2089              		.syntax unified
ARM GAS  /var/folders/lp/x54gwt890xv47sdkqj1k04q40000gn/T//ccJoQ5RK.s 			page 36


 2090              		.thumb
 2091              		.thumb_func
 2093              	lv_textarea_event:
 2094              		@ args = 0, pretend = 0, frame = 104
 2095              		@ frame_needed = 0, uses_anonymous_args = 0
 2096 0000 2DE9F043 		push	{r4, r5, r6, r7, r8, r9, lr}
 2097 0004 AD48     		ldr	r0, .L447
 2098 0006 9DB0     		sub	sp, sp, #116
 2099 0008 0D46     		mov	r5, r1
 2100 000a FFF7FEFF 		bl	lv_obj_event_base
 2101 000e 0128     		cmp	r0, #1
 2102 0010 02D0     		beq	.L444
 2103              	.L350:
 2104 0012 1DB0     		add	sp, sp, #116
 2105              		@ sp needed
 2106 0014 BDE8F083 		pop	{r4, r5, r6, r7, r8, r9, pc}
 2107              	.L444:
 2108 0018 2846     		mov	r0, r5
 2109 001a FFF7FEFF 		bl	lv_event_get_code
 2110 001e 0446     		mov	r4, r0
 2111 0020 2846     		mov	r0, r5
 2112 0022 FFF7FEFF 		bl	lv_event_get_target
 2113 0026 631E     		subs	r3, r4, #1
 2114 0028 0646     		mov	r6, r0
 2115 002a 172B     		cmp	r3, #23
 2116 002c F1D8     		bhi	.L350
 2117 002e 01A2     		adr	r2, .L354
 2118 0030 52F823F0 		ldr	pc, [r2, r3, lsl #2]
 2119              		.p2align 2
 2120              	.L354:
 2121 0034 95000000 		.word	.L358+1
 2122 0038 95000000 		.word	.L358+1
 2123 003c 95000000 		.word	.L358+1
 2124 0040 13000000 		.word	.L350+1
 2125 0044 13000000 		.word	.L350+1
 2126 0048 13000000 		.word	.L350+1
 2127 004c 13000000 		.word	.L350+1
 2128 0050 95000000 		.word	.L358+1
 2129 0054 13000000 		.word	.L350+1
 2130 0058 13000000 		.word	.L350+1
 2131 005c 13000000 		.word	.L350+1
 2132 0060 13000000 		.word	.L350+1
 2133 0064 6F030000 		.word	.L357+1
 2134 0068 65030000 		.word	.L356+1
 2135 006c 13000000 		.word	.L350+1
 2136 0070 13000000 		.word	.L350+1
 2137 0074 13000000 		.word	.L350+1
 2138 0078 13000000 		.word	.L350+1
 2139 007c 13000000 		.word	.L350+1
 2140 0080 13000000 		.word	.L350+1
 2141 0084 C5020000 		.word	.L355+1
 2142 0088 13000000 		.word	.L350+1
 2143 008c 13000000 		.word	.L350+1
 2144 0090 A9010000 		.word	.L353+1
 2145              		.p2align 1
 2146              	.L358:
 2147 0094 FFF7FEFF 		bl	lv_indev_get_act
ARM GAS  /var/folders/lp/x54gwt890xv47sdkqj1k04q40000gn/T//ccJoQ5RK.s 			page 37


 2148 0098 0446     		mov	r4, r0
 2149 009a 0028     		cmp	r0, #0
 2150 009c B9D0     		beq	.L350
 2151 009e 2846     		mov	r0, r5
 2152 00a0 FFF7FEFF 		bl	lv_event_get_target
 2153 00a4 90F85430 		ldrb	r3, [r0, #84]	@ zero_extendqisi2
 2154 00a8 9F07     		lsls	r7, r3, #30
 2155 00aa 0646     		mov	r6, r0
 2156 00ac B1D5     		bpl	.L350
 2157 00ae 2046     		mov	r0, r4
 2158 00b0 FFF7FEFF 		bl	lv_indev_get_type
 2159 00b4 0228     		cmp	r0, #2
 2160 00b6 ACD0     		beq	.L350
 2161 00b8 2046     		mov	r0, r4
 2162 00ba FFF7FEFF 		bl	lv_indev_get_type
 2163 00be 0428     		cmp	r0, #4
 2164 00c0 A7D0     		beq	.L350
 2165 00c2 706A     		ldr	r0, [r6, #36]
 2166 00c4 0EA9     		add	r1, sp, #56
 2167 00c6 FFF7FEFF 		bl	lv_obj_get_coords
 2168 00ca 02A9     		add	r1, sp, #8
 2169 00cc 2046     		mov	r0, r4
 2170 00ce FFF7FEFF 		bl	lv_indev_get_point
 2171 00d2 04A9     		add	r1, sp, #16
 2172 00d4 2046     		mov	r0, r4
 2173 00d6 FFF7FEFF 		bl	lv_indev_get_vect
 2174 00da BDF90830 		ldrsh	r3, [sp, #8]
 2175 00de 002B     		cmp	r3, #0
 2176 00e0 97DB     		blt	.L350
 2177 00e2 BDF90A20 		ldrsh	r2, [sp, #10]
 2178 00e6 002A     		cmp	r2, #0
 2179 00e8 93DB     		blt	.L350
 2180 00ea BDF83810 		ldrh	r1, [sp, #56]
 2181 00ee 5B1A     		subs	r3, r3, r1
 2182 00f0 BDF83A10 		ldrh	r1, [sp, #58]
 2183 00f4 ADF81830 		strh	r3, [sp, #24]	@ movhi
 2184 00f8 521A     		subs	r2, r2, r1
 2185 00fa 2846     		mov	r0, r5
 2186 00fc ADF81A20 		strh	r2, [sp, #26]	@ movhi
 2187 0100 FFF7FEFF 		bl	lv_event_get_code
 2188 0104 0446     		mov	r4, r0
 2189 0106 706A     		ldr	r0, [r6, #36]
 2190 0108 FFF7FEFF 		bl	lv_obj_get_width
 2191 010c BDF91830 		ldrsh	r3, [sp, #24]
 2192 0110 756A     		ldr	r5, [r6, #36]
 2193 0112 002B     		cmp	r3, #0
 2194 0114 C0F28C81 		blt	.L394
 2195 0118 9842     		cmp	r0, r3
 2196 011a 00F3AB81 		bgt	.L445
 2197 011e 0122     		movs	r2, #1
 2198 0120 47F6FF77 		movw	r7, #32767
 2199              	.L373:
 2200 0124 96F86030 		ldrb	r3, [r6, #96]	@ zero_extendqisi2
 2201 0128 9807     		lsls	r0, r3, #30
 2202 012a 03F00101 		and	r1, r3, #1
 2203 012e 40F17881 		bpl	.L374
 2204 0132 0029     		cmp	r1, #0
ARM GAS  /var/folders/lp/x54gwt890xv47sdkqj1k04q40000gn/T//ccJoQ5RK.s 			page 38


 2205 0134 40F08C81 		bne	.L375
 2206 0138 002A     		cmp	r2, #0
 2207 013a 40F07581 		bne	.L376
 2208 013e 012C     		cmp	r4, #1
 2209 0140 7FF467AF 		bne	.L350
 2210 0144 43F00103 		orr	r3, r3, #1
 2211 0148 86F86030 		strb	r3, [r6, #96]
 2212 014c 4FF6FF73 		movw	r3, #65535
 2213 0150 B765     		str	r7, [r6, #88]
 2214 0152 4FF44071 		mov	r1, #768
 2215 0156 F365     		str	r3, [r6, #92]
 2216 0158 3046     		mov	r0, r6
 2217 015a FFF7FEFF 		bl	lv_obj_clear_flag
 2218              	.L377:
 2219 015e 3946     		mov	r1, r7
 2220 0160 3046     		mov	r0, r6
 2221 0162 FFF7FEFF 		bl	lv_textarea_set_cursor_pos
 2222 0166 96F86030 		ldrb	r3, [r6, #96]	@ zero_extendqisi2
 2223 016a D907     		lsls	r1, r3, #31
 2224 016c 7FF551AF 		bpl	.L350
 2225 0170 D6E91623 		ldrd	r2, r3, [r6, #88]
 2226 0174 9A42     		cmp	r2, r3
 2227 0176 E96B     		ldr	r1, [r5, #60]
 2228 0178 40F25D81 		bls	.L382
 2229 017c 8B42     		cmp	r3, r1
 2230 017e 02D1     		bne	.L383
 2231 0180 296C     		ldr	r1, [r5, #64]
 2232 0182 8A42     		cmp	r2, r1
 2233 0184 04D0     		beq	.L384
 2234              	.L383:
 2235 0186 C5E90F32 		strd	r3, r2, [r5, #60]
 2236 018a 3046     		mov	r0, r6
 2237 018c FFF7FEFF 		bl	lv_obj_invalidate
 2238              	.L384:
 2239 0190 032C     		cmp	r4, #3
 2240 0192 02D0     		beq	.L388
 2241 0194 082C     		cmp	r4, #8
 2242 0196 7FF43CAF 		bne	.L350
 2243              	.L388:
 2244 019a 96F86030 		ldrb	r3, [r6, #96]	@ zero_extendqisi2
 2245 019e 23F00103 		bic	r3, r3, #1
 2246 01a2 86F86030 		strb	r3, [r6, #96]
 2247 01a6 34E7     		b	.L350
 2248              	.L353:
 2249 01a8 2846     		mov	r0, r5
 2250 01aa FFF7FEFF 		bl	lv_event_get_target
 2251 01ae 0446     		mov	r4, r0
 2252 01b0 2846     		mov	r0, r5
 2253 01b2 FFF7FEFF 		bl	lv_event_get_draw_ctx
 2254 01b6 0746     		mov	r7, r0
 2255 01b8 606A     		ldr	r0, [r4, #36]
 2256 01ba FFF7FEFF 		bl	lv_label_get_text
 2257 01be 94F85430 		ldrb	r3, [r4, #84]	@ zero_extendqisi2
 2258 01c2 DB07     		lsls	r3, r3, #31
 2259 01c4 0646     		mov	r6, r0
 2260 01c6 7FF524AF 		bpl	.L350
 2261 01ca 0EA8     		add	r0, sp, #56
ARM GAS  /var/folders/lp/x54gwt890xv47sdkqj1k04q40000gn/T//ccJoQ5RK.s 			page 39


 2262 01cc FFF7FEFF 		bl	lv_draw_rect_dsc_init
 2263 01d0 0EAA     		add	r2, sp, #56
 2264 01d2 4FF4E021 		mov	r1, #458752
 2265 01d6 2046     		mov	r0, r4
 2266 01d8 FFF7FEFF 		bl	lv_obj_init_draw_rect_dsc
 2267 01dc 636A     		ldr	r3, [r4, #36]
 2268 01de B4F94EC0 		ldrsh	ip, [r4, #78]
 2269 01e2 9A8A     		ldrh	r2, [r3, #20]
 2270 01e4 B4F94A50 		ldrsh	r5, [r4, #74]
 2271 01e8 DB8A     		ldrh	r3, [r3, #22]
 2272 01ea B4F94C00 		ldrsh	r0, [r4, #76]
 2273 01ee 1D44     		add	r5, r5, r3
 2274 01f0 6344     		add	r3, r3, ip
 2275 01f2 B4F848C0 		ldrh	ip, [r4, #72]
 2276 01f6 ADF80E30 		strh	r3, [sp, #14]	@ movhi
 2277 01fa 1044     		add	r0, r0, r2
 2278 01fc 6244     		add	r2, r2, ip
 2279 01fe 0EA9     		add	r1, sp, #56
 2280 0200 ADF80820 		strh	r2, [sp, #8]	@ movhi
 2281 0204 ADF80C00 		strh	r0, [sp, #12]	@ movhi
 2282 0208 02AA     		add	r2, sp, #8
 2283 020a 3846     		mov	r0, r7
 2284 020c ADF80A50 		strh	r5, [sp, #10]	@ movhi
 2285 0210 FFF7FEFF 		bl	lv_draw_rect
 2286 0214 3222     		movs	r2, #50
 2287 0216 4FF4E021 		mov	r1, #458752
 2288 021a 2046     		mov	r0, r4
 2289 021c FFF7FEFF 		bl	lv_obj_get_style_prop
 2290 0220 1222     		movs	r2, #18
 2291 0222 0546     		mov	r5, r0
 2292 0224 4FF4E021 		mov	r1, #458752
 2293 0228 2046     		mov	r0, r4
 2294 022a FFF7FEFF 		bl	lv_obj_get_style_prop
 2295 022e ADB2     		uxth	r5, r5
 2296 0230 05EB0008 		add	r8, r5, r0
 2297 0234 1022     		movs	r2, #16
 2298 0236 4FF4E021 		mov	r1, #458752
 2299 023a 4FF00009 		mov	r9, #0
 2300 023e 2046     		mov	r0, r4
 2301 0240 FFF7FEFF 		bl	lv_obj_get_style_prop
 2302 0244 CDE90499 		strd	r9, r9, [sp, #16]
 2303 0248 236D     		ldr	r3, [r4, #80]
 2304 024a 1E44     		add	r6, r6, r3
 2305 024c 1C4B     		ldr	r3, .L447+4
 2306 024e 0544     		add	r5, r5, r0
 2307 0250 1B68     		ldr	r3, [r3]
 2308 0252 3046     		mov	r0, r6
 2309 0254 9847     		blx	r3
 2310 0256 3146     		mov	r1, r6
 2311 0258 0246     		mov	r2, r0
 2312 025a 04A8     		add	r0, sp, #16
 2313 025c FFF7FEFF 		bl	lv_memcpy
 2314 0260 BDF80830 		ldrh	r3, [sp, #8]
 2315 0264 606A     		ldr	r0, [r4, #36]
 2316 0266 1FFA88F8 		uxth	r8, r8
 2317 026a 9844     		add	r8, r8, r3
 2318 026c BDF80A30 		ldrh	r3, [sp, #10]
ARM GAS  /var/folders/lp/x54gwt890xv47sdkqj1k04q40000gn/T//ccJoQ5RK.s 			page 40


 2319 0270 ADF80880 		strh	r8, [sp, #8]	@ movhi
 2320 0274 ADB2     		uxth	r5, r5
 2321 0276 1D44     		add	r5, r5, r3
 2322 0278 4946     		mov	r1, r9
 2323 027a 5522     		movs	r2, #85
 2324 027c ADF80A50 		strh	r5, [sp, #10]	@ movhi
 2325 0280 FFF7FEFF 		bl	lv_obj_get_style_prop
 2326 0284 85B2     		uxth	r5, r0
 2327 0286 06A8     		add	r0, sp, #24
 2328 0288 FFF7FEFF 		bl	lv_draw_label_dsc_init
 2329 028c 06AA     		add	r2, sp, #24
 2330 028e 2046     		mov	r0, r4
 2331 0290 4FF4E021 		mov	r1, #458752
 2332 0294 FFF7FEFF 		bl	lv_obj_init_draw_label_dsc
 2333 0298 9DF83B30 		ldrb	r3, [sp, #59]	@ zero_extendqisi2
 2334 029c 022B     		cmp	r3, #2
 2335 029e 04D8     		bhi	.L391
 2336 02a0 BDF82430 		ldrh	r3, [sp, #36]
 2337 02a4 AB42     		cmp	r3, r5
 2338 02a6 3FF4B4AE 		beq	.L350
 2339              	.L391:
 2340 02aa 0023     		movs	r3, #0
 2341 02ac 0093     		str	r3, [sp]
 2342 02ae 02AA     		add	r2, sp, #8
 2343 02b0 04AB     		add	r3, sp, #16
 2344 02b2 06A9     		add	r1, sp, #24
 2345 02b4 3846     		mov	r0, r7
 2346 02b6 FFF7FEFF 		bl	lv_draw_label
 2347 02ba AAE6     		b	.L350
 2348              	.L448:
 2349              		.align	2
 2350              	.L447:
 2351 02bc 00000000 		.word	lv_textarea_class
 2352 02c0 00000000 		.word	_lv_txt_encoded_size
 2353              	.L355:
 2354 02c4 2846     		mov	r0, r5
 2355 02c6 FFF7FEFF 		bl	lv_event_get_target
 2356 02ca 0446     		mov	r4, r0
 2357 02cc 2846     		mov	r0, r5
 2358 02ce FFF7FEFF 		bl	lv_event_get_draw_ctx
 2359 02d2 0546     		mov	r5, r0
 2360 02d4 606A     		ldr	r0, [r4, #36]
 2361 02d6 FFF7FEFF 		bl	lv_label_get_text
 2362 02da 0378     		ldrb	r3, [r0]	@ zero_extendqisi2
 2363 02dc 002B     		cmp	r3, #0
 2364 02de 7FF498AE 		bne	.L350
 2365 02e2 A36A     		ldr	r3, [r4, #40]
 2366 02e4 002B     		cmp	r3, #0
 2367 02e6 3FF494AE 		beq	.L350
 2368 02ea 1B78     		ldrb	r3, [r3]	@ zero_extendqisi2
 2369 02ec 002B     		cmp	r3, #0
 2370 02ee 3FF490AE 		beq	.L350
 2371 02f2 0EA8     		add	r0, sp, #56
 2372 02f4 FFF7FEFF 		bl	lv_draw_label_dsc_init
 2373 02f8 0EAA     		add	r2, sp, #56
 2374 02fa 4FF40021 		mov	r1, #524288
 2375 02fe 2046     		mov	r0, r4
ARM GAS  /var/folders/lp/x54gwt890xv47sdkqj1k04q40000gn/T//ccJoQ5RK.s 			page 41


 2376 0300 FFF7FEFF 		bl	lv_obj_init_draw_label_dsc
 2377 0304 94F86030 		ldrb	r3, [r4, #96]	@ zero_extendqisi2
 2378 0308 1A07     		lsls	r2, r3, #28
 2379 030a 05D5     		bpl	.L389
 2380 030c 9DF85530 		ldrb	r3, [sp, #85]	@ zero_extendqisi2
 2381 0310 43F00203 		orr	r3, r3, #2
 2382 0314 8DF85530 		strb	r3, [sp, #85]
 2383              	.L389:
 2384 0318 1222     		movs	r2, #18
 2385 031a 0021     		movs	r1, #0
 2386 031c 2046     		mov	r0, r4
 2387 031e FFF7FEFF 		bl	lv_obj_get_style_prop
 2388 0322 1022     		movs	r2, #16
 2389 0324 0746     		mov	r7, r0
 2390 0326 0021     		movs	r1, #0
 2391 0328 2046     		mov	r0, r4
 2392 032a FFF7FEFF 		bl	lv_obj_get_style_prop
 2393 032e 3222     		movs	r2, #50
 2394 0330 0646     		mov	r6, r0
 2395 0332 0021     		movs	r1, #0
 2396 0334 2046     		mov	r0, r4
 2397 0336 FFF7FEFF 		bl	lv_obj_get_style_prop
 2398 033a 83B2     		uxth	r3, r0
 2399 033c 9A19     		adds	r2, r3, r6
 2400 033e 3B44     		add	r3, r3, r7
 2401 0340 6069     		ldr	r0, [r4, #20]	@ unaligned
 2402 0342 19B2     		sxth	r1, r3
 2403 0344 A369     		ldr	r3, [r4, #24]	@ unaligned
 2404 0346 12B2     		sxth	r2, r2
 2405 0348 CDE90603 		strd	r0, r3, [sp, #24]
 2406 034c 06A8     		add	r0, sp, #24
 2407 034e FFF7FEFF 		bl	lv_area_move
 2408 0352 0021     		movs	r1, #0
 2409 0354 A36A     		ldr	r3, [r4, #40]
 2410 0356 0091     		str	r1, [sp]
 2411 0358 06AA     		add	r2, sp, #24
 2412 035a 0EA9     		add	r1, sp, #56
 2413 035c 2846     		mov	r0, r5
 2414 035e FFF7FEFF 		bl	lv_draw_label
 2415 0362 56E6     		b	.L350
 2416              	.L356:
 2417 0364 1DB0     		add	sp, sp, #116
 2418              		@ sp needed
 2419 0366 BDE8F043 		pop	{r4, r5, r6, r7, r8, r9, lr}
 2420 036a FFF7FEBF 		b	start_cursor_blink
 2421              	.L357:
 2422 036e 2846     		mov	r0, r5
 2423 0370 FFF7FEFF 		bl	lv_event_get_param
 2424 0374 0168     		ldr	r1, [r0]
 2425 0376 1429     		cmp	r1, #20
 2426 0378 16D8     		bhi	.L359
 2427 037a 0129     		cmp	r1, #1
 2428 037c 0ED9     		bls	.L360
 2429 037e 8B1E     		subs	r3, r1, #2
 2430 0380 122B     		cmp	r3, #18
 2431 0382 0BD8     		bhi	.L360
 2432 0384 DFE803F0 		tbb	[pc, r3]
ARM GAS  /var/folders/lp/x54gwt890xv47sdkqj1k04q40000gn/T//ccJoQ5RK.s 			page 42


 2433              	.L362:
 2434 0388 45       		.byte	(.L369-.L362)/2
 2435 0389 21       		.byte	(.L368-.L362)/2
 2436 038a 0A       		.byte	(.L360-.L362)/2
 2437 038b 0A       		.byte	(.L360-.L362)/2
 2438 038c 0A       		.byte	(.L360-.L362)/2
 2439 038d 0A       		.byte	(.L360-.L362)/2
 2440 038e 1B       		.byte	(.L442-.L362)/2
 2441 038f 0A       		.byte	(.L360-.L362)/2
 2442 0390 39       		.byte	(.L366-.L362)/2
 2443 0391 0A       		.byte	(.L360-.L362)/2
 2444 0392 0A       		.byte	(.L360-.L362)/2
 2445 0393 0A       		.byte	(.L360-.L362)/2
 2446 0394 0A       		.byte	(.L360-.L362)/2
 2447 0395 0A       		.byte	(.L360-.L362)/2
 2448 0396 0A       		.byte	(.L360-.L362)/2
 2449 0397 33       		.byte	(.L365-.L362)/2
 2450 0398 2D       		.byte	(.L364-.L362)/2
 2451 0399 29       		.byte	(.L363-.L362)/2
 2452 039a 47       		.byte	(.L361-.L362)/2
 2453 039b 00       		.p2align 1
 2454              	.L360:
 2455 039c 3046     		mov	r0, r6
 2456 039e 1DB0     		add	sp, sp, #116
 2457              		@ sp needed
 2458 03a0 BDE8F043 		pop	{r4, r5, r6, r7, r8, r9, lr}
 2459 03a4 FFF7FEBF 		b	lv_textarea_add_char
 2460              	.L359:
 2461 03a8 7F29     		cmp	r1, #127
 2462 03aa F7D1     		bne	.L360
 2463 03ac 746C     		ldr	r4, [r6, #68]
 2464 03ae 3046     		mov	r0, r6
 2465 03b0 611C     		adds	r1, r4, #1
 2466 03b2 FFF7FEFF 		bl	lv_textarea_set_cursor_pos
 2467 03b6 736C     		ldr	r3, [r6, #68]
 2468 03b8 9C42     		cmp	r4, r3
 2469 03ba 3FF42AAE 		beq	.L350
 2470              	.L442:
 2471 03be 3046     		mov	r0, r6
 2472 03c0 1DB0     		add	sp, sp, #116
 2473              		@ sp needed
 2474 03c2 BDE8F043 		pop	{r4, r5, r6, r7, r8, r9, lr}
 2475 03c6 FFF7FEBF 		b	lv_textarea_del_char
 2476              	.L368:
 2477 03ca 47F6FF71 		movw	r1, #32767
 2478              	.L443:
 2479 03ce 3046     		mov	r0, r6
 2480              	.L441:
 2481 03d0 1DB0     		add	sp, sp, #116
 2482              		@ sp needed
 2483 03d2 BDE8F043 		pop	{r4, r5, r6, r7, r8, r9, lr}
 2484 03d6 FFF7FEBF 		b	lv_textarea_set_cursor_pos
 2485              	.L363:
 2486 03da 716C     		ldr	r1, [r6, #68]
 2487 03dc 3046     		mov	r0, r6
 2488 03de 0131     		adds	r1, r1, #1
 2489 03e0 F6E7     		b	.L441
ARM GAS  /var/folders/lp/x54gwt890xv47sdkqj1k04q40000gn/T//ccJoQ5RK.s 			page 43


 2490              	.L364:
 2491 03e2 3046     		mov	r0, r6
 2492 03e4 1DB0     		add	sp, sp, #116
 2493              		@ sp needed
 2494 03e6 BDE8F043 		pop	{r4, r5, r6, r7, r8, r9, lr}
 2495 03ea FFF7FEBF 		b	lv_textarea_cursor_down
 2496              	.L365:
 2497 03ee 3046     		mov	r0, r6
 2498 03f0 1DB0     		add	sp, sp, #116
 2499              		@ sp needed
 2500 03f2 BDE8F043 		pop	{r4, r5, r6, r7, r8, r9, lr}
 2501 03f6 FFF7FEBF 		b	lv_textarea_cursor_up
 2502              	.L366:
 2503 03fa 96F86030 		ldrb	r3, [r6, #96]	@ zero_extendqisi2
 2504 03fe 1B07     		lsls	r3, r3, #28
 2505 0400 CCD5     		bpl	.L360
 2506 0402 0022     		movs	r2, #0
 2507 0404 1F21     		movs	r1, #31
 2508 0406 3046     		mov	r0, r6
 2509 0408 1DB0     		add	sp, sp, #116
 2510              		@ sp needed
 2511 040a BDE8F043 		pop	{r4, r5, r6, r7, r8, r9, lr}
 2512 040e FFF7FEBF 		b	lv_event_send
 2513              	.L369:
 2514 0412 0021     		movs	r1, #0
 2515 0414 DBE7     		b	.L443
 2516              	.L361:
 2517 0416 716C     		ldr	r1, [r6, #68]
 2518 0418 0029     		cmp	r1, #0
 2519 041a 3FF4FAAD 		beq	.L350
 2520 041e 0139     		subs	r1, r1, #1
 2521 0420 D5E7     		b	.L443
 2522              	.L374:
 2523 0422 0029     		cmp	r1, #0
 2524 0424 7FF49BAE 		bne	.L377
 2525              	.L376:
 2526 0428 012C     		cmp	r4, #1
 2527 042a 7FF4F2AD 		bne	.L350
 2528 042e 96E6     		b	.L377
 2529              	.L394:
 2530 0430 0122     		movs	r2, #1
 2531 0432 0027     		movs	r7, #0
 2532 0434 76E6     		b	.L373
 2533              	.L382:
 2534 0436 2AD2     		bcs	.L385
 2535 0438 8A42     		cmp	r2, r1
 2536 043a 03D1     		bne	.L386
 2537 043c 296C     		ldr	r1, [r5, #64]
 2538 043e 8B42     		cmp	r3, r1
 2539 0440 3FF4A6AE 		beq	.L384
 2540              	.L386:
 2541 0444 C5E90F23 		strd	r2, r3, [r5, #60]
 2542 0448 3046     		mov	r0, r6
 2543 044a FFF7FEFF 		bl	lv_obj_invalidate
 2544 044e 9FE6     		b	.L384
 2545              	.L375:
 2546 0450 022C     		cmp	r4, #2
ARM GAS  /var/folders/lp/x54gwt890xv47sdkqj1k04q40000gn/T//ccJoQ5RK.s 			page 44


 2547 0452 2CD0     		beq	.L446
 2548 0454 032C     		cmp	r4, #3
 2549 0456 02D0     		beq	.L379
 2550 0458 082C     		cmp	r4, #8
 2551 045a 7FF480AE 		bne	.L377
 2552              	.L379:
 2553 045e 3046     		mov	r0, r6
 2554 0460 4FF44071 		mov	r1, #768
 2555 0464 FFF7FEFF 		bl	lv_obj_add_flag
 2556 0468 96F86030 		ldrb	r3, [r6, #96]	@ zero_extendqisi2
 2557 046c D807     		lsls	r0, r3, #31
 2558 046e 7FF5D0AD 		bpl	.L350
 2559 0472 74E6     		b	.L377
 2560              	.L445:
 2561 0474 06A9     		add	r1, sp, #24
 2562 0476 2846     		mov	r0, r5
 2563 0478 FFF7FEFF 		bl	lv_label_get_letter_on
 2564 047c 06A9     		add	r1, sp, #24
 2565 047e 87B2     		uxth	r7, r0
 2566 0480 706A     		ldr	r0, [r6, #36]
 2567 0482 FFF7FEFF 		bl	lv_label_is_char_under_pos
 2568 0486 80F00102 		eor	r2, r0, #1
 2569 048a D2B2     		uxtb	r2, r2
 2570 048c 4AE6     		b	.L373
 2571              	.L385:
 2572 048e 4FF6FF73 		movw	r3, #65535
 2573 0492 9942     		cmp	r1, r3
 2574 0494 03D1     		bne	.L387
 2575 0496 2B6C     		ldr	r3, [r5, #64]
 2576 0498 8B42     		cmp	r3, r1
 2577 049a 3FF479AE 		beq	.L384
 2578              	.L387:
 2579 049e 4FF6FF73 		movw	r3, #65535
 2580 04a2 C5E90F33 		strd	r3, r3, [r5, #60]
 2581 04a6 3046     		mov	r0, r6
 2582 04a8 FFF7FEFF 		bl	lv_obj_invalidate
 2583 04ac 70E6     		b	.L384
 2584              	.L446:
 2585 04ae F765     		str	r7, [r6, #92]
 2586 04b0 55E6     		b	.L377
 2588 04b2 00BF     		.section	.bss.ta_insert_replace,"aw",%nobits
 2589              		.align	2
 2592              	ta_insert_replace:
 2593 0000 00000000 		.space	4
 2594              		.global	lv_textarea_class
 2595              		.section	.rodata.lv_textarea_class,"a"
 2596              		.align	2
 2599              	lv_textarea_class:
 2600 0000 00000000 		.word	lv_obj_class
 2601 0004 00000000 		.word	lv_textarea_constructor
 2602 0008 00000000 		.word	lv_textarea_destructor
 2603 000c 00000000 		.space	4
 2604 0010 00000000 		.word	lv_textarea_event
 2605 0014 0401     		.short	260
 2606 0016 8200     		.short	130
 2607 0018 44       		.byte	68
 2608 0019 06       		.byte	6
ARM GAS  /var/folders/lp/x54gwt890xv47sdkqj1k04q40000gn/T//ccJoQ5RK.s 			page 45


 2609 001a 00       		.byte	0
 2610 001b 00       		.space	1
 2611              		.ident	"GCC: (xPack GNU Arm Embedded GCC arm64) 13.3.1 20240614"
ARM GAS  /var/folders/lp/x54gwt890xv47sdkqj1k04q40000gn/T//ccJoQ5RK.s 			page 46

