ARM GAS  /var/folders/lp/x54gwt890xv47sdkqj1k04q40000gn/T//ccYERm0L.s 			page 1


   1              		.cpu cortex-m4
   2              		.arch armv7e-m
   3              		.fpu fpv4-sp-d16
   4              		.eabi_attribute 27, 1
   5              		.eabi_attribute 28, 1
   6              		.eabi_attribute 20, 1
   7              		.eabi_attribute 21, 1
   8              		.eabi_attribute 23, 3
   9              		.eabi_attribute 24, 1
  10              		.eabi_attribute 25, 1
  11              		.eabi_attribute 26, 1
  12              		.eabi_attribute 30, 2
  13              		.eabi_attribute 34, 1
  14              		.eabi_attribute 18, 4
  15              		.file	"main.c"
  16              		.text
  17              		.section	.text.SystemClock_Config,"ax",%progbits
  18              		.align	1
  19              		.p2align 2,,3
  20              		.global	SystemClock_Config
  21              		.syntax unified
  22              		.thumb
  23              		.thumb_func
  25              	SystemClock_Config:
  26              		@ args = 0, pretend = 0, frame = 80
  27              		@ frame_needed = 0, uses_anonymous_args = 0
  28 0000 30B5     		push	{r4, r5, lr}
  29 0002 0023     		movs	r3, #0
  30 0004 95B0     		sub	sp, sp, #84
  31 0006 CDE90A33 		strd	r3, r3, [sp, #40]
  32 000a CDE90C33 		strd	r3, r3, [sp, #48]
  33 000e CDE90333 		strd	r3, r3, [sp, #12]
  34 0012 CDE90533 		strd	r3, r3, [sp, #20]
  35 0016 2249     		ldr	r1, .L8
  36 0018 0193     		str	r3, [sp, #4]
  37 001a 0793     		str	r3, [sp, #28]
  38 001c 086C     		ldr	r0, [r1, #64]
  39 001e 214A     		ldr	r2, .L8+4
  40 0020 40F08050 		orr	r0, r0, #268435456
  41 0024 0864     		str	r0, [r1, #64]
  42 0026 096C     		ldr	r1, [r1, #64]
  43 0028 01F08051 		and	r1, r1, #268435456
  44 002c 0191     		str	r1, [sp, #4]
  45 002e 0199     		ldr	r1, [sp, #4]
  46 0030 0293     		str	r3, [sp, #8]
  47 0032 1368     		ldr	r3, [r2]
  48 0034 43F48043 		orr	r3, r3, #16384
  49 0038 1360     		str	r3, [r2]
  50 003a 1368     		ldr	r3, [r2]
  51 003c 0120     		movs	r0, #1
  52 003e 4FF48031 		mov	r1, #65536
  53 0042 03F48043 		and	r3, r3, #16384
  54 0046 CDE90801 		strd	r0, [sp, #32]
  55 004a 0293     		str	r3, [sp, #8]
  56 004c 4FF48001 		mov	r1, #4194304
  57 0050 0224     		movs	r4, #2
  58 0052 CDE90E41 		strd	r4, r1, [sp, #56]
ARM GAS  /var/folders/lp/x54gwt890xv47sdkqj1k04q40000gn/T//ccYERm0L.s 			page 2


  59 0056 0298     		ldr	r0, [sp, #8]
  60 0058 0721     		movs	r1, #7
  61 005a 0220     		movs	r0, #2
  62 005c CDE91201 		strd	r0, [sp, #72]
  63 0060 0822     		movs	r2, #8
  64 0062 4FF4A873 		mov	r3, #336
  65 0066 08A8     		add	r0, sp, #32
  66 0068 1092     		str	r2, [sp, #64]
  67 006a 1193     		str	r3, [sp, #68]
  68 006c FFF7FEFF 		bl	HAL_RCC_OscConfig
  69 0070 08B1     		cbz	r0, .L2
  70              		.syntax unified
  71              	@ 142 "Drivers/CMSIS/Include/cmsis_gcc.h" 1
  72 0072 72B6     		cpsid i
  73              	@ 0 "" 2
  74              		.thumb
  75              		.syntax unified
  76              	.L3:
  77 0074 FEE7     		b	.L3
  78              	.L2:
  79 0076 0F22     		movs	r2, #15
  80 0078 0346     		mov	r3, r0
  81 007a CDE90324 		strd	r2, r4, [sp, #12]
  82 007e 4FF4A055 		mov	r5, #5120
  83 0082 4FF48052 		mov	r2, #4096
  84 0086 03A8     		add	r0, sp, #12
  85 0088 0521     		movs	r1, #5
  86 008a CDE90535 		strd	r3, r5, [sp, #20]
  87 008e 0792     		str	r2, [sp, #28]
  88 0090 FFF7FEFF 		bl	HAL_RCC_ClockConfig
  89 0094 08B1     		cbz	r0, .L1
  90              		.syntax unified
  91              	@ 142 "Drivers/CMSIS/Include/cmsis_gcc.h" 1
  92 0096 72B6     		cpsid i
  93              	@ 0 "" 2
  94              		.thumb
  95              		.syntax unified
  96              	.L5:
  97 0098 FEE7     		b	.L5
  98              	.L1:
  99 009a 15B0     		add	sp, sp, #84
 100              		@ sp needed
 101 009c 30BD     		pop	{r4, r5, pc}
 102              	.L9:
 103 009e 00BF     		.align	2
 104              	.L8:
 105 00a0 00380240 		.word	1073887232
 106 00a4 00700040 		.word	1073770496
 108              		.section	.rodata.main.str1.4,"aMS",%progbits,1
 109              		.align	2
 110              	.LC0:
 111 0000 53454747 		.ascii	"SEGGER Real-Time-Terminal Sample\015\012\000"
 111      45522052 
 111      65616C2D 
 111      54696D65 
 111      2D546572 
 112              		.section	.text.startup.main,"ax",%progbits
ARM GAS  /var/folders/lp/x54gwt890xv47sdkqj1k04q40000gn/T//ccYERm0L.s 			page 3


 113              		.align	1
 114              		.p2align 2,,3
 115              		.global	main
 116              		.syntax unified
 117              		.thumb
 118              		.thumb_func
 120              	main:
 121              		@ Volatile: function does not return.
 122              		@ args = 0, pretend = 0, frame = 0
 123              		@ frame_needed = 0, uses_anonymous_args = 0
 124 0000 00B5     		push	{lr}
 125 0002 83B0     		sub	sp, sp, #12
 126 0004 FFF7FEFF 		bl	HAL_Init
 127 0008 0024     		movs	r4, #0
 128 000a FFF7FEFF 		bl	SystemClock_Config
 129 000e FFF7FEFF 		bl	MX_GPIO_Init
 130 0012 FFF7FEFF 		bl	MX_ADC1_Init
 131 0016 FFF7FEFF 		bl	MX_ADC2_Init
 132 001a FFF7FEFF 		bl	MX_ADC3_Init
 133 001e FFF7FEFF 		bl	MX_DMA_Init
 134 0022 FFF7FEFF 		bl	MX_I2C1_Init
 135 0026 FFF7FEFF 		bl	MX_I2S3_Init
 136 002a FFF7FEFF 		bl	MX_SPI1_Init
 137 002e FFF7FEFF 		bl	MX_TIM3_Init
 138 0032 1749     		ldr	r1, .L13
 139 0034 0020     		movs	r0, #0
 140 0036 FFF7FEFF 		bl	SEGGER_RTT_WriteString
 141 003a 2346     		mov	r3, r4
 142 003c 2246     		mov	r2, r4
 143 003e 2146     		mov	r1, r4
 144 0040 0094     		str	r4, [sp]
 145 0042 2046     		mov	r0, r4
 146 0044 FFF7FEFF 		bl	SEGGER_RTT_ConfigUpBuffer
 147 0048 3C21     		movs	r1, #60
 148 004a 1248     		ldr	r0, .L13+4
 149 004c FFF7FEFF 		bl	HAL_TIM_Encoder_Start
 150 0050 FFF7FEFF 		bl	lv_init
 151 0054 FFF7FEFF 		bl	lv_port_disp_init
 152 0058 FFF7FEFF 		bl	UI_LCD_init
 153 005c 2246     		mov	r2, r4
 154 005e 0E49     		ldr	r1, .L13+8
 155 0060 0E48     		ldr	r0, .L13+12
 156 0062 0E4C     		ldr	r4, .L13+12
 157 0064 FFF7FEFF 		bl	USBH_Init
 158 0068 0D49     		ldr	r1, .L13+16
 159 006a 0C48     		ldr	r0, .L13+12
 160 006c FFF7FEFF 		bl	USBH_RegisterClass
 161 0070 0A48     		ldr	r0, .L13+12
 162 0072 FFF7FEFF 		bl	USBH_Start
 163 0076 FFF7FEFF 		bl	AUDIO_Init
 164              	.L11:
 165 007a FFF7FEFF 		bl	lv_timer_handler
 166 007e FFF7FEFF 		bl	UI_LCD_process
 167 0082 FFF7FEFF 		bl	MIDI_Application
 168 0086 2046     		mov	r0, r4
 169 0088 FFF7FEFF 		bl	USBH_Process
 170 008c F5E7     		b	.L11
ARM GAS  /var/folders/lp/x54gwt890xv47sdkqj1k04q40000gn/T//ccYERm0L.s 			page 4


 171              	.L14:
 172 008e 00BF     		.align	2
 173              	.L13:
 174 0090 00000000 		.word	.LC0
 175 0094 00000000 		.word	htim3
 176 0098 00000000 		.word	USBH_UserProcess_callback
 177 009c 00000000 		.word	hUSBHost
 178 00a0 00000000 		.word	MIDI_Class
 180              		.section	.text.Error_Handler,"ax",%progbits
 181              		.align	1
 182              		.p2align 2,,3
 183              		.global	Error_Handler
 184              		.syntax unified
 185              		.thumb
 186              		.thumb_func
 188              	Error_Handler:
 189              		@ Volatile: function does not return.
 190              		@ args = 0, pretend = 0, frame = 0
 191              		@ frame_needed = 0, uses_anonymous_args = 0
 192              		@ link register save eliminated.
 193              		.syntax unified
 194              	@ 142 "Drivers/CMSIS/Include/cmsis_gcc.h" 1
 195 0000 72B6     		cpsid i
 196              	@ 0 "" 2
 197              		.thumb
 198              		.syntax unified
 199              	.L16:
 200 0002 FEE7     		b	.L16
 202              		.ident	"GCC: (xPack GNU Arm Embedded GCC arm64) 13.3.1 20240614"
ARM GAS  /var/folders/lp/x54gwt890xv47sdkqj1k04q40000gn/T//ccYERm0L.s 			page 5

