ARM GAS  /var/folders/lp/x54gwt890xv47sdkqj1k04q40000gn/T//ccBB4tGb.s 			page 1


   1              		.cpu cortex-m4
   2              		.arch armv7e-m
   3              		.fpu fpv4-sp-d16
   4              		.eabi_attribute 27, 1
   5              		.eabi_attribute 28, 1
   6              		.eabi_attribute 20, 1
   7              		.eabi_attribute 21, 1
   8              		.eabi_attribute 23, 3
   9              		.eabi_attribute 24, 1
  10              		.eabi_attribute 25, 1
  11              		.eabi_attribute 26, 1
  12              		.eabi_attribute 30, 2
  13              		.eabi_attribute 34, 1
  14              		.eabi_attribute 18, 4
  15              		.file	"SEGGER_RTT.c"
  16              		.text
  17              		.section	.text._WriteNoCheck,"ax",%progbits
  18              		.align	1
  19              		.p2align 2,,3
  20              		.syntax unified
  21              		.thumb
  22              		.thumb_func
  24              	_WriteNoCheck:
  25              		@ args = 0, pretend = 0, frame = 0
  26              		@ frame_needed = 0, uses_anonymous_args = 0
  27 0000 2DE9F041 		push	{r4, r5, r6, r7, r8, lr}
  28 0004 D0E90285 		ldrd	r8, r5, [r0, #8]
  29 0008 0446     		mov	r4, r0
  30 000a A8EB0507 		sub	r7, r8, r5
  31 000e 4068     		ldr	r0, [r0, #4]
  32 0010 9742     		cmp	r7, r2
  33 0012 2844     		add	r0, r0, r5
  34 0014 1544     		add	r5, r5, r2
  35 0016 08D8     		bhi	.L5
  36 0018 3A46     		mov	r2, r7
  37 001a 0E46     		mov	r6, r1
  38 001c A5EB0805 		sub	r5, r5, r8
  39 0020 FFF7FEFF 		bl	memcpy
  40 0024 6068     		ldr	r0, [r4, #4]
  41 0026 2A46     		mov	r2, r5
  42 0028 F119     		adds	r1, r6, r7
  43              	.L5:
  44 002a FFF7FEFF 		bl	memcpy
  45              		.syntax unified
  46              	@ 485 "Core/Src/SEGGER_RTT.c" 1
  47 002e BFF35F8F 		dmb
  48              	
  49              	@ 0 "" 2
  50              		.thumb
  51              		.syntax unified
  52 0032 E560     		str	r5, [r4, #12]
  53 0034 BDE8F081 		pop	{r4, r5, r6, r7, r8, pc}
  55              		.section	.text._WriteBlocking,"ax",%progbits
  56              		.align	1
  57              		.p2align 2,,3
  58              		.syntax unified
  59              		.thumb
ARM GAS  /var/folders/lp/x54gwt890xv47sdkqj1k04q40000gn/T//ccBB4tGb.s 			page 2


  60              		.thumb_func
  62              	_WriteBlocking:
  63              		@ args = 0, pretend = 0, frame = 0
  64              		@ frame_needed = 0, uses_anonymous_args = 0
  65 0000 2DE9F843 		push	{r3, r4, r5, r6, r7, r8, r9, lr}
  66 0004 0646     		mov	r6, r0
  67 0006 D0E90204 		ldrd	r0, r4, [r0, #8]
  68 000a 8946     		mov	r9, r1
  69 000c 1746     		mov	r7, r2
  70 000e 4FF00008 		mov	r8, #0
  71              	.L11:
  72 0012 3369     		ldr	r3, [r6, #16]
  73 0014 9C42     		cmp	r4, r3
  74 0016 03F1FF32 		add	r2, r3, #-1
  75 001a 28BF     		it	cs
  76 001c 03F1FF33 		addcs	r3, r3, #-1
  77 0020 A0EB0405 		sub	r5, r0, r4
  78 0024 2ABF     		itet	cs
  79 0026 1B18     		addcs	r3, r3, r0
  80 0028 131B     		subcc	r3, r2, r4
  81 002a 1B1B     		subcs	r3, r3, r4
  82 002c BD42     		cmp	r5, r7
  83 002e 28BF     		it	cs
  84 0030 3D46     		movcs	r5, r7
  85 0032 9D42     		cmp	r5, r3
  86 0034 7068     		ldr	r0, [r6, #4]
  87 0036 28BF     		it	cs
  88 0038 1D46     		movcs	r5, r3
  89 003a 4946     		mov	r1, r9
  90 003c 2A46     		mov	r2, r5
  91 003e 2044     		add	r0, r0, r4
  92 0040 FFF7FEFF 		bl	memcpy
  93 0044 B068     		ldr	r0, [r6, #8]
  94 0046 2C44     		add	r4, r4, r5
  95 0048 A844     		add	r8, r8, r5
  96 004a A944     		add	r9, r9, r5
  97 004c 7F1B     		subs	r7, r7, r5
  98 004e A042     		cmp	r0, r4
  99 0050 08BF     		it	eq
 100 0052 0024     		moveq	r4, #0
 101              		.syntax unified
 102              	@ 412 "Core/Src/SEGGER_RTT.c" 1
 103 0054 BFF35F8F 		dmb
 104              	
 105              	@ 0 "" 2
 106              		.thumb
 107              		.syntax unified
 108 0058 F460     		str	r4, [r6, #12]
 109 005a 002F     		cmp	r7, #0
 110 005c D9D1     		bne	.L11
 111 005e 4046     		mov	r0, r8
 112 0060 BDE8F883 		pop	{r3, r4, r5, r6, r7, r8, r9, pc}
 114              		.section	.rodata._DoInit.str1.4,"aMS",%progbits,1
 115              		.align	2
 116              	.LC0:
 117 0000 5465726D 		.ascii	"Terminal\000"
 117      696E616C 
ARM GAS  /var/folders/lp/x54gwt890xv47sdkqj1k04q40000gn/T//ccBB4tGb.s 			page 3


 117      00
 118              		.section	.text._DoInit,"ax",%progbits
 119              		.align	1
 120              		.p2align 2,,3
 121              		.syntax unified
 122              		.thumb
 123              		.thumb_func
 125              	_DoInit:
 126              		@ args = 0, pretend = 0, frame = 0
 127              		@ frame_needed = 0, uses_anonymous_args = 0
 128 0000 10B5     		push	{r4, lr}
 129 0002 154C     		ldr	r4, .L19
 130 0004 A822     		movs	r2, #168
 131 0006 0021     		movs	r1, #0
 132 0008 2046     		mov	r0, r4
 133 000a FFF7FEFF 		bl	memset
 134 000e 0321     		movs	r1, #3
 135 0010 2161     		str	r1, [r4, #16]
 136 0012 124A     		ldr	r2, .L19+4
 137 0014 6161     		str	r1, [r4, #20]
 138 0016 1248     		ldr	r0, .L19+8
 139 0018 A261     		str	r2, [r4, #24]
 140 001a 4FF48061 		mov	r1, #1024
 141 001e E061     		str	r0, [r4, #28]
 142 0020 0023     		movs	r3, #0
 143 0022 2162     		str	r1, [r4, #32]
 144 0024 0F48     		ldr	r0, .L19+12
 145 0026 A362     		str	r3, [r4, #40]
 146 0028 1021     		movs	r1, #16
 147 002a 6362     		str	r3, [r4, #36]
 148 002c E362     		str	r3, [r4, #44]
 149 002e 2266     		str	r2, [r4, #96]
 150 0030 6066     		str	r0, [r4, #100]
 151 0032 A166     		str	r1, [r4, #104]
 152 0034 2367     		str	r3, [r4, #112]
 153 0036 E366     		str	r3, [r4, #108]
 154 0038 6367     		str	r3, [r4, #116]
 155              		.syntax unified
 156              	@ 348 "Core/Src/SEGGER_RTT.c" 1
 157 003a BFF35F8F 		dmb
 158              	
 159              	@ 0 "" 2
 160              		.thumb
 161              		.syntax unified
 162 003e 0A4B     		ldr	r3, .L19+16
 163 0040 A3F1100C 		sub	ip, r3, #16
 164 0044 1846     		mov	r0, r3
 165              	.L16:
 166 0046 C21A     		subs	r2, r0, r3
 167 0048 13F8011D 		ldrb	r1, [r3, #-1]!	@ zero_extendqisi2
 168 004c A154     		strb	r1, [r4, r2]
 169 004e 6345     		cmp	r3, ip
 170 0050 F9D1     		bne	.L16
 171              		.syntax unified
 172              	@ 352 "Core/Src/SEGGER_RTT.c" 1
 173 0052 BFF35F8F 		dmb
 174              	
ARM GAS  /var/folders/lp/x54gwt890xv47sdkqj1k04q40000gn/T//ccBB4tGb.s 			page 4


 175              	@ 0 "" 2
 176              		.thumb
 177              		.syntax unified
 178 0056 10BD     		pop	{r4, pc}
 179              	.L20:
 180              		.align	2
 181              	.L19:
 182 0058 00000000 		.word	_SEGGER_RTT
 183 005c 00000000 		.word	.LC0
 184 0060 00000000 		.word	_acUpBuffer
 185 0064 00000000 		.word	_acDownBuffer
 186 0068 10000000 		.word	_aInitStr.0+16
 188              		.section	.text.SEGGER_RTT_ReadUpBufferNoLock,"ax",%progbits
 189              		.align	1
 190              		.p2align 2,,3
 191              		.global	SEGGER_RTT_ReadUpBufferNoLock
 192              		.syntax unified
 193              		.thumb
 194              		.thumb_func
 196              	SEGGER_RTT_ReadUpBufferNoLock:
 197              		@ args = 0, pretend = 0, frame = 8
 198              		@ frame_needed = 0, uses_anonymous_args = 0
 199 0000 2DE9F04F 		push	{r4, r5, r6, r7, r8, r9, r10, fp, lr}
 200 0004 DFF8B090 		ldr	r9, .L38
 201 0008 99F80030 		ldrb	r3, [r9]	@ zero_extendqisi2
 202 000c 83B0     		sub	sp, sp, #12
 203 000e 0446     		mov	r4, r0
 204 0010 8A46     		mov	r10, r1
 205 0012 9046     		mov	r8, r2
 206 0014 002B     		cmp	r3, #0
 207 0016 4CD0     		beq	.L36
 208              	.L22:
 209 0018 04EB4407 		add	r7, r4, r4, lsl #1
 210 001c 09EBC707 		add	r7, r9, r7, lsl #3
 211 0020 6300     		lsls	r3, r4, #1
 212 0022 BE6A     		ldr	r6, [r7, #40]
 213 0024 7D6A     		ldr	r5, [r7, #36]
 214 0026 0193     		str	r3, [sp, #4]
 215 0028 AE42     		cmp	r6, r5
 216 002a 1FD8     		bhi	.L37
 217 002c AD1B     		subs	r5, r5, r6
 218 002e 4545     		cmp	r5, r8
 219 0030 28BF     		it	cs
 220 0032 4546     		movcs	r5, r8
 221 0034 1DB9     		cbnz	r5, .L31
 222              	.L21:
 223 0036 2846     		mov	r0, r5
 224 0038 03B0     		add	sp, sp, #12
 225              		@ sp needed
 226 003a BDE8F08F 		pop	{r4, r5, r6, r7, r8, r9, r10, fp, pc}
 227              	.L31:
 228 003e AB46     		mov	fp, r5
 229 0040 631C     		adds	r3, r4, #1
 230              	.L29:
 231 0042 03EB4303 		add	r3, r3, r3, lsl #1
 232 0046 09EBC303 		add	r3, r9, r3, lsl #3
 233 004a 5046     		mov	r0, r10
ARM GAS  /var/folders/lp/x54gwt890xv47sdkqj1k04q40000gn/T//ccBB4tGb.s 			page 5


 234 004c 5968     		ldr	r1, [r3, #4]
 235 004e 2A46     		mov	r2, r5
 236 0050 3144     		add	r1, r1, r6
 237 0052 FFF7FEFF 		bl	memcpy
 238 0056 2E44     		add	r6, r6, r5
 239              	.L25:
 240 0058 BBF1000F 		cmp	fp, #0
 241 005c 04D0     		beq	.L28
 242 005e 6300     		lsls	r3, r4, #1
 243 0060 2344     		add	r3, r3, r4
 244 0062 09EBC304 		add	r4, r9, r3, lsl #3
 245 0066 A662     		str	r6, [r4, #40]
 246              	.L28:
 247 0068 5D46     		mov	r5, fp
 248 006a E4E7     		b	.L21
 249              	.L37:
 250 006c 631C     		adds	r3, r4, #1
 251 006e 03EB4302 		add	r2, r3, r3, lsl #1
 252 0072 09EBC202 		add	r2, r9, r2, lsl #3
 253 0076 5046     		mov	r0, r10
 254 0078 5168     		ldr	r1, [r2, #4]
 255 007a 3A6A     		ldr	r2, [r7, #32]
 256 007c 0193     		str	r3, [sp, #4]
 257 007e A2EB060B 		sub	fp, r2, r6
 258 0082 C345     		cmp	fp, r8
 259 0084 28BF     		it	cs
 260 0086 C346     		movcs	fp, r8
 261 0088 3144     		add	r1, r1, r6
 262 008a 5A46     		mov	r2, fp
 263 008c FFF7FEFF 		bl	memcpy
 264 0090 3A6A     		ldr	r2, [r7, #32]
 265 0092 019B     		ldr	r3, [sp, #4]
 266 0094 5E44     		add	r6, r6, fp
 267 0096 B242     		cmp	r2, r6
 268 0098 A8EB0B08 		sub	r8, r8, fp
 269 009c 14BF     		ite	ne
 270 009e AD1B     		subne	r5, r5, r6
 271 00a0 0026     		moveq	r6, #0
 272 00a2 4545     		cmp	r5, r8
 273 00a4 28BF     		it	cs
 274 00a6 4546     		movcs	r5, r8
 275 00a8 002D     		cmp	r5, #0
 276 00aa D5D0     		beq	.L25
 277 00ac DA44     		add	r10, r10, fp
 278 00ae AB44     		add	fp, fp, r5
 279 00b0 C7E7     		b	.L29
 280              	.L36:
 281 00b2 FFF7FEFF 		bl	_DoInit
 282 00b6 AFE7     		b	.L22
 283              	.L39:
 284              		.align	2
 285              	.L38:
 286 00b8 00000000 		.word	_SEGGER_RTT
 288              		.section	.text.SEGGER_RTT_ReadNoLock,"ax",%progbits
 289              		.align	1
 290              		.p2align 2,,3
 291              		.global	SEGGER_RTT_ReadNoLock
ARM GAS  /var/folders/lp/x54gwt890xv47sdkqj1k04q40000gn/T//ccBB4tGb.s 			page 6


 292              		.syntax unified
 293              		.thumb
 294              		.thumb_func
 296              	SEGGER_RTT_ReadNoLock:
 297              		@ args = 0, pretend = 0, frame = 8
 298              		@ frame_needed = 0, uses_anonymous_args = 0
 299 0000 2DE9F04F 		push	{r4, r5, r6, r7, r8, r9, r10, fp, lr}
 300 0004 DFF8AC90 		ldr	r9, .L57
 301 0008 99F80030 		ldrb	r3, [r9]	@ zero_extendqisi2
 302 000c 83B0     		sub	sp, sp, #12
 303 000e 0546     		mov	r5, r0
 304 0010 0F46     		mov	r7, r1
 305 0012 1446     		mov	r4, r2
 306 0014 002B     		cmp	r3, #0
 307 0016 49D0     		beq	.L55
 308              	.L41:
 309 0018 05EB4503 		add	r3, r5, r5, lsl #1
 310 001c 09EBC303 		add	r3, r9, r3, lsl #3
 311 0020 4FEA4508 		lsl	r8, r5, #1
 312 0024 D3F86CB0 		ldr	fp, [r3, #108]
 313 0028 1E6F     		ldr	r6, [r3, #112]
 314 002a 5E45     		cmp	r6, fp
 315 002c 1FD8     		bhi	.L56
 316 002e ABEB060B 		sub	fp, fp, r6
 317 0032 5C45     		cmp	r4, fp
 318 0034 28BF     		it	cs
 319 0036 5C46     		movcs	r4, fp
 320 0038 1CB9     		cbnz	r4, .L50
 321              	.L40:
 322 003a 2046     		mov	r0, r4
 323 003c 03B0     		add	sp, sp, #12
 324              		@ sp needed
 325 003e BDE8F08F 		pop	{r4, r5, r6, r7, r8, r9, r10, fp, pc}
 326              	.L50:
 327 0042 A246     		mov	r10, r4
 328              	.L48:
 329 0044 08EB0503 		add	r3, r8, r5
 330 0048 09EBC303 		add	r3, r9, r3, lsl #3
 331 004c 3846     		mov	r0, r7
 332 004e 596E     		ldr	r1, [r3, #100]
 333 0050 2246     		mov	r2, r4
 334 0052 3144     		add	r1, r1, r6
 335 0054 FFF7FEFF 		bl	memcpy
 336 0058 2644     		add	r6, r6, r4
 337              	.L44:
 338 005a BAF1000F 		cmp	r10, #0
 339 005e 04D0     		beq	.L47
 340 0060 A844     		add	r8, r8, r5
 341 0062 09EBC808 		add	r8, r9, r8, lsl #3
 342 0066 C8F87060 		str	r6, [r8, #112]
 343              	.L47:
 344 006a 5446     		mov	r4, r10
 345 006c E5E7     		b	.L40
 346              	.L56:
 347 006e 9A6E     		ldr	r2, [r3, #104]
 348 0070 596E     		ldr	r1, [r3, #100]
 349 0072 0193     		str	r3, [sp, #4]
ARM GAS  /var/folders/lp/x54gwt890xv47sdkqj1k04q40000gn/T//ccBB4tGb.s 			page 7


 350 0074 A2EB060A 		sub	r10, r2, r6
 351 0078 A245     		cmp	r10, r4
 352 007a 28BF     		it	cs
 353 007c A246     		movcs	r10, r4
 354 007e 3144     		add	r1, r1, r6
 355 0080 5246     		mov	r2, r10
 356 0082 3846     		mov	r0, r7
 357 0084 FFF7FEFF 		bl	memcpy
 358 0088 019B     		ldr	r3, [sp, #4]
 359 008a 9B6E     		ldr	r3, [r3, #104]
 360 008c 5644     		add	r6, r6, r10
 361 008e B342     		cmp	r3, r6
 362 0090 A4EB0A04 		sub	r4, r4, r10
 363 0094 14BF     		ite	ne
 364 0096 ABEB060B 		subne	fp, fp, r6
 365 009a 0026     		moveq	r6, #0
 366 009c 5C45     		cmp	r4, fp
 367 009e 28BF     		it	cs
 368 00a0 5C46     		movcs	r4, fp
 369 00a2 002C     		cmp	r4, #0
 370 00a4 D9D0     		beq	.L44
 371 00a6 5744     		add	r7, r7, r10
 372 00a8 A244     		add	r10, r10, r4
 373 00aa CBE7     		b	.L48
 374              	.L55:
 375 00ac FFF7FEFF 		bl	_DoInit
 376 00b0 B2E7     		b	.L41
 377              	.L58:
 378 00b2 00BF     		.align	2
 379              	.L57:
 380 00b4 00000000 		.word	_SEGGER_RTT
 382              		.section	.text.SEGGER_RTT_ReadUpBuffer,"ax",%progbits
 383              		.align	1
 384              		.p2align 2,,3
 385              		.global	SEGGER_RTT_ReadUpBuffer
 386              		.syntax unified
 387              		.thumb
 388              		.thumb_func
 390              	SEGGER_RTT_ReadUpBuffer:
 391              		@ args = 0, pretend = 0, frame = 0
 392              		@ frame_needed = 0, uses_anonymous_args = 0
 393 0000 10B5     		push	{r4, lr}
 394 0002 0B46     		mov	r3, r1
 395              		.syntax unified
 396              	@ 765 "Core/Src/SEGGER_RTT.c" 1
 397 0004 EFF31184 		mrs   r4, basepri  
 398 0008 4FF02001 		mov   r1, #32       
 399 000c 81F31188 		msr   basepri, r1  
 400              		
 401              	@ 0 "" 2
 402              		.thumb
 403              		.syntax unified
 404 0010 1946     		mov	r1, r3
 405 0012 FFF7FEFF 		bl	SEGGER_RTT_ReadUpBufferNoLock
 406              		.syntax unified
 407              	@ 773 "Core/Src/SEGGER_RTT.c" 1
 408 0016 84F31188 		msr   basepri, r4  
ARM GAS  /var/folders/lp/x54gwt890xv47sdkqj1k04q40000gn/T//ccBB4tGb.s 			page 8


 409              		
 410              	@ 0 "" 2
 411              		.thumb
 412              		.syntax unified
 413 001a 10BD     		pop	{r4, pc}
 415              		.section	.text.SEGGER_RTT_Read,"ax",%progbits
 416              		.align	1
 417              		.p2align 2,,3
 418              		.global	SEGGER_RTT_Read
 419              		.syntax unified
 420              		.thumb
 421              		.thumb_func
 423              	SEGGER_RTT_Read:
 424              		@ args = 0, pretend = 0, frame = 0
 425              		@ frame_needed = 0, uses_anonymous_args = 0
 426 0000 10B5     		push	{r4, lr}
 427 0002 0B46     		mov	r3, r1
 428              		.syntax unified
 429              	@ 797 "Core/Src/SEGGER_RTT.c" 1
 430 0004 EFF31184 		mrs   r4, basepri  
 431 0008 4FF02001 		mov   r1, #32       
 432 000c 81F31188 		msr   basepri, r1  
 433              		
 434              	@ 0 "" 2
 435              		.thumb
 436              		.syntax unified
 437 0010 1946     		mov	r1, r3
 438 0012 FFF7FEFF 		bl	SEGGER_RTT_ReadNoLock
 439              		.syntax unified
 440              	@ 805 "Core/Src/SEGGER_RTT.c" 1
 441 0016 84F31188 		msr   basepri, r4  
 442              		
 443              	@ 0 "" 2
 444              		.thumb
 445              		.syntax unified
 446 001a 10BD     		pop	{r4, pc}
 448              		.section	.text.SEGGER_RTT_WriteWithOverwriteNoLock,"ax",%progbits
 449              		.align	1
 450              		.p2align 2,,3
 451              		.global	SEGGER_RTT_WriteWithOverwriteNoLock
 452              		.syntax unified
 453              		.thumb
 454              		.thumb_func
 456              	SEGGER_RTT_WriteWithOverwriteNoLock:
 457              		@ args = 0, pretend = 0, frame = 0
 458              		@ frame_needed = 0, uses_anonymous_args = 0
 459 0000 2DE9F84F 		push	{r3, r4, r5, r6, r7, r8, r9, r10, fp, lr}
 460 0004 2E4F     		ldr	r7, .L76
 461 0006 1546     		mov	r5, r2
 462 0008 00EB4002 		add	r2, r0, r0, lsl #1
 463 000c 07EBC202 		add	r2, r7, r2, lsl #3
 464 0010 0E46     		mov	r6, r1
 465 0012 536A     		ldr	r3, [r2, #36]
 466 0014 916A     		ldr	r1, [r2, #40]
 467 0016 8B42     		cmp	r3, r1
 468 0018 8146     		mov	r9, r0
 469 001a 4FEA400A 		lsl	r10, r0, #1
ARM GAS  /var/folders/lp/x54gwt890xv47sdkqj1k04q40000gn/T//ccBB4tGb.s 			page 9


 470 001e 4BD0     		beq	.L75
 471 0020 916A     		ldr	r1, [r2, #40]
 472 0022 8B42     		cmp	r3, r1
 473 0024 25BF     		ittet	cs
 474 0026 916A     		ldrcs	r1, [r2, #40]
 475 0028 126A     		ldrcs	r2, [r2, #32]
 476 002a 926A     		ldrcc	r2, [r2, #40]
 477 002c 5218     		addcs	r2, r2, r1
 478 002e 013A     		subs	r2, r2, #1
 479 0030 D21A     		subs	r2, r2, r3
 480              	.L65:
 481 0032 AA42     		cmp	r2, r5
 482 0034 11D2     		bcs	.L67
 483 0036 0AEB0901 		add	r1, r10, r9
 484 003a 07EBC101 		add	r1, r7, r1, lsl #3
 485 003e 886A     		ldr	r0, [r1, #40]
 486 0040 2844     		add	r0, r0, r5
 487 0042 821A     		subs	r2, r0, r2
 488 0044 8A62     		str	r2, [r1, #40]
 489 0046 8A6A     		ldr	r2, [r1, #40]
 490 0048 086A     		ldr	r0, [r1, #32]
 491 004a 8242     		cmp	r2, r0
 492 004c 05D3     		bcc	.L67
 493              	.L68:
 494 004e 8A6A     		ldr	r2, [r1, #40]
 495 0050 121A     		subs	r2, r2, r0
 496 0052 8A62     		str	r2, [r1, #40]
 497 0054 8A6A     		ldr	r2, [r1, #40]
 498 0056 8242     		cmp	r2, r0
 499 0058 F9D2     		bcs	.L68
 500              	.L67:
 501 005a 0AEB0908 		add	r8, r10, r9
 502 005e 07EBC802 		add	r2, r7, r8, lsl #3
 503 0062 09F1010B 		add	fp, r9, #1
 504 0066 146A     		ldr	r4, [r2, #32]
 505 0068 0BEB4B0B 		add	fp, fp, fp, lsl #1
 506 006c E41A     		subs	r4, r4, r3
 507 006e 07EBCB0B 		add	fp, r7, fp, lsl #3
 508 0072 0DE0     		b	.L71
 509              	.L69:
 510 0074 FFF7FEFF 		bl	memcpy
 511 0078 2644     		add	r6, r6, r4
 512              		.syntax unified
 513              	@ 897 "Core/Src/SEGGER_RTT.c" 1
 514 007a BFF35F8F 		dmb
 515              	
 516              	@ 0 "" 2
 517              		.thumb
 518              		.syntax unified
 519 007e 07EBC803 		add	r3, r7, r8, lsl #3
 520 0082 0022     		movs	r2, #0
 521 0084 196A     		ldr	r1, [r3, #32]
 522 0086 5A62     		str	r2, [r3, #36]
 523 0088 2D1B     		subs	r5, r5, r4
 524 008a 1346     		mov	r3, r2
 525 008c 4C1E     		subs	r4, r1, #1
 526 008e 8DB1     		cbz	r5, .L63
ARM GAS  /var/folders/lp/x54gwt890xv47sdkqj1k04q40000gn/T//ccBB4tGb.s 			page 10


 527              	.L71:
 528 0090 DBF80400 		ldr	r0, [fp, #4]
 529 0094 A542     		cmp	r5, r4
 530 0096 2246     		mov	r2, r4
 531 0098 3146     		mov	r1, r6
 532 009a 1844     		add	r0, r0, r3
 533 009c EAD2     		bcs	.L69
 534 009e 2A46     		mov	r2, r5
 535 00a0 FFF7FEFF 		bl	memcpy
 536              		.syntax unified
 537              	@ 878 "Core/Src/SEGGER_RTT.c" 1
 538 00a4 BFF35F8F 		dmb
 539              	
 540              	@ 0 "" 2
 541              		.thumb
 542              		.syntax unified
 543 00a8 CA44     		add	r10, r10, r9
 544 00aa 07EBCA07 		add	r7, r7, r10, lsl #3
 545 00ae 7B6A     		ldr	r3, [r7, #36]
 546 00b0 2B44     		add	r3, r3, r5
 547 00b2 7B62     		str	r3, [r7, #36]
 548              	.L63:
 549 00b4 BDE8F88F 		pop	{r3, r4, r5, r6, r7, r8, r9, r10, fp, pc}
 550              	.L75:
 551 00b8 126A     		ldr	r2, [r2, #32]
 552 00ba 013A     		subs	r2, r2, #1
 553 00bc B9E7     		b	.L65
 554              	.L77:
 555 00be 00BF     		.align	2
 556              	.L76:
 557 00c0 00000000 		.word	_SEGGER_RTT
 559              		.section	.text.SEGGER_RTT_WriteDownBufferNoLock,"ax",%progbits
 560              		.align	1
 561              		.p2align 2,,3
 562              		.global	SEGGER_RTT_WriteDownBufferNoLock
 563              		.syntax unified
 564              		.thumb
 565              		.thumb_func
 567              	SEGGER_RTT_WriteDownBufferNoLock:
 568              		@ args = 0, pretend = 0, frame = 0
 569              		@ frame_needed = 0, uses_anonymous_args = 0
 570 0000 38B5     		push	{r3, r4, r5, lr}
 571 0002 1B4B     		ldr	r3, .L89
 572 0004 00EB4000 		add	r0, r0, r0, lsl #1
 573 0008 03EBC000 		add	r0, r3, r0, lsl #3
 574 000c 8C46     		mov	ip, r1
 575 000e 4469     		ldr	r4, [r0, #20]
 576 0010 012C     		cmp	r4, #1
 577 0012 1546     		mov	r5, r2
 578 0014 12D0     		beq	.L79
 579 0016 022C     		cmp	r4, #2
 580 0018 0CD0     		beq	.L80
 581 001a FCB9     		cbnz	r4, .L86
 582 001c 0369     		ldr	r3, [r0, #16]
 583 001e C268     		ldr	r2, [r0, #12]
 584 0020 9342     		cmp	r3, r2
 585 0022 9CBF     		itt	ls
ARM GAS  /var/folders/lp/x54gwt890xv47sdkqj1k04q40000gn/T//ccBB4tGb.s 			page 11


 586 0024 8168     		ldrls	r1, [r0, #8]
 587 0026 5B18     		addls	r3, r3, r1
 588 0028 013B     		subs	r3, r3, #1
 589 002a 9A1A     		subs	r2, r3, r2
 590 002c 9542     		cmp	r5, r2
 591 002e 18D9     		bls	.L88
 592              	.L78:
 593 0030 2046     		mov	r0, r4
 594 0032 38BD     		pop	{r3, r4, r5, pc}
 595              	.L80:
 596 0034 BDE83840 		pop	{r3, r4, r5, lr}
 597 0038 FFF7FEBF 		b	_WriteBlocking
 598              	.L79:
 599 003c 0369     		ldr	r3, [r0, #16]
 600 003e C468     		ldr	r4, [r0, #12]
 601 0040 A342     		cmp	r3, r4
 602 0042 9CBF     		itt	ls
 603 0044 8268     		ldrls	r2, [r0, #8]
 604 0046 9B18     		addls	r3, r3, r2
 605 0048 013B     		subs	r3, r3, #1
 606 004a 1C1B     		subs	r4, r3, r4
 607 004c AC42     		cmp	r4, r5
 608 004e 28BF     		it	cs
 609 0050 2C46     		movcs	r4, r5
 610 0052 2246     		mov	r2, r4
 611 0054 FFF7FEFF 		bl	_WriteNoCheck
 612 0058 2046     		mov	r0, r4
 613 005a 38BD     		pop	{r3, r4, r5, pc}
 614              	.L86:
 615 005c 0024     		movs	r4, #0
 616 005e 2046     		mov	r0, r4
 617 0060 38BD     		pop	{r3, r4, r5, pc}
 618              	.L88:
 619 0062 2A46     		mov	r2, r5
 620 0064 6146     		mov	r1, ip
 621 0066 FFF7FEFF 		bl	_WriteNoCheck
 622 006a 2C46     		mov	r4, r5
 623 006c E0E7     		b	.L78
 624              	.L90:
 625 006e 00BF     		.align	2
 626              	.L89:
 627 0070 60000000 		.word	_SEGGER_RTT+96
 629              		.section	.text.SEGGER_RTT_WriteNoLock,"ax",%progbits
 630              		.align	1
 631              		.p2align 2,,3
 632              		.global	SEGGER_RTT_WriteNoLock
 633              		.syntax unified
 634              		.thumb
 635              		.thumb_func
 637              	SEGGER_RTT_WriteNoLock:
 638              		@ args = 0, pretend = 0, frame = 0
 639              		@ frame_needed = 0, uses_anonymous_args = 0
 640 0000 38B5     		push	{r3, r4, r5, lr}
 641 0002 214B     		ldr	r3, .L102
 642 0004 00EB4004 		add	r4, r0, r0, lsl #1
 643 0008 03EBC40E 		add	lr, r3, r4, lsl #3
 644 000c 0130     		adds	r0, r0, #1
ARM GAS  /var/folders/lp/x54gwt890xv47sdkqj1k04q40000gn/T//ccBB4tGb.s 			page 12


 645 000e DEF82C40 		ldr	r4, [lr, #44]
 646 0012 00EB4000 		add	r0, r0, r0, lsl #1
 647 0016 012C     		cmp	r4, #1
 648 0018 8C46     		mov	ip, r1
 649 001a 1546     		mov	r5, r2
 650 001c 03EBC000 		add	r0, r3, r0, lsl #3
 651 0020 15D0     		beq	.L92
 652 0022 022C     		cmp	r4, #2
 653 0024 0FD0     		beq	.L93
 654 0026 34BB     		cbnz	r4, .L99
 655 0028 DEF82830 		ldr	r3, [lr, #40]
 656 002c DEF82420 		ldr	r2, [lr, #36]
 657 0030 9342     		cmp	r3, r2
 658 0032 9CBF     		itt	ls
 659 0034 DEF82010 		ldrls	r1, [lr, #32]
 660 0038 5B18     		addls	r3, r3, r1
 661 003a 013B     		subs	r3, r3, #1
 662 003c 9A1A     		subs	r2, r3, r2
 663 003e 9542     		cmp	r5, r2
 664 0040 1CD9     		bls	.L101
 665              	.L91:
 666 0042 2046     		mov	r0, r4
 667 0044 38BD     		pop	{r3, r4, r5, pc}
 668              	.L93:
 669 0046 BDE83840 		pop	{r3, r4, r5, lr}
 670 004a FFF7FEBF 		b	_WriteBlocking
 671              	.L92:
 672 004e DEF82830 		ldr	r3, [lr, #40]
 673 0052 DEF82440 		ldr	r4, [lr, #36]
 674 0056 A342     		cmp	r3, r4
 675 0058 9CBF     		itt	ls
 676 005a DEF82010 		ldrls	r1, [lr, #32]
 677 005e 5B18     		addls	r3, r3, r1
 678 0060 013B     		subs	r3, r3, #1
 679 0062 1C1B     		subs	r4, r3, r4
 680 0064 9442     		cmp	r4, r2
 681 0066 28BF     		it	cs
 682 0068 1446     		movcs	r4, r2
 683 006a 2246     		mov	r2, r4
 684 006c 6146     		mov	r1, ip
 685 006e FFF7FEFF 		bl	_WriteNoCheck
 686 0072 2046     		mov	r0, r4
 687 0074 38BD     		pop	{r3, r4, r5, pc}
 688              	.L99:
 689 0076 0024     		movs	r4, #0
 690 0078 2046     		mov	r0, r4
 691 007a 38BD     		pop	{r3, r4, r5, pc}
 692              	.L101:
 693 007c 2A46     		mov	r2, r5
 694 007e 6146     		mov	r1, ip
 695 0080 FFF7FEFF 		bl	_WriteNoCheck
 696 0084 2C46     		mov	r4, r5
 697 0086 DCE7     		b	.L91
 698              	.L103:
 699              		.align	2
 700              	.L102:
 701 0088 00000000 		.word	_SEGGER_RTT
ARM GAS  /var/folders/lp/x54gwt890xv47sdkqj1k04q40000gn/T//ccBB4tGb.s 			page 13


 703              		.section	.text.SEGGER_RTT_WriteDownBuffer,"ax",%progbits
 704              		.align	1
 705              		.p2align 2,,3
 706              		.global	SEGGER_RTT_WriteDownBuffer
 707              		.syntax unified
 708              		.thumb
 709              		.thumb_func
 711              	SEGGER_RTT_WriteDownBuffer:
 712              		@ args = 0, pretend = 0, frame = 0
 713              		@ frame_needed = 0, uses_anonymous_args = 0
 714 0000 F8B5     		push	{r3, r4, r5, r6, r7, lr}
 715 0002 0B4B     		ldr	r3, .L108
 716 0004 1B78     		ldrb	r3, [r3]	@ zero_extendqisi2
 717 0006 0446     		mov	r4, r0
 718 0008 0D46     		mov	r5, r1
 719 000a 1646     		mov	r6, r2
 720 000c 6BB1     		cbz	r3, .L107
 721              	.L105:
 722              		.syntax unified
 723              	@ 1179 "Core/Src/SEGGER_RTT.c" 1
 724 000e EFF31187 		mrs   r7, basepri  
 725 0012 4FF02001 		mov   r1, #32       
 726 0016 81F31188 		msr   basepri, r1  
 727              		
 728              	@ 0 "" 2
 729              		.thumb
 730              		.syntax unified
 731 001a 3246     		mov	r2, r6
 732 001c 2946     		mov	r1, r5
 733 001e 2046     		mov	r0, r4
 734 0020 FFF7FEFF 		bl	SEGGER_RTT_WriteDownBufferNoLock
 735              		.syntax unified
 736              	@ 1181 "Core/Src/SEGGER_RTT.c" 1
 737 0024 87F31188 		msr   basepri, r7  
 738              		
 739              	@ 0 "" 2
 740              		.thumb
 741              		.syntax unified
 742 0028 F8BD     		pop	{r3, r4, r5, r6, r7, pc}
 743              	.L107:
 744 002a FFF7FEFF 		bl	_DoInit
 745 002e EEE7     		b	.L105
 746              	.L109:
 747              		.align	2
 748              	.L108:
 749 0030 00000000 		.word	_SEGGER_RTT
 751              		.section	.text.SEGGER_RTT_Write,"ax",%progbits
 752              		.align	1
 753              		.p2align 2,,3
 754              		.global	SEGGER_RTT_Write
 755              		.syntax unified
 756              		.thumb
 757              		.thumb_func
 759              	SEGGER_RTT_Write:
 760              		@ args = 0, pretend = 0, frame = 0
 761              		@ frame_needed = 0, uses_anonymous_args = 0
 762 0000 F8B5     		push	{r3, r4, r5, r6, r7, lr}
ARM GAS  /var/folders/lp/x54gwt890xv47sdkqj1k04q40000gn/T//ccBB4tGb.s 			page 14


 763 0002 0B4B     		ldr	r3, .L114
 764 0004 1B78     		ldrb	r3, [r3]	@ zero_extendqisi2
 765 0006 0446     		mov	r4, r0
 766 0008 0D46     		mov	r5, r1
 767 000a 1646     		mov	r6, r2
 768 000c 6BB1     		cbz	r3, .L113
 769              	.L111:
 770              		.syntax unified
 771              	@ 1208 "Core/Src/SEGGER_RTT.c" 1
 772 000e EFF31187 		mrs   r7, basepri  
 773 0012 4FF02001 		mov   r1, #32       
 774 0016 81F31188 		msr   basepri, r1  
 775              		
 776              	@ 0 "" 2
 777              		.thumb
 778              		.syntax unified
 779 001a 3246     		mov	r2, r6
 780 001c 2946     		mov	r1, r5
 781 001e 2046     		mov	r0, r4
 782 0020 FFF7FEFF 		bl	SEGGER_RTT_WriteNoLock
 783              		.syntax unified
 784              	@ 1210 "Core/Src/SEGGER_RTT.c" 1
 785 0024 87F31188 		msr   basepri, r7  
 786              		
 787              	@ 0 "" 2
 788              		.thumb
 789              		.syntax unified
 790 0028 F8BD     		pop	{r3, r4, r5, r6, r7, pc}
 791              	.L113:
 792 002a FFF7FEFF 		bl	_DoInit
 793 002e EEE7     		b	.L111
 794              	.L115:
 795              		.align	2
 796              	.L114:
 797 0030 00000000 		.word	_SEGGER_RTT
 799              		.section	.text.SEGGER_RTT_WriteString,"ax",%progbits
 800              		.align	1
 801              		.p2align 2,,3
 802              		.global	SEGGER_RTT_WriteString
 803              		.syntax unified
 804              		.thumb
 805              		.thumb_func
 807              	SEGGER_RTT_WriteString:
 808              		@ args = 0, pretend = 0, frame = 0
 809              		@ frame_needed = 0, uses_anonymous_args = 0
 810 0000 F8B5     		push	{r3, r4, r5, r6, r7, lr}
 811 0002 0546     		mov	r5, r0
 812 0004 0846     		mov	r0, r1
 813 0006 0C46     		mov	r4, r1
 814 0008 FFF7FEFF 		bl	strlen
 815 000c 0A4B     		ldr	r3, .L120
 816 000e 1B78     		ldrb	r3, [r3]	@ zero_extendqisi2
 817 0010 0646     		mov	r6, r0
 818 0012 6BB1     		cbz	r3, .L119
 819              	.L117:
 820              		.syntax unified
 821              	@ 1208 "Core/Src/SEGGER_RTT.c" 1
ARM GAS  /var/folders/lp/x54gwt890xv47sdkqj1k04q40000gn/T//ccBB4tGb.s 			page 15


 822 0014 EFF31187 		mrs   r7, basepri  
 823 0018 4FF02001 		mov   r1, #32       
 824 001c 81F31188 		msr   basepri, r1  
 825              		
 826              	@ 0 "" 2
 827              		.thumb
 828              		.syntax unified
 829 0020 3246     		mov	r2, r6
 830 0022 2146     		mov	r1, r4
 831 0024 2846     		mov	r0, r5
 832 0026 FFF7FEFF 		bl	SEGGER_RTT_WriteNoLock
 833              		.syntax unified
 834              	@ 1210 "Core/Src/SEGGER_RTT.c" 1
 835 002a 87F31188 		msr   basepri, r7  
 836              		
 837              	@ 0 "" 2
 838              		.thumb
 839              		.syntax unified
 840 002e F8BD     		pop	{r3, r4, r5, r6, r7, pc}
 841              	.L119:
 842 0030 FFF7FEFF 		bl	_DoInit
 843 0034 EEE7     		b	.L117
 844              	.L121:
 845 0036 00BF     		.align	2
 846              	.L120:
 847 0038 00000000 		.word	_SEGGER_RTT
 849              		.section	.text.SEGGER_RTT_PutCharSkipNoLock,"ax",%progbits
 850              		.align	1
 851              		.p2align 2,,3
 852              		.global	SEGGER_RTT_PutCharSkipNoLock
 853              		.syntax unified
 854              		.thumb
 855              		.thumb_func
 857              	SEGGER_RTT_PutCharSkipNoLock:
 858              		@ args = 0, pretend = 0, frame = 0
 859              		@ frame_needed = 0, uses_anonymous_args = 0
 860              		@ link register save eliminated.
 861 0000 F0B4     		push	{r4, r5, r6, r7}
 862 0002 0F4C     		ldr	r4, .L128
 863 0004 00EB4003 		add	r3, r0, r0, lsl #1
 864 0008 04EBC303 		add	r3, r4, r3, lsl #3
 865 000c 5D6A     		ldr	r5, [r3, #36]
 866 000e 1F6A     		ldr	r7, [r3, #32]
 867 0010 9E6A     		ldr	r6, [r3, #40]
 868 0012 6A1C     		adds	r2, r5, #1
 869 0014 9742     		cmp	r7, r2
 870 0016 08BF     		it	eq
 871 0018 0022     		moveq	r2, #0
 872 001a 9642     		cmp	r6, r2
 873 001c 0CD0     		beq	.L126
 874 001e 0130     		adds	r0, r0, #1
 875 0020 00EB4000 		add	r0, r0, r0, lsl #1
 876 0024 04EBC004 		add	r4, r4, r0, lsl #3
 877 0028 6068     		ldr	r0, [r4, #4]
 878 002a 4155     		strb	r1, [r0, r5]
 879              		.syntax unified
 880              	@ 1286 "Core/Src/SEGGER_RTT.c" 1
ARM GAS  /var/folders/lp/x54gwt890xv47sdkqj1k04q40000gn/T//ccBB4tGb.s 			page 16


 881 002c BFF35F8F 		dmb
 882              	
 883              	@ 0 "" 2
 884              		.thumb
 885              		.syntax unified
 886 0030 0120     		movs	r0, #1
 887 0032 F0BC     		pop	{r4, r5, r6, r7}
 888 0034 5A62     		str	r2, [r3, #36]
 889 0036 7047     		bx	lr
 890              	.L126:
 891 0038 0020     		movs	r0, #0
 892 003a F0BC     		pop	{r4, r5, r6, r7}
 893 003c 7047     		bx	lr
 894              	.L129:
 895 003e 00BF     		.align	2
 896              	.L128:
 897 0040 00000000 		.word	_SEGGER_RTT
 899              		.section	.text.SEGGER_RTT_PutCharSkip,"ax",%progbits
 900              		.align	1
 901              		.p2align 2,,3
 902              		.global	SEGGER_RTT_PutCharSkip
 903              		.syntax unified
 904              		.thumb
 905              		.thumb_func
 907              	SEGGER_RTT_PutCharSkip:
 908              		@ args = 0, pretend = 0, frame = 0
 909              		@ frame_needed = 0, uses_anonymous_args = 0
 910 0000 F8B5     		push	{r3, r4, r5, r6, r7, lr}
 911 0002 164D     		ldr	r5, .L138
 912 0004 2B78     		ldrb	r3, [r5]	@ zero_extendqisi2
 913 0006 0446     		mov	r4, r0
 914 0008 0E46     		mov	r6, r1
 915 000a 23B3     		cbz	r3, .L137
 916              	.L131:
 917              		.syntax unified
 918              	@ 1323 "Core/Src/SEGGER_RTT.c" 1
 919 000c EFF3118C 		mrs   ip, basepri  
 920 0010 4FF02001 		mov   r1, #32       
 921 0014 81F31188 		msr   basepri, r1  
 922              		
 923              	@ 0 "" 2
 924              		.thumb
 925              		.syntax unified
 926 0018 04EB4403 		add	r3, r4, r4, lsl #1
 927 001c 05EBC303 		add	r3, r5, r3, lsl #3
 928 0020 D3E90801 		ldrd	r0, r1, [r3, #32]
 929 0024 9F6A     		ldr	r7, [r3, #40]
 930 0026 4A1C     		adds	r2, r1, #1
 931 0028 9042     		cmp	r0, r2
 932 002a 08BF     		it	eq
 933 002c 0022     		moveq	r2, #0
 934 002e 9742     		cmp	r7, r2
 935 0030 0DD0     		beq	.L135
 936 0032 0134     		adds	r4, r4, #1
 937 0034 04EB4404 		add	r4, r4, r4, lsl #1
 938 0038 05EBC405 		add	r5, r5, r4, lsl #3
 939 003c 6868     		ldr	r0, [r5, #4]
ARM GAS  /var/folders/lp/x54gwt890xv47sdkqj1k04q40000gn/T//ccBB4tGb.s 			page 17


 940 003e 4654     		strb	r6, [r0, r1]
 941              		.syntax unified
 942              	@ 1341 "Core/Src/SEGGER_RTT.c" 1
 943 0040 BFF35F8F 		dmb
 944              	
 945              	@ 0 "" 2
 946              		.thumb
 947              		.syntax unified
 948 0044 0120     		movs	r0, #1
 949 0046 5A62     		str	r2, [r3, #36]
 950              		.syntax unified
 951              	@ 1350 "Core/Src/SEGGER_RTT.c" 1
 952 0048 8CF31188 		msr   basepri, ip  
 953              		
 954              	@ 0 "" 2
 955              		.thumb
 956              		.syntax unified
 957 004c F8BD     		pop	{r3, r4, r5, r6, r7, pc}
 958              	.L135:
 959 004e 0020     		movs	r0, #0
 960              		.syntax unified
 961              	@ 1350 "Core/Src/SEGGER_RTT.c" 1
 962 0050 8CF31188 		msr   basepri, ip  
 963              		
 964              	@ 0 "" 2
 965              		.thumb
 966              		.syntax unified
 967 0054 F8BD     		pop	{r3, r4, r5, r6, r7, pc}
 968              	.L137:
 969 0056 FFF7FEFF 		bl	_DoInit
 970 005a D7E7     		b	.L131
 971              	.L139:
 972              		.align	2
 973              	.L138:
 974 005c 00000000 		.word	_SEGGER_RTT
 976              		.section	.text.SEGGER_RTT_PutChar,"ax",%progbits
 977              		.align	1
 978              		.p2align 2,,3
 979              		.global	SEGGER_RTT_PutChar
 980              		.syntax unified
 981              		.thumb
 982              		.thumb_func
 984              	SEGGER_RTT_PutChar:
 985              		@ args = 0, pretend = 0, frame = 0
 986              		@ frame_needed = 0, uses_anonymous_args = 0
 987 0000 F8B5     		push	{r3, r4, r5, r6, r7, lr}
 988 0002 1F4D     		ldr	r5, .L152
 989 0004 2B78     		ldrb	r3, [r5]	@ zero_extendqisi2
 990 0006 0446     		mov	r4, r0
 991 0008 0E46     		mov	r6, r1
 992 000a 002B     		cmp	r3, #0
 993 000c 34D0     		beq	.L151
 994              	.L141:
 995              		.syntax unified
 996              	@ 1382 "Core/Src/SEGGER_RTT.c" 1
 997 000e EFF3118C 		mrs   ip, basepri  
 998 0012 4FF02001 		mov   r1, #32       
ARM GAS  /var/folders/lp/x54gwt890xv47sdkqj1k04q40000gn/T//ccBB4tGb.s 			page 18


 999 0016 81F31188 		msr   basepri, r1  
 1000              		
 1001              	@ 0 "" 2
 1002              		.thumb
 1003              		.syntax unified
 1004 001a 04EB4403 		add	r3, r4, r4, lsl #1
 1005 001e 05EBC303 		add	r3, r5, r3, lsl #3
 1006 0022 D3E90807 		ldrd	r0, r7, [r3, #32]
 1007 0026 D96A     		ldr	r1, [r3, #44]
 1008 0028 7A1C     		adds	r2, r7, #1
 1009 002a 9042     		cmp	r0, r2
 1010 002c 08BF     		it	eq
 1011 002e 0022     		moveq	r2, #0
 1012 0030 0229     		cmp	r1, #2
 1013 0032 4FEA440E 		lsl	lr, r4, #1
 1014 0036 14D0     		beq	.L144
 1015              	.L143:
 1016 0038 0EEB0403 		add	r3, lr, r4
 1017 003c 05EBC303 		add	r3, r5, r3, lsl #3
 1018 0040 996A     		ldr	r1, [r3, #40]
 1019 0042 9142     		cmp	r1, r2
 1020 0044 14D0     		beq	.L147
 1021 0046 0134     		adds	r4, r4, #1
 1022 0048 04EB4404 		add	r4, r4, r4, lsl #1
 1023 004c 05EBC405 		add	r5, r5, r4, lsl #3
 1024 0050 6968     		ldr	r1, [r5, #4]
 1025 0052 CE55     		strb	r6, [r1, r7]
 1026              		.syntax unified
 1027              	@ 1408 "Core/Src/SEGGER_RTT.c" 1
 1028 0054 BFF35F8F 		dmb
 1029              	
 1030              	@ 0 "" 2
 1031              		.thumb
 1032              		.syntax unified
 1033 0058 0120     		movs	r0, #1
 1034 005a 5A62     		str	r2, [r3, #36]
 1035              		.syntax unified
 1036              	@ 1417 "Core/Src/SEGGER_RTT.c" 1
 1037 005c 8CF31188 		msr   basepri, ip  
 1038              		
 1039              	@ 0 "" 2
 1040              		.thumb
 1041              		.syntax unified
 1042 0060 F8BD     		pop	{r3, r4, r5, r6, r7, pc}
 1043              	.L144:
 1044 0062 996A     		ldr	r1, [r3, #40]
 1045 0064 9142     		cmp	r1, r2
 1046 0066 E7D1     		bne	.L143
 1047 0068 996A     		ldr	r1, [r3, #40]
 1048 006a 9142     		cmp	r1, r2
 1049 006c F9D0     		beq	.L144
 1050 006e E3E7     		b	.L143
 1051              	.L147:
 1052 0070 0020     		movs	r0, #0
 1053              		.syntax unified
 1054              	@ 1417 "Core/Src/SEGGER_RTT.c" 1
 1055 0072 8CF31188 		msr   basepri, ip  
ARM GAS  /var/folders/lp/x54gwt890xv47sdkqj1k04q40000gn/T//ccBB4tGb.s 			page 19


 1056              		
 1057              	@ 0 "" 2
 1058              		.thumb
 1059              		.syntax unified
 1060 0076 F8BD     		pop	{r3, r4, r5, r6, r7, pc}
 1061              	.L151:
 1062 0078 FFF7FEFF 		bl	_DoInit
 1063 007c C7E7     		b	.L141
 1064              	.L153:
 1065 007e 00BF     		.align	2
 1066              	.L152:
 1067 0080 00000000 		.word	_SEGGER_RTT
 1069              		.section	.text.SEGGER_RTT_GetKey,"ax",%progbits
 1070              		.align	1
 1071              		.p2align 2,,3
 1072              		.global	SEGGER_RTT_GetKey
 1073              		.syntax unified
 1074              		.thumb
 1075              		.thumb_func
 1077              	SEGGER_RTT_GetKey:
 1078              		@ args = 0, pretend = 0, frame = 8
 1079              		@ frame_needed = 0, uses_anonymous_args = 0
 1080 0000 10B5     		push	{r4, lr}
 1081 0002 82B0     		sub	sp, sp, #8
 1082              		.syntax unified
 1083              	@ 797 "Core/Src/SEGGER_RTT.c" 1
 1084 0004 EFF31184 		mrs   r4, basepri  
 1085 0008 4FF02001 		mov   r1, #32       
 1086 000c 81F31188 		msr   basepri, r1  
 1087              		
 1088              	@ 0 "" 2
 1089              		.thumb
 1090              		.syntax unified
 1091 0010 0122     		movs	r2, #1
 1092 0012 0DF10701 		add	r1, sp, #7
 1093 0016 0020     		movs	r0, #0
 1094 0018 FFF7FEFF 		bl	SEGGER_RTT_ReadNoLock
 1095              		.syntax unified
 1096              	@ 805 "Core/Src/SEGGER_RTT.c" 1
 1097 001c 84F31188 		msr   basepri, r4  
 1098              		
 1099              	@ 0 "" 2
 1100              		.thumb
 1101              		.syntax unified
 1102 0020 0128     		cmp	r0, #1
 1103 0022 0CBF     		ite	eq
 1104 0024 9DF80700 		ldrbeq	r0, [sp, #7]	@ zero_extendqisi2
 1105 0028 4FF0FF30 		movne	r0, #-1
 1106 002c 02B0     		add	sp, sp, #8
 1107              		@ sp needed
 1108 002e 10BD     		pop	{r4, pc}
 1110              		.section	.text.SEGGER_RTT_WaitKey,"ax",%progbits
 1111              		.align	1
 1112              		.p2align 2,,3
 1113              		.global	SEGGER_RTT_WaitKey
 1114              		.syntax unified
 1115              		.thumb
ARM GAS  /var/folders/lp/x54gwt890xv47sdkqj1k04q40000gn/T//ccBB4tGb.s 			page 20


 1116              		.thumb_func
 1118              	SEGGER_RTT_WaitKey:
 1119              		@ args = 0, pretend = 0, frame = 8
 1120              		@ frame_needed = 0, uses_anonymous_args = 0
 1121 0000 10B5     		push	{r4, lr}
 1122 0002 82B0     		sub	sp, sp, #8
 1123              	.L160:
 1124              		.syntax unified
 1125              	@ 797 "Core/Src/SEGGER_RTT.c" 1
 1126 0004 EFF31184 		mrs   r4, basepri  
 1127 0008 4FF02001 		mov   r1, #32       
 1128 000c 81F31188 		msr   basepri, r1  
 1129              		
 1130              	@ 0 "" 2
 1131              		.thumb
 1132              		.syntax unified
 1133 0010 0122     		movs	r2, #1
 1134 0012 0DF10701 		add	r1, sp, #7
 1135 0016 0020     		movs	r0, #0
 1136 0018 FFF7FEFF 		bl	SEGGER_RTT_ReadNoLock
 1137              		.syntax unified
 1138              	@ 805 "Core/Src/SEGGER_RTT.c" 1
 1139 001c 84F31188 		msr   basepri, r4  
 1140              		
 1141              	@ 0 "" 2
 1142              		.thumb
 1143              		.syntax unified
 1144 0020 0128     		cmp	r0, #1
 1145 0022 EFD1     		bne	.L160
 1146 0024 9DF80700 		ldrb	r0, [sp, #7]	@ zero_extendqisi2
 1147 0028 02B0     		add	sp, sp, #8
 1148              		@ sp needed
 1149 002a 10BD     		pop	{r4, pc}
 1151              		.section	.text.SEGGER_RTT_HasKey,"ax",%progbits
 1152              		.align	1
 1153              		.p2align 2,,3
 1154              		.global	SEGGER_RTT_HasKey
 1155              		.syntax unified
 1156              		.thumb
 1157              		.thumb_func
 1159              	SEGGER_RTT_HasKey:
 1160              		@ args = 0, pretend = 0, frame = 0
 1161              		@ frame_needed = 0, uses_anonymous_args = 0
 1162 0000 10B5     		push	{r4, lr}
 1163 0002 064C     		ldr	r4, .L166
 1164 0004 2378     		ldrb	r3, [r4]	@ zero_extendqisi2
 1165 0006 2BB1     		cbz	r3, .L165
 1166              	.L163:
 1167 0008 E36E     		ldr	r3, [r4, #108]
 1168 000a 206F     		ldr	r0, [r4, #112]
 1169 000c C01A     		subs	r0, r0, r3
 1170 000e 18BF     		it	ne
 1171 0010 0120     		movne	r0, #1
 1172 0012 10BD     		pop	{r4, pc}
 1173              	.L165:
 1174 0014 FFF7FEFF 		bl	_DoInit
 1175 0018 F6E7     		b	.L163
ARM GAS  /var/folders/lp/x54gwt890xv47sdkqj1k04q40000gn/T//ccBB4tGb.s 			page 21


 1176              	.L167:
 1177 001a 00BF     		.align	2
 1178              	.L166:
 1179 001c 00000000 		.word	_SEGGER_RTT
 1181              		.section	.text.SEGGER_RTT_HasData,"ax",%progbits
 1182              		.align	1
 1183              		.p2align 2,,3
 1184              		.global	SEGGER_RTT_HasData
 1185              		.syntax unified
 1186              		.thumb
 1187              		.thumb_func
 1189              	SEGGER_RTT_HasData:
 1190              		@ args = 0, pretend = 0, frame = 0
 1191              		@ frame_needed = 0, uses_anonymous_args = 0
 1192              		@ link register save eliminated.
 1193 0000 044B     		ldr	r3, .L169
 1194 0002 00EB4000 		add	r0, r0, r0, lsl #1
 1195 0006 03EBC003 		add	r3, r3, r0, lsl #3
 1196 000a D86E     		ldr	r0, [r3, #108]
 1197 000c 1B6F     		ldr	r3, [r3, #112]
 1198 000e C01A     		subs	r0, r0, r3
 1199 0010 7047     		bx	lr
 1200              	.L170:
 1201 0012 00BF     		.align	2
 1202              	.L169:
 1203 0014 00000000 		.word	_SEGGER_RTT
 1205              		.section	.text.SEGGER_RTT_HasDataUp,"ax",%progbits
 1206              		.align	1
 1207              		.p2align 2,,3
 1208              		.global	SEGGER_RTT_HasDataUp
 1209              		.syntax unified
 1210              		.thumb
 1211              		.thumb_func
 1213              	SEGGER_RTT_HasDataUp:
 1214              		@ args = 0, pretend = 0, frame = 0
 1215              		@ frame_needed = 0, uses_anonymous_args = 0
 1216              		@ link register save eliminated.
 1217 0000 044B     		ldr	r3, .L172
 1218 0002 00EB4000 		add	r0, r0, r0, lsl #1
 1219 0006 03EBC003 		add	r3, r3, r0, lsl #3
 1220 000a 9A6A     		ldr	r2, [r3, #40]
 1221 000c 586A     		ldr	r0, [r3, #36]
 1222 000e 801A     		subs	r0, r0, r2
 1223 0010 7047     		bx	lr
 1224              	.L173:
 1225 0012 00BF     		.align	2
 1226              	.L172:
 1227 0014 00000000 		.word	_SEGGER_RTT
 1229              		.section	.text.SEGGER_RTT_AllocDownBuffer,"ax",%progbits
 1230              		.align	1
 1231              		.p2align 2,,3
 1232              		.global	SEGGER_RTT_AllocDownBuffer
 1233              		.syntax unified
 1234              		.thumb
 1235              		.thumb_func
 1237              	SEGGER_RTT_AllocDownBuffer:
 1238              		@ args = 0, pretend = 0, frame = 0
ARM GAS  /var/folders/lp/x54gwt890xv47sdkqj1k04q40000gn/T//ccBB4tGb.s 			page 22


 1239              		@ frame_needed = 0, uses_anonymous_args = 0
 1240 0000 2DE9F843 		push	{r3, r4, r5, r6, r7, r8, r9, lr}
 1241 0004 1B4C     		ldr	r4, .L187
 1242 0006 1E46     		mov	r6, r3
 1243 0008 2378     		ldrb	r3, [r4]	@ zero_extendqisi2
 1244 000a 8146     		mov	r9, r0
 1245 000c 8846     		mov	r8, r1
 1246 000e 1746     		mov	r7, r2
 1247 0010 4BB3     		cbz	r3, .L185
 1248              	.L175:
 1249              		.syntax unified
 1250              	@ 1570 "Core/Src/SEGGER_RTT.c" 1
 1251 0012 EFF31182 		mrs   r2, basepri  
 1252 0016 4FF02001 		mov   r1, #32       
 1253 001a 81F31188 		msr   basepri, r1  
 1254              		
 1255              	@ 0 "" 2
 1256              		.thumb
 1257              		.syntax unified
 1258 001e 0020     		movs	r0, #0
 1259 0020 03E0     		b	.L177
 1260              	.L186:
 1261 0022 6569     		ldr	r5, [r4, #20]
 1262 0024 0130     		adds	r0, r0, #1
 1263 0026 8542     		cmp	r5, r0
 1264 0028 07DD     		ble	.L176
 1265              	.L177:
 1266 002a 00EB400C 		add	ip, r0, r0, lsl #1
 1267 002e 04EBCC0C 		add	ip, r4, ip, lsl #3
 1268 0032 DCF86450 		ldr	r5, [ip, #100]
 1269 0036 002D     		cmp	r5, #0
 1270 0038 F3D1     		bne	.L186
 1271              	.L176:
 1272 003a 6369     		ldr	r3, [r4, #20]
 1273 003c 8342     		cmp	r3, r0
 1274 003e 15DD     		ble	.L179
 1275 0040 00EB4003 		add	r3, r0, r0, lsl #1
 1276 0044 04EBC304 		add	r4, r4, r3, lsl #3
 1277 0048 0023     		movs	r3, #0
 1278 004a C4F86090 		str	r9, [r4, #96]
 1279 004e C4F86480 		str	r8, [r4, #100]
 1280 0052 A766     		str	r7, [r4, #104]
 1281 0054 2367     		str	r3, [r4, #112]
 1282 0056 E366     		str	r3, [r4, #108]
 1283 0058 6667     		str	r6, [r4, #116]
 1284              		.syntax unified
 1285              	@ 1586 "Core/Src/SEGGER_RTT.c" 1
 1286 005a BFF35F8F 		dmb
 1287              	
 1288              	@ 0 "" 2
 1289              		.thumb
 1290              		.syntax unified
 1291              	.L178:
 1292              		.syntax unified
 1293              	@ 1590 "Core/Src/SEGGER_RTT.c" 1
 1294 005e 82F31188 		msr   basepri, r2  
 1295              		
ARM GAS  /var/folders/lp/x54gwt890xv47sdkqj1k04q40000gn/T//ccBB4tGb.s 			page 23


 1296              	@ 0 "" 2
 1297              		.thumb
 1298              		.syntax unified
 1299 0062 BDE8F883 		pop	{r3, r4, r5, r6, r7, r8, r9, pc}
 1300              	.L185:
 1301 0066 FFF7FEFF 		bl	_DoInit
 1302 006a D2E7     		b	.L175
 1303              	.L179:
 1304 006c 4FF0FF30 		mov	r0, #-1
 1305 0070 F5E7     		b	.L178
 1306              	.L188:
 1307 0072 00BF     		.align	2
 1308              	.L187:
 1309 0074 00000000 		.word	_SEGGER_RTT
 1311              		.section	.text.SEGGER_RTT_AllocUpBuffer,"ax",%progbits
 1312              		.align	1
 1313              		.p2align 2,,3
 1314              		.global	SEGGER_RTT_AllocUpBuffer
 1315              		.syntax unified
 1316              		.thumb
 1317              		.thumb_func
 1319              	SEGGER_RTT_AllocUpBuffer:
 1320              		@ args = 0, pretend = 0, frame = 0
 1321              		@ frame_needed = 0, uses_anonymous_args = 0
 1322 0000 2DE9F843 		push	{r3, r4, r5, r6, r7, r8, r9, lr}
 1323 0004 1E4C     		ldr	r4, .L202
 1324 0006 1E46     		mov	r6, r3
 1325 0008 2378     		ldrb	r3, [r4]	@ zero_extendqisi2
 1326 000a 8146     		mov	r9, r0
 1327 000c 8846     		mov	r8, r1
 1328 000e 1746     		mov	r7, r2
 1329 0010 83B3     		cbz	r3, .L200
 1330              	.L190:
 1331              		.syntax unified
 1332              	@ 1619 "Core/Src/SEGGER_RTT.c" 1
 1333 0012 EFF31183 		mrs   r3, basepri  
 1334 0016 4FF02001 		mov   r1, #32       
 1335 001a 81F31188 		msr   basepri, r1  
 1336              		
 1337              	@ 0 "" 2
 1338              		.thumb
 1339              		.syntax unified
 1340 001e 0020     		movs	r0, #0
 1341 0020 03E0     		b	.L192
 1342              	.L201:
 1343 0022 2569     		ldr	r5, [r4, #16]
 1344 0024 7545     		cmp	r5, lr
 1345 0026 7046     		mov	r0, lr
 1346 0028 09DD     		ble	.L191
 1347              	.L192:
 1348 002a 00F1010E 		add	lr, r0, #1
 1349 002e 0EEB4E0C 		add	ip, lr, lr, lsl #1
 1350 0032 04EBCC0C 		add	ip, r4, ip, lsl #3
 1351 0036 DCF80450 		ldr	r5, [ip, #4]
 1352 003a 002D     		cmp	r5, #0
 1353 003c F1D1     		bne	.L201
 1354              	.L191:
ARM GAS  /var/folders/lp/x54gwt890xv47sdkqj1k04q40000gn/T//ccBB4tGb.s 			page 24


 1355 003e 2269     		ldr	r2, [r4, #16]
 1356 0040 8242     		cmp	r2, r0
 1357 0042 1ADD     		ble	.L194
 1358 0044 421C     		adds	r2, r0, #1
 1359 0046 02EB4202 		add	r2, r2, r2, lsl #1
 1360 004a D200     		lsls	r2, r2, #3
 1361 004c 44F80290 		str	r9, [r4, r2]
 1362 0050 2244     		add	r2, r2, r4
 1363 0052 C2F80480 		str	r8, [r2, #4]
 1364 0056 00EB4002 		add	r2, r0, r0, lsl #1
 1365 005a 04EBC204 		add	r4, r4, r2, lsl #3
 1366 005e 0022     		movs	r2, #0
 1367 0060 2762     		str	r7, [r4, #32]
 1368 0062 A262     		str	r2, [r4, #40]
 1369 0064 6262     		str	r2, [r4, #36]
 1370 0066 E662     		str	r6, [r4, #44]
 1371              		.syntax unified
 1372              	@ 1635 "Core/Src/SEGGER_RTT.c" 1
 1373 0068 BFF35F8F 		dmb
 1374              	
 1375              	@ 0 "" 2
 1376              		.thumb
 1377              		.syntax unified
 1378              	.L193:
 1379              		.syntax unified
 1380              	@ 1639 "Core/Src/SEGGER_RTT.c" 1
 1381 006c 83F31188 		msr   basepri, r3  
 1382              		
 1383              	@ 0 "" 2
 1384              		.thumb
 1385              		.syntax unified
 1386 0070 BDE8F883 		pop	{r3, r4, r5, r6, r7, r8, r9, pc}
 1387              	.L200:
 1388 0074 FFF7FEFF 		bl	_DoInit
 1389 0078 CBE7     		b	.L190
 1390              	.L194:
 1391 007a 4FF0FF30 		mov	r0, #-1
 1392 007e F5E7     		b	.L193
 1393              	.L203:
 1394              		.align	2
 1395              	.L202:
 1396 0080 00000000 		.word	_SEGGER_RTT
 1398              		.section	.text.SEGGER_RTT_ConfigUpBuffer,"ax",%progbits
 1399              		.align	1
 1400              		.p2align 2,,3
 1401              		.global	SEGGER_RTT_ConfigUpBuffer
 1402              		.syntax unified
 1403              		.thumb
 1404              		.thumb_func
 1406              	SEGGER_RTT_ConfigUpBuffer:
 1407              		@ args = 4, pretend = 0, frame = 0
 1408              		@ frame_needed = 0, uses_anonymous_args = 0
 1409 0000 2DE9F041 		push	{r4, r5, r6, r7, r8, lr}
 1410 0004 194D     		ldr	r5, .L214
 1411 0006 1E46     		mov	r6, r3
 1412 0008 2B78     		ldrb	r3, [r5]	@ zero_extendqisi2
 1413 000a 0446     		mov	r4, r0
ARM GAS  /var/folders/lp/x54gwt890xv47sdkqj1k04q40000gn/T//ccBB4tGb.s 			page 25


 1414 000c 8846     		mov	r8, r1
 1415 000e 1746     		mov	r7, r2
 1416 0010 2BB3     		cbz	r3, .L213
 1417              	.L205:
 1418 0012 022C     		cmp	r4, #2
 1419 0014 26D8     		bhi	.L208
 1420              		.syntax unified
 1421              	@ 1677 "Core/Src/SEGGER_RTT.c" 1
 1422 0016 EFF3118C 		mrs   ip, basepri  
 1423 001a 4FF02001 		mov   r1, #32       
 1424 001e 81F31188 		msr   basepri, r1  
 1425              		
 1426              	@ 0 "" 2
 1427              		.thumb
 1428              		.syntax unified
 1429 0022 54B9     		cbnz	r4, .L211
 1430 0024 2246     		mov	r2, r4
 1431              	.L207:
 1432 0026 1319     		adds	r3, r2, r4
 1433 0028 05EBC305 		add	r5, r5, r3, lsl #3
 1434 002c 069B     		ldr	r3, [sp, #24]
 1435 002e EB62     		str	r3, [r5, #44]
 1436              		.syntax unified
 1437              	@ 1687 "Core/Src/SEGGER_RTT.c" 1
 1438 0030 8CF31188 		msr   basepri, ip  
 1439              		
 1440              	@ 0 "" 2
 1441              		.thumb
 1442              		.syntax unified
 1443 0034 0020     		movs	r0, #0
 1444              	.L204:
 1445 0036 BDE8F081 		pop	{r4, r5, r6, r7, r8, pc}
 1446              	.L211:
 1447 003a 601C     		adds	r0, r4, #1
 1448 003c 00EB4000 		add	r0, r0, r0, lsl #1
 1449 0040 C000     		lsls	r0, r0, #3
 1450 0042 04EB4403 		add	r3, r4, r4, lsl #1
 1451 0046 45F80080 		str	r8, [r5, r0]
 1452 004a 05EBC303 		add	r3, r5, r3, lsl #3
 1453 004e 2844     		add	r0, r0, r5
 1454 0050 0021     		movs	r1, #0
 1455 0052 4760     		str	r7, [r0, #4]
 1456 0054 6200     		lsls	r2, r4, #1
 1457 0056 1E62     		str	r6, [r3, #32]
 1458 0058 9962     		str	r1, [r3, #40]
 1459 005a 5962     		str	r1, [r3, #36]
 1460 005c E3E7     		b	.L207
 1461              	.L213:
 1462 005e FFF7FEFF 		bl	_DoInit
 1463 0062 D6E7     		b	.L205
 1464              	.L208:
 1465 0064 4FF0FF30 		mov	r0, #-1
 1466 0068 E5E7     		b	.L204
 1467              	.L215:
 1468 006a 00BF     		.align	2
 1469              	.L214:
 1470 006c 00000000 		.word	_SEGGER_RTT
ARM GAS  /var/folders/lp/x54gwt890xv47sdkqj1k04q40000gn/T//ccBB4tGb.s 			page 26


 1472              		.section	.text.SEGGER_RTT_ConfigDownBuffer,"ax",%progbits
 1473              		.align	1
 1474              		.p2align 2,,3
 1475              		.global	SEGGER_RTT_ConfigDownBuffer
 1476              		.syntax unified
 1477              		.thumb
 1478              		.thumb_func
 1480              	SEGGER_RTT_ConfigDownBuffer:
 1481              		@ args = 4, pretend = 0, frame = 0
 1482              		@ frame_needed = 0, uses_anonymous_args = 0
 1483 0000 2DE9F041 		push	{r4, r5, r6, r7, r8, lr}
 1484 0004 174D     		ldr	r5, .L226
 1485 0006 1E46     		mov	r6, r3
 1486 0008 2B78     		ldrb	r3, [r5]	@ zero_extendqisi2
 1487 000a 0446     		mov	r4, r0
 1488 000c 8846     		mov	r8, r1
 1489 000e 1746     		mov	r7, r2
 1490 0010 13B3     		cbz	r3, .L225
 1491              	.L217:
 1492 0012 022C     		cmp	r4, #2
 1493 0014 23D8     		bhi	.L220
 1494              		.syntax unified
 1495              	@ 1729 "Core/Src/SEGGER_RTT.c" 1
 1496 0016 EFF31182 		mrs   r2, basepri  
 1497 001a 4FF02001 		mov   r1, #32       
 1498 001e 81F31188 		msr   basepri, r1  
 1499              		
 1500              	@ 0 "" 2
 1501              		.thumb
 1502              		.syntax unified
 1503 0022 64B9     		cbnz	r4, .L223
 1504 0024 2346     		mov	r3, r4
 1505              	.L219:
 1506 0026 2344     		add	r3, r3, r4
 1507 0028 05EBC305 		add	r5, r5, r3, lsl #3
 1508 002c 069B     		ldr	r3, [sp, #24]
 1509 002e 6B67     		str	r3, [r5, #116]
 1510              		.syntax unified
 1511              	@ 1739 "Core/Src/SEGGER_RTT.c" 1
 1512 0030 BFF35F8F 		dmb
 1513              	
 1514              	@ 0 "" 2
 1515              	@ 1740 "Core/Src/SEGGER_RTT.c" 1
 1516 0034 82F31188 		msr   basepri, r2  
 1517              		
 1518              	@ 0 "" 2
 1519              		.thumb
 1520              		.syntax unified
 1521 0038 0020     		movs	r0, #0
 1522              	.L216:
 1523 003a BDE8F081 		pop	{r4, r5, r6, r7, r8, pc}
 1524              	.L223:
 1525 003e 04EB4400 		add	r0, r4, r4, lsl #1
 1526 0042 05EBC000 		add	r0, r5, r0, lsl #3
 1527 0046 0023     		movs	r3, #0
 1528 0048 C0F86080 		str	r8, [r0, #96]
 1529 004c 4766     		str	r7, [r0, #100]
ARM GAS  /var/folders/lp/x54gwt890xv47sdkqj1k04q40000gn/T//ccBB4tGb.s 			page 27


 1530 004e 8666     		str	r6, [r0, #104]
 1531 0050 0367     		str	r3, [r0, #112]
 1532 0052 C366     		str	r3, [r0, #108]
 1533 0054 6300     		lsls	r3, r4, #1
 1534 0056 E6E7     		b	.L219
 1535              	.L225:
 1536 0058 FFF7FEFF 		bl	_DoInit
 1537 005c D9E7     		b	.L217
 1538              	.L220:
 1539 005e 4FF0FF30 		mov	r0, #-1
 1540 0062 EAE7     		b	.L216
 1541              	.L227:
 1542              		.align	2
 1543              	.L226:
 1544 0064 00000000 		.word	_SEGGER_RTT
 1546              		.section	.text.SEGGER_RTT_SetNameUpBuffer,"ax",%progbits
 1547              		.align	1
 1548              		.p2align 2,,3
 1549              		.global	SEGGER_RTT_SetNameUpBuffer
 1550              		.syntax unified
 1551              		.thumb
 1552              		.thumb_func
 1554              	SEGGER_RTT_SetNameUpBuffer:
 1555              		@ args = 0, pretend = 0, frame = 0
 1556              		@ frame_needed = 0, uses_anonymous_args = 0
 1557 0000 70B5     		push	{r4, r5, r6, lr}
 1558 0002 0E4E     		ldr	r6, .L234
 1559 0004 3378     		ldrb	r3, [r6]	@ zero_extendqisi2
 1560 0006 0446     		mov	r4, r0
 1561 0008 0D46     		mov	r5, r1
 1562 000a 83B1     		cbz	r3, .L233
 1563              	.L229:
 1564 000c 022C     		cmp	r4, #2
 1565 000e 11D8     		bhi	.L231
 1566              		.syntax unified
 1567              	@ 1772 "Core/Src/SEGGER_RTT.c" 1
 1568 0010 EFF31183 		mrs   r3, basepri  
 1569 0014 4FF02001 		mov   r1, #32       
 1570 0018 81F31188 		msr   basepri, r1  
 1571              		
 1572              	@ 0 "" 2
 1573              		.thumb
 1574              		.syntax unified
 1575 001c 0134     		adds	r4, r4, #1
 1576 001e 04EB4404 		add	r4, r4, r4, lsl #1
 1577 0022 E400     		lsls	r4, r4, #3
 1578 0024 3551     		str	r5, [r6, r4]
 1579              		.syntax unified
 1580              	@ 1775 "Core/Src/SEGGER_RTT.c" 1
 1581 0026 83F31188 		msr   basepri, r3  
 1582              		
 1583              	@ 0 "" 2
 1584              		.thumb
 1585              		.syntax unified
 1586 002a 0020     		movs	r0, #0
 1587 002c 70BD     		pop	{r4, r5, r6, pc}
 1588              	.L233:
ARM GAS  /var/folders/lp/x54gwt890xv47sdkqj1k04q40000gn/T//ccBB4tGb.s 			page 28


 1589 002e FFF7FEFF 		bl	_DoInit
 1590 0032 EBE7     		b	.L229
 1591              	.L231:
 1592 0034 4FF0FF30 		mov	r0, #-1
 1593 0038 70BD     		pop	{r4, r5, r6, pc}
 1594              	.L235:
 1595 003a 00BF     		.align	2
 1596              	.L234:
 1597 003c 00000000 		.word	_SEGGER_RTT
 1599              		.section	.text.SEGGER_RTT_SetNameDownBuffer,"ax",%progbits
 1600              		.align	1
 1601              		.p2align 2,,3
 1602              		.global	SEGGER_RTT_SetNameDownBuffer
 1603              		.syntax unified
 1604              		.thumb
 1605              		.thumb_func
 1607              	SEGGER_RTT_SetNameDownBuffer:
 1608              		@ args = 0, pretend = 0, frame = 0
 1609              		@ frame_needed = 0, uses_anonymous_args = 0
 1610 0000 70B5     		push	{r4, r5, r6, lr}
 1611 0002 0E4D     		ldr	r5, .L242
 1612 0004 2B78     		ldrb	r3, [r5]	@ zero_extendqisi2
 1613 0006 0446     		mov	r4, r0
 1614 0008 0E46     		mov	r6, r1
 1615 000a 83B1     		cbz	r3, .L241
 1616              	.L237:
 1617 000c 022C     		cmp	r4, #2
 1618 000e 11D8     		bhi	.L239
 1619              		.syntax unified
 1620              	@ 1807 "Core/Src/SEGGER_RTT.c" 1
 1621 0010 EFF31183 		mrs   r3, basepri  
 1622 0014 4FF02001 		mov   r1, #32       
 1623 0018 81F31188 		msr   basepri, r1  
 1624              		
 1625              	@ 0 "" 2
 1626              		.thumb
 1627              		.syntax unified
 1628 001c 04EB4404 		add	r4, r4, r4, lsl #1
 1629 0020 05EBC405 		add	r5, r5, r4, lsl #3
 1630 0024 2E66     		str	r6, [r5, #96]
 1631              		.syntax unified
 1632              	@ 1810 "Core/Src/SEGGER_RTT.c" 1
 1633 0026 83F31188 		msr   basepri, r3  
 1634              		
 1635              	@ 0 "" 2
 1636              		.thumb
 1637              		.syntax unified
 1638 002a 0020     		movs	r0, #0
 1639 002c 70BD     		pop	{r4, r5, r6, pc}
 1640              	.L241:
 1641 002e FFF7FEFF 		bl	_DoInit
 1642 0032 EBE7     		b	.L237
 1643              	.L239:
 1644 0034 4FF0FF30 		mov	r0, #-1
 1645 0038 70BD     		pop	{r4, r5, r6, pc}
 1646              	.L243:
 1647 003a 00BF     		.align	2
ARM GAS  /var/folders/lp/x54gwt890xv47sdkqj1k04q40000gn/T//ccBB4tGb.s 			page 29


 1648              	.L242:
 1649 003c 00000000 		.word	_SEGGER_RTT
 1651              		.section	.text.SEGGER_RTT_SetFlagsUpBuffer,"ax",%progbits
 1652              		.align	1
 1653              		.p2align 2,,3
 1654              		.global	SEGGER_RTT_SetFlagsUpBuffer
 1655              		.syntax unified
 1656              		.thumb
 1657              		.thumb_func
 1659              	SEGGER_RTT_SetFlagsUpBuffer:
 1660              		@ args = 0, pretend = 0, frame = 0
 1661              		@ frame_needed = 0, uses_anonymous_args = 0
 1662 0000 70B5     		push	{r4, r5, r6, lr}
 1663 0002 0E4D     		ldr	r5, .L250
 1664 0004 2B78     		ldrb	r3, [r5]	@ zero_extendqisi2
 1665 0006 0446     		mov	r4, r0
 1666 0008 0E46     		mov	r6, r1
 1667 000a 83B1     		cbz	r3, .L249
 1668              	.L245:
 1669 000c 022C     		cmp	r4, #2
 1670 000e 11D8     		bhi	.L247
 1671              		.syntax unified
 1672              	@ 1843 "Core/Src/SEGGER_RTT.c" 1
 1673 0010 EFF31183 		mrs   r3, basepri  
 1674 0014 4FF02001 		mov   r1, #32       
 1675 0018 81F31188 		msr   basepri, r1  
 1676              		
 1677              	@ 0 "" 2
 1678              		.thumb
 1679              		.syntax unified
 1680 001c 04EB4404 		add	r4, r4, r4, lsl #1
 1681 0020 05EBC405 		add	r5, r5, r4, lsl #3
 1682 0024 EE62     		str	r6, [r5, #44]
 1683              		.syntax unified
 1684              	@ 1846 "Core/Src/SEGGER_RTT.c" 1
 1685 0026 83F31188 		msr   basepri, r3  
 1686              		
 1687              	@ 0 "" 2
 1688              		.thumb
 1689              		.syntax unified
 1690 002a 0020     		movs	r0, #0
 1691 002c 70BD     		pop	{r4, r5, r6, pc}
 1692              	.L249:
 1693 002e FFF7FEFF 		bl	_DoInit
 1694 0032 EBE7     		b	.L245
 1695              	.L247:
 1696 0034 4FF0FF30 		mov	r0, #-1
 1697 0038 70BD     		pop	{r4, r5, r6, pc}
 1698              	.L251:
 1699 003a 00BF     		.align	2
 1700              	.L250:
 1701 003c 00000000 		.word	_SEGGER_RTT
 1703              		.section	.text.SEGGER_RTT_SetFlagsDownBuffer,"ax",%progbits
 1704              		.align	1
 1705              		.p2align 2,,3
 1706              		.global	SEGGER_RTT_SetFlagsDownBuffer
 1707              		.syntax unified
ARM GAS  /var/folders/lp/x54gwt890xv47sdkqj1k04q40000gn/T//ccBB4tGb.s 			page 30


 1708              		.thumb
 1709              		.thumb_func
 1711              	SEGGER_RTT_SetFlagsDownBuffer:
 1712              		@ args = 0, pretend = 0, frame = 0
 1713              		@ frame_needed = 0, uses_anonymous_args = 0
 1714 0000 70B5     		push	{r4, r5, r6, lr}
 1715 0002 0E4D     		ldr	r5, .L258
 1716 0004 2B78     		ldrb	r3, [r5]	@ zero_extendqisi2
 1717 0006 0446     		mov	r4, r0
 1718 0008 0E46     		mov	r6, r1
 1719 000a 83B1     		cbz	r3, .L257
 1720              	.L253:
 1721 000c 022C     		cmp	r4, #2
 1722 000e 11D8     		bhi	.L255
 1723              		.syntax unified
 1724              	@ 1879 "Core/Src/SEGGER_RTT.c" 1
 1725 0010 EFF31183 		mrs   r3, basepri  
 1726 0014 4FF02001 		mov   r1, #32       
 1727 0018 81F31188 		msr   basepri, r1  
 1728              		
 1729              	@ 0 "" 2
 1730              		.thumb
 1731              		.syntax unified
 1732 001c 04EB4404 		add	r4, r4, r4, lsl #1
 1733 0020 05EBC405 		add	r5, r5, r4, lsl #3
 1734 0024 6E67     		str	r6, [r5, #116]
 1735              		.syntax unified
 1736              	@ 1882 "Core/Src/SEGGER_RTT.c" 1
 1737 0026 83F31188 		msr   basepri, r3  
 1738              		
 1739              	@ 0 "" 2
 1740              		.thumb
 1741              		.syntax unified
 1742 002a 0020     		movs	r0, #0
 1743 002c 70BD     		pop	{r4, r5, r6, pc}
 1744              	.L257:
 1745 002e FFF7FEFF 		bl	_DoInit
 1746 0032 EBE7     		b	.L253
 1747              	.L255:
 1748 0034 4FF0FF30 		mov	r0, #-1
 1749 0038 70BD     		pop	{r4, r5, r6, pc}
 1750              	.L259:
 1751 003a 00BF     		.align	2
 1752              	.L258:
 1753 003c 00000000 		.word	_SEGGER_RTT
 1755              		.section	.text.SEGGER_RTT_Init,"ax",%progbits
 1756              		.align	1
 1757              		.p2align 2,,3
 1758              		.global	SEGGER_RTT_Init
 1759              		.syntax unified
 1760              		.thumb
 1761              		.thumb_func
 1763              	SEGGER_RTT_Init:
 1764              		@ args = 0, pretend = 0, frame = 0
 1765              		@ frame_needed = 0, uses_anonymous_args = 0
 1766              		@ link register save eliminated.
 1767 0000 FFF7FEBF 		b	_DoInit
ARM GAS  /var/folders/lp/x54gwt890xv47sdkqj1k04q40000gn/T//ccBB4tGb.s 			page 31


 1769              		.section	.text.SEGGER_RTT_SetTerminal,"ax",%progbits
 1770              		.align	1
 1771              		.p2align 2,,3
 1772              		.global	SEGGER_RTT_SetTerminal
 1773              		.syntax unified
 1774              		.thumb
 1775              		.thumb_func
 1777              	SEGGER_RTT_SetTerminal:
 1778              		@ args = 0, pretend = 0, frame = 8
 1779              		@ frame_needed = 0, uses_anonymous_args = 0
 1780 0000 70B5     		push	{r4, r5, r6, lr}
 1781 0002 1F4D     		ldr	r5, .L275
 1782 0004 2B78     		ldrb	r3, [r5]	@ zero_extendqisi2
 1783 0006 82B0     		sub	sp, sp, #8
 1784 0008 0446     		mov	r4, r0
 1785 000a 63B3     		cbz	r3, .L272
 1786              	.L262:
 1787 000c FF23     		movs	r3, #255
 1788 000e 0F2C     		cmp	r4, #15
 1789 0010 8DF80430 		strb	r3, [sp, #4]
 1790 0014 31D8     		bhi	.L269
 1791 0016 1B4B     		ldr	r3, .L275+4
 1792 0018 1B5D     		ldrb	r3, [r3, r4]	@ zero_extendqisi2
 1793 001a 8DF80530 		strb	r3, [sp, #5]
 1794              		.syntax unified
 1795              	@ 1932 "Core/Src/SEGGER_RTT.c" 1
 1796 001e EFF31186 		mrs   r6, basepri  
 1797 0022 4FF02001 		mov   r1, #32       
 1798 0026 81F31188 		msr   basepri, r1  
 1799              		
 1800              	@ 0 "" 2
 1801              		.thumb
 1802              		.syntax unified
 1803 002a EA6A     		ldr	r2, [r5, #44]
 1804 002c 02F00302 		and	r2, r2, #3
 1805 0030 022A     		cmp	r2, #2
 1806 0032 1BD0     		beq	.L273
 1807 0034 AB6A     		ldr	r3, [r5, #40]
 1808 0036 6A6A     		ldr	r2, [r5, #36]
 1809 0038 9342     		cmp	r3, r2
 1810 003a 9CBF     		itt	ls
 1811 003c 296A     		ldrls	r1, [r5, #32]
 1812 003e 5B18     		addls	r3, r3, r1
 1813 0040 013B     		subs	r3, r3, #1
 1814 0042 9A1A     		subs	r2, r3, r2
 1815 0044 012A     		cmp	r2, #1
 1816 0046 05D8     		bhi	.L274
 1817 0048 4FF0FF30 		mov	r0, #-1
 1818              	.L268:
 1819              		.syntax unified
 1820              	@ 1945 "Core/Src/SEGGER_RTT.c" 1
 1821 004c 86F31188 		msr   basepri, r6  
 1822              		
 1823              	@ 0 "" 2
 1824              		.thumb
 1825              		.syntax unified
 1826              	.L261:
ARM GAS  /var/folders/lp/x54gwt890xv47sdkqj1k04q40000gn/T//ccBB4tGb.s 			page 32


 1827 0050 02B0     		add	sp, sp, #8
 1828              		@ sp needed
 1829 0052 70BD     		pop	{r4, r5, r6, pc}
 1830              	.L274:
 1831 0054 0C4B     		ldr	r3, .L275+8
 1832 0056 0D48     		ldr	r0, .L275+12
 1833 0058 1C70     		strb	r4, [r3]
 1834 005a 0222     		movs	r2, #2
 1835 005c 01A9     		add	r1, sp, #4
 1836 005e FFF7FEFF 		bl	_WriteNoCheck
 1837              	.L265:
 1838 0062 0020     		movs	r0, #0
 1839 0064 F2E7     		b	.L268
 1840              	.L272:
 1841 0066 FFF7FEFF 		bl	_DoInit
 1842 006a CFE7     		b	.L262
 1843              	.L273:
 1844 006c 064B     		ldr	r3, .L275+8
 1845 006e 0748     		ldr	r0, .L275+12
 1846 0070 1C70     		strb	r4, [r3]
 1847 0072 01A9     		add	r1, sp, #4
 1848 0074 FFF7FEFF 		bl	_WriteBlocking
 1849 0078 F3E7     		b	.L265
 1850              	.L269:
 1851 007a 4FF0FF30 		mov	r0, #-1
 1852 007e E7E7     		b	.L261
 1853              	.L276:
 1854              		.align	2
 1855              	.L275:
 1856 0080 00000000 		.word	_SEGGER_RTT
 1857 0084 00000000 		.word	_aTerminalId
 1858 0088 00000000 		.word	_ActiveTerminal
 1859 008c 18000000 		.word	_SEGGER_RTT+24
 1861              		.section	.text.SEGGER_RTT_TerminalOut,"ax",%progbits
 1862              		.align	1
 1863              		.p2align 2,,3
 1864              		.global	SEGGER_RTT_TerminalOut
 1865              		.syntax unified
 1866              		.thumb
 1867              		.thumb_func
 1869              	SEGGER_RTT_TerminalOut:
 1870              		@ args = 0, pretend = 0, frame = 8
 1871              		@ frame_needed = 0, uses_anonymous_args = 0
 1872 0000 2DE9F047 		push	{r4, r5, r6, r7, r8, r9, r10, lr}
 1873 0004 524C     		ldr	r4, .L292
 1874 0006 2378     		ldrb	r3, [r4]	@ zero_extendqisi2
 1875 0008 82B0     		sub	sp, sp, #8
 1876 000a 0546     		mov	r5, r0
 1877 000c 0E46     		mov	r6, r1
 1878 000e 002B     		cmp	r3, #0
 1879 0010 72D0     		beq	.L290
 1880              	.L278:
 1881 0012 0F2D     		cmp	r5, #15
 1882 0014 00F29980 		bhi	.L285
 1883 0018 3046     		mov	r0, r6
 1884 001a FFF7FEFF 		bl	strlen
 1885 001e 0746     		mov	r7, r0
ARM GAS  /var/folders/lp/x54gwt890xv47sdkqj1k04q40000gn/T//ccBB4tGb.s 			page 33


 1886              		.syntax unified
 1887              	@ 1992 "Core/Src/SEGGER_RTT.c" 1
 1888 0020 EFF31188 		mrs   r8, basepri  
 1889 0024 4FF02001 		mov   r1, #32       
 1890 0028 81F31188 		msr   basepri, r1  
 1891              		
 1892              	@ 0 "" 2
 1893              		.thumb
 1894              		.syntax unified
 1895 002c A36A     		ldr	r3, [r4, #40]
 1896 002e 626A     		ldr	r2, [r4, #36]
 1897 0030 9342     		cmp	r3, r2
 1898 0032 98BF     		it	ls
 1899 0034 216A     		ldrls	r1, [r4, #32]
 1900 0036 E46A     		ldr	r4, [r4, #44]
 1901 0038 98BF     		it	ls
 1902 003a 5B18     		addls	r3, r3, r1
 1903 003c 04F00304 		and	r4, r4, #3
 1904 0040 013B     		subs	r3, r3, #1
 1905 0042 012C     		cmp	r4, #1
 1906 0044 A3EB0209 		sub	r9, r3, r2
 1907 0048 50D0     		beq	.L282
 1908 004a 022C     		cmp	r4, #2
 1909 004c 27D0     		beq	.L283
 1910 004e 002C     		cmp	r4, #0
 1911 0050 4FD1     		bne	.L288
 1912 0052 031D     		adds	r3, r0, #4
 1913 0054 4B45     		cmp	r3, r9
 1914 0056 43D8     		bhi	.L284
 1915 0058 DFF80091 		ldr	r9, .L292+12
 1916 005c 3D48     		ldr	r0, .L292+4
 1917 005e 19F80530 		ldrb	r3, [r9, r5]	@ zero_extendqisi2
 1918 0062 8DF80530 		strb	r3, [sp, #5]
 1919 0066 4FF0FF0A 		mov	r10, #255
 1920 006a 01A9     		add	r1, sp, #4
 1921 006c 0222     		movs	r2, #2
 1922 006e 8DF804A0 		strb	r10, [sp, #4]
 1923 0072 FFF7FEFF 		bl	_WriteBlocking
 1924 0076 3A46     		mov	r2, r7
 1925 0078 3146     		mov	r1, r6
 1926 007a 3648     		ldr	r0, .L292+4
 1927 007c FFF7FEFF 		bl	_WriteBlocking
 1928 0080 354B     		ldr	r3, .L292+8
 1929 0082 8DF804A0 		strb	r10, [sp, #4]
 1930 0086 1B78     		ldrb	r3, [r3]	@ zero_extendqisi2
 1931 0088 0446     		mov	r4, r0
 1932 008a 19F80330 		ldrb	r3, [r9, r3]	@ zero_extendqisi2
 1933 008e 3148     		ldr	r0, .L292+4
 1934 0090 8DF80530 		strb	r3, [sp, #5]
 1935 0094 0222     		movs	r2, #2
 1936 0096 01A9     		add	r1, sp, #4
 1937 0098 FFF7FEFF 		bl	_WriteBlocking
 1938 009c 20E0     		b	.L284
 1939              	.L283:
 1940 009e DFF8BC90 		ldr	r9, .L292+12
 1941 00a2 2C48     		ldr	r0, .L292+4
 1942 00a4 19F80530 		ldrb	r3, [r9, r5]	@ zero_extendqisi2
ARM GAS  /var/folders/lp/x54gwt890xv47sdkqj1k04q40000gn/T//ccBB4tGb.s 			page 34


 1943 00a8 8DF80530 		strb	r3, [sp, #5]
 1944 00ac 2246     		mov	r2, r4
 1945 00ae FF25     		movs	r5, #255
 1946 00b0 01A9     		add	r1, sp, #4
 1947 00b2 8DF80450 		strb	r5, [sp, #4]
 1948 00b6 FFF7FEFF 		bl	_WriteBlocking
 1949 00ba 3A46     		mov	r2, r7
 1950 00bc 3146     		mov	r1, r6
 1951 00be 2548     		ldr	r0, .L292+4
 1952 00c0 FFF7FEFF 		bl	_WriteBlocking
 1953 00c4 244B     		ldr	r3, .L292+8
 1954 00c6 8DF80450 		strb	r5, [sp, #4]
 1955 00ca 1B78     		ldrb	r3, [r3]	@ zero_extendqisi2
 1956 00cc 2246     		mov	r2, r4
 1957 00ce 19F80330 		ldrb	r3, [r9, r3]	@ zero_extendqisi2
 1958 00d2 8DF80530 		strb	r3, [sp, #5]
 1959 00d6 0446     		mov	r4, r0
 1960 00d8 01A9     		add	r1, sp, #4
 1961 00da 1E48     		ldr	r0, .L292+4
 1962 00dc FFF7FEFF 		bl	_WriteBlocking
 1963              	.L284:
 1964              		.syntax unified
 1965              	@ 2037 "Core/Src/SEGGER_RTT.c" 1
 1966 00e0 88F31188 		msr   basepri, r8  
 1967              		
 1968              	@ 0 "" 2
 1969              		.thumb
 1970              		.syntax unified
 1971              	.L277:
 1972 00e4 2046     		mov	r0, r4
 1973 00e6 02B0     		add	sp, sp, #8
 1974              		@ sp needed
 1975 00e8 BDE8F087 		pop	{r4, r5, r6, r7, r8, r9, r10, pc}
 1976              	.L282:
 1977 00ec B9F1030F 		cmp	r9, #3
 1978 00f0 05D8     		bhi	.L291
 1979              	.L288:
 1980 00f2 4FF0FF34 		mov	r4, #-1
 1981 00f6 F3E7     		b	.L284
 1982              	.L290:
 1983 00f8 FFF7FEFF 		bl	_DoInit
 1984 00fc 89E7     		b	.L278
 1985              	.L291:
 1986 00fe DFF85CA0 		ldr	r10, .L292+12
 1987 0102 1448     		ldr	r0, .L292+4
 1988 0104 1AF80530 		ldrb	r3, [r10, r5]	@ zero_extendqisi2
 1989 0108 8DF80530 		strb	r3, [sp, #5]
 1990 010c FF25     		movs	r5, #255
 1991 010e 01A9     		add	r1, sp, #4
 1992 0110 0222     		movs	r2, #2
 1993 0112 8DF80450 		strb	r5, [sp, #4]
 1994 0116 FFF7FEFF 		bl	_WriteBlocking
 1995 011a A9F10402 		sub	r2, r9, #4
 1996 011e BA42     		cmp	r2, r7
 1997 0120 28BF     		it	cs
 1998 0122 3A46     		movcs	r2, r7
 1999 0124 3146     		mov	r1, r6
ARM GAS  /var/folders/lp/x54gwt890xv47sdkqj1k04q40000gn/T//ccBB4tGb.s 			page 35


 2000 0126 0B48     		ldr	r0, .L292+4
 2001 0128 FFF7FEFF 		bl	_WriteBlocking
 2002 012c 0A4B     		ldr	r3, .L292+8
 2003 012e 8DF80450 		strb	r5, [sp, #4]
 2004 0132 1B78     		ldrb	r3, [r3]	@ zero_extendqisi2
 2005 0134 0446     		mov	r4, r0
 2006 0136 1AF80330 		ldrb	r3, [r10, r3]	@ zero_extendqisi2
 2007 013a 0648     		ldr	r0, .L292+4
 2008 013c 8DF80530 		strb	r3, [sp, #5]
 2009 0140 0222     		movs	r2, #2
 2010 0142 01A9     		add	r1, sp, #4
 2011 0144 FFF7FEFF 		bl	_WriteBlocking
 2012 0148 CAE7     		b	.L284
 2013              	.L285:
 2014 014a 4FF0FF34 		mov	r4, #-1
 2015 014e C9E7     		b	.L277
 2016              	.L293:
 2017              		.align	2
 2018              	.L292:
 2019 0150 00000000 		.word	_SEGGER_RTT
 2020 0154 18000000 		.word	_SEGGER_RTT+24
 2021 0158 00000000 		.word	_ActiveTerminal
 2022 015c 00000000 		.word	_aTerminalId
 2024              		.section	.text.SEGGER_RTT_GetAvailWriteSpace,"ax",%progbits
 2025              		.align	1
 2026              		.p2align 2,,3
 2027              		.global	SEGGER_RTT_GetAvailWriteSpace
 2028              		.syntax unified
 2029              		.thumb
 2030              		.thumb_func
 2032              	SEGGER_RTT_GetAvailWriteSpace:
 2033              		@ args = 0, pretend = 0, frame = 0
 2034              		@ frame_needed = 0, uses_anonymous_args = 0
 2035              		@ link register save eliminated.
 2036 0000 064A     		ldr	r2, .L297
 2037 0002 00EB4000 		add	r0, r0, r0, lsl #1
 2038 0006 02EBC002 		add	r2, r2, r0, lsl #3
 2039 000a 936A     		ldr	r3, [r2, #40]
 2040 000c 506A     		ldr	r0, [r2, #36]
 2041 000e 8342     		cmp	r3, r0
 2042 0010 9CBF     		itt	ls
 2043 0012 126A     		ldrls	r2, [r2, #32]
 2044 0014 9B18     		addls	r3, r3, r2
 2045 0016 013B     		subs	r3, r3, #1
 2046 0018 181A     		subs	r0, r3, r0
 2047 001a 7047     		bx	lr
 2048              	.L298:
 2049              		.align	2
 2050              	.L297:
 2051 001c 00000000 		.word	_SEGGER_RTT
 2053              		.section	.text.SEGGER_RTT_GetBytesInBuffer,"ax",%progbits
 2054              		.align	1
 2055              		.p2align 2,,3
 2056              		.global	SEGGER_RTT_GetBytesInBuffer
 2057              		.syntax unified
 2058              		.thumb
 2059              		.thumb_func
ARM GAS  /var/folders/lp/x54gwt890xv47sdkqj1k04q40000gn/T//ccBB4tGb.s 			page 36


 2061              	SEGGER_RTT_GetBytesInBuffer:
 2062              		@ args = 0, pretend = 0, frame = 0
 2063              		@ frame_needed = 0, uses_anonymous_args = 0
 2064              		@ link register save eliminated.
 2065 0000 064B     		ldr	r3, .L302
 2066 0002 00EB4000 		add	r0, r0, r0, lsl #1
 2067 0006 03EBC003 		add	r3, r3, r0, lsl #3
 2068 000a 9A6A     		ldr	r2, [r3, #40]
 2069 000c 586A     		ldr	r0, [r3, #36]
 2070 000e 8242     		cmp	r2, r0
 2071 0010 85BF     		ittet	hi
 2072 0012 1B6A     		ldrhi	r3, [r3, #32]
 2073 0014 9B18     		addhi	r3, r3, r2
 2074 0016 801A     		subls	r0, r0, r2
 2075 0018 181A     		subhi	r0, r3, r0
 2076 001a 7047     		bx	lr
 2077              	.L303:
 2078              		.align	2
 2079              	.L302:
 2080 001c 00000000 		.word	_SEGGER_RTT
 2082              		.section	.rodata._aInitStr.0,"a"
 2083              		.align	2
 2086              	_aInitStr.0:
 2087 0000 00000000 		.ascii	"\000\000\000\000\000\000TTR REGGES\000"
 2087      00005454 
 2087      52205245 
 2087      47474553 
 2087      00
 2088              		.section	.bss._ActiveTerminal,"aw",%nobits
 2091              	_ActiveTerminal:
 2092 0000 00       		.space	1
 2093              		.section	.bss._acDownBuffer,"aw",%nobits
 2094              		.align	2
 2097              	_acDownBuffer:
 2098 0000 00000000 		.space	16
 2098      00000000 
 2098      00000000 
 2098      00000000 
 2099              		.section	.bss._acUpBuffer,"aw",%nobits
 2100              		.align	2
 2103              	_acUpBuffer:
 2104 0000 00000000 		.space	1024
 2104      00000000 
 2104      00000000 
 2104      00000000 
 2104      00000000 
 2105              		.global	_SEGGER_RTT
 2106              		.section	.bss._SEGGER_RTT,"aw",%nobits
 2107              		.align	2
 2110              	_SEGGER_RTT:
 2111 0000 00000000 		.space	168
 2111      00000000 
 2111      00000000 
 2111      00000000 
 2111      00000000 
 2112              		.section	.rodata._aTerminalId,"a"
 2113              		.align	2
ARM GAS  /var/folders/lp/x54gwt890xv47sdkqj1k04q40000gn/T//ccBB4tGb.s 			page 37


 2116              	_aTerminalId:
 2117 0000 30313233 		.ascii	"0123456789ABCDEF"
 2117      34353637 
 2117      38394142 
 2117      43444546 
 2118              		.ident	"GCC: (xPack GNU Arm Embedded GCC arm64) 13.3.1 20240614"
ARM GAS  /var/folders/lp/x54gwt890xv47sdkqj1k04q40000gn/T//ccBB4tGb.s 			page 38

