ARM GAS  /var/folders/lp/x54gwt890xv47sdkqj1k04q40000gn/T//ccqnU9PL.s 			page 1


   1              		.cpu cortex-m4
   2              		.arch armv7e-m
   3              		.fpu fpv4-sp-d16
   4              		.eabi_attribute 27, 1
   5              		.eabi_attribute 28, 1
   6              		.eabi_attribute 20, 1
   7              		.eabi_attribute 21, 1
   8              		.eabi_attribute 23, 3
   9              		.eabi_attribute 24, 1
  10              		.eabi_attribute 25, 1
  11              		.eabi_attribute 26, 1
  12              		.eabi_attribute 30, 2
  13              		.eabi_attribute 34, 1
  14              		.eabi_attribute 18, 4
  15              		.file	"spi.c"
  16              		.text
  17              		.section	.text.MX_SPI1_Init,"ax",%progbits
  18              		.align	1
  19              		.p2align 2,,3
  20              		.global	MX_SPI1_Init
  21              		.syntax unified
  22              		.thumb
  23              		.thumb_func
  25              	MX_SPI1_Init:
  26              		@ args = 0, pretend = 0, frame = 0
  27              		@ frame_needed = 0, uses_anonymous_args = 0
  28 0000 0F48     		ldr	r0, .L6
  29 0002 1049     		ldr	r1, .L6+4
  30 0004 4FF48272 		mov	r2, #260
  31 0008 10B5     		push	{r4, lr}
  32 000a C0E90012 		strd	r1, r2, [r0]
  33 000e 4FF40072 		mov	r2, #512
  34 0012 0023     		movs	r3, #0
  35 0014 4FF40044 		mov	r4, #32768
  36 0018 0821     		movs	r1, #8
  37 001a 8261     		str	r2, [r0, #24]
  38 001c 0A22     		movs	r2, #10
  39 001e C0E90243 		strd	r4, r3, [r0, #8]
  40 0022 C0E90433 		strd	r3, r3, [r0, #16]
  41 0026 C0E90713 		strd	r1, r3, [r0, #28]
  42 002a C0E90933 		strd	r3, r3, [r0, #36]
  43 002e C262     		str	r2, [r0, #44]
  44 0030 FFF7FEFF 		bl	HAL_SPI_Init
  45 0034 00B9     		cbnz	r0, .L5
  46 0036 10BD     		pop	{r4, pc}
  47              	.L5:
  48 0038 BDE81040 		pop	{r4, lr}
  49 003c FFF7FEBF 		b	Error_Handler
  50              	.L7:
  51              		.align	2
  52              	.L6:
  53 0040 00000000 		.word	hspi1
  54 0044 00300140 		.word	1073819648
  56              		.section	.text.HAL_SPI_MspInit,"ax",%progbits
  57              		.align	1
  58              		.p2align 2,,3
  59              		.global	HAL_SPI_MspInit
ARM GAS  /var/folders/lp/x54gwt890xv47sdkqj1k04q40000gn/T//ccqnU9PL.s 			page 2


  60              		.syntax unified
  61              		.thumb
  62              		.thumb_func
  64              	HAL_SPI_MspInit:
  65              		@ args = 0, pretend = 0, frame = 32
  66              		@ frame_needed = 0, uses_anonymous_args = 0
  67 0000 70B5     		push	{r4, r5, r6, lr}
  68 0002 294B     		ldr	r3, .L17
  69 0004 0268     		ldr	r2, [r0]
  70 0006 88B0     		sub	sp, sp, #32
  71 0008 0024     		movs	r4, #0
  72 000a 9A42     		cmp	r2, r3
  73 000c CDE90244 		strd	r4, r4, [sp, #8]
  74 0010 CDE90444 		strd	r4, r4, [sp, #16]
  75 0014 0694     		str	r4, [sp, #24]
  76 0016 01D0     		beq	.L15
  77 0018 08B0     		add	sp, sp, #32
  78              		@ sp needed
  79 001a 70BD     		pop	{r4, r5, r6, pc}
  80              	.L15:
  81 001c 03F58433 		add	r3, r3, #67584
  82 0020 0094     		str	r4, [sp]
  83 0022 5A6C     		ldr	r2, [r3, #68]
  84 0024 214E     		ldr	r6, .L17+4
  85 0026 42F48052 		orr	r2, r2, #4096
  86 002a 5A64     		str	r2, [r3, #68]
  87 002c 5A6C     		ldr	r2, [r3, #68]
  88 002e 02F48052 		and	r2, r2, #4096
  89 0032 0092     		str	r2, [sp]
  90 0034 009A     		ldr	r2, [sp]
  91 0036 0194     		str	r4, [sp, #4]
  92 0038 1A6B     		ldr	r2, [r3, #48]
  93 003a 42F00102 		orr	r2, r2, #1
  94 003e 1A63     		str	r2, [r3, #48]
  95 0040 1B6B     		ldr	r3, [r3, #48]
  96 0042 03F00103 		and	r3, r3, #1
  97 0046 0193     		str	r3, [sp, #4]
  98 0048 E022     		movs	r2, #224
  99 004a 0223     		movs	r3, #2
 100 004c CDE90223 		strd	r2, [sp, #8]
 101 0050 0546     		mov	r5, r0
 102 0052 0523     		movs	r3, #5
 103 0054 1648     		ldr	r0, .L17+8
 104 0056 019A     		ldr	r2, [sp, #4]
 105 0058 0693     		str	r3, [sp, #24]
 106 005a 02A9     		add	r1, sp, #8
 107 005c FFF7FEFF 		bl	HAL_GPIO_Init
 108 0060 144A     		ldr	r2, .L17+12
 109 0062 7462     		str	r4, [r6, #36]
 110 0064 4FF0C063 		mov	r3, #100663296
 111 0068 C6E90023 		strd	r2, r3, [r6]
 112 006c 3046     		mov	r0, r6
 113 006e 4022     		movs	r2, #64
 114 0070 4FF48063 		mov	r3, #1024
 115 0074 C6E90224 		strd	r2, r4, [r6, #8]
 116 0078 C6E90544 		strd	r4, r4, [r6, #20]
 117 007c C6E90744 		strd	r4, r4, [r6, #28]
ARM GAS  /var/folders/lp/x54gwt890xv47sdkqj1k04q40000gn/T//ccqnU9PL.s 			page 3


 118 0080 3361     		str	r3, [r6, #16]
 119 0082 FFF7FEFF 		bl	HAL_DMA_Init
 120 0086 58B9     		cbnz	r0, .L16
 121              	.L10:
 122 0088 0022     		movs	r2, #0
 123 008a 1146     		mov	r1, r2
 124 008c AE64     		str	r6, [r5, #72]
 125 008e 2320     		movs	r0, #35
 126 0090 B563     		str	r5, [r6, #56]
 127 0092 FFF7FEFF 		bl	HAL_NVIC_SetPriority
 128 0096 2320     		movs	r0, #35
 129 0098 FFF7FEFF 		bl	HAL_NVIC_EnableIRQ
 130 009c 08B0     		add	sp, sp, #32
 131              		@ sp needed
 132 009e 70BD     		pop	{r4, r5, r6, pc}
 133              	.L16:
 134 00a0 FFF7FEFF 		bl	Error_Handler
 135 00a4 F0E7     		b	.L10
 136              	.L18:
 137 00a6 00BF     		.align	2
 138              	.L17:
 139 00a8 00300140 		.word	1073819648
 140 00ac 00000000 		.word	hdma_spi1_tx
 141 00b0 00000240 		.word	1073872896
 142 00b4 58640240 		.word	1073898584
 144              		.section	.text.HAL_SPI_MspDeInit,"ax",%progbits
 145              		.align	1
 146              		.p2align 2,,3
 147              		.global	HAL_SPI_MspDeInit
 148              		.syntax unified
 149              		.thumb
 150              		.thumb_func
 152              	HAL_SPI_MspDeInit:
 153              		@ args = 0, pretend = 0, frame = 0
 154              		@ frame_needed = 0, uses_anonymous_args = 0
 155 0000 0B4B     		ldr	r3, .L25
 156 0002 0268     		ldr	r2, [r0]
 157 0004 9A42     		cmp	r2, r3
 158 0006 00D0     		beq	.L24
 159 0008 7047     		bx	lr
 160              	.L24:
 161 000a 0A4A     		ldr	r2, .L25+4
 162 000c 10B5     		push	{r4, lr}
 163 000e 536C     		ldr	r3, [r2, #68]
 164 0010 0446     		mov	r4, r0
 165 0012 23F48053 		bic	r3, r3, #4096
 166 0016 0848     		ldr	r0, .L25+8
 167 0018 5364     		str	r3, [r2, #68]
 168 001a E021     		movs	r1, #224
 169 001c FFF7FEFF 		bl	HAL_GPIO_DeInit
 170 0020 A06C     		ldr	r0, [r4, #72]
 171 0022 FFF7FEFF 		bl	HAL_DMA_DeInit
 172 0026 BDE81040 		pop	{r4, lr}
 173 002a 2320     		movs	r0, #35
 174 002c FFF7FEBF 		b	HAL_NVIC_DisableIRQ
 175              	.L26:
 176              		.align	2
ARM GAS  /var/folders/lp/x54gwt890xv47sdkqj1k04q40000gn/T//ccqnU9PL.s 			page 4


 177              	.L25:
 178 0030 00300140 		.word	1073819648
 179 0034 00380240 		.word	1073887232
 180 0038 00000240 		.word	1073872896
 182              		.global	hdma_spi1_tx
 183              		.section	.bss.hdma_spi1_tx,"aw",%nobits
 184              		.align	2
 187              	hdma_spi1_tx:
 188 0000 00000000 		.space	96
 188      00000000 
 188      00000000 
 188      00000000 
 188      00000000 
 189              		.global	hspi1
 190              		.section	.bss.hspi1,"aw",%nobits
 191              		.align	3
 194              	hspi1:
 195 0000 00000000 		.space	88
 195      00000000 
 195      00000000 
 195      00000000 
 195      00000000 
 196              		.ident	"GCC: (xPack GNU Arm Embedded GCC arm64) 13.3.1 20240614"
ARM GAS  /var/folders/lp/x54gwt890xv47sdkqj1k04q40000gn/T//ccqnU9PL.s 			page 5

