ARM GAS  /var/folders/lp/x54gwt890xv47sdkqj1k04q40000gn/T//ccv2P9TJ.s 			page 1


   1              		.cpu cortex-m4
   2              		.arch armv7e-m
   3              		.fpu fpv4-sp-d16
   4              		.eabi_attribute 27, 1
   5              		.eabi_attribute 28, 1
   6              		.eabi_attribute 20, 1
   7              		.eabi_attribute 21, 1
   8              		.eabi_attribute 23, 3
   9              		.eabi_attribute 24, 1
  10              		.eabi_attribute 25, 1
  11              		.eabi_attribute 26, 1
  12              		.eabi_attribute 30, 2
  13              		.eabi_attribute 34, 1
  14              		.eabi_attribute 18, 4
  15              		.file	"st7789v.c"
  16              		.text
  17              		.section	.text.ST7789V_WriteCommand,"ax",%progbits
  18              		.align	1
  19              		.p2align 2,,3
  20              		.syntax unified
  21              		.thumb
  22              		.thumb_func
  24              	ST7789V_WriteCommand:
  25              		@ args = 0, pretend = 0, frame = 8
  26              		@ frame_needed = 0, uses_anonymous_args = 0
  27 0000 10B5     		push	{r4, lr}
  28 0002 0F4C     		ldr	r4, .L4
  29 0004 82B0     		sub	sp, sp, #8
  30 0006 0346     		mov	r3, r0
  31 0008 0022     		movs	r2, #0
  32 000a 2046     		mov	r0, r4
  33 000c 0421     		movs	r1, #4
  34 000e 8DF80730 		strb	r3, [sp, #7]
  35 0012 FFF7FEFF 		bl	HAL_GPIO_WritePin
  36 0016 2046     		mov	r0, r4
  37 0018 0022     		movs	r2, #0
  38 001a 0221     		movs	r1, #2
  39 001c FFF7FEFF 		bl	HAL_GPIO_WritePin
  40 0020 4FF0FF33 		mov	r3, #-1
  41 0024 0DF10701 		add	r1, sp, #7
  42 0028 0122     		movs	r2, #1
  43 002a 0648     		ldr	r0, .L4+4
  44 002c FFF7FEFF 		bl	HAL_SPI_Transmit
  45 0030 0122     		movs	r2, #1
  46 0032 0421     		movs	r1, #4
  47 0034 2046     		mov	r0, r4
  48 0036 FFF7FEFF 		bl	HAL_GPIO_WritePin
  49 003a 02B0     		add	sp, sp, #8
  50              		@ sp needed
  51 003c 10BD     		pop	{r4, pc}
  52              	.L5:
  53 003e 00BF     		.align	2
  54              	.L4:
  55 0040 00000240 		.word	1073872896
  56 0044 00000000 		.word	hspi1
  58              		.section	.text.ST7789V_WriteSmallData,"ax",%progbits
  59              		.align	1
ARM GAS  /var/folders/lp/x54gwt890xv47sdkqj1k04q40000gn/T//ccv2P9TJ.s 			page 2


  60              		.p2align 2,,3
  61              		.syntax unified
  62              		.thumb
  63              		.thumb_func
  65              	ST7789V_WriteSmallData:
  66              		@ args = 0, pretend = 0, frame = 8
  67              		@ frame_needed = 0, uses_anonymous_args = 0
  68 0000 10B5     		push	{r4, lr}
  69 0002 0F4C     		ldr	r4, .L8
  70 0004 82B0     		sub	sp, sp, #8
  71 0006 0346     		mov	r3, r0
  72 0008 0022     		movs	r2, #0
  73 000a 2046     		mov	r0, r4
  74 000c 0421     		movs	r1, #4
  75 000e 8DF80730 		strb	r3, [sp, #7]
  76 0012 FFF7FEFF 		bl	HAL_GPIO_WritePin
  77 0016 2046     		mov	r0, r4
  78 0018 0122     		movs	r2, #1
  79 001a 0221     		movs	r1, #2
  80 001c FFF7FEFF 		bl	HAL_GPIO_WritePin
  81 0020 4FF0FF33 		mov	r3, #-1
  82 0024 0DF10701 		add	r1, sp, #7
  83 0028 0122     		movs	r2, #1
  84 002a 0648     		ldr	r0, .L8+4
  85 002c FFF7FEFF 		bl	HAL_SPI_Transmit
  86 0030 0122     		movs	r2, #1
  87 0032 0421     		movs	r1, #4
  88 0034 2046     		mov	r0, r4
  89 0036 FFF7FEFF 		bl	HAL_GPIO_WritePin
  90 003a 02B0     		add	sp, sp, #8
  91              		@ sp needed
  92 003c 10BD     		pop	{r4, pc}
  93              	.L9:
  94 003e 00BF     		.align	2
  95              	.L8:
  96 0040 00000240 		.word	1073872896
  97 0044 00000000 		.word	hspi1
  99              		.section	.text.ST7789V_WriteData,"ax",%progbits
 100              		.align	1
 101              		.p2align 2,,3
 102              		.global	ST7789V_WriteData
 103              		.syntax unified
 104              		.thumb
 105              		.thumb_func
 107              	ST7789V_WriteData:
 108              		@ args = 0, pretend = 0, frame = 0
 109              		@ frame_needed = 0, uses_anonymous_args = 0
 110 0000 2DE9F041 		push	{r4, r5, r6, r7, r8, lr}
 111 0004 0022     		movs	r2, #0
 112 0006 0D46     		mov	r5, r1
 113 0008 0646     		mov	r6, r0
 114 000a 0421     		movs	r1, #4
 115 000c 1048     		ldr	r0, .L18
 116 000e FFF7FEFF 		bl	HAL_GPIO_WritePin
 117 0012 0F48     		ldr	r0, .L18
 118 0014 0122     		movs	r2, #1
 119 0016 0221     		movs	r1, #2
ARM GAS  /var/folders/lp/x54gwt890xv47sdkqj1k04q40000gn/T//ccv2P9TJ.s 			page 3


 120 0018 FFF7FEFF 		bl	HAL_GPIO_WritePin
 121 001c 85B1     		cbz	r5, .L11
 122 001e DFF83480 		ldr	r8, .L18+4
 123 0022 4FF6FF77 		movw	r7, #65535
 124              	.L12:
 125 0026 BD42     		cmp	r5, r7
 126 0028 2C46     		mov	r4, r5
 127 002a 28BF     		it	cs
 128 002c 3C46     		movcs	r4, r7
 129 002e 3146     		mov	r1, r6
 130 0030 0A23     		movs	r3, #10
 131 0032 A2B2     		uxth	r2, r4
 132 0034 4046     		mov	r0, r8
 133 0036 FFF7FEFF 		bl	HAL_SPI_Transmit
 134 003a 2D1B     		subs	r5, r5, r4
 135 003c 2644     		add	r6, r6, r4
 136 003e F2D1     		bne	.L12
 137              	.L11:
 138 0040 BDE8F041 		pop	{r4, r5, r6, r7, r8, lr}
 139 0044 0248     		ldr	r0, .L18
 140 0046 0122     		movs	r2, #1
 141 0048 0421     		movs	r1, #4
 142 004a FFF7FEBF 		b	HAL_GPIO_WritePin
 143              	.L19:
 144 004e 00BF     		.align	2
 145              	.L18:
 146 0050 00000240 		.word	1073872896
 147 0054 00000000 		.word	hspi1
 149              		.section	.text.ST7789V_SetRotation,"ax",%progbits
 150              		.align	1
 151              		.p2align 2,,3
 152              		.global	ST7789V_SetRotation
 153              		.syntax unified
 154              		.thumb
 155              		.thumb_func
 157              	ST7789V_SetRotation:
 158              		@ args = 0, pretend = 0, frame = 0
 159              		@ frame_needed = 0, uses_anonymous_args = 0
 160 0000 10B5     		push	{r4, lr}
 161 0002 0446     		mov	r4, r0
 162 0004 3620     		movs	r0, #54
 163 0006 FFF7FEFF 		bl	ST7789V_WriteCommand
 164 000a 032C     		cmp	r4, #3
 165 000c 17D8     		bhi	.L20
 166 000e DFE804F0 		tbb	[pc, r4]
 167              	.L23:
 168 0012 11       		.byte	(.L26-.L23)/2
 169 0013 0C       		.byte	(.L25-.L23)/2
 170 0014 07       		.byte	(.L24-.L23)/2
 171 0015 02       		.byte	(.L22-.L23)/2
 172              		.p2align 1
 173              	.L22:
 174 0016 BDE81040 		pop	{r4, lr}
 175 001a 6020     		movs	r0, #96
 176 001c FFF7FEBF 		b	ST7789V_WriteSmallData
 177              	.L24:
 178 0020 BDE81040 		pop	{r4, lr}
ARM GAS  /var/folders/lp/x54gwt890xv47sdkqj1k04q40000gn/T//ccv2P9TJ.s 			page 4


 179 0024 0020     		movs	r0, #0
 180 0026 FFF7FEBF 		b	ST7789V_WriteSmallData
 181              	.L25:
 182 002a BDE81040 		pop	{r4, lr}
 183 002e A020     		movs	r0, #160
 184 0030 FFF7FEBF 		b	ST7789V_WriteSmallData
 185              	.L26:
 186 0034 BDE81040 		pop	{r4, lr}
 187 0038 C020     		movs	r0, #192
 188 003a FFF7FEBF 		b	ST7789V_WriteSmallData
 189              	.L20:
 190 003e 10BD     		pop	{r4, pc}
 192              		.section	.text.ST7789V_SetAddressWindow,"ax",%progbits
 193              		.align	1
 194              		.p2align 2,,3
 195              		.global	ST7789V_SetAddressWindow
 196              		.syntax unified
 197              		.thumb
 198              		.thumb_func
 200              	ST7789V_SetAddressWindow:
 201              		@ args = 0, pretend = 0, frame = 8
 202              		@ frame_needed = 0, uses_anonymous_args = 0
 203 0000 2DE9F041 		push	{r4, r5, r6, r7, r8, lr}
 204 0004 8046     		mov	r8, r0
 205 0006 82B0     		sub	sp, sp, #8
 206 0008 2A20     		movs	r0, #42
 207 000a 1746     		mov	r7, r2
 208 000c 0E46     		mov	r6, r1
 209 000e 1D46     		mov	r5, r3
 210 0010 0024     		movs	r4, #0
 211 0012 FFF7FEFF 		bl	ST7789V_WriteCommand
 212 0016 4FEA1823 		lsr	r3, r8, #8
 213 001a 63F30704 		bfi	r4, r3, #0, #8
 214 001e 68F30F24 		bfi	r4, r8, #8, #8
 215 0022 3B0A     		lsrs	r3, r7, #8
 216 0024 0421     		movs	r1, #4
 217 0026 63F31744 		bfi	r4, r3, #16, #8
 218 002a 0DEB0100 		add	r0, sp, r1
 219 002e 67F31F64 		bfi	r4, r7, #24, #8
 220 0032 0194     		str	r4, [sp, #4]
 221 0034 FFF7FEFF 		bl	ST7789V_WriteData
 222 0038 2B20     		movs	r0, #43
 223 003a FFF7FEFF 		bl	ST7789V_WriteCommand
 224 003e 330A     		lsrs	r3, r6, #8
 225 0040 0022     		movs	r2, #0
 226 0042 63F30702 		bfi	r2, r3, #0, #8
 227 0046 66F30F22 		bfi	r2, r6, #8, #8
 228 004a 2B0A     		lsrs	r3, r5, #8
 229 004c 63F31742 		bfi	r2, r3, #16, #8
 230 0050 0421     		movs	r1, #4
 231 0052 65F31F62 		bfi	r2, r5, #24, #8
 232 0056 0DEB0100 		add	r0, sp, r1
 233 005a 0192     		str	r2, [sp, #4]
 234 005c FFF7FEFF 		bl	ST7789V_WriteData
 235 0060 2C20     		movs	r0, #44
 236 0062 02B0     		add	sp, sp, #8
 237              		@ sp needed
ARM GAS  /var/folders/lp/x54gwt890xv47sdkqj1k04q40000gn/T//ccv2P9TJ.s 			page 5


 238 0064 BDE8F041 		pop	{r4, r5, r6, r7, r8, lr}
 239 0068 FFF7FEBF 		b	ST7789V_WriteCommand
 241              		.section	.text.ST7789V_DrawPixel.part.0,"ax",%progbits
 242              		.align	1
 243              		.p2align 2,,3
 244              		.syntax unified
 245              		.thumb
 246              		.thumb_func
 248              	ST7789V_DrawPixel.part.0:
 249              		@ args = 0, pretend = 0, frame = 8
 250              		@ frame_needed = 0, uses_anonymous_args = 0
 251 0000 30B5     		push	{r4, r5, lr}
 252 0002 0D4D     		ldr	r5, .L32
 253 0004 83B0     		sub	sp, sp, #12
 254 0006 0B46     		mov	r3, r1
 255 0008 1446     		mov	r4, r2
 256 000a 0246     		mov	r2, r0
 257 000c FFF7FEFF 		bl	ST7789V_SetAddressWindow
 258 0010 64BA     		rev16	r4, r4
 259 0012 0022     		movs	r2, #0
 260 0014 2846     		mov	r0, r5
 261 0016 0421     		movs	r1, #4
 262 0018 ADF80440 		strh	r4, [sp, #4]	@ movhi
 263 001c FFF7FEFF 		bl	HAL_GPIO_WritePin
 264 0020 01A8     		add	r0, sp, #4
 265 0022 0221     		movs	r1, #2
 266 0024 FFF7FEFF 		bl	ST7789V_WriteData
 267 0028 0122     		movs	r2, #1
 268 002a 0421     		movs	r1, #4
 269 002c 2846     		mov	r0, r5
 270 002e FFF7FEFF 		bl	HAL_GPIO_WritePin
 271 0032 03B0     		add	sp, sp, #12
 272              		@ sp needed
 273 0034 30BD     		pop	{r4, r5, pc}
 274              	.L33:
 275 0036 00BF     		.align	2
 276              	.L32:
 277 0038 00000240 		.word	1073872896
 279              		.section	.text.ST7789V_Init,"ax",%progbits
 280              		.align	1
 281              		.p2align 2,,3
 282              		.global	ST7789V_Init
 283              		.syntax unified
 284              		.thumb
 285              		.thumb_func
 287              	ST7789V_Init:
 288              		@ args = 0, pretend = 0, frame = 0
 289              		@ frame_needed = 0, uses_anonymous_args = 0
 290 0000 10B5     		push	{r4, lr}
 291 0002 7F4C     		ldr	r4, .L36
 292 0004 3220     		movs	r0, #50
 293 0006 FFF7FEFF 		bl	HAL_Delay
 294 000a 0122     		movs	r2, #1
 295 000c 0221     		movs	r1, #2
 296 000e 2046     		mov	r0, r4
 297 0010 FFF7FEFF 		bl	HAL_GPIO_WritePin
 298 0014 3220     		movs	r0, #50
ARM GAS  /var/folders/lp/x54gwt890xv47sdkqj1k04q40000gn/T//ccv2P9TJ.s 			page 6


 299 0016 FFF7FEFF 		bl	HAL_Delay
 300 001a 0022     		movs	r2, #0
 301 001c 0821     		movs	r1, #8
 302 001e 2046     		mov	r0, r4
 303 0020 FFF7FEFF 		bl	HAL_GPIO_WritePin
 304 0024 1920     		movs	r0, #25
 305 0026 FFF7FEFF 		bl	HAL_Delay
 306 002a 0122     		movs	r2, #1
 307 002c 0821     		movs	r1, #8
 308 002e 2046     		mov	r0, r4
 309 0030 FFF7FEFF 		bl	HAL_GPIO_WritePin
 310 0034 1920     		movs	r0, #25
 311 0036 FFF7FEFF 		bl	HAL_Delay
 312 003a 3620     		movs	r0, #54
 313 003c FFF7FEFF 		bl	ST7789V_WriteCommand
 314 0040 0020     		movs	r0, #0
 315 0042 FFF7FEFF 		bl	ST7789V_WriteSmallData
 316 0046 3A20     		movs	r0, #58
 317 0048 FFF7FEFF 		bl	ST7789V_WriteCommand
 318 004c 0520     		movs	r0, #5
 319 004e FFF7FEFF 		bl	ST7789V_WriteSmallData
 320 0052 2120     		movs	r0, #33
 321 0054 FFF7FEFF 		bl	ST7789V_WriteCommand
 322 0058 2A20     		movs	r0, #42
 323 005a FFF7FEFF 		bl	ST7789V_WriteCommand
 324 005e 0020     		movs	r0, #0
 325 0060 FFF7FEFF 		bl	ST7789V_WriteSmallData
 326 0064 0020     		movs	r0, #0
 327 0066 FFF7FEFF 		bl	ST7789V_WriteSmallData
 328 006a 0120     		movs	r0, #1
 329 006c FFF7FEFF 		bl	ST7789V_WriteSmallData
 330 0070 3F20     		movs	r0, #63
 331 0072 FFF7FEFF 		bl	ST7789V_WriteSmallData
 332 0076 2B20     		movs	r0, #43
 333 0078 FFF7FEFF 		bl	ST7789V_WriteCommand
 334 007c 0020     		movs	r0, #0
 335 007e FFF7FEFF 		bl	ST7789V_WriteSmallData
 336 0082 0020     		movs	r0, #0
 337 0084 FFF7FEFF 		bl	ST7789V_WriteSmallData
 338 0088 0020     		movs	r0, #0
 339 008a FFF7FEFF 		bl	ST7789V_WriteSmallData
 340 008e EF20     		movs	r0, #239
 341 0090 FFF7FEFF 		bl	ST7789V_WriteSmallData
 342 0094 B220     		movs	r0, #178
 343 0096 FFF7FEFF 		bl	ST7789V_WriteCommand
 344 009a 0C20     		movs	r0, #12
 345 009c FFF7FEFF 		bl	ST7789V_WriteSmallData
 346 00a0 0C20     		movs	r0, #12
 347 00a2 FFF7FEFF 		bl	ST7789V_WriteSmallData
 348 00a6 0020     		movs	r0, #0
 349 00a8 FFF7FEFF 		bl	ST7789V_WriteSmallData
 350 00ac 3320     		movs	r0, #51
 351 00ae FFF7FEFF 		bl	ST7789V_WriteSmallData
 352 00b2 3320     		movs	r0, #51
 353 00b4 FFF7FEFF 		bl	ST7789V_WriteSmallData
 354 00b8 B720     		movs	r0, #183
 355 00ba FFF7FEFF 		bl	ST7789V_WriteCommand
ARM GAS  /var/folders/lp/x54gwt890xv47sdkqj1k04q40000gn/T//ccv2P9TJ.s 			page 7


 356 00be 3520     		movs	r0, #53
 357 00c0 FFF7FEFF 		bl	ST7789V_WriteSmallData
 358 00c4 B720     		movs	r0, #183
 359 00c6 FFF7FEFF 		bl	ST7789V_WriteCommand
 360 00ca 1F20     		movs	r0, #31
 361 00cc FFF7FEFF 		bl	ST7789V_WriteSmallData
 362 00d0 C020     		movs	r0, #192
 363 00d2 FFF7FEFF 		bl	ST7789V_WriteCommand
 364 00d6 2C20     		movs	r0, #44
 365 00d8 FFF7FEFF 		bl	ST7789V_WriteSmallData
 366 00dc C220     		movs	r0, #194
 367 00de FFF7FEFF 		bl	ST7789V_WriteCommand
 368 00e2 0120     		movs	r0, #1
 369 00e4 FFF7FEFF 		bl	ST7789V_WriteSmallData
 370 00e8 C320     		movs	r0, #195
 371 00ea FFF7FEFF 		bl	ST7789V_WriteCommand
 372 00ee 1220     		movs	r0, #18
 373 00f0 FFF7FEFF 		bl	ST7789V_WriteSmallData
 374 00f4 C420     		movs	r0, #196
 375 00f6 FFF7FEFF 		bl	ST7789V_WriteCommand
 376 00fa 2020     		movs	r0, #32
 377 00fc FFF7FEFF 		bl	ST7789V_WriteSmallData
 378 0100 C620     		movs	r0, #198
 379 0102 FFF7FEFF 		bl	ST7789V_WriteCommand
 380 0106 0F20     		movs	r0, #15
 381 0108 FFF7FEFF 		bl	ST7789V_WriteSmallData
 382 010c D020     		movs	r0, #208
 383 010e FFF7FEFF 		bl	ST7789V_WriteCommand
 384 0112 A420     		movs	r0, #164
 385 0114 FFF7FEFF 		bl	ST7789V_WriteSmallData
 386 0118 A120     		movs	r0, #161
 387 011a FFF7FEFF 		bl	ST7789V_WriteSmallData
 388 011e E020     		movs	r0, #224
 389 0120 FFF7FEFF 		bl	ST7789V_WriteCommand
 390 0124 D020     		movs	r0, #208
 391 0126 FFF7FEFF 		bl	ST7789V_WriteSmallData
 392 012a 0820     		movs	r0, #8
 393 012c FFF7FEFF 		bl	ST7789V_WriteSmallData
 394 0130 1120     		movs	r0, #17
 395 0132 FFF7FEFF 		bl	ST7789V_WriteSmallData
 396 0136 0820     		movs	r0, #8
 397 0138 FFF7FEFF 		bl	ST7789V_WriteSmallData
 398 013c 0C20     		movs	r0, #12
 399 013e FFF7FEFF 		bl	ST7789V_WriteSmallData
 400 0142 1520     		movs	r0, #21
 401 0144 FFF7FEFF 		bl	ST7789V_WriteSmallData
 402 0148 3920     		movs	r0, #57
 403 014a FFF7FEFF 		bl	ST7789V_WriteSmallData
 404 014e 3320     		movs	r0, #51
 405 0150 FFF7FEFF 		bl	ST7789V_WriteSmallData
 406 0154 5020     		movs	r0, #80
 407 0156 FFF7FEFF 		bl	ST7789V_WriteSmallData
 408 015a 3620     		movs	r0, #54
 409 015c FFF7FEFF 		bl	ST7789V_WriteSmallData
 410 0160 1320     		movs	r0, #19
 411 0162 FFF7FEFF 		bl	ST7789V_WriteSmallData
 412 0166 1420     		movs	r0, #20
ARM GAS  /var/folders/lp/x54gwt890xv47sdkqj1k04q40000gn/T//ccv2P9TJ.s 			page 8


 413 0168 FFF7FEFF 		bl	ST7789V_WriteSmallData
 414 016c 2920     		movs	r0, #41
 415 016e FFF7FEFF 		bl	ST7789V_WriteSmallData
 416 0172 2D20     		movs	r0, #45
 417 0174 FFF7FEFF 		bl	ST7789V_WriteSmallData
 418 0178 E120     		movs	r0, #225
 419 017a FFF7FEFF 		bl	ST7789V_WriteCommand
 420 017e D020     		movs	r0, #208
 421 0180 FFF7FEFF 		bl	ST7789V_WriteSmallData
 422 0184 0820     		movs	r0, #8
 423 0186 FFF7FEFF 		bl	ST7789V_WriteSmallData
 424 018a 1020     		movs	r0, #16
 425 018c FFF7FEFF 		bl	ST7789V_WriteSmallData
 426 0190 0820     		movs	r0, #8
 427 0192 FFF7FEFF 		bl	ST7789V_WriteSmallData
 428 0196 0620     		movs	r0, #6
 429 0198 FFF7FEFF 		bl	ST7789V_WriteSmallData
 430 019c 0620     		movs	r0, #6
 431 019e FFF7FEFF 		bl	ST7789V_WriteSmallData
 432 01a2 3920     		movs	r0, #57
 433 01a4 FFF7FEFF 		bl	ST7789V_WriteSmallData
 434 01a8 4420     		movs	r0, #68
 435 01aa FFF7FEFF 		bl	ST7789V_WriteSmallData
 436 01ae 5120     		movs	r0, #81
 437 01b0 FFF7FEFF 		bl	ST7789V_WriteSmallData
 438 01b4 0B20     		movs	r0, #11
 439 01b6 FFF7FEFF 		bl	ST7789V_WriteSmallData
 440 01ba 1620     		movs	r0, #22
 441 01bc FFF7FEFF 		bl	ST7789V_WriteSmallData
 442 01c0 1420     		movs	r0, #20
 443 01c2 FFF7FEFF 		bl	ST7789V_WriteSmallData
 444 01c6 2F20     		movs	r0, #47
 445 01c8 FFF7FEFF 		bl	ST7789V_WriteSmallData
 446 01cc 3120     		movs	r0, #49
 447 01ce FFF7FEFF 		bl	ST7789V_WriteSmallData
 448 01d2 2120     		movs	r0, #33
 449 01d4 FFF7FEFF 		bl	ST7789V_WriteCommand
 450 01d8 1120     		movs	r0, #17
 451 01da FFF7FEFF 		bl	ST7789V_WriteCommand
 452 01de 1320     		movs	r0, #19
 453 01e0 FFF7FEFF 		bl	ST7789V_WriteCommand
 454 01e4 2920     		movs	r0, #41
 455 01e6 FFF7FEFF 		bl	ST7789V_WriteCommand
 456 01ea 3220     		movs	r0, #50
 457 01ec FFF7FEFF 		bl	HAL_Delay
 458 01f0 3620     		movs	r0, #54
 459 01f2 FFF7FEFF 		bl	ST7789V_WriteCommand
 460 01f6 BDE81040 		pop	{r4, lr}
 461 01fa 6020     		movs	r0, #96
 462 01fc FFF7FEBF 		b	ST7789V_WriteSmallData
 463              	.L37:
 464              		.align	2
 465              	.L36:
 466 0200 00000240 		.word	1073872896
 468              		.section	.text.MemsetBuffer,"ax",%progbits
 469              		.align	1
 470              		.p2align 2,,3
ARM GAS  /var/folders/lp/x54gwt890xv47sdkqj1k04q40000gn/T//ccv2P9TJ.s 			page 9


 471              		.global	MemsetBuffer
 472              		.syntax unified
 473              		.thumb
 474              		.thumb_func
 476              	MemsetBuffer:
 477              		@ args = 0, pretend = 0, frame = 0
 478              		@ frame_needed = 0, uses_anonymous_args = 0
 479              		@ link register save eliminated.
 480 0000 32B1     		cbz	r2, .L38
 481 0002 0238     		subs	r0, r0, #2
 482 0004 00EB4202 		add	r2, r0, r2, lsl #1
 483              	.L40:
 484 0008 20F8021F 		strh	r1, [r0, #2]!	@ movhi
 485 000c 9042     		cmp	r0, r2
 486 000e FBD1     		bne	.L40
 487              	.L38:
 488 0010 7047     		bx	lr
 490 0012 00BF     		.section	.text.ST7789V_Fill_Color,"ax",%progbits
 491              		.align	1
 492              		.p2align 2,,3
 493              		.global	ST7789V_Fill_Color
 494              		.syntax unified
 495              		.thumb
 496              		.thumb_func
 498              	ST7789V_Fill_Color:
 499              		@ args = 0, pretend = 0, frame = 8
 500              		@ frame_needed = 0, uses_anonymous_args = 0
 501 0000 70B5     		push	{r4, r5, r6, lr}
 502 0002 0021     		movs	r1, #0
 503 0004 82B0     		sub	sp, sp, #8
 504 0006 0546     		mov	r5, r0
 505 0008 EF23     		movs	r3, #239
 506 000a 0846     		mov	r0, r1
 507 000c 40F23F12 		movw	r2, #319
 508 0010 FFF7FEFF 		bl	ST7789V_SetAddressWindow
 509 0014 0F48     		ldr	r0, .L51
 510 0016 0022     		movs	r2, #0
 511 0018 0421     		movs	r1, #4
 512 001a FFF7FEFF 		bl	HAL_GPIO_WritePin
 513 001e 4FF4A076 		mov	r6, #320
 514 0022 6DBA     		rev16	r5, r5
 515              	.L46:
 516 0024 F024     		movs	r4, #240
 517              	.L47:
 518 0026 013C     		subs	r4, r4, #1
 519 0028 0221     		movs	r1, #2
 520 002a 01A8     		add	r0, sp, #4
 521 002c A4B2     		uxth	r4, r4
 522 002e ADF80450 		strh	r5, [sp, #4]	@ movhi
 523 0032 FFF7FEFF 		bl	ST7789V_WriteData
 524 0036 002C     		cmp	r4, #0
 525 0038 F5D1     		bne	.L47
 526 003a 013E     		subs	r6, r6, #1
 527 003c B6B2     		uxth	r6, r6
 528 003e 002E     		cmp	r6, #0
 529 0040 F0D1     		bne	.L46
 530 0042 0448     		ldr	r0, .L51
ARM GAS  /var/folders/lp/x54gwt890xv47sdkqj1k04q40000gn/T//ccv2P9TJ.s 			page 10


 531 0044 0122     		movs	r2, #1
 532 0046 0421     		movs	r1, #4
 533 0048 02B0     		add	sp, sp, #8
 534              		@ sp needed
 535 004a BDE87040 		pop	{r4, r5, r6, lr}
 536 004e FFF7FEBF 		b	HAL_GPIO_WritePin
 537              	.L52:
 538 0052 00BF     		.align	2
 539              	.L51:
 540 0054 00000240 		.word	1073872896
 542              		.section	.text.ST7789V_DrawPixel,"ax",%progbits
 543              		.align	1
 544              		.p2align 2,,3
 545              		.global	ST7789V_DrawPixel
 546              		.syntax unified
 547              		.thumb
 548              		.thumb_func
 550              	ST7789V_DrawPixel:
 551              		@ args = 0, pretend = 0, frame = 0
 552              		@ frame_needed = 0, uses_anonymous_args = 0
 553              		@ link register save eliminated.
 554 0000 B0F5A07F 		cmp	r0, #320
 555 0004 01D2     		bcs	.L53
 556 0006 EF29     		cmp	r1, #239
 557 0008 00D9     		bls	.L55
 558              	.L53:
 559 000a 7047     		bx	lr
 560              	.L55:
 561 000c FFF7FEBF 		b	ST7789V_DrawPixel.part.0
 563              		.section	.text.ST7789V_Fill,"ax",%progbits
 564              		.align	1
 565              		.p2align 2,,3
 566              		.global	ST7789V_Fill
 567              		.syntax unified
 568              		.thumb
 569              		.thumb_func
 571              	ST7789V_Fill:
 572              		@ args = 4, pretend = 0, frame = 8
 573              		@ frame_needed = 0, uses_anonymous_args = 0
 574 0000 2DE9F043 		push	{r4, r5, r6, r7, r8, r9, lr}
 575 0004 83B0     		sub	sp, sp, #12
 576 0006 B2F5A07F 		cmp	r2, #320
 577 000a BDF82860 		ldrh	r6, [sp, #40]
 578 000e 02D2     		bcs	.L56
 579 0010 EF2B     		cmp	r3, #239
 580 0012 9946     		mov	r9, r3
 581 0014 02D9     		bls	.L65
 582              	.L56:
 583 0016 03B0     		add	sp, sp, #12
 584              		@ sp needed
 585 0018 BDE8F083 		pop	{r4, r5, r6, r7, r8, r9, pc}
 586              	.L65:
 587 001c 0F46     		mov	r7, r1
 588 001e 8046     		mov	r8, r0
 589 0020 1546     		mov	r5, r2
 590 0022 FFF7FEFF 		bl	ST7789V_SetAddressWindow
 591 0026 B945     		cmp	r9, r7
ARM GAS  /var/folders/lp/x54gwt890xv47sdkqj1k04q40000gn/T//ccv2P9TJ.s 			page 11


 592 0028 F5D3     		bcc	.L56
 593 002a 76BA     		rev16	r6, r6
 594              	.L58:
 595 002c 4545     		cmp	r5, r8
 596 002e 28BF     		it	cs
 597 0030 4446     		movcs	r4, r8
 598 0032 0BD3     		bcc	.L60
 599              	.L59:
 600 0034 0221     		movs	r1, #2
 601 0036 01A8     		add	r0, sp, #4
 602 0038 ADF80460 		strh	r6, [sp, #4]	@ movhi
 603 003c FFF7FEFF 		bl	ST7789V_WriteData
 604 0040 A446     		mov	ip, r4
 605 0042 6545     		cmp	r5, ip
 606 0044 04F10104 		add	r4, r4, #1
 607 0048 A4B2     		uxth	r4, r4
 608 004a F3D1     		bne	.L59
 609              	.L60:
 610 004c 7B1C     		adds	r3, r7, #1
 611 004e B945     		cmp	r9, r7
 612 0050 9BB2     		uxth	r3, r3
 613 0052 E0D0     		beq	.L56
 614 0054 1F46     		mov	r7, r3
 615 0056 E9E7     		b	.L58
 617              		.section	.text.ST7789V_DrawPixel_4px,"ax",%progbits
 618              		.align	1
 619              		.p2align 2,,3
 620              		.global	ST7789V_DrawPixel_4px
 621              		.syntax unified
 622              		.thumb
 623              		.thumb_func
 625              	ST7789V_DrawPixel_4px:
 626              		@ args = 0, pretend = 0, frame = 0
 627              		@ frame_needed = 0, uses_anonymous_args = 0
 628 0000 2DE9F041 		push	{r4, r5, r6, r7, r8, lr}
 629 0004 461E     		subs	r6, r0, #1
 630 0006 B6B2     		uxth	r6, r6
 631 0008 B6F5A07F 		cmp	r6, #320
 632 000c 82B0     		sub	sp, sp, #8
 633 000e 1FD2     		bcs	.L66
 634 0010 01F1FF38 		add	r8, r1, #-1
 635 0014 1FFA88F8 		uxth	r8, r8
 636 0018 B8F1EF0F 		cmp	r8, #239
 637 001c 0D46     		mov	r5, r1
 638 001e 17D8     		bhi	.L66
 639 0020 0446     		mov	r4, r0
 640 0022 1746     		mov	r7, r2
 641 0024 0C48     		ldr	r0, .L69
 642 0026 0022     		movs	r2, #0
 643 0028 0421     		movs	r1, #4
 644 002a FFF7FEFF 		bl	HAL_GPIO_WritePin
 645 002e 6B1C     		adds	r3, r5, #1
 646 0030 621C     		adds	r2, r4, #1
 647 0032 4146     		mov	r1, r8
 648 0034 3046     		mov	r0, r6
 649 0036 0097     		str	r7, [sp]
 650 0038 9BB2     		uxth	r3, r3
ARM GAS  /var/folders/lp/x54gwt890xv47sdkqj1k04q40000gn/T//ccv2P9TJ.s 			page 12


 651 003a 92B2     		uxth	r2, r2
 652 003c FFF7FEFF 		bl	ST7789V_Fill
 653 0040 0548     		ldr	r0, .L69
 654 0042 0122     		movs	r2, #1
 655 0044 0421     		movs	r1, #4
 656 0046 02B0     		add	sp, sp, #8
 657              		@ sp needed
 658 0048 BDE8F041 		pop	{r4, r5, r6, r7, r8, lr}
 659 004c FFF7FEBF 		b	HAL_GPIO_WritePin
 660              	.L66:
 661 0050 02B0     		add	sp, sp, #8
 662              		@ sp needed
 663 0052 BDE8F081 		pop	{r4, r5, r6, r7, r8, pc}
 664              	.L70:
 665 0056 00BF     		.align	2
 666              	.L69:
 667 0058 00000240 		.word	1073872896
 669              		.section	.text.ST7789V_DrawLine,"ax",%progbits
 670              		.align	1
 671              		.p2align 2,,3
 672              		.global	ST7789V_DrawLine
 673              		.syntax unified
 674              		.thumb
 675              		.thumb_func
 677              	ST7789V_DrawLine:
 678              		@ args = 4, pretend = 0, frame = 8
 679              		@ frame_needed = 0, uses_anonymous_args = 0
 680 0000 2DE9F04F 		push	{r4, r5, r6, r7, r8, r9, r10, fp, lr}
 681 0004 A3EB0108 		sub	r8, r3, r1
 682 0008 A2EB0009 		sub	r9, r2, r0
 683 000c B8F1000F 		cmp	r8, #0
 684 0010 B8BF     		it	lt
 685 0012 C8F10008 		rsblt	r8, r8, #0
 686 0016 B9F1000F 		cmp	r9, #0
 687 001a 83B0     		sub	sp, sp, #12
 688 001c B8BF     		it	lt
 689 001e C9F10009 		rsblt	r9, r9, #0
 690 0022 C845     		cmp	r8, r9
 691 0024 BDF830A0 		ldrh	r10, [sp, #48]
 692 0028 8B46     		mov	fp, r1
 693 002a 1646     		mov	r6, r2
 694 002c 1D46     		mov	r5, r3
 695 002e 1ADC     		bgt	.L86
 696 0030 3546     		mov	r5, r6
 697 0032 8346     		mov	fp, r0
 698 0034 1C46     		mov	r4, r3
 699 0036 AB45     		cmp	fp, r5
 700 0038 1A46     		mov	r2, r3
 701 003a 2646     		mov	r6, r4
 702 003c 0B46     		mov	r3, r1
 703 003e 0846     		mov	r0, r1
 704 0040 14D9     		bls	.L88
 705              	.L73:
 706 0042 9F1A     		subs	r7, r3, r2
 707 0044 ABEB0502 		sub	r2, fp, r5
 708 0048 002F     		cmp	r7, #0
 709 004a C2F3C034 		ubfx	r4, r2, #15, #1
ARM GAS  /var/folders/lp/x54gwt890xv47sdkqj1k04q40000gn/T//ccv2P9TJ.s 			page 13


 710 004e 04FA82F4 		sxtah	r4, r4, r2
 711 0052 B8BF     		it	lt
 712 0054 7F42     		rsblt	r7, r7, #0
 713 0056 B042     		cmp	r0, r6
 714 0058 92B2     		uxth	r2, r2
 715 005a 4FEA6404 		asr	r4, r4, #1
 716 005e 49D8     		bhi	.L83
 717 0060 4FF0FF31 		mov	r1, #-1
 718 0064 1CE0     		b	.L79
 719              	.L86:
 720 0066 AB45     		cmp	fp, r5
 721 0068 0346     		mov	r3, r0
 722 006a EAD8     		bhi	.L73
 723              	.L88:
 724 006c D21A     		subs	r2, r2, r3
 725 006e 82EAE277 		eor	r7, r2, r2, asr #31
 726 0072 A7EBE277 		sub	r7, r7, r2, asr #31
 727 0076 A5EB0B02 		sub	r2, r5, fp
 728 007a C2F3C034 		ubfx	r4, r2, #15, #1
 729 007e 04FA82F4 		sxtah	r4, r4, r2
 730 0082 2B46     		mov	r3, r5
 731 0084 B042     		cmp	r0, r6
 732 0086 5D46     		mov	r5, fp
 733 0088 92B2     		uxth	r2, r2
 734 008a 4FEA6404 		asr	r4, r4, #1
 735 008e 0646     		mov	r6, r0
 736 0090 9B46     		mov	fp, r3
 737 0092 01D2     		bcs	.L89
 738 0094 0121     		movs	r1, #1
 739 0096 03E0     		b	.L79
 740              	.L89:
 741 0098 5D45     		cmp	r5, fp
 742 009a 4FF0FF31 		mov	r1, #-1
 743 009e 2DD8     		bhi	.L71
 744              	.L79:
 745 00a0 CDE90012 		strd	r1, r2, [sp]
 746 00a4 BFB2     		uxth	r7, r7
 747 00a6 18E0     		b	.L78
 748              	.L90:
 749 00a8 B6F5A07F 		cmp	r6, #320
 750 00ac 06D2     		bcs	.L76
 751 00ae EF2D     		cmp	r5, #239
 752 00b0 5246     		mov	r2, r10
 753 00b2 2946     		mov	r1, r5
 754 00b4 02D8     		bhi	.L76
 755 00b6 3046     		mov	r0, r6
 756 00b8 FFF7FEFF 		bl	ST7789V_DrawPixel.part.0
 757              	.L76:
 758 00bc E21B     		subs	r2, r4, r7
 759 00be 14B2     		sxth	r4, r2
 760 00c0 0135     		adds	r5, r5, #1
 761 00c2 002C     		cmp	r4, #0
 762 00c4 ADB2     		uxth	r5, r5
 763 00c6 92B2     		uxth	r2, r2
 764 00c8 05DA     		bge	.L77
 765 00ca 019B     		ldr	r3, [sp, #4]
 766 00cc 1A44     		add	r2, r2, r3
ARM GAS  /var/folders/lp/x54gwt890xv47sdkqj1k04q40000gn/T//ccv2P9TJ.s 			page 14


 767 00ce 009B     		ldr	r3, [sp]
 768 00d0 1E44     		add	r6, r6, r3
 769 00d2 14B2     		sxth	r4, r2
 770 00d4 B6B2     		uxth	r6, r6
 771              	.L77:
 772 00d6 5D45     		cmp	r5, fp
 773 00d8 10D8     		bhi	.L71
 774              	.L78:
 775 00da C845     		cmp	r8, r9
 776 00dc E4DC     		bgt	.L90
 777 00de B5F5A07F 		cmp	r5, #320
 778 00e2 EBD2     		bcs	.L76
 779 00e4 EF2E     		cmp	r6, #239
 780 00e6 5246     		mov	r2, r10
 781 00e8 3146     		mov	r1, r6
 782 00ea E7D8     		bhi	.L76
 783 00ec 2846     		mov	r0, r5
 784 00ee FFF7FEFF 		bl	ST7789V_DrawPixel.part.0
 785 00f2 E3E7     		b	.L76
 786              	.L83:
 787 00f4 5D45     		cmp	r5, fp
 788 00f6 4FF00101 		mov	r1, #1
 789 00fa D1D9     		bls	.L79
 790              	.L71:
 791 00fc 03B0     		add	sp, sp, #12
 792              		@ sp needed
 793 00fe BDE8F08F 		pop	{r4, r5, r6, r7, r8, r9, r10, fp, pc}
 795 0102 00BF     		.section	.text.ST7789V_DrawRectangle,"ax",%progbits
 796              		.align	1
 797              		.p2align 2,,3
 798              		.global	ST7789V_DrawRectangle
 799              		.syntax unified
 800              		.thumb
 801              		.thumb_func
 803              	ST7789V_DrawRectangle:
 804              		@ args = 4, pretend = 0, frame = 0
 805              		@ frame_needed = 0, uses_anonymous_args = 0
 806 0000 2DE9F043 		push	{r4, r5, r6, r7, r8, r9, lr}
 807 0004 DFF86890 		ldr	r9, .L93
 808 0008 83B0     		sub	sp, sp, #12
 809 000a 0646     		mov	r6, r0
 810 000c BDF82880 		ldrh	r8, [sp, #40]
 811 0010 0C46     		mov	r4, r1
 812 0012 1746     		mov	r7, r2
 813 0014 4846     		mov	r0, r9
 814 0016 0022     		movs	r2, #0
 815 0018 0421     		movs	r1, #4
 816 001a 1D46     		mov	r5, r3
 817 001c FFF7FEFF 		bl	HAL_GPIO_WritePin
 818 0020 2346     		mov	r3, r4
 819 0022 3A46     		mov	r2, r7
 820 0024 2146     		mov	r1, r4
 821 0026 3046     		mov	r0, r6
 822 0028 CDF80080 		str	r8, [sp]
 823 002c FFF7FEFF 		bl	ST7789V_DrawLine
 824 0030 2B46     		mov	r3, r5
 825 0032 3246     		mov	r2, r6
ARM GAS  /var/folders/lp/x54gwt890xv47sdkqj1k04q40000gn/T//ccv2P9TJ.s 			page 15


 826 0034 2146     		mov	r1, r4
 827 0036 3046     		mov	r0, r6
 828 0038 CDF80080 		str	r8, [sp]
 829 003c FFF7FEFF 		bl	ST7789V_DrawLine
 830 0040 3046     		mov	r0, r6
 831 0042 2B46     		mov	r3, r5
 832 0044 3A46     		mov	r2, r7
 833 0046 2946     		mov	r1, r5
 834 0048 CDF80080 		str	r8, [sp]
 835 004c FFF7FEFF 		bl	ST7789V_DrawLine
 836 0050 3A46     		mov	r2, r7
 837 0052 2146     		mov	r1, r4
 838 0054 3846     		mov	r0, r7
 839 0056 CDF80080 		str	r8, [sp]
 840 005a 2B46     		mov	r3, r5
 841 005c FFF7FEFF 		bl	ST7789V_DrawLine
 842 0060 0122     		movs	r2, #1
 843 0062 0421     		movs	r1, #4
 844 0064 4846     		mov	r0, r9
 845 0066 03B0     		add	sp, sp, #12
 846              		@ sp needed
 847 0068 BDE8F043 		pop	{r4, r5, r6, r7, r8, r9, lr}
 848 006c FFF7FEBF 		b	HAL_GPIO_WritePin
 849              	.L94:
 850              		.align	2
 851              	.L93:
 852 0070 00000240 		.word	1073872896
 854              		.section	.text.ST7789V_DrawCircle,"ax",%progbits
 855              		.align	1
 856              		.p2align 2,,3
 857              		.global	ST7789V_DrawCircle
 858              		.syntax unified
 859              		.thumb
 860              		.thumb_func
 862              	ST7789V_DrawCircle:
 863              		@ args = 0, pretend = 0, frame = 24
 864              		@ frame_needed = 0, uses_anonymous_args = 0
 865 0000 2DE9F04F 		push	{r4, r5, r6, r7, r8, r9, r10, fp, lr}
 866 0004 87B0     		sub	sp, sp, #28
 867 0006 1E46     		mov	r6, r3
 868 0008 0193     		str	r3, [sp, #4]
 869 000a C2EBC233 		rsb	r3, r2, r2, lsl #15
 870 000e 5B00     		lsls	r3, r3, #1
 871 0010 8B46     		mov	fp, r1
 872 0012 C2F10101 		rsb	r1, r2, #1
 873 0016 1446     		mov	r4, r2
 874 0018 0291     		str	r1, [sp, #8]
 875 001a 19B2     		sxth	r1, r3
 876 001c 8246     		mov	r10, r0
 877 001e 0391     		str	r1, [sp, #12]
 878 0020 8948     		ldr	r0, .L153
 879 0022 0022     		movs	r2, #0
 880 0024 0421     		movs	r1, #4
 881 0026 25B2     		sxth	r5, r4
 882 0028 0095     		str	r5, [sp]
 883 002a FFF7FEFF 		bl	HAL_GPIO_WritePin
 884 002e BAF5A07F 		cmp	r10, #320
ARM GAS  /var/folders/lp/x54gwt890xv47sdkqj1k04q40000gn/T//ccv2P9TJ.s 			page 16


 885 0032 0BD2     		bcs	.L97
 886 0034 04EB0B01 		add	r1, r4, fp
 887 0038 89B2     		uxth	r1, r1
 888 003a ABEB0405 		sub	r5, fp, r4
 889 003e EF29     		cmp	r1, #239
 890 0040 ADB2     		uxth	r5, r5
 891 0042 40F2EB80 		bls	.L146
 892 0046 EF2D     		cmp	r5, #239
 893 0048 40F2D080 		bls	.L147
 894              	.L97:
 895 004c 04EB0A00 		add	r0, r4, r10
 896 0050 80B2     		uxth	r0, r0
 897 0052 B0F5A07F 		cmp	r0, #320
 898 0056 80F0D580 		bcs	.L100
 899              	.L152:
 900 005a BBF1EF0F 		cmp	fp, #239
 901 005e 40F2B580 		bls	.L148
 902              	.L102:
 903 0062 009B     		ldr	r3, [sp]
 904 0064 0027     		movs	r7, #0
 905 0066 BBB9     		cbnz	r3, .L105
 906 0068 6CE0     		b	.L129
 907              	.L149:
 908 006a 751B     		subs	r5, r6, r5
 909 006c EF2E     		cmp	r6, #239
 910 006e ADB2     		uxth	r5, r5
 911 0070 7BD9     		bls	.L119
 912 0072 B4F5A07F 		cmp	r4, #320
 913 0076 80F0A080 		bcs	.L120
 914              	.L121:
 915 007a EF2D     		cmp	r5, #239
 916 007c 09D8     		bhi	.L125
 917 007e 019A     		ldr	r2, [sp, #4]
 918 0080 4046     		mov	r0, r8
 919 0082 2946     		mov	r1, r5
 920 0084 FFF7FEFF 		bl	ST7789V_DrawPixel.part.0
 921              	.L130:
 922 0088 019A     		ldr	r2, [sp, #4]
 923 008a 2946     		mov	r1, r5
 924 008c 2046     		mov	r0, r4
 925 008e FFF7FEFF 		bl	ST7789V_DrawPixel.part.0
 926              	.L125:
 927 0092 009B     		ldr	r3, [sp]
 928 0094 BB42     		cmp	r3, r7
 929 0096 55DD     		ble	.L129
 930              	.L105:
 931 0098 029A     		ldr	r2, [sp, #8]
 932 009a BDF80040 		ldrh	r4, [sp]
 933 009e 002A     		cmp	r2, #0
 934 00a0 93B2     		uxth	r3, r2
 935 00a2 0ADB     		blt	.L106
 936 00a4 039A     		ldr	r2, [sp, #12]
 937 00a6 611E     		subs	r1, r4, #1
 938 00a8 0232     		adds	r2, r2, #2
 939 00aa 13FA82F3 		uxtah	r3, r3, r2
 940 00ae 8CB2     		uxth	r4, r1
 941 00b0 12B2     		sxth	r2, r2
ARM GAS  /var/folders/lp/x54gwt890xv47sdkqj1k04q40000gn/T//ccv2P9TJ.s 			page 17


 942 00b2 09B2     		sxth	r1, r1
 943 00b4 0091     		str	r1, [sp]
 944 00b6 0392     		str	r2, [sp, #12]
 945 00b8 9BB2     		uxth	r3, r3
 946              	.L106:
 947 00ba 0137     		adds	r7, r7, #1
 948 00bc BEB2     		uxth	r6, r7
 949 00be 7500     		lsls	r5, r6, #1
 950 00c0 ADB2     		uxth	r5, r5
 951 00c2 0AEB0608 		add	r8, r10, r6
 952 00c6 6A1C     		adds	r2, r5, #1
 953 00c8 1FFA88F8 		uxth	r8, r8
 954 00cc 1344     		add	r3, r3, r2
 955 00ce 04EB0B01 		add	r1, r4, fp
 956 00d2 A8EB0509 		sub	r9, r8, r5
 957 00d6 1BB2     		sxth	r3, r3
 958 00d8 B8F5A07F 		cmp	r8, #320
 959 00dc 3FB2     		sxth	r7, r7
 960 00de 0293     		str	r3, [sp, #8]
 961 00e0 89B2     		uxth	r1, r1
 962 00e2 1FFA89F9 		uxth	r9, r9
 963 00e6 35D2     		bcs	.L107
 964 00e8 ABEB0403 		sub	r3, fp, r4
 965 00ec EF29     		cmp	r1, #239
 966 00ee 9BB2     		uxth	r3, r3
 967 00f0 49D9     		bls	.L108
 968 00f2 B9F5A07F 		cmp	r9, #320
 969 00f6 58D2     		bcs	.L111
 970              	.L110:
 971 00f8 EF2B     		cmp	r3, #239
 972 00fa 0BD8     		bhi	.L114
 973 00fc 1946     		mov	r1, r3
 974 00fe 019A     		ldr	r2, [sp, #4]
 975 0100 0493     		str	r3, [sp, #16]
 976 0102 4046     		mov	r0, r8
 977 0104 FFF7FEFF 		bl	ST7789V_DrawPixel.part.0
 978 0108 049B     		ldr	r3, [sp, #16]
 979              	.L132:
 980 010a 019A     		ldr	r2, [sp, #4]
 981 010c 1946     		mov	r1, r3
 982 010e 4846     		mov	r0, r9
 983 0110 FFF7FEFF 		bl	ST7789V_DrawPixel.part.0
 984              	.L114:
 985 0114 04EB0A08 		add	r8, r4, r10
 986 0118 1FFA88F8 		uxth	r8, r8
 987 011c 5E44     		add	r6, r6, fp
 988 011e AAEB0404 		sub	r4, r10, r4
 989 0122 B8F5A07F 		cmp	r8, #320
 990 0126 B6B2     		uxth	r6, r6
 991 0128 A4B2     		uxth	r4, r4
 992 012a 9ED3     		bcc	.L149
 993 012c B4F5A07F 		cmp	r4, #320
 994 0130 AFD2     		bcs	.L125
 995 0132 751B     		subs	r5, r6, r5
 996 0134 EF2E     		cmp	r6, #239
 997 0136 ADB2     		uxth	r5, r5
 998 0138 7FD9     		bls	.L150
ARM GAS  /var/folders/lp/x54gwt890xv47sdkqj1k04q40000gn/T//ccv2P9TJ.s 			page 18


 999              	.L126:
 1000 013a EF2D     		cmp	r5, #239
 1001 013c A4D9     		bls	.L130
 1002 013e 009B     		ldr	r3, [sp]
 1003 0140 BB42     		cmp	r3, r7
 1004 0142 A9DC     		bgt	.L105
 1005              	.L129:
 1006 0144 4048     		ldr	r0, .L153
 1007 0146 0122     		movs	r2, #1
 1008 0148 0421     		movs	r1, #4
 1009 014a 07B0     		add	sp, sp, #28
 1010              		@ sp needed
 1011 014c BDE8F04F 		pop	{r4, r5, r6, r7, r8, r9, r10, fp, lr}
 1012 0150 FFF7FEBF 		b	HAL_GPIO_WritePin
 1013              	.L107:
 1014 0154 B9F5A07F 		cmp	r9, #320
 1015 0158 DCD2     		bcs	.L114
 1016 015a ABEB0403 		sub	r3, fp, r4
 1017 015e EF29     		cmp	r1, #239
 1018 0160 9BB2     		uxth	r3, r3
 1019 0162 63D9     		bls	.L151
 1020              	.L115:
 1021 0164 EF2B     		cmp	r3, #239
 1022 0166 D5D8     		bhi	.L114
 1023 0168 CFE7     		b	.L132
 1024              	.L119:
 1025 016a 019A     		ldr	r2, [sp, #4]
 1026 016c 3146     		mov	r1, r6
 1027 016e 4046     		mov	r0, r8
 1028 0170 FFF7FEFF 		bl	ST7789V_DrawPixel.part.0
 1029 0174 B4F5A07F 		cmp	r4, #320
 1030 0178 1FD2     		bcs	.L120
 1031 017a 019A     		ldr	r2, [sp, #4]
 1032 017c 3146     		mov	r1, r6
 1033 017e 2046     		mov	r0, r4
 1034 0180 FFF7FEFF 		bl	ST7789V_DrawPixel.part.0
 1035 0184 79E7     		b	.L121
 1036              	.L108:
 1037 0186 019A     		ldr	r2, [sp, #4]
 1038 0188 0593     		str	r3, [sp, #20]
 1039 018a 4046     		mov	r0, r8
 1040 018c 0491     		str	r1, [sp, #16]
 1041 018e FFF7FEFF 		bl	ST7789V_DrawPixel.part.0
 1042 0192 B9F5A07F 		cmp	r9, #320
 1043 0196 DDE90413 		ldrd	r1, r3, [sp, #16]
 1044 019a 06D2     		bcs	.L111
 1045 019c 019A     		ldr	r2, [sp, #4]
 1046 019e 0493     		str	r3, [sp, #16]
 1047 01a0 4846     		mov	r0, r9
 1048 01a2 FFF7FEFF 		bl	ST7789V_DrawPixel.part.0
 1049 01a6 049B     		ldr	r3, [sp, #16]
 1050 01a8 A6E7     		b	.L110
 1051              	.L111:
 1052 01aa EF2B     		cmp	r3, #239
 1053 01ac B2D8     		bhi	.L114
 1054 01ae 019A     		ldr	r2, [sp, #4]
 1055 01b0 1946     		mov	r1, r3
ARM GAS  /var/folders/lp/x54gwt890xv47sdkqj1k04q40000gn/T//ccv2P9TJ.s 			page 19


 1056 01b2 4046     		mov	r0, r8
 1057 01b4 FFF7FEFF 		bl	ST7789V_DrawPixel.part.0
 1058 01b8 ACE7     		b	.L114
 1059              	.L120:
 1060 01ba EF2D     		cmp	r5, #239
 1061 01bc 3FF669AF 		bhi	.L125
 1062 01c0 019A     		ldr	r2, [sp, #4]
 1063 01c2 2946     		mov	r1, r5
 1064 01c4 4046     		mov	r0, r8
 1065 01c6 FFF7FEFF 		bl	ST7789V_DrawPixel.part.0
 1066 01ca 62E7     		b	.L125
 1067              	.L148:
 1068 01cc 019A     		ldr	r2, [sp, #4]
 1069 01ce 5946     		mov	r1, fp
 1070 01d0 AAEB0404 		sub	r4, r10, r4
 1071 01d4 FFF7FEFF 		bl	ST7789V_DrawPixel.part.0
 1072 01d8 A0B2     		uxth	r0, r4
 1073 01da B0F5A07F 		cmp	r0, #320
 1074 01de BFF440AF 		bcs	.L102
 1075              	.L104:
 1076 01e2 019A     		ldr	r2, [sp, #4]
 1077 01e4 5946     		mov	r1, fp
 1078 01e6 FFF7FEFF 		bl	ST7789V_DrawPixel.part.0
 1079 01ea 3AE7     		b	.L102
 1080              	.L147:
 1081 01ec 5046     		mov	r0, r10
 1082 01ee 019A     		ldr	r2, [sp, #4]
 1083 01f0 2946     		mov	r1, r5
 1084 01f2 FFF7FEFF 		bl	ST7789V_DrawPixel.part.0
 1085 01f6 04EB0A00 		add	r0, r4, r10
 1086 01fa 80B2     		uxth	r0, r0
 1087 01fc B0F5A07F 		cmp	r0, #320
 1088 0200 FFF42BAF 		bcc	.L152
 1089              	.L100:
 1090 0204 AAEB0404 		sub	r4, r10, r4
 1091 0208 A0B2     		uxth	r0, r4
 1092 020a B0F5A07F 		cmp	r0, #320
 1093 020e BFF428AF 		bcs	.L102
 1094 0212 BBF1EF0F 		cmp	fp, #239
 1095 0216 3FF624AF 		bhi	.L102
 1096 021a E2E7     		b	.L104
 1097              	.L146:
 1098 021c 3246     		mov	r2, r6
 1099 021e 5046     		mov	r0, r10
 1100 0220 FFF7FEFF 		bl	ST7789V_DrawPixel.part.0
 1101 0224 EF2D     		cmp	r5, #239
 1102 0226 3FF611AF 		bhi	.L97
 1103 022a DFE7     		b	.L147
 1104              	.L151:
 1105 022c 019A     		ldr	r2, [sp, #4]
 1106 022e 0493     		str	r3, [sp, #16]
 1107 0230 4846     		mov	r0, r9
 1108 0232 FFF7FEFF 		bl	ST7789V_DrawPixel.part.0
 1109 0236 049B     		ldr	r3, [sp, #16]
 1110 0238 94E7     		b	.L115
 1111              	.L150:
 1112 023a 019A     		ldr	r2, [sp, #4]
ARM GAS  /var/folders/lp/x54gwt890xv47sdkqj1k04q40000gn/T//ccv2P9TJ.s 			page 20


 1113 023c 3146     		mov	r1, r6
 1114 023e 2046     		mov	r0, r4
 1115 0240 FFF7FEFF 		bl	ST7789V_DrawPixel.part.0
 1116 0244 79E7     		b	.L126
 1117              	.L154:
 1118 0246 00BF     		.align	2
 1119              	.L153:
 1120 0248 00000240 		.word	1073872896
 1122              		.section	.text.ST7789V_DrawImage,"ax",%progbits
 1123              		.align	1
 1124              		.p2align 2,,3
 1125              		.global	ST7789V_DrawImage
 1126              		.syntax unified
 1127              		.thumb
 1128              		.thumb_func
 1130              	ST7789V_DrawImage:
 1131              		@ args = 4, pretend = 0, frame = 0
 1132              		@ frame_needed = 0, uses_anonymous_args = 0
 1133 0000 2DE9F041 		push	{r4, r5, r6, r7, r8, lr}
 1134 0004 B0F5A07F 		cmp	r0, #320
 1135 0008 DDF81880 		ldr	r8, [sp, #24]
 1136 000c 0CD2     		bcs	.L155
 1137 000e EF29     		cmp	r1, #239
 1138 0010 0D46     		mov	r5, r1
 1139 0012 09D8     		bhi	.L155
 1140 0014 1E46     		mov	r6, r3
 1141 0016 8318     		adds	r3, r0, r2
 1142 0018 B3F5A07F 		cmp	r3, #320
 1143 001c 0446     		mov	r4, r0
 1144 001e 1746     		mov	r7, r2
 1145 0020 02DC     		bgt	.L155
 1146 0022 8B19     		adds	r3, r1, r6
 1147 0024 F02B     		cmp	r3, #240
 1148 0026 01DD     		ble	.L158
 1149              	.L155:
 1150 0028 BDE8F081 		pop	{r4, r5, r6, r7, r8, pc}
 1151              	.L158:
 1152 002c 0D48     		ldr	r0, .L159
 1153 002e 0022     		movs	r2, #0
 1154 0030 0421     		movs	r1, #4
 1155 0032 FFF7FEFF 		bl	HAL_GPIO_WritePin
 1156 0036 731E     		subs	r3, r6, #1
 1157 0038 7A1E     		subs	r2, r7, #1
 1158 003a 2B44     		add	r3, r3, r5
 1159 003c 2244     		add	r2, r2, r4
 1160 003e 2946     		mov	r1, r5
 1161 0040 92B2     		uxth	r2, r2
 1162 0042 2046     		mov	r0, r4
 1163 0044 9BB2     		uxth	r3, r3
 1164 0046 FFF7FEFF 		bl	ST7789V_SetAddressWindow
 1165 004a 06FB07F1 		mul	r1, r6, r7
 1166 004e 4046     		mov	r0, r8
 1167 0050 4900     		lsls	r1, r1, #1
 1168 0052 FFF7FEFF 		bl	ST7789V_WriteData
 1169 0056 BDE8F041 		pop	{r4, r5, r6, r7, r8, lr}
 1170 005a 0248     		ldr	r0, .L159
 1171 005c 0122     		movs	r2, #1
ARM GAS  /var/folders/lp/x54gwt890xv47sdkqj1k04q40000gn/T//ccv2P9TJ.s 			page 21


 1172 005e 0421     		movs	r1, #4
 1173 0060 FFF7FEBF 		b	HAL_GPIO_WritePin
 1174              	.L160:
 1175              		.align	2
 1176              	.L159:
 1177 0064 00000240 		.word	1073872896
 1179              		.section	.text.ST7789V_InvertColors,"ax",%progbits
 1180              		.align	1
 1181              		.p2align 2,,3
 1182              		.global	ST7789V_InvertColors
 1183              		.syntax unified
 1184              		.thumb
 1185              		.thumb_func
 1187              	ST7789V_InvertColors:
 1188              		@ args = 0, pretend = 0, frame = 0
 1189              		@ frame_needed = 0, uses_anonymous_args = 0
 1190 0000 10B5     		push	{r4, lr}
 1191 0002 0022     		movs	r2, #0
 1192 0004 0446     		mov	r4, r0
 1193 0006 0421     		movs	r1, #4
 1194 0008 0748     		ldr	r0, .L165
 1195 000a FFF7FEFF 		bl	HAL_GPIO_WritePin
 1196 000e 002C     		cmp	r4, #0
 1197 0010 0CBF     		ite	eq
 1198 0012 2020     		moveq	r0, #32
 1199 0014 2120     		movne	r0, #33
 1200 0016 FFF7FEFF 		bl	ST7789V_WriteCommand
 1201 001a BDE81040 		pop	{r4, lr}
 1202 001e 0248     		ldr	r0, .L165
 1203 0020 0122     		movs	r2, #1
 1204 0022 0421     		movs	r1, #4
 1205 0024 FFF7FEBF 		b	HAL_GPIO_WritePin
 1206              	.L166:
 1207              		.align	2
 1208              	.L165:
 1209 0028 00000240 		.word	1073872896
 1211              		.section	.text.ST7789V_WriteChar,"ax",%progbits
 1212              		.align	1
 1213              		.p2align 2,,3
 1214              		.global	ST7789V_WriteChar
 1215              		.syntax unified
 1216              		.thumb
 1217              		.thumb_func
 1219              	ST7789V_WriteChar:
 1220              		@ args = 20, pretend = 8, frame = 16
 1221              		@ frame_needed = 0, uses_anonymous_args = 0
 1222 0000 82B0     		sub	sp, sp, #8
 1223 0002 2DE9F04F 		push	{r4, r5, r6, r7, r8, r9, r10, fp, lr}
 1224 0006 85B0     		sub	sp, sp, #20
 1225 0008 0646     		mov	r6, r0
 1226 000a 8846     		mov	r8, r1
 1227 000c C3F3072A 		ubfx	r10, r3, #8, #8
 1228 0010 2948     		ldr	r0, .L177
 1229 0012 0F93     		str	r3, [sp, #60]
 1230 0014 DDB2     		uxtb	r5, r3
 1231 0016 0421     		movs	r1, #4
 1232 0018 BDF84430 		ldrh	r3, [sp, #68]
ARM GAS  /var/folders/lp/x54gwt890xv47sdkqj1k04q40000gn/T//ccv2P9TJ.s 			page 22


 1233 001c 0193     		str	r3, [sp, #4]
 1234 001e 1446     		mov	r4, r2
 1235 0020 0022     		movs	r2, #0
 1236 0022 BDF84870 		ldrh	r7, [sp, #72]
 1237 0026 FFF7FEFF 		bl	HAL_GPIO_WritePin
 1238 002a 0AF1FF33 		add	r3, r10, #-1
 1239 002e 6A1E     		subs	r2, r5, #1
 1240 0030 4344     		add	r3, r3, r8
 1241 0032 3244     		add	r2, r2, r6
 1242 0034 9BB2     		uxth	r3, r3
 1243 0036 4146     		mov	r1, r8
 1244 0038 92B2     		uxth	r2, r2
 1245 003a 3046     		mov	r0, r6
 1246 003c FFF7FEFF 		bl	ST7789V_SetAddressWindow
 1247 0040 BAF1000F 		cmp	r10, #0
 1248 0044 2ED0     		beq	.L170
 1249 0046 203C     		subs	r4, r4, #32
 1250 0048 109B     		ldr	r3, [sp, #64]
 1251 004a 6FF00042 		mvn	r2, #-2147483648
 1252 004e 0AFB0422 		mla	r2, r10, r4, r2
 1253 0052 03EB4203 		add	r3, r3, r2, lsl #1
 1254 0056 03F10209 		add	r9, r3, #2
 1255 005a 5C88     		ldrh	r4, [r3, #2]
 1256 005c 15B3     		cbz	r5, .L170
 1257 005e 7FBA     		rev16	r7, r7
 1258 0060 4FF00008 		mov	r8, #0
 1259              	.L169:
 1260 0064 019B     		ldr	r3, [sp, #4]
 1261 0066 4FF0000B 		mov	fp, #0
 1262 006a 5EBA     		rev16	r6, r3
 1263              	.L173:
 1264 006c 04FA0BF2 		lsl	r2, r4, fp
 1265 0070 12F4004F 		tst	r2, #32768
 1266 0074 4FF00201 		mov	r1, #2
 1267 0078 03A8     		add	r0, sp, #12
 1268 007a 04BF     		itt	eq
 1269 007c 0221     		moveq	r1, #2
 1270 007e 03A8     		addeq	r0, sp, #12
 1271 0080 0BF1010B 		add	fp, fp, #1
 1272 0084 14BF     		ite	ne
 1273 0086 ADF80C60 		strhne	r6, [sp, #12]	@ movhi
 1274 008a ADF80C70 		strheq	r7, [sp, #12]	@ movhi
 1275 008e FFF7FEFF 		bl	ST7789V_WriteData
 1276 0092 AB45     		cmp	fp, r5
 1277 0094 EAD1     		bne	.L173
 1278 0096 08F10108 		add	r8, r8, #1
 1279 009a C245     		cmp	r10, r8
 1280 009c 02D0     		beq	.L170
 1281 009e 39F8024F 		ldrh	r4, [r9, #2]!
 1282 00a2 DFE7     		b	.L169
 1283              	.L170:
 1284 00a4 0448     		ldr	r0, .L177
 1285 00a6 0122     		movs	r2, #1
 1286 00a8 0421     		movs	r1, #4
 1287 00aa 05B0     		add	sp, sp, #20
 1288              		@ sp needed
 1289 00ac BDE8F04F 		pop	{r4, r5, r6, r7, r8, r9, r10, fp, lr}
ARM GAS  /var/folders/lp/x54gwt890xv47sdkqj1k04q40000gn/T//ccv2P9TJ.s 			page 23


 1290 00b0 02B0     		add	sp, sp, #8
 1291 00b2 FFF7FEBF 		b	HAL_GPIO_WritePin
 1292              	.L178:
 1293 00b6 00BF     		.align	2
 1294              	.L177:
 1295 00b8 00000240 		.word	1073872896
 1297              		.section	.text.ST7789V_WriteString,"ax",%progbits
 1298              		.align	1
 1299              		.p2align 2,,3
 1300              		.global	ST7789V_WriteString
 1301              		.syntax unified
 1302              		.thumb
 1303              		.thumb_func
 1305              	ST7789V_WriteString:
 1306              		@ args = 20, pretend = 8, frame = 0
 1307              		@ frame_needed = 0, uses_anonymous_args = 0
 1308 0000 82B0     		sub	sp, sp, #8
 1309 0002 2DE9F04F 		push	{r4, r5, r6, r7, r8, r9, r10, fp, lr}
 1310 0006 9146     		mov	r9, r2
 1311 0008 85B0     		sub	sp, sp, #20
 1312 000a 0446     		mov	r4, r0
 1313 000c 0D46     		mov	r5, r1
 1314 000e 1F48     		ldr	r0, .L188
 1315 0010 0F93     		str	r3, [sp, #60]
 1316 0012 0022     		movs	r2, #0
 1317 0014 0421     		movs	r1, #4
 1318 0016 5FFA83F8 		uxtb	r8, r3
 1319 001a C3F30727 		ubfx	r7, r3, #8, #8
 1320 001e BDF844A0 		ldrh	r10, [sp, #68]
 1321 0022 BDF848B0 		ldrh	fp, [sp, #72]
 1322 0026 FFF7FEFF 		bl	HAL_GPIO_WritePin
 1323 002a 99F80030 		ldrb	r3, [r9]	@ zero_extendqisi2
 1324 002e 09F10109 		add	r9, r9, #1
 1325 0032 13B3     		cbz	r3, .L182
 1326              	.L184:
 1327 0034 04EB0806 		add	r6, r4, r8
 1328 0038 B6F5A07F 		cmp	r6, #320
 1329 003c 07EB0501 		add	r1, r7, r5
 1330 0040 1A46     		mov	r2, r3
 1331 0042 08DB     		blt	.L181
 1332 0044 8DB2     		uxth	r5, r1
 1333 0046 E919     		adds	r1, r5, r7
 1334 0048 EF29     		cmp	r1, #239
 1335 004a 16DC     		bgt	.L182
 1336 004c 202B     		cmp	r3, #32
 1337 004e 4FF00004 		mov	r4, #0
 1338 0052 0ED0     		beq	.L183
 1339 0054 4646     		mov	r6, r8
 1340              	.L181:
 1341 0056 1099     		ldr	r1, [sp, #64]
 1342 0058 8DF83C80 		strb	r8, [sp, #60]
 1343 005c 8DF83D70 		strb	r7, [sp, #61]
 1344 0060 0091     		str	r1, [sp]
 1345 0062 2046     		mov	r0, r4
 1346 0064 CDE901AB 		strd	r10, fp, [sp, #4]
 1347 0068 0F9B     		ldr	r3, [sp, #60]
 1348 006a 2946     		mov	r1, r5
ARM GAS  /var/folders/lp/x54gwt890xv47sdkqj1k04q40000gn/T//ccv2P9TJ.s 			page 24


 1349 006c FFF7FEFF 		bl	ST7789V_WriteChar
 1350 0070 B4B2     		uxth	r4, r6
 1351              	.L183:
 1352 0072 19F8013B 		ldrb	r3, [r9], #1	@ zero_extendqisi2
 1353 0076 002B     		cmp	r3, #0
 1354 0078 DCD1     		bne	.L184
 1355              	.L182:
 1356 007a 0448     		ldr	r0, .L188
 1357 007c 0122     		movs	r2, #1
 1358 007e 0421     		movs	r1, #4
 1359 0080 05B0     		add	sp, sp, #20
 1360              		@ sp needed
 1361 0082 BDE8F04F 		pop	{r4, r5, r6, r7, r8, r9, r10, fp, lr}
 1362 0086 02B0     		add	sp, sp, #8
 1363 0088 FFF7FEBF 		b	HAL_GPIO_WritePin
 1364              	.L189:
 1365              		.align	2
 1366              	.L188:
 1367 008c 00000240 		.word	1073872896
 1369              		.section	.text.ST7789V_DrawFilledRectangle,"ax",%progbits
 1370              		.align	1
 1371              		.p2align 2,,3
 1372              		.global	ST7789V_DrawFilledRectangle
 1373              		.syntax unified
 1374              		.thumb
 1375              		.thumb_func
 1377              	ST7789V_DrawFilledRectangle:
 1378              		@ args = 4, pretend = 0, frame = 0
 1379              		@ frame_needed = 0, uses_anonymous_args = 0
 1380 0000 2DE9F043 		push	{r4, r5, r6, r7, r8, r9, lr}
 1381 0004 83B0     		sub	sp, sp, #12
 1382 0006 0646     		mov	r6, r0
 1383 0008 0C46     		mov	r4, r1
 1384 000a 1C48     		ldr	r0, .L200
 1385 000c BDF82870 		ldrh	r7, [sp, #40]
 1386 0010 9046     		mov	r8, r2
 1387 0012 0421     		movs	r1, #4
 1388 0014 0022     		movs	r2, #0
 1389 0016 1D46     		mov	r5, r3
 1390 0018 FFF7FEFF 		bl	HAL_GPIO_WritePin
 1391 001c B6F5A07F 		cmp	r6, #320
 1392 0020 29D2     		bcs	.L190
 1393 0022 EF2C     		cmp	r4, #239
 1394 0024 27D8     		bhi	.L190
 1395 0026 B044     		add	r8, r8, r6
 1396 0028 6319     		adds	r3, r4, r5
 1397 002a B8F5A07F 		cmp	r8, #320
 1398 002e B4BF     		ite	lt
 1399 0030 1FFA88F8 		uxthlt	r8, r8
 1400 0034 4FF4A078 		movge	r8, #320
 1401 0038 EF2B     		cmp	r3, #239
 1402 003a C4BF     		itt	gt
 1403 003c C4F1F005 		rsbgt	r5, r4, #240
 1404 0040 ADB2     		uxthgt	r5, r5
 1405 0042 04F10109 		add	r9, r4, #1
 1406 0046 4D44     		add	r5, r5, r9
 1407 0048 ADB2     		uxth	r5, r5
ARM GAS  /var/folders/lp/x54gwt890xv47sdkqj1k04q40000gn/T//ccv2P9TJ.s 			page 25


 1408 004a 01E0     		b	.L194
 1409              	.L199:
 1410 004c 04F10109 		add	r9, r4, #1
 1411              	.L194:
 1412 0050 2346     		mov	r3, r4
 1413 0052 2146     		mov	r1, r4
 1414 0054 0097     		str	r7, [sp]
 1415 0056 4246     		mov	r2, r8
 1416 0058 3046     		mov	r0, r6
 1417 005a 1FFA89F4 		uxth	r4, r9
 1418 005e FFF7FEFF 		bl	ST7789V_DrawLine
 1419 0062 A542     		cmp	r5, r4
 1420 0064 F2D1     		bne	.L199
 1421 0066 0548     		ldr	r0, .L200
 1422 0068 0122     		movs	r2, #1
 1423 006a 0421     		movs	r1, #4
 1424 006c 03B0     		add	sp, sp, #12
 1425              		@ sp needed
 1426 006e BDE8F043 		pop	{r4, r5, r6, r7, r8, r9, lr}
 1427 0072 FFF7FEBF 		b	HAL_GPIO_WritePin
 1428              	.L190:
 1429 0076 03B0     		add	sp, sp, #12
 1430              		@ sp needed
 1431 0078 BDE8F083 		pop	{r4, r5, r6, r7, r8, r9, pc}
 1432              	.L201:
 1433              		.align	2
 1434              	.L200:
 1435 007c 00000240 		.word	1073872896
 1437              		.section	.text.ST7789V_DrawTriangle,"ax",%progbits
 1438              		.align	1
 1439              		.p2align 2,,3
 1440              		.global	ST7789V_DrawTriangle
 1441              		.syntax unified
 1442              		.thumb
 1443              		.thumb_func
 1445              	ST7789V_DrawTriangle:
 1446              		@ args = 12, pretend = 0, frame = 0
 1447              		@ frame_needed = 0, uses_anonymous_args = 0
 1448 0000 2DE9F04F 		push	{r4, r5, r6, r7, r8, r9, r10, fp, lr}
 1449 0004 DFF86090 		ldr	r9, .L204
 1450 0008 83B0     		sub	sp, sp, #12
 1451 000a 0446     		mov	r4, r0
 1452 000c BDF83880 		ldrh	r8, [sp, #56]
 1453 0010 BDF830A0 		ldrh	r10, [sp, #48]
 1454 0014 BDF834B0 		ldrh	fp, [sp, #52]
 1455 0018 0D46     		mov	r5, r1
 1456 001a 1646     		mov	r6, r2
 1457 001c 1F46     		mov	r7, r3
 1458 001e 4846     		mov	r0, r9
 1459 0020 0022     		movs	r2, #0
 1460 0022 0421     		movs	r1, #4
 1461 0024 FFF7FEFF 		bl	HAL_GPIO_WritePin
 1462 0028 3B46     		mov	r3, r7
 1463 002a 3246     		mov	r2, r6
 1464 002c 2946     		mov	r1, r5
 1465 002e 2046     		mov	r0, r4
 1466 0030 CDF80080 		str	r8, [sp]
ARM GAS  /var/folders/lp/x54gwt890xv47sdkqj1k04q40000gn/T//ccv2P9TJ.s 			page 26


 1467 0034 FFF7FEFF 		bl	ST7789V_DrawLine
 1468 0038 3946     		mov	r1, r7
 1469 003a 3046     		mov	r0, r6
 1470 003c 5B46     		mov	r3, fp
 1471 003e 5246     		mov	r2, r10
 1472 0040 CDF80080 		str	r8, [sp]
 1473 0044 FFF7FEFF 		bl	ST7789V_DrawLine
 1474 0048 2246     		mov	r2, r4
 1475 004a 5946     		mov	r1, fp
 1476 004c 5046     		mov	r0, r10
 1477 004e CDF80080 		str	r8, [sp]
 1478 0052 2B46     		mov	r3, r5
 1479 0054 FFF7FEFF 		bl	ST7789V_DrawLine
 1480 0058 0122     		movs	r2, #1
 1481 005a 0421     		movs	r1, #4
 1482 005c 4846     		mov	r0, r9
 1483 005e 03B0     		add	sp, sp, #12
 1484              		@ sp needed
 1485 0060 BDE8F04F 		pop	{r4, r5, r6, r7, r8, r9, r10, fp, lr}
 1486 0064 FFF7FEBF 		b	HAL_GPIO_WritePin
 1487              	.L205:
 1488              		.align	2
 1489              	.L204:
 1490 0068 00000240 		.word	1073872896
 1492              		.section	.text.ST7789V_DrawFilledTriangle,"ax",%progbits
 1493              		.align	1
 1494              		.p2align 2,,3
 1495              		.global	ST7789V_DrawFilledTriangle
 1496              		.syntax unified
 1497              		.thumb
 1498              		.thumb_func
 1500              	ST7789V_DrawFilledTriangle:
 1501              		@ args = 12, pretend = 0, frame = 24
 1502              		@ frame_needed = 0, uses_anonymous_args = 0
 1503 0000 2DE9F04F 		push	{r4, r5, r6, r7, r8, r9, r10, fp, lr}
 1504 0004 89B0     		sub	sp, sp, #36
 1505 0006 0746     		mov	r7, r0
 1506 0008 BDF84840 		ldrh	r4, [sp, #72]
 1507 000c 3948     		ldr	r0, .L219
 1508 000e 0394     		str	r4, [sp, #12]
 1509 0010 9046     		mov	r8, r2
 1510 0012 1E46     		mov	r6, r3
 1511 0014 BDF84C30 		ldrh	r3, [sp, #76]
 1512 0018 0493     		str	r3, [sp, #16]
 1513 001a 0C46     		mov	r4, r1
 1514 001c A8EB0705 		sub	r5, r8, r7
 1515 0020 BDF85030 		ldrh	r3, [sp, #80]
 1516 0024 0593     		str	r3, [sp, #20]
 1517 0026 0421     		movs	r1, #4
 1518 0028 0022     		movs	r2, #0
 1519 002a FFF7FEFF 		bl	HAL_GPIO_WritePin
 1520 002e 002D     		cmp	r5, #0
 1521 0030 B8BF     		it	lt
 1522 0032 6D42     		rsblt	r5, r5, #0
 1523 0034 38B2     		sxth	r0, r7
 1524 0036 B845     		cmp	r8, r7
 1525 0038 34BF     		ite	cc
ARM GAS  /var/folders/lp/x54gwt890xv47sdkqj1k04q40000gn/T//ccv2P9TJ.s 			page 27


 1526 003a 4FF0FF3E 		movcc	lr, #-1
 1527 003e 4FF0010E 		movcs	lr, #1
 1528 0042 371B     		subs	r7, r6, r4
 1529 0044 002F     		cmp	r7, #0
 1530 0046 B8BF     		it	lt
 1531 0048 7F42     		rsblt	r7, r7, #0
 1532 004a 2DB2     		sxth	r5, r5
 1533 004c 3FB2     		sxth	r7, r7
 1534 004e A642     		cmp	r6, r4
 1535 0050 34BF     		ite	cc
 1536 0052 4FF0FF33 		movcc	r3, #-1
 1537 0056 0123     		movcs	r3, #1
 1538 0058 BD42     		cmp	r5, r7
 1539 005a 21B2     		sxth	r1, r4
 1540 005c 3EDB     		blt	.L209
 1541 005e F146     		mov	r9, lr
 1542 0060 05EBD574 		add	r4, r5, r5, lsr #31
 1543 0064 4FF0000E 		mov	lr, #0
 1544 0068 6410     		asrs	r4, r4, #1
 1545 006a F046     		mov	r8, lr
 1546              	.L210:
 1547 006c 002D     		cmp	r5, #0
 1548 006e 2DDB     		blt	.L214
 1549 0070 CDE906E3 		strd	lr, r3, [sp, #24]
 1550 0074 BFB2     		uxth	r7, r7
 1551 0076 1FFA89F9 		uxth	r9, r9
 1552 007a 1FFA88F8 		uxth	r8, r8
 1553 007e 0026     		movs	r6, #0
 1554              	.L213:
 1555 0080 059B     		ldr	r3, [sp, #20]
 1556 0082 0093     		str	r3, [sp]
 1557 0084 1FFA80FB 		uxth	fp, r0
 1558 0088 1FFA81FA 		uxth	r10, r1
 1559 008c DDE90323 		ldrd	r2, r3, [sp, #12]
 1560 0090 3C44     		add	r4, r4, r7
 1561 0092 5146     		mov	r1, r10
 1562 0094 5846     		mov	r0, fp
 1563 0096 FFF7FEFF 		bl	ST7789V_DrawLine
 1564 009a A2B2     		uxth	r2, r4
 1565 009c 24B2     		sxth	r4, r4
 1566 009e 0136     		adds	r6, r6, #1
 1567 00a0 A542     		cmp	r5, r4
 1568 00a2 33B2     		sxth	r3, r6
 1569 00a4 0ADC     		bgt	.L212
 1570 00a6 0699     		ldr	r1, [sp, #24]
 1571 00a8 0BEB0100 		add	r0, fp, r1
 1572 00ac 0799     		ldr	r1, [sp, #28]
 1573 00ae 521B     		subs	r2, r2, r5
 1574 00b0 5144     		add	r1, r10, r1
 1575 00b2 1FFA80FB 		uxth	fp, r0
 1576 00b6 1FFA81FA 		uxth	r10, r1
 1577 00ba 14B2     		sxth	r4, r2
 1578              	.L212:
 1579 00bc 09EB0B00 		add	r0, r9, fp
 1580 00c0 08EB0A01 		add	r1, r8, r10
 1581 00c4 AB42     		cmp	r3, r5
 1582 00c6 00B2     		sxth	r0, r0
ARM GAS  /var/folders/lp/x54gwt890xv47sdkqj1k04q40000gn/T//ccv2P9TJ.s 			page 28


 1583 00c8 09B2     		sxth	r1, r1
 1584 00ca D9DD     		ble	.L213
 1585              	.L214:
 1586 00cc 0948     		ldr	r0, .L219
 1587 00ce 0122     		movs	r2, #1
 1588 00d0 0421     		movs	r1, #4
 1589 00d2 09B0     		add	sp, sp, #36
 1590              		@ sp needed
 1591 00d4 BDE8F04F 		pop	{r4, r5, r6, r7, r8, r9, r10, fp, lr}
 1592 00d8 FFF7FEBF 		b	HAL_GPIO_WritePin
 1593              	.L209:
 1594 00dc 2A46     		mov	r2, r5
 1595 00de 07EBD774 		add	r4, r7, r7, lsr #31
 1596 00e2 9846     		mov	r8, r3
 1597 00e4 0023     		movs	r3, #0
 1598 00e6 3D46     		mov	r5, r7
 1599 00e8 44F34F04 		sbfx	r4, r4, #1, #16
 1600 00ec 1746     		mov	r7, r2
 1601 00ee 9946     		mov	r9, r3
 1602 00f0 BCE7     		b	.L210
 1603              	.L220:
 1604 00f2 00BF     		.align	2
 1605              	.L219:
 1606 00f4 00000240 		.word	1073872896
 1608              		.section	.text.ST7789V_DrawFilledCircle,"ax",%progbits
 1609              		.align	1
 1610              		.p2align 2,,3
 1611              		.global	ST7789V_DrawFilledCircle
 1612              		.syntax unified
 1613              		.thumb
 1614              		.thumb_func
 1616              	ST7789V_DrawFilledCircle:
 1617              		@ args = 0, pretend = 0, frame = 16
 1618              		@ frame_needed = 0, uses_anonymous_args = 0
 1619 0000 2DE9F04F 		push	{r4, r5, r6, r7, r8, r9, r10, fp, lr}
 1620 0004 87B0     		sub	sp, sp, #28
 1621 0006 1446     		mov	r4, r2
 1622 0008 8046     		mov	r8, r0
 1623 000a 8B46     		mov	fp, r1
 1624 000c 0494     		str	r4, [sp, #16]
 1625 000e 0421     		movs	r1, #4
 1626 0010 A4B2     		uxth	r4, r4
 1627 0012 5F48     		ldr	r0, .L241
 1628 0014 0393     		str	r3, [sp, #12]
 1629 0016 0022     		movs	r2, #0
 1630 0018 1F46     		mov	r7, r3
 1631 001a FFF7FEFF 		bl	HAL_GPIO_WritePin
 1632 001e C4EBC433 		rsb	r3, r4, r4, lsl #15
 1633 0022 1FFA88F8 		uxth	r8, r8
 1634 0026 5B00     		lsls	r3, r3, #1
 1635 0028 19B2     		sxth	r1, r3
 1636 002a C4F10105 		rsb	r5, r4, #1
 1637 002e B8F5A07F 		cmp	r8, #320
 1638 0032 1FFA8BFB 		uxth	fp, fp
 1639 0036 0591     		str	r1, [sp, #20]
 1640 0038 2DB2     		sxth	r5, r5
 1641 003a 0BD2     		bcs	.L223
ARM GAS  /var/folders/lp/x54gwt890xv47sdkqj1k04q40000gn/T//ccv2P9TJ.s 			page 29


 1642 003c 04EB0B01 		add	r1, r4, fp
 1643 0040 89B2     		uxth	r1, r1
 1644 0042 ABEB0406 		sub	r6, fp, r4
 1645 0046 EF29     		cmp	r1, #239
 1646 0048 B6B2     		uxth	r6, r6
 1647 004a 40F29080 		bls	.L237
 1648 004e EF2E     		cmp	r6, #239
 1649 0050 40F28780 		bls	.L238
 1650              	.L223:
 1651 0054 04EB0806 		add	r6, r4, r8
 1652 0058 B6B2     		uxth	r6, r6
 1653 005a A8EB0407 		sub	r7, r8, r4
 1654 005e B6F5A07F 		cmp	r6, #320
 1655 0062 BFB2     		uxth	r7, r7
 1656 0064 80F08B80 		bcs	.L226
 1657 0068 BBF1EF0F 		cmp	fp, #239
 1658 006c 6BD9     		bls	.L239
 1659              	.L228:
 1660 006e 039B     		ldr	r3, [sp, #12]
 1661 0070 0093     		str	r3, [sp]
 1662 0072 3246     		mov	r2, r6
 1663 0074 5B46     		mov	r3, fp
 1664 0076 3846     		mov	r0, r7
 1665 0078 5946     		mov	r1, fp
 1666 007a FFF7FEFF 		bl	ST7789V_DrawLine
 1667 007e 049B     		ldr	r3, [sp, #16]
 1668 0080 002B     		cmp	r3, #0
 1669 0082 58DD     		ble	.L233
 1670 0084 0027     		movs	r7, #0
 1671 0086 AA46     		mov	r10, r5
 1672 0088 B946     		mov	r9, r7
 1673 008a 039D     		ldr	r5, [sp, #12]
 1674 008c 00E0     		b	.L231
 1675              	.L240:
 1676 008e 9CB2     		uxth	r4, r3
 1677              	.L231:
 1678 0090 09F10103 		add	r3, r9, #1
 1679 0094 9EB2     		uxth	r6, r3
 1680 0096 A8EB0609 		sub	r9, r8, r6
 1681 009a 08EB0607 		add	r7, r8, r6
 1682 009e 1FFA89F0 		uxth	r0, r9
 1683 00a2 BFB2     		uxth	r7, r7
 1684 00a4 BAF1000F 		cmp	r10, #0
 1685 00a8 0390     		str	r0, [sp, #12]
 1686 00aa 3A46     		mov	r2, r7
 1687 00ac 0FFA83F9 		sxth	r9, r3
 1688 00b0 1FFA8AF1 		uxth	r1, r10
 1689 00b4 0FDB     		blt	.L232
 1690 00b6 059B     		ldr	r3, [sp, #20]
 1691 00b8 04F1FF3C 		add	ip, r4, #-1
 1692 00bc 0233     		adds	r3, r3, #2
 1693 00be 9E46     		mov	lr, r3
 1694 00c0 11FA83F1 		uxtah	r1, r1, r3
 1695 00c4 0FFA8CF3 		sxth	r3, ip
 1696 00c8 0493     		str	r3, [sp, #16]
 1697 00ca 0FFA8EF3 		sxth	r3, lr
 1698 00ce 1FFA8CF4 		uxth	r4, ip
ARM GAS  /var/folders/lp/x54gwt890xv47sdkqj1k04q40000gn/T//ccv2P9TJ.s 			page 30


 1699 00d2 89B2     		uxth	r1, r1
 1700 00d4 0593     		str	r3, [sp, #20]
 1701              	.L232:
 1702 00d6 0BEB0403 		add	r3, fp, r4
 1703 00da 01EB4601 		add	r1, r1, r6, lsl #1
 1704 00de 9BB2     		uxth	r3, r3
 1705 00e0 0131     		adds	r1, r1, #1
 1706 00e2 0095     		str	r5, [sp]
 1707 00e4 0FFA81FA 		sxth	r10, r1
 1708 00e8 1946     		mov	r1, r3
 1709 00ea FFF7FEFF 		bl	ST7789V_DrawLine
 1710 00ee ABEB0403 		sub	r3, fp, r4
 1711 00f2 9BB2     		uxth	r3, r3
 1712 00f4 1946     		mov	r1, r3
 1713 00f6 3846     		mov	r0, r7
 1714 00f8 039A     		ldr	r2, [sp, #12]
 1715 00fa 0095     		str	r5, [sp]
 1716 00fc FFF7FEFF 		bl	ST7789V_DrawLine
 1717 0100 08EB0407 		add	r7, r8, r4
 1718 0104 0BEB0603 		add	r3, fp, r6
 1719 0108 A8EB0404 		sub	r4, r8, r4
 1720 010c 9BB2     		uxth	r3, r3
 1721 010e BFB2     		uxth	r7, r7
 1722 0110 A4B2     		uxth	r4, r4
 1723 0112 1946     		mov	r1, r3
 1724 0114 2246     		mov	r2, r4
 1725 0116 3846     		mov	r0, r7
 1726 0118 0095     		str	r5, [sp]
 1727 011a FFF7FEFF 		bl	ST7789V_DrawLine
 1728 011e ABEB0603 		sub	r3, fp, r6
 1729 0122 9BB2     		uxth	r3, r3
 1730 0124 1946     		mov	r1, r3
 1731 0126 0095     		str	r5, [sp]
 1732 0128 2246     		mov	r2, r4
 1733 012a 3846     		mov	r0, r7
 1734 012c FFF7FEFF 		bl	ST7789V_DrawLine
 1735 0130 049B     		ldr	r3, [sp, #16]
 1736 0132 4B45     		cmp	r3, r9
 1737 0134 ABDC     		bgt	.L240
 1738              	.L233:
 1739 0136 1648     		ldr	r0, .L241
 1740 0138 0122     		movs	r2, #1
 1741 013a 0421     		movs	r1, #4
 1742 013c 07B0     		add	sp, sp, #28
 1743              		@ sp needed
 1744 013e BDE8F04F 		pop	{r4, r5, r6, r7, r8, r9, r10, fp, lr}
 1745 0142 FFF7FEBF 		b	HAL_GPIO_WritePin
 1746              	.L239:
 1747 0146 039A     		ldr	r2, [sp, #12]
 1748 0148 5946     		mov	r1, fp
 1749 014a 3046     		mov	r0, r6
 1750 014c FFF7FEFF 		bl	ST7789V_DrawPixel.part.0
 1751 0150 B7F5A07F 		cmp	r7, #320
 1752 0154 8BD2     		bcs	.L228
 1753              	.L230:
 1754 0156 039A     		ldr	r2, [sp, #12]
 1755 0158 5946     		mov	r1, fp
ARM GAS  /var/folders/lp/x54gwt890xv47sdkqj1k04q40000gn/T//ccv2P9TJ.s 			page 31


 1756 015a 3846     		mov	r0, r7
 1757 015c FFF7FEFF 		bl	ST7789V_DrawPixel.part.0
 1758 0160 85E7     		b	.L228
 1759              	.L238:
 1760 0162 039A     		ldr	r2, [sp, #12]
 1761 0164 3146     		mov	r1, r6
 1762 0166 4046     		mov	r0, r8
 1763 0168 FFF7FEFF 		bl	ST7789V_DrawPixel.part.0
 1764 016c 72E7     		b	.L223
 1765              	.L237:
 1766 016e 3A46     		mov	r2, r7
 1767 0170 4046     		mov	r0, r8
 1768 0172 FFF7FEFF 		bl	ST7789V_DrawPixel.part.0
 1769 0176 EF2E     		cmp	r6, #239
 1770 0178 3FF66CAF 		bhi	.L223
 1771 017c F1E7     		b	.L238
 1772              	.L226:
 1773 017e B7F5A07F 		cmp	r7, #320
 1774 0182 BFF474AF 		bcs	.L228
 1775 0186 BBF1EF0F 		cmp	fp, #239
 1776 018a 3FF670AF 		bhi	.L228
 1777 018e E2E7     		b	.L230
 1778              	.L242:
 1779              		.align	2
 1780              	.L241:
 1781 0190 00000240 		.word	1073872896
 1783              		.section	.text.ST7789V_TearEffect,"ax",%progbits
 1784              		.align	1
 1785              		.p2align 2,,3
 1786              		.global	ST7789V_TearEffect
 1787              		.syntax unified
 1788              		.thumb
 1789              		.thumb_func
 1791              	ST7789V_TearEffect:
 1792              		@ args = 0, pretend = 0, frame = 0
 1793              		@ frame_needed = 0, uses_anonymous_args = 0
 1794 0000 10B5     		push	{r4, lr}
 1795 0002 0022     		movs	r2, #0
 1796 0004 0446     		mov	r4, r0
 1797 0006 0421     		movs	r1, #4
 1798 0008 0748     		ldr	r0, .L247
 1799 000a FFF7FEFF 		bl	HAL_GPIO_WritePin
 1800 000e 002C     		cmp	r4, #0
 1801 0010 0CBF     		ite	eq
 1802 0012 3420     		moveq	r0, #52
 1803 0014 3520     		movne	r0, #53
 1804 0016 FFF7FEFF 		bl	ST7789V_WriteCommand
 1805 001a BDE81040 		pop	{r4, lr}
 1806 001e 0248     		ldr	r0, .L247
 1807 0020 0122     		movs	r2, #1
 1808 0022 0421     		movs	r1, #4
 1809 0024 FFF7FEBF 		b	HAL_GPIO_WritePin
 1810              	.L248:
 1811              		.align	2
 1812              	.L247:
 1813 0028 00000240 		.word	1073872896
 1815              		.section	.rodata.ST7789V_Test.str1.4,"aMS",%progbits,1
ARM GAS  /var/folders/lp/x54gwt890xv47sdkqj1k04q40000gn/T//ccv2P9TJ.s 			page 32


 1816              		.align	2
 1817              	.LC0:
 1818 0000 53706565 		.ascii	"Speed Test\000"
 1818      64205465 
 1818      737400
 1819 000b 00       		.align	2
 1820              	.LC1:
 1821 000c 466F6E74 		.ascii	"Font test.\000"
 1821      20746573 
 1821      742E00
 1822 0017 00       		.align	2
 1823              	.LC2:
 1824 0018 48656C6C 		.ascii	"Hello Steve!\000"
 1824      6F205374 
 1824      65766521 
 1824      00
 1825 0025 000000   		.align	2
 1826              	.LC3:
 1827 0028 52656374 		.ascii	"Rect./Line.\000"
 1827      2E2F4C69 
 1827      6E652E00 
 1828              		.align	2
 1829              	.LC4:
 1830 0034 46696C6C 		.ascii	"Filled Rect.\000"
 1830      65642052 
 1830      6563742E 
 1830      00
 1831 0041 000000   		.align	2
 1832              	.LC5:
 1833 0044 43697263 		.ascii	"Circle.\000"
 1833      6C652E00 
 1834              		.align	2
 1835              	.LC6:
 1836 004c 46696C6C 		.ascii	"Filled Cir.\000"
 1836      65642043 
 1836      69722E00 
 1837              		.align	2
 1838              	.LC7:
 1839 0058 54726961 		.ascii	"Triangle\000"
 1839      6E676C65 
 1839      00
 1840 0061 000000   		.align	2
 1841              	.LC8:
 1842 0064 46696C6C 		.ascii	"Filled Tri\000"
 1842      65642054 
 1842      726900
 1843              		.section	.text.ST7789V_Test,"ax",%progbits
 1844              		.align	1
 1845              		.p2align 2,,3
 1846              		.global	ST7789V_Test
 1847              		.syntax unified
 1848              		.thumb
 1849              		.thumb_func
 1851              	ST7789V_Test:
 1852              		@ args = 0, pretend = 0, frame = 0
 1853              		@ frame_needed = 0, uses_anonymous_args = 0
 1854 0000 2DE9F043 		push	{r4, r5, r6, r7, r8, r9, lr}
ARM GAS  /var/folders/lp/x54gwt890xv47sdkqj1k04q40000gn/T//ccv2P9TJ.s 			page 33


 1855 0004 3620     		movs	r0, #54
 1856 0006 85B0     		sub	sp, sp, #20
 1857 0008 FFF7FEFF 		bl	ST7789V_WriteCommand
 1858 000c 6020     		movs	r0, #96
 1859 000e BF4E     		ldr	r6, .L253
 1860 0010 BF4F     		ldr	r7, .L253+4
 1861 0012 FFF7FEFF 		bl	ST7789V_WriteSmallData
 1862 0016 4FF6FF70 		movw	r0, #65535
 1863 001a FFF7FEFF 		bl	ST7789V_Fill_Color
 1864 001e 4FF47A70 		mov	r0, #1000
 1865 0022 FFF7FEFF 		bl	HAL_Delay
 1866 0026 4FF6FF75 		movw	r5, #65535
 1867 002a 4FF47844 		mov	r4, #63488
 1868 002e 7268     		ldr	r2, [r6, #4]
 1869 0030 3368     		ldr	r3, [r6]
 1870 0032 0092     		str	r2, [sp]
 1871 0034 1421     		movs	r1, #20
 1872 0036 B74A     		ldr	r2, .L253+8
 1873 0038 CDE90145 		strd	r4, r5, [sp, #4]
 1874 003c 0A20     		movs	r0, #10
 1875 003e FFF7FEFF 		bl	ST7789V_WriteString
 1876 0042 4FF47A70 		mov	r0, #1000
 1877 0046 FFF7FEFF 		bl	HAL_Delay
 1878 004a 47F6FF70 		movw	r0, #32767
 1879 004e FFF7FEFF 		bl	ST7789V_Fill_Color
 1880 0052 4FF4FA70 		mov	r0, #500
 1881 0056 FFF7FEFF 		bl	HAL_Delay
 1882 005a 2046     		mov	r0, r4
 1883 005c FFF7FEFF 		bl	ST7789V_Fill_Color
 1884 0060 4FF4FA70 		mov	r0, #500
 1885 0064 FFF7FEFF 		bl	HAL_Delay
 1886 0068 1F20     		movs	r0, #31
 1887 006a FFF7FEFF 		bl	ST7789V_Fill_Color
 1888 006e 4FF4FA70 		mov	r0, #500
 1889 0072 FFF7FEFF 		bl	HAL_Delay
 1890 0076 4FF4FC60 		mov	r0, #2016
 1891 007a FFF7FEFF 		bl	ST7789V_Fill_Color
 1892 007e 4FF4FA70 		mov	r0, #500
 1893 0082 FFF7FEFF 		bl	HAL_Delay
 1894 0086 4FF6E070 		movw	r0, #65504
 1895 008a FFF7FEFF 		bl	ST7789V_Fill_Color
 1896 008e 4FF4FA70 		mov	r0, #500
 1897 0092 FFF7FEFF 		bl	HAL_Delay
 1898 0096 4BF64040 		movw	r0, #48192
 1899 009a FFF7FEFF 		bl	ST7789V_Fill_Color
 1900 009e 4FF4FA70 		mov	r0, #500
 1901 00a2 FFF7FEFF 		bl	HAL_Delay
 1902 00a6 40F2CF10 		movw	r0, #463
 1903 00aa FFF7FEFF 		bl	ST7789V_Fill_Color
 1904 00ae 4FF4FA70 		mov	r0, #500
 1905 00b2 FFF7FEFF 		bl	HAL_Delay
 1906 00b6 4FF61F00 		movw	r0, #63519
 1907 00ba FFF7FEFF 		bl	ST7789V_Fill_Color
 1908 00be 4FF4FA70 		mov	r0, #500
 1909 00c2 FFF7FEFF 		bl	HAL_Delay
 1910 00c6 48F21F40 		movw	r0, #33823
 1911 00ca FFF7FEFF 		bl	ST7789V_Fill_Color
ARM GAS  /var/folders/lp/x54gwt890xv47sdkqj1k04q40000gn/T//ccv2P9TJ.s 			page 34


 1912 00ce 4FF4FA70 		mov	r0, #500
 1913 00d2 FFF7FEFF 		bl	HAL_Delay
 1914 00d6 4CF21860 		movw	r0, #50712
 1915 00da FFF7FEFF 		bl	ST7789V_Fill_Color
 1916 00de 4FF4FA70 		mov	r0, #500
 1917 00e2 FFF7FEFF 		bl	HAL_Delay
 1918 00e6 42F61230 		movw	r0, #11026
 1919 00ea FFF7FEFF 		bl	ST7789V_Fill_Color
 1920 00ee 4FF4FA70 		mov	r0, #500
 1921 00f2 FFF7FEFF 		bl	HAL_Delay
 1922 00f6 2846     		mov	r0, r5
 1923 00f8 FFF7FEFF 		bl	ST7789V_Fill_Color
 1924 00fc 4FF4FA70 		mov	r0, #500
 1925 0100 FFF7FEFF 		bl	HAL_Delay
 1926 0104 40F2FF73 		movw	r3, #2047
 1927 0108 CDE90135 		strd	r3, r5, [sp, #4]
 1928 010c 7B68     		ldr	r3, [r7, #4]
 1929 010e 0093     		str	r3, [sp]
 1930 0110 0A21     		movs	r1, #10
 1931 0112 3B68     		ldr	r3, [r7]
 1932 0114 804A     		ldr	r2, .L253+12
 1933 0116 0846     		mov	r0, r1
 1934 0118 FFF7FEFF 		bl	ST7789V_WriteString
 1935 011c CDE90145 		strd	r4, r5, [sp, #4]
 1936 0120 7E4B     		ldr	r3, .L253+16
 1937 0122 5A68     		ldr	r2, [r3, #4]
 1938 0124 0092     		str	r2, [sp]
 1939 0126 4FF6E078 		movw	r8, #65504
 1940 012a 1B68     		ldr	r3, [r3]
 1941 012c 7C4A     		ldr	r2, .L253+20
 1942 012e 3221     		movs	r1, #50
 1943 0130 0A20     		movs	r0, #10
 1944 0132 FFF7FEFF 		bl	ST7789V_WriteString
 1945 0136 CDE90185 		strd	r8, r5, [sp, #4]
 1946 013a 7368     		ldr	r3, [r6, #4]
 1947 013c 0093     		str	r3, [sp]
 1948 013e 3368     		ldr	r3, [r6]
 1949 0140 774A     		ldr	r2, .L253+20
 1950 0142 4B21     		movs	r1, #75
 1951 0144 0A20     		movs	r0, #10
 1952 0146 FFF7FEFF 		bl	ST7789V_WriteString
 1953 014a 0295     		str	r5, [sp, #8]
 1954 014c 7B68     		ldr	r3, [r7, #4]
 1955 014e 0093     		str	r3, [sp]
 1956 0150 4FF61F02 		movw	r2, #63519
 1957 0154 3B68     		ldr	r3, [r7]
 1958 0156 0192     		str	r2, [sp, #4]
 1959 0158 6421     		movs	r1, #100
 1960 015a 714A     		ldr	r2, .L253+20
 1961 015c 0A20     		movs	r0, #10
 1962 015e FFF7FEFF 		bl	ST7789V_WriteString
 1963 0162 4FF47A70 		mov	r0, #1000
 1964 0166 FFF7FEFF 		bl	HAL_Delay
 1965 016a 0027     		movs	r7, #0
 1966 016c 1F20     		movs	r0, #31
 1967 016e FFF7FEFF 		bl	ST7789V_Fill_Color
 1968 0172 CDE90187 		strd	r8, r7, [sp, #4]
ARM GAS  /var/folders/lp/x54gwt890xv47sdkqj1k04q40000gn/T//ccv2P9TJ.s 			page 35


 1969 0176 7368     		ldr	r3, [r6, #4]
 1970 0178 0093     		str	r3, [sp]
 1971 017a 0A21     		movs	r1, #10
 1972 017c 0846     		mov	r0, r1
 1973 017e 3368     		ldr	r3, [r6]
 1974 0180 684A     		ldr	r2, .L253+24
 1975 0182 FFF7FEFF 		bl	ST7789V_WriteString
 1976 0186 6423     		movs	r3, #100
 1977 0188 1E21     		movs	r1, #30
 1978 018a 1A46     		mov	r2, r3
 1979 018c 0846     		mov	r0, r1
 1980 018e 0095     		str	r5, [sp]
 1981 0190 FFF7FEFF 		bl	ST7789V_DrawRectangle
 1982 0194 4FF47A70 		mov	r0, #1000
 1983 0198 FFF7FEFF 		bl	HAL_Delay
 1984 019c 2046     		mov	r0, r4
 1985 019e FFF7FEFF 		bl	ST7789V_Fill_Color
 1986 01a2 7368     		ldr	r3, [r6, #4]
 1987 01a4 0093     		str	r3, [sp]
 1988 01a6 CDE90187 		strd	r8, r7, [sp, #4]
 1989 01aa 0A21     		movs	r1, #10
 1990 01ac 0846     		mov	r0, r1
 1991 01ae 5E4A     		ldr	r2, .L253+28
 1992 01b0 3368     		ldr	r3, [r6]
 1993 01b2 FFF7FEFF 		bl	ST7789V_WriteString
 1994 01b6 5D48     		ldr	r0, .L253+32
 1995 01b8 3A46     		mov	r2, r7
 1996 01ba 0421     		movs	r1, #4
 1997 01bc FFF7FEFF 		bl	HAL_GPIO_WritePin
 1998 01c0 1E24     		movs	r4, #30
 1999              	.L250:
 2000 01c2 2346     		mov	r3, r4
 2001 01c4 2146     		mov	r1, r4
 2002 01c6 0134     		adds	r4, r4, #1
 2003 01c8 0095     		str	r5, [sp]
 2004 01ca 5022     		movs	r2, #80
 2005 01cc 1E20     		movs	r0, #30
 2006 01ce A4B2     		uxth	r4, r4
 2007 01d0 FFF7FEFF 		bl	ST7789V_DrawLine
 2008 01d4 512C     		cmp	r4, #81
 2009 01d6 F4D1     		bne	.L250
 2010 01d8 0122     		movs	r2, #1
 2011 01da 0421     		movs	r1, #4
 2012 01dc 5348     		ldr	r0, .L253+32
 2013 01de FFF7FEFF 		bl	HAL_GPIO_WritePin
 2014 01e2 4FF47A70 		mov	r0, #1000
 2015 01e6 0024     		movs	r4, #0
 2016 01e8 FFF7FEFF 		bl	HAL_Delay
 2017 01ec 4FF6E077 		movw	r7, #65504
 2018 01f0 4FF47840 		mov	r0, #63488
 2019 01f4 FFF7FEFF 		bl	ST7789V_Fill_Color
 2020 01f8 7368     		ldr	r3, [r6, #4]
 2021 01fa 0093     		str	r3, [sp]
 2022 01fc CDE90174 		strd	r7, r4, [sp, #4]
 2023 0200 0A21     		movs	r1, #10
 2024 0202 3368     		ldr	r3, [r6]
 2025 0204 4A4A     		ldr	r2, .L253+36
ARM GAS  /var/folders/lp/x54gwt890xv47sdkqj1k04q40000gn/T//ccv2P9TJ.s 			page 36


 2026 0206 0846     		mov	r0, r1
 2027 0208 FFF7FEFF 		bl	ST7789V_WriteString
 2028 020c 3C21     		movs	r1, #60
 2029 020e 0846     		mov	r0, r1
 2030 0210 4FF6FF73 		movw	r3, #65535
 2031 0214 1922     		movs	r2, #25
 2032 0216 FFF7FEFF 		bl	ST7789V_DrawCircle
 2033 021a 4FF47A70 		mov	r0, #1000
 2034 021e FFF7FEFF 		bl	HAL_Delay
 2035 0222 4FF47840 		mov	r0, #63488
 2036 0226 FFF7FEFF 		bl	ST7789V_Fill_Color
 2037 022a 7368     		ldr	r3, [r6, #4]
 2038 022c 0093     		str	r3, [sp]
 2039 022e CDE90174 		strd	r7, r4, [sp, #4]
 2040 0232 0A21     		movs	r1, #10
 2041 0234 3368     		ldr	r3, [r6]
 2042 0236 3F4A     		ldr	r2, .L253+40
 2043 0238 0846     		mov	r0, r1
 2044 023a FFF7FEFF 		bl	ST7789V_WriteString
 2045 023e 3C21     		movs	r1, #60
 2046 0240 0846     		mov	r0, r1
 2047 0242 4FF6FF73 		movw	r3, #65535
 2048 0246 1922     		movs	r2, #25
 2049 0248 FFF7FEFF 		bl	ST7789V_DrawFilledCircle
 2050 024c 4FF47A70 		mov	r0, #1000
 2051 0250 FFF7FEFF 		bl	HAL_Delay
 2052 0254 4FF47840 		mov	r0, #63488
 2053 0258 FFF7FEFF 		bl	ST7789V_Fill_Color
 2054 025c 7368     		ldr	r3, [r6, #4]
 2055 025e 0093     		str	r3, [sp]
 2056 0260 CDE90174 		strd	r7, r4, [sp, #4]
 2057 0264 0A21     		movs	r1, #10
 2058 0266 3368     		ldr	r3, [r6]
 2059 0268 334A     		ldr	r2, .L253+44
 2060 026a 0846     		mov	r0, r1
 2061 026c FFF7FEFF 		bl	ST7789V_WriteString
 2062 0270 4FF02809 		mov	r9, #40
 2063 0274 1E22     		movs	r2, #30
 2064 0276 4FF03C08 		mov	r8, #60
 2065 027a 1146     		mov	r1, r2
 2066 027c 1046     		mov	r0, r2
 2067 027e 4623     		movs	r3, #70
 2068 0280 CDE90195 		strd	r9, r5, [sp, #4]
 2069 0284 CDF80080 		str	r8, [sp]
 2070 0288 FFF7FEFF 		bl	ST7789V_DrawTriangle
 2071 028c 4FF47A70 		mov	r0, #1000
 2072 0290 FFF7FEFF 		bl	HAL_Delay
 2073 0294 4FF47840 		mov	r0, #63488
 2074 0298 FFF7FEFF 		bl	ST7789V_Fill_Color
 2075 029c CDE90174 		strd	r7, r4, [sp, #4]
 2076 02a0 7368     		ldr	r3, [r6, #4]
 2077 02a2 0093     		str	r3, [sp]
 2078 02a4 0A21     		movs	r1, #10
 2079 02a6 3368     		ldr	r3, [r6]
 2080 02a8 244A     		ldr	r2, .L253+48
 2081 02aa 0846     		mov	r0, r1
 2082 02ac FFF7FEFF 		bl	ST7789V_WriteString
ARM GAS  /var/folders/lp/x54gwt890xv47sdkqj1k04q40000gn/T//ccv2P9TJ.s 			page 37


 2083 02b0 1E22     		movs	r2, #30
 2084 02b2 4623     		movs	r3, #70
 2085 02b4 1146     		mov	r1, r2
 2086 02b6 1046     		mov	r0, r2
 2087 02b8 CDE90195 		strd	r9, r5, [sp, #4]
 2088 02bc CDF80080 		str	r8, [sp]
 2089 02c0 FFF7FEFF 		bl	ST7789V_DrawFilledTriangle
 2090 02c4 4FF47A70 		mov	r0, #1000
 2091 02c8 FFF7FEFF 		bl	HAL_Delay
 2092 02cc 2046     		mov	r0, r4
 2093 02ce FFF7FEFF 		bl	ST7789V_Fill_Color
 2094 02d2 2246     		mov	r2, r4
 2095 02d4 1548     		ldr	r0, .L253+32
 2096 02d6 0421     		movs	r1, #4
 2097 02d8 FFF7FEFF 		bl	HAL_GPIO_WritePin
 2098 02dc 7F23     		movs	r3, #127
 2099 02de 1A46     		mov	r2, r3
 2100 02e0 2146     		mov	r1, r4
 2101 02e2 2046     		mov	r0, r4
 2102 02e4 FFF7FEFF 		bl	ST7789V_SetAddressWindow
 2103 02e8 1548     		ldr	r0, .L253+52
 2104 02ea 4FF40041 		mov	r1, #32768
 2105 02ee FFF7FEFF 		bl	ST7789V_WriteData
 2106 02f2 0E48     		ldr	r0, .L253+32
 2107 02f4 0122     		movs	r2, #1
 2108 02f6 0421     		movs	r1, #4
 2109 02f8 FFF7FEFF 		bl	HAL_GPIO_WritePin
 2110 02fc 40F6B830 		movw	r0, #3000
 2111 0300 05B0     		add	sp, sp, #20
 2112              		@ sp needed
 2113 0302 BDE8F043 		pop	{r4, r5, r6, r7, r8, r9, lr}
 2114 0306 FFF7FEBF 		b	HAL_Delay
 2115              	.L254:
 2116 030a 00BF     		.align	2
 2117              	.L253:
 2118 030c 00000000 		.word	Font_11x18
 2119 0310 00000000 		.word	Font_16x26
 2120 0314 00000000 		.word	.LC0
 2121 0318 0C000000 		.word	.LC1
 2122 031c 00000000 		.word	Font_7x10
 2123 0320 18000000 		.word	.LC2
 2124 0324 28000000 		.word	.LC3
 2125 0328 34000000 		.word	.LC4
 2126 032c 00000240 		.word	1073872896
 2127 0330 44000000 		.word	.LC5
 2128 0334 4C000000 		.word	.LC6
 2129 0338 58000000 		.word	.LC7
 2130 033c 64000000 		.word	.LC8
 2131 0340 00000000 		.word	saber
 2133              		.global	__aeabi_f2d
 2134              		.global	__aeabi_dadd
 2135              		.global	__aeabi_d2f
 2136              		.section	.text.ST7789V_Test2,"ax",%progbits
 2137              		.align	1
 2138              		.p2align 2,,3
 2139              		.global	ST7789V_Test2
 2140              		.syntax unified
ARM GAS  /var/folders/lp/x54gwt890xv47sdkqj1k04q40000gn/T//ccv2P9TJ.s 			page 38


 2141              		.thumb
 2142              		.thumb_func
 2144              	ST7789V_Test2:
 2145              		@ args = 0, pretend = 0, frame = 8
 2146              		@ frame_needed = 0, uses_anonymous_args = 0
 2147 0000 2DE9F043 		push	{r4, r5, r6, r7, r8, r9, lr}
 2148 0004 2DED048B 		vpush.64	{d8, d9}
 2149 0008 0320     		movs	r0, #3
 2150 000a 83B0     		sub	sp, sp, #12
 2151 000c FFF7FEFF 		bl	ST7789V_SetRotation
 2152 0010 0020     		movs	r0, #0
 2153 0012 9FED2F8A 		vldr.32	s16, .L268+16
 2154 0016 DFED2F9A 		vldr.32	s19, .L268+20
 2155 001a 9FED2F9A 		vldr.32	s18, .L268+24
 2156 001e FFF7FEFF 		bl	ST7789V_Fill_Color
 2157 0022 27A7     		adr	r7, .L268
 2158 0024 D7E90067 		ldrd	r6, [r7]
 2159 0028 27A5     		adr	r5, .L268+8
 2160 002a D5E90045 		ldrd	r4, [r5]
 2161 002e 4FF02808 		mov	r8, #40
 2162 0032 F0EE488A 		vmov.f32	s17, s16
 2163 0036 C146     		mov	r9, r8
 2164              	.L260:
 2165 0038 4146     		mov	r1, r8
 2166 003a 4846     		mov	r0, r9
 2167 003c 0023     		movs	r3, #0
 2168 003e 0A22     		movs	r2, #10
 2169 0040 FFF7FEFF 		bl	ST7789V_DrawCircle
 2170 0044 FCEEE87A 		vcvt.u32.f32	s15, s17
 2171 0048 0A22     		movs	r2, #10
 2172 004a 17EE901A 		vmov	r1, s15	@ int
 2173 004e FCEEC87A 		vcvt.u32.f32	s15, s16
 2174 0052 1FFA81F9 		uxth	r9, r1
 2175 0056 CDED017A 		vstr.32	s15, [sp, #4]	@ int
 2176 005a BDF80480 		ldrh	r8, [sp, #4]
 2177 005e 4FF6FF73 		movw	r3, #65535
 2178 0062 4146     		mov	r1, r8
 2179 0064 4846     		mov	r0, r9
 2180 0066 FFF7FEFF 		bl	ST7789V_DrawCircle
 2181 006a 18EE900A 		vmov	r0, s17
 2182 006e FFF7FEFF 		bl	__aeabi_f2d
 2183 0072 B4EEE98A 		vcmpe.f32	s16, s19
 2184 0076 F1EE10FA 		vmrs	APSR_nzcv, FPSCR
 2185 007a 4BBF     		itete	mi
 2186 007c 2246     		movmi	r2, r4
 2187 007e 3246     		movpl	r2, r6
 2188 0080 2B46     		movmi	r3, r5
 2189 0082 3B46     		movpl	r3, r7
 2190 0084 FFF7FEFF 		bl	__aeabi_dadd
 2191 0088 FFF7FEFF 		bl	__aeabi_d2f
 2192 008c 0346     		mov	r3, r0	@ float
 2193 008e 08EE903A 		vmov	s17, r3
 2194 0092 18EE100A 		vmov	r0, s16
 2195 0096 FFF7FEFF 		bl	__aeabi_f2d
 2196 009a F4EEC98A 		vcmpe.f32	s17, s18
 2197 009e F1EE10FA 		vmrs	APSR_nzcv, FPSCR
 2198 00a2 47BF     		ittee	mi
ARM GAS  /var/folders/lp/x54gwt890xv47sdkqj1k04q40000gn/T//ccv2P9TJ.s 			page 39


 2199 00a4 2246     		movmi	r2, r4
 2200 00a6 2B46     		movmi	r3, r5
 2201 00a8 3246     		movpl	r2, r6
 2202 00aa 3B46     		movpl	r3, r7
 2203 00ac FFF7FEFF 		bl	__aeabi_dadd
 2204 00b0 FFF7FEFF 		bl	__aeabi_d2f
 2205 00b4 08EE100A 		vmov	s16, r0
 2206 00b8 BEE7     		b	.L260
 2207              	.L269:
 2208 00ba 00BFAFF3 		.align	3
 2208      0080
 2209              	.L268:
 2210 00c0 9A999999 		.word	-1717986918
 2211 00c4 9999C9BF 		.word	-1077306983
 2212 00c8 9A999999 		.word	-1717986918
 2213 00cc 9999C93F 		.word	1070176665
 2214 00d0 00002042 		.word	1109393408
 2215 00d4 0000A043 		.word	1134559232
 2216 00d8 00007043 		.word	1131413504
 2218              		.section	.text.ST7789V_Send_Data_DMA,"ax",%progbits
 2219              		.align	1
 2220              		.p2align 2,,3
 2221              		.global	ST7789V_Send_Data_DMA
 2222              		.syntax unified
 2223              		.thumb
 2224              		.thumb_func
 2226              	ST7789V_Send_Data_DMA:
 2227              		@ args = 4, pretend = 0, frame = 0
 2228              		@ frame_needed = 0, uses_anonymous_args = 0
 2229 0000 2DE9F041 		push	{r4, r5, r6, r7, r8, lr}
 2230 0004 069E     		ldr	r6, [sp, #24]
 2231 0006 8046     		mov	r8, r0
 2232 0008 0F46     		mov	r7, r1
 2233 000a 1446     		mov	r4, r2
 2234 000c 1D46     		mov	r5, r3
 2235 000e FFF7FEFF 		bl	ST7789V_SetAddressWindow
 2236 0012 0A48     		ldr	r0, .L272
 2237 0014 0122     		movs	r2, #1
 2238 0016 0221     		movs	r1, #2
 2239 0018 FFF7FEFF 		bl	HAL_GPIO_WritePin
 2240 001c ED1B     		subs	r5, r5, r7
 2241 001e A4EB0802 		sub	r2, r4, r8
 2242 0022 0135     		adds	r5, r5, #1
 2243 0024 0132     		adds	r2, r2, #1
 2244 0026 12FB05F2 		smulbb	r2, r2, r5
 2245 002a 5200     		lsls	r2, r2, #1
 2246 002c 3146     		mov	r1, r6
 2247 002e 0448     		ldr	r0, .L272+4
 2248 0030 BDE8F041 		pop	{r4, r5, r6, r7, r8, lr}
 2249 0034 92B2     		uxth	r2, r2
 2250 0036 FFF7FEBF 		b	HAL_SPI_Transmit_DMA
 2251              	.L273:
 2252 003a 00BF     		.align	2
 2253              	.L272:
 2254 003c 00000240 		.word	1073872896
 2255 0040 00000000 		.word	hspi1
 2257              		.ident	"GCC: (xPack GNU Arm Embedded GCC arm64) 13.3.1 20240614"
ARM GAS  /var/folders/lp/x54gwt890xv47sdkqj1k04q40000gn/T//ccv2P9TJ.s 			page 40


ARM GAS  /var/folders/lp/x54gwt890xv47sdkqj1k04q40000gn/T//ccv2P9TJ.s 			page 41

