ARM GAS  /var/folders/lp/x54gwt890xv47sdkqj1k04q40000gn/T//cc4su43i.s 			page 1


   1              		.cpu cortex-m4
   2              		.arch armv7e-m
   3              		.fpu fpv4-sp-d16
   4              		.eabi_attribute 27, 1
   5              		.eabi_attribute 28, 1
   6              		.eabi_attribute 20, 1
   7              		.eabi_attribute 21, 1
   8              		.eabi_attribute 23, 3
   9              		.eabi_attribute 24, 1
  10              		.eabi_attribute 25, 1
  11              		.eabi_attribute 26, 1
  12              		.eabi_attribute 30, 2
  13              		.eabi_attribute 34, 1
  14              		.eabi_attribute 18, 4
  15              		.file	"stm32f4xx_hal_rcc.c"
  16              		.text
  17              		.section	.text.HAL_RCC_DeInit,"ax",%progbits
  18              		.align	1
  19              		.p2align 2,,3
  20              		.weak	HAL_RCC_DeInit
  21              		.syntax unified
  22              		.thumb
  23              		.thumb_func
  25              	HAL_RCC_DeInit:
  26              		@ args = 0, pretend = 0, frame = 0
  27              		@ frame_needed = 0, uses_anonymous_args = 0
  28              		@ link register save eliminated.
  29 0000 0020     		movs	r0, #0
  30 0002 7047     		bx	lr
  32              		.section	.text.HAL_RCC_OscConfig,"ax",%progbits
  33              		.align	1
  34              		.p2align 2,,3
  35              		.weak	HAL_RCC_OscConfig
  36              		.syntax unified
  37              		.thumb
  38              		.thumb_func
  40              	HAL_RCC_OscConfig:
  41              		@ args = 0, pretend = 0, frame = 8
  42              		@ frame_needed = 0, uses_anonymous_args = 0
  43 0000 0028     		cmp	r0, #0
  44 0002 00F0D881 		beq	.L98
  45 0006 2DE9F041 		push	{r4, r5, r6, r7, r8, lr}
  46 000a 0368     		ldr	r3, [r0]
  47 000c DD07     		lsls	r5, r3, #31
  48 000e 82B0     		sub	sp, sp, #8
  49 0010 0446     		mov	r4, r0
  50 0012 2FD5     		bpl	.L6
  51 0014 9D49     		ldr	r1, .L112
  52 0016 8A68     		ldr	r2, [r1, #8]
  53 0018 02F00C02 		and	r2, r2, #12
  54 001c 042A     		cmp	r2, #4
  55 001e 00F0EC80 		beq	.L7
  56 0022 8A68     		ldr	r2, [r1, #8]
  57 0024 02F00C02 		and	r2, r2, #12
  58 0028 082A     		cmp	r2, #8
  59 002a 00F0E280 		beq	.L103
  60              	.L8:
ARM GAS  /var/folders/lp/x54gwt890xv47sdkqj1k04q40000gn/T//cc4su43i.s 			page 2


  61 002e 6368     		ldr	r3, [r4, #4]
  62 0030 B3F5803F 		cmp	r3, #65536
  63 0034 00F0EB80 		beq	.L104
  64 0038 B3F5A02F 		cmp	r3, #327680
  65 003c 00F07381 		beq	.L105
  66 0040 924D     		ldr	r5, .L112
  67 0042 2A68     		ldr	r2, [r5]
  68 0044 22F48032 		bic	r2, r2, #65536
  69 0048 2A60     		str	r2, [r5]
  70 004a 2A68     		ldr	r2, [r5]
  71 004c 22F48022 		bic	r2, r2, #262144
  72 0050 2A60     		str	r2, [r5]
  73 0052 002B     		cmp	r3, #0
  74 0054 40F0E080 		bne	.L11
  75 0058 FFF7FEFF 		bl	HAL_GetTick
  76 005c 0646     		mov	r6, r0
  77 005e 05E0     		b	.L17
  78              	.L19:
  79 0060 FFF7FEFF 		bl	HAL_GetTick
  80 0064 801B     		subs	r0, r0, r6
  81 0066 6428     		cmp	r0, #100
  82 0068 00F20081 		bhi	.L18
  83              	.L17:
  84 006c 2B68     		ldr	r3, [r5]
  85 006e 9F03     		lsls	r7, r3, #14
  86 0070 F6D4     		bmi	.L19
  87              	.L101:
  88 0072 2368     		ldr	r3, [r4]
  89              	.L6:
  90 0074 9D07     		lsls	r5, r3, #30
  91 0076 28D5     		bpl	.L21
  92 0078 844A     		ldr	r2, .L112
  93 007a 9168     		ldr	r1, [r2, #8]
  94 007c 11F00C0F 		tst	r1, #12
  95 0080 00F09B80 		beq	.L22
  96 0084 9168     		ldr	r1, [r2, #8]
  97 0086 01F00C01 		and	r1, r1, #12
  98 008a 0829     		cmp	r1, #8
  99 008c 00F09180 		beq	.L106
 100              	.L23:
 101 0090 E368     		ldr	r3, [r4, #12]
 102 0092 002B     		cmp	r3, #0
 103 0094 00F00C81 		beq	.L26
 104 0098 7D4B     		ldr	r3, .L112+4
 105 009a 7C4E     		ldr	r6, .L112
 106 009c 0122     		movs	r2, #1
 107 009e 1A60     		str	r2, [r3]
 108 00a0 FFF7FEFF 		bl	HAL_GetTick
 109 00a4 0546     		mov	r5, r0
 110 00a6 05E0     		b	.L27
 111              	.L28:
 112 00a8 FFF7FEFF 		bl	HAL_GetTick
 113 00ac 401B     		subs	r0, r0, r5
 114 00ae 0228     		cmp	r0, #2
 115 00b0 00F2DC80 		bhi	.L18
 116              	.L27:
 117 00b4 3368     		ldr	r3, [r6]
ARM GAS  /var/folders/lp/x54gwt890xv47sdkqj1k04q40000gn/T//cc4su43i.s 			page 3


 118 00b6 9F07     		lsls	r7, r3, #30
 119 00b8 F6D5     		bpl	.L28
 120 00ba 3368     		ldr	r3, [r6]
 121 00bc 2269     		ldr	r2, [r4, #16]
 122 00be 23F0F803 		bic	r3, r3, #248
 123 00c2 43EAC203 		orr	r3, r3, r2, lsl #3
 124 00c6 3360     		str	r3, [r6]
 125 00c8 2368     		ldr	r3, [r4]
 126              	.L21:
 127 00ca 1A07     		lsls	r2, r3, #28
 128 00cc 5CD4     		bmi	.L107
 129              	.L31:
 130 00ce 5D07     		lsls	r5, r3, #29
 131 00d0 3AD5     		bpl	.L38
 132 00d2 6E4A     		ldr	r2, .L112
 133 00d4 136C     		ldr	r3, [r2, #64]
 134 00d6 13F08053 		ands	r3, r3, #268435456
 135 00da 40F08880 		bne	.L67
 136 00de 0193     		str	r3, [sp, #4]
 137 00e0 136C     		ldr	r3, [r2, #64]
 138 00e2 43F08053 		orr	r3, r3, #268435456
 139 00e6 1364     		str	r3, [r2, #64]
 140 00e8 136C     		ldr	r3, [r2, #64]
 141 00ea 03F08053 		and	r3, r3, #268435456
 142 00ee 0193     		str	r3, [sp, #4]
 143 00f0 019B     		ldr	r3, [sp, #4]
 144 00f2 0125     		movs	r5, #1
 145              	.L39:
 146 00f4 674E     		ldr	r6, .L112+8
 147 00f6 3368     		ldr	r3, [r6]
 148 00f8 D805     		lsls	r0, r3, #23
 149 00fa 40F1A780 		bpl	.L40
 150              	.L45:
 151 00fe A368     		ldr	r3, [r4, #8]
 152 0100 012B     		cmp	r3, #1
 153 0102 00F0B780 		beq	.L108
 154 0106 052B     		cmp	r3, #5
 155 0108 00F01D81 		beq	.L109
 156 010c 5F4E     		ldr	r6, .L112
 157 010e 326F     		ldr	r2, [r6, #112]
 158 0110 22F00102 		bic	r2, r2, #1
 159 0114 3267     		str	r2, [r6, #112]
 160 0116 326F     		ldr	r2, [r6, #112]
 161 0118 22F00402 		bic	r2, r2, #4
 162 011c 3267     		str	r2, [r6, #112]
 163 011e 002B     		cmp	r3, #0
 164 0120 40F0AD80 		bne	.L46
 165 0124 FFF7FEFF 		bl	HAL_GetTick
 166 0128 41F28838 		movw	r8, #5000
 167 012c 0746     		mov	r7, r0
 168 012e 05E0     		b	.L53
 169              	.L54:
 170 0130 FFF7FEFF 		bl	HAL_GetTick
 171 0134 C01B     		subs	r0, r0, r7
 172 0136 4045     		cmp	r0, r8
 173 0138 00F29880 		bhi	.L18
 174              	.L53:
ARM GAS  /var/folders/lp/x54gwt890xv47sdkqj1k04q40000gn/T//cc4su43i.s 			page 4


 175 013c 336F     		ldr	r3, [r6, #112]
 176 013e 9B07     		lsls	r3, r3, #30
 177 0140 F6D4     		bmi	.L54
 178 0142 002D     		cmp	r5, #0
 179 0144 40F0F980 		bne	.L110
 180              	.L38:
 181 0148 A369     		ldr	r3, [r4, #24]
 182 014a CBB1     		cbz	r3, .L63
 183 014c 4F4D     		ldr	r5, .L112
 184 014e AA68     		ldr	r2, [r5, #8]
 185 0150 02F00C02 		and	r2, r2, #12
 186 0154 082A     		cmp	r2, #8
 187 0156 00F0BC80 		beq	.L57
 188 015a 022B     		cmp	r3, #2
 189 015c 4C4B     		ldr	r3, .L112+4
 190 015e 4FF00002 		mov	r2, #0
 191 0162 1A66     		str	r2, [r3, #96]
 192 0164 00F0F980 		beq	.L111
 193 0168 FFF7FEFF 		bl	HAL_GetTick
 194 016c 0446     		mov	r4, r0
 195 016e 04E0     		b	.L64
 196              	.L65:
 197 0170 FFF7FEFF 		bl	HAL_GetTick
 198 0174 001B     		subs	r0, r0, r4
 199 0176 0228     		cmp	r0, #2
 200 0178 78D8     		bhi	.L18
 201              	.L64:
 202 017a 2B68     		ldr	r3, [r5]
 203 017c 9B01     		lsls	r3, r3, #6
 204 017e F7D4     		bmi	.L65
 205              	.L63:
 206 0180 0020     		movs	r0, #0
 207              	.L15:
 208 0182 02B0     		add	sp, sp, #8
 209              		@ sp needed
 210 0184 BDE8F081 		pop	{r4, r5, r6, r7, r8, pc}
 211              	.L107:
 212 0188 6369     		ldr	r3, [r4, #20]
 213 018a FBB1     		cbz	r3, .L32
 214 018c 404B     		ldr	r3, .L112+4
 215 018e 3F4E     		ldr	r6, .L112
 216 0190 0122     		movs	r2, #1
 217 0192 C3F8802E 		str	r2, [r3, #3712]
 218 0196 FFF7FEFF 		bl	HAL_GetTick
 219 019a 0546     		mov	r5, r0
 220 019c 04E0     		b	.L33
 221              	.L34:
 222 019e FFF7FEFF 		bl	HAL_GetTick
 223 01a2 401B     		subs	r0, r0, r5
 224 01a4 0228     		cmp	r0, #2
 225 01a6 61D8     		bhi	.L18
 226              	.L33:
 227 01a8 736F     		ldr	r3, [r6, #116]
 228 01aa 9B07     		lsls	r3, r3, #30
 229 01ac F7D5     		bpl	.L34
 230              	.L102:
 231 01ae 2368     		ldr	r3, [r4]
ARM GAS  /var/folders/lp/x54gwt890xv47sdkqj1k04q40000gn/T//cc4su43i.s 			page 5


 232 01b0 8DE7     		b	.L31
 233              	.L106:
 234 01b2 5268     		ldr	r2, [r2, #4]
 235 01b4 5102     		lsls	r1, r2, #9
 236 01b6 3FF56BAF 		bmi	.L23
 237              	.L22:
 238 01ba 344A     		ldr	r2, .L112
 239 01bc 1268     		ldr	r2, [r2]
 240 01be 9207     		lsls	r2, r2, #30
 241 01c0 38D5     		bpl	.L24
 242 01c2 E268     		ldr	r2, [r4, #12]
 243 01c4 012A     		cmp	r2, #1
 244 01c6 35D0     		beq	.L24
 245              	.L5:
 246 01c8 0120     		movs	r0, #1
 247 01ca DAE7     		b	.L15
 248              	.L32:
 249 01cc 304A     		ldr	r2, .L112+4
 250 01ce 2F4E     		ldr	r6, .L112
 251 01d0 C2F8803E 		str	r3, [r2, #3712]
 252 01d4 FFF7FEFF 		bl	HAL_GetTick
 253 01d8 0546     		mov	r5, r0
 254 01da 04E0     		b	.L35
 255              	.L36:
 256 01dc FFF7FEFF 		bl	HAL_GetTick
 257 01e0 401B     		subs	r0, r0, r5
 258 01e2 0228     		cmp	r0, #2
 259 01e4 42D8     		bhi	.L18
 260              	.L35:
 261 01e6 736F     		ldr	r3, [r6, #116]
 262 01e8 9F07     		lsls	r7, r3, #30
 263 01ea F7D4     		bmi	.L36
 264 01ec DFE7     		b	.L102
 265              	.L67:
 266 01ee 0025     		movs	r5, #0
 267 01f0 80E7     		b	.L39
 268              	.L103:
 269 01f2 4A68     		ldr	r2, [r1, #4]
 270 01f4 5102     		lsls	r1, r2, #9
 271 01f6 7FF51AAF 		bpl	.L8
 272              	.L7:
 273 01fa 244A     		ldr	r2, .L112
 274 01fc 1268     		ldr	r2, [r2]
 275 01fe 9203     		lsls	r2, r2, #14
 276 0200 7FF538AF 		bpl	.L6
 277 0204 6268     		ldr	r2, [r4, #4]
 278 0206 002A     		cmp	r2, #0
 279 0208 7FF434AF 		bne	.L6
 280 020c DCE7     		b	.L5
 281              	.L104:
 282 020e 1F4A     		ldr	r2, .L112
 283 0210 1368     		ldr	r3, [r2]
 284 0212 43F48033 		orr	r3, r3, #65536
 285 0216 1360     		str	r3, [r2]
 286              	.L11:
 287 0218 FFF7FEFF 		bl	HAL_GetTick
 288 021c 1B4E     		ldr	r6, .L112
ARM GAS  /var/folders/lp/x54gwt890xv47sdkqj1k04q40000gn/T//cc4su43i.s 			page 6


 289 021e 0546     		mov	r5, r0
 290 0220 04E0     		b	.L14
 291              	.L16:
 292 0222 FFF7FEFF 		bl	HAL_GetTick
 293 0226 401B     		subs	r0, r0, r5
 294 0228 6428     		cmp	r0, #100
 295 022a 1FD8     		bhi	.L18
 296              	.L14:
 297 022c 3368     		ldr	r3, [r6]
 298 022e 9B03     		lsls	r3, r3, #14
 299 0230 F7D5     		bpl	.L16
 300 0232 1EE7     		b	.L101
 301              	.L24:
 302 0234 1549     		ldr	r1, .L112
 303 0236 2069     		ldr	r0, [r4, #16]
 304 0238 0A68     		ldr	r2, [r1]
 305 023a 22F0F802 		bic	r2, r2, #248
 306 023e 42EAC002 		orr	r2, r2, r0, lsl #3
 307 0242 0A60     		str	r2, [r1]
 308 0244 1A07     		lsls	r2, r3, #28
 309 0246 7FF542AF 		bpl	.L31
 310 024a 9DE7     		b	.L107
 311              	.L40:
 312 024c 3368     		ldr	r3, [r6]
 313 024e 43F48073 		orr	r3, r3, #256
 314 0252 3360     		str	r3, [r6]
 315 0254 FFF7FEFF 		bl	HAL_GetTick
 316 0258 0746     		mov	r7, r0
 317              	.L43:
 318 025a 3368     		ldr	r3, [r6]
 319 025c D905     		lsls	r1, r3, #23
 320 025e 3FF54EAF 		bmi	.L45
 321 0262 FFF7FEFF 		bl	HAL_GetTick
 322 0266 C01B     		subs	r0, r0, r7
 323 0268 0228     		cmp	r0, #2
 324 026a F6D9     		bls	.L43
 325              	.L18:
 326 026c 0320     		movs	r0, #3
 327 026e 02B0     		add	sp, sp, #8
 328              		@ sp needed
 329 0270 BDE8F081 		pop	{r4, r5, r6, r7, r8, pc}
 330              	.L108:
 331 0274 054A     		ldr	r2, .L112
 332 0276 136F     		ldr	r3, [r2, #112]
 333 0278 43F00103 		orr	r3, r3, #1
 334 027c 1367     		str	r3, [r2, #112]
 335              	.L46:
 336 027e FFF7FEFF 		bl	HAL_GetTick
 337 0282 024F     		ldr	r7, .L112
 338 0284 0646     		mov	r6, r0
 339 0286 41F28838 		movw	r8, #5000
 340 028a 0AE0     		b	.L49
 341              	.L113:
 342              		.align	2
 343              	.L112:
 344 028c 00380240 		.word	1073887232
 345 0290 00004742 		.word	1111949312
ARM GAS  /var/folders/lp/x54gwt890xv47sdkqj1k04q40000gn/T//cc4su43i.s 			page 7


 346 0294 00700040 		.word	1073770496
 347              	.L50:
 348 0298 FFF7FEFF 		bl	HAL_GetTick
 349 029c 801B     		subs	r0, r0, r6
 350 029e 4045     		cmp	r0, r8
 351 02a0 E4D8     		bhi	.L18
 352              	.L49:
 353 02a2 3B6F     		ldr	r3, [r7, #112]
 354 02a4 9A07     		lsls	r2, r3, #30
 355 02a6 F7D5     		bpl	.L50
 356 02a8 002D     		cmp	r5, #0
 357 02aa 3FF44DAF 		beq	.L38
 358 02ae 44E0     		b	.L110
 359              	.L26:
 360 02b0 424A     		ldr	r2, .L114
 361 02b2 434E     		ldr	r6, .L114+4
 362 02b4 1360     		str	r3, [r2]
 363 02b6 FFF7FEFF 		bl	HAL_GetTick
 364 02ba 0546     		mov	r5, r0
 365 02bc 04E0     		b	.L29
 366              	.L30:
 367 02be FFF7FEFF 		bl	HAL_GetTick
 368 02c2 401B     		subs	r0, r0, r5
 369 02c4 0228     		cmp	r0, #2
 370 02c6 D1D8     		bhi	.L18
 371              	.L29:
 372 02c8 3368     		ldr	r3, [r6]
 373 02ca 9907     		lsls	r1, r3, #30
 374 02cc F7D4     		bmi	.L30
 375 02ce 2368     		ldr	r3, [r4]
 376 02d0 FBE6     		b	.L21
 377              	.L57:
 378 02d2 012B     		cmp	r3, #1
 379 02d4 3FF478AF 		beq	.L5
 380 02d8 6B68     		ldr	r3, [r5, #4]
 381 02da E269     		ldr	r2, [r4, #28]
 382 02dc 03F48001 		and	r1, r3, #4194304
 383 02e0 9142     		cmp	r1, r2
 384 02e2 7FF471AF 		bne	.L5
 385 02e6 226A     		ldr	r2, [r4, #32]
 386 02e8 03F03F01 		and	r1, r3, #63
 387 02ec 9142     		cmp	r1, r2
 388 02ee 7FF46BAF 		bne	.L5
 389 02f2 616A     		ldr	r1, [r4, #36]
 390 02f4 47F6C072 		movw	r2, #32704
 391 02f8 1A40     		ands	r2, r2, r3
 392 02fa B2EB811F 		cmp	r2, r1, lsl #6
 393 02fe 7FF463AF 		bne	.L5
 394 0302 A26A     		ldr	r2, [r4, #40]
 395 0304 5208     		lsrs	r2, r2, #1
 396 0306 03F44031 		and	r1, r3, #196608
 397 030a 013A     		subs	r2, r2, #1
 398 030c B1EB024F 		cmp	r1, r2, lsl #16
 399 0310 7FF45AAF 		bne	.L5
 400 0314 E26A     		ldr	r2, [r4, #44]
 401 0316 03F07063 		and	r3, r3, #251658240
 402 031a B3EB026F 		cmp	r3, r2, lsl #24
ARM GAS  /var/folders/lp/x54gwt890xv47sdkqj1k04q40000gn/T//cc4su43i.s 			page 8


 403 031e 14BF     		ite	ne
 404 0320 0120     		movne	r0, #1
 405 0322 0020     		moveq	r0, #0
 406 0324 2DE7     		b	.L15
 407              	.L105:
 408 0326 264B     		ldr	r3, .L114+4
 409 0328 1A68     		ldr	r2, [r3]
 410 032a 42F48022 		orr	r2, r2, #262144
 411 032e 1A60     		str	r2, [r3]
 412 0330 1A68     		ldr	r2, [r3]
 413 0332 42F48032 		orr	r2, r2, #65536
 414 0336 1A60     		str	r2, [r3]
 415 0338 6EE7     		b	.L11
 416              	.L110:
 417 033a 214A     		ldr	r2, .L114+4
 418 033c 136C     		ldr	r3, [r2, #64]
 419 033e 23F08053 		bic	r3, r3, #268435456
 420 0342 1364     		str	r3, [r2, #64]
 421 0344 00E7     		b	.L38
 422              	.L109:
 423 0346 1E4B     		ldr	r3, .L114+4
 424 0348 1A6F     		ldr	r2, [r3, #112]
 425 034a 42F00402 		orr	r2, r2, #4
 426 034e 1A67     		str	r2, [r3, #112]
 427 0350 1A6F     		ldr	r2, [r3, #112]
 428 0352 42F00102 		orr	r2, r2, #1
 429 0356 1A67     		str	r2, [r3, #112]
 430 0358 91E7     		b	.L46
 431              	.L111:
 432 035a FFF7FEFF 		bl	HAL_GetTick
 433 035e 0646     		mov	r6, r0
 434 0360 05E0     		b	.L59
 435              	.L60:
 436 0362 FFF7FEFF 		bl	HAL_GetTick
 437 0366 801B     		subs	r0, r0, r6
 438 0368 0228     		cmp	r0, #2
 439 036a 3FF67FAF 		bhi	.L18
 440              	.L59:
 441 036e 2B68     		ldr	r3, [r5]
 442 0370 9901     		lsls	r1, r3, #6
 443 0372 F6D4     		bmi	.L60
 444 0374 D4E90731 		ldrd	r3, r1, [r4, #28]
 445 0378 626A     		ldr	r2, [r4, #36]
 446 037a 0B43     		orrs	r3, r3, r1
 447 037c 43EA8213 		orr	r3, r3, r2, lsl #6
 448 0380 D4E90A20 		ldrd	r2, r0, [r4, #40]
 449 0384 5208     		lsrs	r2, r2, #1
 450 0386 0D49     		ldr	r1, .L114
 451 0388 43EA0063 		orr	r3, r3, r0, lsl #24
 452 038c 013A     		subs	r2, r2, #1
 453 038e 43EA0243 		orr	r3, r3, r2, lsl #16
 454 0392 0122     		movs	r2, #1
 455 0394 6B60     		str	r3, [r5, #4]
 456 0396 0A66     		str	r2, [r1, #96]
 457 0398 FFF7FEFF 		bl	HAL_GetTick
 458 039c 084D     		ldr	r5, .L114+4
 459 039e 0446     		mov	r4, r0
ARM GAS  /var/folders/lp/x54gwt890xv47sdkqj1k04q40000gn/T//cc4su43i.s 			page 9


 460 03a0 05E0     		b	.L61
 461              	.L62:
 462 03a2 FFF7FEFF 		bl	HAL_GetTick
 463 03a6 001B     		subs	r0, r0, r4
 464 03a8 0228     		cmp	r0, #2
 465 03aa 3FF65FAF 		bhi	.L18
 466              	.L61:
 467 03ae 2B68     		ldr	r3, [r5]
 468 03b0 9A01     		lsls	r2, r3, #6
 469 03b2 F6D5     		bpl	.L62
 470 03b4 E4E6     		b	.L63
 471              	.L98:
 472 03b6 0120     		movs	r0, #1
 473 03b8 7047     		bx	lr
 474              	.L115:
 475 03ba 00BF     		.align	2
 476              	.L114:
 477 03bc 00004742 		.word	1111949312
 478 03c0 00380240 		.word	1073887232
 480              		.section	.text.HAL_RCC_MCOConfig,"ax",%progbits
 481              		.align	1
 482              		.p2align 2,,3
 483              		.global	HAL_RCC_MCOConfig
 484              		.syntax unified
 485              		.thumb
 486              		.thumb_func
 488              	HAL_RCC_MCOConfig:
 489              		@ args = 0, pretend = 0, frame = 32
 490              		@ frame_needed = 0, uses_anonymous_args = 0
 491 0000 70B5     		push	{r4, r5, r6, lr}
 492 0002 244E     		ldr	r6, .L120
 493 0004 88B0     		sub	sp, sp, #32
 494 0006 0D46     		mov	r5, r1
 495 0008 1446     		mov	r4, r2
 496 000a F8B9     		cbnz	r0, .L117
 497 000c 0090     		str	r0, [sp]
 498 000e 336B     		ldr	r3, [r6, #48]
 499 0010 43F00103 		orr	r3, r3, #1
 500 0014 3363     		str	r3, [r6, #48]
 501 0016 336B     		ldr	r3, [r6, #48]
 502 0018 0690     		str	r0, [sp, #24]
 503 001a 03F00103 		and	r3, r3, #1
 504 001e 0093     		str	r3, [sp]
 505 0020 4FF48072 		mov	r2, #256
 506 0024 0223     		movs	r3, #2
 507 0026 CDE90223 		strd	r2, [sp, #8]
 508 002a 1B48     		ldr	r0, .L120+4
 509 002c 0022     		movs	r2, #0
 510 002e 0323     		movs	r3, #3
 511 0030 02A9     		add	r1, sp, #8
 512 0032 CDE90423 		strd	r2, [sp, #16]
 513 0036 009B     		ldr	r3, [sp]
 514 0038 FFF7FEFF 		bl	HAL_GPIO_Init
 515 003c B368     		ldr	r3, [r6, #8]
 516 003e 23F0EC63 		bic	r3, r3, #123731968
 517 0042 2B43     		orrs	r3, r3, r5
 518 0044 2343     		orrs	r3, r3, r4
ARM GAS  /var/folders/lp/x54gwt890xv47sdkqj1k04q40000gn/T//cc4su43i.s 			page 10


 519 0046 B360     		str	r3, [r6, #8]
 520 0048 08B0     		add	sp, sp, #32
 521              		@ sp needed
 522 004a 70BD     		pop	{r4, r5, r6, pc}
 523              	.L117:
 524 004c 0022     		movs	r2, #0
 525 004e 0192     		str	r2, [sp, #4]
 526 0050 336B     		ldr	r3, [r6, #48]
 527 0052 1248     		ldr	r0, .L120+8
 528 0054 43F00403 		orr	r3, r3, #4
 529 0058 3363     		str	r3, [r6, #48]
 530 005a 336B     		ldr	r3, [r6, #48]
 531 005c 0692     		str	r2, [sp, #24]
 532 005e 03F00403 		and	r3, r3, #4
 533 0062 0193     		str	r3, [sp, #4]
 534 0064 4FF40072 		mov	r2, #512
 535 0068 0223     		movs	r3, #2
 536 006a CDE90223 		strd	r2, [sp, #8]
 537 006e 02A9     		add	r1, sp, #8
 538 0070 0022     		movs	r2, #0
 539 0072 0323     		movs	r3, #3
 540 0074 CDE90423 		strd	r2, [sp, #16]
 541 0078 019B     		ldr	r3, [sp, #4]
 542 007a FFF7FEFF 		bl	HAL_GPIO_Init
 543 007e B368     		ldr	r3, [r6, #8]
 544 0080 23F07843 		bic	r3, r3, #-134217728
 545 0084 43EA0501 		orr	r1, r3, r5
 546 0088 41EAC401 		orr	r1, r1, r4, lsl #3
 547 008c B160     		str	r1, [r6, #8]
 548 008e 08B0     		add	sp, sp, #32
 549              		@ sp needed
 550 0090 70BD     		pop	{r4, r5, r6, pc}
 551              	.L121:
 552 0092 00BF     		.align	2
 553              	.L120:
 554 0094 00380240 		.word	1073887232
 555 0098 00000240 		.word	1073872896
 556 009c 00080240 		.word	1073874944
 558              		.section	.text.HAL_RCC_EnableCSS,"ax",%progbits
 559              		.align	1
 560              		.p2align 2,,3
 561              		.global	HAL_RCC_EnableCSS
 562              		.syntax unified
 563              		.thumb
 564              		.thumb_func
 566              	HAL_RCC_EnableCSS:
 567              		@ args = 0, pretend = 0, frame = 0
 568              		@ frame_needed = 0, uses_anonymous_args = 0
 569              		@ link register save eliminated.
 570 0000 014B     		ldr	r3, .L123
 571 0002 0122     		movs	r2, #1
 572 0004 DA64     		str	r2, [r3, #76]
 573 0006 7047     		bx	lr
 574              	.L124:
 575              		.align	2
 576              	.L123:
 577 0008 00004742 		.word	1111949312
ARM GAS  /var/folders/lp/x54gwt890xv47sdkqj1k04q40000gn/T//cc4su43i.s 			page 11


 579              		.section	.text.HAL_RCC_DisableCSS,"ax",%progbits
 580              		.align	1
 581              		.p2align 2,,3
 582              		.global	HAL_RCC_DisableCSS
 583              		.syntax unified
 584              		.thumb
 585              		.thumb_func
 587              	HAL_RCC_DisableCSS:
 588              		@ args = 0, pretend = 0, frame = 0
 589              		@ frame_needed = 0, uses_anonymous_args = 0
 590              		@ link register save eliminated.
 591 0000 014B     		ldr	r3, .L126
 592 0002 0022     		movs	r2, #0
 593 0004 DA64     		str	r2, [r3, #76]
 594 0006 7047     		bx	lr
 595              	.L127:
 596              		.align	2
 597              	.L126:
 598 0008 00004742 		.word	1111949312
 600              		.global	__aeabi_uldivmod
 601              		.global	__aeabi_ldivmod
 602              		.section	.text.HAL_RCC_GetSysClockFreq,"ax",%progbits
 603              		.align	1
 604              		.p2align 2,,3
 605              		.weak	HAL_RCC_GetSysClockFreq
 606              		.syntax unified
 607              		.thumb
 608              		.thumb_func
 610              	HAL_RCC_GetSysClockFreq:
 611              		@ args = 0, pretend = 0, frame = 0
 612              		@ frame_needed = 0, uses_anonymous_args = 0
 613 0000 1649     		ldr	r1, .L137
 614 0002 08B5     		push	{r3, lr}
 615 0004 8B68     		ldr	r3, [r1, #8]
 616 0006 03F00C03 		and	r3, r3, #12
 617 000a 042B     		cmp	r3, #4
 618 000c 1BD0     		beq	.L132
 619 000e 082B     		cmp	r3, #8
 620 0010 01D0     		beq	.L135
 621 0012 1348     		ldr	r0, .L137+4
 622 0014 08BD     		pop	{r3, pc}
 623              	.L135:
 624 0016 4A68     		ldr	r2, [r1, #4]
 625 0018 4B68     		ldr	r3, [r1, #4]
 626 001a 4968     		ldr	r1, [r1, #4]
 627 001c 13F48003 		ands	r3, r3, #4194304
 628 0020 02F03F02 		and	r2, r2, #63
 629 0024 11D1     		bne	.L136
 630 0026 0E48     		ldr	r0, .L137+4
 631 0028 C1F38811 		ubfx	r1, r1, #6, #9
 632 002c A1FB0001 		umull	r0, r1, r1, r0
 633 0030 FFF7FEFF 		bl	__aeabi_uldivmod
 634              	.L131:
 635 0034 094B     		ldr	r3, .L137
 636 0036 5B68     		ldr	r3, [r3, #4]
 637 0038 C3F30143 		ubfx	r3, r3, #16, #2
 638 003c 0133     		adds	r3, r3, #1
ARM GAS  /var/folders/lp/x54gwt890xv47sdkqj1k04q40000gn/T//cc4su43i.s 			page 12


 639 003e 5B00     		lsls	r3, r3, #1
 640 0040 B0FBF3F0 		udiv	r0, r0, r3
 641 0044 08BD     		pop	{r3, pc}
 642              	.L132:
 643 0046 0748     		ldr	r0, .L137+8
 644 0048 08BD     		pop	{r3, pc}
 645              	.L136:
 646 004a 0648     		ldr	r0, .L137+8
 647 004c C1F38811 		ubfx	r1, r1, #6, #9
 648 0050 0023     		movs	r3, #0
 649 0052 A1FB0001 		umull	r0, r1, r1, r0
 650 0056 FFF7FEFF 		bl	__aeabi_uldivmod
 651 005a EBE7     		b	.L131
 652              	.L138:
 653              		.align	2
 654              	.L137:
 655 005c 00380240 		.word	1073887232
 656 0060 0024F400 		.word	16000000
 657 0064 00127A00 		.word	8000000
 659              		.section	.text.HAL_RCC_ClockConfig,"ax",%progbits
 660              		.align	1
 661              		.p2align 2,,3
 662              		.global	HAL_RCC_ClockConfig
 663              		.syntax unified
 664              		.thumb
 665              		.thumb_func
 667              	HAL_RCC_ClockConfig:
 668              		@ args = 0, pretend = 0, frame = 0
 669              		@ frame_needed = 0, uses_anonymous_args = 0
 670 0000 0028     		cmp	r0, #0
 671 0002 00F08780 		beq	.L183
 672 0006 484A     		ldr	r2, .L186
 673 0008 1368     		ldr	r3, [r2]
 674 000a 03F00703 		and	r3, r3, #7
 675 000e 8B42     		cmp	r3, r1
 676 0010 2DE9F041 		push	{r4, r5, r6, r7, r8, lr}
 677 0014 0D46     		mov	r5, r1
 678 0016 0446     		mov	r4, r0
 679 0018 09D2     		bcs	.L146
 680 001a CBB2     		uxtb	r3, r1
 681 001c 1370     		strb	r3, [r2]
 682 001e 1368     		ldr	r3, [r2]
 683 0020 03F00703 		and	r3, r3, #7
 684 0024 8B42     		cmp	r3, r1
 685 0026 02D0     		beq	.L146
 686              	.L145:
 687 0028 0120     		movs	r0, #1
 688              	.L141:
 689 002a BDE8F081 		pop	{r4, r5, r6, r7, r8, pc}
 690              	.L146:
 691 002e 2368     		ldr	r3, [r4]
 692 0030 9807     		lsls	r0, r3, #30
 693 0032 14D5     		bpl	.L144
 694 0034 5907     		lsls	r1, r3, #29
 695 0036 04D5     		bpl	.L147
 696 0038 3C49     		ldr	r1, .L186+4
 697 003a 8A68     		ldr	r2, [r1, #8]
ARM GAS  /var/folders/lp/x54gwt890xv47sdkqj1k04q40000gn/T//cc4su43i.s 			page 13


 698 003c 42F4E052 		orr	r2, r2, #7168
 699 0040 8A60     		str	r2, [r1, #8]
 700              	.L147:
 701 0042 1A07     		lsls	r2, r3, #28
 702 0044 04D5     		bpl	.L148
 703 0046 3949     		ldr	r1, .L186+4
 704 0048 8A68     		ldr	r2, [r1, #8]
 705 004a 42F46042 		orr	r2, r2, #57344
 706 004e 8A60     		str	r2, [r1, #8]
 707              	.L148:
 708 0050 3649     		ldr	r1, .L186+4
 709 0052 A068     		ldr	r0, [r4, #8]
 710 0054 8A68     		ldr	r2, [r1, #8]
 711 0056 22F0F002 		bic	r2, r2, #240
 712 005a 0243     		orrs	r2, r2, r0
 713 005c 8A60     		str	r2, [r1, #8]
 714              	.L144:
 715 005e DF07     		lsls	r7, r3, #31
 716 0060 21D5     		bpl	.L157
 717 0062 6268     		ldr	r2, [r4, #4]
 718 0064 012A     		cmp	r2, #1
 719 0066 57D0     		beq	.L184
 720 0068 931E     		subs	r3, r2, #2
 721 006a 012B     		cmp	r3, #1
 722 006c 2F4B     		ldr	r3, .L186+4
 723 006e 1B68     		ldr	r3, [r3]
 724 0070 4DD9     		bls	.L185
 725 0072 9907     		lsls	r1, r3, #30
 726 0074 D8D5     		bpl	.L145
 727              	.L153:
 728 0076 2D4E     		ldr	r6, .L186+4
 729 0078 B368     		ldr	r3, [r6, #8]
 730 007a 23F00303 		bic	r3, r3, #3
 731 007e 1343     		orrs	r3, r3, r2
 732 0080 B360     		str	r3, [r6, #8]
 733 0082 FFF7FEFF 		bl	HAL_GetTick
 734 0086 41F28838 		movw	r8, #5000
 735 008a 0746     		mov	r7, r0
 736 008c 04E0     		b	.L155
 737              	.L156:
 738 008e FFF7FEFF 		bl	HAL_GetTick
 739 0092 C01B     		subs	r0, r0, r7
 740 0094 4045     		cmp	r0, r8
 741 0096 44D8     		bhi	.L161
 742              	.L155:
 743 0098 B368     		ldr	r3, [r6, #8]
 744 009a 6268     		ldr	r2, [r4, #4]
 745 009c 03F00C03 		and	r3, r3, #12
 746 00a0 B3EB820F 		cmp	r3, r2, lsl #2
 747 00a4 F3D1     		bne	.L156
 748              	.L157:
 749 00a6 204A     		ldr	r2, .L186
 750 00a8 1368     		ldr	r3, [r2]
 751 00aa 03F00703 		and	r3, r3, #7
 752 00ae AB42     		cmp	r3, r5
 753 00b0 06D9     		bls	.L151
 754 00b2 EBB2     		uxtb	r3, r5
ARM GAS  /var/folders/lp/x54gwt890xv47sdkqj1k04q40000gn/T//cc4su43i.s 			page 14


 755 00b4 1370     		strb	r3, [r2]
 756 00b6 1368     		ldr	r3, [r2]
 757 00b8 03F00703 		and	r3, r3, #7
 758 00bc AB42     		cmp	r3, r5
 759 00be B3D1     		bne	.L145
 760              	.L151:
 761 00c0 2368     		ldr	r3, [r4]
 762 00c2 5A07     		lsls	r2, r3, #29
 763 00c4 06D5     		bpl	.L159
 764 00c6 1949     		ldr	r1, .L186+4
 765 00c8 E068     		ldr	r0, [r4, #12]
 766 00ca 8A68     		ldr	r2, [r1, #8]
 767 00cc 22F4E052 		bic	r2, r2, #7168
 768 00d0 0243     		orrs	r2, r2, r0
 769 00d2 8A60     		str	r2, [r1, #8]
 770              	.L159:
 771 00d4 1B07     		lsls	r3, r3, #28
 772 00d6 07D5     		bpl	.L160
 773 00d8 144A     		ldr	r2, .L186+4
 774 00da 2169     		ldr	r1, [r4, #16]
 775 00dc 9368     		ldr	r3, [r2, #8]
 776 00de 23F46043 		bic	r3, r3, #57344
 777 00e2 43EAC103 		orr	r3, r3, r1, lsl #3
 778 00e6 9360     		str	r3, [r2, #8]
 779              	.L160:
 780 00e8 FFF7FEFF 		bl	HAL_RCC_GetSysClockFreq
 781 00ec 0F4A     		ldr	r2, .L186+4
 782 00ee 104C     		ldr	r4, .L186+8
 783 00f0 9268     		ldr	r2, [r2, #8]
 784 00f2 1049     		ldr	r1, .L186+12
 785 00f4 C2F30312 		ubfx	r2, r2, #4, #4
 786 00f8 0346     		mov	r3, r0
 787 00fa A25C     		ldrb	r2, [r4, r2]	@ zero_extendqisi2
 788 00fc 0E48     		ldr	r0, .L186+16
 789 00fe D340     		lsrs	r3, r3, r2
 790 0100 0068     		ldr	r0, [r0]
 791 0102 0B60     		str	r3, [r1]
 792 0104 FFF7FEFF 		bl	HAL_InitTick
 793 0108 0020     		movs	r0, #0
 794 010a BDE8F081 		pop	{r4, r5, r6, r7, r8, pc}
 795              	.L185:
 796 010e 9801     		lsls	r0, r3, #6
 797 0110 B1D4     		bmi	.L153
 798 0112 89E7     		b	.L145
 799              	.L183:
 800 0114 0120     		movs	r0, #1
 801 0116 7047     		bx	lr
 802              	.L184:
 803 0118 044B     		ldr	r3, .L186+4
 804 011a 1B68     		ldr	r3, [r3]
 805 011c 9E03     		lsls	r6, r3, #14
 806 011e AAD4     		bmi	.L153
 807 0120 82E7     		b	.L145
 808              	.L161:
 809 0122 0320     		movs	r0, #3
 810 0124 81E7     		b	.L141
 811              	.L187:
ARM GAS  /var/folders/lp/x54gwt890xv47sdkqj1k04q40000gn/T//cc4su43i.s 			page 15


 812 0126 00BF     		.align	2
 813              	.L186:
 814 0128 003C0240 		.word	1073888256
 815 012c 00380240 		.word	1073887232
 816 0130 00000000 		.word	AHBPrescTable
 817 0134 00000000 		.word	SystemCoreClock
 818 0138 00000000 		.word	uwTickPrio
 820              		.section	.text.HAL_RCC_GetHCLKFreq,"ax",%progbits
 821              		.align	1
 822              		.p2align 2,,3
 823              		.global	HAL_RCC_GetHCLKFreq
 824              		.syntax unified
 825              		.thumb
 826              		.thumb_func
 828              	HAL_RCC_GetHCLKFreq:
 829              		@ args = 0, pretend = 0, frame = 0
 830              		@ frame_needed = 0, uses_anonymous_args = 0
 831              		@ link register save eliminated.
 832 0000 014B     		ldr	r3, .L189
 833 0002 1868     		ldr	r0, [r3]
 834 0004 7047     		bx	lr
 835              	.L190:
 836 0006 00BF     		.align	2
 837              	.L189:
 838 0008 00000000 		.word	SystemCoreClock
 840              		.section	.text.HAL_RCC_GetPCLK1Freq,"ax",%progbits
 841              		.align	1
 842              		.p2align 2,,3
 843              		.global	HAL_RCC_GetPCLK1Freq
 844              		.syntax unified
 845              		.thumb
 846              		.thumb_func
 848              	HAL_RCC_GetPCLK1Freq:
 849              		@ args = 0, pretend = 0, frame = 0
 850              		@ frame_needed = 0, uses_anonymous_args = 0
 851              		@ link register save eliminated.
 852 0000 044B     		ldr	r3, .L192
 853 0002 0549     		ldr	r1, .L192+4
 854 0004 9B68     		ldr	r3, [r3, #8]
 855 0006 054A     		ldr	r2, .L192+8
 856 0008 0868     		ldr	r0, [r1]
 857 000a C3F38223 		ubfx	r3, r3, #10, #3
 858 000e D35C     		ldrb	r3, [r2, r3]	@ zero_extendqisi2
 859 0010 D840     		lsrs	r0, r0, r3
 860 0012 7047     		bx	lr
 861              	.L193:
 862              		.align	2
 863              	.L192:
 864 0014 00380240 		.word	1073887232
 865 0018 00000000 		.word	SystemCoreClock
 866 001c 00000000 		.word	APBPrescTable
 868              		.section	.text.HAL_RCC_GetPCLK2Freq,"ax",%progbits
 869              		.align	1
 870              		.p2align 2,,3
 871              		.global	HAL_RCC_GetPCLK2Freq
 872              		.syntax unified
 873              		.thumb
ARM GAS  /var/folders/lp/x54gwt890xv47sdkqj1k04q40000gn/T//cc4su43i.s 			page 16


 874              		.thumb_func
 876              	HAL_RCC_GetPCLK2Freq:
 877              		@ args = 0, pretend = 0, frame = 0
 878              		@ frame_needed = 0, uses_anonymous_args = 0
 879              		@ link register save eliminated.
 880 0000 044B     		ldr	r3, .L195
 881 0002 0549     		ldr	r1, .L195+4
 882 0004 9B68     		ldr	r3, [r3, #8]
 883 0006 054A     		ldr	r2, .L195+8
 884 0008 0868     		ldr	r0, [r1]
 885 000a C3F34233 		ubfx	r3, r3, #13, #3
 886 000e D35C     		ldrb	r3, [r2, r3]	@ zero_extendqisi2
 887 0010 D840     		lsrs	r0, r0, r3
 888 0012 7047     		bx	lr
 889              	.L196:
 890              		.align	2
 891              	.L195:
 892 0014 00380240 		.word	1073887232
 893 0018 00000000 		.word	SystemCoreClock
 894 001c 00000000 		.word	APBPrescTable
 896              		.section	.text.HAL_RCC_GetOscConfig,"ax",%progbits
 897              		.align	1
 898              		.p2align 2,,3
 899              		.weak	HAL_RCC_GetOscConfig
 900              		.syntax unified
 901              		.thumb
 902              		.thumb_func
 904              	HAL_RCC_GetOscConfig:
 905              		@ args = 0, pretend = 0, frame = 0
 906              		@ frame_needed = 0, uses_anonymous_args = 0
 907              		@ link register save eliminated.
 908 0000 214B     		ldr	r3, .L204
 909 0002 0F22     		movs	r2, #15
 910 0004 0260     		str	r2, [r0]
 911 0006 1A68     		ldr	r2, [r3]
 912 0008 5103     		lsls	r1, r2, #13
 913 000a 58BF     		it	pl
 914 000c 1A68     		ldrpl	r2, [r3]
 915 000e 1E4B     		ldr	r3, .L204
 916 0010 54BF     		ite	pl
 917 0012 02F48032 		andpl	r2, r2, #65536
 918 0016 4FF4A022 		movmi	r2, #327680
 919 001a 4260     		str	r2, [r0, #4]
 920 001c 1A68     		ldr	r2, [r3]
 921 001e 02F00102 		and	r2, r2, #1
 922 0022 C260     		str	r2, [r0, #12]
 923 0024 1A68     		ldr	r2, [r3]
 924 0026 C2F3C402 		ubfx	r2, r2, #3, #5
 925 002a 0261     		str	r2, [r0, #16]
 926 002c 1A6F     		ldr	r2, [r3, #112]
 927 002e 5207     		lsls	r2, r2, #29
 928 0030 58BF     		it	pl
 929 0032 1A6F     		ldrpl	r2, [r3, #112]
 930 0034 144B     		ldr	r3, .L204
 931 0036 54BF     		ite	pl
 932 0038 02F00102 		andpl	r2, r2, #1
 933 003c 0522     		movmi	r2, #5
ARM GAS  /var/folders/lp/x54gwt890xv47sdkqj1k04q40000gn/T//cc4su43i.s 			page 17


 934 003e 8260     		str	r2, [r0, #8]
 935 0040 5A6F     		ldr	r2, [r3, #116]
 936 0042 02F00102 		and	r2, r2, #1
 937 0046 4261     		str	r2, [r0, #20]
 938 0048 1A68     		ldr	r2, [r3]
 939 004a 12F0807F 		tst	r2, #16777216
 940 004e 0CBF     		ite	eq
 941 0050 0122     		moveq	r2, #1
 942 0052 0222     		movne	r2, #2
 943 0054 8261     		str	r2, [r0, #24]
 944 0056 5A68     		ldr	r2, [r3, #4]
 945 0058 02F48002 		and	r2, r2, #4194304
 946 005c C261     		str	r2, [r0, #28]
 947 005e 5A68     		ldr	r2, [r3, #4]
 948 0060 02F03F02 		and	r2, r2, #63
 949 0064 0262     		str	r2, [r0, #32]
 950 0066 5A68     		ldr	r2, [r3, #4]
 951 0068 C2F38812 		ubfx	r2, r2, #6, #9
 952 006c 4262     		str	r2, [r0, #36]
 953 006e 5A68     		ldr	r2, [r3, #4]
 954 0070 02F44032 		and	r2, r2, #196608
 955 0074 02F58032 		add	r2, r2, #65536
 956 0078 D20B     		lsrs	r2, r2, #15
 957 007a 8262     		str	r2, [r0, #40]
 958 007c 5B68     		ldr	r3, [r3, #4]
 959 007e C3F30363 		ubfx	r3, r3, #24, #4
 960 0082 C362     		str	r3, [r0, #44]
 961 0084 7047     		bx	lr
 962              	.L205:
 963 0086 00BF     		.align	2
 964              	.L204:
 965 0088 00380240 		.word	1073887232
 967              		.section	.text.HAL_RCC_GetClockConfig,"ax",%progbits
 968              		.align	1
 969              		.p2align 2,,3
 970              		.global	HAL_RCC_GetClockConfig
 971              		.syntax unified
 972              		.thumb
 973              		.thumb_func
 975              	HAL_RCC_GetClockConfig:
 976              		@ args = 0, pretend = 0, frame = 0
 977              		@ frame_needed = 0, uses_anonymous_args = 0
 978              		@ link register save eliminated.
 979 0000 0E4B     		ldr	r3, .L208
 980 0002 0F22     		movs	r2, #15
 981 0004 10B4     		push	{r4}
 982 0006 0260     		str	r2, [r0]
 983 0008 9A68     		ldr	r2, [r3, #8]
 984 000a 0D4C     		ldr	r4, .L208+4
 985 000c 02F00302 		and	r2, r2, #3
 986 0010 4260     		str	r2, [r0, #4]
 987 0012 9A68     		ldr	r2, [r3, #8]
 988 0014 02F0F002 		and	r2, r2, #240
 989 0018 8260     		str	r2, [r0, #8]
 990 001a 9A68     		ldr	r2, [r3, #8]
 991 001c 02F4E052 		and	r2, r2, #7168
 992 0020 C260     		str	r2, [r0, #12]
ARM GAS  /var/folders/lp/x54gwt890xv47sdkqj1k04q40000gn/T//cc4su43i.s 			page 18


 993 0022 9B68     		ldr	r3, [r3, #8]
 994 0024 DB08     		lsrs	r3, r3, #3
 995 0026 03F4E053 		and	r3, r3, #7168
 996 002a 0361     		str	r3, [r0, #16]
 997 002c 2368     		ldr	r3, [r4]
 998 002e 5DF8044B 		ldr	r4, [sp], #4
 999 0032 03F00703 		and	r3, r3, #7
 1000 0036 0B60     		str	r3, [r1]
 1001 0038 7047     		bx	lr
 1002              	.L209:
 1003 003a 00BF     		.align	2
 1004              	.L208:
 1005 003c 00380240 		.word	1073887232
 1006 0040 003C0240 		.word	1073888256
 1008              		.section	.text.HAL_RCC_CSSCallback,"ax",%progbits
 1009              		.align	1
 1010              		.p2align 2,,3
 1011              		.weak	HAL_RCC_CSSCallback
 1012              		.syntax unified
 1013              		.thumb
 1014              		.thumb_func
 1016              	HAL_RCC_CSSCallback:
 1017              		@ args = 0, pretend = 0, frame = 0
 1018              		@ frame_needed = 0, uses_anonymous_args = 0
 1019              		@ link register save eliminated.
 1020 0000 7047     		bx	lr
 1022 0002 00BF     		.section	.text.HAL_RCC_NMI_IRQHandler,"ax",%progbits
 1023              		.align	1
 1024              		.p2align 2,,3
 1025              		.global	HAL_RCC_NMI_IRQHandler
 1026              		.syntax unified
 1027              		.thumb
 1028              		.thumb_func
 1030              	HAL_RCC_NMI_IRQHandler:
 1031              		@ args = 0, pretend = 0, frame = 0
 1032              		@ frame_needed = 0, uses_anonymous_args = 0
 1033 0000 10B5     		push	{r4, lr}
 1034 0002 054C     		ldr	r4, .L218
 1035 0004 E368     		ldr	r3, [r4, #12]
 1036 0006 1B06     		lsls	r3, r3, #24
 1037 0008 00D4     		bmi	.L217
 1038 000a 10BD     		pop	{r4, pc}
 1039              	.L217:
 1040 000c FFF7FEFF 		bl	HAL_RCC_CSSCallback
 1041 0010 8023     		movs	r3, #128
 1042 0012 A373     		strb	r3, [r4, #14]
 1043 0014 10BD     		pop	{r4, pc}
 1044              	.L219:
 1045 0016 00BF     		.align	2
 1046              	.L218:
 1047 0018 00380240 		.word	1073887232
 1049              		.ident	"GCC: (xPack GNU Arm Embedded GCC arm64) 13.3.1 20240614"
ARM GAS  /var/folders/lp/x54gwt890xv47sdkqj1k04q40000gn/T//cc4su43i.s 			page 19

