ARM GAS  /var/folders/lp/x54gwt890xv47sdkqj1k04q40000gn/T//ccifOm3r.s 			page 1


   1              		.cpu cortex-m4
   2              		.arch armv7e-m
   3              		.fpu fpv4-sp-d16
   4              		.eabi_attribute 27, 1
   5              		.eabi_attribute 28, 1
   6              		.eabi_attribute 20, 1
   7              		.eabi_attribute 21, 1
   8              		.eabi_attribute 23, 3
   9              		.eabi_attribute 24, 1
  10              		.eabi_attribute 25, 1
  11              		.eabi_attribute 26, 1
  12              		.eabi_attribute 30, 2
  13              		.eabi_attribute 34, 1
  14              		.eabi_attribute 18, 4
  15              		.file	"stm32f4xx_hal_i2s_ex.c"
  16              		.text
  17              		.section	.text.I2SEx_TxRxDMAError,"ax",%progbits
  18              		.align	1
  19              		.p2align 2,,3
  20              		.syntax unified
  21              		.thumb
  22              		.thumb_func
  24              	I2SEx_TxRxDMAError:
  25              		@ args = 0, pretend = 0, frame = 0
  26              		@ frame_needed = 0, uses_anonymous_args = 0
  27              		@ link register save eliminated.
  28 0000 806B     		ldr	r0, [r0, #56]
  29 0002 0F4B     		ldr	r3, .L6
  30 0004 0268     		ldr	r2, [r0]
  31 0006 10B4     		push	{r4}
  32 0008 5168     		ldr	r1, [r2, #4]
  33 000a 0E4C     		ldr	r4, .L6+4
  34 000c 21F00301 		bic	r1, r1, #3
  35 0010 A242     		cmp	r2, r4
  36 0012 18BF     		it	ne
  37 0014 4FF04023 		movne	r3, #1073758208
  38 0018 5160     		str	r1, [r2, #4]
  39 001a 5A68     		ldr	r2, [r3, #4]
  40 001c 0021     		movs	r1, #0
  41 001e 22F00302 		bic	r2, r2, #3
  42 0022 4FF0010C 		mov	ip, #1
  43 0026 5A60     		str	r2, [r3, #4]
  44 0028 4185     		strh	r1, [r0, #42]	@ movhi
  45 002a 4186     		strh	r1, [r0, #50]	@ movhi
  46 002c 80F841C0 		strb	ip, [r0, #65]
  47 0030 436C     		ldr	r3, [r0, #68]
  48 0032 5DF8044B 		ldr	r4, [sp], #4
  49 0036 43F00803 		orr	r3, r3, #8
  50 003a 4364     		str	r3, [r0, #68]
  51 003c FFF7FEBF 		b	HAL_I2S_ErrorCallback
  52              	.L7:
  53              		.align	2
  54              	.L6:
  55 0040 00340040 		.word	1073755136
  56 0044 00380040 		.word	1073756160
  58              		.section	.text.HAL_I2SEx_TransmitReceive,"ax",%progbits
  59              		.align	1
ARM GAS  /var/folders/lp/x54gwt890xv47sdkqj1k04q40000gn/T//ccifOm3r.s 			page 2


  60              		.p2align 2,,3
  61              		.global	HAL_I2SEx_TransmitReceive
  62              		.syntax unified
  63              		.thumb
  64              		.thumb_func
  66              	HAL_I2SEx_TransmitReceive:
  67              		@ args = 4, pretend = 0, frame = 32
  68              		@ frame_needed = 0, uses_anonymous_args = 0
  69 0000 2DE9F04F 		push	{r4, r5, r6, r7, r8, r9, r10, fp, lr}
  70 0004 9246     		mov	r10, r2
  71 0006 90F84120 		ldrb	r2, [r0, #65]	@ zero_extendqisi2
  72 000a 89B0     		sub	sp, sp, #36
  73 000c 012A     		cmp	r2, #1
  74 000e 129D     		ldr	r5, [sp, #72]
  75 0010 0446     		mov	r4, r0
  76 0012 40F08780 		bne	.L62
  77 0016 D7B2     		uxtb	r7, r2
  78 0018 0029     		cmp	r1, #0
  79 001a 00F08A80 		beq	.L10
  80 001e BAF1000F 		cmp	r10, #0
  81 0022 00F08680 		beq	.L10
  82 0026 002B     		cmp	r3, #0
  83 0028 00F08380 		beq	.L10
  84 002c 90F84020 		ldrb	r2, [r0, #64]	@ zero_extendqisi2
  85 0030 012A     		cmp	r2, #1
  86 0032 00F06F81 		beq	.L63
  87 0036 0268     		ldr	r2, [r0]
  88 0038 80F84070 		strb	r7, [r0, #64]
  89 003c D669     		ldr	r6, [r2, #28]
  90 003e 2820     		movs	r0, #40
  91 0040 06F00706 		and	r6, r6, #7
  92 0044 F040     		lsrs	r0, r0, r6
  93 0046 C007     		lsls	r0, r0, #31
  94 0048 44BF     		itt	mi
  95 004a 5B00     		lslmi	r3, r3, #1
  96 004c 9BB2     		uxthmi	r3, r3
  97 004e 2385     		strh	r3, [r4, #40]	@ movhi
  98 0050 4FF0000E 		mov	lr, #0
  99 0054 6385     		strh	r3, [r4, #42]	@ movhi
 100 0056 2386     		strh	r3, [r4, #48]	@ movhi
 101 0058 6386     		strh	r3, [r4, #50]	@ movhi
 102 005a 0523     		movs	r3, #5
 103 005c C4F844E0 		str	lr, [r4, #68]
 104 0060 84F84130 		strb	r3, [r4, #65]
 105 0064 D369     		ldr	r3, [r2, #28]
 106 0066 03F44070 		and	r0, r3, #768
 107 006a 13F48073 		ands	r3, r3, #256
 108 006e 01F10206 		add	r6, r1, #2
 109 0072 0090     		str	r0, [sp]
 110 0074 0988     		ldrh	r1, [r1]
 111 0076 00F0AB80 		beq	.L105
 112 007a DFF85CC2 		ldr	ip, .L110+4
 113 007e 954B     		ldr	r3, .L110
 114 0080 6245     		cmp	r2, ip
 115 0082 18BF     		it	ne
 116 0084 4FF04023 		movne	r3, #1073758208
 117 0088 D960     		str	r1, [r3, #12]
ARM GAS  /var/folders/lp/x54gwt890xv47sdkqj1k04q40000gn/T//ccifOm3r.s 			page 3


 118 008a 618D     		ldrh	r1, [r4, #42]
 119 008c 0139     		subs	r1, r1, #1
 120 008e 89B2     		uxth	r1, r1
 121 0090 6185     		strh	r1, [r4, #42]	@ movhi
 122 0092 D969     		ldr	r1, [r3, #28]
 123 0094 41F48061 		orr	r1, r1, #1024
 124 0098 D961     		str	r1, [r3, #28]
 125 009a D369     		ldr	r3, [r2, #28]
 126 009c 43F48063 		orr	r3, r3, #1024
 127 00a0 D361     		str	r3, [r2, #28]
 128 00a2 D369     		ldr	r3, [r2, #28]
 129 00a4 03F44073 		and	r3, r3, #768
 130 00a8 B3F5407F 		cmp	r3, #768
 131 00ac 00F03481 		beq	.L106
 132              	.L40:
 133 00b0 DFF82492 		ldr	r9, .L110+4
 134 00b4 DFF81CB2 		ldr	fp, .L110
 135 00b8 4FF00008 		mov	r8, #0
 136              	.L59:
 137 00bc 638E     		ldrh	r3, [r4, #50]
 138 00be 9BB2     		uxth	r3, r3
 139 00c0 23B9     		cbnz	r3, .L60
 140 00c2 638D     		ldrh	r3, [r4, #42]
 141 00c4 9BB2     		uxth	r3, r3
 142 00c6 002B     		cmp	r3, #0
 143 00c8 00F01F81 		beq	.L61
 144              	.L60:
 145 00cc 638D     		ldrh	r3, [r4, #42]
 146 00ce 9BB2     		uxth	r3, r3
 147 00d0 002B     		cmp	r3, #0
 148 00d2 32D1     		bne	.L107
 149              	.L41:
 150 00d4 638E     		ldrh	r3, [r4, #50]
 151 00d6 9BB2     		uxth	r3, r3
 152 00d8 002B     		cmp	r3, #0
 153 00da EFD0     		beq	.L59
 154 00dc FFF7FEFF 		bl	HAL_GetTick
 155 00e0 0346     		mov	r3, r0
 156              	.L52:
 157 00e2 2168     		ldr	r1, [r4]
 158 00e4 8868     		ldr	r0, [r1, #8]
 159 00e6 C207     		lsls	r2, r0, #31
 160 00e8 04D4     		bmi	.L55
 161 00ea 681C     		adds	r0, r5, #1
 162 00ec 58D1     		bne	.L56
 163              	.L57:
 164 00ee 8B68     		ldr	r3, [r1, #8]
 165 00f0 DA07     		lsls	r2, r3, #31
 166 00f2 FCD5     		bpl	.L57
 167              	.L55:
 168 00f4 CB68     		ldr	r3, [r1, #12]
 169 00f6 AAF80030 		strh	r3, [r10]	@ movhi
 170 00fa 638E     		ldrh	r3, [r4, #50]
 171 00fc 013B     		subs	r3, r3, #1
 172 00fe 9BB2     		uxth	r3, r3
 173 0100 6386     		strh	r3, [r4, #50]	@ movhi
 174 0102 8B68     		ldr	r3, [r1, #8]
ARM GAS  /var/folders/lp/x54gwt890xv47sdkqj1k04q40000gn/T//ccifOm3r.s 			page 4


 175 0104 5B06     		lsls	r3, r3, #25
 176 0106 0AD5     		bpl	.L58
 177 0108 CDF81C80 		str	r8, [sp, #28]
 178 010c CB68     		ldr	r3, [r1, #12]
 179 010e 0793     		str	r3, [sp, #28]
 180 0110 8B68     		ldr	r3, [r1, #8]
 181 0112 0793     		str	r3, [sp, #28]
 182 0114 079B     		ldr	r3, [sp, #28]
 183 0116 636C     		ldr	r3, [r4, #68]
 184 0118 43F00203 		orr	r3, r3, #2
 185 011c 6364     		str	r3, [r4, #68]
 186              	.L58:
 187 011e 0AF1020A 		add	r10, r10, #2
 188 0122 CBE7     		b	.L59
 189              	.L62:
 190 0124 0227     		movs	r7, #2
 191              	.L9:
 192 0126 0122     		movs	r2, #1
 193 0128 0023     		movs	r3, #0
 194 012a 84F84120 		strb	r2, [r4, #65]
 195 012e 84F84030 		strb	r3, [r4, #64]
 196              	.L10:
 197 0132 3846     		mov	r0, r7
 198 0134 09B0     		add	sp, sp, #36
 199              		@ sp needed
 200 0136 BDE8F08F 		pop	{r4, r5, r6, r7, r8, r9, r10, fp, pc}
 201              	.L107:
 202 013a FFF7FEFF 		bl	HAL_GetTick
 203 013e 0346     		mov	r3, r0
 204              	.L42:
 205 0140 2168     		ldr	r1, [r4]
 206 0142 4945     		cmp	r1, r9
 207 0144 0CBF     		ite	eq
 208 0146 5846     		moveq	r0, fp
 209 0148 4FF04020 		movne	r0, #1073758208
 210 014c 8268     		ldr	r2, [r0, #8]
 211 014e 9207     		lsls	r2, r2, #30
 212 0150 04D4     		bmi	.L45
 213 0152 6A1C     		adds	r2, r5, #1
 214 0154 12D1     		bne	.L46
 215              	.L47:
 216 0156 8368     		ldr	r3, [r0, #8]
 217 0158 9B07     		lsls	r3, r3, #30
 218 015a FCD5     		bpl	.L47
 219              	.L45:
 220 015c 4945     		cmp	r1, r9
 221 015e 0CBF     		ite	eq
 222 0160 5846     		moveq	r0, fp
 223 0162 4FF04020 		movne	r0, #1073758208
 224 0166 3388     		ldrh	r3, [r6]
 225 0168 C360     		str	r3, [r0, #12]
 226 016a 638D     		ldrh	r3, [r4, #42]
 227 016c 013B     		subs	r3, r3, #1
 228 016e 9BB2     		uxth	r3, r3
 229 0170 6385     		strh	r3, [r4, #42]	@ movhi
 230 0172 8368     		ldr	r3, [r0, #8]
 231 0174 1807     		lsls	r0, r3, #28
ARM GAS  /var/folders/lp/x54gwt890xv47sdkqj1k04q40000gn/T//ccifOm3r.s 			page 5


 232 0176 1DD4     		bmi	.L108
 233              	.L49:
 234 0178 0236     		adds	r6, r6, #2
 235 017a ABE7     		b	.L41
 236              	.L46:
 237 017c 35B1     		cbz	r5, .L54
 238 017e 0193     		str	r3, [sp, #4]
 239 0180 FFF7FEFF 		bl	HAL_GetTick
 240 0184 019B     		ldr	r3, [sp, #4]
 241 0186 C01A     		subs	r0, r0, r3
 242 0188 8542     		cmp	r5, r0
 243 018a D9D2     		bcs	.L42
 244              	.L54:
 245 018c 0122     		movs	r2, #1
 246 018e 0023     		movs	r3, #0
 247 0190 84F84120 		strb	r2, [r4, #65]
 248 0194 84F84030 		strb	r3, [r4, #64]
 249 0198 636C     		ldr	r3, [r4, #68]
 250 019a 1343     		orrs	r3, r3, r2
 251 019c 6364     		str	r3, [r4, #68]
 252 019e C2E7     		b	.L9
 253              	.L56:
 254 01a0 002D     		cmp	r5, #0
 255 01a2 F3D0     		beq	.L54
 256 01a4 0193     		str	r3, [sp, #4]
 257 01a6 FFF7FEFF 		bl	HAL_GetTick
 258 01aa 019B     		ldr	r3, [sp, #4]
 259 01ac C01A     		subs	r0, r0, r3
 260 01ae 8542     		cmp	r5, r0
 261 01b0 97D2     		bcs	.L52
 262 01b2 EBE7     		b	.L54
 263              	.L108:
 264 01b4 009B     		ldr	r3, [sp]
 265 01b6 B3F5807F 		cmp	r3, #256
 266 01ba DDD1     		bne	.L49
 267 01bc CDF81880 		str	r8, [sp, #24]
 268 01c0 8B68     		ldr	r3, [r1, #8]
 269 01c2 0693     		str	r3, [sp, #24]
 270 01c4 069B     		ldr	r3, [sp, #24]
 271 01c6 636C     		ldr	r3, [r4, #68]
 272 01c8 43F00403 		orr	r3, r3, #4
 273 01cc 6364     		str	r3, [r4, #68]
 274 01ce D3E7     		b	.L49
 275              	.L105:
 276 01d0 D160     		str	r1, [r2, #12]
 277 01d2 618D     		ldrh	r1, [r4, #42]
 278 01d4 4048     		ldr	r0, .L110+4
 279 01d6 0139     		subs	r1, r1, #1
 280 01d8 89B2     		uxth	r1, r1
 281 01da 6185     		strh	r1, [r4, #42]	@ movhi
 282 01dc 3D49     		ldr	r1, .L110
 283 01de 8242     		cmp	r2, r0
 284 01e0 18BF     		it	ne
 285 01e2 4FF04021 		movne	r1, #1073758208
 286 01e6 C869     		ldr	r0, [r1, #28]
 287 01e8 40F48060 		orr	r0, r0, #1024
 288 01ec C861     		str	r0, [r1, #28]
ARM GAS  /var/folders/lp/x54gwt890xv47sdkqj1k04q40000gn/T//ccifOm3r.s 			page 6


 289 01ee D069     		ldr	r0, [r2, #28]
 290 01f0 40F48060 		orr	r0, r0, #1024
 291 01f4 D061     		str	r0, [r2, #28]
 292 01f6 D269     		ldr	r2, [r2, #28]
 293 01f8 02F44072 		and	r2, r2, #768
 294 01fc B2F5007F 		cmp	r2, #512
 295 0200 05D1     		bne	.L15
 296 0202 0293     		str	r3, [sp, #8]
 297 0204 CB68     		ldr	r3, [r1, #12]
 298 0206 0293     		str	r3, [sp, #8]
 299 0208 8B68     		ldr	r3, [r1, #8]
 300 020a 0293     		str	r3, [sp, #8]
 301 020c 029B     		ldr	r3, [sp, #8]
 302              	.L15:
 303 020e DFF8C890 		ldr	r9, .L110+4
 304 0212 DFF8C0B0 		ldr	fp, .L110
 305              	.L37:
 306 0216 638E     		ldrh	r3, [r4, #50]
 307 0218 9BB2     		uxth	r3, r3
 308 021a 1BB9     		cbnz	r3, .L38
 309 021c 638D     		ldrh	r3, [r4, #42]
 310 021e 9BB2     		uxth	r3, r3
 311 0220 002B     		cmp	r3, #0
 312 0222 72D0     		beq	.L61
 313              	.L38:
 314 0224 638D     		ldrh	r3, [r4, #42]
 315 0226 9BB2     		uxth	r3, r3
 316 0228 002B     		cmp	r3, #0
 317 022a 31D1     		bne	.L109
 318              	.L16:
 319 022c 638E     		ldrh	r3, [r4, #50]
 320 022e 9BB2     		uxth	r3, r3
 321 0230 002B     		cmp	r3, #0
 322 0232 F0D0     		beq	.L37
 323 0234 FFF7FEFF 		bl	HAL_GetTick
 324 0238 8046     		mov	r8, r0
 325              	.L29:
 326 023a 2168     		ldr	r1, [r4]
 327 023c 4945     		cmp	r1, r9
 328 023e 0CBF     		ite	eq
 329 0240 5846     		moveq	r0, fp
 330 0242 4FF04020 		movne	r0, #1073758208
 331 0246 8368     		ldr	r3, [r0, #8]
 332 0248 DB07     		lsls	r3, r3, #31
 333 024a 04D4     		bmi	.L32
 334 024c 6A1C     		adds	r2, r5, #1
 335 024e 45D1     		bne	.L33
 336              	.L34:
 337 0250 8368     		ldr	r3, [r0, #8]
 338 0252 DB07     		lsls	r3, r3, #31
 339 0254 FCD5     		bpl	.L34
 340              	.L32:
 341 0256 4945     		cmp	r1, r9
 342 0258 0CBF     		ite	eq
 343 025a 5846     		moveq	r0, fp
 344 025c 4FF04020 		movne	r0, #1073758208
 345 0260 C368     		ldr	r3, [r0, #12]
ARM GAS  /var/folders/lp/x54gwt890xv47sdkqj1k04q40000gn/T//ccifOm3r.s 			page 7


 346 0262 AAF80030 		strh	r3, [r10]	@ movhi
 347 0266 638E     		ldrh	r3, [r4, #50]
 348 0268 013B     		subs	r3, r3, #1
 349 026a 9BB2     		uxth	r3, r3
 350 026c 6386     		strh	r3, [r4, #50]	@ movhi
 351 026e 8368     		ldr	r3, [r0, #8]
 352 0270 5806     		lsls	r0, r3, #25
 353 0272 0AD5     		bpl	.L36
 354 0274 0023     		movs	r3, #0
 355 0276 0493     		str	r3, [sp, #16]
 356 0278 CB68     		ldr	r3, [r1, #12]
 357 027a 0493     		str	r3, [sp, #16]
 358 027c 8B68     		ldr	r3, [r1, #8]
 359 027e 0493     		str	r3, [sp, #16]
 360 0280 049B     		ldr	r3, [sp, #16]
 361 0282 636C     		ldr	r3, [r4, #68]
 362 0284 43F00203 		orr	r3, r3, #2
 363 0288 6364     		str	r3, [r4, #68]
 364              	.L36:
 365 028a 0AF1020A 		add	r10, r10, #2
 366 028e C2E7     		b	.L37
 367              	.L109:
 368 0290 FFF7FEFF 		bl	HAL_GetTick
 369 0294 8046     		mov	r8, r0
 370              	.L17:
 371 0296 2168     		ldr	r1, [r4]
 372 0298 8868     		ldr	r0, [r1, #8]
 373 029a 8207     		lsls	r2, r0, #30
 374 029c 04D4     		bmi	.L25
 375 029e 681C     		adds	r0, r5, #1
 376 02a0 0DD1     		bne	.L24
 377              	.L26:
 378 02a2 8B68     		ldr	r3, [r1, #8]
 379 02a4 9A07     		lsls	r2, r3, #30
 380 02a6 FCD5     		bpl	.L26
 381              	.L25:
 382 02a8 3388     		ldrh	r3, [r6]
 383 02aa CB60     		str	r3, [r1, #12]
 384 02ac 638D     		ldrh	r3, [r4, #42]
 385 02ae 013B     		subs	r3, r3, #1
 386 02b0 9BB2     		uxth	r3, r3
 387 02b2 6385     		strh	r3, [r4, #42]	@ movhi
 388 02b4 8B68     		ldr	r3, [r1, #8]
 389 02b6 1B07     		lsls	r3, r3, #28
 390 02b8 1AD4     		bmi	.L22
 391              	.L23:
 392 02ba 0236     		adds	r6, r6, #2
 393 02bc B6E7     		b	.L16
 394              	.L24:
 395 02be 002D     		cmp	r5, #0
 396 02c0 3FF464AF 		beq	.L54
 397 02c4 FFF7FEFF 		bl	HAL_GetTick
 398 02c8 A0EB0800 		sub	r0, r0, r8
 399 02cc 8542     		cmp	r5, r0
 400 02ce E2D2     		bcs	.L17
 401 02d0 5CE7     		b	.L54
 402              	.L111:
ARM GAS  /var/folders/lp/x54gwt890xv47sdkqj1k04q40000gn/T//ccifOm3r.s 			page 8


 403 02d2 00BF     		.align	2
 404              	.L110:
 405 02d4 00340040 		.word	1073755136
 406 02d8 00380040 		.word	1073756160
 407              	.L33:
 408 02dc 002D     		cmp	r5, #0
 409 02de 3FF455AF 		beq	.L54
 410 02e2 FFF7FEFF 		bl	HAL_GetTick
 411 02e6 A0EB0800 		sub	r0, r0, r8
 412 02ea 8542     		cmp	r5, r0
 413 02ec A5D2     		bcs	.L29
 414 02ee 4DE7     		b	.L54
 415              	.L22:
 416 02f0 009B     		ldr	r3, [sp]
 417 02f2 002B     		cmp	r3, #0
 418 02f4 E1D1     		bne	.L23
 419 02f6 009B     		ldr	r3, [sp]
 420 02f8 0393     		str	r3, [sp, #12]
 421 02fa 8B68     		ldr	r3, [r1, #8]
 422 02fc 0393     		str	r3, [sp, #12]
 423 02fe 039B     		ldr	r3, [sp, #12]
 424 0300 636C     		ldr	r3, [r4, #68]
 425 0302 43F00403 		orr	r3, r3, #4
 426 0306 6364     		str	r3, [r4, #68]
 427 0308 D7E7     		b	.L23
 428              	.L61:
 429 030a 676C     		ldr	r7, [r4, #68]
 430 030c 003F     		subs	r7, r7, #0
 431 030e 18BF     		it	ne
 432 0310 0127     		movne	r7, #1
 433 0312 08E7     		b	.L9
 434              	.L63:
 435 0314 0227     		movs	r7, #2
 436 0316 0CE7     		b	.L10
 437              	.L106:
 438 0318 CDF814E0 		str	lr, [sp, #20]
 439 031c D368     		ldr	r3, [r2, #12]
 440 031e 0593     		str	r3, [sp, #20]
 441 0320 9368     		ldr	r3, [r2, #8]
 442 0322 0593     		str	r3, [sp, #20]
 443 0324 059B     		ldr	r3, [sp, #20]
 444 0326 C3E6     		b	.L40
 446              		.section	.text.HAL_I2SEx_TransmitReceive_IT,"ax",%progbits
 447              		.align	1
 448              		.p2align 2,,3
 449              		.global	HAL_I2SEx_TransmitReceive_IT
 450              		.syntax unified
 451              		.thumb
 452              		.thumb_func
 454              	HAL_I2SEx_TransmitReceive_IT:
 455              		@ args = 0, pretend = 0, frame = 0
 456              		@ frame_needed = 0, uses_anonymous_args = 0
 457 0000 10B5     		push	{r4, lr}
 458 0002 90F841E0 		ldrb	lr, [r0, #65]	@ zero_extendqisi2
 459 0006 BEF1010F 		cmp	lr, #1
 460 000a 8446     		mov	ip, r0
 461 000c 64D1     		bne	.L124
ARM GAS  /var/folders/lp/x54gwt890xv47sdkqj1k04q40000gn/T//ccifOm3r.s 			page 9


 462 000e 5FFA8EF0 		uxtb	r0, lr
 463 0012 0029     		cmp	r1, #0
 464 0014 5FD0     		beq	.L114
 465 0016 002A     		cmp	r2, #0
 466 0018 5DD0     		beq	.L114
 467 001a 002B     		cmp	r3, #0
 468 001c 5BD0     		beq	.L114
 469 001e 9CF84040 		ldrb	r4, [ip, #64]	@ zero_extendqisi2
 470 0022 012C     		cmp	r4, #1
 471 0024 7FD0     		beq	.L125
 472 0026 DCF80040 		ldr	r4, [ip]
 473 002a 8CF84000 		strb	r0, [ip, #64]
 474 002e E069     		ldr	r0, [r4, #28]
 475 0030 CCF82C20 		str	r2, [ip, #44]
 476 0034 00F00700 		and	r0, r0, #7
 477 0038 2822     		movs	r2, #40
 478 003a C240     		lsrs	r2, r2, r0
 479 003c D207     		lsls	r2, r2, #31
 480 003e 44BF     		itt	mi
 481 0040 5B00     		lslmi	r3, r3, #1
 482 0042 9BB2     		uxthmi	r3, r3
 483 0044 ACF82830 		strh	r3, [ip, #40]	@ movhi
 484 0048 ACF82A30 		strh	r3, [ip, #42]	@ movhi
 485 004c ACF83030 		strh	r3, [ip, #48]	@ movhi
 486 0050 ACF83230 		strh	r3, [ip, #50]	@ movhi
 487 0054 DCF80430 		ldr	r3, [ip, #4]
 488 0058 CCF82410 		str	r1, [ip, #36]
 489 005c 0022     		movs	r2, #0
 490 005e CCF84420 		str	r2, [ip, #68]
 491 0062 33F40073 		bics	r3, r3, #512
 492 0066 4FF00502 		mov	r2, #5
 493 006a 8CF84120 		strb	r2, [ip, #65]
 494 006e 2F4B     		ldr	r3, .L140
 495 0070 2F4A     		ldr	r2, .L140+4
 496 0072 36D0     		beq	.L139
 497 0074 9442     		cmp	r4, r2
 498 0076 18BF     		it	ne
 499 0078 4FF04023 		movne	r3, #1073758208
 500 007c 881C     		adds	r0, r1, #2
 501 007e 5A68     		ldr	r2, [r3, #4]
 502 0080 42F0A002 		orr	r2, r2, #160
 503 0084 5A60     		str	r2, [r3, #4]
 504 0086 6268     		ldr	r2, [r4, #4]
 505 0088 42F06002 		orr	r2, r2, #96
 506 008c 6260     		str	r2, [r4, #4]
 507 008e 0A88     		ldrh	r2, [r1]
 508 0090 CCF82400 		str	r0, [ip, #36]
 509 0094 DA60     		str	r2, [r3, #12]
 510 0096 BCF82A20 		ldrh	r2, [ip, #42]
 511 009a 013A     		subs	r2, r2, #1
 512 009c 92B2     		uxth	r2, r2
 513 009e ACF82A20 		strh	r2, [ip, #42]	@ movhi
 514 00a2 BCF82A20 		ldrh	r2, [ip, #42]
 515 00a6 92B2     		uxth	r2, r2
 516 00a8 1AB9     		cbnz	r2, .L120
 517 00aa 5A68     		ldr	r2, [r3, #4]
 518 00ac 22F0A002 		bic	r2, r2, #160
ARM GAS  /var/folders/lp/x54gwt890xv47sdkqj1k04q40000gn/T//ccifOm3r.s 			page 10


 519 00b0 5A60     		str	r2, [r3, #4]
 520              	.L120:
 521 00b2 1F4A     		ldr	r2, .L140+4
 522 00b4 1D4B     		ldr	r3, .L140
 523 00b6 9442     		cmp	r4, r2
 524 00b8 18BF     		it	ne
 525 00ba 4FF04023 		movne	r3, #1073758208
 526 00be 0020     		movs	r0, #0
 527 00c0 DA69     		ldr	r2, [r3, #28]
 528 00c2 42F48062 		orr	r2, r2, #1024
 529 00c6 DA61     		str	r2, [r3, #28]
 530 00c8 E369     		ldr	r3, [r4, #28]
 531 00ca 43F48063 		orr	r3, r3, #1024
 532 00ce E361     		str	r3, [r4, #28]
 533 00d0 0023     		movs	r3, #0
 534 00d2 8CF84030 		strb	r3, [ip, #64]
 535              	.L114:
 536 00d6 10BD     		pop	{r4, pc}
 537              	.L124:
 538              	.L113:
 539 00d8 0023     		movs	r3, #0
 540 00da 8CF84030 		strb	r3, [ip, #64]
 541 00de 0220     		movs	r0, #2
 542 00e0 10BD     		pop	{r4, pc}
 543              	.L139:
 544 00e2 9442     		cmp	r4, r2
 545 00e4 18BF     		it	ne
 546 00e6 4FF04023 		movne	r3, #1073758208
 547 00ea 0231     		adds	r1, r1, #2
 548 00ec 5A68     		ldr	r2, [r3, #4]
 549 00ee 42F06002 		orr	r2, r2, #96
 550 00f2 5A60     		str	r2, [r3, #4]
 551 00f4 6368     		ldr	r3, [r4, #4]
 552 00f6 31F8022C 		ldrh	r2, [r1, #-2]
 553 00fa 43F0A003 		orr	r3, r3, #160
 554 00fe 6360     		str	r3, [r4, #4]
 555 0100 CCF82410 		str	r1, [ip, #36]
 556 0104 E260     		str	r2, [r4, #12]
 557 0106 BCF82A30 		ldrh	r3, [ip, #42]
 558 010a 013B     		subs	r3, r3, #1
 559 010c 9BB2     		uxth	r3, r3
 560 010e ACF82A30 		strh	r3, [ip, #42]	@ movhi
 561 0112 BCF82A30 		ldrh	r3, [ip, #42]
 562 0116 9BB2     		uxth	r3, r3
 563 0118 002B     		cmp	r3, #0
 564 011a CAD1     		bne	.L120
 565 011c 6368     		ldr	r3, [r4, #4]
 566 011e 23F0A003 		bic	r3, r3, #160
 567 0122 6360     		str	r3, [r4, #4]
 568 0124 C5E7     		b	.L120
 569              	.L125:
 570 0126 0220     		movs	r0, #2
 571 0128 10BD     		pop	{r4, pc}
 572              	.L141:
 573 012a 00BF     		.align	2
 574              	.L140:
 575 012c 00340040 		.word	1073755136
ARM GAS  /var/folders/lp/x54gwt890xv47sdkqj1k04q40000gn/T//ccifOm3r.s 			page 11


 576 0130 00380040 		.word	1073756160
 578              		.section	.text.HAL_I2SEx_TransmitReceive_DMA,"ax",%progbits
 579              		.align	1
 580              		.p2align 2,,3
 581              		.global	HAL_I2SEx_TransmitReceive_DMA
 582              		.syntax unified
 583              		.thumb
 584              		.thumb_func
 586              	HAL_I2SEx_TransmitReceive_DMA:
 587              		@ args = 0, pretend = 0, frame = 8
 588              		@ frame_needed = 0, uses_anonymous_args = 0
 589 0000 2DE9F041 		push	{r4, r5, r6, r7, r8, lr}
 590 0004 90F841C0 		ldrb	ip, [r0, #65]	@ zero_extendqisi2
 591 0008 BCF1010F 		cmp	ip, #1
 592 000c 82B0     		sub	sp, sp, #8
 593 000e 0446     		mov	r4, r0
 594 0010 74D1     		bne	.L158
 595 0012 0D46     		mov	r5, r1
 596 0014 5FFA8CF0 		uxtb	r0, ip
 597 0018 0029     		cmp	r1, #0
 598 001a 73D0     		beq	.L144
 599 001c 1646     		mov	r6, r2
 600 001e 002A     		cmp	r2, #0
 601 0020 70D0     		beq	.L144
 602 0022 002B     		cmp	r3, #0
 603 0024 6ED0     		beq	.L144
 604 0026 94F84020 		ldrb	r2, [r4, #64]	@ zero_extendqisi2
 605 002a 012A     		cmp	r2, #1
 606 002c 00F0A280 		beq	.L159
 607 0030 2768     		ldr	r7, [r4]
 608 0032 84F84000 		strb	r0, [r4, #64]
 609 0036 6162     		str	r1, [r4, #36]
 610 0038 F969     		ldr	r1, [r7, #28]
 611 003a DFF854E1 		ldr	lr, .L178+8
 612 003e E662     		str	r6, [r4, #44]
 613 0040 01F00701 		and	r1, r1, #7
 614 0044 2822     		movs	r2, #40
 615 0046 CA40     		lsrs	r2, r2, r1
 616 0048 D007     		lsls	r0, r2, #31
 617 004a 44BF     		itt	mi
 618 004c 5B00     		lslmi	r3, r3, #1
 619 004e 9BB2     		uxthmi	r3, r3
 620 0050 2385     		strh	r3, [r4, #40]	@ movhi
 621 0052 0022     		movs	r2, #0
 622 0054 6385     		strh	r3, [r4, #42]	@ movhi
 623 0056 2386     		strh	r3, [r4, #48]	@ movhi
 624 0058 6386     		strh	r3, [r4, #50]	@ movhi
 625 005a 0523     		movs	r3, #5
 626 005c 6264     		str	r2, [r4, #68]
 627 005e 84F84130 		strb	r3, [r4, #65]
 628 0062 D4E90E30 		ldrd	r3, r0, [r4, #56]
 629 0066 D7F81CC0 		ldr	ip, [r7, #28]
 630 006a 4749     		ldr	r1, .L178
 631 006c C0F840E0 		str	lr, [r0, #64]
 632 0070 1CF4807F 		tst	ip, #256
 633 0074 DFF81CE1 		ldr	lr, .L178+12
 634 0078 C164     		str	r1, [r0, #76]
ARM GAS  /var/folders/lp/x54gwt890xv47sdkqj1k04q40000gn/T//ccifOm3r.s 			page 12


 635 007a C0F83CE0 		str	lr, [r0, #60]
 636 007e C3E90F22 		strd	r2, r2, [r3, #60]
 637 0082 D964     		str	r1, [r3, #76]
 638 0084 41D0     		beq	.L176
 639 0086 F969     		ldr	r1, [r7, #28]
 640 0088 01F44071 		and	r1, r1, #768
 641 008c B1F5407F 		cmp	r1, #768
 642 0090 72D0     		beq	.L177
 643              	.L153:
 644 0092 2946     		mov	r1, r5
 645 0094 DFF80081 		ldr	r8, .L178+16
 646 0098 3C4D     		ldr	r5, .L178+4
 647 009a 1846     		mov	r0, r3
 648 009c 238D     		ldrh	r3, [r4, #40]
 649 009e 4745     		cmp	r7, r8
 650 00a0 0CBF     		ite	eq
 651 00a2 2A46     		moveq	r2, r5
 652 00a4 4FF04022 		movne	r2, #1073758208
 653 00a8 0C32     		adds	r2, r2, #12
 654 00aa 9BB2     		uxth	r3, r3
 655 00ac FFF7FEFF 		bl	HAL_DMA_Start_IT
 656 00b0 2168     		ldr	r1, [r4]
 657 00b2 4145     		cmp	r1, r8
 658 00b4 0CBF     		ite	eq
 659 00b6 2846     		moveq	r0, r5
 660 00b8 4FF04020 		movne	r0, #1073758208
 661 00bc 3246     		mov	r2, r6
 662 00be 4368     		ldr	r3, [r0, #4]
 663 00c0 43F00203 		orr	r3, r3, #2
 664 00c4 4360     		str	r3, [r0, #4]
 665 00c6 238E     		ldrh	r3, [r4, #48]
 666 00c8 E06B     		ldr	r0, [r4, #60]
 667 00ca 9BB2     		uxth	r3, r3
 668 00cc 0C31     		adds	r1, r1, #12
 669 00ce FFF7FEFF 		bl	HAL_DMA_Start_IT
 670 00d2 2368     		ldr	r3, [r4]
 671 00d4 5A68     		ldr	r2, [r3, #4]
 672 00d6 42F00102 		orr	r2, r2, #1
 673 00da 5A60     		str	r2, [r3, #4]
 674 00dc DA69     		ldr	r2, [r3, #28]
 675 00de 5205     		lsls	r2, r2, #21
 676 00e0 46D4     		bmi	.L151
 677 00e2 4345     		cmp	r3, r8
 678 00e4 18BF     		it	ne
 679 00e6 4FF04025 		movne	r5, #1073758208
 680 00ea EA69     		ldr	r2, [r5, #28]
 681 00ec 42F48062 		orr	r2, r2, #1024
 682 00f0 EA61     		str	r2, [r5, #28]
 683 00f2 DA69     		ldr	r2, [r3, #28]
 684 00f4 42F48062 		orr	r2, r2, #1024
 685 00f8 DA61     		str	r2, [r3, #28]
 686 00fa 39E0     		b	.L151
 687              	.L158:
 688 00fc 0220     		movs	r0, #2
 689              	.L143:
 690 00fe 0023     		movs	r3, #0
 691 0100 84F84030 		strb	r3, [r4, #64]
ARM GAS  /var/folders/lp/x54gwt890xv47sdkqj1k04q40000gn/T//ccifOm3r.s 			page 13


 692              	.L144:
 693 0104 02B0     		add	sp, sp, #8
 694              		@ sp needed
 695 0106 BDE8F081 		pop	{r4, r5, r6, r7, r8, pc}
 696              	.L176:
 697 010a 3246     		mov	r2, r6
 698 010c DFF88880 		ldr	r8, .L178+16
 699 0110 1E4E     		ldr	r6, .L178+4
 700 0112 238E     		ldrh	r3, [r4, #48]
 701 0114 4745     		cmp	r7, r8
 702 0116 0CBF     		ite	eq
 703 0118 3146     		moveq	r1, r6
 704 011a 4FF04021 		movne	r1, #1073758208
 705 011e 0C31     		adds	r1, r1, #12
 706 0120 9BB2     		uxth	r3, r3
 707 0122 FFF7FEFF 		bl	HAL_DMA_Start_IT
 708 0126 2268     		ldr	r2, [r4]
 709 0128 4245     		cmp	r2, r8
 710 012a 0CBF     		ite	eq
 711 012c 3046     		moveq	r0, r6
 712 012e 4FF04020 		movne	r0, #1073758208
 713 0132 2946     		mov	r1, r5
 714 0134 4368     		ldr	r3, [r0, #4]
 715 0136 43F00103 		orr	r3, r3, #1
 716 013a 4360     		str	r3, [r0, #4]
 717 013c 238D     		ldrh	r3, [r4, #40]
 718 013e A06B     		ldr	r0, [r4, #56]
 719 0140 0C32     		adds	r2, r2, #12
 720 0142 9BB2     		uxth	r3, r3
 721 0144 FFF7FEFF 		bl	HAL_DMA_Start_IT
 722 0148 2368     		ldr	r3, [r4]
 723 014a 5A68     		ldr	r2, [r3, #4]
 724 014c 42F00202 		orr	r2, r2, #2
 725 0150 5A60     		str	r2, [r3, #4]
 726 0152 DA69     		ldr	r2, [r3, #28]
 727 0154 5105     		lsls	r1, r2, #21
 728 0156 0BD4     		bmi	.L151
 729 0158 4345     		cmp	r3, r8
 730 015a 18BF     		it	ne
 731 015c 4FF04026 		movne	r6, #1073758208
 732 0160 F269     		ldr	r2, [r6, #28]
 733 0162 42F48062 		orr	r2, r2, #1024
 734 0166 F261     		str	r2, [r6, #28]
 735 0168 DA69     		ldr	r2, [r3, #28]
 736 016a 42F48062 		orr	r2, r2, #1024
 737 016e DA61     		str	r2, [r3, #28]
 738              	.L151:
 739 0170 0020     		movs	r0, #0
 740 0172 C4E7     		b	.L143
 741              	.L159:
 742 0174 0220     		movs	r0, #2
 743 0176 C5E7     		b	.L144
 744              	.L177:
 745 0178 0192     		str	r2, [sp, #4]
 746 017a FA68     		ldr	r2, [r7, #12]
 747 017c 0192     		str	r2, [sp, #4]
 748 017e BA68     		ldr	r2, [r7, #8]
ARM GAS  /var/folders/lp/x54gwt890xv47sdkqj1k04q40000gn/T//ccifOm3r.s 			page 14


 749 0180 0192     		str	r2, [sp, #4]
 750 0182 019A     		ldr	r2, [sp, #4]
 751 0184 85E7     		b	.L153
 752              	.L179:
 753 0186 00BF     		.align	2
 754              	.L178:
 755 0188 00000000 		.word	I2SEx_TxRxDMAError
 756 018c 00340040 		.word	1073755136
 757 0190 00000000 		.word	I2SEx_TxRxDMAHalfCplt
 758 0194 00000000 		.word	I2SEx_TxRxDMACplt
 759 0198 00380040 		.word	1073756160
 761              		.section	.text.HAL_I2SEx_TxRxHalfCpltCallback,"ax",%progbits
 762              		.align	1
 763              		.p2align 2,,3
 764              		.weak	HAL_I2SEx_TxRxHalfCpltCallback
 765              		.syntax unified
 766              		.thumb
 767              		.thumb_func
 769              	HAL_I2SEx_TxRxHalfCpltCallback:
 770              		@ args = 0, pretend = 0, frame = 0
 771              		@ frame_needed = 0, uses_anonymous_args = 0
 772              		@ link register save eliminated.
 773 0000 7047     		bx	lr
 775 0002 00BF     		.section	.text.I2SEx_TxRxDMAHalfCplt,"ax",%progbits
 776              		.align	1
 777              		.p2align 2,,3
 778              		.syntax unified
 779              		.thumb
 780              		.thumb_func
 782              	I2SEx_TxRxDMAHalfCplt:
 783              		@ args = 0, pretend = 0, frame = 0
 784              		@ frame_needed = 0, uses_anonymous_args = 0
 785 0000 08B5     		push	{r3, lr}
 786 0002 806B     		ldr	r0, [r0, #56]
 787 0004 FFF7FEFF 		bl	HAL_I2SEx_TxRxHalfCpltCallback
 788 0008 08BD     		pop	{r3, pc}
 790 000a 00BF     		.section	.text.HAL_I2SEx_TxRxCpltCallback,"ax",%progbits
 791              		.align	1
 792              		.p2align 2,,3
 793              		.weak	HAL_I2SEx_TxRxCpltCallback
 794              		.syntax unified
 795              		.thumb
 796              		.thumb_func
 798              	HAL_I2SEx_TxRxCpltCallback:
 799              		@ args = 0, pretend = 0, frame = 0
 800              		@ frame_needed = 0, uses_anonymous_args = 0
 801              		@ link register save eliminated.
 802 0000 7047     		bx	lr
 804 0002 00BF     		.section	.text.I2SEx_TxRxDMACplt,"ax",%progbits
 805              		.align	1
 806              		.p2align 2,,3
 807              		.syntax unified
 808              		.thumb
 809              		.thumb_func
 811              	I2SEx_TxRxDMACplt:
 812              		@ args = 0, pretend = 0, frame = 0
 813              		@ frame_needed = 0, uses_anonymous_args = 0
ARM GAS  /var/folders/lp/x54gwt890xv47sdkqj1k04q40000gn/T//ccifOm3r.s 			page 15


 814 0000 C369     		ldr	r3, [r0, #28]
 815 0002 806B     		ldr	r0, [r0, #56]
 816 0004 10B5     		push	{r4, lr}
 817 0006 F3B9     		cbnz	r3, .L185
 818 0008 0368     		ldr	r3, [r0]
 819 000a DA69     		ldr	r2, [r3, #28]
 820 000c 02F44072 		and	r2, r2, #768
 821 0010 B2F5007F 		cmp	r2, #512
 822 0014 03D0     		beq	.L186
 823 0016 DA69     		ldr	r2, [r3, #28]
 824 0018 12F4407F 		tst	r2, #768
 825 001c 16D1     		bne	.L187
 826              	.L186:
 827 001e 1349     		ldr	r1, .L197
 828 0020 134A     		ldr	r2, .L197+4
 829 0022 8B42     		cmp	r3, r1
 830 0024 18BF     		it	ne
 831 0026 4FF04022 		movne	r2, #1073758208
 832 002a 5168     		ldr	r1, [r2, #4]
 833 002c 21F00101 		bic	r1, r1, #1
 834 0030 5160     		str	r1, [r2, #4]
 835 0032 5A68     		ldr	r2, [r3, #4]
 836 0034 22F00202 		bic	r2, r2, #2
 837 0038 5A60     		str	r2, [r3, #4]
 838              	.L189:
 839 003a 0023     		movs	r3, #0
 840 003c 0122     		movs	r2, #1
 841 003e 4386     		strh	r3, [r0, #50]	@ movhi
 842 0040 4385     		strh	r3, [r0, #42]	@ movhi
 843 0042 80F84120 		strb	r2, [r0, #65]
 844              	.L185:
 845 0046 FFF7FEFF 		bl	HAL_I2SEx_TxRxCpltCallback
 846 004a 10BD     		pop	{r4, pc}
 847              	.L187:
 848 004c 5968     		ldr	r1, [r3, #4]
 849 004e 074C     		ldr	r4, .L197
 850 0050 074A     		ldr	r2, .L197+4
 851 0052 21F00101 		bic	r1, r1, #1
 852 0056 A342     		cmp	r3, r4
 853 0058 18BF     		it	ne
 854 005a 4FF04022 		movne	r2, #1073758208
 855 005e 5960     		str	r1, [r3, #4]
 856 0060 5368     		ldr	r3, [r2, #4]
 857 0062 23F00203 		bic	r3, r3, #2
 858 0066 5360     		str	r3, [r2, #4]
 859 0068 E7E7     		b	.L189
 860              	.L198:
 861 006a 00BF     		.align	2
 862              	.L197:
 863 006c 00380040 		.word	1073756160
 864 0070 00340040 		.word	1073755136
 866              		.section	.text.HAL_I2SEx_FullDuplex_IRQHandler,"ax",%progbits
 867              		.align	1
 868              		.p2align 2,,3
 869              		.global	HAL_I2SEx_FullDuplex_IRQHandler
 870              		.syntax unified
 871              		.thumb
ARM GAS  /var/folders/lp/x54gwt890xv47sdkqj1k04q40000gn/T//ccifOm3r.s 			page 16


 872              		.thumb_func
 874              	HAL_I2SEx_FullDuplex_IRQHandler:
 875              		@ args = 0, pretend = 0, frame = 24
 876              		@ frame_needed = 0, uses_anonymous_args = 0
 877 0000 10B5     		push	{r4, lr}
 878 0002 0168     		ldr	r1, [r0]
 879 0004 934A     		ldr	r2, .L268
 880 0006 8B68     		ldr	r3, [r1, #8]
 881 0008 86B0     		sub	sp, sp, #24
 882 000a 0446     		mov	r4, r0
 883 000c 0093     		str	r3, [sp]
 884 000e 924B     		ldr	r3, .L268+4
 885 0010 9142     		cmp	r1, r2
 886 0012 18BF     		it	ne
 887 0014 4FF04023 		movne	r3, #1073758208
 888 0018 9A68     		ldr	r2, [r3, #8]
 889 001a 0192     		str	r2, [sp, #4]
 890 001c 4A68     		ldr	r2, [r1, #4]
 891 001e 0292     		str	r2, [sp, #8]
 892 0020 5A68     		ldr	r2, [r3, #4]
 893 0022 0392     		str	r2, [sp, #12]
 894 0024 4268     		ldr	r2, [r0, #4]
 895 0026 32F40072 		bics	r2, r2, #512
 896 002a 78D0     		beq	.L265
 897 002c 019A     		ldr	r2, [sp, #4]
 898 002e 9207     		lsls	r2, r2, #30
 899 0030 1AD5     		bpl	.L216
 900 0032 039A     		ldr	r2, [sp, #12]
 901 0034 1106     		lsls	r1, r2, #24
 902 0036 17D5     		bpl	.L216
 903 0038 426A     		ldr	r2, [r0, #36]
 904 003a 911C     		adds	r1, r2, #2
 905 003c 1288     		ldrh	r2, [r2]
 906 003e 4162     		str	r1, [r0, #36]
 907 0040 DA60     		str	r2, [r3, #12]
 908 0042 428D     		ldrh	r2, [r0, #42]
 909 0044 013A     		subs	r2, r2, #1
 910 0046 92B2     		uxth	r2, r2
 911 0048 4285     		strh	r2, [r0, #42]	@ movhi
 912 004a 428D     		ldrh	r2, [r0, #42]
 913 004c 92B2     		uxth	r2, r2
 914 004e 5AB9     		cbnz	r2, .L216
 915 0050 5A68     		ldr	r2, [r3, #4]
 916 0052 22F0A002 		bic	r2, r2, #160
 917 0056 5A60     		str	r2, [r3, #4]
 918 0058 438E     		ldrh	r3, [r0, #50]
 919 005a 9BB2     		uxth	r3, r3
 920 005c 23B9     		cbnz	r3, .L216
 921 005e 0123     		movs	r3, #1
 922 0060 80F84130 		strb	r3, [r0, #65]
 923 0064 FFF7FEFF 		bl	HAL_I2SEx_TxRxCpltCallback
 924              	.L216:
 925 0068 009B     		ldr	r3, [sp]
 926 006a DA07     		lsls	r2, r3, #31
 927 006c 1CD5     		bpl	.L219
 928 006e 029B     		ldr	r3, [sp, #8]
 929 0070 5B06     		lsls	r3, r3, #25
ARM GAS  /var/folders/lp/x54gwt890xv47sdkqj1k04q40000gn/T//ccifOm3r.s 			page 17


 930 0072 19D5     		bpl	.L219
 931 0074 E36A     		ldr	r3, [r4, #44]
 932 0076 2268     		ldr	r2, [r4]
 933 0078 981C     		adds	r0, r3, #2
 934 007a D168     		ldr	r1, [r2, #12]
 935 007c E062     		str	r0, [r4, #44]
 936 007e 1980     		strh	r1, [r3]	@ movhi
 937 0080 638E     		ldrh	r3, [r4, #50]
 938 0082 013B     		subs	r3, r3, #1
 939 0084 9BB2     		uxth	r3, r3
 940 0086 6386     		strh	r3, [r4, #50]	@ movhi
 941 0088 638E     		ldrh	r3, [r4, #50]
 942 008a 9BB2     		uxth	r3, r3
 943 008c 63B9     		cbnz	r3, .L219
 944 008e 5368     		ldr	r3, [r2, #4]
 945 0090 23F06003 		bic	r3, r3, #96
 946 0094 5360     		str	r3, [r2, #4]
 947 0096 638D     		ldrh	r3, [r4, #42]
 948 0098 9BB2     		uxth	r3, r3
 949 009a 2BB9     		cbnz	r3, .L219
 950 009c 0123     		movs	r3, #1
 951 009e 84F84130 		strb	r3, [r4, #65]
 952 00a2 2046     		mov	r0, r4
 953 00a4 FFF7FEFF 		bl	HAL_I2SEx_TxRxCpltCallback
 954              	.L219:
 955 00a8 009B     		ldr	r3, [sp]
 956 00aa 5806     		lsls	r0, r3, #25
 957 00ac 1BD5     		bpl	.L221
 958 00ae 029B     		ldr	r3, [sp, #8]
 959 00b0 9906     		lsls	r1, r3, #26
 960 00b2 18D5     		bpl	.L221
 961 00b4 2268     		ldr	r2, [r4]
 962 00b6 6748     		ldr	r0, .L268
 963 00b8 5168     		ldr	r1, [r2, #4]
 964 00ba 674B     		ldr	r3, .L268+4
 965 00bc 21F06001 		bic	r1, r1, #96
 966 00c0 8242     		cmp	r2, r0
 967 00c2 18BF     		it	ne
 968 00c4 4FF04023 		movne	r3, #1073758208
 969 00c8 5160     		str	r1, [r2, #4]
 970 00ca 5A68     		ldr	r2, [r3, #4]
 971 00cc 0121     		movs	r1, #1
 972 00ce 22F0A002 		bic	r2, r2, #160
 973 00d2 5A60     		str	r2, [r3, #4]
 974 00d4 84F84110 		strb	r1, [r4, #65]
 975 00d8 636C     		ldr	r3, [r4, #68]
 976 00da 43F00203 		orr	r3, r3, #2
 977 00de 2046     		mov	r0, r4
 978 00e0 6364     		str	r3, [r4, #68]
 979 00e2 FFF7FEFF 		bl	HAL_I2S_ErrorCallback
 980              	.L221:
 981 00e6 019B     		ldr	r3, [sp, #4]
 982 00e8 1A07     		lsls	r2, r3, #28
 983 00ea 71D5     		bpl	.L199
 984 00ec 039B     		ldr	r3, [sp, #12]
 985 00ee 9B06     		lsls	r3, r3, #26
 986 00f0 6ED5     		bpl	.L199
ARM GAS  /var/folders/lp/x54gwt890xv47sdkqj1k04q40000gn/T//ccifOm3r.s 			page 18


 987 00f2 2268     		ldr	r2, [r4]
 988 00f4 5749     		ldr	r1, .L268
 989 00f6 584B     		ldr	r3, .L268+4
 990 00f8 8A42     		cmp	r2, r1
 991 00fa 18BF     		it	ne
 992 00fc 4FF04023 		movne	r3, #1073758208
 993 0100 4FF0010C 		mov	ip, #1
 994 0104 5968     		ldr	r1, [r3, #4]
 995 0106 21F0A001 		bic	r1, r1, #160
 996 010a 5960     		str	r1, [r3, #4]
 997 010c 5368     		ldr	r3, [r2, #4]
 998 010e 23F06003 		bic	r3, r3, #96
 999 0112 5360     		str	r3, [r2, #4]
 1000 0114 84F841C0 		strb	ip, [r4, #65]
 1001 0118 636C     		ldr	r3, [r4, #68]
 1002 011a 2046     		mov	r0, r4
 1003 011c 50E0     		b	.L264
 1004              	.L265:
 1005 011e 009B     		ldr	r3, [sp]
 1006 0120 9A07     		lsls	r2, r3, #30
 1007 0122 02D5     		bpl	.L203
 1008 0124 029B     		ldr	r3, [sp, #8]
 1009 0126 1B06     		lsls	r3, r3, #24
 1010 0128 54D4     		bmi	.L266
 1011              	.L203:
 1012 012a 019B     		ldr	r3, [sp, #4]
 1013 012c D807     		lsls	r0, r3, #31
 1014 012e 02D5     		bpl	.L206
 1015 0130 039B     		ldr	r3, [sp, #12]
 1016 0132 5906     		lsls	r1, r3, #25
 1017 0134 69D4     		bmi	.L267
 1018              	.L206:
 1019 0136 019B     		ldr	r3, [sp, #4]
 1020 0138 5A06     		lsls	r2, r3, #25
 1021 013a 22D5     		bpl	.L209
 1022 013c 039B     		ldr	r3, [sp, #12]
 1023 013e 9B06     		lsls	r3, r3, #26
 1024 0140 1FD5     		bpl	.L209
 1025 0142 2368     		ldr	r3, [r4]
 1026 0144 4349     		ldr	r1, .L268
 1027 0146 444A     		ldr	r2, .L268+4
 1028 0148 8B42     		cmp	r3, r1
 1029 014a 18BF     		it	ne
 1030 014c 4FF04022 		movne	r2, #1073758208
 1031 0150 0020     		movs	r0, #0
 1032 0152 5168     		ldr	r1, [r2, #4]
 1033 0154 21F06001 		bic	r1, r1, #96
 1034 0158 5160     		str	r1, [r2, #4]
 1035 015a 5A68     		ldr	r2, [r3, #4]
 1036 015c 22F0A002 		bic	r2, r2, #160
 1037 0160 5A60     		str	r2, [r3, #4]
 1038 0162 0490     		str	r0, [sp, #16]
 1039 0164 DA68     		ldr	r2, [r3, #12]
 1040 0166 0492     		str	r2, [sp, #16]
 1041 0168 9B68     		ldr	r3, [r3, #8]
 1042 016a 0493     		str	r3, [sp, #16]
 1043 016c 0121     		movs	r1, #1
ARM GAS  /var/folders/lp/x54gwt890xv47sdkqj1k04q40000gn/T//ccifOm3r.s 			page 19


 1044 016e 049B     		ldr	r3, [sp, #16]
 1045 0170 84F84110 		strb	r1, [r4, #65]
 1046 0174 636C     		ldr	r3, [r4, #68]
 1047 0176 43F00203 		orr	r3, r3, #2
 1048 017a 2046     		mov	r0, r4
 1049 017c 6364     		str	r3, [r4, #68]
 1050 017e FFF7FEFF 		bl	HAL_I2S_ErrorCallback
 1051              	.L209:
 1052 0182 009B     		ldr	r3, [sp]
 1053 0184 1807     		lsls	r0, r3, #28
 1054 0186 23D5     		bpl	.L199
 1055 0188 029B     		ldr	r3, [sp, #8]
 1056 018a 9906     		lsls	r1, r3, #26
 1057 018c 20D5     		bpl	.L199
 1058 018e 2368     		ldr	r3, [r4]
 1059 0190 3048     		ldr	r0, .L268
 1060 0192 5968     		ldr	r1, [r3, #4]
 1061 0194 304A     		ldr	r2, .L268+4
 1062 0196 21F0A001 		bic	r1, r1, #160
 1063 019a 8342     		cmp	r3, r0
 1064 019c 18BF     		it	ne
 1065 019e 4FF04022 		movne	r2, #1073758208
 1066 01a2 5960     		str	r1, [r3, #4]
 1067 01a4 5168     		ldr	r1, [r2, #4]
 1068 01a6 0020     		movs	r0, #0
 1069 01a8 21F06001 		bic	r1, r1, #96
 1070 01ac 5160     		str	r1, [r2, #4]
 1071 01ae 0590     		str	r0, [sp, #20]
 1072 01b0 9B68     		ldr	r3, [r3, #8]
 1073 01b2 0593     		str	r3, [sp, #20]
 1074 01b4 0123     		movs	r3, #1
 1075 01b6 059A     		ldr	r2, [sp, #20]
 1076 01b8 84F84130 		strb	r3, [r4, #65]
 1077 01bc 636C     		ldr	r3, [r4, #68]
 1078 01be 2046     		mov	r0, r4
 1079              	.L264:
 1080 01c0 43F00403 		orr	r3, r3, #4
 1081 01c4 6364     		str	r3, [r4, #68]
 1082 01c6 06B0     		add	sp, sp, #24
 1083              		@ sp needed
 1084 01c8 BDE81040 		pop	{r4, lr}
 1085 01cc FFF7FEBF 		b	HAL_I2S_ErrorCallback
 1086              	.L199:
 1087 01d0 06B0     		add	sp, sp, #24
 1088              		@ sp needed
 1089 01d2 10BD     		pop	{r4, pc}
 1090              	.L266:
 1091 01d4 436A     		ldr	r3, [r0, #36]
 1092 01d6 9A1C     		adds	r2, r3, #2
 1093 01d8 1B88     		ldrh	r3, [r3]
 1094 01da 4262     		str	r2, [r0, #36]
 1095 01dc CB60     		str	r3, [r1, #12]
 1096 01de 438D     		ldrh	r3, [r0, #42]
 1097 01e0 013B     		subs	r3, r3, #1
 1098 01e2 9BB2     		uxth	r3, r3
 1099 01e4 4385     		strh	r3, [r0, #42]	@ movhi
 1100 01e6 438D     		ldrh	r3, [r0, #42]
ARM GAS  /var/folders/lp/x54gwt890xv47sdkqj1k04q40000gn/T//ccifOm3r.s 			page 20


 1101 01e8 9BB2     		uxth	r3, r3
 1102 01ea 002B     		cmp	r3, #0
 1103 01ec 9DD1     		bne	.L203
 1104 01ee 4B68     		ldr	r3, [r1, #4]
 1105 01f0 23F0A003 		bic	r3, r3, #160
 1106 01f4 4B60     		str	r3, [r1, #4]
 1107 01f6 438E     		ldrh	r3, [r0, #50]
 1108 01f8 9BB2     		uxth	r3, r3
 1109 01fa 002B     		cmp	r3, #0
 1110 01fc 95D1     		bne	.L203
 1111 01fe 0123     		movs	r3, #1
 1112 0200 80F84130 		strb	r3, [r0, #65]
 1113 0204 FFF7FEFF 		bl	HAL_I2SEx_TxRxCpltCallback
 1114 0208 8FE7     		b	.L203
 1115              	.L267:
 1116 020a 2068     		ldr	r0, [r4]
 1117 020c 1149     		ldr	r1, .L268
 1118 020e 124A     		ldr	r2, .L268+4
 1119 0210 E36A     		ldr	r3, [r4, #44]
 1120 0212 8842     		cmp	r0, r1
 1121 0214 18BF     		it	ne
 1122 0216 4FF04022 		movne	r2, #1073758208
 1123 021a 981C     		adds	r0, r3, #2
 1124 021c D168     		ldr	r1, [r2, #12]
 1125 021e E062     		str	r0, [r4, #44]
 1126 0220 1980     		strh	r1, [r3]	@ movhi
 1127 0222 638E     		ldrh	r3, [r4, #50]
 1128 0224 013B     		subs	r3, r3, #1
 1129 0226 9BB2     		uxth	r3, r3
 1130 0228 6386     		strh	r3, [r4, #50]	@ movhi
 1131 022a 638E     		ldrh	r3, [r4, #50]
 1132 022c 9BB2     		uxth	r3, r3
 1133 022e 002B     		cmp	r3, #0
 1134 0230 81D1     		bne	.L206
 1135 0232 5368     		ldr	r3, [r2, #4]
 1136 0234 23F06003 		bic	r3, r3, #96
 1137 0238 5360     		str	r3, [r2, #4]
 1138 023a 638D     		ldrh	r3, [r4, #42]
 1139 023c 9BB2     		uxth	r3, r3
 1140 023e 002B     		cmp	r3, #0
 1141 0240 7FF479AF 		bne	.L206
 1142 0244 0123     		movs	r3, #1
 1143 0246 84F84130 		strb	r3, [r4, #65]
 1144 024a 2046     		mov	r0, r4
 1145 024c FFF7FEFF 		bl	HAL_I2SEx_TxRxCpltCallback
 1146 0250 71E7     		b	.L206
 1147              	.L269:
 1148 0252 00BF     		.align	2
 1149              	.L268:
 1150 0254 00380040 		.word	1073756160
 1151 0258 00340040 		.word	1073755136
 1153              		.ident	"GCC: (xPack GNU Arm Embedded GCC arm64) 13.3.1 20240614"
ARM GAS  /var/folders/lp/x54gwt890xv47sdkqj1k04q40000gn/T//ccifOm3r.s 			page 21

