ARM GAS  /var/folders/lp/x54gwt890xv47sdkqj1k04q40000gn/T//ccRNDENg.s 			page 1


   1              		.cpu cortex-m4
   2              		.arch armv7e-m
   3              		.fpu fpv4-sp-d16
   4              		.eabi_attribute 27, 1
   5              		.eabi_attribute 28, 1
   6              		.eabi_attribute 20, 1
   7              		.eabi_attribute 21, 1
   8              		.eabi_attribute 23, 3
   9              		.eabi_attribute 24, 1
  10              		.eabi_attribute 25, 1
  11              		.eabi_attribute 26, 1
  12              		.eabi_attribute 30, 2
  13              		.eabi_attribute 34, 1
  14              		.eabi_attribute 18, 4
  15              		.file	"stm32f4xx_hal_gpio.c"
  16              		.text
  17              		.section	.text.HAL_GPIO_Init,"ax",%progbits
  18              		.align	1
  19              		.p2align 2,,3
  20              		.global	HAL_GPIO_Init
  21              		.syntax unified
  22              		.thumb
  23              		.thumb_func
  25              	HAL_GPIO_Init:
  26              		@ args = 0, pretend = 0, frame = 16
  27              		@ frame_needed = 0, uses_anonymous_args = 0
  28 0000 2DE9F04F 		push	{r4, r5, r6, r7, r8, r9, r10, fp, lr}
  29 0004 0023     		movs	r3, #0
  30 0006 0C68     		ldr	r4, [r1]
  31 0008 DFF814A2 		ldr	r10, .L43+12
  32 000c 85B0     		sub	sp, sp, #20
  33 000e 4FF0010B 		mov	fp, #1
  34 0012 8946     		mov	r9, r1
  35 0014 03E0     		b	.L26
  36              	.L3:
  37 0016 0133     		adds	r3, r3, #1
  38 0018 102B     		cmp	r3, #16
  39 001a 00F09280 		beq	.L34
  40              	.L26:
  41 001e 0BFA03F2 		lsl	r2, fp, r3
  42 0022 02EA0408 		and	r8, r2, r4
  43 0026 A243     		bics	r2, r2, r4
  44 0028 F5D1     		bne	.L3
  45 002a D9F80410 		ldr	r1, [r9, #4]
  46 002e 01F0030C 		and	ip, r1, #3
  47 0032 5A00     		lsls	r2, r3, #1
  48 0034 0325     		movs	r5, #3
  49 0036 0CF1FF36 		add	r6, ip, #-1
  50 003a 9540     		lsls	r5, r5, r2
  51 003c 012E     		cmp	r6, #1
  52 003e 6FEA0505 		mvn	r5, r5
  53 0042 40F28180 		bls	.L35
  54 0046 BCF1030F 		cmp	ip, #3
  55 004a 40F0D980 		bne	.L36
  56              	.L6:
  57 004e 0668     		ldr	r6, [r0]
  58 0050 0CFA02F2 		lsl	r2, ip, r2
ARM GAS  /var/folders/lp/x54gwt890xv47sdkqj1k04q40000gn/T//ccRNDENg.s 			page 2


  59 0054 3540     		ands	r5, r5, r6
  60 0056 2A43     		orrs	r2, r2, r5
  61 0058 11F4403F 		tst	r1, #196608
  62 005c 0260     		str	r2, [r0]
  63 005e DAD0     		beq	.L3
  64 0060 0022     		movs	r2, #0
  65 0062 0392     		str	r2, [sp, #12]
  66 0064 DAF84420 		ldr	r2, [r10, #68]
  67 0068 42F48042 		orr	r2, r2, #16384
  68 006c CAF84420 		str	r2, [r10, #68]
  69 0070 DAF84420 		ldr	r2, [r10, #68]
  70 0074 02F48042 		and	r2, r2, #16384
  71 0078 0392     		str	r2, [sp, #12]
  72 007a 039A     		ldr	r2, [sp, #12]
  73 007c 23F00302 		bic	r2, r3, #3
  74 0080 02F18042 		add	r2, r2, #1073741824
  75 0084 03F00306 		and	r6, r3, #3
  76 0088 0F27     		movs	r7, #15
  77 008a 02F59C32 		add	r2, r2, #79872
  78 008e B600     		lsls	r6, r6, #2
  79 0090 07FA06FC 		lsl	ip, r7, r6
  80 0094 5F4F     		ldr	r7, .L43
  81 0096 9568     		ldr	r5, [r2, #8]
  82 0098 B842     		cmp	r0, r7
  83 009a 25EA0C05 		bic	r5, r5, ip
  84 009e 27D0     		beq	.L10
  85 00a0 07F58067 		add	r7, r7, #1024
  86 00a4 B842     		cmp	r0, r7
  87 00a6 00F08780 		beq	.L37
  88 00aa 5B4F     		ldr	r7, .L43+4
  89 00ac B842     		cmp	r0, r7
  90 00ae 00F08980 		beq	.L38
  91 00b2 DFF870C1 		ldr	ip, .L43+16
  92 00b6 6045     		cmp	r0, ip
  93 00b8 00F08A80 		beq	.L39
  94 00bc DFF868C1 		ldr	ip, .L43+20
  95 00c0 6045     		cmp	r0, ip
  96 00c2 00F08B80 		beq	.L40
  97 00c6 DFF864C1 		ldr	ip, .L43+24
  98 00ca 6045     		cmp	r0, ip
  99 00cc 00F08C80 		beq	.L41
 100 00d0 DFF85CC1 		ldr	ip, .L43+28
 101 00d4 6045     		cmp	r0, ip
 102 00d6 00F08D80 		beq	.L42
 103 00da DFF858C1 		ldr	ip, .L43+32
 104 00de 6045     		cmp	r0, ip
 105 00e0 0CBF     		ite	eq
 106 00e2 4FF0070C 		moveq	ip, #7
 107 00e6 4FF0080C 		movne	ip, #8
 108 00ea 0CFA06F6 		lsl	r6, ip, r6
 109 00ee 3543     		orrs	r5, r5, r6
 110              	.L10:
 111 00f0 9560     		str	r5, [r2, #8]
 112 00f2 4A4A     		ldr	r2, .L43+8
 113 00f4 9268     		ldr	r2, [r2, #8]
 114 00f6 CE02     		lsls	r6, r1, #11
 115 00f8 6FEA0805 		mvn	r5, r8
ARM GAS  /var/folders/lp/x54gwt890xv47sdkqj1k04q40000gn/T//ccRNDENg.s 			page 3


 116 00fc 474E     		ldr	r6, .L43+8
 117 00fe 54BF     		ite	pl
 118 0100 2A40     		andpl	r2, r2, r5
 119 0102 48EA0202 		orrmi	r2, r8, r2
 120 0106 B260     		str	r2, [r6, #8]
 121 0108 F268     		ldr	r2, [r6, #12]
 122 010a 444E     		ldr	r6, .L43+8
 123 010c 8F02     		lsls	r7, r1, #10
 124 010e 54BF     		ite	pl
 125 0110 2A40     		andpl	r2, r2, r5
 126 0112 48EA0202 		orrmi	r2, r8, r2
 127 0116 F260     		str	r2, [r6, #12]
 128 0118 7268     		ldr	r2, [r6, #4]
 129 011a 8E03     		lsls	r6, r1, #14
 130 011c 3F4E     		ldr	r6, .L43+8
 131 011e 54BF     		ite	pl
 132 0120 2A40     		andpl	r2, r2, r5
 133 0122 48EA0202 		orrmi	r2, r8, r2
 134 0126 7260     		str	r2, [r6, #4]
 135 0128 3268     		ldr	r2, [r6]
 136 012a C903     		lsls	r1, r1, #15
 137 012c 03F10103 		add	r3, r3, #1
 138 0130 3A49     		ldr	r1, .L43+8
 139 0132 54BF     		ite	pl
 140 0134 2A40     		andpl	r2, r2, r5
 141 0136 48EA0202 		orrmi	r2, r8, r2
 142 013a 102B     		cmp	r3, #16
 143 013c 0A60     		str	r2, [r1]
 144 013e 7FF46EAF 		bne	.L26
 145              	.L34:
 146 0142 05B0     		add	sp, sp, #20
 147              		@ sp needed
 148 0144 BDE8F08F 		pop	{r4, r5, r6, r7, r8, r9, r10, fp, pc}
 149              	.L35:
 150 0148 8668     		ldr	r6, [r0, #8]
 151 014a 06EA050E 		and	lr, r6, r5
 152 014e D9F80C60 		ldr	r6, [r9, #12]
 153 0152 9640     		lsls	r6, r6, r2
 154 0154 46EA0E06 		orr	r6, r6, lr
 155 0158 8660     		str	r6, [r0, #8]
 156 015a 4668     		ldr	r6, [r0, #4]
 157 015c 26EA080E 		bic	lr, r6, r8
 158 0160 C1F30016 		ubfx	r6, r1, #4, #1
 159 0164 9E40     		lsls	r6, r6, r3
 160 0166 46EA0E06 		orr	r6, r6, lr
 161 016a 4660     		str	r6, [r0, #4]
 162 016c C668     		ldr	r6, [r0, #12]
 163 016e 06EA050E 		and	lr, r6, r5
 164 0172 D9F80860 		ldr	r6, [r9, #8]
 165 0176 9640     		lsls	r6, r6, r2
 166 0178 46EA0E06 		orr	r6, r6, lr
 167 017c BCF1020F 		cmp	ip, #2
 168 0180 C660     		str	r6, [r0, #12]
 169 0182 7FF464AF 		bne	.L6
 170 0186 DE08     		lsrs	r6, r3, #3
 171 0188 00EB8606 		add	r6, r0, r6, lsl #2
 172 018c 0196     		str	r6, [sp, #4]
ARM GAS  /var/folders/lp/x54gwt890xv47sdkqj1k04q40000gn/T//ccRNDENg.s 			page 4


 173 018e 376A     		ldr	r7, [r6, #32]
 174 0190 D9F81060 		ldr	r6, [r9, #16]
 175 0194 0097     		str	r7, [sp]
 176 0196 03F0070E 		and	lr, r3, #7
 177 019a 4FEA8E0E 		lsl	lr, lr, #2
 178 019e 0F27     		movs	r7, #15
 179 01a0 06FA0EF6 		lsl	r6, r6, lr
 180 01a4 07FA0EFE 		lsl	lr, r7, lr
 181 01a8 009F     		ldr	r7, [sp]
 182 01aa 27EA0E0E 		bic	lr, r7, lr
 183 01ae 019F     		ldr	r7, [sp, #4]
 184 01b0 46EA0E06 		orr	r6, r6, lr
 185 01b4 3E62     		str	r6, [r7, #32]
 186 01b6 4AE7     		b	.L6
 187              	.L37:
 188 01b8 4FF0010C 		mov	ip, #1
 189 01bc 0CFA06F6 		lsl	r6, ip, r6
 190 01c0 3543     		orrs	r5, r5, r6
 191 01c2 95E7     		b	.L10
 192              	.L38:
 193 01c4 4FF0020C 		mov	ip, #2
 194 01c8 0CFA06F6 		lsl	r6, ip, r6
 195 01cc 3543     		orrs	r5, r5, r6
 196 01ce 8FE7     		b	.L10
 197              	.L39:
 198 01d0 4FF0030C 		mov	ip, #3
 199 01d4 0CFA06F6 		lsl	r6, ip, r6
 200 01d8 3543     		orrs	r5, r5, r6
 201 01da 89E7     		b	.L10
 202              	.L40:
 203 01dc 4FF0040C 		mov	ip, #4
 204 01e0 0CFA06F6 		lsl	r6, ip, r6
 205 01e4 3543     		orrs	r5, r5, r6
 206 01e6 83E7     		b	.L10
 207              	.L41:
 208 01e8 4FF0050C 		mov	ip, #5
 209 01ec 0CFA06F6 		lsl	r6, ip, r6
 210 01f0 3543     		orrs	r5, r5, r6
 211 01f2 7DE7     		b	.L10
 212              	.L42:
 213 01f4 4FF0060C 		mov	ip, #6
 214 01f8 0CFA06F6 		lsl	r6, ip, r6
 215 01fc 3543     		orrs	r5, r5, r6
 216 01fe 77E7     		b	.L10
 217              	.L36:
 218 0200 C668     		ldr	r6, [r0, #12]
 219 0202 06EA050E 		and	lr, r6, r5
 220 0206 D9F80860 		ldr	r6, [r9, #8]
 221 020a 9640     		lsls	r6, r6, r2
 222 020c 46EA0E06 		orr	r6, r6, lr
 223 0210 C660     		str	r6, [r0, #12]
 224 0212 1CE7     		b	.L6
 225              	.L44:
 226              		.align	2
 227              	.L43:
 228 0214 00000240 		.word	1073872896
 229 0218 00080240 		.word	1073874944
ARM GAS  /var/folders/lp/x54gwt890xv47sdkqj1k04q40000gn/T//ccRNDENg.s 			page 5


 230 021c 003C0140 		.word	1073822720
 231 0220 00380240 		.word	1073887232
 232 0224 000C0240 		.word	1073875968
 233 0228 00100240 		.word	1073876992
 234 022c 00140240 		.word	1073878016
 235 0230 00180240 		.word	1073879040
 236 0234 001C0240 		.word	1073880064
 238              		.section	.text.HAL_GPIO_DeInit,"ax",%progbits
 239              		.align	1
 240              		.p2align 2,,3
 241              		.global	HAL_GPIO_DeInit
 242              		.syntax unified
 243              		.thumb
 244              		.thumb_func
 246              	HAL_GPIO_DeInit:
 247              		@ args = 0, pretend = 0, frame = 8
 248              		@ frame_needed = 0, uses_anonymous_args = 0
 249 0000 2DE9F04F 		push	{r4, r5, r6, r7, r8, r9, r10, fp, lr}
 250 0004 0023     		movs	r3, #0
 251 0006 534F     		ldr	r7, .L67
 252 0008 83B0     		sub	sp, sp, #12
 253 000a 0126     		movs	r6, #1
 254 000c 4FF00F09 		mov	r9, #15
 255 0010 4FF0030A 		mov	r10, #3
 256 0014 02E0     		b	.L56
 257              	.L46:
 258 0016 0133     		adds	r3, r3, #1
 259 0018 102B     		cmp	r3, #16
 260 001a 76D0     		beq	.L60
 261              	.L56:
 262 001c 06FA03F2 		lsl	r2, r6, r3
 263 0020 32EA0104 		bics	r4, r2, r1
 264 0024 02EA010C 		and	ip, r2, r1
 265 0028 F5D1     		bne	.L46
 266 002a 23F00305 		bic	r5, r3, #3
 267 002e 05F18045 		add	r5, r5, #1073741824
 268 0032 03F00304 		and	r4, r3, #3
 269 0036 A400     		lsls	r4, r4, #2
 270 0038 05F59C35 		add	r5, r5, #79872
 271 003c 09FA04F8 		lsl	r8, r9, r4
 272 0040 0194     		str	r4, [sp, #4]
 273 0042 454C     		ldr	r4, .L67+4
 274 0044 D5F808E0 		ldr	lr, [r5, #8]
 275 0048 A042     		cmp	r0, r4
 276 004a 08EA0E0E 		and	lr, r8, lr
 277 004e 20D0     		beq	.L57
 278 0050 04F58064 		add	r4, r4, #1024
 279 0054 A042     		cmp	r0, r4
 280 0056 5BD0     		beq	.L61
 281 0058 404C     		ldr	r4, .L67+8
 282 005a A042     		cmp	r0, r4
 283 005c 5CD0     		beq	.L62
 284 005e 404C     		ldr	r4, .L67+12
 285 0060 A042     		cmp	r0, r4
 286 0062 5FD0     		beq	.L63
 287 0064 3F4C     		ldr	r4, .L67+16
 288 0066 A042     		cmp	r0, r4
ARM GAS  /var/folders/lp/x54gwt890xv47sdkqj1k04q40000gn/T//ccRNDENg.s 			page 6


 289 0068 62D0     		beq	.L64
 290 006a DFF8FCB0 		ldr	fp, .L67+20
 291 006e 5845     		cmp	r0, fp
 292 0070 64D0     		beq	.L65
 293 0072 DFF8F8B0 		ldr	fp, .L67+24
 294 0076 5845     		cmp	r0, fp
 295 0078 66D0     		beq	.L66
 296 007a DFF8F4B0 		ldr	fp, .L67+28
 297 007e 019C     		ldr	r4, [sp, #4]
 298 0080 5845     		cmp	r0, fp
 299 0082 0CBF     		ite	eq
 300 0084 4FF0070B 		moveq	fp, #7
 301 0088 4FF0080B 		movne	fp, #8
 302 008c 0BFA04F4 		lsl	r4, fp, r4
 303 0090 00E0     		b	.L47
 304              	.L57:
 305 0092 0024     		movs	r4, #0
 306              	.L47:
 307 0094 A645     		cmp	lr, r4
 308 0096 13D1     		bne	.L55
 309 0098 3C68     		ldr	r4, [r7]
 310 009a 24EA0C04 		bic	r4, r4, ip
 311 009e 3C60     		str	r4, [r7]
 312 00a0 7C68     		ldr	r4, [r7, #4]
 313 00a2 24EA0C04 		bic	r4, r4, ip
 314 00a6 7C60     		str	r4, [r7, #4]
 315 00a8 FC68     		ldr	r4, [r7, #12]
 316 00aa 24EA0C04 		bic	r4, r4, ip
 317 00ae FC60     		str	r4, [r7, #12]
 318 00b0 BC68     		ldr	r4, [r7, #8]
 319 00b2 24EA0C04 		bic	r4, r4, ip
 320 00b6 BC60     		str	r4, [r7, #8]
 321 00b8 AC68     		ldr	r4, [r5, #8]
 322 00ba 24EA0804 		bic	r4, r4, r8
 323 00be AC60     		str	r4, [r5, #8]
 324              	.L55:
 325 00c0 0468     		ldr	r4, [r0]
 326 00c2 5D00     		lsls	r5, r3, #1
 327 00c4 0AFA05F5 		lsl	r5, r10, r5
 328 00c8 4FEAD30C 		lsr	ip, r3, #3
 329 00cc 24EA0504 		bic	r4, r4, r5
 330 00d0 00EB8C0C 		add	ip, r0, ip, lsl #2
 331 00d4 0460     		str	r4, [r0]
 332 00d6 03F00704 		and	r4, r3, #7
 333 00da DCF820E0 		ldr	lr, [ip, #32]
 334 00de A400     		lsls	r4, r4, #2
 335 00e0 09FA04F4 		lsl	r4, r9, r4
 336 00e4 2EEA0404 		bic	r4, lr, r4
 337 00e8 CCF82040 		str	r4, [ip, #32]
 338 00ec C468     		ldr	r4, [r0, #12]
 339 00ee 24EA0504 		bic	r4, r4, r5
 340 00f2 C460     		str	r4, [r0, #12]
 341 00f4 4468     		ldr	r4, [r0, #4]
 342 00f6 24EA0202 		bic	r2, r4, r2
 343 00fa 4260     		str	r2, [r0, #4]
 344 00fc 8268     		ldr	r2, [r0, #8]
 345 00fe 0133     		adds	r3, r3, #1
ARM GAS  /var/folders/lp/x54gwt890xv47sdkqj1k04q40000gn/T//ccRNDENg.s 			page 7


 346 0100 22EA0502 		bic	r2, r2, r5
 347 0104 102B     		cmp	r3, #16
 348 0106 8260     		str	r2, [r0, #8]
 349 0108 88D1     		bne	.L56
 350              	.L60:
 351 010a 03B0     		add	sp, sp, #12
 352              		@ sp needed
 353 010c BDE8F08F 		pop	{r4, r5, r6, r7, r8, r9, r10, fp, pc}
 354              	.L61:
 355 0110 019C     		ldr	r4, [sp, #4]
 356 0112 06FA04F4 		lsl	r4, r6, r4
 357 0116 BDE7     		b	.L47
 358              	.L62:
 359 0118 019C     		ldr	r4, [sp, #4]
 360 011a 4FF0020B 		mov	fp, #2
 361 011e 0BFA04F4 		lsl	r4, fp, r4
 362 0122 B7E7     		b	.L47
 363              	.L63:
 364 0124 019C     		ldr	r4, [sp, #4]
 365 0126 4FF0030B 		mov	fp, #3
 366 012a 0BFA04F4 		lsl	r4, fp, r4
 367 012e B1E7     		b	.L47
 368              	.L64:
 369 0130 019C     		ldr	r4, [sp, #4]
 370 0132 4FF0040B 		mov	fp, #4
 371 0136 0BFA04F4 		lsl	r4, fp, r4
 372 013a ABE7     		b	.L47
 373              	.L65:
 374 013c 019C     		ldr	r4, [sp, #4]
 375 013e 4FF0050B 		mov	fp, #5
 376 0142 0BFA04F4 		lsl	r4, fp, r4
 377 0146 A5E7     		b	.L47
 378              	.L66:
 379 0148 019C     		ldr	r4, [sp, #4]
 380 014a 4FF0060B 		mov	fp, #6
 381 014e 0BFA04F4 		lsl	r4, fp, r4
 382 0152 9FE7     		b	.L47
 383              	.L68:
 384              		.align	2
 385              	.L67:
 386 0154 003C0140 		.word	1073822720
 387 0158 00000240 		.word	1073872896
 388 015c 00080240 		.word	1073874944
 389 0160 000C0240 		.word	1073875968
 390 0164 00100240 		.word	1073876992
 391 0168 00140240 		.word	1073878016
 392 016c 00180240 		.word	1073879040
 393 0170 001C0240 		.word	1073880064
 395              		.section	.text.HAL_GPIO_ReadPin,"ax",%progbits
 396              		.align	1
 397              		.p2align 2,,3
 398              		.global	HAL_GPIO_ReadPin
 399              		.syntax unified
 400              		.thumb
 401              		.thumb_func
 403              	HAL_GPIO_ReadPin:
 404              		@ args = 0, pretend = 0, frame = 0
ARM GAS  /var/folders/lp/x54gwt890xv47sdkqj1k04q40000gn/T//ccRNDENg.s 			page 8


 405              		@ frame_needed = 0, uses_anonymous_args = 0
 406              		@ link register save eliminated.
 407 0000 0369     		ldr	r3, [r0, #16]
 408 0002 1942     		tst	r1, r3
 409 0004 14BF     		ite	ne
 410 0006 0120     		movne	r0, #1
 411 0008 0020     		moveq	r0, #0
 412 000a 7047     		bx	lr
 414              		.section	.text.HAL_GPIO_WritePin,"ax",%progbits
 415              		.align	1
 416              		.p2align 2,,3
 417              		.global	HAL_GPIO_WritePin
 418              		.syntax unified
 419              		.thumb
 420              		.thumb_func
 422              	HAL_GPIO_WritePin:
 423              		@ args = 0, pretend = 0, frame = 0
 424              		@ frame_needed = 0, uses_anonymous_args = 0
 425              		@ link register save eliminated.
 426 0000 02B9     		cbnz	r2, .L73
 427 0002 0904     		lsls	r1, r1, #16
 428              	.L73:
 429 0004 8161     		str	r1, [r0, #24]
 430 0006 7047     		bx	lr
 432              		.section	.text.HAL_GPIO_TogglePin,"ax",%progbits
 433              		.align	1
 434              		.p2align 2,,3
 435              		.global	HAL_GPIO_TogglePin
 436              		.syntax unified
 437              		.thumb
 438              		.thumb_func
 440              	HAL_GPIO_TogglePin:
 441              		@ args = 0, pretend = 0, frame = 0
 442              		@ frame_needed = 0, uses_anonymous_args = 0
 443              		@ link register save eliminated.
 444 0000 4369     		ldr	r3, [r0, #20]
 445 0002 01EA0302 		and	r2, r1, r3
 446 0006 21EA0301 		bic	r1, r1, r3
 447 000a 41EA0241 		orr	r1, r1, r2, lsl #16
 448 000e 8161     		str	r1, [r0, #24]
 449 0010 7047     		bx	lr
 451 0012 00BF     		.section	.text.HAL_GPIO_LockPin,"ax",%progbits
 452              		.align	1
 453              		.p2align 2,,3
 454              		.global	HAL_GPIO_LockPin
 455              		.syntax unified
 456              		.thumb
 457              		.thumb_func
 459              	HAL_GPIO_LockPin:
 460              		@ args = 0, pretend = 0, frame = 8
 461              		@ frame_needed = 0, uses_anonymous_args = 0
 462              		@ link register save eliminated.
 463 0000 82B0     		sub	sp, sp, #8
 464 0002 4FF48033 		mov	r3, #65536
 465 0006 0193     		str	r3, [sp, #4]
 466 0008 019B     		ldr	r3, [sp, #4]
 467 000a 0B43     		orrs	r3, r3, r1
ARM GAS  /var/folders/lp/x54gwt890xv47sdkqj1k04q40000gn/T//ccRNDENg.s 			page 9


 468 000c 0193     		str	r3, [sp, #4]
 469 000e 019B     		ldr	r3, [sp, #4]
 470 0010 C361     		str	r3, [r0, #28]
 471 0012 C161     		str	r1, [r0, #28]
 472 0014 019B     		ldr	r3, [sp, #4]
 473 0016 C361     		str	r3, [r0, #28]
 474 0018 C369     		ldr	r3, [r0, #28]
 475 001a 0193     		str	r3, [sp, #4]
 476 001c C069     		ldr	r0, [r0, #28]
 477 001e 80F48030 		eor	r0, r0, #65536
 478 0022 C0F30040 		ubfx	r0, r0, #16, #1
 479 0026 02B0     		add	sp, sp, #8
 480              		@ sp needed
 481 0028 7047     		bx	lr
 483 002a 00BF     		.section	.text.HAL_GPIO_EXTI_Callback,"ax",%progbits
 484              		.align	1
 485              		.p2align 2,,3
 486              		.weak	HAL_GPIO_EXTI_Callback
 487              		.syntax unified
 488              		.thumb
 489              		.thumb_func
 491              	HAL_GPIO_EXTI_Callback:
 492              		@ args = 0, pretend = 0, frame = 0
 493              		@ frame_needed = 0, uses_anonymous_args = 0
 494              		@ link register save eliminated.
 495 0000 7047     		bx	lr
 497 0002 00BF     		.section	.text.HAL_GPIO_EXTI_IRQHandler,"ax",%progbits
 498              		.align	1
 499              		.p2align 2,,3
 500              		.global	HAL_GPIO_EXTI_IRQHandler
 501              		.syntax unified
 502              		.thumb
 503              		.thumb_func
 505              	HAL_GPIO_EXTI_IRQHandler:
 506              		@ args = 0, pretend = 0, frame = 0
 507              		@ frame_needed = 0, uses_anonymous_args = 0
 508 0000 044A     		ldr	r2, .L88
 509 0002 5169     		ldr	r1, [r2, #20]
 510 0004 0142     		tst	r1, r0
 511 0006 00D1     		bne	.L87
 512 0008 7047     		bx	lr
 513              	.L87:
 514 000a 08B5     		push	{r3, lr}
 515 000c 5061     		str	r0, [r2, #20]
 516 000e FFF7FEFF 		bl	HAL_GPIO_EXTI_Callback
 517 0012 08BD     		pop	{r3, pc}
 518              	.L89:
 519              		.align	2
 520              	.L88:
 521 0014 003C0140 		.word	1073822720
 523              		.ident	"GCC: (xPack GNU Arm Embedded GCC arm64) 13.3.1 20240614"
ARM GAS  /var/folders/lp/x54gwt890xv47sdkqj1k04q40000gn/T//ccRNDENg.s 			page 10

