ARM GAS  /var/folders/lp/x54gwt890xv47sdkqj1k04q40000gn/T//ccO3X8Y1.s 			page 1


   1              		.cpu cortex-m4
   2              		.arch armv7e-m
   3              		.fpu fpv4-sp-d16
   4              		.eabi_attribute 27, 1
   5              		.eabi_attribute 28, 1
   6              		.eabi_attribute 20, 1
   7              		.eabi_attribute 21, 1
   8              		.eabi_attribute 23, 3
   9              		.eabi_attribute 24, 1
  10              		.eabi_attribute 25, 1
  11              		.eabi_attribute 26, 1
  12              		.eabi_attribute 30, 2
  13              		.eabi_attribute 34, 1
  14              		.eabi_attribute 18, 4
  15              		.file	"stm32f4xx_hal_i2s.c"
  16              		.text
  17              		.section	.text.HAL_I2S_MspInit,"ax",%progbits
  18              		.align	1
  19              		.p2align 2,,3
  20              		.weak	HAL_I2S_MspInit
  21              		.syntax unified
  22              		.thumb
  23              		.thumb_func
  25              	HAL_I2S_MspInit:
  26              		@ args = 0, pretend = 0, frame = 0
  27              		@ frame_needed = 0, uses_anonymous_args = 0
  28              		@ link register save eliminated.
  29 0000 7047     		bx	lr
  31 0002 00BF     		.section	.text.HAL_I2S_Init,"ax",%progbits
  32              		.align	1
  33              		.p2align 2,,3
  34              		.global	HAL_I2S_Init
  35              		.syntax unified
  36              		.thumb
  37              		.thumb_func
  39              	HAL_I2S_Init:
  40              		@ args = 0, pretend = 0, frame = 0
  41              		@ frame_needed = 0, uses_anonymous_args = 0
  42 0000 0028     		cmp	r0, #0
  43 0002 00F09980 		beq	.L25
  44 0006 F8B5     		push	{r3, r4, r5, r6, r7, lr}
  45 0008 90F84130 		ldrb	r3, [r0, #65]	@ zero_extendqisi2
  46 000c 0446     		mov	r4, r0
  47 000e 03F0FF02 		and	r2, r3, #255
  48 0012 002B     		cmp	r3, #0
  49 0014 75D0     		beq	.L29
  50              	.L5:
  51 0016 2168     		ldr	r1, [r4]
  52 0018 6069     		ldr	r0, [r4, #20]
  53 001a E568     		ldr	r5, [r4, #12]
  54 001c 0222     		movs	r2, #2
  55 001e 84F84120 		strb	r2, [r4, #65]
  56 0022 CB69     		ldr	r3, [r1, #28]
  57 0024 23F47B63 		bic	r3, r3, #4016
  58 0028 23F00F03 		bic	r3, r3, #15
  59 002c 9042     		cmp	r0, r2
  60 002e CB61     		str	r3, [r1, #28]
ARM GAS  /var/folders/lp/x54gwt890xv47sdkqj1k04q40000gn/T//ccO3X8Y1.s 			page 2


  61 0030 0A62     		str	r2, [r1, #32]
  62 0032 26D0     		beq	.L6
  63 0034 A368     		ldr	r3, [r4, #8]
  64 0036 002D     		cmp	r5, #0
  65 0038 14BF     		ite	ne
  66 003a 2026     		movne	r6, #32
  67 003c 1026     		moveq	r6, #16
  68 003e 0120     		movs	r0, #1
  69 0040 202B     		cmp	r3, #32
  70 0042 98BF     		it	ls
  71 0044 7600     		lslls	r6, r6, #1
  72 0046 FFF7FEFF 		bl	HAL_RCCEx_GetPeriphCLKFreq
  73 004a 2269     		ldr	r2, [r4, #16]
  74 004c B2F5007F 		cmp	r2, #512
  75 0050 5ED0     		beq	.L30
  76 0052 B0FBF6F0 		udiv	r0, r0, r6
  77 0056 00EB8000 		add	r0, r0, r0, lsl #2
  78 005a 6169     		ldr	r1, [r4, #20]
  79 005c 4300     		lsls	r3, r0, #1
  80 005e B3FBF1F3 		udiv	r3, r3, r1
  81 0062 0533     		adds	r3, r3, #5
  82              	.L11:
  83 0064 3549     		ldr	r1, .L32
  84 0066 A1FB0313 		umull	r1, r3, r1, r3
  85 006a 1809     		lsrs	r0, r3, #4
  86 006c 811E     		subs	r1, r0, #2
  87 006e FD29     		cmp	r1, #253
  88 0070 C3F3C003 		ubfx	r3, r3, #3, #1
  89 0074 59D9     		bls	.L31
  90 0076 636C     		ldr	r3, [r4, #68]
  91 0078 43F01003 		orr	r3, r3, #16
  92 007c 6364     		str	r3, [r4, #68]
  93 007e 0120     		movs	r0, #1
  94 0080 F8BD     		pop	{r3, r4, r5, r6, r7, pc}
  95              	.L6:
  96 0082 2269     		ldr	r2, [r4, #16]
  97              	.L13:
  98 0084 DFF8C8C0 		ldr	ip, .L32+20
  99 0088 A769     		ldr	r7, [r4, #24]
 100 008a 0243     		orrs	r2, r2, r0
 101 008c 0A62     		str	r2, [r1, #32]
 102 008e D4E90120 		ldrd	r2, r0, [r4, #4]
 103 0092 CB69     		ldr	r3, [r1, #28]
 104 0094 42EA0006 		orr	r6, r2, r0
 105 0098 03EA0C03 		and	r3, r3, ip
 106 009c 3343     		orrs	r3, r3, r6
 107 009e 2B43     		orrs	r3, r3, r5
 108 00a0 3B43     		orrs	r3, r3, r7
 109 00a2 43F40063 		orr	r3, r3, #2048
 110 00a6 CB61     		str	r3, [r1, #28]
 111 00a8 236A     		ldr	r3, [r4, #32]
 112 00aa 012B     		cmp	r3, #1
 113 00ac 23D1     		bne	.L15
 114 00ae 244B     		ldr	r3, .L32+4
 115 00b0 244E     		ldr	r6, .L32+8
 116 00b2 9942     		cmp	r1, r3
 117 00b4 18BF     		it	ne
ARM GAS  /var/folders/lp/x54gwt890xv47sdkqj1k04q40000gn/T//ccO3X8Y1.s 			page 3


 118 00b6 4FF04026 		movne	r6, #1073758208
 119 00ba 234B     		ldr	r3, .L32+12
 120 00bc 6363     		str	r3, [r4, #52]
 121 00be F369     		ldr	r3, [r6, #28]
 122 00c0 B2F5007F 		cmp	r2, #512
 123 00c4 03EA0C03 		and	r3, r3, ip
 124 00c8 F361     		str	r3, [r6, #28]
 125 00ca 18BF     		it	ne
 126 00cc B2FA82F2 		clzne	r2, r2
 127 00d0 4FF00203 		mov	r3, #2
 128 00d4 3362     		str	r3, [r6, #32]
 129 00d6 18BF     		it	ne
 130 00d8 5209     		lsrne	r2, r2, #5
 131 00da F369     		ldr	r3, [r6, #28]
 132 00dc 14BF     		ite	ne
 133 00de 1202     		lslne	r2, r2, #8
 134 00e0 4FF48072 		moveq	r2, #256
 135 00e4 2843     		orrs	r0, r0, r5
 136 00e6 0243     		orrs	r2, r2, r0
 137 00e8 9BB2     		uxth	r3, r3
 138 00ea 3A43     		orrs	r2, r2, r7
 139 00ec 1343     		orrs	r3, r3, r2
 140 00ee 9BB2     		uxth	r3, r3
 141 00f0 43F40063 		orr	r3, r3, #2048
 142 00f4 F361     		str	r3, [r6, #28]
 143              	.L15:
 144 00f6 0020     		movs	r0, #0
 145 00f8 0123     		movs	r3, #1
 146 00fa 6064     		str	r0, [r4, #68]
 147 00fc 84F84130 		strb	r3, [r4, #65]
 148 0100 F8BD     		pop	{r3, r4, r5, r6, r7, pc}
 149              	.L29:
 150 0102 124B     		ldr	r3, .L32+16
 151 0104 80F84020 		strb	r2, [r0, #64]
 152 0108 4363     		str	r3, [r0, #52]
 153 010a FFF7FEFF 		bl	HAL_I2S_MspInit
 154 010e 82E7     		b	.L5
 155              	.L30:
 156 0110 E568     		ldr	r5, [r4, #12]
 157 0112 6169     		ldr	r1, [r4, #20]
 158 0114 75B1     		cbz	r5, .L10
 159 0116 B600     		lsls	r6, r6, #2
 160              	.L28:
 161 0118 B0FBF6F0 		udiv	r0, r0, r6
 162 011c 00EB8000 		add	r0, r0, r0, lsl #2
 163 0120 4300     		lsls	r3, r0, #1
 164 0122 B3FBF1F3 		udiv	r3, r3, r1
 165 0126 0533     		adds	r3, r3, #5
 166 0128 9CE7     		b	.L11
 167              	.L31:
 168 012a 2168     		ldr	r1, [r4]
 169 012c E568     		ldr	r5, [r4, #12]
 170 012e 40EA0320 		orr	r0, r0, r3, lsl #8
 171 0132 A7E7     		b	.L13
 172              	.L10:
 173 0134 F600     		lsls	r6, r6, #3
 174 0136 EFE7     		b	.L28
ARM GAS  /var/folders/lp/x54gwt890xv47sdkqj1k04q40000gn/T//ccO3X8Y1.s 			page 4


 175              	.L25:
 176 0138 0120     		movs	r0, #1
 177 013a 7047     		bx	lr
 178              	.L33:
 179              		.align	2
 180              	.L32:
 181 013c CDCCCCCC 		.word	-858993459
 182 0140 00380040 		.word	1073756160
 183 0144 00340040 		.word	1073755136
 184 0148 00000000 		.word	HAL_I2SEx_FullDuplex_IRQHandler
 185 014c 00000000 		.word	I2S_IRQHandler
 186 0150 40F0FFFF 		.word	-4032
 188              		.section	.text.HAL_I2S_MspDeInit,"ax",%progbits
 189              		.align	1
 190              		.p2align 2,,3
 191              		.weak	HAL_I2S_MspDeInit
 192              		.syntax unified
 193              		.thumb
 194              		.thumb_func
 196              	HAL_I2S_MspDeInit:
 197              		@ args = 0, pretend = 0, frame = 0
 198              		@ frame_needed = 0, uses_anonymous_args = 0
 199              		@ link register save eliminated.
 200 0000 7047     		bx	lr
 202 0002 00BF     		.section	.text.HAL_I2S_DeInit,"ax",%progbits
 203              		.align	1
 204              		.p2align 2,,3
 205              		.global	HAL_I2S_DeInit
 206              		.syntax unified
 207              		.thumb
 208              		.thumb_func
 210              	HAL_I2S_DeInit:
 211              		@ args = 0, pretend = 0, frame = 0
 212              		@ frame_needed = 0, uses_anonymous_args = 0
 213 0000 98B1     		cbz	r0, .L37
 214 0002 0268     		ldr	r2, [r0]
 215 0004 0223     		movs	r3, #2
 216 0006 10B5     		push	{r4, lr}
 217 0008 80F84130 		strb	r3, [r0, #65]
 218 000c D369     		ldr	r3, [r2, #28]
 219 000e 23F48063 		bic	r3, r3, #1024
 220 0012 0446     		mov	r4, r0
 221 0014 D361     		str	r3, [r2, #28]
 222 0016 FFF7FEFF 		bl	HAL_I2S_MspDeInit
 223 001a 0023     		movs	r3, #0
 224 001c 6364     		str	r3, [r4, #68]
 225 001e 84F84130 		strb	r3, [r4, #65]
 226 0022 84F84030 		strb	r3, [r4, #64]
 227 0026 1846     		mov	r0, r3
 228 0028 10BD     		pop	{r4, pc}
 229              	.L37:
 230 002a 0120     		movs	r0, #1
 231 002c 7047     		bx	lr
 233 002e 00BF     		.section	.text.HAL_I2S_Transmit,"ax",%progbits
 234              		.align	1
 235              		.p2align 2,,3
 236              		.global	HAL_I2S_Transmit
ARM GAS  /var/folders/lp/x54gwt890xv47sdkqj1k04q40000gn/T//ccO3X8Y1.s 			page 5


 237              		.syntax unified
 238              		.thumb
 239              		.thumb_func
 241              	HAL_I2S_Transmit:
 242              		@ args = 0, pretend = 0, frame = 8
 243              		@ frame_needed = 0, uses_anonymous_args = 0
 244 0000 0029     		cmp	r1, #0
 245 0002 00F0B980 		beq	.L89
 246 0006 002A     		cmp	r2, #0
 247 0008 00F0B680 		beq	.L89
 248 000c 2DE9F041 		push	{r4, r5, r6, r7, r8, lr}
 249 0010 1E46     		mov	r6, r3
 250 0012 90F84030 		ldrb	r3, [r0, #64]	@ zero_extendqisi2
 251 0016 012B     		cmp	r3, #1
 252 0018 82B0     		sub	sp, sp, #8
 253 001a 0446     		mov	r4, r0
 254 001c 73D0     		beq	.L44
 255 001e 0123     		movs	r3, #1
 256 0020 80F84030 		strb	r3, [r0, #64]
 257 0024 90F84130 		ldrb	r3, [r0, #65]	@ zero_extendqisi2
 258 0028 012B     		cmp	r3, #1
 259 002a 69D1     		bne	.L94
 260 002c 0323     		movs	r3, #3
 261 002e 80F84130 		strb	r3, [r0, #65]
 262 0032 0023     		movs	r3, #0
 263 0034 4364     		str	r3, [r0, #68]
 264 0036 0068     		ldr	r0, [r0]
 265 0038 6162     		str	r1, [r4, #36]
 266 003a C169     		ldr	r1, [r0, #28]
 267 003c 2823     		movs	r3, #40
 268 003e 01F00701 		and	r1, r1, #7
 269 0042 CB40     		lsrs	r3, r3, r1
 270 0044 D907     		lsls	r1, r3, #31
 271 0046 62D4     		bmi	.L95
 272 0048 2285     		strh	r2, [r4, #40]	@ movhi
 273 004a 6285     		strh	r2, [r4, #42]	@ movhi
 274 004c C769     		ldr	r7, [r0, #28]
 275 004e C369     		ldr	r3, [r0, #28]
 276 0050 5A05     		lsls	r2, r3, #21
 277 0052 50D5     		bpl	.L96
 278              	.L49:
 279 0054 FFF7FEFF 		bl	HAL_GetTick
 280 0058 8046     		mov	r8, r0
 281              	.L50:
 282 005a 2168     		ldr	r1, [r4]
 283 005c 8D68     		ldr	r5, [r1, #8]
 284 005e 15F00205 		ands	r5, r5, #2
 285 0062 04D1     		bne	.L60
 286 0064 731C     		adds	r3, r6, #1
 287 0066 3FD1     		bne	.L51
 288              	.L52:
 289 0068 8B68     		ldr	r3, [r1, #8]
 290 006a 9D07     		lsls	r5, r3, #30
 291 006c FCD5     		bpl	.L52
 292              	.L60:
 293 006e 638D     		ldrh	r3, [r4, #42]
 294 0070 9BB2     		uxth	r3, r3
ARM GAS  /var/folders/lp/x54gwt890xv47sdkqj1k04q40000gn/T//ccO3X8Y1.s 			page 6


 295 0072 002B     		cmp	r3, #0
 296 0074 54D0     		beq	.L97
 297 0076 636A     		ldr	r3, [r4, #36]
 298 0078 33F8022B 		ldrh	r2, [r3], #2
 299 007c CA60     		str	r2, [r1, #12]
 300 007e 628D     		ldrh	r2, [r4, #42]
 301 0080 6362     		str	r3, [r4, #36]
 302 0082 013A     		subs	r2, r2, #1
 303 0084 92B2     		uxth	r2, r2
 304 0086 6285     		strh	r2, [r4, #42]	@ movhi
 305 0088 FFF7FEFF 		bl	HAL_GetTick
 306 008c 8046     		mov	r8, r0
 307              	.L55:
 308 008e 2168     		ldr	r1, [r4]
 309 0090 8D68     		ldr	r5, [r1, #8]
 310 0092 15F00205 		ands	r5, r5, #2
 311 0096 04D1     		bne	.L58
 312 0098 701C     		adds	r0, r6, #1
 313 009a 0FD1     		bne	.L56
 314              	.L57:
 315 009c 8A68     		ldr	r2, [r1, #8]
 316 009e 9207     		lsls	r2, r2, #30
 317 00a0 FCD5     		bpl	.L57
 318              	.L58:
 319 00a2 8B68     		ldr	r3, [r1, #8]
 320 00a4 1B07     		lsls	r3, r3, #28
 321 00a6 E2D5     		bpl	.L60
 322 00a8 0023     		movs	r3, #0
 323 00aa 0193     		str	r3, [sp, #4]
 324 00ac 8B68     		ldr	r3, [r1, #8]
 325 00ae 0193     		str	r3, [sp, #4]
 326 00b0 019B     		ldr	r3, [sp, #4]
 327 00b2 636C     		ldr	r3, [r4, #68]
 328 00b4 43F00403 		orr	r3, r3, #4
 329 00b8 6364     		str	r3, [r4, #68]
 330 00ba D8E7     		b	.L60
 331              	.L56:
 332 00bc FFF7FEFF 		bl	HAL_GetTick
 333 00c0 A0EB0800 		sub	r0, r0, r8
 334 00c4 8642     		cmp	r6, r0
 335 00c6 E2D8     		bhi	.L55
 336              	.L93:
 337 00c8 0122     		movs	r2, #1
 338 00ca 84F84120 		strb	r2, [r4, #65]
 339 00ce 84F84050 		strb	r5, [r4, #64]
 340 00d2 636C     		ldr	r3, [r4, #68]
 341 00d4 1343     		orrs	r3, r3, r2
 342 00d6 6364     		str	r3, [r4, #68]
 343 00d8 84F84120 		strb	r2, [r4, #65]
 344 00dc 84F84050 		strb	r5, [r4, #64]
 345              	.L43:
 346 00e0 0120     		movs	r0, #1
 347 00e2 02B0     		add	sp, sp, #8
 348              		@ sp needed
 349 00e4 BDE8F081 		pop	{r4, r5, r6, r7, r8, pc}
 350              	.L51:
 351 00e8 FFF7FEFF 		bl	HAL_GetTick
ARM GAS  /var/folders/lp/x54gwt890xv47sdkqj1k04q40000gn/T//ccO3X8Y1.s 			page 7


 352 00ec A0EB0803 		sub	r3, r0, r8
 353 00f0 9E42     		cmp	r6, r3
 354 00f2 B2D8     		bhi	.L50
 355 00f4 E8E7     		b	.L93
 356              	.L96:
 357 00f6 C369     		ldr	r3, [r0, #28]
 358 00f8 43F48063 		orr	r3, r3, #1024
 359 00fc C361     		str	r3, [r0, #28]
 360 00fe A9E7     		b	.L49
 361              	.L94:
 362 0100 0023     		movs	r3, #0
 363 0102 80F84030 		strb	r3, [r0, #64]
 364              	.L44:
 365 0106 0220     		movs	r0, #2
 366 0108 02B0     		add	sp, sp, #8
 367              		@ sp needed
 368 010a BDE8F081 		pop	{r4, r5, r6, r7, r8, pc}
 369              	.L95:
 370 010e 5300     		lsls	r3, r2, #1
 371 0110 9BB2     		uxth	r3, r3
 372 0112 2385     		strh	r3, [r4, #40]	@ movhi
 373 0114 6385     		strh	r3, [r4, #42]	@ movhi
 374 0116 C769     		ldr	r7, [r0, #28]
 375 0118 C369     		ldr	r3, [r0, #28]
 376 011a 5A05     		lsls	r2, r3, #21
 377 011c 9AD4     		bmi	.L49
 378 011e EAE7     		b	.L96
 379              	.L97:
 380 0120 BD05     		lsls	r5, r7, #22
 381 0122 09D5     		bpl	.L63
 382              	.L67:
 383 0124 0023     		movs	r3, #0
 384 0126 0122     		movs	r2, #1
 385 0128 1846     		mov	r0, r3
 386 012a 84F84120 		strb	r2, [r4, #65]
 387 012e 84F84030 		strb	r3, [r4, #64]
 388 0132 02B0     		add	sp, sp, #8
 389              		@ sp needed
 390 0134 BDE8F081 		pop	{r4, r5, r6, r7, r8, pc}
 391              	.L63:
 392 0138 FFF7FEFF 		bl	HAL_GetTick
 393 013c 0546     		mov	r5, r0
 394              	.L64:
 395 013e 2268     		ldr	r2, [r4]
 396 0140 9368     		ldr	r3, [r2, #8]
 397 0142 1B06     		lsls	r3, r3, #24
 398 0144 EED5     		bpl	.L67
 399 0146 701C     		adds	r0, r6, #1
 400 0148 03D1     		bne	.L65
 401              	.L66:
 402 014a 9368     		ldr	r3, [r2, #8]
 403 014c 1906     		lsls	r1, r3, #24
 404 014e FCD4     		bmi	.L66
 405 0150 E8E7     		b	.L67
 406              	.L65:
 407 0152 FFF7FEFF 		bl	HAL_GetTick
 408 0156 431B     		subs	r3, r0, r5
ARM GAS  /var/folders/lp/x54gwt890xv47sdkqj1k04q40000gn/T//ccO3X8Y1.s 			page 8


 409 0158 9E42     		cmp	r6, r3
 410 015a F0D8     		bhi	.L64
 411 015c 0121     		movs	r1, #1
 412 015e 0022     		movs	r2, #0
 413 0160 84F84110 		strb	r1, [r4, #65]
 414 0164 84F84020 		strb	r2, [r4, #64]
 415 0168 636C     		ldr	r3, [r4, #68]
 416 016a 0B43     		orrs	r3, r3, r1
 417 016c 6364     		str	r3, [r4, #68]
 418 016e 84F84110 		strb	r1, [r4, #65]
 419 0172 84F84020 		strb	r2, [r4, #64]
 420 0176 B3E7     		b	.L43
 421              	.L89:
 422 0178 0120     		movs	r0, #1
 423 017a 7047     		bx	lr
 425              		.section	.text.HAL_I2S_Receive,"ax",%progbits
 426              		.align	1
 427              		.p2align 2,,3
 428              		.global	HAL_I2S_Receive
 429              		.syntax unified
 430              		.thumb
 431              		.thumb_func
 433              	HAL_I2S_Receive:
 434              		@ args = 0, pretend = 0, frame = 8
 435              		@ frame_needed = 0, uses_anonymous_args = 0
 436 0000 0029     		cmp	r1, #0
 437 0002 00F08D80 		beq	.L130
 438 0006 002A     		cmp	r2, #0
 439 0008 00F08A80 		beq	.L130
 440 000c F0B5     		push	{r4, r5, r6, r7, lr}
 441 000e 1E46     		mov	r6, r3
 442 0010 90F84030 		ldrb	r3, [r0, #64]	@ zero_extendqisi2
 443 0014 012B     		cmp	r3, #1
 444 0016 83B0     		sub	sp, sp, #12
 445 0018 0446     		mov	r4, r0
 446 001a 76D0     		beq	.L100
 447 001c 0123     		movs	r3, #1
 448 001e 80F84030 		strb	r3, [r0, #64]
 449 0022 90F84130 		ldrb	r3, [r0, #65]	@ zero_extendqisi2
 450 0026 012B     		cmp	r3, #1
 451 0028 6CD1     		bne	.L133
 452 002a 0423     		movs	r3, #4
 453 002c 80F84130 		strb	r3, [r0, #65]
 454 0030 0023     		movs	r3, #0
 455 0032 4364     		str	r3, [r0, #68]
 456 0034 0068     		ldr	r0, [r0]
 457 0036 E162     		str	r1, [r4, #44]
 458 0038 C169     		ldr	r1, [r0, #28]
 459 003a 2823     		movs	r3, #40
 460 003c 01F00701 		and	r1, r1, #7
 461 0040 CB40     		lsrs	r3, r3, r1
 462 0042 DF07     		lsls	r7, r3, #31
 463 0044 64D4     		bmi	.L134
 464 0046 2286     		strh	r2, [r4, #48]	@ movhi
 465 0048 6286     		strh	r2, [r4, #50]	@ movhi
 466 004a C369     		ldr	r3, [r0, #28]
 467 004c 5D05     		lsls	r5, r3, #21
ARM GAS  /var/folders/lp/x54gwt890xv47sdkqj1k04q40000gn/T//ccO3X8Y1.s 			page 9


 468 004e 54D5     		bpl	.L135
 469              	.L105:
 470 0050 C369     		ldr	r3, [r0, #28]
 471 0052 03F44073 		and	r3, r3, #768
 472 0056 B3F5407F 		cmp	r3, #768
 473 005a 06D1     		bne	.L113
 474 005c 0023     		movs	r3, #0
 475 005e 0093     		str	r3, [sp]
 476 0060 C368     		ldr	r3, [r0, #12]
 477 0062 0093     		str	r3, [sp]
 478 0064 8368     		ldr	r3, [r0, #8]
 479 0066 0093     		str	r3, [sp]
 480 0068 009B     		ldr	r3, [sp]
 481              	.L113:
 482 006a 638E     		ldrh	r3, [r4, #50]
 483 006c 9BB2     		uxth	r3, r3
 484 006e 002B     		cmp	r3, #0
 485 0070 27D0     		beq	.L136
 486              	.L114:
 487 0072 FFF7FEFF 		bl	HAL_GetTick
 488 0076 0746     		mov	r7, r0
 489              	.L108:
 490 0078 2168     		ldr	r1, [r4]
 491 007a 8D68     		ldr	r5, [r1, #8]
 492 007c 15F00105 		ands	r5, r5, #1
 493 0080 04D1     		bne	.L111
 494 0082 701C     		adds	r0, r6, #1
 495 0084 25D1     		bne	.L109
 496              	.L110:
 497 0086 8A68     		ldr	r2, [r1, #8]
 498 0088 D207     		lsls	r2, r2, #31
 499 008a FCD5     		bpl	.L110
 500              	.L111:
 501 008c E36A     		ldr	r3, [r4, #44]
 502 008e CA68     		ldr	r2, [r1, #12]
 503 0090 23F8022B 		strh	r2, [r3], #2	@ movhi
 504 0094 628E     		ldrh	r2, [r4, #50]
 505 0096 E362     		str	r3, [r4, #44]
 506 0098 013A     		subs	r2, r2, #1
 507 009a 92B2     		uxth	r2, r2
 508 009c 6286     		strh	r2, [r4, #50]	@ movhi
 509 009e 8B68     		ldr	r3, [r1, #8]
 510 00a0 5B06     		lsls	r3, r3, #25
 511 00a2 E2D5     		bpl	.L113
 512 00a4 0023     		movs	r3, #0
 513 00a6 0193     		str	r3, [sp, #4]
 514 00a8 CB68     		ldr	r3, [r1, #12]
 515 00aa 0193     		str	r3, [sp, #4]
 516 00ac 8B68     		ldr	r3, [r1, #8]
 517 00ae 0193     		str	r3, [sp, #4]
 518 00b0 019B     		ldr	r3, [sp, #4]
 519 00b2 636C     		ldr	r3, [r4, #68]
 520 00b4 43F00203 		orr	r3, r3, #2
 521 00b8 6364     		str	r3, [r4, #68]
 522 00ba 638E     		ldrh	r3, [r4, #50]
 523 00bc 9BB2     		uxth	r3, r3
 524 00be 002B     		cmp	r3, #0
ARM GAS  /var/folders/lp/x54gwt890xv47sdkqj1k04q40000gn/T//ccO3X8Y1.s 			page 10


 525 00c0 D7D1     		bne	.L114
 526              	.L136:
 527 00c2 0122     		movs	r2, #1
 528 00c4 1846     		mov	r0, r3
 529 00c6 84F84120 		strb	r2, [r4, #65]
 530 00ca 84F84030 		strb	r3, [r4, #64]
 531 00ce 03B0     		add	sp, sp, #12
 532              		@ sp needed
 533 00d0 F0BD     		pop	{r4, r5, r6, r7, pc}
 534              	.L109:
 535 00d2 FFF7FEFF 		bl	HAL_GetTick
 536 00d6 C01B     		subs	r0, r0, r7
 537 00d8 8642     		cmp	r6, r0
 538 00da CDD8     		bhi	.L108
 539 00dc 0122     		movs	r2, #1
 540 00de 84F84120 		strb	r2, [r4, #65]
 541 00e2 84F84050 		strb	r5, [r4, #64]
 542 00e6 636C     		ldr	r3, [r4, #68]
 543 00e8 0120     		movs	r0, #1
 544 00ea 1343     		orrs	r3, r3, r2
 545 00ec 6364     		str	r3, [r4, #68]
 546 00ee 84F84120 		strb	r2, [r4, #65]
 547 00f2 84F84050 		strb	r5, [r4, #64]
 548 00f6 03B0     		add	sp, sp, #12
 549              		@ sp needed
 550 00f8 F0BD     		pop	{r4, r5, r6, r7, pc}
 551              	.L135:
 552 00fa C369     		ldr	r3, [r0, #28]
 553 00fc 43F48063 		orr	r3, r3, #1024
 554 0100 C361     		str	r3, [r0, #28]
 555 0102 A5E7     		b	.L105
 556              	.L133:
 557 0104 0023     		movs	r3, #0
 558 0106 80F84030 		strb	r3, [r0, #64]
 559              	.L100:
 560 010a 0220     		movs	r0, #2
 561 010c 03B0     		add	sp, sp, #12
 562              		@ sp needed
 563 010e F0BD     		pop	{r4, r5, r6, r7, pc}
 564              	.L134:
 565 0110 5300     		lsls	r3, r2, #1
 566 0112 9BB2     		uxth	r3, r3
 567 0114 2386     		strh	r3, [r4, #48]	@ movhi
 568 0116 6386     		strh	r3, [r4, #50]	@ movhi
 569 0118 C369     		ldr	r3, [r0, #28]
 570 011a 5D05     		lsls	r5, r3, #21
 571 011c 98D4     		bmi	.L105
 572 011e ECE7     		b	.L135
 573              	.L130:
 574 0120 0120     		movs	r0, #1
 575 0122 7047     		bx	lr
 577              		.section	.text.HAL_I2S_Transmit_IT,"ax",%progbits
 578              		.align	1
 579              		.p2align 2,,3
 580              		.global	HAL_I2S_Transmit_IT
 581              		.syntax unified
 582              		.thumb
ARM GAS  /var/folders/lp/x54gwt890xv47sdkqj1k04q40000gn/T//ccO3X8Y1.s 			page 11


 583              		.thumb_func
 585              	HAL_I2S_Transmit_IT:
 586              		@ args = 0, pretend = 0, frame = 0
 587              		@ frame_needed = 0, uses_anonymous_args = 0
 588              		@ link register save eliminated.
 589 0000 0029     		cmp	r1, #0
 590 0002 32D0     		beq	.L146
 591 0004 002A     		cmp	r2, #0
 592 0006 30D0     		beq	.L146
 593 0008 90F84030 		ldrb	r3, [r0, #64]	@ zero_extendqisi2
 594 000c 012B     		cmp	r3, #1
 595 000e 31D0     		beq	.L141
 596 0010 0123     		movs	r3, #1
 597 0012 80F84030 		strb	r3, [r0, #64]
 598 0016 90F84130 		ldrb	r3, [r0, #65]	@ zero_extendqisi2
 599 001a 012B     		cmp	r3, #1
 600 001c 27D1     		bne	.L150
 601 001e 10B4     		push	{r4}
 602 0020 0324     		movs	r4, #3
 603 0022 80F84140 		strb	r4, [r0, #65]
 604 0026 0368     		ldr	r3, [r0]
 605 0028 0024     		movs	r4, #0
 606 002a 4464     		str	r4, [r0, #68]
 607 002c DC69     		ldr	r4, [r3, #28]
 608 002e 4162     		str	r1, [r0, #36]
 609 0030 04F0070C 		and	ip, r4, #7
 610 0034 2821     		movs	r1, #40
 611 0036 21FA0CF1 		lsr	r1, r1, ip
 612 003a C907     		lsls	r1, r1, #31
 613 003c 44BF     		itt	mi
 614 003e 5200     		lslmi	r2, r2, #1
 615 0040 92B2     		uxthmi	r2, r2
 616 0042 0285     		strh	r2, [r0, #40]	@ movhi
 617 0044 4285     		strh	r2, [r0, #42]	@ movhi
 618 0046 5A68     		ldr	r2, [r3, #4]
 619 0048 42F0A002 		orr	r2, r2, #160
 620 004c 5A60     		str	r2, [r3, #4]
 621 004e DA69     		ldr	r2, [r3, #28]
 622 0050 5205     		lsls	r2, r2, #21
 623 0052 03D4     		bmi	.L144
 624 0054 DA69     		ldr	r2, [r3, #28]
 625 0056 42F48062 		orr	r2, r2, #1024
 626 005a DA61     		str	r2, [r3, #28]
 627              	.L144:
 628 005c 0023     		movs	r3, #0
 629 005e 80F84030 		strb	r3, [r0, #64]
 630 0062 5DF8044B 		ldr	r4, [sp], #4
 631 0066 1846     		mov	r0, r3
 632 0068 7047     		bx	lr
 633              	.L146:
 634 006a 0120     		movs	r0, #1
 635 006c 7047     		bx	lr
 636              	.L150:
 637 006e 0023     		movs	r3, #0
 638 0070 80F84030 		strb	r3, [r0, #64]
 639              	.L141:
 640 0074 0220     		movs	r0, #2
ARM GAS  /var/folders/lp/x54gwt890xv47sdkqj1k04q40000gn/T//ccO3X8Y1.s 			page 12


 641 0076 7047     		bx	lr
 643              		.section	.text.HAL_I2S_Receive_IT,"ax",%progbits
 644              		.align	1
 645              		.p2align 2,,3
 646              		.global	HAL_I2S_Receive_IT
 647              		.syntax unified
 648              		.thumb
 649              		.thumb_func
 651              	HAL_I2S_Receive_IT:
 652              		@ args = 0, pretend = 0, frame = 0
 653              		@ frame_needed = 0, uses_anonymous_args = 0
 654              		@ link register save eliminated.
 655 0000 0029     		cmp	r1, #0
 656 0002 32D0     		beq	.L160
 657 0004 002A     		cmp	r2, #0
 658 0006 30D0     		beq	.L160
 659 0008 90F84030 		ldrb	r3, [r0, #64]	@ zero_extendqisi2
 660 000c 012B     		cmp	r3, #1
 661 000e 31D0     		beq	.L155
 662 0010 0123     		movs	r3, #1
 663 0012 80F84030 		strb	r3, [r0, #64]
 664 0016 90F84130 		ldrb	r3, [r0, #65]	@ zero_extendqisi2
 665 001a 012B     		cmp	r3, #1
 666 001c 27D1     		bne	.L164
 667 001e 10B4     		push	{r4}
 668 0020 0424     		movs	r4, #4
 669 0022 80F84140 		strb	r4, [r0, #65]
 670 0026 0368     		ldr	r3, [r0]
 671 0028 0024     		movs	r4, #0
 672 002a 4464     		str	r4, [r0, #68]
 673 002c DC69     		ldr	r4, [r3, #28]
 674 002e C162     		str	r1, [r0, #44]
 675 0030 04F0070C 		and	ip, r4, #7
 676 0034 2821     		movs	r1, #40
 677 0036 21FA0CF1 		lsr	r1, r1, ip
 678 003a C907     		lsls	r1, r1, #31
 679 003c 44BF     		itt	mi
 680 003e 5200     		lslmi	r2, r2, #1
 681 0040 92B2     		uxthmi	r2, r2
 682 0042 0286     		strh	r2, [r0, #48]	@ movhi
 683 0044 4286     		strh	r2, [r0, #50]	@ movhi
 684 0046 5A68     		ldr	r2, [r3, #4]
 685 0048 42F06002 		orr	r2, r2, #96
 686 004c 5A60     		str	r2, [r3, #4]
 687 004e DA69     		ldr	r2, [r3, #28]
 688 0050 5205     		lsls	r2, r2, #21
 689 0052 03D4     		bmi	.L158
 690 0054 DA69     		ldr	r2, [r3, #28]
 691 0056 42F48062 		orr	r2, r2, #1024
 692 005a DA61     		str	r2, [r3, #28]
 693              	.L158:
 694 005c 0023     		movs	r3, #0
 695 005e 80F84030 		strb	r3, [r0, #64]
 696 0062 5DF8044B 		ldr	r4, [sp], #4
 697 0066 1846     		mov	r0, r3
 698 0068 7047     		bx	lr
 699              	.L160:
ARM GAS  /var/folders/lp/x54gwt890xv47sdkqj1k04q40000gn/T//ccO3X8Y1.s 			page 13


 700 006a 0120     		movs	r0, #1
 701 006c 7047     		bx	lr
 702              	.L164:
 703 006e 0023     		movs	r3, #0
 704 0070 80F84030 		strb	r3, [r0, #64]
 705              	.L155:
 706 0074 0220     		movs	r0, #2
 707 0076 7047     		bx	lr
 709              		.section	.text.HAL_I2S_Transmit_DMA,"ax",%progbits
 710              		.align	1
 711              		.p2align 2,,3
 712              		.global	HAL_I2S_Transmit_DMA
 713              		.syntax unified
 714              		.thumb
 715              		.thumb_func
 717              	HAL_I2S_Transmit_DMA:
 718              		@ args = 0, pretend = 0, frame = 0
 719              		@ frame_needed = 0, uses_anonymous_args = 0
 720 0000 0029     		cmp	r1, #0
 721 0002 55D0     		beq	.L185
 722 0004 002A     		cmp	r2, #0
 723 0006 53D0     		beq	.L185
 724 0008 38B5     		push	{r3, r4, r5, lr}
 725 000a 90F84030 		ldrb	r3, [r0, #64]	@ zero_extendqisi2
 726 000e 012B     		cmp	r3, #1
 727 0010 0446     		mov	r4, r0
 728 0012 3AD0     		beq	.L167
 729 0014 0123     		movs	r3, #1
 730 0016 80F84030 		strb	r3, [r0, #64]
 731 001a 90F84130 		ldrb	r3, [r0, #65]	@ zero_extendqisi2
 732 001e 012B     		cmp	r3, #1
 733 0020 30D1     		bne	.L188
 734 0022 0323     		movs	r3, #3
 735 0024 80F84130 		strb	r3, [r0, #65]
 736 0028 0568     		ldr	r5, [r0]
 737 002a 0023     		movs	r3, #0
 738 002c 4364     		str	r3, [r0, #68]
 739 002e E869     		ldr	r0, [r5, #28]
 740 0030 6162     		str	r1, [r4, #36]
 741 0032 00F00700 		and	r0, r0, #7
 742 0036 2823     		movs	r3, #40
 743 0038 C340     		lsrs	r3, r3, r0
 744 003a D807     		lsls	r0, r3, #31
 745 003c 27D4     		bmi	.L189
 746 003e 2285     		strh	r2, [r4, #40]	@ movhi
 747 0040 6285     		strh	r2, [r4, #42]	@ movhi
 748              	.L171:
 749 0042 A06B     		ldr	r0, [r4, #56]
 750 0044 1B4B     		ldr	r3, .L191
 751 0046 0364     		str	r3, [r0, #64]
 752 0048 1B4B     		ldr	r3, .L191+4
 753 004a C363     		str	r3, [r0, #60]
 754 004c 1B4B     		ldr	r3, .L191+8
 755 004e C364     		str	r3, [r0, #76]
 756 0050 238D     		ldrh	r3, [r4, #40]
 757 0052 05F10C02 		add	r2, r5, #12
 758 0056 9BB2     		uxth	r3, r3
ARM GAS  /var/folders/lp/x54gwt890xv47sdkqj1k04q40000gn/T//ccO3X8Y1.s 			page 14


 759 0058 FFF7FEFF 		bl	HAL_DMA_Start_IT
 760 005c E0B9     		cbnz	r0, .L190
 761 005e 2368     		ldr	r3, [r4]
 762 0060 DA69     		ldr	r2, [r3, #28]
 763 0062 5105     		lsls	r1, r2, #21
 764 0064 03D4     		bmi	.L173
 765 0066 DA69     		ldr	r2, [r3, #28]
 766 0068 42F48062 		orr	r2, r2, #1024
 767 006c DA61     		str	r2, [r3, #28]
 768              	.L173:
 769 006e 5A68     		ldr	r2, [r3, #4]
 770 0070 9207     		lsls	r2, r2, #30
 771 0072 03D4     		bmi	.L174
 772 0074 5A68     		ldr	r2, [r3, #4]
 773 0076 42F00202 		orr	r2, r2, #2
 774 007a 5A60     		str	r2, [r3, #4]
 775              	.L174:
 776 007c 0023     		movs	r3, #0
 777 007e 84F84030 		strb	r3, [r4, #64]
 778 0082 38BD     		pop	{r3, r4, r5, pc}
 779              	.L188:
 780 0084 0023     		movs	r3, #0
 781 0086 80F84030 		strb	r3, [r0, #64]
 782              	.L167:
 783 008a 0220     		movs	r0, #2
 784 008c 38BD     		pop	{r3, r4, r5, pc}
 785              	.L189:
 786 008e 5300     		lsls	r3, r2, #1
 787 0090 9BB2     		uxth	r3, r3
 788 0092 2385     		strh	r3, [r4, #40]	@ movhi
 789 0094 6385     		strh	r3, [r4, #42]	@ movhi
 790 0096 D4E7     		b	.L171
 791              	.L190:
 792 0098 636C     		ldr	r3, [r4, #68]
 793 009a 0121     		movs	r1, #1
 794 009c 43F00803 		orr	r3, r3, #8
 795 00a0 0022     		movs	r2, #0
 796 00a2 6364     		str	r3, [r4, #68]
 797 00a4 84F84110 		strb	r1, [r4, #65]
 798 00a8 84F84020 		strb	r2, [r4, #64]
 799 00ac 0120     		movs	r0, #1
 800 00ae 38BD     		pop	{r3, r4, r5, pc}
 801              	.L185:
 802 00b0 0120     		movs	r0, #1
 803 00b2 7047     		bx	lr
 804              	.L192:
 805              		.align	2
 806              	.L191:
 807 00b4 00000000 		.word	I2S_DMATxHalfCplt
 808 00b8 00000000 		.word	I2S_DMATxCplt
 809 00bc 00000000 		.word	I2S_DMAError
 811              		.section	.text.HAL_I2S_Receive_DMA,"ax",%progbits
 812              		.align	1
 813              		.p2align 2,,3
 814              		.global	HAL_I2S_Receive_DMA
 815              		.syntax unified
 816              		.thumb
ARM GAS  /var/folders/lp/x54gwt890xv47sdkqj1k04q40000gn/T//ccO3X8Y1.s 			page 15


 817              		.thumb_func
 819              	HAL_I2S_Receive_DMA:
 820              		@ args = 0, pretend = 0, frame = 8
 821              		@ frame_needed = 0, uses_anonymous_args = 0
 822 0000 0029     		cmp	r1, #0
 823 0002 66D0     		beq	.L214
 824 0004 1346     		mov	r3, r2
 825 0006 002A     		cmp	r2, #0
 826 0008 63D0     		beq	.L214
 827 000a 10B5     		push	{r4, lr}
 828 000c 0A46     		mov	r2, r1
 829 000e 90F84010 		ldrb	r1, [r0, #64]	@ zero_extendqisi2
 830 0012 0129     		cmp	r1, #1
 831 0014 82B0     		sub	sp, sp, #8
 832 0016 0446     		mov	r4, r0
 833 0018 4BD0     		beq	.L195
 834 001a 0121     		movs	r1, #1
 835 001c 80F84010 		strb	r1, [r0, #64]
 836 0020 90F84110 		ldrb	r1, [r0, #65]	@ zero_extendqisi2
 837 0024 0129     		cmp	r1, #1
 838 0026 41D1     		bne	.L217
 839 0028 0168     		ldr	r1, [r0]
 840 002a 0420     		movs	r0, #4
 841 002c 84F84100 		strb	r0, [r4, #65]
 842 0030 0020     		movs	r0, #0
 843 0032 6064     		str	r0, [r4, #68]
 844 0034 C869     		ldr	r0, [r1, #28]
 845 0036 E262     		str	r2, [r4, #44]
 846 0038 00F0070C 		and	ip, r0, #7
 847 003c 2820     		movs	r0, #40
 848 003e 20FA0CF0 		lsr	r0, r0, ip
 849 0042 C007     		lsls	r0, r0, #31
 850 0044 44BF     		itt	mi
 851 0046 5B00     		lslmi	r3, r3, #1
 852 0048 9BB2     		uxthmi	r3, r3
 853 004a E06B     		ldr	r0, [r4, #60]
 854 004c 2386     		strh	r3, [r4, #48]	@ movhi
 855 004e 6386     		strh	r3, [r4, #50]	@ movhi
 856 0050 214B     		ldr	r3, .L220
 857 0052 0364     		str	r3, [r0, #64]
 858 0054 214B     		ldr	r3, .L220+4
 859 0056 C363     		str	r3, [r0, #60]
 860 0058 214B     		ldr	r3, .L220+8
 861 005a C364     		str	r3, [r0, #76]
 862 005c CB69     		ldr	r3, [r1, #28]
 863 005e 03F44073 		and	r3, r3, #768
 864 0062 B3F5407F 		cmp	r3, #768
 865 0066 06D1     		bne	.L200
 866 0068 0023     		movs	r3, #0
 867 006a 0193     		str	r3, [sp, #4]
 868 006c CB68     		ldr	r3, [r1, #12]
 869 006e 0193     		str	r3, [sp, #4]
 870 0070 8B68     		ldr	r3, [r1, #8]
 871 0072 0193     		str	r3, [sp, #4]
 872 0074 019B     		ldr	r3, [sp, #4]
 873              	.L200:
 874 0076 238E     		ldrh	r3, [r4, #48]
ARM GAS  /var/folders/lp/x54gwt890xv47sdkqj1k04q40000gn/T//ccO3X8Y1.s 			page 16


 875 0078 0C31     		adds	r1, r1, #12
 876 007a 9BB2     		uxth	r3, r3
 877 007c FFF7FEFF 		bl	HAL_DMA_Start_IT
 878 0080 D0B9     		cbnz	r0, .L218
 879 0082 2368     		ldr	r3, [r4]
 880 0084 DA69     		ldr	r2, [r3, #28]
 881 0086 5105     		lsls	r1, r2, #21
 882 0088 03D4     		bmi	.L202
 883 008a DA69     		ldr	r2, [r3, #28]
 884 008c 42F48062 		orr	r2, r2, #1024
 885 0090 DA61     		str	r2, [r3, #28]
 886              	.L202:
 887 0092 5A68     		ldr	r2, [r3, #4]
 888 0094 D207     		lsls	r2, r2, #31
 889 0096 04D5     		bpl	.L219
 890              	.L203:
 891 0098 0023     		movs	r3, #0
 892 009a 84F84030 		strb	r3, [r4, #64]
 893 009e 02B0     		add	sp, sp, #8
 894              		@ sp needed
 895 00a0 10BD     		pop	{r4, pc}
 896              	.L219:
 897 00a2 5A68     		ldr	r2, [r3, #4]
 898 00a4 42F00102 		orr	r2, r2, #1
 899 00a8 5A60     		str	r2, [r3, #4]
 900 00aa F5E7     		b	.L203
 901              	.L217:
 902 00ac 0023     		movs	r3, #0
 903 00ae 80F84030 		strb	r3, [r0, #64]
 904              	.L195:
 905 00b2 0220     		movs	r0, #2
 906 00b4 02B0     		add	sp, sp, #8
 907              		@ sp needed
 908 00b6 10BD     		pop	{r4, pc}
 909              	.L218:
 910 00b8 636C     		ldr	r3, [r4, #68]
 911 00ba 0121     		movs	r1, #1
 912 00bc 43F00803 		orr	r3, r3, #8
 913 00c0 0022     		movs	r2, #0
 914 00c2 0120     		movs	r0, #1
 915 00c4 6364     		str	r3, [r4, #68]
 916 00c6 84F84110 		strb	r1, [r4, #65]
 917 00ca 84F84020 		strb	r2, [r4, #64]
 918 00ce 02B0     		add	sp, sp, #8
 919              		@ sp needed
 920 00d0 10BD     		pop	{r4, pc}
 921              	.L214:
 922 00d2 0120     		movs	r0, #1
 923 00d4 7047     		bx	lr
 924              	.L221:
 925 00d6 00BF     		.align	2
 926              	.L220:
 927 00d8 00000000 		.word	I2S_DMARxHalfCplt
 928 00dc 00000000 		.word	I2S_DMARxCplt
 929 00e0 00000000 		.word	I2S_DMAError
 931              		.section	.text.HAL_I2S_DMAPause,"ax",%progbits
 932              		.align	1
ARM GAS  /var/folders/lp/x54gwt890xv47sdkqj1k04q40000gn/T//ccO3X8Y1.s 			page 17


 933              		.p2align 2,,3
 934              		.global	HAL_I2S_DMAPause
 935              		.syntax unified
 936              		.thumb
 937              		.thumb_func
 939              	HAL_I2S_DMAPause:
 940              		@ args = 0, pretend = 0, frame = 0
 941              		@ frame_needed = 0, uses_anonymous_args = 0
 942              		@ link register save eliminated.
 943 0000 90F84020 		ldrb	r2, [r0, #64]	@ zero_extendqisi2
 944 0004 012A     		cmp	r2, #1
 945 0006 3BD0     		beq	.L228
 946 0008 0122     		movs	r2, #1
 947 000a 80F84020 		strb	r2, [r0, #64]
 948 000e 90F84120 		ldrb	r2, [r0, #65]	@ zero_extendqisi2
 949 0012 032A     		cmp	r2, #3
 950 0014 0346     		mov	r3, r0
 951 0016 0BD0     		beq	.L235
 952 0018 90F84120 		ldrb	r2, [r0, #65]	@ zero_extendqisi2
 953 001c 042A     		cmp	r2, #4
 954 001e 10D0     		beq	.L236
 955 0020 90F84120 		ldrb	r2, [r0, #65]	@ zero_extendqisi2
 956 0024 052A     		cmp	r2, #5
 957 0026 15D0     		beq	.L237
 958 0028 0020     		movs	r0, #0
 959 002a 83F84000 		strb	r0, [r3, #64]
 960 002e 7047     		bx	lr
 961              	.L235:
 962 0030 0168     		ldr	r1, [r0]
 963 0032 4A68     		ldr	r2, [r1, #4]
 964 0034 0020     		movs	r0, #0
 965 0036 22F00202 		bic	r2, r2, #2
 966 003a 4A60     		str	r2, [r1, #4]
 967 003c 83F84000 		strb	r0, [r3, #64]
 968 0040 7047     		bx	lr
 969              	.L236:
 970 0042 0168     		ldr	r1, [r0]
 971 0044 4A68     		ldr	r2, [r1, #4]
 972 0046 0020     		movs	r0, #0
 973 0048 22F00102 		bic	r2, r2, #1
 974 004c 4A60     		str	r2, [r1, #4]
 975 004e 83F84000 		strb	r0, [r3, #64]
 976 0052 7047     		bx	lr
 977              	.L237:
 978 0054 0168     		ldr	r1, [r0]
 979 0056 0B4A     		ldr	r2, .L238
 980 0058 4868     		ldr	r0, [r1, #4]
 981 005a 10B4     		push	{r4}
 982 005c 0A4C     		ldr	r4, .L238+4
 983 005e 20F00300 		bic	r0, r0, #3
 984 0062 A142     		cmp	r1, r4
 985 0064 18BF     		it	ne
 986 0066 4FF04022 		movne	r2, #1073758208
 987 006a 4860     		str	r0, [r1, #4]
 988 006c 5168     		ldr	r1, [r2, #4]
 989 006e 0020     		movs	r0, #0
 990 0070 21F00301 		bic	r1, r1, #3
ARM GAS  /var/folders/lp/x54gwt890xv47sdkqj1k04q40000gn/T//ccO3X8Y1.s 			page 18


 991 0074 5160     		str	r1, [r2, #4]
 992 0076 83F84000 		strb	r0, [r3, #64]
 993 007a 5DF8044B 		ldr	r4, [sp], #4
 994 007e 7047     		bx	lr
 995              	.L228:
 996 0080 0220     		movs	r0, #2
 997 0082 7047     		bx	lr
 998              	.L239:
 999              		.align	2
 1000              	.L238:
 1001 0084 00340040 		.word	1073755136
 1002 0088 00380040 		.word	1073756160
 1004              		.section	.text.HAL_I2S_DMAResume,"ax",%progbits
 1005              		.align	1
 1006              		.p2align 2,,3
 1007              		.global	HAL_I2S_DMAResume
 1008              		.syntax unified
 1009              		.thumb
 1010              		.thumb_func
 1012              	HAL_I2S_DMAResume:
 1013              		@ args = 0, pretend = 0, frame = 0
 1014              		@ frame_needed = 0, uses_anonymous_args = 0
 1015              		@ link register save eliminated.
 1016 0000 90F84020 		ldrb	r2, [r0, #64]	@ zero_extendqisi2
 1017 0004 012A     		cmp	r2, #1
 1018 0006 48D0     		beq	.L249
 1019 0008 0122     		movs	r2, #1
 1020 000a 80F84020 		strb	r2, [r0, #64]
 1021 000e 90F84110 		ldrb	r1, [r0, #65]	@ zero_extendqisi2
 1022 0012 0268     		ldr	r2, [r0]
 1023 0014 0329     		cmp	r1, #3
 1024 0016 0346     		mov	r3, r0
 1025 0018 12D0     		beq	.L258
 1026 001a 90F84110 		ldrb	r1, [r0, #65]	@ zero_extendqisi2
 1027 001e 0429     		cmp	r1, #4
 1028 0020 13D0     		beq	.L259
 1029 0022 90F84110 		ldrb	r1, [r0, #65]	@ zero_extendqisi2
 1030 0026 0529     		cmp	r1, #5
 1031 0028 14D0     		beq	.L260
 1032              	.L252:
 1033 002a D169     		ldr	r1, [r2, #28]
 1034 002c 4905     		lsls	r1, r1, #21
 1035 002e 03D4     		bmi	.L254
 1036 0030 D169     		ldr	r1, [r2, #28]
 1037 0032 41F48061 		orr	r1, r1, #1024
 1038 0036 D161     		str	r1, [r2, #28]
 1039              	.L254:
 1040 0038 0020     		movs	r0, #0
 1041 003a 83F84000 		strb	r0, [r3, #64]
 1042 003e 7047     		bx	lr
 1043              	.L258:
 1044 0040 5168     		ldr	r1, [r2, #4]
 1045 0042 41F00201 		orr	r1, r1, #2
 1046 0046 5160     		str	r1, [r2, #4]
 1047 0048 EFE7     		b	.L252
 1048              	.L259:
 1049 004a 5168     		ldr	r1, [r2, #4]
ARM GAS  /var/folders/lp/x54gwt890xv47sdkqj1k04q40000gn/T//ccO3X8Y1.s 			page 19


 1050 004c 41F00101 		orr	r1, r1, #1
 1051 0050 5160     		str	r1, [r2, #4]
 1052 0052 EAE7     		b	.L252
 1053              	.L260:
 1054 0054 5068     		ldr	r0, [r2, #4]
 1055 0056 1249     		ldr	r1, .L261
 1056 0058 10B4     		push	{r4}
 1057 005a 124C     		ldr	r4, .L261+4
 1058 005c 40F00300 		orr	r0, r0, #3
 1059 0060 A242     		cmp	r2, r4
 1060 0062 18BF     		it	ne
 1061 0064 4FF04021 		movne	r1, #1073758208
 1062 0068 5060     		str	r0, [r2, #4]
 1063 006a 4868     		ldr	r0, [r1, #4]
 1064 006c 40F00300 		orr	r0, r0, #3
 1065 0070 4860     		str	r0, [r1, #4]
 1066 0072 C869     		ldr	r0, [r1, #28]
 1067 0074 4405     		lsls	r4, r0, #21
 1068 0076 03D4     		bmi	.L243
 1069 0078 C869     		ldr	r0, [r1, #28]
 1070 007a 40F48060 		orr	r0, r0, #1024
 1071 007e C861     		str	r0, [r1, #28]
 1072              	.L243:
 1073 0080 D169     		ldr	r1, [r2, #28]
 1074 0082 4805     		lsls	r0, r1, #21
 1075 0084 03D4     		bmi	.L248
 1076 0086 D169     		ldr	r1, [r2, #28]
 1077 0088 41F48061 		orr	r1, r1, #1024
 1078 008c D161     		str	r1, [r2, #28]
 1079              	.L248:
 1080 008e 0020     		movs	r0, #0
 1081 0090 83F84000 		strb	r0, [r3, #64]
 1082 0094 5DF8044B 		ldr	r4, [sp], #4
 1083 0098 7047     		bx	lr
 1084              	.L249:
 1085 009a 0220     		movs	r0, #2
 1086 009c 7047     		bx	lr
 1087              	.L262:
 1088 009e 00BF     		.align	2
 1089              	.L261:
 1090 00a0 00340040 		.word	1073755136
 1091 00a4 00380040 		.word	1073756160
 1093              		.section	.text.HAL_I2S_DMAStop,"ax",%progbits
 1094              		.align	1
 1095              		.p2align 2,,3
 1096              		.global	HAL_I2S_DMAStop
 1097              		.syntax unified
 1098              		.thumb
 1099              		.thumb_func
 1101              	HAL_I2S_DMAStop:
 1102              		@ args = 0, pretend = 0, frame = 16
 1103              		@ frame_needed = 0, uses_anonymous_args = 0
 1104 0000 2DE9F041 		push	{r4, r5, r6, r7, r8, lr}
 1105 0004 4368     		ldr	r3, [r0, #4]
 1106 0006 33F40073 		bics	r3, r3, #512
 1107 000a 84B0     		sub	sp, sp, #16
 1108 000c 0446     		mov	r4, r0
ARM GAS  /var/folders/lp/x54gwt890xv47sdkqj1k04q40000gn/T//ccO3X8Y1.s 			page 20


 1109 000e 05D0     		beq	.L320
 1110 0010 B3F5807F 		cmp	r3, #256
 1111 0014 00F08680 		beq	.L321
 1112 0018 0026     		movs	r6, #0
 1113 001a 32E0     		b	.L274
 1114              	.L320:
 1115 001c 806B     		ldr	r0, [r0, #56]
 1116 001e 18B1     		cbz	r0, .L267
 1117 0020 FFF7FEFF 		bl	HAL_DMA_Abort
 1118 0024 0028     		cmp	r0, #0
 1119 0026 75D1     		bne	.L322
 1120              	.L267:
 1121 0028 0026     		movs	r6, #0
 1122              	.L266:
 1123 002a FFF7FEFF 		bl	HAL_GetTick
 1124 002e 0746     		mov	r7, r0
 1125 0030 04E0     		b	.L268
 1126              	.L270:
 1127 0032 FFF7FEFF 		bl	HAL_GetTick
 1128 0036 C01B     		subs	r0, r0, r7
 1129 0038 6328     		cmp	r0, #99
 1130 003a 29D8     		bhi	.L323
 1131              	.L268:
 1132 003c 2368     		ldr	r3, [r4]
 1133 003e 9D68     		ldr	r5, [r3, #8]
 1134 0040 15F00205 		ands	r5, r5, #2
 1135 0044 F5D0     		beq	.L270
 1136              	.L269:
 1137 0046 FFF7FEFF 		bl	HAL_GetTick
 1138 004a 0546     		mov	r5, r0
 1139 004c 04E0     		b	.L271
 1140              	.L273:
 1141 004e FFF7FEFF 		bl	HAL_GetTick
 1142 0052 401B     		subs	r0, r0, r5
 1143 0054 6328     		cmp	r0, #99
 1144 0056 27D8     		bhi	.L324
 1145              	.L271:
 1146 0058 2368     		ldr	r3, [r4]
 1147 005a 9A68     		ldr	r2, [r3, #8]
 1148 005c 1106     		lsls	r1, r2, #24
 1149 005e F6D4     		bmi	.L273
 1150              	.L272:
 1151 0060 DA69     		ldr	r2, [r3, #28]
 1152 0062 0021     		movs	r1, #0
 1153 0064 22F48062 		bic	r2, r2, #1024
 1154 0068 DA61     		str	r2, [r3, #28]
 1155 006a 0091     		str	r1, [sp]
 1156 006c 9A68     		ldr	r2, [r3, #8]
 1157 006e 0092     		str	r2, [sp]
 1158 0070 009A     		ldr	r2, [sp]
 1159 0072 5A68     		ldr	r2, [r3, #4]
 1160 0074 22F00202 		bic	r2, r2, #2
 1161 0078 5A60     		str	r2, [r3, #4]
 1162 007a 94F84120 		ldrb	r2, [r4, #65]	@ zero_extendqisi2
 1163 007e 052A     		cmp	r2, #5
 1164 0080 20D0     		beq	.L325
 1165              	.L274:
ARM GAS  /var/folders/lp/x54gwt890xv47sdkqj1k04q40000gn/T//ccO3X8Y1.s 			page 21


 1166 0082 0123     		movs	r3, #1
 1167 0084 3046     		mov	r0, r6
 1168 0086 84F84130 		strb	r3, [r4, #65]
 1169 008a 04B0     		add	sp, sp, #16
 1170              		@ sp needed
 1171 008c BDE8F081 		pop	{r4, r5, r6, r7, r8, pc}
 1172              	.L323:
 1173 0090 0123     		movs	r3, #1
 1174 0092 84F84130 		strb	r3, [r4, #65]
 1175 0096 84F84050 		strb	r5, [r4, #64]
 1176 009a 626C     		ldr	r2, [r4, #68]
 1177 009c 1A43     		orrs	r2, r2, r3
 1178 009e 6264     		str	r2, [r4, #68]
 1179 00a0 1E46     		mov	r6, r3
 1180 00a2 84F84130 		strb	r3, [r4, #65]
 1181 00a6 CEE7     		b	.L269
 1182              	.L324:
 1183 00a8 0122     		movs	r2, #1
 1184 00aa 0023     		movs	r3, #0
 1185 00ac 84F84120 		strb	r2, [r4, #65]
 1186 00b0 84F84030 		strb	r3, [r4, #64]
 1187 00b4 616C     		ldr	r1, [r4, #68]
 1188 00b6 2368     		ldr	r3, [r4]
 1189 00b8 1143     		orrs	r1, r1, r2
 1190 00ba 6164     		str	r1, [r4, #68]
 1191 00bc 1646     		mov	r6, r2
 1192 00be 84F84120 		strb	r2, [r4, #65]
 1193 00c2 CDE7     		b	.L272
 1194              	.L325:
 1195 00c4 E06B     		ldr	r0, [r4, #60]
 1196 00c6 28B1     		cbz	r0, .L275
 1197 00c8 FFF7FEFF 		bl	HAL_DMA_Abort
 1198 00cc 0028     		cmp	r0, #0
 1199 00ce 40F08980 		bne	.L276
 1200 00d2 2368     		ldr	r3, [r4]
 1201              	.L275:
 1202 00d4 5249     		ldr	r1, .L328
 1203 00d6 534A     		ldr	r2, .L328+4
 1204 00d8 8B42     		cmp	r3, r1
 1205 00da 18BF     		it	ne
 1206 00dc 4FF04022 		movne	r2, #1073758208
 1207 00e0 0021     		movs	r1, #0
 1208 00e2 D369     		ldr	r3, [r2, #28]
 1209 00e4 23F48063 		bic	r3, r3, #1024
 1210 00e8 D361     		str	r3, [r2, #28]
 1211 00ea 0191     		str	r1, [sp, #4]
 1212 00ec D368     		ldr	r3, [r2, #12]
 1213 00ee 0193     		str	r3, [sp, #4]
 1214 00f0 9368     		ldr	r3, [r2, #8]
 1215 00f2 0193     		str	r3, [sp, #4]
 1216 00f4 019B     		ldr	r3, [sp, #4]
 1217 00f6 5368     		ldr	r3, [r2, #4]
 1218 00f8 6168     		ldr	r1, [r4, #4]
 1219 00fa 23F00103 		bic	r3, r3, #1
 1220 00fe 5360     		str	r3, [r2, #4]
 1221 0100 71B9     		cbnz	r1, .L278
 1222              	.L319:
ARM GAS  /var/folders/lp/x54gwt890xv47sdkqj1k04q40000gn/T//ccO3X8Y1.s 			page 22


 1223 0102 636C     		ldr	r3, [r4, #68]
 1224 0104 0122     		movs	r2, #1
 1225 0106 43F04003 		orr	r3, r3, #64
 1226 010a 6364     		str	r3, [r4, #68]
 1227 010c 0126     		movs	r6, #1
 1228 010e 84F84120 		strb	r2, [r4, #65]
 1229 0112 B6E7     		b	.L274
 1230              	.L322:
 1231 0114 636C     		ldr	r3, [r4, #68]
 1232 0116 43F00803 		orr	r3, r3, #8
 1233 011a 0126     		movs	r6, #1
 1234 011c 6364     		str	r3, [r4, #68]
 1235 011e 84E7     		b	.L266
 1236              	.L278:
 1237 0120 D368     		ldr	r3, [r2, #12]
 1238 0122 AEE7     		b	.L274
 1239              	.L321:
 1240 0124 C06B     		ldr	r0, [r0, #60]
 1241 0126 18B1     		cbz	r0, .L282
 1242 0128 FFF7FEFF 		bl	HAL_DMA_Abort
 1243 012c 0028     		cmp	r0, #0
 1244 012e 70D1     		bne	.L326
 1245              	.L282:
 1246 0130 0026     		movs	r6, #0
 1247              	.L281:
 1248 0132 94F84130 		ldrb	r3, [r4, #65]	@ zero_extendqisi2
 1249 0136 052B     		cmp	r3, #5
 1250 0138 15D0     		beq	.L283
 1251 013a 2368     		ldr	r3, [r4]
 1252              	.L284:
 1253 013c DA69     		ldr	r2, [r3, #28]
 1254 013e 0021     		movs	r1, #0
 1255 0140 22F48062 		bic	r2, r2, #1024
 1256 0144 DA61     		str	r2, [r3, #28]
 1257 0146 0391     		str	r1, [sp, #12]
 1258 0148 DA68     		ldr	r2, [r3, #12]
 1259 014a 0392     		str	r2, [sp, #12]
 1260 014c 9A68     		ldr	r2, [r3, #8]
 1261 014e 0392     		str	r2, [sp, #12]
 1262 0150 039A     		ldr	r2, [sp, #12]
 1263 0152 6168     		ldr	r1, [r4, #4]
 1264 0154 5A68     		ldr	r2, [r3, #4]
 1265 0156 B1F5807F 		cmp	r1, #256
 1266 015a 22F00102 		bic	r2, r2, #1
 1267 015e 5A60     		str	r2, [r3, #4]
 1268 0160 CFD0     		beq	.L319
 1269 0162 DB68     		ldr	r3, [r3, #12]
 1270 0164 8DE7     		b	.L274
 1271              	.L283:
 1272 0166 A06B     		ldr	r0, [r4, #56]
 1273 0168 38B1     		cbz	r0, .L287
 1274 016a FFF7FEFF 		bl	HAL_DMA_Abort
 1275 016e 20B1     		cbz	r0, .L287
 1276 0170 636C     		ldr	r3, [r4, #68]
 1277 0172 43F00803 		orr	r3, r3, #8
 1278 0176 0126     		movs	r6, #1
 1279 0178 6364     		str	r3, [r4, #68]
ARM GAS  /var/folders/lp/x54gwt890xv47sdkqj1k04q40000gn/T//ccO3X8Y1.s 			page 23


 1280              	.L287:
 1281 017a FFF7FEFF 		bl	HAL_GetTick
 1282 017e DFF8A080 		ldr	r8, .L328
 1283 0182 284F     		ldr	r7, .L328+4
 1284 0184 0546     		mov	r5, r0
 1285 0186 04E0     		b	.L289
 1286              	.L291:
 1287 0188 FFF7FEFF 		bl	HAL_GetTick
 1288 018c 401B     		subs	r0, r0, r5
 1289 018e 6428     		cmp	r0, #100
 1290 0190 37D8     		bhi	.L327
 1291              	.L289:
 1292 0192 2368     		ldr	r3, [r4]
 1293 0194 4345     		cmp	r3, r8
 1294 0196 0CBF     		ite	eq
 1295 0198 3A46     		moveq	r2, r7
 1296 019a 4FF04022 		movne	r2, #1073758208
 1297 019e 9268     		ldr	r2, [r2, #8]
 1298 01a0 9207     		lsls	r2, r2, #30
 1299 01a2 F1D5     		bpl	.L291
 1300 01a4 DFF87880 		ldr	r8, .L328
 1301 01a8 1E4F     		ldr	r7, .L328+4
 1302 01aa 05E0     		b	.L294
 1303              	.L296:
 1304 01ac FFF7FEFF 		bl	HAL_GetTick
 1305 01b0 401B     		subs	r0, r0, r5
 1306 01b2 6428     		cmp	r0, #100
 1307 01b4 1DD8     		bhi	.L293
 1308              	.L318:
 1309 01b6 2368     		ldr	r3, [r4]
 1310              	.L294:
 1311 01b8 4345     		cmp	r3, r8
 1312 01ba 0CBF     		ite	eq
 1313 01bc 3946     		moveq	r1, r7
 1314 01be 4FF04021 		movne	r1, #1073758208
 1315 01c2 8A68     		ldr	r2, [r1, #8]
 1316 01c4 12F08002 		ands	r2, r2, #128
 1317 01c8 F0D1     		bne	.L296
 1318 01ca C869     		ldr	r0, [r1, #28]
 1319 01cc 20F48060 		bic	r0, r0, #1024
 1320 01d0 C861     		str	r0, [r1, #28]
 1321 01d2 0292     		str	r2, [sp, #8]
 1322 01d4 8A68     		ldr	r2, [r1, #8]
 1323 01d6 0292     		str	r2, [sp, #8]
 1324 01d8 029A     		ldr	r2, [sp, #8]
 1325 01da 4A68     		ldr	r2, [r1, #4]
 1326 01dc 22F00202 		bic	r2, r2, #2
 1327 01e0 4A60     		str	r2, [r1, #4]
 1328 01e2 ABE7     		b	.L284
 1329              	.L276:
 1330 01e4 626C     		ldr	r2, [r4, #68]
 1331 01e6 2368     		ldr	r3, [r4]
 1332 01e8 42F00802 		orr	r2, r2, #8
 1333 01ec 6264     		str	r2, [r4, #68]
 1334 01ee 0126     		movs	r6, #1
 1335 01f0 70E7     		b	.L275
 1336              	.L293:
ARM GAS  /var/folders/lp/x54gwt890xv47sdkqj1k04q40000gn/T//ccO3X8Y1.s 			page 24


 1337 01f2 636C     		ldr	r3, [r4, #68]
 1338 01f4 0126     		movs	r6, #1
 1339 01f6 43F00103 		orr	r3, r3, #1
 1340 01fa 6364     		str	r3, [r4, #68]
 1341 01fc 84F84160 		strb	r6, [r4, #65]
 1342 0200 D9E7     		b	.L318
 1343              	.L327:
 1344 0202 636C     		ldr	r3, [r4, #68]
 1345 0204 0126     		movs	r6, #1
 1346 0206 43F00103 		orr	r3, r3, #1
 1347 020a 6364     		str	r3, [r4, #68]
 1348 020c 84F84160 		strb	r6, [r4, #65]
 1349 0210 BFE7     		b	.L289
 1350              	.L326:
 1351 0212 636C     		ldr	r3, [r4, #68]
 1352 0214 43F00803 		orr	r3, r3, #8
 1353 0218 0126     		movs	r6, #1
 1354 021a 6364     		str	r3, [r4, #68]
 1355 021c 89E7     		b	.L281
 1356              	.L329:
 1357 021e 00BF     		.align	2
 1358              	.L328:
 1359 0220 00380040 		.word	1073756160
 1360 0224 00340040 		.word	1073755136
 1362              		.section	.text.HAL_I2S_IRQHandler,"ax",%progbits
 1363              		.align	1
 1364              		.p2align 2,,3
 1365              		.global	HAL_I2S_IRQHandler
 1366              		.syntax unified
 1367              		.thumb
 1368              		.thumb_func
 1370              	HAL_I2S_IRQHandler:
 1371              		@ args = 0, pretend = 0, frame = 0
 1372              		@ frame_needed = 0, uses_anonymous_args = 0
 1373              		@ link register save eliminated.
 1374 0000 436B     		ldr	r3, [r0, #52]
 1375 0002 1847     		bx	r3	@ indirect register sibling call
 1377              		.section	.text.HAL_I2S_TxHalfCpltCallback,"ax",%progbits
 1378              		.align	1
 1379              		.p2align 2,,3
 1380              		.weak	HAL_I2S_TxHalfCpltCallback
 1381              		.syntax unified
 1382              		.thumb
 1383              		.thumb_func
 1385              	HAL_I2S_TxHalfCpltCallback:
 1386              		@ args = 0, pretend = 0, frame = 0
 1387              		@ frame_needed = 0, uses_anonymous_args = 0
 1388              		@ link register save eliminated.
 1389 0000 7047     		bx	lr
 1391 0002 00BF     		.section	.text.I2S_DMATxHalfCplt,"ax",%progbits
 1392              		.align	1
 1393              		.p2align 2,,3
 1394              		.syntax unified
 1395              		.thumb
 1396              		.thumb_func
 1398              	I2S_DMATxHalfCplt:
 1399              		@ args = 0, pretend = 0, frame = 0
ARM GAS  /var/folders/lp/x54gwt890xv47sdkqj1k04q40000gn/T//ccO3X8Y1.s 			page 25


 1400              		@ frame_needed = 0, uses_anonymous_args = 0
 1401 0000 08B5     		push	{r3, lr}
 1402 0002 806B     		ldr	r0, [r0, #56]
 1403 0004 FFF7FEFF 		bl	HAL_I2S_TxHalfCpltCallback
 1404 0008 08BD     		pop	{r3, pc}
 1406 000a 00BF     		.section	.text.HAL_I2S_TxCpltCallback,"ax",%progbits
 1407              		.align	1
 1408              		.p2align 2,,3
 1409              		.weak	HAL_I2S_TxCpltCallback
 1410              		.syntax unified
 1411              		.thumb
 1412              		.thumb_func
 1414              	HAL_I2S_TxCpltCallback:
 1415              		@ args = 0, pretend = 0, frame = 0
 1416              		@ frame_needed = 0, uses_anonymous_args = 0
 1417              		@ link register save eliminated.
 1418 0000 7047     		bx	lr
 1420 0002 00BF     		.section	.text.I2S_DMATxCplt,"ax",%progbits
 1421              		.align	1
 1422              		.p2align 2,,3
 1423              		.syntax unified
 1424              		.thumb
 1425              		.thumb_func
 1427              	I2S_DMATxCplt:
 1428              		@ args = 0, pretend = 0, frame = 0
 1429              		@ frame_needed = 0, uses_anonymous_args = 0
 1430 0000 08B5     		push	{r3, lr}
 1431 0002 C369     		ldr	r3, [r0, #28]
 1432 0004 806B     		ldr	r0, [r0, #56]
 1433 0006 4BB9     		cbnz	r3, .L336
 1434 0008 0168     		ldr	r1, [r0]
 1435 000a 4A68     		ldr	r2, [r1, #4]
 1436 000c 4FF0010C 		mov	ip, #1
 1437 0010 22F00202 		bic	r2, r2, #2
 1438 0014 4A60     		str	r2, [r1, #4]
 1439 0016 4385     		strh	r3, [r0, #42]	@ movhi
 1440 0018 80F841C0 		strb	ip, [r0, #65]
 1441              	.L336:
 1442 001c FFF7FEFF 		bl	HAL_I2S_TxCpltCallback
 1443 0020 08BD     		pop	{r3, pc}
 1445 0022 00BF     		.section	.text.HAL_I2S_RxHalfCpltCallback,"ax",%progbits
 1446              		.align	1
 1447              		.p2align 2,,3
 1448              		.weak	HAL_I2S_RxHalfCpltCallback
 1449              		.syntax unified
 1450              		.thumb
 1451              		.thumb_func
 1453              	HAL_I2S_RxHalfCpltCallback:
 1454              		@ args = 0, pretend = 0, frame = 0
 1455              		@ frame_needed = 0, uses_anonymous_args = 0
 1456              		@ link register save eliminated.
 1457 0000 7047     		bx	lr
 1459 0002 00BF     		.section	.text.I2S_DMARxHalfCplt,"ax",%progbits
 1460              		.align	1
 1461              		.p2align 2,,3
 1462              		.syntax unified
 1463              		.thumb
ARM GAS  /var/folders/lp/x54gwt890xv47sdkqj1k04q40000gn/T//ccO3X8Y1.s 			page 26


 1464              		.thumb_func
 1466              	I2S_DMARxHalfCplt:
 1467              		@ args = 0, pretend = 0, frame = 0
 1468              		@ frame_needed = 0, uses_anonymous_args = 0
 1469 0000 08B5     		push	{r3, lr}
 1470 0002 806B     		ldr	r0, [r0, #56]
 1471 0004 FFF7FEFF 		bl	HAL_I2S_RxHalfCpltCallback
 1472 0008 08BD     		pop	{r3, pc}
 1474 000a 00BF     		.section	.text.HAL_I2S_RxCpltCallback,"ax",%progbits
 1475              		.align	1
 1476              		.p2align 2,,3
 1477              		.weak	HAL_I2S_RxCpltCallback
 1478              		.syntax unified
 1479              		.thumb
 1480              		.thumb_func
 1482              	HAL_I2S_RxCpltCallback:
 1483              		@ args = 0, pretend = 0, frame = 0
 1484              		@ frame_needed = 0, uses_anonymous_args = 0
 1485              		@ link register save eliminated.
 1486 0000 7047     		bx	lr
 1488 0002 00BF     		.section	.text.I2S_DMARxCplt,"ax",%progbits
 1489              		.align	1
 1490              		.p2align 2,,3
 1491              		.syntax unified
 1492              		.thumb
 1493              		.thumb_func
 1495              	I2S_DMARxCplt:
 1496              		@ args = 0, pretend = 0, frame = 0
 1497              		@ frame_needed = 0, uses_anonymous_args = 0
 1498 0000 08B5     		push	{r3, lr}
 1499 0002 C369     		ldr	r3, [r0, #28]
 1500 0004 806B     		ldr	r0, [r0, #56]
 1501 0006 4BB9     		cbnz	r3, .L343
 1502 0008 0168     		ldr	r1, [r0]
 1503 000a 4A68     		ldr	r2, [r1, #4]
 1504 000c 4FF0010C 		mov	ip, #1
 1505 0010 22F00102 		bic	r2, r2, #1
 1506 0014 4A60     		str	r2, [r1, #4]
 1507 0016 4386     		strh	r3, [r0, #50]	@ movhi
 1508 0018 80F841C0 		strb	ip, [r0, #65]
 1509              	.L343:
 1510 001c FFF7FEFF 		bl	HAL_I2S_RxCpltCallback
 1511 0020 08BD     		pop	{r3, pc}
 1513 0022 00BF     		.section	.text.HAL_I2S_ErrorCallback,"ax",%progbits
 1514              		.align	1
 1515              		.p2align 2,,3
 1516              		.weak	HAL_I2S_ErrorCallback
 1517              		.syntax unified
 1518              		.thumb
 1519              		.thumb_func
 1521              	HAL_I2S_ErrorCallback:
 1522              		@ args = 0, pretend = 0, frame = 0
 1523              		@ frame_needed = 0, uses_anonymous_args = 0
 1524              		@ link register save eliminated.
 1525 0000 7047     		bx	lr
 1527 0002 00BF     		.section	.text.I2S_IRQHandler,"ax",%progbits
 1528              		.align	1
ARM GAS  /var/folders/lp/x54gwt890xv47sdkqj1k04q40000gn/T//ccO3X8Y1.s 			page 27


 1529              		.p2align 2,,3
 1530              		.syntax unified
 1531              		.thumb
 1532              		.thumb_func
 1534              	I2S_IRQHandler:
 1535              		@ args = 0, pretend = 0, frame = 16
 1536              		@ frame_needed = 0, uses_anonymous_args = 0
 1537 0000 10B5     		push	{r4, lr}
 1538 0002 0368     		ldr	r3, [r0]
 1539 0004 84B0     		sub	sp, sp, #16
 1540 0006 9A68     		ldr	r2, [r3, #8]
 1541 0008 0192     		str	r2, [sp, #4]
 1542 000a 90F84120 		ldrb	r2, [r0, #65]	@ zero_extendqisi2
 1543 000e 042A     		cmp	r2, #4
 1544 0010 0446     		mov	r4, r0
 1545 0012 05D0     		beq	.L378
 1546              	.L348:
 1547 0014 94F84130 		ldrb	r3, [r4, #65]	@ zero_extendqisi2
 1548 0018 032B     		cmp	r3, #3
 1549 001a 31D0     		beq	.L379
 1550              	.L346:
 1551 001c 04B0     		add	sp, sp, #16
 1552              		@ sp needed
 1553 001e 10BD     		pop	{r4, pc}
 1554              	.L378:
 1555 0020 019A     		ldr	r2, [sp, #4]
 1556 0022 D107     		lsls	r1, r2, #31
 1557 0024 0FD5     		bpl	.L350
 1558 0026 5A68     		ldr	r2, [r3, #4]
 1559 0028 5206     		lsls	r2, r2, #25
 1560 002a 0CD5     		bpl	.L350
 1561 002c C16A     		ldr	r1, [r0, #44]
 1562 002e DA68     		ldr	r2, [r3, #12]
 1563 0030 21F8022B 		strh	r2, [r1], #2	@ movhi
 1564 0034 428E     		ldrh	r2, [r0, #50]
 1565 0036 C162     		str	r1, [r0, #44]
 1566 0038 013A     		subs	r2, r2, #1
 1567 003a 92B2     		uxth	r2, r2
 1568 003c 4286     		strh	r2, [r0, #50]	@ movhi
 1569 003e 428E     		ldrh	r2, [r0, #50]
 1570 0040 92B2     		uxth	r2, r2
 1571 0042 002A     		cmp	r2, #0
 1572 0044 4AD0     		beq	.L380
 1573              	.L350:
 1574 0046 019B     		ldr	r3, [sp, #4]
 1575 0048 5906     		lsls	r1, r3, #25
 1576 004a E3D5     		bpl	.L348
 1577 004c 2368     		ldr	r3, [r4]
 1578 004e 5A68     		ldr	r2, [r3, #4]
 1579 0050 9206     		lsls	r2, r2, #26
 1580 0052 DFD5     		bpl	.L348
 1581 0054 5A68     		ldr	r2, [r3, #4]
 1582 0056 0021     		movs	r1, #0
 1583 0058 22F06002 		bic	r2, r2, #96
 1584 005c 5A60     		str	r2, [r3, #4]
 1585 005e 0291     		str	r1, [sp, #8]
 1586 0060 DA68     		ldr	r2, [r3, #12]
ARM GAS  /var/folders/lp/x54gwt890xv47sdkqj1k04q40000gn/T//ccO3X8Y1.s 			page 28


 1587 0062 0292     		str	r2, [sp, #8]
 1588 0064 9B68     		ldr	r3, [r3, #8]
 1589 0066 0293     		str	r3, [sp, #8]
 1590 0068 0123     		movs	r3, #1
 1591 006a 029A     		ldr	r2, [sp, #8]
 1592 006c 84F84130 		strb	r3, [r4, #65]
 1593 0070 636C     		ldr	r3, [r4, #68]
 1594 0072 43F00203 		orr	r3, r3, #2
 1595 0076 2046     		mov	r0, r4
 1596 0078 6364     		str	r3, [r4, #68]
 1597 007a FFF7FEFF 		bl	HAL_I2S_ErrorCallback
 1598 007e C9E7     		b	.L348
 1599              	.L379:
 1600 0080 019B     		ldr	r3, [sp, #4]
 1601 0082 9B07     		lsls	r3, r3, #30
 1602 0084 0FD5     		bpl	.L356
 1603 0086 2368     		ldr	r3, [r4]
 1604 0088 5A68     		ldr	r2, [r3, #4]
 1605 008a 1006     		lsls	r0, r2, #24
 1606 008c 0BD5     		bpl	.L356
 1607 008e 616A     		ldr	r1, [r4, #36]
 1608 0090 31F8022B 		ldrh	r2, [r1], #2
 1609 0094 DA60     		str	r2, [r3, #12]
 1610 0096 628D     		ldrh	r2, [r4, #42]
 1611 0098 6162     		str	r1, [r4, #36]
 1612 009a 013A     		subs	r2, r2, #1
 1613 009c 92B2     		uxth	r2, r2
 1614 009e 6285     		strh	r2, [r4, #42]	@ movhi
 1615 00a0 628D     		ldrh	r2, [r4, #42]
 1616 00a2 92B2     		uxth	r2, r2
 1617 00a4 22B3     		cbz	r2, .L381
 1618              	.L356:
 1619 00a6 019B     		ldr	r3, [sp, #4]
 1620 00a8 1907     		lsls	r1, r3, #28
 1621 00aa B7D5     		bpl	.L346
 1622 00ac 2368     		ldr	r3, [r4]
 1623 00ae 5A68     		ldr	r2, [r3, #4]
 1624 00b0 9206     		lsls	r2, r2, #26
 1625 00b2 B3D5     		bpl	.L346
 1626 00b4 5A68     		ldr	r2, [r3, #4]
 1627 00b6 0021     		movs	r1, #0
 1628 00b8 22F0A002 		bic	r2, r2, #160
 1629 00bc 5A60     		str	r2, [r3, #4]
 1630 00be 0391     		str	r1, [sp, #12]
 1631 00c0 9B68     		ldr	r3, [r3, #8]
 1632 00c2 0393     		str	r3, [sp, #12]
 1633 00c4 0123     		movs	r3, #1
 1634 00c6 039A     		ldr	r2, [sp, #12]
 1635 00c8 84F84130 		strb	r3, [r4, #65]
 1636 00cc 636C     		ldr	r3, [r4, #68]
 1637 00ce 43F00403 		orr	r3, r3, #4
 1638 00d2 2046     		mov	r0, r4
 1639 00d4 6364     		str	r3, [r4, #68]
 1640 00d6 FFF7FEFF 		bl	HAL_I2S_ErrorCallback
 1641 00da 9FE7     		b	.L346
 1642              	.L380:
 1643 00dc 5A68     		ldr	r2, [r3, #4]
ARM GAS  /var/folders/lp/x54gwt890xv47sdkqj1k04q40000gn/T//ccO3X8Y1.s 			page 29


 1644 00de 0121     		movs	r1, #1
 1645 00e0 22F06002 		bic	r2, r2, #96
 1646 00e4 5A60     		str	r2, [r3, #4]
 1647 00e6 80F84110 		strb	r1, [r0, #65]
 1648 00ea FFF7FEFF 		bl	HAL_I2S_RxCpltCallback
 1649 00ee AAE7     		b	.L350
 1650              	.L381:
 1651 00f0 5A68     		ldr	r2, [r3, #4]
 1652 00f2 0121     		movs	r1, #1
 1653 00f4 22F0A002 		bic	r2, r2, #160
 1654 00f8 5A60     		str	r2, [r3, #4]
 1655 00fa 2046     		mov	r0, r4
 1656 00fc 84F84110 		strb	r1, [r4, #65]
 1657 0100 FFF7FEFF 		bl	HAL_I2S_TxCpltCallback
 1658 0104 CFE7     		b	.L356
 1660 0106 00BF     		.section	.text.I2S_DMAError,"ax",%progbits
 1661              		.align	1
 1662              		.p2align 2,,3
 1663              		.syntax unified
 1664              		.thumb
 1665              		.thumb_func
 1667              	I2S_DMAError:
 1668              		@ args = 0, pretend = 0, frame = 0
 1669              		@ frame_needed = 0, uses_anonymous_args = 0
 1670 0000 806B     		ldr	r0, [r0, #56]
 1671 0002 0168     		ldr	r1, [r0]
 1672 0004 08B5     		push	{r3, lr}
 1673 0006 4B68     		ldr	r3, [r1, #4]
 1674 0008 0022     		movs	r2, #0
 1675 000a 4FF0010C 		mov	ip, #1
 1676 000e 23F00303 		bic	r3, r3, #3
 1677 0012 4B60     		str	r3, [r1, #4]
 1678 0014 4285     		strh	r2, [r0, #42]	@ movhi
 1679 0016 4286     		strh	r2, [r0, #50]	@ movhi
 1680 0018 80F841C0 		strb	ip, [r0, #65]
 1681 001c 436C     		ldr	r3, [r0, #68]
 1682 001e 43F00803 		orr	r3, r3, #8
 1683 0022 4364     		str	r3, [r0, #68]
 1684 0024 FFF7FEFF 		bl	HAL_I2S_ErrorCallback
 1685 0028 08BD     		pop	{r3, pc}
 1687 002a 00BF     		.section	.text.HAL_I2S_GetState,"ax",%progbits
 1688              		.align	1
 1689              		.p2align 2,,3
 1690              		.global	HAL_I2S_GetState
 1691              		.syntax unified
 1692              		.thumb
 1693              		.thumb_func
 1695              	HAL_I2S_GetState:
 1696              		@ args = 0, pretend = 0, frame = 0
 1697              		@ frame_needed = 0, uses_anonymous_args = 0
 1698              		@ link register save eliminated.
 1699 0000 90F84100 		ldrb	r0, [r0, #65]	@ zero_extendqisi2
 1700 0004 7047     		bx	lr
 1702 0006 00BF     		.section	.text.HAL_I2S_GetError,"ax",%progbits
 1703              		.align	1
 1704              		.p2align 2,,3
 1705              		.global	HAL_I2S_GetError
ARM GAS  /var/folders/lp/x54gwt890xv47sdkqj1k04q40000gn/T//ccO3X8Y1.s 			page 30


 1706              		.syntax unified
 1707              		.thumb
 1708              		.thumb_func
 1710              	HAL_I2S_GetError:
 1711              		@ args = 0, pretend = 0, frame = 0
 1712              		@ frame_needed = 0, uses_anonymous_args = 0
 1713              		@ link register save eliminated.
 1714 0000 406C     		ldr	r0, [r0, #68]
 1715 0002 7047     		bx	lr
 1717              		.ident	"GCC: (xPack GNU Arm Embedded GCC arm64) 13.3.1 20240614"
ARM GAS  /var/folders/lp/x54gwt890xv47sdkqj1k04q40000gn/T//ccO3X8Y1.s 			page 31

