ARM GAS  /var/folders/lp/x54gwt890xv47sdkqj1k04q40000gn/T//ccL5rsIm.s 			page 1


   1              		.cpu cortex-m4
   2              		.arch armv7e-m
   3              		.fpu fpv4-sp-d16
   4              		.eabi_attribute 27, 1
   5              		.eabi_attribute 28, 1
   6              		.eabi_attribute 20, 1
   7              		.eabi_attribute 21, 1
   8              		.eabi_attribute 23, 3
   9              		.eabi_attribute 24, 1
  10              		.eabi_attribute 25, 1
  11              		.eabi_attribute 26, 1
  12              		.eabi_attribute 30, 2
  13              		.eabi_attribute 34, 1
  14              		.eabi_attribute 18, 4
  15              		.file	"stm32f4xx_hal_rcc_ex.c"
  16              		.text
  17              		.section	.text.HAL_RCCEx_PeriphCLKConfig,"ax",%progbits
  18              		.align	1
  19              		.p2align 2,,3
  20              		.global	HAL_RCCEx_PeriphCLKConfig
  21              		.syntax unified
  22              		.thumb
  23              		.thumb_func
  25              	HAL_RCCEx_PeriphCLKConfig:
  26              		@ args = 0, pretend = 0, frame = 8
  27              		@ frame_needed = 0, uses_anonymous_args = 0
  28 0000 F0B5     		push	{r4, r5, r6, r7, lr}
  29 0002 0368     		ldr	r3, [r0]
  30 0004 13F0050F 		tst	r3, #5
  31 0008 83B0     		sub	sp, sp, #12
  32 000a 0446     		mov	r4, r0
  33 000c 04D1     		bne	.L29
  34              	.L2:
  35 000e 9807     		lsls	r0, r3, #30
  36 0010 3BD4     		bmi	.L9
  37              	.L18:
  38 0012 0020     		movs	r0, #0
  39 0014 03B0     		add	sp, sp, #12
  40              		@ sp needed
  41 0016 F0BD     		pop	{r4, r5, r6, r7, pc}
  42              	.L29:
  43 0018 454B     		ldr	r3, .L31
  44 001a 464E     		ldr	r6, .L31+4
  45 001c 0022     		movs	r2, #0
  46 001e 9A66     		str	r2, [r3, #104]
  47 0020 FFF7FEFF 		bl	HAL_GetTick
  48 0024 0546     		mov	r5, r0
  49 0026 04E0     		b	.L3
  50              	.L5:
  51 0028 FFF7FEFF 		bl	HAL_GetTick
  52 002c 431B     		subs	r3, r0, r5
  53 002e 022B     		cmp	r3, #2
  54 0030 28D8     		bhi	.L7
  55              	.L3:
  56 0032 3368     		ldr	r3, [r6]
  57 0034 1B01     		lsls	r3, r3, #4
  58 0036 F7D4     		bmi	.L5
ARM GAS  /var/folders/lp/x54gwt890xv47sdkqj1k04q40000gn/T//ccL5rsIm.s 			page 2


  59 0038 D4E90113 		ldrd	r1, r3, [r4, #4]
  60 003c 1B07     		lsls	r3, r3, #28
  61 003e 43EA8113 		orr	r3, r3, r1, lsl #6
  62 0042 3B4A     		ldr	r2, .L31
  63 0044 C6F88430 		str	r3, [r6, #132]
  64 0048 0123     		movs	r3, #1
  65 004a 9366     		str	r3, [r2, #104]
  66 004c FFF7FEFF 		bl	HAL_GetTick
  67 0050 384E     		ldr	r6, .L31+4
  68 0052 0546     		mov	r5, r0
  69 0054 04E0     		b	.L6
  70              	.L8:
  71 0056 FFF7FEFF 		bl	HAL_GetTick
  72 005a 431B     		subs	r3, r0, r5
  73 005c 022B     		cmp	r3, #2
  74 005e 11D8     		bhi	.L7
  75              	.L6:
  76 0060 3368     		ldr	r3, [r6]
  77 0062 1F01     		lsls	r7, r3, #4
  78 0064 F7D5     		bpl	.L8
  79 0066 2368     		ldr	r3, [r4]
  80 0068 D1E7     		b	.L2
  81              	.L13:
  82 006a FFF7FEFF 		bl	HAL_GetTick
  83 006e 41F28837 		movw	r7, #5000
  84 0072 0646     		mov	r6, r0
  85              	.L14:
  86 0074 2B6F     		ldr	r3, [r5, #112]
  87 0076 9B07     		lsls	r3, r3, #30
  88 0078 3CD4     		bmi	.L27
  89 007a FFF7FEFF 		bl	HAL_GetTick
  90 007e 801B     		subs	r0, r0, r6
  91 0080 B842     		cmp	r0, r7
  92 0082 F7D9     		bls	.L14
  93              	.L7:
  94 0084 0320     		movs	r0, #3
  95 0086 03B0     		add	sp, sp, #12
  96              		@ sp needed
  97 0088 F0BD     		pop	{r4, r5, r6, r7, pc}
  98              	.L9:
  99 008a 2A4B     		ldr	r3, .L31+4
 100 008c 2A4D     		ldr	r5, .L31+8
 101 008e 0022     		movs	r2, #0
 102 0090 0192     		str	r2, [sp, #4]
 103 0092 1A6C     		ldr	r2, [r3, #64]
 104 0094 42F08052 		orr	r2, r2, #268435456
 105 0098 1A64     		str	r2, [r3, #64]
 106 009a 1B6C     		ldr	r3, [r3, #64]
 107 009c 03F08053 		and	r3, r3, #268435456
 108 00a0 0193     		str	r3, [sp, #4]
 109 00a2 019B     		ldr	r3, [sp, #4]
 110 00a4 2B68     		ldr	r3, [r5]
 111 00a6 43F48073 		orr	r3, r3, #256
 112 00aa 2B60     		str	r3, [r5]
 113 00ac FFF7FEFF 		bl	HAL_GetTick
 114 00b0 0646     		mov	r6, r0
 115 00b2 04E0     		b	.L10
ARM GAS  /var/folders/lp/x54gwt890xv47sdkqj1k04q40000gn/T//ccL5rsIm.s 			page 3


 116              	.L11:
 117 00b4 FFF7FEFF 		bl	HAL_GetTick
 118 00b8 831B     		subs	r3, r0, r6
 119 00ba 022B     		cmp	r3, #2
 120 00bc E2D8     		bhi	.L7
 121              	.L10:
 122 00be 2B68     		ldr	r3, [r5]
 123 00c0 D905     		lsls	r1, r3, #23
 124 00c2 F7D5     		bpl	.L11
 125 00c4 1B4D     		ldr	r5, .L31+4
 126 00c6 E368     		ldr	r3, [r4, #12]
 127 00c8 2A6F     		ldr	r2, [r5, #112]
 128 00ca 12F44072 		ands	r2, r2, #768
 129 00ce 03F44071 		and	r1, r3, #768
 130 00d2 12D0     		beq	.L12
 131 00d4 8A42     		cmp	r2, r1
 132 00d6 10D0     		beq	.L12
 133 00d8 2B6F     		ldr	r3, [r5, #112]
 134 00da 154A     		ldr	r2, .L31
 135 00dc 0121     		movs	r1, #1
 136 00de C2F8401E 		str	r1, [r2, #3648]
 137 00e2 23F44073 		bic	r3, r3, #768
 138 00e6 0021     		movs	r1, #0
 139 00e8 C2F8401E 		str	r1, [r2, #3648]
 140 00ec 2B67     		str	r3, [r5, #112]
 141 00ee 2B6F     		ldr	r3, [r5, #112]
 142 00f0 DA07     		lsls	r2, r3, #31
 143 00f2 BAD4     		bmi	.L13
 144              	.L27:
 145 00f4 E368     		ldr	r3, [r4, #12]
 146 00f6 03F44071 		and	r1, r3, #768
 147              	.L12:
 148 00fa B1F5407F 		cmp	r1, #768
 149 00fe 0BD0     		beq	.L30
 150 0100 0C49     		ldr	r1, .L31+4
 151 0102 8A68     		ldr	r2, [r1, #8]
 152 0104 22F4F812 		bic	r2, r2, #2031616
 153 0108 8A60     		str	r2, [r1, #8]
 154              	.L17:
 155 010a 0A4A     		ldr	r2, .L31+4
 156 010c 116F     		ldr	r1, [r2, #112]
 157 010e C3F30B03 		ubfx	r3, r3, #0, #12
 158 0112 0B43     		orrs	r3, r3, r1
 159 0114 1367     		str	r3, [r2, #112]
 160 0116 7CE7     		b	.L18
 161              	.L30:
 162 0118 0648     		ldr	r0, .L31+4
 163 011a 8268     		ldr	r2, [r0, #8]
 164 011c 23F07041 		bic	r1, r3, #-268435456
 165 0120 21F44071 		bic	r1, r1, #768
 166 0124 22F4F812 		bic	r2, r2, #2031616
 167 0128 0A43     		orrs	r2, r2, r1
 168 012a 8260     		str	r2, [r0, #8]
 169 012c EDE7     		b	.L17
 170              	.L32:
 171 012e 00BF     		.align	2
 172              	.L31:
ARM GAS  /var/folders/lp/x54gwt890xv47sdkqj1k04q40000gn/T//ccL5rsIm.s 			page 4


 173 0130 00004742 		.word	1111949312
 174 0134 00380240 		.word	1073887232
 175 0138 00700040 		.word	1073770496
 177              		.section	.text.HAL_RCCEx_GetPeriphCLKConfig,"ax",%progbits
 178              		.align	1
 179              		.p2align 2,,3
 180              		.global	HAL_RCCEx_GetPeriphCLKConfig
 181              		.syntax unified
 182              		.thumb
 183              		.thumb_func
 185              	HAL_RCCEx_GetPeriphCLKConfig:
 186              		@ args = 0, pretend = 0, frame = 0
 187              		@ frame_needed = 0, uses_anonymous_args = 0
 188              		@ link register save eliminated.
 189 0000 0A4B     		ldr	r3, .L34
 190 0002 0322     		movs	r2, #3
 191 0004 0260     		str	r2, [r0]
 192 0006 D3F88420 		ldr	r2, [r3, #132]
 193 000a C2F38812 		ubfx	r2, r2, #6, #9
 194 000e 4260     		str	r2, [r0, #4]
 195 0010 D3F88420 		ldr	r2, [r3, #132]
 196 0014 C2F30272 		ubfx	r2, r2, #28, #3
 197 0018 8260     		str	r2, [r0, #8]
 198 001a 9A68     		ldr	r2, [r3, #8]
 199 001c 1B6F     		ldr	r3, [r3, #112]
 200 001e 02F4F812 		and	r2, r2, #2031616
 201 0022 03F44073 		and	r3, r3, #768
 202 0026 1343     		orrs	r3, r3, r2
 203 0028 C360     		str	r3, [r0, #12]
 204 002a 7047     		bx	lr
 205              	.L35:
 206              		.align	2
 207              	.L34:
 208 002c 00380240 		.word	1073887232
 210              		.section	.text.HAL_RCCEx_GetPeriphCLKFreq,"ax",%progbits
 211              		.align	1
 212              		.p2align 2,,3
 213              		.global	HAL_RCCEx_GetPeriphCLKFreq
 214              		.syntax unified
 215              		.thumb
 216              		.thumb_func
 218              	HAL_RCCEx_GetPeriphCLKFreq:
 219              		@ args = 0, pretend = 0, frame = 0
 220              		@ frame_needed = 0, uses_anonymous_args = 0
 221              		@ link register save eliminated.
 222 0000 0128     		cmp	r0, #1
 223 0002 01D0     		beq	.L42
 224              	.L41:
 225 0004 0020     		movs	r0, #0
 226 0006 7047     		bx	lr
 227              	.L42:
 228 0008 0D4B     		ldr	r3, .L43
 229 000a 9A68     		ldr	r2, [r3, #8]
 230 000c 1102     		lsls	r1, r2, #8
 231 000e F9D4     		bmi	.L41
 232 0010 5A68     		ldr	r2, [r3, #4]
 233 0012 5B68     		ldr	r3, [r3, #4]
ARM GAS  /var/folders/lp/x54gwt890xv47sdkqj1k04q40000gn/T//ccL5rsIm.s 			page 5


 234 0014 5202     		lsls	r2, r2, #9
 235 0016 4CBF     		ite	mi
 236 0018 0A4A     		ldrmi	r2, .L43+4
 237 001a 0B4A     		ldrpl	r2, .L43+8
 238 001c 03F03F03 		and	r3, r3, #63
 239 0020 B2FBF3F2 		udiv	r2, r2, r3
 240 0024 064B     		ldr	r3, .L43
 241 0026 D3F88400 		ldr	r0, [r3, #132]
 242 002a D3F88430 		ldr	r3, [r3, #132]
 243 002e C0F38810 		ubfx	r0, r0, #6, #9
 244 0032 02FB00F0 		mul	r0, r2, r0
 245 0036 C3F30273 		ubfx	r3, r3, #28, #3
 246 003a B0FBF3F0 		udiv	r0, r0, r3
 247 003e 7047     		bx	lr
 248              	.L44:
 249              		.align	2
 250              	.L43:
 251 0040 00380240 		.word	1073887232
 252 0044 00127A00 		.word	8000000
 253 0048 0024F400 		.word	16000000
 255              		.section	.text.HAL_RCCEx_EnablePLLI2S,"ax",%progbits
 256              		.align	1
 257              		.p2align 2,,3
 258              		.global	HAL_RCCEx_EnablePLLI2S
 259              		.syntax unified
 260              		.thumb
 261              		.thumb_func
 263              	HAL_RCCEx_EnablePLLI2S:
 264              		@ args = 0, pretend = 0, frame = 0
 265              		@ frame_needed = 0, uses_anonymous_args = 0
 266 0000 164B     		ldr	r3, .L54
 267 0002 0022     		movs	r2, #0
 268 0004 70B5     		push	{r4, r5, r6, lr}
 269 0006 9A66     		str	r2, [r3, #104]
 270 0008 0646     		mov	r6, r0
 271 000a FFF7FEFF 		bl	HAL_GetTick
 272 000e 144D     		ldr	r5, .L54+4
 273 0010 0446     		mov	r4, r0
 274 0012 04E0     		b	.L46
 275              	.L48:
 276 0014 FFF7FEFF 		bl	HAL_GetTick
 277 0018 001B     		subs	r0, r0, r4
 278 001a 0228     		cmp	r0, #2
 279 001c 1BD8     		bhi	.L50
 280              	.L46:
 281 001e 2B68     		ldr	r3, [r5]
 282 0020 1A01     		lsls	r2, r3, #4
 283 0022 F7D4     		bmi	.L48
 284 0024 D6E90013 		ldrd	r1, r3, [r6]
 285 0028 0C4A     		ldr	r2, .L54
 286 002a 1B07     		lsls	r3, r3, #28
 287 002c 43EA8113 		orr	r3, r3, r1, lsl #6
 288 0030 0121     		movs	r1, #1
 289 0032 C5F88430 		str	r3, [r5, #132]
 290 0036 9166     		str	r1, [r2, #104]
 291 0038 FFF7FEFF 		bl	HAL_GetTick
 292 003c 084D     		ldr	r5, .L54+4
ARM GAS  /var/folders/lp/x54gwt890xv47sdkqj1k04q40000gn/T//ccL5rsIm.s 			page 6


 293 003e 0446     		mov	r4, r0
 294 0040 04E0     		b	.L49
 295              	.L51:
 296 0042 FFF7FEFF 		bl	HAL_GetTick
 297 0046 001B     		subs	r0, r0, r4
 298 0048 0228     		cmp	r0, #2
 299 004a 04D8     		bhi	.L50
 300              	.L49:
 301 004c 2B68     		ldr	r3, [r5]
 302 004e 1B01     		lsls	r3, r3, #4
 303 0050 F7D5     		bpl	.L51
 304 0052 0020     		movs	r0, #0
 305 0054 70BD     		pop	{r4, r5, r6, pc}
 306              	.L50:
 307 0056 0320     		movs	r0, #3
 308 0058 70BD     		pop	{r4, r5, r6, pc}
 309              	.L55:
 310 005a 00BF     		.align	2
 311              	.L54:
 312 005c 00004742 		.word	1111949312
 313 0060 00380240 		.word	1073887232
 315              		.section	.text.HAL_RCCEx_DisablePLLI2S,"ax",%progbits
 316              		.align	1
 317              		.p2align 2,,3
 318              		.global	HAL_RCCEx_DisablePLLI2S
 319              		.syntax unified
 320              		.thumb
 321              		.thumb_func
 323              	HAL_RCCEx_DisablePLLI2S:
 324              		@ args = 0, pretend = 0, frame = 0
 325              		@ frame_needed = 0, uses_anonymous_args = 0
 326 0000 38B5     		push	{r3, r4, r5, lr}
 327 0002 0A4B     		ldr	r3, .L62
 328 0004 0A4D     		ldr	r5, .L62+4
 329 0006 0022     		movs	r2, #0
 330 0008 9A66     		str	r2, [r3, #104]
 331 000a FFF7FEFF 		bl	HAL_GetTick
 332 000e 0446     		mov	r4, r0
 333 0010 04E0     		b	.L57
 334              	.L59:
 335 0012 FFF7FEFF 		bl	HAL_GetTick
 336 0016 001B     		subs	r0, r0, r4
 337 0018 0228     		cmp	r0, #2
 338 001a 05D8     		bhi	.L60
 339              	.L57:
 340 001c 2B68     		ldr	r3, [r5]
 341 001e 13F00063 		ands	r3, r3, #134217728
 342 0022 F6D1     		bne	.L59
 343 0024 1846     		mov	r0, r3
 344 0026 38BD     		pop	{r3, r4, r5, pc}
 345              	.L60:
 346 0028 0320     		movs	r0, #3
 347 002a 38BD     		pop	{r3, r4, r5, pc}
 348              	.L63:
 349              		.align	2
 350              	.L62:
 351 002c 00004742 		.word	1111949312
ARM GAS  /var/folders/lp/x54gwt890xv47sdkqj1k04q40000gn/T//ccL5rsIm.s 			page 7


 352 0030 00380240 		.word	1073887232
 354              		.section	.text.HAL_RCC_DeInit,"ax",%progbits
 355              		.align	1
 356              		.p2align 2,,3
 357              		.global	HAL_RCC_DeInit
 358              		.syntax unified
 359              		.thumb
 360              		.thumb_func
 362              	HAL_RCC_DeInit:
 363              		@ args = 0, pretend = 0, frame = 0
 364              		@ frame_needed = 0, uses_anonymous_args = 0
 365 0000 70B5     		push	{r4, r5, r6, lr}
 366 0002 424C     		ldr	r4, .L79
 367 0004 FFF7FEFF 		bl	HAL_GetTick
 368 0008 2368     		ldr	r3, [r4]
 369 000a 43F00103 		orr	r3, r3, #1
 370 000e 0546     		mov	r5, r0
 371 0010 2360     		str	r3, [r4]
 372 0012 04E0     		b	.L65
 373              	.L67:
 374 0014 FFF7FEFF 		bl	HAL_GetTick
 375 0018 401B     		subs	r0, r0, r5
 376 001a 0228     		cmp	r0, #2
 377 001c 73D8     		bhi	.L69
 378              	.L65:
 379 001e 2368     		ldr	r3, [r4]
 380 0020 9807     		lsls	r0, r3, #30
 381 0022 F7D5     		bpl	.L67
 382 0024 2368     		ldr	r3, [r4]
 383 0026 394E     		ldr	r6, .L79
 384 0028 43F08003 		orr	r3, r3, #128
 385 002c 2360     		str	r3, [r4]
 386 002e FFF7FEFF 		bl	HAL_GetTick
 387 0032 0023     		movs	r3, #0
 388 0034 A360     		str	r3, [r4, #8]
 389 0036 0546     		mov	r5, r0
 390 0038 41F28834 		movw	r4, #5000
 391 003c 04E0     		b	.L68
 392              	.L70:
 393 003e FFF7FEFF 		bl	HAL_GetTick
 394 0042 401B     		subs	r0, r0, r5
 395 0044 A042     		cmp	r0, r4
 396 0046 5ED8     		bhi	.L69
 397              	.L68:
 398 0048 B368     		ldr	r3, [r6, #8]
 399 004a 13F00C0F 		tst	r3, #12
 400 004e F6D1     		bne	.L70
 401 0050 FFF7FEFF 		bl	HAL_GetTick
 402 0054 3368     		ldr	r3, [r6]
 403 0056 2D4D     		ldr	r5, .L79
 404 0058 23F45023 		bic	r3, r3, #851968
 405 005c 0446     		mov	r4, r0
 406 005e 3360     		str	r3, [r6]
 407 0060 04E0     		b	.L71
 408              	.L72:
 409 0062 FFF7FEFF 		bl	HAL_GetTick
 410 0066 001B     		subs	r0, r0, r4
ARM GAS  /var/folders/lp/x54gwt890xv47sdkqj1k04q40000gn/T//ccL5rsIm.s 			page 8


 411 0068 6428     		cmp	r0, #100
 412 006a 4CD8     		bhi	.L69
 413              	.L71:
 414 006c 2B68     		ldr	r3, [r5]
 415 006e 9903     		lsls	r1, r3, #14
 416 0070 F7D4     		bmi	.L72
 417 0072 FFF7FEFF 		bl	HAL_GetTick
 418 0076 2B68     		ldr	r3, [r5]
 419 0078 244E     		ldr	r6, .L79
 420 007a 23F08073 		bic	r3, r3, #16777216
 421 007e 0446     		mov	r4, r0
 422 0080 2B60     		str	r3, [r5]
 423 0082 04E0     		b	.L73
 424              	.L74:
 425 0084 FFF7FEFF 		bl	HAL_GetTick
 426 0088 001B     		subs	r0, r0, r4
 427 008a 0228     		cmp	r0, #2
 428 008c 3BD8     		bhi	.L69
 429              	.L73:
 430 008e 3368     		ldr	r3, [r6]
 431 0090 9A01     		lsls	r2, r3, #6
 432 0092 F7D4     		bmi	.L74
 433 0094 FFF7FEFF 		bl	HAL_GetTick
 434 0098 3368     		ldr	r3, [r6]
 435 009a 1C4C     		ldr	r4, .L79
 436 009c 23F08063 		bic	r3, r3, #67108864
 437 00a0 0546     		mov	r5, r0
 438 00a2 3360     		str	r3, [r6]
 439 00a4 04E0     		b	.L75
 440              	.L76:
 441 00a6 FFF7FEFF 		bl	HAL_GetTick
 442 00aa 401B     		subs	r0, r0, r5
 443 00ac 0228     		cmp	r0, #2
 444 00ae 2AD8     		bhi	.L69
 445              	.L75:
 446 00b0 2368     		ldr	r3, [r4]
 447 00b2 1B01     		lsls	r3, r3, #4
 448 00b4 F7D4     		bmi	.L76
 449 00b6 164A     		ldr	r2, .L79+4
 450 00b8 164B     		ldr	r3, .L79+8
 451 00ba 6260     		str	r2, [r4, #4]
 452 00bc C4F88430 		str	r3, [r4, #132]
 453 00c0 E368     		ldr	r3, [r4, #12]
 454 00c2 154A     		ldr	r2, .L79+12
 455 00c4 1549     		ldr	r1, .L79+16
 456 00c6 164D     		ldr	r5, .L79+20
 457 00c8 23F4F853 		bic	r3, r3, #7936
 458 00cc E360     		str	r3, [r4, #12]
 459 00ce E368     		ldr	r3, [r4, #12]
 460 00d0 23F40053 		bic	r3, r3, #8192
 461 00d4 E360     		str	r3, [r4, #12]
 462 00d6 E368     		ldr	r3, [r4, #12]
 463 00d8 43F41F03 		orr	r3, r3, #10420224
 464 00dc E360     		str	r3, [r4, #12]
 465 00de E368     		ldr	r3, [r4, #12]
 466 00e0 43F40013 		orr	r3, r3, #2097152
 467 00e4 E360     		str	r3, [r4, #12]
ARM GAS  /var/folders/lp/x54gwt890xv47sdkqj1k04q40000gn/T//ccL5rsIm.s 			page 9


 468 00e6 636F     		ldr	r3, [r4, #116]
 469 00e8 23F00103 		bic	r3, r3, #1
 470 00ec 6367     		str	r3, [r4, #116]
 471 00ee 636F     		ldr	r3, [r4, #116]
 472 00f0 43F08073 		orr	r3, r3, #16777216
 473 00f4 6367     		str	r3, [r4, #116]
 474 00f6 1068     		ldr	r0, [r2]
 475 00f8 0D60     		str	r5, [r1]
 476 00fa FFF7FEFF 		bl	HAL_InitTick
 477 00fe 0038     		subs	r0, r0, #0
 478 0100 18BF     		it	ne
 479 0102 0120     		movne	r0, #1
 480 0104 70BD     		pop	{r4, r5, r6, pc}
 481              	.L69:
 482 0106 0320     		movs	r0, #3
 483 0108 70BD     		pop	{r4, r5, r6, pc}
 484              	.L80:
 485 010a 00BF     		.align	2
 486              	.L79:
 487 010c 00380240 		.word	1073887232
 488 0110 10300004 		.word	67121168
 489 0114 00300020 		.word	536883200
 490 0118 00000000 		.word	uwTickPrio
 491 011c 00000000 		.word	SystemCoreClock
 492 0120 0024F400 		.word	16000000
 494              		.ident	"GCC: (xPack GNU Arm Embedded GCC arm64) 13.3.1 20240614"
ARM GAS  /var/folders/lp/x54gwt890xv47sdkqj1k04q40000gn/T//ccL5rsIm.s 			page 10

