ARM GAS  /var/folders/lp/x54gwt890xv47sdkqj1k04q40000gn/T//ccvSU633.s 			page 1


   1              		.cpu cortex-m4
   2              		.arch armv7e-m
   3              		.fpu fpv4-sp-d16
   4              		.eabi_attribute 27, 1
   5              		.eabi_attribute 28, 1
   6              		.eabi_attribute 20, 1
   7              		.eabi_attribute 21, 1
   8              		.eabi_attribute 23, 3
   9              		.eabi_attribute 24, 1
  10              		.eabi_attribute 25, 1
  11              		.eabi_attribute 26, 1
  12              		.eabi_attribute 30, 2
  13              		.eabi_attribute 34, 1
  14              		.eabi_attribute 18, 4
  15              		.file	"stm32f4_discovery_accelerometer.c"
  16              		.text
  17              		.section	.text.BSP_ACCELERO_Init,"ax",%progbits
  18              		.align	1
  19              		.p2align 2,,3
  20              		.global	BSP_ACCELERO_Init
  21              		.syntax unified
  22              		.thumb
  23              		.thumb_func
  25              	BSP_ACCELERO_Init:
  26              		@ args = 0, pretend = 0, frame = 0
  27              		@ frame_needed = 0, uses_anonymous_args = 0
  28 0000 38B5     		push	{r3, r4, r5, lr}
  29 0002 0E4C     		ldr	r4, .L10
  30 0004 A368     		ldr	r3, [r4, #8]
  31 0006 9847     		blx	r3
  32 0008 3B28     		cmp	r0, #59
  33 000a 0DD0     		beq	.L8
  34 000c 0C4C     		ldr	r4, .L10+4
  35 000e A368     		ldr	r3, [r4, #8]
  36 0010 9847     		blx	r3
  37 0012 3F28     		cmp	r0, #63
  38 0014 01D0     		beq	.L9
  39 0016 0120     		movs	r0, #1
  40 0018 38BD     		pop	{r3, r4, r5, pc}
  41              	.L9:
  42 001a 0A4A     		ldr	r2, .L10+8
  43 001c 2368     		ldr	r3, [r4]
  44 001e 1460     		str	r4, [r2]
  45 0020 6720     		movs	r0, #103
  46 0022 9847     		blx	r3
  47              	.L3:
  48 0024 0020     		movs	r0, #0
  49 0026 38BD     		pop	{r3, r4, r5, pc}
  50              	.L8:
  51 0028 064D     		ldr	r5, .L10+8
  52 002a 2368     		ldr	r3, [r4]
  53 002c 2C60     		str	r4, [r5]
  54 002e 4720     		movs	r0, #71
  55 0030 9847     		blx	r3
  56 0032 2B68     		ldr	r3, [r5]
  57 0034 2D20     		movs	r0, #45
  58 0036 9B6A     		ldr	r3, [r3, #40]
ARM GAS  /var/folders/lp/x54gwt890xv47sdkqj1k04q40000gn/T//ccvSU633.s 			page 2


  59 0038 9847     		blx	r3
  60 003a F3E7     		b	.L3
  61              	.L11:
  62              		.align	2
  63              	.L10:
  64 003c 00000000 		.word	Lis302dlDrv
  65 0040 00000000 		.word	Lis3dshDrv
  66 0044 00000000 		.word	AcceleroDrv
  68              		.section	.text.BSP_ACCELERO_ReadID,"ax",%progbits
  69              		.align	1
  70              		.p2align 2,,3
  71              		.global	BSP_ACCELERO_ReadID
  72              		.syntax unified
  73              		.thumb
  74              		.thumb_func
  76              	BSP_ACCELERO_ReadID:
  77              		@ args = 0, pretend = 0, frame = 0
  78              		@ frame_needed = 0, uses_anonymous_args = 0
  79              		@ link register save eliminated.
  80 0000 024B     		ldr	r3, .L14
  81 0002 1B68     		ldr	r3, [r3]
  82 0004 9868     		ldr	r0, [r3, #8]
  83 0006 00B1     		cbz	r0, .L13
  84 0008 0047     		bx	r0
  85              	.L13:
  86 000a 7047     		bx	lr
  87              	.L15:
  88              		.align	2
  89              	.L14:
  90 000c 00000000 		.word	AcceleroDrv
  92              		.section	.text.BSP_ACCELERO_Reset,"ax",%progbits
  93              		.align	1
  94              		.p2align 2,,3
  95              		.global	BSP_ACCELERO_Reset
  96              		.syntax unified
  97              		.thumb
  98              		.thumb_func
 100              	BSP_ACCELERO_Reset:
 101              		@ args = 0, pretend = 0, frame = 0
 102              		@ frame_needed = 0, uses_anonymous_args = 0
 103              		@ link register save eliminated.
 104 0000 024B     		ldr	r3, .L18
 105 0002 1B68     		ldr	r3, [r3]
 106 0004 DB68     		ldr	r3, [r3, #12]
 107 0006 03B1     		cbz	r3, .L16
 108 0008 1847     		bx	r3	@ indirect register sibling call
 109              	.L16:
 110 000a 7047     		bx	lr
 111              	.L19:
 112              		.align	2
 113              	.L18:
 114 000c 00000000 		.word	AcceleroDrv
 116              		.section	.text.BSP_ACCELERO_Click_ITConfig,"ax",%progbits
 117              		.align	1
 118              		.p2align 2,,3
 119              		.global	BSP_ACCELERO_Click_ITConfig
 120              		.syntax unified
ARM GAS  /var/folders/lp/x54gwt890xv47sdkqj1k04q40000gn/T//ccvSU633.s 			page 3


 121              		.thumb
 122              		.thumb_func
 124              	BSP_ACCELERO_Click_ITConfig:
 125              		@ args = 0, pretend = 0, frame = 0
 126              		@ frame_needed = 0, uses_anonymous_args = 0
 127              		@ link register save eliminated.
 128 0000 024B     		ldr	r3, .L22
 129 0002 1B68     		ldr	r3, [r3]
 130 0004 5B69     		ldr	r3, [r3, #20]
 131 0006 03B1     		cbz	r3, .L20
 132 0008 1847     		bx	r3	@ indirect register sibling call
 133              	.L20:
 134 000a 7047     		bx	lr
 135              	.L23:
 136              		.align	2
 137              	.L22:
 138 000c 00000000 		.word	AcceleroDrv
 140              		.section	.text.BSP_ACCELERO_Click_ITClear,"ax",%progbits
 141              		.align	1
 142              		.p2align 2,,3
 143              		.global	BSP_ACCELERO_Click_ITClear
 144              		.syntax unified
 145              		.thumb
 146              		.thumb_func
 148              	BSP_ACCELERO_Click_ITClear:
 149              		@ args = 0, pretend = 0, frame = 0
 150              		@ frame_needed = 0, uses_anonymous_args = 0
 151              		@ link register save eliminated.
 152 0000 024B     		ldr	r3, .L26
 153 0002 1B68     		ldr	r3, [r3]
 154 0004 5B6A     		ldr	r3, [r3, #36]
 155 0006 03B1     		cbz	r3, .L24
 156 0008 1847     		bx	r3	@ indirect register sibling call
 157              	.L24:
 158 000a 7047     		bx	lr
 159              	.L27:
 160              		.align	2
 161              	.L26:
 162 000c 00000000 		.word	AcceleroDrv
 164              		.section	.text.BSP_ACCELERO_GetXYZ,"ax",%progbits
 165              		.align	1
 166              		.p2align 2,,3
 167              		.global	BSP_ACCELERO_GetXYZ
 168              		.syntax unified
 169              		.thumb
 170              		.thumb_func
 172              	BSP_ACCELERO_GetXYZ:
 173              		@ args = 0, pretend = 0, frame = 0
 174              		@ frame_needed = 0, uses_anonymous_args = 0
 175 0000 38B5     		push	{r3, r4, r5, lr}
 176 0002 094D     		ldr	r5, .L34
 177 0004 2B68     		ldr	r3, [r5]
 178 0006 1B6B     		ldr	r3, [r3, #48]
 179 0008 2BB1     		cbz	r3, .L28
 180 000a 0446     		mov	r4, r0
 181 000c 9847     		blx	r3
 182 000e 074B     		ldr	r3, .L34+4
ARM GAS  /var/folders/lp/x54gwt890xv47sdkqj1k04q40000gn/T//ccvSU633.s 			page 4


 183 0010 2A68     		ldr	r2, [r5]
 184 0012 9A42     		cmp	r2, r3
 185 0014 00D0     		beq	.L33
 186              	.L28:
 187 0016 38BD     		pop	{r3, r4, r5, pc}
 188              	.L33:
 189 0018 B4F90030 		ldrsh	r3, [r4]
 190 001c 6288     		ldrh	r2, [r4, #2]
 191 001e 2280     		strh	r2, [r4]	@ movhi
 192 0020 5B42     		rsbs	r3, r3, #0
 193 0022 6380     		strh	r3, [r4, #2]	@ movhi
 194 0024 38BD     		pop	{r3, r4, r5, pc}
 195              	.L35:
 196 0026 00BF     		.align	2
 197              	.L34:
 198 0028 00000000 		.word	AcceleroDrv
 199 002c 00000000 		.word	Lis302dlDrv
 201              		.section	.bss.AcceleroDrv,"aw",%nobits
 202              		.align	2
 205              	AcceleroDrv:
 206 0000 00000000 		.space	4
 207              		.ident	"GCC: (xPack GNU Arm Embedded GCC arm64) 13.3.1 20240614"
ARM GAS  /var/folders/lp/x54gwt890xv47sdkqj1k04q40000gn/T//ccvSU633.s 			page 5

