ARM GAS  /var/folders/lp/x54gwt890xv47sdkqj1k04q40000gn/T//ccZoWwdF.s 			page 1


   1              		.cpu cortex-m4
   2              		.arch armv7e-m
   3              		.fpu fpv4-sp-d16
   4              		.eabi_attribute 27, 1
   5              		.eabi_attribute 28, 1
   6              		.eabi_attribute 20, 1
   7              		.eabi_attribute 21, 1
   8              		.eabi_attribute 23, 3
   9              		.eabi_attribute 24, 1
  10              		.eabi_attribute 25, 1
  11              		.eabi_attribute 26, 1
  12              		.eabi_attribute 30, 2
  13              		.eabi_attribute 34, 1
  14              		.eabi_attribute 18, 4
  15              		.file	"stm32f4xx_hal_i2c.c"
  16              		.text
  17              		.section	.text.I2C_WaitOnMasterAddressFlagUntilTimeout,"ax",%progbits
  18              		.align	1
  19              		.p2align 2,,3
  20              		.syntax unified
  21              		.thumb
  22              		.thumb_func
  24              	I2C_WaitOnMasterAddressFlagUntilTimeout:
  25              		@ args = 0, pretend = 0, frame = 0
  26              		@ frame_needed = 0, uses_anonymous_args = 0
  27 0000 2DE9F843 		push	{r3, r4, r5, r6, r7, r8, r9, lr}
  28 0004 8146     		mov	r9, r0
  29 0006 0E46     		mov	r6, r1
  30 0008 1746     		mov	r7, r2
  31 000a 9846     		mov	r8, r3
  32              	.L2:
  33 000c D9F80040 		ldr	r4, [r9]
  34 0010 04E0     		b	.L5
  35              	.L9:
  36 0012 6569     		ldr	r5, [r4, #20]
  37 0014 6A05     		lsls	r2, r5, #21
  38 0016 09D4     		bmi	.L17
  39 0018 7B1C     		adds	r3, r7, #1
  40 001a 21D1     		bne	.L18
  41              	.L5:
  42 001c 6069     		ldr	r0, [r4, #20]
  43 001e 26EA0000 		bic	r0, r6, r0
  44 0022 80B2     		uxth	r0, r0
  45 0024 0028     		cmp	r0, #0
  46 0026 F4D1     		bne	.L9
  47              	.L8:
  48 0028 BDE8F883 		pop	{r3, r4, r5, r6, r7, r8, r9, pc}
  49              	.L17:
  50 002c 2368     		ldr	r3, [r4]
  51 002e 43F40073 		orr	r3, r3, #512
  52 0032 2360     		str	r3, [r4]
  53 0034 0022     		movs	r2, #0
  54 0036 2023     		movs	r3, #32
  55 0038 6FF48061 		mvn	r1, #1024
  56 003c 6161     		str	r1, [r4, #20]
  57 003e C9F83020 		str	r2, [r9, #48]
  58 0042 89F83D30 		strb	r3, [r9, #61]
ARM GAS  /var/folders/lp/x54gwt890xv47sdkqj1k04q40000gn/T//ccZoWwdF.s 			page 2


  59 0046 89F83E20 		strb	r2, [r9, #62]
  60 004a D9F84030 		ldr	r3, [r9, #64]
  61 004e 43F00403 		orr	r3, r3, #4
  62 0052 C9F84030 		str	r3, [r9, #64]
  63              	.L4:
  64 0056 0023     		movs	r3, #0
  65 0058 89F83C30 		strb	r3, [r9, #60]
  66 005c 0120     		movs	r0, #1
  67 005e E3E7     		b	.L8
  68              	.L18:
  69 0060 FFF7FEFF 		bl	HAL_GetTick
  70 0064 A0EB0800 		sub	r0, r0, r8
  71 0068 B842     		cmp	r0, r7
  72 006a 01D8     		bhi	.L7
  73 006c 002F     		cmp	r7, #0
  74 006e CDD1     		bne	.L2
  75              	.L7:
  76 0070 0023     		movs	r3, #0
  77 0072 2022     		movs	r2, #32
  78 0074 C9F83030 		str	r3, [r9, #48]
  79 0078 89F83D20 		strb	r2, [r9, #61]
  80 007c 89F83E30 		strb	r3, [r9, #62]
  81 0080 D9F84030 		ldr	r3, [r9, #64]
  82 0084 1343     		orrs	r3, r3, r2
  83 0086 C9F84030 		str	r3, [r9, #64]
  84 008a E4E7     		b	.L4
  86              		.section	.text.I2C_WaitOnRXNEFlagUntilTimeout,"ax",%progbits
  87              		.align	1
  88              		.p2align 2,,3
  89              		.syntax unified
  90              		.thumb
  91              		.thumb_func
  93              	I2C_WaitOnRXNEFlagUntilTimeout:
  94              		@ args = 0, pretend = 0, frame = 0
  95              		@ frame_needed = 0, uses_anonymous_args = 0
  96 0000 F8B5     		push	{r3, r4, r5, r6, r7, lr}
  97 0002 0646     		mov	r6, r0
  98 0004 0D46     		mov	r5, r1
  99 0006 1746     		mov	r7, r2
 100 0008 08E0     		b	.L20
 101              	.L26:
 102 000a 6269     		ldr	r2, [r4, #20]
 103 000c D206     		lsls	r2, r2, #27
 104 000e 1BD4     		bmi	.L31
 105 0010 FFF7FEFF 		bl	HAL_GetTick
 106 0014 C01B     		subs	r0, r0, r7
 107 0016 A842     		cmp	r0, r5
 108 0018 07D8     		bhi	.L24
 109 001a 35B1     		cbz	r5, .L24
 110              	.L20:
 111 001c 3468     		ldr	r4, [r6]
 112 001e 6369     		ldr	r3, [r4, #20]
 113 0020 13F04003 		ands	r3, r3, #64
 114 0024 F1D0     		beq	.L26
 115 0026 0020     		movs	r0, #0
 116 0028 F8BD     		pop	{r3, r4, r5, r6, r7, pc}
 117              	.L24:
ARM GAS  /var/folders/lp/x54gwt890xv47sdkqj1k04q40000gn/T//ccZoWwdF.s 			page 3


 118 002a 0023     		movs	r3, #0
 119 002c 2022     		movs	r2, #32
 120 002e 3363     		str	r3, [r6, #48]
 121 0030 86F83D20 		strb	r2, [r6, #61]
 122 0034 86F83E30 		strb	r3, [r6, #62]
 123 0038 336C     		ldr	r3, [r6, #64]
 124 003a 1343     		orrs	r3, r3, r2
 125 003c 3364     		str	r3, [r6, #64]
 126              	.L22:
 127 003e 0023     		movs	r3, #0
 128 0040 86F83C30 		strb	r3, [r6, #60]
 129 0044 0120     		movs	r0, #1
 130 0046 F8BD     		pop	{r3, r4, r5, r6, r7, pc}
 131              	.L31:
 132 0048 6FF01001 		mvn	r1, #16
 133 004c 2022     		movs	r2, #32
 134 004e 6161     		str	r1, [r4, #20]
 135 0050 3363     		str	r3, [r6, #48]
 136 0052 86F83D20 		strb	r2, [r6, #61]
 137 0056 86F83E30 		strb	r3, [r6, #62]
 138 005a 336C     		ldr	r3, [r6, #64]
 139 005c 3364     		str	r3, [r6, #64]
 140 005e EEE7     		b	.L22
 142              		.section	.text.I2C_WaitOnTXEFlagUntilTimeout,"ax",%progbits
 143              		.align	1
 144              		.p2align 2,,3
 145              		.syntax unified
 146              		.thumb
 147              		.thumb_func
 149              	I2C_WaitOnTXEFlagUntilTimeout:
 150              		@ args = 0, pretend = 0, frame = 0
 151              		@ frame_needed = 0, uses_anonymous_args = 0
 152 0000 F8B5     		push	{r3, r4, r5, r6, r7, lr}
 153 0002 0546     		mov	r5, r0
 154 0004 0E46     		mov	r6, r1
 155 0006 1746     		mov	r7, r2
 156              	.L33:
 157 0008 2C68     		ldr	r4, [r5]
 158 000a 01E0     		b	.L36
 159              	.L48:
 160 000c 731C     		adds	r3, r6, #1
 161 000e 1AD1     		bne	.L46
 162              	.L36:
 163 0010 6369     		ldr	r3, [r4, #20]
 164 0012 13F08003 		ands	r3, r3, #128
 165 0016 14D1     		bne	.L47
 166 0018 6069     		ldr	r0, [r4, #20]
 167 001a 4205     		lsls	r2, r0, #21
 168 001c F6D5     		bpl	.L48
 169 001e 6FF48061 		mvn	r1, #1024
 170 0022 2022     		movs	r2, #32
 171 0024 6161     		str	r1, [r4, #20]
 172 0026 2B63     		str	r3, [r5, #48]
 173 0028 85F83D20 		strb	r2, [r5, #61]
 174 002c 85F83E30 		strb	r3, [r5, #62]
 175 0030 2B6C     		ldr	r3, [r5, #64]
 176 0032 43F00403 		orr	r3, r3, #4
ARM GAS  /var/folders/lp/x54gwt890xv47sdkqj1k04q40000gn/T//ccZoWwdF.s 			page 4


 177 0036 2B64     		str	r3, [r5, #64]
 178              	.L37:
 179 0038 0023     		movs	r3, #0
 180 003a 85F83C30 		strb	r3, [r5, #60]
 181 003e 0120     		movs	r0, #1
 182 0040 F8BD     		pop	{r3, r4, r5, r6, r7, pc}
 183              	.L47:
 184 0042 0020     		movs	r0, #0
 185 0044 F8BD     		pop	{r3, r4, r5, r6, r7, pc}
 186              	.L46:
 187 0046 FFF7FEFF 		bl	HAL_GetTick
 188 004a C01B     		subs	r0, r0, r7
 189 004c B042     		cmp	r0, r6
 190 004e 01D8     		bhi	.L39
 191 0050 002E     		cmp	r6, #0
 192 0052 D9D1     		bne	.L33
 193              	.L39:
 194 0054 0023     		movs	r3, #0
 195 0056 2022     		movs	r2, #32
 196 0058 2B63     		str	r3, [r5, #48]
 197 005a 85F83D20 		strb	r2, [r5, #61]
 198 005e 85F83E30 		strb	r3, [r5, #62]
 199 0062 2B6C     		ldr	r3, [r5, #64]
 200 0064 1343     		orrs	r3, r3, r2
 201 0066 2B64     		str	r3, [r5, #64]
 202 0068 E6E7     		b	.L37
 204 006a 00BF     		.section	.text.I2C_WaitOnBTFFlagUntilTimeout,"ax",%progbits
 205              		.align	1
 206              		.p2align 2,,3
 207              		.syntax unified
 208              		.thumb
 209              		.thumb_func
 211              	I2C_WaitOnBTFFlagUntilTimeout:
 212              		@ args = 0, pretend = 0, frame = 0
 213              		@ frame_needed = 0, uses_anonymous_args = 0
 214 0000 F8B5     		push	{r3, r4, r5, r6, r7, lr}
 215 0002 0546     		mov	r5, r0
 216 0004 0E46     		mov	r6, r1
 217 0006 1746     		mov	r7, r2
 218              	.L50:
 219 0008 2C68     		ldr	r4, [r5]
 220 000a 01E0     		b	.L53
 221              	.L65:
 222 000c 731C     		adds	r3, r6, #1
 223 000e 1AD1     		bne	.L63
 224              	.L53:
 225 0010 6369     		ldr	r3, [r4, #20]
 226 0012 13F00403 		ands	r3, r3, #4
 227 0016 14D1     		bne	.L64
 228 0018 6069     		ldr	r0, [r4, #20]
 229 001a 4205     		lsls	r2, r0, #21
 230 001c F6D5     		bpl	.L65
 231 001e 6FF48061 		mvn	r1, #1024
 232 0022 2022     		movs	r2, #32
 233 0024 6161     		str	r1, [r4, #20]
 234 0026 2B63     		str	r3, [r5, #48]
 235 0028 85F83D20 		strb	r2, [r5, #61]
ARM GAS  /var/folders/lp/x54gwt890xv47sdkqj1k04q40000gn/T//ccZoWwdF.s 			page 5


 236 002c 85F83E30 		strb	r3, [r5, #62]
 237 0030 2B6C     		ldr	r3, [r5, #64]
 238 0032 43F00403 		orr	r3, r3, #4
 239 0036 2B64     		str	r3, [r5, #64]
 240              	.L54:
 241 0038 0023     		movs	r3, #0
 242 003a 85F83C30 		strb	r3, [r5, #60]
 243 003e 0120     		movs	r0, #1
 244 0040 F8BD     		pop	{r3, r4, r5, r6, r7, pc}
 245              	.L64:
 246 0042 0020     		movs	r0, #0
 247 0044 F8BD     		pop	{r3, r4, r5, r6, r7, pc}
 248              	.L63:
 249 0046 FFF7FEFF 		bl	HAL_GetTick
 250 004a C01B     		subs	r0, r0, r7
 251 004c B042     		cmp	r0, r6
 252 004e 01D8     		bhi	.L56
 253 0050 002E     		cmp	r6, #0
 254 0052 D9D1     		bne	.L50
 255              	.L56:
 256 0054 0023     		movs	r3, #0
 257 0056 2022     		movs	r2, #32
 258 0058 2B63     		str	r3, [r5, #48]
 259 005a 85F83D20 		strb	r2, [r5, #61]
 260 005e 85F83E30 		strb	r3, [r5, #62]
 261 0062 2B6C     		ldr	r3, [r5, #64]
 262 0064 1343     		orrs	r3, r3, r2
 263 0066 2B64     		str	r3, [r5, #64]
 264 0068 E6E7     		b	.L54
 266 006a 00BF     		.section	.text.I2C_RequestMemoryWrite,"ax",%progbits
 267              		.align	1
 268              		.p2align 2,,3
 269              		.syntax unified
 270              		.thumb
 271              		.thumb_func
 273              	I2C_RequestMemoryWrite:
 274              		@ args = 8, pretend = 0, frame = 8
 275              		@ frame_needed = 0, uses_anonymous_args = 0
 276 0000 2DE9F04F 		push	{r4, r5, r6, r7, r8, r9, r10, fp, lr}
 277 0004 0568     		ldr	r5, [r0]
 278 0006 83B0     		sub	sp, sp, #12
 279 0008 9B46     		mov	fp, r3
 280 000a 2B68     		ldr	r3, [r5]
 281 000c 0C9F     		ldr	r7, [sp, #48]
 282 000e DDF834A0 		ldr	r10, [sp, #52]
 283 0012 43F48073 		orr	r3, r3, #256
 284 0016 0646     		mov	r6, r0
 285 0018 8846     		mov	r8, r1
 286 001a 9146     		mov	r9, r2
 287 001c 2B60     		str	r3, [r5]
 288              	.L67:
 289 001e 6B69     		ldr	r3, [r5, #20]
 290 0020 DB07     		lsls	r3, r3, #31
 291 0022 04D4     		bmi	.L70
 292 0024 781C     		adds	r0, r7, #1
 293 0026 0ED1     		bne	.L68
 294              	.L69:
ARM GAS  /var/folders/lp/x54gwt890xv47sdkqj1k04q40000gn/T//ccZoWwdF.s 			page 6


 295 0028 6C69     		ldr	r4, [r5, #20]
 296 002a E107     		lsls	r1, r4, #31
 297 002c FCD5     		bpl	.L69
 298              	.L70:
 299 002e 08F0FE03 		and	r3, r8, #254
 300 0032 2B61     		str	r3, [r5, #16]
 301 0034 2E49     		ldr	r1, .L93
 302 0036 5346     		mov	r3, r10
 303 0038 3A46     		mov	r2, r7
 304 003a 3046     		mov	r0, r6
 305 003c FFF7FEFF 		bl	I2C_WaitOnMasterAddressFlagUntilTimeout
 306 0040 00B3     		cbz	r0, .L91
 307              	.L76:
 308 0042 0124     		movs	r4, #1
 309 0044 1AE0     		b	.L79
 310              	.L68:
 311 0046 FFF7FEFF 		bl	HAL_GetTick
 312 004a A0EB0A00 		sub	r0, r0, r10
 313 004e 8742     		cmp	r7, r0
 314 0050 4CD3     		bcc	.L92
 315 0052 3568     		ldr	r5, [r6]
 316 0054 2946     		mov	r1, r5
 317 0056 002F     		cmp	r7, #0
 318 0058 E1D1     		bne	.L67
 319              	.L71:
 320 005a 0022     		movs	r2, #0
 321 005c 2023     		movs	r3, #32
 322 005e 3263     		str	r2, [r6, #48]
 323 0060 86F83D30 		strb	r3, [r6, #61]
 324 0064 86F83E20 		strb	r2, [r6, #62]
 325 0068 336C     		ldr	r3, [r6, #64]
 326 006a 86F83C20 		strb	r2, [r6, #60]
 327 006e 43F02003 		orr	r3, r3, #32
 328 0072 3364     		str	r3, [r6, #64]
 329 0074 0B68     		ldr	r3, [r1]
 330 0076 DA05     		lsls	r2, r3, #23
 331 0078 1DD4     		bmi	.L72
 332              	.L73:
 333 007a 0324     		movs	r4, #3
 334              	.L79:
 335 007c 2046     		mov	r0, r4
 336 007e 03B0     		add	sp, sp, #12
 337              		@ sp needed
 338 0080 BDE8F08F 		pop	{r4, r5, r6, r7, r8, r9, r10, fp, pc}
 339              	.L91:
 340 0084 3368     		ldr	r3, [r6]
 341 0086 0190     		str	r0, [sp, #4]
 342 0088 5969     		ldr	r1, [r3, #20]
 343 008a 0191     		str	r1, [sp, #4]
 344 008c 9B69     		ldr	r3, [r3, #24]
 345 008e 0193     		str	r3, [sp, #4]
 346 0090 5246     		mov	r2, r10
 347 0092 3946     		mov	r1, r7
 348 0094 3046     		mov	r0, r6
 349 0096 019B     		ldr	r3, [sp, #4]
 350 0098 FFF7FEFF 		bl	I2C_WaitOnTXEFlagUntilTimeout
 351 009c 0446     		mov	r4, r0
ARM GAS  /var/folders/lp/x54gwt890xv47sdkqj1k04q40000gn/T//ccZoWwdF.s 			page 7


 352 009e E0B9     		cbnz	r0, .L90
 353 00a0 BBF1010F 		cmp	fp, #1
 354 00a4 3368     		ldr	r3, [r6]
 355 00a6 0AD1     		bne	.L80
 356 00a8 5FFA89F2 		uxtb	r2, r9
 357 00ac 2046     		mov	r0, r4
 358 00ae 1A61     		str	r2, [r3, #16]
 359 00b0 03B0     		add	sp, sp, #12
 360              		@ sp needed
 361 00b2 BDE8F08F 		pop	{r4, r5, r6, r7, r8, r9, r10, fp, pc}
 362              	.L72:
 363 00b6 4FF40073 		mov	r3, #512
 364 00ba 3364     		str	r3, [r6, #64]
 365 00bc DDE7     		b	.L73
 366              	.L80:
 367 00be 4FEA1920 		lsr	r0, r9, #8
 368 00c2 1861     		str	r0, [r3, #16]
 369 00c4 5246     		mov	r2, r10
 370 00c6 3946     		mov	r1, r7
 371 00c8 3046     		mov	r0, r6
 372 00ca FFF7FEFF 		bl	I2C_WaitOnTXEFlagUntilTimeout
 373 00ce 20B9     		cbnz	r0, .L90
 374 00d0 3268     		ldr	r2, [r6]
 375 00d2 5FFA89F3 		uxtb	r3, r9
 376 00d6 1361     		str	r3, [r2, #16]
 377 00d8 D0E7     		b	.L79
 378              	.L90:
 379 00da 336C     		ldr	r3, [r6, #64]
 380 00dc 042B     		cmp	r3, #4
 381 00de B0D1     		bne	.L76
 382 00e0 3268     		ldr	r2, [r6]
 383 00e2 1368     		ldr	r3, [r2]
 384 00e4 43F40073 		orr	r3, r3, #512
 385 00e8 1360     		str	r3, [r2]
 386 00ea AAE7     		b	.L76
 387              	.L92:
 388 00ec 3168     		ldr	r1, [r6]
 389 00ee B4E7     		b	.L71
 390              	.L94:
 391              		.align	2
 392              	.L93:
 393 00f0 02000100 		.word	65538
 395              		.section	.text.I2C_RequestMemoryRead,"ax",%progbits
 396              		.align	1
 397              		.p2align 2,,3
 398              		.syntax unified
 399              		.thumb
 400              		.thumb_func
 402              	I2C_RequestMemoryRead:
 403              		@ args = 8, pretend = 0, frame = 8
 404              		@ frame_needed = 0, uses_anonymous_args = 0
 405 0000 2DE9F04F 		push	{r4, r5, r6, r7, r8, r9, r10, fp, lr}
 406 0004 0568     		ldr	r5, [r0]
 407 0006 9B46     		mov	fp, r3
 408 0008 2B68     		ldr	r3, [r5]
 409 000a 43F48063 		orr	r3, r3, #1024
 410 000e 83B0     		sub	sp, sp, #12
ARM GAS  /var/folders/lp/x54gwt890xv47sdkqj1k04q40000gn/T//ccZoWwdF.s 			page 8


 411 0010 2B60     		str	r3, [r5]
 412 0012 2B68     		ldr	r3, [r5]
 413 0014 0C9F     		ldr	r7, [sp, #48]
 414 0016 DDF83490 		ldr	r9, [sp, #52]
 415 001a 43F48073 		orr	r3, r3, #256
 416 001e 0646     		mov	r6, r0
 417 0020 8846     		mov	r8, r1
 418 0022 9246     		mov	r10, r2
 419 0024 2B60     		str	r3, [r5]
 420              	.L96:
 421 0026 6B69     		ldr	r3, [r5, #20]
 422 0028 DC07     		lsls	r4, r3, #31
 423 002a 04D4     		bmi	.L99
 424 002c 7A1C     		adds	r2, r7, #1
 425 002e 47D1     		bne	.L97
 426              	.L98:
 427 0030 6C69     		ldr	r4, [r5, #20]
 428 0032 E307     		lsls	r3, r4, #31
 429 0034 FCD5     		bpl	.L98
 430              	.L99:
 431 0036 08F0FE03 		and	r3, r8, #254
 432 003a 2B61     		str	r3, [r5, #16]
 433 003c 4349     		ldr	r1, .L135
 434 003e 4B46     		mov	r3, r9
 435 0040 3A46     		mov	r2, r7
 436 0042 3046     		mov	r0, r6
 437 0044 5FFA88F8 		uxtb	r8, r8
 438 0048 FFF7FEFF 		bl	I2C_WaitOnMasterAddressFlagUntilTimeout
 439 004c 0028     		cmp	r0, #0
 440 004e 5ED1     		bne	.L105
 441 0050 3368     		ldr	r3, [r6]
 442 0052 0190     		str	r0, [sp, #4]
 443 0054 5969     		ldr	r1, [r3, #20]
 444 0056 0191     		str	r1, [sp, #4]
 445 0058 9B69     		ldr	r3, [r3, #24]
 446 005a 0193     		str	r3, [sp, #4]
 447 005c 4A46     		mov	r2, r9
 448 005e 3946     		mov	r1, r7
 449 0060 3046     		mov	r0, r6
 450 0062 019B     		ldr	r3, [sp, #4]
 451 0064 FFF7FEFF 		bl	I2C_WaitOnTXEFlagUntilTimeout
 452 0068 0028     		cmp	r0, #0
 453 006a 48D1     		bne	.L132
 454 006c BBF1010F 		cmp	fp, #1
 455 0070 3368     		ldr	r3, [r6]
 456 0072 4ED1     		bne	.L109
 457 0074 5FFA8AF2 		uxtb	r2, r10
 458 0078 1A61     		str	r2, [r3, #16]
 459              	.L110:
 460 007a 4A46     		mov	r2, r9
 461 007c 3946     		mov	r1, r7
 462 007e 3046     		mov	r0, r6
 463 0080 FFF7FEFF 		bl	I2C_WaitOnTXEFlagUntilTimeout
 464 0084 0028     		cmp	r0, #0
 465 0086 3AD1     		bne	.L132
 466 0088 3268     		ldr	r2, [r6]
 467 008a 1368     		ldr	r3, [r2]
ARM GAS  /var/folders/lp/x54gwt890xv47sdkqj1k04q40000gn/T//ccZoWwdF.s 			page 9


 468 008c 43F48073 		orr	r3, r3, #256
 469 0090 1360     		str	r3, [r2]
 470              	.L113:
 471 0092 5369     		ldr	r3, [r2, #20]
 472 0094 DB07     		lsls	r3, r3, #31
 473 0096 04D4     		bmi	.L116
 474 0098 781C     		adds	r0, r7, #1
 475 009a 49D1     		bne	.L114
 476              	.L115:
 477 009c 5369     		ldr	r3, [r2, #20]
 478 009e D907     		lsls	r1, r3, #31
 479 00a0 FCD5     		bpl	.L115
 480              	.L116:
 481 00a2 48F00103 		orr	r3, r8, #1
 482 00a6 1361     		str	r3, [r2, #16]
 483 00a8 2849     		ldr	r1, .L135
 484 00aa 4B46     		mov	r3, r9
 485 00ac 3A46     		mov	r2, r7
 486 00ae 3046     		mov	r0, r6
 487 00b0 FFF7FEFF 		bl	I2C_WaitOnMasterAddressFlagUntilTimeout
 488 00b4 0038     		subs	r0, r0, #0
 489 00b6 18BF     		it	ne
 490 00b8 0120     		movne	r0, #1
 491              	.L108:
 492 00ba 03B0     		add	sp, sp, #12
 493              		@ sp needed
 494 00bc BDE8F08F 		pop	{r4, r5, r6, r7, r8, r9, r10, fp, pc}
 495              	.L97:
 496 00c0 FFF7FEFF 		bl	HAL_GetTick
 497 00c4 A0EB0900 		sub	r0, r0, r9
 498 00c8 8742     		cmp	r7, r0
 499 00ca 3CD3     		bcc	.L134
 500 00cc 3568     		ldr	r5, [r6]
 501 00ce 2946     		mov	r1, r5
 502 00d0 002F     		cmp	r7, #0
 503 00d2 A8D1     		bne	.L96
 504              	.L117:
 505 00d4 0022     		movs	r2, #0
 506 00d6 2023     		movs	r3, #32
 507 00d8 3263     		str	r2, [r6, #48]
 508 00da 86F83D30 		strb	r3, [r6, #61]
 509 00de 86F83E20 		strb	r2, [r6, #62]
 510 00e2 336C     		ldr	r3, [r6, #64]
 511 00e4 86F83C20 		strb	r2, [r6, #60]
 512 00e8 43F02003 		orr	r3, r3, #32
 513 00ec 3364     		str	r3, [r6, #64]
 514 00ee 0B68     		ldr	r3, [r1]
 515 00f0 DA05     		lsls	r2, r3, #23
 516 00f2 02D5     		bpl	.L102
 517 00f4 4FF40073 		mov	r3, #512
 518 00f8 3364     		str	r3, [r6, #64]
 519              	.L102:
 520 00fa 0320     		movs	r0, #3
 521 00fc DDE7     		b	.L108
 522              	.L132:
 523 00fe 336C     		ldr	r3, [r6, #64]
 524 0100 042B     		cmp	r3, #4
ARM GAS  /var/folders/lp/x54gwt890xv47sdkqj1k04q40000gn/T//ccZoWwdF.s 			page 10


 525 0102 04D1     		bne	.L105
 526 0104 3268     		ldr	r2, [r6]
 527 0106 1368     		ldr	r3, [r2]
 528 0108 43F40073 		orr	r3, r3, #512
 529 010c 1360     		str	r3, [r2]
 530              	.L105:
 531 010e 0120     		movs	r0, #1
 532 0110 D3E7     		b	.L108
 533              	.L109:
 534 0112 4FEA1A22 		lsr	r2, r10, #8
 535 0116 1A61     		str	r2, [r3, #16]
 536 0118 3946     		mov	r1, r7
 537 011a 4A46     		mov	r2, r9
 538 011c 3046     		mov	r0, r6
 539 011e FFF7FEFF 		bl	I2C_WaitOnTXEFlagUntilTimeout
 540 0122 0028     		cmp	r0, #0
 541 0124 EBD1     		bne	.L132
 542 0126 3268     		ldr	r2, [r6]
 543 0128 5FFA8AF3 		uxtb	r3, r10
 544 012c 1361     		str	r3, [r2, #16]
 545 012e A4E7     		b	.L110
 546              	.L114:
 547 0130 FFF7FEFF 		bl	HAL_GetTick
 548 0134 A0EB0903 		sub	r3, r0, r9
 549 0138 9F42     		cmp	r7, r3
 550 013a 04D3     		bcc	.L134
 551 013c 3268     		ldr	r2, [r6]
 552 013e 1146     		mov	r1, r2
 553 0140 002F     		cmp	r7, #0
 554 0142 A6D1     		bne	.L113
 555 0144 C6E7     		b	.L117
 556              	.L134:
 557 0146 3168     		ldr	r1, [r6]
 558 0148 C4E7     		b	.L117
 559              	.L136:
 560 014a 00BF     		.align	2
 561              	.L135:
 562 014c 02000100 		.word	65538
 564              		.section	.text.HAL_I2C_MspInit,"ax",%progbits
 565              		.align	1
 566              		.p2align 2,,3
 567              		.weak	HAL_I2C_MspInit
 568              		.syntax unified
 569              		.thumb
 570              		.thumb_func
 572              	HAL_I2C_MspInit:
 573              		@ args = 0, pretend = 0, frame = 0
 574              		@ frame_needed = 0, uses_anonymous_args = 0
 575              		@ link register save eliminated.
 576 0000 7047     		bx	lr
 578 0002 00BF     		.section	.text.HAL_I2C_Init,"ax",%progbits
 579              		.align	1
 580              		.p2align 2,,3
 581              		.global	HAL_I2C_Init
 582              		.syntax unified
 583              		.thumb
 584              		.thumb_func
ARM GAS  /var/folders/lp/x54gwt890xv47sdkqj1k04q40000gn/T//ccZoWwdF.s 			page 11


 586              	HAL_I2C_Init:
 587              		@ args = 0, pretend = 0, frame = 0
 588              		@ frame_needed = 0, uses_anonymous_args = 0
 589 0000 0028     		cmp	r0, #0
 590 0002 00F0B880 		beq	.L161
 591 0006 70B5     		push	{r4, r5, r6, lr}
 592 0008 90F83D30 		ldrb	r3, [r0, #61]	@ zero_extendqisi2
 593 000c 0446     		mov	r4, r0
 594 000e 03F0FF02 		and	r2, r3, #255
 595 0012 002B     		cmp	r3, #0
 596 0014 00F09880 		beq	.L162
 597              	.L141:
 598 0018 2368     		ldr	r3, [r4]
 599 001a 2422     		movs	r2, #36
 600 001c 84F83D20 		strb	r2, [r4, #61]
 601 0020 1A68     		ldr	r2, [r3]
 602 0022 22F00102 		bic	r2, r2, #1
 603 0026 1A60     		str	r2, [r3]
 604 0028 1A68     		ldr	r2, [r3]
 605 002a 42F40042 		orr	r2, r2, #32768
 606 002e 1A60     		str	r2, [r3]
 607 0030 1A68     		ldr	r2, [r3]
 608 0032 22F40042 		bic	r2, r2, #32768
 609 0036 1A60     		str	r2, [r3]
 610 0038 FFF7FEFF 		bl	HAL_RCC_GetPCLK1Freq
 611 003c 4F4B     		ldr	r3, .L164
 612 003e 6568     		ldr	r5, [r4, #4]
 613 0040 9D42     		cmp	r5, r3
 614 0042 4FD8     		bhi	.L142
 615 0044 4E4B     		ldr	r3, .L164+4
 616 0046 9842     		cmp	r0, r3
 617 0048 7CD9     		bls	.L143
 618 004a 4E4B     		ldr	r3, .L164+8
 619 004c 6A00     		lsls	r2, r5, #1
 620 004e A3FB0035 		umull	r3, r5, r3, r0
 621 0052 431E     		subs	r3, r0, #1
 622 0054 B3FBF2F3 		udiv	r3, r3, r2
 623 0058 2268     		ldr	r2, [r4]
 624 005a 5168     		ldr	r1, [r2, #4]
 625 005c 21F03F01 		bic	r1, r1, #63
 626 0060 41EA9541 		orr	r1, r1, r5, lsr #18
 627 0064 5160     		str	r1, [r2, #4]
 628 0066 116A     		ldr	r1, [r2, #32]
 629 0068 4FEA954C 		lsr	ip, r5, #18
 630 006c 0CF1010C 		add	ip, ip, #1
 631 0070 21F03F01 		bic	r1, r1, #63
 632 0074 41EA0C01 		orr	r1, r1, ip
 633 0078 1162     		str	r1, [r2, #32]
 634 007a D169     		ldr	r1, [r2, #28]
 635 007c 40F6FC70 		movw	r0, #4092
 636 0080 0133     		adds	r3, r3, #1
 637 0082 21F44F41 		bic	r1, r1, #52992
 638 0086 0342     		tst	r3, r0
 639 0088 21F0FF01 		bic	r1, r1, #255
 640 008c 61D1     		bne	.L150
 641 008e 0423     		movs	r3, #4
 642              	.L147:
ARM GAS  /var/folders/lp/x54gwt890xv47sdkqj1k04q40000gn/T//ccZoWwdF.s 			page 12


 643 0090 0B43     		orrs	r3, r3, r1
 644 0092 D361     		str	r3, [r2, #28]
 645 0094 D4E90730 		ldrd	r3, r0, [r4, #28]
 646 0098 1168     		ldr	r1, [r2]
 647 009a 0343     		orrs	r3, r3, r0
 648 009c 21F0C001 		bic	r1, r1, #192
 649 00a0 0B43     		orrs	r3, r3, r1
 650 00a2 1360     		str	r3, [r2]
 651 00a4 9168     		ldr	r1, [r2, #8]
 652 00a6 D4E90303 		ldrd	r0, r3, [r4, #12]
 653 00aa 21F40341 		bic	r1, r1, #33536
 654 00ae 0343     		orrs	r3, r3, r0
 655 00b0 21F0FF01 		bic	r1, r1, #255
 656 00b4 0B43     		orrs	r3, r3, r1
 657 00b6 9360     		str	r3, [r2, #8]
 658 00b8 D4E90530 		ldrd	r3, r0, [r4, #20]
 659 00bc D168     		ldr	r1, [r2, #12]
 660 00be 0343     		orrs	r3, r3, r0
 661 00c0 21F0FF01 		bic	r1, r1, #255
 662 00c4 0B43     		orrs	r3, r3, r1
 663 00c6 D360     		str	r3, [r2, #12]
 664 00c8 1168     		ldr	r1, [r2]
 665 00ca 0023     		movs	r3, #0
 666 00cc 41F00101 		orr	r1, r1, #1
 667 00d0 2020     		movs	r0, #32
 668 00d2 1160     		str	r1, [r2]
 669 00d4 2364     		str	r3, [r4, #64]
 670 00d6 84F83D00 		strb	r0, [r4, #61]
 671 00da 2363     		str	r3, [r4, #48]
 672 00dc 84F83E30 		strb	r3, [r4, #62]
 673 00e0 1846     		mov	r0, r3
 674 00e2 70BD     		pop	{r4, r5, r6, pc}
 675              	.L142:
 676 00e4 284B     		ldr	r3, .L164+12
 677 00e6 9842     		cmp	r0, r3
 678 00e8 2CD9     		bls	.L143
 679 00ea 2268     		ldr	r2, [r4]
 680 00ec 254B     		ldr	r3, .L164+8
 681 00ee 274E     		ldr	r6, .L164+16
 682 00f0 A3FB003C 		umull	r3, ip, r3, r0
 683 00f4 431E     		subs	r3, r0, #1
 684 00f6 5068     		ldr	r0, [r2, #4]
 685 00f8 20F03F00 		bic	r0, r0, #63
 686 00fc 40EA9C40 		orr	r0, r0, ip, lsr #18
 687 0100 5060     		str	r0, [r2, #4]
 688 0102 4FEA9C41 		lsr	r1, ip, #18
 689 0106 4FF49670 		mov	r0, #300
 690 010a 00FB01F1 		mul	r1, r0, r1
 691 010e A6FB0161 		umull	r6, r1, r6, r1
 692 0112 106A     		ldr	r0, [r2, #32]
 693 0114 8909     		lsrs	r1, r1, #6
 694 0116 20F03F00 		bic	r0, r0, #63
 695 011a 0131     		adds	r1, r1, #1
 696 011c 0143     		orrs	r1, r1, r0
 697 011e 1162     		str	r1, [r2, #32]
 698 0120 D169     		ldr	r1, [r2, #28]
 699 0122 A068     		ldr	r0, [r4, #8]
ARM GAS  /var/folders/lp/x54gwt890xv47sdkqj1k04q40000gn/T//ccZoWwdF.s 			page 13


 700 0124 21F44F41 		bic	r1, r1, #52992
 701 0128 21F0FF01 		bic	r1, r1, #255
 702 012c A0B9     		cbnz	r0, .L163
 703 012e 05EB4505 		add	r5, r5, r5, lsl #1
 704 0132 B3FBF5F3 		udiv	r3, r3, r5
 705 0136 0133     		adds	r3, r3, #1
 706 0138 C3F30B03 		ubfx	r3, r3, #0, #12
 707 013c CBB1     		cbz	r3, .L152
 708 013e 43F40043 		orr	r3, r3, #32768
 709 0142 A5E7     		b	.L147
 710              	.L143:
 711 0144 0120     		movs	r0, #1
 712 0146 70BD     		pop	{r4, r5, r6, pc}
 713              	.L162:
 714 0148 80F83C20 		strb	r2, [r0, #60]
 715 014c FFF7FEFF 		bl	HAL_I2C_MspInit
 716 0150 62E7     		b	.L141
 717              	.L150:
 718 0152 C3F30B03 		ubfx	r3, r3, #0, #12
 719 0156 9BE7     		b	.L147
 720              	.L163:
 721 0158 05EB8505 		add	r5, r5, r5, lsl #2
 722 015c 05EB8505 		add	r5, r5, r5, lsl #2
 723 0160 B3FBF5F3 		udiv	r3, r3, r5
 724 0164 0133     		adds	r3, r3, #1
 725 0166 C3F30B03 		ubfx	r3, r3, #0, #12
 726 016a 13B1     		cbz	r3, .L152
 727 016c 43F44043 		orr	r3, r3, #49152
 728 0170 8EE7     		b	.L147
 729              	.L152:
 730 0172 0123     		movs	r3, #1
 731 0174 8CE7     		b	.L147
 732              	.L161:
 733 0176 0120     		movs	r0, #1
 734 0178 7047     		bx	lr
 735              	.L165:
 736 017a 00BF     		.align	2
 737              	.L164:
 738 017c A0860100 		.word	100000
 739 0180 7F841E00 		.word	1999999
 740 0184 83DE1B43 		.word	1125899907
 741 0188 FF083D00 		.word	3999999
 742 018c D34D6210 		.word	274877907
 744              		.section	.text.HAL_I2C_MspDeInit,"ax",%progbits
 745              		.align	1
 746              		.p2align 2,,3
 747              		.weak	HAL_I2C_MspDeInit
 748              		.syntax unified
 749              		.thumb
 750              		.thumb_func
 752              	HAL_I2C_MspDeInit:
 753              		@ args = 0, pretend = 0, frame = 0
 754              		@ frame_needed = 0, uses_anonymous_args = 0
 755              		@ link register save eliminated.
 756 0000 7047     		bx	lr
 758 0002 00BF     		.section	.text.HAL_I2C_DeInit,"ax",%progbits
 759              		.align	1
ARM GAS  /var/folders/lp/x54gwt890xv47sdkqj1k04q40000gn/T//ccZoWwdF.s 			page 14


 760              		.p2align 2,,3
 761              		.global	HAL_I2C_DeInit
 762              		.syntax unified
 763              		.thumb
 764              		.thumb_func
 766              	HAL_I2C_DeInit:
 767              		@ args = 0, pretend = 0, frame = 0
 768              		@ frame_needed = 0, uses_anonymous_args = 0
 769 0000 B0B1     		cbz	r0, .L169
 770 0002 0268     		ldr	r2, [r0]
 771 0004 2423     		movs	r3, #36
 772 0006 10B5     		push	{r4, lr}
 773 0008 80F83D30 		strb	r3, [r0, #61]
 774 000c 1368     		ldr	r3, [r2]
 775 000e 23F00103 		bic	r3, r3, #1
 776 0012 0446     		mov	r4, r0
 777 0014 1360     		str	r3, [r2]
 778 0016 FFF7FEFF 		bl	HAL_I2C_MspDeInit
 779 001a 0023     		movs	r3, #0
 780 001c 2364     		str	r3, [r4, #64]
 781 001e 84F83C30 		strb	r3, [r4, #60]
 782 0022 84F83D30 		strb	r3, [r4, #61]
 783 0026 2363     		str	r3, [r4, #48]
 784 0028 84F83E30 		strb	r3, [r4, #62]
 785 002c 1846     		mov	r0, r3
 786 002e 10BD     		pop	{r4, pc}
 787              	.L169:
 788 0030 0120     		movs	r0, #1
 789 0032 7047     		bx	lr
 791              		.section	.text.HAL_I2C_Master_Transmit,"ax",%progbits
 792              		.align	1
 793              		.p2align 2,,3
 794              		.global	HAL_I2C_Master_Transmit
 795              		.syntax unified
 796              		.thumb
 797              		.thumb_func
 799              	HAL_I2C_Master_Transmit:
 800              		@ args = 4, pretend = 0, frame = 8
 801              		@ frame_needed = 0, uses_anonymous_args = 0
 802 0000 2DE9F047 		push	{r4, r5, r6, r7, r8, r9, r10, lr}
 803 0004 0446     		mov	r4, r0
 804 0006 82B0     		sub	sp, sp, #8
 805 0008 9946     		mov	r9, r3
 806 000a 0A9F     		ldr	r7, [sp, #40]
 807 000c 8846     		mov	r8, r1
 808 000e 9246     		mov	r10, r2
 809 0010 FFF7FEFF 		bl	HAL_GetTick
 810 0014 94F83D30 		ldrb	r3, [r4, #61]	@ zero_extendqisi2
 811 0018 202B     		cmp	r3, #32
 812 001a 04D0     		beq	.L225
 813              	.L177:
 814 001c 0225     		movs	r5, #2
 815              	.L176:
 816 001e 2846     		mov	r0, r5
 817 0020 02B0     		add	sp, sp, #8
 818              		@ sp needed
 819 0022 BDE8F087 		pop	{r4, r5, r6, r7, r8, r9, r10, pc}
ARM GAS  /var/folders/lp/x54gwt890xv47sdkqj1k04q40000gn/T//ccZoWwdF.s 			page 15


 820              	.L225:
 821 0026 0646     		mov	r6, r0
 822 0028 05E0     		b	.L175
 823              	.L178:
 824 002a FFF7FEFF 		bl	HAL_GetTick
 825 002e 801B     		subs	r0, r0, r6
 826 0030 1928     		cmp	r0, #25
 827 0032 00F2D180 		bhi	.L231
 828              	.L175:
 829 0036 2368     		ldr	r3, [r4]
 830 0038 9D69     		ldr	r5, [r3, #24]
 831 003a 6FEA050C 		mvn	ip, r5
 832 003e 1CF00205 		ands	r5, ip, #2
 833 0042 F2D0     		beq	.L178
 834 0044 94F83C20 		ldrb	r2, [r4, #60]	@ zero_extendqisi2
 835 0048 012A     		cmp	r2, #1
 836 004a E7D0     		beq	.L177
 837 004c 0122     		movs	r2, #1
 838 004e 84F83C20 		strb	r2, [r4, #60]
 839 0052 1A68     		ldr	r2, [r3]
 840 0054 D007     		lsls	r0, r2, #31
 841 0056 40F1A680 		bpl	.L232
 842              	.L180:
 843 005a 1A68     		ldr	r2, [r3]
 844 005c 6A49     		ldr	r1, .L235
 845 005e 22F40062 		bic	r2, r2, #2048
 846 0062 1A60     		str	r2, [r3]
 847 0064 2122     		movs	r2, #33
 848 0066 84F83D20 		strb	r2, [r4, #61]
 849 006a 1022     		movs	r2, #16
 850 006c 84F83E20 		strb	r2, [r4, #62]
 851 0070 0022     		movs	r2, #0
 852 0072 2264     		str	r2, [r4, #64]
 853 0074 A4F82A90 		strh	r9, [r4, #42]	@ movhi
 854 0078 628D     		ldrh	r2, [r4, #42]
 855 007a E162     		str	r1, [r4, #44]
 856 007c 2285     		strh	r2, [r4, #40]	@ movhi
 857 007e E26A     		ldr	r2, [r4, #44]
 858 0080 C4F824A0 		str	r10, [r4, #36]
 859 0084 082A     		cmp	r2, #8
 860 0086 06D0     		beq	.L228
 861 0088 012A     		cmp	r2, #1
 862 008a 04D0     		beq	.L228
 863 008c 8A42     		cmp	r2, r1
 864 008e 02D0     		beq	.L228
 865 0090 226B     		ldr	r2, [r4, #48]
 866 0092 122A     		cmp	r2, #18
 867 0094 03D1     		bne	.L183
 868              	.L228:
 869 0096 1A68     		ldr	r2, [r3]
 870 0098 42F48072 		orr	r2, r2, #256
 871 009c 1A60     		str	r2, [r3]
 872              	.L183:
 873 009e 5A69     		ldr	r2, [r3, #20]
 874 00a0 D007     		lsls	r0, r2, #31
 875 00a2 04D4     		bmi	.L187
 876 00a4 791C     		adds	r1, r7, #1
ARM GAS  /var/folders/lp/x54gwt890xv47sdkqj1k04q40000gn/T//ccZoWwdF.s 			page 16


 877 00a6 5DD1     		bne	.L185
 878              	.L186:
 879 00a8 5A69     		ldr	r2, [r3, #20]
 880 00aa D207     		lsls	r2, r2, #31
 881 00ac FCD5     		bpl	.L186
 882              	.L187:
 883 00ae 2269     		ldr	r2, [r4, #16]
 884 00b0 B2F5804F 		cmp	r2, #16384
 885 00b4 7CD1     		bne	.L233
 886 00b6 08F0FE02 		and	r2, r8, #254
 887 00ba 1A61     		str	r2, [r3, #16]
 888              	.L194:
 889 00bc 5349     		ldr	r1, .L235+4
 890 00be 3346     		mov	r3, r6
 891 00c0 3A46     		mov	r2, r7
 892 00c2 2046     		mov	r0, r4
 893 00c4 FFF7FEFF 		bl	I2C_WaitOnMasterAddressFlagUntilTimeout
 894 00c8 0546     		mov	r5, r0
 895 00ca 0028     		cmp	r0, #0
 896 00cc 66D1     		bne	.L193
 897 00ce 2368     		ldr	r3, [r4]
 898 00d0 0190     		str	r0, [sp, #4]
 899 00d2 5A69     		ldr	r2, [r3, #20]
 900 00d4 0192     		str	r2, [sp, #4]
 901 00d6 9B69     		ldr	r3, [r3, #24]
 902 00d8 0193     		str	r3, [sp, #4]
 903 00da 019B     		ldr	r3, [sp, #4]
 904 00dc 2FE0     		b	.L196
 905              	.L199:
 906 00de FFF7FEFF 		bl	I2C_WaitOnTXEFlagUntilTimeout
 907 00e2 0028     		cmp	r0, #0
 908 00e4 40F08580 		bne	.L230
 909 00e8 D4F824C0 		ldr	ip, [r4, #36]
 910 00ec 2068     		ldr	r0, [r4]
 911 00ee B4F828E0 		ldrh	lr, [r4, #40]
 912 00f2 6146     		mov	r1, ip
 913 00f4 0EF1FF32 		add	r2, lr, #-1
 914 00f8 11F8013B 		ldrb	r3, [r1], #1	@ zero_extendqisi2
 915 00fc 0361     		str	r3, [r0, #16]
 916 00fe 638D     		ldrh	r3, [r4, #42]
 917 0100 6162     		str	r1, [r4, #36]
 918 0102 013B     		subs	r3, r3, #1
 919 0104 9BB2     		uxth	r3, r3
 920 0106 6385     		strh	r3, [r4, #42]	@ movhi
 921 0108 4169     		ldr	r1, [r0, #20]
 922 010a 93B2     		uxth	r3, r2
 923 010c 4907     		lsls	r1, r1, #29
 924 010e 3246     		mov	r2, r6
 925 0110 2385     		strh	r3, [r4, #40]	@ movhi
 926 0112 0ED5     		bpl	.L198
 927 0114 6BB1     		cbz	r3, .L198
 928 0116 9CF80130 		ldrb	r3, [ip, #1]	@ zero_extendqisi2
 929 011a 0361     		str	r3, [r0, #16]
 930 011c 0CF10203 		add	r3, ip, #2
 931 0120 6362     		str	r3, [r4, #36]
 932 0122 638D     		ldrh	r3, [r4, #42]
 933 0124 013B     		subs	r3, r3, #1
ARM GAS  /var/folders/lp/x54gwt890xv47sdkqj1k04q40000gn/T//ccZoWwdF.s 			page 17


 934 0126 AEF1020E 		sub	lr, lr, #2
 935 012a 9BB2     		uxth	r3, r3
 936 012c A4F828E0 		strh	lr, [r4, #40]	@ movhi
 937 0130 6385     		strh	r3, [r4, #42]	@ movhi
 938              	.L198:
 939 0132 3946     		mov	r1, r7
 940 0134 2046     		mov	r0, r4
 941 0136 FFF7FEFF 		bl	I2C_WaitOnBTFFlagUntilTimeout
 942 013a 0028     		cmp	r0, #0
 943 013c 59D1     		bne	.L230
 944              	.L196:
 945 013e 238D     		ldrh	r3, [r4, #40]
 946 0140 3246     		mov	r2, r6
 947 0142 3946     		mov	r1, r7
 948 0144 2046     		mov	r0, r4
 949 0146 002B     		cmp	r3, #0
 950 0148 C9D1     		bne	.L199
 951 014a 2168     		ldr	r1, [r4]
 952 014c 0A68     		ldr	r2, [r1]
 953 014e 42F40072 		orr	r2, r2, #512
 954 0152 0A60     		str	r2, [r1]
 955 0154 2022     		movs	r2, #32
 956 0156 84F83D20 		strb	r2, [r4, #61]
 957 015a 84F83C30 		strb	r3, [r4, #60]
 958 015e 84F83E30 		strb	r3, [r4, #62]
 959 0162 5CE7     		b	.L176
 960              	.L185:
 961 0164 FFF7FEFF 		bl	HAL_GetTick
 962 0168 801B     		subs	r0, r0, r6
 963 016a 8742     		cmp	r7, r0
 964 016c 4AD3     		bcc	.L234
 965 016e 2368     		ldr	r3, [r4]
 966 0170 1A46     		mov	r2, r3
 967 0172 002F     		cmp	r7, #0
 968 0174 93D1     		bne	.L183
 969              	.L188:
 970 0176 0021     		movs	r1, #0
 971 0178 2023     		movs	r3, #32
 972 017a 2163     		str	r1, [r4, #48]
 973 017c 84F83D30 		strb	r3, [r4, #61]
 974 0180 84F83E10 		strb	r1, [r4, #62]
 975 0184 236C     		ldr	r3, [r4, #64]
 976 0186 84F83C10 		strb	r1, [r4, #60]
 977 018a 43F02003 		orr	r3, r3, #32
 978 018e 2364     		str	r3, [r4, #64]
 979 0190 1368     		ldr	r3, [r2]
 980 0192 DD05     		lsls	r5, r3, #23
 981 0194 02D5     		bpl	.L193
 982 0196 4FF40073 		mov	r3, #512
 983 019a 2364     		str	r3, [r4, #64]
 984              	.L193:
 985 019c 0125     		movs	r5, #1
 986 019e 2846     		mov	r0, r5
 987 01a0 02B0     		add	sp, sp, #8
 988              		@ sp needed
 989 01a2 BDE8F087 		pop	{r4, r5, r6, r7, r8, r9, r10, pc}
 990              	.L232:
ARM GAS  /var/folders/lp/x54gwt890xv47sdkqj1k04q40000gn/T//ccZoWwdF.s 			page 18


 991 01a6 1A68     		ldr	r2, [r3]
 992 01a8 42F00102 		orr	r2, r2, #1
 993 01ac 1A60     		str	r2, [r3]
 994 01ae 54E7     		b	.L180
 995              	.L233:
 996 01b0 4FEAE812 		asr	r2, r8, #7
 997 01b4 02F00602 		and	r2, r2, #6
 998 01b8 42F0F002 		orr	r2, r2, #240
 999 01bc 1A61     		str	r2, [r3, #16]
 1000 01be 1449     		ldr	r1, .L235+8
 1001 01c0 3346     		mov	r3, r6
 1002 01c2 3A46     		mov	r2, r7
 1003 01c4 2046     		mov	r0, r4
 1004 01c6 FFF7FEFF 		bl	I2C_WaitOnMasterAddressFlagUntilTimeout
 1005 01ca 0028     		cmp	r0, #0
 1006 01cc E6D1     		bne	.L193
 1007 01ce 2268     		ldr	r2, [r4]
 1008 01d0 5FFA88F3 		uxtb	r3, r8
 1009 01d4 1361     		str	r3, [r2, #16]
 1010 01d6 71E7     		b	.L194
 1011              	.L231:
 1012 01d8 2023     		movs	r3, #32
 1013 01da 2563     		str	r5, [r4, #48]
 1014 01dc 84F83D30 		strb	r3, [r4, #61]
 1015 01e0 84F83E50 		strb	r5, [r4, #62]
 1016 01e4 236C     		ldr	r3, [r4, #64]
 1017 01e6 84F83C50 		strb	r5, [r4, #60]
 1018 01ea 43F02003 		orr	r3, r3, #32
 1019 01ee 2364     		str	r3, [r4, #64]
 1020 01f0 14E7     		b	.L177
 1021              	.L230:
 1022 01f2 236C     		ldr	r3, [r4, #64]
 1023 01f4 042B     		cmp	r3, #4
 1024 01f6 D1D1     		bne	.L193
 1025 01f8 2268     		ldr	r2, [r4]
 1026 01fa 1368     		ldr	r3, [r2]
 1027 01fc 43F40073 		orr	r3, r3, #512
 1028 0200 1360     		str	r3, [r2]
 1029 0202 CBE7     		b	.L193
 1030              	.L234:
 1031 0204 2268     		ldr	r2, [r4]
 1032 0206 B6E7     		b	.L188
 1033              	.L236:
 1034              		.align	2
 1035              	.L235:
 1036 0208 0000FFFF 		.word	-65536
 1037 020c 02000100 		.word	65538
 1038 0210 08000100 		.word	65544
 1040              		.section	.text.HAL_I2C_Master_Receive,"ax",%progbits
 1041              		.align	1
 1042              		.p2align 2,,3
 1043              		.global	HAL_I2C_Master_Receive
 1044              		.syntax unified
 1045              		.thumb
 1046              		.thumb_func
 1048              	HAL_I2C_Master_Receive:
 1049              		@ args = 4, pretend = 0, frame = 24
ARM GAS  /var/folders/lp/x54gwt890xv47sdkqj1k04q40000gn/T//ccZoWwdF.s 			page 19


 1050              		@ frame_needed = 0, uses_anonymous_args = 0
 1051 0000 2DE9F047 		push	{r4, r5, r6, r7, r8, r9, r10, lr}
 1052 0004 0446     		mov	r4, r0
 1053 0006 86B0     		sub	sp, sp, #24
 1054 0008 9846     		mov	r8, r3
 1055 000a 0E9D     		ldr	r5, [sp, #56]
 1056 000c 0F46     		mov	r7, r1
 1057 000e 9146     		mov	r9, r2
 1058 0010 FFF7FEFF 		bl	HAL_GetTick
 1059 0014 94F83D30 		ldrb	r3, [r4, #61]	@ zero_extendqisi2
 1060 0018 202B     		cmp	r3, #32
 1061 001a 04D0     		beq	.L331
 1062              	.L239:
 1063 001c 0227     		movs	r7, #2
 1064              	.L240:
 1065 001e 3846     		mov	r0, r7
 1066 0020 06B0     		add	sp, sp, #24
 1067              		@ sp needed
 1068 0022 BDE8F087 		pop	{r4, r5, r6, r7, r8, r9, r10, pc}
 1069              	.L331:
 1070 0026 0646     		mov	r6, r0
 1071 0028 05E0     		b	.L238
 1072              	.L241:
 1073 002a FFF7FEFF 		bl	HAL_GetTick
 1074 002e 801B     		subs	r0, r0, r6
 1075 0030 1928     		cmp	r0, #25
 1076 0032 00F2C180 		bhi	.L332
 1077              	.L238:
 1078 0036 2368     		ldr	r3, [r4]
 1079 0038 9869     		ldr	r0, [r3, #24]
 1080 003a C043     		mvns	r0, r0
 1081 003c 10F0020A 		ands	r10, r0, #2
 1082 0040 F3D0     		beq	.L241
 1083 0042 94F83C20 		ldrb	r2, [r4, #60]	@ zero_extendqisi2
 1084 0046 012A     		cmp	r2, #1
 1085 0048 E8D0     		beq	.L239
 1086 004a 0122     		movs	r2, #1
 1087 004c 84F83C20 		strb	r2, [r4, #60]
 1088 0050 1A68     		ldr	r2, [r3]
 1089 0052 D207     		lsls	r2, r2, #31
 1090 0054 79D5     		bpl	.L333
 1091              	.L243:
 1092 0056 1A68     		ldr	r2, [r3]
 1093 0058 5E49     		ldr	r1, .L340
 1094 005a 22F40062 		bic	r2, r2, #2048
 1095 005e 1A60     		str	r2, [r3]
 1096 0060 2222     		movs	r2, #34
 1097 0062 84F83D20 		strb	r2, [r4, #61]
 1098 0066 1022     		movs	r2, #16
 1099 0068 84F83E20 		strb	r2, [r4, #62]
 1100 006c 0022     		movs	r2, #0
 1101 006e 2264     		str	r2, [r4, #64]
 1102 0070 A4F82A80 		strh	r8, [r4, #42]	@ movhi
 1103 0074 628D     		ldrh	r2, [r4, #42]
 1104 0076 E162     		str	r1, [r4, #44]
 1105 0078 E16A     		ldr	r1, [r4, #44]
 1106 007a 2285     		strh	r2, [r4, #40]	@ movhi
ARM GAS  /var/folders/lp/x54gwt890xv47sdkqj1k04q40000gn/T//ccZoWwdF.s 			page 20


 1107 007c 1A68     		ldr	r2, [r3]
 1108 007e C4F82490 		str	r9, [r4, #36]
 1109 0082 42F48062 		orr	r2, r2, #1024
 1110 0086 0829     		cmp	r1, #8
 1111 0088 1A60     		str	r2, [r3]
 1112 008a 07D0     		beq	.L327
 1113 008c 0129     		cmp	r1, #1
 1114 008e 05D0     		beq	.L327
 1115 0090 11F5803F 		cmn	r1, #65536
 1116 0094 02D0     		beq	.L327
 1117 0096 226B     		ldr	r2, [r4, #48]
 1118 0098 112A     		cmp	r2, #17
 1119 009a 03D1     		bne	.L246
 1120              	.L327:
 1121 009c 1A68     		ldr	r2, [r3]
 1122 009e 42F48072 		orr	r2, r2, #256
 1123 00a2 1A60     		str	r2, [r3]
 1124              	.L246:
 1125 00a4 5A69     		ldr	r2, [r3, #20]
 1126 00a6 D207     		lsls	r2, r2, #31
 1127 00a8 04D4     		bmi	.L250
 1128 00aa 681C     		adds	r0, r5, #1
 1129 00ac 2BD1     		bne	.L248
 1130              	.L249:
 1131 00ae 5A69     		ldr	r2, [r3, #20]
 1132 00b0 D107     		lsls	r1, r2, #31
 1133 00b2 FCD5     		bpl	.L249
 1134              	.L250:
 1135 00b4 2269     		ldr	r2, [r4, #16]
 1136 00b6 B2F5804F 		cmp	r2, #16384
 1137 00ba 4BD1     		bne	.L334
 1138 00bc 47F00102 		orr	r2, r7, #1
 1139 00c0 D2B2     		uxtb	r2, r2
 1140 00c2 1A61     		str	r2, [r3, #16]
 1141              	.L257:
 1142 00c4 4449     		ldr	r1, .L340+4
 1143 00c6 3346     		mov	r3, r6
 1144 00c8 2A46     		mov	r2, r5
 1145 00ca 2046     		mov	r0, r4
 1146 00cc FFF7FEFF 		bl	I2C_WaitOnMasterAddressFlagUntilTimeout
 1147 00d0 0746     		mov	r7, r0
 1148 00d2 0028     		cmp	r0, #0
 1149 00d4 34D1     		bne	.L253
 1150 00d6 238D     		ldrh	r3, [r4, #40]
 1151 00d8 2268     		ldr	r2, [r4]
 1152 00da 002B     		cmp	r3, #0
 1153 00dc 40F08080 		bne	.L266
 1154 00e0 0190     		str	r0, [sp, #4]
 1155 00e2 5369     		ldr	r3, [r2, #20]
 1156 00e4 0193     		str	r3, [sp, #4]
 1157 00e6 9369     		ldr	r3, [r2, #24]
 1158 00e8 0193     		str	r3, [sp, #4]
 1159 00ea 019B     		ldr	r3, [sp, #4]
 1160 00ec 1368     		ldr	r3, [r2]
 1161 00ee 43F40073 		orr	r3, r3, #512
 1162 00f2 1360     		str	r3, [r2]
 1163              	.L267:
ARM GAS  /var/folders/lp/x54gwt890xv47sdkqj1k04q40000gn/T//ccZoWwdF.s 			page 21


 1164 00f4 0023     		movs	r3, #0
 1165 00f6 2022     		movs	r2, #32
 1166 00f8 84F83D20 		strb	r2, [r4, #61]
 1167 00fc 84F83C30 		strb	r3, [r4, #60]
 1168 0100 84F83E30 		strb	r3, [r4, #62]
 1169 0104 8BE7     		b	.L240
 1170              	.L248:
 1171 0106 FFF7FEFF 		bl	HAL_GetTick
 1172 010a 831B     		subs	r3, r0, r6
 1173 010c 9D42     		cmp	r5, r3
 1174 010e C0F06F81 		bcc	.L329
 1175 0112 2368     		ldr	r3, [r4]
 1176 0114 1946     		mov	r1, r3
 1177 0116 002D     		cmp	r5, #0
 1178 0118 C4D1     		bne	.L246
 1179              	.L263:
 1180 011a 0022     		movs	r2, #0
 1181 011c 2023     		movs	r3, #32
 1182 011e 2263     		str	r2, [r4, #48]
 1183 0120 84F83D30 		strb	r3, [r4, #61]
 1184 0124 84F83E20 		strb	r2, [r4, #62]
 1185 0128 236C     		ldr	r3, [r4, #64]
 1186 012a 84F83C20 		strb	r2, [r4, #60]
 1187 012e 43F02003 		orr	r3, r3, #32
 1188 0132 2364     		str	r3, [r4, #64]
 1189 0134 0B68     		ldr	r3, [r1]
 1190 0136 D805     		lsls	r0, r3, #23
 1191 0138 02D5     		bpl	.L253
 1192 013a 4FF40073 		mov	r3, #512
 1193 013e 2364     		str	r3, [r4, #64]
 1194              	.L253:
 1195 0140 0127     		movs	r7, #1
 1196              	.L339:
 1197 0142 3846     		mov	r0, r7
 1198 0144 06B0     		add	sp, sp, #24
 1199              		@ sp needed
 1200 0146 BDE8F087 		pop	{r4, r5, r6, r7, r8, r9, r10, pc}
 1201              	.L333:
 1202 014a 1A68     		ldr	r2, [r3]
 1203 014c 42F00102 		orr	r2, r2, #1
 1204 0150 1A60     		str	r2, [r3]
 1205 0152 80E7     		b	.L243
 1206              	.L334:
 1207 0154 4FEAE718 		asr	r8, r7, #7
 1208 0158 08F00608 		and	r8, r8, #6
 1209 015c 48F0F002 		orr	r2, r8, #240
 1210 0160 1A61     		str	r2, [r3, #16]
 1211 0162 1E49     		ldr	r1, .L340+8
 1212 0164 3346     		mov	r3, r6
 1213 0166 2A46     		mov	r2, r5
 1214 0168 2046     		mov	r0, r4
 1215 016a FFF7FEFF 		bl	I2C_WaitOnMasterAddressFlagUntilTimeout
 1216 016e 0028     		cmp	r0, #0
 1217 0170 E6D1     		bne	.L253
 1218 0172 2368     		ldr	r3, [r4]
 1219 0174 1849     		ldr	r1, .L340+4
 1220 0176 FFB2     		uxtb	r7, r7
ARM GAS  /var/folders/lp/x54gwt890xv47sdkqj1k04q40000gn/T//ccZoWwdF.s 			page 22


 1221 0178 1F61     		str	r7, [r3, #16]
 1222 017a 2A46     		mov	r2, r5
 1223 017c 3346     		mov	r3, r6
 1224 017e 2046     		mov	r0, r4
 1225 0180 FFF7FEFF 		bl	I2C_WaitOnMasterAddressFlagUntilTimeout
 1226 0184 0028     		cmp	r0, #0
 1227 0186 DBD1     		bne	.L253
 1228 0188 2268     		ldr	r2, [r4]
 1229 018a 0590     		str	r0, [sp, #20]
 1230 018c 5369     		ldr	r3, [r2, #20]
 1231 018e 0593     		str	r3, [sp, #20]
 1232 0190 9369     		ldr	r3, [r2, #24]
 1233 0192 0593     		str	r3, [sp, #20]
 1234 0194 059B     		ldr	r3, [sp, #20]
 1235 0196 1368     		ldr	r3, [r2]
 1236 0198 43F48073 		orr	r3, r3, #256
 1237 019c 1360     		str	r3, [r2]
 1238              	.L259:
 1239 019e 5369     		ldr	r3, [r2, #20]
 1240 01a0 D907     		lsls	r1, r3, #31
 1241 01a2 05D4     		bmi	.L262
 1242 01a4 6B1C     		adds	r3, r5, #1
 1243 01a6 40F01881 		bne	.L260
 1244              	.L261:
 1245 01aa 5369     		ldr	r3, [r2, #20]
 1246 01ac DF07     		lsls	r7, r3, #31
 1247 01ae FCD5     		bpl	.L261
 1248              	.L262:
 1249 01b0 48F0F103 		orr	r3, r8, #241
 1250 01b4 1361     		str	r3, [r2, #16]
 1251 01b6 85E7     		b	.L257
 1252              	.L332:
 1253 01b8 2023     		movs	r3, #32
 1254 01ba C4F830A0 		str	r10, [r4, #48]
 1255 01be 84F83D30 		strb	r3, [r4, #61]
 1256 01c2 84F83EA0 		strb	r10, [r4, #62]
 1257 01c6 236C     		ldr	r3, [r4, #64]
 1258 01c8 84F83CA0 		strb	r10, [r4, #60]
 1259 01cc 43F02003 		orr	r3, r3, #32
 1260 01d0 2364     		str	r3, [r4, #64]
 1261 01d2 23E7     		b	.L239
 1262              	.L341:
 1263              		.align	2
 1264              	.L340:
 1265 01d4 0000FFFF 		.word	-65536
 1266 01d8 02000100 		.word	65538
 1267 01dc 08000100 		.word	65544
 1268              	.L266:
 1269 01e0 012B     		cmp	r3, #1
 1270 01e2 1168     		ldr	r1, [r2]
 1271 01e4 00F0EB80 		beq	.L335
 1272 01e8 022B     		cmp	r3, #2
 1273 01ea 00F0AD80 		beq	.L336
 1274 01ee 41F48061 		orr	r1, r1, #1024
 1275 01f2 1160     		str	r1, [r2]
 1276 01f4 0490     		str	r0, [sp, #16]
 1277 01f6 5169     		ldr	r1, [r2, #20]
ARM GAS  /var/folders/lp/x54gwt890xv47sdkqj1k04q40000gn/T//ccZoWwdF.s 			page 23


 1278 01f8 0491     		str	r1, [sp, #16]
 1279 01fa 9269     		ldr	r2, [r2, #24]
 1280 01fc 0492     		str	r2, [sp, #16]
 1281 01fe 049A     		ldr	r2, [sp, #16]
 1282              	.L269:
 1283 0200 032B     		cmp	r3, #3
 1284 0202 4FD8     		bhi	.L272
 1285              	.L338:
 1286 0204 012B     		cmp	r3, #1
 1287 0206 00F0CD80 		beq	.L337
 1288 020a 022B     		cmp	r3, #2
 1289 020c 71D0     		beq	.L275
 1290              	.L276:
 1291 020e 2268     		ldr	r2, [r4]
 1292 0210 5369     		ldr	r3, [r2, #20]
 1293 0212 5907     		lsls	r1, r3, #29
 1294 0214 05D4     		bmi	.L284
 1295 0216 6B1C     		adds	r3, r5, #1
 1296 0218 40F0A480 		bne	.L282
 1297              	.L283:
 1298 021c 5369     		ldr	r3, [r2, #20]
 1299 021e 5807     		lsls	r0, r3, #29
 1300 0220 FCD5     		bpl	.L283
 1301              	.L284:
 1302 0222 1368     		ldr	r3, [r2]
 1303 0224 616A     		ldr	r1, [r4, #36]
 1304 0226 23F48063 		bic	r3, r3, #1024
 1305 022a 1360     		str	r3, [r2]
 1306 022c 1369     		ldr	r3, [r2, #16]
 1307 022e 0B70     		strb	r3, [r1]
 1308 0230 638D     		ldrh	r3, [r4, #42]
 1309 0232 616A     		ldr	r1, [r4, #36]
 1310 0234 228D     		ldrh	r2, [r4, #40]
 1311 0236 013B     		subs	r3, r3, #1
 1312 0238 0131     		adds	r1, r1, #1
 1313 023a 013A     		subs	r2, r2, #1
 1314 023c 9BB2     		uxth	r3, r3
 1315 023e 6162     		str	r1, [r4, #36]
 1316 0240 2285     		strh	r2, [r4, #40]	@ movhi
 1317 0242 6385     		strh	r3, [r4, #42]	@ movhi
 1318              	.L287:
 1319 0244 2268     		ldr	r2, [r4]
 1320 0246 5369     		ldr	r3, [r2, #20]
 1321 0248 5907     		lsls	r1, r3, #29
 1322 024a 05D4     		bmi	.L290
 1323 024c 6B1C     		adds	r3, r5, #1
 1324 024e 40F0A080 		bne	.L288
 1325              	.L289:
 1326 0252 5369     		ldr	r3, [r2, #20]
 1327 0254 5807     		lsls	r0, r3, #29
 1328 0256 FCD5     		bpl	.L289
 1329              	.L290:
 1330 0258 1368     		ldr	r3, [r2]
 1331 025a 616A     		ldr	r1, [r4, #36]
 1332 025c 43F40073 		orr	r3, r3, #512
 1333 0260 1360     		str	r3, [r2]
 1334 0262 1369     		ldr	r3, [r2, #16]
ARM GAS  /var/folders/lp/x54gwt890xv47sdkqj1k04q40000gn/T//ccZoWwdF.s 			page 24


 1335 0264 0B70     		strb	r3, [r1]
 1336 0266 638D     		ldrh	r3, [r4, #42]
 1337 0268 228D     		ldrh	r2, [r4, #40]
 1338 026a 606A     		ldr	r0, [r4, #36]
 1339 026c 2168     		ldr	r1, [r4]
 1340 026e 013B     		subs	r3, r3, #1
 1341 0270 9BB2     		uxth	r3, r3
 1342 0272 6385     		strh	r3, [r4, #42]	@ movhi
 1343 0274 0969     		ldr	r1, [r1, #16]
 1344 0276 531E     		subs	r3, r2, #1
 1345 0278 00F1010C 		add	ip, r0, #1
 1346 027c C4F824C0 		str	ip, [r4, #36]
 1347 0280 2385     		strh	r3, [r4, #40]	@ movhi
 1348 0282 4170     		strb	r1, [r0, #1]
 1349 0284 238D     		ldrh	r3, [r4, #40]
 1350 0286 628D     		ldrh	r2, [r4, #42]
 1351 0288 616A     		ldr	r1, [r4, #36]
 1352 028a 013B     		subs	r3, r3, #1
 1353 028c 013A     		subs	r2, r2, #1
 1354 028e 0131     		adds	r1, r1, #1
 1355 0290 9BB2     		uxth	r3, r3
 1356 0292 92B2     		uxth	r2, r2
 1357 0294 6162     		str	r1, [r4, #36]
 1358 0296 2385     		strh	r3, [r4, #40]	@ movhi
 1359 0298 6285     		strh	r2, [r4, #42]	@ movhi
 1360              	.L274:
 1361 029a 002B     		cmp	r3, #0
 1362 029c 3FF42AAF 		beq	.L267
 1363              	.L330:
 1364 02a0 032B     		cmp	r3, #3
 1365 02a2 AFD9     		bls	.L338
 1366              	.L272:
 1367 02a4 3246     		mov	r2, r6
 1368 02a6 2946     		mov	r1, r5
 1369 02a8 2046     		mov	r0, r4
 1370 02aa FFF7FEFF 		bl	I2C_WaitOnRXNEFlagUntilTimeout
 1371 02ae 0028     		cmp	r0, #0
 1372 02b0 7FF446AF 		bne	.L253
 1373 02b4 2268     		ldr	r2, [r4]
 1374 02b6 636A     		ldr	r3, [r4, #36]
 1375 02b8 1269     		ldr	r2, [r2, #16]
 1376 02ba 1A70     		strb	r2, [r3]
 1377 02bc 628D     		ldrh	r2, [r4, #42]
 1378 02be 2068     		ldr	r0, [r4]
 1379 02c0 238D     		ldrh	r3, [r4, #40]
 1380 02c2 616A     		ldr	r1, [r4, #36]
 1381 02c4 013A     		subs	r2, r2, #1
 1382 02c6 92B2     		uxth	r2, r2
 1383 02c8 6285     		strh	r2, [r4, #42]	@ movhi
 1384 02ca 4269     		ldr	r2, [r0, #20]
 1385 02cc 013B     		subs	r3, r3, #1
 1386 02ce 9BB2     		uxth	r3, r3
 1387 02d0 01F1010C 		add	ip, r1, #1
 1388 02d4 5207     		lsls	r2, r2, #29
 1389 02d6 2385     		strh	r3, [r4, #40]	@ movhi
 1390 02d8 C4F824C0 		str	ip, [r4, #36]
 1391 02dc DDD5     		bpl	.L274
ARM GAS  /var/folders/lp/x54gwt890xv47sdkqj1k04q40000gn/T//ccZoWwdF.s 			page 25


 1392 02de 0369     		ldr	r3, [r0, #16]
 1393 02e0 4B70     		strb	r3, [r1, #1]
 1394 02e2 23E0     		b	.L328
 1395              	.L277:
 1396 02e4 FFF7FEFF 		bl	HAL_GetTick
 1397 02e8 801B     		subs	r0, r0, r6
 1398 02ea 8542     		cmp	r5, r0
 1399 02ec 42D3     		bcc	.L285
 1400 02ee 002D     		cmp	r5, #0
 1401 02f0 40D0     		beq	.L285
 1402              	.L275:
 1403 02f2 2268     		ldr	r2, [r4]
 1404 02f4 5369     		ldr	r3, [r2, #20]
 1405 02f6 5907     		lsls	r1, r3, #29
 1406 02f8 04D4     		bmi	.L279
 1407 02fa 6B1C     		adds	r3, r5, #1
 1408 02fc F2D1     		bne	.L277
 1409              	.L278:
 1410 02fe 5369     		ldr	r3, [r2, #20]
 1411 0300 5807     		lsls	r0, r3, #29
 1412 0302 FCD5     		bpl	.L278
 1413              	.L279:
 1414 0304 1368     		ldr	r3, [r2]
 1415 0306 43F40073 		orr	r3, r3, #512
 1416 030a 1360     		str	r3, [r2]
 1417 030c 636A     		ldr	r3, [r4, #36]
 1418 030e 1269     		ldr	r2, [r2, #16]
 1419 0310 1A70     		strb	r2, [r3]
 1420 0312 638D     		ldrh	r3, [r4, #42]
 1421 0314 626A     		ldr	r2, [r4, #36]
 1422 0316 013B     		subs	r3, r3, #1
 1423 0318 9BB2     		uxth	r3, r3
 1424 031a 6385     		strh	r3, [r4, #42]	@ movhi
 1425 031c 238D     		ldrh	r3, [r4, #40]
 1426 031e 013B     		subs	r3, r3, #1
 1427 0320 2385     		strh	r3, [r4, #40]	@ movhi
 1428 0322 2368     		ldr	r3, [r4]
 1429 0324 511C     		adds	r1, r2, #1
 1430 0326 1B69     		ldr	r3, [r3, #16]
 1431 0328 6162     		str	r1, [r4, #36]
 1432 032a 5370     		strb	r3, [r2, #1]
 1433              	.L328:
 1434 032c 636A     		ldr	r3, [r4, #36]
 1435 032e 628D     		ldrh	r2, [r4, #42]
 1436 0330 0133     		adds	r3, r3, #1
 1437 0332 6362     		str	r3, [r4, #36]
 1438 0334 238D     		ldrh	r3, [r4, #40]
 1439 0336 013A     		subs	r2, r2, #1
 1440 0338 013B     		subs	r3, r3, #1
 1441 033a 9BB2     		uxth	r3, r3
 1442 033c 92B2     		uxth	r2, r2
 1443 033e 2385     		strh	r3, [r4, #40]	@ movhi
 1444 0340 6285     		strh	r2, [r4, #42]	@ movhi
 1445 0342 002B     		cmp	r3, #0
 1446 0344 ACD1     		bne	.L330
 1447 0346 D5E6     		b	.L267
 1448              	.L336:
ARM GAS  /var/folders/lp/x54gwt890xv47sdkqj1k04q40000gn/T//ccZoWwdF.s 			page 26


 1449 0348 21F48061 		bic	r1, r1, #1024
 1450 034c 1160     		str	r1, [r2]
 1451 034e 1168     		ldr	r1, [r2]
 1452 0350 41F40061 		orr	r1, r1, #2048
 1453 0354 1160     		str	r1, [r2]
 1454 0356 0390     		str	r0, [sp, #12]
 1455 0358 5169     		ldr	r1, [r2, #20]
 1456 035a 0391     		str	r1, [sp, #12]
 1457 035c 9269     		ldr	r2, [r2, #24]
 1458 035e 0392     		str	r2, [sp, #12]
 1459 0360 039A     		ldr	r2, [sp, #12]
 1460 0362 4DE7     		b	.L269
 1461              	.L282:
 1462 0364 FFF7FEFF 		bl	HAL_GetTick
 1463 0368 801B     		subs	r0, r0, r6
 1464 036a 8542     		cmp	r5, r0
 1465 036c 02D3     		bcc	.L285
 1466 036e 002D     		cmp	r5, #0
 1467 0370 7FF44DAF 		bne	.L276
 1468              	.L285:
 1469 0374 0022     		movs	r2, #0
 1470 0376 2023     		movs	r3, #32
 1471 0378 2263     		str	r2, [r4, #48]
 1472 037a 84F83D30 		strb	r3, [r4, #61]
 1473 037e 84F83E20 		strb	r2, [r4, #62]
 1474 0382 236C     		ldr	r3, [r4, #64]
 1475 0384 84F83C20 		strb	r2, [r4, #60]
 1476 0388 43F02003 		orr	r3, r3, #32
 1477 038c 2364     		str	r3, [r4, #64]
 1478 038e 0127     		movs	r7, #1
 1479 0390 D7E6     		b	.L339
 1480              	.L288:
 1481 0392 FFF7FEFF 		bl	HAL_GetTick
 1482 0396 801B     		subs	r0, r0, r6
 1483 0398 8542     		cmp	r5, r0
 1484 039a EBD3     		bcc	.L285
 1485 039c 002D     		cmp	r5, #0
 1486 039e 7FF451AF 		bne	.L287
 1487 03a2 E7E7     		b	.L285
 1488              	.L337:
 1489 03a4 3246     		mov	r2, r6
 1490 03a6 2946     		mov	r1, r5
 1491 03a8 2046     		mov	r0, r4
 1492 03aa FFF7FEFF 		bl	I2C_WaitOnRXNEFlagUntilTimeout
 1493 03ae 0028     		cmp	r0, #0
 1494 03b0 7FF4C6AE 		bne	.L253
 1495 03b4 2368     		ldr	r3, [r4]
 1496 03b6 1A69     		ldr	r2, [r3, #16]
 1497 03b8 636A     		ldr	r3, [r4, #36]
 1498 03ba 1A70     		strb	r2, [r3]
 1499 03bc B6E7     		b	.L328
 1500              	.L335:
 1501 03be 21F48061 		bic	r1, r1, #1024
 1502 03c2 1160     		str	r1, [r2]
 1503 03c4 0290     		str	r0, [sp, #8]
 1504 03c6 5169     		ldr	r1, [r2, #20]
 1505 03c8 0291     		str	r1, [sp, #8]
ARM GAS  /var/folders/lp/x54gwt890xv47sdkqj1k04q40000gn/T//ccZoWwdF.s 			page 27


 1506 03ca 9169     		ldr	r1, [r2, #24]
 1507 03cc 0291     		str	r1, [sp, #8]
 1508 03ce 0299     		ldr	r1, [sp, #8]
 1509 03d0 1168     		ldr	r1, [r2]
 1510 03d2 41F40071 		orr	r1, r1, #512
 1511 03d6 1160     		str	r1, [r2]
 1512 03d8 12E7     		b	.L269
 1513              	.L260:
 1514 03da FFF7FEFF 		bl	HAL_GetTick
 1515 03de 831B     		subs	r3, r0, r6
 1516 03e0 9D42     		cmp	r5, r3
 1517 03e2 05D3     		bcc	.L329
 1518 03e4 2268     		ldr	r2, [r4]
 1519 03e6 1146     		mov	r1, r2
 1520 03e8 002D     		cmp	r5, #0
 1521 03ea 7FF4D8AE 		bne	.L259
 1522 03ee 94E6     		b	.L263
 1523              	.L329:
 1524 03f0 2168     		ldr	r1, [r4]
 1525 03f2 92E6     		b	.L263
 1527              		.section	.text.HAL_I2C_Slave_Transmit,"ax",%progbits
 1528              		.align	1
 1529              		.p2align 2,,3
 1530              		.global	HAL_I2C_Slave_Transmit
 1531              		.syntax unified
 1532              		.thumb
 1533              		.thumb_func
 1535              	HAL_I2C_Slave_Transmit:
 1536              		@ args = 0, pretend = 0, frame = 8
 1537              		@ frame_needed = 0, uses_anonymous_args = 0
 1538 0000 2DE9F041 		push	{r4, r5, r6, r7, r8, lr}
 1539 0004 0446     		mov	r4, r0
 1540 0006 82B0     		sub	sp, sp, #8
 1541 0008 1D46     		mov	r5, r3
 1542 000a 0F46     		mov	r7, r1
 1543 000c 9046     		mov	r8, r2
 1544 000e FFF7FEFF 		bl	HAL_GetTick
 1545 0012 94F83D30 		ldrb	r3, [r4, #61]	@ zero_extendqisi2
 1546 0016 202B     		cmp	r3, #32
 1547 0018 40F08A80 		bne	.L373
 1548 001c 002F     		cmp	r7, #0
 1549 001e 00F0B480 		beq	.L344
 1550 0022 B8F1000F 		cmp	r8, #0
 1551 0026 00F0B080 		beq	.L344
 1552 002a 94F83C30 		ldrb	r3, [r4, #60]	@ zero_extendqisi2
 1553 002e 012B     		cmp	r3, #1
 1554 0030 7ED0     		beq	.L373
 1555 0032 0123     		movs	r3, #1
 1556 0034 0646     		mov	r6, r0
 1557 0036 2068     		ldr	r0, [r4]
 1558 0038 84F83C30 		strb	r3, [r4, #60]
 1559 003c 0368     		ldr	r3, [r0]
 1560 003e D907     		lsls	r1, r3, #31
 1561 0040 40F18280 		bpl	.L399
 1562              	.L345:
 1563 0044 0368     		ldr	r3, [r0]
 1564 0046 23F40063 		bic	r3, r3, #2048
ARM GAS  /var/folders/lp/x54gwt890xv47sdkqj1k04q40000gn/T//ccZoWwdF.s 			page 28


 1565 004a 0360     		str	r3, [r0]
 1566 004c 2123     		movs	r3, #33
 1567 004e 84F83D30 		strb	r3, [r4, #61]
 1568 0052 2023     		movs	r3, #32
 1569 0054 84F83E30 		strb	r3, [r4, #62]
 1570 0058 0023     		movs	r3, #0
 1571 005a 2364     		str	r3, [r4, #64]
 1572 005c A4F82A80 		strh	r8, [r4, #42]	@ movhi
 1573 0060 638D     		ldrh	r3, [r4, #42]
 1574 0062 2385     		strh	r3, [r4, #40]	@ movhi
 1575 0064 564B     		ldr	r3, .L402
 1576 0066 E362     		str	r3, [r4, #44]
 1577 0068 0368     		ldr	r3, [r0]
 1578 006a 6762     		str	r7, [r4, #36]
 1579 006c 43F48063 		orr	r3, r3, #1024
 1580 0070 0360     		str	r3, [r0]
 1581              	.L346:
 1582 0072 4369     		ldr	r3, [r0, #20]
 1583 0074 9F07     		lsls	r7, r3, #30
 1584 0076 04D4     		bmi	.L349
 1585 0078 6A1C     		adds	r2, r5, #1
 1586 007a 5DD1     		bne	.L347
 1587              	.L348:
 1588 007c 4369     		ldr	r3, [r0, #20]
 1589 007e 9B07     		lsls	r3, r3, #30
 1590 0080 FCD5     		bpl	.L348
 1591              	.L349:
 1592 0082 0023     		movs	r3, #0
 1593 0084 0093     		str	r3, [sp]
 1594 0086 4369     		ldr	r3, [r0, #20]
 1595 0088 0093     		str	r3, [sp]
 1596 008a 8369     		ldr	r3, [r0, #24]
 1597 008c 0093     		str	r3, [sp]
 1598 008e 2369     		ldr	r3, [r4, #16]
 1599 0090 009A     		ldr	r2, [sp]
 1600 0092 B3F5404F 		cmp	r3, #49152
 1601 0096 63D0     		beq	.L353
 1602              	.L354:
 1603 0098 238D     		ldrh	r3, [r4, #40]
 1604 009a 002B     		cmp	r3, #0
 1605 009c 00F08D80 		beq	.L360
 1606              	.L364:
 1607 00a0 3246     		mov	r2, r6
 1608 00a2 2946     		mov	r1, r5
 1609 00a4 2046     		mov	r0, r4
 1610 00a6 FFF7FEFF 		bl	I2C_WaitOnTXEFlagUntilTimeout
 1611 00aa 0028     		cmp	r0, #0
 1612 00ac 68D1     		bne	.L400
 1613 00ae 606A     		ldr	r0, [r4, #36]
 1614 00b0 2368     		ldr	r3, [r4]
 1615 00b2 B4F828E0 		ldrh	lr, [r4, #40]
 1616 00b6 0246     		mov	r2, r0
 1617 00b8 12F8011B 		ldrb	r1, [r2], #1	@ zero_extendqisi2
 1618 00bc 1961     		str	r1, [r3, #16]
 1619 00be B4F82AC0 		ldrh	ip, [r4, #42]
 1620 00c2 6262     		str	r2, [r4, #36]
 1621 00c4 0CF1FF3C 		add	ip, ip, #-1
ARM GAS  /var/folders/lp/x54gwt890xv47sdkqj1k04q40000gn/T//ccZoWwdF.s 			page 29


 1622 00c8 1FFA8CFC 		uxth	ip, ip
 1623 00cc A4F82AC0 		strh	ip, [r4, #42]	@ movhi
 1624 00d0 5A69     		ldr	r2, [r3, #20]
 1625 00d2 0EF1FF31 		add	r1, lr, #-1
 1626 00d6 89B2     		uxth	r1, r1
 1627 00d8 5707     		lsls	r7, r2, #29
 1628 00da 2185     		strh	r1, [r4, #40]	@ movhi
 1629 00dc 25D5     		bpl	.L362
 1630 00de B9B9     		cbnz	r1, .L401
 1631              	.L370:
 1632 00e0 5A69     		ldr	r2, [r3, #20]
 1633 00e2 5205     		lsls	r2, r2, #21
 1634 00e4 04D4     		bmi	.L368
 1635 00e6 681C     		adds	r0, r5, #1
 1636 00e8 51D1     		bne	.L366
 1637              	.L367:
 1638 00ea 5A69     		ldr	r2, [r3, #20]
 1639 00ec 5105     		lsls	r1, r2, #21
 1640 00ee FCD5     		bpl	.L367
 1641              	.L368:
 1642 00f0 6FF48062 		mvn	r2, #1024
 1643 00f4 5A61     		str	r2, [r3, #20]
 1644 00f6 1A68     		ldr	r2, [r3]
 1645 00f8 0020     		movs	r0, #0
 1646 00fa 22F48062 		bic	r2, r2, #1024
 1647 00fe 2021     		movs	r1, #32
 1648 0100 1A60     		str	r2, [r3]
 1649 0102 84F83D10 		strb	r1, [r4, #61]
 1650 0106 84F83C00 		strb	r0, [r4, #60]
 1651 010a 84F83E00 		strb	r0, [r4, #62]
 1652 010e 10E0     		b	.L343
 1653              	.L401:
 1654 0110 4278     		ldrb	r2, [r0, #1]	@ zero_extendqisi2
 1655 0112 1A61     		str	r2, [r3, #16]
 1656 0114 628D     		ldrh	r2, [r4, #42]
 1657 0116 AEF1020E 		sub	lr, lr, #2
 1658 011a 013A     		subs	r2, r2, #1
 1659 011c 1FFA8EF1 		uxth	r1, lr
 1660 0120 0230     		adds	r0, r0, #2
 1661 0122 92B2     		uxth	r2, r2
 1662 0124 6062     		str	r0, [r4, #36]
 1663 0126 2185     		strh	r1, [r4, #40]	@ movhi
 1664 0128 6285     		strh	r2, [r4, #42]	@ movhi
 1665              	.L362:
 1666 012a 0029     		cmp	r1, #0
 1667 012c B8D1     		bne	.L364
 1668 012e D7E7     		b	.L370
 1669              	.L373:
 1670 0130 0220     		movs	r0, #2
 1671              	.L343:
 1672 0132 02B0     		add	sp, sp, #8
 1673              		@ sp needed
 1674 0134 BDE8F081 		pop	{r4, r5, r6, r7, r8, pc}
 1675              	.L347:
 1676 0138 FFF7FEFF 		bl	HAL_GetTick
 1677 013c 801B     		subs	r0, r0, r6
 1678 013e 8542     		cmp	r5, r0
ARM GAS  /var/folders/lp/x54gwt890xv47sdkqj1k04q40000gn/T//ccZoWwdF.s 			page 30


 1679 0140 2DD3     		bcc	.L358
 1680 0142 65B3     		cbz	r5, .L358
 1681 0144 2068     		ldr	r0, [r4]
 1682 0146 94E7     		b	.L346
 1683              	.L399:
 1684 0148 0368     		ldr	r3, [r0]
 1685 014a 43F00103 		orr	r3, r3, #1
 1686 014e 0360     		str	r3, [r0]
 1687 0150 78E7     		b	.L345
 1688              	.L355:
 1689 0152 FFF7FEFF 		bl	HAL_GetTick
 1690 0156 831B     		subs	r3, r0, r6
 1691 0158 9D42     		cmp	r5, r3
 1692 015a 20D3     		bcc	.L358
 1693 015c FDB1     		cbz	r5, .L358
 1694 015e 2068     		ldr	r0, [r4]
 1695              	.L353:
 1696 0160 4369     		ldr	r3, [r0, #20]
 1697 0162 9B07     		lsls	r3, r3, #30
 1698 0164 04D4     		bmi	.L357
 1699 0166 691C     		adds	r1, r5, #1
 1700 0168 F3D1     		bne	.L355
 1701              	.L356:
 1702 016a 4369     		ldr	r3, [r0, #20]
 1703 016c 9A07     		lsls	r2, r3, #30
 1704 016e FCD5     		bpl	.L356
 1705              	.L357:
 1706 0170 0023     		movs	r3, #0
 1707 0172 0193     		str	r3, [sp, #4]
 1708 0174 4369     		ldr	r3, [r0, #20]
 1709 0176 0193     		str	r3, [sp, #4]
 1710 0178 8369     		ldr	r3, [r0, #24]
 1711 017a 0193     		str	r3, [sp, #4]
 1712 017c 019B     		ldr	r3, [sp, #4]
 1713 017e 8BE7     		b	.L354
 1714              	.L400:
 1715 0180 2268     		ldr	r2, [r4]
 1716 0182 1368     		ldr	r3, [r2]
 1717 0184 23F48063 		bic	r3, r3, #1024
 1718 0188 1360     		str	r3, [r2]
 1719              	.L344:
 1720 018a 0120     		movs	r0, #1
 1721 018c D1E7     		b	.L343
 1722              	.L366:
 1723 018e FFF7FEFF 		bl	HAL_GetTick
 1724 0192 801B     		subs	r0, r0, r6
 1725 0194 8542     		cmp	r5, r0
 1726 0196 02D3     		bcc	.L358
 1727 0198 0DB1     		cbz	r5, .L358
 1728 019a 2368     		ldr	r3, [r4]
 1729 019c A0E7     		b	.L370
 1730              	.L358:
 1731 019e 0022     		movs	r2, #0
 1732 01a0 2023     		movs	r3, #32
 1733 01a2 2263     		str	r2, [r4, #48]
 1734 01a4 84F83D30 		strb	r3, [r4, #61]
 1735 01a8 84F83E20 		strb	r2, [r4, #62]
ARM GAS  /var/folders/lp/x54gwt890xv47sdkqj1k04q40000gn/T//ccZoWwdF.s 			page 31


 1736 01ac 236C     		ldr	r3, [r4, #64]
 1737 01ae 84F83C20 		strb	r2, [r4, #60]
 1738 01b2 43F02003 		orr	r3, r3, #32
 1739 01b6 2364     		str	r3, [r4, #64]
 1740 01b8 E7E7     		b	.L344
 1741              	.L360:
 1742 01ba 0346     		mov	r3, r0
 1743 01bc 90E7     		b	.L370
 1744              	.L403:
 1745 01be 00BF     		.align	2
 1746              	.L402:
 1747 01c0 0000FFFF 		.word	-65536
 1749              		.section	.text.HAL_I2C_Slave_Receive,"ax",%progbits
 1750              		.align	1
 1751              		.p2align 2,,3
 1752              		.global	HAL_I2C_Slave_Receive
 1753              		.syntax unified
 1754              		.thumb
 1755              		.thumb_func
 1757              	HAL_I2C_Slave_Receive:
 1758              		@ args = 0, pretend = 0, frame = 8
 1759              		@ frame_needed = 0, uses_anonymous_args = 0
 1760 0000 2DE9F043 		push	{r4, r5, r6, r7, r8, r9, lr}
 1761 0004 0446     		mov	r4, r0
 1762 0006 83B0     		sub	sp, sp, #12
 1763 0008 1E46     		mov	r6, r3
 1764 000a 8846     		mov	r8, r1
 1765 000c 9146     		mov	r9, r2
 1766 000e FFF7FEFF 		bl	HAL_GetTick
 1767 0012 94F83D30 		ldrb	r3, [r4, #61]	@ zero_extendqisi2
 1768 0016 202B     		cmp	r3, #32
 1769 0018 40F08E80 		bne	.L425
 1770 001c B8F1000F 		cmp	r8, #0
 1771 0020 00F0A080 		beq	.L406
 1772 0024 B9F1000F 		cmp	r9, #0
 1773 0028 00F09C80 		beq	.L406
 1774 002c 94F83C30 		ldrb	r3, [r4, #60]	@ zero_extendqisi2
 1775 0030 012B     		cmp	r3, #1
 1776 0032 00F08180 		beq	.L425
 1777 0036 0123     		movs	r3, #1
 1778 0038 2568     		ldr	r5, [r4]
 1779 003a 84F83C30 		strb	r3, [r4, #60]
 1780 003e 2B68     		ldr	r3, [r5]
 1781 0040 0746     		mov	r7, r0
 1782 0042 D807     		lsls	r0, r3, #31
 1783 0044 40F18580 		bpl	.L448
 1784              	.L407:
 1785 0048 2B68     		ldr	r3, [r5]
 1786 004a 23F40063 		bic	r3, r3, #2048
 1787 004e 2B60     		str	r3, [r5]
 1788 0050 2223     		movs	r3, #34
 1789 0052 84F83D30 		strb	r3, [r4, #61]
 1790 0056 2023     		movs	r3, #32
 1791 0058 84F83E30 		strb	r3, [r4, #62]
 1792 005c 0023     		movs	r3, #0
 1793 005e 2364     		str	r3, [r4, #64]
 1794 0060 A4F82A90 		strh	r9, [r4, #42]	@ movhi
ARM GAS  /var/folders/lp/x54gwt890xv47sdkqj1k04q40000gn/T//ccZoWwdF.s 			page 32


 1795 0064 638D     		ldrh	r3, [r4, #42]
 1796 0066 2385     		strh	r3, [r4, #40]	@ movhi
 1797 0068 594B     		ldr	r3, .L451
 1798 006a E362     		str	r3, [r4, #44]
 1799 006c 2B68     		ldr	r3, [r5]
 1800 006e C4F82480 		str	r8, [r4, #36]
 1801 0072 43F48063 		orr	r3, r3, #1024
 1802 0076 2B60     		str	r3, [r5]
 1803              	.L408:
 1804 0078 6B69     		ldr	r3, [r5, #20]
 1805 007a 9B07     		lsls	r3, r3, #30
 1806 007c 04D4     		bmi	.L411
 1807 007e 711C     		adds	r1, r6, #1
 1808 0080 5ED1     		bne	.L409
 1809              	.L410:
 1810 0082 6B69     		ldr	r3, [r5, #20]
 1811 0084 9A07     		lsls	r2, r3, #30
 1812 0086 FCD5     		bpl	.L410
 1813              	.L411:
 1814 0088 0023     		movs	r3, #0
 1815 008a 0093     		str	r3, [sp]
 1816 008c 6B69     		ldr	r3, [r5, #20]
 1817 008e 0093     		str	r3, [sp]
 1818 0090 AB69     		ldr	r3, [r5, #24]
 1819 0092 0093     		str	r3, [sp]
 1820 0094 238D     		ldrh	r3, [r4, #40]
 1821 0096 009A     		ldr	r2, [sp]
 1822 0098 002B     		cmp	r3, #0
 1823 009a 32D0     		beq	.L422
 1824              	.L418:
 1825 009c 3A46     		mov	r2, r7
 1826 009e 3146     		mov	r1, r6
 1827 00a0 2046     		mov	r0, r4
 1828 00a2 FFF7FEFF 		bl	I2C_WaitOnRXNEFlagUntilTimeout
 1829 00a6 2268     		ldr	r2, [r4]
 1830 00a8 0028     		cmp	r0, #0
 1831 00aa 57D1     		bne	.L449
 1832 00ac 636A     		ldr	r3, [r4, #36]
 1833 00ae 1269     		ldr	r2, [r2, #16]
 1834 00b0 1A70     		strb	r2, [r3]
 1835 00b2 638D     		ldrh	r3, [r4, #42]
 1836 00b4 2568     		ldr	r5, [r4]
 1837 00b6 218D     		ldrh	r1, [r4, #40]
 1838 00b8 013B     		subs	r3, r3, #1
 1839 00ba 9BB2     		uxth	r3, r3
 1840 00bc 6385     		strh	r3, [r4, #42]	@ movhi
 1841 00be 636A     		ldr	r3, [r4, #36]
 1842 00c0 6A69     		ldr	r2, [r5, #20]
 1843 00c2 581C     		adds	r0, r3, #1
 1844 00c4 0139     		subs	r1, r1, #1
 1845 00c6 89B2     		uxth	r1, r1
 1846 00c8 6062     		str	r0, [r4, #36]
 1847 00ca 5007     		lsls	r0, r2, #29
 1848 00cc 2185     		strh	r1, [r4, #40]	@ movhi
 1849 00ce 0DD5     		bpl	.L417
 1850 00d0 B9B1     		cbz	r1, .L422
 1851 00d2 2A69     		ldr	r2, [r5, #16]
ARM GAS  /var/folders/lp/x54gwt890xv47sdkqj1k04q40000gn/T//ccZoWwdF.s 			page 33


 1852 00d4 5A70     		strb	r2, [r3, #1]
 1853 00d6 638D     		ldrh	r3, [r4, #42]
 1854 00d8 218D     		ldrh	r1, [r4, #40]
 1855 00da 626A     		ldr	r2, [r4, #36]
 1856 00dc 0139     		subs	r1, r1, #1
 1857 00de 013B     		subs	r3, r3, #1
 1858 00e0 89B2     		uxth	r1, r1
 1859 00e2 0132     		adds	r2, r2, #1
 1860 00e4 9BB2     		uxth	r3, r3
 1861 00e6 6262     		str	r2, [r4, #36]
 1862 00e8 2185     		strh	r1, [r4, #40]	@ movhi
 1863 00ea 6385     		strh	r3, [r4, #42]	@ movhi
 1864              	.L417:
 1865 00ec 0029     		cmp	r1, #0
 1866 00ee D5D1     		bne	.L418
 1867 00f0 06E0     		b	.L447
 1868              	.L419:
 1869 00f2 FFF7FEFF 		bl	HAL_GetTick
 1870 00f6 C01B     		subs	r0, r0, r7
 1871 00f8 8642     		cmp	r6, r0
 1872 00fa 4BD3     		bcc	.L421
 1873 00fc 002E     		cmp	r6, #0
 1874 00fe 49D0     		beq	.L421
 1875              	.L447:
 1876 0100 2568     		ldr	r5, [r4]
 1877              	.L422:
 1878 0102 6B69     		ldr	r3, [r5, #20]
 1879 0104 13F01003 		ands	r3, r3, #16
 1880 0108 2ED1     		bne	.L450
 1881 010a 6A69     		ldr	r2, [r5, #20]
 1882 010c 5205     		lsls	r2, r2, #21
 1883 010e F0D5     		bpl	.L419
 1884 0110 2022     		movs	r2, #32
 1885 0112 6FF48061 		mvn	r1, #1024
 1886 0116 6961     		str	r1, [r5, #20]
 1887 0118 2363     		str	r3, [r4, #48]
 1888 011a 84F83D20 		strb	r2, [r4, #61]
 1889 011e 84F83E30 		strb	r3, [r4, #62]
 1890 0122 226C     		ldr	r2, [r4, #64]
 1891 0124 84F83C30 		strb	r3, [r4, #60]
 1892 0128 42F00402 		orr	r2, r2, #4
 1893 012c 2264     		str	r2, [r4, #64]
 1894              	.L420:
 1895 012e 2B68     		ldr	r3, [r5]
 1896 0130 23F48063 		bic	r3, r3, #1024
 1897 0134 2B60     		str	r3, [r5]
 1898 0136 15E0     		b	.L406
 1899              	.L425:
 1900 0138 0220     		movs	r0, #2
 1901              	.L405:
 1902 013a 03B0     		add	sp, sp, #12
 1903              		@ sp needed
 1904 013c BDE8F083 		pop	{r4, r5, r6, r7, r8, r9, pc}
 1905              	.L409:
 1906 0140 FFF7FEFF 		bl	HAL_GetTick
 1907 0144 C01B     		subs	r0, r0, r7
 1908 0146 8642     		cmp	r6, r0
ARM GAS  /var/folders/lp/x54gwt890xv47sdkqj1k04q40000gn/T//ccZoWwdF.s 			page 34


 1909 0148 33D3     		bcc	.L412
 1910 014a 002E     		cmp	r6, #0
 1911 014c 31D0     		beq	.L412
 1912 014e 2568     		ldr	r5, [r4]
 1913 0150 92E7     		b	.L408
 1914              	.L448:
 1915 0152 2B68     		ldr	r3, [r5]
 1916 0154 43F00103 		orr	r3, r3, #1
 1917 0158 2B60     		str	r3, [r5]
 1918 015a 75E7     		b	.L407
 1919              	.L449:
 1920 015c 1368     		ldr	r3, [r2]
 1921 015e 23F48063 		bic	r3, r3, #1024
 1922 0162 1360     		str	r3, [r2]
 1923              	.L406:
 1924 0164 0120     		movs	r0, #1
 1925 0166 E8E7     		b	.L405
 1926              	.L450:
 1927 0168 0023     		movs	r3, #0
 1928 016a 0193     		str	r3, [sp, #4]
 1929 016c 6A69     		ldr	r2, [r5, #20]
 1930 016e 0192     		str	r2, [sp, #4]
 1931 0170 2A68     		ldr	r2, [r5]
 1932 0172 42F00102 		orr	r2, r2, #1
 1933 0176 2A60     		str	r2, [r5]
 1934 0178 019A     		ldr	r2, [sp, #4]
 1935 017a 2A68     		ldr	r2, [r5]
 1936 017c 2021     		movs	r1, #32
 1937 017e 22F48062 		bic	r2, r2, #1024
 1938 0182 2A60     		str	r2, [r5]
 1939 0184 1846     		mov	r0, r3
 1940 0186 84F83D10 		strb	r1, [r4, #61]
 1941 018a 84F83C30 		strb	r3, [r4, #60]
 1942 018e 84F83E30 		strb	r3, [r4, #62]
 1943 0192 D2E7     		b	.L405
 1944              	.L421:
 1945 0194 0023     		movs	r3, #0
 1946 0196 2022     		movs	r2, #32
 1947 0198 2363     		str	r3, [r4, #48]
 1948 019a 84F83D20 		strb	r2, [r4, #61]
 1949 019e 84F83E30 		strb	r3, [r4, #62]
 1950 01a2 226C     		ldr	r2, [r4, #64]
 1951 01a4 2568     		ldr	r5, [r4]
 1952 01a6 84F83C30 		strb	r3, [r4, #60]
 1953 01aa 42F02002 		orr	r2, r2, #32
 1954 01ae 2264     		str	r2, [r4, #64]
 1955 01b0 BDE7     		b	.L420
 1956              	.L412:
 1957 01b2 0022     		movs	r2, #0
 1958 01b4 2023     		movs	r3, #32
 1959 01b6 2263     		str	r2, [r4, #48]
 1960 01b8 84F83D30 		strb	r3, [r4, #61]
 1961 01bc 84F83E20 		strb	r2, [r4, #62]
 1962 01c0 236C     		ldr	r3, [r4, #64]
 1963 01c2 84F83C20 		strb	r2, [r4, #60]
 1964 01c6 43F02003 		orr	r3, r3, #32
 1965 01ca 2364     		str	r3, [r4, #64]
ARM GAS  /var/folders/lp/x54gwt890xv47sdkqj1k04q40000gn/T//ccZoWwdF.s 			page 35


 1966 01cc CAE7     		b	.L406
 1967              	.L452:
 1968 01ce 00BF     		.align	2
 1969              	.L451:
 1970 01d0 0000FFFF 		.word	-65536
 1972              		.section	.text.HAL_I2C_Master_Transmit_IT,"ax",%progbits
 1973              		.align	1
 1974              		.p2align 2,,3
 1975              		.global	HAL_I2C_Master_Transmit_IT
 1976              		.syntax unified
 1977              		.thumb
 1978              		.thumb_func
 1980              	HAL_I2C_Master_Transmit_IT:
 1981              		@ args = 0, pretend = 0, frame = 8
 1982              		@ frame_needed = 0, uses_anonymous_args = 0
 1983 0000 10B5     		push	{r4, lr}
 1984 0002 82B0     		sub	sp, sp, #8
 1985 0004 8446     		mov	ip, r0
 1986 0006 0020     		movs	r0, #0
 1987 0008 0190     		str	r0, [sp, #4]
 1988 000a 9CF83D00 		ldrb	r0, [ip, #61]	@ zero_extendqisi2
 1989 000e 2028     		cmp	r0, #32
 1990 0010 29D1     		bne	.L458
 1991 0012 3048     		ldr	r0, .L466
 1992 0014 304C     		ldr	r4, .L466+4
 1993 0016 0068     		ldr	r0, [r0]
 1994 0018 C008     		lsrs	r0, r0, #3
 1995 001a A4FB0040 		umull	r4, r0, r4, r0
 1996 001e 000A     		lsrs	r0, r0, #8
 1997 0020 00EB8000 		add	r0, r0, r0, lsl #2
 1998 0024 00EB8000 		add	r0, r0, r0, lsl #2
 1999 0028 0190     		str	r0, [sp, #4]
 2000 002a 04E0     		b	.L457
 2001              	.L456:
 2002 002c DCF80040 		ldr	r4, [ip]
 2003 0030 A069     		ldr	r0, [r4, #24]
 2004 0032 8007     		lsls	r0, r0, #30
 2005 0034 1AD5     		bpl	.L465
 2006              	.L457:
 2007 0036 019C     		ldr	r4, [sp, #4]
 2008 0038 013C     		subs	r4, r4, #1
 2009 003a 0194     		str	r4, [sp, #4]
 2010 003c 0198     		ldr	r0, [sp, #4]
 2011 003e 0028     		cmp	r0, #0
 2012 0040 F4D1     		bne	.L456
 2013 0042 2023     		movs	r3, #32
 2014 0044 CCF83000 		str	r0, [ip, #48]
 2015 0048 8CF83D30 		strb	r3, [ip, #61]
 2016 004c 8CF83E00 		strb	r0, [ip, #62]
 2017 0050 DCF84030 		ldr	r3, [ip, #64]
 2018 0054 8CF83C00 		strb	r0, [ip, #60]
 2019 0058 43F02003 		orr	r3, r3, #32
 2020 005c 0120     		movs	r0, #1
 2021 005e CCF84030 		str	r3, [ip, #64]
 2022 0062 02B0     		add	sp, sp, #8
 2023              		@ sp needed
 2024 0064 10BD     		pop	{r4, pc}
ARM GAS  /var/folders/lp/x54gwt890xv47sdkqj1k04q40000gn/T//ccZoWwdF.s 			page 36


 2025              	.L458:
 2026 0066 0220     		movs	r0, #2
 2027 0068 02B0     		add	sp, sp, #8
 2028              		@ sp needed
 2029 006a 10BD     		pop	{r4, pc}
 2030              	.L465:
 2031 006c 9CF83C00 		ldrb	r0, [ip, #60]	@ zero_extendqisi2
 2032 0070 0128     		cmp	r0, #1
 2033 0072 F8D0     		beq	.L458
 2034 0074 2068     		ldr	r0, [r4]
 2035 0076 C007     		lsls	r0, r0, #31
 2036 0078 03D4     		bmi	.L459
 2037 007a 2068     		ldr	r0, [r4]
 2038 007c 40F00100 		orr	r0, r0, #1
 2039 0080 2060     		str	r0, [r4]
 2040              	.L459:
 2041 0082 2068     		ldr	r0, [r4]
 2042 0084 4FF0210E 		mov	lr, #33
 2043 0088 20F40060 		bic	r0, r0, #2048
 2044 008c 2060     		str	r0, [r4]
 2045 008e 8CF83DE0 		strb	lr, [ip, #61]
 2046 0092 0020     		movs	r0, #0
 2047 0094 4FF0100E 		mov	lr, #16
 2048 0098 8CF83EE0 		strb	lr, [ip, #62]
 2049 009c CCF82420 		str	r2, [ip, #36]
 2050 00a0 CCF84000 		str	r0, [ip, #64]
 2051 00a4 0D4A     		ldr	r2, .L466+8
 2052 00a6 ACF82A30 		strh	r3, [ip, #42]	@ movhi
 2053 00aa BCF82A30 		ldrh	r3, [ip, #42]
 2054 00ae 8CF83C00 		strb	r0, [ip, #60]
 2055 00b2 CCF82C20 		str	r2, [ip, #44]
 2056 00b6 CCF84410 		str	r1, [ip, #68]
 2057 00ba ACF82830 		strh	r3, [ip, #40]	@ movhi
 2058 00be 6368     		ldr	r3, [r4, #4]
 2059 00c0 43F4E063 		orr	r3, r3, #1792
 2060 00c4 6360     		str	r3, [r4, #4]
 2061 00c6 2368     		ldr	r3, [r4]
 2062 00c8 43F48073 		orr	r3, r3, #256
 2063 00cc 2360     		str	r3, [r4]
 2064 00ce 02B0     		add	sp, sp, #8
 2065              		@ sp needed
 2066 00d0 10BD     		pop	{r4, pc}
 2067              	.L467:
 2068 00d2 00BF     		.align	2
 2069              	.L466:
 2070 00d4 00000000 		.word	SystemCoreClock
 2071 00d8 89B5F814 		.word	351843721
 2072 00dc 0000FFFF 		.word	-65536
 2074              		.section	.text.HAL_I2C_Master_Receive_IT,"ax",%progbits
 2075              		.align	1
 2076              		.p2align 2,,3
 2077              		.global	HAL_I2C_Master_Receive_IT
 2078              		.syntax unified
 2079              		.thumb
 2080              		.thumb_func
 2082              	HAL_I2C_Master_Receive_IT:
 2083              		@ args = 0, pretend = 0, frame = 8
ARM GAS  /var/folders/lp/x54gwt890xv47sdkqj1k04q40000gn/T//ccZoWwdF.s 			page 37


 2084              		@ frame_needed = 0, uses_anonymous_args = 0
 2085 0000 10B5     		push	{r4, lr}
 2086 0002 82B0     		sub	sp, sp, #8
 2087 0004 8446     		mov	ip, r0
 2088 0006 0020     		movs	r0, #0
 2089 0008 0190     		str	r0, [sp, #4]
 2090 000a 9CF83D00 		ldrb	r0, [ip, #61]	@ zero_extendqisi2
 2091 000e 2028     		cmp	r0, #32
 2092 0010 29D1     		bne	.L473
 2093 0012 3248     		ldr	r0, .L481
 2094 0014 324C     		ldr	r4, .L481+4
 2095 0016 0068     		ldr	r0, [r0]
 2096 0018 C008     		lsrs	r0, r0, #3
 2097 001a A4FB0040 		umull	r4, r0, r4, r0
 2098 001e 000A     		lsrs	r0, r0, #8
 2099 0020 00EB8000 		add	r0, r0, r0, lsl #2
 2100 0024 00EB8000 		add	r0, r0, r0, lsl #2
 2101 0028 0190     		str	r0, [sp, #4]
 2102 002a 04E0     		b	.L472
 2103              	.L471:
 2104 002c DCF80040 		ldr	r4, [ip]
 2105 0030 A069     		ldr	r0, [r4, #24]
 2106 0032 8007     		lsls	r0, r0, #30
 2107 0034 1AD5     		bpl	.L480
 2108              	.L472:
 2109 0036 019C     		ldr	r4, [sp, #4]
 2110 0038 013C     		subs	r4, r4, #1
 2111 003a 0194     		str	r4, [sp, #4]
 2112 003c 0198     		ldr	r0, [sp, #4]
 2113 003e 0028     		cmp	r0, #0
 2114 0040 F4D1     		bne	.L471
 2115 0042 2023     		movs	r3, #32
 2116 0044 CCF83000 		str	r0, [ip, #48]
 2117 0048 8CF83D30 		strb	r3, [ip, #61]
 2118 004c 8CF83E00 		strb	r0, [ip, #62]
 2119 0050 DCF84030 		ldr	r3, [ip, #64]
 2120 0054 8CF83C00 		strb	r0, [ip, #60]
 2121 0058 43F02003 		orr	r3, r3, #32
 2122 005c 0120     		movs	r0, #1
 2123 005e CCF84030 		str	r3, [ip, #64]
 2124 0062 02B0     		add	sp, sp, #8
 2125              		@ sp needed
 2126 0064 10BD     		pop	{r4, pc}
 2127              	.L473:
 2128 0066 0220     		movs	r0, #2
 2129 0068 02B0     		add	sp, sp, #8
 2130              		@ sp needed
 2131 006a 10BD     		pop	{r4, pc}
 2132              	.L480:
 2133 006c 9CF83C00 		ldrb	r0, [ip, #60]	@ zero_extendqisi2
 2134 0070 0128     		cmp	r0, #1
 2135 0072 F8D0     		beq	.L473
 2136 0074 2068     		ldr	r0, [r4]
 2137 0076 C007     		lsls	r0, r0, #31
 2138 0078 03D4     		bmi	.L474
 2139 007a 2068     		ldr	r0, [r4]
 2140 007c 40F00100 		orr	r0, r0, #1
ARM GAS  /var/folders/lp/x54gwt890xv47sdkqj1k04q40000gn/T//ccZoWwdF.s 			page 38


 2141 0080 2060     		str	r0, [r4]
 2142              	.L474:
 2143 0082 2068     		ldr	r0, [r4]
 2144 0084 4FF0220E 		mov	lr, #34
 2145 0088 20F40060 		bic	r0, r0, #2048
 2146 008c 2060     		str	r0, [r4]
 2147 008e 8CF83DE0 		strb	lr, [ip, #61]
 2148 0092 0020     		movs	r0, #0
 2149 0094 4FF0100E 		mov	lr, #16
 2150 0098 8CF83EE0 		strb	lr, [ip, #62]
 2151 009c CCF82420 		str	r2, [ip, #36]
 2152 00a0 CCF84000 		str	r0, [ip, #64]
 2153 00a4 0F4A     		ldr	r2, .L481+8
 2154 00a6 ACF82A30 		strh	r3, [ip, #42]	@ movhi
 2155 00aa BCF82A30 		ldrh	r3, [ip, #42]
 2156 00ae 8CF83C00 		strb	r0, [ip, #60]
 2157 00b2 CCF82C20 		str	r2, [ip, #44]
 2158 00b6 CCF84410 		str	r1, [ip, #68]
 2159 00ba ACF82830 		strh	r3, [ip, #40]	@ movhi
 2160 00be 6368     		ldr	r3, [r4, #4]
 2161 00c0 43F4E063 		orr	r3, r3, #1792
 2162 00c4 6360     		str	r3, [r4, #4]
 2163 00c6 2368     		ldr	r3, [r4]
 2164 00c8 43F48063 		orr	r3, r3, #1024
 2165 00cc 2360     		str	r3, [r4]
 2166 00ce 2368     		ldr	r3, [r4]
 2167 00d0 43F48073 		orr	r3, r3, #256
 2168 00d4 2360     		str	r3, [r4]
 2169 00d6 02B0     		add	sp, sp, #8
 2170              		@ sp needed
 2171 00d8 10BD     		pop	{r4, pc}
 2172              	.L482:
 2173 00da 00BF     		.align	2
 2174              	.L481:
 2175 00dc 00000000 		.word	SystemCoreClock
 2176 00e0 89B5F814 		.word	351843721
 2177 00e4 0000FFFF 		.word	-65536
 2179              		.section	.text.HAL_I2C_Slave_Transmit_IT,"ax",%progbits
 2180              		.align	1
 2181              		.p2align 2,,3
 2182              		.global	HAL_I2C_Slave_Transmit_IT
 2183              		.syntax unified
 2184              		.thumb
 2185              		.thumb_func
 2187              	HAL_I2C_Slave_Transmit_IT:
 2188              		@ args = 0, pretend = 0, frame = 0
 2189              		@ frame_needed = 0, uses_anonymous_args = 0
 2190              		@ link register save eliminated.
 2191 0000 0346     		mov	r3, r0
 2192 0002 90F83D00 		ldrb	r0, [r0, #61]	@ zero_extendqisi2
 2193 0006 2028     		cmp	r0, #32
 2194 0008 2FD1     		bne	.L489
 2195 000a 61B3     		cbz	r1, .L488
 2196 000c 5AB3     		cbz	r2, .L488
 2197 000e 93F83C00 		ldrb	r0, [r3, #60]	@ zero_extendqisi2
 2198 0012 0128     		cmp	r0, #1
 2199 0014 29D0     		beq	.L489
ARM GAS  /var/folders/lp/x54gwt890xv47sdkqj1k04q40000gn/T//ccZoWwdF.s 			page 39


 2200 0016 30B4     		push	{r4, r5}
 2201 0018 1C68     		ldr	r4, [r3]
 2202 001a 2068     		ldr	r0, [r4]
 2203 001c C007     		lsls	r0, r0, #31
 2204 001e 03D4     		bmi	.L485
 2205 0020 2068     		ldr	r0, [r4]
 2206 0022 40F00100 		orr	r0, r0, #1
 2207 0026 2060     		str	r0, [r4]
 2208              	.L485:
 2209 0028 2068     		ldr	r0, [r4]
 2210 002a 20F40060 		bic	r0, r0, #2048
 2211 002e 2060     		str	r0, [r4]
 2212 0030 2120     		movs	r0, #33
 2213 0032 83F83D00 		strb	r0, [r3, #61]
 2214 0036 0025     		movs	r5, #0
 2215 0038 2020     		movs	r0, #32
 2216 003a 83F83E00 		strb	r0, [r3, #62]
 2217 003e 1D64     		str	r5, [r3, #64]
 2218 0040 5A85     		strh	r2, [r3, #42]	@ movhi
 2219 0042 5A8D     		ldrh	r2, [r3, #42]
 2220 0044 1A85     		strh	r2, [r3, #40]	@ movhi
 2221 0046 0A4A     		ldr	r2, .L494
 2222 0048 DA62     		str	r2, [r3, #44]
 2223 004a 2268     		ldr	r2, [r4]
 2224 004c 5962     		str	r1, [r3, #36]
 2225 004e 42F48062 		orr	r2, r2, #1024
 2226 0052 2260     		str	r2, [r4]
 2227 0054 83F83C50 		strb	r5, [r3, #60]
 2228 0058 6368     		ldr	r3, [r4, #4]
 2229 005a 43F4E063 		orr	r3, r3, #1792
 2230 005e 2846     		mov	r0, r5
 2231 0060 6360     		str	r3, [r4, #4]
 2232 0062 30BC     		pop	{r4, r5}
 2233 0064 7047     		bx	lr
 2234              	.L488:
 2235 0066 0120     		movs	r0, #1
 2236 0068 7047     		bx	lr
 2237              	.L489:
 2238 006a 0220     		movs	r0, #2
 2239 006c 7047     		bx	lr
 2240              	.L495:
 2241 006e 00BF     		.align	2
 2242              	.L494:
 2243 0070 0000FFFF 		.word	-65536
 2245              		.section	.text.HAL_I2C_Slave_Receive_IT,"ax",%progbits
 2246              		.align	1
 2247              		.p2align 2,,3
 2248              		.global	HAL_I2C_Slave_Receive_IT
 2249              		.syntax unified
 2250              		.thumb
 2251              		.thumb_func
 2253              	HAL_I2C_Slave_Receive_IT:
 2254              		@ args = 0, pretend = 0, frame = 0
 2255              		@ frame_needed = 0, uses_anonymous_args = 0
 2256              		@ link register save eliminated.
 2257 0000 0346     		mov	r3, r0
 2258 0002 90F83D00 		ldrb	r0, [r0, #61]	@ zero_extendqisi2
ARM GAS  /var/folders/lp/x54gwt890xv47sdkqj1k04q40000gn/T//ccZoWwdF.s 			page 40


 2259 0006 2028     		cmp	r0, #32
 2260 0008 2FD1     		bne	.L502
 2261 000a 61B3     		cbz	r1, .L501
 2262 000c 5AB3     		cbz	r2, .L501
 2263 000e 93F83C00 		ldrb	r0, [r3, #60]	@ zero_extendqisi2
 2264 0012 0128     		cmp	r0, #1
 2265 0014 29D0     		beq	.L502
 2266 0016 30B4     		push	{r4, r5}
 2267 0018 1C68     		ldr	r4, [r3]
 2268 001a 2068     		ldr	r0, [r4]
 2269 001c C007     		lsls	r0, r0, #31
 2270 001e 03D4     		bmi	.L498
 2271 0020 2068     		ldr	r0, [r4]
 2272 0022 40F00100 		orr	r0, r0, #1
 2273 0026 2060     		str	r0, [r4]
 2274              	.L498:
 2275 0028 2068     		ldr	r0, [r4]
 2276 002a 20F40060 		bic	r0, r0, #2048
 2277 002e 2060     		str	r0, [r4]
 2278 0030 2220     		movs	r0, #34
 2279 0032 83F83D00 		strb	r0, [r3, #61]
 2280 0036 0025     		movs	r5, #0
 2281 0038 2020     		movs	r0, #32
 2282 003a 83F83E00 		strb	r0, [r3, #62]
 2283 003e 1D64     		str	r5, [r3, #64]
 2284 0040 5A85     		strh	r2, [r3, #42]	@ movhi
 2285 0042 5A8D     		ldrh	r2, [r3, #42]
 2286 0044 1A85     		strh	r2, [r3, #40]	@ movhi
 2287 0046 0A4A     		ldr	r2, .L507
 2288 0048 DA62     		str	r2, [r3, #44]
 2289 004a 2268     		ldr	r2, [r4]
 2290 004c 5962     		str	r1, [r3, #36]
 2291 004e 42F48062 		orr	r2, r2, #1024
 2292 0052 2260     		str	r2, [r4]
 2293 0054 83F83C50 		strb	r5, [r3, #60]
 2294 0058 6368     		ldr	r3, [r4, #4]
 2295 005a 43F4E063 		orr	r3, r3, #1792
 2296 005e 2846     		mov	r0, r5
 2297 0060 6360     		str	r3, [r4, #4]
 2298 0062 30BC     		pop	{r4, r5}
 2299 0064 7047     		bx	lr
 2300              	.L501:
 2301 0066 0120     		movs	r0, #1
 2302 0068 7047     		bx	lr
 2303              	.L502:
 2304 006a 0220     		movs	r0, #2
 2305 006c 7047     		bx	lr
 2306              	.L508:
 2307 006e 00BF     		.align	2
 2308              	.L507:
 2309 0070 0000FFFF 		.word	-65536
 2311              		.section	.text.HAL_I2C_Master_Transmit_DMA,"ax",%progbits
 2312              		.align	1
 2313              		.p2align 2,,3
 2314              		.global	HAL_I2C_Master_Transmit_DMA
 2315              		.syntax unified
 2316              		.thumb
ARM GAS  /var/folders/lp/x54gwt890xv47sdkqj1k04q40000gn/T//ccZoWwdF.s 			page 41


 2317              		.thumb_func
 2319              	HAL_I2C_Master_Transmit_DMA:
 2320              		@ args = 0, pretend = 0, frame = 8
 2321              		@ frame_needed = 0, uses_anonymous_args = 0
 2322 0000 F0B5     		push	{r4, r5, r6, r7, lr}
 2323 0002 83B0     		sub	sp, sp, #12
 2324 0004 0546     		mov	r5, r0
 2325 0006 0020     		movs	r0, #0
 2326 0008 0190     		str	r0, [sp, #4]
 2327 000a 95F83D00 		ldrb	r0, [r5, #61]	@ zero_extendqisi2
 2328 000e 2028     		cmp	r0, #32
 2329 0010 28D1     		bne	.L515
 2330 0012 0E46     		mov	r6, r1
 2331 0014 1146     		mov	r1, r2
 2332 0016 4A4A     		ldr	r2, .L530
 2333 0018 1068     		ldr	r0, [r2]
 2334 001a 4A4A     		ldr	r2, .L530+4
 2335 001c C008     		lsrs	r0, r0, #3
 2336 001e A2FB0020 		umull	r2, r0, r2, r0
 2337 0022 000A     		lsrs	r0, r0, #8
 2338 0024 00EB8000 		add	r0, r0, r0, lsl #2
 2339 0028 00EB8000 		add	r0, r0, r0, lsl #2
 2340 002c 0190     		str	r0, [sp, #4]
 2341 002e 03E0     		b	.L514
 2342              	.L512:
 2343 0030 2C68     		ldr	r4, [r5]
 2344 0032 A069     		ldr	r0, [r4, #24]
 2345 0034 8007     		lsls	r0, r0, #30
 2346 0036 18D5     		bpl	.L528
 2347              	.L514:
 2348 0038 019C     		ldr	r4, [sp, #4]
 2349 003a 013C     		subs	r4, r4, #1
 2350 003c 0194     		str	r4, [sp, #4]
 2351 003e 0198     		ldr	r0, [sp, #4]
 2352 0040 0028     		cmp	r0, #0
 2353 0042 F5D1     		bne	.L512
 2354 0044 2023     		movs	r3, #32
 2355 0046 2863     		str	r0, [r5, #48]
 2356 0048 85F83D30 		strb	r3, [r5, #61]
 2357 004c 85F83E00 		strb	r0, [r5, #62]
 2358 0050 2B6C     		ldr	r3, [r5, #64]
 2359 0052 43F02003 		orr	r3, r3, #32
 2360 0056 2B64     		str	r3, [r5, #64]
 2361              	.L513:
 2362 0058 0023     		movs	r3, #0
 2363 005a 85F83C30 		strb	r3, [r5, #60]
 2364 005e 0120     		movs	r0, #1
 2365              	.L511:
 2366 0060 03B0     		add	sp, sp, #12
 2367              		@ sp needed
 2368 0062 F0BD     		pop	{r4, r5, r6, r7, pc}
 2369              	.L515:
 2370 0064 0220     		movs	r0, #2
 2371 0066 03B0     		add	sp, sp, #12
 2372              		@ sp needed
 2373 0068 F0BD     		pop	{r4, r5, r6, r7, pc}
 2374              	.L528:
ARM GAS  /var/folders/lp/x54gwt890xv47sdkqj1k04q40000gn/T//ccZoWwdF.s 			page 42


 2375 006a 95F83C20 		ldrb	r2, [r5, #60]	@ zero_extendqisi2
 2376 006e 012A     		cmp	r2, #1
 2377 0070 F8D0     		beq	.L515
 2378 0072 0122     		movs	r2, #1
 2379 0074 85F83C20 		strb	r2, [r5, #60]
 2380 0078 2268     		ldr	r2, [r4]
 2381 007a D207     		lsls	r2, r2, #31
 2382 007c 03D4     		bmi	.L516
 2383 007e 2268     		ldr	r2, [r4]
 2384 0080 42F00102 		orr	r2, r2, #1
 2385 0084 2260     		str	r2, [r4]
 2386              	.L516:
 2387 0086 2268     		ldr	r2, [r4]
 2388 0088 22F40062 		bic	r2, r2, #2048
 2389 008c 2260     		str	r2, [r4]
 2390 008e 2122     		movs	r2, #33
 2391 0090 85F83D20 		strb	r2, [r5, #61]
 2392 0094 0027     		movs	r7, #0
 2393 0096 1022     		movs	r2, #16
 2394 0098 85F83E20 		strb	r2, [r5, #62]
 2395 009c 2F64     		str	r7, [r5, #64]
 2396 009e 6B85     		strh	r3, [r5, #42]	@ movhi
 2397 00a0 6B8D     		ldrh	r3, [r5, #42]
 2398 00a2 294A     		ldr	r2, .L530+8
 2399 00a4 EA62     		str	r2, [r5, #44]
 2400 00a6 9BB2     		uxth	r3, r3
 2401 00a8 6962     		str	r1, [r5, #36]
 2402 00aa 2B85     		strh	r3, [r5, #40]	@ movhi
 2403 00ac 6E64     		str	r6, [r5, #68]
 2404 00ae 23B3     		cbz	r3, .L517
 2405 00b0 686B     		ldr	r0, [r5, #52]
 2406 00b2 0028     		cmp	r0, #0
 2407 00b4 3AD0     		beq	.L518
 2408 00b6 04F11002 		add	r2, r4, #16
 2409 00ba 244C     		ldr	r4, .L530+12
 2410 00bc C463     		str	r4, [r0, #60]
 2411 00be 244C     		ldr	r4, .L530+16
 2412 00c0 8764     		str	r7, [r0, #72]
 2413 00c2 C0E91077 		strd	r7, r7, [r0, #64]
 2414 00c6 0765     		str	r7, [r0, #80]
 2415 00c8 C464     		str	r4, [r0, #76]
 2416 00ca FFF7FEFF 		bl	HAL_DMA_Start_IT
 2417 00ce 18BB     		cbnz	r0, .L529
 2418 00d0 2B68     		ldr	r3, [r5]
 2419 00d2 85F83C00 		strb	r0, [r5, #60]
 2420 00d6 5A68     		ldr	r2, [r3, #4]
 2421 00d8 42F44072 		orr	r2, r2, #768
 2422 00dc 5A60     		str	r2, [r3, #4]
 2423 00de 5A68     		ldr	r2, [r3, #4]
 2424 00e0 42F40062 		orr	r2, r2, #2048
 2425 00e4 5A60     		str	r2, [r3, #4]
 2426 00e6 1A68     		ldr	r2, [r3]
 2427 00e8 42F48062 		orr	r2, r2, #1024
 2428 00ec 1A60     		str	r2, [r3]
 2429 00ee 1A68     		ldr	r2, [r3]
 2430 00f0 42F48072 		orr	r2, r2, #256
 2431 00f4 1A60     		str	r2, [r3]
ARM GAS  /var/folders/lp/x54gwt890xv47sdkqj1k04q40000gn/T//ccZoWwdF.s 			page 43


 2432              	.L521:
 2433 00f6 0020     		movs	r0, #0
 2434 00f8 B2E7     		b	.L511
 2435              	.L517:
 2436 00fa 2268     		ldr	r2, [r4]
 2437 00fc 42F48062 		orr	r2, r2, #1024
 2438 0100 2260     		str	r2, [r4]
 2439 0102 2268     		ldr	r2, [r4]
 2440 0104 42F48072 		orr	r2, r2, #256
 2441 0108 2260     		str	r2, [r4]
 2442 010a 85F83C30 		strb	r3, [r5, #60]
 2443 010e 6368     		ldr	r3, [r4, #4]
 2444 0110 43F4E063 		orr	r3, r3, #1792
 2445 0114 6360     		str	r3, [r4, #4]
 2446 0116 EEE7     		b	.L521
 2447              	.L529:
 2448 0118 2023     		movs	r3, #32
 2449 011a 85F83D30 		strb	r3, [r5, #61]
 2450 011e 85F83E70 		strb	r7, [r5, #62]
 2451 0122 2B6C     		ldr	r3, [r5, #64]
 2452 0124 43F01003 		orr	r3, r3, #16
 2453 0128 2B64     		str	r3, [r5, #64]
 2454 012a 95E7     		b	.L513
 2455              	.L518:
 2456 012c 2023     		movs	r3, #32
 2457 012e 85F83D30 		strb	r3, [r5, #61]
 2458 0132 85F83E00 		strb	r0, [r5, #62]
 2459 0136 2B6C     		ldr	r3, [r5, #64]
 2460 0138 43F08003 		orr	r3, r3, #128
 2461 013c 2B64     		str	r3, [r5, #64]
 2462 013e 8BE7     		b	.L513
 2463              	.L531:
 2464              		.align	2
 2465              	.L530:
 2466 0140 00000000 		.word	SystemCoreClock
 2467 0144 89B5F814 		.word	351843721
 2468 0148 0000FFFF 		.word	-65536
 2469 014c 00000000 		.word	I2C_DMAXferCplt
 2470 0150 00000000 		.word	I2C_DMAError
 2472              		.section	.text.HAL_I2C_Master_Receive_DMA,"ax",%progbits
 2473              		.align	1
 2474              		.p2align 2,,3
 2475              		.global	HAL_I2C_Master_Receive_DMA
 2476              		.syntax unified
 2477              		.thumb
 2478              		.thumb_func
 2480              	HAL_I2C_Master_Receive_DMA:
 2481              		@ args = 0, pretend = 0, frame = 8
 2482              		@ frame_needed = 0, uses_anonymous_args = 0
 2483 0000 70B5     		push	{r4, r5, r6, lr}
 2484 0002 82B0     		sub	sp, sp, #8
 2485 0004 0546     		mov	r5, r0
 2486 0006 0020     		movs	r0, #0
 2487 0008 0190     		str	r0, [sp, #4]
 2488 000a 95F83D00 		ldrb	r0, [r5, #61]	@ zero_extendqisi2
 2489 000e 2028     		cmp	r0, #32
 2490 0010 26D1     		bne	.L538
ARM GAS  /var/folders/lp/x54gwt890xv47sdkqj1k04q40000gn/T//ccZoWwdF.s 			page 44


 2491 0012 4A48     		ldr	r0, .L553
 2492 0014 4A4C     		ldr	r4, .L553+4
 2493 0016 0068     		ldr	r0, [r0]
 2494 0018 C008     		lsrs	r0, r0, #3
 2495 001a A4FB0040 		umull	r4, r0, r4, r0
 2496 001e 000A     		lsrs	r0, r0, #8
 2497 0020 00EB8000 		add	r0, r0, r0, lsl #2
 2498 0024 00EB8000 		add	r0, r0, r0, lsl #2
 2499 0028 0190     		str	r0, [sp, #4]
 2500 002a 03E0     		b	.L537
 2501              	.L535:
 2502 002c 2C68     		ldr	r4, [r5]
 2503 002e A069     		ldr	r0, [r4, #24]
 2504 0030 8607     		lsls	r6, r0, #30
 2505 0032 18D5     		bpl	.L551
 2506              	.L537:
 2507 0034 019C     		ldr	r4, [sp, #4]
 2508 0036 013C     		subs	r4, r4, #1
 2509 0038 0194     		str	r4, [sp, #4]
 2510 003a 0198     		ldr	r0, [sp, #4]
 2511 003c 0028     		cmp	r0, #0
 2512 003e F5D1     		bne	.L535
 2513 0040 2023     		movs	r3, #32
 2514 0042 2863     		str	r0, [r5, #48]
 2515 0044 85F83D30 		strb	r3, [r5, #61]
 2516 0048 85F83E00 		strb	r0, [r5, #62]
 2517 004c 2B6C     		ldr	r3, [r5, #64]
 2518 004e 43F02003 		orr	r3, r3, #32
 2519 0052 2B64     		str	r3, [r5, #64]
 2520              	.L536:
 2521 0054 0023     		movs	r3, #0
 2522 0056 85F83C30 		strb	r3, [r5, #60]
 2523 005a 0120     		movs	r0, #1
 2524              	.L534:
 2525 005c 02B0     		add	sp, sp, #8
 2526              		@ sp needed
 2527 005e 70BD     		pop	{r4, r5, r6, pc}
 2528              	.L538:
 2529 0060 0220     		movs	r0, #2
 2530 0062 02B0     		add	sp, sp, #8
 2531              		@ sp needed
 2532 0064 70BD     		pop	{r4, r5, r6, pc}
 2533              	.L551:
 2534 0066 95F83C00 		ldrb	r0, [r5, #60]	@ zero_extendqisi2
 2535 006a 0128     		cmp	r0, #1
 2536 006c F8D0     		beq	.L538
 2537 006e 0120     		movs	r0, #1
 2538 0070 85F83C00 		strb	r0, [r5, #60]
 2539 0074 2068     		ldr	r0, [r4]
 2540 0076 C007     		lsls	r0, r0, #31
 2541 0078 03D4     		bmi	.L539
 2542 007a 2068     		ldr	r0, [r4]
 2543 007c 40F00100 		orr	r0, r0, #1
 2544 0080 2060     		str	r0, [r4]
 2545              	.L539:
 2546 0082 2068     		ldr	r0, [r4]
 2547 0084 20F40060 		bic	r0, r0, #2048
ARM GAS  /var/folders/lp/x54gwt890xv47sdkqj1k04q40000gn/T//ccZoWwdF.s 			page 45


 2548 0088 2060     		str	r0, [r4]
 2549 008a 2220     		movs	r0, #34
 2550 008c 85F83D00 		strb	r0, [r5, #61]
 2551 0090 0026     		movs	r6, #0
 2552 0092 1020     		movs	r0, #16
 2553 0094 85F83E00 		strb	r0, [r5, #62]
 2554 0098 2E64     		str	r6, [r5, #64]
 2555 009a 6B85     		strh	r3, [r5, #42]	@ movhi
 2556 009c 6B8D     		ldrh	r3, [r5, #42]
 2557 009e 2948     		ldr	r0, .L553+8
 2558 00a0 E862     		str	r0, [r5, #44]
 2559 00a2 9BB2     		uxth	r3, r3
 2560 00a4 6A62     		str	r2, [r5, #36]
 2561 00a6 2B85     		strh	r3, [r5, #40]	@ movhi
 2562 00a8 6964     		str	r1, [r5, #68]
 2563 00aa 23B3     		cbz	r3, .L540
 2564 00ac A86B     		ldr	r0, [r5, #56]
 2565 00ae 0028     		cmp	r0, #0
 2566 00b0 3AD0     		beq	.L541
 2567 00b2 04F11001 		add	r1, r4, #16
 2568 00b6 244C     		ldr	r4, .L553+12
 2569 00b8 C463     		str	r4, [r0, #60]
 2570 00ba 244C     		ldr	r4, .L553+16
 2571 00bc 8664     		str	r6, [r0, #72]
 2572 00be C0E91066 		strd	r6, r6, [r0, #64]
 2573 00c2 0665     		str	r6, [r0, #80]
 2574 00c4 C464     		str	r4, [r0, #76]
 2575 00c6 FFF7FEFF 		bl	HAL_DMA_Start_IT
 2576 00ca 18BB     		cbnz	r0, .L552
 2577 00cc 2B68     		ldr	r3, [r5]
 2578 00ce 1A68     		ldr	r2, [r3]
 2579 00d0 42F48062 		orr	r2, r2, #1024
 2580 00d4 1A60     		str	r2, [r3]
 2581 00d6 1A68     		ldr	r2, [r3]
 2582 00d8 42F48072 		orr	r2, r2, #256
 2583 00dc 1A60     		str	r2, [r3]
 2584 00de 85F83C00 		strb	r0, [r5, #60]
 2585 00e2 5A68     		ldr	r2, [r3, #4]
 2586 00e4 42F44072 		orr	r2, r2, #768
 2587 00e8 5A60     		str	r2, [r3, #4]
 2588 00ea 5A68     		ldr	r2, [r3, #4]
 2589 00ec 42F40062 		orr	r2, r2, #2048
 2590 00f0 5A60     		str	r2, [r3, #4]
 2591              	.L544:
 2592 00f2 0020     		movs	r0, #0
 2593 00f4 B2E7     		b	.L534
 2594              	.L540:
 2595 00f6 85F83C30 		strb	r3, [r5, #60]
 2596 00fa 6368     		ldr	r3, [r4, #4]
 2597 00fc 43F4E063 		orr	r3, r3, #1792
 2598 0100 6360     		str	r3, [r4, #4]
 2599 0102 2368     		ldr	r3, [r4]
 2600 0104 43F48063 		orr	r3, r3, #1024
 2601 0108 2360     		str	r3, [r4]
 2602 010a 2368     		ldr	r3, [r4]
 2603 010c 43F48073 		orr	r3, r3, #256
 2604 0110 2360     		str	r3, [r4]
ARM GAS  /var/folders/lp/x54gwt890xv47sdkqj1k04q40000gn/T//ccZoWwdF.s 			page 46


 2605 0112 EEE7     		b	.L544
 2606              	.L552:
 2607 0114 2023     		movs	r3, #32
 2608 0116 85F83D30 		strb	r3, [r5, #61]
 2609 011a 85F83E60 		strb	r6, [r5, #62]
 2610 011e 2B6C     		ldr	r3, [r5, #64]
 2611 0120 43F01003 		orr	r3, r3, #16
 2612 0124 2B64     		str	r3, [r5, #64]
 2613 0126 95E7     		b	.L536
 2614              	.L541:
 2615 0128 2023     		movs	r3, #32
 2616 012a 85F83D30 		strb	r3, [r5, #61]
 2617 012e 85F83E00 		strb	r0, [r5, #62]
 2618 0132 2B6C     		ldr	r3, [r5, #64]
 2619 0134 43F08003 		orr	r3, r3, #128
 2620 0138 2B64     		str	r3, [r5, #64]
 2621 013a 8BE7     		b	.L536
 2622              	.L554:
 2623              		.align	2
 2624              	.L553:
 2625 013c 00000000 		.word	SystemCoreClock
 2626 0140 89B5F814 		.word	351843721
 2627 0144 0000FFFF 		.word	-65536
 2628 0148 00000000 		.word	I2C_DMAXferCplt
 2629 014c 00000000 		.word	I2C_DMAError
 2631              		.section	.text.HAL_I2C_Slave_Transmit_DMA,"ax",%progbits
 2632              		.align	1
 2633              		.p2align 2,,3
 2634              		.global	HAL_I2C_Slave_Transmit_DMA
 2635              		.syntax unified
 2636              		.thumb
 2637              		.thumb_func
 2639              	HAL_I2C_Slave_Transmit_DMA:
 2640              		@ args = 0, pretend = 0, frame = 0
 2641              		@ frame_needed = 0, uses_anonymous_args = 0
 2642 0000 F8B5     		push	{r3, r4, r5, r6, r7, lr}
 2643 0002 90F83D30 		ldrb	r3, [r0, #61]	@ zero_extendqisi2
 2644 0006 202B     		cmp	r3, #32
 2645 0008 42D1     		bne	.L563
 2646 000a 0029     		cmp	r1, #0
 2647 000c 4CD0     		beq	.L557
 2648 000e 002A     		cmp	r2, #0
 2649 0010 4AD0     		beq	.L557
 2650 0012 90F83C30 		ldrb	r3, [r0, #60]	@ zero_extendqisi2
 2651 0016 012B     		cmp	r3, #1
 2652 0018 0446     		mov	r4, r0
 2653 001a 39D0     		beq	.L563
 2654 001c 0123     		movs	r3, #1
 2655 001e 0768     		ldr	r7, [r0]
 2656 0020 80F83C30 		strb	r3, [r0, #60]
 2657 0024 3B68     		ldr	r3, [r7]
 2658 0026 DB07     		lsls	r3, r3, #31
 2659 0028 40D5     		bpl	.L572
 2660              	.L558:
 2661 002a 3B68     		ldr	r3, [r7]
 2662 002c 606B     		ldr	r0, [r4, #52]
 2663 002e 23F40063 		bic	r3, r3, #2048
ARM GAS  /var/folders/lp/x54gwt890xv47sdkqj1k04q40000gn/T//ccZoWwdF.s 			page 47


 2664 0032 3B60     		str	r3, [r7]
 2665 0034 2026     		movs	r6, #32
 2666 0036 2123     		movs	r3, #33
 2667 0038 0025     		movs	r5, #0
 2668 003a 84F83D30 		strb	r3, [r4, #61]
 2669 003e 84F83E60 		strb	r6, [r4, #62]
 2670 0042 2564     		str	r5, [r4, #64]
 2671 0044 6285     		strh	r2, [r4, #42]	@ movhi
 2672 0046 638D     		ldrh	r3, [r4, #42]
 2673 0048 214A     		ldr	r2, .L574
 2674 004a 6162     		str	r1, [r4, #36]
 2675 004c 9BB2     		uxth	r3, r3
 2676 004e 2385     		strh	r3, [r4, #40]	@ movhi
 2677 0050 E262     		str	r2, [r4, #44]
 2678 0052 0028     		cmp	r0, #0
 2679 0054 2FD0     		beq	.L559
 2680 0056 07F11002 		add	r2, r7, #16
 2681 005a 1E4F     		ldr	r7, .L574+4
 2682 005c C763     		str	r7, [r0, #60]
 2683 005e 1E4F     		ldr	r7, .L574+8
 2684 0060 8564     		str	r5, [r0, #72]
 2685 0062 C0E91055 		strd	r5, r5, [r0, #64]
 2686 0066 0565     		str	r5, [r0, #80]
 2687 0068 C764     		str	r7, [r0, #76]
 2688 006a FFF7FEFF 		bl	HAL_DMA_Start_IT
 2689 006e 88B9     		cbnz	r0, .L573
 2690 0070 2368     		ldr	r3, [r4]
 2691 0072 1A68     		ldr	r2, [r3]
 2692 0074 42F48062 		orr	r2, r2, #1024
 2693 0078 1A60     		str	r2, [r3]
 2694 007a 84F83C00 		strb	r0, [r4, #60]
 2695 007e 5A68     		ldr	r2, [r3, #4]
 2696 0080 42F44072 		orr	r2, r2, #768
 2697 0084 5A60     		str	r2, [r3, #4]
 2698 0086 5A68     		ldr	r2, [r3, #4]
 2699 0088 42F40062 		orr	r2, r2, #2048
 2700 008c 5A60     		str	r2, [r3, #4]
 2701 008e F8BD     		pop	{r3, r4, r5, r6, r7, pc}
 2702              	.L563:
 2703 0090 0220     		movs	r0, #2
 2704 0092 F8BD     		pop	{r3, r4, r5, r6, r7, pc}
 2705              	.L573:
 2706 0094 84F83D60 		strb	r6, [r4, #61]
 2707 0098 84F83E50 		strb	r5, [r4, #62]
 2708 009c 236C     		ldr	r3, [r4, #64]
 2709 009e 84F83C50 		strb	r5, [r4, #60]
 2710 00a2 43F01003 		orr	r3, r3, #16
 2711 00a6 2364     		str	r3, [r4, #64]
 2712              	.L557:
 2713 00a8 0120     		movs	r0, #1
 2714 00aa F8BD     		pop	{r3, r4, r5, r6, r7, pc}
 2715              	.L572:
 2716 00ac 3B68     		ldr	r3, [r7]
 2717 00ae 43F00103 		orr	r3, r3, #1
 2718 00b2 3B60     		str	r3, [r7]
 2719 00b4 B9E7     		b	.L558
 2720              	.L559:
ARM GAS  /var/folders/lp/x54gwt890xv47sdkqj1k04q40000gn/T//ccZoWwdF.s 			page 48


 2721 00b6 2823     		movs	r3, #40
 2722 00b8 84F83D30 		strb	r3, [r4, #61]
 2723 00bc 84F83E00 		strb	r0, [r4, #62]
 2724 00c0 236C     		ldr	r3, [r4, #64]
 2725 00c2 84F83C00 		strb	r0, [r4, #60]
 2726 00c6 43F08003 		orr	r3, r3, #128
 2727 00ca 2364     		str	r3, [r4, #64]
 2728 00cc ECE7     		b	.L557
 2729              	.L575:
 2730 00ce 00BF     		.align	2
 2731              	.L574:
 2732 00d0 0000FFFF 		.word	-65536
 2733 00d4 00000000 		.word	I2C_DMAXferCplt
 2734 00d8 00000000 		.word	I2C_DMAError
 2736              		.section	.text.HAL_I2C_Slave_Receive_DMA,"ax",%progbits
 2737              		.align	1
 2738              		.p2align 2,,3
 2739              		.global	HAL_I2C_Slave_Receive_DMA
 2740              		.syntax unified
 2741              		.thumb
 2742              		.thumb_func
 2744              	HAL_I2C_Slave_Receive_DMA:
 2745              		@ args = 0, pretend = 0, frame = 0
 2746              		@ frame_needed = 0, uses_anonymous_args = 0
 2747 0000 F8B5     		push	{r3, r4, r5, r6, r7, lr}
 2748 0002 90F83D30 		ldrb	r3, [r0, #61]	@ zero_extendqisi2
 2749 0006 202B     		cmp	r3, #32
 2750 0008 43D1     		bne	.L584
 2751 000a 0029     		cmp	r1, #0
 2752 000c 4DD0     		beq	.L578
 2753 000e 002A     		cmp	r2, #0
 2754 0010 4BD0     		beq	.L578
 2755 0012 90F83C30 		ldrb	r3, [r0, #60]	@ zero_extendqisi2
 2756 0016 012B     		cmp	r3, #1
 2757 0018 0446     		mov	r4, r0
 2758 001a 3AD0     		beq	.L584
 2759 001c 0123     		movs	r3, #1
 2760 001e 0768     		ldr	r7, [r0]
 2761 0020 80F83C30 		strb	r3, [r0, #60]
 2762 0024 3B68     		ldr	r3, [r7]
 2763 0026 DB07     		lsls	r3, r3, #31
 2764 0028 41D5     		bpl	.L593
 2765              	.L579:
 2766 002a 3B68     		ldr	r3, [r7]
 2767 002c A06B     		ldr	r0, [r4, #56]
 2768 002e 23F40063 		bic	r3, r3, #2048
 2769 0032 3B60     		str	r3, [r7]
 2770 0034 2026     		movs	r6, #32
 2771 0036 2223     		movs	r3, #34
 2772 0038 0025     		movs	r5, #0
 2773 003a 84F83D30 		strb	r3, [r4, #61]
 2774 003e 84F83E60 		strb	r6, [r4, #62]
 2775 0042 2564     		str	r5, [r4, #64]
 2776 0044 6285     		strh	r2, [r4, #42]	@ movhi
 2777 0046 638D     		ldrh	r3, [r4, #42]
 2778 0048 214A     		ldr	r2, .L595
 2779 004a 6162     		str	r1, [r4, #36]
ARM GAS  /var/folders/lp/x54gwt890xv47sdkqj1k04q40000gn/T//ccZoWwdF.s 			page 49


 2780 004c 9BB2     		uxth	r3, r3
 2781 004e 2385     		strh	r3, [r4, #40]	@ movhi
 2782 0050 E262     		str	r2, [r4, #44]
 2783 0052 0028     		cmp	r0, #0
 2784 0054 30D0     		beq	.L580
 2785 0056 0A46     		mov	r2, r1
 2786 0058 07F11001 		add	r1, r7, #16
 2787 005c 1D4F     		ldr	r7, .L595+4
 2788 005e C763     		str	r7, [r0, #60]
 2789 0060 1D4F     		ldr	r7, .L595+8
 2790 0062 8564     		str	r5, [r0, #72]
 2791 0064 C0E91055 		strd	r5, r5, [r0, #64]
 2792 0068 0565     		str	r5, [r0, #80]
 2793 006a C764     		str	r7, [r0, #76]
 2794 006c FFF7FEFF 		bl	HAL_DMA_Start_IT
 2795 0070 88B9     		cbnz	r0, .L594
 2796 0072 2368     		ldr	r3, [r4]
 2797 0074 1A68     		ldr	r2, [r3]
 2798 0076 42F48062 		orr	r2, r2, #1024
 2799 007a 1A60     		str	r2, [r3]
 2800 007c 84F83C00 		strb	r0, [r4, #60]
 2801 0080 5A68     		ldr	r2, [r3, #4]
 2802 0082 42F44072 		orr	r2, r2, #768
 2803 0086 5A60     		str	r2, [r3, #4]
 2804 0088 5A68     		ldr	r2, [r3, #4]
 2805 008a 42F40062 		orr	r2, r2, #2048
 2806 008e 5A60     		str	r2, [r3, #4]
 2807 0090 F8BD     		pop	{r3, r4, r5, r6, r7, pc}
 2808              	.L584:
 2809 0092 0220     		movs	r0, #2
 2810 0094 F8BD     		pop	{r3, r4, r5, r6, r7, pc}
 2811              	.L594:
 2812 0096 84F83D60 		strb	r6, [r4, #61]
 2813 009a 84F83E50 		strb	r5, [r4, #62]
 2814 009e 236C     		ldr	r3, [r4, #64]
 2815 00a0 84F83C50 		strb	r5, [r4, #60]
 2816 00a4 43F01003 		orr	r3, r3, #16
 2817 00a8 2364     		str	r3, [r4, #64]
 2818              	.L578:
 2819 00aa 0120     		movs	r0, #1
 2820 00ac F8BD     		pop	{r3, r4, r5, r6, r7, pc}
 2821              	.L593:
 2822 00ae 3B68     		ldr	r3, [r7]
 2823 00b0 43F00103 		orr	r3, r3, #1
 2824 00b4 3B60     		str	r3, [r7]
 2825 00b6 B8E7     		b	.L579
 2826              	.L580:
 2827 00b8 2823     		movs	r3, #40
 2828 00ba 84F83D30 		strb	r3, [r4, #61]
 2829 00be 84F83E00 		strb	r0, [r4, #62]
 2830 00c2 236C     		ldr	r3, [r4, #64]
 2831 00c4 84F83C00 		strb	r0, [r4, #60]
 2832 00c8 43F08003 		orr	r3, r3, #128
 2833 00cc 2364     		str	r3, [r4, #64]
 2834 00ce ECE7     		b	.L578
 2835              	.L596:
 2836              		.align	2
ARM GAS  /var/folders/lp/x54gwt890xv47sdkqj1k04q40000gn/T//ccZoWwdF.s 			page 50


 2837              	.L595:
 2838 00d0 0000FFFF 		.word	-65536
 2839 00d4 00000000 		.word	I2C_DMAXferCplt
 2840 00d8 00000000 		.word	I2C_DMAError
 2842              		.section	.text.HAL_I2C_Mem_Write,"ax",%progbits
 2843              		.align	1
 2844              		.p2align 2,,3
 2845              		.global	HAL_I2C_Mem_Write
 2846              		.syntax unified
 2847              		.thumb
 2848              		.thumb_func
 2850              	HAL_I2C_Mem_Write:
 2851              		@ args = 12, pretend = 0, frame = 0
 2852              		@ frame_needed = 0, uses_anonymous_args = 0
 2853 0000 2DE9F04F 		push	{r4, r5, r6, r7, r8, r9, r10, fp, lr}
 2854 0004 0446     		mov	r4, r0
 2855 0006 83B0     		sub	sp, sp, #12
 2856 0008 9946     		mov	r9, r3
 2857 000a BDF834A0 		ldrh	r10, [sp, #52]
 2858 000e 0E9E     		ldr	r6, [sp, #56]
 2859 0010 0F46     		mov	r7, r1
 2860 0012 9046     		mov	r8, r2
 2861 0014 FFF7FEFF 		bl	HAL_GetTick
 2862 0018 94F83D30 		ldrb	r3, [r4, #61]	@ zero_extendqisi2
 2863 001c 202B     		cmp	r3, #32
 2864 001e 03D0     		beq	.L628
 2865              	.L600:
 2866 0020 0220     		movs	r0, #2
 2867              	.L599:
 2868 0022 03B0     		add	sp, sp, #12
 2869              		@ sp needed
 2870 0024 BDE8F08F 		pop	{r4, r5, r6, r7, r8, r9, r10, fp, pc}
 2871              	.L628:
 2872 0028 0546     		mov	r5, r0
 2873 002a 04E0     		b	.L598
 2874              	.L601:
 2875 002c FFF7FEFF 		bl	HAL_GetTick
 2876 0030 401B     		subs	r0, r0, r5
 2877 0032 1928     		cmp	r0, #25
 2878 0034 74D8     		bhi	.L635
 2879              	.L598:
 2880 0036 2068     		ldr	r0, [r4]
 2881 0038 8369     		ldr	r3, [r0, #24]
 2882 003a 6FEA030C 		mvn	ip, r3
 2883 003e 1CF0020B 		ands	fp, ip, #2
 2884 0042 F3D0     		beq	.L601
 2885 0044 94F83C30 		ldrb	r3, [r4, #60]	@ zero_extendqisi2
 2886 0048 012B     		cmp	r3, #1
 2887 004a E9D0     		beq	.L600
 2888 004c 0123     		movs	r3, #1
 2889 004e 84F83C30 		strb	r3, [r4, #60]
 2890 0052 0368     		ldr	r3, [r0]
 2891 0054 DB07     		lsls	r3, r3, #31
 2892 0056 5ED5     		bpl	.L636
 2893              	.L603:
 2894 0058 3946     		mov	r1, r7
 2895 005a 0768     		ldr	r7, [r0]
ARM GAS  /var/folders/lp/x54gwt890xv47sdkqj1k04q40000gn/T//ccZoWwdF.s 			page 51


 2896 005c 27F40067 		bic	r7, r7, #2048
 2897 0060 0760     		str	r7, [r0]
 2898 0062 0C98     		ldr	r0, [sp, #48]
 2899 0064 6062     		str	r0, [r4, #36]
 2900 0066 2120     		movs	r0, #33
 2901 0068 CDE90065 		strd	r6, r5, [sp]
 2902 006c 84F83D00 		strb	r0, [r4, #61]
 2903 0070 4020     		movs	r0, #64
 2904 0072 84F83E00 		strb	r0, [r4, #62]
 2905 0076 0020     		movs	r0, #0
 2906 0078 2064     		str	r0, [r4, #64]
 2907 007a A4F82AA0 		strh	r10, [r4, #42]	@ movhi
 2908 007e 608D     		ldrh	r0, [r4, #42]
 2909 0080 2085     		strh	r0, [r4, #40]	@ movhi
 2910 0082 3348     		ldr	r0, .L637
 2911 0084 E062     		str	r0, [r4, #44]
 2912 0086 4B46     		mov	r3, r9
 2913 0088 4246     		mov	r2, r8
 2914 008a 2046     		mov	r0, r4
 2915 008c FFF7FEFF 		bl	I2C_RequestMemoryWrite
 2916 0090 0028     		cmp	r0, #0
 2917 0092 5BD1     		bne	.L605
 2918 0094 238D     		ldrh	r3, [r4, #40]
 2919              	.L631:
 2920 0096 5BB3     		cbz	r3, .L612
 2921 0098 2A46     		mov	r2, r5
 2922 009a 3146     		mov	r1, r6
 2923 009c 2046     		mov	r0, r4
 2924 009e FFF7FEFF 		bl	I2C_WaitOnTXEFlagUntilTimeout
 2925 00a2 0028     		cmp	r0, #0
 2926 00a4 4AD1     		bne	.L634
 2927 00a6 676A     		ldr	r7, [r4, #36]
 2928 00a8 2068     		ldr	r0, [r4]
 2929 00aa B4F828C0 		ldrh	ip, [r4, #40]
 2930 00ae 3946     		mov	r1, r7
 2931 00b0 0CF1FF32 		add	r2, ip, #-1
 2932 00b4 11F8013B 		ldrb	r3, [r1], #1	@ zero_extendqisi2
 2933 00b8 0361     		str	r3, [r0, #16]
 2934 00ba 638D     		ldrh	r3, [r4, #42]
 2935 00bc 013B     		subs	r3, r3, #1
 2936 00be 9BB2     		uxth	r3, r3
 2937 00c0 6385     		strh	r3, [r4, #42]	@ movhi
 2938 00c2 D0F814E0 		ldr	lr, [r0, #20]
 2939 00c6 6162     		str	r1, [r4, #36]
 2940 00c8 93B2     		uxth	r3, r2
 2941 00ca 1EF0040F 		tst	lr, #4
 2942 00ce 2385     		strh	r3, [r4, #40]	@ movhi
 2943 00d0 E1D0     		beq	.L631
 2944 00d2 6BB1     		cbz	r3, .L612
 2945 00d4 7A78     		ldrb	r2, [r7, #1]	@ zero_extendqisi2
 2946 00d6 0261     		str	r2, [r0, #16]
 2947 00d8 628D     		ldrh	r2, [r4, #42]
 2948 00da ACF1020C 		sub	ip, ip, #2
 2949 00de 013A     		subs	r2, r2, #1
 2950 00e0 1FFA8CF3 		uxth	r3, ip
 2951 00e4 0237     		adds	r7, r7, #2
 2952 00e6 92B2     		uxth	r2, r2
ARM GAS  /var/folders/lp/x54gwt890xv47sdkqj1k04q40000gn/T//ccZoWwdF.s 			page 52


 2953 00e8 6762     		str	r7, [r4, #36]
 2954 00ea 2385     		strh	r3, [r4, #40]	@ movhi
 2955 00ec 6285     		strh	r2, [r4, #42]	@ movhi
 2956 00ee D2E7     		b	.L631
 2957              	.L612:
 2958 00f0 2A46     		mov	r2, r5
 2959 00f2 3146     		mov	r1, r6
 2960 00f4 2046     		mov	r0, r4
 2961 00f6 FFF7FEFF 		bl	I2C_WaitOnBTFFlagUntilTimeout
 2962 00fa F8B9     		cbnz	r0, .L634
 2963 00fc 2268     		ldr	r2, [r4]
 2964 00fe 1368     		ldr	r3, [r2]
 2965 0100 2021     		movs	r1, #32
 2966 0102 43F40073 		orr	r3, r3, #512
 2967 0106 1360     		str	r3, [r2]
 2968 0108 84F83D10 		strb	r1, [r4, #61]
 2969 010c 84F83C00 		strb	r0, [r4, #60]
 2970 0110 84F83E00 		strb	r0, [r4, #62]
 2971 0114 85E7     		b	.L599
 2972              	.L636:
 2973 0116 0368     		ldr	r3, [r0]
 2974 0118 43F00103 		orr	r3, r3, #1
 2975 011c 0360     		str	r3, [r0]
 2976 011e 9BE7     		b	.L603
 2977              	.L635:
 2978 0120 2023     		movs	r3, #32
 2979 0122 C4F830B0 		str	fp, [r4, #48]
 2980 0126 84F83D30 		strb	r3, [r4, #61]
 2981 012a 84F83EB0 		strb	fp, [r4, #62]
 2982 012e 236C     		ldr	r3, [r4, #64]
 2983 0130 84F83CB0 		strb	fp, [r4, #60]
 2984 0134 43F02003 		orr	r3, r3, #32
 2985 0138 2364     		str	r3, [r4, #64]
 2986 013a 71E7     		b	.L600
 2987              	.L634:
 2988 013c 236C     		ldr	r3, [r4, #64]
 2989 013e 042B     		cmp	r3, #4
 2990 0140 04D1     		bne	.L605
 2991 0142 2268     		ldr	r2, [r4]
 2992 0144 1368     		ldr	r3, [r2]
 2993 0146 43F40073 		orr	r3, r3, #512
 2994 014a 1360     		str	r3, [r2]
 2995              	.L605:
 2996 014c 0120     		movs	r0, #1
 2997 014e 68E7     		b	.L599
 2998              	.L638:
 2999              		.align	2
 3000              	.L637:
 3001 0150 0000FFFF 		.word	-65536
 3003              		.section	.text.HAL_I2C_Mem_Read,"ax",%progbits
 3004              		.align	1
 3005              		.p2align 2,,3
 3006              		.global	HAL_I2C_Mem_Read
 3007              		.syntax unified
 3008              		.thumb
 3009              		.thumb_func
 3011              	HAL_I2C_Mem_Read:
ARM GAS  /var/folders/lp/x54gwt890xv47sdkqj1k04q40000gn/T//ccZoWwdF.s 			page 53


 3012              		@ args = 12, pretend = 0, frame = 16
 3013              		@ frame_needed = 0, uses_anonymous_args = 0
 3014 0000 2DE9F04F 		push	{r4, r5, r6, r7, r8, r9, r10, fp, lr}
 3015 0004 0446     		mov	r4, r0
 3016 0006 87B0     		sub	sp, sp, #28
 3017 0008 9946     		mov	r9, r3
 3018 000a BDF844A0 		ldrh	r10, [sp, #68]
 3019 000e 129D     		ldr	r5, [sp, #72]
 3020 0010 0F46     		mov	r7, r1
 3021 0012 9046     		mov	r8, r2
 3022 0014 FFF7FEFF 		bl	HAL_GetTick
 3023 0018 94F83D30 		ldrb	r3, [r4, #61]	@ zero_extendqisi2
 3024 001c 202B     		cmp	r3, #32
 3025 001e 04D0     		beq	.L694
 3026              	.L642:
 3027 0020 0227     		movs	r7, #2
 3028              	.L641:
 3029 0022 3846     		mov	r0, r7
 3030 0024 07B0     		add	sp, sp, #28
 3031              		@ sp needed
 3032 0026 BDE8F08F 		pop	{r4, r5, r6, r7, r8, r9, r10, fp, pc}
 3033              	.L694:
 3034 002a 0646     		mov	r6, r0
 3035 002c 05E0     		b	.L640
 3036              	.L643:
 3037 002e FFF7FEFF 		bl	HAL_GetTick
 3038 0032 801B     		subs	r0, r0, r6
 3039 0034 1928     		cmp	r0, #25
 3040 0036 00F2CE80 		bhi	.L698
 3041              	.L640:
 3042 003a D4F800C0 		ldr	ip, [r4]
 3043 003e DCF81800 		ldr	r0, [ip, #24]
 3044 0042 C043     		mvns	r0, r0
 3045 0044 10F0020B 		ands	fp, r0, #2
 3046 0048 F1D0     		beq	.L643
 3047 004a 94F83C30 		ldrb	r3, [r4, #60]	@ zero_extendqisi2
 3048 004e 012B     		cmp	r3, #1
 3049 0050 E6D0     		beq	.L642
 3050 0052 0123     		movs	r3, #1
 3051 0054 84F83C30 		strb	r3, [r4, #60]
 3052 0058 DCF80030 		ldr	r3, [ip]
 3053 005c DA07     		lsls	r2, r3, #31
 3054 005e 37D5     		bpl	.L699
 3055              	.L645:
 3056 0060 DCF80000 		ldr	r0, [ip]
 3057 0064 20F40060 		bic	r0, r0, #2048
 3058 0068 CCF80000 		str	r0, [ip]
 3059 006c 1098     		ldr	r0, [sp, #64]
 3060 006e 6062     		str	r0, [r4, #36]
 3061 0070 2220     		movs	r0, #34
 3062 0072 CDE90056 		strd	r5, r6, [sp]
 3063 0076 84F83D00 		strb	r0, [r4, #61]
 3064 007a 4020     		movs	r0, #64
 3065 007c 84F83E00 		strb	r0, [r4, #62]
 3066 0080 0020     		movs	r0, #0
 3067 0082 2064     		str	r0, [r4, #64]
 3068 0084 A4F82AA0 		strh	r10, [r4, #42]	@ movhi
ARM GAS  /var/folders/lp/x54gwt890xv47sdkqj1k04q40000gn/T//ccZoWwdF.s 			page 54


 3069 0088 608D     		ldrh	r0, [r4, #42]
 3070 008a 2085     		strh	r0, [r4, #40]	@ movhi
 3071 008c 9648     		ldr	r0, .L704
 3072 008e E062     		str	r0, [r4, #44]
 3073 0090 3946     		mov	r1, r7
 3074 0092 4B46     		mov	r3, r9
 3075 0094 4246     		mov	r2, r8
 3076 0096 2046     		mov	r0, r4
 3077 0098 FFF7FEFF 		bl	I2C_RequestMemoryRead
 3078 009c 0746     		mov	r7, r0
 3079 009e 0028     		cmp	r0, #0
 3080 00a0 40F0BB80 		bne	.L647
 3081 00a4 238D     		ldrh	r3, [r4, #40]
 3082 00a6 2268     		ldr	r2, [r4]
 3083 00a8 CBB9     		cbnz	r3, .L648
 3084 00aa 0290     		str	r0, [sp, #8]
 3085 00ac 5369     		ldr	r3, [r2, #20]
 3086 00ae 0293     		str	r3, [sp, #8]
 3087 00b0 9369     		ldr	r3, [r2, #24]
 3088 00b2 0293     		str	r3, [sp, #8]
 3089 00b4 029B     		ldr	r3, [sp, #8]
 3090 00b6 1368     		ldr	r3, [r2]
 3091 00b8 43F40073 		orr	r3, r3, #512
 3092 00bc 1360     		str	r3, [r2]
 3093              	.L649:
 3094 00be 0023     		movs	r3, #0
 3095 00c0 2022     		movs	r2, #32
 3096 00c2 84F83D20 		strb	r2, [r4, #61]
 3097 00c6 84F83C30 		strb	r3, [r4, #60]
 3098 00ca 84F83E30 		strb	r3, [r4, #62]
 3099 00ce A8E7     		b	.L641
 3100              	.L699:
 3101 00d0 DCF80030 		ldr	r3, [ip]
 3102 00d4 43F00103 		orr	r3, r3, #1
 3103 00d8 CCF80030 		str	r3, [ip]
 3104 00dc C0E7     		b	.L645
 3105              	.L648:
 3106 00de 012B     		cmp	r3, #1
 3107 00e0 00F0F380 		beq	.L700
 3108 00e4 022B     		cmp	r3, #2
 3109 00e6 00F0CC80 		beq	.L701
 3110 00ea 0590     		str	r0, [sp, #20]
 3111 00ec 5169     		ldr	r1, [r2, #20]
 3112 00ee 0591     		str	r1, [sp, #20]
 3113 00f0 9269     		ldr	r2, [r2, #24]
 3114 00f2 0592     		str	r2, [sp, #20]
 3115 00f4 059A     		ldr	r2, [sp, #20]
 3116              	.L651:
 3117 00f6 032B     		cmp	r3, #3
 3118 00f8 4ED8     		bhi	.L654
 3119              	.L703:
 3120 00fa 012B     		cmp	r3, #1
 3121 00fc 00F0D980 		beq	.L702
 3122 0100 022B     		cmp	r3, #2
 3123 0102 00F09380 		beq	.L658
 3124              	.L659:
 3125 0106 2268     		ldr	r2, [r4]
ARM GAS  /var/folders/lp/x54gwt890xv47sdkqj1k04q40000gn/T//ccZoWwdF.s 			page 55


 3126 0108 5369     		ldr	r3, [r2, #20]
 3127 010a 5907     		lsls	r1, r3, #29
 3128 010c 04D4     		bmi	.L667
 3129 010e 6B1C     		adds	r3, r5, #1
 3130 0110 6FD1     		bne	.L665
 3131              	.L666:
 3132 0112 5369     		ldr	r3, [r2, #20]
 3133 0114 5807     		lsls	r0, r3, #29
 3134 0116 FCD5     		bpl	.L666
 3135              	.L667:
 3136 0118 1368     		ldr	r3, [r2]
 3137 011a 616A     		ldr	r1, [r4, #36]
 3138 011c 23F48063 		bic	r3, r3, #1024
 3139 0120 1360     		str	r3, [r2]
 3140 0122 1369     		ldr	r3, [r2, #16]
 3141 0124 0B70     		strb	r3, [r1]
 3142 0126 638D     		ldrh	r3, [r4, #42]
 3143 0128 616A     		ldr	r1, [r4, #36]
 3144 012a 228D     		ldrh	r2, [r4, #40]
 3145 012c 013B     		subs	r3, r3, #1
 3146 012e 0131     		adds	r1, r1, #1
 3147 0130 013A     		subs	r2, r2, #1
 3148 0132 9BB2     		uxth	r3, r3
 3149 0134 6162     		str	r1, [r4, #36]
 3150 0136 2285     		strh	r2, [r4, #40]	@ movhi
 3151 0138 6385     		strh	r3, [r4, #42]	@ movhi
 3152              	.L670:
 3153 013a 2268     		ldr	r2, [r4]
 3154 013c 5369     		ldr	r3, [r2, #20]
 3155 013e 5907     		lsls	r1, r3, #29
 3156 0140 05D4     		bmi	.L673
 3157 0142 6B1C     		adds	r3, r5, #1
 3158 0144 40F0AC80 		bne	.L671
 3159              	.L672:
 3160 0148 5369     		ldr	r3, [r2, #20]
 3161 014a 5807     		lsls	r0, r3, #29
 3162 014c FCD5     		bpl	.L672
 3163              	.L673:
 3164 014e 1368     		ldr	r3, [r2]
 3165 0150 616A     		ldr	r1, [r4, #36]
 3166 0152 43F40073 		orr	r3, r3, #512
 3167 0156 1360     		str	r3, [r2]
 3168 0158 1369     		ldr	r3, [r2, #16]
 3169 015a 0B70     		strb	r3, [r1]
 3170 015c 638D     		ldrh	r3, [r4, #42]
 3171 015e 228D     		ldrh	r2, [r4, #40]
 3172 0160 606A     		ldr	r0, [r4, #36]
 3173 0162 2168     		ldr	r1, [r4]
 3174 0164 013B     		subs	r3, r3, #1
 3175 0166 9BB2     		uxth	r3, r3
 3176 0168 6385     		strh	r3, [r4, #42]	@ movhi
 3177 016a 0969     		ldr	r1, [r1, #16]
 3178 016c 531E     		subs	r3, r2, #1
 3179 016e 00F1010C 		add	ip, r0, #1
 3180 0172 C4F824C0 		str	ip, [r4, #36]
 3181 0176 2385     		strh	r3, [r4, #40]	@ movhi
 3182 0178 4170     		strb	r1, [r0, #1]
ARM GAS  /var/folders/lp/x54gwt890xv47sdkqj1k04q40000gn/T//ccZoWwdF.s 			page 56


 3183 017a 238D     		ldrh	r3, [r4, #40]
 3184 017c 628D     		ldrh	r2, [r4, #42]
 3185 017e 616A     		ldr	r1, [r4, #36]
 3186 0180 013B     		subs	r3, r3, #1
 3187 0182 013A     		subs	r2, r2, #1
 3188 0184 0131     		adds	r1, r1, #1
 3189 0186 9BB2     		uxth	r3, r3
 3190 0188 92B2     		uxth	r2, r2
 3191 018a 6162     		str	r1, [r4, #36]
 3192 018c 2385     		strh	r3, [r4, #40]	@ movhi
 3193 018e 6285     		strh	r2, [r4, #42]	@ movhi
 3194              	.L657:
 3195 0190 002B     		cmp	r3, #0
 3196 0192 94D0     		beq	.L649
 3197              	.L697:
 3198 0194 032B     		cmp	r3, #3
 3199 0196 B0D9     		bls	.L703
 3200              	.L654:
 3201 0198 3246     		mov	r2, r6
 3202 019a 2946     		mov	r1, r5
 3203 019c 2046     		mov	r0, r4
 3204 019e FFF7FEFF 		bl	I2C_WaitOnRXNEFlagUntilTimeout
 3205 01a2 0028     		cmp	r0, #0
 3206 01a4 39D1     		bne	.L647
 3207 01a6 2268     		ldr	r2, [r4]
 3208 01a8 636A     		ldr	r3, [r4, #36]
 3209 01aa 1269     		ldr	r2, [r2, #16]
 3210 01ac 1A70     		strb	r2, [r3]
 3211 01ae 628D     		ldrh	r2, [r4, #42]
 3212 01b0 2068     		ldr	r0, [r4]
 3213 01b2 238D     		ldrh	r3, [r4, #40]
 3214 01b4 616A     		ldr	r1, [r4, #36]
 3215 01b6 013A     		subs	r2, r2, #1
 3216 01b8 92B2     		uxth	r2, r2
 3217 01ba 6285     		strh	r2, [r4, #42]	@ movhi
 3218 01bc 4269     		ldr	r2, [r0, #20]
 3219 01be 013B     		subs	r3, r3, #1
 3220 01c0 9BB2     		uxth	r3, r3
 3221 01c2 01F1010C 		add	ip, r1, #1
 3222 01c6 5207     		lsls	r2, r2, #29
 3223 01c8 2385     		strh	r3, [r4, #40]	@ movhi
 3224 01ca C4F824C0 		str	ip, [r4, #36]
 3225 01ce DFD5     		bpl	.L657
 3226 01d0 0369     		ldr	r3, [r0, #16]
 3227 01d2 4B70     		strb	r3, [r1, #1]
 3228 01d4 47E0     		b	.L696
 3229              	.L698:
 3230 01d6 2023     		movs	r3, #32
 3231 01d8 C4F830B0 		str	fp, [r4, #48]
 3232 01dc 84F83D30 		strb	r3, [r4, #61]
 3233 01e0 84F83EB0 		strb	fp, [r4, #62]
 3234 01e4 236C     		ldr	r3, [r4, #64]
 3235 01e6 84F83CB0 		strb	fp, [r4, #60]
 3236 01ea 43F02003 		orr	r3, r3, #32
 3237 01ee 2364     		str	r3, [r4, #64]
 3238 01f0 16E7     		b	.L642
 3239              	.L665:
ARM GAS  /var/folders/lp/x54gwt890xv47sdkqj1k04q40000gn/T//ccZoWwdF.s 			page 57


 3240 01f2 FFF7FEFF 		bl	HAL_GetTick
 3241 01f6 801B     		subs	r0, r0, r6
 3242 01f8 8542     		cmp	r5, r0
 3243 01fa 01D3     		bcc	.L663
 3244 01fc 002D     		cmp	r5, #0
 3245 01fe 82D1     		bne	.L659
 3246              	.L663:
 3247 0200 0022     		movs	r2, #0
 3248 0202 2023     		movs	r3, #32
 3249 0204 2263     		str	r2, [r4, #48]
 3250 0206 84F83D30 		strb	r3, [r4, #61]
 3251 020a 84F83E20 		strb	r2, [r4, #62]
 3252 020e 236C     		ldr	r3, [r4, #64]
 3253 0210 84F83C20 		strb	r2, [r4, #60]
 3254 0214 43F02003 		orr	r3, r3, #32
 3255 0218 2364     		str	r3, [r4, #64]
 3256              	.L647:
 3257 021a 0127     		movs	r7, #1
 3258 021c 01E7     		b	.L641
 3259              	.L660:
 3260 021e FFF7FEFF 		bl	HAL_GetTick
 3261 0222 801B     		subs	r0, r0, r6
 3262 0224 8542     		cmp	r5, r0
 3263 0226 EBD3     		bcc	.L663
 3264 0228 002D     		cmp	r5, #0
 3265 022a E9D0     		beq	.L663
 3266              	.L658:
 3267 022c 2268     		ldr	r2, [r4]
 3268 022e 5369     		ldr	r3, [r2, #20]
 3269 0230 5907     		lsls	r1, r3, #29
 3270 0232 04D4     		bmi	.L662
 3271 0234 6B1C     		adds	r3, r5, #1
 3272 0236 F2D1     		bne	.L660
 3273              	.L661:
 3274 0238 5369     		ldr	r3, [r2, #20]
 3275 023a 5807     		lsls	r0, r3, #29
 3276 023c FCD5     		bpl	.L661
 3277              	.L662:
 3278 023e 1368     		ldr	r3, [r2]
 3279 0240 43F40073 		orr	r3, r3, #512
 3280 0244 1360     		str	r3, [r2]
 3281 0246 636A     		ldr	r3, [r4, #36]
 3282 0248 1269     		ldr	r2, [r2, #16]
 3283 024a 1A70     		strb	r2, [r3]
 3284 024c 638D     		ldrh	r3, [r4, #42]
 3285 024e 626A     		ldr	r2, [r4, #36]
 3286 0250 013B     		subs	r3, r3, #1
 3287 0252 9BB2     		uxth	r3, r3
 3288 0254 6385     		strh	r3, [r4, #42]	@ movhi
 3289 0256 238D     		ldrh	r3, [r4, #40]
 3290 0258 013B     		subs	r3, r3, #1
 3291 025a 2385     		strh	r3, [r4, #40]	@ movhi
 3292 025c 2368     		ldr	r3, [r4]
 3293 025e 511C     		adds	r1, r2, #1
 3294 0260 1B69     		ldr	r3, [r3, #16]
 3295 0262 6162     		str	r1, [r4, #36]
 3296 0264 5370     		strb	r3, [r2, #1]
ARM GAS  /var/folders/lp/x54gwt890xv47sdkqj1k04q40000gn/T//ccZoWwdF.s 			page 58


 3297              	.L696:
 3298 0266 636A     		ldr	r3, [r4, #36]
 3299 0268 628D     		ldrh	r2, [r4, #42]
 3300 026a 0133     		adds	r3, r3, #1
 3301 026c 6362     		str	r3, [r4, #36]
 3302 026e 238D     		ldrh	r3, [r4, #40]
 3303 0270 013A     		subs	r2, r2, #1
 3304 0272 013B     		subs	r3, r3, #1
 3305 0274 9BB2     		uxth	r3, r3
 3306 0276 92B2     		uxth	r2, r2
 3307 0278 2385     		strh	r3, [r4, #40]	@ movhi
 3308 027a 6285     		strh	r2, [r4, #42]	@ movhi
 3309 027c 002B     		cmp	r3, #0
 3310 027e 89D1     		bne	.L697
 3311 0280 1DE7     		b	.L649
 3312              	.L701:
 3313 0282 1168     		ldr	r1, [r2]
 3314 0284 21F48061 		bic	r1, r1, #1024
 3315 0288 1160     		str	r1, [r2]
 3316 028a 1168     		ldr	r1, [r2]
 3317 028c 41F40061 		orr	r1, r1, #2048
 3318 0290 1160     		str	r1, [r2]
 3319 0292 0490     		str	r0, [sp, #16]
 3320 0294 5169     		ldr	r1, [r2, #20]
 3321 0296 0491     		str	r1, [sp, #16]
 3322 0298 9269     		ldr	r2, [r2, #24]
 3323 029a 0492     		str	r2, [sp, #16]
 3324 029c 049A     		ldr	r2, [sp, #16]
 3325 029e 2AE7     		b	.L651
 3326              	.L671:
 3327 02a0 FFF7FEFF 		bl	HAL_GetTick
 3328 02a4 801B     		subs	r0, r0, r6
 3329 02a6 8542     		cmp	r5, r0
 3330 02a8 AAD3     		bcc	.L663
 3331 02aa 002D     		cmp	r5, #0
 3332 02ac 7FF445AF 		bne	.L670
 3333 02b0 A6E7     		b	.L663
 3334              	.L702:
 3335 02b2 3246     		mov	r2, r6
 3336 02b4 2946     		mov	r1, r5
 3337 02b6 2046     		mov	r0, r4
 3338 02b8 FFF7FEFF 		bl	I2C_WaitOnRXNEFlagUntilTimeout
 3339 02bc 0028     		cmp	r0, #0
 3340 02be ACD1     		bne	.L647
 3341 02c0 2368     		ldr	r3, [r4]
 3342 02c2 1A69     		ldr	r2, [r3, #16]
 3343 02c4 636A     		ldr	r3, [r4, #36]
 3344 02c6 1A70     		strb	r2, [r3]
 3345 02c8 CDE7     		b	.L696
 3346              	.L700:
 3347 02ca 1168     		ldr	r1, [r2]
 3348 02cc 21F48061 		bic	r1, r1, #1024
 3349 02d0 1160     		str	r1, [r2]
 3350 02d2 0390     		str	r0, [sp, #12]
 3351 02d4 5169     		ldr	r1, [r2, #20]
 3352 02d6 0391     		str	r1, [sp, #12]
 3353 02d8 9169     		ldr	r1, [r2, #24]
ARM GAS  /var/folders/lp/x54gwt890xv47sdkqj1k04q40000gn/T//ccZoWwdF.s 			page 59


 3354 02da 0391     		str	r1, [sp, #12]
 3355 02dc 0399     		ldr	r1, [sp, #12]
 3356 02de 1168     		ldr	r1, [r2]
 3357 02e0 41F40071 		orr	r1, r1, #512
 3358 02e4 1160     		str	r1, [r2]
 3359 02e6 06E7     		b	.L651
 3360              	.L705:
 3361              		.align	2
 3362              	.L704:
 3363 02e8 0000FFFF 		.word	-65536
 3365              		.section	.text.HAL_I2C_Mem_Write_IT,"ax",%progbits
 3366              		.align	1
 3367              		.p2align 2,,3
 3368              		.global	HAL_I2C_Mem_Write_IT
 3369              		.syntax unified
 3370              		.thumb
 3371              		.thumb_func
 3373              	HAL_I2C_Mem_Write_IT:
 3374              		@ args = 8, pretend = 0, frame = 8
 3375              		@ frame_needed = 0, uses_anonymous_args = 0
 3376 0000 70B5     		push	{r4, r5, r6, lr}
 3377 0002 82B0     		sub	sp, sp, #8
 3378 0004 8446     		mov	ip, r0
 3379 0006 0020     		movs	r0, #0
 3380 0008 0190     		str	r0, [sp, #4]
 3381 000a 9CF83D00 		ldrb	r0, [ip, #61]	@ zero_extendqisi2
 3382 000e BDF81CE0 		ldrh	lr, [sp, #28]
 3383 0012 2028     		cmp	r0, #32
 3384 0014 29D1     		bne	.L711
 3385 0016 3348     		ldr	r0, .L719
 3386 0018 334C     		ldr	r4, .L719+4
 3387 001a 0068     		ldr	r0, [r0]
 3388 001c C008     		lsrs	r0, r0, #3
 3389 001e A4FB0040 		umull	r4, r0, r4, r0
 3390 0022 000A     		lsrs	r0, r0, #8
 3391 0024 00EB8000 		add	r0, r0, r0, lsl #2
 3392 0028 00EB8000 		add	r0, r0, r0, lsl #2
 3393 002c 0190     		str	r0, [sp, #4]
 3394 002e 04E0     		b	.L710
 3395              	.L709:
 3396 0030 DCF80040 		ldr	r4, [ip]
 3397 0034 A069     		ldr	r0, [r4, #24]
 3398 0036 8507     		lsls	r5, r0, #30
 3399 0038 1AD5     		bpl	.L718
 3400              	.L710:
 3401 003a 019C     		ldr	r4, [sp, #4]
 3402 003c 013C     		subs	r4, r4, #1
 3403 003e 0194     		str	r4, [sp, #4]
 3404 0040 0198     		ldr	r0, [sp, #4]
 3405 0042 0028     		cmp	r0, #0
 3406 0044 F4D1     		bne	.L709
 3407 0046 2023     		movs	r3, #32
 3408 0048 CCF83000 		str	r0, [ip, #48]
 3409 004c 8CF83D30 		strb	r3, [ip, #61]
 3410 0050 8CF83E00 		strb	r0, [ip, #62]
 3411 0054 DCF84030 		ldr	r3, [ip, #64]
 3412 0058 8CF83C00 		strb	r0, [ip, #60]
ARM GAS  /var/folders/lp/x54gwt890xv47sdkqj1k04q40000gn/T//ccZoWwdF.s 			page 60


 3413 005c 43F02003 		orr	r3, r3, #32
 3414 0060 0120     		movs	r0, #1
 3415 0062 CCF84030 		str	r3, [ip, #64]
 3416 0066 02B0     		add	sp, sp, #8
 3417              		@ sp needed
 3418 0068 70BD     		pop	{r4, r5, r6, pc}
 3419              	.L711:
 3420 006a 0220     		movs	r0, #2
 3421 006c 02B0     		add	sp, sp, #8
 3422              		@ sp needed
 3423 006e 70BD     		pop	{r4, r5, r6, pc}
 3424              	.L718:
 3425 0070 9CF83C00 		ldrb	r0, [ip, #60]	@ zero_extendqisi2
 3426 0074 0128     		cmp	r0, #1
 3427 0076 F8D0     		beq	.L711
 3428 0078 2068     		ldr	r0, [r4]
 3429 007a C007     		lsls	r0, r0, #31
 3430 007c 03D4     		bmi	.L712
 3431 007e 2068     		ldr	r0, [r4]
 3432 0080 40F00100 		orr	r0, r0, #1
 3433 0084 2060     		str	r0, [r4]
 3434              	.L712:
 3435 0086 2068     		ldr	r0, [r4]
 3436 0088 184E     		ldr	r6, .L719+8
 3437 008a 20F40060 		bic	r0, r0, #2048
 3438 008e 2060     		str	r0, [r4]
 3439 0090 0698     		ldr	r0, [sp, #24]
 3440 0092 CCF82400 		str	r0, [ip, #36]
 3441 0096 2120     		movs	r0, #33
 3442 0098 8CF83D00 		strb	r0, [ip, #61]
 3443 009c 0025     		movs	r5, #0
 3444 009e 4020     		movs	r0, #64
 3445 00a0 8CF83E00 		strb	r0, [ip, #62]
 3446 00a4 CCF84050 		str	r5, [ip, #64]
 3447 00a8 ACF82AE0 		strh	lr, [ip, #42]	@ movhi
 3448 00ac BCF82A00 		ldrh	r0, [ip, #42]
 3449 00b0 CCF82C60 		str	r6, [ip, #44]
 3450 00b4 CCF84410 		str	r1, [ip, #68]
 3451 00b8 CCF84820 		str	r2, [ip, #72]
 3452 00bc CCF84C30 		str	r3, [ip, #76]
 3453 00c0 CCF85050 		str	r5, [ip, #80]
 3454 00c4 2368     		ldr	r3, [r4]
 3455 00c6 ACF82800 		strh	r0, [ip, #40]	@ movhi
 3456 00ca 43F48073 		orr	r3, r3, #256
 3457 00ce 2360     		str	r3, [r4]
 3458 00d0 8CF83C50 		strb	r5, [ip, #60]
 3459 00d4 6368     		ldr	r3, [r4, #4]
 3460 00d6 2846     		mov	r0, r5
 3461 00d8 43F4E063 		orr	r3, r3, #1792
 3462 00dc 6360     		str	r3, [r4, #4]
 3463 00de 02B0     		add	sp, sp, #8
 3464              		@ sp needed
 3465 00e0 70BD     		pop	{r4, r5, r6, pc}
 3466              	.L720:
 3467 00e2 00BF     		.align	2
 3468              	.L719:
 3469 00e4 00000000 		.word	SystemCoreClock
ARM GAS  /var/folders/lp/x54gwt890xv47sdkqj1k04q40000gn/T//ccZoWwdF.s 			page 61


 3470 00e8 89B5F814 		.word	351843721
 3471 00ec 0000FFFF 		.word	-65536
 3473              		.section	.text.HAL_I2C_Mem_Read_IT,"ax",%progbits
 3474              		.align	1
 3475              		.p2align 2,,3
 3476              		.global	HAL_I2C_Mem_Read_IT
 3477              		.syntax unified
 3478              		.thumb
 3479              		.thumb_func
 3481              	HAL_I2C_Mem_Read_IT:
 3482              		@ args = 8, pretend = 0, frame = 8
 3483              		@ frame_needed = 0, uses_anonymous_args = 0
 3484              		@ link register save eliminated.
 3485 0000 F0B4     		push	{r4, r5, r6, r7}
 3486 0002 82B0     		sub	sp, sp, #8
 3487 0004 0024     		movs	r4, #0
 3488 0006 0194     		str	r4, [sp, #4]
 3489 0008 90F83D40 		ldrb	r4, [r0, #61]	@ zero_extendqisi2
 3490 000c BDF81CC0 		ldrh	ip, [sp, #28]
 3491 0010 202C     		cmp	r4, #32
 3492 0012 26D1     		bne	.L726
 3493 0014 304C     		ldr	r4, .L738
 3494 0016 314D     		ldr	r5, .L738+4
 3495 0018 2468     		ldr	r4, [r4]
 3496 001a E408     		lsrs	r4, r4, #3
 3497 001c A5FB0454 		umull	r5, r4, r5, r4
 3498 0020 240A     		lsrs	r4, r4, #8
 3499 0022 04EB8404 		add	r4, r4, r4, lsl #2
 3500 0026 04EB8404 		add	r4, r4, r4, lsl #2
 3501 002a 0194     		str	r4, [sp, #4]
 3502 002c 03E0     		b	.L725
 3503              	.L724:
 3504 002e 0468     		ldr	r4, [r0]
 3505 0030 A569     		ldr	r5, [r4, #24]
 3506 0032 AE07     		lsls	r6, r5, #30
 3507 0034 19D5     		bpl	.L737
 3508              	.L725:
 3509 0036 019C     		ldr	r4, [sp, #4]
 3510 0038 013C     		subs	r4, r4, #1
 3511 003a 0194     		str	r4, [sp, #4]
 3512 003c 019C     		ldr	r4, [sp, #4]
 3513 003e 002C     		cmp	r4, #0
 3514 0040 F5D1     		bne	.L724
 3515 0042 2023     		movs	r3, #32
 3516 0044 0463     		str	r4, [r0, #48]
 3517 0046 80F83D30 		strb	r3, [r0, #61]
 3518 004a 80F83E40 		strb	r4, [r0, #62]
 3519 004e 036C     		ldr	r3, [r0, #64]
 3520 0050 80F83C40 		strb	r4, [r0, #60]
 3521 0054 43F02003 		orr	r3, r3, #32
 3522 0058 0364     		str	r3, [r0, #64]
 3523 005a 0120     		movs	r0, #1
 3524 005c 02B0     		add	sp, sp, #8
 3525              		@ sp needed
 3526 005e F0BC     		pop	{r4, r5, r6, r7}
 3527 0060 7047     		bx	lr
 3528              	.L726:
ARM GAS  /var/folders/lp/x54gwt890xv47sdkqj1k04q40000gn/T//ccZoWwdF.s 			page 62


 3529 0062 0220     		movs	r0, #2
 3530 0064 02B0     		add	sp, sp, #8
 3531              		@ sp needed
 3532 0066 F0BC     		pop	{r4, r5, r6, r7}
 3533 0068 7047     		bx	lr
 3534              	.L737:
 3535 006a 90F83C50 		ldrb	r5, [r0, #60]	@ zero_extendqisi2
 3536 006e 012D     		cmp	r5, #1
 3537 0070 F7D0     		beq	.L726
 3538 0072 2568     		ldr	r5, [r4]
 3539 0074 ED07     		lsls	r5, r5, #31
 3540 0076 03D4     		bmi	.L727
 3541 0078 2568     		ldr	r5, [r4]
 3542 007a 45F00105 		orr	r5, r5, #1
 3543 007e 2560     		str	r5, [r4]
 3544              	.L727:
 3545 0080 2568     		ldr	r5, [r4]
 3546 0082 174F     		ldr	r7, .L738+8
 3547 0084 25F40065 		bic	r5, r5, #2048
 3548 0088 2560     		str	r5, [r4]
 3549 008a 069D     		ldr	r5, [sp, #24]
 3550 008c 4562     		str	r5, [r0, #36]
 3551 008e 2225     		movs	r5, #34
 3552 0090 80F83D50 		strb	r5, [r0, #61]
 3553 0094 0026     		movs	r6, #0
 3554 0096 4025     		movs	r5, #64
 3555 0098 80F83E50 		strb	r5, [r0, #62]
 3556 009c 0664     		str	r6, [r0, #64]
 3557 009e A0F82AC0 		strh	ip, [r0, #42]	@ movhi
 3558 00a2 458D     		ldrh	r5, [r0, #42]
 3559 00a4 C762     		str	r7, [r0, #44]
 3560 00a6 4164     		str	r1, [r0, #68]
 3561 00a8 8264     		str	r2, [r0, #72]
 3562 00aa C364     		str	r3, [r0, #76]
 3563 00ac 0665     		str	r6, [r0, #80]
 3564 00ae 2268     		ldr	r2, [r4]
 3565 00b0 ADB2     		uxth	r5, r5
 3566 00b2 42F48062 		orr	r2, r2, #1024
 3567 00b6 0585     		strh	r5, [r0, #40]	@ movhi
 3568 00b8 2260     		str	r2, [r4]
 3569 00ba 2268     		ldr	r2, [r4]
 3570 00bc 42F48072 		orr	r2, r2, #256
 3571 00c0 2260     		str	r2, [r4]
 3572 00c2 80F83C60 		strb	r6, [r0, #60]
 3573 00c6 1DB1     		cbz	r5, .L728
 3574 00c8 6368     		ldr	r3, [r4, #4]
 3575 00ca 43F4E063 		orr	r3, r3, #1792
 3576 00ce 6360     		str	r3, [r4, #4]
 3577              	.L728:
 3578 00d0 0020     		movs	r0, #0
 3579 00d2 02B0     		add	sp, sp, #8
 3580              		@ sp needed
 3581 00d4 F0BC     		pop	{r4, r5, r6, r7}
 3582 00d6 7047     		bx	lr
 3583              	.L739:
 3584              		.align	2
 3585              	.L738:
ARM GAS  /var/folders/lp/x54gwt890xv47sdkqj1k04q40000gn/T//ccZoWwdF.s 			page 63


 3586 00d8 00000000 		.word	SystemCoreClock
 3587 00dc 89B5F814 		.word	351843721
 3588 00e0 0000FFFF 		.word	-65536
 3590              		.section	.text.HAL_I2C_Mem_Write_DMA,"ax",%progbits
 3591              		.align	1
 3592              		.p2align 2,,3
 3593              		.global	HAL_I2C_Mem_Write_DMA
 3594              		.syntax unified
 3595              		.thumb
 3596              		.thumb_func
 3598              	HAL_I2C_Mem_Write_DMA:
 3599              		@ args = 8, pretend = 0, frame = 8
 3600              		@ frame_needed = 0, uses_anonymous_args = 0
 3601 0000 2DE9F047 		push	{r4, r5, r6, r7, r8, r9, r10, lr}
 3602 0004 0546     		mov	r5, r0
 3603 0006 84B0     		sub	sp, sp, #16
 3604 0008 9846     		mov	r8, r3
 3605 000a 0023     		movs	r3, #0
 3606 000c 0293     		str	r3, [sp, #8]
 3607 000e BDF834A0 		ldrh	r10, [sp, #52]
 3608 0012 0E46     		mov	r6, r1
 3609 0014 1746     		mov	r7, r2
 3610 0016 FFF7FEFF 		bl	HAL_GetTick
 3611 001a 95F83D30 		ldrb	r3, [r5, #61]	@ zero_extendqisi2
 3612 001e 202B     		cmp	r3, #32
 3613 0020 27D1     		bne	.L746
 3614 0022 5E4B     		ldr	r3, .L761
 3615 0024 5E4A     		ldr	r2, .L761+4
 3616 0026 1B68     		ldr	r3, [r3]
 3617 0028 DB08     		lsrs	r3, r3, #3
 3618 002a A2FB0323 		umull	r2, r3, r2, r3
 3619 002e 1B0A     		lsrs	r3, r3, #8
 3620 0030 03EB8303 		add	r3, r3, r3, lsl #2
 3621 0034 03EB8303 		add	r3, r3, r3, lsl #2
 3622 0038 8146     		mov	r9, r0
 3623 003a 0293     		str	r3, [sp, #8]
 3624 003c 03E0     		b	.L745
 3625              	.L743:
 3626 003e 2A68     		ldr	r2, [r5]
 3627 0040 9369     		ldr	r3, [r2, #24]
 3628 0042 9907     		lsls	r1, r3, #30
 3629 0044 19D5     		bpl	.L759
 3630              	.L745:
 3631 0046 029C     		ldr	r4, [sp, #8]
 3632 0048 013C     		subs	r4, r4, #1
 3633 004a 0294     		str	r4, [sp, #8]
 3634 004c 029B     		ldr	r3, [sp, #8]
 3635 004e 002B     		cmp	r3, #0
 3636 0050 F5D1     		bne	.L743
 3637 0052 2022     		movs	r2, #32
 3638 0054 2B63     		str	r3, [r5, #48]
 3639 0056 85F83D20 		strb	r2, [r5, #61]
 3640 005a 85F83E30 		strb	r3, [r5, #62]
 3641 005e 2A6C     		ldr	r2, [r5, #64]
 3642 0060 85F83C30 		strb	r3, [r5, #60]
 3643 0064 42F02002 		orr	r2, r2, #32
 3644 0068 2A64     		str	r2, [r5, #64]
ARM GAS  /var/folders/lp/x54gwt890xv47sdkqj1k04q40000gn/T//ccZoWwdF.s 			page 64


 3645              	.L744:
 3646 006a 0120     		movs	r0, #1
 3647              	.L742:
 3648 006c 04B0     		add	sp, sp, #16
 3649              		@ sp needed
 3650 006e BDE8F087 		pop	{r4, r5, r6, r7, r8, r9, r10, pc}
 3651              	.L746:
 3652 0072 0220     		movs	r0, #2
 3653 0074 04B0     		add	sp, sp, #16
 3654              		@ sp needed
 3655 0076 BDE8F087 		pop	{r4, r5, r6, r7, r8, r9, r10, pc}
 3656              	.L759:
 3657 007a 95F83C30 		ldrb	r3, [r5, #60]	@ zero_extendqisi2
 3658 007e 012B     		cmp	r3, #1
 3659 0080 F7D0     		beq	.L746
 3660 0082 0123     		movs	r3, #1
 3661 0084 85F83C30 		strb	r3, [r5, #60]
 3662 0088 1368     		ldr	r3, [r2]
 3663 008a DB07     		lsls	r3, r3, #31
 3664 008c 03D4     		bmi	.L747
 3665 008e 1368     		ldr	r3, [r2]
 3666 0090 43F00103 		orr	r3, r3, #1
 3667 0094 1360     		str	r3, [r2]
 3668              	.L747:
 3669 0096 1368     		ldr	r3, [r2]
 3670 0098 4249     		ldr	r1, .L761+8
 3671 009a 23F40063 		bic	r3, r3, #2048
 3672 009e 1360     		str	r3, [r2]
 3673 00a0 0C9B     		ldr	r3, [sp, #48]
 3674 00a2 6B62     		str	r3, [r5, #36]
 3675 00a4 2123     		movs	r3, #33
 3676 00a6 85F83D30 		strb	r3, [r5, #61]
 3677 00aa 0024     		movs	r4, #0
 3678 00ac 4023     		movs	r3, #64
 3679 00ae 85F83E30 		strb	r3, [r5, #62]
 3680 00b2 2C64     		str	r4, [r5, #64]
 3681 00b4 A5F82AA0 		strh	r10, [r5, #42]	@ movhi
 3682 00b8 6B8D     		ldrh	r3, [r5, #42]
 3683 00ba E962     		str	r1, [r5, #44]
 3684 00bc 9BB2     		uxth	r3, r3
 3685 00be 6E64     		str	r6, [r5, #68]
 3686 00c0 2B85     		strh	r3, [r5, #40]	@ movhi
 3687 00c2 AF64     		str	r7, [r5, #72]
 3688 00c4 C5F84C80 		str	r8, [r5, #76]
 3689 00c8 2C65     		str	r4, [r5, #80]
 3690 00ca 002B     		cmp	r3, #0
 3691 00cc 2ED0     		beq	.L748
 3692 00ce 686B     		ldr	r0, [r5, #52]
 3693 00d0 0028     		cmp	r0, #0
 3694 00d2 43D0     		beq	.L749
 3695 00d4 3449     		ldr	r1, .L761+12
 3696 00d6 C163     		str	r1, [r0, #60]
 3697 00d8 3449     		ldr	r1, .L761+16
 3698 00da C164     		str	r1, [r0, #76]
 3699 00dc C0E91044 		strd	r4, r4, [r0, #64]
 3700 00e0 0C99     		ldr	r1, [sp, #48]
 3701 00e2 8464     		str	r4, [r0, #72]
ARM GAS  /var/folders/lp/x54gwt890xv47sdkqj1k04q40000gn/T//ccZoWwdF.s 			page 65


 3702 00e4 0465     		str	r4, [r0, #80]
 3703 00e6 1032     		adds	r2, r2, #16
 3704 00e8 FFF7FEFF 		bl	HAL_DMA_Start_IT
 3705 00ec 8246     		mov	r10, r0
 3706 00ee 48BB     		cbnz	r0, .L757
 3707 00f0 2320     		movs	r0, #35
 3708 00f2 0090     		str	r0, [sp]
 3709 00f4 CDF80490 		str	r9, [sp, #4]
 3710 00f8 4346     		mov	r3, r8
 3711 00fa 3A46     		mov	r2, r7
 3712 00fc 3146     		mov	r1, r6
 3713 00fe 2846     		mov	r0, r5
 3714 0100 FFF7FEFF 		bl	I2C_RequestMemoryWrite
 3715 0104 0028     		cmp	r0, #0
 3716 0106 35D1     		bne	.L760
 3717 0108 2B68     		ldr	r3, [r5]
 3718 010a 0390     		str	r0, [sp, #12]
 3719 010c 5A69     		ldr	r2, [r3, #20]
 3720 010e 0392     		str	r2, [sp, #12]
 3721 0110 9A69     		ldr	r2, [r3, #24]
 3722 0112 0392     		str	r2, [sp, #12]
 3723 0114 85F83C00 		strb	r0, [r5, #60]
 3724 0118 039A     		ldr	r2, [sp, #12]
 3725 011a 5A68     		ldr	r2, [r3, #4]
 3726 011c 42F48072 		orr	r2, r2, #256
 3727 0120 5A60     		str	r2, [r3, #4]
 3728 0122 5A68     		ldr	r2, [r3, #4]
 3729 0124 42F40062 		orr	r2, r2, #2048
 3730 0128 5A60     		str	r2, [r3, #4]
 3731 012a 9FE7     		b	.L742
 3732              	.L748:
 3733 012c 2022     		movs	r2, #32
 3734 012e 85F83D20 		strb	r2, [r5, #61]
 3735 0132 85F83E30 		strb	r3, [r5, #62]
 3736 0136 2A6C     		ldr	r2, [r5, #64]
 3737 0138 85F83C30 		strb	r3, [r5, #60]
 3738 013c 42F04002 		orr	r2, r2, #64
 3739 0140 2A64     		str	r2, [r5, #64]
 3740 0142 92E7     		b	.L744
 3741              	.L757:
 3742 0144 2023     		movs	r3, #32
 3743 0146 85F83D30 		strb	r3, [r5, #61]
 3744 014a 85F83E40 		strb	r4, [r5, #62]
 3745 014e 2B6C     		ldr	r3, [r5, #64]
 3746 0150 85F83C40 		strb	r4, [r5, #60]
 3747 0154 43F01003 		orr	r3, r3, #16
 3748 0158 2B64     		str	r3, [r5, #64]
 3749 015a 86E7     		b	.L744
 3750              	.L749:
 3751 015c 2023     		movs	r3, #32
 3752 015e 85F83D30 		strb	r3, [r5, #61]
 3753 0162 85F83E00 		strb	r0, [r5, #62]
 3754 0166 2B6C     		ldr	r3, [r5, #64]
 3755 0168 85F83C00 		strb	r0, [r5, #60]
 3756 016c 43F08003 		orr	r3, r3, #128
 3757 0170 2B64     		str	r3, [r5, #64]
 3758 0172 7AE7     		b	.L744
ARM GAS  /var/folders/lp/x54gwt890xv47sdkqj1k04q40000gn/T//ccZoWwdF.s 			page 66


 3759              	.L760:
 3760 0174 686B     		ldr	r0, [r5, #52]
 3761 0176 FFF7FEFF 		bl	HAL_DMA_Abort_IT
 3762 017a 2B68     		ldr	r3, [r5]
 3763 017c 696B     		ldr	r1, [r5, #52]
 3764 017e 1A68     		ldr	r2, [r3]
 3765 0180 C1F83CA0 		str	r10, [r1, #60]
 3766 0184 22F48062 		bic	r2, r2, #1024
 3767 0188 1A60     		str	r2, [r3]
 3768 018a A5F82AA0 		strh	r10, [r5, #42]	@ movhi
 3769 018e 1A68     		ldr	r2, [r3]
 3770 0190 A5F828A0 		strh	r10, [r5, #40]	@ movhi
 3771 0194 22F00102 		bic	r2, r2, #1
 3772 0198 1A60     		str	r2, [r3]
 3773 019a 66E7     		b	.L744
 3774              	.L762:
 3775              		.align	2
 3776              	.L761:
 3777 019c 00000000 		.word	SystemCoreClock
 3778 01a0 89B5F814 		.word	351843721
 3779 01a4 0000FFFF 		.word	-65536
 3780 01a8 00000000 		.word	I2C_DMAXferCplt
 3781 01ac 00000000 		.word	I2C_DMAError
 3783              		.section	.text.HAL_I2C_Mem_Read_DMA,"ax",%progbits
 3784              		.align	1
 3785              		.p2align 2,,3
 3786              		.global	HAL_I2C_Mem_Read_DMA
 3787              		.syntax unified
 3788              		.thumb
 3789              		.thumb_func
 3791              	HAL_I2C_Mem_Read_DMA:
 3792              		@ args = 8, pretend = 0, frame = 16
 3793              		@ frame_needed = 0, uses_anonymous_args = 0
 3794 0000 2DE9F047 		push	{r4, r5, r6, r7, r8, r9, r10, lr}
 3795 0004 86B0     		sub	sp, sp, #24
 3796 0006 0546     		mov	r5, r0
 3797 0008 9846     		mov	r8, r3
 3798 000a BDF83CA0 		ldrh	r10, [sp, #60]
 3799 000e 0E46     		mov	r6, r1
 3800 0010 1746     		mov	r7, r2
 3801 0012 FFF7FEFF 		bl	HAL_GetTick
 3802 0016 0023     		movs	r3, #0
 3803 0018 0393     		str	r3, [sp, #12]
 3804 001a 95F83D30 		ldrb	r3, [r5, #61]	@ zero_extendqisi2
 3805 001e 202B     		cmp	r3, #32
 3806 0020 27D1     		bne	.L769
 3807 0022 6E4B     		ldr	r3, .L788
 3808 0024 6E4A     		ldr	r2, .L788+4
 3809 0026 1B68     		ldr	r3, [r3]
 3810 0028 DB08     		lsrs	r3, r3, #3
 3811 002a A2FB0323 		umull	r2, r3, r2, r3
 3812 002e 1B0A     		lsrs	r3, r3, #8
 3813 0030 03EB8303 		add	r3, r3, r3, lsl #2
 3814 0034 03EB8303 		add	r3, r3, r3, lsl #2
 3815 0038 8146     		mov	r9, r0
 3816 003a 0393     		str	r3, [sp, #12]
 3817 003c 03E0     		b	.L768
ARM GAS  /var/folders/lp/x54gwt890xv47sdkqj1k04q40000gn/T//ccZoWwdF.s 			page 67


 3818              	.L766:
 3819 003e 2968     		ldr	r1, [r5]
 3820 0040 8B69     		ldr	r3, [r1, #24]
 3821 0042 9A07     		lsls	r2, r3, #30
 3822 0044 19D5     		bpl	.L785
 3823              	.L768:
 3824 0046 039C     		ldr	r4, [sp, #12]
 3825 0048 013C     		subs	r4, r4, #1
 3826 004a 0394     		str	r4, [sp, #12]
 3827 004c 039B     		ldr	r3, [sp, #12]
 3828 004e 002B     		cmp	r3, #0
 3829 0050 F5D1     		bne	.L766
 3830 0052 2022     		movs	r2, #32
 3831 0054 2B63     		str	r3, [r5, #48]
 3832 0056 85F83D20 		strb	r2, [r5, #61]
 3833 005a 85F83E30 		strb	r3, [r5, #62]
 3834 005e 2A6C     		ldr	r2, [r5, #64]
 3835 0060 85F83C30 		strb	r3, [r5, #60]
 3836 0064 42F02002 		orr	r2, r2, #32
 3837 0068 2A64     		str	r2, [r5, #64]
 3838              	.L767:
 3839 006a 0120     		movs	r0, #1
 3840              	.L765:
 3841 006c 06B0     		add	sp, sp, #24
 3842              		@ sp needed
 3843 006e BDE8F087 		pop	{r4, r5, r6, r7, r8, r9, r10, pc}
 3844              	.L769:
 3845 0072 0220     		movs	r0, #2
 3846 0074 06B0     		add	sp, sp, #24
 3847              		@ sp needed
 3848 0076 BDE8F087 		pop	{r4, r5, r6, r7, r8, r9, r10, pc}
 3849              	.L785:
 3850 007a 95F83C30 		ldrb	r3, [r5, #60]	@ zero_extendqisi2
 3851 007e 012B     		cmp	r3, #1
 3852 0080 F7D0     		beq	.L769
 3853 0082 0123     		movs	r3, #1
 3854 0084 85F83C30 		strb	r3, [r5, #60]
 3855 0088 0B68     		ldr	r3, [r1]
 3856 008a DB07     		lsls	r3, r3, #31
 3857 008c 03D4     		bmi	.L770
 3858 008e 0B68     		ldr	r3, [r1]
 3859 0090 43F00103 		orr	r3, r3, #1
 3860 0094 0B60     		str	r3, [r1]
 3861              	.L770:
 3862 0096 0B68     		ldr	r3, [r1]
 3863 0098 524A     		ldr	r2, .L788+8
 3864 009a 23F40063 		bic	r3, r3, #2048
 3865 009e 0B60     		str	r3, [r1]
 3866 00a0 0E9B     		ldr	r3, [sp, #56]
 3867 00a2 6B62     		str	r3, [r5, #36]
 3868 00a4 2223     		movs	r3, #34
 3869 00a6 85F83D30 		strb	r3, [r5, #61]
 3870 00aa 0024     		movs	r4, #0
 3871 00ac 4023     		movs	r3, #64
 3872 00ae 85F83E30 		strb	r3, [r5, #62]
 3873 00b2 2C64     		str	r4, [r5, #64]
 3874 00b4 A5F82AA0 		strh	r10, [r5, #42]	@ movhi
ARM GAS  /var/folders/lp/x54gwt890xv47sdkqj1k04q40000gn/T//ccZoWwdF.s 			page 68


 3875 00b8 6B8D     		ldrh	r3, [r5, #42]
 3876 00ba EA62     		str	r2, [r5, #44]
 3877 00bc 9BB2     		uxth	r3, r3
 3878 00be 6E64     		str	r6, [r5, #68]
 3879 00c0 2B85     		strh	r3, [r5, #40]	@ movhi
 3880 00c2 AF64     		str	r7, [r5, #72]
 3881 00c4 C5F84C80 		str	r8, [r5, #76]
 3882 00c8 2C65     		str	r4, [r5, #80]
 3883 00ca 002B     		cmp	r3, #0
 3884 00cc 37D0     		beq	.L771
 3885 00ce A86B     		ldr	r0, [r5, #56]
 3886 00d0 0028     		cmp	r0, #0
 3887 00d2 5ED0     		beq	.L772
 3888 00d4 444A     		ldr	r2, .L788+12
 3889 00d6 C263     		str	r2, [r0, #60]
 3890 00d8 444A     		ldr	r2, .L788+16
 3891 00da C264     		str	r2, [r0, #76]
 3892 00dc C0E91044 		strd	r4, r4, [r0, #64]
 3893 00e0 0E9A     		ldr	r2, [sp, #56]
 3894 00e2 8464     		str	r4, [r0, #72]
 3895 00e4 0465     		str	r4, [r0, #80]
 3896 00e6 1031     		adds	r1, r1, #16
 3897 00e8 FFF7FEFF 		bl	HAL_DMA_Start_IT
 3898 00ec 8246     		mov	r10, r0
 3899 00ee 0028     		cmp	r0, #0
 3900 00f0 43D1     		bne	.L783
 3901 00f2 2320     		movs	r0, #35
 3902 00f4 0090     		str	r0, [sp]
 3903 00f6 CDF80490 		str	r9, [sp, #4]
 3904 00fa 4346     		mov	r3, r8
 3905 00fc 3A46     		mov	r2, r7
 3906 00fe 3146     		mov	r1, r6
 3907 0100 2846     		mov	r0, r5
 3908 0102 FFF7FEFF 		bl	I2C_RequestMemoryRead
 3909 0106 0028     		cmp	r0, #0
 3910 0108 4FD1     		bne	.L786
 3911 010a 2A8D     		ldrh	r2, [r5, #40]
 3912 010c 2B68     		ldr	r3, [r5]
 3913 010e 012A     		cmp	r2, #1
 3914 0110 5FD0     		beq	.L787
 3915 0112 5A68     		ldr	r2, [r3, #4]
 3916 0114 42F48052 		orr	r2, r2, #4096
 3917 0118 5A60     		str	r2, [r3, #4]
 3918              	.L777:
 3919 011a 0022     		movs	r2, #0
 3920 011c 0492     		str	r2, [sp, #16]
 3921 011e 5969     		ldr	r1, [r3, #20]
 3922 0120 0491     		str	r1, [sp, #16]
 3923 0122 9969     		ldr	r1, [r3, #24]
 3924 0124 0491     		str	r1, [sp, #16]
 3925 0126 85F83C20 		strb	r2, [r5, #60]
 3926 012a 049A     		ldr	r2, [sp, #16]
 3927 012c 5A68     		ldr	r2, [r3, #4]
 3928 012e 42F48072 		orr	r2, r2, #256
 3929 0132 5A60     		str	r2, [r3, #4]
 3930 0134 5A68     		ldr	r2, [r3, #4]
 3931 0136 42F40062 		orr	r2, r2, #2048
ARM GAS  /var/folders/lp/x54gwt890xv47sdkqj1k04q40000gn/T//ccZoWwdF.s 			page 69


 3932 013a 5A60     		str	r2, [r3, #4]
 3933 013c 1BE0     		b	.L778
 3934              	.L771:
 3935 013e 2323     		movs	r3, #35
 3936 0140 0093     		str	r3, [sp]
 3937 0142 CDF80490 		str	r9, [sp, #4]
 3938 0146 4346     		mov	r3, r8
 3939 0148 3A46     		mov	r2, r7
 3940 014a 3146     		mov	r1, r6
 3941 014c 2846     		mov	r0, r5
 3942 014e FFF7FEFF 		bl	I2C_RequestMemoryRead
 3943 0152 0028     		cmp	r0, #0
 3944 0154 89D1     		bne	.L767
 3945 0156 2B68     		ldr	r3, [r5]
 3946 0158 0590     		str	r0, [sp, #20]
 3947 015a 5A69     		ldr	r2, [r3, #20]
 3948 015c 0592     		str	r2, [sp, #20]
 3949 015e 9A69     		ldr	r2, [r3, #24]
 3950 0160 0592     		str	r2, [sp, #20]
 3951 0162 059A     		ldr	r2, [sp, #20]
 3952 0164 1A68     		ldr	r2, [r3]
 3953 0166 2021     		movs	r1, #32
 3954 0168 42F40072 		orr	r2, r2, #512
 3955 016c 1A60     		str	r2, [r3]
 3956 016e 85F83D10 		strb	r1, [r5, #61]
 3957 0172 85F83C00 		strb	r0, [r5, #60]
 3958              	.L778:
 3959 0176 0020     		movs	r0, #0
 3960 0178 78E7     		b	.L765
 3961              	.L783:
 3962 017a 2023     		movs	r3, #32
 3963 017c 85F83D30 		strb	r3, [r5, #61]
 3964 0180 85F83E40 		strb	r4, [r5, #62]
 3965 0184 2B6C     		ldr	r3, [r5, #64]
 3966 0186 85F83C40 		strb	r4, [r5, #60]
 3967 018a 43F01003 		orr	r3, r3, #16
 3968 018e 2B64     		str	r3, [r5, #64]
 3969 0190 6BE7     		b	.L767
 3970              	.L772:
 3971 0192 2023     		movs	r3, #32
 3972 0194 85F83D30 		strb	r3, [r5, #61]
 3973 0198 85F83E00 		strb	r0, [r5, #62]
 3974 019c 2B6C     		ldr	r3, [r5, #64]
 3975 019e 85F83C00 		strb	r0, [r5, #60]
 3976 01a2 43F08003 		orr	r3, r3, #128
 3977 01a6 2B64     		str	r3, [r5, #64]
 3978 01a8 5FE7     		b	.L767
 3979              	.L786:
 3980 01aa A86B     		ldr	r0, [r5, #56]
 3981 01ac FFF7FEFF 		bl	HAL_DMA_Abort_IT
 3982 01b0 2B68     		ldr	r3, [r5]
 3983 01b2 A96B     		ldr	r1, [r5, #56]
 3984 01b4 1A68     		ldr	r2, [r3]
 3985 01b6 C1F83CA0 		str	r10, [r1, #60]
 3986 01ba 22F48062 		bic	r2, r2, #1024
 3987 01be 1A60     		str	r2, [r3]
 3988 01c0 A5F82AA0 		strh	r10, [r5, #42]	@ movhi
ARM GAS  /var/folders/lp/x54gwt890xv47sdkqj1k04q40000gn/T//ccZoWwdF.s 			page 70


 3989 01c4 1A68     		ldr	r2, [r3]
 3990 01c6 A5F828A0 		strh	r10, [r5, #40]	@ movhi
 3991 01ca 22F00102 		bic	r2, r2, #1
 3992 01ce 1A60     		str	r2, [r3]
 3993 01d0 4BE7     		b	.L767
 3994              	.L787:
 3995 01d2 1A68     		ldr	r2, [r3]
 3996 01d4 22F48062 		bic	r2, r2, #1024
 3997 01d8 1A60     		str	r2, [r3]
 3998 01da 9EE7     		b	.L777
 3999              	.L789:
 4000              		.align	2
 4001              	.L788:
 4002 01dc 00000000 		.word	SystemCoreClock
 4003 01e0 89B5F814 		.word	351843721
 4004 01e4 0000FFFF 		.word	-65536
 4005 01e8 00000000 		.word	I2C_DMAXferCplt
 4006 01ec 00000000 		.word	I2C_DMAError
 4008              		.section	.text.HAL_I2C_IsDeviceReady,"ax",%progbits
 4009              		.align	1
 4010              		.p2align 2,,3
 4011              		.global	HAL_I2C_IsDeviceReady
 4012              		.syntax unified
 4013              		.thumb
 4014              		.thumb_func
 4016              	HAL_I2C_IsDeviceReady:
 4017              		@ args = 0, pretend = 0, frame = 8
 4018              		@ frame_needed = 0, uses_anonymous_args = 0
 4019 0000 2DE9F04F 		push	{r4, r5, r6, r7, r8, r9, r10, fp, lr}
 4020 0004 0546     		mov	r5, r0
 4021 0006 83B0     		sub	sp, sp, #12
 4022 0008 1F46     		mov	r7, r3
 4023 000a 8A46     		mov	r10, r1
 4024 000c 9346     		mov	fp, r2
 4025 000e FFF7FEFF 		bl	HAL_GetTick
 4026 0012 95F83D30 		ldrb	r3, [r5, #61]	@ zero_extendqisi2
 4027 0016 202B     		cmp	r3, #32
 4028 0018 03D0     		beq	.L842
 4029              	.L792:
 4030 001a 0220     		movs	r0, #2
 4031              	.L806:
 4032 001c 03B0     		add	sp, sp, #12
 4033              		@ sp needed
 4034 001e BDE8F08F 		pop	{r4, r5, r6, r7, r8, r9, r10, fp, pc}
 4035              	.L842:
 4036 0022 0646     		mov	r6, r0
 4037 0024 05E0     		b	.L791
 4038              	.L793:
 4039 0026 FFF7FEFF 		bl	HAL_GetTick
 4040 002a 801B     		subs	r0, r0, r6
 4041 002c 1928     		cmp	r0, #25
 4042 002e 00F29F80 		bhi	.L843
 4043              	.L791:
 4044 0032 2B68     		ldr	r3, [r5]
 4045 0034 9A69     		ldr	r2, [r3, #24]
 4046 0036 D243     		mvns	r2, r2
 4047 0038 12F00204 		ands	r4, r2, #2
ARM GAS  /var/folders/lp/x54gwt890xv47sdkqj1k04q40000gn/T//ccZoWwdF.s 			page 71


 4048 003c F3D0     		beq	.L793
 4049 003e 95F83C20 		ldrb	r2, [r5, #60]	@ zero_extendqisi2
 4050 0042 012A     		cmp	r2, #1
 4051 0044 E9D0     		beq	.L792
 4052 0046 0122     		movs	r2, #1
 4053 0048 85F83C20 		strb	r2, [r5, #60]
 4054 004c 1A68     		ldr	r2, [r3]
 4055 004e D207     		lsls	r2, r2, #31
 4056 0050 40F18980 		bpl	.L844
 4057              	.L795:
 4058 0054 1A68     		ldr	r2, [r3]
 4059 0056 5C49     		ldr	r1, .L847
 4060 0058 22F40062 		bic	r2, r2, #2048
 4061 005c 1A60     		str	r2, [r3]
 4062 005e 2420     		movs	r0, #36
 4063 0060 0022     		movs	r2, #0
 4064 0062 85F83D00 		strb	r0, [r5, #61]
 4065 0066 0AF0FE0A 		and	r10, r10, #254
 4066 006a 2A64     		str	r2, [r5, #64]
 4067 006c 9146     		mov	r9, r2
 4068 006e E962     		str	r1, [r5, #44]
 4069 0070 4FF0A008 		mov	r8, #160
 4070              	.L817:
 4071 0074 1A68     		ldr	r2, [r3]
 4072 0076 42F48072 		orr	r2, r2, #256
 4073 007a 1A60     		str	r2, [r3]
 4074              	.L796:
 4075 007c 5A69     		ldr	r2, [r3, #20]
 4076 007e D207     		lsls	r2, r2, #31
 4077 0080 04D4     		bmi	.L799
 4078 0082 7C1C     		adds	r4, r7, #1
 4079 0084 40D1     		bne	.L797
 4080              	.L798:
 4081 0086 5A69     		ldr	r2, [r3, #20]
 4082 0088 D007     		lsls	r0, r2, #31
 4083 008a FCD5     		bpl	.L798
 4084              	.L799:
 4085 008c C3F810A0 		str	r10, [r3, #16]
 4086 0090 FFF7FEFF 		bl	HAL_GetTick
 4087 0094 0646     		mov	r6, r0
 4088              	.L808:
 4089 0096 2B68     		ldr	r3, [r5]
 4090 0098 5A69     		ldr	r2, [r3, #20]
 4091 009a 5969     		ldr	r1, [r3, #20]
 4092 009c 95F83D00 		ldrb	r0, [r5, #61]	@ zero_extendqisi2
 4093 00a0 A028     		cmp	r0, #160
 4094 00a2 02F00202 		and	r2, r2, #2
 4095 00a6 01F48061 		and	r1, r1, #1024
 4096 00aa 0BD0     		beq	.L804
 4097 00ac 0A43     		orrs	r2, r2, r1
 4098 00ae 09D1     		bne	.L804
 4099 00b0 FFF7FEFF 		bl	HAL_GetTick
 4100 00b4 801B     		subs	r0, r0, r6
 4101 00b6 B842     		cmp	r0, r7
 4102 00b8 01D8     		bhi	.L807
 4103 00ba 002F     		cmp	r7, #0
 4104 00bc EBD1     		bne	.L808
ARM GAS  /var/folders/lp/x54gwt890xv47sdkqj1k04q40000gn/T//ccZoWwdF.s 			page 72


 4105              	.L807:
 4106 00be 85F83D80 		strb	r8, [r5, #61]
 4107 00c2 E8E7     		b	.L808
 4108              	.L804:
 4109 00c4 2022     		movs	r2, #32
 4110 00c6 85F83D20 		strb	r2, [r5, #61]
 4111 00ca 5A69     		ldr	r2, [r3, #20]
 4112 00cc 12F0020F 		tst	r2, #2
 4113 00d0 1A68     		ldr	r2, [r3]
 4114 00d2 5CD1     		bne	.L845
 4115 00d4 6FF48061 		mvn	r1, #1024
 4116 00d8 42F40072 		orr	r2, r2, #512
 4117 00dc 1A60     		str	r2, [r3]
 4118 00de 5961     		str	r1, [r3, #20]
 4119 00e0 05E0     		b	.L814
 4120              	.L816:
 4121 00e2 FFF7FEFF 		bl	HAL_GetTick
 4122 00e6 801B     		subs	r0, r0, r6
 4123 00e8 1928     		cmp	r0, #25
 4124 00ea 2BD8     		bhi	.L841
 4125 00ec 2B68     		ldr	r3, [r5]
 4126              	.L814:
 4127 00ee 9C69     		ldr	r4, [r3, #24]
 4128 00f0 E443     		mvns	r4, r4
 4129 00f2 14F00204 		ands	r4, r4, #2
 4130 00f6 F4D0     		beq	.L816
 4131 00f8 09F10109 		add	r9, r9, #1
 4132 00fc D945     		cmp	r9, fp
 4133 00fe B9D3     		bcc	.L817
 4134 0100 2023     		movs	r3, #32
 4135 0102 85F83D30 		strb	r3, [r5, #61]
 4136 0106 27E0     		b	.L812
 4137              	.L797:
 4138 0108 FFF7FEFF 		bl	HAL_GetTick
 4139 010c 801B     		subs	r0, r0, r6
 4140 010e 8742     		cmp	r7, r0
 4141 0110 3BD3     		bcc	.L846
 4142 0112 2B68     		ldr	r3, [r5]
 4143 0114 1A46     		mov	r2, r3
 4144 0116 002F     		cmp	r7, #0
 4145 0118 B0D1     		bne	.L796
 4146              	.L800:
 4147 011a 0021     		movs	r1, #0
 4148 011c 2023     		movs	r3, #32
 4149 011e 2963     		str	r1, [r5, #48]
 4150 0120 85F83D30 		strb	r3, [r5, #61]
 4151 0124 85F83E10 		strb	r1, [r5, #62]
 4152 0128 2B6C     		ldr	r3, [r5, #64]
 4153 012a 85F83C10 		strb	r1, [r5, #60]
 4154 012e 43F02003 		orr	r3, r3, #32
 4155 0132 2B64     		str	r3, [r5, #64]
 4156 0134 1368     		ldr	r3, [r2]
 4157 0136 D905     		lsls	r1, r3, #23
 4158 0138 02D5     		bpl	.L802
 4159 013a 4FF40073 		mov	r3, #512
 4160 013e 2B64     		str	r3, [r5, #64]
 4161              	.L802:
ARM GAS  /var/folders/lp/x54gwt890xv47sdkqj1k04q40000gn/T//ccZoWwdF.s 			page 73


 4162 0140 0320     		movs	r0, #3
 4163 0142 6BE7     		b	.L806
 4164              	.L841:
 4165 0144 2023     		movs	r3, #32
 4166 0146 2C63     		str	r4, [r5, #48]
 4167 0148 85F83D30 		strb	r3, [r5, #61]
 4168 014c 85F83E40 		strb	r4, [r5, #62]
 4169 0150 2B6C     		ldr	r3, [r5, #64]
 4170 0152 43F02003 		orr	r3, r3, #32
 4171 0156 2B64     		str	r3, [r5, #64]
 4172              	.L812:
 4173 0158 0023     		movs	r3, #0
 4174 015a 0120     		movs	r0, #1
 4175 015c 85F83C30 		strb	r3, [r5, #60]
 4176 0160 03B0     		add	sp, sp, #12
 4177              		@ sp needed
 4178 0162 BDE8F08F 		pop	{r4, r5, r6, r7, r8, r9, r10, fp, pc}
 4179              	.L844:
 4180 0166 1A68     		ldr	r2, [r3]
 4181 0168 42F00102 		orr	r2, r2, #1
 4182 016c 1A60     		str	r2, [r3]
 4183 016e 71E7     		b	.L795
 4184              	.L843:
 4185 0170 2023     		movs	r3, #32
 4186 0172 2C63     		str	r4, [r5, #48]
 4187 0174 85F83D30 		strb	r3, [r5, #61]
 4188 0178 85F83E40 		strb	r4, [r5, #62]
 4189 017c 2B6C     		ldr	r3, [r5, #64]
 4190 017e 85F83C40 		strb	r4, [r5, #60]
 4191 0182 43F02003 		orr	r3, r3, #32
 4192 0186 2B64     		str	r3, [r5, #64]
 4193 0188 47E7     		b	.L792
 4194              	.L846:
 4195 018a 2A68     		ldr	r2, [r5]
 4196 018c C5E7     		b	.L800
 4197              	.L845:
 4198 018e 42F40072 		orr	r2, r2, #512
 4199 0192 0021     		movs	r1, #0
 4200 0194 1A60     		str	r2, [r3]
 4201 0196 0191     		str	r1, [sp, #4]
 4202 0198 5A69     		ldr	r2, [r3, #20]
 4203 019a 0192     		str	r2, [sp, #4]
 4204 019c 9A69     		ldr	r2, [r3, #24]
 4205 019e 0192     		str	r2, [sp, #4]
 4206 01a0 019A     		ldr	r2, [sp, #4]
 4207 01a2 05E0     		b	.L810
 4208              	.L813:
 4209 01a4 FFF7FEFF 		bl	HAL_GetTick
 4210 01a8 801B     		subs	r0, r0, r6
 4211 01aa 1928     		cmp	r0, #25
 4212 01ac CAD8     		bhi	.L841
 4213 01ae 2B68     		ldr	r3, [r5]
 4214              	.L810:
 4215 01b0 9B69     		ldr	r3, [r3, #24]
 4216 01b2 DB43     		mvns	r3, r3
 4217 01b4 13F00204 		ands	r4, r3, #2
 4218 01b8 F4D0     		beq	.L813
ARM GAS  /var/folders/lp/x54gwt890xv47sdkqj1k04q40000gn/T//ccZoWwdF.s 			page 74


 4219 01ba 0020     		movs	r0, #0
 4220 01bc 2023     		movs	r3, #32
 4221 01be 85F83D30 		strb	r3, [r5, #61]
 4222 01c2 85F83C00 		strb	r0, [r5, #60]
 4223 01c6 29E7     		b	.L806
 4224              	.L848:
 4225              		.align	2
 4226              	.L847:
 4227 01c8 0000FFFF 		.word	-65536
 4229              		.section	.text.HAL_I2C_Master_Seq_Transmit_IT,"ax",%progbits
 4230              		.align	1
 4231              		.p2align 2,,3
 4232              		.global	HAL_I2C_Master_Seq_Transmit_IT
 4233              		.syntax unified
 4234              		.thumb
 4235              		.thumb_func
 4237              	HAL_I2C_Master_Seq_Transmit_IT:
 4238              		@ args = 4, pretend = 0, frame = 8
 4239              		@ frame_needed = 0, uses_anonymous_args = 0
 4240              		@ link register save eliminated.
 4241 0000 F0B4     		push	{r4, r5, r6, r7}
 4242 0002 82B0     		sub	sp, sp, #8
 4243 0004 0024     		movs	r4, #0
 4244 0006 0094     		str	r4, [sp]
 4245 0008 0194     		str	r4, [sp, #4]
 4246 000a 90F83D40 		ldrb	r4, [r0, #61]	@ zero_extendqisi2
 4247 000e 069E     		ldr	r6, [sp, #24]
 4248 0010 202C     		cmp	r4, #32
 4249 0012 5AD1     		bne	.L856
 4250 0014 0568     		ldr	r5, [r0]
 4251 0016 2C68     		ldr	r4, [r5]
 4252 0018 A405     		lsls	r4, r4, #22
 4253 001a 25D5     		bpl	.L871
 4254              	.L852:
 4255 001c 334C     		ldr	r4, .L874
 4256 001e 344F     		ldr	r7, .L874+4
 4257 0020 2468     		ldr	r4, [r4]
 4258 0022 E408     		lsrs	r4, r4, #3
 4259 0024 A7FB0474 		umull	r7, r4, r7, r4
 4260 0028 240A     		lsrs	r4, r4, #8
 4261 002a 04EB8404 		add	r4, r4, r4, lsl #2
 4262 002e 04EB8404 		add	r4, r4, r4, lsl #2
 4263 0032 0194     		str	r4, [sp, #4]
 4264 0034 02E0     		b	.L855
 4265              	.L854:
 4266 0036 AC69     		ldr	r4, [r5, #24]
 4267 0038 A707     		lsls	r7, r4, #30
 4268 003a 19D5     		bpl	.L853
 4269              	.L855:
 4270 003c 019C     		ldr	r4, [sp, #4]
 4271 003e 013C     		subs	r4, r4, #1
 4272 0040 0194     		str	r4, [sp, #4]
 4273 0042 019C     		ldr	r4, [sp, #4]
 4274 0044 002C     		cmp	r4, #0
 4275 0046 F6D1     		bne	.L854
 4276 0048 2023     		movs	r3, #32
 4277 004a 0463     		str	r4, [r0, #48]
ARM GAS  /var/folders/lp/x54gwt890xv47sdkqj1k04q40000gn/T//ccZoWwdF.s 			page 75


 4278 004c 80F83D30 		strb	r3, [r0, #61]
 4279 0050 80F83E40 		strb	r4, [r0, #62]
 4280 0054 036C     		ldr	r3, [r0, #64]
 4281 0056 80F83C40 		strb	r4, [r0, #60]
 4282 005a 43F02003 		orr	r3, r3, #32
 4283 005e 0364     		str	r3, [r0, #64]
 4284 0060 0120     		movs	r0, #1
 4285 0062 02B0     		add	sp, sp, #8
 4286              		@ sp needed
 4287 0064 F0BC     		pop	{r4, r5, r6, r7}
 4288 0066 7047     		bx	lr
 4289              	.L871:
 4290 0068 082E     		cmp	r6, #8
 4291 006a D7D0     		beq	.L852
 4292 006c 012E     		cmp	r6, #1
 4293 006e D5D0     		beq	.L852
 4294              	.L853:
 4295 0070 90F83C40 		ldrb	r4, [r0, #60]	@ zero_extendqisi2
 4296 0074 012C     		cmp	r4, #1
 4297 0076 28D0     		beq	.L856
 4298 0078 2C68     		ldr	r4, [r5]
 4299 007a E407     		lsls	r4, r4, #31
 4300 007c 29D5     		bpl	.L872
 4301              	.L857:
 4302 007e 2C68     		ldr	r4, [r5]
 4303 0080 24F40064 		bic	r4, r4, #2048
 4304 0084 2C60     		str	r4, [r5]
 4305 0086 4262     		str	r2, [r0, #36]
 4306 0088 2122     		movs	r2, #33
 4307 008a 80F83D20 		strb	r2, [r0, #61]
 4308 008e 1022     		movs	r2, #16
 4309 0090 80F83E20 		strb	r2, [r0, #62]
 4310 0094 0022     		movs	r2, #0
 4311 0096 0264     		str	r2, [r0, #64]
 4312 0098 4385     		strh	r3, [r0, #42]	@ movhi
 4313 009a 428D     		ldrh	r2, [r0, #42]
 4314 009c C662     		str	r6, [r0, #44]
 4315 009e 4164     		str	r1, [r0, #68]
 4316 00a0 036B     		ldr	r3, [r0, #48]
 4317 00a2 0093     		str	r3, [sp]
 4318 00a4 009B     		ldr	r3, [sp]
 4319 00a6 0285     		strh	r2, [r0, #40]	@ movhi
 4320 00a8 112B     		cmp	r3, #17
 4321 00aa 17D0     		beq	.L873
 4322              	.L858:
 4323 00ac 2B68     		ldr	r3, [r5]
 4324 00ae 43F48073 		orr	r3, r3, #256
 4325 00b2 2B60     		str	r3, [r5]
 4326              	.L859:
 4327 00b4 0023     		movs	r3, #0
 4328 00b6 80F83C30 		strb	r3, [r0, #60]
 4329 00ba 6A68     		ldr	r2, [r5, #4]
 4330 00bc 1846     		mov	r0, r3
 4331 00be 42F4E062 		orr	r2, r2, #1792
 4332 00c2 6A60     		str	r2, [r5, #4]
 4333 00c4 02B0     		add	sp, sp, #8
 4334              		@ sp needed
ARM GAS  /var/folders/lp/x54gwt890xv47sdkqj1k04q40000gn/T//ccZoWwdF.s 			page 76


 4335 00c6 F0BC     		pop	{r4, r5, r6, r7}
 4336 00c8 7047     		bx	lr
 4337              	.L856:
 4338 00ca 0220     		movs	r0, #2
 4339 00cc 02B0     		add	sp, sp, #8
 4340              		@ sp needed
 4341 00ce F0BC     		pop	{r4, r5, r6, r7}
 4342 00d0 7047     		bx	lr
 4343              	.L872:
 4344 00d2 2C68     		ldr	r4, [r5]
 4345 00d4 44F00104 		orr	r4, r4, #1
 4346 00d8 2C60     		str	r4, [r5]
 4347 00da D0E7     		b	.L857
 4348              	.L873:
 4349 00dc B6F52A0F 		cmp	r6, #11141120
 4350 00e0 E4D0     		beq	.L858
 4351 00e2 B6F12A4F 		cmp	r6, #-1442840576
 4352 00e6 E5D1     		bne	.L859
 4353 00e8 E0E7     		b	.L858
 4354              	.L875:
 4355 00ea 00BF     		.align	2
 4356              	.L874:
 4357 00ec 00000000 		.word	SystemCoreClock
 4358 00f0 89B5F814 		.word	351843721
 4360              		.section	.text.HAL_I2C_Master_Seq_Transmit_DMA,"ax",%progbits
 4361              		.align	1
 4362              		.p2align 2,,3
 4363              		.global	HAL_I2C_Master_Seq_Transmit_DMA
 4364              		.syntax unified
 4365              		.thumb
 4366              		.thumb_func
 4368              	HAL_I2C_Master_Seq_Transmit_DMA:
 4369              		@ args = 4, pretend = 0, frame = 8
 4370              		@ frame_needed = 0, uses_anonymous_args = 0
 4371 0000 F0B5     		push	{r4, r5, r6, r7, lr}
 4372 0002 83B0     		sub	sp, sp, #12
 4373 0004 0E46     		mov	r6, r1
 4374 0006 1146     		mov	r1, r2
 4375 0008 0022     		movs	r2, #0
 4376 000a 0092     		str	r2, [sp]
 4377 000c 0192     		str	r2, [sp, #4]
 4378 000e 90F83D20 		ldrb	r2, [r0, #61]	@ zero_extendqisi2
 4379 0012 202A     		cmp	r2, #32
 4380 0014 40F08380 		bne	.L884
 4381 0018 0768     		ldr	r7, [r0]
 4382 001a 3A68     		ldr	r2, [r7]
 4383 001c 9205     		lsls	r2, r2, #22
 4384 001e 0546     		mov	r5, r0
 4385 0020 25D5     		bpl	.L913
 4386              	.L879:
 4387 0022 624A     		ldr	r2, .L918
 4388 0024 1068     		ldr	r0, [r2]
 4389 0026 624A     		ldr	r2, .L918+4
 4390 0028 C008     		lsrs	r0, r0, #3
 4391 002a A2FB0020 		umull	r2, r0, r2, r0
 4392 002e 000A     		lsrs	r0, r0, #8
 4393 0030 00EB8000 		add	r0, r0, r0, lsl #2
ARM GAS  /var/folders/lp/x54gwt890xv47sdkqj1k04q40000gn/T//ccZoWwdF.s 			page 77


 4394 0034 00EB8000 		add	r0, r0, r0, lsl #2
 4395 0038 0190     		str	r0, [sp, #4]
 4396 003a 02E0     		b	.L883
 4397              	.L881:
 4398 003c B869     		ldr	r0, [r7, #24]
 4399 003e 8407     		lsls	r4, r0, #30
 4400 0040 1AD5     		bpl	.L880
 4401              	.L883:
 4402 0042 019C     		ldr	r4, [sp, #4]
 4403 0044 013C     		subs	r4, r4, #1
 4404 0046 0194     		str	r4, [sp, #4]
 4405 0048 0198     		ldr	r0, [sp, #4]
 4406 004a 0028     		cmp	r0, #0
 4407 004c F6D1     		bne	.L881
 4408 004e 2023     		movs	r3, #32
 4409 0050 2863     		str	r0, [r5, #48]
 4410 0052 85F83D30 		strb	r3, [r5, #61]
 4411 0056 85F83E00 		strb	r0, [r5, #62]
 4412 005a 2B6C     		ldr	r3, [r5, #64]
 4413 005c 43F02003 		orr	r3, r3, #32
 4414 0060 2B64     		str	r3, [r5, #64]
 4415              	.L882:
 4416 0062 0023     		movs	r3, #0
 4417 0064 0120     		movs	r0, #1
 4418 0066 85F83C30 		strb	r3, [r5, #60]
 4419 006a 03B0     		add	sp, sp, #12
 4420              		@ sp needed
 4421 006c F0BD     		pop	{r4, r5, r6, r7, pc}
 4422              	.L913:
 4423 006e 089A     		ldr	r2, [sp, #32]
 4424 0070 082A     		cmp	r2, #8
 4425 0072 D6D0     		beq	.L879
 4426 0074 012A     		cmp	r2, #1
 4427 0076 D4D0     		beq	.L879
 4428              	.L880:
 4429 0078 95F83C20 		ldrb	r2, [r5, #60]	@ zero_extendqisi2
 4430 007c 012A     		cmp	r2, #1
 4431 007e 4ED0     		beq	.L884
 4432 0080 0122     		movs	r2, #1
 4433 0082 85F83C20 		strb	r2, [r5, #60]
 4434 0086 3A68     		ldr	r2, [r7]
 4435 0088 D007     		lsls	r0, r2, #31
 4436 008a 4BD5     		bpl	.L914
 4437              	.L885:
 4438 008c 3A68     		ldr	r2, [r7]
 4439 008e 22F40062 		bic	r2, r2, #2048
 4440 0092 3A60     		str	r2, [r7]
 4441 0094 2122     		movs	r2, #33
 4442 0096 85F83D20 		strb	r2, [r5, #61]
 4443 009a 0024     		movs	r4, #0
 4444 009c 1022     		movs	r2, #16
 4445 009e 85F83E20 		strb	r2, [r5, #62]
 4446 00a2 2C64     		str	r4, [r5, #64]
 4447 00a4 6B85     		strh	r3, [r5, #42]	@ movhi
 4448 00a6 6B8D     		ldrh	r3, [r5, #42]
 4449 00a8 089A     		ldr	r2, [sp, #32]
 4450 00aa EA62     		str	r2, [r5, #44]
ARM GAS  /var/folders/lp/x54gwt890xv47sdkqj1k04q40000gn/T//ccZoWwdF.s 			page 78


 4451 00ac 6E64     		str	r6, [r5, #68]
 4452 00ae 2A6B     		ldr	r2, [r5, #48]
 4453 00b0 6962     		str	r1, [r5, #36]
 4454 00b2 9BB2     		uxth	r3, r3
 4455 00b4 2B85     		strh	r3, [r5, #40]	@ movhi
 4456 00b6 0092     		str	r2, [sp]
 4457 00b8 002B     		cmp	r3, #0
 4458 00ba 42D0     		beq	.L886
 4459 00bc 686B     		ldr	r0, [r5, #52]
 4460 00be 0028     		cmp	r0, #0
 4461 00c0 35D0     		beq	.L887
 4462 00c2 07F11002 		add	r2, r7, #16
 4463 00c6 3B4F     		ldr	r7, .L918+8
 4464 00c8 C763     		str	r7, [r0, #60]
 4465 00ca 3B4F     		ldr	r7, .L918+12
 4466 00cc 0464     		str	r4, [r0, #64]
 4467 00ce 0465     		str	r4, [r0, #80]
 4468 00d0 C764     		str	r7, [r0, #76]
 4469 00d2 FFF7FEFF 		bl	HAL_DMA_Start_IT
 4470 00d6 0028     		cmp	r0, #0
 4471 00d8 46D1     		bne	.L915
 4472 00da 2B68     		ldr	r3, [r5]
 4473 00dc 1A68     		ldr	r2, [r3]
 4474 00de 42F48062 		orr	r2, r2, #1024
 4475 00e2 1A60     		str	r2, [r3]
 4476 00e4 009A     		ldr	r2, [sp]
 4477 00e6 112A     		cmp	r2, #17
 4478 00e8 50D0     		beq	.L916
 4479 00ea 1A68     		ldr	r2, [r3]
 4480 00ec 42F48072 		orr	r2, r2, #256
 4481 00f0 1A60     		str	r2, [r3]
 4482              	.L893:
 4483 00f2 0899     		ldr	r1, [sp, #32]
 4484 00f4 0E1F     		subs	r6, r1, #4
 4485 00f6 0022     		movs	r2, #0
 4486 00f8 1C2E     		cmp	r6, #28
 4487 00fa 85F83C20 		strb	r2, [r5, #60]
 4488 00fe 07D8     		bhi	.L892
 4489 0100 2E4A     		ldr	r2, .L918+16
 4490 0102 F240     		lsrs	r2, r2, r6
 4491 0104 D207     		lsls	r2, r2, #31
 4492 0106 03D5     		bpl	.L892
 4493 0108 5A68     		ldr	r2, [r3, #4]
 4494 010a 42F40062 		orr	r2, r2, #2048
 4495 010e 5A60     		str	r2, [r3, #4]
 4496              	.L892:
 4497 0110 5A68     		ldr	r2, [r3, #4]
 4498 0112 42F44072 		orr	r2, r2, #768
 4499 0116 5A60     		str	r2, [r3, #4]
 4500              	.L894:
 4501 0118 0020     		movs	r0, #0
 4502 011a 03B0     		add	sp, sp, #12
 4503              		@ sp needed
 4504 011c F0BD     		pop	{r4, r5, r6, r7, pc}
 4505              	.L884:
 4506 011e 0220     		movs	r0, #2
 4507 0120 03B0     		add	sp, sp, #12
ARM GAS  /var/folders/lp/x54gwt890xv47sdkqj1k04q40000gn/T//ccZoWwdF.s 			page 79


 4508              		@ sp needed
 4509 0122 F0BD     		pop	{r4, r5, r6, r7, pc}
 4510              	.L914:
 4511 0124 3A68     		ldr	r2, [r7]
 4512 0126 42F00102 		orr	r2, r2, #1
 4513 012a 3A60     		str	r2, [r7]
 4514 012c AEE7     		b	.L885
 4515              	.L887:
 4516 012e 2023     		movs	r3, #32
 4517 0130 85F83D30 		strb	r3, [r5, #61]
 4518 0134 85F83E00 		strb	r0, [r5, #62]
 4519 0138 2B6C     		ldr	r3, [r5, #64]
 4520 013a 43F08003 		orr	r3, r3, #128
 4521 013e 2B64     		str	r3, [r5, #64]
 4522 0140 8FE7     		b	.L882
 4523              	.L886:
 4524 0142 3B68     		ldr	r3, [r7]
 4525 0144 43F48063 		orr	r3, r3, #1024
 4526 0148 3B60     		str	r3, [r7]
 4527 014a 009B     		ldr	r3, [sp]
 4528 014c 112B     		cmp	r3, #17
 4529 014e 15D0     		beq	.L917
 4530              	.L895:
 4531 0150 3B68     		ldr	r3, [r7]
 4532 0152 43F48073 		orr	r3, r3, #256
 4533 0156 3B60     		str	r3, [r7]
 4534              	.L896:
 4535 0158 0023     		movs	r3, #0
 4536 015a 85F83C30 		strb	r3, [r5, #60]
 4537 015e 7B68     		ldr	r3, [r7, #4]
 4538 0160 43F4E063 		orr	r3, r3, #1792
 4539 0164 7B60     		str	r3, [r7, #4]
 4540 0166 D7E7     		b	.L894
 4541              	.L915:
 4542 0168 2023     		movs	r3, #32
 4543 016a 85F83D30 		strb	r3, [r5, #61]
 4544 016e 85F83E40 		strb	r4, [r5, #62]
 4545 0172 2B6C     		ldr	r3, [r5, #64]
 4546 0174 43F01003 		orr	r3, r3, #16
 4547 0178 2B64     		str	r3, [r5, #64]
 4548 017a 72E7     		b	.L882
 4549              	.L917:
 4550 017c 089B     		ldr	r3, [sp, #32]
 4551 017e B3F52A0F 		cmp	r3, #11141120
 4552 0182 E5D0     		beq	.L895
 4553 0184 B3F12A4F 		cmp	r3, #-1442840576
 4554 0188 E6D1     		bne	.L896
 4555 018a E1E7     		b	.L895
 4556              	.L916:
 4557 018c 089A     		ldr	r2, [sp, #32]
 4558 018e B2F52A0F 		cmp	r2, #11141120
 4559 0192 03D0     		beq	.L912
 4560 0194 089A     		ldr	r2, [sp, #32]
 4561 0196 B2F12A4F 		cmp	r2, #-1442840576
 4562 019a AAD1     		bne	.L893
 4563              	.L912:
 4564 019c 1A68     		ldr	r2, [r3]
ARM GAS  /var/folders/lp/x54gwt890xv47sdkqj1k04q40000gn/T//ccZoWwdF.s 			page 80


 4565 019e 42F48072 		orr	r2, r2, #256
 4566 01a2 1A60     		str	r2, [r3]
 4567 01a4 85F83C00 		strb	r0, [r5, #60]
 4568 01a8 B2E7     		b	.L892
 4569              	.L919:
 4570 01aa 00BF     		.align	2
 4571              	.L918:
 4572 01ac 00000000 		.word	SystemCoreClock
 4573 01b0 89B5F814 		.word	351843721
 4574 01b4 00000000 		.word	I2C_DMAXferCplt
 4575 01b8 00000000 		.word	I2C_DMAError
 4576 01bc 01100010 		.word	268439553
 4578              		.section	.text.HAL_I2C_Master_Seq_Receive_IT,"ax",%progbits
 4579              		.align	1
 4580              		.p2align 2,,3
 4581              		.global	HAL_I2C_Master_Seq_Receive_IT
 4582              		.syntax unified
 4583              		.thumb
 4584              		.thumb_func
 4586              	HAL_I2C_Master_Seq_Receive_IT:
 4587              		@ args = 4, pretend = 0, frame = 8
 4588              		@ frame_needed = 0, uses_anonymous_args = 0
 4589              		@ link register save eliminated.
 4590 0000 F0B4     		push	{r4, r5, r6, r7}
 4591 0002 82B0     		sub	sp, sp, #8
 4592 0004 0024     		movs	r4, #0
 4593 0006 0094     		str	r4, [sp]
 4594 0008 0194     		str	r4, [sp, #4]
 4595 000a 90F83D40 		ldrb	r4, [r0, #61]	@ zero_extendqisi2
 4596 000e 069E     		ldr	r6, [sp, #24]
 4597 0010 202C     		cmp	r4, #32
 4598 0012 66D1     		bne	.L927
 4599 0014 0568     		ldr	r5, [r0]
 4600 0016 2C68     		ldr	r4, [r5]
 4601 0018 A405     		lsls	r4, r4, #22
 4602 001a 25D5     		bpl	.L954
 4603              	.L923:
 4604 001c 484C     		ldr	r4, .L959
 4605 001e 494F     		ldr	r7, .L959+4
 4606 0020 2468     		ldr	r4, [r4]
 4607 0022 E408     		lsrs	r4, r4, #3
 4608 0024 A7FB0474 		umull	r7, r4, r7, r4
 4609 0028 240A     		lsrs	r4, r4, #8
 4610 002a 04EB8404 		add	r4, r4, r4, lsl #2
 4611 002e 04EB8404 		add	r4, r4, r4, lsl #2
 4612 0032 0194     		str	r4, [sp, #4]
 4613 0034 02E0     		b	.L926
 4614              	.L925:
 4615 0036 AC69     		ldr	r4, [r5, #24]
 4616 0038 A707     		lsls	r7, r4, #30
 4617 003a 19D5     		bpl	.L924
 4618              	.L926:
 4619 003c 019C     		ldr	r4, [sp, #4]
 4620 003e 013C     		subs	r4, r4, #1
 4621 0040 0194     		str	r4, [sp, #4]
 4622 0042 019C     		ldr	r4, [sp, #4]
 4623 0044 002C     		cmp	r4, #0
ARM GAS  /var/folders/lp/x54gwt890xv47sdkqj1k04q40000gn/T//ccZoWwdF.s 			page 81


 4624 0046 F6D1     		bne	.L925
 4625 0048 2023     		movs	r3, #32
 4626 004a 0463     		str	r4, [r0, #48]
 4627 004c 80F83D30 		strb	r3, [r0, #61]
 4628 0050 80F83E40 		strb	r4, [r0, #62]
 4629 0054 036C     		ldr	r3, [r0, #64]
 4630 0056 80F83C40 		strb	r4, [r0, #60]
 4631 005a 43F02003 		orr	r3, r3, #32
 4632 005e 0364     		str	r3, [r0, #64]
 4633 0060 0120     		movs	r0, #1
 4634 0062 02B0     		add	sp, sp, #8
 4635              		@ sp needed
 4636 0064 F0BC     		pop	{r4, r5, r6, r7}
 4637 0066 7047     		bx	lr
 4638              	.L954:
 4639 0068 082E     		cmp	r6, #8
 4640 006a D7D0     		beq	.L923
 4641 006c 012E     		cmp	r6, #1
 4642 006e D5D0     		beq	.L923
 4643              	.L924:
 4644 0070 90F83C40 		ldrb	r4, [r0, #60]	@ zero_extendqisi2
 4645 0074 012C     		cmp	r4, #1
 4646 0076 34D0     		beq	.L927
 4647 0078 0124     		movs	r4, #1
 4648 007a 80F83C40 		strb	r4, [r0, #60]
 4649 007e 2C68     		ldr	r4, [r5]
 4650 0080 E407     		lsls	r4, r4, #31
 4651 0082 32D5     		bpl	.L955
 4652              	.L928:
 4653 0084 2C68     		ldr	r4, [r5]
 4654 0086 24F40064 		bic	r4, r4, #2048
 4655 008a 2C60     		str	r4, [r5]
 4656 008c 4262     		str	r2, [r0, #36]
 4657 008e 2222     		movs	r2, #34
 4658 0090 80F83D20 		strb	r2, [r0, #61]
 4659 0094 1022     		movs	r2, #16
 4660 0096 80F83E20 		strb	r2, [r0, #62]
 4661 009a 0022     		movs	r2, #0
 4662 009c 0264     		str	r2, [r0, #64]
 4663 009e 4385     		strh	r3, [r0, #42]	@ movhi
 4664 00a0 428D     		ldrh	r2, [r0, #42]
 4665 00a2 C662     		str	r6, [r0, #44]
 4666 00a4 4164     		str	r1, [r0, #68]
 4667 00a6 036B     		ldr	r3, [r0, #48]
 4668 00a8 0093     		str	r3, [sp]
 4669 00aa 438D     		ldrh	r3, [r0, #42]
 4670 00ac 0285     		strh	r2, [r0, #40]	@ movhi
 4671 00ae 9BB2     		uxth	r3, r3
 4672 00b0 022B     		cmp	r3, #2
 4673 00b2 26D0     		beq	.L956
 4674              	.L929:
 4675 00b4 2B68     		ldr	r3, [r5]
 4676 00b6 43F48063 		orr	r3, r3, #1024
 4677 00ba 2B60     		str	r3, [r5]
 4678 00bc 009B     		ldr	r3, [sp]
 4679 00be 122B     		cmp	r3, #18
 4680 00c0 18D0     		beq	.L957
ARM GAS  /var/folders/lp/x54gwt890xv47sdkqj1k04q40000gn/T//ccZoWwdF.s 			page 82


 4681              	.L934:
 4682 00c2 4FF4E061 		mov	r1, #1792
 4683              	.L932:
 4684 00c6 2B68     		ldr	r3, [r5]
 4685 00c8 43F48073 		orr	r3, r3, #256
 4686 00cc 2B60     		str	r3, [r5]
 4687              	.L933:
 4688 00ce 0023     		movs	r3, #0
 4689 00d0 80F83C30 		strb	r3, [r0, #60]
 4690 00d4 6A68     		ldr	r2, [r5, #4]
 4691 00d6 1846     		mov	r0, r3
 4692 00d8 0A43     		orrs	r2, r2, r1
 4693 00da 6A60     		str	r2, [r5, #4]
 4694 00dc 02B0     		add	sp, sp, #8
 4695              		@ sp needed
 4696 00de F0BC     		pop	{r4, r5, r6, r7}
 4697 00e0 7047     		bx	lr
 4698              	.L927:
 4699 00e2 0220     		movs	r0, #2
 4700 00e4 02B0     		add	sp, sp, #8
 4701              		@ sp needed
 4702 00e6 F0BC     		pop	{r4, r5, r6, r7}
 4703 00e8 7047     		bx	lr
 4704              	.L955:
 4705 00ea 2C68     		ldr	r4, [r5]
 4706 00ec 44F00104 		orr	r4, r4, #1
 4707 00f0 2C60     		str	r4, [r5]
 4708 00f2 C7E7     		b	.L928
 4709              	.L957:
 4710 00f4 B6F52A0F 		cmp	r6, #11141120
 4711 00f8 E3D0     		beq	.L934
 4712 00fa B6F12A4F 		cmp	r6, #-1442840576
 4713 00fe 0ED1     		bne	.L935
 4714 0100 DFE7     		b	.L934
 4715              	.L956:
 4716 0102 202E     		cmp	r6, #32
 4717 0104 01D0     		beq	.L930
 4718 0106 102E     		cmp	r6, #16
 4719 0108 D4D1     		bne	.L929
 4720              	.L930:
 4721 010a 009B     		ldr	r3, [sp]
 4722 010c 122B     		cmp	r3, #18
 4723 010e 2B68     		ldr	r3, [r5]
 4724 0110 08D0     		beq	.L958
 4725 0112 43F48063 		orr	r3, r3, #1024
 4726 0116 2B60     		str	r3, [r5]
 4727 0118 009B     		ldr	r3, [sp]
 4728 011a 122B     		cmp	r3, #18
 4729 011c D1D1     		bne	.L934
 4730              	.L935:
 4731 011e 4FF4E061 		mov	r1, #1792
 4732 0122 D4E7     		b	.L933
 4733              	.L958:
 4734 0124 23F48063 		bic	r3, r3, #1024
 4735 0128 2B60     		str	r3, [r5]
 4736 012a 2B68     		ldr	r3, [r5]
 4737 012c 43F40063 		orr	r3, r3, #2048
ARM GAS  /var/folders/lp/x54gwt890xv47sdkqj1k04q40000gn/T//ccZoWwdF.s 			page 83


 4738 0130 2B60     		str	r3, [r5]
 4739 0132 009B     		ldr	r3, [sp]
 4740 0134 122B     		cmp	r3, #18
 4741 0136 4FF44071 		mov	r1, #768
 4742 013a C4D1     		bne	.L932
 4743 013c C7E7     		b	.L933
 4744              	.L960:
 4745 013e 00BF     		.align	2
 4746              	.L959:
 4747 0140 00000000 		.word	SystemCoreClock
 4748 0144 89B5F814 		.word	351843721
 4750              		.section	.text.HAL_I2C_Master_Seq_Receive_DMA,"ax",%progbits
 4751              		.align	1
 4752              		.p2align 2,,3
 4753              		.global	HAL_I2C_Master_Seq_Receive_DMA
 4754              		.syntax unified
 4755              		.thumb
 4756              		.thumb_func
 4758              	HAL_I2C_Master_Seq_Receive_DMA:
 4759              		@ args = 4, pretend = 0, frame = 8
 4760              		@ frame_needed = 0, uses_anonymous_args = 0
 4761 0000 F0B5     		push	{r4, r5, r6, r7, lr}
 4762 0002 83B0     		sub	sp, sp, #12
 4763 0004 0546     		mov	r5, r0
 4764 0006 0020     		movs	r0, #0
 4765 0008 0090     		str	r0, [sp]
 4766 000a 0190     		str	r0, [sp, #4]
 4767 000c 95F83D00 		ldrb	r0, [r5, #61]	@ zero_extendqisi2
 4768 0010 089F     		ldr	r7, [sp, #32]
 4769 0012 2028     		cmp	r0, #32
 4770 0014 40F09480 		bne	.L965
 4771 0018 2E68     		ldr	r6, [r5]
 4772 001a 3068     		ldr	r0, [r6]
 4773 001c 8005     		lsls	r0, r0, #22
 4774 001e 25D5     		bpl	.L1028
 4775              	.L964:
 4776 0020 7C48     		ldr	r0, .L1035
 4777 0022 7D4C     		ldr	r4, .L1035+4
 4778 0024 0068     		ldr	r0, [r0]
 4779 0026 C008     		lsrs	r0, r0, #3
 4780 0028 A4FB0040 		umull	r4, r0, r4, r0
 4781 002c 000A     		lsrs	r0, r0, #8
 4782 002e 00EB8000 		add	r0, r0, r0, lsl #2
 4783 0032 00EB8000 		add	r0, r0, r0, lsl #2
 4784 0036 0190     		str	r0, [sp, #4]
 4785 0038 02E0     		b	.L969
 4786              	.L967:
 4787 003a B069     		ldr	r0, [r6, #24]
 4788 003c 8407     		lsls	r4, r0, #30
 4789 003e 19D5     		bpl	.L970
 4790              	.L969:
 4791 0040 019C     		ldr	r4, [sp, #4]
 4792 0042 013C     		subs	r4, r4, #1
 4793 0044 0194     		str	r4, [sp, #4]
 4794 0046 0198     		ldr	r0, [sp, #4]
 4795 0048 0028     		cmp	r0, #0
 4796 004a F6D1     		bne	.L967
ARM GAS  /var/folders/lp/x54gwt890xv47sdkqj1k04q40000gn/T//ccZoWwdF.s 			page 84


 4797 004c 2023     		movs	r3, #32
 4798 004e 2863     		str	r0, [r5, #48]
 4799 0050 85F83D30 		strb	r3, [r5, #61]
 4800 0054 85F83E00 		strb	r0, [r5, #62]
 4801 0058 2B6C     		ldr	r3, [r5, #64]
 4802 005a 43F02003 		orr	r3, r3, #32
 4803 005e 2B64     		str	r3, [r5, #64]
 4804              	.L968:
 4805 0060 0023     		movs	r3, #0
 4806 0062 0120     		movs	r0, #1
 4807 0064 85F83C30 		strb	r3, [r5, #60]
 4808 0068 03B0     		add	sp, sp, #12
 4809              		@ sp needed
 4810 006a F0BD     		pop	{r4, r5, r6, r7, pc}
 4811              	.L1028:
 4812 006c 082F     		cmp	r7, #8
 4813 006e D7D0     		beq	.L964
 4814 0070 012F     		cmp	r7, #1
 4815 0072 D5D0     		beq	.L964
 4816              	.L970:
 4817 0074 95F83C00 		ldrb	r0, [r5, #60]	@ zero_extendqisi2
 4818 0078 0128     		cmp	r0, #1
 4819 007a 61D0     		beq	.L965
 4820 007c 0120     		movs	r0, #1
 4821 007e 85F83C00 		strb	r0, [r5, #60]
 4822 0082 3068     		ldr	r0, [r6]
 4823 0084 C007     		lsls	r0, r0, #31
 4824 0086 5ED5     		bpl	.L1029
 4825              	.L971:
 4826 0088 3068     		ldr	r0, [r6]
 4827 008a 20F40060 		bic	r0, r0, #2048
 4828 008e 3060     		str	r0, [r6]
 4829 0090 7068     		ldr	r0, [r6, #4]
 4830 0092 20F48050 		bic	r0, r0, #4096
 4831 0096 7060     		str	r0, [r6, #4]
 4832 0098 2220     		movs	r0, #34
 4833 009a 85F83D00 		strb	r0, [r5, #61]
 4834 009e 1020     		movs	r0, #16
 4835 00a0 85F83E00 		strb	r0, [r5, #62]
 4836 00a4 0020     		movs	r0, #0
 4837 00a6 2864     		str	r0, [r5, #64]
 4838 00a8 6B85     		strh	r3, [r5, #42]	@ movhi
 4839 00aa 6B8D     		ldrh	r3, [r5, #42]
 4840 00ac EF62     		str	r7, [r5, #44]
 4841 00ae 6964     		str	r1, [r5, #68]
 4842 00b0 296B     		ldr	r1, [r5, #48]
 4843 00b2 6A62     		str	r2, [r5, #36]
 4844 00b4 9BB2     		uxth	r3, r3
 4845 00b6 2B85     		strh	r3, [r5, #40]	@ movhi
 4846 00b8 0091     		str	r1, [sp]
 4847 00ba 002B     		cmp	r3, #0
 4848 00bc 54D0     		beq	.L972
 4849 00be 698D     		ldrh	r1, [r5, #42]
 4850 00c0 89B2     		uxth	r1, r1
 4851 00c2 0229     		cmp	r1, #2
 4852 00c4 44D0     		beq	.L1030
 4853 00c6 3168     		ldr	r1, [r6]
ARM GAS  /var/folders/lp/x54gwt890xv47sdkqj1k04q40000gn/T//ccZoWwdF.s 			page 85


 4854 00c8 202F     		cmp	r7, #32
 4855 00ca 41F48061 		orr	r1, r1, #1024
 4856 00ce 3160     		str	r1, [r6]
 4857 00d0 04D0     		beq	.L978
 4858 00d2 B7F12A4F 		cmp	r7, #-1442840576
 4859 00d6 01D0     		beq	.L978
 4860 00d8 102F     		cmp	r7, #16
 4861 00da 03D1     		bne	.L977
 4862              	.L978:
 4863 00dc 7168     		ldr	r1, [r6, #4]
 4864 00de 41F48051 		orr	r1, r1, #4096
 4865 00e2 7160     		str	r1, [r6, #4]
 4866              	.L977:
 4867 00e4 A86B     		ldr	r0, [r5, #56]
 4868 00e6 0028     		cmp	r0, #0
 4869 00e8 5BD0     		beq	.L980
 4870 00ea 06F11001 		add	r1, r6, #16
 4871 00ee 4B4E     		ldr	r6, .L1035+8
 4872 00f0 C663     		str	r6, [r0, #60]
 4873 00f2 0024     		movs	r4, #0
 4874 00f4 4A4E     		ldr	r6, .L1035+12
 4875 00f6 0464     		str	r4, [r0, #64]
 4876 00f8 0465     		str	r4, [r0, #80]
 4877 00fa C664     		str	r6, [r0, #76]
 4878 00fc FFF7FEFF 		bl	HAL_DMA_Start_IT
 4879 0100 0028     		cmp	r0, #0
 4880 0102 44D1     		bne	.L1031
 4881 0104 009A     		ldr	r2, [sp]
 4882 0106 2B68     		ldr	r3, [r5]
 4883 0108 122A     		cmp	r2, #18
 4884 010a 63D0     		beq	.L1032
 4885 010c 1A68     		ldr	r2, [r3]
 4886 010e 42F48072 		orr	r2, r2, #256
 4887 0112 4FF44071 		mov	r1, #768
 4888 0116 1A60     		str	r2, [r3]
 4889              	.L986:
 4890 0118 043F     		subs	r7, r7, #4
 4891 011a 0022     		movs	r2, #0
 4892 011c 1C2F     		cmp	r7, #28
 4893 011e 85F83C20 		strb	r2, [r5, #60]
 4894 0122 07D8     		bhi	.L985
 4895 0124 3F4A     		ldr	r2, .L1035+16
 4896 0126 FA40     		lsrs	r2, r2, r7
 4897 0128 D207     		lsls	r2, r2, #31
 4898 012a 03D5     		bpl	.L985
 4899 012c 5A68     		ldr	r2, [r3, #4]
 4900 012e 42F40062 		orr	r2, r2, #2048
 4901 0132 5A60     		str	r2, [r3, #4]
 4902              	.L985:
 4903 0134 5A68     		ldr	r2, [r3, #4]
 4904 0136 0A43     		orrs	r2, r2, r1
 4905 0138 5A60     		str	r2, [r3, #4]
 4906              	.L989:
 4907 013a 0020     		movs	r0, #0
 4908 013c 03B0     		add	sp, sp, #12
 4909              		@ sp needed
 4910 013e F0BD     		pop	{r4, r5, r6, r7, pc}
ARM GAS  /var/folders/lp/x54gwt890xv47sdkqj1k04q40000gn/T//ccZoWwdF.s 			page 86


 4911              	.L965:
 4912 0140 0220     		movs	r0, #2
 4913 0142 03B0     		add	sp, sp, #12
 4914              		@ sp needed
 4915 0144 F0BD     		pop	{r4, r5, r6, r7, pc}
 4916              	.L1029:
 4917 0146 3068     		ldr	r0, [r6]
 4918 0148 40F00100 		orr	r0, r0, #1
 4919 014c 3060     		str	r0, [r6]
 4920 014e 9BE7     		b	.L971
 4921              	.L1030:
 4922 0150 202F     		cmp	r7, #32
 4923 0152 30D0     		beq	.L974
 4924 0154 102F     		cmp	r7, #16
 4925 0156 2ED0     		beq	.L974
 4926 0158 3168     		ldr	r1, [r6]
 4927 015a B7F12A4F 		cmp	r7, #-1442840576
 4928 015e 41F48061 		orr	r1, r1, #1024
 4929 0162 3160     		str	r1, [r6]
 4930 0164 BED1     		bne	.L977
 4931 0166 B9E7     		b	.L978
 4932              	.L972:
 4933 0168 3368     		ldr	r3, [r6]
 4934 016a 43F48063 		orr	r3, r3, #1024
 4935 016e 3360     		str	r3, [r6]
 4936 0170 009B     		ldr	r3, [sp]
 4937 0172 122B     		cmp	r3, #18
 4938 0174 27D0     		beq	.L1033
 4939              	.L990:
 4940 0176 3368     		ldr	r3, [r6]
 4941 0178 43F48073 		orr	r3, r3, #256
 4942 017c 3360     		str	r3, [r6]
 4943              	.L991:
 4944 017e 0023     		movs	r3, #0
 4945 0180 85F83C30 		strb	r3, [r5, #60]
 4946 0184 7368     		ldr	r3, [r6, #4]
 4947 0186 43F4E063 		orr	r3, r3, #1792
 4948 018a 7360     		str	r3, [r6, #4]
 4949 018c D5E7     		b	.L989
 4950              	.L1031:
 4951 018e 2023     		movs	r3, #32
 4952 0190 85F83D30 		strb	r3, [r5, #61]
 4953 0194 85F83E40 		strb	r4, [r5, #62]
 4954 0198 2B6C     		ldr	r3, [r5, #64]
 4955 019a 43F01003 		orr	r3, r3, #16
 4956 019e 2B64     		str	r3, [r5, #64]
 4957 01a0 5EE7     		b	.L968
 4958              	.L980:
 4959 01a2 2023     		movs	r3, #32
 4960 01a4 85F83D30 		strb	r3, [r5, #61]
 4961 01a8 85F83E00 		strb	r0, [r5, #62]
 4962 01ac 2B6C     		ldr	r3, [r5, #64]
 4963 01ae 43F08003 		orr	r3, r3, #128
 4964 01b2 2B64     		str	r3, [r5, #64]
 4965 01b4 54E7     		b	.L968
 4966              	.L974:
 4967 01b6 0099     		ldr	r1, [sp]
ARM GAS  /var/folders/lp/x54gwt890xv47sdkqj1k04q40000gn/T//ccZoWwdF.s 			page 87


 4968 01b8 1229     		cmp	r1, #18
 4969 01ba 3168     		ldr	r1, [r6]
 4970 01bc 13D0     		beq	.L1034
 4971 01be 41F48061 		orr	r1, r1, #1024
 4972 01c2 3160     		str	r1, [r6]
 4973 01c4 8EE7     		b	.L977
 4974              	.L1033:
 4975 01c6 B7F52A0F 		cmp	r7, #11141120
 4976 01ca D4D0     		beq	.L990
 4977 01cc B7F12A4F 		cmp	r7, #-1442840576
 4978 01d0 D5D1     		bne	.L991
 4979 01d2 D0E7     		b	.L990
 4980              	.L1032:
 4981 01d4 B7F52A0F 		cmp	r7, #11141120
 4982 01d8 11D0     		beq	.L1027
 4983 01da B7F12A4F 		cmp	r7, #-1442840576
 4984 01de 0ED0     		beq	.L1027
 4985 01e0 4FF48071 		mov	r1, #256
 4986 01e4 98E7     		b	.L986
 4987              	.L1034:
 4988 01e6 21F48061 		bic	r1, r1, #1024
 4989 01ea 3160     		str	r1, [r6]
 4990 01ec 3168     		ldr	r1, [r6]
 4991 01ee 41F40061 		orr	r1, r1, #2048
 4992 01f2 3160     		str	r1, [r6]
 4993 01f4 7168     		ldr	r1, [r6, #4]
 4994 01f6 41F48051 		orr	r1, r1, #4096
 4995 01fa 7160     		str	r1, [r6, #4]
 4996 01fc 72E7     		b	.L977
 4997              	.L1027:
 4998 01fe 1A68     		ldr	r2, [r3]
 4999 0200 42F48072 		orr	r2, r2, #256
 5000 0204 1A60     		str	r2, [r3]
 5001 0206 0022     		movs	r2, #0
 5002 0208 85F83C20 		strb	r2, [r5, #60]
 5003 020c 4FF44071 		mov	r1, #768
 5004 0210 90E7     		b	.L985
 5005              	.L1036:
 5006 0212 00BF     		.align	2
 5007              	.L1035:
 5008 0214 00000000 		.word	SystemCoreClock
 5009 0218 89B5F814 		.word	351843721
 5010 021c 00000000 		.word	I2C_DMAXferCplt
 5011 0220 00000000 		.word	I2C_DMAError
 5012 0224 01100010 		.word	268439553
 5014              		.section	.text.HAL_I2C_Slave_Seq_Transmit_IT,"ax",%progbits
 5015              		.align	1
 5016              		.p2align 2,,3
 5017              		.global	HAL_I2C_Slave_Seq_Transmit_IT
 5018              		.syntax unified
 5019              		.thumb
 5020              		.thumb_func
 5022              	HAL_I2C_Slave_Seq_Transmit_IT:
 5023              		@ args = 0, pretend = 0, frame = 8
 5024              		@ frame_needed = 0, uses_anonymous_args = 0
 5025              		@ link register save eliminated.
 5026 0000 90F83DC0 		ldrb	ip, [r0, #61]	@ zero_extendqisi2
ARM GAS  /var/folders/lp/x54gwt890xv47sdkqj1k04q40000gn/T//ccZoWwdF.s 			page 88


 5027 0004 0CF0280C 		and	ip, ip, #40
 5028 0008 BCF1280F 		cmp	ip, #40
 5029 000c 30D1     		bne	.L1040
 5030 000e 0029     		cmp	r1, #0
 5031 0010 2CD0     		beq	.L1042
 5032 0012 002A     		cmp	r2, #0
 5033 0014 2AD0     		beq	.L1042
 5034 0016 30B4     		push	{r4, r5}
 5035 0018 90F83C40 		ldrb	r4, [r0, #60]	@ zero_extendqisi2
 5036 001c 012C     		cmp	r4, #1
 5037 001e 82B0     		sub	sp, sp, #8
 5038 0020 2DD0     		beq	.L1043
 5039 0022 0468     		ldr	r4, [r0]
 5040 0024 2568     		ldr	r5, [r4]
 5041 0026 ED07     		lsls	r5, r5, #31
 5042 0028 24D5     		bpl	.L1048
 5043              	.L1039:
 5044 002a 2568     		ldr	r5, [r4]
 5045 002c 25F40065 		bic	r5, r5, #2048
 5046 0030 2560     		str	r5, [r4]
 5047 0032 2925     		movs	r5, #41
 5048 0034 80F83D50 		strb	r5, [r0, #61]
 5049 0038 4162     		str	r1, [r0, #36]
 5050 003a 2025     		movs	r5, #32
 5051 003c 0021     		movs	r1, #0
 5052 003e 80F83E50 		strb	r5, [r0, #62]
 5053 0042 0164     		str	r1, [r0, #64]
 5054 0044 4285     		strh	r2, [r0, #42]	@ movhi
 5055 0046 428D     		ldrh	r2, [r0, #42]
 5056 0048 C362     		str	r3, [r0, #44]
 5057 004a 0191     		str	r1, [sp, #4]
 5058 004c 6369     		ldr	r3, [r4, #20]
 5059 004e 0193     		str	r3, [sp, #4]
 5060 0050 A369     		ldr	r3, [r4, #24]
 5061 0052 0193     		str	r3, [sp, #4]
 5062 0054 80F83C10 		strb	r1, [r0, #60]
 5063 0058 019B     		ldr	r3, [sp, #4]
 5064 005a 6368     		ldr	r3, [r4, #4]
 5065 005c 0285     		strh	r2, [r0, #40]	@ movhi
 5066 005e 43F4E063 		orr	r3, r3, #1792
 5067 0062 6360     		str	r3, [r4, #4]
 5068 0064 0846     		mov	r0, r1
 5069              	.L1038:
 5070 0066 02B0     		add	sp, sp, #8
 5071              		@ sp needed
 5072 0068 30BC     		pop	{r4, r5}
 5073 006a 7047     		bx	lr
 5074              	.L1042:
 5075 006c 0120     		movs	r0, #1
 5076 006e 7047     		bx	lr
 5077              	.L1040:
 5078 0070 0220     		movs	r0, #2
 5079 0072 7047     		bx	lr
 5080              	.L1048:
 5081 0074 2568     		ldr	r5, [r4]
 5082 0076 45F00105 		orr	r5, r5, #1
 5083 007a 2560     		str	r5, [r4]
ARM GAS  /var/folders/lp/x54gwt890xv47sdkqj1k04q40000gn/T//ccZoWwdF.s 			page 89


 5084 007c D5E7     		b	.L1039
 5085              	.L1043:
 5086 007e 0220     		movs	r0, #2
 5087 0080 F1E7     		b	.L1038
 5089 0082 00BF     		.section	.text.HAL_I2C_Slave_Seq_Transmit_DMA,"ax",%progbits
 5090              		.align	1
 5091              		.p2align 2,,3
 5092              		.global	HAL_I2C_Slave_Seq_Transmit_DMA
 5093              		.syntax unified
 5094              		.thumb
 5095              		.thumb_func
 5097              	HAL_I2C_Slave_Seq_Transmit_DMA:
 5098              		@ args = 0, pretend = 0, frame = 24
 5099              		@ frame_needed = 0, uses_anonymous_args = 0
 5100 0000 F0B5     		push	{r4, r5, r6, r7, lr}
 5101 0002 0446     		mov	r4, r0
 5102 0004 90F83D00 		ldrb	r0, [r0, #61]	@ zero_extendqisi2
 5103 0008 00F02800 		and	r0, r0, #40
 5104 000c 2828     		cmp	r0, #40
 5105 000e 87B0     		sub	sp, sp, #28
 5106 0010 51D1     		bne	.L1063
 5107 0012 0029     		cmp	r1, #0
 5108 0014 5CD0     		beq	.L1051
 5109 0016 002A     		cmp	r2, #0
 5110 0018 5AD0     		beq	.L1051
 5111 001a 94F83C00 		ldrb	r0, [r4, #60]	@ zero_extendqisi2
 5112 001e 0128     		cmp	r0, #1
 5113 0020 49D0     		beq	.L1063
 5114 0022 2568     		ldr	r5, [r4]
 5115 0024 0120     		movs	r0, #1
 5116 0026 84F83C00 		strb	r0, [r4, #60]
 5117 002a 6868     		ldr	r0, [r5, #4]
 5118 002c 20F44070 		bic	r0, r0, #768
 5119 0030 6860     		str	r0, [r5, #4]
 5120 0032 94F83D00 		ldrb	r0, [r4, #61]	@ zero_extendqisi2
 5121 0036 2A28     		cmp	r0, #42
 5122 0038 72D0     		beq	.L1080
 5123 003a 94F83D60 		ldrb	r6, [r4, #61]	@ zero_extendqisi2
 5124 003e 606B     		ldr	r0, [r4, #52]
 5125 0040 292E     		cmp	r6, #41
 5126 0042 4CD0     		beq	.L1081
 5127              	.L1054:
 5128 0044 2E68     		ldr	r6, [r5]
 5129 0046 F607     		lsls	r6, r6, #31
 5130 0048 44D5     		bpl	.L1082
 5131              	.L1058:
 5132 004a 2E68     		ldr	r6, [r5]
 5133 004c 26F40066 		bic	r6, r6, #2048
 5134 0050 2E60     		str	r6, [r5]
 5135 0052 2926     		movs	r6, #41
 5136 0054 84F83D60 		strb	r6, [r4, #61]
 5137 0058 2027     		movs	r7, #32
 5138 005a 0026     		movs	r6, #0
 5139 005c 84F83E70 		strb	r7, [r4, #62]
 5140 0060 2664     		str	r6, [r4, #64]
 5141 0062 6285     		strh	r2, [r4, #42]	@ movhi
 5142 0064 628D     		ldrh	r2, [r4, #42]
ARM GAS  /var/folders/lp/x54gwt890xv47sdkqj1k04q40000gn/T//ccZoWwdF.s 			page 90


 5143 0066 E362     		str	r3, [r4, #44]
 5144 0068 93B2     		uxth	r3, r2
 5145 006a 6162     		str	r1, [r4, #36]
 5146 006c 2385     		strh	r3, [r4, #40]	@ movhi
 5147 006e 0028     		cmp	r0, #0
 5148 0070 79D0     		beq	.L1059
 5149 0072 05F11002 		add	r2, r5, #16
 5150 0076 424D     		ldr	r5, .L1084
 5151 0078 C563     		str	r5, [r0, #60]
 5152 007a 424D     		ldr	r5, .L1084+4
 5153 007c 0664     		str	r6, [r0, #64]
 5154 007e 0665     		str	r6, [r0, #80]
 5155 0080 C564     		str	r5, [r0, #76]
 5156 0082 FFF7FEFF 		bl	HAL_DMA_Start_IT
 5157 0086 C8B9     		cbnz	r0, .L1083
 5158 0088 2368     		ldr	r3, [r4]
 5159 008a 1A68     		ldr	r2, [r3]
 5160 008c 42F48062 		orr	r2, r2, #1024
 5161 0090 1A60     		str	r2, [r3]
 5162 0092 0590     		str	r0, [sp, #20]
 5163 0094 5A69     		ldr	r2, [r3, #20]
 5164 0096 0592     		str	r2, [sp, #20]
 5165 0098 9A69     		ldr	r2, [r3, #24]
 5166 009a 0592     		str	r2, [sp, #20]
 5167 009c 84F83C00 		strb	r0, [r4, #60]
 5168 00a0 059A     		ldr	r2, [sp, #20]
 5169 00a2 5A68     		ldr	r2, [r3, #4]
 5170 00a4 42F44072 		orr	r2, r2, #768
 5171 00a8 5A60     		str	r2, [r3, #4]
 5172 00aa 5A68     		ldr	r2, [r3, #4]
 5173 00ac 42F40062 		orr	r2, r2, #2048
 5174 00b0 5A60     		str	r2, [r3, #4]
 5175 00b2 07B0     		add	sp, sp, #28
 5176              		@ sp needed
 5177 00b4 F0BD     		pop	{r4, r5, r6, r7, pc}
 5178              	.L1063:
 5179 00b6 0220     		movs	r0, #2
 5180              	.L1050:
 5181 00b8 07B0     		add	sp, sp, #28
 5182              		@ sp needed
 5183 00ba F0BD     		pop	{r4, r5, r6, r7, pc}
 5184              	.L1083:
 5185 00bc 84F83D70 		strb	r7, [r4, #61]
 5186 00c0 84F83E60 		strb	r6, [r4, #62]
 5187 00c4 236C     		ldr	r3, [r4, #64]
 5188 00c6 84F83C60 		strb	r6, [r4, #60]
 5189 00ca 43F01003 		orr	r3, r3, #16
 5190 00ce 2364     		str	r3, [r4, #64]
 5191              	.L1051:
 5192 00d0 0120     		movs	r0, #1
 5193 00d2 F1E7     		b	.L1050
 5194              	.L1082:
 5195 00d4 2E68     		ldr	r6, [r5]
 5196 00d6 46F00106 		orr	r6, r6, #1
 5197 00da 2E60     		str	r6, [r5]
 5198 00dc B5E7     		b	.L1058
 5199              	.L1081:
ARM GAS  /var/folders/lp/x54gwt890xv47sdkqj1k04q40000gn/T//ccZoWwdF.s 			page 91


 5200 00de 6E68     		ldr	r6, [r5, #4]
 5201 00e0 3705     		lsls	r7, r6, #20
 5202 00e2 AFD5     		bpl	.L1054
 5203 00e4 6E68     		ldr	r6, [r5, #4]
 5204 00e6 26F40066 		bic	r6, r6, #2048
 5205 00ea 6E60     		str	r6, [r5, #4]
 5206 00ec 0028     		cmp	r0, #0
 5207 00ee A9D0     		beq	.L1054
 5208 00f0 254D     		ldr	r5, .L1084+8
 5209 00f2 0565     		str	r5, [r0, #80]
 5210 00f4 CDE90223 		strd	r2, r3, [sp, #8]
 5211 00f8 0191     		str	r1, [sp, #4]
 5212 00fa FFF7FEFF 		bl	HAL_DMA_Abort_IT
 5213 00fe DDE90112 		ldrd	r1, r2, [sp, #4]
 5214 0102 039B     		ldr	r3, [sp, #12]
 5215 0104 0028     		cmp	r0, #0
 5216 0106 2BD0     		beq	.L1079
 5217 0108 606B     		ldr	r0, [r4, #52]
 5218 010a 0191     		str	r1, [sp, #4]
 5219 010c 056D     		ldr	r5, [r0, #80]
 5220 010e CDE90223 		strd	r2, r3, [sp, #8]
 5221 0112 A847     		blx	r5
 5222 0114 DDE90223 		ldrd	r2, r3, [sp, #8]
 5223 0118 2568     		ldr	r5, [r4]
 5224 011a 606B     		ldr	r0, [r4, #52]
 5225 011c 0199     		ldr	r1, [sp, #4]
 5226 011e 91E7     		b	.L1054
 5227              	.L1080:
 5228 0120 6868     		ldr	r0, [r5, #4]
 5229 0122 0005     		lsls	r0, r0, #20
 5230 0124 1DD5     		bpl	.L1078
 5231 0126 A06B     		ldr	r0, [r4, #56]
 5232 0128 D8B1     		cbz	r0, .L1078
 5233 012a 6E68     		ldr	r6, [r5, #4]
 5234 012c 0191     		str	r1, [sp, #4]
 5235 012e 26F40066 		bic	r6, r6, #2048
 5236 0132 6E60     		str	r6, [r5, #4]
 5237 0134 144D     		ldr	r5, .L1084+8
 5238 0136 0565     		str	r5, [r0, #80]
 5239 0138 CDE90223 		strd	r2, r3, [sp, #8]
 5240 013c FFF7FEFF 		bl	HAL_DMA_Abort_IT
 5241 0140 DDE90112 		ldrd	r1, r2, [sp, #4]
 5242 0144 039B     		ldr	r3, [sp, #12]
 5243 0146 58B1     		cbz	r0, .L1079
 5244 0148 A06B     		ldr	r0, [r4, #56]
 5245 014a 0191     		str	r1, [sp, #4]
 5246 014c 056D     		ldr	r5, [r0, #80]
 5247 014e CDE90223 		strd	r2, r3, [sp, #8]
 5248 0152 A847     		blx	r5
 5249 0154 DDE90112 		ldrd	r1, r2, [sp, #4]
 5250 0158 2568     		ldr	r5, [r4]
 5251 015a 606B     		ldr	r0, [r4, #52]
 5252 015c 039B     		ldr	r3, [sp, #12]
 5253 015e 71E7     		b	.L1054
 5254              	.L1079:
 5255 0160 2568     		ldr	r5, [r4]
 5256              	.L1078:
ARM GAS  /var/folders/lp/x54gwt890xv47sdkqj1k04q40000gn/T//ccZoWwdF.s 			page 92


 5257 0162 606B     		ldr	r0, [r4, #52]
 5258 0164 6EE7     		b	.L1054
 5259              	.L1059:
 5260 0166 2823     		movs	r3, #40
 5261 0168 84F83D30 		strb	r3, [r4, #61]
 5262 016c 84F83E00 		strb	r0, [r4, #62]
 5263 0170 236C     		ldr	r3, [r4, #64]
 5264 0172 84F83C00 		strb	r0, [r4, #60]
 5265 0176 43F08003 		orr	r3, r3, #128
 5266 017a 2364     		str	r3, [r4, #64]
 5267 017c A8E7     		b	.L1051
 5268              	.L1085:
 5269 017e 00BF     		.align	2
 5270              	.L1084:
 5271 0180 00000000 		.word	I2C_DMAXferCplt
 5272 0184 00000000 		.word	I2C_DMAError
 5273 0188 00000000 		.word	I2C_DMAAbort
 5275              		.section	.text.HAL_I2C_Slave_Seq_Receive_IT,"ax",%progbits
 5276              		.align	1
 5277              		.p2align 2,,3
 5278              		.global	HAL_I2C_Slave_Seq_Receive_IT
 5279              		.syntax unified
 5280              		.thumb
 5281              		.thumb_func
 5283              	HAL_I2C_Slave_Seq_Receive_IT:
 5284              		@ args = 0, pretend = 0, frame = 8
 5285              		@ frame_needed = 0, uses_anonymous_args = 0
 5286              		@ link register save eliminated.
 5287 0000 90F83DC0 		ldrb	ip, [r0, #61]	@ zero_extendqisi2
 5288 0004 0CF0280C 		and	ip, ip, #40
 5289 0008 BCF1280F 		cmp	ip, #40
 5290 000c 30D1     		bne	.L1089
 5291 000e 0029     		cmp	r1, #0
 5292 0010 2CD0     		beq	.L1091
 5293 0012 002A     		cmp	r2, #0
 5294 0014 2AD0     		beq	.L1091
 5295 0016 30B4     		push	{r4, r5}
 5296 0018 90F83C40 		ldrb	r4, [r0, #60]	@ zero_extendqisi2
 5297 001c 012C     		cmp	r4, #1
 5298 001e 82B0     		sub	sp, sp, #8
 5299 0020 2DD0     		beq	.L1092
 5300 0022 0468     		ldr	r4, [r0]
 5301 0024 2568     		ldr	r5, [r4]
 5302 0026 ED07     		lsls	r5, r5, #31
 5303 0028 24D5     		bpl	.L1097
 5304              	.L1088:
 5305 002a 2568     		ldr	r5, [r4]
 5306 002c 25F40065 		bic	r5, r5, #2048
 5307 0030 2560     		str	r5, [r4]
 5308 0032 2A25     		movs	r5, #42
 5309 0034 80F83D50 		strb	r5, [r0, #61]
 5310 0038 4162     		str	r1, [r0, #36]
 5311 003a 2025     		movs	r5, #32
 5312 003c 0021     		movs	r1, #0
 5313 003e 80F83E50 		strb	r5, [r0, #62]
 5314 0042 0164     		str	r1, [r0, #64]
 5315 0044 4285     		strh	r2, [r0, #42]	@ movhi
ARM GAS  /var/folders/lp/x54gwt890xv47sdkqj1k04q40000gn/T//ccZoWwdF.s 			page 93


 5316 0046 428D     		ldrh	r2, [r0, #42]
 5317 0048 C362     		str	r3, [r0, #44]
 5318 004a 0191     		str	r1, [sp, #4]
 5319 004c 6369     		ldr	r3, [r4, #20]
 5320 004e 0193     		str	r3, [sp, #4]
 5321 0050 A369     		ldr	r3, [r4, #24]
 5322 0052 0193     		str	r3, [sp, #4]
 5323 0054 80F83C10 		strb	r1, [r0, #60]
 5324 0058 019B     		ldr	r3, [sp, #4]
 5325 005a 6368     		ldr	r3, [r4, #4]
 5326 005c 0285     		strh	r2, [r0, #40]	@ movhi
 5327 005e 43F4E063 		orr	r3, r3, #1792
 5328 0062 6360     		str	r3, [r4, #4]
 5329 0064 0846     		mov	r0, r1
 5330              	.L1087:
 5331 0066 02B0     		add	sp, sp, #8
 5332              		@ sp needed
 5333 0068 30BC     		pop	{r4, r5}
 5334 006a 7047     		bx	lr
 5335              	.L1091:
 5336 006c 0120     		movs	r0, #1
 5337 006e 7047     		bx	lr
 5338              	.L1089:
 5339 0070 0220     		movs	r0, #2
 5340 0072 7047     		bx	lr
 5341              	.L1097:
 5342 0074 2568     		ldr	r5, [r4]
 5343 0076 45F00105 		orr	r5, r5, #1
 5344 007a 2560     		str	r5, [r4]
 5345 007c D5E7     		b	.L1088
 5346              	.L1092:
 5347 007e 0220     		movs	r0, #2
 5348 0080 F1E7     		b	.L1087
 5350 0082 00BF     		.section	.text.HAL_I2C_Slave_Seq_Receive_DMA,"ax",%progbits
 5351              		.align	1
 5352              		.p2align 2,,3
 5353              		.global	HAL_I2C_Slave_Seq_Receive_DMA
 5354              		.syntax unified
 5355              		.thumb
 5356              		.thumb_func
 5358              	HAL_I2C_Slave_Seq_Receive_DMA:
 5359              		@ args = 0, pretend = 0, frame = 16
 5360              		@ frame_needed = 0, uses_anonymous_args = 0
 5361 0000 F0B5     		push	{r4, r5, r6, r7, lr}
 5362 0002 0446     		mov	r4, r0
 5363 0004 90F83D00 		ldrb	r0, [r0, #61]	@ zero_extendqisi2
 5364 0008 00F02800 		and	r0, r0, #40
 5365 000c 2828     		cmp	r0, #40
 5366 000e 85B0     		sub	sp, sp, #20
 5367 0010 52D1     		bne	.L1113
 5368 0012 0D46     		mov	r5, r1
 5369 0014 0029     		cmp	r1, #0
 5370 0016 5CD0     		beq	.L1100
 5371 0018 002A     		cmp	r2, #0
 5372 001a 5AD0     		beq	.L1100
 5373 001c 94F83C10 		ldrb	r1, [r4, #60]	@ zero_extendqisi2
 5374 0020 0129     		cmp	r1, #1
ARM GAS  /var/folders/lp/x54gwt890xv47sdkqj1k04q40000gn/T//ccZoWwdF.s 			page 94


 5375 0022 49D0     		beq	.L1113
 5376 0024 0121     		movs	r1, #1
 5377 0026 84F83C10 		strb	r1, [r4, #60]
 5378 002a 2168     		ldr	r1, [r4]
 5379 002c 4868     		ldr	r0, [r1, #4]
 5380 002e 20F44070 		bic	r0, r0, #768
 5381 0032 4860     		str	r0, [r1, #4]
 5382 0034 94F83D00 		ldrb	r0, [r4, #61]	@ zero_extendqisi2
 5383 0038 2A28     		cmp	r0, #42
 5384 003a 6FD0     		beq	.L1131
 5385 003c 94F83D00 		ldrb	r0, [r4, #61]	@ zero_extendqisi2
 5386 0040 2928     		cmp	r0, #41
 5387 0042 4DD0     		beq	.L1104
 5388              	.L1130:
 5389 0044 A06B     		ldr	r0, [r4, #56]
 5390              	.L1102:
 5391 0046 0E68     		ldr	r6, [r1]
 5392 0048 F607     		lsls	r6, r6, #31
 5393 004a 44D5     		bpl	.L1132
 5394              	.L1108:
 5395 004c 0E68     		ldr	r6, [r1]
 5396 004e 26F40066 		bic	r6, r6, #2048
 5397 0052 0E60     		str	r6, [r1]
 5398 0054 2A26     		movs	r6, #42
 5399 0056 84F83D60 		strb	r6, [r4, #61]
 5400 005a 2027     		movs	r7, #32
 5401 005c 0026     		movs	r6, #0
 5402 005e 84F83E70 		strb	r7, [r4, #62]
 5403 0062 2664     		str	r6, [r4, #64]
 5404 0064 6285     		strh	r2, [r4, #42]	@ movhi
 5405 0066 628D     		ldrh	r2, [r4, #42]
 5406 0068 E362     		str	r3, [r4, #44]
 5407 006a 93B2     		uxth	r3, r2
 5408 006c 6562     		str	r5, [r4, #36]
 5409 006e 2385     		strh	r3, [r4, #40]	@ movhi
 5410 0070 0028     		cmp	r0, #0
 5411 0072 70D0     		beq	.L1109
 5412 0074 2A46     		mov	r2, r5
 5413 0076 3F4D     		ldr	r5, .L1134
 5414 0078 C563     		str	r5, [r0, #60]
 5415 007a 3F4D     		ldr	r5, .L1134+4
 5416 007c 0664     		str	r6, [r0, #64]
 5417 007e 0665     		str	r6, [r0, #80]
 5418 0080 1031     		adds	r1, r1, #16
 5419 0082 C564     		str	r5, [r0, #76]
 5420 0084 FFF7FEFF 		bl	HAL_DMA_Start_IT
 5421 0088 C8B9     		cbnz	r0, .L1133
 5422 008a 2368     		ldr	r3, [r4]
 5423 008c 1A68     		ldr	r2, [r3]
 5424 008e 42F48062 		orr	r2, r2, #1024
 5425 0092 1A60     		str	r2, [r3]
 5426 0094 0390     		str	r0, [sp, #12]
 5427 0096 5A69     		ldr	r2, [r3, #20]
 5428 0098 0392     		str	r2, [sp, #12]
 5429 009a 9A69     		ldr	r2, [r3, #24]
 5430 009c 0392     		str	r2, [sp, #12]
 5431 009e 84F83C00 		strb	r0, [r4, #60]
ARM GAS  /var/folders/lp/x54gwt890xv47sdkqj1k04q40000gn/T//ccZoWwdF.s 			page 95


 5432 00a2 039A     		ldr	r2, [sp, #12]
 5433 00a4 5A68     		ldr	r2, [r3, #4]
 5434 00a6 42F40062 		orr	r2, r2, #2048
 5435 00aa 5A60     		str	r2, [r3, #4]
 5436 00ac 5A68     		ldr	r2, [r3, #4]
 5437 00ae 42F44072 		orr	r2, r2, #768
 5438 00b2 5A60     		str	r2, [r3, #4]
 5439 00b4 05B0     		add	sp, sp, #20
 5440              		@ sp needed
 5441 00b6 F0BD     		pop	{r4, r5, r6, r7, pc}
 5442              	.L1113:
 5443 00b8 0220     		movs	r0, #2
 5444              	.L1099:
 5445 00ba 05B0     		add	sp, sp, #20
 5446              		@ sp needed
 5447 00bc F0BD     		pop	{r4, r5, r6, r7, pc}
 5448              	.L1133:
 5449 00be 84F83D70 		strb	r7, [r4, #61]
 5450 00c2 84F83E60 		strb	r6, [r4, #62]
 5451 00c6 236C     		ldr	r3, [r4, #64]
 5452 00c8 84F83C60 		strb	r6, [r4, #60]
 5453 00cc 43F01003 		orr	r3, r3, #16
 5454 00d0 2364     		str	r3, [r4, #64]
 5455              	.L1100:
 5456 00d2 0120     		movs	r0, #1
 5457 00d4 F1E7     		b	.L1099
 5458              	.L1132:
 5459 00d6 0E68     		ldr	r6, [r1]
 5460 00d8 46F00106 		orr	r6, r6, #1
 5461 00dc 0E60     		str	r6, [r1]
 5462 00de B5E7     		b	.L1108
 5463              	.L1104:
 5464 00e0 4868     		ldr	r0, [r1, #4]
 5465 00e2 0705     		lsls	r7, r0, #20
 5466 00e4 AED5     		bpl	.L1130
 5467 00e6 4868     		ldr	r0, [r1, #4]
 5468 00e8 20F40060 		bic	r0, r0, #2048
 5469 00ec 4860     		str	r0, [r1, #4]
 5470 00ee 606B     		ldr	r0, [r4, #52]
 5471 00f0 0028     		cmp	r0, #0
 5472 00f2 A7D0     		beq	.L1130
 5473 00f4 2149     		ldr	r1, .L1134+8
 5474 00f6 0165     		str	r1, [r0, #80]
 5475 00f8 CDE90023 		strd	r2, r3, [sp]
 5476 00fc FFF7FEFF 		bl	HAL_DMA_Abort_IT
 5477 0100 DDE90023 		ldrd	r2, r3, [sp]
 5478 0104 0028     		cmp	r0, #0
 5479 0106 32D0     		beq	.L1129
 5480 0108 606B     		ldr	r0, [r4, #52]
 5481 010a 016D     		ldr	r1, [r0, #80]
 5482 010c CDE90023 		strd	r2, r3, [sp]
 5483 0110 8847     		blx	r1
 5484 0112 DDE90023 		ldrd	r2, r3, [sp]
 5485 0116 2168     		ldr	r1, [r4]
 5486 0118 A06B     		ldr	r0, [r4, #56]
 5487 011a 94E7     		b	.L1102
 5488              	.L1131:
ARM GAS  /var/folders/lp/x54gwt890xv47sdkqj1k04q40000gn/T//ccZoWwdF.s 			page 96


 5489 011c 4E68     		ldr	r6, [r1, #4]
 5490 011e A06B     		ldr	r0, [r4, #56]
 5491 0120 3605     		lsls	r6, r6, #20
 5492 0122 90D5     		bpl	.L1102
 5493 0124 0028     		cmp	r0, #0
 5494 0126 8ED0     		beq	.L1102
 5495 0128 4E68     		ldr	r6, [r1, #4]
 5496 012a 26F40066 		bic	r6, r6, #2048
 5497 012e 4E60     		str	r6, [r1, #4]
 5498 0130 1249     		ldr	r1, .L1134+8
 5499 0132 0165     		str	r1, [r0, #80]
 5500 0134 CDE90023 		strd	r2, r3, [sp]
 5501 0138 FFF7FEFF 		bl	HAL_DMA_Abort_IT
 5502 013c DDE90023 		ldrd	r2, r3, [sp]
 5503 0140 A8B1     		cbz	r0, .L1129
 5504 0142 A06B     		ldr	r0, [r4, #56]
 5505 0144 016D     		ldr	r1, [r0, #80]
 5506 0146 CDE90023 		strd	r2, r3, [sp]
 5507 014a 8847     		blx	r1
 5508 014c DDE90023 		ldrd	r2, r3, [sp]
 5509 0150 2168     		ldr	r1, [r4]
 5510 0152 A06B     		ldr	r0, [r4, #56]
 5511 0154 77E7     		b	.L1102
 5512              	.L1109:
 5513 0156 2823     		movs	r3, #40
 5514 0158 84F83D30 		strb	r3, [r4, #61]
 5515 015c 84F83E00 		strb	r0, [r4, #62]
 5516 0160 236C     		ldr	r3, [r4, #64]
 5517 0162 84F83C00 		strb	r0, [r4, #60]
 5518 0166 43F08003 		orr	r3, r3, #128
 5519 016a 2364     		str	r3, [r4, #64]
 5520 016c B1E7     		b	.L1100
 5521              	.L1129:
 5522 016e 2168     		ldr	r1, [r4]
 5523 0170 68E7     		b	.L1130
 5524              	.L1135:
 5525 0172 00BF     		.align	2
 5526              	.L1134:
 5527 0174 00000000 		.word	I2C_DMAXferCplt
 5528 0178 00000000 		.word	I2C_DMAError
 5529 017c 00000000 		.word	I2C_DMAAbort
 5531              		.section	.text.HAL_I2C_EnableListen_IT,"ax",%progbits
 5532              		.align	1
 5533              		.p2align 2,,3
 5534              		.global	HAL_I2C_EnableListen_IT
 5535              		.syntax unified
 5536              		.thumb
 5537              		.thumb_func
 5539              	HAL_I2C_EnableListen_IT:
 5540              		@ args = 0, pretend = 0, frame = 0
 5541              		@ frame_needed = 0, uses_anonymous_args = 0
 5542              		@ link register save eliminated.
 5543 0000 90F83D30 		ldrb	r3, [r0, #61]	@ zero_extendqisi2
 5544 0004 202B     		cmp	r3, #32
 5545 0006 01D0     		beq	.L1140
 5546 0008 0220     		movs	r0, #2
 5547 000a 7047     		bx	lr
ARM GAS  /var/folders/lp/x54gwt890xv47sdkqj1k04q40000gn/T//ccZoWwdF.s 			page 97


 5548              	.L1140:
 5549 000c 2822     		movs	r2, #40
 5550 000e 0368     		ldr	r3, [r0]
 5551 0010 80F83D20 		strb	r2, [r0, #61]
 5552 0014 1A68     		ldr	r2, [r3]
 5553 0016 D207     		lsls	r2, r2, #31
 5554 0018 03D4     		bmi	.L1138
 5555 001a 1A68     		ldr	r2, [r3]
 5556 001c 42F00102 		orr	r2, r2, #1
 5557 0020 1A60     		str	r2, [r3]
 5558              	.L1138:
 5559 0022 1A68     		ldr	r2, [r3]
 5560 0024 42F48062 		orr	r2, r2, #1024
 5561 0028 1A60     		str	r2, [r3]
 5562 002a 5A68     		ldr	r2, [r3, #4]
 5563 002c 42F44072 		orr	r2, r2, #768
 5564 0030 0020     		movs	r0, #0
 5565 0032 5A60     		str	r2, [r3, #4]
 5566 0034 7047     		bx	lr
 5568 0036 00BF     		.section	.text.HAL_I2C_DisableListen_IT,"ax",%progbits
 5569              		.align	1
 5570              		.p2align 2,,3
 5571              		.global	HAL_I2C_DisableListen_IT
 5572              		.syntax unified
 5573              		.thumb
 5574              		.thumb_func
 5576              	HAL_I2C_DisableListen_IT:
 5577              		@ args = 0, pretend = 0, frame = 0
 5578              		@ frame_needed = 0, uses_anonymous_args = 0
 5579              		@ link register save eliminated.
 5580 0000 90F83D30 		ldrb	r3, [r0, #61]	@ zero_extendqisi2
 5581 0004 282B     		cmp	r3, #40
 5582 0006 01D0     		beq	.L1144
 5583 0008 0220     		movs	r0, #2
 5584 000a 7047     		bx	lr
 5585              	.L1144:
 5586 000c 90F83DC0 		ldrb	ip, [r0, #61]	@ zero_extendqisi2
 5587 0010 90F83E10 		ldrb	r1, [r0, #62]	@ zero_extendqisi2
 5588 0014 0268     		ldr	r2, [r0]
 5589 0016 0CF0030C 		and	ip, ip, #3
 5590 001a 0023     		movs	r3, #0
 5591 001c 41EA0C01 		orr	r1, r1, ip
 5592 0020 4FF0200C 		mov	ip, #32
 5593 0024 0163     		str	r1, [r0, #48]
 5594 0026 80F83DC0 		strb	ip, [r0, #61]
 5595 002a 80F83E30 		strb	r3, [r0, #62]
 5596 002e 1168     		ldr	r1, [r2]
 5597 0030 21F48061 		bic	r1, r1, #1024
 5598 0034 1160     		str	r1, [r2]
 5599 0036 1846     		mov	r0, r3
 5600 0038 5368     		ldr	r3, [r2, #4]
 5601 003a 23F44073 		bic	r3, r3, #768
 5602 003e 5360     		str	r3, [r2, #4]
 5603 0040 7047     		bx	lr
 5605 0042 00BF     		.section	.text.HAL_I2C_MasterTxCpltCallback,"ax",%progbits
 5606              		.align	1
 5607              		.p2align 2,,3
ARM GAS  /var/folders/lp/x54gwt890xv47sdkqj1k04q40000gn/T//ccZoWwdF.s 			page 98


 5608              		.weak	HAL_I2C_MasterTxCpltCallback
 5609              		.syntax unified
 5610              		.thumb
 5611              		.thumb_func
 5613              	HAL_I2C_MasterTxCpltCallback:
 5614              		@ args = 0, pretend = 0, frame = 0
 5615              		@ frame_needed = 0, uses_anonymous_args = 0
 5616              		@ link register save eliminated.
 5617 0000 7047     		bx	lr
 5619 0002 00BF     		.section	.text.HAL_I2C_MasterRxCpltCallback,"ax",%progbits
 5620              		.align	1
 5621              		.p2align 2,,3
 5622              		.weak	HAL_I2C_MasterRxCpltCallback
 5623              		.syntax unified
 5624              		.thumb
 5625              		.thumb_func
 5627              	HAL_I2C_MasterRxCpltCallback:
 5628              		@ args = 0, pretend = 0, frame = 0
 5629              		@ frame_needed = 0, uses_anonymous_args = 0
 5630              		@ link register save eliminated.
 5631 0000 7047     		bx	lr
 5633 0002 00BF     		.section	.text.HAL_I2C_SlaveTxCpltCallback,"ax",%progbits
 5634              		.align	1
 5635              		.p2align 2,,3
 5636              		.weak	HAL_I2C_SlaveTxCpltCallback
 5637              		.syntax unified
 5638              		.thumb
 5639              		.thumb_func
 5641              	HAL_I2C_SlaveTxCpltCallback:
 5642              		@ args = 0, pretend = 0, frame = 0
 5643              		@ frame_needed = 0, uses_anonymous_args = 0
 5644              		@ link register save eliminated.
 5645 0000 7047     		bx	lr
 5647 0002 00BF     		.section	.text.HAL_I2C_SlaveRxCpltCallback,"ax",%progbits
 5648              		.align	1
 5649              		.p2align 2,,3
 5650              		.weak	HAL_I2C_SlaveRxCpltCallback
 5651              		.syntax unified
 5652              		.thumb
 5653              		.thumb_func
 5655              	HAL_I2C_SlaveRxCpltCallback:
 5656              		@ args = 0, pretend = 0, frame = 0
 5657              		@ frame_needed = 0, uses_anonymous_args = 0
 5658              		@ link register save eliminated.
 5659 0000 7047     		bx	lr
 5661 0002 00BF     		.section	.text.HAL_I2C_AddrCallback,"ax",%progbits
 5662              		.align	1
 5663              		.p2align 2,,3
 5664              		.weak	HAL_I2C_AddrCallback
 5665              		.syntax unified
 5666              		.thumb
 5667              		.thumb_func
 5669              	HAL_I2C_AddrCallback:
 5670              		@ args = 0, pretend = 0, frame = 0
 5671              		@ frame_needed = 0, uses_anonymous_args = 0
 5672              		@ link register save eliminated.
 5673 0000 7047     		bx	lr
ARM GAS  /var/folders/lp/x54gwt890xv47sdkqj1k04q40000gn/T//ccZoWwdF.s 			page 99


 5675 0002 00BF     		.section	.text.HAL_I2C_ListenCpltCallback,"ax",%progbits
 5676              		.align	1
 5677              		.p2align 2,,3
 5678              		.weak	HAL_I2C_ListenCpltCallback
 5679              		.syntax unified
 5680              		.thumb
 5681              		.thumb_func
 5683              	HAL_I2C_ListenCpltCallback:
 5684              		@ args = 0, pretend = 0, frame = 0
 5685              		@ frame_needed = 0, uses_anonymous_args = 0
 5686              		@ link register save eliminated.
 5687 0000 7047     		bx	lr
 5689 0002 00BF     		.section	.text.HAL_I2C_MemTxCpltCallback,"ax",%progbits
 5690              		.align	1
 5691              		.p2align 2,,3
 5692              		.weak	HAL_I2C_MemTxCpltCallback
 5693              		.syntax unified
 5694              		.thumb
 5695              		.thumb_func
 5697              	HAL_I2C_MemTxCpltCallback:
 5698              		@ args = 0, pretend = 0, frame = 0
 5699              		@ frame_needed = 0, uses_anonymous_args = 0
 5700              		@ link register save eliminated.
 5701 0000 7047     		bx	lr
 5703 0002 00BF     		.section	.text.I2C_MemoryTransmit_TXE_BTF,"ax",%progbits
 5704              		.align	1
 5705              		.p2align 2,,3
 5706              		.syntax unified
 5707              		.thumb
 5708              		.thumb_func
 5710              	I2C_MemoryTransmit_TXE_BTF:
 5711              		@ args = 0, pretend = 0, frame = 0
 5712              		@ frame_needed = 0, uses_anonymous_args = 0
 5713 0000 90F83D20 		ldrb	r2, [r0, #61]	@ zero_extendqisi2
 5714 0004 016D     		ldr	r1, [r0, #80]
 5715 0006 0346     		mov	r3, r0
 5716 0008 59B9     		cbnz	r1, .L1153
 5717 000a C26C     		ldr	r2, [r0, #76]
 5718 000c 0168     		ldr	r1, [r0]
 5719 000e 012A     		cmp	r2, #1
 5720 0010 826C     		ldr	r2, [r0, #72]
 5721 0012 0DD0     		beq	.L1164
 5722 0014 C2F30722 		ubfx	r2, r2, #8, #8
 5723 0018 0A61     		str	r2, [r1, #16]
 5724 001a 026D     		ldr	r2, [r0, #80]
 5725 001c 0132     		adds	r2, r2, #1
 5726 001e 0265     		str	r2, [r0, #80]
 5727 0020 7047     		bx	lr
 5728              	.L1153:
 5729 0022 016D     		ldr	r1, [r0, #80]
 5730 0024 0129     		cmp	r1, #1
 5731 0026 09D0     		beq	.L1165
 5732 0028 016D     		ldr	r1, [r0, #80]
 5733 002a 0229     		cmp	r1, #2
 5734 002c 0ED0     		beq	.L1166
 5735              	.L1161:
 5736 002e 7047     		bx	lr
ARM GAS  /var/folders/lp/x54gwt890xv47sdkqj1k04q40000gn/T//ccZoWwdF.s 			page 100


 5737              	.L1164:
 5738 0030 D2B2     		uxtb	r2, r2
 5739 0032 0A61     		str	r2, [r1, #16]
 5740 0034 026D     		ldr	r2, [r0, #80]
 5741 0036 0232     		adds	r2, r2, #2
 5742 0038 0265     		str	r2, [r0, #80]
 5743 003a 7047     		bx	lr
 5744              	.L1165:
 5745 003c 826C     		ldr	r2, [r0, #72]
 5746 003e 0168     		ldr	r1, [r0]
 5747 0040 D2B2     		uxtb	r2, r2
 5748 0042 0A61     		str	r2, [r1, #16]
 5749 0044 026D     		ldr	r2, [r0, #80]
 5750 0046 0132     		adds	r2, r2, #1
 5751 0048 0265     		str	r2, [r0, #80]
 5752 004a 7047     		bx	lr
 5753              	.L1166:
 5754 004c D2B2     		uxtb	r2, r2
 5755 004e 222A     		cmp	r2, #34
 5756 0050 1FD0     		beq	.L1167
 5757 0052 418D     		ldrh	r1, [r0, #42]
 5758 0054 89B2     		uxth	r1, r1
 5759 0056 C1B9     		cbnz	r1, .L1168
 5760 0058 418D     		ldrh	r1, [r0, #42]
 5761 005a 89B2     		uxth	r1, r1
 5762 005c 0029     		cmp	r1, #0
 5763 005e E6D1     		bne	.L1161
 5764 0060 212A     		cmp	r2, #33
 5765 0062 E4D1     		bne	.L1161
 5766 0064 0268     		ldr	r2, [r0]
 5767 0066 10B5     		push	{r4, lr}
 5768 0068 5468     		ldr	r4, [r2, #4]
 5769 006a 24F4E064 		bic	r4, r4, #1792
 5770 006e 5460     		str	r4, [r2, #4]
 5771 0070 1468     		ldr	r4, [r2]
 5772 0072 44F40074 		orr	r4, r4, #512
 5773 0076 1460     		str	r4, [r2]
 5774 0078 2022     		movs	r2, #32
 5775 007a 0163     		str	r1, [r0, #48]
 5776 007c 80F83D20 		strb	r2, [r0, #61]
 5777 0080 80F83E10 		strb	r1, [r0, #62]
 5778 0084 FFF7FEFF 		bl	HAL_I2C_MemTxCpltCallback
 5779 0088 10BD     		pop	{r4, pc}
 5780              	.L1168:
 5781 008a 212A     		cmp	r2, #33
 5782 008c 0AD0     		beq	.L1169
 5783 008e 5B8D     		ldrh	r3, [r3, #42]
 5784 0090 7047     		bx	lr
 5785              	.L1167:
 5786 0092 0168     		ldr	r1, [r0]
 5787 0094 0A68     		ldr	r2, [r1]
 5788 0096 42F48072 		orr	r2, r2, #256
 5789 009a 0A60     		str	r2, [r1]
 5790 009c 026D     		ldr	r2, [r0, #80]
 5791 009e 0132     		adds	r2, r2, #1
 5792 00a0 0265     		str	r2, [r0, #80]
 5793 00a2 7047     		bx	lr
ARM GAS  /var/folders/lp/x54gwt890xv47sdkqj1k04q40000gn/T//ccZoWwdF.s 			page 101


 5794              	.L1169:
 5795 00a4 416A     		ldr	r1, [r0, #36]
 5796 00a6 0268     		ldr	r2, [r0]
 5797 00a8 11F8010B 		ldrb	r0, [r1], #1	@ zero_extendqisi2
 5798 00ac 1061     		str	r0, [r2, #16]
 5799 00ae 5A8D     		ldrh	r2, [r3, #42]
 5800 00b0 5962     		str	r1, [r3, #36]
 5801 00b2 013A     		subs	r2, r2, #1
 5802 00b4 92B2     		uxth	r2, r2
 5803 00b6 5A85     		strh	r2, [r3, #42]	@ movhi
 5804 00b8 7047     		bx	lr
 5806 00ba 00BF     		.section	.text.HAL_I2C_MemRxCpltCallback,"ax",%progbits
 5807              		.align	1
 5808              		.p2align 2,,3
 5809              		.weak	HAL_I2C_MemRxCpltCallback
 5810              		.syntax unified
 5811              		.thumb
 5812              		.thumb_func
 5814              	HAL_I2C_MemRxCpltCallback:
 5815              		@ args = 0, pretend = 0, frame = 0
 5816              		@ frame_needed = 0, uses_anonymous_args = 0
 5817              		@ link register save eliminated.
 5818 0000 7047     		bx	lr
 5820 0002 00BF     		.section	.text.HAL_I2C_ErrorCallback,"ax",%progbits
 5821              		.align	1
 5822              		.p2align 2,,3
 5823              		.weak	HAL_I2C_ErrorCallback
 5824              		.syntax unified
 5825              		.thumb
 5826              		.thumb_func
 5828              	HAL_I2C_ErrorCallback:
 5829              		@ args = 0, pretend = 0, frame = 0
 5830              		@ frame_needed = 0, uses_anonymous_args = 0
 5831              		@ link register save eliminated.
 5832 0000 7047     		bx	lr
 5834 0002 00BF     		.section	.text.I2C_DMAError,"ax",%progbits
 5835              		.align	1
 5836              		.p2align 2,,3
 5837              		.syntax unified
 5838              		.thumb
 5839              		.thumb_func
 5841              	I2C_DMAError:
 5842              		@ args = 0, pretend = 0, frame = 0
 5843              		@ frame_needed = 0, uses_anonymous_args = 0
 5844 0000 10B5     		push	{r4, lr}
 5845 0002 846B     		ldr	r4, [r0, #56]
 5846 0004 636B     		ldr	r3, [r4, #52]
 5847 0006 0BB1     		cbz	r3, .L1173
 5848 0008 0022     		movs	r2, #0
 5849 000a DA63     		str	r2, [r3, #60]
 5850              	.L1173:
 5851 000c A36B     		ldr	r3, [r4, #56]
 5852 000e 0BB1     		cbz	r3, .L1174
 5853 0010 0022     		movs	r2, #0
 5854 0012 DA63     		str	r2, [r3, #60]
 5855              	.L1174:
 5856 0014 FFF7FEFF 		bl	HAL_DMA_GetError
ARM GAS  /var/folders/lp/x54gwt890xv47sdkqj1k04q40000gn/T//ccZoWwdF.s 			page 102


 5857 0018 0228     		cmp	r0, #2
 5858 001a 00D1     		bne	.L1186
 5859 001c 10BD     		pop	{r4, pc}
 5860              	.L1186:
 5861 001e 2168     		ldr	r1, [r4]
 5862 0020 0B68     		ldr	r3, [r1]
 5863 0022 0022     		movs	r2, #0
 5864 0024 2020     		movs	r0, #32
 5865 0026 23F48063 		bic	r3, r3, #1024
 5866 002a 0B60     		str	r3, [r1]
 5867 002c 6285     		strh	r2, [r4, #42]	@ movhi
 5868 002e 84F83D00 		strb	r0, [r4, #61]
 5869 0032 84F83E20 		strb	r2, [r4, #62]
 5870 0036 236C     		ldr	r3, [r4, #64]
 5871 0038 43F01003 		orr	r3, r3, #16
 5872 003c 2046     		mov	r0, r4
 5873 003e 2364     		str	r3, [r4, #64]
 5874 0040 FFF7FEFF 		bl	HAL_I2C_ErrorCallback
 5875 0044 10BD     		pop	{r4, pc}
 5877 0046 00BF     		.section	.text.I2C_DMAXferCplt,"ax",%progbits
 5878              		.align	1
 5879              		.p2align 2,,3
 5880              		.syntax unified
 5881              		.thumb
 5882              		.thumb_func
 5884              	I2C_DMAXferCplt:
 5885              		@ args = 0, pretend = 0, frame = 0
 5886              		@ frame_needed = 0, uses_anonymous_args = 0
 5887 0000 70B5     		push	{r4, r5, r6, lr}
 5888 0002 846B     		ldr	r4, [r0, #56]
 5889 0004 94F83D20 		ldrb	r2, [r4, #61]	@ zero_extendqisi2
 5890 0008 2368     		ldr	r3, [r4]
 5891 000a 94F83E10 		ldrb	r1, [r4, #62]	@ zero_extendqisi2
 5892 000e E56A     		ldr	r5, [r4, #44]
 5893 0010 C8B2     		uxtb	r0, r1
 5894 0012 5968     		ldr	r1, [r3, #4]
 5895 0014 21F44071 		bic	r1, r1, #768
 5896 0018 5960     		str	r1, [r3, #4]
 5897 001a 616B     		ldr	r1, [r4, #52]
 5898 001c D2B2     		uxtb	r2, r2
 5899 001e 09B1     		cbz	r1, .L1188
 5900 0020 0026     		movs	r6, #0
 5901 0022 CE63     		str	r6, [r1, #60]
 5902              	.L1188:
 5903 0024 A16B     		ldr	r1, [r4, #56]
 5904 0026 09B1     		cbz	r1, .L1189
 5905 0028 0026     		movs	r6, #0
 5906 002a CE63     		str	r6, [r1, #60]
 5907              	.L1189:
 5908 002c 02F02101 		and	r1, r2, #33
 5909 0030 2129     		cmp	r1, #33
 5910 0032 39D0     		beq	.L1190
 5911 0034 02F02201 		and	r1, r2, #34
 5912 0038 2229     		cmp	r1, #34
 5913 003a 33D0     		beq	.L1222
 5914              	.L1191:
 5915 003c 94F83E20 		ldrb	r2, [r4, #62]	@ zero_extendqisi2
ARM GAS  /var/folders/lp/x54gwt890xv47sdkqj1k04q40000gn/T//ccZoWwdF.s 			page 103


 5916 0040 7AB3     		cbz	r2, .L1187
 5917 0042 628D     		ldrh	r2, [r4, #42]
 5918 0044 92B2     		uxth	r2, r2
 5919 0046 012A     		cmp	r2, #1
 5920 0048 3DD0     		beq	.L1223
 5921              	.L1195:
 5922 004a 5A68     		ldr	r2, [r3, #4]
 5923 004c 15F5803F 		cmn	r5, #65536
 5924 0050 22F44072 		bic	r2, r2, #768
 5925 0054 5A60     		str	r2, [r3, #4]
 5926 0056 06D0     		beq	.L1196
 5927 0058 082D     		cmp	r5, #8
 5928 005a 04D0     		beq	.L1196
 5929 005c B5F12A4F 		cmp	r5, #-1442840576
 5930 0060 01D0     		beq	.L1196
 5931 0062 202D     		cmp	r5, #32
 5932 0064 03D1     		bne	.L1197
 5933              	.L1196:
 5934 0066 1A68     		ldr	r2, [r3]
 5935 0068 42F40072 		orr	r2, r2, #512
 5936 006c 1A60     		str	r2, [r3]
 5937              	.L1197:
 5938 006e 5A68     		ldr	r2, [r3, #4]
 5939 0070 22F48052 		bic	r2, r2, #4096
 5940 0074 5A60     		str	r2, [r3, #4]
 5941 0076 5A68     		ldr	r2, [r3, #4]
 5942 0078 0021     		movs	r1, #0
 5943 007a 22F40062 		bic	r2, r2, #2048
 5944 007e 5A60     		str	r2, [r3, #4]
 5945 0080 6185     		strh	r1, [r4, #42]	@ movhi
 5946 0082 236C     		ldr	r3, [r4, #64]
 5947 0084 23BB     		cbnz	r3, .L1224
 5948 0086 2022     		movs	r2, #32
 5949 0088 84F83D20 		strb	r2, [r4, #61]
 5950 008c 94F83E20 		ldrb	r2, [r4, #62]	@ zero_extendqisi2
 5951 0090 402A     		cmp	r2, #64
 5952 0092 35D0     		beq	.L1225
 5953 0094 1222     		movs	r2, #18
 5954 0096 84F83E30 		strb	r3, [r4, #62]
 5955 009a 2046     		mov	r0, r4
 5956 009c 2263     		str	r2, [r4, #48]
 5957 009e FFF7FEFF 		bl	HAL_I2C_MasterRxCpltCallback
 5958              	.L1187:
 5959 00a2 70BD     		pop	{r4, r5, r6, pc}
 5960              	.L1222:
 5961 00a4 2028     		cmp	r0, #32
 5962 00a6 C9D1     		bne	.L1191
 5963              	.L1190:
 5964 00a8 5968     		ldr	r1, [r3, #4]
 5965 00aa 0020     		movs	r0, #0
 5966 00ac 21F40061 		bic	r1, r1, #2048
 5967 00b0 292A     		cmp	r2, #41
 5968 00b2 5960     		str	r1, [r3, #4]
 5969 00b4 6085     		strh	r0, [r4, #42]	@ movhi
 5970 00b6 0FD0     		beq	.L1226
 5971 00b8 2A2A     		cmp	r2, #42
 5972 00ba 17D0     		beq	.L1227
ARM GAS  /var/folders/lp/x54gwt890xv47sdkqj1k04q40000gn/T//ccZoWwdF.s 			page 104


 5973              	.L1193:
 5974 00bc 5A68     		ldr	r2, [r3, #4]
 5975 00be 42F44072 		orr	r2, r2, #768
 5976 00c2 5A60     		str	r2, [r3, #4]
 5977 00c4 70BD     		pop	{r4, r5, r6, pc}
 5978              	.L1223:
 5979 00c6 1A68     		ldr	r2, [r3]
 5980 00c8 22F48062 		bic	r2, r2, #1024
 5981 00cc 1A60     		str	r2, [r3]
 5982 00ce BCE7     		b	.L1195
 5983              	.L1224:
 5984 00d0 2046     		mov	r0, r4
 5985 00d2 FFF7FEFF 		bl	HAL_I2C_ErrorCallback
 5986 00d6 70BD     		pop	{r4, r5, r6, pc}
 5987              	.L1226:
 5988 00d8 2823     		movs	r3, #40
 5989 00da 2122     		movs	r2, #33
 5990 00dc 2263     		str	r2, [r4, #48]
 5991 00de 2046     		mov	r0, r4
 5992 00e0 84F83D30 		strb	r3, [r4, #61]
 5993 00e4 FFF7FEFF 		bl	HAL_I2C_SlaveTxCpltCallback
 5994 00e8 2368     		ldr	r3, [r4]
 5995 00ea E7E7     		b	.L1193
 5996              	.L1227:
 5997 00ec 2823     		movs	r3, #40
 5998 00ee 2222     		movs	r2, #34
 5999 00f0 2263     		str	r2, [r4, #48]
 6000 00f2 2046     		mov	r0, r4
 6001 00f4 84F83D30 		strb	r3, [r4, #61]
 6002 00f8 FFF7FEFF 		bl	HAL_I2C_SlaveRxCpltCallback
 6003 00fc 2368     		ldr	r3, [r4]
 6004 00fe DDE7     		b	.L1193
 6005              	.L1225:
 6006 0100 84F83E30 		strb	r3, [r4, #62]
 6007 0104 2046     		mov	r0, r4
 6008 0106 2363     		str	r3, [r4, #48]
 6009 0108 FFF7FEFF 		bl	HAL_I2C_MemRxCpltCallback
 6010 010c 70BD     		pop	{r4, r5, r6, pc}
 6012 010e 00BF     		.section	.text.HAL_I2C_AbortCpltCallback,"ax",%progbits
 6013              		.align	1
 6014              		.p2align 2,,3
 6015              		.weak	HAL_I2C_AbortCpltCallback
 6016              		.syntax unified
 6017              		.thumb
 6018              		.thumb_func
 6020              	HAL_I2C_AbortCpltCallback:
 6021              		@ args = 0, pretend = 0, frame = 0
 6022              		@ frame_needed = 0, uses_anonymous_args = 0
 6023              		@ link register save eliminated.
 6024 0000 7047     		bx	lr
 6026 0002 00BF     		.section	.text.I2C_DMAAbort,"ax",%progbits
 6027              		.align	1
 6028              		.p2align 2,,3
 6029              		.syntax unified
 6030              		.thumb
 6031              		.thumb_func
 6033              	I2C_DMAAbort:
ARM GAS  /var/folders/lp/x54gwt890xv47sdkqj1k04q40000gn/T//ccZoWwdF.s 			page 105


 6034              		@ args = 0, pretend = 0, frame = 8
 6035              		@ frame_needed = 0, uses_anonymous_args = 0
 6036 0000 70B5     		push	{r4, r5, r6, lr}
 6037 0002 3A4B     		ldr	r3, .L1250
 6038 0004 3A4A     		ldr	r2, .L1250+4
 6039 0006 1B68     		ldr	r3, [r3]
 6040 0008 806B     		ldr	r0, [r0, #56]
 6041 000a 82B0     		sub	sp, sp, #8
 6042 000c DB08     		lsrs	r3, r3, #3
 6043 000e 0021     		movs	r1, #0
 6044 0010 A2FB0323 		umull	r2, r3, r2, r3
 6045 0014 0191     		str	r1, [sp, #4]
 6046 0016 1B0A     		lsrs	r3, r3, #8
 6047 0018 90F83D10 		ldrb	r1, [r0, #61]	@ zero_extendqisi2
 6048 001c 0268     		ldr	r2, [r0]
 6049 001e 03EB8303 		add	r3, r3, r3, lsl #2
 6050 0022 C3EBC303 		rsb	r3, r3, r3, lsl #3
 6051 0026 C9B2     		uxtb	r1, r1
 6052 0028 0193     		str	r3, [sp, #4]
 6053 002a 05E0     		b	.L1232
 6054              	.L1230:
 6055 002c 019B     		ldr	r3, [sp, #4]
 6056 002e 013B     		subs	r3, r3, #1
 6057 0030 0193     		str	r3, [sp, #4]
 6058 0032 1368     		ldr	r3, [r2]
 6059 0034 9B05     		lsls	r3, r3, #22
 6060 0036 06D5     		bpl	.L1231
 6061              	.L1232:
 6062 0038 019B     		ldr	r3, [sp, #4]
 6063 003a 002B     		cmp	r3, #0
 6064 003c F6D1     		bne	.L1230
 6065 003e 036C     		ldr	r3, [r0, #64]
 6066 0040 43F02003 		orr	r3, r3, #32
 6067 0044 0364     		str	r3, [r0, #64]
 6068              	.L1231:
 6069 0046 D0E90D43 		ldrd	r4, r3, [r0, #52]
 6070 004a 44B3     		cbz	r4, .L1233
 6071 004c 0025     		movs	r5, #0
 6072 004e E563     		str	r5, [r4, #60]
 6073 0050 F3B1     		cbz	r3, .L1246
 6074 0052 1668     		ldr	r6, [r2]
 6075 0054 DD63     		str	r5, [r3, #60]
 6076 0056 26F48066 		bic	r6, r6, #1024
 6077 005a 1660     		str	r6, [r2]
 6078 005c 4585     		strh	r5, [r0, #42]	@ movhi
 6079 005e 2565     		str	r5, [r4, #80]
 6080              	.L1242:
 6081 0060 0024     		movs	r4, #0
 6082 0062 1C65     		str	r4, [r3, #80]
 6083              	.L1235:
 6084 0064 1368     		ldr	r3, [r2]
 6085 0066 23F00103 		bic	r3, r3, #1
 6086 006a 1360     		str	r3, [r2]
 6087 006c 90F83D30 		ldrb	r3, [r0, #61]	@ zero_extendqisi2
 6088 0070 602B     		cmp	r3, #96
 6089 0072 29D0     		beq	.L1247
 6090 0074 01F02801 		and	r1, r1, #40
ARM GAS  /var/folders/lp/x54gwt890xv47sdkqj1k04q40000gn/T//ccZoWwdF.s 			page 106


 6091 0078 2829     		cmp	r1, #40
 6092 007a 18D0     		beq	.L1248
 6093 007c 2022     		movs	r2, #32
 6094 007e 0023     		movs	r3, #0
 6095 0080 80F83D20 		strb	r2, [r0, #61]
 6096 0084 80F83E30 		strb	r3, [r0, #62]
 6097              	.L1239:
 6098 0088 FFF7FEFF 		bl	HAL_I2C_ErrorCallback
 6099 008c 02B0     		add	sp, sp, #8
 6100              		@ sp needed
 6101 008e 70BD     		pop	{r4, r5, r6, pc}
 6102              	.L1246:
 6103 0090 1568     		ldr	r5, [r2]
 6104 0092 25F48065 		bic	r5, r5, #1024
 6105 0096 1560     		str	r5, [r2]
 6106 0098 4385     		strh	r3, [r0, #42]	@ movhi
 6107 009a 2365     		str	r3, [r4, #80]
 6108 009c E2E7     		b	.L1235
 6109              	.L1233:
 6110 009e F3B1     		cbz	r3, .L1249
 6111 00a0 1568     		ldr	r5, [r2]
 6112 00a2 DC63     		str	r4, [r3, #60]
 6113 00a4 25F48065 		bic	r5, r5, #1024
 6114 00a8 1560     		str	r5, [r2]
 6115 00aa 4485     		strh	r4, [r0, #42]	@ movhi
 6116 00ac D8E7     		b	.L1242
 6117              	.L1248:
 6118 00ae 1368     		ldr	r3, [r2]
 6119 00b0 43F00103 		orr	r3, r3, #1
 6120 00b4 1360     		str	r3, [r2]
 6121 00b6 1368     		ldr	r3, [r2]
 6122 00b8 0024     		movs	r4, #0
 6123 00ba 43F48063 		orr	r3, r3, #1024
 6124 00be 1360     		str	r3, [r2]
 6125 00c0 0463     		str	r4, [r0, #48]
 6126 00c2 80F83D10 		strb	r1, [r0, #61]
 6127 00c6 DFE7     		b	.L1239
 6128              	.L1247:
 6129 00c8 0023     		movs	r3, #0
 6130 00ca 2022     		movs	r2, #32
 6131 00cc 80F83D20 		strb	r2, [r0, #61]
 6132 00d0 80F83E30 		strb	r3, [r0, #62]
 6133 00d4 0364     		str	r3, [r0, #64]
 6134 00d6 FFF7FEFF 		bl	HAL_I2C_AbortCpltCallback
 6135 00da 02B0     		add	sp, sp, #8
 6136              		@ sp needed
 6137 00dc 70BD     		pop	{r4, r5, r6, pc}
 6138              	.L1249:
 6139 00de 1468     		ldr	r4, [r2]
 6140 00e0 24F48064 		bic	r4, r4, #1024
 6141 00e4 1460     		str	r4, [r2]
 6142 00e6 4385     		strh	r3, [r0, #42]	@ movhi
 6143 00e8 BCE7     		b	.L1235
 6144              	.L1251:
 6145 00ea 00BF     		.align	2
 6146              	.L1250:
 6147 00ec 00000000 		.word	SystemCoreClock
ARM GAS  /var/folders/lp/x54gwt890xv47sdkqj1k04q40000gn/T//ccZoWwdF.s 			page 107


 6148 00f0 89B5F814 		.word	351843721
 6150              		.section	.text.I2C_ITError,"ax",%progbits
 6151              		.align	1
 6152              		.p2align 2,,3
 6153              		.syntax unified
 6154              		.thumb
 6155              		.thumb_func
 6157              	I2C_ITError:
 6158              		@ args = 0, pretend = 0, frame = 0
 6159              		@ frame_needed = 0, uses_anonymous_args = 0
 6160 0000 10B5     		push	{r4, lr}
 6161 0002 90F83D20 		ldrb	r2, [r0, #61]	@ zero_extendqisi2
 6162 0006 90F83E30 		ldrb	r3, [r0, #62]	@ zero_extendqisi2
 6163 000a 102B     		cmp	r3, #16
 6164 000c 0446     		mov	r4, r0
 6165 000e D2B2     		uxtb	r2, r2
 6166 0010 39D0     		beq	.L1253
 6167 0012 D9B2     		uxtb	r1, r3
 6168 0014 4029     		cmp	r1, #64
 6169 0016 36D0     		beq	.L1253
 6170              	.L1254:
 6171 0018 02F02801 		and	r1, r2, #40
 6172 001c 2829     		cmp	r1, #40
 6173 001e 2368     		ldr	r3, [r4]
 6174 0020 3CD0     		beq	.L1298
 6175 0022 5968     		ldr	r1, [r3, #4]
 6176 0024 0805     		lsls	r0, r1, #20
 6177 0026 07D4     		bmi	.L1256
 6178 0028 602A     		cmp	r2, #96
 6179 002a 05D0     		beq	.L1256
 6180              	.L1255:
 6181 002c 2021     		movs	r1, #32
 6182 002e 0022     		movs	r2, #0
 6183 0030 84F83D10 		strb	r1, [r4, #61]
 6184 0034 84F83E20 		strb	r2, [r4, #62]
 6185              	.L1256:
 6186 0038 0022     		movs	r2, #0
 6187 003a 2263     		str	r2, [r4, #48]
 6188 003c 5A68     		ldr	r2, [r3, #4]
 6189 003e 12F40062 		ands	r2, r2, #2048
 6190 0042 33D1     		bne	.L1299
 6191              	.L1259:
 6192 0044 94F83D10 		ldrb	r1, [r4, #61]	@ zero_extendqisi2
 6193 0048 6029     		cmp	r1, #96
 6194 004a 74D0     		beq	.L1300
 6195 004c 5A69     		ldr	r2, [r3, #20]
 6196 004e 5006     		lsls	r0, r2, #25
 6197 0050 05D5     		bpl	.L1267
 6198 0052 626A     		ldr	r2, [r4, #36]
 6199 0054 1B69     		ldr	r3, [r3, #16]
 6200 0056 1370     		strb	r3, [r2]
 6201 0058 636A     		ldr	r3, [r4, #36]
 6202 005a 0133     		adds	r3, r3, #1
 6203 005c 6362     		str	r3, [r4, #36]
 6204              	.L1267:
 6205 005e 2046     		mov	r0, r4
 6206 0060 FFF7FEFF 		bl	HAL_I2C_ErrorCallback
ARM GAS  /var/folders/lp/x54gwt890xv47sdkqj1k04q40000gn/T//ccZoWwdF.s 			page 108


 6207              	.L1262:
 6208 0064 236C     		ldr	r3, [r4, #64]
 6209 0066 1907     		lsls	r1, r3, #28
 6210 0068 04D0     		beq	.L1268
 6211 006a 2268     		ldr	r2, [r4]
 6212 006c 5368     		ldr	r3, [r2, #4]
 6213 006e 23F4E063 		bic	r3, r3, #1792
 6214 0072 5360     		str	r3, [r2, #4]
 6215              	.L1268:
 6216 0074 94F83D30 		ldrb	r3, [r4, #61]	@ zero_extendqisi2
 6217 0078 226C     		ldr	r2, [r4, #64]
 6218 007a 5207     		lsls	r2, r2, #29
 6219 007c DBB2     		uxtb	r3, r3
 6220 007e 01D5     		bpl	.L1252
 6221 0080 282B     		cmp	r3, #40
 6222 0082 2ED0     		beq	.L1301
 6223              	.L1252:
 6224 0084 10BD     		pop	{r4, pc}
 6225              	.L1253:
 6226 0086 222A     		cmp	r2, #34
 6227 0088 C6D1     		bne	.L1254
 6228 008a 2368     		ldr	r3, [r4]
 6229 008c 1A68     		ldr	r2, [r3]
 6230 008e 22F40062 		bic	r2, r2, #2048
 6231 0092 1A60     		str	r2, [r3]
 6232 0094 5A68     		ldr	r2, [r3, #4]
 6233 0096 1205     		lsls	r2, r2, #20
 6234 0098 C8D5     		bpl	.L1255
 6235 009a CDE7     		b	.L1256
 6236              	.L1298:
 6237 009c 0022     		movs	r2, #0
 6238 009e 2263     		str	r2, [r4, #48]
 6239 00a0 84F83D10 		strb	r1, [r4, #61]
 6240 00a4 5A68     		ldr	r2, [r3, #4]
 6241 00a6 12F40062 		ands	r2, r2, #2048
 6242 00aa CBD0     		beq	.L1259
 6243              	.L1299:
 6244 00ac 5A68     		ldr	r2, [r3, #4]
 6245 00ae 606B     		ldr	r0, [r4, #52]
 6246 00b0 22F40062 		bic	r2, r2, #2048
 6247 00b4 5A60     		str	r2, [r3, #4]
 6248 00b6 90F83530 		ldrb	r3, [r0, #53]	@ zero_extendqisi2
 6249 00ba 012B     		cmp	r3, #1
 6250 00bc 1ED0     		beq	.L1260
 6251 00be 294B     		ldr	r3, .L1302
 6252 00c0 0365     		str	r3, [r0, #80]
 6253 00c2 FFF7FEFF 		bl	HAL_DMA_Abort_IT
 6254 00c6 0028     		cmp	r0, #0
 6255 00c8 CCD0     		beq	.L1262
 6256 00ca 2268     		ldr	r2, [r4]
 6257 00cc 606B     		ldr	r0, [r4, #52]
 6258 00ce 1368     		ldr	r3, [r2]
 6259 00d0 2021     		movs	r1, #32
 6260 00d2 23F00103 		bic	r3, r3, #1
 6261 00d6 1360     		str	r3, [r2]
 6262 00d8 84F83D10 		strb	r1, [r4, #61]
 6263 00dc 036D     		ldr	r3, [r0, #80]
ARM GAS  /var/folders/lp/x54gwt890xv47sdkqj1k04q40000gn/T//ccZoWwdF.s 			page 109


 6264 00de 9847     		blx	r3
 6265 00e0 C0E7     		b	.L1262
 6266              	.L1301:
 6267 00e2 0023     		movs	r3, #0
 6268 00e4 2049     		ldr	r1, .L1302+4
 6269 00e6 E162     		str	r1, [r4, #44]
 6270 00e8 2022     		movs	r2, #32
 6271 00ea 2363     		str	r3, [r4, #48]
 6272 00ec 2046     		mov	r0, r4
 6273 00ee 84F83D20 		strb	r2, [r4, #61]
 6274 00f2 84F83E30 		strb	r3, [r4, #62]
 6275 00f6 FFF7FEFF 		bl	HAL_I2C_ListenCpltCallback
 6276 00fa 10BD     		pop	{r4, pc}
 6277              	.L1260:
 6278 00fc A06B     		ldr	r0, [r4, #56]
 6279 00fe 194B     		ldr	r3, .L1302
 6280 0100 0365     		str	r3, [r0, #80]
 6281 0102 FFF7FEFF 		bl	HAL_DMA_Abort_IT
 6282 0106 0028     		cmp	r0, #0
 6283 0108 ACD0     		beq	.L1262
 6284 010a 2368     		ldr	r3, [r4]
 6285 010c 5A69     		ldr	r2, [r3, #20]
 6286 010e 5106     		lsls	r1, r2, #25
 6287 0110 06D5     		bpl	.L1264
 6288 0112 626A     		ldr	r2, [r4, #36]
 6289 0114 1B69     		ldr	r3, [r3, #16]
 6290 0116 1370     		strb	r3, [r2]
 6291 0118 626A     		ldr	r2, [r4, #36]
 6292 011a 2368     		ldr	r3, [r4]
 6293 011c 0132     		adds	r2, r2, #1
 6294 011e 6262     		str	r2, [r4, #36]
 6295              	.L1264:
 6296 0120 1A68     		ldr	r2, [r3]
 6297 0122 A06B     		ldr	r0, [r4, #56]
 6298 0124 22F00102 		bic	r2, r2, #1
 6299 0128 2021     		movs	r1, #32
 6300 012a 1A60     		str	r2, [r3]
 6301 012c 84F83D10 		strb	r1, [r4, #61]
 6302 0130 036D     		ldr	r3, [r0, #80]
 6303 0132 9847     		blx	r3
 6304 0134 96E7     		b	.L1262
 6305              	.L1300:
 6306 0136 2021     		movs	r1, #32
 6307 0138 84F83D10 		strb	r1, [r4, #61]
 6308 013c 2264     		str	r2, [r4, #64]
 6309 013e 5A69     		ldr	r2, [r3, #20]
 6310 0140 5206     		lsls	r2, r2, #25
 6311 0142 06D5     		bpl	.L1266
 6312 0144 626A     		ldr	r2, [r4, #36]
 6313 0146 1B69     		ldr	r3, [r3, #16]
 6314 0148 1370     		strb	r3, [r2]
 6315 014a 626A     		ldr	r2, [r4, #36]
 6316 014c 2368     		ldr	r3, [r4]
 6317 014e 0132     		adds	r2, r2, #1
 6318 0150 6262     		str	r2, [r4, #36]
 6319              	.L1266:
 6320 0152 1A68     		ldr	r2, [r3]
ARM GAS  /var/folders/lp/x54gwt890xv47sdkqj1k04q40000gn/T//ccZoWwdF.s 			page 110


 6321 0154 22F00102 		bic	r2, r2, #1
 6322 0158 2046     		mov	r0, r4
 6323 015a 1A60     		str	r2, [r3]
 6324 015c FFF7FEFF 		bl	HAL_I2C_AbortCpltCallback
 6325 0160 80E7     		b	.L1262
 6326              	.L1303:
 6327 0162 00BF     		.align	2
 6328              	.L1302:
 6329 0164 00000000 		.word	I2C_DMAAbort
 6330 0168 0000FFFF 		.word	-65536
 6332              		.section	.text.HAL_I2C_Master_Abort_IT,"ax",%progbits
 6333              		.align	1
 6334              		.p2align 2,,3
 6335              		.global	HAL_I2C_Master_Abort_IT
 6336              		.syntax unified
 6337              		.thumb
 6338              		.thumb_func
 6340              	HAL_I2C_Master_Abort_IT:
 6341              		@ args = 0, pretend = 0, frame = 0
 6342              		@ frame_needed = 0, uses_anonymous_args = 0
 6343 0000 38B5     		push	{r3, r4, r5, lr}
 6344 0002 0568     		ldr	r5, [r0]
 6345 0004 90F83E20 		ldrb	r2, [r0, #62]	@ zero_extendqisi2
 6346 0008 A969     		ldr	r1, [r5, #24]
 6347 000a 8B07     		lsls	r3, r1, #30
 6348 000c 1ED5     		bpl	.L1307
 6349 000e D2B2     		uxtb	r2, r2
 6350 0010 102A     		cmp	r2, #16
 6351 0012 1BD1     		bne	.L1307
 6352 0014 90F83C20 		ldrb	r2, [r0, #60]	@ zero_extendqisi2
 6353 0018 012A     		cmp	r2, #1
 6354 001a 19D0     		beq	.L1308
 6355 001c 0024     		movs	r4, #0
 6356 001e 6022     		movs	r2, #96
 6357 0020 0463     		str	r4, [r0, #48]
 6358 0022 80F83D20 		strb	r2, [r0, #61]
 6359 0026 2A68     		ldr	r2, [r5]
 6360 0028 22F48062 		bic	r2, r2, #1024
 6361 002c 2A60     		str	r2, [r5]
 6362 002e 2A68     		ldr	r2, [r5]
 6363 0030 42F40072 		orr	r2, r2, #512
 6364 0034 2A60     		str	r2, [r5]
 6365 0036 4485     		strh	r4, [r0, #42]	@ movhi
 6366 0038 6A68     		ldr	r2, [r5, #4]
 6367 003a 22F4E062 		bic	r2, r2, #1792
 6368 003e 6A60     		str	r2, [r5, #4]
 6369 0040 80F83C40 		strb	r4, [r0, #60]
 6370 0044 FFF7FEFF 		bl	I2C_ITError
 6371 0048 2046     		mov	r0, r4
 6372 004a 38BD     		pop	{r3, r4, r5, pc}
 6373              	.L1307:
 6374 004c 0120     		movs	r0, #1
 6375 004e 38BD     		pop	{r3, r4, r5, pc}
 6376              	.L1308:
 6377 0050 0220     		movs	r0, #2
 6378 0052 38BD     		pop	{r3, r4, r5, pc}
 6380              		.section	.text.HAL_I2C_EV_IRQHandler,"ax",%progbits
ARM GAS  /var/folders/lp/x54gwt890xv47sdkqj1k04q40000gn/T//ccZoWwdF.s 			page 111


 6381              		.align	1
 6382              		.p2align 2,,3
 6383              		.global	HAL_I2C_EV_IRQHandler
 6384              		.syntax unified
 6385              		.thumb
 6386              		.thumb_func
 6388              	HAL_I2C_EV_IRQHandler:
 6389              		@ args = 0, pretend = 0, frame = 56
 6390              		@ frame_needed = 0, uses_anonymous_args = 0
 6391 0000 F0B5     		push	{r4, r5, r6, r7, lr}
 6392 0002 0368     		ldr	r3, [r0]
 6393 0004 5F68     		ldr	r7, [r3, #4]
 6394 0006 C56A     		ldr	r5, [r0, #44]
 6395 0008 90F83E20 		ldrb	r2, [r0, #62]	@ zero_extendqisi2
 6396 000c 90F83D10 		ldrb	r1, [r0, #61]	@ zero_extendqisi2
 6397 0010 102A     		cmp	r2, #16
 6398 0012 0446     		mov	r4, r0
 6399 0014 8FB0     		sub	sp, sp, #60
 6400 0016 C9B2     		uxtb	r1, r1
 6401 0018 D0B2     		uxtb	r0, r2
 6402 001a 23D0     		beq	.L1311
 6403 001c 4028     		cmp	r0, #64
 6404 001e 21D0     		beq	.L1311
 6405 0020 226C     		ldr	r2, [r4, #64]
 6406 0022 002A     		cmp	r2, #0
 6407 0024 00F0D780 		beq	.L1390
 6408 0028 5A69     		ldr	r2, [r3, #20]
 6409 002a 0020     		movs	r0, #0
 6410              	.L1391:
 6411 002c 12F00205 		ands	r5, r2, #2
 6412 0030 00F09780 		beq	.L1392
 6413 0034 BD05     		lsls	r5, r7, #22
 6414 0036 40F19680 		bpl	.L1393
 6415 003a 226C     		ldr	r2, [r4, #64]
 6416 003c 02B1     		cbz	r2, .L1394
 6417 003e 9869     		ldr	r0, [r3, #24]
 6418              	.L1394:
 6419 0040 94F83D20 		ldrb	r2, [r4, #61]	@ zero_extendqisi2
 6420 0044 02F02802 		and	r2, r2, #40
 6421 0048 282A     		cmp	r2, #40
 6422 004a 00F04E82 		beq	.L1630
 6423 004e 0022     		movs	r2, #0
 6424 0050 0C92     		str	r2, [sp, #48]
 6425 0052 5969     		ldr	r1, [r3, #20]
 6426 0054 0C91     		str	r1, [sp, #48]
 6427 0056 9B69     		ldr	r3, [r3, #24]
 6428 0058 0C93     		str	r3, [sp, #48]
 6429 005a 0C9B     		ldr	r3, [sp, #48]
 6430 005c 84F83C20 		strb	r2, [r4, #60]
 6431              	.L1310:
 6432 0060 0FB0     		add	sp, sp, #60
 6433              		@ sp needed
 6434 0062 F0BD     		pop	{r4, r5, r6, r7, pc}
 6435              	.L1311:
 6436 0064 9E69     		ldr	r6, [r3, #24]
 6437 0066 5A69     		ldr	r2, [r3, #20]
 6438 0068 12F0010F 		tst	r2, #1
ARM GAS  /var/folders/lp/x54gwt890xv47sdkqj1k04q40000gn/T//ccZoWwdF.s 			page 112


 6439 006c 20D1     		bne	.L1313
 6440 006e B5F52A0F 		cmp	r5, #11141120
 6441 0072 F5D0     		beq	.L1310
 6442 0074 B5F12A4F 		cmp	r5, #-1442840576
 6443 0078 F2D0     		beq	.L1310
 6444 007a 12F00805 		ands	r5, r2, #8
 6445 007e 40F0D780 		bne	.L1631
 6446 0082 12F0020F 		tst	r2, #2
 6447 0086 36D0     		beq	.L1318
 6448 0088 17F4007F 		tst	r7, #512
 6449 008c 33D0     		beq	.L1318
 6450 008e 94F83E20 		ldrb	r2, [r4, #62]	@ zero_extendqisi2
 6451 0092 E06A     		ldr	r0, [r4, #44]
 6452 0094 266B     		ldr	r6, [r4, #48]
 6453 0096 94F83D10 		ldrb	r1, [r4, #61]	@ zero_extendqisi2
 6454 009a 2229     		cmp	r1, #34
 6455 009c D2B2     		uxtb	r2, r2
 6456 009e 00F0FD81 		beq	.L1632
 6457 00a2 0A95     		str	r5, [sp, #40]
 6458 00a4 5A69     		ldr	r2, [r3, #20]
 6459 00a6 0A92     		str	r2, [sp, #40]
 6460 00a8 9B69     		ldr	r3, [r3, #24]
 6461 00aa 0A93     		str	r3, [sp, #40]
 6462 00ac 0A9B     		ldr	r3, [sp, #40]
 6463 00ae D7E7     		b	.L1310
 6464              	.L1313:
 6465 00b0 BD05     		lsls	r5, r7, #22
 6466 00b2 20D5     		bpl	.L1318
 6467 00b4 E26A     		ldr	r2, [r4, #44]
 6468 00b6 B2F52A0F 		cmp	r2, #11141120
 6469 00ba 00F01382 		beq	.L1633
 6470 00be E26A     		ldr	r2, [r4, #44]
 6471 00c0 B2F12A4F 		cmp	r2, #-1442840576
 6472 00c4 04BF     		itt	eq
 6473 00c6 0822     		moveq	r2, #8
 6474 00c8 E262     		streq	r2, [r4, #44]
 6475              	.L1320:
 6476 00ca 94F83E20 		ldrb	r2, [r4, #62]	@ zero_extendqisi2
 6477 00ce 402A     		cmp	r2, #64
 6478 00d0 00F00182 		beq	.L1634
 6479 00d4 2269     		ldr	r2, [r4, #16]
 6480 00d6 B2F5804F 		cmp	r2, #16384
 6481 00da 00F0C581 		beq	.L1635
 6482 00de 226D     		ldr	r2, [r4, #80]
 6483 00e0 002A     		cmp	r2, #0
 6484 00e2 40F01682 		bne	.L1328
 6485 00e6 626C     		ldr	r2, [r4, #68]
 6486 00e8 D211     		asrs	r2, r2, #7
 6487 00ea 02F00602 		and	r2, r2, #6
 6488 00ee 42F0F002 		orr	r2, r2, #240
 6489 00f2 1A61     		str	r2, [r3, #16]
 6490 00f4 B4E7     		b	.L1310
 6491              	.L1318:
 6492 00f6 7607     		lsls	r6, r6, #29
 6493 00f8 70D5     		bpl	.L1358
 6494 00fa 5D68     		ldr	r5, [r3, #4]
 6495 00fc 2D05     		lsls	r5, r5, #20
ARM GAS  /var/folders/lp/x54gwt890xv47sdkqj1k04q40000gn/T//ccZoWwdF.s 			page 113


 6496 00fe AFD4     		bmi	.L1310
 6497 0100 1606     		lsls	r6, r2, #24
 6498 0102 02F00405 		and	r5, r2, #4
 6499 0106 40F14781 		bpl	.L1359
 6500 010a 7A05     		lsls	r2, r7, #21
 6501 010c 40F14481 		bpl	.L1359
 6502 0110 002D     		cmp	r5, #0
 6503 0112 40F04481 		bne	.L1360
 6504 0116 94F83D20 		ldrb	r2, [r4, #61]	@ zero_extendqisi2
 6505 011a 208D     		ldrh	r0, [r4, #40]
 6506 011c 94F83E10 		ldrb	r1, [r4, #62]	@ zero_extendqisi2
 6507 0120 E56A     		ldr	r5, [r4, #44]
 6508 0122 D2B2     		uxtb	r2, r2
 6509 0124 C9B2     		uxtb	r1, r1
 6510 0126 0028     		cmp	r0, #0
 6511 0128 40F09C82 		bne	.L1361
 6512 012c 212A     		cmp	r2, #33
 6513 012e 00F06683 		beq	.L1636
 6514              	.L1362:
 6515 0132 4029     		cmp	r1, #64
 6516 0134 94D1     		bne	.L1310
 6517 0136 222A     		cmp	r2, #34
 6518 0138 92D1     		bne	.L1310
 6519              	.L1365:
 6520 013a 628D     		ldrh	r2, [r4, #42]
 6521 013c 92B2     		uxth	r2, r2
 6522 013e 002A     		cmp	r2, #0
 6523 0140 00F01D83 		beq	.L1376
 6524 0144 94F83E20 		ldrb	r2, [r4, #62]	@ zero_extendqisi2
 6525 0148 402A     		cmp	r2, #64
 6526 014a 00F03181 		beq	.L1372
 6527              	.L1621:
 6528 014e 626A     		ldr	r2, [r4, #36]
 6529 0150 12F8011B 		ldrb	r1, [r2], #1	@ zero_extendqisi2
 6530 0154 1961     		str	r1, [r3, #16]
 6531 0156 638D     		ldrh	r3, [r4, #42]
 6532 0158 6262     		str	r2, [r4, #36]
 6533 015a 013B     		subs	r3, r3, #1
 6534 015c 9BB2     		uxth	r3, r3
 6535 015e 6385     		strh	r3, [r4, #42]	@ movhi
 6536 0160 7EE7     		b	.L1310
 6537              	.L1392:
 6538 0162 D606     		lsls	r6, r2, #27
 6539 0164 77D4     		bmi	.L1637
 6540              	.L1393:
 6541 0166 01F0F701 		and	r1, r1, #247
 6542 016a 2129     		cmp	r1, #33
 6543 016c 02F00400 		and	r0, r2, #4
 6544 0170 00F0CD80 		beq	.L1638
 6545 0174 5506     		lsls	r5, r2, #25
 6546 0176 40F10081 		bpl	.L1420
 6547 017a 7905     		lsls	r1, r7, #21
 6548 017c 40F1FD80 		bpl	.L1420
 6549 0180 0028     		cmp	r0, #0
 6550 0182 40F0FD80 		bne	.L1421
 6551 0186 94F83D10 		ldrb	r1, [r4, #61]	@ zero_extendqisi2
 6552 018a 628D     		ldrh	r2, [r4, #42]
ARM GAS  /var/folders/lp/x54gwt890xv47sdkqj1k04q40000gn/T//ccZoWwdF.s 			page 114


 6553 018c 92B2     		uxth	r2, r2
 6554 018e C9B2     		uxtb	r1, r1
 6555 0190 002A     		cmp	r2, #0
 6556 0192 3FF465AF 		beq	.L1310
 6557 0196 626A     		ldr	r2, [r4, #36]
 6558 0198 1B69     		ldr	r3, [r3, #16]
 6559 019a 1370     		strb	r3, [r2]
 6560 019c 638D     		ldrh	r3, [r4, #42]
