ARM GAS  /var/folders/lp/x54gwt890xv47sdkqj1k04q40000gn/T//cck8IW0W.s 			page 1


   1              		.cpu cortex-m4
   2              		.arch armv7e-m
   3              		.fpu fpv4-sp-d16
   4              		.eabi_attribute 27, 1
   5              		.eabi_attribute 28, 1
   6              		.eabi_attribute 20, 1
   7              		.eabi_attribute 21, 1
   8              		.eabi_attribute 23, 3
   9              		.eabi_attribute 24, 1
  10              		.eabi_attribute 25, 1
  11              		.eabi_attribute 26, 1
  12              		.eabi_attribute 30, 2
  13              		.eabi_attribute 34, 1
  14              		.eabi_attribute 18, 4
  15              		.file	"stm32f4xx_hal_dma_ex.c"
  16              		.text
  17              		.section	.text.HAL_DMAEx_MultiBufferStart,"ax",%progbits
  18              		.align	1
  19              		.p2align 2,,3
  20              		.global	HAL_DMAEx_MultiBufferStart
  21              		.syntax unified
  22              		.thumb
  23              		.thumb_func
  25              	HAL_DMAEx_MultiBufferStart:
  26              		@ args = 4, pretend = 0, frame = 0
  27              		@ frame_needed = 0, uses_anonymous_args = 0
  28              		@ link register save eliminated.
  29 0000 30B4     		push	{r4, r5}
  30 0002 8568     		ldr	r5, [r0, #8]
  31 0004 802D     		cmp	r5, #128
  32 0006 27D0     		beq	.L10
  33 0008 90F83440 		ldrb	r4, [r0, #52]	@ zero_extendqisi2
  34 000c 012C     		cmp	r4, #1
  35 000e 07D0     		beq	.L5
  36 0010 90F83540 		ldrb	r4, [r0, #53]	@ zero_extendqisi2
  37 0014 4FF0010C 		mov	ip, #1
  38 0018 6445     		cmp	r4, ip
  39 001a 80F834C0 		strb	ip, [r0, #52]
  40 001e 02D0     		beq	.L11
  41              	.L5:
  42 0020 0220     		movs	r0, #2
  43 0022 30BC     		pop	{r4, r5}
  44 0024 7047     		bx	lr
  45              	.L11:
  46 0026 0468     		ldr	r4, [r0]
  47 0028 4FF0020C 		mov	ip, #2
  48 002c 80F835C0 		strb	ip, [r0, #53]
  49 0030 2068     		ldr	r0, [r4]
  50 0032 40F48020 		orr	r0, r0, #262144
  51 0036 2060     		str	r0, [r4]
  52 0038 402D     		cmp	r5, #64
  53 003a 2361     		str	r3, [r4, #16]
  54 003c 029B     		ldr	r3, [sp, #8]
  55 003e 6360     		str	r3, [r4, #4]
  56 0040 0BBF     		itete	eq
  57 0042 A260     		streq	r2, [r4, #8]
  58 0044 A160     		strne	r1, [r4, #8]
ARM GAS  /var/folders/lp/x54gwt890xv47sdkqj1k04q40000gn/T//cck8IW0W.s 			page 2


  59 0046 E160     		streq	r1, [r4, #12]
  60 0048 E260     		strne	r2, [r4, #12]
  61 004a 2368     		ldr	r3, [r4]
  62 004c 43F00103 		orr	r3, r3, #1
  63 0050 0020     		movs	r0, #0
  64 0052 2360     		str	r3, [r4]
  65 0054 30BC     		pop	{r4, r5}
  66 0056 7047     		bx	lr
  67              	.L10:
  68 0058 4FF48073 		mov	r3, #256
  69 005c 4365     		str	r3, [r0, #84]
  70 005e 30BC     		pop	{r4, r5}
  71 0060 0120     		movs	r0, #1
  72 0062 7047     		bx	lr
  74              		.section	.text.HAL_DMAEx_MultiBufferStart_IT,"ax",%progbits
  75              		.align	1
  76              		.p2align 2,,3
  77              		.global	HAL_DMAEx_MultiBufferStart_IT
  78              		.syntax unified
  79              		.thumb
  80              		.thumb_func
  82              	HAL_DMAEx_MultiBufferStart_IT:
  83              		@ args = 4, pretend = 0, frame = 0
  84              		@ frame_needed = 0, uses_anonymous_args = 0
  85              		@ link register save eliminated.
  86 0000 70B4     		push	{r4, r5, r6}
  87 0002 8568     		ldr	r5, [r0, #8]
  88 0004 802D     		cmp	r5, #128
  89 0006 1CD0     		beq	.L57
  90 0008 C46B     		ldr	r4, [r0, #60]
  91 000a ACB1     		cbz	r4, .L15
  92 000c 446C     		ldr	r4, [r0, #68]
  93 000e 9CB1     		cbz	r4, .L15
  94 0010 C46C     		ldr	r4, [r0, #76]
  95 0012 8CB1     		cbz	r4, .L15
  96 0014 90F83440 		ldrb	r4, [r0, #52]	@ zero_extendqisi2
  97 0018 012C     		cmp	r4, #1
  98 001a 0AD0     		beq	.L18
  99 001c 90F83540 		ldrb	r4, [r0, #53]	@ zero_extendqisi2
 100 0020 4FF0010C 		mov	ip, #1
 101 0024 6445     		cmp	r4, ip
 102 0026 80F834C0 		strb	ip, [r0, #52]
 103 002a 0ED0     		beq	.L58
 104 002c 0023     		movs	r3, #0
 105 002e 80F83430 		strb	r3, [r0, #52]
 106              	.L18:
 107 0032 0220     		movs	r0, #2
 108 0034 70BC     		pop	{r4, r5, r6}
 109 0036 7047     		bx	lr
 110              	.L15:
 111 0038 4023     		movs	r3, #64
 112 003a 4365     		str	r3, [r0, #84]
 113              	.L14:
 114 003c 0120     		movs	r0, #1
 115 003e 70BC     		pop	{r4, r5, r6}
 116 0040 7047     		bx	lr
 117              	.L57:
ARM GAS  /var/folders/lp/x54gwt890xv47sdkqj1k04q40000gn/T//cck8IW0W.s 			page 3


 118 0042 4FF48073 		mov	r3, #256
 119 0046 4365     		str	r3, [r0, #84]
 120 0048 F8E7     		b	.L14
 121              	.L58:
 122 004a 0226     		movs	r6, #2
 123 004c 80F83560 		strb	r6, [r0, #53]
 124 0050 0468     		ldr	r4, [r0]
 125 0052 0026     		movs	r6, #0
 126 0054 4665     		str	r6, [r0, #84]
 127 0056 2668     		ldr	r6, [r4]
 128 0058 46F48026 		orr	r6, r6, #262144
 129 005c 2660     		str	r6, [r4]
 130 005e 2361     		str	r3, [r4, #16]
 131 0060 039B     		ldr	r3, [sp, #12]
 132 0062 6360     		str	r3, [r4, #4]
 133 0064 AA4B     		ldr	r3, .L64
 134 0066 402D     		cmp	r5, #64
 135 0068 0BBF     		itete	eq
 136 006a A260     		streq	r2, [r4, #8]
 137 006c A160     		strne	r1, [r4, #8]
 138 006e E160     		streq	r1, [r4, #12]
 139 0070 E260     		strne	r2, [r4, #12]
 140 0072 9C42     		cmp	r4, r3
 141 0074 1FD9     		bls	.L22
 142 0076 1833     		adds	r3, r3, #24
 143 0078 9C42     		cmp	r4, r3
 144 007a 00F08B80 		beq	.L59
 145 007e A54B     		ldr	r3, .L64+4
 146 0080 9C42     		cmp	r4, r3
 147 0082 71D0     		beq	.L60
 148 0084 A44B     		ldr	r3, .L64+8
 149 0086 9C42     		cmp	r4, r3
 150 0088 00F0BC80 		beq	.L26
 151 008c 4FF00061 		mov	r1, #134217728
 152 0090 4FF08062 		mov	r2, #67108864
 153 0094 43F8941C 		str	r1, [r3, #-148]
 154 0098 43F8942C 		str	r2, [r3, #-148]
 155 009c 4FF00071 		mov	r1, #33554432
 156 00a0 4FF08072 		mov	r2, #16777216
 157 00a4 43F8941C 		str	r1, [r3, #-148]
 158 00a8 43F8942C 		str	r2, [r3, #-148]
 159 00ac 4FF48003 		mov	r3, #4194304
 160              	.L24:
 161 00b0 9A4A     		ldr	r2, .L64+12
 162 00b2 D360     		str	r3, [r2, #12]
 163 00b4 25E0     		b	.L41
 164              	.L22:
 165 00b6 9A4B     		ldr	r3, .L64+16
 166 00b8 9C42     		cmp	r4, r3
 167 00ba 38D8     		bhi	.L61
 168 00bc 994B     		ldr	r3, .L64+20
 169 00be 9C42     		cmp	r4, r3
 170 00c0 76D9     		bls	.L32
 171 00c2 1833     		adds	r3, r3, #24
 172 00c4 9C42     		cmp	r4, r3
 173 00c6 00F0C780 		beq	.L33
 174 00ca 1833     		adds	r3, r3, #24
ARM GAS  /var/folders/lp/x54gwt890xv47sdkqj1k04q40000gn/T//cck8IW0W.s 			page 4


 175 00cc 9C42     		cmp	r4, r3
 176 00ce 00F0F080 		beq	.L34
 177 00d2 1833     		adds	r3, r3, #24
 178 00d4 9C42     		cmp	r4, r3
 179 00d6 00F00B81 		beq	.L35
 180 00da 4FF00061 		mov	r1, #134217728
 181 00de 4FF08062 		mov	r2, #67108864
 182 00e2 43F8941C 		str	r1, [r3, #-148]
 183 00e6 43F8942C 		str	r2, [r3, #-148]
 184 00ea 4FF00071 		mov	r1, #33554432
 185 00ee 4FF08072 		mov	r2, #16777216
 186 00f2 43F8941C 		str	r1, [r3, #-148]
 187 00f6 43F8942C 		str	r2, [r3, #-148]
 188 00fa 4FF48002 		mov	r2, #4194304
 189              	.L36:
 190 00fe 8A4B     		ldr	r3, .L64+24
 191 0100 DA60     		str	r2, [r3, #12]
 192              	.L41:
 193 0102 2368     		ldr	r3, [r4]
 194 0104 026C     		ldr	r2, [r0, #64]
 195 0106 43F01603 		orr	r3, r3, #22
 196 010a 2360     		str	r3, [r4]
 197 010c 6369     		ldr	r3, [r4, #20]
 198 010e 43F08003 		orr	r3, r3, #128
 199 0112 6361     		str	r3, [r4, #20]
 200 0114 002A     		cmp	r2, #0
 201 0116 39D0     		beq	.L62
 202              	.L42:
 203 0118 2368     		ldr	r3, [r4]
 204 011a 43F00803 		orr	r3, r3, #8
 205 011e 2360     		str	r3, [r4]
 206              	.L43:
 207 0120 2368     		ldr	r3, [r4]
 208 0122 43F00103 		orr	r3, r3, #1
 209 0126 0020     		movs	r0, #0
 210 0128 2360     		str	r3, [r4]
 211 012a 70BC     		pop	{r4, r5, r6}
 212 012c 7047     		bx	lr
 213              	.L61:
 214 012e 03F55673 		add	r3, r3, #856
 215 0132 9C42     		cmp	r4, r3
 216 0134 5BD0     		beq	.L28
 217 0136 1833     		adds	r3, r3, #24
 218 0138 9C42     		cmp	r4, r3
 219 013a 73D0     		beq	.L29
 220 013c 1833     		adds	r3, r3, #24
 221 013e 9C42     		cmp	r4, r3
 222 0140 00F09580 		beq	.L63
 223 0144 754B     		ldr	r3, .L64+12
 224 0146 4FF00061 		mov	r1, #134217728
 225 014a 4FF08062 		mov	r2, #67108864
 226 014e 9960     		str	r1, [r3, #8]
 227 0150 9A60     		str	r2, [r3, #8]
 228 0152 4FF00071 		mov	r1, #33554432
 229 0156 4FF08072 		mov	r2, #16777216
 230 015a 9960     		str	r1, [r3, #8]
 231 015c 9A60     		str	r2, [r3, #8]
ARM GAS  /var/folders/lp/x54gwt890xv47sdkqj1k04q40000gn/T//cck8IW0W.s 			page 5


 232 015e 4FF48002 		mov	r2, #4194304
 233              	.L31:
 234 0162 6E4B     		ldr	r3, .L64+12
 235 0164 9A60     		str	r2, [r3, #8]
 236 0166 CCE7     		b	.L41
 237              	.L60:
 238 0168 4FF40061 		mov	r1, #2048
 239 016c 4FF48062 		mov	r2, #1024
 240 0170 43F87C1C 		str	r1, [r3, #-124]
 241 0174 43F87C2C 		str	r2, [r3, #-124]
 242 0178 4FF40071 		mov	r1, #512
 243 017c 4FF48072 		mov	r2, #256
 244 0180 43F87C1C 		str	r1, [r3, #-124]
 245 0184 43F87C2C 		str	r2, [r3, #-124]
 246 0188 4023     		movs	r3, #64
 247 018a 91E7     		b	.L24
 248              	.L62:
 249 018c 836C     		ldr	r3, [r0, #72]
 250 018e 002B     		cmp	r3, #0
 251 0190 C2D1     		bne	.L42
 252 0192 C5E7     		b	.L43
 253              	.L59:
 254 0194 2021     		movs	r1, #32
 255 0196 1022     		movs	r2, #16
 256 0198 43F8641C 		str	r1, [r3, #-100]
 257 019c 43F8642C 		str	r2, [r3, #-100]
 258 01a0 0821     		movs	r1, #8
 259 01a2 0422     		movs	r2, #4
 260 01a4 43F8641C 		str	r1, [r3, #-100]
 261 01a8 43F8642C 		str	r2, [r3, #-100]
 262 01ac 0123     		movs	r3, #1
 263 01ae 7FE7     		b	.L24
 264              	.L32:
 265 01b0 5E4B     		ldr	r3, .L64+28
 266 01b2 9C42     		cmp	r4, r3
 267 01b4 45D0     		beq	.L37
 268 01b6 1833     		adds	r3, r3, #24
 269 01b8 9C42     		cmp	r4, r3
 270 01ba 6BD0     		beq	.L38
 271 01bc 1833     		adds	r3, r3, #24
 272 01be 9C42     		cmp	r4, r3
 273 01c0 00F08680 		beq	.L39
 274 01c4 4FF00061 		mov	r1, #134217728
 275 01c8 4FF08062 		mov	r2, #67108864
 276 01cc 43F8381C 		str	r1, [r3, #-56]
 277 01d0 43F8382C 		str	r2, [r3, #-56]
 278 01d4 4FF00071 		mov	r1, #33554432
 279 01d8 4FF08072 		mov	r2, #16777216
 280 01dc 43F8381C 		str	r1, [r3, #-56]
 281 01e0 43F8382C 		str	r2, [r3, #-56]
 282 01e4 4FF48002 		mov	r2, #4194304
 283              	.L40:
 284 01e8 4F4B     		ldr	r3, .L64+24
 285 01ea 9A60     		str	r2, [r3, #8]
 286 01ec 89E7     		b	.L41
 287              	.L28:
 288 01ee 4B4B     		ldr	r3, .L64+12
ARM GAS  /var/folders/lp/x54gwt890xv47sdkqj1k04q40000gn/T//cck8IW0W.s 			page 6


 289 01f0 2021     		movs	r1, #32
 290 01f2 1022     		movs	r2, #16
 291 01f4 9960     		str	r1, [r3, #8]
 292 01f6 9A60     		str	r2, [r3, #8]
 293 01f8 0821     		movs	r1, #8
 294 01fa 0422     		movs	r2, #4
 295 01fc 9960     		str	r1, [r3, #8]
 296 01fe 9A60     		str	r2, [r3, #8]
 297 0200 0122     		movs	r2, #1
 298 0202 AEE7     		b	.L31
 299              	.L26:
 300 0204 454B     		ldr	r3, .L64+12
 301 0206 4FF40011 		mov	r1, #2097152
 302 020a 4FF48012 		mov	r2, #1048576
 303 020e D960     		str	r1, [r3, #12]
 304 0210 DA60     		str	r2, [r3, #12]
 305 0212 4FF40021 		mov	r1, #524288
 306 0216 4FF48022 		mov	r2, #262144
 307 021a D960     		str	r1, [r3, #12]
 308 021c DA60     		str	r2, [r3, #12]
 309 021e 4FF48033 		mov	r3, #65536
 310 0222 45E7     		b	.L24
 311              	.L29:
 312 0224 3D4B     		ldr	r3, .L64+12
 313 0226 4FF40061 		mov	r1, #2048
 314 022a 4FF48062 		mov	r2, #1024
 315 022e 9960     		str	r1, [r3, #8]
 316 0230 9A60     		str	r2, [r3, #8]
 317 0232 4FF40071 		mov	r1, #512
 318 0236 4FF48072 		mov	r2, #256
 319 023a 9960     		str	r1, [r3, #8]
 320 023c 9A60     		str	r2, [r3, #8]
 321 023e 4022     		movs	r2, #64
 322 0240 8FE7     		b	.L31
 323              	.L37:
 324 0242 394B     		ldr	r3, .L64+24
 325 0244 2021     		movs	r1, #32
 326 0246 1022     		movs	r2, #16
 327 0248 9960     		str	r1, [r3, #8]
 328 024a 9A60     		str	r2, [r3, #8]
 329 024c 0821     		movs	r1, #8
 330 024e 0422     		movs	r2, #4
 331 0250 9960     		str	r1, [r3, #8]
 332 0252 9A60     		str	r2, [r3, #8]
 333 0254 0122     		movs	r2, #1
 334 0256 C7E7     		b	.L40
 335              	.L33:
 336 0258 334B     		ldr	r3, .L64+24
 337 025a 2021     		movs	r1, #32
 338 025c 1022     		movs	r2, #16
 339 025e D960     		str	r1, [r3, #12]
 340 0260 DA60     		str	r2, [r3, #12]
 341 0262 0821     		movs	r1, #8
 342 0264 0422     		movs	r2, #4
 343 0266 D960     		str	r1, [r3, #12]
 344 0268 DA60     		str	r2, [r3, #12]
 345 026a 0122     		movs	r2, #1
ARM GAS  /var/folders/lp/x54gwt890xv47sdkqj1k04q40000gn/T//cck8IW0W.s 			page 7


 346 026c 47E7     		b	.L36
 347              	.L63:
 348 026e 4FF40011 		mov	r1, #2097152
 349 0272 4FF48012 		mov	r2, #1048576
 350 0276 43F8381C 		str	r1, [r3, #-56]
 351 027a 43F8382C 		str	r2, [r3, #-56]
 352 027e 4FF40021 		mov	r1, #524288
 353 0282 4FF48022 		mov	r2, #262144
 354 0286 43F8381C 		str	r1, [r3, #-56]
 355 028a 43F8382C 		str	r2, [r3, #-56]
 356 028e 4FF48032 		mov	r2, #65536
 357 0292 66E7     		b	.L31
 358              	.L38:
 359 0294 244B     		ldr	r3, .L64+24
 360 0296 4FF40061 		mov	r1, #2048
 361 029a 4FF48062 		mov	r2, #1024
 362 029e 9960     		str	r1, [r3, #8]
 363 02a0 9A60     		str	r2, [r3, #8]
 364 02a2 4FF40071 		mov	r1, #512
 365 02a6 4FF48072 		mov	r2, #256
 366 02aa 9960     		str	r1, [r3, #8]
 367 02ac 9A60     		str	r2, [r3, #8]
 368 02ae 4022     		movs	r2, #64
 369 02b0 9AE7     		b	.L40
 370              	.L34:
 371 02b2 1D4B     		ldr	r3, .L64+24
 372 02b4 4FF40061 		mov	r1, #2048
 373 02b8 4FF48062 		mov	r2, #1024
 374 02bc D960     		str	r1, [r3, #12]
 375 02be DA60     		str	r2, [r3, #12]
 376 02c0 4FF40071 		mov	r1, #512
 377 02c4 4FF48072 		mov	r2, #256
 378 02c8 D960     		str	r1, [r3, #12]
 379 02ca DA60     		str	r2, [r3, #12]
 380 02cc 4022     		movs	r2, #64
 381 02ce 16E7     		b	.L36
 382              	.L39:
 383 02d0 154B     		ldr	r3, .L64+24
 384 02d2 4FF40011 		mov	r1, #2097152
 385 02d6 4FF48012 		mov	r2, #1048576
 386 02da 9960     		str	r1, [r3, #8]
 387 02dc 9A60     		str	r2, [r3, #8]
 388 02de 4FF40021 		mov	r1, #524288
 389 02e2 4FF48022 		mov	r2, #262144
 390 02e6 9960     		str	r1, [r3, #8]
 391 02e8 9A60     		str	r2, [r3, #8]
 392 02ea 4FF48032 		mov	r2, #65536
 393 02ee 7BE7     		b	.L40
 394              	.L35:
 395 02f0 0D4B     		ldr	r3, .L64+24
 396 02f2 4FF40011 		mov	r1, #2097152
 397 02f6 4FF48012 		mov	r2, #1048576
 398 02fa D960     		str	r1, [r3, #12]
 399 02fc DA60     		str	r2, [r3, #12]
 400 02fe 4FF40021 		mov	r1, #524288
 401 0302 4FF48022 		mov	r2, #262144
 402 0306 D960     		str	r1, [r3, #12]
ARM GAS  /var/folders/lp/x54gwt890xv47sdkqj1k04q40000gn/T//cck8IW0W.s 			page 8


 403 0308 DA60     		str	r2, [r3, #12]
 404 030a 4FF48032 		mov	r2, #65536
 405 030e F6E6     		b	.L36
 406              	.L65:
 407              		.align	2
 408              	.L64:
 409 0310 58640240 		.word	1073898584
 410 0314 88640240 		.word	1073898632
 411 0318 A0640240 		.word	1073898656
 412 031c 00640240 		.word	1073898496
 413 0320 B8600240 		.word	1073897656
 414 0324 58600240 		.word	1073897560
 415 0328 00600240 		.word	1073897472
 416 032c 10600240 		.word	1073897488
 418              		.section	.text.HAL_DMAEx_ChangeMemory,"ax",%progbits
 419              		.align	1
 420              		.p2align 2,,3
 421              		.global	HAL_DMAEx_ChangeMemory
 422              		.syntax unified
 423              		.thumb
 424              		.thumb_func
 426              	HAL_DMAEx_ChangeMemory:
 427              		@ args = 0, pretend = 0, frame = 0
 428              		@ frame_needed = 0, uses_anonymous_args = 0
 429              		@ link register save eliminated.
 430 0000 0368     		ldr	r3, [r0]
 431 0002 12B9     		cbnz	r2, .L67
 432 0004 D960     		str	r1, [r3, #12]
 433 0006 0020     		movs	r0, #0
 434 0008 7047     		bx	lr
 435              	.L67:
 436 000a 1961     		str	r1, [r3, #16]
 437 000c 0020     		movs	r0, #0
 438 000e 7047     		bx	lr
 440              		.ident	"GCC: (xPack GNU Arm Embedded GCC arm64) 13.3.1 20240614"
ARM GAS  /var/folders/lp/x54gwt890xv47sdkqj1k04q40000gn/T//cck8IW0W.s 			page 9

