ARM GAS  /var/folders/lp/x54gwt890xv47sdkqj1k04q40000gn/T//ccBMM1tV.s 			page 1


   1              		.cpu cortex-m4
   2              		.arch armv7e-m
   3              		.fpu fpv4-sp-d16
   4              		.eabi_attribute 27, 1
   5              		.eabi_attribute 28, 1
   6              		.eabi_attribute 20, 1
   7              		.eabi_attribute 21, 1
   8              		.eabi_attribute 23, 3
   9              		.eabi_attribute 24, 1
  10              		.eabi_attribute 25, 1
  11              		.eabi_attribute 26, 1
  12              		.eabi_attribute 30, 2
  13              		.eabi_attribute 34, 1
  14              		.eabi_attribute 18, 4
  15              		.file	"usbh_conf.c"
  16              		.text
  17              		.section	.text.HAL_HCD_MspInit,"ax",%progbits
  18              		.align	1
  19              		.p2align 2,,3
  20              		.global	HAL_HCD_MspInit
  21              		.syntax unified
  22              		.thumb
  23              		.thumb_func
  25              	HAL_HCD_MspInit:
  26              		@ args = 0, pretend = 0, frame = 40
  27              		@ frame_needed = 0, uses_anonymous_args = 0
  28 0000 0368     		ldr	r3, [r0]
  29 0002 B3F1A04F 		cmp	r3, #1342177280
  30 0006 00D0     		beq	.L8
  31 0008 7047     		bx	lr
  32              	.L8:
  33 000a 70B5     		push	{r4, r5, r6, lr}
  34 000c 8AB0     		sub	sp, sp, #40
  35 000e 2B4C     		ldr	r4, .L9
  36 0010 2B48     		ldr	r0, .L9+4
  37 0012 0025     		movs	r5, #0
  38 0014 0195     		str	r5, [sp, #4]
  39 0016 236B     		ldr	r3, [r4, #48]
  40 0018 43F00103 		orr	r3, r3, #1
  41 001c 2363     		str	r3, [r4, #48]
  42 001e 236B     		ldr	r3, [r4, #48]
  43 0020 03F00103 		and	r3, r3, #1
  44 0024 0193     		str	r3, [sp, #4]
  45 0026 019B     		ldr	r3, [sp, #4]
  46 0028 0295     		str	r5, [sp, #8]
  47 002a 236B     		ldr	r3, [r4, #48]
  48 002c 43F00403 		orr	r3, r3, #4
  49 0030 2363     		str	r3, [r4, #48]
  50 0032 236B     		ldr	r3, [r4, #48]
  51 0034 03F00403 		and	r3, r3, #4
  52 0038 0293     		str	r3, [sp, #8]
  53 003a 4FF4C052 		mov	r2, #6144
  54 003e 0223     		movs	r3, #2
  55 0040 CDE90423 		strd	r2, [sp, #16]
  56 0044 0A26     		movs	r6, #10
  57 0046 0022     		movs	r2, #0
  58 0048 04A9     		add	r1, sp, #16
ARM GAS  /var/folders/lp/x54gwt890xv47sdkqj1k04q40000gn/T//ccBMM1tV.s 			page 2


  59 004a 0323     		movs	r3, #3
  60 004c CDE90623 		strd	r2, [sp, #24]
  61 0050 0896     		str	r6, [sp, #32]
  62 0052 029B     		ldr	r3, [sp, #8]
  63 0054 FFF7FEFF 		bl	HAL_GPIO_Init
  64 0058 4FF48062 		mov	r2, #1024
  65 005c 1223     		movs	r3, #18
  66 005e CDE90423 		strd	r2, [sp, #16]
  67 0062 04A9     		add	r1, sp, #16
  68 0064 0122     		movs	r2, #1
  69 0066 0323     		movs	r3, #3
  70 0068 1548     		ldr	r0, .L9+4
  71 006a 0896     		str	r6, [sp, #32]
  72 006c CDE90623 		strd	r2, [sp, #24]
  73 0070 FFF7FEFF 		bl	HAL_GPIO_Init
  74 0074 0122     		movs	r2, #1
  75 0076 0123     		movs	r3, #1
  76 0078 CDE90423 		strd	r2, [sp, #16]
  77 007c 04A9     		add	r1, sp, #16
  78 007e 0022     		movs	r2, #0
  79 0080 0223     		movs	r3, #2
  80 0082 1048     		ldr	r0, .L9+8
  81 0084 CDE90623 		strd	r2, [sp, #24]
  82 0088 FFF7FEFF 		bl	HAL_GPIO_Init
  83 008c 636B     		ldr	r3, [r4, #52]
  84 008e 43F08003 		orr	r3, r3, #128
  85 0092 6363     		str	r3, [r4, #52]
  86 0094 0395     		str	r5, [sp, #12]
  87 0096 636C     		ldr	r3, [r4, #68]
  88 0098 43F48043 		orr	r3, r3, #16384
  89 009c 6364     		str	r3, [r4, #68]
  90 009e 636C     		ldr	r3, [r4, #68]
  91 00a0 03F48043 		and	r3, r3, #16384
  92 00a4 0621     		movs	r1, #6
  93 00a6 2A46     		mov	r2, r5
  94 00a8 0393     		str	r3, [sp, #12]
  95 00aa 4320     		movs	r0, #67
  96 00ac 039B     		ldr	r3, [sp, #12]
  97 00ae FFF7FEFF 		bl	HAL_NVIC_SetPriority
  98 00b2 4320     		movs	r0, #67
  99 00b4 FFF7FEFF 		bl	HAL_NVIC_EnableIRQ
 100 00b8 0AB0     		add	sp, sp, #40
 101              		@ sp needed
 102 00ba 70BD     		pop	{r4, r5, r6, pc}
 103              	.L10:
 104              		.align	2
 105              	.L9:
 106 00bc 00380240 		.word	1073887232
 107 00c0 00000240 		.word	1073872896
 108 00c4 00080240 		.word	1073874944
 110              		.section	.text.HAL_HCD_MspDeInit,"ax",%progbits
 111              		.align	1
 112              		.p2align 2,,3
 113              		.global	HAL_HCD_MspDeInit
 114              		.syntax unified
 115              		.thumb
 116              		.thumb_func
ARM GAS  /var/folders/lp/x54gwt890xv47sdkqj1k04q40000gn/T//ccBMM1tV.s 			page 3


 118              	HAL_HCD_MspDeInit:
 119              		@ args = 0, pretend = 0, frame = 0
 120              		@ frame_needed = 0, uses_anonymous_args = 0
 121              		@ link register save eliminated.
 122 0000 0368     		ldr	r3, [r0]
 123 0002 B3F1A04F 		cmp	r3, #1342177280
 124 0006 00D0     		beq	.L13
 125 0008 7047     		bx	lr
 126              	.L13:
 127 000a 034A     		ldr	r2, .L14
 128 000c 536B     		ldr	r3, [r2, #52]
 129 000e 23F08003 		bic	r3, r3, #128
 130 0012 5363     		str	r3, [r2, #52]
 131 0014 7047     		bx	lr
 132              	.L15:
 133 0016 00BF     		.align	2
 134              	.L14:
 135 0018 00380240 		.word	1073887232
 137              		.section	.text.HAL_HCD_SOF_Callback,"ax",%progbits
 138              		.align	1
 139              		.p2align 2,,3
 140              		.global	HAL_HCD_SOF_Callback
 141              		.syntax unified
 142              		.thumb
 143              		.thumb_func
 145              	HAL_HCD_SOF_Callback:
 146              		@ args = 0, pretend = 0, frame = 0
 147              		@ frame_needed = 0, uses_anonymous_args = 0
 148              		@ link register save eliminated.
 149 0000 D0F80003 		ldr	r0, [r0, #768]
 150 0004 FFF7FEBF 		b	USBH_LL_IncTimer
 152              		.section	.text.HAL_HCD_Connect_Callback,"ax",%progbits
 153              		.align	1
 154              		.p2align 2,,3
 155              		.global	HAL_HCD_Connect_Callback
 156              		.syntax unified
 157              		.thumb
 158              		.thumb_func
 160              	HAL_HCD_Connect_Callback:
 161              		@ args = 0, pretend = 0, frame = 0
 162              		@ frame_needed = 0, uses_anonymous_args = 0
 163              		@ link register save eliminated.
 164 0000 D0F80003 		ldr	r0, [r0, #768]
 165 0004 FFF7FEBF 		b	USBH_LL_Connect
 167              		.section	.text.HAL_HCD_Disconnect_Callback,"ax",%progbits
 168              		.align	1
 169              		.p2align 2,,3
 170              		.global	HAL_HCD_Disconnect_Callback
 171              		.syntax unified
 172              		.thumb
 173              		.thumb_func
 175              	HAL_HCD_Disconnect_Callback:
 176              		@ args = 0, pretend = 0, frame = 0
 177              		@ frame_needed = 0, uses_anonymous_args = 0
 178              		@ link register save eliminated.
 179 0000 D0F80003 		ldr	r0, [r0, #768]
 180 0004 FFF7FEBF 		b	USBH_LL_Disconnect
ARM GAS  /var/folders/lp/x54gwt890xv47sdkqj1k04q40000gn/T//ccBMM1tV.s 			page 4


 182              		.section	.text.HAL_HCD_PortEnabled_Callback,"ax",%progbits
 183              		.align	1
 184              		.p2align 2,,3
 185              		.global	HAL_HCD_PortEnabled_Callback
 186              		.syntax unified
 187              		.thumb
 188              		.thumb_func
 190              	HAL_HCD_PortEnabled_Callback:
 191              		@ args = 0, pretend = 0, frame = 0
 192              		@ frame_needed = 0, uses_anonymous_args = 0
 193              		@ link register save eliminated.
 194 0000 D0F80003 		ldr	r0, [r0, #768]
 195 0004 FFF7FEBF 		b	USBH_LL_PortEnabled
 197              		.section	.text.HAL_HCD_PortDisabled_Callback,"ax",%progbits
 198              		.align	1
 199              		.p2align 2,,3
 200              		.global	HAL_HCD_PortDisabled_Callback
 201              		.syntax unified
 202              		.thumb
 203              		.thumb_func
 205              	HAL_HCD_PortDisabled_Callback:
 206              		@ args = 0, pretend = 0, frame = 0
 207              		@ frame_needed = 0, uses_anonymous_args = 0
 208              		@ link register save eliminated.
 209 0000 D0F80003 		ldr	r0, [r0, #768]
 210 0004 FFF7FEBF 		b	USBH_LL_PortDisabled
 212              		.section	.text.HAL_HCD_HC_NotifyURBChange_Callback,"ax",%progbits
 213              		.align	1
 214              		.p2align 2,,3
 215              		.global	HAL_HCD_HC_NotifyURBChange_Callback
 216              		.syntax unified
 217              		.thumb
 218              		.thumb_func
 220              	HAL_HCD_HC_NotifyURBChange_Callback:
 221              		@ args = 0, pretend = 0, frame = 0
 222              		@ frame_needed = 0, uses_anonymous_args = 0
 223              		@ link register save eliminated.
 224 0000 7047     		bx	lr
 226 0002 00BF     		.section	.text.USBH_LL_Init,"ax",%progbits
 227              		.align	1
 228              		.p2align 2,,3
 229              		.global	USBH_LL_Init
 230              		.syntax unified
 231              		.thumb
 232              		.thumb_func
 234              	USBH_LL_Init:
 235              		@ args = 0, pretend = 0, frame = 0
 236              		@ frame_needed = 0, uses_anonymous_args = 0
 237 0000 0022     		movs	r2, #0
 238 0002 70B5     		push	{r4, r5, r6, lr}
 239 0004 1146     		mov	r1, r2
 240 0006 124C     		ldr	r4, .L24
 241 0008 0546     		mov	r5, r0
 242 000a 4FF0FF30 		mov	r0, #-1
 243 000e FFF7FEFF 		bl	HAL_NVIC_SetPriority
 244 0012 4FF0A043 		mov	r3, #1342177280
 245 0016 2360     		str	r3, [r4]
ARM GAS  /var/folders/lp/x54gwt890xv47sdkqj1k04q40000gn/T//ccBMM1tV.s 			page 5


 246 0018 0222     		movs	r2, #2
 247 001a 0023     		movs	r3, #0
 248 001c 0026     		movs	r6, #0
 249 001e C4E90623 		strd	r2, [r4, #24]
 250 0022 C5F81446 		str	r4, [r5, #1556]
 251 0026 0B22     		movs	r2, #11
 252 0028 0123     		movs	r3, #1
 253 002a 2046     		mov	r0, r4
 254 002c C4E90223 		strd	r2, [r4, #8]
 255 0030 2661     		str	r6, [r4, #16]
 256 0032 2662     		str	r6, [r4, #32]
 257 0034 E662     		str	r6, [r4, #44]
 258 0036 C4F80053 		str	r5, [r4, #768]
 259 003a FFF7FEFF 		bl	HAL_HCD_Init
 260 003e 2046     		mov	r0, r4
 261 0040 FFF7FEFF 		bl	HAL_HCD_GetCurrentFrame
 262 0044 0146     		mov	r1, r0
 263 0046 2846     		mov	r0, r5
 264 0048 FFF7FEFF 		bl	USBH_LL_SetTimer
 265 004c 3046     		mov	r0, r6
 266 004e 70BD     		pop	{r4, r5, r6, pc}
 267              	.L25:
 268              		.align	2
 269              	.L24:
 270 0050 00000000 		.word	hHCD
 272              		.section	.text.USBH_LL_DeInit,"ax",%progbits
 273              		.align	1
 274              		.p2align 2,,3
 275              		.global	USBH_LL_DeInit
 276              		.syntax unified
 277              		.thumb
 278              		.thumb_func
 280              	USBH_LL_DeInit:
 281              		@ args = 0, pretend = 0, frame = 0
 282              		@ frame_needed = 0, uses_anonymous_args = 0
 283 0000 08B5     		push	{r3, lr}
 284 0002 D0F81406 		ldr	r0, [r0, #1556]
 285 0006 FFF7FEFF 		bl	HAL_HCD_DeInit
 286 000a 0020     		movs	r0, #0
 287 000c 08BD     		pop	{r3, pc}
 289 000e 00BF     		.section	.text.USBH_LL_Start,"ax",%progbits
 290              		.align	1
 291              		.p2align 2,,3
 292              		.global	USBH_LL_Start
 293              		.syntax unified
 294              		.thumb
 295              		.thumb_func
 297              	USBH_LL_Start:
 298              		@ args = 0, pretend = 0, frame = 0
 299              		@ frame_needed = 0, uses_anonymous_args = 0
 300 0000 08B5     		push	{r3, lr}
 301 0002 D0F81406 		ldr	r0, [r0, #1556]
 302 0006 FFF7FEFF 		bl	HAL_HCD_Start
 303 000a 0020     		movs	r0, #0
 304 000c 08BD     		pop	{r3, pc}
 306 000e 00BF     		.section	.text.USBH_LL_Stop,"ax",%progbits
 307              		.align	1
ARM GAS  /var/folders/lp/x54gwt890xv47sdkqj1k04q40000gn/T//ccBMM1tV.s 			page 6


 308              		.p2align 2,,3
 309              		.global	USBH_LL_Stop
 310              		.syntax unified
 311              		.thumb
 312              		.thumb_func
 314              	USBH_LL_Stop:
 315              		@ args = 0, pretend = 0, frame = 0
 316              		@ frame_needed = 0, uses_anonymous_args = 0
 317 0000 08B5     		push	{r3, lr}
 318 0002 D0F81406 		ldr	r0, [r0, #1556]
 319 0006 FFF7FEFF 		bl	HAL_HCD_Stop
 320 000a 0020     		movs	r0, #0
 321 000c 08BD     		pop	{r3, pc}
 323 000e 00BF     		.section	.text.USBH_LL_GetSpeed,"ax",%progbits
 324              		.align	1
 325              		.p2align 2,,3
 326              		.global	USBH_LL_GetSpeed
 327              		.syntax unified
 328              		.thumb
 329              		.thumb_func
 331              	USBH_LL_GetSpeed:
 332              		@ args = 0, pretend = 0, frame = 0
 333              		@ frame_needed = 0, uses_anonymous_args = 0
 334 0000 08B5     		push	{r3, lr}
 335 0002 D0F81406 		ldr	r0, [r0, #1556]
 336 0006 FFF7FEFF 		bl	HAL_HCD_GetCurrentSpeed
 337 000a 18B1     		cbz	r0, .L33
 338 000c 0228     		cmp	r0, #2
 339 000e 0CBF     		ite	eq
 340 0010 0220     		moveq	r0, #2
 341 0012 0120     		movne	r0, #1
 342              	.L33:
 343 0014 08BD     		pop	{r3, pc}
 345 0016 00BF     		.section	.text.USBH_LL_ResetPort,"ax",%progbits
 346              		.align	1
 347              		.p2align 2,,3
 348              		.global	USBH_LL_ResetPort
 349              		.syntax unified
 350              		.thumb
 351              		.thumb_func
 353              	USBH_LL_ResetPort:
 354              		@ args = 0, pretend = 0, frame = 0
 355              		@ frame_needed = 0, uses_anonymous_args = 0
 356 0000 08B5     		push	{r3, lr}
 357 0002 D0F81406 		ldr	r0, [r0, #1556]
 358 0006 FFF7FEFF 		bl	HAL_HCD_ResetPort
 359 000a 0020     		movs	r0, #0
 360 000c 08BD     		pop	{r3, pc}
 362 000e 00BF     		.section	.text.USBH_LL_GetLastXferSize,"ax",%progbits
 363              		.align	1
 364              		.p2align 2,,3
 365              		.global	USBH_LL_GetLastXferSize
 366              		.syntax unified
 367              		.thumb
 368              		.thumb_func
 370              	USBH_LL_GetLastXferSize:
 371              		@ args = 0, pretend = 0, frame = 0
ARM GAS  /var/folders/lp/x54gwt890xv47sdkqj1k04q40000gn/T//ccBMM1tV.s 			page 7


 372              		@ frame_needed = 0, uses_anonymous_args = 0
 373              		@ link register save eliminated.
 374 0000 D0F81406 		ldr	r0, [r0, #1556]
 375 0004 FFF7FEBF 		b	HAL_HCD_HC_GetXferCount
 377              		.section	.text.USBH_LL_OpenPipe,"ax",%progbits
 378              		.align	1
 379              		.p2align 2,,3
 380              		.global	USBH_LL_OpenPipe
 381              		.syntax unified
 382              		.thumb
 383              		.thumb_func
 385              	USBH_LL_OpenPipe:
 386              		@ args = 12, pretend = 0, frame = 0
 387              		@ frame_needed = 0, uses_anonymous_args = 0
 388 0000 10B5     		push	{r4, lr}
 389 0002 84B0     		sub	sp, sp, #16
 390 0004 D0F81406 		ldr	r0, [r0, #1556]
 391 0008 9DF81840 		ldrb	r4, [sp, #24]	@ zero_extendqisi2
 392 000c 0094     		str	r4, [sp]
 393 000e 9DF81C40 		ldrb	r4, [sp, #28]	@ zero_extendqisi2
 394 0012 0194     		str	r4, [sp, #4]
 395 0014 BDF82040 		ldrh	r4, [sp, #32]
 396 0018 0294     		str	r4, [sp, #8]
 397 001a FFF7FEFF 		bl	HAL_HCD_HC_Init
 398 001e 0020     		movs	r0, #0
 399 0020 04B0     		add	sp, sp, #16
 400              		@ sp needed
 401 0022 10BD     		pop	{r4, pc}
 403              		.section	.text.USBH_LL_ClosePipe,"ax",%progbits
 404              		.align	1
 405              		.p2align 2,,3
 406              		.global	USBH_LL_ClosePipe
 407              		.syntax unified
 408              		.thumb
 409              		.thumb_func
 411              	USBH_LL_ClosePipe:
 412              		@ args = 0, pretend = 0, frame = 0
 413              		@ frame_needed = 0, uses_anonymous_args = 0
 414 0000 08B5     		push	{r3, lr}
 415 0002 D0F81406 		ldr	r0, [r0, #1556]
 416 0006 FFF7FEFF 		bl	HAL_HCD_HC_Halt
 417 000a 0020     		movs	r0, #0
 418 000c 08BD     		pop	{r3, pc}
 420 000e 00BF     		.section	.text.USBH_LL_SubmitURB,"ax",%progbits
 421              		.align	1
 422              		.p2align 2,,3
 423              		.global	USBH_LL_SubmitURB
 424              		.syntax unified
 425              		.thumb
 426              		.thumb_func
 428              	USBH_LL_SubmitURB:
 429              		@ args = 16, pretend = 0, frame = 0
 430              		@ frame_needed = 0, uses_anonymous_args = 0
 431 0000 10B5     		push	{r4, lr}
 432 0002 84B0     		sub	sp, sp, #16
 433 0004 D0F81406 		ldr	r0, [r0, #1556]
 434 0008 9DF81840 		ldrb	r4, [sp, #24]	@ zero_extendqisi2
ARM GAS  /var/folders/lp/x54gwt890xv47sdkqj1k04q40000gn/T//ccBMM1tV.s 			page 8


 435 000c 0094     		str	r4, [sp]
 436 000e 079C     		ldr	r4, [sp, #28]
 437 0010 0194     		str	r4, [sp, #4]
 438 0012 BDF82040 		ldrh	r4, [sp, #32]
 439 0016 0294     		str	r4, [sp, #8]
 440 0018 9DF82440 		ldrb	r4, [sp, #36]	@ zero_extendqisi2
 441 001c 0394     		str	r4, [sp, #12]
 442 001e FFF7FEFF 		bl	HAL_HCD_HC_SubmitRequest
 443 0022 0020     		movs	r0, #0
 444 0024 04B0     		add	sp, sp, #16
 445              		@ sp needed
 446 0026 10BD     		pop	{r4, pc}
 448              		.section	.text.USBH_LL_GetURBState,"ax",%progbits
 449              		.align	1
 450              		.p2align 2,,3
 451              		.global	USBH_LL_GetURBState
 452              		.syntax unified
 453              		.thumb
 454              		.thumb_func
 456              	USBH_LL_GetURBState:
 457              		@ args = 0, pretend = 0, frame = 0
 458              		@ frame_needed = 0, uses_anonymous_args = 0
 459              		@ link register save eliminated.
 460 0000 D0F81406 		ldr	r0, [r0, #1556]
 461 0004 FFF7FEBF 		b	HAL_HCD_HC_GetURBState
 463              		.section	.text.USBH_LL_DriverVBUS,"ax",%progbits
 464              		.align	1
 465              		.p2align 2,,3
 466              		.global	USBH_LL_DriverVBUS
 467              		.syntax unified
 468              		.thumb
 469              		.thumb_func
 471              	USBH_LL_DriverVBUS:
 472              		@ args = 0, pretend = 0, frame = 0
 473              		@ frame_needed = 0, uses_anonymous_args = 0
 474 0000 08B5     		push	{r3, lr}
 475 0002 49B9     		cbnz	r1, .L48
 476 0004 0122     		movs	r2, #1
 477 0006 1146     		mov	r1, r2
 478 0008 0848     		ldr	r0, .L51
 479 000a FFF7FEFF 		bl	HAL_GPIO_WritePin
 480 000e C820     		movs	r0, #200
 481 0010 FFF7FEFF 		bl	HAL_Delay
 482 0014 0020     		movs	r0, #0
 483 0016 08BD     		pop	{r3, pc}
 484              	.L48:
 485 0018 0022     		movs	r2, #0
 486 001a 0121     		movs	r1, #1
 487 001c 0348     		ldr	r0, .L51
 488 001e FFF7FEFF 		bl	HAL_GPIO_WritePin
 489 0022 C820     		movs	r0, #200
 490 0024 FFF7FEFF 		bl	HAL_Delay
 491 0028 0020     		movs	r0, #0
 492 002a 08BD     		pop	{r3, pc}
 493              	.L52:
 494              		.align	2
 495              	.L51:
ARM GAS  /var/folders/lp/x54gwt890xv47sdkqj1k04q40000gn/T//ccBMM1tV.s 			page 9


 496 002c 00080240 		.word	1073874944
 498              		.section	.text.USBH_LL_SetToggle,"ax",%progbits
 499              		.align	1
 500              		.p2align 2,,3
 501              		.global	USBH_LL_SetToggle
 502              		.syntax unified
 503              		.thumb
 504              		.thumb_func
 506              	USBH_LL_SetToggle:
 507              		@ args = 0, pretend = 0, frame = 0
 508              		@ frame_needed = 0, uses_anonymous_args = 0
 509              		@ link register save eliminated.
 510 0000 074B     		ldr	r3, .L56
 511 0002 2C20     		movs	r0, #44
 512 0004 00FB0131 		mla	r1, r0, r1, r3
 513 0008 91F83B30 		ldrb	r3, [r1, #59]	@ zero_extendqisi2
 514 000c 1BB1     		cbz	r3, .L54
 515 000e 81F85420 		strb	r2, [r1, #84]
 516 0012 0020     		movs	r0, #0
 517 0014 7047     		bx	lr
 518              	.L54:
 519 0016 81F85520 		strb	r2, [r1, #85]
 520 001a 0020     		movs	r0, #0
 521 001c 7047     		bx	lr
 522              	.L57:
 523 001e 00BF     		.align	2
 524              	.L56:
 525 0020 00000000 		.word	hHCD
 527              		.section	.text.USBH_LL_GetToggle,"ax",%progbits
 528              		.align	1
 529              		.p2align 2,,3
 530              		.global	USBH_LL_GetToggle
 531              		.syntax unified
 532              		.thumb
 533              		.thumb_func
 535              	USBH_LL_GetToggle:
 536              		@ args = 0, pretend = 0, frame = 0
 537              		@ frame_needed = 0, uses_anonymous_args = 0
 538              		@ link register save eliminated.
 539 0000 064B     		ldr	r3, .L61
 540 0002 2C22     		movs	r2, #44
 541 0004 02FB0131 		mla	r1, r2, r1, r3
 542 0008 91F83B30 		ldrb	r3, [r1, #59]	@ zero_extendqisi2
 543 000c 13B1     		cbz	r3, .L59
 544 000e 91F85400 		ldrb	r0, [r1, #84]	@ zero_extendqisi2
 545 0012 7047     		bx	lr
 546              	.L59:
 547 0014 91F85500 		ldrb	r0, [r1, #85]	@ zero_extendqisi2
 548 0018 7047     		bx	lr
 549              	.L62:
 550 001a 00BF     		.align	2
 551              	.L61:
 552 001c 00000000 		.word	hHCD
 554              		.section	.text.USBH_Delay,"ax",%progbits
 555              		.align	1
 556              		.p2align 2,,3
 557              		.global	USBH_Delay
ARM GAS  /var/folders/lp/x54gwt890xv47sdkqj1k04q40000gn/T//ccBMM1tV.s 			page 10


 558              		.syntax unified
 559              		.thumb
 560              		.thumb_func
 562              	USBH_Delay:
 563              		@ args = 0, pretend = 0, frame = 0
 564              		@ frame_needed = 0, uses_anonymous_args = 0
 565              		@ link register save eliminated.
 566 0000 FFF7FEBF 		b	HAL_Delay
 568              		.global	hHCD
 569              		.section	.bss.hHCD,"aw",%nobits
 570              		.align	3
 573              	hHCD:
 574 0000 00000000 		.space	772
 574      00000000 
 574      00000000 
 574      00000000 
 574      00000000 
 575              		.ident	"GCC: (xPack GNU Arm Embedded GCC arm64) 13.3.1 20240614"
ARM GAS  /var/folders/lp/x54gwt890xv47sdkqj1k04q40000gn/T//ccBMM1tV.s 			page 11

