ARM GAS  /var/folders/0z/tsy30v1j4xl4_7kw94k978ww0000gn/T//ccNeox8r.s 			page 1


   1              		.cpu cortex-m4
   2              		.arch armv7e-m
   3              		.fpu fpv4-sp-d16
   4              		.eabi_attribute 27, 1
   5              		.eabi_attribute 28, 1
   6              		.eabi_attribute 20, 1
   7              		.eabi_attribute 21, 1
   8              		.eabi_attribute 23, 3
   9              		.eabi_attribute 24, 1
  10              		.eabi_attribute 25, 1
  11              		.eabi_attribute 26, 1
  12              		.eabi_attribute 30, 2
  13              		.eabi_attribute 34, 1
  14              		.eabi_attribute 18, 4
  15              		.file	"adc.c"
  16              		.text
  17              	.Ltext0:
  18              		.cfi_sections	.debug_frame
  19              		.section	.text.MX_ADC1_Init,"ax",%progbits
  20              		.align	1
  21              		.p2align 2,,3
  22              		.global	MX_ADC1_Init
  23              		.syntax unified
  24              		.thumb
  25              		.thumb_func
  27              	MX_ADC1_Init:
  28              	.LFB242:
  29              		.file 1 "Core/Src/adc.c"
   1:Core/Src/adc.c **** /* USER CODE BEGIN Header */
   2:Core/Src/adc.c **** /**
   3:Core/Src/adc.c ****   ******************************************************************************
   4:Core/Src/adc.c ****   * @file    adc.c
   5:Core/Src/adc.c ****   * @brief   This file provides code for the configuration
   6:Core/Src/adc.c ****   *          of the ADC instances.
   7:Core/Src/adc.c ****   ******************************************************************************
   8:Core/Src/adc.c ****   * @attention
   9:Core/Src/adc.c ****   *
  10:Core/Src/adc.c ****   * Copyright (c) 2023 STMicroelectronics.
  11:Core/Src/adc.c ****   * All rights reserved.
  12:Core/Src/adc.c ****   *
  13:Core/Src/adc.c ****   * This software is licensed under terms that can be found in the LICENSE file
  14:Core/Src/adc.c ****   * in the root directory of this software component.
  15:Core/Src/adc.c ****   * If no LICENSE file comes with this software, it is provided AS-IS.
  16:Core/Src/adc.c ****   *
  17:Core/Src/adc.c ****   ******************************************************************************
  18:Core/Src/adc.c ****   */
  19:Core/Src/adc.c **** /* USER CODE END Header */
  20:Core/Src/adc.c **** /* Includes ------------------------------------------------------------------*/
  21:Core/Src/adc.c **** #include "adc.h"
  22:Core/Src/adc.c **** 
  23:Core/Src/adc.c **** /* USER CODE BEGIN 0 */
  24:Core/Src/adc.c **** 
  25:Core/Src/adc.c **** /* USER CODE END 0 */
  26:Core/Src/adc.c **** 
  27:Core/Src/adc.c **** ADC_HandleTypeDef hadc1;
  28:Core/Src/adc.c **** 
  29:Core/Src/adc.c **** /* ADC1 init function */
ARM GAS  /var/folders/0z/tsy30v1j4xl4_7kw94k978ww0000gn/T//ccNeox8r.s 			page 2


  30:Core/Src/adc.c **** void MX_ADC1_Init(void)
  31:Core/Src/adc.c **** {
  30              		.loc 1 31 1 view -0
  31              		.cfi_startproc
  32              		@ args = 0, pretend = 0, frame = 16
  33              		@ frame_needed = 0, uses_anonymous_args = 0
  32:Core/Src/adc.c **** 
  33:Core/Src/adc.c ****   /* USER CODE BEGIN ADC1_Init 0 */
  34:Core/Src/adc.c **** 
  35:Core/Src/adc.c ****   /* USER CODE END ADC1_Init 0 */
  36:Core/Src/adc.c **** 
  37:Core/Src/adc.c ****   ADC_ChannelConfTypeDef sConfig = {0};
  34              		.loc 1 37 3 view .LVU1
  31:Core/Src/adc.c **** 
  35              		.loc 1 31 1 is_stmt 0 view .LVU2
  36 0000 00B5     		push	{lr}
  37              		.cfi_def_cfa_offset 4
  38              		.cfi_offset 14, -4
  38:Core/Src/adc.c **** 
  39:Core/Src/adc.c ****   /* USER CODE BEGIN ADC1_Init 1 */
  40:Core/Src/adc.c **** 
  41:Core/Src/adc.c ****   /* USER CODE END ADC1_Init 1 */
  42:Core/Src/adc.c **** 
  43:Core/Src/adc.c ****   /** Configure the global features of the ADC (Clock, Resolution, Data Alignment and number of con
  44:Core/Src/adc.c ****   */
  45:Core/Src/adc.c ****   hadc1.Instance = ADC1;
  46:Core/Src/adc.c ****   hadc1.Init.ClockPrescaler = ADC_CLOCK_SYNC_PCLK_DIV4;
  47:Core/Src/adc.c ****   hadc1.Init.Resolution = ADC_RESOLUTION_12B;
  48:Core/Src/adc.c ****   hadc1.Init.ScanConvMode = DISABLE;
  49:Core/Src/adc.c ****   hadc1.Init.ContinuousConvMode = DISABLE;
  50:Core/Src/adc.c ****   hadc1.Init.DiscontinuousConvMode = DISABLE;
  51:Core/Src/adc.c ****   hadc1.Init.ExternalTrigConvEdge = ADC_EXTERNALTRIGCONVEDGE_NONE;
  52:Core/Src/adc.c ****   hadc1.Init.ExternalTrigConv = ADC_SOFTWARE_START;
  39              		.loc 1 52 31 view .LVU3
  40 0002 9FED1B7B 		vldr.64	d7, .L14	@ int
  45:Core/Src/adc.c ****   hadc1.Init.ClockPrescaler = ADC_CLOCK_SYNC_PCLK_DIV4;
  41              		.loc 1 45 18 view .LVU4
  42 0006 1E48     		ldr	r0, .L14+16
  43 0008 1E49     		ldr	r1, .L14+20
  46:Core/Src/adc.c ****   hadc1.Init.Resolution = ADC_RESOLUTION_12B;
  44              		.loc 1 46 29 view .LVU5
  45 000a 4FF48032 		mov	r2, #65536
  37:Core/Src/adc.c **** 
  46              		.loc 1 37 26 view .LVU6
  47 000e 0023     		movs	r3, #0
  31:Core/Src/adc.c **** 
  48              		.loc 1 31 1 view .LVU7
  49 0010 85B0     		sub	sp, sp, #20
  50              		.cfi_def_cfa_offset 24
  46:Core/Src/adc.c ****   hadc1.Init.Resolution = ADC_RESOLUTION_12B;
  51              		.loc 1 46 29 view .LVU8
  52 0012 C0E90012 		strd	r1, r2, [r0]
  53              		.loc 1 52 31 view .LVU9
  54 0016 80ED0A7B 		vstr.64	d7, [r0, #40]	@ int
  53:Core/Src/adc.c ****   hadc1.Init.DataAlign = ADC_DATAALIGN_RIGHT;
  54:Core/Src/adc.c ****   hadc1.Init.NbrOfConversion = 1;
  55              		.loc 1 54 30 view .LVU10
ARM GAS  /var/folders/0z/tsy30v1j4xl4_7kw94k978ww0000gn/T//ccNeox8r.s 			page 3


  56 001a 0122     		movs	r2, #1
  37:Core/Src/adc.c **** 
  57              		.loc 1 37 26 view .LVU11
  58 001c CDE90033 		strd	r3, r3, [sp]
  59 0020 CDE90233 		strd	r3, r3, [sp, #8]
  45:Core/Src/adc.c ****   hadc1.Init.ClockPrescaler = ADC_CLOCK_SYNC_PCLK_DIV4;
  60              		.loc 1 45 3 is_stmt 1 view .LVU12
  47:Core/Src/adc.c ****   hadc1.Init.ScanConvMode = DISABLE;
  61              		.loc 1 47 3 view .LVU13
  47:Core/Src/adc.c ****   hadc1.Init.ScanConvMode = DISABLE;
  62              		.loc 1 47 25 is_stmt 0 view .LVU14
  63 0024 8360     		str	r3, [r0, #8]
  48:Core/Src/adc.c ****   hadc1.Init.ContinuousConvMode = DISABLE;
  64              		.loc 1 48 3 is_stmt 1 view .LVU15
  48:Core/Src/adc.c ****   hadc1.Init.ContinuousConvMode = DISABLE;
  65              		.loc 1 48 27 is_stmt 0 view .LVU16
  66 0026 0361     		str	r3, [r0, #16]
  49:Core/Src/adc.c ****   hadc1.Init.DiscontinuousConvMode = DISABLE;
  67              		.loc 1 49 3 is_stmt 1 view .LVU17
  49:Core/Src/adc.c ****   hadc1.Init.DiscontinuousConvMode = DISABLE;
  68              		.loc 1 49 33 is_stmt 0 view .LVU18
  69 0028 0376     		strb	r3, [r0, #24]
  50:Core/Src/adc.c ****   hadc1.Init.ExternalTrigConvEdge = ADC_EXTERNALTRIGCONVEDGE_NONE;
  70              		.loc 1 50 3 is_stmt 1 view .LVU19
  50:Core/Src/adc.c ****   hadc1.Init.ExternalTrigConvEdge = ADC_EXTERNALTRIGCONVEDGE_NONE;
  71              		.loc 1 50 36 is_stmt 0 view .LVU20
  72 002a 80F82030 		strb	r3, [r0, #32]
  51:Core/Src/adc.c ****   hadc1.Init.ExternalTrigConv = ADC_SOFTWARE_START;
  73              		.loc 1 51 3 is_stmt 1 view .LVU21
  52:Core/Src/adc.c ****   hadc1.Init.DataAlign = ADC_DATAALIGN_RIGHT;
  74              		.loc 1 52 3 view .LVU22
  53:Core/Src/adc.c ****   hadc1.Init.NbrOfConversion = 1;
  75              		.loc 1 53 3 view .LVU23
  53:Core/Src/adc.c ****   hadc1.Init.NbrOfConversion = 1;
  76              		.loc 1 53 24 is_stmt 0 view .LVU24
  77 002e C360     		str	r3, [r0, #12]
  78              		.loc 1 54 3 is_stmt 1 view .LVU25
  79              		.loc 1 54 30 is_stmt 0 view .LVU26
  80 0030 C261     		str	r2, [r0, #28]
  55:Core/Src/adc.c ****   hadc1.Init.DMAContinuousRequests = DISABLE;
  81              		.loc 1 55 3 is_stmt 1 view .LVU27
  82              		.loc 1 55 36 is_stmt 0 view .LVU28
  83 0032 80F83030 		strb	r3, [r0, #48]
  56:Core/Src/adc.c ****   hadc1.Init.EOCSelection = ADC_EOC_SINGLE_CONV;
  84              		.loc 1 56 3 is_stmt 1 view .LVU29
  85              		.loc 1 56 27 is_stmt 0 view .LVU30
  86 0036 4261     		str	r2, [r0, #20]
  57:Core/Src/adc.c ****   if (HAL_ADC_Init(&hadc1) != HAL_OK)
  87              		.loc 1 57 3 is_stmt 1 view .LVU31
  88              		.loc 1 57 7 is_stmt 0 view .LVU32
  89 0038 FFF7FEFF 		bl	HAL_ADC_Init
  90              	.LVL0:
  91              		.loc 1 57 6 view .LVU33
  92 003c 68B9     		cbnz	r0, .L12
  93              	.L2:
  58:Core/Src/adc.c ****   {
  59:Core/Src/adc.c ****     Error_Handler();
ARM GAS  /var/folders/0z/tsy30v1j4xl4_7kw94k978ww0000gn/T//ccNeox8r.s 			page 4


  60:Core/Src/adc.c ****   }
  61:Core/Src/adc.c **** 
  62:Core/Src/adc.c ****   /** Configure for the selected ADC regular channel its corresponding rank in the sequencer and it
  63:Core/Src/adc.c ****   */
  64:Core/Src/adc.c ****   sConfig.Channel = ADC_CHANNEL_11;
  94              		.loc 1 64 3 is_stmt 1 view .LVU34
  65:Core/Src/adc.c ****   sConfig.Rank = 1;
  95              		.loc 1 65 3 view .LVU35
  64:Core/Src/adc.c ****   sConfig.Rank = 1;
  96              		.loc 1 64 19 is_stmt 0 view .LVU36
  97 003e 9FED0E7B 		vldr.64	d7, .L14+8	@ int
  66:Core/Src/adc.c ****   sConfig.SamplingTime = ADC_SAMPLETIME_3CYCLES;
  98              		.loc 1 66 24 view .LVU37
  99 0042 0023     		movs	r3, #0
  67:Core/Src/adc.c ****   if (HAL_ADC_ConfigChannel(&hadc1, &sConfig) != HAL_OK)
 100              		.loc 1 67 7 view .LVU38
 101 0044 0E48     		ldr	r0, .L14+16
  66:Core/Src/adc.c ****   sConfig.SamplingTime = ADC_SAMPLETIME_3CYCLES;
 102              		.loc 1 66 24 view .LVU39
 103 0046 0293     		str	r3, [sp, #8]
 104              		.loc 1 67 7 view .LVU40
 105 0048 6946     		mov	r1, sp
  64:Core/Src/adc.c ****   sConfig.Rank = 1;
 106              		.loc 1 64 19 view .LVU41
 107 004a 8DED007B 		vstr.64	d7, [sp]	@ int
  66:Core/Src/adc.c ****   sConfig.SamplingTime = ADC_SAMPLETIME_3CYCLES;
 108              		.loc 1 66 3 is_stmt 1 view .LVU42
 109              		.loc 1 67 3 view .LVU43
 110              		.loc 1 67 7 is_stmt 0 view .LVU44
 111 004e FFF7FEFF 		bl	HAL_ADC_ConfigChannel
 112              	.LVL1:
 113              		.loc 1 67 6 view .LVU45
 114 0052 28B9     		cbnz	r0, .L13
  68:Core/Src/adc.c ****   {
  69:Core/Src/adc.c ****     Error_Handler();
  70:Core/Src/adc.c ****   }
  71:Core/Src/adc.c ****   /* USER CODE BEGIN ADC1_Init 2 */
  72:Core/Src/adc.c **** 
  73:Core/Src/adc.c ****   /* USER CODE END ADC1_Init 2 */
  74:Core/Src/adc.c **** 
  75:Core/Src/adc.c **** }
 115              		.loc 1 75 1 view .LVU46
 116 0054 05B0     		add	sp, sp, #20
 117              		.cfi_remember_state
 118              		.cfi_def_cfa_offset 4
 119              		@ sp needed
 120 0056 5DF804FB 		ldr	pc, [sp], #4
 121              	.L12:
 122              		.cfi_restore_state
  59:Core/Src/adc.c ****   }
 123              		.loc 1 59 5 is_stmt 1 view .LVU47
 124 005a FFF7FEFF 		bl	Error_Handler
 125              	.LVL2:
 126 005e EEE7     		b	.L2
 127              	.L13:
  69:Core/Src/adc.c ****   }
 128              		.loc 1 69 5 view .LVU48
ARM GAS  /var/folders/0z/tsy30v1j4xl4_7kw94k978ww0000gn/T//ccNeox8r.s 			page 5


 129 0060 FFF7FEFF 		bl	Error_Handler
 130              	.LVL3:
 131              		.loc 1 75 1 is_stmt 0 view .LVU49
 132 0064 05B0     		add	sp, sp, #20
 133              		.cfi_def_cfa_offset 4
 134              		@ sp needed
 135 0066 5DF804FB 		ldr	pc, [sp], #4
 136              	.L15:
 137 006a 00BFAFF3 		.align	3
 137      0080
 138              	.L14:
 139 0070 0100000F 		.word	251658241
 140 0074 00000000 		.word	0
 141 0078 0B000000 		.word	11
 142 007c 01000000 		.word	1
 143 0080 00000000 		.word	.LANCHOR0
 144 0084 00200140 		.word	1073815552
 145              		.cfi_endproc
 146              	.LFE242:
 148              		.section	.text.HAL_ADC_MspInit,"ax",%progbits
 149              		.align	1
 150              		.p2align 2,,3
 151              		.global	HAL_ADC_MspInit
 152              		.syntax unified
 153              		.thumb
 154              		.thumb_func
 156              	HAL_ADC_MspInit:
 157              	.LVL4:
 158              	.LFB243:
  76:Core/Src/adc.c **** 
  77:Core/Src/adc.c **** void HAL_ADC_MspInit(ADC_HandleTypeDef* adcHandle)
  78:Core/Src/adc.c **** {
 159              		.loc 1 78 1 is_stmt 1 view -0
 160              		.cfi_startproc
 161              		@ args = 0, pretend = 0, frame = 32
 162              		@ frame_needed = 0, uses_anonymous_args = 0
  79:Core/Src/adc.c **** 
  80:Core/Src/adc.c ****   GPIO_InitTypeDef GPIO_InitStruct = {0};
 163              		.loc 1 80 3 view .LVU51
  78:Core/Src/adc.c **** 
 164              		.loc 1 78 1 is_stmt 0 view .LVU52
 165 0000 00B5     		push	{lr}
 166              		.cfi_def_cfa_offset 4
 167              		.cfi_offset 14, -4
  81:Core/Src/adc.c ****   if(adcHandle->Instance==ADC1)
 168              		.loc 1 81 5 view .LVU53
 169 0002 194A     		ldr	r2, .L20+8
 170 0004 0168     		ldr	r1, [r0]
  78:Core/Src/adc.c **** 
 171              		.loc 1 78 1 view .LVU54
 172 0006 89B0     		sub	sp, sp, #36
 173              		.cfi_def_cfa_offset 40
  80:Core/Src/adc.c ****   if(adcHandle->Instance==ADC1)
 174              		.loc 1 80 20 view .LVU55
 175 0008 0023     		movs	r3, #0
 176              		.loc 1 81 5 view .LVU56
 177 000a 9142     		cmp	r1, r2
ARM GAS  /var/folders/0z/tsy30v1j4xl4_7kw94k978ww0000gn/T//ccNeox8r.s 			page 6


  80:Core/Src/adc.c ****   if(adcHandle->Instance==ADC1)
 178              		.loc 1 80 20 view .LVU57
 179 000c CDE90233 		strd	r3, r3, [sp, #8]
 180 0010 CDE90433 		strd	r3, r3, [sp, #16]
 181 0014 0693     		str	r3, [sp, #24]
 182              		.loc 1 81 3 is_stmt 1 view .LVU58
 183              		.loc 1 81 5 is_stmt 0 view .LVU59
 184 0016 02D0     		beq	.L19
  82:Core/Src/adc.c ****   {
  83:Core/Src/adc.c ****   /* USER CODE BEGIN ADC1_MspInit 0 */
  84:Core/Src/adc.c **** 
  85:Core/Src/adc.c ****   /* USER CODE END ADC1_MspInit 0 */
  86:Core/Src/adc.c ****     /* ADC1 clock enable */
  87:Core/Src/adc.c ****     __HAL_RCC_ADC1_CLK_ENABLE();
  88:Core/Src/adc.c **** 
  89:Core/Src/adc.c ****     __HAL_RCC_GPIOC_CLK_ENABLE();
  90:Core/Src/adc.c ****     /**ADC1 GPIO Configuration
  91:Core/Src/adc.c ****     PC1     ------> ADC1_IN11
  92:Core/Src/adc.c ****     */
  93:Core/Src/adc.c ****     GPIO_InitStruct.Pin = GPIO_PIN_1;
  94:Core/Src/adc.c ****     GPIO_InitStruct.Mode = GPIO_MODE_ANALOG;
  95:Core/Src/adc.c ****     GPIO_InitStruct.Pull = GPIO_NOPULL;
  96:Core/Src/adc.c ****     HAL_GPIO_Init(GPIOC, &GPIO_InitStruct);
  97:Core/Src/adc.c **** 
  98:Core/Src/adc.c ****   /* USER CODE BEGIN ADC1_MspInit 1 */
  99:Core/Src/adc.c **** 
 100:Core/Src/adc.c ****   /* USER CODE END ADC1_MspInit 1 */
 101:Core/Src/adc.c ****   }
 102:Core/Src/adc.c **** }
 185              		.loc 1 102 1 view .LVU60
 186 0018 09B0     		add	sp, sp, #36
 187              		.cfi_remember_state
 188              		.cfi_def_cfa_offset 4
 189              		@ sp needed
 190 001a 5DF804FB 		ldr	pc, [sp], #4
 191              	.L19:
 192              		.cfi_restore_state
  87:Core/Src/adc.c **** 
 193              		.loc 1 87 5 is_stmt 1 view .LVU61
 194              	.LBB2:
  87:Core/Src/adc.c **** 
 195              		.loc 1 87 5 view .LVU62
 196 001e 02F58C32 		add	r2, r2, #71680
 197 0022 0093     		str	r3, [sp]
  87:Core/Src/adc.c **** 
 198              		.loc 1 87 5 view .LVU63
 199 0024 506C     		ldr	r0, [r2, #68]
 200              	.LVL5:
  87:Core/Src/adc.c **** 
 201              		.loc 1 87 5 is_stmt 0 view .LVU64
 202 0026 40F48070 		orr	r0, r0, #256
 203 002a 5064     		str	r0, [r2, #68]
  87:Core/Src/adc.c **** 
 204              		.loc 1 87 5 is_stmt 1 view .LVU65
 205 002c 506C     		ldr	r0, [r2, #68]
 206 002e 00F48070 		and	r0, r0, #256
 207 0032 0090     		str	r0, [sp]
ARM GAS  /var/folders/0z/tsy30v1j4xl4_7kw94k978ww0000gn/T//ccNeox8r.s 			page 7


  87:Core/Src/adc.c **** 
 208              		.loc 1 87 5 view .LVU66
 209 0034 0098     		ldr	r0, [sp]
 210              	.LBE2:
  87:Core/Src/adc.c **** 
 211              		.loc 1 87 5 view .LVU67
  89:Core/Src/adc.c ****     /**ADC1 GPIO Configuration
 212              		.loc 1 89 5 view .LVU68
 213              	.LBB3:
  89:Core/Src/adc.c ****     /**ADC1 GPIO Configuration
 214              		.loc 1 89 5 view .LVU69
 215 0036 0193     		str	r3, [sp, #4]
  89:Core/Src/adc.c ****     /**ADC1 GPIO Configuration
 216              		.loc 1 89 5 view .LVU70
 217 0038 136B     		ldr	r3, [r2, #48]
 218              	.LBE3:
  96:Core/Src/adc.c **** 
 219              		.loc 1 96 5 is_stmt 0 view .LVU71
 220 003a 0C48     		ldr	r0, .L20+12
 221              	.LBB4:
  89:Core/Src/adc.c ****     /**ADC1 GPIO Configuration
 222              		.loc 1 89 5 view .LVU72
 223 003c 43F00403 		orr	r3, r3, #4
 224 0040 1363     		str	r3, [r2, #48]
  89:Core/Src/adc.c ****     /**ADC1 GPIO Configuration
 225              		.loc 1 89 5 is_stmt 1 view .LVU73
 226 0042 136B     		ldr	r3, [r2, #48]
 227              	.LBE4:
  93:Core/Src/adc.c ****     GPIO_InitStruct.Mode = GPIO_MODE_ANALOG;
 228              		.loc 1 93 25 is_stmt 0 view .LVU74
 229 0044 9FED067B 		vldr.64	d7, .L20	@ int
 230              	.LBB5:
  89:Core/Src/adc.c ****     /**ADC1 GPIO Configuration
 231              		.loc 1 89 5 view .LVU75
 232 0048 03F00403 		and	r3, r3, #4
 233 004c 0193     		str	r3, [sp, #4]
  89:Core/Src/adc.c ****     /**ADC1 GPIO Configuration
 234              		.loc 1 89 5 is_stmt 1 view .LVU76
 235              	.LBE5:
  96:Core/Src/adc.c **** 
 236              		.loc 1 96 5 is_stmt 0 view .LVU77
 237 004e 02A9     		add	r1, sp, #8
  93:Core/Src/adc.c ****     GPIO_InitStruct.Mode = GPIO_MODE_ANALOG;
 238              		.loc 1 93 25 view .LVU78
 239 0050 8DED027B 		vstr.64	d7, [sp, #8]	@ int
 240              	.LBB6:
  89:Core/Src/adc.c ****     /**ADC1 GPIO Configuration
 241              		.loc 1 89 5 view .LVU79
 242 0054 019B     		ldr	r3, [sp, #4]
 243              	.LBE6:
  89:Core/Src/adc.c ****     /**ADC1 GPIO Configuration
 244              		.loc 1 89 5 is_stmt 1 view .LVU80
  93:Core/Src/adc.c ****     GPIO_InitStruct.Mode = GPIO_MODE_ANALOG;
 245              		.loc 1 93 5 view .LVU81
  94:Core/Src/adc.c ****     GPIO_InitStruct.Pull = GPIO_NOPULL;
 246              		.loc 1 94 5 view .LVU82
  95:Core/Src/adc.c ****     HAL_GPIO_Init(GPIOC, &GPIO_InitStruct);
ARM GAS  /var/folders/0z/tsy30v1j4xl4_7kw94k978ww0000gn/T//ccNeox8r.s 			page 8


 247              		.loc 1 95 5 view .LVU83
  96:Core/Src/adc.c **** 
 248              		.loc 1 96 5 view .LVU84
 249 0056 FFF7FEFF 		bl	HAL_GPIO_Init
 250              	.LVL6:
 251              		.loc 1 102 1 is_stmt 0 view .LVU85
 252 005a 09B0     		add	sp, sp, #36
 253              		.cfi_def_cfa_offset 4
 254              		@ sp needed
 255 005c 5DF804FB 		ldr	pc, [sp], #4
 256              	.L21:
 257              		.align	3
 258              	.L20:
 259 0060 02000000 		.word	2
 260 0064 03000000 		.word	3
 261 0068 00200140 		.word	1073815552
 262 006c 00080240 		.word	1073874944
 263              		.cfi_endproc
 264              	.LFE243:
 266              		.section	.text.HAL_ADC_MspDeInit,"ax",%progbits
 267              		.align	1
 268              		.p2align 2,,3
 269              		.global	HAL_ADC_MspDeInit
 270              		.syntax unified
 271              		.thumb
 272              		.thumb_func
 274              	HAL_ADC_MspDeInit:
 275              	.LVL7:
 276              	.LFB244:
 103:Core/Src/adc.c **** 
 104:Core/Src/adc.c **** void HAL_ADC_MspDeInit(ADC_HandleTypeDef* adcHandle)
 105:Core/Src/adc.c **** {
 277              		.loc 1 105 1 is_stmt 1 view -0
 278              		.cfi_startproc
 279              		@ args = 0, pretend = 0, frame = 0
 280              		@ frame_needed = 0, uses_anonymous_args = 0
 281              		@ link register save eliminated.
 106:Core/Src/adc.c **** 
 107:Core/Src/adc.c ****   if(adcHandle->Instance==ADC1)
 282              		.loc 1 107 3 view .LVU87
 283              		.loc 1 107 5 is_stmt 0 view .LVU88
 284 0000 064B     		ldr	r3, .L25
 285 0002 0268     		ldr	r2, [r0]
 286 0004 9A42     		cmp	r2, r3
 287 0006 00D0     		beq	.L24
 108:Core/Src/adc.c ****   {
 109:Core/Src/adc.c ****   /* USER CODE BEGIN ADC1_MspDeInit 0 */
 110:Core/Src/adc.c **** 
 111:Core/Src/adc.c ****   /* USER CODE END ADC1_MspDeInit 0 */
 112:Core/Src/adc.c ****     /* Peripheral clock disable */
 113:Core/Src/adc.c ****     __HAL_RCC_ADC1_CLK_DISABLE();
 114:Core/Src/adc.c **** 
 115:Core/Src/adc.c ****     /**ADC1 GPIO Configuration
 116:Core/Src/adc.c ****     PC1     ------> ADC1_IN11
 117:Core/Src/adc.c ****     */
 118:Core/Src/adc.c ****     HAL_GPIO_DeInit(GPIOC, GPIO_PIN_1);
 119:Core/Src/adc.c **** 
ARM GAS  /var/folders/0z/tsy30v1j4xl4_7kw94k978ww0000gn/T//ccNeox8r.s 			page 9


 120:Core/Src/adc.c ****   /* USER CODE BEGIN ADC1_MspDeInit 1 */
 121:Core/Src/adc.c **** 
 122:Core/Src/adc.c ****   /* USER CODE END ADC1_MspDeInit 1 */
 123:Core/Src/adc.c ****   }
 124:Core/Src/adc.c **** }
 288              		.loc 1 124 1 view .LVU89
 289 0008 7047     		bx	lr
 290              	.L24:
 113:Core/Src/adc.c **** 
 291              		.loc 1 113 5 is_stmt 1 view .LVU90
 292 000a 054A     		ldr	r2, .L25+4
 118:Core/Src/adc.c **** 
 293              		.loc 1 118 5 is_stmt 0 view .LVU91
 294 000c 0548     		ldr	r0, .L25+8
 295              	.LVL8:
 113:Core/Src/adc.c **** 
 296              		.loc 1 113 5 view .LVU92
 297 000e 536C     		ldr	r3, [r2, #68]
 298 0010 23F48073 		bic	r3, r3, #256
 118:Core/Src/adc.c **** 
 299              		.loc 1 118 5 view .LVU93
 300 0014 0221     		movs	r1, #2
 113:Core/Src/adc.c **** 
 301              		.loc 1 113 5 view .LVU94
 302 0016 5364     		str	r3, [r2, #68]
 118:Core/Src/adc.c **** 
 303              		.loc 1 118 5 is_stmt 1 view .LVU95
 304 0018 FFF7FEBF 		b	HAL_GPIO_DeInit
 305              	.LVL9:
 306              	.L26:
 307              		.align	2
 308              	.L25:
 309 001c 00200140 		.word	1073815552
 310 0020 00380240 		.word	1073887232
 311 0024 00080240 		.word	1073874944
 312              		.cfi_endproc
 313              	.LFE244:
 315              		.global	hadc1
 316              		.section	.bss.hadc1,"aw",%nobits
 317              		.align	3
 318              		.set	.LANCHOR0,. + 0
 321              	hadc1:
 322 0000 00000000 		.space	72
 322      00000000 
 322      00000000 
 322      00000000 
 322      00000000 
 323              		.text
 324              	.Letext0:
 325              		.file 2 "/Users/johannes/Library/Application Support/Code/User/globalStorage/bmd.stm32-for-vscode/
 326              		.file 3 "/Users/johannes/Library/Application Support/Code/User/globalStorage/bmd.stm32-for-vscode/
 327              		.file 4 "Drivers/CMSIS/Device/ST/STM32F4xx/Include/stm32f407xx.h"
 328              		.file 5 "Drivers/CMSIS/Device/ST/STM32F4xx/Include/stm32f4xx.h"
 329              		.file 6 "Drivers/STM32F4xx_HAL_Driver/Inc/stm32f4xx_hal_def.h"
 330              		.file 7 "Drivers/STM32F4xx_HAL_Driver/Inc/stm32f4xx_hal_gpio.h"
 331              		.file 8 "Drivers/STM32F4xx_HAL_Driver/Inc/stm32f4xx_hal_dma.h"
 332              		.file 9 "Drivers/STM32F4xx_HAL_Driver/Inc/stm32f4xx_hal_adc.h"
ARM GAS  /var/folders/0z/tsy30v1j4xl4_7kw94k978ww0000gn/T//ccNeox8r.s 			page 10


 333              		.file 10 "Core/Inc/adc.h"
 334              		.file 11 "Core/Inc/main.h"
ARM GAS  /var/folders/0z/tsy30v1j4xl4_7kw94k978ww0000gn/T//ccNeox8r.s 			page 11


DEFINED SYMBOLS
                            *ABS*:0000000000000000 adc.c
/var/folders/0z/tsy30v1j4xl4_7kw94k978ww0000gn/T//ccNeox8r.s:20     .text.MX_ADC1_Init:0000000000000000 $t
/var/folders/0z/tsy30v1j4xl4_7kw94k978ww0000gn/T//ccNeox8r.s:27     .text.MX_ADC1_Init:0000000000000000 MX_ADC1_Init
/var/folders/0z/tsy30v1j4xl4_7kw94k978ww0000gn/T//ccNeox8r.s:139    .text.MX_ADC1_Init:0000000000000070 $d
/var/folders/0z/tsy30v1j4xl4_7kw94k978ww0000gn/T//ccNeox8r.s:149    .text.HAL_ADC_MspInit:0000000000000000 $t
/var/folders/0z/tsy30v1j4xl4_7kw94k978ww0000gn/T//ccNeox8r.s:156    .text.HAL_ADC_MspInit:0000000000000000 HAL_ADC_MspInit
/var/folders/0z/tsy30v1j4xl4_7kw94k978ww0000gn/T//ccNeox8r.s:259    .text.HAL_ADC_MspInit:0000000000000060 $d
/var/folders/0z/tsy30v1j4xl4_7kw94k978ww0000gn/T//ccNeox8r.s:267    .text.HAL_ADC_MspDeInit:0000000000000000 $t
/var/folders/0z/tsy30v1j4xl4_7kw94k978ww0000gn/T//ccNeox8r.s:274    .text.HAL_ADC_MspDeInit:0000000000000000 HAL_ADC_MspDeInit
/var/folders/0z/tsy30v1j4xl4_7kw94k978ww0000gn/T//ccNeox8r.s:309    .text.HAL_ADC_MspDeInit:000000000000001c $d
/var/folders/0z/tsy30v1j4xl4_7kw94k978ww0000gn/T//ccNeox8r.s:321    .bss.hadc1:0000000000000000 hadc1
/var/folders/0z/tsy30v1j4xl4_7kw94k978ww0000gn/T//ccNeox8r.s:317    .bss.hadc1:0000000000000000 $d

UNDEFINED SYMBOLS
HAL_ADC_Init
HAL_ADC_ConfigChannel
Error_Handler
HAL_GPIO_Init
HAL_GPIO_DeInit
