ARM GAS  /var/folders/0z/tsy30v1j4xl4_7kw94k978ww0000gn/T//ccNYdEij.s 			page 1


   1              		.cpu cortex-m4
   2              		.arch armv7e-m
   3              		.fpu fpv4-sp-d16
   4              		.eabi_attribute 27, 1
   5              		.eabi_attribute 28, 1
   6              		.eabi_attribute 20, 1
   7              		.eabi_attribute 21, 1
   8              		.eabi_attribute 23, 3
   9              		.eabi_attribute 24, 1
  10              		.eabi_attribute 25, 1
  11              		.eabi_attribute 26, 1
  12              		.eabi_attribute 30, 2
  13              		.eabi_attribute 34, 1
  14              		.eabi_attribute 18, 4
  15              		.file	"audio.c"
  16              		.text
  17              	.Ltext0:
  18              		.cfi_sections	.debug_frame
  19              		.global	__aeabi_f2d
  20              		.global	__aeabi_dsub
  21              		.global	__aeabi_d2f
  22              		.global	__aeabi_dmul
  23              		.global	__aeabi_dadd
  24              		.section	.text.audioBlock.constprop.0,"ax",%progbits
  25              		.align	1
  26              		.p2align 2,,3
  27              		.syntax unified
  28              		.thumb
  29              		.thumb_func
  31              	audioBlock.constprop.0:
  32              	.LVL0:
  33              	.LFB143:
  34              		.file 1 "Core/Src/audio.c"
   1:Core/Src/audio.c **** /**
   2:Core/Src/audio.c ****  * @file audio.c
   3:Core/Src/audio.c ****  * @author johannes regnier
   4:Core/Src/audio.c ****  * @brief Functions to make sound and main audio block function 
   5:Core/Src/audio.c ****  * @note  Essential initialization functions from Tom Erbe:	
   6:Core/Src/audio.c ****  * @note  http://synthnotes.ucsd.edu/wp4/index.php/2019/09/24/setting-up-the-stmf4-to-connect-to-th
   7:Core/Src/audio.c ****  * @version 0.1
   8:Core/Src/audio.c ****  * @date 2023-12-12
   9:Core/Src/audio.c ****  * 
  10:Core/Src/audio.c ****  * @copyright Copyright (c) 2023
  11:Core/Src/audio.c ****  * 
  12:Core/Src/audio.c ****  */
  13:Core/Src/audio.c **** 
  14:Core/Src/audio.c **** 
  15:Core/Src/audio.c **** #include <stdint.h>
  16:Core/Src/audio.c **** #include "audio.h"
  17:Core/Src/audio.c **** #include "oscillators.h"
  18:Core/Src/audio.c **** #include "ADSR_envelope.h"
  19:Core/Src/audio.c **** #include "ladder_filter.h"
  20:Core/Src/audio.c **** #include "bitcrusher.h"
  21:Core/Src/audio.c **** #include "stereo_delay.h"
  22:Core/Src/audio.c **** #include "MIDI_lut.h"
  23:Core/Src/audio.c **** #include <stdint.h>
  24:Core/Src/audio.c **** #include "helper_functions.h"
ARM GAS  /var/folders/0z/tsy30v1j4xl4_7kw94k978ww0000gn/T//ccNYdEij.s 			page 2


  25:Core/Src/audio.c **** #include "stdlib.h"
  26:Core/Src/audio.c **** 
  27:Core/Src/audio.c **** 
  28:Core/Src/audio.c **** 
  29:Core/Src/audio.c **** 
  30:Core/Src/audio.c **** 
  31:Core/Src/audio.c **** /**
  32:Core/Src/audio.c ****  * @brief Audio Buffer - x samples X 2 channels = 2 * x samples
  33:Core/Src/audio.c ****  * @note Channels are interleaved - LRLRLRLRLRLRLRLRLRLRLR - audioBuffer[frame << 1] audioBuffer[(f
  34:Core/Src/audio.c ****  */
  35:Core/Src/audio.c **** int16_t audioBuffer[BUFFER_SIZE]; 
  36:Core/Src/audio.c **** 
  37:Core/Src/audio.c **** 
  38:Core/Src/audio.c **** extern uint8_t currentPitch;
  39:Core/Src/audio.c **** extern uint8_t velocity;
  40:Core/Src/audio.c **** extern ADSR_t adsr_amp, adsr_filt;
  41:Core/Src/audio.c **** extern ADSR_t adsr_index;
  42:Core/Src/audio.c **** extern ZDFLadder_t Moog_filter;
  43:Core/Src/audio.c **** extern oscillator_t osc1, osc2, osc3, osc4, sub_osc;
  44:Core/Src/audio.c **** 
  45:Core/Src/audio.c **** 
  46:Core/Src/audio.c **** static float f0;			// frequency of oscillators 1 & 2
  47:Core/Src/audio.c **** static float f_sub ;		// frequency of sub oscillator
  48:Core/Src/audio.c **** static float amp_env ;		// amplitude envelope
  49:Core/Src/audio.c **** static float filt_env ;		// filter envelope
  50:Core/Src/audio.c **** static float index_env ;	// FM index envelope
  51:Core/Src/audio.c **** 
  52:Core/Src/audio.c **** float delayLOut = 0 ;		// left output of ping pong delay
  53:Core/Src/audio.c **** float delayROut = 0;		// right output of ping pong delay
  54:Core/Src/audio.c **** 
  55:Core/Src/audio.c **** 
  56:Core/Src/audio.c **** 
  57:Core/Src/audio.c **** 
  58:Core/Src/audio.c **** /**
  59:Core/Src/audio.c ****  * @brief Initialize audio
  60:Core/Src/audio.c ****  * 
  61:Core/Src/audio.c ****  */
  62:Core/Src/audio.c **** void AUDIO_Init()
  63:Core/Src/audio.c **** {
  64:Core/Src/audio.c ****     BSP_AUDIO_OUT_Init(OUTPUT_DEVICE_HEADPHONE, INITIAL_VOLUME, FS);
  65:Core/Src/audio.c **** 
  66:Core/Src/audio.c **** 	/**
  67:Core/Src/audio.c **** 	 * @brief Ping pong buffer
  68:Core/Src/audio.c **** 	 * @note While one audiobuffer is transmitted via DMA, another one is computed
  69:Core/Src/audio.c **** 	 * @note Hence size = 2 * (audiobuffer size)
  70:Core/Src/audio.c **** 	 */
  71:Core/Src/audio.c **** 	BSP_AUDIO_OUT_Play((uint16_t *)&audioBuffer[0], 2*BUFFER_SIZE); 
  72:Core/Src/audio.c **** 
  73:Core/Src/audio.c **** 	
  74:Core/Src/audio.c **** 	
  75:Core/Src/audio.c **** 	osc_init(&osc1, 0.5, 1000, 0, 0, 0.5);
  76:Core/Src/audio.c **** 	osc_init(&osc2, 0.5, 440, 0, 2, 0.5);
  77:Core/Src/audio.c **** 	osc_init(&osc3, 0.5, 1000, 0, 0, 0.5);
  78:Core/Src/audio.c **** 	osc_init(&osc4, 0.5, 440, 0, 0, 0.5);
  79:Core/Src/audio.c **** 	osc_init(&sub_osc, 0.5, 440, 0, 0, 0.5);
  80:Core/Src/audio.c **** 
  81:Core/Src/audio.c **** 
ARM GAS  /var/folders/0z/tsy30v1j4xl4_7kw94k978ww0000gn/T//ccNYdEij.s 			page 3


  82:Core/Src/audio.c **** 	ADSR_init(&adsr_amp);
  83:Core/Src/audio.c **** 	ADSR_init(&adsr_filt);
  84:Core/Src/audio.c **** 	ADSR_init(&adsr_index);
  85:Core/Src/audio.c **** 	MoogLP_init(&Moog_filter);
  86:Core/Src/audio.c **** 	Delay_init();
  87:Core/Src/audio.c **** 	
  88:Core/Src/audio.c **** }
  89:Core/Src/audio.c **** 
  90:Core/Src/audio.c **** void OpSetFreq(oscillator_t * op, float f)
  91:Core/Src/audio.c **** {
  92:Core/Src/audio.c **** 	op->freq = A0 * f;
  93:Core/Src/audio.c **** }
  94:Core/Src/audio.c **** 
  95:Core/Src/audio.c **** 
  96:Core/Src/audio.c **** 
  97:Core/Src/audio.c **** /**
  98:Core/Src/audio.c ****  * @brief Main audio function. This is where the audio samples are computed, then the audio buffer 
  99:Core/Src/audio.c ****  * 
 100:Core/Src/audio.c ****  * @param buffer 
 101:Core/Src/audio.c ****  * @param samples 
 102:Core/Src/audio.c ****  */
 103:Core/Src/audio.c **** void audioBlock(int16_t *buffer, uint16_t samples)
  35              		.loc 1 103 6 view -0
  36              		.cfi_startproc
  37              		@ args = 0, pretend = 0, frame = 0
  38              		@ frame_needed = 0, uses_anonymous_args = 0
 104:Core/Src/audio.c **** {
 105:Core/Src/audio.c **** 	int i;
 106:Core/Src/audio.c **** 	int16_t *output;
 107:Core/Src/audio.c **** 	output = buffer;
 108:Core/Src/audio.c **** 	float sample, sampleL, sampleR;
 109:Core/Src/audio.c **** 	uint16_t valueL, valueR;
 110:Core/Src/audio.c **** 	
 111:Core/Src/audio.c **** 	for (i = 0; i < samples; i++)
  39              		.loc 1 111 16 view .LVU1
 103:Core/Src/audio.c **** {
  40              		.loc 1 103 6 is_stmt 0 view .LVU2
  41 0000 2DE9F84F 		push	{r3, r4, r5, r6, r7, r8, r9, r10, fp, lr}
  42              		.cfi_def_cfa_offset 40
  43              		.cfi_offset 3, -40
  44              		.cfi_offset 4, -36
  45              		.cfi_offset 5, -32
  46              		.cfi_offset 6, -28
  47              		.cfi_offset 7, -24
  48              		.cfi_offset 8, -20
  49              		.cfi_offset 9, -16
  50              		.cfi_offset 10, -12
  51              		.cfi_offset 11, -8
  52              		.cfi_offset 14, -4
  53 0004 DFF88892 		ldr	r9, .L17+88
  54 0008 DFF88882 		ldr	r8, .L17+92
  55 000c 8E4D     		ldr	r5, .L17+16
  56 000e 2DED048B 		vpush.64	{d8, d9}
  57              		.cfi_def_cfa_offset 56
  58              		.cfi_offset 80, -56
  59              		.cfi_offset 81, -52
  60              		.cfi_offset 82, -48
ARM GAS  /var/folders/0z/tsy30v1j4xl4_7kw94k978ww0000gn/T//ccNYdEij.s 			page 4


  61              		.cfi_offset 83, -44
 103:Core/Src/audio.c **** {
  62              		.loc 1 103 6 view .LVU3
  63 0012 8246     		mov	r10, r0
  64              	.LBB48:
  65              	.LBB49:
  92:Core/Src/audio.c **** }
  66              		.loc 1 92 16 view .LVU4
  67 0014 DFED8D8A 		vldr.32	s17, .L17+20
  68              	.LBE49:
  69              	.LBE48:
  70 0018 DFED8D9A 		vldr.32	s19, .L17+24
 112:Core/Src/audio.c **** 	{
 113:Core/Src/audio.c **** 
 114:Core/Src/audio.c **** 		f0 = mtof[currentPitch];
 115:Core/Src/audio.c **** 		
 116:Core/Src/audio.c **** 		/* test with 3 oscillators*/
 117:Core/Src/audio.c **** 		OpSetFreq(&osc1, f0);
 118:Core/Src/audio.c **** 		OpSetFreq(&osc2, 2*f0);
 119:Core/Src/audio.c **** 		OpSetFreq(&osc3, f0-0.2);
 120:Core/Src/audio.c **** 		OpSetFreq(&osc4, f0 + 0.5);
 121:Core/Src/audio.c **** 		
 122:Core/Src/audio.c **** 		f_sub = mtof[max(currentPitch - 12, 0)];
 123:Core/Src/audio.c **** 		OpSetFreq(&sub_osc, f_sub);
 124:Core/Src/audio.c **** 		//sample = 0.5*(osc_polyblepSaw(&osc1) + osc_polyblepSaw(&osc2) + osc_polyblepSaw(&osc3) + osc_po
 125:Core/Src/audio.c **** 		//sample = osc_Sine(&osc1);
 126:Core/Src/audio.c **** 
 127:Core/Src/audio.c **** 		// FM
 128:Core/Src/audio.c **** 		index_env = ADSR_compute(&adsr_index);
 129:Core/Src/audio.c **** 		osc1.mod = 0.033*index_env;	
 130:Core/Src/audio.c **** 		sample = osc_FM2OP(f0) + 0.5* osc_polyblepRect(&sub_osc);
 131:Core/Src/audio.c **** 
 132:Core/Src/audio.c **** 		/****************** Apply filter ***********************/
 133:Core/Src/audio.c **** 		filt_env = ADSR_compute(&adsr_filt);
 134:Core/Src/audio.c **** 		Moog_filter.cutoff = 1300 * filt_env;
  71              		.loc 1 134 29 view .LVU5
  72 001c 9FED8D9A 		vldr.32	s18, .L17+28
 111:Core/Src/audio.c **** 	{
  73              		.loc 1 111 9 view .LVU6
  74 0020 0024     		movs	r4, #0
  75 0022 00F1020B 		add	fp, r0, #2
  76 0026 55E0     		b	.L5
  77              	.LVL1:
  78              	.L15:
  79              	.LBB53:
  80              	.LBB54:
  81              		.file 2 "Core/Inc/helper_functions.h"
   1:Core/Inc/helper_functions.h **** /**
   2:Core/Inc/helper_functions.h ****  * @file helper_functions.h
   3:Core/Inc/helper_functions.h ****  * @author johannes regnier
   4:Core/Inc/helper_functions.h ****  * @brief Various math tools 
   5:Core/Inc/helper_functions.h ****  * @version 0.1
   6:Core/Inc/helper_functions.h ****  * @date 2023-12-30
   7:Core/Inc/helper_functions.h ****  * 
   8:Core/Inc/helper_functions.h ****  * @copyright Copyright (c) 2023
   9:Core/Inc/helper_functions.h ****  * 
  10:Core/Inc/helper_functions.h ****  */
ARM GAS  /var/folders/0z/tsy30v1j4xl4_7kw94k978ww0000gn/T//ccNYdEij.s 			page 5


  11:Core/Inc/helper_functions.h **** 
  12:Core/Inc/helper_functions.h **** #ifndef _HELPER_FUNCTIONS_H
  13:Core/Inc/helper_functions.h **** #define _HELPER_FUNCTIONS_H
  14:Core/Inc/helper_functions.h **** 
  15:Core/Inc/helper_functions.h **** 
  16:Core/Inc/helper_functions.h **** #include <math.h>
  17:Core/Inc/helper_functions.h **** #include <stdint.h>
  18:Core/Inc/helper_functions.h **** 
  19:Core/Inc/helper_functions.h **** #ifndef NOMINMAX
  20:Core/Inc/helper_functions.h **** 
  21:Core/Inc/helper_functions.h **** #ifndef max
  22:Core/Inc/helper_functions.h **** #define max(a,b)            (((a) > (b)) ? (a) : (b))
  23:Core/Inc/helper_functions.h **** #endif
  24:Core/Inc/helper_functions.h **** 
  25:Core/Inc/helper_functions.h **** #ifndef min
  26:Core/Inc/helper_functions.h **** #define min(a,b)            (((a) < (b)) ? (a) : (b))
  27:Core/Inc/helper_functions.h **** #endif
  28:Core/Inc/helper_functions.h **** 
  29:Core/Inc/helper_functions.h **** #endif  /* NOMINMAX */
  30:Core/Inc/helper_functions.h **** 
  31:Core/Inc/helper_functions.h **** /**
  32:Core/Inc/helper_functions.h ****  * @brief Keep value between 0 and max
  33:Core/Inc/helper_functions.h ****  * 
  34:Core/Inc/helper_functions.h ****  * @param value 
  35:Core/Inc/helper_functions.h ****  * @param max 
  36:Core/Inc/helper_functions.h ****  * @return float 
  37:Core/Inc/helper_functions.h ****  */
  38:Core/Inc/helper_functions.h **** inline float wrap(float value, float max)   
  39:Core/Inc/helper_functions.h **** {
  40:Core/Inc/helper_functions.h ****     if (value < 0.f)
  41:Core/Inc/helper_functions.h ****         value += max;
  42:Core/Inc/helper_functions.h ****     if (value >= max)
  43:Core/Inc/helper_functions.h ****         value -= max;
  44:Core/Inc/helper_functions.h **** 
  45:Core/Inc/helper_functions.h ****     return value;
  46:Core/Inc/helper_functions.h **** }
  47:Core/Inc/helper_functions.h **** 
  48:Core/Inc/helper_functions.h **** inline float Crossfade(float a, float b, float fade)
  49:Core/Inc/helper_functions.h **** {
  50:Core/Inc/helper_functions.h ****     return a + (b - a) * fade;
  51:Core/Inc/helper_functions.h **** }
  52:Core/Inc/helper_functions.h **** 
  53:Core/Inc/helper_functions.h **** 
  54:Core/Inc/helper_functions.h **** /**
  55:Core/Inc/helper_functions.h ****  * @brief Pade-approximation of tanh for soft clipping
  56:Core/Inc/helper_functions.h ****  * @ from https://www.musicdsp.org/en/latest/Other/238-rational-tanh-approximation.html 
  57:Core/Inc/helper_functions.h ****  * @param x 
  58:Core/Inc/helper_functions.h ****  * @return float 
  59:Core/Inc/helper_functions.h ****  */
  60:Core/Inc/helper_functions.h **** inline float SoftClip(float x)
  61:Core/Inc/helper_functions.h **** {
  62:Core/Inc/helper_functions.h ****     if (x < -3.0f)
  63:Core/Inc/helper_functions.h ****     {
  64:Core/Inc/helper_functions.h ****         return -1.0f;
  65:Core/Inc/helper_functions.h ****     }
  66:Core/Inc/helper_functions.h ****     else if (x > 3.0f)
  82              		.loc 2 66 10 is_stmt 1 view .LVU7
ARM GAS  /var/folders/0z/tsy30v1j4xl4_7kw94k978ww0000gn/T//ccNYdEij.s 			page 6


  83              		.loc 2 66 13 is_stmt 0 view .LVU8
  84 0028 F0EE086A 		vmov.f32	s13, #3.0e+0
  85 002c B4EEE67A 		vcmpe.f32	s14, s13
  86 0030 F1EE10FA 		vmrs	APSR_nzcv, FPSCR
  87 0034 00F3F780 		bgt	.L8
  88              	.LVL2:
  89              	.LBB55:
  90              	.LBI55:
  60:Core/Inc/helper_functions.h **** {
  91              		.loc 2 60 14 is_stmt 1 view .LVU9
  92              	.LBB56:
  67:Core/Inc/helper_functions.h ****     {
  68:Core/Inc/helper_functions.h ****         return 1.0f;
  69:Core/Inc/helper_functions.h ****     }
  70:Core/Inc/helper_functions.h ****     else
  71:Core/Inc/helper_functions.h ****     {
  72:Core/Inc/helper_functions.h ****         return x * (27.0f + x * x) / (27.0f + 9.0f * x * x);
  93              		.loc 2 72 9 view .LVU10
  94              		.loc 2 72 27 is_stmt 0 view .LVU11
  95 0038 F3EE0B6A 		vmov.f32	s13, #2.7e+1
  96              		.loc 2 72 52 view .LVU12
  97 003c F2EE025A 		vmov.f32	s11, #9.0e+0
  98 0040 67EE255A 		vmul.f32	s11, s14, s11
  99              		.loc 2 72 27 view .LVU13
 100 0044 F0EE664A 		vmov.f32	s9, s13
 101 0048 E7EE074A 		vfma.f32	s9, s14, s14
 102              		.loc 2 72 45 view .LVU14
 103 004c E7EE256A 		vfma.f32	s13, s14, s11
 104              		.loc 2 72 18 view .LVU15
 105 0050 27EE247A 		vmul.f32	s14, s14, s9
 106              	.LVL3:
 107              		.loc 2 72 45 view .LVU16
 108 0054 B0EE666A 		vmov.f32	s12, s13
 109              	.LVL4:
 110              		.loc 2 72 36 view .LVU17
 111 0058 C7EE066A 		vdiv.f32	s13, s14, s12
 112              	.LBE56:
 113              	.LBE55:
 114              	.LBE54:
 115              	.LBE53:
 135:Core/Src/audio.c **** 		sample = MoogLP_compute(&Moog_filter, sample);
 136:Core/Src/audio.c **** 	
 137:Core/Src/audio.c **** 		
 138:Core/Src/audio.c **** 		
 139:Core/Src/audio.c **** 		/************** Apply amplitude envelope ****************/
 140:Core/Src/audio.c **** 		amp_env = ADSR_compute(&adsr_amp);
 141:Core/Src/audio.c **** 		sample *= amp_env;
 142:Core/Src/audio.c **** 
 143:Core/Src/audio.c **** 		
 144:Core/Src/audio.c **** 		/************** Apply bitcrushing effect ***************/
 145:Core/Src/audio.c **** 		// sample = decimator(sample, 0.2, 16);
 146:Core/Src/audio.c **** 
 147:Core/Src/audio.c **** 		/************** Apply delay effect ****************/
 148:Core/Src/audio.c **** 		pingpongDelay_compute(sample, &delayLOut, &delayROut);
 149:Core/Src/audio.c **** 		sampleL = delayLOut;
 150:Core/Src/audio.c **** 		sampleR = delayROut;
 151:Core/Src/audio.c **** 		//sampleL = sample;
ARM GAS  /var/folders/0z/tsy30v1j4xl4_7kw94k978ww0000gn/T//ccNYdEij.s 			page 7


 152:Core/Src/audio.c **** 		//sampleR = sample;
 153:Core/Src/audio.c **** 
 154:Core/Src/audio.c **** 		/****************** softclip outputs ********************/
 155:Core/Src/audio.c **** 		sampleL = SoftClip(sampleL);
 156:Core/Src/audio.c **** 		sampleR = SoftClip(sampleR);
 157:Core/Src/audio.c **** 
 158:Core/Src/audio.c **** 		/*************** Convert to 16 bits int *****************/
 159:Core/Src/audio.c **** 		valueL = ((int16_t) ((32767.0f) * sampleL)); 
 116              		.loc 1 159 35 view .LVU18
 117 005c 9FED7E5A 		vldr.32	s10, .L17+32
 118 0060 26EE857A 		vmul.f32	s14, s13, s10
 119              		.loc 1 159 13 view .LVU19
 120 0064 BDEEC77A 		vcvt.s32.f32	s14, s14
 121 0068 17EE103A 		vmov	r3, s14	@ int
 122 006c 1AB2     		sxth	r2, r3
 123              	.L3:
 124              	.LVL5:
 156:Core/Src/audio.c **** 
 125              		.loc 1 156 3 is_stmt 1 view .LVU20
 126              	.LBB61:
 127              	.LBI61:
  60:Core/Inc/helper_functions.h **** {
 128              		.loc 2 60 14 view .LVU21
 129              	.LBB62:
  62:Core/Inc/helper_functions.h ****     {
 130              		.loc 2 62 5 view .LVU22
  62:Core/Inc/helper_functions.h ****     {
 131              		.loc 2 62 8 is_stmt 0 view .LVU23
 132 006e B8EE087A 		vmov.f32	s14, #-3.0e+0
 133 0072 F4EEC77A 		vcmpe.f32	s15, s14
 134 0076 F1EE10FA 		vmrs	APSR_nzcv, FPSCR
 135 007a 00F1C780 		bmi	.L9
 136              	.L16:
  66:Core/Inc/helper_functions.h ****     {
 137              		.loc 2 66 10 is_stmt 1 view .LVU24
  66:Core/Inc/helper_functions.h ****     {
 138              		.loc 2 66 13 is_stmt 0 view .LVU25
 139 007e B0EE087A 		vmov.f32	s14, #3.0e+0
 140 0082 F4EEC77A 		vcmpe.f32	s15, s14
 141 0086 F1EE10FA 		vmrs	APSR_nzcv, FPSCR
 142 008a 00F3CF80 		bgt	.L10
 143              	.LVL6:
 144              	.LBB63:
 145              	.LBI63:
  60:Core/Inc/helper_functions.h **** {
 146              		.loc 2 60 14 is_stmt 1 view .LVU26
 147              	.LBB64:
 148              		.loc 2 72 9 view .LVU27
 149              		.loc 2 72 27 is_stmt 0 view .LVU28
 150 008e B3EE0B7A 		vmov.f32	s14, #2.7e+1
 151              		.loc 2 72 52 view .LVU29
 152 0092 B2EE026A 		vmov.f32	s12, #9.0e+0
 153 0096 27EE866A 		vmul.f32	s12, s15, s12
 154              		.loc 2 72 27 view .LVU30
 155 009a B0EE475A 		vmov.f32	s10, s14
 156 009e A7EEA75A 		vfma.f32	s10, s15, s15
 157              		.loc 2 72 45 view .LVU31
ARM GAS  /var/folders/0z/tsy30v1j4xl4_7kw94k978ww0000gn/T//ccNYdEij.s 			page 8


 158 00a2 A7EE867A 		vfma.f32	s14, s15, s12
 159              		.loc 2 72 18 view .LVU32
 160 00a6 67EE857A 		vmul.f32	s15, s15, s10
 161              	.LVL7:
 162              		.loc 2 72 45 view .LVU33
 163 00aa F0EE476A 		vmov.f32	s13, s14
 164              	.LVL8:
 165              		.loc 2 72 36 view .LVU34
 166 00ae 87EEA67A 		vdiv.f32	s14, s15, s13
 167              	.LBE64:
 168              	.LBE63:
 169              	.LBE62:
 170              	.LBE61:
 160:Core/Src/audio.c **** 		valueR = ((int16_t) ((32767.0f) * sampleR));
 171              		.loc 1 160 35 view .LVU35
 172 00b2 DFED695A 		vldr.32	s11, .L17+32
 173 00b6 67EE257A 		vmul.f32	s15, s14, s11
 174              		.loc 1 160 13 view .LVU36
 175 00ba FDEEE77A 		vcvt.s32.f32	s15, s15
 176 00be 17EE903A 		vmov	r3, s15	@ int
 177 00c2 1BB2     		sxth	r3, r3
 178              	.L4:
 179              	.LVL9:
 159:Core/Src/audio.c **** 		valueR = ((int16_t) ((32767.0f) * sampleR));
 180              		.loc 1 159 3 is_stmt 1 view .LVU37
 181              		.loc 1 160 3 view .LVU38
 161:Core/Src/audio.c **** 
 162:Core/Src/audio.c **** 		/*************** Output to audio buffer *****************/
 163:Core/Src/audio.c **** 		output[i<<1] = valueL ;			// LEFT channel
 182              		.loc 1 163 3 view .LVU39
 183              		.loc 1 163 16 is_stmt 0 view .LVU40
 184 00c4 2AF82420 		strh	r2, [r10, r4, lsl #2]	@ movhi
 164:Core/Src/audio.c **** 	    output[(i<<1) + 1] = valueR;	// RIGHT channel
 185              		.loc 1 164 6 is_stmt 1 view .LVU41
 186              		.loc 1 164 25 is_stmt 0 view .LVU42
 187 00c8 2BF82430 		strh	r3, [fp, r4, lsl #2]	@ movhi
 111:Core/Src/audio.c **** 	{
 188              		.loc 1 111 28 is_stmt 1 view .LVU43
 189 00cc 0134     		adds	r4, r4, #1
 190              	.LVL10:
 111:Core/Src/audio.c **** 	{
 191              		.loc 1 111 16 view .LVU44
 192 00ce 402C     		cmp	r4, #64
 193 00d0 00F0A580 		beq	.L14
 194              	.LVL11:
 195              	.L5:
 114:Core/Src/audio.c **** 		
 196              		.loc 1 114 3 view .LVU45
 114:Core/Src/audio.c **** 		
 197              		.loc 1 114 12 is_stmt 0 view .LVU46
 198 00d4 614B     		ldr	r3, .L17+36
 199 00d6 1E78     		ldrb	r6, [r3]	@ zero_extendqisi2
 200 00d8 09EB8603 		add	r3, r9, r6, lsl #2
 201 00dc 93ED008A 		vldr.32	s16, [r3]
 202              	.LBB68:
 203              	.LBB69:
  92:Core/Src/audio.c **** }
ARM GAS  /var/folders/0z/tsy30v1j4xl4_7kw94k978ww0000gn/T//ccNYdEij.s 			page 9


 204              		.loc 1 92 11 view .LVU47
 205 00e0 5F4B     		ldr	r3, .L17+40
 206              	.LBE69:
 207              	.LBE68:
 114:Core/Src/audio.c **** 		
 208              		.loc 1 114 6 view .LVU48
 209 00e2 88ED008A 		vstr.32	s16, [r8]
 117:Core/Src/audio.c **** 		OpSetFreq(&osc2, 2*f0);
 210              		.loc 1 117 3 is_stmt 1 view .LVU49
 211              	.LVL12:
 212              	.LBB73:
 213              	.LBI48:
  90:Core/Src/audio.c **** {
 214              		.loc 1 90 6 view .LVU50
 215              	.LBB50:
  92:Core/Src/audio.c **** }
 216              		.loc 1 92 2 view .LVU51
 217              	.LBE50:
 218              	.LBE73:
 118:Core/Src/audio.c **** 		OpSetFreq(&osc3, f0-0.2);
 219              		.loc 1 118 3 is_stmt 0 view .LVU52
 220 00e6 78EE087A 		vadd.f32	s15, s16, s16
 221              	.LBB74:
 222              	.LBB51:
  92:Core/Src/audio.c **** }
 223              		.loc 1 92 16 view .LVU53
 224 00ea 28EE287A 		vmul.f32	s14, s16, s17
 225              	.LBE51:
 226              	.LBE74:
 227              	.LBB75:
 228              	.LBB70:
 229 00ee 67EEA87A 		vmul.f32	s15, s15, s17
 230              	.LBE70:
 231              	.LBE75:
 119:Core/Src/audio.c **** 		OpSetFreq(&osc4, f0 + 0.5);
 232              		.loc 1 119 22 view .LVU54
 233 00f2 18EE100A 		vmov	r0, s16
 234              	.LBB76:
 235              	.LBB71:
  92:Core/Src/audio.c **** }
 236              		.loc 1 92 11 view .LVU55
 237 00f6 C3ED017A 		vstr.32	s15, [r3, #4]
 238              	.LBE71:
 239              	.LBE76:
 240              	.LBB77:
 241              	.LBB52:
 242 00fa 85ED017A 		vstr.32	s14, [r5, #4]
 243              	.LVL13:
  92:Core/Src/audio.c **** }
 244              		.loc 1 92 11 view .LVU56
 245              	.LBE52:
 246              	.LBE77:
 118:Core/Src/audio.c **** 		OpSetFreq(&osc3, f0-0.2);
 247              		.loc 1 118 3 is_stmt 1 view .LVU57
 248              	.LBB78:
 249              	.LBI68:
  90:Core/Src/audio.c **** {
ARM GAS  /var/folders/0z/tsy30v1j4xl4_7kw94k978ww0000gn/T//ccNYdEij.s 			page 10


 250              		.loc 1 90 6 view .LVU58
 251              	.LBB72:
  92:Core/Src/audio.c **** }
 252              		.loc 1 92 2 view .LVU59
  92:Core/Src/audio.c **** }
 253              		.loc 1 92 2 is_stmt 0 view .LVU60
 254              	.LBE72:
 255              	.LBE78:
 119:Core/Src/audio.c **** 		OpSetFreq(&osc4, f0 + 0.5);
 256              		.loc 1 119 3 is_stmt 1 view .LVU61
 257              	.LBB79:
 258              	.LBI79:
  90:Core/Src/audio.c **** {
 259              		.loc 1 90 6 view .LVU62
 260              	.LBB80:
  92:Core/Src/audio.c **** }
 261              		.loc 1 92 2 view .LVU63
 262              	.LBE80:
 263              	.LBE79:
 119:Core/Src/audio.c **** 		OpSetFreq(&osc4, f0 + 0.5);
 264              		.loc 1 119 22 is_stmt 0 view .LVU64
 265 00fe FFF7FEFF 		bl	__aeabi_f2d
 266              	.LVL14:
 267 0102 4DA3     		adr	r3, .L17
 268 0104 D3E90023 		ldrd	r2, [r3]
 269 0108 FFF7FEFF 		bl	__aeabi_dsub
 270              	.LVL15:
 119:Core/Src/audio.c **** 		OpSetFreq(&osc4, f0 + 0.5);
 271              		.loc 1 119 3 view .LVU65
 272 010c FFF7FEFF 		bl	__aeabi_d2f
 273              	.LVL16:
 274              	.LBB85:
 275              	.LBB81:
  92:Core/Src/audio.c **** }
 276              		.loc 1 92 16 view .LVU66
 277 0110 07EE900A 		vmov	s15, r0
 278              	.LBE81:
 279              	.LBE85:
 120:Core/Src/audio.c **** 		
 280              		.loc 1 120 3 view .LVU67
 281 0114 B6EE007A 		vmov.f32	s14, #5.0e-1
 122:Core/Src/audio.c **** 		OpSetFreq(&sub_osc, f_sub);
 282              		.loc 1 122 16 view .LVU68
 283 0118 0C2E     		cmp	r6, #12
 284              	.LBB86:
 285              	.LBB82:
  92:Core/Src/audio.c **** }
 286              		.loc 1 92 16 view .LVU69
 287 011a 67EEA87A 		vmul.f32	s15, s15, s17
 288              	.LBE82:
 289              	.LBE86:
 120:Core/Src/audio.c **** 		
 290              		.loc 1 120 3 view .LVU70
 291 011e 38EE078A 		vadd.f32	s16, s16, s14
 292              	.LVL17:
 293              	.LBB87:
 294              	.LBB83:
ARM GAS  /var/folders/0z/tsy30v1j4xl4_7kw94k978ww0000gn/T//ccNYdEij.s 			page 11


  92:Core/Src/audio.c **** }
 295              		.loc 1 92 11 view .LVU71
 296 0122 504B     		ldr	r3, .L17+44
 297              	.LBE83:
 298              	.LBE87:
 128:Core/Src/audio.c **** 		osc1.mod = 0.033*index_env;	
 299              		.loc 1 128 15 view .LVU72
 300 0124 5048     		ldr	r0, .L17+48
 301              	.LBB88:
 302              	.LBB84:
  92:Core/Src/audio.c **** }
 303              		.loc 1 92 11 view .LVU73
 304 0126 C3ED017A 		vstr.32	s15, [r3, #4]
 305              	.LVL18:
  92:Core/Src/audio.c **** }
 306              		.loc 1 92 11 view .LVU74
 307              	.LBE84:
 308              	.LBE88:
 120:Core/Src/audio.c **** 		
 309              		.loc 1 120 3 is_stmt 1 view .LVU75
 310              	.LBB89:
 311              	.LBI89:
  90:Core/Src/audio.c **** {
 312              		.loc 1 90 6 view .LVU76
 313              	.LBB90:
  92:Core/Src/audio.c **** }
 314              		.loc 1 92 2 view .LVU77
 315              	.LBE90:
 316              	.LBE89:
 122:Core/Src/audio.c **** 		OpSetFreq(&sub_osc, f_sub);
 317              		.loc 1 122 15 is_stmt 0 view .LVU78
 318 012a 84BF     		itt	hi
 319 012c 09EB8606 		addhi	r6, r9, r6, lsl #2
 320              	.LVL19:
 321              	.LBB93:
 322              	.LBB94:
  92:Core/Src/audio.c **** }
 323              		.loc 1 92 16 view .LVU79
 324 0130 56ED0C7A 		vldrhi.32	s15, [r6, #-48]
 325              	.LBE94:
 326              	.LBE93:
 327              	.LBB98:
 328              	.LBB91:
  92:Core/Src/audio.c **** }
 329              		.loc 1 92 11 view .LVU80
 330 0134 4D4B     		ldr	r3, .L17+52
  92:Core/Src/audio.c **** }
 331              		.loc 1 92 16 view .LVU81
 332 0136 28EE288A 		vmul.f32	s16, s16, s17
 333              	.LBE91:
 334              	.LBE98:
 335              	.LBB99:
 336              	.LBB95:
 337 013a 88BF     		it	hi
 338 013c 67EEA87A 		vmulhi.f32	s15, s15, s17
 339              	.LBE95:
 340              	.LBE99:
ARM GAS  /var/folders/0z/tsy30v1j4xl4_7kw94k978ww0000gn/T//ccNYdEij.s 			page 12


 341              	.LBB100:
 342              	.LBB92:
  92:Core/Src/audio.c **** }
 343              		.loc 1 92 11 view .LVU82
 344 0140 83ED018A 		vstr.32	s16, [r3, #4]
 345              	.LVL20:
  92:Core/Src/audio.c **** }
 346              		.loc 1 92 11 view .LVU83
 347              	.LBE92:
 348              	.LBE100:
 122:Core/Src/audio.c **** 		OpSetFreq(&sub_osc, f_sub);
 349              		.loc 1 122 3 is_stmt 1 view .LVU84
 123:Core/Src/audio.c **** 		//sample = 0.5*(osc_polyblepSaw(&osc1) + osc_polyblepSaw(&osc2) + osc_polyblepSaw(&osc3) + osc_po
 350              		.loc 1 123 3 view .LVU85
 351              	.LBB101:
 352              	.LBI93:
  90:Core/Src/audio.c **** {
 353              		.loc 1 90 6 view .LVU86
 354              	.LBB96:
  92:Core/Src/audio.c **** }
 355              		.loc 1 92 2 view .LVU87
  92:Core/Src/audio.c **** }
 356              		.loc 1 92 11 is_stmt 0 view .LVU88
 357 0144 4A4B     		ldr	r3, .L17+56
 358              	.LBE96:
 359              	.LBE101:
 360 0146 98BF     		it	ls
 361 0148 F0EE697A 		vmovls.f32	s15, s19
 362              	.LBB102:
 363              	.LBB97:
 364 014c C3ED017A 		vstr.32	s15, [r3, #4]
 365              	.LVL21:
  92:Core/Src/audio.c **** }
 366              		.loc 1 92 11 view .LVU89
 367              	.LBE97:
 368              	.LBE102:
 128:Core/Src/audio.c **** 		osc1.mod = 0.033*index_env;	
 369              		.loc 1 128 3 is_stmt 1 view .LVU90
 128:Core/Src/audio.c **** 		osc1.mod = 0.033*index_env;	
 370              		.loc 1 128 15 is_stmt 0 view .LVU91
 371 0150 FFF7FEFF 		bl	ADSR_compute
 372              	.LVL22:
 129:Core/Src/audio.c **** 		sample = osc_FM2OP(f0) + 0.5* osc_polyblepRect(&sub_osc);
 373              		.loc 1 129 3 is_stmt 1 view .LVU92
 128:Core/Src/audio.c **** 		osc1.mod = 0.033*index_env;	
 374              		.loc 1 128 15 is_stmt 0 view .LVU93
 375 0154 10EE100A 		vmov	r0, s0
 129:Core/Src/audio.c **** 		sample = osc_FM2OP(f0) + 0.5* osc_polyblepRect(&sub_osc);
 376              		.loc 1 129 19 view .LVU94
 377 0158 FFF7FEFF 		bl	__aeabi_f2d
 378              	.LVL23:
 379 015c 38A3     		adr	r3, .L17+8
 380 015e D3E90023 		ldrd	r2, [r3]
 381 0162 FFF7FEFF 		bl	__aeabi_dmul
 382              	.LVL24:
 383 0166 FFF7FEFF 		bl	__aeabi_d2f
 384              	.LVL25:
ARM GAS  /var/folders/0z/tsy30v1j4xl4_7kw94k978ww0000gn/T//ccNYdEij.s 			page 13


 130:Core/Src/audio.c **** 
 385              		.loc 1 130 12 view .LVU95
 386 016a 98ED000A 		vldr.32	s0, [r8]
 129:Core/Src/audio.c **** 		sample = osc_FM2OP(f0) + 0.5* osc_polyblepRect(&sub_osc);
 387              		.loc 1 129 19 view .LVU96
 388 016e E860     		str	r0, [r5, #12]	@ float
 130:Core/Src/audio.c **** 
 389              		.loc 1 130 3 is_stmt 1 view .LVU97
 130:Core/Src/audio.c **** 
 390              		.loc 1 130 12 is_stmt 0 view .LVU98
 391 0170 FFF7FEFF 		bl	osc_FM2OP
 392              	.LVL26:
 130:Core/Src/audio.c **** 
 393              		.loc 1 130 33 view .LVU99
 394 0174 3E48     		ldr	r0, .L17+56
 130:Core/Src/audio.c **** 
 395              		.loc 1 130 12 view .LVU100
 396 0176 10EE107A 		vmov	r7, s0
 130:Core/Src/audio.c **** 
 397              		.loc 1 130 33 view .LVU101
 398 017a FFF7FEFF 		bl	osc_polyblepRect
 399              	.LVL27:
 400 017e 10EE100A 		vmov	r0, s0
 401 0182 FFF7FEFF 		bl	__aeabi_f2d
 402              	.LVL28:
 130:Core/Src/audio.c **** 
 403              		.loc 1 130 31 view .LVU102
 404 0186 3B4B     		ldr	r3, .L17+60
 405 0188 0022     		movs	r2, #0
 406 018a FFF7FEFF 		bl	__aeabi_dmul
 407              	.LVL29:
 408 018e 0246     		mov	r2, r0
 130:Core/Src/audio.c **** 
 409              		.loc 1 130 12 view .LVU103
 410 0190 3846     		mov	r0, r7	@ float
 130:Core/Src/audio.c **** 
 411              		.loc 1 130 31 view .LVU104
 412 0192 1646     		mov	r6, r2
 413 0194 0F46     		mov	r7, r1
 130:Core/Src/audio.c **** 
 414              		.loc 1 130 12 view .LVU105
 415 0196 FFF7FEFF 		bl	__aeabi_f2d
 416              	.LVL30:
 417 019a 0246     		mov	r2, r0
 418 019c 0B46     		mov	r3, r1
 130:Core/Src/audio.c **** 
 419              		.loc 1 130 26 view .LVU106
 420 019e 3046     		mov	r0, r6
 421 01a0 3946     		mov	r1, r7
 422 01a2 FFF7FEFF 		bl	__aeabi_dadd
 423              	.LVL31:
 130:Core/Src/audio.c **** 
 424              		.loc 1 130 10 view .LVU107
 425 01a6 FFF7FEFF 		bl	__aeabi_d2f
 426              	.LVL32:
 427 01aa 08EE100A 		vmov	s16, r0
 428              	.LVL33:
ARM GAS  /var/folders/0z/tsy30v1j4xl4_7kw94k978ww0000gn/T//ccNYdEij.s 			page 14


 133:Core/Src/audio.c **** 		Moog_filter.cutoff = 1300 * filt_env;
 429              		.loc 1 133 3 is_stmt 1 view .LVU108
 133:Core/Src/audio.c **** 		Moog_filter.cutoff = 1300 * filt_env;
 430              		.loc 1 133 14 is_stmt 0 view .LVU109
 431 01ae 3248     		ldr	r0, .L17+64
 432              	.LVL34:
 133:Core/Src/audio.c **** 		Moog_filter.cutoff = 1300 * filt_env;
 433              		.loc 1 133 14 view .LVU110
 434 01b0 FFF7FEFF 		bl	ADSR_compute
 435              	.LVL35:
 134:Core/Src/audio.c **** 		sample = MoogLP_compute(&Moog_filter, sample);
 436              		.loc 1 134 3 is_stmt 1 view .LVU111
 134:Core/Src/audio.c **** 		sample = MoogLP_compute(&Moog_filter, sample);
 437              		.loc 1 134 22 is_stmt 0 view .LVU112
 438 01b4 314B     		ldr	r3, .L17+68
 134:Core/Src/audio.c **** 		sample = MoogLP_compute(&Moog_filter, sample);
 439              		.loc 1 134 29 view .LVU113
 440 01b6 60EE097A 		vmul.f32	s15, s0, s18
 135:Core/Src/audio.c **** 	
 441              		.loc 1 135 12 view .LVU114
 442 01ba 1846     		mov	r0, r3
 443 01bc B0EE480A 		vmov.f32	s0, s16
 134:Core/Src/audio.c **** 		sample = MoogLP_compute(&Moog_filter, sample);
 444              		.loc 1 134 22 view .LVU115
 445 01c0 C3ED007A 		vstr.32	s15, [r3]
 135:Core/Src/audio.c **** 	
 446              		.loc 1 135 3 is_stmt 1 view .LVU116
 135:Core/Src/audio.c **** 	
 447              		.loc 1 135 12 is_stmt 0 view .LVU117
 448 01c4 FFF7FEFF 		bl	MoogLP_compute
 449              	.LVL36:
 140:Core/Src/audio.c **** 		sample *= amp_env;
 450              		.loc 1 140 13 view .LVU118
 451 01c8 2D48     		ldr	r0, .L17+72
 135:Core/Src/audio.c **** 	
 452              		.loc 1 135 12 view .LVU119
 453 01ca B0EE408A 		vmov.f32	s16, s0
 454              	.LVL37:
 140:Core/Src/audio.c **** 		sample *= amp_env;
 455              		.loc 1 140 3 is_stmt 1 view .LVU120
 140:Core/Src/audio.c **** 		sample *= amp_env;
 456              		.loc 1 140 13 is_stmt 0 view .LVU121
 457 01ce FFF7FEFF 		bl	ADSR_compute
 458              	.LVL38:
 141:Core/Src/audio.c **** 
 459              		.loc 1 141 3 is_stmt 1 view .LVU122
 148:Core/Src/audio.c **** 		sampleL = delayLOut;
 460              		.loc 1 148 3 view .LVU123
 461 01d2 2C49     		ldr	r1, .L17+76
 462 01d4 2C48     		ldr	r0, .L17+80
 463 01d6 28EE000A 		vmul.f32	s0, s16, s0
 464              	.LVL39:
 148:Core/Src/audio.c **** 		sampleL = delayLOut;
 465              		.loc 1 148 3 is_stmt 0 view .LVU124
 466 01da FFF7FEFF 		bl	pingpongDelay_compute
 467              	.LVL40:
 149:Core/Src/audio.c **** 		sampleR = delayROut;
ARM GAS  /var/folders/0z/tsy30v1j4xl4_7kw94k978ww0000gn/T//ccNYdEij.s 			page 15


 468              		.loc 1 149 3 is_stmt 1 view .LVU125
 149:Core/Src/audio.c **** 		sampleR = delayROut;
 469              		.loc 1 149 11 is_stmt 0 view .LVU126
 470 01de 2A4B     		ldr	r3, .L17+80
 471 01e0 93ED007A 		vldr.32	s14, [r3]
 472              	.LVL41:
 150:Core/Src/audio.c **** 		//sampleL = sample;
 473              		.loc 1 150 3 is_stmt 1 view .LVU127
 150:Core/Src/audio.c **** 		//sampleL = sample;
 474              		.loc 1 150 11 is_stmt 0 view .LVU128
 475 01e4 274B     		ldr	r3, .L17+76
 476              	.LBB103:
 477              	.LBB57:
  62:Core/Inc/helper_functions.h ****     {
 478              		.loc 2 62 8 view .LVU129
 479 01e6 F8EE086A 		vmov.f32	s13, #-3.0e+0
 480 01ea B4EEE67A 		vcmpe.f32	s14, s13
 481 01ee F1EE10FA 		vmrs	APSR_nzcv, FPSCR
 482              	.LBE57:
 483              	.LBE103:
 150:Core/Src/audio.c **** 		//sampleL = sample;
 484              		.loc 1 150 11 view .LVU130
 485 01f2 D3ED007A 		vldr.32	s15, [r3]
 486              	.LVL42:
 155:Core/Src/audio.c **** 		sampleR = SoftClip(sampleR);
 487              		.loc 1 155 3 is_stmt 1 view .LVU131
 488              	.LBB104:
 489              	.LBI53:
  60:Core/Inc/helper_functions.h **** {
 490              		.loc 2 60 14 view .LVU132
 491              	.LBB58:
  62:Core/Inc/helper_functions.h ****     {
 492              		.loc 2 62 5 view .LVU133
  62:Core/Inc/helper_functions.h ****     {
 493              		.loc 2 62 8 is_stmt 0 view .LVU134
 494 01f6 7FF517AF 		bpl	.L15
 495              	.LBE58:
 496              	.LBE104:
 497              	.LBB105:
 498              	.LBB65:
 499 01fa B8EE087A 		vmov.f32	s14, #-3.0e+0
 500              	.LVL43:
  62:Core/Inc/helper_functions.h ****     {
 501              		.loc 2 62 8 view .LVU135
 502 01fe F4EEC77A 		vcmpe.f32	s15, s14
 503 0202 F1EE10FA 		vmrs	APSR_nzcv, FPSCR
 504              	.LBE65:
 505              	.LBE105:
 506              	.LBB106:
 507              	.LBB59:
 508 0206 214A     		ldr	r2, .L17+84
 509              	.LVL44:
  62:Core/Inc/helper_functions.h ****     {
 510              		.loc 2 62 8 view .LVU136
 511              	.LBE59:
 512              	.LBE106:
 156:Core/Src/audio.c **** 
ARM GAS  /var/folders/0z/tsy30v1j4xl4_7kw94k978ww0000gn/T//ccNYdEij.s 			page 16


 513              		.loc 1 156 3 is_stmt 1 view .LVU137
 514              	.LBB107:
  60:Core/Inc/helper_functions.h **** {
 515              		.loc 2 60 14 view .LVU138
 516              	.LBB66:
  62:Core/Inc/helper_functions.h ****     {
 517              		.loc 2 62 5 view .LVU139
  62:Core/Inc/helper_functions.h ****     {
 518              		.loc 2 62 8 is_stmt 0 view .LVU140
 519 0208 7FF539AF 		bpl	.L16
 520              	.L9:
 521 020c 1F4B     		ldr	r3, .L17+84
 522              	.LVL45:
  62:Core/Inc/helper_functions.h ****     {
 523              		.loc 2 62 8 view .LVU141
 524              	.LBE66:
 525              	.LBE107:
 159:Core/Src/audio.c **** 		valueR = ((int16_t) ((32767.0f) * sampleR));
 526              		.loc 1 159 3 is_stmt 1 view .LVU142
 160:Core/Src/audio.c **** 
 527              		.loc 1 160 3 view .LVU143
 163:Core/Src/audio.c **** 	    output[(i<<1) + 1] = valueR;	// RIGHT channel
 528              		.loc 1 163 3 view .LVU144
 163:Core/Src/audio.c **** 	    output[(i<<1) + 1] = valueR;	// RIGHT channel
 529              		.loc 1 163 16 is_stmt 0 view .LVU145
 530 020e 2AF82420 		strh	r2, [r10, r4, lsl #2]	@ movhi
 531              		.loc 1 164 6 is_stmt 1 view .LVU146
 532              		.loc 1 164 25 is_stmt 0 view .LVU147
 533 0212 2BF82430 		strh	r3, [fp, r4, lsl #2]	@ movhi
 111:Core/Src/audio.c **** 	{
 534              		.loc 1 111 28 is_stmt 1 view .LVU148
 535 0216 0134     		adds	r4, r4, #1
 536              	.LVL46:
 111:Core/Src/audio.c **** 	{
 537              		.loc 1 111 16 view .LVU149
 538 0218 402C     		cmp	r4, #64
 539 021a 7FF45BAF 		bne	.L5
 540              	.L14:
 165:Core/Src/audio.c **** 	}
 166:Core/Src/audio.c **** }
 541              		.loc 1 166 1 is_stmt 0 view .LVU150
 542 021e BDEC048B 		vldm	sp!, {d8-d9}
 543              		.cfi_remember_state
 544              		.cfi_restore 82
 545              		.cfi_restore 83
 546              		.cfi_restore 80
 547              		.cfi_restore 81
 548              		.cfi_def_cfa_offset 40
 549              		.loc 1 166 1 view .LVU151
 550 0222 BDE8F88F 		pop	{r3, r4, r5, r6, r7, r8, r9, r10, fp, pc}
 551              	.LVL47:
 552              	.L8:
 553              		.cfi_restore_state
 554              	.LBB108:
 555              	.LBB60:
 556              		.loc 1 166 1 view .LVU152
 557 0226 47F6FF72 		movw	r2, #32767
ARM GAS  /var/folders/0z/tsy30v1j4xl4_7kw94k978ww0000gn/T//ccNYdEij.s 			page 17


 558 022a 20E7     		b	.L3
 559              	.LVL48:
 560              	.L10:
 561              		.loc 1 166 1 view .LVU153
 562              	.LBE60:
 563              	.LBE108:
 564              	.LBB109:
 565              	.LBB67:
 566 022c 47F6FF73 		movw	r3, #32767
 567 0230 48E7     		b	.L4
 568              	.L18:
 569 0232 00BFAFF3 		.align	3
 569      0080
 570              	.L17:
 571 0238 9A999999 		.word	-1717986918
 572 023c 9999C93F 		.word	1070176665
 573 0240 4C378941 		.word	1099511628
 574 0244 60E5A03F 		.word	1067509088
 575 0248 00000000 		.word	osc1
 576 024c 8D3B803F 		.word	1065368461
 577 0250 EF0C0341 		.word	1090718959
 578 0254 0080A244 		.word	1151500288
 579 0258 00FEFF46 		.word	1191181824
 580 025c 00000000 		.word	currentPitch
 581 0260 00000000 		.word	osc2
 582 0264 00000000 		.word	osc3
 583 0268 00000000 		.word	adsr_index
 584 026c 00000000 		.word	osc4
 585 0270 00000000 		.word	sub_osc
 586 0274 0000E03F 		.word	1071644672
 587 0278 00000000 		.word	adsr_filt
 588 027c 00000000 		.word	Moog_filter
 589 0280 00000000 		.word	adsr_amp
 590 0284 00000000 		.word	.LANCHOR2
 591 0288 00000000 		.word	.LANCHOR3
 592 028c 0180FFFF 		.word	-32767
 593 0290 00000000 		.word	.LANCHOR0
 594 0294 00000000 		.word	.LANCHOR1
 595              	.LBE67:
 596              	.LBE109:
 597              		.cfi_endproc
 598              	.LFE143:
 600              		.section	.text.AUDIO_Init,"ax",%progbits
 601              		.align	1
 602              		.p2align 2,,3
 603              		.global	AUDIO_Init
 604              		.syntax unified
 605              		.thumb
 606              		.thumb_func
 608              	AUDIO_Init:
 609              	.LFB134:
  63:Core/Src/audio.c ****     BSP_AUDIO_OUT_Init(OUTPUT_DEVICE_HEADPHONE, INITIAL_VOLUME, FS);
 610              		.loc 1 63 1 is_stmt 1 view -0
 611              		.cfi_startproc
 612              		@ args = 0, pretend = 0, frame = 0
 613              		@ frame_needed = 0, uses_anonymous_args = 0
  64:Core/Src/audio.c **** 
ARM GAS  /var/folders/0z/tsy30v1j4xl4_7kw94k978ww0000gn/T//ccNYdEij.s 			page 18


 614              		.loc 1 64 5 view .LVU155
  63:Core/Src/audio.c ****     BSP_AUDIO_OUT_Init(OUTPUT_DEVICE_HEADPHONE, INITIAL_VOLUME, FS);
 615              		.loc 1 63 1 is_stmt 0 view .LVU156
 616 0000 08B5     		push	{r3, lr}
 617              		.cfi_def_cfa_offset 8
 618              		.cfi_offset 3, -8
 619              		.cfi_offset 14, -4
  64:Core/Src/audio.c **** 
 620              		.loc 1 64 5 view .LVU157
 621 0002 4AF64442 		movw	r2, #44100
  63:Core/Src/audio.c ****     BSP_AUDIO_OUT_Init(OUTPUT_DEVICE_HEADPHONE, INITIAL_VOLUME, FS);
 622              		.loc 1 63 1 view .LVU158
 623 0006 2DED048B 		vpush.64	{d8, d9}
 624              		.cfi_def_cfa_offset 24
 625              		.cfi_offset 80, -24
 626              		.cfi_offset 81, -20
 627              		.cfi_offset 82, -16
 628              		.cfi_offset 83, -12
  64:Core/Src/audio.c **** 
 629              		.loc 1 64 5 view .LVU159
 630 000a 5521     		movs	r1, #85
 631 000c 0220     		movs	r0, #2
 632 000e FFF7FEFF 		bl	BSP_AUDIO_OUT_Init
 633              	.LVL49:
  71:Core/Src/audio.c **** 
 634              		.loc 1 71 2 is_stmt 1 view .LVU160
  75:Core/Src/audio.c **** 	osc_init(&osc2, 0.5, 440, 0, 2, 0.5);
 635              		.loc 1 75 2 is_stmt 0 view .LVU161
 636 0012 9FED2F8A 		vldr.32	s16, .L21
 637 0016 9FED2F9A 		vldr.32	s18, .L21+4
  71:Core/Src/audio.c **** 
 638              		.loc 1 71 2 view .LVU162
 639 001a 2F48     		ldr	r0, .L21+8
  76:Core/Src/audio.c **** 	osc_init(&osc3, 0.5, 1000, 0, 0, 0.5);
 640              		.loc 1 76 2 view .LVU163
 641 001c DFED2F8A 		vldr.32	s17, .L21+12
  71:Core/Src/audio.c **** 
 642              		.loc 1 71 2 view .LVU164
 643 0020 4FF40071 		mov	r1, #512
 644 0024 FFF7FEFF 		bl	BSP_AUDIO_OUT_Play
 645              	.LVL50:
  75:Core/Src/audio.c **** 	osc_init(&osc2, 0.5, 440, 0, 2, 0.5);
 646              		.loc 1 75 2 is_stmt 1 view .LVU165
 647 0028 B6EE002A 		vmov.f32	s4, #5.0e-1
 648 002c F0EE481A 		vmov.f32	s3, s16
 649 0030 B0EE481A 		vmov.f32	s2, s16
 650 0034 F0EE490A 		vmov.f32	s1, s18
 651 0038 B0EE420A 		vmov.f32	s0, s4
 652 003c 2848     		ldr	r0, .L21+16
 653 003e FFF7FEFF 		bl	osc_init
 654              	.LVL51:
  76:Core/Src/audio.c **** 	osc_init(&osc3, 0.5, 1000, 0, 0, 0.5);
 655              		.loc 1 76 2 view .LVU166
 656 0042 B6EE002A 		vmov.f32	s4, #5.0e-1
 657 0046 B0EE481A 		vmov.f32	s2, s16
 658 004a F0EE680A 		vmov.f32	s1, s17
 659 004e B0EE420A 		vmov.f32	s0, s4
ARM GAS  /var/folders/0z/tsy30v1j4xl4_7kw94k978ww0000gn/T//ccNYdEij.s 			page 19


 660 0052 2448     		ldr	r0, .L21+20
 661 0054 F0EE001A 		vmov.f32	s3, #2.0e+0
 662 0058 FFF7FEFF 		bl	osc_init
 663              	.LVL52:
  77:Core/Src/audio.c **** 	osc_init(&osc4, 0.5, 440, 0, 0, 0.5);
 664              		.loc 1 77 2 view .LVU167
 665 005c B6EE002A 		vmov.f32	s4, #5.0e-1
 666 0060 F0EE481A 		vmov.f32	s3, s16
 667 0064 B0EE481A 		vmov.f32	s2, s16
 668 0068 F0EE490A 		vmov.f32	s1, s18
 669 006c B0EE420A 		vmov.f32	s0, s4
 670 0070 1D48     		ldr	r0, .L21+24
 671 0072 FFF7FEFF 		bl	osc_init
 672              	.LVL53:
  78:Core/Src/audio.c **** 	osc_init(&sub_osc, 0.5, 440, 0, 0, 0.5);
 673              		.loc 1 78 2 view .LVU168
 674 0076 B6EE002A 		vmov.f32	s4, #5.0e-1
 675 007a F0EE481A 		vmov.f32	s3, s16
 676 007e B0EE481A 		vmov.f32	s2, s16
 677 0082 F0EE680A 		vmov.f32	s1, s17
 678 0086 B0EE420A 		vmov.f32	s0, s4
 679 008a 1848     		ldr	r0, .L21+28
 680 008c FFF7FEFF 		bl	osc_init
 681              	.LVL54:
  79:Core/Src/audio.c **** 
 682              		.loc 1 79 2 view .LVU169
 683 0090 B6EE002A 		vmov.f32	s4, #5.0e-1
 684 0094 F0EE481A 		vmov.f32	s3, s16
 685 0098 B0EE481A 		vmov.f32	s2, s16
 686 009c F0EE680A 		vmov.f32	s1, s17
 687 00a0 B0EE420A 		vmov.f32	s0, s4
 688 00a4 1248     		ldr	r0, .L21+32
 689 00a6 FFF7FEFF 		bl	osc_init
 690              	.LVL55:
  82:Core/Src/audio.c **** 	ADSR_init(&adsr_filt);
 691              		.loc 1 82 2 view .LVU170
 692 00aa 1248     		ldr	r0, .L21+36
 693 00ac FFF7FEFF 		bl	ADSR_init
 694              	.LVL56:
  83:Core/Src/audio.c **** 	ADSR_init(&adsr_index);
 695              		.loc 1 83 2 view .LVU171
 696 00b0 1148     		ldr	r0, .L21+40
 697 00b2 FFF7FEFF 		bl	ADSR_init
 698              	.LVL57:
  84:Core/Src/audio.c **** 	MoogLP_init(&Moog_filter);
 699              		.loc 1 84 2 view .LVU172
 700 00b6 1148     		ldr	r0, .L21+44
 701 00b8 FFF7FEFF 		bl	ADSR_init
 702              	.LVL58:
  85:Core/Src/audio.c **** 	Delay_init();
 703              		.loc 1 85 2 view .LVU173
 704 00bc 1048     		ldr	r0, .L21+48
 705 00be FFF7FEFF 		bl	MoogLP_init
 706              	.LVL59:
  86:Core/Src/audio.c **** 	
 707              		.loc 1 86 2 view .LVU174
  88:Core/Src/audio.c **** 
ARM GAS  /var/folders/0z/tsy30v1j4xl4_7kw94k978ww0000gn/T//ccNYdEij.s 			page 20


 708              		.loc 1 88 1 is_stmt 0 view .LVU175
 709 00c2 BDEC048B 		vldm	sp!, {d8-d9}
 710              		.cfi_restore 82
 711              		.cfi_restore 83
 712              		.cfi_restore 80
 713              		.cfi_restore 81
 714              		.cfi_def_cfa_offset 8
 715 00c6 BDE80840 		pop	{r3, lr}
 716              		.cfi_restore 14
 717              		.cfi_restore 3
 718              		.cfi_def_cfa_offset 0
  86:Core/Src/audio.c **** 	
 719              		.loc 1 86 2 view .LVU176
 720 00ca FFF7FEBF 		b	Delay_init
 721              	.LVL60:
 722              	.L22:
 723 00ce 00BF     		.align	2
 724              	.L21:
 725 00d0 00000000 		.word	0
 726 00d4 00007A44 		.word	1148846080
 727 00d8 00000000 		.word	.LANCHOR4
 728 00dc 0000DC43 		.word	1138491392
 729 00e0 00000000 		.word	osc1
 730 00e4 00000000 		.word	osc2
 731 00e8 00000000 		.word	osc3
 732 00ec 00000000 		.word	osc4
 733 00f0 00000000 		.word	sub_osc
 734 00f4 00000000 		.word	adsr_amp
 735 00f8 00000000 		.word	adsr_filt
 736 00fc 00000000 		.word	adsr_index
 737 0100 00000000 		.word	Moog_filter
 738              		.cfi_endproc
 739              	.LFE134:
 741              		.section	.text.OpSetFreq,"ax",%progbits
 742              		.align	1
 743              		.p2align 2,,3
 744              		.global	OpSetFreq
 745              		.syntax unified
 746              		.thumb
 747              		.thumb_func
 749              	OpSetFreq:
 750              	.LVL61:
 751              	.LFB135:
  91:Core/Src/audio.c **** 	op->freq = A0 * f;
 752              		.loc 1 91 1 is_stmt 1 view -0
 753              		.cfi_startproc
 754              		@ args = 0, pretend = 0, frame = 0
 755              		@ frame_needed = 0, uses_anonymous_args = 0
 756              		@ link register save eliminated.
  92:Core/Src/audio.c **** }
 757              		.loc 1 92 2 view .LVU178
  92:Core/Src/audio.c **** }
 758              		.loc 1 92 16 is_stmt 0 view .LVU179
 759 0000 DFED037A 		vldr.32	s15, .L24
 760 0004 20EE270A 		vmul.f32	s0, s0, s15
 761              	.LVL62:
  92:Core/Src/audio.c **** }
ARM GAS  /var/folders/0z/tsy30v1j4xl4_7kw94k978ww0000gn/T//ccNYdEij.s 			page 21


 762              		.loc 1 92 11 view .LVU180
 763 0008 80ED010A 		vstr.32	s0, [r0, #4]
  93:Core/Src/audio.c **** 
 764              		.loc 1 93 1 view .LVU181
 765 000c 7047     		bx	lr
 766              	.L25:
 767 000e 00BF     		.align	2
 768              	.L24:
 769 0010 8D3B803F 		.word	1065368461
 770              		.cfi_endproc
 771              	.LFE135:
 773              		.section	.text.audioBlock,"ax",%progbits
 774              		.align	1
 775              		.p2align 2,,3
 776              		.global	audioBlock
 777              		.syntax unified
 778              		.thumb
 779              		.thumb_func
 781              	audioBlock:
 782              	.LVL63:
 783              	.LFB136:
 104:Core/Src/audio.c **** 	int i;
 784              		.loc 1 104 1 is_stmt 1 view -0
 785              		.cfi_startproc
 786              		@ args = 0, pretend = 0, frame = 8
 787              		@ frame_needed = 0, uses_anonymous_args = 0
 105:Core/Src/audio.c **** 	int16_t *output;
 788              		.loc 1 105 2 view .LVU183
 106:Core/Src/audio.c **** 	output = buffer;
 789              		.loc 1 106 2 view .LVU184
 107:Core/Src/audio.c **** 	float sample, sampleL, sampleR;
 790              		.loc 1 107 2 view .LVU185
 108:Core/Src/audio.c **** 	uint16_t valueL, valueR;
 791              		.loc 1 108 2 view .LVU186
 109:Core/Src/audio.c **** 	
 792              		.loc 1 109 2 view .LVU187
 111:Core/Src/audio.c **** 	{
 793              		.loc 1 111 2 view .LVU188
 111:Core/Src/audio.c **** 	{
 794              		.loc 1 111 16 view .LVU189
 795 0000 0029     		cmp	r1, #0
 796 0002 00F01681 		beq	.L40
 104:Core/Src/audio.c **** 	int i;
 797              		.loc 1 104 1 is_stmt 0 view .LVU190
 798 0006 2DE9F04F 		push	{r4, r5, r6, r7, r8, r9, r10, fp, lr}
 799              		.cfi_def_cfa_offset 36
 800              		.cfi_offset 4, -36
 801              		.cfi_offset 5, -32
 802              		.cfi_offset 6, -28
 803              		.cfi_offset 7, -24
 804              		.cfi_offset 8, -20
 805              		.cfi_offset 9, -16
 806              		.cfi_offset 10, -12
 807              		.cfi_offset 11, -8
 808              		.cfi_offset 14, -4
 809 000a 2DED048B 		vpush.64	{d8, d9}
 810              		.cfi_def_cfa_offset 52
ARM GAS  /var/folders/0z/tsy30v1j4xl4_7kw94k978ww0000gn/T//ccNYdEij.s 			page 22


 811              		.cfi_offset 80, -52
 812              		.cfi_offset 81, -48
 813              		.cfi_offset 82, -44
 814              		.cfi_offset 83, -40
 815 000e 83B0     		sub	sp, sp, #12
 816              		.cfi_def_cfa_offset 64
 817 0010 831C     		adds	r3, r0, #2
 818 0012 DFF87C92 		ldr	r9, .L46+88
 819 0016 DFF87C82 		ldr	r8, .L46+92
 820              	.LBB128:
 821              	.LBB129:
  92:Core/Src/audio.c **** }
 822              		.loc 1 92 16 view .LVU191
 823 001a DFED8B8A 		vldr.32	s17, .L46+16
 824              	.LBE129:
 825              	.LBE128:
 826 001e DFED8B9A 		vldr.32	s19, .L46+20
 134:Core/Src/audio.c **** 		sample = MoogLP_compute(&Moog_filter, sample);
 827              		.loc 1 134 29 view .LVU192
 828 0022 9FED8B9A 		vldr.32	s18, .L46+24
 829 0026 8B4D     		ldr	r5, .L46+28
 830 0028 0193     		str	r3, [sp, #4]
 831 002a 8346     		mov	fp, r0
 832 002c 8A46     		mov	r10, r1
 111:Core/Src/audio.c **** 	{
 833              		.loc 1 111 9 view .LVU193
 834 002e 0024     		movs	r4, #0
 835 0030 56E0     		b	.L27
 836              	.LVL64:
 837              	.L44:
 838              	.LBB133:
 839              	.LBB134:
  66:Core/Inc/helper_functions.h ****     {
 840              		.loc 2 66 10 is_stmt 1 view .LVU194
  66:Core/Inc/helper_functions.h ****     {
 841              		.loc 2 66 13 is_stmt 0 view .LVU195
 842 0032 F0EE086A 		vmov.f32	s13, #3.0e+0
 843 0036 B4EEE67A 		vcmpe.f32	s14, s13
 844 003a F1EE10FA 		vmrs	APSR_nzcv, FPSCR
 845 003e 00F3ED80 		bgt	.L35
 846              	.LVL65:
 847              	.LBB135:
 848              	.LBI135:
  60:Core/Inc/helper_functions.h **** {
 849              		.loc 2 60 14 is_stmt 1 view .LVU196
 850              	.LBB136:
 851              		.loc 2 72 9 view .LVU197
 852              		.loc 2 72 27 is_stmt 0 view .LVU198
 853 0042 F3EE0B6A 		vmov.f32	s13, #2.7e+1
 854              		.loc 2 72 52 view .LVU199
 855 0046 F2EE025A 		vmov.f32	s11, #9.0e+0
 856 004a 67EE255A 		vmul.f32	s11, s14, s11
 857              		.loc 2 72 27 view .LVU200
 858 004e F0EE664A 		vmov.f32	s9, s13
 859 0052 E7EE074A 		vfma.f32	s9, s14, s14
 860              		.loc 2 72 45 view .LVU201
 861 0056 E7EE256A 		vfma.f32	s13, s14, s11
ARM GAS  /var/folders/0z/tsy30v1j4xl4_7kw94k978ww0000gn/T//ccNYdEij.s 			page 23


 862              		.loc 2 72 18 view .LVU202
 863 005a 27EE247A 		vmul.f32	s14, s14, s9
 864              	.LVL66:
 865              		.loc 2 72 45 view .LVU203
 866 005e B0EE666A 		vmov.f32	s12, s13
 867              	.LVL67:
 868              		.loc 2 72 36 view .LVU204
 869 0062 C7EE066A 		vdiv.f32	s13, s14, s12
 870              	.LBE136:
 871              	.LBE135:
 872              	.LBE134:
 873              	.LBE133:
 159:Core/Src/audio.c **** 		valueR = ((int16_t) ((32767.0f) * sampleR));
 874              		.loc 1 159 35 view .LVU205
 875 0066 9FED7C5A 		vldr.32	s10, .L46+32
 876 006a 26EE857A 		vmul.f32	s14, s13, s10
 159:Core/Src/audio.c **** 		valueR = ((int16_t) ((32767.0f) * sampleR));
 877              		.loc 1 159 13 view .LVU206
 878 006e BDEEC77A 		vcvt.s32.f32	s14, s14
 879 0072 17EE103A 		vmov	r3, s14	@ int
 880 0076 1AB2     		sxth	r2, r3
 881              	.L29:
 882              	.LVL68:
 156:Core/Src/audio.c **** 
 883              		.loc 1 156 3 is_stmt 1 view .LVU207
 884              	.LBB141:
 885              	.LBI141:
  60:Core/Inc/helper_functions.h **** {
 886              		.loc 2 60 14 view .LVU208
 887              	.LBB142:
  62:Core/Inc/helper_functions.h ****     {
 888              		.loc 2 62 5 view .LVU209
  62:Core/Inc/helper_functions.h ****     {
 889              		.loc 2 62 8 is_stmt 0 view .LVU210
 890 0078 B8EE087A 		vmov.f32	s14, #-3.0e+0
 891 007c F4EEC77A 		vcmpe.f32	s15, s14
 892 0080 F1EE10FA 		vmrs	APSR_nzcv, FPSCR
 893 0084 00F1C880 		bmi	.L36
 894              	.L45:
  66:Core/Inc/helper_functions.h ****     {
 895              		.loc 2 66 10 is_stmt 1 view .LVU211
  66:Core/Inc/helper_functions.h ****     {
 896              		.loc 2 66 13 is_stmt 0 view .LVU212
 897 0088 B0EE087A 		vmov.f32	s14, #3.0e+0
 898 008c F4EEC77A 		vcmpe.f32	s15, s14
 899 0090 F1EE10FA 		vmrs	APSR_nzcv, FPSCR
 900 0094 00F3C580 		bgt	.L37
 901              	.LVL69:
 902              	.LBB143:
 903              	.LBI143:
  60:Core/Inc/helper_functions.h **** {
 904              		.loc 2 60 14 is_stmt 1 view .LVU213
 905              	.LBB144:
 906              		.loc 2 72 9 view .LVU214
 907              		.loc 2 72 27 is_stmt 0 view .LVU215
 908 0098 B3EE0B7A 		vmov.f32	s14, #2.7e+1
 909              		.loc 2 72 52 view .LVU216
ARM GAS  /var/folders/0z/tsy30v1j4xl4_7kw94k978ww0000gn/T//ccNYdEij.s 			page 24


 910 009c B2EE026A 		vmov.f32	s12, #9.0e+0
 911 00a0 27EE866A 		vmul.f32	s12, s15, s12
 912              		.loc 2 72 27 view .LVU217
 913 00a4 B0EE475A 		vmov.f32	s10, s14
 914 00a8 A7EEA75A 		vfma.f32	s10, s15, s15
 915              		.loc 2 72 45 view .LVU218
 916 00ac A7EE867A 		vfma.f32	s14, s15, s12
 917              		.loc 2 72 18 view .LVU219
 918 00b0 67EE857A 		vmul.f32	s15, s15, s10
 919              	.LVL70:
 920              		.loc 2 72 45 view .LVU220
 921 00b4 F0EE476A 		vmov.f32	s13, s14
 922              	.LVL71:
 923              		.loc 2 72 36 view .LVU221
 924 00b8 87EEA67A 		vdiv.f32	s14, s15, s13
 925              	.LBE144:
 926              	.LBE143:
 927              	.LBE142:
 928              	.LBE141:
 160:Core/Src/audio.c **** 
 929              		.loc 1 160 35 view .LVU222
 930 00bc DFED665A 		vldr.32	s11, .L46+32
 931 00c0 67EE257A 		vmul.f32	s15, s14, s11
 160:Core/Src/audio.c **** 
 932              		.loc 1 160 13 view .LVU223
 933 00c4 FDEEE77A 		vcvt.s32.f32	s15, s15
 934 00c8 17EE903A 		vmov	r3, s15	@ int
 935 00cc 1BB2     		sxth	r3, r3
 936              	.L30:
 937              	.LVL72:
 159:Core/Src/audio.c **** 		valueR = ((int16_t) ((32767.0f) * sampleR));
 938              		.loc 1 159 3 is_stmt 1 view .LVU224
 160:Core/Src/audio.c **** 
 939              		.loc 1 160 3 view .LVU225
 163:Core/Src/audio.c **** 	    output[(i<<1) + 1] = valueR;	// RIGHT channel
 940              		.loc 1 163 3 view .LVU226
 163:Core/Src/audio.c **** 	    output[(i<<1) + 1] = valueR;	// RIGHT channel
 941              		.loc 1 163 16 is_stmt 0 view .LVU227
 942 00ce 2BF82420 		strh	r2, [fp, r4, lsl #2]	@ movhi
 164:Core/Src/audio.c **** 	}
 943              		.loc 1 164 6 is_stmt 1 view .LVU228
 164:Core/Src/audio.c **** 	}
 944              		.loc 1 164 25 is_stmt 0 view .LVU229
 945 00d2 019A     		ldr	r2, [sp, #4]
 946 00d4 22F82430 		strh	r3, [r2, r4, lsl #2]	@ movhi
 111:Core/Src/audio.c **** 	{
 947              		.loc 1 111 28 is_stmt 1 view .LVU230
 948 00d8 0134     		adds	r4, r4, #1
 949              	.LVL73:
 111:Core/Src/audio.c **** 	{
 950              		.loc 1 111 16 view .LVU231
 951 00da 5445     		cmp	r4, r10
 952 00dc 00F0A480 		beq	.L43
 953              	.LVL74:
 954              	.L27:
 114:Core/Src/audio.c **** 		
 955              		.loc 1 114 3 view .LVU232
ARM GAS  /var/folders/0z/tsy30v1j4xl4_7kw94k978ww0000gn/T//ccNYdEij.s 			page 25


 114:Core/Src/audio.c **** 		
 956              		.loc 1 114 12 is_stmt 0 view .LVU233
 957 00e0 5E4B     		ldr	r3, .L46+36
 958 00e2 1E78     		ldrb	r6, [r3]	@ zero_extendqisi2
 959 00e4 09EB8603 		add	r3, r9, r6, lsl #2
 960 00e8 93ED008A 		vldr.32	s16, [r3]
 961              	.LBB148:
 962              	.LBB149:
  92:Core/Src/audio.c **** }
 963              		.loc 1 92 11 view .LVU234
 964 00ec 5C4B     		ldr	r3, .L46+40
 965              	.LBE149:
 966              	.LBE148:
 114:Core/Src/audio.c **** 		
 967              		.loc 1 114 6 view .LVU235
 968 00ee 88ED008A 		vstr.32	s16, [r8]
 117:Core/Src/audio.c **** 		OpSetFreq(&osc2, 2*f0);
 969              		.loc 1 117 3 is_stmt 1 view .LVU236
 970              	.LVL75:
 971              	.LBB153:
 972              	.LBI128:
  90:Core/Src/audio.c **** {
 973              		.loc 1 90 6 view .LVU237
 974              	.LBB130:
  92:Core/Src/audio.c **** }
 975              		.loc 1 92 2 view .LVU238
 976              	.LBE130:
 977              	.LBE153:
 118:Core/Src/audio.c **** 		OpSetFreq(&osc3, f0-0.2);
 978              		.loc 1 118 3 is_stmt 0 view .LVU239
 979 00f2 78EE087A 		vadd.f32	s15, s16, s16
 980              	.LBB154:
 981              	.LBB131:
  92:Core/Src/audio.c **** }
 982              		.loc 1 92 16 view .LVU240
 983 00f6 28EE287A 		vmul.f32	s14, s16, s17
 984              	.LBE131:
 985              	.LBE154:
 986              	.LBB155:
 987              	.LBB150:
 988 00fa 67EEA87A 		vmul.f32	s15, s15, s17
 989              	.LBE150:
 990              	.LBE155:
 119:Core/Src/audio.c **** 		OpSetFreq(&osc4, f0 + 0.5);
 991              		.loc 1 119 22 view .LVU241
 992 00fe 18EE100A 		vmov	r0, s16
 993              	.LBB156:
 994              	.LBB151:
  92:Core/Src/audio.c **** }
 995              		.loc 1 92 11 view .LVU242
 996 0102 C3ED017A 		vstr.32	s15, [r3, #4]
 997              	.LBE151:
 998              	.LBE156:
 999              	.LBB157:
 1000              	.LBB132:
 1001 0106 85ED017A 		vstr.32	s14, [r5, #4]
 1002              	.LVL76:
ARM GAS  /var/folders/0z/tsy30v1j4xl4_7kw94k978ww0000gn/T//ccNYdEij.s 			page 26


  92:Core/Src/audio.c **** }
 1003              		.loc 1 92 11 view .LVU243
 1004              	.LBE132:
 1005              	.LBE157:
 118:Core/Src/audio.c **** 		OpSetFreq(&osc3, f0-0.2);
 1006              		.loc 1 118 3 is_stmt 1 view .LVU244
 1007              	.LBB158:
 1008              	.LBI148:
  90:Core/Src/audio.c **** {
 1009              		.loc 1 90 6 view .LVU245
 1010              	.LBB152:
  92:Core/Src/audio.c **** }
 1011              		.loc 1 92 2 view .LVU246
  92:Core/Src/audio.c **** }
 1012              		.loc 1 92 2 is_stmt 0 view .LVU247
 1013              	.LBE152:
 1014              	.LBE158:
 119:Core/Src/audio.c **** 		OpSetFreq(&osc4, f0 + 0.5);
 1015              		.loc 1 119 3 is_stmt 1 view .LVU248
 1016              	.LBB159:
 1017              	.LBI159:
  90:Core/Src/audio.c **** {
 1018              		.loc 1 90 6 view .LVU249
 1019              	.LBB160:
  92:Core/Src/audio.c **** }
 1020              		.loc 1 92 2 view .LVU250
 1021              	.LBE160:
 1022              	.LBE159:
 119:Core/Src/audio.c **** 		OpSetFreq(&osc4, f0 + 0.5);
 1023              		.loc 1 119 22 is_stmt 0 view .LVU251
 1024 010a FFF7FEFF 		bl	__aeabi_f2d
 1025              	.LVL77:
 1026 010e 4AA3     		adr	r3, .L46
 1027 0110 D3E90023 		ldrd	r2, [r3]
 1028 0114 FFF7FEFF 		bl	__aeabi_dsub
 1029              	.LVL78:
 119:Core/Src/audio.c **** 		OpSetFreq(&osc4, f0 + 0.5);
 1030              		.loc 1 119 3 view .LVU252
 1031 0118 FFF7FEFF 		bl	__aeabi_d2f
 1032              	.LVL79:
 1033              	.LBB165:
 1034              	.LBB161:
  92:Core/Src/audio.c **** }
 1035              		.loc 1 92 16 view .LVU253
 1036 011c 07EE900A 		vmov	s15, r0
 1037              	.LBE161:
 1038              	.LBE165:
 120:Core/Src/audio.c **** 		
 1039              		.loc 1 120 3 view .LVU254
 1040 0120 B6EE007A 		vmov.f32	s14, #5.0e-1
 122:Core/Src/audio.c **** 		OpSetFreq(&sub_osc, f_sub);
 1041              		.loc 1 122 16 view .LVU255
 1042 0124 0C2E     		cmp	r6, #12
 1043              	.LBB166:
 1044              	.LBB162:
  92:Core/Src/audio.c **** }
 1045              		.loc 1 92 16 view .LVU256
ARM GAS  /var/folders/0z/tsy30v1j4xl4_7kw94k978ww0000gn/T//ccNYdEij.s 			page 27


 1046 0126 67EEA87A 		vmul.f32	s15, s15, s17
 1047              	.LBE162:
 1048              	.LBE166:
 120:Core/Src/audio.c **** 		
 1049              		.loc 1 120 3 view .LVU257
 1050 012a 38EE078A 		vadd.f32	s16, s16, s14
 1051              	.LVL80:
 1052              	.LBB167:
 1053              	.LBB163:
  92:Core/Src/audio.c **** }
 1054              		.loc 1 92 11 view .LVU258
 1055 012e 4D4B     		ldr	r3, .L46+44
 1056              	.LBE163:
 1057              	.LBE167:
 128:Core/Src/audio.c **** 		osc1.mod = 0.033*index_env;	
 1058              		.loc 1 128 15 view .LVU259
 1059 0130 4D48     		ldr	r0, .L46+48
 1060              	.LBB168:
 1061              	.LBB164:
  92:Core/Src/audio.c **** }
 1062              		.loc 1 92 11 view .LVU260
 1063 0132 C3ED017A 		vstr.32	s15, [r3, #4]
 1064              	.LVL81:
  92:Core/Src/audio.c **** }
 1065              		.loc 1 92 11 view .LVU261
 1066              	.LBE164:
 1067              	.LBE168:
 120:Core/Src/audio.c **** 		
 1068              		.loc 1 120 3 is_stmt 1 view .LVU262
 1069              	.LBB169:
 1070              	.LBI169:
  90:Core/Src/audio.c **** {
 1071              		.loc 1 90 6 view .LVU263
 1072              	.LBB170:
  92:Core/Src/audio.c **** }
 1073              		.loc 1 92 2 view .LVU264
 1074              	.LBE170:
 1075              	.LBE169:
 122:Core/Src/audio.c **** 		OpSetFreq(&sub_osc, f_sub);
 1076              		.loc 1 122 15 is_stmt 0 view .LVU265
 1077 0136 84BF     		itt	hi
 1078 0138 09EB8606 		addhi	r6, r9, r6, lsl #2
 1079              	.LVL82:
 1080              	.LBB173:
 1081              	.LBB174:
  92:Core/Src/audio.c **** }
 1082              		.loc 1 92 16 view .LVU266
 1083 013c 56ED0C7A 		vldrhi.32	s15, [r6, #-48]
 1084              	.LBE174:
 1085              	.LBE173:
 1086              	.LBB178:
 1087              	.LBB171:
  92:Core/Src/audio.c **** }
 1088              		.loc 1 92 11 view .LVU267
 1089 0140 4A4B     		ldr	r3, .L46+52
  92:Core/Src/audio.c **** }
 1090              		.loc 1 92 16 view .LVU268
ARM GAS  /var/folders/0z/tsy30v1j4xl4_7kw94k978ww0000gn/T//ccNYdEij.s 			page 28


 1091 0142 28EE288A 		vmul.f32	s16, s16, s17
 1092              	.LBE171:
 1093              	.LBE178:
 1094              	.LBB179:
 1095              	.LBB175:
 1096 0146 88BF     		it	hi
 1097 0148 67EEA87A 		vmulhi.f32	s15, s15, s17
 1098              	.LBE175:
 1099              	.LBE179:
 1100              	.LBB180:
 1101              	.LBB172:
  92:Core/Src/audio.c **** }
 1102              		.loc 1 92 11 view .LVU269
 1103 014c 83ED018A 		vstr.32	s16, [r3, #4]
 1104              	.LVL83:
  92:Core/Src/audio.c **** }
 1105              		.loc 1 92 11 view .LVU270
 1106              	.LBE172:
 1107              	.LBE180:
 122:Core/Src/audio.c **** 		OpSetFreq(&sub_osc, f_sub);
 1108              		.loc 1 122 3 is_stmt 1 view .LVU271
 123:Core/Src/audio.c **** 		//sample = 0.5*(osc_polyblepSaw(&osc1) + osc_polyblepSaw(&osc2) + osc_polyblepSaw(&osc3) + osc_po
 1109              		.loc 1 123 3 view .LVU272
 1110              	.LBB181:
 1111              	.LBI173:
  90:Core/Src/audio.c **** {
 1112              		.loc 1 90 6 view .LVU273
 1113              	.LBB176:
  92:Core/Src/audio.c **** }
 1114              		.loc 1 92 2 view .LVU274
  92:Core/Src/audio.c **** }
 1115              		.loc 1 92 11 is_stmt 0 view .LVU275
 1116 0150 474B     		ldr	r3, .L46+56
 1117              	.LBE176:
 1118              	.LBE181:
 1119 0152 98BF     		it	ls
 1120 0154 F0EE697A 		vmovls.f32	s15, s19
 1121              	.LBB182:
 1122              	.LBB177:
 1123 0158 C3ED017A 		vstr.32	s15, [r3, #4]
 1124              	.LVL84:
  92:Core/Src/audio.c **** }
 1125              		.loc 1 92 11 view .LVU276
 1126              	.LBE177:
 1127              	.LBE182:
 128:Core/Src/audio.c **** 		osc1.mod = 0.033*index_env;	
 1128              		.loc 1 128 3 is_stmt 1 view .LVU277
 128:Core/Src/audio.c **** 		osc1.mod = 0.033*index_env;	
 1129              		.loc 1 128 15 is_stmt 0 view .LVU278
 1130 015c FFF7FEFF 		bl	ADSR_compute
 1131              	.LVL85:
 129:Core/Src/audio.c **** 		sample = osc_FM2OP(f0) + 0.5* osc_polyblepRect(&sub_osc);
 1132              		.loc 1 129 3 is_stmt 1 view .LVU279
 128:Core/Src/audio.c **** 		osc1.mod = 0.033*index_env;	
 1133              		.loc 1 128 15 is_stmt 0 view .LVU280
 1134 0160 10EE100A 		vmov	r0, s0
 129:Core/Src/audio.c **** 		sample = osc_FM2OP(f0) + 0.5* osc_polyblepRect(&sub_osc);
ARM GAS  /var/folders/0z/tsy30v1j4xl4_7kw94k978ww0000gn/T//ccNYdEij.s 			page 29


 1135              		.loc 1 129 19 view .LVU281
 1136 0164 FFF7FEFF 		bl	__aeabi_f2d
 1137              	.LVL86:
 1138 0168 35A3     		adr	r3, .L46+8
 1139 016a D3E90023 		ldrd	r2, [r3]
 1140 016e FFF7FEFF 		bl	__aeabi_dmul
 1141              	.LVL87:
 1142 0172 FFF7FEFF 		bl	__aeabi_d2f
 1143              	.LVL88:
 130:Core/Src/audio.c **** 
 1144              		.loc 1 130 12 view .LVU282
 1145 0176 98ED000A 		vldr.32	s0, [r8]
 129:Core/Src/audio.c **** 		sample = osc_FM2OP(f0) + 0.5* osc_polyblepRect(&sub_osc);
 1146              		.loc 1 129 19 view .LVU283
 1147 017a E860     		str	r0, [r5, #12]	@ float
 130:Core/Src/audio.c **** 
 1148              		.loc 1 130 3 is_stmt 1 view .LVU284
 130:Core/Src/audio.c **** 
 1149              		.loc 1 130 12 is_stmt 0 view .LVU285
 1150 017c FFF7FEFF 		bl	osc_FM2OP
 1151              	.LVL89:
 130:Core/Src/audio.c **** 
 1152              		.loc 1 130 33 view .LVU286
 1153 0180 3B48     		ldr	r0, .L46+56
 130:Core/Src/audio.c **** 
 1154              		.loc 1 130 12 view .LVU287
 1155 0182 10EE107A 		vmov	r7, s0
 130:Core/Src/audio.c **** 
 1156              		.loc 1 130 33 view .LVU288
 1157 0186 FFF7FEFF 		bl	osc_polyblepRect
 1158              	.LVL90:
 1159 018a 10EE100A 		vmov	r0, s0
 1160 018e FFF7FEFF 		bl	__aeabi_f2d
 1161              	.LVL91:
 130:Core/Src/audio.c **** 
 1162              		.loc 1 130 31 view .LVU289
 1163 0192 384B     		ldr	r3, .L46+60
 1164 0194 0022     		movs	r2, #0
 1165 0196 FFF7FEFF 		bl	__aeabi_dmul
 1166              	.LVL92:
 1167 019a 0246     		mov	r2, r0
 130:Core/Src/audio.c **** 
 1168              		.loc 1 130 12 view .LVU290
 1169 019c 3846     		mov	r0, r7	@ float
 130:Core/Src/audio.c **** 
 1170              		.loc 1 130 31 view .LVU291
 1171 019e 1646     		mov	r6, r2
 1172 01a0 0F46     		mov	r7, r1
 130:Core/Src/audio.c **** 
 1173              		.loc 1 130 12 view .LVU292
 1174 01a2 FFF7FEFF 		bl	__aeabi_f2d
 1175              	.LVL93:
 1176 01a6 0246     		mov	r2, r0
 1177 01a8 0B46     		mov	r3, r1
 130:Core/Src/audio.c **** 
 1178              		.loc 1 130 26 view .LVU293
 1179 01aa 3046     		mov	r0, r6
ARM GAS  /var/folders/0z/tsy30v1j4xl4_7kw94k978ww0000gn/T//ccNYdEij.s 			page 30


 1180 01ac 3946     		mov	r1, r7
 1181 01ae FFF7FEFF 		bl	__aeabi_dadd
 1182              	.LVL94:
 130:Core/Src/audio.c **** 
 1183              		.loc 1 130 10 view .LVU294
 1184 01b2 FFF7FEFF 		bl	__aeabi_d2f
 1185              	.LVL95:
 1186 01b6 08EE100A 		vmov	s16, r0
 1187              	.LVL96:
 133:Core/Src/audio.c **** 		Moog_filter.cutoff = 1300 * filt_env;
 1188              		.loc 1 133 3 is_stmt 1 view .LVU295
 133:Core/Src/audio.c **** 		Moog_filter.cutoff = 1300 * filt_env;
 1189              		.loc 1 133 14 is_stmt 0 view .LVU296
 1190 01ba 2F48     		ldr	r0, .L46+64
 1191              	.LVL97:
 133:Core/Src/audio.c **** 		Moog_filter.cutoff = 1300 * filt_env;
 1192              		.loc 1 133 14 view .LVU297
 1193 01bc FFF7FEFF 		bl	ADSR_compute
 1194              	.LVL98:
 134:Core/Src/audio.c **** 		sample = MoogLP_compute(&Moog_filter, sample);
 1195              		.loc 1 134 3 is_stmt 1 view .LVU298
 134:Core/Src/audio.c **** 		sample = MoogLP_compute(&Moog_filter, sample);
 1196              		.loc 1 134 22 is_stmt 0 view .LVU299
 1197 01c0 2E4B     		ldr	r3, .L46+68
 134:Core/Src/audio.c **** 		sample = MoogLP_compute(&Moog_filter, sample);
 1198              		.loc 1 134 29 view .LVU300
 1199 01c2 60EE097A 		vmul.f32	s15, s0, s18
 135:Core/Src/audio.c **** 	
 1200              		.loc 1 135 12 view .LVU301
 1201 01c6 1846     		mov	r0, r3
 1202 01c8 B0EE480A 		vmov.f32	s0, s16
 134:Core/Src/audio.c **** 		sample = MoogLP_compute(&Moog_filter, sample);
 1203              		.loc 1 134 22 view .LVU302
 1204 01cc C3ED007A 		vstr.32	s15, [r3]
 135:Core/Src/audio.c **** 	
 1205              		.loc 1 135 3 is_stmt 1 view .LVU303
 135:Core/Src/audio.c **** 	
 1206              		.loc 1 135 12 is_stmt 0 view .LVU304
 1207 01d0 FFF7FEFF 		bl	MoogLP_compute
 1208              	.LVL99:
 140:Core/Src/audio.c **** 		sample *= amp_env;
 1209              		.loc 1 140 13 view .LVU305
 1210 01d4 2A48     		ldr	r0, .L46+72
 135:Core/Src/audio.c **** 	
 1211              		.loc 1 135 12 view .LVU306
 1212 01d6 B0EE408A 		vmov.f32	s16, s0
 1213              	.LVL100:
 140:Core/Src/audio.c **** 		sample *= amp_env;
 1214              		.loc 1 140 3 is_stmt 1 view .LVU307
 140:Core/Src/audio.c **** 		sample *= amp_env;
 1215              		.loc 1 140 13 is_stmt 0 view .LVU308
 1216 01da FFF7FEFF 		bl	ADSR_compute
 1217              	.LVL101:
 141:Core/Src/audio.c **** 
 1218              		.loc 1 141 3 is_stmt 1 view .LVU309
 148:Core/Src/audio.c **** 		sampleL = delayLOut;
 1219              		.loc 1 148 3 view .LVU310
ARM GAS  /var/folders/0z/tsy30v1j4xl4_7kw94k978ww0000gn/T//ccNYdEij.s 			page 31


 1220 01de 2949     		ldr	r1, .L46+76
 1221 01e0 2948     		ldr	r0, .L46+80
 1222 01e2 20EE080A 		vmul.f32	s0, s0, s16
 1223              	.LVL102:
 148:Core/Src/audio.c **** 		sampleL = delayLOut;
 1224              		.loc 1 148 3 is_stmt 0 view .LVU311
 1225 01e6 FFF7FEFF 		bl	pingpongDelay_compute
 1226              	.LVL103:
 149:Core/Src/audio.c **** 		sampleR = delayROut;
 1227              		.loc 1 149 3 is_stmt 1 view .LVU312
 149:Core/Src/audio.c **** 		sampleR = delayROut;
 1228              		.loc 1 149 11 is_stmt 0 view .LVU313
 1229 01ea 274B     		ldr	r3, .L46+80
 1230 01ec 93ED007A 		vldr.32	s14, [r3]
 1231              	.LVL104:
 150:Core/Src/audio.c **** 		//sampleL = sample;
 1232              		.loc 1 150 3 is_stmt 1 view .LVU314
 150:Core/Src/audio.c **** 		//sampleL = sample;
 1233              		.loc 1 150 11 is_stmt 0 view .LVU315
 1234 01f0 244B     		ldr	r3, .L46+76
 1235              	.LBB183:
 1236              	.LBB137:
  62:Core/Inc/helper_functions.h ****     {
 1237              		.loc 2 62 8 view .LVU316
 1238 01f2 F8EE086A 		vmov.f32	s13, #-3.0e+0
 1239 01f6 B4EEE67A 		vcmpe.f32	s14, s13
 1240 01fa F1EE10FA 		vmrs	APSR_nzcv, FPSCR
 1241              	.LBE137:
 1242              	.LBE183:
 150:Core/Src/audio.c **** 		//sampleL = sample;
 1243              		.loc 1 150 11 view .LVU317
 1244 01fe D3ED007A 		vldr.32	s15, [r3]
 1245              	.LVL105:
 155:Core/Src/audio.c **** 		sampleR = SoftClip(sampleR);
 1246              		.loc 1 155 3 is_stmt 1 view .LVU318
 1247              	.LBB184:
 1248              	.LBI133:
  60:Core/Inc/helper_functions.h **** {
 1249              		.loc 2 60 14 view .LVU319
 1250              	.LBB138:
  62:Core/Inc/helper_functions.h ****     {
 1251              		.loc 2 62 5 view .LVU320
  62:Core/Inc/helper_functions.h ****     {
 1252              		.loc 2 62 8 is_stmt 0 view .LVU321
 1253 0202 7FF516AF 		bpl	.L44
 1254              	.LBE138:
 1255              	.LBE184:
 1256              	.LBB185:
 1257              	.LBB145:
 1258 0206 B8EE087A 		vmov.f32	s14, #-3.0e+0
 1259              	.LVL106:
  62:Core/Inc/helper_functions.h ****     {
 1260              		.loc 2 62 8 view .LVU322
 1261 020a F4EEC77A 		vcmpe.f32	s15, s14
 1262 020e F1EE10FA 		vmrs	APSR_nzcv, FPSCR
 1263              	.LBE145:
 1264              	.LBE185:
ARM GAS  /var/folders/0z/tsy30v1j4xl4_7kw94k978ww0000gn/T//ccNYdEij.s 			page 32


 1265              	.LBB186:
 1266              	.LBB139:
 1267 0212 1E4A     		ldr	r2, .L46+84
 1268              	.LVL107:
  62:Core/Inc/helper_functions.h ****     {
 1269              		.loc 2 62 8 view .LVU323
 1270              	.LBE139:
 1271              	.LBE186:
 156:Core/Src/audio.c **** 
 1272              		.loc 1 156 3 is_stmt 1 view .LVU324
 1273              	.LBB187:
  60:Core/Inc/helper_functions.h **** {
 1274              		.loc 2 60 14 view .LVU325
 1275              	.LBB146:
  62:Core/Inc/helper_functions.h ****     {
 1276              		.loc 2 62 5 view .LVU326
  62:Core/Inc/helper_functions.h ****     {
 1277              		.loc 2 62 8 is_stmt 0 view .LVU327
 1278 0214 7FF538AF 		bpl	.L45
 1279              	.L36:
 1280 0218 1C4B     		ldr	r3, .L46+84
 1281 021a 58E7     		b	.L30
 1282              	.LVL108:
 1283              	.L35:
  62:Core/Inc/helper_functions.h ****     {
 1284              		.loc 2 62 8 view .LVU328
 1285              	.LBE146:
 1286              	.LBE187:
 1287              	.LBB188:
 1288              	.LBB140:
 1289 021c 47F6FF72 		movw	r2, #32767
 1290 0220 2AE7     		b	.L29
 1291              	.LVL109:
 1292              	.L37:
  62:Core/Inc/helper_functions.h ****     {
 1293              		.loc 2 62 8 view .LVU329
 1294              	.LBE140:
 1295              	.LBE188:
 1296              	.LBB189:
 1297              	.LBB147:
 1298 0222 47F6FF73 		movw	r3, #32767
 1299 0226 52E7     		b	.L30
 1300              	.LVL110:
 1301              	.L43:
  62:Core/Inc/helper_functions.h ****     {
 1302              		.loc 2 62 8 view .LVU330
 1303              	.LBE147:
 1304              	.LBE189:
 1305              		.loc 1 166 1 view .LVU331
 1306 0228 03B0     		add	sp, sp, #12
 1307              		.cfi_def_cfa_offset 52
 1308              		@ sp needed
 1309 022a BDEC048B 		vldm	sp!, {d8-d9}
 1310              		.cfi_restore 82
 1311              		.cfi_restore 83
 1312              		.cfi_restore 80
 1313              		.cfi_restore 81
ARM GAS  /var/folders/0z/tsy30v1j4xl4_7kw94k978ww0000gn/T//ccNYdEij.s 			page 33


 1314              		.cfi_def_cfa_offset 36
 1315 022e BDE8F08F 		pop	{r4, r5, r6, r7, r8, r9, r10, fp, pc}
 1316              	.LVL111:
 1317              	.L40:
 1318              		.cfi_def_cfa_offset 0
 1319              		.cfi_restore 4
 1320              		.cfi_restore 5
 1321              		.cfi_restore 6
 1322              		.cfi_restore 7
 1323              		.cfi_restore 8
 1324              		.cfi_restore 9
 1325              		.cfi_restore 10
 1326              		.cfi_restore 11
 1327              		.cfi_restore 14
 1328              		.loc 1 166 1 view .LVU332
 1329 0232 7047     		bx	lr
 1330              	.L47:
 1331 0234 AFF30080 		.align	3
 1332              	.L46:
 1333 0238 9A999999 		.word	-1717986918
 1334 023c 9999C93F 		.word	1070176665
 1335 0240 4C378941 		.word	1099511628
 1336 0244 60E5A03F 		.word	1067509088
 1337 0248 8D3B803F 		.word	1065368461
 1338 024c EF0C0341 		.word	1090718959
 1339 0250 0080A244 		.word	1151500288
 1340 0254 00000000 		.word	osc1
 1341 0258 00FEFF46 		.word	1191181824
 1342 025c 00000000 		.word	currentPitch
 1343 0260 00000000 		.word	osc2
 1344 0264 00000000 		.word	osc3
 1345 0268 00000000 		.word	adsr_index
 1346 026c 00000000 		.word	osc4
 1347 0270 00000000 		.word	sub_osc
 1348 0274 0000E03F 		.word	1071644672
 1349 0278 00000000 		.word	adsr_filt
 1350 027c 00000000 		.word	Moog_filter
 1351 0280 00000000 		.word	adsr_amp
 1352 0284 00000000 		.word	.LANCHOR2
 1353 0288 00000000 		.word	.LANCHOR3
 1354 028c 0180FFFF 		.word	-32767
 1355 0290 00000000 		.word	.LANCHOR0
 1356 0294 00000000 		.word	.LANCHOR1
 1357              		.cfi_endproc
 1358              	.LFE136:
 1360              		.section	.text.BSP_AUDIO_OUT_HalfTransfer_CallBack,"ax",%progbits
 1361              		.align	1
 1362              		.p2align 2,,3
 1363              		.global	BSP_AUDIO_OUT_HalfTransfer_CallBack
 1364              		.syntax unified
 1365              		.thumb
 1366              		.thumb_func
 1368              	BSP_AUDIO_OUT_HalfTransfer_CallBack:
 1369              	.LFB137:
 167:Core/Src/audio.c **** 
 168:Core/Src/audio.c **** 
 169:Core/Src/audio.c **** 
ARM GAS  /var/folders/0z/tsy30v1j4xl4_7kw94k978ww0000gn/T//ccNYdEij.s 			page 34


 170:Core/Src/audio.c **** void BSP_AUDIO_OUT_HalfTransfer_CallBack(void)
 171:Core/Src/audio.c **** {
 1370              		.loc 1 171 1 is_stmt 1 view -0
 1371              		.cfi_startproc
 1372              		@ args = 0, pretend = 0, frame = 0
 1373              		@ frame_needed = 0, uses_anonymous_args = 0
 1374              		@ link register save eliminated.
 172:Core/Src/audio.c **** 	audioBlock((uint16_t *)audioBuffer, BUFFER_SIZE_DIV_4);
 1375              		.loc 1 172 2 view .LVU334
 1376 0000 0148     		ldr	r0, .L49
 1377 0002 FFF7FEBF 		b	audioBlock.constprop.0
 1378              	.LVL112:
 1379              	.L50:
 1380 0006 00BF     		.align	2
 1381              	.L49:
 1382 0008 00000000 		.word	.LANCHOR4
 1383              		.cfi_endproc
 1384              	.LFE137:
 1386              		.section	.text.BSP_AUDIO_OUT_TransferComplete_CallBack,"ax",%progbits
 1387              		.align	1
 1388              		.p2align 2,,3
 1389              		.global	BSP_AUDIO_OUT_TransferComplete_CallBack
 1390              		.syntax unified
 1391              		.thumb
 1392              		.thumb_func
 1394              	BSP_AUDIO_OUT_TransferComplete_CallBack:
 1395              	.LFB138:
 173:Core/Src/audio.c **** }
 174:Core/Src/audio.c **** 
 175:Core/Src/audio.c **** void BSP_AUDIO_OUT_TransferComplete_CallBack(void)
 176:Core/Src/audio.c **** {
 1396              		.loc 1 176 1 view -0
 1397              		.cfi_startproc
 1398              		@ args = 0, pretend = 0, frame = 0
 1399              		@ frame_needed = 0, uses_anonymous_args = 0
 1400              		@ link register save eliminated.
 177:Core/Src/audio.c **** 	audioBlock((uint16_t *)(audioBuffer + BUFFER_SIZE_DIV_2), BUFFER_SIZE_DIV_4);
 1401              		.loc 1 177 2 view .LVU336
 1402 0000 0148     		ldr	r0, .L52
 1403 0002 FFF7FEBF 		b	audioBlock.constprop.0
 1404              	.LVL113:
 1405              	.L53:
 1406 0006 00BF     		.align	2
 1407              	.L52:
 1408 0008 00010000 		.word	.LANCHOR4+256
 1409              		.cfi_endproc
 1410              	.LFE138:
 1412              		.section	.text.BSP_AUDIO_OUT_Error_CallBack,"ax",%progbits
 1413              		.align	1
 1414              		.p2align 2,,3
 1415              		.global	BSP_AUDIO_OUT_Error_CallBack
 1416              		.syntax unified
 1417              		.thumb
 1418              		.thumb_func
 1420              	BSP_AUDIO_OUT_Error_CallBack:
 1421              	.LFB139:
 178:Core/Src/audio.c **** }
ARM GAS  /var/folders/0z/tsy30v1j4xl4_7kw94k978ww0000gn/T//ccNYdEij.s 			page 35


 179:Core/Src/audio.c **** 
 180:Core/Src/audio.c **** void BSP_AUDIO_OUT_Error_CallBack(void)
 181:Core/Src/audio.c **** {
 1422              		.loc 1 181 1 view -0
 1423              		.cfi_startproc
 1424              		@ Volatile: function does not return.
 1425              		@ args = 0, pretend = 0, frame = 0
 1426              		@ frame_needed = 0, uses_anonymous_args = 0
 1427              		@ link register save eliminated.
 1428              	.L55:
 182:Core/Src/audio.c **** 	/* Stop the program with an infinite loop */
 183:Core/Src/audio.c **** 	while (1)
 1429              		.loc 1 183 2 discriminator 1 view .LVU338
 184:Core/Src/audio.c **** 	{
 185:Core/Src/audio.c **** 	}
 1430              		.loc 1 185 2 discriminator 1 view .LVU339
 183:Core/Src/audio.c **** 	{
 1431              		.loc 1 183 8 discriminator 1 view .LVU340
 1432 0000 FEE7     		b	.L55
 1433              		.cfi_endproc
 1434              	.LFE139:
 1436 0002 00BF     		.section	.text.DMA1_Stream7_IRQHandler,"ax",%progbits
 1437              		.align	1
 1438              		.p2align 2,,3
 1439              		.global	DMA1_Stream7_IRQHandler
 1440              		.syntax unified
 1441              		.thumb
 1442              		.thumb_func
 1444              	DMA1_Stream7_IRQHandler:
 1445              	.LFB140:
 186:Core/Src/audio.c **** }
 187:Core/Src/audio.c **** 
 188:Core/Src/audio.c **** 
 189:Core/Src/audio.c **** void I2S3_IRQHandler(void)
 190:Core/Src/audio.c **** {
 1446              		.loc 1 190 1 view -0
 1447              		.cfi_startproc
 1448              		@ args = 0, pretend = 0, frame = 0
 1449              		@ frame_needed = 0, uses_anonymous_args = 0
 1450              		@ link register save eliminated.
 191:Core/Src/audio.c **** 	HAL_DMA_IRQHandler(hAudioOutI2s.hdmatx);
 1451              		.loc 1 191 2 view .LVU342
 1452 0000 014B     		ldr	r3, .L57
 1453 0002 986B     		ldr	r0, [r3, #56]
 1454 0004 FFF7FEBF 		b	HAL_DMA_IRQHandler
 1455              	.LVL114:
 1456              	.L58:
 1457              		.align	2
 1458              	.L57:
 1459 0008 00000000 		.word	hAudioOutI2s
 1460              		.cfi_endproc
 1461              	.LFE140:
 1463              		.section	.text.DMA1_Stream3_IRQHandler,"ax",%progbits
 1464              		.align	1
 1465              		.p2align 2,,3
 1466              		.global	DMA1_Stream3_IRQHandler
 1467              		.syntax unified
ARM GAS  /var/folders/0z/tsy30v1j4xl4_7kw94k978ww0000gn/T//ccNYdEij.s 			page 36


 1468              		.thumb
 1469              		.thumb_func
 1471              	DMA1_Stream3_IRQHandler:
 1472              	.LFB141:
 192:Core/Src/audio.c **** }
 193:Core/Src/audio.c **** void I2S2_IRQHandler(void)
 194:Core/Src/audio.c **** {
 1473              		.loc 1 194 1 view -0
 1474              		.cfi_startproc
 1475              		@ args = 0, pretend = 0, frame = 0
 1476              		@ frame_needed = 0, uses_anonymous_args = 0
 1477              		@ link register save eliminated.
 195:Core/Src/audio.c **** 	HAL_DMA_IRQHandler(hAudioInI2s.hdmarx);
 1478              		.loc 1 195 2 view .LVU344
 1479 0000 014B     		ldr	r3, .L60
 1480 0002 D86B     		ldr	r0, [r3, #60]
 1481 0004 FFF7FEBF 		b	HAL_DMA_IRQHandler
 1482              	.LVL115:
 1483              	.L61:
 1484              		.align	2
 1485              	.L60:
 1486 0008 00000000 		.word	hAudioInI2s
 1487              		.cfi_endproc
 1488              	.LFE141:
 1490              		.global	delayROut
 1491              		.global	delayLOut
 1492              		.global	audioBuffer
 1493              		.global	pbend
 1494              		.global	mtof
 1495              		.section	.bss.audioBuffer,"aw",%nobits
 1496              		.align	2
 1497              		.set	.LANCHOR4,. + 0
 1500              	audioBuffer:
 1501 0000 00000000 		.space	512
 1501      00000000 
 1501      00000000 
 1501      00000000 
 1501      00000000 
 1502              		.section	.bss.delayLOut,"aw",%nobits
 1503              		.align	2
 1504              		.set	.LANCHOR3,. + 0
 1507              	delayLOut:
 1508 0000 00000000 		.space	4
 1509              		.section	.bss.delayROut,"aw",%nobits
 1510              		.align	2
 1511              		.set	.LANCHOR2,. + 0
 1514              	delayROut:
 1515 0000 00000000 		.space	4
 1516              		.section	.bss.f0,"aw",%nobits
 1517              		.align	2
 1518              		.set	.LANCHOR1,. + 0
 1521              	f0:
 1522 0000 00000000 		.space	4
 1523              		.section	.rodata.mtof,"a"
 1524              		.align	2
 1525              		.set	.LANCHOR0,. + 0
 1528              	mtof:
ARM GAS  /var/folders/0z/tsy30v1j4xl4_7kw94k978ww0000gn/T//ccNYdEij.s 			page 37


 1529 0000 13D00241 		.word	1090703379
 1530 0004 60970A41 		.word	1091213152
 1531 0008 17D51241 		.word	1091753239
 1532 000c 41901B41 		.word	1092325441
 1533 0010 54D02441 		.word	1092931668
 1534 0014 369D2E41 		.word	1093573942
 1535 0018 4AFF3841 		.word	1094254410
 1536 001c 6AFF4341 		.word	1094975338
 1537 0020 01A74F41 		.word	1095739137
 1538 0024 00005C41 		.word	1096548352
 1539 0028 F7146941 		.word	1097405687
 1540 002c 10F17641 		.word	1098314000
 1541 0030 13D08241 		.word	1099091987
 1542 0034 60978A41 		.word	1099601760
 1543 0038 17D59241 		.word	1100141847
 1544 003c 41909B41 		.word	1100714049
 1545 0040 54D0A441 		.word	1101320276
 1546 0044 369DAE41 		.word	1101962550
 1547 0048 49FFB841 		.word	1102643017
 1548 004c 6BFFC341 		.word	1103363947
 1549 0050 01A7CF41 		.word	1104127745
 1550 0054 0000DC41 		.word	1104936960
 1551 0058 F614E941 		.word	1105794294
 1552 005c 10F1F641 		.word	1106702608
 1553 0060 13D00242 		.word	1107480595
 1554 0064 60970A42 		.word	1107990368
 1555 0068 17D51242 		.word	1108530455
 1556 006c 41901B42 		.word	1109102657
 1557 0070 54D02442 		.word	1109708884
 1558 0074 379D2E42 		.word	1110351159
 1559 0078 49FF3842 		.word	1111031625
 1560 007c 6AFF4342 		.word	1111752554
 1561 0080 00A74F42 		.word	1112516352
 1562 0084 00005C42 		.word	1113325568
 1563 0088 F6146942 		.word	1114182902
 1564 008c 10F17642 		.word	1115091216
 1565 0090 12D08242 		.word	1115869202
 1566 0094 60978A42 		.word	1116378976
 1567 0098 17D59242 		.word	1116919063
 1568 009c 41909B42 		.word	1117491265
 1569 00a0 54D0A442 		.word	1118097492
 1570 00a4 379DAE42 		.word	1118739767
 1571 00a8 49FFB842 		.word	1119420233
 1572 00ac 6AFFC342 		.word	1120141162
 1573 00b0 00A7CF42 		.word	1120904960
 1574 00b4 0000DC42 		.word	1121714176
 1575 00b8 F614E942 		.word	1122571510
 1576 00bc 10F1F642 		.word	1123479824
 1577 00c0 13D00243 		.word	1124257811
 1578 00c4 60970A43 		.word	1124767584
 1579 00c8 17D51243 		.word	1125307671
 1580 00cc 41901B43 		.word	1125879873
 1581 00d0 54D02443 		.word	1126486100
 1582 00d4 379D2E43 		.word	1127128375
 1583 00d8 49FF3843 		.word	1127808841
 1584 00dc 6AFF4343 		.word	1128529770
 1585 00e0 00A74F43 		.word	1129293568
ARM GAS  /var/folders/0z/tsy30v1j4xl4_7kw94k978ww0000gn/T//ccNYdEij.s 			page 38


 1586 00e4 00005C43 		.word	1130102784
 1587 00e8 F6146943 		.word	1130960118
 1588 00ec 10F17643 		.word	1131868432
 1589 00f0 13D08243 		.word	1132646419
 1590 00f4 60978A43 		.word	1133156192
 1591 00f8 17D59243 		.word	1133696279
 1592 00fc 41909B43 		.word	1134268481
 1593 0100 54D0A443 		.word	1134874708
 1594 0104 379DAE43 		.word	1135516983
 1595 0108 49FFB843 		.word	1136197449
 1596 010c 6AFFC343 		.word	1136918378
 1597 0110 00A7CF43 		.word	1137682176
 1598 0114 0000DC43 		.word	1138491392
 1599 0118 F614E943 		.word	1139348726
 1600 011c 10F1F643 		.word	1140257040
 1601 0120 13D00244 		.word	1141035027
 1602 0124 60970A44 		.word	1141544800
 1603 0128 17D51244 		.word	1142084887
 1604 012c 41901B44 		.word	1142657089
 1605 0130 54D02444 		.word	1143263316
 1606 0134 379D2E44 		.word	1143905591
 1607 0138 49FF3844 		.word	1144586057
 1608 013c 6AFF4344 		.word	1145306986
 1609 0140 00A74F44 		.word	1146070784
 1610 0144 00005C44 		.word	1146880000
 1611 0148 F6146944 		.word	1147737334
 1612 014c 10F17644 		.word	1148645648
 1613 0150 13D08244 		.word	1149423635
 1614 0154 60978A44 		.word	1149933408
 1615 0158 17D59244 		.word	1150473495
 1616 015c 41909B44 		.word	1151045697
 1617 0160 54D0A444 		.word	1151651924
 1618 0164 379DAE44 		.word	1152294199
 1619 0168 49FFB844 		.word	1152974665
 1620 016c 6AFFC344 		.word	1153695594
 1621 0170 00A7CF44 		.word	1154459392
 1622 0174 0000DC44 		.word	1155268608
 1623 0178 F614E944 		.word	1156125942
 1624 017c 10F1F644 		.word	1157034256
 1625 0180 13D00245 		.word	1157812243
 1626 0184 60970A45 		.word	1158322016
 1627 0188 17D51245 		.word	1158862103
 1628 018c 41901B45 		.word	1159434305
 1629 0190 54D02445 		.word	1160040532
 1630 0194 379D2E45 		.word	1160682807
 1631 0198 49FF3845 		.word	1161363273
 1632 019c 6AFF4345 		.word	1162084202
 1633 01a0 00A74F45 		.word	1162848000
 1634 01a4 00005C45 		.word	1163657216
 1635 01a8 F6146945 		.word	1164514550
 1636 01ac 10F17645 		.word	1165422864
 1637 01b0 13D08245 		.word	1166200851
 1638 01b4 60978A45 		.word	1166710624
 1639 01b8 17D59245 		.word	1167250711
 1640 01bc 41909B45 		.word	1167822913
 1641 01c0 54D0A445 		.word	1168429140
 1642 01c4 379DAE45 		.word	1169071415
ARM GAS  /var/folders/0z/tsy30v1j4xl4_7kw94k978ww0000gn/T//ccNYdEij.s 			page 39


 1643 01c8 49FFB845 		.word	1169751881
 1644 01cc 6AFFC345 		.word	1170472810
 1645 01d0 00A7CF45 		.word	1171236608
 1646 01d4 0000DC45 		.word	1172045824
 1647 01d8 F614E945 		.word	1172903158
 1648 01dc 10F1F645 		.word	1173811472
 1649 01e0 13D00246 		.word	1174589459
 1650 01e4 60970A46 		.word	1175099232
 1651 01e8 17D51246 		.word	1175639319
 1652 01ec 41901B46 		.word	1176211521
 1653 01f0 54D02446 		.word	1176817748
 1654 01f4 379D2E46 		.word	1177460023
 1655 01f8 49FF3846 		.word	1178140489
 1656 01fc 6AFF4346 		.word	1178861418
 1657              		.section	.rodata.pbend,"a"
 1658              		.align	2
 1661              	pbend:
 1662 0000 0000003F 		.word	1056964608
 1663 0004 5E2C003F 		.word	1056975966
 1664 0008 DE58003F 		.word	1056987358
 1665 000c 5E85003F 		.word	1056998750
 1666 0010 EEB1003F 		.word	1057010158
 1667 0014 8FDE003F 		.word	1057021583
 1668 0018 410B013F 		.word	1057033025
 1669 001c 0438013F 		.word	1057044484
 1670 0020 D864013F 		.word	1057055960
 1671 0024 AC91013F 		.word	1057067436
 1672 0028 A1BE013F 		.word	1057078945
 1673 002c A7EB013F 		.word	1057090471
 1674 0030 AD18023F 		.word	1057101997
 1675 0034 D445023F 		.word	1057113556
 1676 0038 FC72023F 		.word	1057125116
 1677 003c 34A0023F 		.word	1057136692
 1678 0040 8ECD023F 		.word	1057148302
 1679 0044 E8FA023F 		.word	1057159912
 1680 0048 5228033F 		.word	1057171538
 1681 004c CE55033F 		.word	1057183182
 1682 0050 5A83033F 		.word	1057194842
 1683 0054 F7B0033F 		.word	1057206519
 1684 0058 A4DE033F 		.word	1057218212
 1685 005c 630C043F 		.word	1057229923
 1686 0060 213A043F 		.word	1057241633
 1687 0064 0168043F 		.word	1057253377
 1688 0068 F295043F 		.word	1057265138
 1689 006c E3C3043F 		.word	1057276899
 1690 0070 F5F1043F 		.word	1057288693
 1691 0074 1920053F 		.word	1057300505
 1692 0078 3C4E053F 		.word	1057312316
 1693 007c 707C053F 		.word	1057324144
 1694 0080 C5AA053F 		.word	1057336005
 1695 0084 1BD9053F 		.word	1057347867
 1696 0088 9207063F 		.word	1057359762
 1697 008c 0936063F 		.word	1057371657
 1698 0090 9164063F 		.word	1057383569
 1699 0094 2993063F 		.word	1057395497
 1700 0098 D3C1063F 		.word	1057407443
 1701 009c 9EF0063F 		.word	1057419422
ARM GAS  /var/folders/0z/tsy30v1j4xl4_7kw94k978ww0000gn/T//ccNYdEij.s 			page 40


 1702 00a0 681F073F 		.word	1057431400
 1703 00a4 444E073F 		.word	1057443396
 1704 00a8 317D073F 		.word	1057455409
 1705 00ac 2EAC073F 		.word	1057467438
 1706 00b0 3CDB073F 		.word	1057479484
 1707 00b4 5B0A083F 		.word	1057491547
 1708 00b8 7A39083F 		.word	1057503610
 1709 00bc BA68083F 		.word	1057515706
 1710 00c0 0B98083F 		.word	1057527819
 1711 00c4 6DC7083F 		.word	1057539949
 1712 00c8 E0F6083F 		.word	1057552096
 1713 00cc 6326093F 		.word	1057564259
 1714 00d0 E755093F 		.word	1057576423
 1715 00d4 8C85093F 		.word	1057588620
 1716 00d8 42B5093F 		.word	1057600834
 1717 00dc 08E5093F 		.word	1057613064
 1718 00e0 CF140A3F 		.word	1057625295
 1719 00e4 B7440A3F 		.word	1057637559
 1720 00e8 B0740A3F 		.word	1057649840
 1721 00ec A9A40A3F 		.word	1057662121
 1722 00f0 C3D40A3F 		.word	1057674435
 1723 00f4 EE040B3F 		.word	1057686766
 1724 00f8 2B350B3F 		.word	1057699115
 1725 00fc 67650B3F 		.word	1057711463
 1726 0100 C4950B3F 		.word	1057723844
 1727 0104 32C60B3F 		.word	1057736242
 1728 0108 A1F60B3F 		.word	1057748641
 1729 010c 31270C3F 		.word	1057761073
 1730 0110 D1570C3F 		.word	1057773521
 1731 0114 72880C3F 		.word	1057785970
 1732 0118 34B90C3F 		.word	1057798452
 1733 011c 07EA0C3F 		.word	1057810951
 1734 0120 DA1A0D3F 		.word	1057823450
 1735 0124 CF4B0D3F 		.word	1057835983
 1736 0128 D47C0D3F 		.word	1057848532
 1737 012c DAAD0D3F 		.word	1057861082
 1738 0130 01DF0D3F 		.word	1057873665
 1739 0134 38100E3F 		.word	1057886264
 1740 0138 81410E3F 		.word	1057898881
 1741 013c DA720E3F 		.word	1057911514
 1742 0140 33A40E3F 		.word	1057924147
 1743 0144 AED50E3F 		.word	1057936814
 1744 0148 3A070F3F 		.word	1057949498
 1745 014c D6380F3F 		.word	1057962198
 1746 0150 836A0F3F 		.word	1057974915
 1747 0154 419C0F3F 		.word	1057987649
 1748 0158 10CE0F3F 		.word	1058000400
 1749 015c EFFF0F3F 		.word	1058013167
 1750 0160 DF31103F 		.word	1058025951
 1751 0164 E063103F 		.word	1058038752
 1752 0168 F295103F 		.word	1058051570
 1753 016c 15C8103F 		.word	1058064405
 1754 0170 48FA103F 		.word	1058077256
 1755 0174 8C2C113F 		.word	1058090124
 1756 0178 F25E113F 		.word	1058103026
 1757 017c 5891113F 		.word	1058115928
 1758 0180 CEC3113F 		.word	1058128846
ARM GAS  /var/folders/0z/tsy30v1j4xl4_7kw94k978ww0000gn/T//ccNYdEij.s 			page 41


 1759 0184 66F6113F 		.word	1058141798
 1760 0188 FE28123F 		.word	1058154750
 1761 018c B85B123F 		.word	1058167736
 1762 0190 718E123F 		.word	1058180721
 1763 0194 4CC1123F 		.word	1058193740
 1764 0198 28F4123F 		.word	1058206760
 1765 019c 2427133F 		.word	1058219812
 1766 01a0 325A133F 		.word	1058232882
 1767 01a4 3F8D133F 		.word	1058245951
 1768 01a8 6EC0133F 		.word	1058259054
 1769 01ac AEF3133F 		.word	1058272174
 1770 01b0 FE26143F 		.word	1058285310
 1771 01b4 605A143F 		.word	1058298464
 1772 01b8 D28D143F 		.word	1058311634
 1773 01bc 55C1143F 		.word	1058324821
 1774 01c0 E8F4143F 		.word	1058338024
 1775 01c4 9E28153F 		.word	1058351262
 1776 01c8 535C153F 		.word	1058364499
 1777 01cc 1990153F 		.word	1058377753
 1778 01d0 00C4153F 		.word	1058391040
 1779 01d4 E8F7153F 		.word	1058404328
 1780 01d8 F12B163F 		.word	1058417649
 1781 01dc 0B60163F 		.word	1058430987
 1782 01e0 2594163F 		.word	1058444325
 1783 01e4 60C8163F 		.word	1058457696
 1784 01e8 ADFC163F 		.word	1058471085
 1785 01ec 0A31173F 		.word	1058484490
 1786 01f0 7765173F 		.word	1058497911
 1787 01f4 079A173F 		.word	1058511367
 1788 01f8 96CE173F 		.word	1058524822
 1789 01fc 3603183F 		.word	1058538294
 1790 0200 F837183F 		.word	1058551800
 1791 0204 B96C183F 		.word	1058565305
 1792 0208 9DA1183F 		.word	1058578845
 1793 020c 80D6183F 		.word	1058592384
 1794 0210 850B193F 		.word	1058605957
 1795 0214 9A40193F 		.word	1058619546
 1796 0218 C075193F 		.word	1058633152
 1797 021c F8AA193F 		.word	1058646776
 1798 0220 3FE0193F 		.word	1058660415
 1799 0224 A9151A3F 		.word	1058674089
 1800 0228 124B1A3F 		.word	1058687762
 1801 022c 9D801A3F 		.word	1058701469
 1802 0230 28B61A3F 		.word	1058715176
 1803 0234 D5EB1A3F 		.word	1058728917
 1804 0238 92211B3F 		.word	1058742674
 1805 023c 60571B3F 		.word	1058756448
 1806 0240 3F8D1B3F 		.word	1058770239
 1807 0244 2FC31B3F 		.word	1058784047
 1808 0248 2FF91B3F 		.word	1058797871
 1809 024c 512F1C3F 		.word	1058811729
 1810 0250 73651C3F 		.word	1058825587
 1811 0254 B79B1C3F 		.word	1058839479
 1812 0258 FAD11C3F 		.word	1058853370
 1813 025c 5F081D3F 		.word	1058867295
 1814 0260 D53E1D3F 		.word	1058881237
 1815 0264 5C751D3F 		.word	1058895196
ARM GAS  /var/folders/0z/tsy30v1j4xl4_7kw94k978ww0000gn/T//ccNYdEij.s 			page 42


 1816 0268 04AC1D3F 		.word	1058909188
 1817 026c ACE21D3F 		.word	1058923180
 1818 0270 76191E3F 		.word	1058937206
 1819 0274 40501E3F 		.word	1058951232
 1820 0278 2B871E3F 		.word	1058965291
 1821 027c 27BE1E3F 		.word	1058979367
 1822 0280 34F51E3F 		.word	1058993460
 1823 0284 522C1F3F 		.word	1059007570
 1824 0288 80631F3F 		.word	1059021696
 1825 028c D09A1F3F 		.word	1059035856
 1826 0290 20D21F3F 		.word	1059050016
 1827 0294 9109203F 		.word	1059064209
 1828 0298 1441203F 		.word	1059078420
 1829 029c A778203F 		.word	1059092647
 1830 02a0 4BB0203F 		.word	1059106891
 1831 02a4 10E8203F 		.word	1059121168
 1832 02a8 D61F213F 		.word	1059135446
 1833 02ac BC57213F 		.word	1059149756
 1834 02b0 B48F213F 		.word	1059164084
 1835 02b4 BDC7213F 		.word	1059178429
 1836 02b8 D6FF213F 		.word	1059192790
 1837 02bc 0038223F 		.word	1059207168
 1838 02c0 3B70223F 		.word	1059221563
 1839 02c4 97A8223F 		.word	1059235991
 1840 02c8 05E1223F 		.word	1059250437
 1841 02cc 8319233F 		.word	1059264899
 1842 02d0 1152233F 		.word	1059279377
 1843 02d4 B18A233F 		.word	1059293873
 1844 02d8 72C3233F 		.word	1059308402
 1845 02dc 33FC233F 		.word	1059322931
 1846 02e0 1635243F 		.word	1059337494
 1847 02e4 096E243F 		.word	1059352073
 1848 02e8 0DA7243F 		.word	1059366669
 1849 02ec 22E0243F 		.word	1059381282
 1850 02f0 5919253F 		.word	1059395929
 1851 02f4 A052253F 		.word	1059410592
 1852 02f8 E78B253F 		.word	1059425255
 1853 02fc 61C5253F 		.word	1059439969
 1854 0300 DAFE253F 		.word	1059454682
 1855 0304 6538263F 		.word	1059469413
 1856 0308 1172263F 		.word	1059484177
 1857 030c CDAB263F 		.word	1059498957
 1858 0310 9BE5263F 		.word	1059513755
 1859 0314 791F273F 		.word	1059528569
 1860 0318 6859273F 		.word	1059543400
 1861 031c 7993273F 		.word	1059558265
 1862 0320 9ACD273F 		.word	1059573146
 1863 0324 CC07283F 		.word	1059588044
 1864 0328 0F42283F 		.word	1059602959
 1865 032c 637C283F 		.word	1059617891
 1866 0330 D8B6283F 		.word	1059632856
 1867 0334 5EF1283F 		.word	1059647838
 1868 0338 F52B293F 		.word	1059662837
 1869 033c 9D66293F 		.word	1059677853
 1870 0340 55A1293F 		.word	1059692885
 1871 0344 2FDC293F 		.word	1059707951
 1872 0348 1A172A3F 		.word	1059723034
ARM GAS  /var/folders/0z/tsy30v1j4xl4_7kw94k978ww0000gn/T//ccNYdEij.s 			page 43


 1873 034c 15522A3F 		.word	1059738133
 1874 0350 228D2A3F 		.word	1059753250
 1875 0354 50C82A3F 		.word	1059768400
 1876 0358 8E032B3F 		.word	1059783566
 1877 035c DE3E2B3F 		.word	1059798750
 1878 0360 3E7A2B3F 		.word	1059813950
 1879 0364 AFB52B3F 		.word	1059829167
 1880 0368 41F12B3F 		.word	1059844417
 1881 036c E42C2C3F 		.word	1059859684
 1882 0370 98682C3F 		.word	1059874968
 1883 0374 5DA42C3F 		.word	1059890269
 1884 0378 44E02C3F 		.word	1059905604
 1885 037c 3B1C2D3F 		.word	1059920955
 1886 0380 43582D3F 		.word	1059936323
 1887 0384 5B942D3F 		.word	1059951707
 1888 0388 96D02D3F 		.word	1059967126
 1889 038c D00C2E3F 		.word	1059982544
 1890 0390 3D492E3F 		.word	1059998013
 1891 0394 A9852E3F 		.word	1060013481
 1892 0398 27C22E3F 		.word	1060028967
 1893 039c C5FE2E3F 		.word	1060044485
 1894 03a0 753B2F3F 		.word	1060060021
 1895 03a4 46782F3F 		.word	1060075590
 1896 03a8 18B52F3F 		.word	1060091160
 1897 03ac 0AF22F3F 		.word	1060106762
 1898 03b0 0E2F303F 		.word	1060122382
 1899 03b4 226C303F 		.word	1060138018
 1900 03b8 58A9303F 		.word	1060153688
 1901 03bc 9FE6303F 		.word	1060169375
 1902 03c0 F623313F 		.word	1060185078
 1903 03c4 5F61313F 		.word	1060200799
 1904 03c8 E99E313F 		.word	1060216553
 1905 03cc 83DC313F 		.word	1060232323
 1906 03d0 2E1A323F 		.word	1060248110
 1907 03d4 FB57323F 		.word	1060263931
 1908 03d8 C895323F 		.word	1060279752
 1909 03dc C8D3323F 		.word	1060295624
 1910 03e0 C711333F 		.word	1060311495
 1911 03e4 D74F333F 		.word	1060327383
 1912 03e8 088E333F 		.word	1060343304
 1913 03ec 5CCC333F 		.word	1060359260
 1914 03f0 AF0A343F 		.word	1060375215
 1915 03f4 2349343F 		.word	1060391203
 1916 03f8 A987343F 		.word	1060407209
 1917 03fc 3FC6343F 		.word	1060423231
 1918 0400 F704353F 		.word	1060439287
 1919 0404 BF43353F 		.word	1060455359
 1920 0408 9982353F 		.word	1060471449
 1921 040c 83C1353F 		.word	1060487555
 1922 0410 8F00363F 		.word	1060503695
 1923 0414 AB3F363F 		.word	1060519851
 1924 0418 E97E363F 		.word	1060536041
 1925 041c 38BE363F 		.word	1060552248
 1926 0420 97FD363F 		.word	1060568471
 1927 0424 083D373F 		.word	1060584712
 1928 0428 9A7C373F 		.word	1060600986
 1929 042c 3CBC373F 		.word	1060617276
ARM GAS  /var/folders/0z/tsy30v1j4xl4_7kw94k978ww0000gn/T//ccNYdEij.s 			page 44


 1930 0430 F0FB373F 		.word	1060633584
 1931 0434 C53B383F 		.word	1060649925
 1932 0438 AB7B383F 		.word	1060666283
 1933 043c A1BB383F 		.word	1060682657
 1934 0440 A9FB383F 		.word	1060699049
 1935 0444 D13B393F 		.word	1060715473
 1936 0448 1C7C393F 		.word	1060731932
 1937 044c 66BC393F 		.word	1060748390
 1938 0450 D2FC393F 		.word	1060764882
 1939 0454 4F3D3A3F 		.word	1060781391
 1940 0458 ED7D3A3F 		.word	1060797933
 1941 045c 9DBE3A3F 		.word	1060814493
 1942 0460 5CFF3A3F 		.word	1060831068
 1943 0464 2D403B3F 		.word	1060847661
 1944 0468 1F813B3F 		.word	1060864287
 1945 046c 33C23B3F 		.word	1060880947
 1946 0470 47033C3F 		.word	1060897607
 1947 0474 7C443C3F 		.word	1060914300
 1948 0478 C2853C3F 		.word	1060931010
 1949 047c 2AC73C3F 		.word	1060947754
 1950 0480 A2083D3F 		.word	1060964514
 1951 0484 2C4A3D3F 		.word	1060981292
 1952 0488 D68B3D3F 		.word	1060998102
 1953 048c 92CD3D3F 		.word	1061014930
 1954 0490 6F0F3E3F 		.word	1061031791
 1955 0494 4C513E3F 		.word	1061048652
 1956 0498 4B933E3F 		.word	1061065547
 1957 049c 6BD53E3F 		.word	1061082475
 1958 04a0 9C173F3F 		.word	1061099420
 1959 04a4 DE593F3F 		.word	1061116382
 1960 04a8 419C3F3F 		.word	1061133377
 1961 04ac B5DE3F3F 		.word	1061150389
 1962 04b0 3A21403F 		.word	1061167418
 1963 04b4 E063403F 		.word	1061184480
 1964 04b8 98A6403F 		.word	1061201560
 1965 04bc 60E9403F 		.word	1061218656
 1966 04c0 492C413F 		.word	1061235785
 1967 04c4 446F413F 		.word	1061252932
 1968 04c8 5FB2413F 		.word	1061270111
 1969 04cc 8CF5413F 		.word	1061287308
 1970 04d0 DA38423F 		.word	1061304538
 1971 04d4 287C423F 		.word	1061321768
 1972 04d8 A9BF423F 		.word	1061339049
 1973 04dc 2A03433F 		.word	1061356330
 1974 04e0 CC46433F 		.word	1061373644
 1975 04e4 7E8A433F 		.word	1061390974
 1976 04e8 53CE433F 		.word	1061408339
 1977 04ec 3812443F 		.word	1061425720
 1978 04f0 3F56443F 		.word	1061443135
 1979 04f4 569A443F 		.word	1061460566
 1980 04f8 7FDE443F 		.word	1061478015
 1981 04fc C922453F 		.word	1061495497
 1982 0500 2367453F 		.word	1061512995
 1983 0504 9FAB453F 		.word	1061530527
 1984 0508 2CF0453F 		.word	1061548076
 1985 050c DB34463F 		.word	1061565659
 1986 0510 8979463F 		.word	1061583241
ARM GAS  /var/folders/0z/tsy30v1j4xl4_7kw94k978ww0000gn/T//ccNYdEij.s 			page 45


 1987 0514 6ABE463F 		.word	1061600874
 1988 0518 4B03473F 		.word	1061618507
 1989 051c 5E48473F 		.word	1061636190
 1990 0520 718D473F 		.word	1061653873
 1991 0524 A6D2473F 		.word	1061671590
 1992 0528 FC17483F 		.word	1061689340
 1993 052c 645D483F 		.word	1061707108
 1994 0530 DBA2483F 		.word	1061724891
 1995 0534 75E8483F 		.word	1061742709
 1996 0538 1F2E493F 		.word	1061760543
 1997 053c DA73493F 		.word	1061778394
 1998 0540 B6B9493F 		.word	1061796278
 1999 0544 B5FF493F 		.word	1061814197
 2000 0548 C3454A3F 		.word	1061832131
 2001 054c E38B4A3F 		.word	1061850083
 2002 0550 24D24A3F 		.word	1061868068
 2003 0554 76184B3F 		.word	1061886070
 2004 0558 EA5E4B3F 		.word	1061904106
 2005 055c 6EA54B3F 		.word	1061922158
 2006 0560 14EC4B3F 		.word	1061940244
 2007 0564 CA324C3F 		.word	1061958346
 2008 0568 A3794C3F 		.word	1061976483
 2009 056c 8BC04C3F 		.word	1061994635
 2010 0570 85074D3F 		.word	1062012805
 2011 0574 A04E4D3F 		.word	1062031008
 2012 0578 DD954D3F 		.word	1062049245
 2013 057c 2BDD4D3F 		.word	1062067499
 2014 0580 89244E3F 		.word	1062085769
 2015 0584 096C4E3F 		.word	1062104073
 2016 0588 9AB34E3F 		.word	1062122394
 2017 058c 4CFB4E3F 		.word	1062140748
 2018 0590 20434F3F 		.word	1062159136
 2019 0594 F48A4F3F 		.word	1062177524
 2020 0598 FAD24F3F 		.word	1062195962
 2021 059c 001B503F 		.word	1062214400
 2022 05a0 3963503F 		.word	1062232889
 2023 05a4 71AB503F 		.word	1062251377
 2024 05a8 DCF3503F 		.word	1062269916
 2025 05ac 473C513F 		.word	1062288455
 2026 05b0 E484513F 		.word	1062307044
 2027 05b4 81CD513F 		.word	1062325633
 2028 05b8 5116523F 		.word	1062344273
 2029 05bc 205F523F 		.word	1062362912
 2030 05c0 22A8523F 		.word	1062381602
 2031 05c4 35F1523F 		.word	1062400309
 2032 05c8 583A533F 		.word	1062419032
 2033 05cc 9D83533F 		.word	1062437789
 2034 05d0 F3CC533F 		.word	1062456563
 2035 05d4 6A16543F 		.word	1062475370
 2036 05d8 F25F543F 		.word	1062494194
 2037 05dc 9BA9543F 		.word	1062513051
 2038 05e0 56F3543F 		.word	1062531926
 2039 05e4 323D553F 		.word	1062550834
 2040 05e8 2F87553F 		.word	1062569775
 2041 05ec 3DD1553F 		.word	1062588733
 2042 05f0 5C1B563F 		.word	1062607708
 2043 05f4 9D65563F 		.word	1062626717
ARM GAS  /var/folders/0z/tsy30v1j4xl4_7kw94k978ww0000gn/T//ccNYdEij.s 			page 46


 2044 05f8 FFAF563F 		.word	1062645759
 2045 05fc 72FA563F 		.word	1062664818
 2046 0600 F644573F 		.word	1062683894
 2047 0604 AC8F573F 		.word	1062703020
 2048 0608 62DA573F 		.word	1062722146
 2049 060c 4A25583F 		.word	1062741322
 2050 0610 3370583F 		.word	1062760499
 2051 0614 4DBB583F 		.word	1062779725
 2052 0618 7906593F 		.word	1062798969
 2053 061c B551593F 		.word	1062818229
 2054 0620 139D593F 		.word	1062837523
 2055 0624 92E8593F 		.word	1062856850
 2056 0628 22345A3F 		.word	1062876194
 2057 062c D47F5A3F 		.word	1062895572
 2058 0630 96CB5A3F 		.word	1062914966
 2059 0634 7A175B3F 		.word	1062934394
 2060 0638 6F635B3F 		.word	1062953839
 2061 063c 86AF5B3F 		.word	1062973318
 2062 0640 BDFB5B3F 		.word	1062992829
 2063 0644 06485C3F 		.word	1063012358
 2064 0648 60945C3F 		.word	1063031904
 2065 064c EBE05C3F 		.word	1063051499
 2066 0650 882D5D3F 		.word	1063071112
 2067 0654 357A5D3F 		.word	1063090741
 2068 0658 04C75D3F 		.word	1063110404
 2069 065c F5135E3F 		.word	1063130101
 2070 0660 F6605E3F 		.word	1063149814
 2071 0664 19AE5E3F 		.word	1063169561
 2072 0668 4CFB5E3F 		.word	1063189324
 2073 066c A1485F3F 		.word	1063209121
 2074 0670 18965F3F 		.word	1063228952
 2075 0674 9FE35F3F 		.word	1063248799
 2076 0678 4831603F 		.word	1063268680
 2077 067c 027F603F 		.word	1063288578
 2078 0680 DECC603F 		.word	1063308510
 2079 0684 DA1A613F 		.word	1063328474
 2080 0688 E868613F 		.word	1063348456
 2081 068c 17B7613F 		.word	1063368471
 2082 0690 5705623F 		.word	1063388503
 2083 0694 B953623F 		.word	1063408569
 2084 0698 3CA2623F 		.word	1063428668
 2085 069c D0F0623F 		.word	1063448784
 2086 06a0 853F633F 		.word	1063468933
 2087 06a4 5C8E633F 		.word	1063489116
 2088 06a8 44DD633F 		.word	1063509316
 2089 06ac 4D2C643F 		.word	1063529549
 2090 06b0 677B643F 		.word	1063549799
 2091 06b4 A3CA643F 		.word	1063570083
 2092 06b8 001A653F 		.word	1063590400
 2093 06bc 7F69653F 		.word	1063610751
 2094 06c0 0FB9653F 		.word	1063631119
 2095 06c4 AF08663F 		.word	1063651503
 2096 06c8 8258663F 		.word	1063671938
 2097 06cc 54A8663F 		.word	1063692372
 2098 06d0 59F8663F 		.word	1063712857
 2099 06d4 6F48673F 		.word	1063733359
 2100 06d8 A698673F 		.word	1063753894
ARM GAS  /var/folders/0z/tsy30v1j4xl4_7kw94k978ww0000gn/T//ccNYdEij.s 			page 47


 2101 06dc FFE8673F 		.word	1063774463
 2102 06e0 6939683F 		.word	1063795049
 2103 06e4 F489683F 		.word	1063815668
 2104 06e8 A1DA683F 		.word	1063836321
 2105 06ec 5E2B693F 		.word	1063856990
 2106 06f0 3D7C693F 		.word	1063877693
 2107 06f4 2DCD693F 		.word	1063898413
 2108 06f8 4F1E6A3F 		.word	1063919183
 2109 06fc 726F6A3F 		.word	1063939954
 2110 0700 C6C06A3F 		.word	1063960774
 2111 0704 2B126B3F 		.word	1063981611
 2112 0708 B2636B3F 		.word	1064002482
 2113 070c 5BB56B3F 		.word	1064023387
 2114 0710 14076C3F 		.word	1064044308
 2115 0714 EF586C3F 		.word	1064065263
 2116 0718 EBAA6C3F 		.word	1064086251
 2117 071c F8FC6C3F 		.word	1064107256
 2118 0720 374F6D3F 		.word	1064128311
 2119 0724 77A16D3F 		.word	1064149367
 2120 0728 E9F36D3F 		.word	1064170473
 2121 072c 6B466E3F 		.word	1064191595
 2122 0730 0F996E3F 		.word	1064212751
 2123 0734 D5EB6E3F 		.word	1064233941
 2124 0738 AB3E6F3F 		.word	1064255147
 2125 073c A3916F3F 		.word	1064276387
 2126 0740 BDE46F3F 		.word	1064297661
 2127 0744 E737703F 		.word	1064318951
 2128 0748 448B703F 		.word	1064340292
 2129 074c A0DE703F 		.word	1064361632
 2130 0750 2F32713F 		.word	1064383023
 2131 0754 CF85713F 		.word	1064404431
 2132 0758 A1D9713F 		.word	1064425889
 2133 075c 732D723F 		.word	1064447347
 2134 0760 7781723F 		.word	1064468855
 2135 0764 8DD5723F 		.word	1064490381
 2136 0768 C329733F 		.word	1064511939
 2137 076c 1C7E733F 		.word	1064533532
 2138 0770 95D2733F 		.word	1064555157
 2139 0774 2027743F 		.word	1064576800
 2140 0778 CC7B743F 		.word	1064598476
 2141 077c 9AD0743F 		.word	1064620186
 2142 0780 7825753F 		.word	1064641912
 2143 0784 897A753F 		.word	1064663689
 2144 0788 ABCF753F 		.word	1064685483
 2145 078c DD24763F 		.word	1064707293
 2146 0790 427A763F 		.word	1064729154
 2147 0794 B7CF763F 		.word	1064751031
 2148 0798 4E25773F 		.word	1064772942
 2149 079c 077B773F 		.word	1064794887
 2150 07a0 E1D0773F 		.word	1064816865
 2151 07a4 CC26783F 		.word	1064838860
 2152 07a8 D97C783F 		.word	1064860889
 2153 07ac 07D3783F 		.word	1064882951
 2154 07b0 5629793F 		.word	1064905046
 2155 07b4 C77F793F 		.word	1064927175
 2156 07b8 49D6793F 		.word	1064949321
 2157 07bc ED2C7A3F 		.word	1064971501
ARM GAS  /var/folders/0z/tsy30v1j4xl4_7kw94k978ww0000gn/T//ccNYdEij.s 			page 48


 2158 07c0 B2837A3F 		.word	1064993714
 2159 07c4 98DA7A3F 		.word	1065015960
 2160 07c8 90317B3F 		.word	1065038224
 2161 07cc B9887B3F 		.word	1065060537
 2162 07d0 F4DF7B3F 		.word	1065082868
 2163 07d4 50377C3F 		.word	1065105232
 2164 07d8 BD8E7C3F 		.word	1065127613
 2165 07dc 5CE67C3F 		.word	1065150044
 2166 07e0 0C3E7D3F 		.word	1065172492
 2167 07e4 DD957D3F 		.word	1065194973
 2168 07e8 D0ED7D3F 		.word	1065217488
 2169 07ec E5457E3F 		.word	1065240037
 2170 07f0 0A9E7E3F 		.word	1065262602
 2171 07f4 62F67E3F 		.word	1065285218
 2172 07f8 CA4E7F3F 		.word	1065307850
 2173 07fc 54A77F3F 		.word	1065330516
 2174 0800 0000803F 		.word	1065353216
 2175 0804 772C803F 		.word	1065364599
 2176 0808 0859803F 		.word	1065376008
 2177 080c A185803F 		.word	1065387425
 2178 0810 4AB2803F 		.word	1065398858
 2179 0814 FCDE803F 		.word	1065410300
 2180 0818 C80B813F 		.word	1065421768
 2181 081c 9B38813F 		.word	1065433243
 2182 0820 8865813F 		.word	1065444744
 2183 0824 7D92813F 		.word	1065456253
 2184 0828 83BF813F 		.word	1065467779
 2185 082c 9AEC813F 		.word	1065479322
 2186 0830 C119823F 		.word	1065490881
 2187 0834 F146823F 		.word	1065502449
 2188 0838 3A74823F 		.word	1065514042
 2189 083c 8CA1823F 		.word	1065525644
 2190 0840 EECE823F 		.word	1065537262
 2191 0844 69FC823F 		.word	1065548905
 2192 0848 ED29833F 		.word	1065560557
 2193 084c 8257833F 		.word	1065572226
 2194 0850 1F85833F 		.word	1065583903
 2195 0854 D5B2833F 		.word	1065595605
 2196 0858 9CE0833F 		.word	1065607324
 2197 085c 6B0E843F 		.word	1065619051
 2198 0860 533C843F 		.word	1065630803
 2199 0864 446A843F 		.word	1065642564
 2200 0868 4698843F 		.word	1065654342
 2201 086c 58C6843F 		.word	1065666136
 2202 0870 7BF4843F 		.word	1065677947
 2203 0874 AF22853F 		.word	1065689775
 2204 0878 F450853F 		.word	1065701620
 2205 087c 4A7F853F 		.word	1065713482
 2206 0880 A7AD853F 		.word	1065725351
 2207 0884 1EDC853F 		.word	1065737246
 2208 0888 9E0A863F 		.word	1065749150
 2209 088c 3739863F 		.word	1065761079
 2210 0890 D767863F 		.word	1065773015
 2211 0894 9296863F 		.word	1065784978
 2212 0898 54C5863F 		.word	1065796948
 2213 089c 28F4863F 		.word	1065808936
 2214 08a0 0C23873F 		.word	1065820940
ARM GAS  /var/folders/0z/tsy30v1j4xl4_7kw94k978ww0000gn/T//ccNYdEij.s 			page 49


 2215 08a4 0052873F 		.word	1065832960
 2216 08a8 0681873F 		.word	1065844998
 2217 08ac 1DB0873F 		.word	1065857053
 2218 08b0 44DF873F 		.word	1065869124
 2219 08b4 7C0E883F 		.word	1065881212
 2220 08b8 C53D883F 		.word	1065893317
 2221 08bc 166D883F 		.word	1065905430
 2222 08c0 809C883F 		.word	1065917568
 2223 08c4 FBCB883F 		.word	1065929723
 2224 08c8 7FFB883F 		.word	1065941887
 2225 08cc 1B2B893F 		.word	1065954075
 2226 08d0 C95A893F 		.word	1065966281
 2227 08d4 7E8A893F 		.word	1065978494
 2228 08d8 4DBA893F 		.word	1065990733
 2229 08dc 25EA893F 		.word	1066002981
 2230 08e0 151A8A3F 		.word	1066015253
 2231 08e4 0E4A8A3F 		.word	1066027534
 2232 08e8 207A8A3F 		.word	1066039840
 2233 08ec 3BAA8A3F 		.word	1066052155
 2234 08f0 6EDA8A3F 		.word	1066064494
 2235 08f4 AA0A8B3F 		.word	1066076842
 2236 08f8 003B8B3F 		.word	1066089216
 2237 08fc 5D6B8B3F 		.word	1066101597
 2238 0900 D49B8B3F 		.word	1066114004
 2239 0904 53CC8B3F 		.word	1066126419
 2240 0908 EBFC8B3F 		.word	1066138859
 2241 090c 8C2D8C3F 		.word	1066151308
 2242 0910 465E8C3F 		.word	1066163782
 2243 0914 088F8C3F 		.word	1066176264
 2244 0918 E4BF8C3F 		.word	1066188772
 2245 091c C7F08C3F 		.word	1066201287
 2246 0920 C4218D3F 		.word	1066213828
 2247 0924 D2528D3F 		.word	1066226386
 2248 0928 E8838D3F 		.word	1066238952
 2249 092c 18B58D3F 		.word	1066251544
 2250 0930 58E68D3F 		.word	1066264152
 2251 0934 A0178E3F 		.word	1066276768
 2252 0938 02498E3F 		.word	1066289410
 2253 093c 747A8E3F 		.word	1066302068
 2254 0940 F7AB8E3F 		.word	1066314743
 2255 0944 8BDD8E3F 		.word	1066327435
 2256 0948 300F8F3F 		.word	1066340144
 2257 094c E6408F3F 		.word	1066352870
 2258 0950 AC728F3F 		.word	1066365612
 2259 0954 83A48F3F 		.word	1066378371
 2260 0958 73D68F3F 		.word	1066391155
 2261 095c 6C08903F 		.word	1066403948
 2262 0960 753A903F 		.word	1066416757
 2263 0964 986C903F 		.word	1066429592
 2264 0968 C39E903F 		.word	1066442435
 2265 096c 07D1903F 		.word	1066455303
 2266 0970 5C03913F 		.word	1066468188
 2267 0974 B935913F 		.word	1066481081
 2268 0978 3068913F 		.word	1066494000
 2269 097c B79A913F 		.word	1066506935
 2270 0980 4FCD913F 		.word	1066519887
 2271 0984 F8FF913F 		.word	1066532856
ARM GAS  /var/folders/0z/tsy30v1j4xl4_7kw94k978ww0000gn/T//ccNYdEij.s 			page 50


 2272 0988 BA32923F 		.word	1066545850
 2273 098c 8465923F 		.word	1066558852
 2274 0990 6798923F 		.word	1066571879
 2275 0994 53CB923F 		.word	1066584915
 2276 0998 58FE923F 		.word	1066597976
 2277 099c 6E31933F 		.word	1066611054
 2278 09a0 8C64933F 		.word	1066624140
 2279 09a4 C497933F 		.word	1066637252
 2280 09a8 14CB933F 		.word	1066650388
 2281 09ac 6DFE933F 		.word	1066663533
 2282 09b0 D731943F 		.word	1066676695
 2283 09b4 5A65943F 		.word	1066689882
 2284 09b8 E598943F 		.word	1066703077
 2285 09bc 8ACC943F 		.word	1066716298
 2286 09c0 3F00953F 		.word	1066729535
 2287 09c4 0534953F 		.word	1066742789
 2288 09c8 E467953F 		.word	1066756068
 2289 09cc CC9B953F 		.word	1066769356
 2290 09d0 C4CF953F 		.word	1066782660
 2291 09d4 D503963F 		.word	1066795989
 2292 09d8 F837963F 		.word	1066809336
 2293 09dc 2B6C963F 		.word	1066822699
 2294 09e0 6FA0963F 		.word	1066836079
 2295 09e4 C3D4963F 		.word	1066849475
 2296 09e8 3109973F 		.word	1066862897
 2297 09ec B03D973F 		.word	1066876336
 2298 09f0 3672973F 		.word	1066889782
 2299 09f4 D7A6973F 		.word	1066903255
 2300 09f8 90DB973F 		.word	1066916752
 2301 09fc 5210983F 		.word	1066930258
 2302 0a00 2445983F 		.word	1066943780
 2303 0a04 107A983F 		.word	1066957328
 2304 0a08 0CAF983F 		.word	1066970892
 2305 0a0c 19E4983F 		.word	1066984473
 2306 0a10 3F19993F 		.word	1066998079
 2307 0a14 6E4E993F 		.word	1067011694
 2308 0a18 B683993F 		.word	1067025334
 2309 0a1c 0FB9993F 		.word	1067038991
 2310 0a20 78EE993F 		.word	1067052664
 2311 0a24 F2239A3F 		.word	1067066354
 2312 0a28 86599A3F 		.word	1067080070
 2313 0a2c 2A8F9A3F 		.word	1067093802
 2314 0a30 DFC49A3F 		.word	1067107551
 2315 0a34 A4FA9A3F 		.word	1067121316
 2316 0a38 7B309B3F 		.word	1067135099
 2317 0a3c 6B669B3F 		.word	1067148907
 2318 0a40 6B9C9B3F 		.word	1067162731
 2319 0a44 7CD29B3F 		.word	1067176572
 2320 0a48 A7089C3F 		.word	1067190439
 2321 0a4c D93E9C3F 		.word	1067204313
 2322 0a50 25759C3F 		.word	1067218213
 2323 0a54 82AB9C3F 		.word	1067232130
 2324 0a58 F8E19C3F 		.word	1067246072
 2325 0a5c 76189D3F 		.word	1067260022
 2326 0a60 0E4F9D3F 		.word	1067273998
 2327 0a64 BE859D3F 		.word	1067287998
 2328 0a68 77BC9D3F 		.word	1067302007
ARM GAS  /var/folders/0z/tsy30v1j4xl4_7kw94k978ww0000gn/T//ccNYdEij.s 			page 51


 2329 0a6c 49F39D3F 		.word	1067316041
 2330 0a70 2C2A9E3F 		.word	1067330092
 2331 0a74 20619E3F 		.word	1067344160
 2332 0a78 24989E3F 		.word	1067358244
 2333 0a7c 42CF9E3F 		.word	1067372354
 2334 0a80 70069F3F 		.word	1067386480
 2335 0a84 B83D9F3F 		.word	1067400632
 2336 0a88 08759F3F 		.word	1067414792
 2337 0a8c 71AC9F3F 		.word	1067428977
 2338 0a90 F3E39F3F 		.word	1067443187
 2339 0a94 7E1BA03F 		.word	1067457406
 2340 0a98 2253A03F 		.word	1067471650
 2341 0a9c D78AA03F 		.word	1067485911
 2342 0aa0 A4C2A03F 		.word	1067500196
 2343 0aa4 7BFAA03F 		.word	1067514491
 2344 0aa8 7232A13F 		.word	1067528818
 2345 0aac 726AA13F 		.word	1067543154
 2346 0ab0 8CA2A13F 		.word	1067557516
 2347 0ab4 B6DAA13F 		.word	1067571894
 2348 0ab8 F112A23F 		.word	1067586289
 2349 0abc 454BA23F 		.word	1067600709
 2350 0ac0 A983A23F 		.word	1067615145
 2351 0ac4 1FBCA23F 		.word	1067629599
 2352 0ac8 AEF4A23F 		.word	1067644078
 2353 0acc 4D2DA33F 		.word	1067658573
 2354 0ad0 FE65A33F 		.word	1067673086
 2355 0ad4 C79EA33F 		.word	1067687623
 2356 0ad8 A1D7A33F 		.word	1067702177
 2357 0adc 9510A43F 		.word	1067716757
 2358 0ae0 9949A43F 		.word	1067731353
 2359 0ae4 AE82A43F 		.word	1067745966
 2360 0ae8 D4BBA43F 		.word	1067760596
 2361 0aec 12F5A43F 		.word	1067775250
 2362 0af0 622EA53F 		.word	1067789922
 2363 0af4 CB67A53F 		.word	1067804619
 2364 0af8 45A1A53F 		.word	1067819333
 2365 0afc D7DAA53F 		.word	1067834071
 2366 0b00 7214A63F 		.word	1067848818
 2367 0b04 2F4EA63F 		.word	1067863599
 2368 0b08 F487A63F 		.word	1067878388
 2369 0b0c D3C1A63F 		.word	1067893203
 2370 0b10 CAFBA63F 		.word	1067908042
 2371 0b14 CA35A73F 		.word	1067922890
 2372 0b18 E36FA73F 		.word	1067937763
 2373 0b1c 15AAA73F 		.word	1067952661
 2374 0b20 58E4A73F 		.word	1067967576
 2375 0b24 AC1EA83F 		.word	1067982508
 2376 0b28 1959A83F 		.word	1067997465
 2377 0b2c 9693A83F 		.word	1068012438
 2378 0b30 2DCEA83F 		.word	1068027437
 2379 0b34 D508A93F 		.word	1068042453
 2380 0b38 9643A93F 		.word	1068057494
 2381 0b3c 677EA93F 		.word	1068072551
 2382 0b40 49B9A93F 		.word	1068087625
 2383 0b44 45F4A93F 		.word	1068102725
 2384 0b48 512FAA3F 		.word	1068117841
 2385 0b4c 776AAA3F 		.word	1068132983
ARM GAS  /var/folders/0z/tsy30v1j4xl4_7kw94k978ww0000gn/T//ccNYdEij.s 			page 52


 2386 0b50 ADA5AA3F 		.word	1068148141
 2387 0b54 FCE0AA3F 		.word	1068163324
 2388 0b58 5C1CAB3F 		.word	1068178524
 2389 0b5c CD57AB3F 		.word	1068193741
 2390 0b60 5793AB3F 		.word	1068208983
 2391 0b64 FBCEAB3F 		.word	1068224251
 2392 0b68 AF0AAC3F 		.word	1068239535
 2393 0b6c 7446AC3F 		.word	1068254836
 2394 0b70 5182AC3F 		.word	1068270161
 2395 0b74 40BEAC3F 		.word	1068285504
 2396 0b78 48FAAC3F 		.word	1068300872
 2397 0b7c 6936AD3F 		.word	1068316265
 2398 0b80 9372AD3F 		.word	1068331667
 2399 0b84 DEAEAD3F 		.word	1068347102
 2400 0b88 3AEBAD3F 		.word	1068362554
 2401 0b8c A627AE3F 		.word	1068378022
 2402 0b90 2C64AE3F 		.word	1068393516
 2403 0b94 C3A0AE3F 		.word	1068409027
 2404 0b98 72DDAE3F 		.word	1068424562
 2405 0b9c 331AAF3F 		.word	1068440115
 2406 0ba0 0C57AF3F 		.word	1068455692
 2407 0ba4 FF93AF3F 		.word	1068471295
 2408 0ba8 FAD0AF3F 		.word	1068486906
 2409 0bac 170EB03F 		.word	1068502551
 2410 0bb0 454BB03F 		.word	1068518213
 2411 0bb4 8388B03F 		.word	1068533891
 2412 0bb8 DAC5B03F 		.word	1068549594
 2413 0bbc 4B03B13F 		.word	1068565323
 2414 0bc0 CC40B13F 		.word	1068581068
 2415 0bc4 677EB13F 		.word	1068596839
 2416 0bc8 12BCB13F 		.word	1068612626
 2417 0bcc D7F9B13F 		.word	1068628439
 2418 0bd0 AC37B23F 		.word	1068644268
 2419 0bd4 9B75B23F 		.word	1068660123
 2420 0bd8 A2B3B23F 		.word	1068676002
 2421 0bdc BBF1B23F 		.word	1068691899
 2422 0be0 E42FB33F 		.word	1068707812
 2423 0be4 266EB33F 		.word	1068723750
 2424 0be8 82ACB33F 		.word	1068739714
 2425 0bec EEEAB33F 		.word	1068755694
 2426 0bf0 7429B43F 		.word	1068771700
 2427 0bf4 1268B43F 		.word	1068787730
 2428 0bf8 C2A6B43F 		.word	1068803778
 2429 0bfc 8AE5B43F 		.word	1068819850
 2430 0c00 6424B53F 		.word	1068835940
 2431 0c04 5663B53F 		.word	1068852054
 2432 0c08 59A2B53F 		.word	1068868185
 2433 0c0c 7EE1B53F 		.word	1068884350
 2434 0c10 AB20B63F 		.word	1068900523
 2435 0c14 FA5FB63F 		.word	1068916730
 2436 0c18 5A9FB63F 		.word	1068932954
 2437 0c1c CADEB63F 		.word	1068949194
 2438 0c20 5C1EB73F 		.word	1068965468
 2439 0c24 F65DB73F 		.word	1068981750
 2440 0c28 B29DB73F 		.word	1068998066
 2441 0c2c 7FDDB73F 		.word	1069014399
 2442 0c30 651DB83F 		.word	1069030757
ARM GAS  /var/folders/0z/tsy30v1j4xl4_7kw94k978ww0000gn/T//ccNYdEij.s 			page 53


 2443 0c34 5B5DB83F 		.word	1069047131
 2444 0c38 6B9DB83F 		.word	1069063531
 2445 0c3c 94DDB83F 		.word	1069079956
 2446 0c40 D61DB93F 		.word	1069096406
 2447 0c44 295EB93F 		.word	1069112873
 2448 0c48 8C9EB93F 		.word	1069129356
 2449 0c4c 11DFB93F 		.word	1069145873
 2450 0c50 A71FBA3F 		.word	1069162407
 2451 0c54 5760BA3F 		.word	1069178967
 2452 0c58 16A1BA3F 		.word	1069195542
 2453 0c5c EFE1BA3F 		.word	1069212143
 2454 0c60 E222BB3F 		.word	1069228770
 2455 0c64 E563BB3F 		.word	1069245413
 2456 0c68 09A5BB3F 		.word	1069262089
 2457 0c6c 36E6BB3F 		.word	1069278774
 2458 0c70 8527BC3F 		.word	1069295493
 2459 0c74 E468BC3F 		.word	1069312228
 2460 0c78 5CAABC3F 		.word	1069328988
 2461 0c7c EEEBBC3F 		.word	1069345774
 2462 0c80 902DBD3F 		.word	1069362576
 2463 0c84 546FBD3F 		.word	1069379412
 2464 0c88 21B1BD3F 		.word	1069396257
 2465 0c8c 0EF3BD3F 		.word	1069413134
 2466 0c90 0D35BE3F 		.word	1069430029
 2467 0c94 2577BE3F 		.word	1069446949
 2468 0c98 56B9BE3F 		.word	1069463894
 2469 0c9c A0FBBE3F 		.word	1069480864
 2470 0ca0 FB3DBF3F 		.word	1069497851
 2471 0ca4 6F80BF3F 		.word	1069514863
 2472 0ca8 FCC2BF3F 		.word	1069531900
 2473 0cac 9A05C03F 		.word	1069548954
 2474 0cb0 5A48C03F 		.word	1069566042
 2475 0cb4 2A8BC03F 		.word	1069583146
 2476 0cb8 0CCEC03F 		.word	1069600268
 2477 0cbc 0E11C13F 		.word	1069617422
 2478 0cc0 2254C13F 		.word	1069634594
 2479 0cc4 5797C13F 		.word	1069651799
 2480 0cc8 94DAC13F 		.word	1069669012
 2481 0ccc F31DC23F 		.word	1069686259
 2482 0cd0 6B61C23F 		.word	1069703531
 2483 0cd4 F4A4C23F 		.word	1069720820
 2484 0cd8 96E8C23F 		.word	1069738134
 2485 0cdc 522CC33F 		.word	1069755474
 2486 0ce0 2670C33F 		.word	1069772838
 2487 0ce4 0BB4C33F 		.word	1069790219
 2488 0ce8 12F8C33F 		.word	1069807634
 2489 0cec 293CC43F 		.word	1069825065
 2490 0cf0 5A80C43F 		.word	1069842522
 2491 0cf4 9CC4C43F 		.word	1069859996
 2492 0cf8 FF08C53F 		.word	1069877503
 2493 0cfc 7B4DC53F 		.word	1069895035
 2494 0d00 0892C53F 		.word	1069912584
 2495 0d04 AED6C53F 		.word	1069930158
 2496 0d08 6D1BC63F 		.word	1069947757
 2497 0d0c 4660C63F 		.word	1069965382
 2498 0d10 2FA5C63F 		.word	1069983023
 2499 0d14 3AEAC63F 		.word	1070000698
ARM GAS  /var/folders/0z/tsy30v1j4xl4_7kw94k978ww0000gn/T//ccNYdEij.s 			page 54


 2500 0d18 552FC73F 		.word	1070018389
 2501 0d1c 9274C73F 		.word	1070036114
 2502 0d20 E0B9C73F 		.word	1070053856
 2503 0d24 47FFC73F 		.word	1070071623
 2504 0d28 C844C83F 		.word	1070089416
 2505 0d2c 598AC83F 		.word	1070107225
 2506 0d30 0BD0C83F 		.word	1070125067
 2507 0d34 CF15C93F 		.word	1070142927
 2508 0d38 B45BC93F 		.word	1070160820
 2509 0d3c A9A1C93F 		.word	1070178729
 2510 0d40 B8E7C93F 		.word	1070196664
 2511 0d44 E02DCA3F 		.word	1070214624
 2512 0d48 2174CA3F 		.word	1070232609
 2513 0d4c 7CBACA3F 		.word	1070250620
 2514 0d50 EF00CB3F 		.word	1070268655
 2515 0d54 7C47CB3F 		.word	1070286716
 2516 0d58 228ECB3F 		.word	1070304802
 2517 0d5c D8D4CB3F 		.word	1070322904
 2518 0d60 B01BCC3F 		.word	1070341040
 2519 0d64 9962CC3F 		.word	1070359193
 2520 0d68 A4A9CC3F 		.word	1070377380
 2521 0d6c BFF0CC3F 		.word	1070395583
 2522 0d70 F437CD3F 		.word	1070413812
 2523 0d74 417FCD3F 		.word	1070432065
 2524 0d78 B0C6CD3F 		.word	1070450352
 2525 0d7c 300ECE3F 		.word	1070468656
 2526 0d80 C955CE3F 		.word	1070486985
 2527 0d84 7C9DCE3F 		.word	1070505340
 2528 0d88 47E5CE3F 		.word	1070523719
 2529 0d8c 2C2DCF3F 		.word	1070542124
 2530 0d90 2975CF3F 		.word	1070560553
 2531 0d94 40BDCF3F 		.word	1070579008
 2532 0d98 7105D03F 		.word	1070597489
 2533 0d9c BA4DD03F 		.word	1070615994
 2534 0da0 1C96D03F 		.word	1070634524
 2535 0da4 98DED03F 		.word	1070653080
 2536 0da8 2D27D13F 		.word	1070671661
 2537 0dac DB6FD13F 		.word	1070690267
 2538 0db0 A2B8D13F 		.word	1070708898
 2539 0db4 8201D23F 		.word	1070727554
 2540 0db8 7B4AD23F 		.word	1070746235
 2541 0dbc 8E93D23F 		.word	1070764942
 2542 0dc0 BADCD23F 		.word	1070783674
 2543 0dc4 FF25D33F 		.word	1070802431
 2544 0dc8 5D6FD33F 		.word	1070821213
 2545 0dcc D4B8D33F 		.word	1070840020
 2546 0dd0 6402D43F 		.word	1070858852
 2547 0dd4 164CD43F 		.word	1070877718
 2548 0dd8 D995D43F 		.word	1070896601
 2549 0ddc B5DFD43F 		.word	1070915509
 2550 0de0 B329D53F 		.word	1070934451
 2551 0de4 C173D53F 		.word	1070953409
 2552 0de8 F1BDD53F 		.word	1070972401
 2553 0dec 3108D63F 		.word	1070991409
 2554 0df0 9352D63F 		.word	1071010451
 2555 0df4 0F9DD63F 		.word	1071029519
 2556 0df8 A3E7D63F 		.word	1071048611
ARM GAS  /var/folders/0z/tsy30v1j4xl4_7kw94k978ww0000gn/T//ccNYdEij.s 			page 55


 2557 0dfc 5132D73F 		.word	1071067729
 2558 0e00 187DD73F 		.word	1071086872
 2559 0e04 F7C7D73F 		.word	1071106039
 2560 0e08 F112D83F 		.word	1071125233
 2561 0e0c 035ED83F 		.word	1071144451
 2562 0e10 37A9D83F 		.word	1071163703
 2563 0e14 7BF4D83F 		.word	1071182971
 2564 0e18 E23FD93F 		.word	1071202274
 2565 0e1c 618BD93F 		.word	1071221601
 2566 0e20 F9D6D93F 		.word	1071240953
 2567 0e24 AB22DA3F 		.word	1071260331
 2568 0e28 766EDA3F 		.word	1071279734
 2569 0e2c 62BADA3F 		.word	1071299170
 2570 0e30 6006DB3F 		.word	1071318624
 2571 0e34 7E52DB3F 		.word	1071338110
 2572 0e38 AE9EDB3F 		.word	1071357614
 2573 0e3c FFEADB3F 		.word	1071377151
 2574 0e40 7237DC3F 		.word	1071396722
 2575 0e44 F583DC3F 		.word	1071416309
 2576 0e48 91D0DC3F 		.word	1071435921
 2577 0e4c 501DDD3F 		.word	1071455568
 2578 0e50 276ADD3F 		.word	1071475239
 2579 0e54 17B7DD3F 		.word	1071494935
 2580 0e58 2104DE3F 		.word	1071514657
 2581 0e5c 4451DE3F 		.word	1071534404
 2582 0e60 889EDE3F 		.word	1071554184
 2583 0e64 E6EBDE3F 		.word	1071573990
 2584 0e68 5439DF3F 		.word	1071593812
 2585 0e6c EC86DF3F 		.word	1071613676
 2586 0e70 95D4DF3F 		.word	1071633557
 2587 0e74 6022E03F 		.word	1071653472
 2588 0e78 3B70E03F 		.word	1071673403
 2589 0e7c 40BEE03F 		.word	1071693376
 2590 0e80 560CE13F 		.word	1071713366
 2591 0e84 865AE13F 		.word	1071733382
 2592 0e88 D6A8E13F 		.word	1071753430
 2593 0e8c 40F7E13F 		.word	1071773504
 2594 0e90 C345E23F 		.word	1071793603
 2595 0e94 6894E23F 		.word	1071813736
 2596 0e98 26E3E23F 		.word	1071833894
 2597 0e9c FD31E33F 		.word	1071854077
 2598 0ea0 ED80E33F 		.word	1071874285
 2599 0ea4 F6CFE33F 		.word	1071894518
 2600 0ea8 211FE43F 		.word	1071914785
 2601 0eac 656EE43F 		.word	1071935077
 2602 0eb0 CBBDE43F 		.word	1071955403
 2603 0eb4 410DE53F 		.word	1071975745
 2604 0eb8 D95CE53F 		.word	1071996121
 2605 0ebc 93ACE53F 		.word	1072016531
 2606 0ec0 5DFCE53F 		.word	1072036957
 2607 0ec4 494CE63F 		.word	1072057417
 2608 0ec8 4E9CE63F 		.word	1072077902
 2609 0ecc 74ECE63F 		.word	1072098420
 2610 0ed0 B43CE73F 		.word	1072118964
 2611 0ed4 0D8DE73F 		.word	1072139533
 2612 0ed8 7FDDE73F 		.word	1072160127
 2613 0edc 122EE83F 		.word	1072180754
ARM GAS  /var/folders/0z/tsy30v1j4xl4_7kw94k978ww0000gn/T//ccNYdEij.s 			page 56


 2614 0ee0 BF7EE83F 		.word	1072201407
 2615 0ee4 8DCFE83F 		.word	1072222093
 2616 0ee8 7520E93F 		.word	1072242805
 2617 0eec 7671E93F 		.word	1072263542
 2618 0ef0 8FC2E93F 		.word	1072284303
 2619 0ef4 CB13EA3F 		.word	1072305099
 2620 0ef8 2865EA3F 		.word	1072325928
 2621 0efc 95B6EA3F 		.word	1072346773
 2622 0f00 2508EB3F 		.word	1072367653
 2623 0f04 D559EB3F 		.word	1072388565
 2624 0f08 97ABEB3F 		.word	1072409495
 2625 0f0c 7AFDEB3F 		.word	1072430458
 2626 0f10 7F4FEC3F 		.word	1072451455
 2627 0f14 9DA1EC3F 		.word	1072472477
 2628 0f18 D4F3EC3F 		.word	1072493524
 2629 0f1c 2C46ED3F 		.word	1072514604
 2630 0f20 9E98ED3F 		.word	1072535710
 2631 0f24 31EBED3F 		.word	1072556849
 2632 0f28 DE3DEE3F 		.word	1072578014
 2633 0f2c A390EE3F 		.word	1072599203
 2634 0f30 8AE3EE3F 		.word	1072620426
 2635 0f34 8B36EF3F 		.word	1072641675
 2636 0f38 AD89EF3F 		.word	1072662957
 2637 0f3c E8DCEF3F 		.word	1072684264
 2638 0f40 4430F03F 		.word	1072705604
 2639 0f44 BA83F03F 		.word	1072726970
 2640 0f48 52D7F03F 		.word	1072748370
 2641 0f4c 022BF13F 		.word	1072769794
 2642 0f50 CC7EF13F 		.word	1072791244
 2643 0f54 B7D2F13F 		.word	1072812727
 2644 0f58 BB26F23F 		.word	1072834235
 2645 0f5c E17AF23F 		.word	1072855777
 2646 0f60 29CFF23F 		.word	1072877353
 2647 0f64 8123F33F 		.word	1072898945
 2648 0f68 0378F33F 		.word	1072920579
 2649 0f6c 9FCCF33F 		.word	1072942239
 2650 0f70 5321F43F 		.word	1072963923
 2651 0f74 2976F43F 		.word	1072985641
 2652 0f78 19CBF43F 		.word	1073007385
 2653 0f7c 2920F53F 		.word	1073029161
 2654 0f80 5C75F53F 		.word	1073050972
 2655 0f84 A7CAF53F 		.word	1073072807
 2656 0f88 0C20F63F 		.word	1073094668
 2657 0f8c 9275F63F 		.word	1073116562
 2658 0f90 3ACBF63F 		.word	1073138490
 2659 0f94 FB20F73F 		.word	1073160443
 2660 0f98 D576F73F 		.word	1073182421
 2661 0f9c D9CCF73F 		.word	1073204441
 2662 0fa0 EE22F83F 		.word	1073226478
 2663 0fa4 2D79F83F 		.word	1073248557
 2664 0fa8 85CFF83F 		.word	1073270661
 2665 0fac F625F93F 		.word	1073292790
 2666 0fb0 897CF93F 		.word	1073314953
 2667 0fb4 3DD3F93F 		.word	1073337149
 2668 0fb8 0B2AFA3F 		.word	1073359371
 2669 0fbc FA80FA3F 		.word	1073381626
 2670 0fc0 0AD8FA3F 		.word	1073403914
ARM GAS  /var/folders/0z/tsy30v1j4xl4_7kw94k978ww0000gn/T//ccNYdEij.s 			page 57


 2671 0fc4 342FFB3F 		.word	1073426228
 2672 0fc8 7786FB3F 		.word	1073448567
 2673 0fcc E3DDFB3F 		.word	1073470947
 2674 0fd0 6935FC3F 		.word	1073493353
 2675 0fd4 098DFC3F 		.word	1073515785
 2676 0fd8 C9E4FC3F 		.word	1073538249
 2677 0fdc AC3CFD3F 		.word	1073560748
 2678 0fe0 AF94FD3F 		.word	1073583279
 2679 0fe4 CCECFD3F 		.word	1073605836
 2680 0fe8 0245FE3F 		.word	1073628418
 2681 0fec 629DFE3F 		.word	1073651042
 2682 0ff0 DCF5FE3F 		.word	1073673692
 2683 0ff4 774EFF3F 		.word	1073696375
 2684 0ff8 2AA7FF3F 		.word	1073719082
 2685 0ffc 00000040 		.word	1073741824
 2686              		.text
 2687              	.Letext0:
 2688              		.file 3 "/Users/johannes/Library/Application Support/Code/User/globalStorage/bmd.stm32-for-vscode/
 2689              		.file 4 "/Users/johannes/Library/Application Support/Code/User/globalStorage/bmd.stm32-for-vscode/
 2690              		.file 5 "Drivers/CMSIS/Device/ST/STM32F4xx/Include/stm32f407xx.h"
 2691              		.file 6 "Drivers/STM32F4xx_HAL_Driver/Inc/stm32f4xx_hal_def.h"
 2692              		.file 7 "Drivers/STM32F4xx_HAL_Driver/Inc/stm32f4xx_hal_dma.h"
 2693              		.file 8 "Drivers/STM32F4xx_HAL_Driver/Inc/stm32f4xx_hal_i2s.h"
 2694              		.file 9 "Core/Inc/audio.h"
 2695              		.file 10 "Core/Inc/oscillators.h"
 2696              		.file 11 "Core/Inc/ADSR_envelope.h"
 2697              		.file 12 "Core/Inc/ladder_filter.h"
 2698              		.file 13 "Core/Inc/MIDI_lut.h"
 2699              		.file 14 "Core/Inc/stereo_delay.h"
 2700              		.file 15 "Core/Inc/../../Drivers/BSP/STM32F4-Discovery/stm32f4_discovery_audio.h"
ARM GAS  /var/folders/0z/tsy30v1j4xl4_7kw94k978ww0000gn/T//ccNYdEij.s 			page 58


DEFINED SYMBOLS
                            *ABS*:0000000000000000 audio.c
/var/folders/0z/tsy30v1j4xl4_7kw94k978ww0000gn/T//ccNYdEij.s:25     .text.audioBlock.constprop.0:0000000000000000 $t
/var/folders/0z/tsy30v1j4xl4_7kw94k978ww0000gn/T//ccNYdEij.s:31     .text.audioBlock.constprop.0:0000000000000000 audioBlock.constprop.0
/var/folders/0z/tsy30v1j4xl4_7kw94k978ww0000gn/T//ccNYdEij.s:571    .text.audioBlock.constprop.0:0000000000000238 $d
/var/folders/0z/tsy30v1j4xl4_7kw94k978ww0000gn/T//ccNYdEij.s:601    .text.AUDIO_Init:0000000000000000 $t
/var/folders/0z/tsy30v1j4xl4_7kw94k978ww0000gn/T//ccNYdEij.s:608    .text.AUDIO_Init:0000000000000000 AUDIO_Init
/var/folders/0z/tsy30v1j4xl4_7kw94k978ww0000gn/T//ccNYdEij.s:725    .text.AUDIO_Init:00000000000000d0 $d
/var/folders/0z/tsy30v1j4xl4_7kw94k978ww0000gn/T//ccNYdEij.s:742    .text.OpSetFreq:0000000000000000 $t
/var/folders/0z/tsy30v1j4xl4_7kw94k978ww0000gn/T//ccNYdEij.s:749    .text.OpSetFreq:0000000000000000 OpSetFreq
/var/folders/0z/tsy30v1j4xl4_7kw94k978ww0000gn/T//ccNYdEij.s:769    .text.OpSetFreq:0000000000000010 $d
/var/folders/0z/tsy30v1j4xl4_7kw94k978ww0000gn/T//ccNYdEij.s:774    .text.audioBlock:0000000000000000 $t
/var/folders/0z/tsy30v1j4xl4_7kw94k978ww0000gn/T//ccNYdEij.s:781    .text.audioBlock:0000000000000000 audioBlock
/var/folders/0z/tsy30v1j4xl4_7kw94k978ww0000gn/T//ccNYdEij.s:1333   .text.audioBlock:0000000000000238 $d
/var/folders/0z/tsy30v1j4xl4_7kw94k978ww0000gn/T//ccNYdEij.s:1361   .text.BSP_AUDIO_OUT_HalfTransfer_CallBack:0000000000000000 $t
/var/folders/0z/tsy30v1j4xl4_7kw94k978ww0000gn/T//ccNYdEij.s:1368   .text.BSP_AUDIO_OUT_HalfTransfer_CallBack:0000000000000000 BSP_AUDIO_OUT_HalfTransfer_CallBack
/var/folders/0z/tsy30v1j4xl4_7kw94k978ww0000gn/T//ccNYdEij.s:1382   .text.BSP_AUDIO_OUT_HalfTransfer_CallBack:0000000000000008 $d
/var/folders/0z/tsy30v1j4xl4_7kw94k978ww0000gn/T//ccNYdEij.s:1387   .text.BSP_AUDIO_OUT_TransferComplete_CallBack:0000000000000000 $t
/var/folders/0z/tsy30v1j4xl4_7kw94k978ww0000gn/T//ccNYdEij.s:1394   .text.BSP_AUDIO_OUT_TransferComplete_CallBack:0000000000000000 BSP_AUDIO_OUT_TransferComplete_CallBack
/var/folders/0z/tsy30v1j4xl4_7kw94k978ww0000gn/T//ccNYdEij.s:1408   .text.BSP_AUDIO_OUT_TransferComplete_CallBack:0000000000000008 $d
/var/folders/0z/tsy30v1j4xl4_7kw94k978ww0000gn/T//ccNYdEij.s:1413   .text.BSP_AUDIO_OUT_Error_CallBack:0000000000000000 $t
/var/folders/0z/tsy30v1j4xl4_7kw94k978ww0000gn/T//ccNYdEij.s:1420   .text.BSP_AUDIO_OUT_Error_CallBack:0000000000000000 BSP_AUDIO_OUT_Error_CallBack
/var/folders/0z/tsy30v1j4xl4_7kw94k978ww0000gn/T//ccNYdEij.s:1437   .text.DMA1_Stream7_IRQHandler:0000000000000000 $t
/var/folders/0z/tsy30v1j4xl4_7kw94k978ww0000gn/T//ccNYdEij.s:1444   .text.DMA1_Stream7_IRQHandler:0000000000000000 DMA1_Stream7_IRQHandler
/var/folders/0z/tsy30v1j4xl4_7kw94k978ww0000gn/T//ccNYdEij.s:1459   .text.DMA1_Stream7_IRQHandler:0000000000000008 $d
/var/folders/0z/tsy30v1j4xl4_7kw94k978ww0000gn/T//ccNYdEij.s:1464   .text.DMA1_Stream3_IRQHandler:0000000000000000 $t
/var/folders/0z/tsy30v1j4xl4_7kw94k978ww0000gn/T//ccNYdEij.s:1471   .text.DMA1_Stream3_IRQHandler:0000000000000000 DMA1_Stream3_IRQHandler
/var/folders/0z/tsy30v1j4xl4_7kw94k978ww0000gn/T//ccNYdEij.s:1486   .text.DMA1_Stream3_IRQHandler:0000000000000008 $d
/var/folders/0z/tsy30v1j4xl4_7kw94k978ww0000gn/T//ccNYdEij.s:1514   .bss.delayROut:0000000000000000 delayROut
/var/folders/0z/tsy30v1j4xl4_7kw94k978ww0000gn/T//ccNYdEij.s:1507   .bss.delayLOut:0000000000000000 delayLOut
/var/folders/0z/tsy30v1j4xl4_7kw94k978ww0000gn/T//ccNYdEij.s:1500   .bss.audioBuffer:0000000000000000 audioBuffer
/var/folders/0z/tsy30v1j4xl4_7kw94k978ww0000gn/T//ccNYdEij.s:1661   .rodata.pbend:0000000000000000 pbend
/var/folders/0z/tsy30v1j4xl4_7kw94k978ww0000gn/T//ccNYdEij.s:1528   .rodata.mtof:0000000000000000 mtof
/var/folders/0z/tsy30v1j4xl4_7kw94k978ww0000gn/T//ccNYdEij.s:1496   .bss.audioBuffer:0000000000000000 $d
/var/folders/0z/tsy30v1j4xl4_7kw94k978ww0000gn/T//ccNYdEij.s:1503   .bss.delayLOut:0000000000000000 $d
/var/folders/0z/tsy30v1j4xl4_7kw94k978ww0000gn/T//ccNYdEij.s:1510   .bss.delayROut:0000000000000000 $d
/var/folders/0z/tsy30v1j4xl4_7kw94k978ww0000gn/T//ccNYdEij.s:1517   .bss.f0:0000000000000000 $d
/var/folders/0z/tsy30v1j4xl4_7kw94k978ww0000gn/T//ccNYdEij.s:1521   .bss.f0:0000000000000000 f0
/var/folders/0z/tsy30v1j4xl4_7kw94k978ww0000gn/T//ccNYdEij.s:1524   .rodata.mtof:0000000000000000 $d
/var/folders/0z/tsy30v1j4xl4_7kw94k978ww0000gn/T//ccNYdEij.s:1658   .rodata.pbend:0000000000000000 $d

UNDEFINED SYMBOLS
__aeabi_f2d
__aeabi_dsub
__aeabi_d2f
__aeabi_dmul
__aeabi_dadd
ADSR_compute
osc_FM2OP
osc_polyblepRect
MoogLP_compute
pingpongDelay_compute
osc1
currentPitch
osc2
osc3
adsr_index
ARM GAS  /var/folders/0z/tsy30v1j4xl4_7kw94k978ww0000gn/T//ccNYdEij.s 			page 59


osc4
sub_osc
adsr_filt
Moog_filter
adsr_amp
BSP_AUDIO_OUT_Init
BSP_AUDIO_OUT_Play
osc_init
ADSR_init
MoogLP_init
Delay_init
HAL_DMA_IRQHandler
hAudioOutI2s
hAudioInI2s
