ARM GAS  /var/folders/0z/tsy30v1j4xl4_7kw94k978ww0000gn/T//ccDRKxZB.s 			page 1


   1              		.cpu cortex-m4
   2              		.arch armv7e-m
   3              		.fpu fpv4-sp-d16
   4              		.eabi_attribute 27, 1
   5              		.eabi_attribute 28, 1
   6              		.eabi_attribute 20, 1
   7              		.eabi_attribute 21, 1
   8              		.eabi_attribute 23, 3
   9              		.eabi_attribute 24, 1
  10              		.eabi_attribute 25, 1
  11              		.eabi_attribute 26, 1
  12              		.eabi_attribute 30, 2
  13              		.eabi_attribute 34, 1
  14              		.eabi_attribute 18, 4
  15              		.file	"audio.c"
  16              		.text
  17              	.Ltext0:
  18              		.cfi_sections	.debug_frame
  19              		.global	__aeabi_f2d
  20              		.global	__aeabi_dsub
  21              		.global	__aeabi_d2f
  22              		.section	.text.audioBlock.constprop.0,"ax",%progbits
  23              		.align	1
  24              		.p2align 2,,3
  25              		.syntax unified
  26              		.thumb
  27              		.thumb_func
  29              	audioBlock.constprop.0:
  30              	.LVL0:
  31              	.LFB248:
  32              		.file 1 "Core/Src/audio.c"
   1:Core/Src/audio.c **** /**
   2:Core/Src/audio.c ****  * @file audio.c
   3:Core/Src/audio.c ****  * @author johannes regnier
   4:Core/Src/audio.c ****  * @brief Functions to make sound and main audio block function 
   5:Core/Src/audio.c ****  * @note  Essential initialization functions from Tom Erbe:	
   6:Core/Src/audio.c ****  * @note  http://synthnotes.ucsd.edu/wp4/index.php/2019/09/24/setting-up-the-stmf4-to-connect-to-th
   7:Core/Src/audio.c ****  * @version 0.1
   8:Core/Src/audio.c ****  * @date 2023-12-12
   9:Core/Src/audio.c ****  * 
  10:Core/Src/audio.c ****  * @copyright Copyright (c) 2023
  11:Core/Src/audio.c ****  * 
  12:Core/Src/audio.c ****  */
  13:Core/Src/audio.c **** 
  14:Core/Src/audio.c **** 
  15:Core/Src/audio.c **** #include <stdint.h>
  16:Core/Src/audio.c **** #include "audio.h"
  17:Core/Src/audio.c **** #include "oscillators.h"
  18:Core/Src/audio.c **** #include "ADSR_envelope.h"
  19:Core/Src/audio.c **** #include "ladder_filter.h"
  20:Core/Src/audio.c **** #include "bitcrusher.h"
  21:Core/Src/audio.c **** #include "flanger.h"
  22:Core/Src/audio.c **** #include "stereo_delay.h"
  23:Core/Src/audio.c **** #include "MIDI_lut.h"
  24:Core/Src/audio.c **** #include <stdint.h>
  25:Core/Src/audio.c **** #include "helper_functions.h"
  26:Core/Src/audio.c **** #include "stdlib.h"
ARM GAS  /var/folders/0z/tsy30v1j4xl4_7kw94k978ww0000gn/T//ccDRKxZB.s 			page 2


  27:Core/Src/audio.c **** 
  28:Core/Src/audio.c **** 
  29:Core/Src/audio.c **** 
  30:Core/Src/audio.c **** 
  31:Core/Src/audio.c **** 
  32:Core/Src/audio.c **** /**
  33:Core/Src/audio.c ****  * @brief Audio Buffer - x samples X 2 channels = 2 * x samples
  34:Core/Src/audio.c ****  * @note Channels are interleaved - LRLRLRLRLRLRLRLRLRLRLR - audioBuffer[frame << 1] audioBuffer[(f
  35:Core/Src/audio.c ****  */
  36:Core/Src/audio.c **** int16_t audioBuffer[BUFFER_SIZE]; 
  37:Core/Src/audio.c **** 
  38:Core/Src/audio.c **** 
  39:Core/Src/audio.c **** extern uint8_t currentPitch;
  40:Core/Src/audio.c **** extern uint8_t velocity, noteOn_velocity;
  41:Core/Src/audio.c **** extern ADSR_t adsr_amp, adsr_filt;
  42:Core/Src/audio.c **** extern ADSR_t adsr_index;
  43:Core/Src/audio.c **** extern ZDFLadder_t Moog_filter;
  44:Core/Src/audio.c **** extern oscillator_t osc1, osc2, osc3, osc4, sub_osc;
  45:Core/Src/audio.c **** extern float pot1_norm, pot2_norm;
  46:Core/Src/audio.c **** 
  47:Core/Src/audio.c **** static float f0;			// frequency of oscillators 1 & 2
  48:Core/Src/audio.c **** static float f_sub ;		// frequency of sub oscillator
  49:Core/Src/audio.c **** static float amp_env ;		// amplitude envelope
  50:Core/Src/audio.c **** static float filt_env ;		// filter envelope
  51:Core/Src/audio.c **** static float index_env ;	// FM index envelope
  52:Core/Src/audio.c **** 
  53:Core/Src/audio.c **** float delayLOut = 0 ;		// left output of ping pong delay
  54:Core/Src/audio.c **** float delayROut = 0;		// right output of ping pong delay
  55:Core/Src/audio.c **** 
  56:Core/Src/audio.c **** 
  57:Core/Src/audio.c **** 
  58:Core/Src/audio.c **** 
  59:Core/Src/audio.c **** /**
  60:Core/Src/audio.c ****  * @brief Initialize audio
  61:Core/Src/audio.c ****  * 
  62:Core/Src/audio.c ****  */
  63:Core/Src/audio.c **** void AUDIO_Init()
  64:Core/Src/audio.c **** {
  65:Core/Src/audio.c ****     BSP_AUDIO_OUT_Init(OUTPUT_DEVICE_HEADPHONE, INITIAL_VOLUME, FS);
  66:Core/Src/audio.c **** 
  67:Core/Src/audio.c **** 	/**
  68:Core/Src/audio.c **** 	 * @brief Ping pong buffer
  69:Core/Src/audio.c **** 	 * @note While one audiobuffer is transmitted via DMA, another one is computed
  70:Core/Src/audio.c **** 	 * @note Hence size = 2 * (audiobuffer size)
  71:Core/Src/audio.c **** 	 */
  72:Core/Src/audio.c **** 	BSP_AUDIO_OUT_Play((uint16_t *)&audioBuffer[0], 2*BUFFER_SIZE); 
  73:Core/Src/audio.c **** 
  74:Core/Src/audio.c **** 	
  75:Core/Src/audio.c **** 	
  76:Core/Src/audio.c **** 	osc_init(&osc1, 0.5, 1000, 0, 0, 0.5);
  77:Core/Src/audio.c **** 	osc_init(&osc2, 0.5, 440, 0, 2, 0.5);
  78:Core/Src/audio.c **** 	osc_init(&osc3, 0.5, 1000, 0, 0, 0.5);
  79:Core/Src/audio.c **** 	osc_init(&osc4, 0.5, 440, 0, 0, 0.5);
  80:Core/Src/audio.c **** 	osc_init(&sub_osc, 0.5, 440, 0, 0, 0.5);
  81:Core/Src/audio.c **** 
  82:Core/Src/audio.c **** 
  83:Core/Src/audio.c **** 	ADSR_init(&adsr_amp);
ARM GAS  /var/folders/0z/tsy30v1j4xl4_7kw94k978ww0000gn/T//ccDRKxZB.s 			page 3


  84:Core/Src/audio.c **** 	ADSR_init(&adsr_filt);
  85:Core/Src/audio.c **** 	ADSR_init(&adsr_index);
  86:Core/Src/audio.c **** 	MoogLP_init(&Moog_filter);
  87:Core/Src/audio.c **** 	// flanger_init();
  88:Core/Src/audio.c **** 	Delay_init();
  89:Core/Src/audio.c **** }
  90:Core/Src/audio.c **** 
  91:Core/Src/audio.c **** void OpSetFreq(oscillator_t * op, float f)
  92:Core/Src/audio.c **** {
  93:Core/Src/audio.c **** 	op->freq = A0 * f;
  94:Core/Src/audio.c **** }
  95:Core/Src/audio.c **** 
  96:Core/Src/audio.c **** 
  97:Core/Src/audio.c **** 
  98:Core/Src/audio.c **** /**
  99:Core/Src/audio.c ****  * @brief Main audio function. This is where the audio samples are computed, then the audio buffer 
 100:Core/Src/audio.c ****  * 
 101:Core/Src/audio.c ****  * @param buffer 
 102:Core/Src/audio.c ****  * @param samples 
 103:Core/Src/audio.c ****  */
 104:Core/Src/audio.c **** void audioBlock(int16_t *buffer, uint16_t samples)
  33              		.loc 1 104 6 view -0
  34              		.cfi_startproc
  35              		@ args = 0, pretend = 0, frame = 0
  36              		@ frame_needed = 0, uses_anonymous_args = 0
 105:Core/Src/audio.c **** {
 106:Core/Src/audio.c **** 	int i;
 107:Core/Src/audio.c **** 	int16_t *output;
 108:Core/Src/audio.c **** 	output = buffer;
 109:Core/Src/audio.c **** 	float sample, sampleL, sampleR;
 110:Core/Src/audio.c **** 	uint16_t valueL, valueR;
 111:Core/Src/audio.c **** 	
 112:Core/Src/audio.c **** 
 113:Core/Src/audio.c **** 	for (i = 0; i < samples; i++)
  37              		.loc 1 113 16 view .LVU1
 104:Core/Src/audio.c **** {
  38              		.loc 1 104 6 is_stmt 0 view .LVU2
  39 0000 2DE9F84F 		push	{r3, r4, r5, r6, r7, r8, r9, r10, fp, lr}
  40              		.cfi_def_cfa_offset 40
  41              		.cfi_offset 3, -40
  42              		.cfi_offset 4, -36
  43              		.cfi_offset 5, -32
  44              		.cfi_offset 6, -28
  45              		.cfi_offset 7, -24
  46              		.cfi_offset 8, -20
  47              		.cfi_offset 9, -16
  48              		.cfi_offset 10, -12
  49              		.cfi_offset 11, -8
  50              		.cfi_offset 14, -4
  51 0004 8E4F     		ldr	r7, .L17+8
  52 0006 DFF880A2 		ldr	r10, .L17+80
  53 000a 8E4E     		ldr	r6, .L17+12
  54 000c DFF87C92 		ldr	r9, .L17+84
  55 0010 2DED088B 		vpush.64	{d8, d9, d10, d11}
  56              		.cfi_def_cfa_offset 72
  57              		.cfi_offset 80, -72
  58              		.cfi_offset 81, -68
ARM GAS  /var/folders/0z/tsy30v1j4xl4_7kw94k978ww0000gn/T//ccDRKxZB.s 			page 4


  59              		.cfi_offset 82, -64
  60              		.cfi_offset 83, -60
  61              		.cfi_offset 84, -56
  62              		.cfi_offset 85, -52
  63              		.cfi_offset 86, -48
  64              		.cfi_offset 87, -44
 104:Core/Src/audio.c **** {
  65              		.loc 1 104 6 view .LVU3
  66 0014 8046     		mov	r8, r0
  67              	.LBB48:
  68              	.LBB49:
  93:Core/Src/audio.c **** }
  69              		.loc 1 93 16 view .LVU4
  70 0016 DFED8C8A 		vldr.32	s17, .L17+16
  71              	.LBE49:
  72              	.LBE48:
  73 001a DFED8CAA 		vldr.32	s21, .L17+20
 114:Core/Src/audio.c **** 	{
 115:Core/Src/audio.c **** 
 116:Core/Src/audio.c **** 		f0 = mtof[currentPitch];
 117:Core/Src/audio.c **** 		
 118:Core/Src/audio.c **** 		/* test with 3 oscillators*/
 119:Core/Src/audio.c **** 		OpSetFreq(&osc1, f0);
 120:Core/Src/audio.c **** 		OpSetFreq(&osc2, f0);
 121:Core/Src/audio.c **** 		OpSetFreq(&osc3, f0-0.2);
 122:Core/Src/audio.c **** 		OpSetFreq(&osc4, f0 + 0.5);
 123:Core/Src/audio.c **** 		
 124:Core/Src/audio.c **** 		f_sub = mtof[max(currentPitch - 12, 0)];
 125:Core/Src/audio.c **** 		OpSetFreq(&sub_osc, f_sub);
 126:Core/Src/audio.c **** 		sample = 0.5*(osc_polyblepSaw(&osc1) + osc_polyblepSaw(&osc2) + osc_polyblepSaw(&osc3) + osc_poly
 127:Core/Src/audio.c **** 		// sample = 0*osc_polyblepSaw(&osc1) + osc_polyblepRect(&sub_osc);
 128:Core/Src/audio.c **** 		// sample = osc_Sine(&osc1);
 129:Core/Src/audio.c **** 
 130:Core/Src/audio.c **** 		// FM
 131:Core/Src/audio.c **** 		//index_env = ADSR_compute(&adsr_index);
 132:Core/Src/audio.c **** 		//osc1.FM_index = (noteOn_velocity/127.f) * 0.033 * index_env;	
 133:Core/Src/audio.c **** 		//sample = osc_FM2OP(f0);
 134:Core/Src/audio.c **** 
 135:Core/Src/audio.c **** 		/****************** Apply filter ***********************/
 136:Core/Src/audio.c **** 		filt_env = ADSR_compute(&adsr_filt);
 137:Core/Src/audio.c **** 		Moog_filter.cutoff =clip(1000.f * filt_env + NYQUIST * pot1_norm * pot1_norm * pot1_norm * pot1_n
  74              		.loc 1 137 56 view .LVU5
  75 001e DFED8C9A 		vldr.32	s19, .L17+24
  76              		.loc 1 137 23 view .LVU6
  77 0022 9FED8C9A 		vldr.32	s18, .L17+28
 138:Core/Src/audio.c **** 		Moog_filter.k = 4.5f * pot2_norm;
 139:Core/Src/audio.c **** 
 140:Core/Src/audio.c **** 		sample = MoogLP_compute(&Moog_filter, sample);
 141:Core/Src/audio.c **** 
 142:Core/Src/audio.c **** 		/************** Apply amplitude envelope ****************/
 143:Core/Src/audio.c **** 		amp_env = ADSR_compute(&adsr_amp);
 144:Core/Src/audio.c **** 		sample *= amp_env;
 145:Core/Src/audio.c **** 
 146:Core/Src/audio.c **** 		
 147:Core/Src/audio.c **** 		/************** Apply bitcrushing effect ***************/
 148:Core/Src/audio.c **** 		// sample = decimator(sample, 0.2, 16);
 149:Core/Src/audio.c **** 
ARM GAS  /var/folders/0z/tsy30v1j4xl4_7kw94k978ww0000gn/T//ccDRKxZB.s 			page 5


 150:Core/Src/audio.c **** 		/************** Apply flanging effect ***************/
 151:Core/Src/audio.c **** 		// sample = flanger_compute(sample); // TODO
 152:Core/Src/audio.c **** 
 153:Core/Src/audio.c **** 		/************** Apply delay effect ****************/
 154:Core/Src/audio.c **** 		pingpongDelay_compute(sample, &delayLOut, &delayROut);
 155:Core/Src/audio.c **** 		sampleL = delayLOut;
 156:Core/Src/audio.c **** 		sampleR = delayROut;
 157:Core/Src/audio.c **** 		//sampleL = sample;
 158:Core/Src/audio.c **** 		//sampleR = sample;
 159:Core/Src/audio.c **** 
 160:Core/Src/audio.c **** 		/****************** softclip outputs ********************/
 161:Core/Src/audio.c **** 		sampleL = SoftClip(sampleL);
 162:Core/Src/audio.c **** 		sampleR = SoftClip(sampleR);
 163:Core/Src/audio.c **** 
 164:Core/Src/audio.c **** 		/*************** Convert to 16 bits int *****************/
 165:Core/Src/audio.c **** 		valueL = ((int16_t) ((32767.0f) * sampleL)); 
  78              		.loc 1 165 35 view .LVU7
  79 0026 9FED8CAA 		vldr.32	s20, .L17+32
 113:Core/Src/audio.c **** 	{
  80              		.loc 1 113 9 view .LVU8
  81 002a 0024     		movs	r4, #0
  82 002c 00F1020B 		add	fp, r0, #2
  83 0030 51E0     		b	.L5
  84              	.LVL1:
  85              	.L15:
  86              	.LBB52:
  87              	.LBB53:
  88              		.file 2 "Core/Inc/helper_functions.h"
   1:Core/Inc/helper_functions.h **** /**
   2:Core/Inc/helper_functions.h ****  * @file helper_functions.h
   3:Core/Inc/helper_functions.h ****  * @author johannes regnier
   4:Core/Inc/helper_functions.h ****  * @brief Various math tools 
   5:Core/Inc/helper_functions.h ****  * @version 0.1
   6:Core/Inc/helper_functions.h ****  * @date 2023-12-30
   7:Core/Inc/helper_functions.h ****  * 
   8:Core/Inc/helper_functions.h ****  * @copyright Copyright (c) 2023
   9:Core/Inc/helper_functions.h ****  * 
  10:Core/Inc/helper_functions.h ****  */
  11:Core/Inc/helper_functions.h **** 
  12:Core/Inc/helper_functions.h **** #ifndef _HELPER_FUNCTIONS_H
  13:Core/Inc/helper_functions.h **** #define _HELPER_FUNCTIONS_H
  14:Core/Inc/helper_functions.h **** 
  15:Core/Inc/helper_functions.h **** 
  16:Core/Inc/helper_functions.h **** #include <math.h>
  17:Core/Inc/helper_functions.h **** #include <stdint.h>
  18:Core/Inc/helper_functions.h **** 
  19:Core/Inc/helper_functions.h **** #ifndef NOMINMAX
  20:Core/Inc/helper_functions.h **** 
  21:Core/Inc/helper_functions.h **** #ifndef max
  22:Core/Inc/helper_functions.h **** #define max(a,b)            (((a) > (b)) ? (a) : (b))
  23:Core/Inc/helper_functions.h **** #endif
  24:Core/Inc/helper_functions.h **** 
  25:Core/Inc/helper_functions.h **** #ifndef min
  26:Core/Inc/helper_functions.h **** #define min(a,b)            (((a) < (b)) ? (a) : (b))
  27:Core/Inc/helper_functions.h **** #endif
  28:Core/Inc/helper_functions.h **** 
  29:Core/Inc/helper_functions.h **** #endif  /* NOMINMAX */
ARM GAS  /var/folders/0z/tsy30v1j4xl4_7kw94k978ww0000gn/T//ccDRKxZB.s 			page 6


  30:Core/Inc/helper_functions.h **** 
  31:Core/Inc/helper_functions.h **** /**
  32:Core/Inc/helper_functions.h ****  * @brief Keep value between 0 and max
  33:Core/Inc/helper_functions.h ****  * 
  34:Core/Inc/helper_functions.h ****  * @param value 
  35:Core/Inc/helper_functions.h ****  * @param max 
  36:Core/Inc/helper_functions.h ****  * @return float 
  37:Core/Inc/helper_functions.h ****  */
  38:Core/Inc/helper_functions.h **** inline float wrap(float value, float max)   
  39:Core/Inc/helper_functions.h **** {
  40:Core/Inc/helper_functions.h ****     if (value < 0.f)
  41:Core/Inc/helper_functions.h ****         value += max;
  42:Core/Inc/helper_functions.h ****     if (value >= max)
  43:Core/Inc/helper_functions.h ****         value -= max;
  44:Core/Inc/helper_functions.h **** 
  45:Core/Inc/helper_functions.h ****     return value;
  46:Core/Inc/helper_functions.h **** }
  47:Core/Inc/helper_functions.h **** 
  48:Core/Inc/helper_functions.h **** inline float Crossfade(float a, float b, float fade)
  49:Core/Inc/helper_functions.h **** {
  50:Core/Inc/helper_functions.h ****     return a + (b - a) * fade;
  51:Core/Inc/helper_functions.h **** }
  52:Core/Inc/helper_functions.h **** 
  53:Core/Inc/helper_functions.h **** 
  54:Core/Inc/helper_functions.h **** /**
  55:Core/Inc/helper_functions.h ****  * @brief Pade-approximation of tanh for soft clipping
  56:Core/Inc/helper_functions.h ****  * @ from https://www.musicdsp.org/en/latest/Other/238-rational-tanh-approximation.html 
  57:Core/Inc/helper_functions.h ****  * @param x 
  58:Core/Inc/helper_functions.h ****  * @return float 
  59:Core/Inc/helper_functions.h ****  */
  60:Core/Inc/helper_functions.h **** inline float SoftClip(float x)
  61:Core/Inc/helper_functions.h **** {
  62:Core/Inc/helper_functions.h ****     if (x < -3.0f)
  63:Core/Inc/helper_functions.h ****     {
  64:Core/Inc/helper_functions.h ****         return -1.0f;
  65:Core/Inc/helper_functions.h ****     }
  66:Core/Inc/helper_functions.h ****     else if (x > 3.0f)
  89              		.loc 2 66 10 is_stmt 1 view .LVU9
  90              		.loc 2 66 13 is_stmt 0 view .LVU10
  91 0032 F0EE086A 		vmov.f32	s13, #3.0e+0
  92 0036 B4EEE67A 		vcmpe.f32	s14, s13
  93 003a F1EE10FA 		vmrs	APSR_nzcv, FPSCR
  94 003e 00F3F480 		bgt	.L8
  95              	.LVL2:
  96              	.LBB54:
  97              	.LBI54:
  60:Core/Inc/helper_functions.h **** {
  98              		.loc 2 60 14 is_stmt 1 view .LVU11
  99              	.LBB55:
  67:Core/Inc/helper_functions.h ****     {
  68:Core/Inc/helper_functions.h ****         return 1.0f;
  69:Core/Inc/helper_functions.h ****     }
  70:Core/Inc/helper_functions.h ****     else
  71:Core/Inc/helper_functions.h ****     {
  72:Core/Inc/helper_functions.h ****         return x * (27.0f + x * x) / (27.0f + 9.0f * x * x);
 100              		.loc 2 72 9 view .LVU12
 101              		.loc 2 72 27 is_stmt 0 view .LVU13
ARM GAS  /var/folders/0z/tsy30v1j4xl4_7kw94k978ww0000gn/T//ccDRKxZB.s 			page 7


 102 0042 F3EE0B6A 		vmov.f32	s13, #2.7e+1
 103              		.loc 2 72 52 view .LVU14
 104 0046 F2EE025A 		vmov.f32	s11, #9.0e+0
 105 004a 67EE255A 		vmul.f32	s11, s14, s11
 106              		.loc 2 72 27 view .LVU15
 107 004e B0EE665A 		vmov.f32	s10, s13
 108 0052 A7EE075A 		vfma.f32	s10, s14, s14
 109              		.loc 2 72 45 view .LVU16
 110 0056 E7EE256A 		vfma.f32	s13, s14, s11
 111              		.loc 2 72 18 view .LVU17
 112 005a 27EE057A 		vmul.f32	s14, s14, s10
 113              	.LVL3:
 114              		.loc 2 72 45 view .LVU18
 115 005e B0EE666A 		vmov.f32	s12, s13
 116              	.LVL4:
 117              		.loc 2 72 36 view .LVU19
 118 0062 C7EE066A 		vdiv.f32	s13, s14, s12
 119              	.LBE55:
 120              	.LBE54:
 121              	.LBE53:
 122              	.LBE52:
 123              		.loc 1 165 35 view .LVU20
 124 0066 26EE8A7A 		vmul.f32	s14, s13, s20
 125              		.loc 1 165 13 view .LVU21
 126 006a BDEEC77A 		vcvt.s32.f32	s14, s14
 127 006e 17EE103A 		vmov	r3, s14	@ int
 128 0072 1AB2     		sxth	r2, r3
 129              	.L3:
 130              	.LVL5:
 162:Core/Src/audio.c **** 
 131              		.loc 1 162 3 is_stmt 1 view .LVU22
 132              	.LBB60:
 133              	.LBI60:
  60:Core/Inc/helper_functions.h **** {
 134              		.loc 2 60 14 view .LVU23
 135              	.LBB61:
  62:Core/Inc/helper_functions.h ****     {
 136              		.loc 2 62 5 view .LVU24
  62:Core/Inc/helper_functions.h ****     {
 137              		.loc 2 62 8 is_stmt 0 view .LVU25
 138 0074 B8EE087A 		vmov.f32	s14, #-3.0e+0
 139 0078 F4EEC77A 		vcmpe.f32	s15, s14
 140 007c F1EE10FA 		vmrs	APSR_nzcv, FPSCR
 141 0080 00F1C680 		bmi	.L9
 142              	.L16:
  66:Core/Inc/helper_functions.h ****     {
 143              		.loc 2 66 10 is_stmt 1 view .LVU26
  66:Core/Inc/helper_functions.h ****     {
 144              		.loc 2 66 13 is_stmt 0 view .LVU27
 145 0084 B0EE087A 		vmov.f32	s14, #3.0e+0
 146 0088 F4EEC77A 		vcmpe.f32	s15, s14
 147 008c F1EE10FA 		vmrs	APSR_nzcv, FPSCR
 148 0090 00F3CE80 		bgt	.L10
 149              	.LVL6:
 150              	.LBB62:
 151              	.LBI62:
  60:Core/Inc/helper_functions.h **** {
ARM GAS  /var/folders/0z/tsy30v1j4xl4_7kw94k978ww0000gn/T//ccDRKxZB.s 			page 8


 152              		.loc 2 60 14 is_stmt 1 view .LVU28
 153              	.LBB63:
 154              		.loc 2 72 9 view .LVU29
 155              		.loc 2 72 27 is_stmt 0 view .LVU30
 156 0094 B3EE0B7A 		vmov.f32	s14, #2.7e+1
 157              		.loc 2 72 52 view .LVU31
 158 0098 B2EE026A 		vmov.f32	s12, #9.0e+0
 159 009c 27EE866A 		vmul.f32	s12, s15, s12
 160              		.loc 2 72 27 view .LVU32
 161 00a0 F0EE475A 		vmov.f32	s11, s14
 162 00a4 E7EEA75A 		vfma.f32	s11, s15, s15
 163              		.loc 2 72 45 view .LVU33
 164 00a8 A7EE867A 		vfma.f32	s14, s15, s12
 165              		.loc 2 72 18 view .LVU34
 166 00ac 67EEA57A 		vmul.f32	s15, s15, s11
 167              	.LVL7:
 168              		.loc 2 72 45 view .LVU35
 169 00b0 F0EE476A 		vmov.f32	s13, s14
 170              	.LVL8:
 171              		.loc 2 72 36 view .LVU36
 172 00b4 87EEA67A 		vdiv.f32	s14, s15, s13
 173              	.LBE63:
 174              	.LBE62:
 175              	.LBE61:
 176              	.LBE60:
 166:Core/Src/audio.c **** 		valueR = ((int16_t) ((32767.0f) * sampleR));
 177              		.loc 1 166 35 view .LVU37
 178 00b8 67EE0A7A 		vmul.f32	s15, s14, s20
 179              		.loc 1 166 13 view .LVU38
 180 00bc FDEEE77A 		vcvt.s32.f32	s15, s15
 181 00c0 17EE903A 		vmov	r3, s15	@ int
 182 00c4 1BB2     		sxth	r3, r3
 183              	.L4:
 184              	.LVL9:
 165:Core/Src/audio.c **** 		valueR = ((int16_t) ((32767.0f) * sampleR));
 185              		.loc 1 165 3 is_stmt 1 view .LVU39
 186              		.loc 1 166 3 view .LVU40
 167:Core/Src/audio.c **** 
 168:Core/Src/audio.c **** 		/*************** Output to audio buffer *****************/
 169:Core/Src/audio.c **** 		output[i<<1] = valueL ;			// LEFT channel
 187              		.loc 1 169 3 view .LVU41
 188              		.loc 1 169 16 is_stmt 0 view .LVU42
 189 00c6 28F82420 		strh	r2, [r8, r4, lsl #2]	@ movhi
 170:Core/Src/audio.c **** 	    output[(i<<1) + 1] = valueR;	// RIGHT channel
 190              		.loc 1 170 6 is_stmt 1 view .LVU43
 191              		.loc 1 170 25 is_stmt 0 view .LVU44
 192 00ca 2BF82430 		strh	r3, [fp, r4, lsl #2]	@ movhi
 113:Core/Src/audio.c **** 	{
 193              		.loc 1 113 28 is_stmt 1 view .LVU45
 194 00ce 0134     		adds	r4, r4, #1
 195              	.LVL10:
 113:Core/Src/audio.c **** 	{
 196              		.loc 1 113 16 view .LVU46
 197 00d0 402C     		cmp	r4, #64
 198 00d2 00F0A680 		beq	.L14
 199              	.LVL11:
 200              	.L5:
ARM GAS  /var/folders/0z/tsy30v1j4xl4_7kw94k978ww0000gn/T//ccDRKxZB.s 			page 9


 116:Core/Src/audio.c **** 		
 201              		.loc 1 116 3 view .LVU47
 116:Core/Src/audio.c **** 		
 202              		.loc 1 116 12 is_stmt 0 view .LVU48
 203 00d6 614B     		ldr	r3, .L17+36
 204 00d8 1D78     		ldrb	r5, [r3]	@ zero_extendqisi2
 205 00da 07EB8503 		add	r3, r7, r5, lsl #2
 206 00de 93ED008A 		vldr.32	s16, [r3]
 119:Core/Src/audio.c **** 		OpSetFreq(&osc2, f0);
 207              		.loc 1 119 3 is_stmt 1 view .LVU49
 208              	.LVL12:
 209              	.LBB67:
 210              	.LBI48:
  91:Core/Src/audio.c **** {
 211              		.loc 1 91 6 view .LVU50
 212              	.LBB50:
  93:Core/Src/audio.c **** }
 213              		.loc 1 93 2 view .LVU51
  93:Core/Src/audio.c **** }
 214              		.loc 1 93 11 is_stmt 0 view .LVU52
 215 00e2 5F4B     		ldr	r3, .L17+40
  93:Core/Src/audio.c **** }
 216              		.loc 1 93 16 view .LVU53
 217 00e4 68EE287A 		vmul.f32	s15, s16, s17
 218              	.LBE50:
 219              	.LBE67:
 121:Core/Src/audio.c **** 		OpSetFreq(&osc4, f0 + 0.5);
 220              		.loc 1 121 22 view .LVU54
 221 00e8 18EE100A 		vmov	r0, s16
 222              	.LBB68:
 223              	.LBB51:
  93:Core/Src/audio.c **** }
 224              		.loc 1 93 11 view .LVU55
 225 00ec C3ED017A 		vstr.32	s15, [r3, #4]
 226              	.LVL13:
  93:Core/Src/audio.c **** }
 227              		.loc 1 93 11 view .LVU56
 228              	.LBE51:
 229              	.LBE68:
 120:Core/Src/audio.c **** 		OpSetFreq(&osc3, f0-0.2);
 230              		.loc 1 120 3 is_stmt 1 view .LVU57
 231              	.LBB69:
 232              	.LBI69:
  91:Core/Src/audio.c **** {
 233              		.loc 1 91 6 view .LVU58
 234              	.LBB70:
  93:Core/Src/audio.c **** }
 235              		.loc 1 93 2 view .LVU59
  93:Core/Src/audio.c **** }
 236              		.loc 1 93 11 is_stmt 0 view .LVU60
 237 00f0 5C4B     		ldr	r3, .L17+44
 238 00f2 C3ED017A 		vstr.32	s15, [r3, #4]
 239              	.LVL14:
  93:Core/Src/audio.c **** }
 240              		.loc 1 93 11 view .LVU61
 241              	.LBE70:
 242              	.LBE69:
ARM GAS  /var/folders/0z/tsy30v1j4xl4_7kw94k978ww0000gn/T//ccDRKxZB.s 			page 10


 121:Core/Src/audio.c **** 		OpSetFreq(&osc4, f0 + 0.5);
 243              		.loc 1 121 3 is_stmt 1 view .LVU62
 244              	.LBB71:
 245              	.LBI71:
  91:Core/Src/audio.c **** {
 246              		.loc 1 91 6 view .LVU63
 247              	.LBB72:
  93:Core/Src/audio.c **** }
 248              		.loc 1 93 2 view .LVU64
 249              	.LBE72:
 250              	.LBE71:
 121:Core/Src/audio.c **** 		OpSetFreq(&osc4, f0 + 0.5);
 251              		.loc 1 121 22 is_stmt 0 view .LVU65
 252 00f6 FFF7FEFF 		bl	__aeabi_f2d
 253              	.LVL15:
 254 00fa 4FA3     		adr	r3, .L17
 255 00fc D3E90023 		ldrd	r2, [r3]
 256 0100 FFF7FEFF 		bl	__aeabi_dsub
 257              	.LVL16:
 121:Core/Src/audio.c **** 		OpSetFreq(&osc4, f0 + 0.5);
 258              		.loc 1 121 3 view .LVU66
 259 0104 FFF7FEFF 		bl	__aeabi_d2f
 260              	.LVL17:
 261              	.LBB77:
 262              	.LBB73:
  93:Core/Src/audio.c **** }
 263              		.loc 1 93 16 view .LVU67
 264 0108 07EE900A 		vmov	s15, r0
 265              	.LBE73:
 266              	.LBE77:
 122:Core/Src/audio.c **** 		
 267              		.loc 1 122 3 view .LVU68
 268 010c B6EE007A 		vmov.f32	s14, #5.0e-1
 124:Core/Src/audio.c **** 		OpSetFreq(&sub_osc, f_sub);
 269              		.loc 1 124 16 view .LVU69
 270 0110 0C2D     		cmp	r5, #12
 271              	.LBB78:
 272              	.LBB74:
  93:Core/Src/audio.c **** }
 273              		.loc 1 93 16 view .LVU70
 274 0112 67EEA87A 		vmul.f32	s15, s15, s17
 275              	.LBE74:
 276              	.LBE78:
 122:Core/Src/audio.c **** 		
 277              		.loc 1 122 3 view .LVU71
 278 0116 38EE078A 		vadd.f32	s16, s16, s14
 279              	.LVL18:
 280              	.LBB79:
 281              	.LBB75:
  93:Core/Src/audio.c **** }
 282              		.loc 1 93 11 view .LVU72
 283 011a 534B     		ldr	r3, .L17+48
 284              	.LBE75:
 285              	.LBE79:
 126:Core/Src/audio.c **** 		// sample = 0*osc_polyblepSaw(&osc1) + osc_polyblepRect(&sub_osc);
 286              		.loc 1 126 17 view .LVU73
 287 011c 5048     		ldr	r0, .L17+40
ARM GAS  /var/folders/0z/tsy30v1j4xl4_7kw94k978ww0000gn/T//ccDRKxZB.s 			page 11


 288              	.LBB80:
 289              	.LBB76:
  93:Core/Src/audio.c **** }
 290              		.loc 1 93 11 view .LVU74
 291 011e C3ED017A 		vstr.32	s15, [r3, #4]
 292              	.LVL19:
  93:Core/Src/audio.c **** }
 293              		.loc 1 93 11 view .LVU75
 294              	.LBE76:
 295              	.LBE80:
 122:Core/Src/audio.c **** 		
 296              		.loc 1 122 3 is_stmt 1 view .LVU76
 297              	.LBB81:
 298              	.LBI81:
  91:Core/Src/audio.c **** {
 299              		.loc 1 91 6 view .LVU77
 300              	.LBB82:
  93:Core/Src/audio.c **** }
 301              		.loc 1 93 2 view .LVU78
 302              	.LBE82:
 303              	.LBE81:
 124:Core/Src/audio.c **** 		OpSetFreq(&sub_osc, f_sub);
 304              		.loc 1 124 15 is_stmt 0 view .LVU79
 305 0122 84BF     		itt	hi
 306 0124 07EB8505 		addhi	r5, r7, r5, lsl #2
 307              	.LVL20:
 308              	.LBB85:
 309              	.LBB86:
  93:Core/Src/audio.c **** }
 310              		.loc 1 93 16 view .LVU80
 311 0128 55ED0C7A 		vldrhi.32	s15, [r5, #-48]
 312              	.LBE86:
 313              	.LBE85:
 314              	.LBB90:
 315              	.LBB83:
  93:Core/Src/audio.c **** }
 316              		.loc 1 93 11 view .LVU81
 317 012c 4F4B     		ldr	r3, .L17+52
  93:Core/Src/audio.c **** }
 318              		.loc 1 93 16 view .LVU82
 319 012e 28EE288A 		vmul.f32	s16, s16, s17
 320              	.LBE83:
 321              	.LBE90:
 322              	.LBB91:
 323              	.LBB87:
 324 0132 88BF     		it	hi
 325 0134 67EEA87A 		vmulhi.f32	s15, s15, s17
 326              	.LBE87:
 327              	.LBE91:
 328              	.LBB92:
 329              	.LBB84:
  93:Core/Src/audio.c **** }
 330              		.loc 1 93 11 view .LVU83
 331 0138 83ED018A 		vstr.32	s16, [r3, #4]
 332              	.LVL21:
  93:Core/Src/audio.c **** }
 333              		.loc 1 93 11 view .LVU84
ARM GAS  /var/folders/0z/tsy30v1j4xl4_7kw94k978ww0000gn/T//ccDRKxZB.s 			page 12


 334              	.LBE84:
 335              	.LBE92:
 124:Core/Src/audio.c **** 		OpSetFreq(&sub_osc, f_sub);
 336              		.loc 1 124 3 is_stmt 1 view .LVU85
 125:Core/Src/audio.c **** 		sample = 0.5*(osc_polyblepSaw(&osc1) + osc_polyblepSaw(&osc2) + osc_polyblepSaw(&osc3) + osc_poly
 337              		.loc 1 125 3 view .LVU86
 338              	.LBB93:
 339              	.LBI85:
  91:Core/Src/audio.c **** {
 340              		.loc 1 91 6 view .LVU87
 341              	.LBB88:
  93:Core/Src/audio.c **** }
 342              		.loc 1 93 2 view .LVU88
  93:Core/Src/audio.c **** }
 343              		.loc 1 93 11 is_stmt 0 view .LVU89
 344 013c 4C4B     		ldr	r3, .L17+56
 345              	.LBE88:
 346              	.LBE93:
 347 013e 98BF     		it	ls
 348 0140 F0EE6A7A 		vmovls.f32	s15, s21
 349              	.LBB94:
 350              	.LBB89:
 351 0144 C3ED017A 		vstr.32	s15, [r3, #4]
 352              	.LVL22:
  93:Core/Src/audio.c **** }
 353              		.loc 1 93 11 view .LVU90
 354              	.LBE89:
 355              	.LBE94:
 126:Core/Src/audio.c **** 		// sample = 0*osc_polyblepSaw(&osc1) + osc_polyblepRect(&sub_osc);
 356              		.loc 1 126 3 is_stmt 1 view .LVU91
 126:Core/Src/audio.c **** 		// sample = 0*osc_polyblepSaw(&osc1) + osc_polyblepRect(&sub_osc);
 357              		.loc 1 126 17 is_stmt 0 view .LVU92
 358 0148 FFF7FEFF 		bl	osc_polyblepSaw
 359              	.LVL23:
 126:Core/Src/audio.c **** 		// sample = 0*osc_polyblepSaw(&osc1) + osc_polyblepRect(&sub_osc);
 360              		.loc 1 126 42 view .LVU93
 361 014c 4548     		ldr	r0, .L17+44
 126:Core/Src/audio.c **** 		// sample = 0*osc_polyblepSaw(&osc1) + osc_polyblepRect(&sub_osc);
 362              		.loc 1 126 17 view .LVU94
 363 014e B0EE408A 		vmov.f32	s16, s0
 126:Core/Src/audio.c **** 		// sample = 0*osc_polyblepSaw(&osc1) + osc_polyblepRect(&sub_osc);
 364              		.loc 1 126 42 view .LVU95
 365 0152 FFF7FEFF 		bl	osc_polyblepSaw
 366              	.LVL24:
 126:Core/Src/audio.c **** 		// sample = 0*osc_polyblepSaw(&osc1) + osc_polyblepRect(&sub_osc);
 367              		.loc 1 126 67 view .LVU96
 368 0156 4448     		ldr	r0, .L17+48
 126:Core/Src/audio.c **** 		// sample = 0*osc_polyblepSaw(&osc1) + osc_polyblepRect(&sub_osc);
 369              		.loc 1 126 40 view .LVU97
 370 0158 38EE008A 		vadd.f32	s16, s16, s0
 126:Core/Src/audio.c **** 		// sample = 0*osc_polyblepSaw(&osc1) + osc_polyblepRect(&sub_osc);
 371              		.loc 1 126 67 view .LVU98
 372 015c FFF7FEFF 		bl	osc_polyblepSaw
 373              	.LVL25:
 126:Core/Src/audio.c **** 		// sample = 0*osc_polyblepSaw(&osc1) + osc_polyblepRect(&sub_osc);
 374              		.loc 1 126 92 view .LVU99
 375 0160 4248     		ldr	r0, .L17+52
ARM GAS  /var/folders/0z/tsy30v1j4xl4_7kw94k978ww0000gn/T//ccDRKxZB.s 			page 13


 126:Core/Src/audio.c **** 		// sample = 0*osc_polyblepSaw(&osc1) + osc_polyblepRect(&sub_osc);
 376              		.loc 1 126 65 view .LVU100
 377 0162 38EE008A 		vadd.f32	s16, s16, s0
 126:Core/Src/audio.c **** 		// sample = 0*osc_polyblepSaw(&osc1) + osc_polyblepRect(&sub_osc);
 378              		.loc 1 126 92 view .LVU101
 379 0166 FFF7FEFF 		bl	osc_polyblepSaw
 380              	.LVL26:
 126:Core/Src/audio.c **** 		// sample = 0*osc_polyblepSaw(&osc1) + osc_polyblepRect(&sub_osc);
 381              		.loc 1 126 116 view .LVU102
 382 016a 4148     		ldr	r0, .L17+56
 126:Core/Src/audio.c **** 		// sample = 0*osc_polyblepSaw(&osc1) + osc_polyblepRect(&sub_osc);
 383              		.loc 1 126 90 view .LVU103
 384 016c 38EE008A 		vadd.f32	s16, s16, s0
 126:Core/Src/audio.c **** 		// sample = 0*osc_polyblepSaw(&osc1) + osc_polyblepRect(&sub_osc);
 385              		.loc 1 126 116 view .LVU104
 386 0170 FFF7FEFF 		bl	osc_polyblepRect
 387              	.LVL27:
 136:Core/Src/audio.c **** 		Moog_filter.cutoff =clip(1000.f * filt_env + NYQUIST * pot1_norm * pot1_norm * pot1_norm * pot1_n
 388              		.loc 1 136 14 view .LVU105
 389 0174 3F48     		ldr	r0, .L17+60
 126:Core/Src/audio.c **** 		// sample = 0*osc_polyblepSaw(&osc1) + osc_polyblepRect(&sub_osc);
 390              		.loc 1 126 116 view .LVU106
 391 0176 B0EE40BA 		vmov.f32	s22, s0
 392              	.LVL28:
 136:Core/Src/audio.c **** 		Moog_filter.cutoff =clip(1000.f * filt_env + NYQUIST * pot1_norm * pot1_norm * pot1_norm * pot1_n
 393              		.loc 1 136 3 is_stmt 1 view .LVU107
 136:Core/Src/audio.c **** 		Moog_filter.cutoff =clip(1000.f * filt_env + NYQUIST * pot1_norm * pot1_norm * pot1_norm * pot1_n
 394              		.loc 1 136 14 is_stmt 0 view .LVU108
 395 017a FFF7FEFF 		bl	ADSR_compute
 396              	.LVL29:
 137:Core/Src/audio.c **** 		Moog_filter.k = 4.5f * pot2_norm;
 397              		.loc 1 137 3 is_stmt 1 view .LVU109
 137:Core/Src/audio.c **** 		Moog_filter.k = 4.5f * pot2_norm;
 398              		.loc 1 137 56 is_stmt 0 view .LVU110
 399 017e 9AED007A 		vldr.32	s14, [r10]
 137:Core/Src/audio.c **** 		Moog_filter.k = 4.5f * pot2_norm;
 400              		.loc 1 137 23 view .LVU111
 401 0182 9FED331A 		vldr.32	s2, .L17+24
 137:Core/Src/audio.c **** 		Moog_filter.k = 4.5f * pot2_norm;
 402              		.loc 1 137 56 view .LVU112
 403 0186 67EE297A 		vmul.f32	s15, s14, s19
 137:Core/Src/audio.c **** 		Moog_filter.k = 4.5f * pot2_norm;
 404              		.loc 1 137 23 view .LVU113
 405 018a F3EE040A 		vmov.f32	s1, #2.0e+1
 137:Core/Src/audio.c **** 		Moog_filter.k = 4.5f * pot2_norm;
 406              		.loc 1 137 68 view .LVU114
 407 018e 67EE877A 		vmul.f32	s15, s15, s14
 137:Core/Src/audio.c **** 		Moog_filter.k = 4.5f * pot2_norm;
 408              		.loc 1 137 80 view .LVU115
 409 0192 67EE877A 		vmul.f32	s15, s15, s14
 137:Core/Src/audio.c **** 		Moog_filter.k = 4.5f * pot2_norm;
 410              		.loc 1 137 92 view .LVU116
 411 0196 67EE877A 		vmul.f32	s15, s15, s14
 137:Core/Src/audio.c **** 		Moog_filter.k = 4.5f * pot2_norm;
 412              		.loc 1 137 23 view .LVU117
 413 019a E0EE097A 		vfma.f32	s15, s0, s18
 414 019e B0EE670A 		vmov.f32	s0, s15
ARM GAS  /var/folders/0z/tsy30v1j4xl4_7kw94k978ww0000gn/T//ccDRKxZB.s 			page 14


 415 01a2 FFF7FEFF 		bl	clip
 416              	.LVL30:
 138:Core/Src/audio.c **** 
 417              		.loc 1 138 24 view .LVU118
 418 01a6 D9ED007A 		vldr.32	s15, [r9]
 137:Core/Src/audio.c **** 		Moog_filter.k = 4.5f * pot2_norm;
 419              		.loc 1 137 22 view .LVU119
 420 01aa 86ED000A 		vstr.32	s0, [r6]
 138:Core/Src/audio.c **** 
 421              		.loc 1 138 3 is_stmt 1 view .LVU120
 138:Core/Src/audio.c **** 
 422              		.loc 1 138 24 is_stmt 0 view .LVU121
 423 01ae B1EE027A 		vmov.f32	s14, #4.5e+0
 126:Core/Src/audio.c **** 		// sample = 0*osc_polyblepSaw(&osc1) + osc_polyblepRect(&sub_osc);
 424              		.loc 1 126 114 view .LVU122
 425 01b2 38EE0B0A 		vadd.f32	s0, s16, s22
 138:Core/Src/audio.c **** 
 426              		.loc 1 138 24 view .LVU123
 427 01b6 67EE877A 		vmul.f32	s15, s15, s14
 140:Core/Src/audio.c **** 
 428              		.loc 1 140 12 view .LVU124
 429 01ba B6EE007A 		vmov.f32	s14, #5.0e-1
 430 01be 20EE070A 		vmul.f32	s0, s0, s14
 431              	.LVL31:
 140:Core/Src/audio.c **** 
 432              		.loc 1 140 12 view .LVU125
 433 01c2 2048     		ldr	r0, .L17+12
 138:Core/Src/audio.c **** 
 434              		.loc 1 138 17 view .LVU126
 435 01c4 C6ED057A 		vstr.32	s15, [r6, #20]
 140:Core/Src/audio.c **** 
 436              		.loc 1 140 3 is_stmt 1 view .LVU127
 140:Core/Src/audio.c **** 
 437              		.loc 1 140 12 is_stmt 0 view .LVU128
 438 01c8 FFF7FEFF 		bl	MoogLP_compute
 439              	.LVL32:
 143:Core/Src/audio.c **** 		sample *= amp_env;
 440              		.loc 1 143 13 view .LVU129
 441 01cc 2A48     		ldr	r0, .L17+64
 140:Core/Src/audio.c **** 
 442              		.loc 1 140 12 view .LVU130
 443 01ce B0EE408A 		vmov.f32	s16, s0
 444              	.LVL33:
 143:Core/Src/audio.c **** 		sample *= amp_env;
 445              		.loc 1 143 3 is_stmt 1 view .LVU131
 143:Core/Src/audio.c **** 		sample *= amp_env;
 446              		.loc 1 143 13 is_stmt 0 view .LVU132
 447 01d2 FFF7FEFF 		bl	ADSR_compute
 448              	.LVL34:
 144:Core/Src/audio.c **** 
 449              		.loc 1 144 3 is_stmt 1 view .LVU133
 154:Core/Src/audio.c **** 		sampleL = delayLOut;
 450              		.loc 1 154 3 view .LVU134
 451 01d6 2949     		ldr	r1, .L17+68
 452 01d8 2948     		ldr	r0, .L17+72
 453 01da 28EE000A 		vmul.f32	s0, s16, s0
 454              	.LVL35:
ARM GAS  /var/folders/0z/tsy30v1j4xl4_7kw94k978ww0000gn/T//ccDRKxZB.s 			page 15


 154:Core/Src/audio.c **** 		sampleL = delayLOut;
 455              		.loc 1 154 3 is_stmt 0 view .LVU135
 456 01de FFF7FEFF 		bl	pingpongDelay_compute
 457              	.LVL36:
 155:Core/Src/audio.c **** 		sampleR = delayROut;
 458              		.loc 1 155 3 is_stmt 1 view .LVU136
 155:Core/Src/audio.c **** 		sampleR = delayROut;
 459              		.loc 1 155 11 is_stmt 0 view .LVU137
 460 01e2 274B     		ldr	r3, .L17+72
 461 01e4 93ED007A 		vldr.32	s14, [r3]
 462              	.LVL37:
 156:Core/Src/audio.c **** 		//sampleL = sample;
 463              		.loc 1 156 3 is_stmt 1 view .LVU138
 156:Core/Src/audio.c **** 		//sampleL = sample;
 464              		.loc 1 156 11 is_stmt 0 view .LVU139
 465 01e8 244B     		ldr	r3, .L17+68
 466              	.LBB95:
 467              	.LBB56:
  62:Core/Inc/helper_functions.h ****     {
 468              		.loc 2 62 8 view .LVU140
 469 01ea F8EE086A 		vmov.f32	s13, #-3.0e+0
 470 01ee B4EEE67A 		vcmpe.f32	s14, s13
 471 01f2 F1EE10FA 		vmrs	APSR_nzcv, FPSCR
 472              	.LBE56:
 473              	.LBE95:
 156:Core/Src/audio.c **** 		//sampleL = sample;
 474              		.loc 1 156 11 view .LVU141
 475 01f6 D3ED007A 		vldr.32	s15, [r3]
 476              	.LVL38:
 161:Core/Src/audio.c **** 		sampleR = SoftClip(sampleR);
 477              		.loc 1 161 3 is_stmt 1 view .LVU142
 478              	.LBB96:
 479              	.LBI52:
  60:Core/Inc/helper_functions.h **** {
 480              		.loc 2 60 14 view .LVU143
 481              	.LBB57:
  62:Core/Inc/helper_functions.h ****     {
 482              		.loc 2 62 5 view .LVU144
  62:Core/Inc/helper_functions.h ****     {
 483              		.loc 2 62 8 is_stmt 0 view .LVU145
 484 01fa 7FF51AAF 		bpl	.L15
 485              	.LBE57:
 486              	.LBE96:
 487              	.LBB97:
 488              	.LBB64:
 489 01fe B8EE087A 		vmov.f32	s14, #-3.0e+0
 490              	.LVL39:
  62:Core/Inc/helper_functions.h ****     {
 491              		.loc 2 62 8 view .LVU146
 492 0202 F4EEC77A 		vcmpe.f32	s15, s14
 493 0206 F1EE10FA 		vmrs	APSR_nzcv, FPSCR
 494              	.LBE64:
 495              	.LBE97:
 496              	.LBB98:
 497              	.LBB58:
 498 020a 1E4A     		ldr	r2, .L17+76
 499              	.LVL40:
ARM GAS  /var/folders/0z/tsy30v1j4xl4_7kw94k978ww0000gn/T//ccDRKxZB.s 			page 16


  62:Core/Inc/helper_functions.h ****     {
 500              		.loc 2 62 8 view .LVU147
 501              	.LBE58:
 502              	.LBE98:
 162:Core/Src/audio.c **** 
 503              		.loc 1 162 3 is_stmt 1 view .LVU148
 504              	.LBB99:
  60:Core/Inc/helper_functions.h **** {
 505              		.loc 2 60 14 view .LVU149
 506              	.LBB65:
  62:Core/Inc/helper_functions.h ****     {
 507              		.loc 2 62 5 view .LVU150
  62:Core/Inc/helper_functions.h ****     {
 508              		.loc 2 62 8 is_stmt 0 view .LVU151
 509 020c 7FF53AAF 		bpl	.L16
 510              	.L9:
 511 0210 1C4B     		ldr	r3, .L17+76
 512              	.LVL41:
  62:Core/Inc/helper_functions.h ****     {
 513              		.loc 2 62 8 view .LVU152
 514              	.LBE65:
 515              	.LBE99:
 165:Core/Src/audio.c **** 		valueR = ((int16_t) ((32767.0f) * sampleR));
 516              		.loc 1 165 3 is_stmt 1 view .LVU153
 166:Core/Src/audio.c **** 
 517              		.loc 1 166 3 view .LVU154
 169:Core/Src/audio.c **** 	    output[(i<<1) + 1] = valueR;	// RIGHT channel
 518              		.loc 1 169 3 view .LVU155
 169:Core/Src/audio.c **** 	    output[(i<<1) + 1] = valueR;	// RIGHT channel
 519              		.loc 1 169 16 is_stmt 0 view .LVU156
 520 0212 28F82420 		strh	r2, [r8, r4, lsl #2]	@ movhi
 521              		.loc 1 170 6 is_stmt 1 view .LVU157
 522              		.loc 1 170 25 is_stmt 0 view .LVU158
 523 0216 2BF82430 		strh	r3, [fp, r4, lsl #2]	@ movhi
 113:Core/Src/audio.c **** 	{
 524              		.loc 1 113 28 is_stmt 1 view .LVU159
 525 021a 0134     		adds	r4, r4, #1
 526              	.LVL42:
 113:Core/Src/audio.c **** 	{
 527              		.loc 1 113 16 view .LVU160
 528 021c 402C     		cmp	r4, #64
 529 021e 7FF45AAF 		bne	.L5
 530              	.L14:
 171:Core/Src/audio.c **** 	}
 172:Core/Src/audio.c **** }
 531              		.loc 1 172 1 is_stmt 0 view .LVU161
 532 0222 BDEC088B 		vldm	sp!, {d8-d11}
 533              		.cfi_remember_state
 534              		.cfi_restore 86
 535              		.cfi_restore 87
 536              		.cfi_restore 84
 537              		.cfi_restore 85
 538              		.cfi_restore 82
 539              		.cfi_restore 83
 540              		.cfi_restore 80
 541              		.cfi_restore 81
 542              		.cfi_def_cfa_offset 40
ARM GAS  /var/folders/0z/tsy30v1j4xl4_7kw94k978ww0000gn/T//ccDRKxZB.s 			page 17


 543              		.loc 1 172 1 view .LVU162
 544 0226 BDE8F88F 		pop	{r3, r4, r5, r6, r7, r8, r9, r10, fp, pc}
 545              	.LVL43:
 546              	.L8:
 547              		.cfi_restore_state
 548              	.LBB100:
 549              	.LBB59:
 550              		.loc 1 172 1 view .LVU163
 551 022a 47F6FF72 		movw	r2, #32767
 552 022e 21E7     		b	.L3
 553              	.LVL44:
 554              	.L10:
 555              		.loc 1 172 1 view .LVU164
 556              	.LBE59:
 557              	.LBE100:
 558              	.LBB101:
 559              	.LBB66:
 560 0230 47F6FF73 		movw	r3, #32767
 561 0234 47E7     		b	.L4
 562              	.L18:
 563 0236 00BF     		.align	3
 564              	.L17:
 565 0238 9A999999 		.word	-1717986918
 566 023c 9999C93F 		.word	1070176665
 567 0240 00000000 		.word	.LANCHOR0
 568 0244 00000000 		.word	Moog_filter
 569 0248 8D3B803F 		.word	1065368461
 570 024c EF0C0341 		.word	1090718959
 571 0250 0044AC46 		.word	1185694720
 572 0254 00007A44 		.word	1148846080
 573 0258 00FEFF46 		.word	1191181824
 574 025c 00000000 		.word	currentPitch
 575 0260 00000000 		.word	osc1
 576 0264 00000000 		.word	osc2
 577 0268 00000000 		.word	osc3
 578 026c 00000000 		.word	osc4
 579 0270 00000000 		.word	sub_osc
 580 0274 00000000 		.word	adsr_filt
 581 0278 00000000 		.word	adsr_amp
 582 027c 00000000 		.word	.LANCHOR1
 583 0280 00000000 		.word	.LANCHOR2
 584 0284 0180FFFF 		.word	-32767
 585 0288 00000000 		.word	pot1_norm
 586 028c 00000000 		.word	pot2_norm
 587              	.LBE66:
 588              	.LBE101:
 589              		.cfi_endproc
 590              	.LFE248:
 592              		.section	.text.AUDIO_Init,"ax",%progbits
 593              		.align	1
 594              		.p2align 2,,3
 595              		.global	AUDIO_Init
 596              		.syntax unified
 597              		.thumb
 598              		.thumb_func
 600              	AUDIO_Init:
 601              	.LFB239:
ARM GAS  /var/folders/0z/tsy30v1j4xl4_7kw94k978ww0000gn/T//ccDRKxZB.s 			page 18


  64:Core/Src/audio.c ****     BSP_AUDIO_OUT_Init(OUTPUT_DEVICE_HEADPHONE, INITIAL_VOLUME, FS);
 602              		.loc 1 64 1 is_stmt 1 view -0
 603              		.cfi_startproc
 604              		@ args = 0, pretend = 0, frame = 0
 605              		@ frame_needed = 0, uses_anonymous_args = 0
  65:Core/Src/audio.c **** 
 606              		.loc 1 65 5 view .LVU166
  64:Core/Src/audio.c ****     BSP_AUDIO_OUT_Init(OUTPUT_DEVICE_HEADPHONE, INITIAL_VOLUME, FS);
 607              		.loc 1 64 1 is_stmt 0 view .LVU167
 608 0000 08B5     		push	{r3, lr}
 609              		.cfi_def_cfa_offset 8
 610              		.cfi_offset 3, -8
 611              		.cfi_offset 14, -4
  65:Core/Src/audio.c **** 
 612              		.loc 1 65 5 view .LVU168
 613 0002 4AF64442 		movw	r2, #44100
  64:Core/Src/audio.c ****     BSP_AUDIO_OUT_Init(OUTPUT_DEVICE_HEADPHONE, INITIAL_VOLUME, FS);
 614              		.loc 1 64 1 view .LVU169
 615 0006 2DED048B 		vpush.64	{d8, d9}
 616              		.cfi_def_cfa_offset 24
 617              		.cfi_offset 80, -24
 618              		.cfi_offset 81, -20
 619              		.cfi_offset 82, -16
 620              		.cfi_offset 83, -12
  65:Core/Src/audio.c **** 
 621              		.loc 1 65 5 view .LVU170
 622 000a 5521     		movs	r1, #85
 623 000c 0220     		movs	r0, #2
 624 000e FFF7FEFF 		bl	BSP_AUDIO_OUT_Init
 625              	.LVL45:
  72:Core/Src/audio.c **** 
 626              		.loc 1 72 2 is_stmt 1 view .LVU171
  76:Core/Src/audio.c **** 	osc_init(&osc2, 0.5, 440, 0, 2, 0.5);
 627              		.loc 1 76 2 is_stmt 0 view .LVU172
 628 0012 9FED2F8A 		vldr.32	s16, .L21
 629 0016 9FED2F9A 		vldr.32	s18, .L21+4
  72:Core/Src/audio.c **** 
 630              		.loc 1 72 2 view .LVU173
 631 001a 2F48     		ldr	r0, .L21+8
  77:Core/Src/audio.c **** 	osc_init(&osc3, 0.5, 1000, 0, 0, 0.5);
 632              		.loc 1 77 2 view .LVU174
 633 001c DFED2F8A 		vldr.32	s17, .L21+12
  72:Core/Src/audio.c **** 
 634              		.loc 1 72 2 view .LVU175
 635 0020 4FF40071 		mov	r1, #512
 636 0024 FFF7FEFF 		bl	BSP_AUDIO_OUT_Play
 637              	.LVL46:
  76:Core/Src/audio.c **** 	osc_init(&osc2, 0.5, 440, 0, 2, 0.5);
 638              		.loc 1 76 2 is_stmt 1 view .LVU176
 639 0028 B6EE002A 		vmov.f32	s4, #5.0e-1
 640 002c F0EE481A 		vmov.f32	s3, s16
 641 0030 B0EE481A 		vmov.f32	s2, s16
 642 0034 F0EE490A 		vmov.f32	s1, s18
 643 0038 B0EE420A 		vmov.f32	s0, s4
 644 003c 2848     		ldr	r0, .L21+16
 645 003e FFF7FEFF 		bl	osc_init
 646              	.LVL47:
ARM GAS  /var/folders/0z/tsy30v1j4xl4_7kw94k978ww0000gn/T//ccDRKxZB.s 			page 19


  77:Core/Src/audio.c **** 	osc_init(&osc3, 0.5, 1000, 0, 0, 0.5);
 647              		.loc 1 77 2 view .LVU177
 648 0042 B6EE002A 		vmov.f32	s4, #5.0e-1
 649 0046 B0EE481A 		vmov.f32	s2, s16
 650 004a F0EE680A 		vmov.f32	s1, s17
 651 004e B0EE420A 		vmov.f32	s0, s4
 652 0052 2448     		ldr	r0, .L21+20
 653 0054 F0EE001A 		vmov.f32	s3, #2.0e+0
 654 0058 FFF7FEFF 		bl	osc_init
 655              	.LVL48:
  78:Core/Src/audio.c **** 	osc_init(&osc4, 0.5, 440, 0, 0, 0.5);
 656              		.loc 1 78 2 view .LVU178
 657 005c B6EE002A 		vmov.f32	s4, #5.0e-1
 658 0060 F0EE481A 		vmov.f32	s3, s16
 659 0064 B0EE481A 		vmov.f32	s2, s16
 660 0068 F0EE490A 		vmov.f32	s1, s18
 661 006c B0EE420A 		vmov.f32	s0, s4
 662 0070 1D48     		ldr	r0, .L21+24
 663 0072 FFF7FEFF 		bl	osc_init
 664              	.LVL49:
  79:Core/Src/audio.c **** 	osc_init(&sub_osc, 0.5, 440, 0, 0, 0.5);
 665              		.loc 1 79 2 view .LVU179
 666 0076 B6EE002A 		vmov.f32	s4, #5.0e-1
 667 007a F0EE481A 		vmov.f32	s3, s16
 668 007e B0EE481A 		vmov.f32	s2, s16
 669 0082 F0EE680A 		vmov.f32	s1, s17
 670 0086 B0EE420A 		vmov.f32	s0, s4
 671 008a 1848     		ldr	r0, .L21+28
 672 008c FFF7FEFF 		bl	osc_init
 673              	.LVL50:
  80:Core/Src/audio.c **** 
 674              		.loc 1 80 2 view .LVU180
 675 0090 B6EE002A 		vmov.f32	s4, #5.0e-1
 676 0094 F0EE481A 		vmov.f32	s3, s16
 677 0098 B0EE481A 		vmov.f32	s2, s16
 678 009c F0EE680A 		vmov.f32	s1, s17
 679 00a0 B0EE420A 		vmov.f32	s0, s4
 680 00a4 1248     		ldr	r0, .L21+32
 681 00a6 FFF7FEFF 		bl	osc_init
 682              	.LVL51:
  83:Core/Src/audio.c **** 	ADSR_init(&adsr_filt);
 683              		.loc 1 83 2 view .LVU181
 684 00aa 1248     		ldr	r0, .L21+36
 685 00ac FFF7FEFF 		bl	ADSR_init
 686              	.LVL52:
  84:Core/Src/audio.c **** 	ADSR_init(&adsr_index);
 687              		.loc 1 84 2 view .LVU182
 688 00b0 1148     		ldr	r0, .L21+40
 689 00b2 FFF7FEFF 		bl	ADSR_init
 690              	.LVL53:
  85:Core/Src/audio.c **** 	MoogLP_init(&Moog_filter);
 691              		.loc 1 85 2 view .LVU183
 692 00b6 1148     		ldr	r0, .L21+44
 693 00b8 FFF7FEFF 		bl	ADSR_init
 694              	.LVL54:
  86:Core/Src/audio.c **** 	// flanger_init();
 695              		.loc 1 86 2 view .LVU184
ARM GAS  /var/folders/0z/tsy30v1j4xl4_7kw94k978ww0000gn/T//ccDRKxZB.s 			page 20


 696 00bc 1048     		ldr	r0, .L21+48
 697 00be FFF7FEFF 		bl	MoogLP_init
 698              	.LVL55:
  88:Core/Src/audio.c **** }
 699              		.loc 1 88 2 view .LVU185
  89:Core/Src/audio.c **** 
 700              		.loc 1 89 1 is_stmt 0 view .LVU186
 701 00c2 BDEC048B 		vldm	sp!, {d8-d9}
 702              		.cfi_restore 82
 703              		.cfi_restore 83
 704              		.cfi_restore 80
 705              		.cfi_restore 81
 706              		.cfi_def_cfa_offset 8
 707 00c6 BDE80840 		pop	{r3, lr}
 708              		.cfi_restore 14
 709              		.cfi_restore 3
 710              		.cfi_def_cfa_offset 0
  88:Core/Src/audio.c **** }
 711              		.loc 1 88 2 view .LVU187
 712 00ca FFF7FEBF 		b	Delay_init
 713              	.LVL56:
 714              	.L22:
 715 00ce 00BF     		.align	2
 716              	.L21:
 717 00d0 00000000 		.word	0
 718 00d4 00007A44 		.word	1148846080
 719 00d8 00000000 		.word	.LANCHOR3
 720 00dc 0000DC43 		.word	1138491392
 721 00e0 00000000 		.word	osc1
 722 00e4 00000000 		.word	osc2
 723 00e8 00000000 		.word	osc3
 724 00ec 00000000 		.word	osc4
 725 00f0 00000000 		.word	sub_osc
 726 00f4 00000000 		.word	adsr_amp
 727 00f8 00000000 		.word	adsr_filt
 728 00fc 00000000 		.word	adsr_index
 729 0100 00000000 		.word	Moog_filter
 730              		.cfi_endproc
 731              	.LFE239:
 733              		.section	.text.OpSetFreq,"ax",%progbits
 734              		.align	1
 735              		.p2align 2,,3
 736              		.global	OpSetFreq
 737              		.syntax unified
 738              		.thumb
 739              		.thumb_func
 741              	OpSetFreq:
 742              	.LVL57:
 743              	.LFB240:
  92:Core/Src/audio.c **** 	op->freq = A0 * f;
 744              		.loc 1 92 1 is_stmt 1 view -0
 745              		.cfi_startproc
 746              		@ args = 0, pretend = 0, frame = 0
 747              		@ frame_needed = 0, uses_anonymous_args = 0
 748              		@ link register save eliminated.
  93:Core/Src/audio.c **** }
 749              		.loc 1 93 2 view .LVU189
ARM GAS  /var/folders/0z/tsy30v1j4xl4_7kw94k978ww0000gn/T//ccDRKxZB.s 			page 21


  93:Core/Src/audio.c **** }
 750              		.loc 1 93 16 is_stmt 0 view .LVU190
 751 0000 DFED037A 		vldr.32	s15, .L24
 752 0004 20EE270A 		vmul.f32	s0, s0, s15
 753              	.LVL58:
  93:Core/Src/audio.c **** }
 754              		.loc 1 93 11 view .LVU191
 755 0008 80ED010A 		vstr.32	s0, [r0, #4]
  94:Core/Src/audio.c **** 
 756              		.loc 1 94 1 view .LVU192
 757 000c 7047     		bx	lr
 758              	.L25:
 759 000e 00BF     		.align	2
 760              	.L24:
 761 0010 8D3B803F 		.word	1065368461
 762              		.cfi_endproc
 763              	.LFE240:
 765              		.section	.text.audioBlock,"ax",%progbits
 766              		.align	1
 767              		.p2align 2,,3
 768              		.global	audioBlock
 769              		.syntax unified
 770              		.thumb
 771              		.thumb_func
 773              	audioBlock:
 774              	.LVL59:
 775              	.LFB241:
 105:Core/Src/audio.c **** 	int i;
 776              		.loc 1 105 1 is_stmt 1 view -0
 777              		.cfi_startproc
 778              		@ args = 0, pretend = 0, frame = 8
 779              		@ frame_needed = 0, uses_anonymous_args = 0
 106:Core/Src/audio.c **** 	int16_t *output;
 780              		.loc 1 106 2 view .LVU194
 107:Core/Src/audio.c **** 	output = buffer;
 781              		.loc 1 107 2 view .LVU195
 108:Core/Src/audio.c **** 	float sample, sampleL, sampleR;
 782              		.loc 1 108 2 view .LVU196
 109:Core/Src/audio.c **** 	uint16_t valueL, valueR;
 783              		.loc 1 109 2 view .LVU197
 110:Core/Src/audio.c **** 	
 784              		.loc 1 110 2 view .LVU198
 113:Core/Src/audio.c **** 	{
 785              		.loc 1 113 2 view .LVU199
 113:Core/Src/audio.c **** 	{
 786              		.loc 1 113 16 view .LVU200
 787 0000 0029     		cmp	r1, #0
 788 0002 00F01881 		beq	.L40
 105:Core/Src/audio.c **** 	int i;
 789              		.loc 1 105 1 is_stmt 0 view .LVU201
 790 0006 2DE9F04F 		push	{r4, r5, r6, r7, r8, r9, r10, fp, lr}
 791              		.cfi_def_cfa_offset 36
 792              		.cfi_offset 4, -36
 793              		.cfi_offset 5, -32
 794              		.cfi_offset 6, -28
 795              		.cfi_offset 7, -24
 796              		.cfi_offset 8, -20
ARM GAS  /var/folders/0z/tsy30v1j4xl4_7kw94k978ww0000gn/T//ccDRKxZB.s 			page 22


 797              		.cfi_offset 9, -16
 798              		.cfi_offset 10, -12
 799              		.cfi_offset 11, -8
 800              		.cfi_offset 14, -4
 801 000a 2DED088B 		vpush.64	{d8, d9, d10, d11}
 802              		.cfi_def_cfa_offset 68
 803              		.cfi_offset 80, -68
 804              		.cfi_offset 81, -64
 805              		.cfi_offset 82, -60
 806              		.cfi_offset 83, -56
 807              		.cfi_offset 84, -52
 808              		.cfi_offset 85, -48
 809              		.cfi_offset 86, -44
 810              		.cfi_offset 87, -40
 811 000e 83B0     		sub	sp, sp, #12
 812              		.cfi_def_cfa_offset 80
 813 0010 831C     		adds	r3, r0, #2
 814 0012 8B4F     		ldr	r7, .L46+8
 815              	.LBB120:
 816              	.LBB121:
  93:Core/Src/audio.c **** }
 817              		.loc 1 93 16 view .LVU202
 818 0014 DFED8B8A 		vldr.32	s17, .L46+12
 819              	.LBE121:
 820              	.LBE120:
 821 0018 DFED8BAA 		vldr.32	s21, .L46+16
 137:Core/Src/audio.c **** 		Moog_filter.k = 4.5f * pot2_norm;
 822              		.loc 1 137 56 view .LVU203
 823 001c DFED8B9A 		vldr.32	s19, .L46+20
 137:Core/Src/audio.c **** 		Moog_filter.k = 4.5f * pot2_norm;
 824              		.loc 1 137 23 view .LVU204
 825 0020 9FED8B9A 		vldr.32	s18, .L46+24
 165:Core/Src/audio.c **** 		valueR = ((int16_t) ((32767.0f) * sampleR));
 826              		.loc 1 165 35 view .LVU205
 827 0024 9FED8BAA 		vldr.32	s20, .L46+28
 828 0028 DFF85CB2 		ldr	fp, .L46+80
 829 002c 8A4E     		ldr	r6, .L46+32
 830 002e DFF85CA2 		ldr	r10, .L46+84
 831 0032 0193     		str	r3, [sp, #4]
 832 0034 8146     		mov	r9, r0
 833 0036 8846     		mov	r8, r1
 113:Core/Src/audio.c **** 	{
 834              		.loc 1 113 9 view .LVU206
 835 0038 0024     		movs	r4, #0
 836 003a 52E0     		b	.L27
 837              	.LVL60:
 838              	.L44:
 839              	.LBB124:
 840              	.LBB125:
  66:Core/Inc/helper_functions.h ****     {
 841              		.loc 2 66 10 is_stmt 1 view .LVU207
  66:Core/Inc/helper_functions.h ****     {
 842              		.loc 2 66 13 is_stmt 0 view .LVU208
 843 003c F0EE086A 		vmov.f32	s13, #3.0e+0
 844 0040 B4EEE67A 		vcmpe.f32	s14, s13
 845 0044 F1EE10FA 		vmrs	APSR_nzcv, FPSCR
 846 0048 00F3EA80 		bgt	.L35
ARM GAS  /var/folders/0z/tsy30v1j4xl4_7kw94k978ww0000gn/T//ccDRKxZB.s 			page 23


 847              	.LVL61:
 848              	.LBB126:
 849              	.LBI126:
  60:Core/Inc/helper_functions.h **** {
 850              		.loc 2 60 14 is_stmt 1 view .LVU209
 851              	.LBB127:
 852              		.loc 2 72 9 view .LVU210
 853              		.loc 2 72 27 is_stmt 0 view .LVU211
 854 004c F3EE0B6A 		vmov.f32	s13, #2.7e+1
 855              		.loc 2 72 52 view .LVU212
 856 0050 F2EE025A 		vmov.f32	s11, #9.0e+0
 857 0054 67EE255A 		vmul.f32	s11, s14, s11
 858              		.loc 2 72 27 view .LVU213
 859 0058 B0EE665A 		vmov.f32	s10, s13
 860 005c A7EE075A 		vfma.f32	s10, s14, s14
 861              		.loc 2 72 45 view .LVU214
 862 0060 E7EE256A 		vfma.f32	s13, s14, s11
 863              		.loc 2 72 18 view .LVU215
 864 0064 27EE057A 		vmul.f32	s14, s14, s10
 865              	.LVL62:
 866              		.loc 2 72 45 view .LVU216
 867 0068 B0EE666A 		vmov.f32	s12, s13
 868              	.LVL63:
 869              		.loc 2 72 36 view .LVU217
 870 006c C7EE066A 		vdiv.f32	s13, s14, s12
 871              	.LBE127:
 872              	.LBE126:
 873              	.LBE125:
 874              	.LBE124:
 165:Core/Src/audio.c **** 		valueR = ((int16_t) ((32767.0f) * sampleR));
 875              		.loc 1 165 35 view .LVU218
 876 0070 26EE8A7A 		vmul.f32	s14, s13, s20
 165:Core/Src/audio.c **** 		valueR = ((int16_t) ((32767.0f) * sampleR));
 877              		.loc 1 165 13 view .LVU219
 878 0074 BDEEC77A 		vcvt.s32.f32	s14, s14
 879 0078 17EE103A 		vmov	r3, s14	@ int
 880 007c 1AB2     		sxth	r2, r3
 881              	.L29:
 882              	.LVL64:
 162:Core/Src/audio.c **** 
 883              		.loc 1 162 3 is_stmt 1 view .LVU220
 884              	.LBB132:
 885              	.LBI132:
  60:Core/Inc/helper_functions.h **** {
 886              		.loc 2 60 14 view .LVU221
 887              	.LBB133:
  62:Core/Inc/helper_functions.h ****     {
 888              		.loc 2 62 5 view .LVU222
  62:Core/Inc/helper_functions.h ****     {
 889              		.loc 2 62 8 is_stmt 0 view .LVU223
 890 007e B8EE087A 		vmov.f32	s14, #-3.0e+0
 891 0082 F4EEC77A 		vcmpe.f32	s15, s14
 892 0086 F1EE10FA 		vmrs	APSR_nzcv, FPSCR
 893 008a 00F1C780 		bmi	.L36
 894              	.L45:
  66:Core/Inc/helper_functions.h ****     {
 895              		.loc 2 66 10 is_stmt 1 view .LVU224
ARM GAS  /var/folders/0z/tsy30v1j4xl4_7kw94k978ww0000gn/T//ccDRKxZB.s 			page 24


  66:Core/Inc/helper_functions.h ****     {
 896              		.loc 2 66 13 is_stmt 0 view .LVU225
 897 008e B0EE087A 		vmov.f32	s14, #3.0e+0
 898 0092 F4EEC77A 		vcmpe.f32	s15, s14
 899 0096 F1EE10FA 		vmrs	APSR_nzcv, FPSCR
 900 009a 00F3C480 		bgt	.L37
 901              	.LVL65:
 902              	.LBB134:
 903              	.LBI134:
  60:Core/Inc/helper_functions.h **** {
 904              		.loc 2 60 14 is_stmt 1 view .LVU226
 905              	.LBB135:
 906              		.loc 2 72 9 view .LVU227
 907              		.loc 2 72 27 is_stmt 0 view .LVU228
 908 009e B3EE0B7A 		vmov.f32	s14, #2.7e+1
 909              		.loc 2 72 52 view .LVU229
 910 00a2 B2EE026A 		vmov.f32	s12, #9.0e+0
 911 00a6 27EE866A 		vmul.f32	s12, s15, s12
 912              		.loc 2 72 27 view .LVU230
 913 00aa F0EE475A 		vmov.f32	s11, s14
 914 00ae E7EEA75A 		vfma.f32	s11, s15, s15
 915              		.loc 2 72 45 view .LVU231
 916 00b2 A7EE867A 		vfma.f32	s14, s15, s12
 917              		.loc 2 72 18 view .LVU232
 918 00b6 67EEA57A 		vmul.f32	s15, s15, s11
 919              	.LVL66:
 920              		.loc 2 72 45 view .LVU233
 921 00ba F0EE476A 		vmov.f32	s13, s14
 922              	.LVL67:
 923              		.loc 2 72 36 view .LVU234
 924 00be 87EEA67A 		vdiv.f32	s14, s15, s13
 925              	.LBE135:
 926              	.LBE134:
 927              	.LBE133:
 928              	.LBE132:
 166:Core/Src/audio.c **** 
 929              		.loc 1 166 35 view .LVU235
 930 00c2 67EE0A7A 		vmul.f32	s15, s14, s20
 166:Core/Src/audio.c **** 
 931              		.loc 1 166 13 view .LVU236
 932 00c6 FDEEE77A 		vcvt.s32.f32	s15, s15
 933 00ca 17EE903A 		vmov	r3, s15	@ int
 934 00ce 1BB2     		sxth	r3, r3
 935              	.L30:
 936              	.LVL68:
 165:Core/Src/audio.c **** 		valueR = ((int16_t) ((32767.0f) * sampleR));
 937              		.loc 1 165 3 is_stmt 1 view .LVU237
 166:Core/Src/audio.c **** 
 938              		.loc 1 166 3 view .LVU238
 169:Core/Src/audio.c **** 	    output[(i<<1) + 1] = valueR;	// RIGHT channel
 939              		.loc 1 169 3 view .LVU239
 169:Core/Src/audio.c **** 	    output[(i<<1) + 1] = valueR;	// RIGHT channel
 940              		.loc 1 169 16 is_stmt 0 view .LVU240
 941 00d0 29F82420 		strh	r2, [r9, r4, lsl #2]	@ movhi
 170:Core/Src/audio.c **** 	}
 942              		.loc 1 170 6 is_stmt 1 view .LVU241
 170:Core/Src/audio.c **** 	}
ARM GAS  /var/folders/0z/tsy30v1j4xl4_7kw94k978ww0000gn/T//ccDRKxZB.s 			page 25


 943              		.loc 1 170 25 is_stmt 0 view .LVU242
 944 00d4 019A     		ldr	r2, [sp, #4]
 945 00d6 22F82430 		strh	r3, [r2, r4, lsl #2]	@ movhi
 113:Core/Src/audio.c **** 	{
 946              		.loc 1 113 28 is_stmt 1 view .LVU243
 947 00da 0134     		adds	r4, r4, #1
 948              	.LVL69:
 113:Core/Src/audio.c **** 	{
 949              		.loc 1 113 16 view .LVU244
 950 00dc 4445     		cmp	r4, r8
 951 00de 00F0A580 		beq	.L43
 952              	.LVL70:
 953              	.L27:
 116:Core/Src/audio.c **** 		
 954              		.loc 1 116 3 view .LVU245
 116:Core/Src/audio.c **** 		
 955              		.loc 1 116 12 is_stmt 0 view .LVU246
 956 00e2 5E4B     		ldr	r3, .L46+36
 957 00e4 1D78     		ldrb	r5, [r3]	@ zero_extendqisi2
 958 00e6 07EB8503 		add	r3, r7, r5, lsl #2
 959 00ea 93ED008A 		vldr.32	s16, [r3]
 119:Core/Src/audio.c **** 		OpSetFreq(&osc2, f0);
 960              		.loc 1 119 3 is_stmt 1 view .LVU247
 961              	.LVL71:
 962              	.LBB139:
 963              	.LBI120:
  91:Core/Src/audio.c **** {
 964              		.loc 1 91 6 view .LVU248
 965              	.LBB122:
  93:Core/Src/audio.c **** }
 966              		.loc 1 93 2 view .LVU249
  93:Core/Src/audio.c **** }
 967              		.loc 1 93 11 is_stmt 0 view .LVU250
 968 00ee 5C4B     		ldr	r3, .L46+40
  93:Core/Src/audio.c **** }
 969              		.loc 1 93 16 view .LVU251
 970 00f0 68EE287A 		vmul.f32	s15, s16, s17
 971              	.LBE122:
 972              	.LBE139:
 121:Core/Src/audio.c **** 		OpSetFreq(&osc4, f0 + 0.5);
 973              		.loc 1 121 22 view .LVU252
 974 00f4 18EE100A 		vmov	r0, s16
 975              	.LBB140:
 976              	.LBB123:
  93:Core/Src/audio.c **** }
 977              		.loc 1 93 11 view .LVU253
 978 00f8 C3ED017A 		vstr.32	s15, [r3, #4]
 979              	.LVL72:
  93:Core/Src/audio.c **** }
 980              		.loc 1 93 11 view .LVU254
 981              	.LBE123:
 982              	.LBE140:
 120:Core/Src/audio.c **** 		OpSetFreq(&osc3, f0-0.2);
 983              		.loc 1 120 3 is_stmt 1 view .LVU255
 984              	.LBB141:
 985              	.LBI141:
  91:Core/Src/audio.c **** {
ARM GAS  /var/folders/0z/tsy30v1j4xl4_7kw94k978ww0000gn/T//ccDRKxZB.s 			page 26


 986              		.loc 1 91 6 view .LVU256
 987              	.LBB142:
  93:Core/Src/audio.c **** }
 988              		.loc 1 93 2 view .LVU257
  93:Core/Src/audio.c **** }
 989              		.loc 1 93 11 is_stmt 0 view .LVU258
 990 00fc 594B     		ldr	r3, .L46+44
 991 00fe C3ED017A 		vstr.32	s15, [r3, #4]
 992              	.LVL73:
  93:Core/Src/audio.c **** }
 993              		.loc 1 93 11 view .LVU259
 994              	.LBE142:
 995              	.LBE141:
 121:Core/Src/audio.c **** 		OpSetFreq(&osc4, f0 + 0.5);
 996              		.loc 1 121 3 is_stmt 1 view .LVU260
 997              	.LBB143:
 998              	.LBI143:
  91:Core/Src/audio.c **** {
 999              		.loc 1 91 6 view .LVU261
 1000              	.LBB144:
  93:Core/Src/audio.c **** }
 1001              		.loc 1 93 2 view .LVU262
 1002              	.LBE144:
 1003              	.LBE143:
 121:Core/Src/audio.c **** 		OpSetFreq(&osc4, f0 + 0.5);
 1004              		.loc 1 121 22 is_stmt 0 view .LVU263
 1005 0102 FFF7FEFF 		bl	__aeabi_f2d
 1006              	.LVL74:
 1007 0106 4CA3     		adr	r3, .L46
 1008 0108 D3E90023 		ldrd	r2, [r3]
 1009 010c FFF7FEFF 		bl	__aeabi_dsub
 1010              	.LVL75:
 121:Core/Src/audio.c **** 		OpSetFreq(&osc4, f0 + 0.5);
 1011              		.loc 1 121 3 view .LVU264
 1012 0110 FFF7FEFF 		bl	__aeabi_d2f
 1013              	.LVL76:
 1014              	.LBB149:
 1015              	.LBB145:
  93:Core/Src/audio.c **** }
 1016              		.loc 1 93 16 view .LVU265
 1017 0114 07EE900A 		vmov	s15, r0
 1018              	.LBE145:
 1019              	.LBE149:
 122:Core/Src/audio.c **** 		
 1020              		.loc 1 122 3 view .LVU266
 1021 0118 B6EE007A 		vmov.f32	s14, #5.0e-1
 124:Core/Src/audio.c **** 		OpSetFreq(&sub_osc, f_sub);
 1022              		.loc 1 124 16 view .LVU267
 1023 011c 0C2D     		cmp	r5, #12
 1024              	.LBB150:
 1025              	.LBB146:
  93:Core/Src/audio.c **** }
 1026              		.loc 1 93 16 view .LVU268
 1027 011e 67EEA87A 		vmul.f32	s15, s15, s17
 1028              	.LBE146:
 1029              	.LBE150:
 122:Core/Src/audio.c **** 		
ARM GAS  /var/folders/0z/tsy30v1j4xl4_7kw94k978ww0000gn/T//ccDRKxZB.s 			page 27


 1030              		.loc 1 122 3 view .LVU269
 1031 0122 38EE078A 		vadd.f32	s16, s16, s14
 1032              	.LVL77:
 1033              	.LBB151:
 1034              	.LBB147:
  93:Core/Src/audio.c **** }
 1035              		.loc 1 93 11 view .LVU270
 1036 0126 504B     		ldr	r3, .L46+48
 1037              	.LBE147:
 1038              	.LBE151:
 126:Core/Src/audio.c **** 		// sample = 0*osc_polyblepSaw(&osc1) + osc_polyblepRect(&sub_osc);
 1039              		.loc 1 126 17 view .LVU271
 1040 0128 4D48     		ldr	r0, .L46+40
 1041              	.LBB152:
 1042              	.LBB148:
  93:Core/Src/audio.c **** }
 1043              		.loc 1 93 11 view .LVU272
 1044 012a C3ED017A 		vstr.32	s15, [r3, #4]
 1045              	.LVL78:
  93:Core/Src/audio.c **** }
 1046              		.loc 1 93 11 view .LVU273
 1047              	.LBE148:
 1048              	.LBE152:
 122:Core/Src/audio.c **** 		
 1049              		.loc 1 122 3 is_stmt 1 view .LVU274
 1050              	.LBB153:
 1051              	.LBI153:
  91:Core/Src/audio.c **** {
 1052              		.loc 1 91 6 view .LVU275
 1053              	.LBB154:
  93:Core/Src/audio.c **** }
 1054              		.loc 1 93 2 view .LVU276
 1055              	.LBE154:
 1056              	.LBE153:
 124:Core/Src/audio.c **** 		OpSetFreq(&sub_osc, f_sub);
 1057              		.loc 1 124 15 is_stmt 0 view .LVU277
 1058 012e 84BF     		itt	hi
 1059 0130 07EB8505 		addhi	r5, r7, r5, lsl #2
 1060              	.LVL79:
 1061              	.LBB157:
 1062              	.LBB158:
  93:Core/Src/audio.c **** }
 1063              		.loc 1 93 16 view .LVU278
 1064 0134 55ED0C7A 		vldrhi.32	s15, [r5, #-48]
 1065              	.LBE158:
 1066              	.LBE157:
 1067              	.LBB162:
 1068              	.LBB155:
  93:Core/Src/audio.c **** }
 1069              		.loc 1 93 11 view .LVU279
 1070 0138 4C4B     		ldr	r3, .L46+52
  93:Core/Src/audio.c **** }
 1071              		.loc 1 93 16 view .LVU280
 1072 013a 28EE288A 		vmul.f32	s16, s16, s17
 1073              	.LBE155:
 1074              	.LBE162:
 1075              	.LBB163:
ARM GAS  /var/folders/0z/tsy30v1j4xl4_7kw94k978ww0000gn/T//ccDRKxZB.s 			page 28


 1076              	.LBB159:
 1077 013e 88BF     		it	hi
 1078 0140 67EEA87A 		vmulhi.f32	s15, s15, s17
 1079              	.LBE159:
 1080              	.LBE163:
 1081              	.LBB164:
 1082              	.LBB156:
  93:Core/Src/audio.c **** }
 1083              		.loc 1 93 11 view .LVU281
 1084 0144 83ED018A 		vstr.32	s16, [r3, #4]
 1085              	.LVL80:
  93:Core/Src/audio.c **** }
 1086              		.loc 1 93 11 view .LVU282
 1087              	.LBE156:
 1088              	.LBE164:
 124:Core/Src/audio.c **** 		OpSetFreq(&sub_osc, f_sub);
 1089              		.loc 1 124 3 is_stmt 1 view .LVU283
 125:Core/Src/audio.c **** 		sample = 0.5*(osc_polyblepSaw(&osc1) + osc_polyblepSaw(&osc2) + osc_polyblepSaw(&osc3) + osc_poly
 1090              		.loc 1 125 3 view .LVU284
 1091              	.LBB165:
 1092              	.LBI157:
  91:Core/Src/audio.c **** {
 1093              		.loc 1 91 6 view .LVU285
 1094              	.LBB160:
  93:Core/Src/audio.c **** }
 1095              		.loc 1 93 2 view .LVU286
  93:Core/Src/audio.c **** }
 1096              		.loc 1 93 11 is_stmt 0 view .LVU287
 1097 0148 494B     		ldr	r3, .L46+56
 1098              	.LBE160:
 1099              	.LBE165:
 1100 014a 98BF     		it	ls
 1101 014c F0EE6A7A 		vmovls.f32	s15, s21
 1102              	.LBB166:
 1103              	.LBB161:
 1104 0150 C3ED017A 		vstr.32	s15, [r3, #4]
 1105              	.LVL81:
  93:Core/Src/audio.c **** }
 1106              		.loc 1 93 11 view .LVU288
 1107              	.LBE161:
 1108              	.LBE166:
 126:Core/Src/audio.c **** 		// sample = 0*osc_polyblepSaw(&osc1) + osc_polyblepRect(&sub_osc);
 1109              		.loc 1 126 3 is_stmt 1 view .LVU289
 126:Core/Src/audio.c **** 		// sample = 0*osc_polyblepSaw(&osc1) + osc_polyblepRect(&sub_osc);
 1110              		.loc 1 126 17 is_stmt 0 view .LVU290
 1111 0154 FFF7FEFF 		bl	osc_polyblepSaw
 1112              	.LVL82:
 126:Core/Src/audio.c **** 		// sample = 0*osc_polyblepSaw(&osc1) + osc_polyblepRect(&sub_osc);
 1113              		.loc 1 126 42 view .LVU291
 1114 0158 4248     		ldr	r0, .L46+44
 126:Core/Src/audio.c **** 		// sample = 0*osc_polyblepSaw(&osc1) + osc_polyblepRect(&sub_osc);
 1115              		.loc 1 126 17 view .LVU292
 1116 015a B0EE408A 		vmov.f32	s16, s0
 126:Core/Src/audio.c **** 		// sample = 0*osc_polyblepSaw(&osc1) + osc_polyblepRect(&sub_osc);
 1117              		.loc 1 126 42 view .LVU293
 1118 015e FFF7FEFF 		bl	osc_polyblepSaw
 1119              	.LVL83:
ARM GAS  /var/folders/0z/tsy30v1j4xl4_7kw94k978ww0000gn/T//ccDRKxZB.s 			page 29


 126:Core/Src/audio.c **** 		// sample = 0*osc_polyblepSaw(&osc1) + osc_polyblepRect(&sub_osc);
 1120              		.loc 1 126 67 view .LVU294
 1121 0162 4148     		ldr	r0, .L46+48
 126:Core/Src/audio.c **** 		// sample = 0*osc_polyblepSaw(&osc1) + osc_polyblepRect(&sub_osc);
 1122              		.loc 1 126 40 view .LVU295
 1123 0164 38EE008A 		vadd.f32	s16, s16, s0
 126:Core/Src/audio.c **** 		// sample = 0*osc_polyblepSaw(&osc1) + osc_polyblepRect(&sub_osc);
 1124              		.loc 1 126 67 view .LVU296
 1125 0168 FFF7FEFF 		bl	osc_polyblepSaw
 1126              	.LVL84:
 126:Core/Src/audio.c **** 		// sample = 0*osc_polyblepSaw(&osc1) + osc_polyblepRect(&sub_osc);
 1127              		.loc 1 126 92 view .LVU297
 1128 016c 3F48     		ldr	r0, .L46+52
 126:Core/Src/audio.c **** 		// sample = 0*osc_polyblepSaw(&osc1) + osc_polyblepRect(&sub_osc);
 1129              		.loc 1 126 65 view .LVU298
 1130 016e 38EE008A 		vadd.f32	s16, s16, s0
 126:Core/Src/audio.c **** 		// sample = 0*osc_polyblepSaw(&osc1) + osc_polyblepRect(&sub_osc);
 1131              		.loc 1 126 92 view .LVU299
 1132 0172 FFF7FEFF 		bl	osc_polyblepSaw
 1133              	.LVL85:
 126:Core/Src/audio.c **** 		// sample = 0*osc_polyblepSaw(&osc1) + osc_polyblepRect(&sub_osc);
 1134              		.loc 1 126 116 view .LVU300
 1135 0176 3E48     		ldr	r0, .L46+56
 126:Core/Src/audio.c **** 		// sample = 0*osc_polyblepSaw(&osc1) + osc_polyblepRect(&sub_osc);
 1136              		.loc 1 126 90 view .LVU301
 1137 0178 38EE008A 		vadd.f32	s16, s16, s0
 126:Core/Src/audio.c **** 		// sample = 0*osc_polyblepSaw(&osc1) + osc_polyblepRect(&sub_osc);
 1138              		.loc 1 126 116 view .LVU302
 1139 017c FFF7FEFF 		bl	osc_polyblepRect
 1140              	.LVL86:
 136:Core/Src/audio.c **** 		Moog_filter.cutoff =clip(1000.f * filt_env + NYQUIST * pot1_norm * pot1_norm * pot1_norm * pot1_n
 1141              		.loc 1 136 14 view .LVU303
 1142 0180 3C48     		ldr	r0, .L46+60
 126:Core/Src/audio.c **** 		// sample = 0*osc_polyblepSaw(&osc1) + osc_polyblepRect(&sub_osc);
 1143              		.loc 1 126 116 view .LVU304
 1144 0182 B0EE40BA 		vmov.f32	s22, s0
 1145              	.LVL87:
 136:Core/Src/audio.c **** 		Moog_filter.cutoff =clip(1000.f * filt_env + NYQUIST * pot1_norm * pot1_norm * pot1_norm * pot1_n
 1146              		.loc 1 136 3 is_stmt 1 view .LVU305
 136:Core/Src/audio.c **** 		Moog_filter.cutoff =clip(1000.f * filt_env + NYQUIST * pot1_norm * pot1_norm * pot1_norm * pot1_n
 1147              		.loc 1 136 14 is_stmt 0 view .LVU306
 1148 0186 FFF7FEFF 		bl	ADSR_compute
 1149              	.LVL88:
 137:Core/Src/audio.c **** 		Moog_filter.k = 4.5f * pot2_norm;
 1150              		.loc 1 137 3 is_stmt 1 view .LVU307
 137:Core/Src/audio.c **** 		Moog_filter.k = 4.5f * pot2_norm;
 1151              		.loc 1 137 56 is_stmt 0 view .LVU308
 1152 018a 9BED007A 		vldr.32	s14, [fp]
 137:Core/Src/audio.c **** 		Moog_filter.k = 4.5f * pot2_norm;
 1153              		.loc 1 137 23 view .LVU309
 1154 018e 9FED2F1A 		vldr.32	s2, .L46+20
 137:Core/Src/audio.c **** 		Moog_filter.k = 4.5f * pot2_norm;
 1155              		.loc 1 137 56 view .LVU310
 1156 0192 67EE297A 		vmul.f32	s15, s14, s19
 137:Core/Src/audio.c **** 		Moog_filter.k = 4.5f * pot2_norm;
 1157              		.loc 1 137 23 view .LVU311
 1158 0196 F3EE040A 		vmov.f32	s1, #2.0e+1
ARM GAS  /var/folders/0z/tsy30v1j4xl4_7kw94k978ww0000gn/T//ccDRKxZB.s 			page 30


 137:Core/Src/audio.c **** 		Moog_filter.k = 4.5f * pot2_norm;
 1159              		.loc 1 137 68 view .LVU312
 1160 019a 67EE877A 		vmul.f32	s15, s15, s14
 137:Core/Src/audio.c **** 		Moog_filter.k = 4.5f * pot2_norm;
 1161              		.loc 1 137 80 view .LVU313
 1162 019e 67EE877A 		vmul.f32	s15, s15, s14
 137:Core/Src/audio.c **** 		Moog_filter.k = 4.5f * pot2_norm;
 1163              		.loc 1 137 92 view .LVU314
 1164 01a2 67EE877A 		vmul.f32	s15, s15, s14
 137:Core/Src/audio.c **** 		Moog_filter.k = 4.5f * pot2_norm;
 1165              		.loc 1 137 23 view .LVU315
 1166 01a6 E0EE097A 		vfma.f32	s15, s0, s18
 1167 01aa B0EE670A 		vmov.f32	s0, s15
 1168 01ae FFF7FEFF 		bl	clip
 1169              	.LVL89:
 138:Core/Src/audio.c **** 
 1170              		.loc 1 138 24 view .LVU316
 1171 01b2 DAED007A 		vldr.32	s15, [r10]
 137:Core/Src/audio.c **** 		Moog_filter.k = 4.5f * pot2_norm;
 1172              		.loc 1 137 22 view .LVU317
 1173 01b6 86ED000A 		vstr.32	s0, [r6]
 138:Core/Src/audio.c **** 
 1174              		.loc 1 138 3 is_stmt 1 view .LVU318
 138:Core/Src/audio.c **** 
 1175              		.loc 1 138 24 is_stmt 0 view .LVU319
 1176 01ba B1EE027A 		vmov.f32	s14, #4.5e+0
 126:Core/Src/audio.c **** 		// sample = 0*osc_polyblepSaw(&osc1) + osc_polyblepRect(&sub_osc);
 1177              		.loc 1 126 114 view .LVU320
 1178 01be 38EE0B0A 		vadd.f32	s0, s16, s22
 138:Core/Src/audio.c **** 
 1179              		.loc 1 138 24 view .LVU321
 1180 01c2 67EE877A 		vmul.f32	s15, s15, s14
 140:Core/Src/audio.c **** 
 1181              		.loc 1 140 12 view .LVU322
 1182 01c6 B6EE007A 		vmov.f32	s14, #5.0e-1
 1183 01ca 20EE070A 		vmul.f32	s0, s0, s14
 1184              	.LVL90:
 140:Core/Src/audio.c **** 
 1185              		.loc 1 140 12 view .LVU323
 1186 01ce 2248     		ldr	r0, .L46+32
 138:Core/Src/audio.c **** 
 1187              		.loc 1 138 17 view .LVU324
 1188 01d0 C6ED057A 		vstr.32	s15, [r6, #20]
 140:Core/Src/audio.c **** 
 1189              		.loc 1 140 3 is_stmt 1 view .LVU325
 140:Core/Src/audio.c **** 
 1190              		.loc 1 140 12 is_stmt 0 view .LVU326
 1191 01d4 FFF7FEFF 		bl	MoogLP_compute
 1192              	.LVL91:
 143:Core/Src/audio.c **** 		sample *= amp_env;
 1193              		.loc 1 143 13 view .LVU327
 1194 01d8 2748     		ldr	r0, .L46+64
 140:Core/Src/audio.c **** 
 1195              		.loc 1 140 12 view .LVU328
 1196 01da B0EE408A 		vmov.f32	s16, s0
 1197              	.LVL92:
 143:Core/Src/audio.c **** 		sample *= amp_env;
ARM GAS  /var/folders/0z/tsy30v1j4xl4_7kw94k978ww0000gn/T//ccDRKxZB.s 			page 31


 1198              		.loc 1 143 3 is_stmt 1 view .LVU329
 143:Core/Src/audio.c **** 		sample *= amp_env;
 1199              		.loc 1 143 13 is_stmt 0 view .LVU330
 1200 01de FFF7FEFF 		bl	ADSR_compute
 1201              	.LVL93:
 144:Core/Src/audio.c **** 
 1202              		.loc 1 144 3 is_stmt 1 view .LVU331
 154:Core/Src/audio.c **** 		sampleL = delayLOut;
 1203              		.loc 1 154 3 view .LVU332
 1204 01e2 2649     		ldr	r1, .L46+68
 1205 01e4 2648     		ldr	r0, .L46+72
 1206 01e6 20EE080A 		vmul.f32	s0, s0, s16
 1207              	.LVL94:
 154:Core/Src/audio.c **** 		sampleL = delayLOut;
 1208              		.loc 1 154 3 is_stmt 0 view .LVU333
 1209 01ea FFF7FEFF 		bl	pingpongDelay_compute
 1210              	.LVL95:
 155:Core/Src/audio.c **** 		sampleR = delayROut;
 1211              		.loc 1 155 3 is_stmt 1 view .LVU334
 155:Core/Src/audio.c **** 		sampleR = delayROut;
 1212              		.loc 1 155 11 is_stmt 0 view .LVU335
 1213 01ee 244B     		ldr	r3, .L46+72
 1214 01f0 93ED007A 		vldr.32	s14, [r3]
 1215              	.LVL96:
 156:Core/Src/audio.c **** 		//sampleL = sample;
 1216              		.loc 1 156 3 is_stmt 1 view .LVU336
 156:Core/Src/audio.c **** 		//sampleL = sample;
 1217              		.loc 1 156 11 is_stmt 0 view .LVU337
 1218 01f4 214B     		ldr	r3, .L46+68
 1219              	.LBB167:
 1220              	.LBB128:
  62:Core/Inc/helper_functions.h ****     {
 1221              		.loc 2 62 8 view .LVU338
 1222 01f6 F8EE086A 		vmov.f32	s13, #-3.0e+0
 1223 01fa B4EEE67A 		vcmpe.f32	s14, s13
 1224 01fe F1EE10FA 		vmrs	APSR_nzcv, FPSCR
 1225              	.LBE128:
 1226              	.LBE167:
 156:Core/Src/audio.c **** 		//sampleL = sample;
 1227              		.loc 1 156 11 view .LVU339
 1228 0202 D3ED007A 		vldr.32	s15, [r3]
 1229              	.LVL97:
 161:Core/Src/audio.c **** 		sampleR = SoftClip(sampleR);
 1230              		.loc 1 161 3 is_stmt 1 view .LVU340
 1231              	.LBB168:
 1232              	.LBI124:
  60:Core/Inc/helper_functions.h **** {
 1233              		.loc 2 60 14 view .LVU341
 1234              	.LBB129:
  62:Core/Inc/helper_functions.h ****     {
 1235              		.loc 2 62 5 view .LVU342
  62:Core/Inc/helper_functions.h ****     {
 1236              		.loc 2 62 8 is_stmt 0 view .LVU343
 1237 0206 7FF519AF 		bpl	.L44
 1238              	.LBE129:
 1239              	.LBE168:
 1240              	.LBB169:
ARM GAS  /var/folders/0z/tsy30v1j4xl4_7kw94k978ww0000gn/T//ccDRKxZB.s 			page 32


 1241              	.LBB136:
 1242 020a B8EE087A 		vmov.f32	s14, #-3.0e+0
 1243              	.LVL98:
  62:Core/Inc/helper_functions.h ****     {
 1244              		.loc 2 62 8 view .LVU344
 1245 020e F4EEC77A 		vcmpe.f32	s15, s14
 1246 0212 F1EE10FA 		vmrs	APSR_nzcv, FPSCR
 1247              	.LBE136:
 1248              	.LBE169:
 1249              	.LBB170:
 1250              	.LBB130:
 1251 0216 1B4A     		ldr	r2, .L46+76
 1252              	.LVL99:
  62:Core/Inc/helper_functions.h ****     {
 1253              		.loc 2 62 8 view .LVU345
 1254              	.LBE130:
 1255              	.LBE170:
 162:Core/Src/audio.c **** 
 1256              		.loc 1 162 3 is_stmt 1 view .LVU346
 1257              	.LBB171:
  60:Core/Inc/helper_functions.h **** {
 1258              		.loc 2 60 14 view .LVU347
 1259              	.LBB137:
  62:Core/Inc/helper_functions.h ****     {
 1260              		.loc 2 62 5 view .LVU348
  62:Core/Inc/helper_functions.h ****     {
 1261              		.loc 2 62 8 is_stmt 0 view .LVU349
 1262 0218 7FF539AF 		bpl	.L45
 1263              	.L36:
 1264 021c 194B     		ldr	r3, .L46+76
 1265 021e 57E7     		b	.L30
 1266              	.LVL100:
 1267              	.L35:
  62:Core/Inc/helper_functions.h ****     {
 1268              		.loc 2 62 8 view .LVU350
 1269              	.LBE137:
 1270              	.LBE171:
 1271              	.LBB172:
 1272              	.LBB131:
 1273 0220 47F6FF72 		movw	r2, #32767
 1274 0224 2BE7     		b	.L29
 1275              	.LVL101:
 1276              	.L37:
  62:Core/Inc/helper_functions.h ****     {
 1277              		.loc 2 62 8 view .LVU351
 1278              	.LBE131:
 1279              	.LBE172:
 1280              	.LBB173:
 1281              	.LBB138:
 1282 0226 47F6FF73 		movw	r3, #32767
 1283 022a 51E7     		b	.L30
 1284              	.LVL102:
 1285              	.L43:
  62:Core/Inc/helper_functions.h ****     {
 1286              		.loc 2 62 8 view .LVU352
 1287              	.LBE138:
 1288              	.LBE173:
ARM GAS  /var/folders/0z/tsy30v1j4xl4_7kw94k978ww0000gn/T//ccDRKxZB.s 			page 33


 1289              		.loc 1 172 1 view .LVU353
 1290 022c 03B0     		add	sp, sp, #12
 1291              		.cfi_def_cfa_offset 68
 1292              		@ sp needed
 1293 022e BDEC088B 		vldm	sp!, {d8-d11}
 1294              		.cfi_restore 86
 1295              		.cfi_restore 87
 1296              		.cfi_restore 84
 1297              		.cfi_restore 85
 1298              		.cfi_restore 82
 1299              		.cfi_restore 83
 1300              		.cfi_restore 80
 1301              		.cfi_restore 81
 1302              		.cfi_def_cfa_offset 36
 1303 0232 BDE8F08F 		pop	{r4, r5, r6, r7, r8, r9, r10, fp, pc}
 1304              	.LVL103:
 1305              	.L40:
 1306              		.cfi_def_cfa_offset 0
 1307              		.cfi_restore 4
 1308              		.cfi_restore 5
 1309              		.cfi_restore 6
 1310              		.cfi_restore 7
 1311              		.cfi_restore 8
 1312              		.cfi_restore 9
 1313              		.cfi_restore 10
 1314              		.cfi_restore 11
 1315              		.cfi_restore 14
 1316              		.loc 1 172 1 view .LVU354
 1317 0236 7047     		bx	lr
 1318              	.L47:
 1319              		.align	3
 1320              	.L46:
 1321 0238 9A999999 		.word	-1717986918
 1322 023c 9999C93F 		.word	1070176665
 1323 0240 00000000 		.word	.LANCHOR0
 1324 0244 8D3B803F 		.word	1065368461
 1325 0248 EF0C0341 		.word	1090718959
 1326 024c 0044AC46 		.word	1185694720
 1327 0250 00007A44 		.word	1148846080
 1328 0254 00FEFF46 		.word	1191181824
 1329 0258 00000000 		.word	Moog_filter
 1330 025c 00000000 		.word	currentPitch
 1331 0260 00000000 		.word	osc1
 1332 0264 00000000 		.word	osc2
 1333 0268 00000000 		.word	osc3
 1334 026c 00000000 		.word	osc4
 1335 0270 00000000 		.word	sub_osc
 1336 0274 00000000 		.word	adsr_filt
 1337 0278 00000000 		.word	adsr_amp
 1338 027c 00000000 		.word	.LANCHOR1
 1339 0280 00000000 		.word	.LANCHOR2
 1340 0284 0180FFFF 		.word	-32767
 1341 0288 00000000 		.word	pot1_norm
 1342 028c 00000000 		.word	pot2_norm
 1343              		.cfi_endproc
 1344              	.LFE241:
 1346              		.section	.text.BSP_AUDIO_OUT_HalfTransfer_CallBack,"ax",%progbits
ARM GAS  /var/folders/0z/tsy30v1j4xl4_7kw94k978ww0000gn/T//ccDRKxZB.s 			page 34


 1347              		.align	1
 1348              		.p2align 2,,3
 1349              		.global	BSP_AUDIO_OUT_HalfTransfer_CallBack
 1350              		.syntax unified
 1351              		.thumb
 1352              		.thumb_func
 1354              	BSP_AUDIO_OUT_HalfTransfer_CallBack:
 1355              	.LFB242:
 173:Core/Src/audio.c **** 
 174:Core/Src/audio.c **** 
 175:Core/Src/audio.c **** 
 176:Core/Src/audio.c **** void BSP_AUDIO_OUT_HalfTransfer_CallBack(void)
 177:Core/Src/audio.c **** {
 1356              		.loc 1 177 1 is_stmt 1 view -0
 1357              		.cfi_startproc
 1358              		@ args = 0, pretend = 0, frame = 0
 1359              		@ frame_needed = 0, uses_anonymous_args = 0
 1360              		@ link register save eliminated.
 178:Core/Src/audio.c **** 	audioBlock((uint16_t *)audioBuffer, BUFFER_SIZE_DIV_4);
 1361              		.loc 1 178 2 view .LVU356
 1362 0000 0148     		ldr	r0, .L49
 1363 0002 FFF7FEBF 		b	audioBlock.constprop.0
 1364              	.LVL104:
 1365              	.L50:
 1366 0006 00BF     		.align	2
 1367              	.L49:
 1368 0008 00000000 		.word	.LANCHOR3
 1369              		.cfi_endproc
 1370              	.LFE242:
 1372              		.section	.text.BSP_AUDIO_OUT_TransferComplete_CallBack,"ax",%progbits
 1373              		.align	1
 1374              		.p2align 2,,3
 1375              		.global	BSP_AUDIO_OUT_TransferComplete_CallBack
 1376              		.syntax unified
 1377              		.thumb
 1378              		.thumb_func
 1380              	BSP_AUDIO_OUT_TransferComplete_CallBack:
 1381              	.LFB243:
 179:Core/Src/audio.c **** }
 180:Core/Src/audio.c **** 
 181:Core/Src/audio.c **** void BSP_AUDIO_OUT_TransferComplete_CallBack(void)
 182:Core/Src/audio.c **** {
 1382              		.loc 1 182 1 view -0
 1383              		.cfi_startproc
 1384              		@ args = 0, pretend = 0, frame = 0
 1385              		@ frame_needed = 0, uses_anonymous_args = 0
 1386              		@ link register save eliminated.
 183:Core/Src/audio.c **** 	audioBlock((uint16_t *)(audioBuffer + BUFFER_SIZE_DIV_2), BUFFER_SIZE_DIV_4);
 1387              		.loc 1 183 2 view .LVU358
 1388 0000 0148     		ldr	r0, .L52
 1389 0002 FFF7FEBF 		b	audioBlock.constprop.0
 1390              	.LVL105:
 1391              	.L53:
 1392 0006 00BF     		.align	2
 1393              	.L52:
 1394 0008 00010000 		.word	.LANCHOR3+256
 1395              		.cfi_endproc
ARM GAS  /var/folders/0z/tsy30v1j4xl4_7kw94k978ww0000gn/T//ccDRKxZB.s 			page 35


 1396              	.LFE243:
 1398              		.section	.text.BSP_AUDIO_OUT_Error_CallBack,"ax",%progbits
 1399              		.align	1
 1400              		.p2align 2,,3
 1401              		.global	BSP_AUDIO_OUT_Error_CallBack
 1402              		.syntax unified
 1403              		.thumb
 1404              		.thumb_func
 1406              	BSP_AUDIO_OUT_Error_CallBack:
 1407              	.LFB244:
 184:Core/Src/audio.c **** }
 185:Core/Src/audio.c **** 
 186:Core/Src/audio.c **** void BSP_AUDIO_OUT_Error_CallBack(void)
 187:Core/Src/audio.c **** {
 1408              		.loc 1 187 1 view -0
 1409              		.cfi_startproc
 1410              		@ Volatile: function does not return.
 1411              		@ args = 0, pretend = 0, frame = 0
 1412              		@ frame_needed = 0, uses_anonymous_args = 0
 1413              		@ link register save eliminated.
 1414              	.L55:
 188:Core/Src/audio.c **** 	/* Stop the program with an infinite loop */
 189:Core/Src/audio.c **** 	while (1)
 1415              		.loc 1 189 2 discriminator 1 view .LVU360
 190:Core/Src/audio.c **** 	{
 191:Core/Src/audio.c **** 	}
 1416              		.loc 1 191 2 discriminator 1 view .LVU361
 189:Core/Src/audio.c **** 	{
 1417              		.loc 1 189 8 discriminator 1 view .LVU362
 1418 0000 FEE7     		b	.L55
 1419              		.cfi_endproc
 1420              	.LFE244:
 1422 0002 00BF     		.section	.text.DMA1_Stream7_IRQHandler,"ax",%progbits
 1423              		.align	1
 1424              		.p2align 2,,3
 1425              		.global	DMA1_Stream7_IRQHandler
 1426              		.syntax unified
 1427              		.thumb
 1428              		.thumb_func
 1430              	DMA1_Stream7_IRQHandler:
 1431              	.LFB245:
 192:Core/Src/audio.c **** }
 193:Core/Src/audio.c **** 
 194:Core/Src/audio.c **** 
 195:Core/Src/audio.c **** void I2S3_IRQHandler(void)
 196:Core/Src/audio.c **** {
 1432              		.loc 1 196 1 view -0
 1433              		.cfi_startproc
 1434              		@ args = 0, pretend = 0, frame = 0
 1435              		@ frame_needed = 0, uses_anonymous_args = 0
 1436              		@ link register save eliminated.
 197:Core/Src/audio.c **** 	HAL_DMA_IRQHandler(hAudioOutI2s.hdmatx);
 1437              		.loc 1 197 2 view .LVU364
 1438 0000 014B     		ldr	r3, .L57
 1439 0002 986B     		ldr	r0, [r3, #56]
 1440 0004 FFF7FEBF 		b	HAL_DMA_IRQHandler
 1441              	.LVL106:
ARM GAS  /var/folders/0z/tsy30v1j4xl4_7kw94k978ww0000gn/T//ccDRKxZB.s 			page 36


 1442              	.L58:
 1443              		.align	2
 1444              	.L57:
 1445 0008 00000000 		.word	hAudioOutI2s
 1446              		.cfi_endproc
 1447              	.LFE245:
 1449              		.section	.text.DMA1_Stream3_IRQHandler,"ax",%progbits
 1450              		.align	1
 1451              		.p2align 2,,3
 1452              		.global	DMA1_Stream3_IRQHandler
 1453              		.syntax unified
 1454              		.thumb
 1455              		.thumb_func
 1457              	DMA1_Stream3_IRQHandler:
 1458              	.LFB246:
 198:Core/Src/audio.c **** }
 199:Core/Src/audio.c **** void I2S2_IRQHandler(void)
 200:Core/Src/audio.c **** {
 1459              		.loc 1 200 1 view -0
 1460              		.cfi_startproc
 1461              		@ args = 0, pretend = 0, frame = 0
 1462              		@ frame_needed = 0, uses_anonymous_args = 0
 1463              		@ link register save eliminated.
 201:Core/Src/audio.c **** 	HAL_DMA_IRQHandler(hAudioInI2s.hdmarx);
 1464              		.loc 1 201 2 view .LVU366
 1465 0000 014B     		ldr	r3, .L60
 1466 0002 D86B     		ldr	r0, [r3, #60]
 1467 0004 FFF7FEBF 		b	HAL_DMA_IRQHandler
 1468              	.LVL107:
 1469              	.L61:
 1470              		.align	2
 1471              	.L60:
 1472 0008 00000000 		.word	hAudioInI2s
 1473              		.cfi_endproc
 1474              	.LFE246:
 1476              		.global	delayROut
 1477              		.global	delayLOut
 1478              		.global	audioBuffer
 1479              		.global	pbend
 1480              		.global	mtof
 1481              		.section	.bss.audioBuffer,"aw",%nobits
 1482              		.align	2
 1483              		.set	.LANCHOR3,. + 0
 1486              	audioBuffer:
 1487 0000 00000000 		.space	512
 1487      00000000 
 1487      00000000 
 1487      00000000 
 1487      00000000 
 1488              		.section	.bss.delayLOut,"aw",%nobits
 1489              		.align	2
 1490              		.set	.LANCHOR2,. + 0
 1493              	delayLOut:
 1494 0000 00000000 		.space	4
 1495              		.section	.bss.delayROut,"aw",%nobits
 1496              		.align	2
 1497              		.set	.LANCHOR1,. + 0
ARM GAS  /var/folders/0z/tsy30v1j4xl4_7kw94k978ww0000gn/T//ccDRKxZB.s 			page 37


 1500              	delayROut:
 1501 0000 00000000 		.space	4
 1502              		.section	.rodata.mtof,"a"
 1503              		.align	2
 1504              		.set	.LANCHOR0,. + 0
 1507              	mtof:
 1508 0000 13D00241 		.word	1090703379
 1509 0004 60970A41 		.word	1091213152
 1510 0008 17D51241 		.word	1091753239
 1511 000c 41901B41 		.word	1092325441
 1512 0010 54D02441 		.word	1092931668
 1513 0014 369D2E41 		.word	1093573942
 1514 0018 4AFF3841 		.word	1094254410
 1515 001c 6AFF4341 		.word	1094975338
 1516 0020 01A74F41 		.word	1095739137
 1517 0024 00005C41 		.word	1096548352
 1518 0028 F7146941 		.word	1097405687
 1519 002c 10F17641 		.word	1098314000
 1520 0030 13D08241 		.word	1099091987
 1521 0034 60978A41 		.word	1099601760
 1522 0038 17D59241 		.word	1100141847
 1523 003c 41909B41 		.word	1100714049
 1524 0040 54D0A441 		.word	1101320276
 1525 0044 369DAE41 		.word	1101962550
 1526 0048 49FFB841 		.word	1102643017
 1527 004c 6BFFC341 		.word	1103363947
 1528 0050 01A7CF41 		.word	1104127745
 1529 0054 0000DC41 		.word	1104936960
 1530 0058 F614E941 		.word	1105794294
 1531 005c 10F1F641 		.word	1106702608
 1532 0060 13D00242 		.word	1107480595
 1533 0064 60970A42 		.word	1107990368
 1534 0068 17D51242 		.word	1108530455
 1535 006c 41901B42 		.word	1109102657
 1536 0070 54D02442 		.word	1109708884
 1537 0074 379D2E42 		.word	1110351159
 1538 0078 49FF3842 		.word	1111031625
 1539 007c 6AFF4342 		.word	1111752554
 1540 0080 00A74F42 		.word	1112516352
 1541 0084 00005C42 		.word	1113325568
 1542 0088 F6146942 		.word	1114182902
 1543 008c 10F17642 		.word	1115091216
 1544 0090 12D08242 		.word	1115869202
 1545 0094 60978A42 		.word	1116378976
 1546 0098 17D59242 		.word	1116919063
 1547 009c 41909B42 		.word	1117491265
 1548 00a0 54D0A442 		.word	1118097492
 1549 00a4 379DAE42 		.word	1118739767
 1550 00a8 49FFB842 		.word	1119420233
 1551 00ac 6AFFC342 		.word	1120141162
 1552 00b0 00A7CF42 		.word	1120904960
 1553 00b4 0000DC42 		.word	1121714176
 1554 00b8 F614E942 		.word	1122571510
 1555 00bc 10F1F642 		.word	1123479824
 1556 00c0 13D00243 		.word	1124257811
 1557 00c4 60970A43 		.word	1124767584
 1558 00c8 17D51243 		.word	1125307671
ARM GAS  /var/folders/0z/tsy30v1j4xl4_7kw94k978ww0000gn/T//ccDRKxZB.s 			page 38


 1559 00cc 41901B43 		.word	1125879873
 1560 00d0 54D02443 		.word	1126486100
 1561 00d4 379D2E43 		.word	1127128375
 1562 00d8 49FF3843 		.word	1127808841
 1563 00dc 6AFF4343 		.word	1128529770
 1564 00e0 00A74F43 		.word	1129293568
 1565 00e4 00005C43 		.word	1130102784
 1566 00e8 F6146943 		.word	1130960118
 1567 00ec 10F17643 		.word	1131868432
 1568 00f0 13D08243 		.word	1132646419
 1569 00f4 60978A43 		.word	1133156192
 1570 00f8 17D59243 		.word	1133696279
 1571 00fc 41909B43 		.word	1134268481
 1572 0100 54D0A443 		.word	1134874708
 1573 0104 379DAE43 		.word	1135516983
 1574 0108 49FFB843 		.word	1136197449
 1575 010c 6AFFC343 		.word	1136918378
 1576 0110 00A7CF43 		.word	1137682176
 1577 0114 0000DC43 		.word	1138491392
 1578 0118 F614E943 		.word	1139348726
 1579 011c 10F1F643 		.word	1140257040
 1580 0120 13D00244 		.word	1141035027
 1581 0124 60970A44 		.word	1141544800
 1582 0128 17D51244 		.word	1142084887
 1583 012c 41901B44 		.word	1142657089
 1584 0130 54D02444 		.word	1143263316
 1585 0134 379D2E44 		.word	1143905591
 1586 0138 49FF3844 		.word	1144586057
 1587 013c 6AFF4344 		.word	1145306986
 1588 0140 00A74F44 		.word	1146070784
 1589 0144 00005C44 		.word	1146880000
 1590 0148 F6146944 		.word	1147737334
 1591 014c 10F17644 		.word	1148645648
 1592 0150 13D08244 		.word	1149423635
 1593 0154 60978A44 		.word	1149933408
 1594 0158 17D59244 		.word	1150473495
 1595 015c 41909B44 		.word	1151045697
 1596 0160 54D0A444 		.word	1151651924
 1597 0164 379DAE44 		.word	1152294199
 1598 0168 49FFB844 		.word	1152974665
 1599 016c 6AFFC344 		.word	1153695594
 1600 0170 00A7CF44 		.word	1154459392
 1601 0174 0000DC44 		.word	1155268608
 1602 0178 F614E944 		.word	1156125942
 1603 017c 10F1F644 		.word	1157034256
 1604 0180 13D00245 		.word	1157812243
 1605 0184 60970A45 		.word	1158322016
 1606 0188 17D51245 		.word	1158862103
 1607 018c 41901B45 		.word	1159434305
 1608 0190 54D02445 		.word	1160040532
 1609 0194 379D2E45 		.word	1160682807
 1610 0198 49FF3845 		.word	1161363273
 1611 019c 6AFF4345 		.word	1162084202
 1612 01a0 00A74F45 		.word	1162848000
 1613 01a4 00005C45 		.word	1163657216
 1614 01a8 F6146945 		.word	1164514550
 1615 01ac 10F17645 		.word	1165422864
ARM GAS  /var/folders/0z/tsy30v1j4xl4_7kw94k978ww0000gn/T//ccDRKxZB.s 			page 39


 1616 01b0 13D08245 		.word	1166200851
 1617 01b4 60978A45 		.word	1166710624
 1618 01b8 17D59245 		.word	1167250711
 1619 01bc 41909B45 		.word	1167822913
 1620 01c0 54D0A445 		.word	1168429140
 1621 01c4 379DAE45 		.word	1169071415
 1622 01c8 49FFB845 		.word	1169751881
 1623 01cc 6AFFC345 		.word	1170472810
 1624 01d0 00A7CF45 		.word	1171236608
 1625 01d4 0000DC45 		.word	1172045824
 1626 01d8 F614E945 		.word	1172903158
 1627 01dc 10F1F645 		.word	1173811472
 1628 01e0 13D00246 		.word	1174589459
 1629 01e4 60970A46 		.word	1175099232
 1630 01e8 17D51246 		.word	1175639319
 1631 01ec 41901B46 		.word	1176211521
 1632 01f0 54D02446 		.word	1176817748
 1633 01f4 379D2E46 		.word	1177460023
 1634 01f8 49FF3846 		.word	1178140489
 1635 01fc 6AFF4346 		.word	1178861418
 1636              		.section	.rodata.pbend,"a"
 1637              		.align	2
 1640              	pbend:
 1641 0000 0000003F 		.word	1056964608
 1642 0004 5E2C003F 		.word	1056975966
 1643 0008 DE58003F 		.word	1056987358
 1644 000c 5E85003F 		.word	1056998750
 1645 0010 EEB1003F 		.word	1057010158
 1646 0014 8FDE003F 		.word	1057021583
 1647 0018 410B013F 		.word	1057033025
 1648 001c 0438013F 		.word	1057044484
 1649 0020 D864013F 		.word	1057055960
 1650 0024 AC91013F 		.word	1057067436
 1651 0028 A1BE013F 		.word	1057078945
 1652 002c A7EB013F 		.word	1057090471
 1653 0030 AD18023F 		.word	1057101997
 1654 0034 D445023F 		.word	1057113556
 1655 0038 FC72023F 		.word	1057125116
 1656 003c 34A0023F 		.word	1057136692
 1657 0040 8ECD023F 		.word	1057148302
 1658 0044 E8FA023F 		.word	1057159912
 1659 0048 5228033F 		.word	1057171538
 1660 004c CE55033F 		.word	1057183182
 1661 0050 5A83033F 		.word	1057194842
 1662 0054 F7B0033F 		.word	1057206519
 1663 0058 A4DE033F 		.word	1057218212
 1664 005c 630C043F 		.word	1057229923
 1665 0060 213A043F 		.word	1057241633
 1666 0064 0168043F 		.word	1057253377
 1667 0068 F295043F 		.word	1057265138
 1668 006c E3C3043F 		.word	1057276899
 1669 0070 F5F1043F 		.word	1057288693
 1670 0074 1920053F 		.word	1057300505
 1671 0078 3C4E053F 		.word	1057312316
 1672 007c 707C053F 		.word	1057324144
 1673 0080 C5AA053F 		.word	1057336005
 1674 0084 1BD9053F 		.word	1057347867
ARM GAS  /var/folders/0z/tsy30v1j4xl4_7kw94k978ww0000gn/T//ccDRKxZB.s 			page 40


 1675 0088 9207063F 		.word	1057359762
 1676 008c 0936063F 		.word	1057371657
 1677 0090 9164063F 		.word	1057383569
 1678 0094 2993063F 		.word	1057395497
 1679 0098 D3C1063F 		.word	1057407443
 1680 009c 9EF0063F 		.word	1057419422
 1681 00a0 681F073F 		.word	1057431400
 1682 00a4 444E073F 		.word	1057443396
 1683 00a8 317D073F 		.word	1057455409
 1684 00ac 2EAC073F 		.word	1057467438
 1685 00b0 3CDB073F 		.word	1057479484
 1686 00b4 5B0A083F 		.word	1057491547
 1687 00b8 7A39083F 		.word	1057503610
 1688 00bc BA68083F 		.word	1057515706
 1689 00c0 0B98083F 		.word	1057527819
 1690 00c4 6DC7083F 		.word	1057539949
 1691 00c8 E0F6083F 		.word	1057552096
 1692 00cc 6326093F 		.word	1057564259
 1693 00d0 E755093F 		.word	1057576423
 1694 00d4 8C85093F 		.word	1057588620
 1695 00d8 42B5093F 		.word	1057600834
 1696 00dc 08E5093F 		.word	1057613064
 1697 00e0 CF140A3F 		.word	1057625295
 1698 00e4 B7440A3F 		.word	1057637559
 1699 00e8 B0740A3F 		.word	1057649840
 1700 00ec A9A40A3F 		.word	1057662121
 1701 00f0 C3D40A3F 		.word	1057674435
 1702 00f4 EE040B3F 		.word	1057686766
 1703 00f8 2B350B3F 		.word	1057699115
 1704 00fc 67650B3F 		.word	1057711463
 1705 0100 C4950B3F 		.word	1057723844
 1706 0104 32C60B3F 		.word	1057736242
 1707 0108 A1F60B3F 		.word	1057748641
 1708 010c 31270C3F 		.word	1057761073
 1709 0110 D1570C3F 		.word	1057773521
 1710 0114 72880C3F 		.word	1057785970
 1711 0118 34B90C3F 		.word	1057798452
 1712 011c 07EA0C3F 		.word	1057810951
 1713 0120 DA1A0D3F 		.word	1057823450
 1714 0124 CF4B0D3F 		.word	1057835983
 1715 0128 D47C0D3F 		.word	1057848532
 1716 012c DAAD0D3F 		.word	1057861082
 1717 0130 01DF0D3F 		.word	1057873665
 1718 0134 38100E3F 		.word	1057886264
 1719 0138 81410E3F 		.word	1057898881
 1720 013c DA720E3F 		.word	1057911514
 1721 0140 33A40E3F 		.word	1057924147
 1722 0144 AED50E3F 		.word	1057936814
 1723 0148 3A070F3F 		.word	1057949498
 1724 014c D6380F3F 		.word	1057962198
 1725 0150 836A0F3F 		.word	1057974915
 1726 0154 419C0F3F 		.word	1057987649
 1727 0158 10CE0F3F 		.word	1058000400
 1728 015c EFFF0F3F 		.word	1058013167
 1729 0160 DF31103F 		.word	1058025951
 1730 0164 E063103F 		.word	1058038752
 1731 0168 F295103F 		.word	1058051570
ARM GAS  /var/folders/0z/tsy30v1j4xl4_7kw94k978ww0000gn/T//ccDRKxZB.s 			page 41


 1732 016c 15C8103F 		.word	1058064405
 1733 0170 48FA103F 		.word	1058077256
 1734 0174 8C2C113F 		.word	1058090124
 1735 0178 F25E113F 		.word	1058103026
 1736 017c 5891113F 		.word	1058115928
 1737 0180 CEC3113F 		.word	1058128846
 1738 0184 66F6113F 		.word	1058141798
 1739 0188 FE28123F 		.word	1058154750
 1740 018c B85B123F 		.word	1058167736
 1741 0190 718E123F 		.word	1058180721
 1742 0194 4CC1123F 		.word	1058193740
 1743 0198 28F4123F 		.word	1058206760
 1744 019c 2427133F 		.word	1058219812
 1745 01a0 325A133F 		.word	1058232882
 1746 01a4 3F8D133F 		.word	1058245951
 1747 01a8 6EC0133F 		.word	1058259054
 1748 01ac AEF3133F 		.word	1058272174
 1749 01b0 FE26143F 		.word	1058285310
 1750 01b4 605A143F 		.word	1058298464
 1751 01b8 D28D143F 		.word	1058311634
 1752 01bc 55C1143F 		.word	1058324821
 1753 01c0 E8F4143F 		.word	1058338024
 1754 01c4 9E28153F 		.word	1058351262
 1755 01c8 535C153F 		.word	1058364499
 1756 01cc 1990153F 		.word	1058377753
 1757 01d0 00C4153F 		.word	1058391040
 1758 01d4 E8F7153F 		.word	1058404328
 1759 01d8 F12B163F 		.word	1058417649
 1760 01dc 0B60163F 		.word	1058430987
 1761 01e0 2594163F 		.word	1058444325
 1762 01e4 60C8163F 		.word	1058457696
 1763 01e8 ADFC163F 		.word	1058471085
 1764 01ec 0A31173F 		.word	1058484490
 1765 01f0 7765173F 		.word	1058497911
 1766 01f4 079A173F 		.word	1058511367
 1767 01f8 96CE173F 		.word	1058524822
 1768 01fc 3603183F 		.word	1058538294
 1769 0200 F837183F 		.word	1058551800
 1770 0204 B96C183F 		.word	1058565305
 1771 0208 9DA1183F 		.word	1058578845
 1772 020c 80D6183F 		.word	1058592384
 1773 0210 850B193F 		.word	1058605957
 1774 0214 9A40193F 		.word	1058619546
 1775 0218 C075193F 		.word	1058633152
 1776 021c F8AA193F 		.word	1058646776
 1777 0220 3FE0193F 		.word	1058660415
 1778 0224 A9151A3F 		.word	1058674089
 1779 0228 124B1A3F 		.word	1058687762
 1780 022c 9D801A3F 		.word	1058701469
 1781 0230 28B61A3F 		.word	1058715176
 1782 0234 D5EB1A3F 		.word	1058728917
 1783 0238 92211B3F 		.word	1058742674
 1784 023c 60571B3F 		.word	1058756448
 1785 0240 3F8D1B3F 		.word	1058770239
 1786 0244 2FC31B3F 		.word	1058784047
 1787 0248 2FF91B3F 		.word	1058797871
 1788 024c 512F1C3F 		.word	1058811729
ARM GAS  /var/folders/0z/tsy30v1j4xl4_7kw94k978ww0000gn/T//ccDRKxZB.s 			page 42


 1789 0250 73651C3F 		.word	1058825587
 1790 0254 B79B1C3F 		.word	1058839479
 1791 0258 FAD11C3F 		.word	1058853370
 1792 025c 5F081D3F 		.word	1058867295
 1793 0260 D53E1D3F 		.word	1058881237
 1794 0264 5C751D3F 		.word	1058895196
 1795 0268 04AC1D3F 		.word	1058909188
 1796 026c ACE21D3F 		.word	1058923180
 1797 0270 76191E3F 		.word	1058937206
 1798 0274 40501E3F 		.word	1058951232
 1799 0278 2B871E3F 		.word	1058965291
 1800 027c 27BE1E3F 		.word	1058979367
 1801 0280 34F51E3F 		.word	1058993460
 1802 0284 522C1F3F 		.word	1059007570
 1803 0288 80631F3F 		.word	1059021696
 1804 028c D09A1F3F 		.word	1059035856
 1805 0290 20D21F3F 		.word	1059050016
 1806 0294 9109203F 		.word	1059064209
 1807 0298 1441203F 		.word	1059078420
 1808 029c A778203F 		.word	1059092647
 1809 02a0 4BB0203F 		.word	1059106891
 1810 02a4 10E8203F 		.word	1059121168
 1811 02a8 D61F213F 		.word	1059135446
 1812 02ac BC57213F 		.word	1059149756
 1813 02b0 B48F213F 		.word	1059164084
 1814 02b4 BDC7213F 		.word	1059178429
 1815 02b8 D6FF213F 		.word	1059192790
 1816 02bc 0038223F 		.word	1059207168
 1817 02c0 3B70223F 		.word	1059221563
 1818 02c4 97A8223F 		.word	1059235991
 1819 02c8 05E1223F 		.word	1059250437
 1820 02cc 8319233F 		.word	1059264899
 1821 02d0 1152233F 		.word	1059279377
 1822 02d4 B18A233F 		.word	1059293873
 1823 02d8 72C3233F 		.word	1059308402
 1824 02dc 33FC233F 		.word	1059322931
 1825 02e0 1635243F 		.word	1059337494
 1826 02e4 096E243F 		.word	1059352073
 1827 02e8 0DA7243F 		.word	1059366669
 1828 02ec 22E0243F 		.word	1059381282
 1829 02f0 5919253F 		.word	1059395929
 1830 02f4 A052253F 		.word	1059410592
 1831 02f8 E78B253F 		.word	1059425255
 1832 02fc 61C5253F 		.word	1059439969
 1833 0300 DAFE253F 		.word	1059454682
 1834 0304 6538263F 		.word	1059469413
 1835 0308 1172263F 		.word	1059484177
 1836 030c CDAB263F 		.word	1059498957
 1837 0310 9BE5263F 		.word	1059513755
 1838 0314 791F273F 		.word	1059528569
 1839 0318 6859273F 		.word	1059543400
 1840 031c 7993273F 		.word	1059558265
 1841 0320 9ACD273F 		.word	1059573146
 1842 0324 CC07283F 		.word	1059588044
 1843 0328 0F42283F 		.word	1059602959
 1844 032c 637C283F 		.word	1059617891
 1845 0330 D8B6283F 		.word	1059632856
ARM GAS  /var/folders/0z/tsy30v1j4xl4_7kw94k978ww0000gn/T//ccDRKxZB.s 			page 43


 1846 0334 5EF1283F 		.word	1059647838
 1847 0338 F52B293F 		.word	1059662837
 1848 033c 9D66293F 		.word	1059677853
 1849 0340 55A1293F 		.word	1059692885
 1850 0344 2FDC293F 		.word	1059707951
 1851 0348 1A172A3F 		.word	1059723034
 1852 034c 15522A3F 		.word	1059738133
 1853 0350 228D2A3F 		.word	1059753250
 1854 0354 50C82A3F 		.word	1059768400
 1855 0358 8E032B3F 		.word	1059783566
 1856 035c DE3E2B3F 		.word	1059798750
 1857 0360 3E7A2B3F 		.word	1059813950
 1858 0364 AFB52B3F 		.word	1059829167
 1859 0368 41F12B3F 		.word	1059844417
 1860 036c E42C2C3F 		.word	1059859684
 1861 0370 98682C3F 		.word	1059874968
 1862 0374 5DA42C3F 		.word	1059890269
 1863 0378 44E02C3F 		.word	1059905604
 1864 037c 3B1C2D3F 		.word	1059920955
 1865 0380 43582D3F 		.word	1059936323
 1866 0384 5B942D3F 		.word	1059951707
 1867 0388 96D02D3F 		.word	1059967126
 1868 038c D00C2E3F 		.word	1059982544
 1869 0390 3D492E3F 		.word	1059998013
 1870 0394 A9852E3F 		.word	1060013481
 1871 0398 27C22E3F 		.word	1060028967
 1872 039c C5FE2E3F 		.word	1060044485
 1873 03a0 753B2F3F 		.word	1060060021
 1874 03a4 46782F3F 		.word	1060075590
 1875 03a8 18B52F3F 		.word	1060091160
 1876 03ac 0AF22F3F 		.word	1060106762
 1877 03b0 0E2F303F 		.word	1060122382
 1878 03b4 226C303F 		.word	1060138018
 1879 03b8 58A9303F 		.word	1060153688
 1880 03bc 9FE6303F 		.word	1060169375
 1881 03c0 F623313F 		.word	1060185078
 1882 03c4 5F61313F 		.word	1060200799
 1883 03c8 E99E313F 		.word	1060216553
 1884 03cc 83DC313F 		.word	1060232323
 1885 03d0 2E1A323F 		.word	1060248110
 1886 03d4 FB57323F 		.word	1060263931
 1887 03d8 C895323F 		.word	1060279752
 1888 03dc C8D3323F 		.word	1060295624
 1889 03e0 C711333F 		.word	1060311495
 1890 03e4 D74F333F 		.word	1060327383
 1891 03e8 088E333F 		.word	1060343304
 1892 03ec 5CCC333F 		.word	1060359260
 1893 03f0 AF0A343F 		.word	1060375215
 1894 03f4 2349343F 		.word	1060391203
 1895 03f8 A987343F 		.word	1060407209
 1896 03fc 3FC6343F 		.word	1060423231
 1897 0400 F704353F 		.word	1060439287
 1898 0404 BF43353F 		.word	1060455359
 1899 0408 9982353F 		.word	1060471449
 1900 040c 83C1353F 		.word	1060487555
 1901 0410 8F00363F 		.word	1060503695
 1902 0414 AB3F363F 		.word	1060519851
ARM GAS  /var/folders/0z/tsy30v1j4xl4_7kw94k978ww0000gn/T//ccDRKxZB.s 			page 44


 1903 0418 E97E363F 		.word	1060536041
 1904 041c 38BE363F 		.word	1060552248
 1905 0420 97FD363F 		.word	1060568471
 1906 0424 083D373F 		.word	1060584712
 1907 0428 9A7C373F 		.word	1060600986
 1908 042c 3CBC373F 		.word	1060617276
 1909 0430 F0FB373F 		.word	1060633584
 1910 0434 C53B383F 		.word	1060649925
 1911 0438 AB7B383F 		.word	1060666283
 1912 043c A1BB383F 		.word	1060682657
 1913 0440 A9FB383F 		.word	1060699049
 1914 0444 D13B393F 		.word	1060715473
 1915 0448 1C7C393F 		.word	1060731932
 1916 044c 66BC393F 		.word	1060748390
 1917 0450 D2FC393F 		.word	1060764882
 1918 0454 4F3D3A3F 		.word	1060781391
 1919 0458 ED7D3A3F 		.word	1060797933
 1920 045c 9DBE3A3F 		.word	1060814493
 1921 0460 5CFF3A3F 		.word	1060831068
 1922 0464 2D403B3F 		.word	1060847661
 1923 0468 1F813B3F 		.word	1060864287
 1924 046c 33C23B3F 		.word	1060880947
 1925 0470 47033C3F 		.word	1060897607
 1926 0474 7C443C3F 		.word	1060914300
 1927 0478 C2853C3F 		.word	1060931010
 1928 047c 2AC73C3F 		.word	1060947754
 1929 0480 A2083D3F 		.word	1060964514
 1930 0484 2C4A3D3F 		.word	1060981292
 1931 0488 D68B3D3F 		.word	1060998102
 1932 048c 92CD3D3F 		.word	1061014930
 1933 0490 6F0F3E3F 		.word	1061031791
 1934 0494 4C513E3F 		.word	1061048652
 1935 0498 4B933E3F 		.word	1061065547
 1936 049c 6BD53E3F 		.word	1061082475
 1937 04a0 9C173F3F 		.word	1061099420
 1938 04a4 DE593F3F 		.word	1061116382
 1939 04a8 419C3F3F 		.word	1061133377
 1940 04ac B5DE3F3F 		.word	1061150389
 1941 04b0 3A21403F 		.word	1061167418
 1942 04b4 E063403F 		.word	1061184480
 1943 04b8 98A6403F 		.word	1061201560
 1944 04bc 60E9403F 		.word	1061218656
 1945 04c0 492C413F 		.word	1061235785
 1946 04c4 446F413F 		.word	1061252932
 1947 04c8 5FB2413F 		.word	1061270111
 1948 04cc 8CF5413F 		.word	1061287308
 1949 04d0 DA38423F 		.word	1061304538
 1950 04d4 287C423F 		.word	1061321768
 1951 04d8 A9BF423F 		.word	1061339049
 1952 04dc 2A03433F 		.word	1061356330
 1953 04e0 CC46433F 		.word	1061373644
 1954 04e4 7E8A433F 		.word	1061390974
 1955 04e8 53CE433F 		.word	1061408339
 1956 04ec 3812443F 		.word	1061425720
 1957 04f0 3F56443F 		.word	1061443135
 1958 04f4 569A443F 		.word	1061460566
 1959 04f8 7FDE443F 		.word	1061478015
ARM GAS  /var/folders/0z/tsy30v1j4xl4_7kw94k978ww0000gn/T//ccDRKxZB.s 			page 45


 1960 04fc C922453F 		.word	1061495497
 1961 0500 2367453F 		.word	1061512995
 1962 0504 9FAB453F 		.word	1061530527
 1963 0508 2CF0453F 		.word	1061548076
 1964 050c DB34463F 		.word	1061565659
 1965 0510 8979463F 		.word	1061583241
 1966 0514 6ABE463F 		.word	1061600874
 1967 0518 4B03473F 		.word	1061618507
 1968 051c 5E48473F 		.word	1061636190
 1969 0520 718D473F 		.word	1061653873
 1970 0524 A6D2473F 		.word	1061671590
 1971 0528 FC17483F 		.word	1061689340
 1972 052c 645D483F 		.word	1061707108
 1973 0530 DBA2483F 		.word	1061724891
 1974 0534 75E8483F 		.word	1061742709
 1975 0538 1F2E493F 		.word	1061760543
 1976 053c DA73493F 		.word	1061778394
 1977 0540 B6B9493F 		.word	1061796278
 1978 0544 B5FF493F 		.word	1061814197
 1979 0548 C3454A3F 		.word	1061832131
 1980 054c E38B4A3F 		.word	1061850083
 1981 0550 24D24A3F 		.word	1061868068
 1982 0554 76184B3F 		.word	1061886070
 1983 0558 EA5E4B3F 		.word	1061904106
 1984 055c 6EA54B3F 		.word	1061922158
 1985 0560 14EC4B3F 		.word	1061940244
 1986 0564 CA324C3F 		.word	1061958346
 1987 0568 A3794C3F 		.word	1061976483
 1988 056c 8BC04C3F 		.word	1061994635
 1989 0570 85074D3F 		.word	1062012805
 1990 0574 A04E4D3F 		.word	1062031008
 1991 0578 DD954D3F 		.word	1062049245
 1992 057c 2BDD4D3F 		.word	1062067499
 1993 0580 89244E3F 		.word	1062085769
 1994 0584 096C4E3F 		.word	1062104073
 1995 0588 9AB34E3F 		.word	1062122394
 1996 058c 4CFB4E3F 		.word	1062140748
 1997 0590 20434F3F 		.word	1062159136
 1998 0594 F48A4F3F 		.word	1062177524
 1999 0598 FAD24F3F 		.word	1062195962
 2000 059c 001B503F 		.word	1062214400
 2001 05a0 3963503F 		.word	1062232889
 2002 05a4 71AB503F 		.word	1062251377
 2003 05a8 DCF3503F 		.word	1062269916
 2004 05ac 473C513F 		.word	1062288455
 2005 05b0 E484513F 		.word	1062307044
 2006 05b4 81CD513F 		.word	1062325633
 2007 05b8 5116523F 		.word	1062344273
 2008 05bc 205F523F 		.word	1062362912
 2009 05c0 22A8523F 		.word	1062381602
 2010 05c4 35F1523F 		.word	1062400309
 2011 05c8 583A533F 		.word	1062419032
 2012 05cc 9D83533F 		.word	1062437789
 2013 05d0 F3CC533F 		.word	1062456563
 2014 05d4 6A16543F 		.word	1062475370
 2015 05d8 F25F543F 		.word	1062494194
 2016 05dc 9BA9543F 		.word	1062513051
ARM GAS  /var/folders/0z/tsy30v1j4xl4_7kw94k978ww0000gn/T//ccDRKxZB.s 			page 46


 2017 05e0 56F3543F 		.word	1062531926
 2018 05e4 323D553F 		.word	1062550834
 2019 05e8 2F87553F 		.word	1062569775
 2020 05ec 3DD1553F 		.word	1062588733
 2021 05f0 5C1B563F 		.word	1062607708
 2022 05f4 9D65563F 		.word	1062626717
 2023 05f8 FFAF563F 		.word	1062645759
 2024 05fc 72FA563F 		.word	1062664818
 2025 0600 F644573F 		.word	1062683894
 2026 0604 AC8F573F 		.word	1062703020
 2027 0608 62DA573F 		.word	1062722146
 2028 060c 4A25583F 		.word	1062741322
 2029 0610 3370583F 		.word	1062760499
 2030 0614 4DBB583F 		.word	1062779725
 2031 0618 7906593F 		.word	1062798969
 2032 061c B551593F 		.word	1062818229
 2033 0620 139D593F 		.word	1062837523
 2034 0624 92E8593F 		.word	1062856850
 2035 0628 22345A3F 		.word	1062876194
 2036 062c D47F5A3F 		.word	1062895572
 2037 0630 96CB5A3F 		.word	1062914966
 2038 0634 7A175B3F 		.word	1062934394
 2039 0638 6F635B3F 		.word	1062953839
 2040 063c 86AF5B3F 		.word	1062973318
 2041 0640 BDFB5B3F 		.word	1062992829
 2042 0644 06485C3F 		.word	1063012358
 2043 0648 60945C3F 		.word	1063031904
 2044 064c EBE05C3F 		.word	1063051499
 2045 0650 882D5D3F 		.word	1063071112
 2046 0654 357A5D3F 		.word	1063090741
 2047 0658 04C75D3F 		.word	1063110404
 2048 065c F5135E3F 		.word	1063130101
 2049 0660 F6605E3F 		.word	1063149814
 2050 0664 19AE5E3F 		.word	1063169561
 2051 0668 4CFB5E3F 		.word	1063189324
 2052 066c A1485F3F 		.word	1063209121
 2053 0670 18965F3F 		.word	1063228952
 2054 0674 9FE35F3F 		.word	1063248799
 2055 0678 4831603F 		.word	1063268680
 2056 067c 027F603F 		.word	1063288578
 2057 0680 DECC603F 		.word	1063308510
 2058 0684 DA1A613F 		.word	1063328474
 2059 0688 E868613F 		.word	1063348456
 2060 068c 17B7613F 		.word	1063368471
 2061 0690 5705623F 		.word	1063388503
 2062 0694 B953623F 		.word	1063408569
 2063 0698 3CA2623F 		.word	1063428668
 2064 069c D0F0623F 		.word	1063448784
 2065 06a0 853F633F 		.word	1063468933
 2066 06a4 5C8E633F 		.word	1063489116
 2067 06a8 44DD633F 		.word	1063509316
 2068 06ac 4D2C643F 		.word	1063529549
 2069 06b0 677B643F 		.word	1063549799
 2070 06b4 A3CA643F 		.word	1063570083
 2071 06b8 001A653F 		.word	1063590400
 2072 06bc 7F69653F 		.word	1063610751
 2073 06c0 0FB9653F 		.word	1063631119
ARM GAS  /var/folders/0z/tsy30v1j4xl4_7kw94k978ww0000gn/T//ccDRKxZB.s 			page 47


 2074 06c4 AF08663F 		.word	1063651503
 2075 06c8 8258663F 		.word	1063671938
 2076 06cc 54A8663F 		.word	1063692372
 2077 06d0 59F8663F 		.word	1063712857
 2078 06d4 6F48673F 		.word	1063733359
 2079 06d8 A698673F 		.word	1063753894
 2080 06dc FFE8673F 		.word	1063774463
 2081 06e0 6939683F 		.word	1063795049
 2082 06e4 F489683F 		.word	1063815668
 2083 06e8 A1DA683F 		.word	1063836321
 2084 06ec 5E2B693F 		.word	1063856990
 2085 06f0 3D7C693F 		.word	1063877693
 2086 06f4 2DCD693F 		.word	1063898413
 2087 06f8 4F1E6A3F 		.word	1063919183
 2088 06fc 726F6A3F 		.word	1063939954
 2089 0700 C6C06A3F 		.word	1063960774
 2090 0704 2B126B3F 		.word	1063981611
 2091 0708 B2636B3F 		.word	1064002482
 2092 070c 5BB56B3F 		.word	1064023387
 2093 0710 14076C3F 		.word	1064044308
 2094 0714 EF586C3F 		.word	1064065263
 2095 0718 EBAA6C3F 		.word	1064086251
 2096 071c F8FC6C3F 		.word	1064107256
 2097 0720 374F6D3F 		.word	1064128311
 2098 0724 77A16D3F 		.word	1064149367
 2099 0728 E9F36D3F 		.word	1064170473
 2100 072c 6B466E3F 		.word	1064191595
 2101 0730 0F996E3F 		.word	1064212751
 2102 0734 D5EB6E3F 		.word	1064233941
 2103 0738 AB3E6F3F 		.word	1064255147
 2104 073c A3916F3F 		.word	1064276387
 2105 0740 BDE46F3F 		.word	1064297661
 2106 0744 E737703F 		.word	1064318951
 2107 0748 448B703F 		.word	1064340292
 2108 074c A0DE703F 		.word	1064361632
 2109 0750 2F32713F 		.word	1064383023
 2110 0754 CF85713F 		.word	1064404431
 2111 0758 A1D9713F 		.word	1064425889
 2112 075c 732D723F 		.word	1064447347
 2113 0760 7781723F 		.word	1064468855
 2114 0764 8DD5723F 		.word	1064490381
 2115 0768 C329733F 		.word	1064511939
 2116 076c 1C7E733F 		.word	1064533532
 2117 0770 95D2733F 		.word	1064555157
 2118 0774 2027743F 		.word	1064576800
 2119 0778 CC7B743F 		.word	1064598476
 2120 077c 9AD0743F 		.word	1064620186
 2121 0780 7825753F 		.word	1064641912
 2122 0784 897A753F 		.word	1064663689
 2123 0788 ABCF753F 		.word	1064685483
 2124 078c DD24763F 		.word	1064707293
 2125 0790 427A763F 		.word	1064729154
 2126 0794 B7CF763F 		.word	1064751031
 2127 0798 4E25773F 		.word	1064772942
 2128 079c 077B773F 		.word	1064794887
 2129 07a0 E1D0773F 		.word	1064816865
 2130 07a4 CC26783F 		.word	1064838860
ARM GAS  /var/folders/0z/tsy30v1j4xl4_7kw94k978ww0000gn/T//ccDRKxZB.s 			page 48


 2131 07a8 D97C783F 		.word	1064860889
 2132 07ac 07D3783F 		.word	1064882951
 2133 07b0 5629793F 		.word	1064905046
 2134 07b4 C77F793F 		.word	1064927175
 2135 07b8 49D6793F 		.word	1064949321
 2136 07bc ED2C7A3F 		.word	1064971501
 2137 07c0 B2837A3F 		.word	1064993714
 2138 07c4 98DA7A3F 		.word	1065015960
 2139 07c8 90317B3F 		.word	1065038224
 2140 07cc B9887B3F 		.word	1065060537
 2141 07d0 F4DF7B3F 		.word	1065082868
 2142 07d4 50377C3F 		.word	1065105232
 2143 07d8 BD8E7C3F 		.word	1065127613
 2144 07dc 5CE67C3F 		.word	1065150044
 2145 07e0 0C3E7D3F 		.word	1065172492
 2146 07e4 DD957D3F 		.word	1065194973
 2147 07e8 D0ED7D3F 		.word	1065217488
 2148 07ec E5457E3F 		.word	1065240037
 2149 07f0 0A9E7E3F 		.word	1065262602
 2150 07f4 62F67E3F 		.word	1065285218
 2151 07f8 CA4E7F3F 		.word	1065307850
 2152 07fc 54A77F3F 		.word	1065330516
 2153 0800 0000803F 		.word	1065353216
 2154 0804 772C803F 		.word	1065364599
 2155 0808 0859803F 		.word	1065376008
 2156 080c A185803F 		.word	1065387425
 2157 0810 4AB2803F 		.word	1065398858
 2158 0814 FCDE803F 		.word	1065410300
 2159 0818 C80B813F 		.word	1065421768
 2160 081c 9B38813F 		.word	1065433243
 2161 0820 8865813F 		.word	1065444744
 2162 0824 7D92813F 		.word	1065456253
 2163 0828 83BF813F 		.word	1065467779
 2164 082c 9AEC813F 		.word	1065479322
 2165 0830 C119823F 		.word	1065490881
 2166 0834 F146823F 		.word	1065502449
 2167 0838 3A74823F 		.word	1065514042
 2168 083c 8CA1823F 		.word	1065525644
 2169 0840 EECE823F 		.word	1065537262
 2170 0844 69FC823F 		.word	1065548905
 2171 0848 ED29833F 		.word	1065560557
 2172 084c 8257833F 		.word	1065572226
 2173 0850 1F85833F 		.word	1065583903
 2174 0854 D5B2833F 		.word	1065595605
 2175 0858 9CE0833F 		.word	1065607324
 2176 085c 6B0E843F 		.word	1065619051
 2177 0860 533C843F 		.word	1065630803
 2178 0864 446A843F 		.word	1065642564
 2179 0868 4698843F 		.word	1065654342
 2180 086c 58C6843F 		.word	1065666136
 2181 0870 7BF4843F 		.word	1065677947
 2182 0874 AF22853F 		.word	1065689775
 2183 0878 F450853F 		.word	1065701620
 2184 087c 4A7F853F 		.word	1065713482
 2185 0880 A7AD853F 		.word	1065725351
 2186 0884 1EDC853F 		.word	1065737246
 2187 0888 9E0A863F 		.word	1065749150
ARM GAS  /var/folders/0z/tsy30v1j4xl4_7kw94k978ww0000gn/T//ccDRKxZB.s 			page 49


 2188 088c 3739863F 		.word	1065761079
 2189 0890 D767863F 		.word	1065773015
 2190 0894 9296863F 		.word	1065784978
 2191 0898 54C5863F 		.word	1065796948
 2192 089c 28F4863F 		.word	1065808936
 2193 08a0 0C23873F 		.word	1065820940
 2194 08a4 0052873F 		.word	1065832960
 2195 08a8 0681873F 		.word	1065844998
 2196 08ac 1DB0873F 		.word	1065857053
 2197 08b0 44DF873F 		.word	1065869124
 2198 08b4 7C0E883F 		.word	1065881212
 2199 08b8 C53D883F 		.word	1065893317
 2200 08bc 166D883F 		.word	1065905430
 2201 08c0 809C883F 		.word	1065917568
 2202 08c4 FBCB883F 		.word	1065929723
 2203 08c8 7FFB883F 		.word	1065941887
 2204 08cc 1B2B893F 		.word	1065954075
 2205 08d0 C95A893F 		.word	1065966281
 2206 08d4 7E8A893F 		.word	1065978494
 2207 08d8 4DBA893F 		.word	1065990733
 2208 08dc 25EA893F 		.word	1066002981
 2209 08e0 151A8A3F 		.word	1066015253
 2210 08e4 0E4A8A3F 		.word	1066027534
 2211 08e8 207A8A3F 		.word	1066039840
 2212 08ec 3BAA8A3F 		.word	1066052155
 2213 08f0 6EDA8A3F 		.word	1066064494
 2214 08f4 AA0A8B3F 		.word	1066076842
 2215 08f8 003B8B3F 		.word	1066089216
 2216 08fc 5D6B8B3F 		.word	1066101597
 2217 0900 D49B8B3F 		.word	1066114004
 2218 0904 53CC8B3F 		.word	1066126419
 2219 0908 EBFC8B3F 		.word	1066138859
 2220 090c 8C2D8C3F 		.word	1066151308
 2221 0910 465E8C3F 		.word	1066163782
 2222 0914 088F8C3F 		.word	1066176264
 2223 0918 E4BF8C3F 		.word	1066188772
 2224 091c C7F08C3F 		.word	1066201287
 2225 0920 C4218D3F 		.word	1066213828
 2226 0924 D2528D3F 		.word	1066226386
 2227 0928 E8838D3F 		.word	1066238952
 2228 092c 18B58D3F 		.word	1066251544
 2229 0930 58E68D3F 		.word	1066264152
 2230 0934 A0178E3F 		.word	1066276768
 2231 0938 02498E3F 		.word	1066289410
 2232 093c 747A8E3F 		.word	1066302068
 2233 0940 F7AB8E3F 		.word	1066314743
 2234 0944 8BDD8E3F 		.word	1066327435
 2235 0948 300F8F3F 		.word	1066340144
 2236 094c E6408F3F 		.word	1066352870
 2237 0950 AC728F3F 		.word	1066365612
 2238 0954 83A48F3F 		.word	1066378371
 2239 0958 73D68F3F 		.word	1066391155
 2240 095c 6C08903F 		.word	1066403948
 2241 0960 753A903F 		.word	1066416757
 2242 0964 986C903F 		.word	1066429592
 2243 0968 C39E903F 		.word	1066442435
 2244 096c 07D1903F 		.word	1066455303
ARM GAS  /var/folders/0z/tsy30v1j4xl4_7kw94k978ww0000gn/T//ccDRKxZB.s 			page 50


 2245 0970 5C03913F 		.word	1066468188
 2246 0974 B935913F 		.word	1066481081
 2247 0978 3068913F 		.word	1066494000
 2248 097c B79A913F 		.word	1066506935
 2249 0980 4FCD913F 		.word	1066519887
 2250 0984 F8FF913F 		.word	1066532856
 2251 0988 BA32923F 		.word	1066545850
 2252 098c 8465923F 		.word	1066558852
 2253 0990 6798923F 		.word	1066571879
 2254 0994 53CB923F 		.word	1066584915
 2255 0998 58FE923F 		.word	1066597976
 2256 099c 6E31933F 		.word	1066611054
 2257 09a0 8C64933F 		.word	1066624140
 2258 09a4 C497933F 		.word	1066637252
 2259 09a8 14CB933F 		.word	1066650388
 2260 09ac 6DFE933F 		.word	1066663533
 2261 09b0 D731943F 		.word	1066676695
 2262 09b4 5A65943F 		.word	1066689882
 2263 09b8 E598943F 		.word	1066703077
 2264 09bc 8ACC943F 		.word	1066716298
 2265 09c0 3F00953F 		.word	1066729535
 2266 09c4 0534953F 		.word	1066742789
 2267 09c8 E467953F 		.word	1066756068
 2268 09cc CC9B953F 		.word	1066769356
 2269 09d0 C4CF953F 		.word	1066782660
 2270 09d4 D503963F 		.word	1066795989
 2271 09d8 F837963F 		.word	1066809336
 2272 09dc 2B6C963F 		.word	1066822699
 2273 09e0 6FA0963F 		.word	1066836079
 2274 09e4 C3D4963F 		.word	1066849475
 2275 09e8 3109973F 		.word	1066862897
 2276 09ec B03D973F 		.word	1066876336
 2277 09f0 3672973F 		.word	1066889782
 2278 09f4 D7A6973F 		.word	1066903255
 2279 09f8 90DB973F 		.word	1066916752
 2280 09fc 5210983F 		.word	1066930258
 2281 0a00 2445983F 		.word	1066943780
 2282 0a04 107A983F 		.word	1066957328
 2283 0a08 0CAF983F 		.word	1066970892
 2284 0a0c 19E4983F 		.word	1066984473
 2285 0a10 3F19993F 		.word	1066998079
 2286 0a14 6E4E993F 		.word	1067011694
 2287 0a18 B683993F 		.word	1067025334
 2288 0a1c 0FB9993F 		.word	1067038991
 2289 0a20 78EE993F 		.word	1067052664
 2290 0a24 F2239A3F 		.word	1067066354
 2291 0a28 86599A3F 		.word	1067080070
 2292 0a2c 2A8F9A3F 		.word	1067093802
 2293 0a30 DFC49A3F 		.word	1067107551
 2294 0a34 A4FA9A3F 		.word	1067121316
 2295 0a38 7B309B3F 		.word	1067135099
 2296 0a3c 6B669B3F 		.word	1067148907
 2297 0a40 6B9C9B3F 		.word	1067162731
 2298 0a44 7CD29B3F 		.word	1067176572
 2299 0a48 A7089C3F 		.word	1067190439
 2300 0a4c D93E9C3F 		.word	1067204313
 2301 0a50 25759C3F 		.word	1067218213
ARM GAS  /var/folders/0z/tsy30v1j4xl4_7kw94k978ww0000gn/T//ccDRKxZB.s 			page 51


 2302 0a54 82AB9C3F 		.word	1067232130
 2303 0a58 F8E19C3F 		.word	1067246072
 2304 0a5c 76189D3F 		.word	1067260022
 2305 0a60 0E4F9D3F 		.word	1067273998
 2306 0a64 BE859D3F 		.word	1067287998
 2307 0a68 77BC9D3F 		.word	1067302007
 2308 0a6c 49F39D3F 		.word	1067316041
 2309 0a70 2C2A9E3F 		.word	1067330092
 2310 0a74 20619E3F 		.word	1067344160
 2311 0a78 24989E3F 		.word	1067358244
 2312 0a7c 42CF9E3F 		.word	1067372354
 2313 0a80 70069F3F 		.word	1067386480
 2314 0a84 B83D9F3F 		.word	1067400632
 2315 0a88 08759F3F 		.word	1067414792
 2316 0a8c 71AC9F3F 		.word	1067428977
 2317 0a90 F3E39F3F 		.word	1067443187
 2318 0a94 7E1BA03F 		.word	1067457406
 2319 0a98 2253A03F 		.word	1067471650
 2320 0a9c D78AA03F 		.word	1067485911
 2321 0aa0 A4C2A03F 		.word	1067500196
 2322 0aa4 7BFAA03F 		.word	1067514491
 2323 0aa8 7232A13F 		.word	1067528818
 2324 0aac 726AA13F 		.word	1067543154
 2325 0ab0 8CA2A13F 		.word	1067557516
 2326 0ab4 B6DAA13F 		.word	1067571894
 2327 0ab8 F112A23F 		.word	1067586289
 2328 0abc 454BA23F 		.word	1067600709
 2329 0ac0 A983A23F 		.word	1067615145
 2330 0ac4 1FBCA23F 		.word	1067629599
 2331 0ac8 AEF4A23F 		.word	1067644078
 2332 0acc 4D2DA33F 		.word	1067658573
 2333 0ad0 FE65A33F 		.word	1067673086
 2334 0ad4 C79EA33F 		.word	1067687623
 2335 0ad8 A1D7A33F 		.word	1067702177
 2336 0adc 9510A43F 		.word	1067716757
 2337 0ae0 9949A43F 		.word	1067731353
 2338 0ae4 AE82A43F 		.word	1067745966
 2339 0ae8 D4BBA43F 		.word	1067760596
 2340 0aec 12F5A43F 		.word	1067775250
 2341 0af0 622EA53F 		.word	1067789922
 2342 0af4 CB67A53F 		.word	1067804619
 2343 0af8 45A1A53F 		.word	1067819333
 2344 0afc D7DAA53F 		.word	1067834071
 2345 0b00 7214A63F 		.word	1067848818
 2346 0b04 2F4EA63F 		.word	1067863599
 2347 0b08 F487A63F 		.word	1067878388
 2348 0b0c D3C1A63F 		.word	1067893203
 2349 0b10 CAFBA63F 		.word	1067908042
 2350 0b14 CA35A73F 		.word	1067922890
 2351 0b18 E36FA73F 		.word	1067937763
 2352 0b1c 15AAA73F 		.word	1067952661
 2353 0b20 58E4A73F 		.word	1067967576
 2354 0b24 AC1EA83F 		.word	1067982508
 2355 0b28 1959A83F 		.word	1067997465
 2356 0b2c 9693A83F 		.word	1068012438
 2357 0b30 2DCEA83F 		.word	1068027437
 2358 0b34 D508A93F 		.word	1068042453
ARM GAS  /var/folders/0z/tsy30v1j4xl4_7kw94k978ww0000gn/T//ccDRKxZB.s 			page 52


 2359 0b38 9643A93F 		.word	1068057494
 2360 0b3c 677EA93F 		.word	1068072551
 2361 0b40 49B9A93F 		.word	1068087625
 2362 0b44 45F4A93F 		.word	1068102725
 2363 0b48 512FAA3F 		.word	1068117841
 2364 0b4c 776AAA3F 		.word	1068132983
 2365 0b50 ADA5AA3F 		.word	1068148141
 2366 0b54 FCE0AA3F 		.word	1068163324
 2367 0b58 5C1CAB3F 		.word	1068178524
 2368 0b5c CD57AB3F 		.word	1068193741
 2369 0b60 5793AB3F 		.word	1068208983
 2370 0b64 FBCEAB3F 		.word	1068224251
 2371 0b68 AF0AAC3F 		.word	1068239535
 2372 0b6c 7446AC3F 		.word	1068254836
 2373 0b70 5182AC3F 		.word	1068270161
 2374 0b74 40BEAC3F 		.word	1068285504
 2375 0b78 48FAAC3F 		.word	1068300872
 2376 0b7c 6936AD3F 		.word	1068316265
 2377 0b80 9372AD3F 		.word	1068331667
 2378 0b84 DEAEAD3F 		.word	1068347102
 2379 0b88 3AEBAD3F 		.word	1068362554
 2380 0b8c A627AE3F 		.word	1068378022
 2381 0b90 2C64AE3F 		.word	1068393516
 2382 0b94 C3A0AE3F 		.word	1068409027
 2383 0b98 72DDAE3F 		.word	1068424562
 2384 0b9c 331AAF3F 		.word	1068440115
 2385 0ba0 0C57AF3F 		.word	1068455692
 2386 0ba4 FF93AF3F 		.word	1068471295
 2387 0ba8 FAD0AF3F 		.word	1068486906
 2388 0bac 170EB03F 		.word	1068502551
 2389 0bb0 454BB03F 		.word	1068518213
 2390 0bb4 8388B03F 		.word	1068533891
 2391 0bb8 DAC5B03F 		.word	1068549594
 2392 0bbc 4B03B13F 		.word	1068565323
 2393 0bc0 CC40B13F 		.word	1068581068
 2394 0bc4 677EB13F 		.word	1068596839
 2395 0bc8 12BCB13F 		.word	1068612626
 2396 0bcc D7F9B13F 		.word	1068628439
 2397 0bd0 AC37B23F 		.word	1068644268
 2398 0bd4 9B75B23F 		.word	1068660123
 2399 0bd8 A2B3B23F 		.word	1068676002
 2400 0bdc BBF1B23F 		.word	1068691899
 2401 0be0 E42FB33F 		.word	1068707812
 2402 0be4 266EB33F 		.word	1068723750
 2403 0be8 82ACB33F 		.word	1068739714
 2404 0bec EEEAB33F 		.word	1068755694
 2405 0bf0 7429B43F 		.word	1068771700
 2406 0bf4 1268B43F 		.word	1068787730
 2407 0bf8 C2A6B43F 		.word	1068803778
 2408 0bfc 8AE5B43F 		.word	1068819850
 2409 0c00 6424B53F 		.word	1068835940
 2410 0c04 5663B53F 		.word	1068852054
 2411 0c08 59A2B53F 		.word	1068868185
 2412 0c0c 7EE1B53F 		.word	1068884350
 2413 0c10 AB20B63F 		.word	1068900523
 2414 0c14 FA5FB63F 		.word	1068916730
 2415 0c18 5A9FB63F 		.word	1068932954
ARM GAS  /var/folders/0z/tsy30v1j4xl4_7kw94k978ww0000gn/T//ccDRKxZB.s 			page 53


 2416 0c1c CADEB63F 		.word	1068949194
 2417 0c20 5C1EB73F 		.word	1068965468
 2418 0c24 F65DB73F 		.word	1068981750
 2419 0c28 B29DB73F 		.word	1068998066
 2420 0c2c 7FDDB73F 		.word	1069014399
 2421 0c30 651DB83F 		.word	1069030757
 2422 0c34 5B5DB83F 		.word	1069047131
 2423 0c38 6B9DB83F 		.word	1069063531
 2424 0c3c 94DDB83F 		.word	1069079956
 2425 0c40 D61DB93F 		.word	1069096406
 2426 0c44 295EB93F 		.word	1069112873
 2427 0c48 8C9EB93F 		.word	1069129356
 2428 0c4c 11DFB93F 		.word	1069145873
 2429 0c50 A71FBA3F 		.word	1069162407
 2430 0c54 5760BA3F 		.word	1069178967
 2431 0c58 16A1BA3F 		.word	1069195542
 2432 0c5c EFE1BA3F 		.word	1069212143
 2433 0c60 E222BB3F 		.word	1069228770
 2434 0c64 E563BB3F 		.word	1069245413
 2435 0c68 09A5BB3F 		.word	1069262089
 2436 0c6c 36E6BB3F 		.word	1069278774
 2437 0c70 8527BC3F 		.word	1069295493
 2438 0c74 E468BC3F 		.word	1069312228
 2439 0c78 5CAABC3F 		.word	1069328988
 2440 0c7c EEEBBC3F 		.word	1069345774
 2441 0c80 902DBD3F 		.word	1069362576
 2442 0c84 546FBD3F 		.word	1069379412
 2443 0c88 21B1BD3F 		.word	1069396257
 2444 0c8c 0EF3BD3F 		.word	1069413134
 2445 0c90 0D35BE3F 		.word	1069430029
 2446 0c94 2577BE3F 		.word	1069446949
 2447 0c98 56B9BE3F 		.word	1069463894
 2448 0c9c A0FBBE3F 		.word	1069480864
 2449 0ca0 FB3DBF3F 		.word	1069497851
 2450 0ca4 6F80BF3F 		.word	1069514863
 2451 0ca8 FCC2BF3F 		.word	1069531900
 2452 0cac 9A05C03F 		.word	1069548954
 2453 0cb0 5A48C03F 		.word	1069566042
 2454 0cb4 2A8BC03F 		.word	1069583146
 2455 0cb8 0CCEC03F 		.word	1069600268
 2456 0cbc 0E11C13F 		.word	1069617422
 2457 0cc0 2254C13F 		.word	1069634594
 2458 0cc4 5797C13F 		.word	1069651799
 2459 0cc8 94DAC13F 		.word	1069669012
 2460 0ccc F31DC23F 		.word	1069686259
 2461 0cd0 6B61C23F 		.word	1069703531
 2462 0cd4 F4A4C23F 		.word	1069720820
 2463 0cd8 96E8C23F 		.word	1069738134
 2464 0cdc 522CC33F 		.word	1069755474
 2465 0ce0 2670C33F 		.word	1069772838
 2466 0ce4 0BB4C33F 		.word	1069790219
 2467 0ce8 12F8C33F 		.word	1069807634
 2468 0cec 293CC43F 		.word	1069825065
 2469 0cf0 5A80C43F 		.word	1069842522
 2470 0cf4 9CC4C43F 		.word	1069859996
 2471 0cf8 FF08C53F 		.word	1069877503
 2472 0cfc 7B4DC53F 		.word	1069895035
ARM GAS  /var/folders/0z/tsy30v1j4xl4_7kw94k978ww0000gn/T//ccDRKxZB.s 			page 54


 2473 0d00 0892C53F 		.word	1069912584
 2474 0d04 AED6C53F 		.word	1069930158
 2475 0d08 6D1BC63F 		.word	1069947757
 2476 0d0c 4660C63F 		.word	1069965382
 2477 0d10 2FA5C63F 		.word	1069983023
 2478 0d14 3AEAC63F 		.word	1070000698
 2479 0d18 552FC73F 		.word	1070018389
 2480 0d1c 9274C73F 		.word	1070036114
 2481 0d20 E0B9C73F 		.word	1070053856
 2482 0d24 47FFC73F 		.word	1070071623
 2483 0d28 C844C83F 		.word	1070089416
 2484 0d2c 598AC83F 		.word	1070107225
 2485 0d30 0BD0C83F 		.word	1070125067
 2486 0d34 CF15C93F 		.word	1070142927
 2487 0d38 B45BC93F 		.word	1070160820
 2488 0d3c A9A1C93F 		.word	1070178729
 2489 0d40 B8E7C93F 		.word	1070196664
 2490 0d44 E02DCA3F 		.word	1070214624
 2491 0d48 2174CA3F 		.word	1070232609
 2492 0d4c 7CBACA3F 		.word	1070250620
 2493 0d50 EF00CB3F 		.word	1070268655
 2494 0d54 7C47CB3F 		.word	1070286716
 2495 0d58 228ECB3F 		.word	1070304802
 2496 0d5c D8D4CB3F 		.word	1070322904
 2497 0d60 B01BCC3F 		.word	1070341040
 2498 0d64 9962CC3F 		.word	1070359193
 2499 0d68 A4A9CC3F 		.word	1070377380
 2500 0d6c BFF0CC3F 		.word	1070395583
 2501 0d70 F437CD3F 		.word	1070413812
 2502 0d74 417FCD3F 		.word	1070432065
 2503 0d78 B0C6CD3F 		.word	1070450352
 2504 0d7c 300ECE3F 		.word	1070468656
 2505 0d80 C955CE3F 		.word	1070486985
 2506 0d84 7C9DCE3F 		.word	1070505340
 2507 0d88 47E5CE3F 		.word	1070523719
 2508 0d8c 2C2DCF3F 		.word	1070542124
 2509 0d90 2975CF3F 		.word	1070560553
 2510 0d94 40BDCF3F 		.word	1070579008
 2511 0d98 7105D03F 		.word	1070597489
 2512 0d9c BA4DD03F 		.word	1070615994
 2513 0da0 1C96D03F 		.word	1070634524
 2514 0da4 98DED03F 		.word	1070653080
 2515 0da8 2D27D13F 		.word	1070671661
 2516 0dac DB6FD13F 		.word	1070690267
 2517 0db0 A2B8D13F 		.word	1070708898
 2518 0db4 8201D23F 		.word	1070727554
 2519 0db8 7B4AD23F 		.word	1070746235
 2520 0dbc 8E93D23F 		.word	1070764942
 2521 0dc0 BADCD23F 		.word	1070783674
 2522 0dc4 FF25D33F 		.word	1070802431
 2523 0dc8 5D6FD33F 		.word	1070821213
 2524 0dcc D4B8D33F 		.word	1070840020
 2525 0dd0 6402D43F 		.word	1070858852
 2526 0dd4 164CD43F 		.word	1070877718
 2527 0dd8 D995D43F 		.word	1070896601
 2528 0ddc B5DFD43F 		.word	1070915509
 2529 0de0 B329D53F 		.word	1070934451
ARM GAS  /var/folders/0z/tsy30v1j4xl4_7kw94k978ww0000gn/T//ccDRKxZB.s 			page 55


 2530 0de4 C173D53F 		.word	1070953409
 2531 0de8 F1BDD53F 		.word	1070972401
 2532 0dec 3108D63F 		.word	1070991409
 2533 0df0 9352D63F 		.word	1071010451
 2534 0df4 0F9DD63F 		.word	1071029519
 2535 0df8 A3E7D63F 		.word	1071048611
 2536 0dfc 5132D73F 		.word	1071067729
 2537 0e00 187DD73F 		.word	1071086872
 2538 0e04 F7C7D73F 		.word	1071106039
 2539 0e08 F112D83F 		.word	1071125233
 2540 0e0c 035ED83F 		.word	1071144451
 2541 0e10 37A9D83F 		.word	1071163703
 2542 0e14 7BF4D83F 		.word	1071182971
 2543 0e18 E23FD93F 		.word	1071202274
 2544 0e1c 618BD93F 		.word	1071221601
 2545 0e20 F9D6D93F 		.word	1071240953
 2546 0e24 AB22DA3F 		.word	1071260331
 2547 0e28 766EDA3F 		.word	1071279734
 2548 0e2c 62BADA3F 		.word	1071299170
 2549 0e30 6006DB3F 		.word	1071318624
 2550 0e34 7E52DB3F 		.word	1071338110
 2551 0e38 AE9EDB3F 		.word	1071357614
 2552 0e3c FFEADB3F 		.word	1071377151
 2553 0e40 7237DC3F 		.word	1071396722
 2554 0e44 F583DC3F 		.word	1071416309
 2555 0e48 91D0DC3F 		.word	1071435921
 2556 0e4c 501DDD3F 		.word	1071455568
 2557 0e50 276ADD3F 		.word	1071475239
 2558 0e54 17B7DD3F 		.word	1071494935
 2559 0e58 2104DE3F 		.word	1071514657
 2560 0e5c 4451DE3F 		.word	1071534404
 2561 0e60 889EDE3F 		.word	1071554184
 2562 0e64 E6EBDE3F 		.word	1071573990
 2563 0e68 5439DF3F 		.word	1071593812
 2564 0e6c EC86DF3F 		.word	1071613676
 2565 0e70 95D4DF3F 		.word	1071633557
 2566 0e74 6022E03F 		.word	1071653472
 2567 0e78 3B70E03F 		.word	1071673403
 2568 0e7c 40BEE03F 		.word	1071693376
 2569 0e80 560CE13F 		.word	1071713366
 2570 0e84 865AE13F 		.word	1071733382
 2571 0e88 D6A8E13F 		.word	1071753430
 2572 0e8c 40F7E13F 		.word	1071773504
 2573 0e90 C345E23F 		.word	1071793603
 2574 0e94 6894E23F 		.word	1071813736
 2575 0e98 26E3E23F 		.word	1071833894
 2576 0e9c FD31E33F 		.word	1071854077
 2577 0ea0 ED80E33F 		.word	1071874285
 2578 0ea4 F6CFE33F 		.word	1071894518
 2579 0ea8 211FE43F 		.word	1071914785
 2580 0eac 656EE43F 		.word	1071935077
 2581 0eb0 CBBDE43F 		.word	1071955403
 2582 0eb4 410DE53F 		.word	1071975745
 2583 0eb8 D95CE53F 		.word	1071996121
 2584 0ebc 93ACE53F 		.word	1072016531
 2585 0ec0 5DFCE53F 		.word	1072036957
 2586 0ec4 494CE63F 		.word	1072057417
ARM GAS  /var/folders/0z/tsy30v1j4xl4_7kw94k978ww0000gn/T//ccDRKxZB.s 			page 56


 2587 0ec8 4E9CE63F 		.word	1072077902
 2588 0ecc 74ECE63F 		.word	1072098420
 2589 0ed0 B43CE73F 		.word	1072118964
 2590 0ed4 0D8DE73F 		.word	1072139533
 2591 0ed8 7FDDE73F 		.word	1072160127
 2592 0edc 122EE83F 		.word	1072180754
 2593 0ee0 BF7EE83F 		.word	1072201407
 2594 0ee4 8DCFE83F 		.word	1072222093
 2595 0ee8 7520E93F 		.word	1072242805
 2596 0eec 7671E93F 		.word	1072263542
 2597 0ef0 8FC2E93F 		.word	1072284303
 2598 0ef4 CB13EA3F 		.word	1072305099
 2599 0ef8 2865EA3F 		.word	1072325928
 2600 0efc 95B6EA3F 		.word	1072346773
 2601 0f00 2508EB3F 		.word	1072367653
 2602 0f04 D559EB3F 		.word	1072388565
 2603 0f08 97ABEB3F 		.word	1072409495
 2604 0f0c 7AFDEB3F 		.word	1072430458
 2605 0f10 7F4FEC3F 		.word	1072451455
 2606 0f14 9DA1EC3F 		.word	1072472477
 2607 0f18 D4F3EC3F 		.word	1072493524
 2608 0f1c 2C46ED3F 		.word	1072514604
 2609 0f20 9E98ED3F 		.word	1072535710
 2610 0f24 31EBED3F 		.word	1072556849
 2611 0f28 DE3DEE3F 		.word	1072578014
 2612 0f2c A390EE3F 		.word	1072599203
 2613 0f30 8AE3EE3F 		.word	1072620426
 2614 0f34 8B36EF3F 		.word	1072641675
 2615 0f38 AD89EF3F 		.word	1072662957
 2616 0f3c E8DCEF3F 		.word	1072684264
 2617 0f40 4430F03F 		.word	1072705604
 2618 0f44 BA83F03F 		.word	1072726970
 2619 0f48 52D7F03F 		.word	1072748370
 2620 0f4c 022BF13F 		.word	1072769794
 2621 0f50 CC7EF13F 		.word	1072791244
 2622 0f54 B7D2F13F 		.word	1072812727
 2623 0f58 BB26F23F 		.word	1072834235
 2624 0f5c E17AF23F 		.word	1072855777
 2625 0f60 29CFF23F 		.word	1072877353
 2626 0f64 8123F33F 		.word	1072898945
 2627 0f68 0378F33F 		.word	1072920579
 2628 0f6c 9FCCF33F 		.word	1072942239
 2629 0f70 5321F43F 		.word	1072963923
 2630 0f74 2976F43F 		.word	1072985641
 2631 0f78 19CBF43F 		.word	1073007385
 2632 0f7c 2920F53F 		.word	1073029161
 2633 0f80 5C75F53F 		.word	1073050972
 2634 0f84 A7CAF53F 		.word	1073072807
 2635 0f88 0C20F63F 		.word	1073094668
 2636 0f8c 9275F63F 		.word	1073116562
 2637 0f90 3ACBF63F 		.word	1073138490
 2638 0f94 FB20F73F 		.word	1073160443
 2639 0f98 D576F73F 		.word	1073182421
 2640 0f9c D9CCF73F 		.word	1073204441
 2641 0fa0 EE22F83F 		.word	1073226478
 2642 0fa4 2D79F83F 		.word	1073248557
 2643 0fa8 85CFF83F 		.word	1073270661
ARM GAS  /var/folders/0z/tsy30v1j4xl4_7kw94k978ww0000gn/T//ccDRKxZB.s 			page 57


 2644 0fac F625F93F 		.word	1073292790
 2645 0fb0 897CF93F 		.word	1073314953
 2646 0fb4 3DD3F93F 		.word	1073337149
 2647 0fb8 0B2AFA3F 		.word	1073359371
 2648 0fbc FA80FA3F 		.word	1073381626
 2649 0fc0 0AD8FA3F 		.word	1073403914
 2650 0fc4 342FFB3F 		.word	1073426228
 2651 0fc8 7786FB3F 		.word	1073448567
 2652 0fcc E3DDFB3F 		.word	1073470947
 2653 0fd0 6935FC3F 		.word	1073493353
 2654 0fd4 098DFC3F 		.word	1073515785
 2655 0fd8 C9E4FC3F 		.word	1073538249
 2656 0fdc AC3CFD3F 		.word	1073560748
 2657 0fe0 AF94FD3F 		.word	1073583279
 2658 0fe4 CCECFD3F 		.word	1073605836
 2659 0fe8 0245FE3F 		.word	1073628418
 2660 0fec 629DFE3F 		.word	1073651042
 2661 0ff0 DCF5FE3F 		.word	1073673692
 2662 0ff4 774EFF3F 		.word	1073696375
 2663 0ff8 2AA7FF3F 		.word	1073719082
 2664 0ffc 00000040 		.word	1073741824
 2665              		.text
 2666              	.Letext0:
 2667              		.file 3 "/Users/johannes/Library/Application Support/Code/User/globalStorage/bmd.stm32-for-vscode/
 2668              		.file 4 "/Users/johannes/Library/Application Support/Code/User/globalStorage/bmd.stm32-for-vscode/
 2669              		.file 5 "Drivers/CMSIS/Device/ST/STM32F4xx/Include/stm32f407xx.h"
 2670              		.file 6 "Drivers/STM32F4xx_HAL_Driver/Inc/stm32f4xx_hal_def.h"
 2671              		.file 7 "Drivers/STM32F4xx_HAL_Driver/Inc/stm32f4xx_hal_dma.h"
 2672              		.file 8 "Drivers/STM32F4xx_HAL_Driver/Inc/stm32f4xx_hal_i2s.h"
 2673              		.file 9 "Core/Inc/audio.h"
 2674              		.file 10 "Core/Inc/oscillators.h"
 2675              		.file 11 "Core/Inc/ADSR_envelope.h"
 2676              		.file 12 "Core/Inc/ladder_filter.h"
 2677              		.file 13 "Core/Inc/MIDI_lut.h"
 2678              		.file 14 "Core/Inc/stereo_delay.h"
 2679              		.file 15 "Core/Inc/../../Drivers/BSP/STM32F4-Discovery/stm32f4_discovery_audio.h"
ARM GAS  /var/folders/0z/tsy30v1j4xl4_7kw94k978ww0000gn/T//ccDRKxZB.s 			page 58


DEFINED SYMBOLS
                            *ABS*:0000000000000000 audio.c
/var/folders/0z/tsy30v1j4xl4_7kw94k978ww0000gn/T//ccDRKxZB.s:23     .text.audioBlock.constprop.0:0000000000000000 $t
/var/folders/0z/tsy30v1j4xl4_7kw94k978ww0000gn/T//ccDRKxZB.s:29     .text.audioBlock.constprop.0:0000000000000000 audioBlock.constprop.0
/var/folders/0z/tsy30v1j4xl4_7kw94k978ww0000gn/T//ccDRKxZB.s:565    .text.audioBlock.constprop.0:0000000000000238 $d
/var/folders/0z/tsy30v1j4xl4_7kw94k978ww0000gn/T//ccDRKxZB.s:593    .text.AUDIO_Init:0000000000000000 $t
/var/folders/0z/tsy30v1j4xl4_7kw94k978ww0000gn/T//ccDRKxZB.s:600    .text.AUDIO_Init:0000000000000000 AUDIO_Init
/var/folders/0z/tsy30v1j4xl4_7kw94k978ww0000gn/T//ccDRKxZB.s:717    .text.AUDIO_Init:00000000000000d0 $d
/var/folders/0z/tsy30v1j4xl4_7kw94k978ww0000gn/T//ccDRKxZB.s:734    .text.OpSetFreq:0000000000000000 $t
/var/folders/0z/tsy30v1j4xl4_7kw94k978ww0000gn/T//ccDRKxZB.s:741    .text.OpSetFreq:0000000000000000 OpSetFreq
/var/folders/0z/tsy30v1j4xl4_7kw94k978ww0000gn/T//ccDRKxZB.s:761    .text.OpSetFreq:0000000000000010 $d
/var/folders/0z/tsy30v1j4xl4_7kw94k978ww0000gn/T//ccDRKxZB.s:766    .text.audioBlock:0000000000000000 $t
/var/folders/0z/tsy30v1j4xl4_7kw94k978ww0000gn/T//ccDRKxZB.s:773    .text.audioBlock:0000000000000000 audioBlock
/var/folders/0z/tsy30v1j4xl4_7kw94k978ww0000gn/T//ccDRKxZB.s:1321   .text.audioBlock:0000000000000238 $d
/var/folders/0z/tsy30v1j4xl4_7kw94k978ww0000gn/T//ccDRKxZB.s:1347   .text.BSP_AUDIO_OUT_HalfTransfer_CallBack:0000000000000000 $t
/var/folders/0z/tsy30v1j4xl4_7kw94k978ww0000gn/T//ccDRKxZB.s:1354   .text.BSP_AUDIO_OUT_HalfTransfer_CallBack:0000000000000000 BSP_AUDIO_OUT_HalfTransfer_CallBack
/var/folders/0z/tsy30v1j4xl4_7kw94k978ww0000gn/T//ccDRKxZB.s:1368   .text.BSP_AUDIO_OUT_HalfTransfer_CallBack:0000000000000008 $d
/var/folders/0z/tsy30v1j4xl4_7kw94k978ww0000gn/T//ccDRKxZB.s:1373   .text.BSP_AUDIO_OUT_TransferComplete_CallBack:0000000000000000 $t
/var/folders/0z/tsy30v1j4xl4_7kw94k978ww0000gn/T//ccDRKxZB.s:1380   .text.BSP_AUDIO_OUT_TransferComplete_CallBack:0000000000000000 BSP_AUDIO_OUT_TransferComplete_CallBack
/var/folders/0z/tsy30v1j4xl4_7kw94k978ww0000gn/T//ccDRKxZB.s:1394   .text.BSP_AUDIO_OUT_TransferComplete_CallBack:0000000000000008 $d
/var/folders/0z/tsy30v1j4xl4_7kw94k978ww0000gn/T//ccDRKxZB.s:1399   .text.BSP_AUDIO_OUT_Error_CallBack:0000000000000000 $t
/var/folders/0z/tsy30v1j4xl4_7kw94k978ww0000gn/T//ccDRKxZB.s:1406   .text.BSP_AUDIO_OUT_Error_CallBack:0000000000000000 BSP_AUDIO_OUT_Error_CallBack
/var/folders/0z/tsy30v1j4xl4_7kw94k978ww0000gn/T//ccDRKxZB.s:1423   .text.DMA1_Stream7_IRQHandler:0000000000000000 $t
/var/folders/0z/tsy30v1j4xl4_7kw94k978ww0000gn/T//ccDRKxZB.s:1430   .text.DMA1_Stream7_IRQHandler:0000000000000000 DMA1_Stream7_IRQHandler
/var/folders/0z/tsy30v1j4xl4_7kw94k978ww0000gn/T//ccDRKxZB.s:1445   .text.DMA1_Stream7_IRQHandler:0000000000000008 $d
/var/folders/0z/tsy30v1j4xl4_7kw94k978ww0000gn/T//ccDRKxZB.s:1450   .text.DMA1_Stream3_IRQHandler:0000000000000000 $t
/var/folders/0z/tsy30v1j4xl4_7kw94k978ww0000gn/T//ccDRKxZB.s:1457   .text.DMA1_Stream3_IRQHandler:0000000000000000 DMA1_Stream3_IRQHandler
/var/folders/0z/tsy30v1j4xl4_7kw94k978ww0000gn/T//ccDRKxZB.s:1472   .text.DMA1_Stream3_IRQHandler:0000000000000008 $d
/var/folders/0z/tsy30v1j4xl4_7kw94k978ww0000gn/T//ccDRKxZB.s:1500   .bss.delayROut:0000000000000000 delayROut
/var/folders/0z/tsy30v1j4xl4_7kw94k978ww0000gn/T//ccDRKxZB.s:1493   .bss.delayLOut:0000000000000000 delayLOut
/var/folders/0z/tsy30v1j4xl4_7kw94k978ww0000gn/T//ccDRKxZB.s:1486   .bss.audioBuffer:0000000000000000 audioBuffer
/var/folders/0z/tsy30v1j4xl4_7kw94k978ww0000gn/T//ccDRKxZB.s:1640   .rodata.pbend:0000000000000000 pbend
/var/folders/0z/tsy30v1j4xl4_7kw94k978ww0000gn/T//ccDRKxZB.s:1507   .rodata.mtof:0000000000000000 mtof
/var/folders/0z/tsy30v1j4xl4_7kw94k978ww0000gn/T//ccDRKxZB.s:1482   .bss.audioBuffer:0000000000000000 $d
/var/folders/0z/tsy30v1j4xl4_7kw94k978ww0000gn/T//ccDRKxZB.s:1489   .bss.delayLOut:0000000000000000 $d
/var/folders/0z/tsy30v1j4xl4_7kw94k978ww0000gn/T//ccDRKxZB.s:1496   .bss.delayROut:0000000000000000 $d
/var/folders/0z/tsy30v1j4xl4_7kw94k978ww0000gn/T//ccDRKxZB.s:1503   .rodata.mtof:0000000000000000 $d
/var/folders/0z/tsy30v1j4xl4_7kw94k978ww0000gn/T//ccDRKxZB.s:1637   .rodata.pbend:0000000000000000 $d

UNDEFINED SYMBOLS
__aeabi_f2d
__aeabi_dsub
__aeabi_d2f
osc_polyblepSaw
osc_polyblepRect
ADSR_compute
clip
MoogLP_compute
pingpongDelay_compute
Moog_filter
currentPitch
osc1
osc2
osc3
osc4
sub_osc
adsr_filt
ARM GAS  /var/folders/0z/tsy30v1j4xl4_7kw94k978ww0000gn/T//ccDRKxZB.s 			page 59


adsr_amp
pot1_norm
pot2_norm
BSP_AUDIO_OUT_Init
BSP_AUDIO_OUT_Play
osc_init
ADSR_init
MoogLP_init
Delay_init
adsr_index
HAL_DMA_IRQHandler
hAudioOutI2s
hAudioInI2s
