ARM GAS  /var/folders/0z/tsy30v1j4xl4_7kw94k978ww0000gn/T//ccXLvwkV.s 			page 1


   1              		.cpu cortex-m4
   2              		.arch armv7e-m
   3              		.fpu fpv4-sp-d16
   4              		.eabi_attribute 27, 1
   5              		.eabi_attribute 28, 1
   6              		.eabi_attribute 20, 1
   7              		.eabi_attribute 21, 1
   8              		.eabi_attribute 23, 3
   9              		.eabi_attribute 24, 1
  10              		.eabi_attribute 25, 1
  11              		.eabi_attribute 26, 1
  12              		.eabi_attribute 30, 2
  13              		.eabi_attribute 34, 1
  14              		.eabi_attribute 18, 4
  15              		.file	"audio.c"
  16              		.text
  17              	.Ltext0:
  18              		.cfi_sections	.debug_frame
  19              		.section	.text.AUDIO_Init,"ax",%progbits
  20              		.align	1
  21              		.p2align 2,,3
  22              		.global	AUDIO_Init
  23              		.syntax unified
  24              		.thumb
  25              		.thumb_func
  27              	AUDIO_Init:
  28              	.LFB239:
  29              		.file 1 "Core/Src/audio.c"
   1:Core/Src/audio.c **** /**
   2:Core/Src/audio.c ****  * @file audio.c
   3:Core/Src/audio.c ****  * @author johannes regnier
   4:Core/Src/audio.c ****  * @brief Functions to make sound and main audio block function 
   5:Core/Src/audio.c ****  * @note  Essential initialization functions from Tom Erbe:	
   6:Core/Src/audio.c ****  * @note  http://synthnotes.ucsd.edu/wp4/index.php/2019/09/24/setting-up-the-stmf4-to-connect-to-th
   7:Core/Src/audio.c ****  * @version 0.1
   8:Core/Src/audio.c ****  * @date 2023-12-12
   9:Core/Src/audio.c ****  * 
  10:Core/Src/audio.c ****  * @copyright Copyright (c) 2023
  11:Core/Src/audio.c ****  * 
  12:Core/Src/audio.c ****  */
  13:Core/Src/audio.c **** 
  14:Core/Src/audio.c **** 
  15:Core/Src/audio.c **** #include <stdint.h>
  16:Core/Src/audio.c **** #include "audio.h"
  17:Core/Src/audio.c **** #include "oscillators.h"
  18:Core/Src/audio.c **** #include "ADSR_envelope.h"
  19:Core/Src/audio.c **** #include "ladder_filter.h"
  20:Core/Src/audio.c **** #include "bitcrusher.h"
  21:Core/Src/audio.c **** #include "flanger.h"
  22:Core/Src/audio.c **** #include "stereo_delay.h"
  23:Core/Src/audio.c **** #include "MIDI_lut.h"
  24:Core/Src/audio.c **** #include <stdint.h>
  25:Core/Src/audio.c **** #include "helper_functions.h"
  26:Core/Src/audio.c **** #include "stdlib.h"
  27:Core/Src/audio.c **** 
  28:Core/Src/audio.c **** 
  29:Core/Src/audio.c **** 
ARM GAS  /var/folders/0z/tsy30v1j4xl4_7kw94k978ww0000gn/T//ccXLvwkV.s 			page 2


  30:Core/Src/audio.c **** 
  31:Core/Src/audio.c **** 
  32:Core/Src/audio.c **** /**
  33:Core/Src/audio.c ****  * @brief Audio Buffer - x samples X 2 channels = 2 * x samples
  34:Core/Src/audio.c ****  * @note Channels are interleaved - LRLRLRLRLRLRLRLRLRLRLR - audioBuffer[frame << 1] audioBuffer[(f
  35:Core/Src/audio.c ****  */
  36:Core/Src/audio.c **** int16_t audioBuffer[BUFFER_SIZE]; 
  37:Core/Src/audio.c **** 
  38:Core/Src/audio.c **** 
  39:Core/Src/audio.c **** extern uint8_t currentPitch;
  40:Core/Src/audio.c **** extern uint8_t velocity, noteOn_velocity;
  41:Core/Src/audio.c **** extern ADSR_t adsr_amp, adsr_filt;
  42:Core/Src/audio.c **** extern ADSR_t adsr_index;
  43:Core/Src/audio.c **** extern ZDFLadder_t Moog_filter;
  44:Core/Src/audio.c **** extern oscillator_t osc1, osc2, osc3, osc4, sub_osc;
  45:Core/Src/audio.c **** extern float pot1_norm, pot2_norm, pot3_norm;
  46:Core/Src/audio.c **** extern uint16_t current_count;
  47:Core/Src/audio.c **** extern float delay_wet, feedback;
  48:Core/Src/audio.c **** 
  49:Core/Src/audio.c **** static float f0, f1;		// frequency of oscillators 1, 2, 3 and 4
  50:Core/Src/audio.c **** static float f_sub ;		// frequency of sub oscillator (osc 5)
  51:Core/Src/audio.c **** static float amp_env ;		// amplitude envelope
  52:Core/Src/audio.c **** static float filt_env ;		// filter envelope
  53:Core/Src/audio.c **** static float index_env ;	// FM index envelope
  54:Core/Src/audio.c **** 
  55:Core/Src/audio.c **** float delayLOut = 0 ;		// left output of ping pong delay
  56:Core/Src/audio.c **** float delayROut = 0;		// right output of ping pong delay
  57:Core/Src/audio.c **** 
  58:Core/Src/audio.c **** 
  59:Core/Src/audio.c **** 
  60:Core/Src/audio.c **** 
  61:Core/Src/audio.c **** /**
  62:Core/Src/audio.c ****  * @brief Initialize audio
  63:Core/Src/audio.c ****  * 
  64:Core/Src/audio.c ****  */
  65:Core/Src/audio.c **** void AUDIO_Init()
  66:Core/Src/audio.c **** {
  30              		.loc 1 66 1 view -0
  31              		.cfi_startproc
  32              		@ args = 0, pretend = 0, frame = 0
  33              		@ frame_needed = 0, uses_anonymous_args = 0
  67:Core/Src/audio.c ****     BSP_AUDIO_OUT_Init(OUTPUT_DEVICE_HEADPHONE, INITIAL_VOLUME, FS);
  34              		.loc 1 67 5 view .LVU1
  66:Core/Src/audio.c ****     BSP_AUDIO_OUT_Init(OUTPUT_DEVICE_HEADPHONE, INITIAL_VOLUME, FS);
  35              		.loc 1 66 1 is_stmt 0 view .LVU2
  36 0000 08B5     		push	{r3, lr}
  37              		.cfi_def_cfa_offset 8
  38              		.cfi_offset 3, -8
  39              		.cfi_offset 14, -4
  40              		.loc 1 67 5 view .LVU3
  41 0002 4AF64442 		movw	r2, #44100
  66:Core/Src/audio.c ****     BSP_AUDIO_OUT_Init(OUTPUT_DEVICE_HEADPHONE, INITIAL_VOLUME, FS);
  42              		.loc 1 66 1 view .LVU4
  43 0006 2DED048B 		vpush.64	{d8, d9}
  44              		.cfi_def_cfa_offset 24
  45              		.cfi_offset 80, -24
  46              		.cfi_offset 81, -20
ARM GAS  /var/folders/0z/tsy30v1j4xl4_7kw94k978ww0000gn/T//ccXLvwkV.s 			page 3


  47              		.cfi_offset 82, -16
  48              		.cfi_offset 83, -12
  49              		.loc 1 67 5 view .LVU5
  50 000a 5A21     		movs	r1, #90
  51 000c 0220     		movs	r0, #2
  52 000e FFF7FEFF 		bl	BSP_AUDIO_OUT_Init
  53              	.LVL0:
  68:Core/Src/audio.c **** 
  69:Core/Src/audio.c **** 	/**
  70:Core/Src/audio.c **** 	 * @brief Ping pong buffer
  71:Core/Src/audio.c **** 	 * @note While one audiobuffer is transmitted via DMA, another one is computed
  72:Core/Src/audio.c **** 	 * @note Hence size = 2 * (audiobuffer size)
  73:Core/Src/audio.c **** 	 */
  74:Core/Src/audio.c **** 	BSP_AUDIO_OUT_Play((uint16_t *)&audioBuffer[0], 2*BUFFER_SIZE); 
  54              		.loc 1 74 2 is_stmt 1 view .LVU6
  75:Core/Src/audio.c **** 
  76:Core/Src/audio.c **** 	
  77:Core/Src/audio.c **** 	
  78:Core/Src/audio.c **** 	osc_init(&osc1, 0.5, 1000, 0, 0, 0.5);
  55              		.loc 1 78 2 is_stmt 0 view .LVU7
  56 0012 9FED2F8A 		vldr.32	s16, .L4
  57 0016 9FED2F9A 		vldr.32	s18, .L4+4
  74:Core/Src/audio.c **** 
  58              		.loc 1 74 2 view .LVU8
  59 001a 2F48     		ldr	r0, .L4+8
  79:Core/Src/audio.c **** 	osc_init(&osc2, 0.5, 440, 0, 1.414, 0.5);
  60              		.loc 1 79 2 view .LVU9
  61 001c DFED2F8A 		vldr.32	s17, .L4+12
  74:Core/Src/audio.c **** 
  62              		.loc 1 74 2 view .LVU10
  63 0020 4FF40071 		mov	r1, #512
  64 0024 FFF7FEFF 		bl	BSP_AUDIO_OUT_Play
  65              	.LVL1:
  78:Core/Src/audio.c **** 	osc_init(&osc2, 0.5, 440, 0, 1.414, 0.5);
  66              		.loc 1 78 2 is_stmt 1 view .LVU11
  67 0028 B6EE002A 		vmov.f32	s4, #5.0e-1
  68 002c F0EE481A 		vmov.f32	s3, s16
  69 0030 B0EE481A 		vmov.f32	s2, s16
  70 0034 F0EE490A 		vmov.f32	s1, s18
  71 0038 B0EE420A 		vmov.f32	s0, s4
  72 003c 2848     		ldr	r0, .L4+16
  73 003e FFF7FEFF 		bl	osc_init
  74              	.LVL2:
  75              		.loc 1 79 2 view .LVU12
  76 0042 B6EE002A 		vmov.f32	s4, #5.0e-1
  77 0046 B0EE481A 		vmov.f32	s2, s16
  78 004a F0EE680A 		vmov.f32	s1, s17
  79 004e B0EE420A 		vmov.f32	s0, s4
  80 0052 DFED241A 		vldr.32	s3, .L4+20
  81 0056 2448     		ldr	r0, .L4+24
  82 0058 FFF7FEFF 		bl	osc_init
  83              	.LVL3:
  80:Core/Src/audio.c **** 	osc_init(&osc3, 0.5, 1000, 0, 0, 0.5);
  84              		.loc 1 80 2 view .LVU13
  85 005c B6EE002A 		vmov.f32	s4, #5.0e-1
  86 0060 F0EE481A 		vmov.f32	s3, s16
  87 0064 B0EE481A 		vmov.f32	s2, s16
ARM GAS  /var/folders/0z/tsy30v1j4xl4_7kw94k978ww0000gn/T//ccXLvwkV.s 			page 4


  88 0068 F0EE490A 		vmov.f32	s1, s18
  89 006c B0EE420A 		vmov.f32	s0, s4
  90 0070 1E48     		ldr	r0, .L4+28
  91 0072 FFF7FEFF 		bl	osc_init
  92              	.LVL4:
  81:Core/Src/audio.c **** 	osc_init(&osc4, 0.5, 440, 0, 0, 0.5);
  93              		.loc 1 81 2 view .LVU14
  94 0076 B6EE002A 		vmov.f32	s4, #5.0e-1
  95 007a F0EE481A 		vmov.f32	s3, s16
  96 007e B0EE481A 		vmov.f32	s2, s16
  97 0082 F0EE680A 		vmov.f32	s1, s17
  98 0086 B0EE420A 		vmov.f32	s0, s4
  99 008a 1948     		ldr	r0, .L4+32
 100 008c FFF7FEFF 		bl	osc_init
 101              	.LVL5:
  82:Core/Src/audio.c **** 	osc_init(&sub_osc, 0.5, 440, 0, 0, 0.5);
 102              		.loc 1 82 2 view .LVU15
 103 0090 B6EE002A 		vmov.f32	s4, #5.0e-1
 104 0094 F0EE481A 		vmov.f32	s3, s16
 105 0098 B0EE481A 		vmov.f32	s2, s16
 106 009c F0EE680A 		vmov.f32	s1, s17
 107 00a0 B0EE420A 		vmov.f32	s0, s4
 108 00a4 1348     		ldr	r0, .L4+36
 109 00a6 FFF7FEFF 		bl	osc_init
 110              	.LVL6:
  83:Core/Src/audio.c **** 
  84:Core/Src/audio.c **** 
  85:Core/Src/audio.c **** 	ADSR_init(&adsr_amp);
 111              		.loc 1 85 2 view .LVU16
 112 00aa 1348     		ldr	r0, .L4+40
 113 00ac FFF7FEFF 		bl	ADSR_init
 114              	.LVL7:
  86:Core/Src/audio.c **** 	ADSR_init(&adsr_filt);
 115              		.loc 1 86 2 view .LVU17
 116 00b0 1248     		ldr	r0, .L4+44
 117 00b2 FFF7FEFF 		bl	ADSR_init
 118              	.LVL8:
  87:Core/Src/audio.c **** 	ADSR_init(&adsr_index);
 119              		.loc 1 87 2 view .LVU18
 120 00b6 1248     		ldr	r0, .L4+48
 121 00b8 FFF7FEFF 		bl	ADSR_init
 122              	.LVL9:
  88:Core/Src/audio.c **** 	MoogLP_init(&Moog_filter);
 123              		.loc 1 88 2 view .LVU19
 124 00bc 1148     		ldr	r0, .L4+52
 125 00be FFF7FEFF 		bl	MoogLP_init
 126              	.LVL10:
  89:Core/Src/audio.c **** 	// flanger_init();
  90:Core/Src/audio.c **** 	Delay_init();
 127              		.loc 1 90 2 view .LVU20
  91:Core/Src/audio.c **** }
 128              		.loc 1 91 1 is_stmt 0 view .LVU21
 129 00c2 BDEC048B 		vldm	sp!, {d8-d9}
 130              		.cfi_restore 82
 131              		.cfi_restore 83
 132              		.cfi_restore 80
 133              		.cfi_restore 81
ARM GAS  /var/folders/0z/tsy30v1j4xl4_7kw94k978ww0000gn/T//ccXLvwkV.s 			page 5


 134              		.cfi_def_cfa_offset 8
 135 00c6 BDE80840 		pop	{r3, lr}
 136              		.cfi_restore 14
 137              		.cfi_restore 3
 138              		.cfi_def_cfa_offset 0
  90:Core/Src/audio.c **** }
 139              		.loc 1 90 2 view .LVU22
 140 00ca FFF7FEBF 		b	Delay_init
 141              	.LVL11:
 142              	.L5:
 143 00ce 00BF     		.align	2
 144              	.L4:
 145 00d0 00000000 		.word	0
 146 00d4 00007A44 		.word	1148846080
 147 00d8 00000000 		.word	.LANCHOR0
 148 00dc 0000DC43 		.word	1138491392
 149 00e0 00000000 		.word	osc1
 150 00e4 F4FDB43F 		.word	1068826100
 151 00e8 00000000 		.word	osc2
 152 00ec 00000000 		.word	osc3
 153 00f0 00000000 		.word	osc4
 154 00f4 00000000 		.word	sub_osc
 155 00f8 00000000 		.word	adsr_amp
 156 00fc 00000000 		.word	adsr_filt
 157 0100 00000000 		.word	adsr_index
 158 0104 00000000 		.word	Moog_filter
 159              		.cfi_endproc
 160              	.LFE239:
 162              		.section	.text.OpSetFreq,"ax",%progbits
 163              		.align	1
 164              		.p2align 2,,3
 165              		.global	OpSetFreq
 166              		.syntax unified
 167              		.thumb
 168              		.thumb_func
 170              	OpSetFreq:
 171              	.LVL12:
 172              	.LFB240:
  92:Core/Src/audio.c **** 
  93:Core/Src/audio.c **** void OpSetFreq(oscillator_t * op, float f)
  94:Core/Src/audio.c **** {
 173              		.loc 1 94 1 is_stmt 1 view -0
 174              		.cfi_startproc
 175              		@ args = 0, pretend = 0, frame = 0
 176              		@ frame_needed = 0, uses_anonymous_args = 0
 177              		@ link register save eliminated.
  95:Core/Src/audio.c **** 	op->freq = A0 * f;
 178              		.loc 1 95 2 view .LVU24
 179              		.loc 1 95 16 is_stmt 0 view .LVU25
 180 0000 DFED037A 		vldr.32	s15, .L7
 181 0004 20EE270A 		vmul.f32	s0, s0, s15
 182              	.LVL13:
 183              		.loc 1 95 11 view .LVU26
 184 0008 80ED010A 		vstr.32	s0, [r0, #4]
  96:Core/Src/audio.c **** }
 185              		.loc 1 96 1 view .LVU27
 186 000c 7047     		bx	lr
ARM GAS  /var/folders/0z/tsy30v1j4xl4_7kw94k978ww0000gn/T//ccXLvwkV.s 			page 6


 187              	.L8:
 188 000e 00BF     		.align	2
 189              	.L7:
 190 0010 8D3B803F 		.word	1065368461
 191              		.cfi_endproc
 192              	.LFE240:
 194              		.global	__aeabi_f2d
 195              		.global	__aeabi_dadd
 196              		.global	__aeabi_dmul
 197              		.global	__aeabi_d2f
 198              		.section	.text.audioBlock,"ax",%progbits
 199              		.align	1
 200              		.p2align 2,,3
 201              		.global	audioBlock
 202              		.syntax unified
 203              		.thumb
 204              		.thumb_func
 206              	audioBlock:
 207              	.LVL14:
 208              	.LFB241:
  97:Core/Src/audio.c **** 
  98:Core/Src/audio.c **** 
  99:Core/Src/audio.c **** 
 100:Core/Src/audio.c **** /**
 101:Core/Src/audio.c ****  * @brief Main audio function. This is where the audio samples are computed, then the audio buffer 
 102:Core/Src/audio.c ****  * 
 103:Core/Src/audio.c ****  * @param buffer 
 104:Core/Src/audio.c ****  * @param samples 
 105:Core/Src/audio.c ****  */
 106:Core/Src/audio.c **** void audioBlock(int16_t *buffer, uint16_t samples)
 107:Core/Src/audio.c **** {
 209              		.loc 1 107 1 is_stmt 1 view -0
 210              		.cfi_startproc
 211              		@ args = 0, pretend = 0, frame = 8
 212              		@ frame_needed = 0, uses_anonymous_args = 0
 108:Core/Src/audio.c **** 	int i;
 213              		.loc 1 108 2 view .LVU29
 109:Core/Src/audio.c **** 	int16_t *output;
 214              		.loc 1 109 2 view .LVU30
 110:Core/Src/audio.c **** 	output = buffer;
 215              		.loc 1 110 2 view .LVU31
 111:Core/Src/audio.c **** 	float sample, sampleL, sampleR;
 112:Core/Src/audio.c **** 	uint16_t valueL, valueR;
 113:Core/Src/audio.c **** 	uint8_t select_osc = current_count % 2;
 114:Core/Src/audio.c **** 	// uint8_t select_osc = clip(current_count, 0, 1);
 115:Core/Src/audio.c **** 
 116:Core/Src/audio.c **** 
 117:Core/Src/audio.c **** 	adsr_filt.dcy_time = 10*(0.008+pot2_norm*pot2_norm*pot2_norm*pot2_norm);
 216              		.loc 1 117 42 is_stmt 0 view .LVU32
 217 0000 C94A     		ldr	r2, .L27+16
 113:Core/Src/audio.c **** 	// uint8_t select_osc = clip(current_count, 0, 1);
 218              		.loc 1 113 37 view .LVU33
 219 0002 CA4B     		ldr	r3, .L27+20
 220              		.loc 1 117 42 view .LVU34
 221 0004 D2ED007A 		vldr.32	s15, [r2]
 113:Core/Src/audio.c **** 	// uint8_t select_osc = clip(current_count, 0, 1);
 222              		.loc 1 113 37 view .LVU35
ARM GAS  /var/folders/0z/tsy30v1j4xl4_7kw94k978ww0000gn/T//ccXLvwkV.s 			page 7


 223 0008 1B88     		ldrh	r3, [r3]
 107:Core/Src/audio.c **** 	int i;
 224              		.loc 1 107 1 view .LVU36
 225 000a 2DE9F04F 		push	{r4, r5, r6, r7, r8, r9, r10, fp, lr}
 226              		.cfi_def_cfa_offset 36
 227              		.cfi_offset 4, -36
 228              		.cfi_offset 5, -32
 229              		.cfi_offset 6, -28
 230              		.cfi_offset 7, -24
 231              		.cfi_offset 8, -20
 232              		.cfi_offset 9, -16
 233              		.cfi_offset 10, -12
 234              		.cfi_offset 11, -8
 235              		.cfi_offset 14, -4
 236              		.loc 1 117 42 view .LVU37
 237 000e 27EEA77A 		vmul.f32	s14, s15, s15
 107:Core/Src/audio.c **** 	int i;
 238              		.loc 1 107 1 view .LVU38
 239 0012 2DED068B 		vpush.64	{d8, d9, d10}
 240              		.cfi_def_cfa_offset 60
 241              		.cfi_offset 80, -60
 242              		.cfi_offset 81, -56
 243              		.cfi_offset 82, -52
 244              		.cfi_offset 83, -48
 245              		.cfi_offset 84, -44
 246              		.cfi_offset 85, -40
 247              		.loc 1 117 52 view .LVU39
 248 0016 27EE277A 		vmul.f32	s14, s14, s15
 107:Core/Src/audio.c **** 	int i;
 249              		.loc 1 107 1 view .LVU40
 250 001a 83B0     		sub	sp, sp, #12
 251              		.cfi_def_cfa_offset 72
 252              		.loc 1 117 62 view .LVU41
 253 001c 67EE277A 		vmul.f32	s15, s14, s15
 113:Core/Src/audio.c **** 	// uint8_t select_osc = clip(current_count, 0, 1);
 254              		.loc 1 113 10 view .LVU42
 255 0020 03F00103 		and	r3, r3, #1
 107:Core/Src/audio.c **** 	int i;
 256              		.loc 1 107 1 view .LVU43
 257 0024 0446     		mov	r4, r0
 258              		.loc 1 117 62 view .LVU44
 259 0026 17EE900A 		vmov	r0, s15
 260              	.LVL15:
 111:Core/Src/audio.c **** 	float sample, sampleL, sampleR;
 261              		.loc 1 111 2 is_stmt 1 view .LVU45
 112:Core/Src/audio.c **** 	uint8_t select_osc = current_count % 2;
 262              		.loc 1 112 2 view .LVU46
 113:Core/Src/audio.c **** 	// uint8_t select_osc = clip(current_count, 0, 1);
 263              		.loc 1 113 2 view .LVU47
 113:Core/Src/audio.c **** 	// uint8_t select_osc = clip(current_count, 0, 1);
 264              		.loc 1 113 10 is_stmt 0 view .LVU48
 265 002a 0093     		str	r3, [sp]
 266              	.LVL16:
 267              		.loc 1 117 2 is_stmt 1 view .LVU49
 107:Core/Src/audio.c **** 	int i;
 268              		.loc 1 107 1 is_stmt 0 view .LVU50
 269 002c 0F46     		mov	r7, r1
ARM GAS  /var/folders/0z/tsy30v1j4xl4_7kw94k978ww0000gn/T//ccXLvwkV.s 			page 8


 270 002e 0191     		str	r1, [sp, #4]
 271              		.loc 1 117 62 view .LVU51
 272 0030 FFF7FEFF 		bl	__aeabi_f2d
 273              	.LVL17:
 274              		.loc 1 117 32 view .LVU52
 275 0034 B8A3     		adr	r3, .L27
 276 0036 D3E90023 		ldrd	r2, [r3]
 277 003a FFF7FEFF 		bl	__aeabi_dadd
 278              	.LVL18:
 279              		.loc 1 117 25 view .LVU53
 280 003e BC4B     		ldr	r3, .L27+24
 281              		.loc 1 117 21 view .LVU54
 282 0040 BC4E     		ldr	r6, .L27+28
 118:Core/Src/audio.c **** 	adsr_index.dcy_time = 10*(0.008+pot2_norm*pot2_norm*pot2_norm*pot2_norm);
 283              		.loc 1 118 22 view .LVU55
 284 0042 BD4D     		ldr	r5, .L27+32
 117:Core/Src/audio.c **** 	adsr_index.dcy_time = 10*(0.008+pot2_norm*pot2_norm*pot2_norm*pot2_norm);
 285              		.loc 1 117 25 view .LVU56
 286 0044 0022     		movs	r2, #0
 287 0046 FFF7FEFF 		bl	__aeabi_dmul
 288              	.LVL19:
 289 004a FFF7FEFF 		bl	__aeabi_d2f
 290              	.LVL20:
 119:Core/Src/audio.c **** 	adsr_filt.dcy_mult = ADSR_calculateMultiplier(1, adsr_filt.sust_level, adsr_filt.dcy_time); 
 291              		.loc 1 119 23 view .LVU57
 292 004e D6ED050A 		vldr.32	s1, [r6, #20]
 117:Core/Src/audio.c **** 	adsr_index.dcy_time = 10*(0.008+pot2_norm*pot2_norm*pot2_norm*pot2_norm);
 293              		.loc 1 117 21 view .LVU58
 294 0052 3061     		str	r0, [r6, #16]	@ float
 118:Core/Src/audio.c **** 	adsr_index.dcy_time = 10*(0.008+pot2_norm*pot2_norm*pot2_norm*pot2_norm);
 295              		.loc 1 118 2 is_stmt 1 view .LVU59
 117:Core/Src/audio.c **** 	adsr_index.dcy_time = 10*(0.008+pot2_norm*pot2_norm*pot2_norm*pot2_norm);
 296              		.loc 1 117 25 is_stmt 0 view .LVU60
 297 0054 01EE100A 		vmov	s2, r0
 298              		.loc 1 119 23 view .LVU61
 299 0058 B7EE000A 		vmov.f32	s0, #1.0e+0
 118:Core/Src/audio.c **** 	adsr_index.dcy_time = 10*(0.008+pot2_norm*pot2_norm*pot2_norm*pot2_norm);
 300              		.loc 1 118 22 view .LVU62
 301 005c 2861     		str	r0, [r5, #16]	@ float
 302              		.loc 1 119 2 is_stmt 1 view .LVU63
 303              		.loc 1 119 23 is_stmt 0 view .LVU64
 304 005e FFF7FEFF 		bl	ADSR_calculateMultiplier
 305              	.LVL21:
 120:Core/Src/audio.c **** 	adsr_index.dcy_mult = ADSR_calculateMultiplier(1, adsr_index.sust_level, adsr_index.dcy_time); 
 306              		.loc 1 120 24 view .LVU65
 307 0062 95ED041A 		vldr.32	s2, [r5, #16]
 119:Core/Src/audio.c **** 	adsr_filt.dcy_mult = ADSR_calculateMultiplier(1, adsr_filt.sust_level, adsr_filt.dcy_time); 
 308              		.loc 1 119 21 view .LVU66
 309 0066 86ED080A 		vstr.32	s0, [r6, #32]
 310              		.loc 1 120 2 is_stmt 1 view .LVU67
 311              		.loc 1 120 24 is_stmt 0 view .LVU68
 312 006a D5ED050A 		vldr.32	s1, [r5, #20]
 313 006e B7EE000A 		vmov.f32	s0, #1.0e+0
 314 0072 FFF7FEFF 		bl	ADSR_calculateMultiplier
 315              	.LVL22:
 316              		.loc 1 120 22 view .LVU69
 317 0076 85ED080A 		vstr.32	s0, [r5, #32]
ARM GAS  /var/folders/0z/tsy30v1j4xl4_7kw94k978ww0000gn/T//ccXLvwkV.s 			page 9


 121:Core/Src/audio.c **** 
 122:Core/Src/audio.c **** 	for (i = 0; i < samples; i++)
 318              		.loc 1 122 2 is_stmt 1 view .LVU70
 319              	.LVL23:
 320              		.loc 1 122 16 view .LVU71
 321 007a 002F     		cmp	r7, #0
 322 007c 00F04681 		beq	.L9
 323 0080 AE4E     		ldr	r6, .L27+36
 324              	.LBB30:
 325              	.LBB31:
  95:Core/Src/audio.c **** }
 326              		.loc 1 95 16 is_stmt 0 view .LVU72
 327 0082 DFEDAFAA 		vldr.32	s21, .L27+40
 328              	.LBE31:
 329              	.LBE30:
 123:Core/Src/audio.c **** 	{
 124:Core/Src/audio.c **** 		/* convert MIDI pitch into frequency using mtof lookup table */
 125:Core/Src/audio.c **** 		f0 = mtof[currentPitch];
 126:Core/Src/audio.c **** 		f1 = mtof[currentPitch + 7];
 127:Core/Src/audio.c **** 		
 128:Core/Src/audio.c **** 		/* set oscillator frequencies, with light detuning*/
 129:Core/Src/audio.c **** 		/* oscillator 4 is a fifth over the others ... just for demonstration */
 130:Core/Src/audio.c **** 		OpSetFreq(&osc1, f0);
 131:Core/Src/audio.c **** 		OpSetFreq(&osc2, f0+1);
 132:Core/Src/audio.c **** 		OpSetFreq(&osc3, f0-1);
 133:Core/Src/audio.c **** 		OpSetFreq(&osc4, f1);
 134:Core/Src/audio.c **** 		OpSetFreq(&sub_osc, f_sub);
 135:Core/Src/audio.c **** 		
 136:Core/Src/audio.c **** 
 137:Core/Src/audio.c **** 		/*********** choose oscillator type with encoder *************/
 138:Core/Src/audio.c **** 		switch(select_osc){
 139:Core/Src/audio.c **** 			case 0:
 140:Core/Src/audio.c **** 			// analog waveforms
 141:Core/Src/audio.c **** 				f_sub = mtof[max(currentPitch - 12, 0)];
 142:Core/Src/audio.c **** 				
 143:Core/Src/audio.c **** 				sample = 0.25*(osc_polyblepSaw(&osc1) + osc_polyblepSaw(&osc2) + osc_polyblepSaw(&osc3) + osc_p
 144:Core/Src/audio.c **** 		       
 145:Core/Src/audio.c ****         		break;
 146:Core/Src/audio.c **** 
 147:Core/Src/audio.c ****     		case 1:
 148:Core/Src/audio.c **** 			// FM
 149:Core/Src/audio.c **** 				index_env = ADSR_compute(&adsr_index);
 150:Core/Src/audio.c **** 				osc1.FM_index = pot1_norm * pot1_norm * pot1_norm * pot1_norm * index_env;	
 151:Core/Src/audio.c **** 				sample = 0.8 * osc_FM2OP(f0);
 152:Core/Src/audio.c **** 				break;
 153:Core/Src/audio.c **** 		}
 154:Core/Src/audio.c **** 
 155:Core/Src/audio.c **** 				
 156:Core/Src/audio.c **** 		// sample = osc_Sine(&osc1);
 157:Core/Src/audio.c **** 
 158:Core/Src/audio.c **** 	
 159:Core/Src/audio.c **** 		
 160:Core/Src/audio.c **** 		/****************** Apply filter ***********************/
 161:Core/Src/audio.c **** 		filt_env = ADSR_compute(&adsr_filt);
 162:Core/Src/audio.c **** 		Moog_filter.cutoff =clip(7000.f * filt_env + NYQUIST * pot1_norm * pot1_norm * pot1_norm * pot1_n
 330              		.loc 1 162 56 view .LVU73
 331 0086 DFEDAF9A 		vldr.32	s19, .L27+44
ARM GAS  /var/folders/0z/tsy30v1j4xl4_7kw94k978ww0000gn/T//ccXLvwkV.s 			page 10


 332              		.loc 1 162 23 view .LVU74
 333 008a 9FEDAF9A 		vldr.32	s18, .L27+48
 334 008e DFF804A3 		ldr	r10, .L27+124
 335 0092 DFF8DC92 		ldr	r9, .L27+88
 336 0096 AD4F     		ldr	r7, .L27+52
 337 0098 DFF8FC82 		ldr	r8, .L27+128
 338 009c DFF8FCB2 		ldr	fp, .L27+132
 339 00a0 9FEDABAA 		vldr.32	s20, .L27+56
 163:Core/Src/audio.c **** 		// Moog_filter.k = 4.5f * pot2_norm;
 164:Core/Src/audio.c **** 
 165:Core/Src/audio.c **** 		sample = MoogLP_compute(&Moog_filter, sample);
 166:Core/Src/audio.c **** 
 167:Core/Src/audio.c **** 		/************** Apply amplitude envelope ****************/
 168:Core/Src/audio.c **** 		amp_env = ADSR_compute(&adsr_amp);
 169:Core/Src/audio.c **** 		sample *= amp_env;
 170:Core/Src/audio.c **** 
 171:Core/Src/audio.c **** 		
 172:Core/Src/audio.c **** 		/************** Apply bitcrushing effect ***************/
 173:Core/Src/audio.c **** 		// uncomment to activate
 174:Core/Src/audio.c **** 		// sample = decimator(sample, 0.2, 16);
 175:Core/Src/audio.c **** 
 176:Core/Src/audio.c **** 		/************** Apply flanging effect ***************/
 177:Core/Src/audio.c **** 		// TODO ...
 178:Core/Src/audio.c **** 		// sample = flanger_compute(sample); 
 179:Core/Src/audio.c **** 
 180:Core/Src/audio.c **** 		/************** Apply delay effect ****************/
 181:Core/Src/audio.c **** 		delay_wet = pot3_norm;	// delay send value from pot #3
 182:Core/Src/audio.c **** 		feedback = clip(pot3_norm + 0.25, 0, 1.1); // also increase feedback 
 340              		.loc 1 182 14 view .LVU75
 341 00a4 DFEDAB8A 		vldr.32	s17, .L27+60
 342 00a8 0234     		adds	r4, r4, #2
 343              	.LVL24:
 122:Core/Src/audio.c **** 	{
 344              		.loc 1 122 9 view .LVU76
 345 00aa 0025     		movs	r5, #0
 346 00ac 56E0     		b	.L16
 347              	.LVL25:
 348              	.L25:
 349              	.LBB35:
 350              	.LBB36:
 351              		.file 2 "Core/Inc/helper_functions.h"
   1:Core/Inc/helper_functions.h **** /**
   2:Core/Inc/helper_functions.h ****  * @file helper_functions.h
   3:Core/Inc/helper_functions.h ****  * @author johannes regnier
   4:Core/Inc/helper_functions.h ****  * @brief Various math tools 
   5:Core/Inc/helper_functions.h ****  * @version 0.1
   6:Core/Inc/helper_functions.h ****  * @date 2023-12-30
   7:Core/Inc/helper_functions.h ****  * 
   8:Core/Inc/helper_functions.h ****  * @copyright Copyright (c) 2023
   9:Core/Inc/helper_functions.h ****  * 
  10:Core/Inc/helper_functions.h ****  */
  11:Core/Inc/helper_functions.h **** 
  12:Core/Inc/helper_functions.h **** #ifndef _HELPER_FUNCTIONS_H
  13:Core/Inc/helper_functions.h **** #define _HELPER_FUNCTIONS_H
  14:Core/Inc/helper_functions.h **** 
  15:Core/Inc/helper_functions.h **** 
  16:Core/Inc/helper_functions.h **** #include <math.h>
ARM GAS  /var/folders/0z/tsy30v1j4xl4_7kw94k978ww0000gn/T//ccXLvwkV.s 			page 11


  17:Core/Inc/helper_functions.h **** #include <stdint.h>
  18:Core/Inc/helper_functions.h **** 
  19:Core/Inc/helper_functions.h **** #ifndef NOMINMAX
  20:Core/Inc/helper_functions.h **** 
  21:Core/Inc/helper_functions.h **** #ifndef max
  22:Core/Inc/helper_functions.h **** #define max(a,b)            (((a) > (b)) ? (a) : (b))
  23:Core/Inc/helper_functions.h **** #endif
  24:Core/Inc/helper_functions.h **** 
  25:Core/Inc/helper_functions.h **** #ifndef min
  26:Core/Inc/helper_functions.h **** #define min(a,b)            (((a) < (b)) ? (a) : (b))
  27:Core/Inc/helper_functions.h **** #endif
  28:Core/Inc/helper_functions.h **** 
  29:Core/Inc/helper_functions.h **** #endif  /* NOMINMAX */
  30:Core/Inc/helper_functions.h **** 
  31:Core/Inc/helper_functions.h **** /**
  32:Core/Inc/helper_functions.h ****  * @brief Keep value between 0 and max
  33:Core/Inc/helper_functions.h ****  * 
  34:Core/Inc/helper_functions.h ****  * @param value 
  35:Core/Inc/helper_functions.h ****  * @param max 
  36:Core/Inc/helper_functions.h ****  * @return float 
  37:Core/Inc/helper_functions.h ****  */
  38:Core/Inc/helper_functions.h **** inline float wrap(float value, float max)   
  39:Core/Inc/helper_functions.h **** {
  40:Core/Inc/helper_functions.h ****     if (value < 0.f)
  41:Core/Inc/helper_functions.h ****         value += max;
  42:Core/Inc/helper_functions.h ****     if (value >= max)
  43:Core/Inc/helper_functions.h ****         value -= max;
  44:Core/Inc/helper_functions.h **** 
  45:Core/Inc/helper_functions.h ****     return value;
  46:Core/Inc/helper_functions.h **** }
  47:Core/Inc/helper_functions.h **** 
  48:Core/Inc/helper_functions.h **** inline float Crossfade(float a, float b, float fade)
  49:Core/Inc/helper_functions.h **** {
  50:Core/Inc/helper_functions.h ****     return a + (b - a) * fade;
  51:Core/Inc/helper_functions.h **** }
  52:Core/Inc/helper_functions.h **** 
  53:Core/Inc/helper_functions.h **** 
  54:Core/Inc/helper_functions.h **** /**
  55:Core/Inc/helper_functions.h ****  * @brief Pade-approximation of tanh for soft clipping
  56:Core/Inc/helper_functions.h ****  * @ from https://www.musicdsp.org/en/latest/Other/238-rational-tanh-approximation.html 
  57:Core/Inc/helper_functions.h ****  * @param x 
  58:Core/Inc/helper_functions.h ****  * @return float 
  59:Core/Inc/helper_functions.h ****  */
  60:Core/Inc/helper_functions.h **** inline float SoftClip(float x)
  61:Core/Inc/helper_functions.h **** {
  62:Core/Inc/helper_functions.h ****     if (x < -3.0f)
  63:Core/Inc/helper_functions.h ****     {
  64:Core/Inc/helper_functions.h ****         return -1.0f;
  65:Core/Inc/helper_functions.h ****     }
  66:Core/Inc/helper_functions.h ****     else if (x > 3.0f)
 352              		.loc 2 66 10 is_stmt 1 view .LVU77
 353              		.loc 2 66 13 is_stmt 0 view .LVU78
 354 00ae F0EE086A 		vmov.f32	s13, #3.0e+0
 355 00b2 B4EEE67A 		vcmpe.f32	s14, s13
 356 00b6 F1EE10FA 		vmrs	APSR_nzcv, FPSCR
 357 00ba 00F3FE80 		bgt	.L20
 358              	.LVL26:
ARM GAS  /var/folders/0z/tsy30v1j4xl4_7kw94k978ww0000gn/T//ccXLvwkV.s 			page 12


 359              	.LBB37:
 360              	.LBI37:
  60:Core/Inc/helper_functions.h **** {
 361              		.loc 2 60 14 is_stmt 1 view .LVU79
 362              	.LBB38:
  67:Core/Inc/helper_functions.h ****     {
  68:Core/Inc/helper_functions.h ****         return 1.0f;
  69:Core/Inc/helper_functions.h ****     }
  70:Core/Inc/helper_functions.h ****     else
  71:Core/Inc/helper_functions.h ****     {
  72:Core/Inc/helper_functions.h ****         return x * (27.0f + x * x) / (27.0f + 9.0f * x * x);
 363              		.loc 2 72 9 view .LVU80
 364              		.loc 2 72 27 is_stmt 0 view .LVU81
 365 00be F3EE0B6A 		vmov.f32	s13, #2.7e+1
 366              		.loc 2 72 52 view .LVU82
 367 00c2 F2EE025A 		vmov.f32	s11, #9.0e+0
 368 00c6 67EE255A 		vmul.f32	s11, s14, s11
 369              		.loc 2 72 27 view .LVU83
 370 00ca F0EE664A 		vmov.f32	s9, s13
 371 00ce E7EE074A 		vfma.f32	s9, s14, s14
 372              		.loc 2 72 45 view .LVU84
 373 00d2 E7EE256A 		vfma.f32	s13, s14, s11
 374              		.loc 2 72 18 view .LVU85
 375 00d6 27EE247A 		vmul.f32	s14, s14, s9
 376              	.LVL27:
 377              		.loc 2 72 45 view .LVU86
 378 00da B0EE666A 		vmov.f32	s12, s13
 379              	.LVL28:
 380              		.loc 2 72 36 view .LVU87
 381 00de C7EE066A 		vdiv.f32	s13, s14, s12
 382              	.LBE38:
 383              	.LBE37:
 384              	.LBE36:
 385              	.LBE35:
 183:Core/Src/audio.c **** 
 184:Core/Src/audio.c **** 		pingpongDelay_compute(sample, &delayLOut, &delayROut);
 185:Core/Src/audio.c **** 		sampleL = delayLOut;
 186:Core/Src/audio.c **** 		sampleR = delayROut;
 187:Core/Src/audio.c **** 		
 188:Core/Src/audio.c **** 		/****************** softclip outputs ********************/
 189:Core/Src/audio.c **** 		sampleL = SoftClip(sampleL);
 190:Core/Src/audio.c **** 		sampleR = SoftClip(sampleR);
 191:Core/Src/audio.c **** 
 192:Core/Src/audio.c **** 		/*************** Convert to 16 bits int *****************/
 193:Core/Src/audio.c **** 		valueL = ((int16_t) ((32767.0f) * sampleL)); 
 386              		.loc 1 193 35 view .LVU88
 387 00e2 9FED9D5A 		vldr.32	s10, .L27+64
 388 00e6 26EE857A 		vmul.f32	s14, s13, s10
 389              		.loc 1 193 13 view .LVU89
 390 00ea BDEEC77A 		vcvt.s32.f32	s14, s14
 391 00ee 17EE103A 		vmov	r3, s14	@ int
 392 00f2 1AB2     		sxth	r2, r3
 393              	.L14:
 394              	.LVL29:
 190:Core/Src/audio.c **** 
 395              		.loc 1 190 3 is_stmt 1 view .LVU90
 396              	.LBB43:
ARM GAS  /var/folders/0z/tsy30v1j4xl4_7kw94k978ww0000gn/T//ccXLvwkV.s 			page 13


 397              	.LBI43:
  60:Core/Inc/helper_functions.h **** {
 398              		.loc 2 60 14 view .LVU91
 399              	.LBB44:
  62:Core/Inc/helper_functions.h ****     {
 400              		.loc 2 62 5 view .LVU92
  62:Core/Inc/helper_functions.h ****     {
 401              		.loc 2 62 8 is_stmt 0 view .LVU93
 402 00f4 B8EE087A 		vmov.f32	s14, #-3.0e+0
 403 00f8 F4EEC77A 		vcmpe.f32	s15, s14
 404 00fc F1EE10FA 		vmrs	APSR_nzcv, FPSCR
 405 0100 00F1D980 		bmi	.L21
 406              	.L26:
  66:Core/Inc/helper_functions.h ****     {
 407              		.loc 2 66 10 is_stmt 1 view .LVU94
  66:Core/Inc/helper_functions.h ****     {
 408              		.loc 2 66 13 is_stmt 0 view .LVU95
 409 0104 B0EE087A 		vmov.f32	s14, #3.0e+0
 410 0108 F4EEC77A 		vcmpe.f32	s15, s14
 411 010c F1EE10FA 		vmrs	APSR_nzcv, FPSCR
 412 0110 00F3D680 		bgt	.L22
 413              	.LVL30:
 414              	.LBB45:
 415              	.LBI45:
  60:Core/Inc/helper_functions.h **** {
 416              		.loc 2 60 14 is_stmt 1 view .LVU96
 417              	.LBB46:
 418              		.loc 2 72 9 view .LVU97
 419              		.loc 2 72 27 is_stmt 0 view .LVU98
 420 0114 B3EE0B7A 		vmov.f32	s14, #2.7e+1
 421              		.loc 2 72 52 view .LVU99
 422 0118 B2EE026A 		vmov.f32	s12, #9.0e+0
 423 011c 27EE866A 		vmul.f32	s12, s15, s12
 424              		.loc 2 72 27 view .LVU100
 425 0120 B0EE475A 		vmov.f32	s10, s14
 426 0124 A7EEA75A 		vfma.f32	s10, s15, s15
 427              		.loc 2 72 45 view .LVU101
 428 0128 A7EE867A 		vfma.f32	s14, s15, s12
 429              		.loc 2 72 18 view .LVU102
 430 012c 67EE857A 		vmul.f32	s15, s15, s10
 431              	.LVL31:
 432              		.loc 2 72 45 view .LVU103
 433 0130 F0EE476A 		vmov.f32	s13, s14
 434              	.LVL32:
 435              		.loc 2 72 36 view .LVU104
 436 0134 87EEA67A 		vdiv.f32	s14, s15, s13
 437              	.LBE46:
 438              	.LBE45:
 439              	.LBE44:
 440              	.LBE43:
 194:Core/Src/audio.c **** 		valueR = ((int16_t) ((32767.0f) * sampleR));
 441              		.loc 1 194 35 view .LVU105
 442 0138 DFED875A 		vldr.32	s11, .L27+64
 443 013c 67EE257A 		vmul.f32	s15, s14, s11
 444              		.loc 1 194 13 view .LVU106
 445 0140 FDEEE77A 		vcvt.s32.f32	s15, s15
 446 0144 17EE903A 		vmov	r3, s15	@ int
ARM GAS  /var/folders/0z/tsy30v1j4xl4_7kw94k978ww0000gn/T//ccXLvwkV.s 			page 14


 447 0148 1BB2     		sxth	r3, r3
 448              	.L15:
 449              	.LVL33:
 193:Core/Src/audio.c **** 		valueR = ((int16_t) ((32767.0f) * sampleR));
 450              		.loc 1 193 3 is_stmt 1 view .LVU107
 451              		.loc 1 194 3 view .LVU108
 195:Core/Src/audio.c **** 
 196:Core/Src/audio.c **** 		/*************** Output to audio buffer *****************/
 197:Core/Src/audio.c **** 		output[i<<1] = valueL ;			// LEFT channel
 452              		.loc 1 197 3 view .LVU109
 453              		.loc 1 197 16 is_stmt 0 view .LVU110
 454 014a 24F8022C 		strh	r2, [r4, #-2]	@ movhi
 198:Core/Src/audio.c **** 	    output[(i<<1) + 1] = valueR;	// RIGHT channel
 455              		.loc 1 198 6 is_stmt 1 view .LVU111
 456              		.loc 1 198 25 is_stmt 0 view .LVU112
 457 014e 24F8043B 		strh	r3, [r4], #4	@ movhi
 122:Core/Src/audio.c **** 	{
 458              		.loc 1 122 28 is_stmt 1 view .LVU113
 122:Core/Src/audio.c **** 	{
 459              		.loc 1 122 16 is_stmt 0 view .LVU114
 460 0152 019B     		ldr	r3, [sp, #4]
 122:Core/Src/audio.c **** 	{
 461              		.loc 1 122 28 view .LVU115
 462 0154 0135     		adds	r5, r5, #1
 463              	.LVL34:
 122:Core/Src/audio.c **** 	{
 464              		.loc 1 122 16 is_stmt 1 view .LVU116
 465 0156 9D42     		cmp	r5, r3
 466 0158 00F0D880 		beq	.L9
 467              	.LVL35:
 468              	.L16:
 125:Core/Src/audio.c **** 		f1 = mtof[currentPitch + 7];
 469              		.loc 1 125 3 view .LVU117
 470              	.LBB50:
 471              	.LBB51:
  95:Core/Src/audio.c **** }
 472              		.loc 1 95 16 is_stmt 0 view .LVU118
 473 015c 97ED007A 		vldr.32	s14, [r7]
  95:Core/Src/audio.c **** }
 474              		.loc 1 95 11 view .LVU119
 475 0160 7E4B     		ldr	r3, .L27+68
  95:Core/Src/audio.c **** }
 476              		.loc 1 95 16 view .LVU120
 477 0162 27EE2A7A 		vmul.f32	s14, s14, s21
 478              	.LBE51:
 479              	.LBE50:
 131:Core/Src/audio.c **** 		OpSetFreq(&osc3, f0-1);
 480              		.loc 1 131 3 view .LVU121
 481 0166 F7EE007A 		vmov.f32	s15, #1.0e+0
 482              	.LBB54:
 483              	.LBB52:
  95:Core/Src/audio.c **** }
 484              		.loc 1 95 11 view .LVU122
 485 016a 83ED017A 		vstr.32	s14, [r3, #4]
 486              	.LBE52:
 487              	.LBE54:
 125:Core/Src/audio.c **** 		f1 = mtof[currentPitch + 7];
ARM GAS  /var/folders/0z/tsy30v1j4xl4_7kw94k978ww0000gn/T//ccXLvwkV.s 			page 15


 488              		.loc 1 125 12 view .LVU123
 489 016e 7C4B     		ldr	r3, .L27+72
 490 0170 1B78     		ldrb	r3, [r3]	@ zero_extendqisi2
 491 0172 06EB8302 		add	r2, r6, r3, lsl #2
 492 0176 92ED007A 		vldr.32	s14, [r2]
 493              	.LBB55:
 494              	.LBB56:
  95:Core/Src/audio.c **** }
 495              		.loc 1 95 11 view .LVU124
 496 017a 7A4A     		ldr	r2, .L27+76
 497              	.LBE56:
 498              	.LBE55:
 125:Core/Src/audio.c **** 		f1 = mtof[currentPitch + 7];
 499              		.loc 1 125 6 view .LVU125
 500 017c 8AED007A 		vstr.32	s14, [r10]
 131:Core/Src/audio.c **** 		OpSetFreq(&osc3, f0-1);
 501              		.loc 1 131 3 view .LVU126
 502 0180 77EE276A 		vadd.f32	s13, s14, s15
 132:Core/Src/audio.c **** 		OpSetFreq(&osc4, f1);
 503              		.loc 1 132 3 view .LVU127
 504 0184 77EE677A 		vsub.f32	s15, s14, s15
 505              	.LBB60:
 506              	.LBB57:
  95:Core/Src/audio.c **** }
 507              		.loc 1 95 16 view .LVU128
 508 0188 66EEAA6A 		vmul.f32	s13, s13, s21
 509              	.LBE57:
 510              	.LBE60:
 511              	.LBB61:
 512              	.LBB62:
 513 018c 67EEAA7A 		vmul.f32	s15, s15, s21
 514              	.LBE62:
 515              	.LBE61:
 126:Core/Src/audio.c **** 		
 516              		.loc 1 126 3 is_stmt 1 view .LVU129
 517              	.LBB65:
 518              	.LBB58:
  95:Core/Src/audio.c **** }
 519              		.loc 1 95 11 is_stmt 0 view .LVU130
 520 0190 C2ED016A 		vstr.32	s13, [r2, #4]
 521              	.LBE58:
 522              	.LBE65:
 523              	.LBB66:
 524              	.LBB63:
 525 0194 744A     		ldr	r2, .L27+80
 526 0196 C2ED017A 		vstr.32	s15, [r2, #4]
 527              	.LBE63:
 528              	.LBE66:
 126:Core/Src/audio.c **** 		
 529              		.loc 1 126 12 view .LVU131
 530 019a 06EB8302 		add	r2, r6, r3, lsl #2
 531 019e D2ED077A 		vldr.32	s15, [r2, #28]
 130:Core/Src/audio.c **** 		OpSetFreq(&osc2, f0+1);
 532              		.loc 1 130 3 is_stmt 1 view .LVU132
 533              	.LVL36:
 534              	.LBB67:
 535              	.LBI30:
ARM GAS  /var/folders/0z/tsy30v1j4xl4_7kw94k978ww0000gn/T//ccXLvwkV.s 			page 16


  93:Core/Src/audio.c **** {
 536              		.loc 1 93 6 view .LVU133
 537              	.LBB32:
  95:Core/Src/audio.c **** }
 538              		.loc 1 95 2 view .LVU134
  95:Core/Src/audio.c **** }
 539              		.loc 1 95 2 is_stmt 0 view .LVU135
 540              	.LBE32:
 541              	.LBE67:
 131:Core/Src/audio.c **** 		OpSetFreq(&osc3, f0-1);
 542              		.loc 1 131 3 is_stmt 1 view .LVU136
 543              	.LBB68:
 544              	.LBI55:
  93:Core/Src/audio.c **** {
 545              		.loc 1 93 6 view .LVU137
 546              	.LBB59:
  95:Core/Src/audio.c **** }
 547              		.loc 1 95 2 view .LVU138
  95:Core/Src/audio.c **** }
 548              		.loc 1 95 2 is_stmt 0 view .LVU139
 549              	.LBE59:
 550              	.LBE68:
 132:Core/Src/audio.c **** 		OpSetFreq(&osc4, f1);
 551              		.loc 1 132 3 is_stmt 1 view .LVU140
 552              	.LBB69:
 553              	.LBI61:
  93:Core/Src/audio.c **** {
 554              		.loc 1 93 6 view .LVU141
 555              	.LBB64:
  95:Core/Src/audio.c **** }
 556              		.loc 1 95 2 view .LVU142
  95:Core/Src/audio.c **** }
 557              		.loc 1 95 2 is_stmt 0 view .LVU143
 558              	.LBE64:
 559              	.LBE69:
 133:Core/Src/audio.c **** 		OpSetFreq(&sub_osc, f_sub);
 560              		.loc 1 133 3 is_stmt 1 view .LVU144
 561              	.LBB70:
 562              	.LBI70:
  93:Core/Src/audio.c **** {
 563              		.loc 1 93 6 view .LVU145
 564              	.LBB71:
  95:Core/Src/audio.c **** }
 565              		.loc 1 95 2 view .LVU146
  95:Core/Src/audio.c **** }
 566              		.loc 1 95 11 is_stmt 0 view .LVU147
 567 01a2 724A     		ldr	r2, .L27+84
  95:Core/Src/audio.c **** }
 568              		.loc 1 95 16 view .LVU148
 569 01a4 67EEAA7A 		vmul.f32	s15, s15, s21
 570              	.LVL37:
  95:Core/Src/audio.c **** }
 571              		.loc 1 95 16 view .LVU149
 572              	.LBE71:
 573              	.LBE70:
 574              	.LBB73:
 575              	.LBB33:
ARM GAS  /var/folders/0z/tsy30v1j4xl4_7kw94k978ww0000gn/T//ccXLvwkV.s 			page 17


 576 01a8 27EE2A6A 		vmul.f32	s12, s14, s21
 577              	.LBE33:
 578              	.LBE73:
 579              	.LBB74:
 580              	.LBB72:
  95:Core/Src/audio.c **** }
 581              		.loc 1 95 11 view .LVU150
 582 01ac C2ED017A 		vstr.32	s15, [r2, #4]
 583              	.LVL38:
  95:Core/Src/audio.c **** }
 584              		.loc 1 95 11 view .LVU151
 585              	.LBE72:
 586              	.LBE74:
 134:Core/Src/audio.c **** 		
 587              		.loc 1 134 3 is_stmt 1 view .LVU152
 588              	.LBB75:
 589              	.LBI50:
  93:Core/Src/audio.c **** {
 590              		.loc 1 93 6 view .LVU153
 591              	.LBB53:
  95:Core/Src/audio.c **** }
 592              		.loc 1 95 2 view .LVU154
  95:Core/Src/audio.c **** }
 593              		.loc 1 95 2 is_stmt 0 view .LVU155
 594              	.LBE53:
 595              	.LBE75:
 138:Core/Src/audio.c **** 			case 0:
 596              		.loc 1 138 3 is_stmt 1 view .LVU156
 597 01b0 009A     		ldr	r2, [sp]
 598              	.LBB76:
 599              	.LBB34:
  95:Core/Src/audio.c **** }
 600              		.loc 1 95 11 is_stmt 0 view .LVU157
 601 01b2 89ED016A 		vstr.32	s12, [r9, #4]
 602              	.LBE34:
 603              	.LBE76:
 138:Core/Src/audio.c **** 			case 0:
 604              		.loc 1 138 3 view .LVU158
 605 01b6 002A     		cmp	r2, #0
 606 01b8 40F08580 		bne	.L11
 141:Core/Src/audio.c **** 				
 607              		.loc 1 141 5 is_stmt 1 view .LVU159
 141:Core/Src/audio.c **** 				
 608              		.loc 1 141 18 is_stmt 0 view .LVU160
 609 01bc 0C2B     		cmp	r3, #12
 141:Core/Src/audio.c **** 				
 610              		.loc 1 141 17 view .LVU161
 611 01be 8ABF     		itet	hi
 612 01c0 06EB8303 		addhi	r3, r6, r3, lsl #2
 613 01c4 1AEE103A 		vmovls	r3, s20
 614 01c8 53F8303C 		ldrhi	r3, [r3, #-48]	@ float
 143:Core/Src/audio.c **** 		       
 615              		.loc 1 143 20 view .LVU162
 616 01cc 6848     		ldr	r0, .L27+88
 141:Core/Src/audio.c **** 				
 617              		.loc 1 141 11 view .LVU163
 618 01ce 3B60     		str	r3, [r7]	@ float
ARM GAS  /var/folders/0z/tsy30v1j4xl4_7kw94k978ww0000gn/T//ccXLvwkV.s 			page 18


 143:Core/Src/audio.c **** 		       
 619              		.loc 1 143 5 is_stmt 1 view .LVU164
 143:Core/Src/audio.c **** 		       
 620              		.loc 1 143 20 is_stmt 0 view .LVU165
 621 01d0 FFF7FEFF 		bl	osc_polyblepSaw
 622              	.LVL39:
 143:Core/Src/audio.c **** 		       
 623              		.loc 1 143 45 view .LVU166
 624 01d4 6348     		ldr	r0, .L27+76
 143:Core/Src/audio.c **** 		       
 625              		.loc 1 143 20 view .LVU167
 626 01d6 B0EE408A 		vmov.f32	s16, s0
 143:Core/Src/audio.c **** 		       
 627              		.loc 1 143 45 view .LVU168
 628 01da FFF7FEFF 		bl	osc_polyblepSaw
 629              	.LVL40:
 143:Core/Src/audio.c **** 		       
 630              		.loc 1 143 70 view .LVU169
 631 01de 6248     		ldr	r0, .L27+80
 143:Core/Src/audio.c **** 		       
 632              		.loc 1 143 43 view .LVU170
 633 01e0 38EE008A 		vadd.f32	s16, s16, s0
 143:Core/Src/audio.c **** 		       
 634              		.loc 1 143 70 view .LVU171
 635 01e4 FFF7FEFF 		bl	osc_polyblepSaw
 636              	.LVL41:
 143:Core/Src/audio.c **** 		       
 637              		.loc 1 143 95 view .LVU172
 638 01e8 6048     		ldr	r0, .L27+84
 143:Core/Src/audio.c **** 		       
 639              		.loc 1 143 68 view .LVU173
 640 01ea 38EE008A 		vadd.f32	s16, s16, s0
 143:Core/Src/audio.c **** 		       
 641              		.loc 1 143 95 view .LVU174
 642 01ee FFF7FEFF 		bl	osc_polyblepSaw
 643              	.LVL42:
 143:Core/Src/audio.c **** 		       
 644              		.loc 1 143 119 view .LVU175
 645 01f2 5A48     		ldr	r0, .L27+68
 143:Core/Src/audio.c **** 		       
 646              		.loc 1 143 93 view .LVU176
 647 01f4 38EE008A 		vadd.f32	s16, s16, s0
 143:Core/Src/audio.c **** 		       
 648              		.loc 1 143 119 view .LVU177
 649 01f8 FFF7FEFF 		bl	osc_polyblepRect
 650              	.LVL43:
 143:Core/Src/audio.c **** 		       
 651              		.loc 1 143 117 view .LVU178
 652 01fc 38EE008A 		vadd.f32	s16, s16, s0
 653 0200 F5EE007A 		vmov.f32	s15, #2.5e-1
 654 0204 28EE278A 		vmul.f32	s16, s16, s15
 655              	.LVL44:
 145:Core/Src/audio.c **** 
 656              		.loc 1 145 11 is_stmt 1 view .LVU179
 657              	.L13:
 161:Core/Src/audio.c **** 		Moog_filter.cutoff =clip(7000.f * filt_env + NYQUIST * pot1_norm * pot1_norm * pot1_norm * pot1_n
 658              		.loc 1 161 3 discriminator 2 view .LVU180
ARM GAS  /var/folders/0z/tsy30v1j4xl4_7kw94k978ww0000gn/T//ccXLvwkV.s 			page 19


 161:Core/Src/audio.c **** 		Moog_filter.cutoff =clip(7000.f * filt_env + NYQUIST * pot1_norm * pot1_norm * pot1_norm * pot1_n
 659              		.loc 1 161 14 is_stmt 0 discriminator 2 view .LVU181
 660 0208 4A48     		ldr	r0, .L27+28
 661 020a FFF7FEFF 		bl	ADSR_compute
 662              	.LVL45:
 162:Core/Src/audio.c **** 		// Moog_filter.k = 4.5f * pot2_norm;
 663              		.loc 1 162 3 is_stmt 1 discriminator 2 view .LVU182
 162:Core/Src/audio.c **** 		// Moog_filter.k = 4.5f * pot2_norm;
 664              		.loc 1 162 56 is_stmt 0 discriminator 2 view .LVU183
 665 020e 98ED007A 		vldr.32	s14, [r8]
 162:Core/Src/audio.c **** 		// Moog_filter.k = 4.5f * pot2_norm;
 666              		.loc 1 162 23 discriminator 2 view .LVU184
 667 0212 9FED4C1A 		vldr.32	s2, .L27+44
 162:Core/Src/audio.c **** 		// Moog_filter.k = 4.5f * pot2_norm;
 668              		.loc 1 162 56 discriminator 2 view .LVU185
 669 0216 67EE297A 		vmul.f32	s15, s14, s19
 162:Core/Src/audio.c **** 		// Moog_filter.k = 4.5f * pot2_norm;
 670              		.loc 1 162 23 discriminator 2 view .LVU186
 671 021a F3EE040A 		vmov.f32	s1, #2.0e+1
 162:Core/Src/audio.c **** 		// Moog_filter.k = 4.5f * pot2_norm;
 672              		.loc 1 162 68 discriminator 2 view .LVU187
 673 021e 67EE877A 		vmul.f32	s15, s15, s14
 162:Core/Src/audio.c **** 		// Moog_filter.k = 4.5f * pot2_norm;
 674              		.loc 1 162 80 discriminator 2 view .LVU188
 675 0222 67EE877A 		vmul.f32	s15, s15, s14
 162:Core/Src/audio.c **** 		// Moog_filter.k = 4.5f * pot2_norm;
 676              		.loc 1 162 92 discriminator 2 view .LVU189
 677 0226 67EE877A 		vmul.f32	s15, s15, s14
 162:Core/Src/audio.c **** 		// Moog_filter.k = 4.5f * pot2_norm;
 678              		.loc 1 162 23 discriminator 2 view .LVU190
 679 022a E0EE097A 		vfma.f32	s15, s0, s18
 680 022e B0EE670A 		vmov.f32	s0, s15
 681 0232 FFF7FEFF 		bl	clip
 682              	.LVL46:
 162:Core/Src/audio.c **** 		// Moog_filter.k = 4.5f * pot2_norm;
 683              		.loc 1 162 22 discriminator 2 view .LVU191
 684 0236 4F4B     		ldr	r3, .L27+92
 685 0238 83ED000A 		vstr.32	s0, [r3]
 165:Core/Src/audio.c **** 
 686              		.loc 1 165 3 is_stmt 1 discriminator 2 view .LVU192
 165:Core/Src/audio.c **** 
 687              		.loc 1 165 12 is_stmt 0 discriminator 2 view .LVU193
 688 023c 1846     		mov	r0, r3
 689 023e B0EE480A 		vmov.f32	s0, s16
 690 0242 FFF7FEFF 		bl	MoogLP_compute
 691              	.LVL47:
 168:Core/Src/audio.c **** 		sample *= amp_env;
 692              		.loc 1 168 13 discriminator 2 view .LVU194
 693 0246 4C48     		ldr	r0, .L27+96
 165:Core/Src/audio.c **** 
 694              		.loc 1 165 12 discriminator 2 view .LVU195
 695 0248 B0EE408A 		vmov.f32	s16, s0
 696              	.LVL48:
 168:Core/Src/audio.c **** 		sample *= amp_env;
 697              		.loc 1 168 3 is_stmt 1 discriminator 2 view .LVU196
 168:Core/Src/audio.c **** 		sample *= amp_env;
 698              		.loc 1 168 13 is_stmt 0 discriminator 2 view .LVU197
ARM GAS  /var/folders/0z/tsy30v1j4xl4_7kw94k978ww0000gn/T//ccXLvwkV.s 			page 20


 699 024c FFF7FEFF 		bl	ADSR_compute
 700              	.LVL49:
 169:Core/Src/audio.c **** 
 701              		.loc 1 169 3 is_stmt 1 discriminator 2 view .LVU198
 181:Core/Src/audio.c **** 		feedback = clip(pot3_norm + 0.25, 0, 1.1); // also increase feedback 
 702              		.loc 1 181 13 is_stmt 0 discriminator 2 view .LVU199
 703 0250 DBED007A 		vldr.32	s15, [fp]
 704 0254 494B     		ldr	r3, .L27+100
 182:Core/Src/audio.c **** 
 705              		.loc 1 182 14 discriminator 2 view .LVU200
 706 0256 DFED4A0A 		vldr.32	s1, .L27+104
 181:Core/Src/audio.c **** 		feedback = clip(pot3_norm + 0.25, 0, 1.1); // also increase feedback 
 707              		.loc 1 181 13 discriminator 2 view .LVU201
 708 025a C3ED007A 		vstr.32	s15, [r3]
 182:Core/Src/audio.c **** 
 709              		.loc 1 182 14 discriminator 2 view .LVU202
 710 025e B5EE007A 		vmov.f32	s14, #2.5e-1
 169:Core/Src/audio.c **** 
 711              		.loc 1 169 10 discriminator 2 view .LVU203
 712 0262 20EE088A 		vmul.f32	s16, s0, s16
 713              	.LVL50:
 181:Core/Src/audio.c **** 		feedback = clip(pot3_norm + 0.25, 0, 1.1); // also increase feedback 
 714              		.loc 1 181 3 is_stmt 1 discriminator 2 view .LVU204
 182:Core/Src/audio.c **** 
 715              		.loc 1 182 3 discriminator 2 view .LVU205
 182:Core/Src/audio.c **** 
 716              		.loc 1 182 14 is_stmt 0 discriminator 2 view .LVU206
 717 0266 B0EE681A 		vmov.f32	s2, s17
 718 026a 37EE870A 		vadd.f32	s0, s15, s14
 719 026e FFF7FEFF 		bl	clip
 720              	.LVL51:
 182:Core/Src/audio.c **** 
 721              		.loc 1 182 12 discriminator 2 view .LVU207
 722 0272 444B     		ldr	r3, .L27+108
 184:Core/Src/audio.c **** 		sampleL = delayLOut;
 723              		.loc 1 184 3 discriminator 2 view .LVU208
 724 0274 4449     		ldr	r1, .L27+112
 725 0276 4548     		ldr	r0, .L27+116
 182:Core/Src/audio.c **** 
 726              		.loc 1 182 14 discriminator 2 view .LVU209
 727 0278 F0EE407A 		vmov.f32	s15, s0
 184:Core/Src/audio.c **** 		sampleL = delayLOut;
 728              		.loc 1 184 3 discriminator 2 view .LVU210
 729 027c B0EE480A 		vmov.f32	s0, s16
 182:Core/Src/audio.c **** 
 730              		.loc 1 182 12 discriminator 2 view .LVU211
 731 0280 C3ED007A 		vstr.32	s15, [r3]
 184:Core/Src/audio.c **** 		sampleL = delayLOut;
 732              		.loc 1 184 3 is_stmt 1 discriminator 2 view .LVU212
 733 0284 FFF7FEFF 		bl	pingpongDelay_compute
 734              	.LVL52:
 185:Core/Src/audio.c **** 		sampleR = delayROut;
 735              		.loc 1 185 3 discriminator 2 view .LVU213
 185:Core/Src/audio.c **** 		sampleR = delayROut;
 736              		.loc 1 185 11 is_stmt 0 discriminator 2 view .LVU214
 737 0288 404B     		ldr	r3, .L27+116
 738 028a 93ED007A 		vldr.32	s14, [r3]
ARM GAS  /var/folders/0z/tsy30v1j4xl4_7kw94k978ww0000gn/T//ccXLvwkV.s 			page 21


 739              	.LVL53:
 186:Core/Src/audio.c **** 		
 740              		.loc 1 186 3 is_stmt 1 discriminator 2 view .LVU215
 186:Core/Src/audio.c **** 		
 741              		.loc 1 186 11 is_stmt 0 discriminator 2 view .LVU216
 742 028e 3E4B     		ldr	r3, .L27+112
 743              	.LBB77:
 744              	.LBB39:
  62:Core/Inc/helper_functions.h ****     {
 745              		.loc 2 62 8 discriminator 2 view .LVU217
 746 0290 F8EE086A 		vmov.f32	s13, #-3.0e+0
 747 0294 B4EEE67A 		vcmpe.f32	s14, s13
 748 0298 F1EE10FA 		vmrs	APSR_nzcv, FPSCR
 749              	.LBE39:
 750              	.LBE77:
 186:Core/Src/audio.c **** 		
 751              		.loc 1 186 11 discriminator 2 view .LVU218
 752 029c D3ED007A 		vldr.32	s15, [r3]
 753              	.LVL54:
 189:Core/Src/audio.c **** 		sampleR = SoftClip(sampleR);
 754              		.loc 1 189 3 is_stmt 1 discriminator 2 view .LVU219
 755              	.LBB78:
 756              	.LBI35:
  60:Core/Inc/helper_functions.h **** {
 757              		.loc 2 60 14 discriminator 2 view .LVU220
 758              	.LBB40:
  62:Core/Inc/helper_functions.h ****     {
 759              		.loc 2 62 5 discriminator 2 view .LVU221
  62:Core/Inc/helper_functions.h ****     {
 760              		.loc 2 62 8 is_stmt 0 discriminator 2 view .LVU222
 761 02a0 7FF505AF 		bpl	.L25
 762              	.LBE40:
 763              	.LBE78:
 764              	.LBB79:
 765              	.LBB47:
  62:Core/Inc/helper_functions.h ****     {
 766              		.loc 2 62 8 view .LVU223
 767 02a4 B8EE087A 		vmov.f32	s14, #-3.0e+0
 768              	.LVL55:
  62:Core/Inc/helper_functions.h ****     {
 769              		.loc 2 62 8 view .LVU224
 770 02a8 F4EEC77A 		vcmpe.f32	s15, s14
 771 02ac F1EE10FA 		vmrs	APSR_nzcv, FPSCR
 772              	.LBE47:
 773              	.LBE79:
 774              	.LBB80:
 775              	.LBB41:
 776 02b0 374A     		ldr	r2, .L27+120
 777              	.LVL56:
  62:Core/Inc/helper_functions.h ****     {
 778              		.loc 2 62 8 view .LVU225
 779              	.LBE41:
 780              	.LBE80:
 190:Core/Src/audio.c **** 
 781              		.loc 1 190 3 is_stmt 1 view .LVU226
 782              	.LBB81:
  60:Core/Inc/helper_functions.h **** {
ARM GAS  /var/folders/0z/tsy30v1j4xl4_7kw94k978ww0000gn/T//ccXLvwkV.s 			page 22


 783              		.loc 2 60 14 view .LVU227
 784              	.LBB48:
  62:Core/Inc/helper_functions.h ****     {
 785              		.loc 2 62 5 view .LVU228
  62:Core/Inc/helper_functions.h ****     {
 786              		.loc 2 62 8 is_stmt 0 view .LVU229
 787 02b2 7FF527AF 		bpl	.L26
 788              	.L21:
 789 02b6 364B     		ldr	r3, .L27+120
 790 02b8 47E7     		b	.L15
 791              	.LVL57:
 792              	.L20:
  62:Core/Inc/helper_functions.h ****     {
 793              		.loc 2 62 8 view .LVU230
 794              	.LBE48:
 795              	.LBE81:
 796              	.LBB82:
 797              	.LBB42:
 798 02ba 47F6FF72 		movw	r2, #32767
 799 02be 19E7     		b	.L14
 800              	.LVL58:
 801              	.L22:
  62:Core/Inc/helper_functions.h ****     {
 802              		.loc 2 62 8 view .LVU231
 803              	.LBE42:
 804              	.LBE82:
 805              	.LBB83:
 806              	.LBB49:
 807 02c0 47F6FF73 		movw	r3, #32767
 808 02c4 41E7     		b	.L15
 809              	.LVL59:
 810              	.L11:
  62:Core/Inc/helper_functions.h ****     {
 811              		.loc 2 62 8 view .LVU232
 812              	.LBE49:
 813              	.LBE83:
 149:Core/Src/audio.c **** 				osc1.FM_index = pot1_norm * pot1_norm * pot1_norm * pot1_norm * index_env;	
 814              		.loc 1 149 5 is_stmt 1 view .LVU233
 149:Core/Src/audio.c **** 				osc1.FM_index = pot1_norm * pot1_norm * pot1_norm * pot1_norm * index_env;	
 815              		.loc 1 149 17 is_stmt 0 view .LVU234
 816 02c6 1C48     		ldr	r0, .L27+32
 817 02c8 FFF7FEFF 		bl	ADSR_compute
 818              	.LVL60:
 150:Core/Src/audio.c **** 				sample = 0.8 * osc_FM2OP(f0);
 819              		.loc 1 150 5 is_stmt 1 view .LVU235
 150:Core/Src/audio.c **** 				sample = 0.8 * osc_FM2OP(f0);
 820              		.loc 1 150 31 is_stmt 0 view .LVU236
 821 02cc 98ED007A 		vldr.32	s14, [r8]
 822 02d0 67EE077A 		vmul.f32	s15, s14, s14
 149:Core/Src/audio.c **** 				osc1.FM_index = pot1_norm * pot1_norm * pot1_norm * pot1_norm * index_env;	
 823              		.loc 1 149 17 view .LVU237
 824 02d4 F0EE406A 		vmov.f32	s13, s0
 150:Core/Src/audio.c **** 				sample = 0.8 * osc_FM2OP(f0);
 825              		.loc 1 150 43 view .LVU238
 826 02d8 67EE877A 		vmul.f32	s15, s15, s14
 151:Core/Src/audio.c **** 				break;
 827              		.loc 1 151 20 view .LVU239
ARM GAS  /var/folders/0z/tsy30v1j4xl4_7kw94k978ww0000gn/T//ccXLvwkV.s 			page 23


 828 02dc 9AED000A 		vldr.32	s0, [r10]
 150:Core/Src/audio.c **** 				sample = 0.8 * osc_FM2OP(f0);
 829              		.loc 1 150 55 view .LVU240
 830 02e0 67EE877A 		vmul.f32	s15, s15, s14
 150:Core/Src/audio.c **** 				sample = 0.8 * osc_FM2OP(f0);
 831              		.loc 1 150 67 view .LVU241
 832 02e4 67EEA67A 		vmul.f32	s15, s15, s13
 150:Core/Src/audio.c **** 				sample = 0.8 * osc_FM2OP(f0);
 833              		.loc 1 150 19 view .LVU242
 834 02e8 C9ED037A 		vstr.32	s15, [r9, #12]
 151:Core/Src/audio.c **** 				break;
 835              		.loc 1 151 5 is_stmt 1 view .LVU243
 151:Core/Src/audio.c **** 				break;
 836              		.loc 1 151 20 is_stmt 0 view .LVU244
 837 02ec FFF7FEFF 		bl	osc_FM2OP
 838              	.LVL61:
 839 02f0 10EE100A 		vmov	r0, s0
 840 02f4 FFF7FEFF 		bl	__aeabi_f2d
 841              	.LVL62:
 151:Core/Src/audio.c **** 				break;
 842              		.loc 1 151 18 view .LVU245
 843 02f8 09A3     		adr	r3, .L27+8
 844 02fa D3E90023 		ldrd	r2, [r3]
 845 02fe FFF7FEFF 		bl	__aeabi_dmul
 846              	.LVL63:
 151:Core/Src/audio.c **** 				break;
 847              		.loc 1 151 12 view .LVU246
 848 0302 FFF7FEFF 		bl	__aeabi_d2f
 849              	.LVL64:
 850 0306 08EE100A 		vmov	s16, r0
 851              	.LVL65:
 152:Core/Src/audio.c **** 		}
 852              		.loc 1 152 5 is_stmt 1 view .LVU247
 853 030a 7DE7     		b	.L13
 854              	.LVL66:
 855              	.L9:
 199:Core/Src/audio.c **** 	}
 200:Core/Src/audio.c **** }
 856              		.loc 1 200 1 is_stmt 0 view .LVU248
 857 030c 03B0     		add	sp, sp, #12
 858              		.cfi_def_cfa_offset 60
 859              	.LVL67:
 860              		.loc 1 200 1 view .LVU249
 861              		@ sp needed
 862 030e BDEC068B 		vldm	sp!, {d8-d10}
 863              		.cfi_restore 84
 864              		.cfi_restore 85
 865              		.cfi_restore 82
 866              		.cfi_restore 83
 867              		.cfi_restore 80
 868              		.cfi_restore 81
 869              		.cfi_def_cfa_offset 36
 870 0312 BDE8F08F 		pop	{r4, r5, r6, r7, r8, r9, r10, fp, pc}
 871              	.LVL68:
 872              	.L28:
 873              		.loc 1 200 1 view .LVU250
 874 0316 00BF     		.align	3
ARM GAS  /var/folders/0z/tsy30v1j4xl4_7kw94k978ww0000gn/T//ccXLvwkV.s 			page 24


 875              	.L27:
 876 0318 FCA9F1D2 		.word	-755914244
 877 031c 4D62803F 		.word	1065378381
 878 0320 9A999999 		.word	-1717986918
 879 0324 9999E93F 		.word	1072273817
 880 0328 00000000 		.word	pot2_norm
 881 032c 00000000 		.word	current_count
 882 0330 00002440 		.word	1076101120
 883 0334 00000000 		.word	adsr_filt
 884 0338 00000000 		.word	adsr_index
 885 033c 00000000 		.word	.LANCHOR1
 886 0340 8D3B803F 		.word	1065368461
 887 0344 0044AC46 		.word	1185694720
 888 0348 00C0DA45 		.word	1171963904
 889 034c 00000000 		.word	.LANCHOR3
 890 0350 13D00241 		.word	1090703379
 891 0354 CDCC8C3F 		.word	1066192077
 892 0358 00FEFF46 		.word	1191181824
 893 035c 00000000 		.word	sub_osc
 894 0360 00000000 		.word	currentPitch
 895 0364 00000000 		.word	osc2
 896 0368 00000000 		.word	osc3
 897 036c 00000000 		.word	osc4
 898 0370 00000000 		.word	osc1
 899 0374 00000000 		.word	Moog_filter
 900 0378 00000000 		.word	adsr_amp
 901 037c 00000000 		.word	delay_wet
 902 0380 00000000 		.word	0
 903 0384 00000000 		.word	feedback
 904 0388 00000000 		.word	.LANCHOR4
 905 038c 00000000 		.word	.LANCHOR5
 906 0390 0180FFFF 		.word	-32767
 907 0394 00000000 		.word	.LANCHOR2
 908 0398 00000000 		.word	pot1_norm
 909 039c 00000000 		.word	pot3_norm
 910              		.cfi_endproc
 911              	.LFE241:
 913              		.section	.text.BSP_AUDIO_OUT_HalfTransfer_CallBack,"ax",%progbits
 914              		.align	1
 915              		.p2align 2,,3
 916              		.global	BSP_AUDIO_OUT_HalfTransfer_CallBack
 917              		.syntax unified
 918              		.thumb
 919              		.thumb_func
 921              	BSP_AUDIO_OUT_HalfTransfer_CallBack:
 922              	.LFB242:
 201:Core/Src/audio.c **** 
 202:Core/Src/audio.c **** 
 203:Core/Src/audio.c **** 
 204:Core/Src/audio.c **** void BSP_AUDIO_OUT_HalfTransfer_CallBack(void)
 205:Core/Src/audio.c **** {
 923              		.loc 1 205 1 is_stmt 1 view -0
 924              		.cfi_startproc
 925              		@ args = 0, pretend = 0, frame = 0
 926              		@ frame_needed = 0, uses_anonymous_args = 0
 927              		@ link register save eliminated.
 206:Core/Src/audio.c **** 	audioBlock((int16_t *)audioBuffer, BUFFER_SIZE_DIV_4);
ARM GAS  /var/folders/0z/tsy30v1j4xl4_7kw94k978ww0000gn/T//ccXLvwkV.s 			page 25


 928              		.loc 1 206 2 view .LVU252
 929 0000 0148     		ldr	r0, .L30
 930 0002 4021     		movs	r1, #64
 931 0004 FFF7FEBF 		b	audioBlock
 932              	.LVL69:
 933              	.L31:
 934              		.align	2
 935              	.L30:
 936 0008 00000000 		.word	.LANCHOR0
 937              		.cfi_endproc
 938              	.LFE242:
 940              		.section	.text.BSP_AUDIO_OUT_TransferComplete_CallBack,"ax",%progbits
 941              		.align	1
 942              		.p2align 2,,3
 943              		.global	BSP_AUDIO_OUT_TransferComplete_CallBack
 944              		.syntax unified
 945              		.thumb
 946              		.thumb_func
 948              	BSP_AUDIO_OUT_TransferComplete_CallBack:
 949              	.LFB243:
 207:Core/Src/audio.c **** }
 208:Core/Src/audio.c **** 
 209:Core/Src/audio.c **** void BSP_AUDIO_OUT_TransferComplete_CallBack(void)
 210:Core/Src/audio.c **** {
 950              		.loc 1 210 1 view -0
 951              		.cfi_startproc
 952              		@ args = 0, pretend = 0, frame = 0
 953              		@ frame_needed = 0, uses_anonymous_args = 0
 954              		@ link register save eliminated.
 211:Core/Src/audio.c **** 	audioBlock((int16_t *)(audioBuffer + BUFFER_SIZE_DIV_2), BUFFER_SIZE_DIV_4);
 955              		.loc 1 211 2 view .LVU254
 956 0000 0148     		ldr	r0, .L33
 957 0002 4021     		movs	r1, #64
 958 0004 FFF7FEBF 		b	audioBlock
 959              	.LVL70:
 960              	.L34:
 961              		.align	2
 962              	.L33:
 963 0008 00010000 		.word	.LANCHOR0+256
 964              		.cfi_endproc
 965              	.LFE243:
 967              		.section	.text.BSP_AUDIO_OUT_Error_CallBack,"ax",%progbits
 968              		.align	1
 969              		.p2align 2,,3
 970              		.global	BSP_AUDIO_OUT_Error_CallBack
 971              		.syntax unified
 972              		.thumb
 973              		.thumb_func
 975              	BSP_AUDIO_OUT_Error_CallBack:
 976              	.LFB244:
 212:Core/Src/audio.c **** }
 213:Core/Src/audio.c **** 
 214:Core/Src/audio.c **** void BSP_AUDIO_OUT_Error_CallBack(void)
 215:Core/Src/audio.c **** {
 977              		.loc 1 215 1 view -0
 978              		.cfi_startproc
 979              		@ Volatile: function does not return.
ARM GAS  /var/folders/0z/tsy30v1j4xl4_7kw94k978ww0000gn/T//ccXLvwkV.s 			page 26


 980              		@ args = 0, pretend = 0, frame = 0
 981              		@ frame_needed = 0, uses_anonymous_args = 0
 982              		@ link register save eliminated.
 983              	.L36:
 216:Core/Src/audio.c **** 	/* Stop the program with an infinite loop */
 217:Core/Src/audio.c **** 	while (1)
 984              		.loc 1 217 2 discriminator 1 view .LVU256
 218:Core/Src/audio.c **** 	{
 219:Core/Src/audio.c **** 	}
 985              		.loc 1 219 2 discriminator 1 view .LVU257
 217:Core/Src/audio.c **** 	{
 986              		.loc 1 217 8 discriminator 1 view .LVU258
 987 0000 FEE7     		b	.L36
 988              		.cfi_endproc
 989              	.LFE244:
 991 0002 00BF     		.section	.text.DMA1_Stream7_IRQHandler,"ax",%progbits
 992              		.align	1
 993              		.p2align 2,,3
 994              		.global	DMA1_Stream7_IRQHandler
 995              		.syntax unified
 996              		.thumb
 997              		.thumb_func
 999              	DMA1_Stream7_IRQHandler:
 1000              	.LFB245:
 220:Core/Src/audio.c **** }
 221:Core/Src/audio.c **** 
 222:Core/Src/audio.c **** 
 223:Core/Src/audio.c **** void I2S3_IRQHandler(void)
 224:Core/Src/audio.c **** {
 1001              		.loc 1 224 1 view -0
 1002              		.cfi_startproc
 1003              		@ args = 0, pretend = 0, frame = 0
 1004              		@ frame_needed = 0, uses_anonymous_args = 0
 1005              		@ link register save eliminated.
 225:Core/Src/audio.c **** 	HAL_DMA_IRQHandler(hAudioOutI2s.hdmatx);
 1006              		.loc 1 225 2 view .LVU260
 1007 0000 014B     		ldr	r3, .L38
 1008 0002 986B     		ldr	r0, [r3, #56]
 1009 0004 FFF7FEBF 		b	HAL_DMA_IRQHandler
 1010              	.LVL71:
 1011              	.L39:
 1012              		.align	2
 1013              	.L38:
 1014 0008 00000000 		.word	hAudioOutI2s
 1015              		.cfi_endproc
 1016              	.LFE245:
 1018              		.section	.text.DMA1_Stream3_IRQHandler,"ax",%progbits
 1019              		.align	1
 1020              		.p2align 2,,3
 1021              		.global	DMA1_Stream3_IRQHandler
 1022              		.syntax unified
 1023              		.thumb
 1024              		.thumb_func
 1026              	DMA1_Stream3_IRQHandler:
 1027              	.LFB246:
 226:Core/Src/audio.c **** }
 227:Core/Src/audio.c **** void I2S2_IRQHandler(void)
ARM GAS  /var/folders/0z/tsy30v1j4xl4_7kw94k978ww0000gn/T//ccXLvwkV.s 			page 27


 228:Core/Src/audio.c **** {
 1028              		.loc 1 228 1 view -0
 1029              		.cfi_startproc
 1030              		@ args = 0, pretend = 0, frame = 0
 1031              		@ frame_needed = 0, uses_anonymous_args = 0
 1032              		@ link register save eliminated.
 229:Core/Src/audio.c **** 	HAL_DMA_IRQHandler(hAudioInI2s.hdmarx);
 1033              		.loc 1 229 2 view .LVU262
 1034 0000 014B     		ldr	r3, .L41
 1035 0002 D86B     		ldr	r0, [r3, #60]
 1036 0004 FFF7FEBF 		b	HAL_DMA_IRQHandler
 1037              	.LVL72:
 1038              	.L42:
 1039              		.align	2
 1040              	.L41:
 1041 0008 00000000 		.word	hAudioInI2s
 1042              		.cfi_endproc
 1043              	.LFE246:
 1045              		.global	delayROut
 1046              		.global	delayLOut
 1047              		.global	audioBuffer
 1048              		.global	pbend
 1049              		.global	mtof
 1050              		.section	.bss.audioBuffer,"aw",%nobits
 1051              		.align	2
 1052              		.set	.LANCHOR0,. + 0
 1055              	audioBuffer:
 1056 0000 00000000 		.space	512
 1056      00000000 
 1056      00000000 
 1056      00000000 
 1056      00000000 
 1057              		.section	.bss.delayLOut,"aw",%nobits
 1058              		.align	2
 1059              		.set	.LANCHOR5,. + 0
 1062              	delayLOut:
 1063 0000 00000000 		.space	4
 1064              		.section	.bss.delayROut,"aw",%nobits
 1065              		.align	2
 1066              		.set	.LANCHOR4,. + 0
 1069              	delayROut:
 1070 0000 00000000 		.space	4
 1071              		.section	.bss.f0,"aw",%nobits
 1072              		.align	2
 1073              		.set	.LANCHOR2,. + 0
 1076              	f0:
 1077 0000 00000000 		.space	4
 1078              		.section	.bss.f_sub,"aw",%nobits
 1079              		.align	2
 1080              		.set	.LANCHOR3,. + 0
 1083              	f_sub:
 1084 0000 00000000 		.space	4
 1085              		.section	.rodata.mtof,"a"
 1086              		.align	2
 1087              		.set	.LANCHOR1,. + 0
 1090              	mtof:
 1091 0000 13D00241 		.word	1090703379
ARM GAS  /var/folders/0z/tsy30v1j4xl4_7kw94k978ww0000gn/T//ccXLvwkV.s 			page 28


 1092 0004 60970A41 		.word	1091213152
 1093 0008 17D51241 		.word	1091753239
 1094 000c 41901B41 		.word	1092325441
 1095 0010 54D02441 		.word	1092931668
 1096 0014 369D2E41 		.word	1093573942
 1097 0018 4AFF3841 		.word	1094254410
 1098 001c 6AFF4341 		.word	1094975338
 1099 0020 01A74F41 		.word	1095739137
 1100 0024 00005C41 		.word	1096548352
 1101 0028 F7146941 		.word	1097405687
 1102 002c 10F17641 		.word	1098314000
 1103 0030 13D08241 		.word	1099091987
 1104 0034 60978A41 		.word	1099601760
 1105 0038 17D59241 		.word	1100141847
 1106 003c 41909B41 		.word	1100714049
 1107 0040 54D0A441 		.word	1101320276
 1108 0044 369DAE41 		.word	1101962550
 1109 0048 49FFB841 		.word	1102643017
 1110 004c 6BFFC341 		.word	1103363947
 1111 0050 01A7CF41 		.word	1104127745
 1112 0054 0000DC41 		.word	1104936960
 1113 0058 F614E941 		.word	1105794294
 1114 005c 10F1F641 		.word	1106702608
 1115 0060 13D00242 		.word	1107480595
 1116 0064 60970A42 		.word	1107990368
 1117 0068 17D51242 		.word	1108530455
 1118 006c 41901B42 		.word	1109102657
 1119 0070 54D02442 		.word	1109708884
 1120 0074 379D2E42 		.word	1110351159
 1121 0078 49FF3842 		.word	1111031625
 1122 007c 6AFF4342 		.word	1111752554
 1123 0080 00A74F42 		.word	1112516352
 1124 0084 00005C42 		.word	1113325568
 1125 0088 F6146942 		.word	1114182902
 1126 008c 10F17642 		.word	1115091216
 1127 0090 12D08242 		.word	1115869202
 1128 0094 60978A42 		.word	1116378976
 1129 0098 17D59242 		.word	1116919063
 1130 009c 41909B42 		.word	1117491265
 1131 00a0 54D0A442 		.word	1118097492
 1132 00a4 379DAE42 		.word	1118739767
 1133 00a8 49FFB842 		.word	1119420233
 1134 00ac 6AFFC342 		.word	1120141162
 1135 00b0 00A7CF42 		.word	1120904960
 1136 00b4 0000DC42 		.word	1121714176
 1137 00b8 F614E942 		.word	1122571510
 1138 00bc 10F1F642 		.word	1123479824
 1139 00c0 13D00243 		.word	1124257811
 1140 00c4 60970A43 		.word	1124767584
 1141 00c8 17D51243 		.word	1125307671
 1142 00cc 41901B43 		.word	1125879873
 1143 00d0 54D02443 		.word	1126486100
 1144 00d4 379D2E43 		.word	1127128375
 1145 00d8 49FF3843 		.word	1127808841
 1146 00dc 6AFF4343 		.word	1128529770
 1147 00e0 00A74F43 		.word	1129293568
 1148 00e4 00005C43 		.word	1130102784
ARM GAS  /var/folders/0z/tsy30v1j4xl4_7kw94k978ww0000gn/T//ccXLvwkV.s 			page 29


 1149 00e8 F6146943 		.word	1130960118
 1150 00ec 10F17643 		.word	1131868432
 1151 00f0 13D08243 		.word	1132646419
 1152 00f4 60978A43 		.word	1133156192
 1153 00f8 17D59243 		.word	1133696279
 1154 00fc 41909B43 		.word	1134268481
 1155 0100 54D0A443 		.word	1134874708
 1156 0104 379DAE43 		.word	1135516983
 1157 0108 49FFB843 		.word	1136197449
 1158 010c 6AFFC343 		.word	1136918378
 1159 0110 00A7CF43 		.word	1137682176
 1160 0114 0000DC43 		.word	1138491392
 1161 0118 F614E943 		.word	1139348726
 1162 011c 10F1F643 		.word	1140257040
 1163 0120 13D00244 		.word	1141035027
 1164 0124 60970A44 		.word	1141544800
 1165 0128 17D51244 		.word	1142084887
 1166 012c 41901B44 		.word	1142657089
 1167 0130 54D02444 		.word	1143263316
 1168 0134 379D2E44 		.word	1143905591
 1169 0138 49FF3844 		.word	1144586057
 1170 013c 6AFF4344 		.word	1145306986
 1171 0140 00A74F44 		.word	1146070784
 1172 0144 00005C44 		.word	1146880000
 1173 0148 F6146944 		.word	1147737334
 1174 014c 10F17644 		.word	1148645648
 1175 0150 13D08244 		.word	1149423635
 1176 0154 60978A44 		.word	1149933408
 1177 0158 17D59244 		.word	1150473495
 1178 015c 41909B44 		.word	1151045697
 1179 0160 54D0A444 		.word	1151651924
 1180 0164 379DAE44 		.word	1152294199
 1181 0168 49FFB844 		.word	1152974665
 1182 016c 6AFFC344 		.word	1153695594
 1183 0170 00A7CF44 		.word	1154459392
 1184 0174 0000DC44 		.word	1155268608
 1185 0178 F614E944 		.word	1156125942
 1186 017c 10F1F644 		.word	1157034256
 1187 0180 13D00245 		.word	1157812243
 1188 0184 60970A45 		.word	1158322016
 1189 0188 17D51245 		.word	1158862103
 1190 018c 41901B45 		.word	1159434305
 1191 0190 54D02445 		.word	1160040532
 1192 0194 379D2E45 		.word	1160682807
 1193 0198 49FF3845 		.word	1161363273
 1194 019c 6AFF4345 		.word	1162084202
 1195 01a0 00A74F45 		.word	1162848000
 1196 01a4 00005C45 		.word	1163657216
 1197 01a8 F6146945 		.word	1164514550
 1198 01ac 10F17645 		.word	1165422864
 1199 01b0 13D08245 		.word	1166200851
 1200 01b4 60978A45 		.word	1166710624
 1201 01b8 17D59245 		.word	1167250711
 1202 01bc 41909B45 		.word	1167822913
 1203 01c0 54D0A445 		.word	1168429140
 1204 01c4 379DAE45 		.word	1169071415
 1205 01c8 49FFB845 		.word	1169751881
ARM GAS  /var/folders/0z/tsy30v1j4xl4_7kw94k978ww0000gn/T//ccXLvwkV.s 			page 30


 1206 01cc 6AFFC345 		.word	1170472810
 1207 01d0 00A7CF45 		.word	1171236608
 1208 01d4 0000DC45 		.word	1172045824
 1209 01d8 F614E945 		.word	1172903158
 1210 01dc 10F1F645 		.word	1173811472
 1211 01e0 13D00246 		.word	1174589459
 1212 01e4 60970A46 		.word	1175099232
 1213 01e8 17D51246 		.word	1175639319
 1214 01ec 41901B46 		.word	1176211521
 1215 01f0 54D02446 		.word	1176817748
 1216 01f4 379D2E46 		.word	1177460023
 1217 01f8 49FF3846 		.word	1178140489
 1218 01fc 6AFF4346 		.word	1178861418
 1219              		.section	.rodata.pbend,"a"
 1220              		.align	2
 1223              	pbend:
 1224 0000 0000003F 		.word	1056964608
 1225 0004 5E2C003F 		.word	1056975966
 1226 0008 DE58003F 		.word	1056987358
 1227 000c 5E85003F 		.word	1056998750
 1228 0010 EEB1003F 		.word	1057010158
 1229 0014 8FDE003F 		.word	1057021583
 1230 0018 410B013F 		.word	1057033025
 1231 001c 0438013F 		.word	1057044484
 1232 0020 D864013F 		.word	1057055960
 1233 0024 AC91013F 		.word	1057067436
 1234 0028 A1BE013F 		.word	1057078945
 1235 002c A7EB013F 		.word	1057090471
 1236 0030 AD18023F 		.word	1057101997
 1237 0034 D445023F 		.word	1057113556
 1238 0038 FC72023F 		.word	1057125116
 1239 003c 34A0023F 		.word	1057136692
 1240 0040 8ECD023F 		.word	1057148302
 1241 0044 E8FA023F 		.word	1057159912
 1242 0048 5228033F 		.word	1057171538
 1243 004c CE55033F 		.word	1057183182
 1244 0050 5A83033F 		.word	1057194842
 1245 0054 F7B0033F 		.word	1057206519
 1246 0058 A4DE033F 		.word	1057218212
 1247 005c 630C043F 		.word	1057229923
 1248 0060 213A043F 		.word	1057241633
 1249 0064 0168043F 		.word	1057253377
 1250 0068 F295043F 		.word	1057265138
 1251 006c E3C3043F 		.word	1057276899
 1252 0070 F5F1043F 		.word	1057288693
 1253 0074 1920053F 		.word	1057300505
 1254 0078 3C4E053F 		.word	1057312316
 1255 007c 707C053F 		.word	1057324144
 1256 0080 C5AA053F 		.word	1057336005
 1257 0084 1BD9053F 		.word	1057347867
 1258 0088 9207063F 		.word	1057359762
 1259 008c 0936063F 		.word	1057371657
 1260 0090 9164063F 		.word	1057383569
 1261 0094 2993063F 		.word	1057395497
 1262 0098 D3C1063F 		.word	1057407443
 1263 009c 9EF0063F 		.word	1057419422
 1264 00a0 681F073F 		.word	1057431400
ARM GAS  /var/folders/0z/tsy30v1j4xl4_7kw94k978ww0000gn/T//ccXLvwkV.s 			page 31


 1265 00a4 444E073F 		.word	1057443396
 1266 00a8 317D073F 		.word	1057455409
 1267 00ac 2EAC073F 		.word	1057467438
 1268 00b0 3CDB073F 		.word	1057479484
 1269 00b4 5B0A083F 		.word	1057491547
 1270 00b8 7A39083F 		.word	1057503610
 1271 00bc BA68083F 		.word	1057515706
 1272 00c0 0B98083F 		.word	1057527819
 1273 00c4 6DC7083F 		.word	1057539949
 1274 00c8 E0F6083F 		.word	1057552096
 1275 00cc 6326093F 		.word	1057564259
 1276 00d0 E755093F 		.word	1057576423
 1277 00d4 8C85093F 		.word	1057588620
 1278 00d8 42B5093F 		.word	1057600834
 1279 00dc 08E5093F 		.word	1057613064
 1280 00e0 CF140A3F 		.word	1057625295
 1281 00e4 B7440A3F 		.word	1057637559
 1282 00e8 B0740A3F 		.word	1057649840
 1283 00ec A9A40A3F 		.word	1057662121
 1284 00f0 C3D40A3F 		.word	1057674435
 1285 00f4 EE040B3F 		.word	1057686766
 1286 00f8 2B350B3F 		.word	1057699115
 1287 00fc 67650B3F 		.word	1057711463
 1288 0100 C4950B3F 		.word	1057723844
 1289 0104 32C60B3F 		.word	1057736242
 1290 0108 A1F60B3F 		.word	1057748641
 1291 010c 31270C3F 		.word	1057761073
 1292 0110 D1570C3F 		.word	1057773521
 1293 0114 72880C3F 		.word	1057785970
 1294 0118 34B90C3F 		.word	1057798452
 1295 011c 07EA0C3F 		.word	1057810951
 1296 0120 DA1A0D3F 		.word	1057823450
 1297 0124 CF4B0D3F 		.word	1057835983
 1298 0128 D47C0D3F 		.word	1057848532
 1299 012c DAAD0D3F 		.word	1057861082
 1300 0130 01DF0D3F 		.word	1057873665
 1301 0134 38100E3F 		.word	1057886264
 1302 0138 81410E3F 		.word	1057898881
 1303 013c DA720E3F 		.word	1057911514
 1304 0140 33A40E3F 		.word	1057924147
 1305 0144 AED50E3F 		.word	1057936814
 1306 0148 3A070F3F 		.word	1057949498
 1307 014c D6380F3F 		.word	1057962198
 1308 0150 836A0F3F 		.word	1057974915
 1309 0154 419C0F3F 		.word	1057987649
 1310 0158 10CE0F3F 		.word	1058000400
 1311 015c EFFF0F3F 		.word	1058013167
 1312 0160 DF31103F 		.word	1058025951
 1313 0164 E063103F 		.word	1058038752
 1314 0168 F295103F 		.word	1058051570
 1315 016c 15C8103F 		.word	1058064405
 1316 0170 48FA103F 		.word	1058077256
 1317 0174 8C2C113F 		.word	1058090124
 1318 0178 F25E113F 		.word	1058103026
 1319 017c 5891113F 		.word	1058115928
 1320 0180 CEC3113F 		.word	1058128846
 1321 0184 66F6113F 		.word	1058141798
ARM GAS  /var/folders/0z/tsy30v1j4xl4_7kw94k978ww0000gn/T//ccXLvwkV.s 			page 32


 1322 0188 FE28123F 		.word	1058154750
 1323 018c B85B123F 		.word	1058167736
 1324 0190 718E123F 		.word	1058180721
 1325 0194 4CC1123F 		.word	1058193740
 1326 0198 28F4123F 		.word	1058206760
 1327 019c 2427133F 		.word	1058219812
 1328 01a0 325A133F 		.word	1058232882
 1329 01a4 3F8D133F 		.word	1058245951
 1330 01a8 6EC0133F 		.word	1058259054
 1331 01ac AEF3133F 		.word	1058272174
 1332 01b0 FE26143F 		.word	1058285310
 1333 01b4 605A143F 		.word	1058298464
 1334 01b8 D28D143F 		.word	1058311634
 1335 01bc 55C1143F 		.word	1058324821
 1336 01c0 E8F4143F 		.word	1058338024
 1337 01c4 9E28153F 		.word	1058351262
 1338 01c8 535C153F 		.word	1058364499
 1339 01cc 1990153F 		.word	1058377753
 1340 01d0 00C4153F 		.word	1058391040
 1341 01d4 E8F7153F 		.word	1058404328
 1342 01d8 F12B163F 		.word	1058417649
 1343 01dc 0B60163F 		.word	1058430987
 1344 01e0 2594163F 		.word	1058444325
 1345 01e4 60C8163F 		.word	1058457696
 1346 01e8 ADFC163F 		.word	1058471085
 1347 01ec 0A31173F 		.word	1058484490
 1348 01f0 7765173F 		.word	1058497911
 1349 01f4 079A173F 		.word	1058511367
 1350 01f8 96CE173F 		.word	1058524822
 1351 01fc 3603183F 		.word	1058538294
 1352 0200 F837183F 		.word	1058551800
 1353 0204 B96C183F 		.word	1058565305
 1354 0208 9DA1183F 		.word	1058578845
 1355 020c 80D6183F 		.word	1058592384
 1356 0210 850B193F 		.word	1058605957
 1357 0214 9A40193F 		.word	1058619546
 1358 0218 C075193F 		.word	1058633152
 1359 021c F8AA193F 		.word	1058646776
 1360 0220 3FE0193F 		.word	1058660415
 1361 0224 A9151A3F 		.word	1058674089
 1362 0228 124B1A3F 		.word	1058687762
 1363 022c 9D801A3F 		.word	1058701469
 1364 0230 28B61A3F 		.word	1058715176
 1365 0234 D5EB1A3F 		.word	1058728917
 1366 0238 92211B3F 		.word	1058742674
 1367 023c 60571B3F 		.word	1058756448
 1368 0240 3F8D1B3F 		.word	1058770239
 1369 0244 2FC31B3F 		.word	1058784047
 1370 0248 2FF91B3F 		.word	1058797871
 1371 024c 512F1C3F 		.word	1058811729
 1372 0250 73651C3F 		.word	1058825587
 1373 0254 B79B1C3F 		.word	1058839479
 1374 0258 FAD11C3F 		.word	1058853370
 1375 025c 5F081D3F 		.word	1058867295
 1376 0260 D53E1D3F 		.word	1058881237
 1377 0264 5C751D3F 		.word	1058895196
 1378 0268 04AC1D3F 		.word	1058909188
ARM GAS  /var/folders/0z/tsy30v1j4xl4_7kw94k978ww0000gn/T//ccXLvwkV.s 			page 33


 1379 026c ACE21D3F 		.word	1058923180
 1380 0270 76191E3F 		.word	1058937206
 1381 0274 40501E3F 		.word	1058951232
 1382 0278 2B871E3F 		.word	1058965291
 1383 027c 27BE1E3F 		.word	1058979367
 1384 0280 34F51E3F 		.word	1058993460
 1385 0284 522C1F3F 		.word	1059007570
 1386 0288 80631F3F 		.word	1059021696
 1387 028c D09A1F3F 		.word	1059035856
 1388 0290 20D21F3F 		.word	1059050016
 1389 0294 9109203F 		.word	1059064209
 1390 0298 1441203F 		.word	1059078420
 1391 029c A778203F 		.word	1059092647
 1392 02a0 4BB0203F 		.word	1059106891
 1393 02a4 10E8203F 		.word	1059121168
 1394 02a8 D61F213F 		.word	1059135446
 1395 02ac BC57213F 		.word	1059149756
 1396 02b0 B48F213F 		.word	1059164084
 1397 02b4 BDC7213F 		.word	1059178429
 1398 02b8 D6FF213F 		.word	1059192790
 1399 02bc 0038223F 		.word	1059207168
 1400 02c0 3B70223F 		.word	1059221563
 1401 02c4 97A8223F 		.word	1059235991
 1402 02c8 05E1223F 		.word	1059250437
 1403 02cc 8319233F 		.word	1059264899
 1404 02d0 1152233F 		.word	1059279377
 1405 02d4 B18A233F 		.word	1059293873
 1406 02d8 72C3233F 		.word	1059308402
 1407 02dc 33FC233F 		.word	1059322931
 1408 02e0 1635243F 		.word	1059337494
 1409 02e4 096E243F 		.word	1059352073
 1410 02e8 0DA7243F 		.word	1059366669
 1411 02ec 22E0243F 		.word	1059381282
 1412 02f0 5919253F 		.word	1059395929
 1413 02f4 A052253F 		.word	1059410592
 1414 02f8 E78B253F 		.word	1059425255
 1415 02fc 61C5253F 		.word	1059439969
 1416 0300 DAFE253F 		.word	1059454682
 1417 0304 6538263F 		.word	1059469413
 1418 0308 1172263F 		.word	1059484177
 1419 030c CDAB263F 		.word	1059498957
 1420 0310 9BE5263F 		.word	1059513755
 1421 0314 791F273F 		.word	1059528569
 1422 0318 6859273F 		.word	1059543400
 1423 031c 7993273F 		.word	1059558265
 1424 0320 9ACD273F 		.word	1059573146
 1425 0324 CC07283F 		.word	1059588044
 1426 0328 0F42283F 		.word	1059602959
 1427 032c 637C283F 		.word	1059617891
 1428 0330 D8B6283F 		.word	1059632856
 1429 0334 5EF1283F 		.word	1059647838
 1430 0338 F52B293F 		.word	1059662837
 1431 033c 9D66293F 		.word	1059677853
 1432 0340 55A1293F 		.word	1059692885
 1433 0344 2FDC293F 		.word	1059707951
 1434 0348 1A172A3F 		.word	1059723034
 1435 034c 15522A3F 		.word	1059738133
ARM GAS  /var/folders/0z/tsy30v1j4xl4_7kw94k978ww0000gn/T//ccXLvwkV.s 			page 34


 1436 0350 228D2A3F 		.word	1059753250
 1437 0354 50C82A3F 		.word	1059768400
 1438 0358 8E032B3F 		.word	1059783566
 1439 035c DE3E2B3F 		.word	1059798750
 1440 0360 3E7A2B3F 		.word	1059813950
 1441 0364 AFB52B3F 		.word	1059829167
 1442 0368 41F12B3F 		.word	1059844417
 1443 036c E42C2C3F 		.word	1059859684
 1444 0370 98682C3F 		.word	1059874968
 1445 0374 5DA42C3F 		.word	1059890269
 1446 0378 44E02C3F 		.word	1059905604
 1447 037c 3B1C2D3F 		.word	1059920955
 1448 0380 43582D3F 		.word	1059936323
 1449 0384 5B942D3F 		.word	1059951707
 1450 0388 96D02D3F 		.word	1059967126
 1451 038c D00C2E3F 		.word	1059982544
 1452 0390 3D492E3F 		.word	1059998013
 1453 0394 A9852E3F 		.word	1060013481
 1454 0398 27C22E3F 		.word	1060028967
 1455 039c C5FE2E3F 		.word	1060044485
 1456 03a0 753B2F3F 		.word	1060060021
 1457 03a4 46782F3F 		.word	1060075590
 1458 03a8 18B52F3F 		.word	1060091160
 1459 03ac 0AF22F3F 		.word	1060106762
 1460 03b0 0E2F303F 		.word	1060122382
 1461 03b4 226C303F 		.word	1060138018
 1462 03b8 58A9303F 		.word	1060153688
 1463 03bc 9FE6303F 		.word	1060169375
 1464 03c0 F623313F 		.word	1060185078
 1465 03c4 5F61313F 		.word	1060200799
 1466 03c8 E99E313F 		.word	1060216553
 1467 03cc 83DC313F 		.word	1060232323
 1468 03d0 2E1A323F 		.word	1060248110
 1469 03d4 FB57323F 		.word	1060263931
 1470 03d8 C895323F 		.word	1060279752
 1471 03dc C8D3323F 		.word	1060295624
 1472 03e0 C711333F 		.word	1060311495
 1473 03e4 D74F333F 		.word	1060327383
 1474 03e8 088E333F 		.word	1060343304
 1475 03ec 5CCC333F 		.word	1060359260
 1476 03f0 AF0A343F 		.word	1060375215
 1477 03f4 2349343F 		.word	1060391203
 1478 03f8 A987343F 		.word	1060407209
 1479 03fc 3FC6343F 		.word	1060423231
 1480 0400 F704353F 		.word	1060439287
 1481 0404 BF43353F 		.word	1060455359
 1482 0408 9982353F 		.word	1060471449
 1483 040c 83C1353F 		.word	1060487555
 1484 0410 8F00363F 		.word	1060503695
 1485 0414 AB3F363F 		.word	1060519851
 1486 0418 E97E363F 		.word	1060536041
 1487 041c 38BE363F 		.word	1060552248
 1488 0420 97FD363F 		.word	1060568471
 1489 0424 083D373F 		.word	1060584712
 1490 0428 9A7C373F 		.word	1060600986
 1491 042c 3CBC373F 		.word	1060617276
 1492 0430 F0FB373F 		.word	1060633584
ARM GAS  /var/folders/0z/tsy30v1j4xl4_7kw94k978ww0000gn/T//ccXLvwkV.s 			page 35


 1493 0434 C53B383F 		.word	1060649925
 1494 0438 AB7B383F 		.word	1060666283
 1495 043c A1BB383F 		.word	1060682657
 1496 0440 A9FB383F 		.word	1060699049
 1497 0444 D13B393F 		.word	1060715473
 1498 0448 1C7C393F 		.word	1060731932
 1499 044c 66BC393F 		.word	1060748390
 1500 0450 D2FC393F 		.word	1060764882
 1501 0454 4F3D3A3F 		.word	1060781391
 1502 0458 ED7D3A3F 		.word	1060797933
 1503 045c 9DBE3A3F 		.word	1060814493
 1504 0460 5CFF3A3F 		.word	1060831068
 1505 0464 2D403B3F 		.word	1060847661
 1506 0468 1F813B3F 		.word	1060864287
 1507 046c 33C23B3F 		.word	1060880947
 1508 0470 47033C3F 		.word	1060897607
 1509 0474 7C443C3F 		.word	1060914300
 1510 0478 C2853C3F 		.word	1060931010
 1511 047c 2AC73C3F 		.word	1060947754
 1512 0480 A2083D3F 		.word	1060964514
 1513 0484 2C4A3D3F 		.word	1060981292
 1514 0488 D68B3D3F 		.word	1060998102
 1515 048c 92CD3D3F 		.word	1061014930
 1516 0490 6F0F3E3F 		.word	1061031791
 1517 0494 4C513E3F 		.word	1061048652
 1518 0498 4B933E3F 		.word	1061065547
 1519 049c 6BD53E3F 		.word	1061082475
 1520 04a0 9C173F3F 		.word	1061099420
 1521 04a4 DE593F3F 		.word	1061116382
 1522 04a8 419C3F3F 		.word	1061133377
 1523 04ac B5DE3F3F 		.word	1061150389
 1524 04b0 3A21403F 		.word	1061167418
 1525 04b4 E063403F 		.word	1061184480
 1526 04b8 98A6403F 		.word	1061201560
 1527 04bc 60E9403F 		.word	1061218656
 1528 04c0 492C413F 		.word	1061235785
 1529 04c4 446F413F 		.word	1061252932
 1530 04c8 5FB2413F 		.word	1061270111
 1531 04cc 8CF5413F 		.word	1061287308
 1532 04d0 DA38423F 		.word	1061304538
 1533 04d4 287C423F 		.word	1061321768
 1534 04d8 A9BF423F 		.word	1061339049
 1535 04dc 2A03433F 		.word	1061356330
 1536 04e0 CC46433F 		.word	1061373644
 1537 04e4 7E8A433F 		.word	1061390974
 1538 04e8 53CE433F 		.word	1061408339
 1539 04ec 3812443F 		.word	1061425720
 1540 04f0 3F56443F 		.word	1061443135
 1541 04f4 569A443F 		.word	1061460566
 1542 04f8 7FDE443F 		.word	1061478015
 1543 04fc C922453F 		.word	1061495497
 1544 0500 2367453F 		.word	1061512995
 1545 0504 9FAB453F 		.word	1061530527
 1546 0508 2CF0453F 		.word	1061548076
 1547 050c DB34463F 		.word	1061565659
 1548 0510 8979463F 		.word	1061583241
 1549 0514 6ABE463F 		.word	1061600874
ARM GAS  /var/folders/0z/tsy30v1j4xl4_7kw94k978ww0000gn/T//ccXLvwkV.s 			page 36


 1550 0518 4B03473F 		.word	1061618507
 1551 051c 5E48473F 		.word	1061636190
 1552 0520 718D473F 		.word	1061653873
 1553 0524 A6D2473F 		.word	1061671590
 1554 0528 FC17483F 		.word	1061689340
 1555 052c 645D483F 		.word	1061707108
 1556 0530 DBA2483F 		.word	1061724891
 1557 0534 75E8483F 		.word	1061742709
 1558 0538 1F2E493F 		.word	1061760543
 1559 053c DA73493F 		.word	1061778394
 1560 0540 B6B9493F 		.word	1061796278
 1561 0544 B5FF493F 		.word	1061814197
 1562 0548 C3454A3F 		.word	1061832131
 1563 054c E38B4A3F 		.word	1061850083
 1564 0550 24D24A3F 		.word	1061868068
 1565 0554 76184B3F 		.word	1061886070
 1566 0558 EA5E4B3F 		.word	1061904106
 1567 055c 6EA54B3F 		.word	1061922158
 1568 0560 14EC4B3F 		.word	1061940244
 1569 0564 CA324C3F 		.word	1061958346
 1570 0568 A3794C3F 		.word	1061976483
 1571 056c 8BC04C3F 		.word	1061994635
 1572 0570 85074D3F 		.word	1062012805
 1573 0574 A04E4D3F 		.word	1062031008
 1574 0578 DD954D3F 		.word	1062049245
 1575 057c 2BDD4D3F 		.word	1062067499
 1576 0580 89244E3F 		.word	1062085769
 1577 0584 096C4E3F 		.word	1062104073
 1578 0588 9AB34E3F 		.word	1062122394
 1579 058c 4CFB4E3F 		.word	1062140748
 1580 0590 20434F3F 		.word	1062159136
 1581 0594 F48A4F3F 		.word	1062177524
 1582 0598 FAD24F3F 		.word	1062195962
 1583 059c 001B503F 		.word	1062214400
 1584 05a0 3963503F 		.word	1062232889
 1585 05a4 71AB503F 		.word	1062251377
 1586 05a8 DCF3503F 		.word	1062269916
 1587 05ac 473C513F 		.word	1062288455
 1588 05b0 E484513F 		.word	1062307044
 1589 05b4 81CD513F 		.word	1062325633
 1590 05b8 5116523F 		.word	1062344273
 1591 05bc 205F523F 		.word	1062362912
 1592 05c0 22A8523F 		.word	1062381602
 1593 05c4 35F1523F 		.word	1062400309
 1594 05c8 583A533F 		.word	1062419032
 1595 05cc 9D83533F 		.word	1062437789
 1596 05d0 F3CC533F 		.word	1062456563
 1597 05d4 6A16543F 		.word	1062475370
 1598 05d8 F25F543F 		.word	1062494194
 1599 05dc 9BA9543F 		.word	1062513051
 1600 05e0 56F3543F 		.word	1062531926
 1601 05e4 323D553F 		.word	1062550834
 1602 05e8 2F87553F 		.word	1062569775
 1603 05ec 3DD1553F 		.word	1062588733
 1604 05f0 5C1B563F 		.word	1062607708
 1605 05f4 9D65563F 		.word	1062626717
 1606 05f8 FFAF563F 		.word	1062645759
ARM GAS  /var/folders/0z/tsy30v1j4xl4_7kw94k978ww0000gn/T//ccXLvwkV.s 			page 37


 1607 05fc 72FA563F 		.word	1062664818
 1608 0600 F644573F 		.word	1062683894
 1609 0604 AC8F573F 		.word	1062703020
 1610 0608 62DA573F 		.word	1062722146
 1611 060c 4A25583F 		.word	1062741322
 1612 0610 3370583F 		.word	1062760499
 1613 0614 4DBB583F 		.word	1062779725
 1614 0618 7906593F 		.word	1062798969
 1615 061c B551593F 		.word	1062818229
 1616 0620 139D593F 		.word	1062837523
 1617 0624 92E8593F 		.word	1062856850
 1618 0628 22345A3F 		.word	1062876194
 1619 062c D47F5A3F 		.word	1062895572
 1620 0630 96CB5A3F 		.word	1062914966
 1621 0634 7A175B3F 		.word	1062934394
 1622 0638 6F635B3F 		.word	1062953839
 1623 063c 86AF5B3F 		.word	1062973318
 1624 0640 BDFB5B3F 		.word	1062992829
 1625 0644 06485C3F 		.word	1063012358
 1626 0648 60945C3F 		.word	1063031904
 1627 064c EBE05C3F 		.word	1063051499
 1628 0650 882D5D3F 		.word	1063071112
 1629 0654 357A5D3F 		.word	1063090741
 1630 0658 04C75D3F 		.word	1063110404
 1631 065c F5135E3F 		.word	1063130101
 1632 0660 F6605E3F 		.word	1063149814
 1633 0664 19AE5E3F 		.word	1063169561
 1634 0668 4CFB5E3F 		.word	1063189324
 1635 066c A1485F3F 		.word	1063209121
 1636 0670 18965F3F 		.word	1063228952
 1637 0674 9FE35F3F 		.word	1063248799
 1638 0678 4831603F 		.word	1063268680
 1639 067c 027F603F 		.word	1063288578
 1640 0680 DECC603F 		.word	1063308510
 1641 0684 DA1A613F 		.word	1063328474
 1642 0688 E868613F 		.word	1063348456
 1643 068c 17B7613F 		.word	1063368471
 1644 0690 5705623F 		.word	1063388503
 1645 0694 B953623F 		.word	1063408569
 1646 0698 3CA2623F 		.word	1063428668
 1647 069c D0F0623F 		.word	1063448784
 1648 06a0 853F633F 		.word	1063468933
 1649 06a4 5C8E633F 		.word	1063489116
 1650 06a8 44DD633F 		.word	1063509316
 1651 06ac 4D2C643F 		.word	1063529549
 1652 06b0 677B643F 		.word	1063549799
 1653 06b4 A3CA643F 		.word	1063570083
 1654 06b8 001A653F 		.word	1063590400
 1655 06bc 7F69653F 		.word	1063610751
 1656 06c0 0FB9653F 		.word	1063631119
 1657 06c4 AF08663F 		.word	1063651503
 1658 06c8 8258663F 		.word	1063671938
 1659 06cc 54A8663F 		.word	1063692372
 1660 06d0 59F8663F 		.word	1063712857
 1661 06d4 6F48673F 		.word	1063733359
 1662 06d8 A698673F 		.word	1063753894
 1663 06dc FFE8673F 		.word	1063774463
ARM GAS  /var/folders/0z/tsy30v1j4xl4_7kw94k978ww0000gn/T//ccXLvwkV.s 			page 38


 1664 06e0 6939683F 		.word	1063795049
 1665 06e4 F489683F 		.word	1063815668
 1666 06e8 A1DA683F 		.word	1063836321
 1667 06ec 5E2B693F 		.word	1063856990
 1668 06f0 3D7C693F 		.word	1063877693
 1669 06f4 2DCD693F 		.word	1063898413
 1670 06f8 4F1E6A3F 		.word	1063919183
 1671 06fc 726F6A3F 		.word	1063939954
 1672 0700 C6C06A3F 		.word	1063960774
 1673 0704 2B126B3F 		.word	1063981611
 1674 0708 B2636B3F 		.word	1064002482
 1675 070c 5BB56B3F 		.word	1064023387
 1676 0710 14076C3F 		.word	1064044308
 1677 0714 EF586C3F 		.word	1064065263
 1678 0718 EBAA6C3F 		.word	1064086251
 1679 071c F8FC6C3F 		.word	1064107256
 1680 0720 374F6D3F 		.word	1064128311
 1681 0724 77A16D3F 		.word	1064149367
 1682 0728 E9F36D3F 		.word	1064170473
 1683 072c 6B466E3F 		.word	1064191595
 1684 0730 0F996E3F 		.word	1064212751
 1685 0734 D5EB6E3F 		.word	1064233941
 1686 0738 AB3E6F3F 		.word	1064255147
 1687 073c A3916F3F 		.word	1064276387
 1688 0740 BDE46F3F 		.word	1064297661
 1689 0744 E737703F 		.word	1064318951
 1690 0748 448B703F 		.word	1064340292
 1691 074c A0DE703F 		.word	1064361632
 1692 0750 2F32713F 		.word	1064383023
 1693 0754 CF85713F 		.word	1064404431
 1694 0758 A1D9713F 		.word	1064425889
 1695 075c 732D723F 		.word	1064447347
 1696 0760 7781723F 		.word	1064468855
 1697 0764 8DD5723F 		.word	1064490381
 1698 0768 C329733F 		.word	1064511939
 1699 076c 1C7E733F 		.word	1064533532
 1700 0770 95D2733F 		.word	1064555157
 1701 0774 2027743F 		.word	1064576800
 1702 0778 CC7B743F 		.word	1064598476
 1703 077c 9AD0743F 		.word	1064620186
 1704 0780 7825753F 		.word	1064641912
 1705 0784 897A753F 		.word	1064663689
 1706 0788 ABCF753F 		.word	1064685483
 1707 078c DD24763F 		.word	1064707293
 1708 0790 427A763F 		.word	1064729154
 1709 0794 B7CF763F 		.word	1064751031
 1710 0798 4E25773F 		.word	1064772942
 1711 079c 077B773F 		.word	1064794887
 1712 07a0 E1D0773F 		.word	1064816865
 1713 07a4 CC26783F 		.word	1064838860
 1714 07a8 D97C783F 		.word	1064860889
 1715 07ac 07D3783F 		.word	1064882951
 1716 07b0 5629793F 		.word	1064905046
 1717 07b4 C77F793F 		.word	1064927175
 1718 07b8 49D6793F 		.word	1064949321
 1719 07bc ED2C7A3F 		.word	1064971501
 1720 07c0 B2837A3F 		.word	1064993714
ARM GAS  /var/folders/0z/tsy30v1j4xl4_7kw94k978ww0000gn/T//ccXLvwkV.s 			page 39


 1721 07c4 98DA7A3F 		.word	1065015960
 1722 07c8 90317B3F 		.word	1065038224
 1723 07cc B9887B3F 		.word	1065060537
 1724 07d0 F4DF7B3F 		.word	1065082868
 1725 07d4 50377C3F 		.word	1065105232
 1726 07d8 BD8E7C3F 		.word	1065127613
 1727 07dc 5CE67C3F 		.word	1065150044
 1728 07e0 0C3E7D3F 		.word	1065172492
 1729 07e4 DD957D3F 		.word	1065194973
 1730 07e8 D0ED7D3F 		.word	1065217488
 1731 07ec E5457E3F 		.word	1065240037
 1732 07f0 0A9E7E3F 		.word	1065262602
 1733 07f4 62F67E3F 		.word	1065285218
 1734 07f8 CA4E7F3F 		.word	1065307850
 1735 07fc 54A77F3F 		.word	1065330516
 1736 0800 0000803F 		.word	1065353216
 1737 0804 772C803F 		.word	1065364599
 1738 0808 0859803F 		.word	1065376008
 1739 080c A185803F 		.word	1065387425
 1740 0810 4AB2803F 		.word	1065398858
 1741 0814 FCDE803F 		.word	1065410300
 1742 0818 C80B813F 		.word	1065421768
 1743 081c 9B38813F 		.word	1065433243
 1744 0820 8865813F 		.word	1065444744
 1745 0824 7D92813F 		.word	1065456253
 1746 0828 83BF813F 		.word	1065467779
 1747 082c 9AEC813F 		.word	1065479322
 1748 0830 C119823F 		.word	1065490881
 1749 0834 F146823F 		.word	1065502449
 1750 0838 3A74823F 		.word	1065514042
 1751 083c 8CA1823F 		.word	1065525644
 1752 0840 EECE823F 		.word	1065537262
 1753 0844 69FC823F 		.word	1065548905
 1754 0848 ED29833F 		.word	1065560557
 1755 084c 8257833F 		.word	1065572226
 1756 0850 1F85833F 		.word	1065583903
 1757 0854 D5B2833F 		.word	1065595605
 1758 0858 9CE0833F 		.word	1065607324
 1759 085c 6B0E843F 		.word	1065619051
 1760 0860 533C843F 		.word	1065630803
 1761 0864 446A843F 		.word	1065642564
 1762 0868 4698843F 		.word	1065654342
 1763 086c 58C6843F 		.word	1065666136
 1764 0870 7BF4843F 		.word	1065677947
 1765 0874 AF22853F 		.word	1065689775
 1766 0878 F450853F 		.word	1065701620
 1767 087c 4A7F853F 		.word	1065713482
 1768 0880 A7AD853F 		.word	1065725351
 1769 0884 1EDC853F 		.word	1065737246
 1770 0888 9E0A863F 		.word	1065749150
 1771 088c 3739863F 		.word	1065761079
 1772 0890 D767863F 		.word	1065773015
 1773 0894 9296863F 		.word	1065784978
 1774 0898 54C5863F 		.word	1065796948
 1775 089c 28F4863F 		.word	1065808936
 1776 08a0 0C23873F 		.word	1065820940
 1777 08a4 0052873F 		.word	1065832960
ARM GAS  /var/folders/0z/tsy30v1j4xl4_7kw94k978ww0000gn/T//ccXLvwkV.s 			page 40


 1778 08a8 0681873F 		.word	1065844998
 1779 08ac 1DB0873F 		.word	1065857053
 1780 08b0 44DF873F 		.word	1065869124
 1781 08b4 7C0E883F 		.word	1065881212
 1782 08b8 C53D883F 		.word	1065893317
 1783 08bc 166D883F 		.word	1065905430
 1784 08c0 809C883F 		.word	1065917568
 1785 08c4 FBCB883F 		.word	1065929723
 1786 08c8 7FFB883F 		.word	1065941887
 1787 08cc 1B2B893F 		.word	1065954075
 1788 08d0 C95A893F 		.word	1065966281
 1789 08d4 7E8A893F 		.word	1065978494
 1790 08d8 4DBA893F 		.word	1065990733
 1791 08dc 25EA893F 		.word	1066002981
 1792 08e0 151A8A3F 		.word	1066015253
 1793 08e4 0E4A8A3F 		.word	1066027534
 1794 08e8 207A8A3F 		.word	1066039840
 1795 08ec 3BAA8A3F 		.word	1066052155
 1796 08f0 6EDA8A3F 		.word	1066064494
 1797 08f4 AA0A8B3F 		.word	1066076842
 1798 08f8 003B8B3F 		.word	1066089216
 1799 08fc 5D6B8B3F 		.word	1066101597
 1800 0900 D49B8B3F 		.word	1066114004
 1801 0904 53CC8B3F 		.word	1066126419
 1802 0908 EBFC8B3F 		.word	1066138859
 1803 090c 8C2D8C3F 		.word	1066151308
 1804 0910 465E8C3F 		.word	1066163782
 1805 0914 088F8C3F 		.word	1066176264
 1806 0918 E4BF8C3F 		.word	1066188772
 1807 091c C7F08C3F 		.word	1066201287
 1808 0920 C4218D3F 		.word	1066213828
 1809 0924 D2528D3F 		.word	1066226386
 1810 0928 E8838D3F 		.word	1066238952
 1811 092c 18B58D3F 		.word	1066251544
 1812 0930 58E68D3F 		.word	1066264152
 1813 0934 A0178E3F 		.word	1066276768
 1814 0938 02498E3F 		.word	1066289410
 1815 093c 747A8E3F 		.word	1066302068
 1816 0940 F7AB8E3F 		.word	1066314743
 1817 0944 8BDD8E3F 		.word	1066327435
 1818 0948 300F8F3F 		.word	1066340144
 1819 094c E6408F3F 		.word	1066352870
 1820 0950 AC728F3F 		.word	1066365612
 1821 0954 83A48F3F 		.word	1066378371
 1822 0958 73D68F3F 		.word	1066391155
 1823 095c 6C08903F 		.word	1066403948
 1824 0960 753A903F 		.word	1066416757
 1825 0964 986C903F 		.word	1066429592
 1826 0968 C39E903F 		.word	1066442435
 1827 096c 07D1903F 		.word	1066455303
 1828 0970 5C03913F 		.word	1066468188
 1829 0974 B935913F 		.word	1066481081
 1830 0978 3068913F 		.word	1066494000
 1831 097c B79A913F 		.word	1066506935
 1832 0980 4FCD913F 		.word	1066519887
 1833 0984 F8FF913F 		.word	1066532856
 1834 0988 BA32923F 		.word	1066545850
ARM GAS  /var/folders/0z/tsy30v1j4xl4_7kw94k978ww0000gn/T//ccXLvwkV.s 			page 41


 1835 098c 8465923F 		.word	1066558852
 1836 0990 6798923F 		.word	1066571879
 1837 0994 53CB923F 		.word	1066584915
 1838 0998 58FE923F 		.word	1066597976
 1839 099c 6E31933F 		.word	1066611054
 1840 09a0 8C64933F 		.word	1066624140
 1841 09a4 C497933F 		.word	1066637252
 1842 09a8 14CB933F 		.word	1066650388
 1843 09ac 6DFE933F 		.word	1066663533
 1844 09b0 D731943F 		.word	1066676695
 1845 09b4 5A65943F 		.word	1066689882
 1846 09b8 E598943F 		.word	1066703077
 1847 09bc 8ACC943F 		.word	1066716298
 1848 09c0 3F00953F 		.word	1066729535
 1849 09c4 0534953F 		.word	1066742789
 1850 09c8 E467953F 		.word	1066756068
 1851 09cc CC9B953F 		.word	1066769356
 1852 09d0 C4CF953F 		.word	1066782660
 1853 09d4 D503963F 		.word	1066795989
 1854 09d8 F837963F 		.word	1066809336
 1855 09dc 2B6C963F 		.word	1066822699
 1856 09e0 6FA0963F 		.word	1066836079
 1857 09e4 C3D4963F 		.word	1066849475
 1858 09e8 3109973F 		.word	1066862897
 1859 09ec B03D973F 		.word	1066876336
 1860 09f0 3672973F 		.word	1066889782
 1861 09f4 D7A6973F 		.word	1066903255
 1862 09f8 90DB973F 		.word	1066916752
 1863 09fc 5210983F 		.word	1066930258
 1864 0a00 2445983F 		.word	1066943780
 1865 0a04 107A983F 		.word	1066957328
 1866 0a08 0CAF983F 		.word	1066970892
 1867 0a0c 19E4983F 		.word	1066984473
 1868 0a10 3F19993F 		.word	1066998079
 1869 0a14 6E4E993F 		.word	1067011694
 1870 0a18 B683993F 		.word	1067025334
 1871 0a1c 0FB9993F 		.word	1067038991
 1872 0a20 78EE993F 		.word	1067052664
 1873 0a24 F2239A3F 		.word	1067066354
 1874 0a28 86599A3F 		.word	1067080070
 1875 0a2c 2A8F9A3F 		.word	1067093802
 1876 0a30 DFC49A3F 		.word	1067107551
 1877 0a34 A4FA9A3F 		.word	1067121316
 1878 0a38 7B309B3F 		.word	1067135099
 1879 0a3c 6B669B3F 		.word	1067148907
 1880 0a40 6B9C9B3F 		.word	1067162731
 1881 0a44 7CD29B3F 		.word	1067176572
 1882 0a48 A7089C3F 		.word	1067190439
 1883 0a4c D93E9C3F 		.word	1067204313
 1884 0a50 25759C3F 		.word	1067218213
 1885 0a54 82AB9C3F 		.word	1067232130
 1886 0a58 F8E19C3F 		.word	1067246072
 1887 0a5c 76189D3F 		.word	1067260022
 1888 0a60 0E4F9D3F 		.word	1067273998
 1889 0a64 BE859D3F 		.word	1067287998
 1890 0a68 77BC9D3F 		.word	1067302007
 1891 0a6c 49F39D3F 		.word	1067316041
ARM GAS  /var/folders/0z/tsy30v1j4xl4_7kw94k978ww0000gn/T//ccXLvwkV.s 			page 42


 1892 0a70 2C2A9E3F 		.word	1067330092
 1893 0a74 20619E3F 		.word	1067344160
 1894 0a78 24989E3F 		.word	1067358244
 1895 0a7c 42CF9E3F 		.word	1067372354
 1896 0a80 70069F3F 		.word	1067386480
 1897 0a84 B83D9F3F 		.word	1067400632
 1898 0a88 08759F3F 		.word	1067414792
 1899 0a8c 71AC9F3F 		.word	1067428977
 1900 0a90 F3E39F3F 		.word	1067443187
 1901 0a94 7E1BA03F 		.word	1067457406
 1902 0a98 2253A03F 		.word	1067471650
 1903 0a9c D78AA03F 		.word	1067485911
 1904 0aa0 A4C2A03F 		.word	1067500196
 1905 0aa4 7BFAA03F 		.word	1067514491
 1906 0aa8 7232A13F 		.word	1067528818
 1907 0aac 726AA13F 		.word	1067543154
 1908 0ab0 8CA2A13F 		.word	1067557516
 1909 0ab4 B6DAA13F 		.word	1067571894
 1910 0ab8 F112A23F 		.word	1067586289
 1911 0abc 454BA23F 		.word	1067600709
 1912 0ac0 A983A23F 		.word	1067615145
 1913 0ac4 1FBCA23F 		.word	1067629599
 1914 0ac8 AEF4A23F 		.word	1067644078
 1915 0acc 4D2DA33F 		.word	1067658573
 1916 0ad0 FE65A33F 		.word	1067673086
 1917 0ad4 C79EA33F 		.word	1067687623
 1918 0ad8 A1D7A33F 		.word	1067702177
 1919 0adc 9510A43F 		.word	1067716757
 1920 0ae0 9949A43F 		.word	1067731353
 1921 0ae4 AE82A43F 		.word	1067745966
 1922 0ae8 D4BBA43F 		.word	1067760596
 1923 0aec 12F5A43F 		.word	1067775250
 1924 0af0 622EA53F 		.word	1067789922
 1925 0af4 CB67A53F 		.word	1067804619
 1926 0af8 45A1A53F 		.word	1067819333
 1927 0afc D7DAA53F 		.word	1067834071
 1928 0b00 7214A63F 		.word	1067848818
 1929 0b04 2F4EA63F 		.word	1067863599
 1930 0b08 F487A63F 		.word	1067878388
 1931 0b0c D3C1A63F 		.word	1067893203
 1932 0b10 CAFBA63F 		.word	1067908042
 1933 0b14 CA35A73F 		.word	1067922890
 1934 0b18 E36FA73F 		.word	1067937763
 1935 0b1c 15AAA73F 		.word	1067952661
 1936 0b20 58E4A73F 		.word	1067967576
 1937 0b24 AC1EA83F 		.word	1067982508
 1938 0b28 1959A83F 		.word	1067997465
 1939 0b2c 9693A83F 		.word	1068012438
 1940 0b30 2DCEA83F 		.word	1068027437
 1941 0b34 D508A93F 		.word	1068042453
 1942 0b38 9643A93F 		.word	1068057494
 1943 0b3c 677EA93F 		.word	1068072551
 1944 0b40 49B9A93F 		.word	1068087625
 1945 0b44 45F4A93F 		.word	1068102725
 1946 0b48 512FAA3F 		.word	1068117841
 1947 0b4c 776AAA3F 		.word	1068132983
 1948 0b50 ADA5AA3F 		.word	1068148141
ARM GAS  /var/folders/0z/tsy30v1j4xl4_7kw94k978ww0000gn/T//ccXLvwkV.s 			page 43


 1949 0b54 FCE0AA3F 		.word	1068163324
 1950 0b58 5C1CAB3F 		.word	1068178524
 1951 0b5c CD57AB3F 		.word	1068193741
 1952 0b60 5793AB3F 		.word	1068208983
 1953 0b64 FBCEAB3F 		.word	1068224251
 1954 0b68 AF0AAC3F 		.word	1068239535
 1955 0b6c 7446AC3F 		.word	1068254836
 1956 0b70 5182AC3F 		.word	1068270161
 1957 0b74 40BEAC3F 		.word	1068285504
 1958 0b78 48FAAC3F 		.word	1068300872
 1959 0b7c 6936AD3F 		.word	1068316265
 1960 0b80 9372AD3F 		.word	1068331667
 1961 0b84 DEAEAD3F 		.word	1068347102
 1962 0b88 3AEBAD3F 		.word	1068362554
 1963 0b8c A627AE3F 		.word	1068378022
 1964 0b90 2C64AE3F 		.word	1068393516
 1965 0b94 C3A0AE3F 		.word	1068409027
 1966 0b98 72DDAE3F 		.word	1068424562
 1967 0b9c 331AAF3F 		.word	1068440115
 1968 0ba0 0C57AF3F 		.word	1068455692
 1969 0ba4 FF93AF3F 		.word	1068471295
 1970 0ba8 FAD0AF3F 		.word	1068486906
 1971 0bac 170EB03F 		.word	1068502551
 1972 0bb0 454BB03F 		.word	1068518213
 1973 0bb4 8388B03F 		.word	1068533891
 1974 0bb8 DAC5B03F 		.word	1068549594
 1975 0bbc 4B03B13F 		.word	1068565323
 1976 0bc0 CC40B13F 		.word	1068581068
 1977 0bc4 677EB13F 		.word	1068596839
 1978 0bc8 12BCB13F 		.word	1068612626
 1979 0bcc D7F9B13F 		.word	1068628439
 1980 0bd0 AC37B23F 		.word	1068644268
 1981 0bd4 9B75B23F 		.word	1068660123
 1982 0bd8 A2B3B23F 		.word	1068676002
 1983 0bdc BBF1B23F 		.word	1068691899
 1984 0be0 E42FB33F 		.word	1068707812
 1985 0be4 266EB33F 		.word	1068723750
 1986 0be8 82ACB33F 		.word	1068739714
 1987 0bec EEEAB33F 		.word	1068755694
 1988 0bf0 7429B43F 		.word	1068771700
 1989 0bf4 1268B43F 		.word	1068787730
 1990 0bf8 C2A6B43F 		.word	1068803778
 1991 0bfc 8AE5B43F 		.word	1068819850
 1992 0c00 6424B53F 		.word	1068835940
 1993 0c04 5663B53F 		.word	1068852054
 1994 0c08 59A2B53F 		.word	1068868185
 1995 0c0c 7EE1B53F 		.word	1068884350
 1996 0c10 AB20B63F 		.word	1068900523
 1997 0c14 FA5FB63F 		.word	1068916730
 1998 0c18 5A9FB63F 		.word	1068932954
 1999 0c1c CADEB63F 		.word	1068949194
 2000 0c20 5C1EB73F 		.word	1068965468
 2001 0c24 F65DB73F 		.word	1068981750
 2002 0c28 B29DB73F 		.word	1068998066
 2003 0c2c 7FDDB73F 		.word	1069014399
 2004 0c30 651DB83F 		.word	1069030757
 2005 0c34 5B5DB83F 		.word	1069047131
ARM GAS  /var/folders/0z/tsy30v1j4xl4_7kw94k978ww0000gn/T//ccXLvwkV.s 			page 44


 2006 0c38 6B9DB83F 		.word	1069063531
 2007 0c3c 94DDB83F 		.word	1069079956
 2008 0c40 D61DB93F 		.word	1069096406
 2009 0c44 295EB93F 		.word	1069112873
 2010 0c48 8C9EB93F 		.word	1069129356
 2011 0c4c 11DFB93F 		.word	1069145873
 2012 0c50 A71FBA3F 		.word	1069162407
 2013 0c54 5760BA3F 		.word	1069178967
 2014 0c58 16A1BA3F 		.word	1069195542
 2015 0c5c EFE1BA3F 		.word	1069212143
 2016 0c60 E222BB3F 		.word	1069228770
 2017 0c64 E563BB3F 		.word	1069245413
 2018 0c68 09A5BB3F 		.word	1069262089
 2019 0c6c 36E6BB3F 		.word	1069278774
 2020 0c70 8527BC3F 		.word	1069295493
 2021 0c74 E468BC3F 		.word	1069312228
 2022 0c78 5CAABC3F 		.word	1069328988
 2023 0c7c EEEBBC3F 		.word	1069345774
 2024 0c80 902DBD3F 		.word	1069362576
 2025 0c84 546FBD3F 		.word	1069379412
 2026 0c88 21B1BD3F 		.word	1069396257
 2027 0c8c 0EF3BD3F 		.word	1069413134
 2028 0c90 0D35BE3F 		.word	1069430029
 2029 0c94 2577BE3F 		.word	1069446949
 2030 0c98 56B9BE3F 		.word	1069463894
 2031 0c9c A0FBBE3F 		.word	1069480864
 2032 0ca0 FB3DBF3F 		.word	1069497851
 2033 0ca4 6F80BF3F 		.word	1069514863
 2034 0ca8 FCC2BF3F 		.word	1069531900
 2035 0cac 9A05C03F 		.word	1069548954
 2036 0cb0 5A48C03F 		.word	1069566042
 2037 0cb4 2A8BC03F 		.word	1069583146
 2038 0cb8 0CCEC03F 		.word	1069600268
 2039 0cbc 0E11C13F 		.word	1069617422
 2040 0cc0 2254C13F 		.word	1069634594
 2041 0cc4 5797C13F 		.word	1069651799
 2042 0cc8 94DAC13F 		.word	1069669012
 2043 0ccc F31DC23F 		.word	1069686259
 2044 0cd0 6B61C23F 		.word	1069703531
 2045 0cd4 F4A4C23F 		.word	1069720820
 2046 0cd8 96E8C23F 		.word	1069738134
 2047 0cdc 522CC33F 		.word	1069755474
 2048 0ce0 2670C33F 		.word	1069772838
 2049 0ce4 0BB4C33F 		.word	1069790219
 2050 0ce8 12F8C33F 		.word	1069807634
 2051 0cec 293CC43F 		.word	1069825065
 2052 0cf0 5A80C43F 		.word	1069842522
 2053 0cf4 9CC4C43F 		.word	1069859996
 2054 0cf8 FF08C53F 		.word	1069877503
 2055 0cfc 7B4DC53F 		.word	1069895035
 2056 0d00 0892C53F 		.word	1069912584
 2057 0d04 AED6C53F 		.word	1069930158
 2058 0d08 6D1BC63F 		.word	1069947757
 2059 0d0c 4660C63F 		.word	1069965382
 2060 0d10 2FA5C63F 		.word	1069983023
 2061 0d14 3AEAC63F 		.word	1070000698
 2062 0d18 552FC73F 		.word	1070018389
ARM GAS  /var/folders/0z/tsy30v1j4xl4_7kw94k978ww0000gn/T//ccXLvwkV.s 			page 45


 2063 0d1c 9274C73F 		.word	1070036114
 2064 0d20 E0B9C73F 		.word	1070053856
 2065 0d24 47FFC73F 		.word	1070071623
 2066 0d28 C844C83F 		.word	1070089416
 2067 0d2c 598AC83F 		.word	1070107225
 2068 0d30 0BD0C83F 		.word	1070125067
 2069 0d34 CF15C93F 		.word	1070142927
 2070 0d38 B45BC93F 		.word	1070160820
 2071 0d3c A9A1C93F 		.word	1070178729
 2072 0d40 B8E7C93F 		.word	1070196664
 2073 0d44 E02DCA3F 		.word	1070214624
 2074 0d48 2174CA3F 		.word	1070232609
 2075 0d4c 7CBACA3F 		.word	1070250620
 2076 0d50 EF00CB3F 		.word	1070268655
 2077 0d54 7C47CB3F 		.word	1070286716
 2078 0d58 228ECB3F 		.word	1070304802
 2079 0d5c D8D4CB3F 		.word	1070322904
 2080 0d60 B01BCC3F 		.word	1070341040
 2081 0d64 9962CC3F 		.word	1070359193
 2082 0d68 A4A9CC3F 		.word	1070377380
 2083 0d6c BFF0CC3F 		.word	1070395583
 2084 0d70 F437CD3F 		.word	1070413812
 2085 0d74 417FCD3F 		.word	1070432065
 2086 0d78 B0C6CD3F 		.word	1070450352
 2087 0d7c 300ECE3F 		.word	1070468656
 2088 0d80 C955CE3F 		.word	1070486985
 2089 0d84 7C9DCE3F 		.word	1070505340
 2090 0d88 47E5CE3F 		.word	1070523719
 2091 0d8c 2C2DCF3F 		.word	1070542124
 2092 0d90 2975CF3F 		.word	1070560553
 2093 0d94 40BDCF3F 		.word	1070579008
 2094 0d98 7105D03F 		.word	1070597489
 2095 0d9c BA4DD03F 		.word	1070615994
 2096 0da0 1C96D03F 		.word	1070634524
 2097 0da4 98DED03F 		.word	1070653080
 2098 0da8 2D27D13F 		.word	1070671661
 2099 0dac DB6FD13F 		.word	1070690267
 2100 0db0 A2B8D13F 		.word	1070708898
 2101 0db4 8201D23F 		.word	1070727554
 2102 0db8 7B4AD23F 		.word	1070746235
 2103 0dbc 8E93D23F 		.word	1070764942
 2104 0dc0 BADCD23F 		.word	1070783674
 2105 0dc4 FF25D33F 		.word	1070802431
 2106 0dc8 5D6FD33F 		.word	1070821213
 2107 0dcc D4B8D33F 		.word	1070840020
 2108 0dd0 6402D43F 		.word	1070858852
 2109 0dd4 164CD43F 		.word	1070877718
 2110 0dd8 D995D43F 		.word	1070896601
 2111 0ddc B5DFD43F 		.word	1070915509
 2112 0de0 B329D53F 		.word	1070934451
 2113 0de4 C173D53F 		.word	1070953409
 2114 0de8 F1BDD53F 		.word	1070972401
 2115 0dec 3108D63F 		.word	1070991409
 2116 0df0 9352D63F 		.word	1071010451
 2117 0df4 0F9DD63F 		.word	1071029519
 2118 0df8 A3E7D63F 		.word	1071048611
 2119 0dfc 5132D73F 		.word	1071067729
ARM GAS  /var/folders/0z/tsy30v1j4xl4_7kw94k978ww0000gn/T//ccXLvwkV.s 			page 46


 2120 0e00 187DD73F 		.word	1071086872
 2121 0e04 F7C7D73F 		.word	1071106039
 2122 0e08 F112D83F 		.word	1071125233
 2123 0e0c 035ED83F 		.word	1071144451
 2124 0e10 37A9D83F 		.word	1071163703
 2125 0e14 7BF4D83F 		.word	1071182971
 2126 0e18 E23FD93F 		.word	1071202274
 2127 0e1c 618BD93F 		.word	1071221601
 2128 0e20 F9D6D93F 		.word	1071240953
 2129 0e24 AB22DA3F 		.word	1071260331
 2130 0e28 766EDA3F 		.word	1071279734
 2131 0e2c 62BADA3F 		.word	1071299170
 2132 0e30 6006DB3F 		.word	1071318624
 2133 0e34 7E52DB3F 		.word	1071338110
 2134 0e38 AE9EDB3F 		.word	1071357614
 2135 0e3c FFEADB3F 		.word	1071377151
 2136 0e40 7237DC3F 		.word	1071396722
 2137 0e44 F583DC3F 		.word	1071416309
 2138 0e48 91D0DC3F 		.word	1071435921
 2139 0e4c 501DDD3F 		.word	1071455568
 2140 0e50 276ADD3F 		.word	1071475239
 2141 0e54 17B7DD3F 		.word	1071494935
 2142 0e58 2104DE3F 		.word	1071514657
 2143 0e5c 4451DE3F 		.word	1071534404
 2144 0e60 889EDE3F 		.word	1071554184
 2145 0e64 E6EBDE3F 		.word	1071573990
 2146 0e68 5439DF3F 		.word	1071593812
 2147 0e6c EC86DF3F 		.word	1071613676
 2148 0e70 95D4DF3F 		.word	1071633557
 2149 0e74 6022E03F 		.word	1071653472
 2150 0e78 3B70E03F 		.word	1071673403
 2151 0e7c 40BEE03F 		.word	1071693376
 2152 0e80 560CE13F 		.word	1071713366
 2153 0e84 865AE13F 		.word	1071733382
 2154 0e88 D6A8E13F 		.word	1071753430
 2155 0e8c 40F7E13F 		.word	1071773504
 2156 0e90 C345E23F 		.word	1071793603
 2157 0e94 6894E23F 		.word	1071813736
 2158 0e98 26E3E23F 		.word	1071833894
 2159 0e9c FD31E33F 		.word	1071854077
 2160 0ea0 ED80E33F 		.word	1071874285
 2161 0ea4 F6CFE33F 		.word	1071894518
 2162 0ea8 211FE43F 		.word	1071914785
 2163 0eac 656EE43F 		.word	1071935077
 2164 0eb0 CBBDE43F 		.word	1071955403
 2165 0eb4 410DE53F 		.word	1071975745
 2166 0eb8 D95CE53F 		.word	1071996121
 2167 0ebc 93ACE53F 		.word	1072016531
 2168 0ec0 5DFCE53F 		.word	1072036957
 2169 0ec4 494CE63F 		.word	1072057417
 2170 0ec8 4E9CE63F 		.word	1072077902
 2171 0ecc 74ECE63F 		.word	1072098420
 2172 0ed0 B43CE73F 		.word	1072118964
 2173 0ed4 0D8DE73F 		.word	1072139533
 2174 0ed8 7FDDE73F 		.word	1072160127
 2175 0edc 122EE83F 		.word	1072180754
 2176 0ee0 BF7EE83F 		.word	1072201407
ARM GAS  /var/folders/0z/tsy30v1j4xl4_7kw94k978ww0000gn/T//ccXLvwkV.s 			page 47


 2177 0ee4 8DCFE83F 		.word	1072222093
 2178 0ee8 7520E93F 		.word	1072242805
 2179 0eec 7671E93F 		.word	1072263542
 2180 0ef0 8FC2E93F 		.word	1072284303
 2181 0ef4 CB13EA3F 		.word	1072305099
 2182 0ef8 2865EA3F 		.word	1072325928
 2183 0efc 95B6EA3F 		.word	1072346773
 2184 0f00 2508EB3F 		.word	1072367653
 2185 0f04 D559EB3F 		.word	1072388565
 2186 0f08 97ABEB3F 		.word	1072409495
 2187 0f0c 7AFDEB3F 		.word	1072430458
 2188 0f10 7F4FEC3F 		.word	1072451455
 2189 0f14 9DA1EC3F 		.word	1072472477
 2190 0f18 D4F3EC3F 		.word	1072493524
 2191 0f1c 2C46ED3F 		.word	1072514604
 2192 0f20 9E98ED3F 		.word	1072535710
 2193 0f24 31EBED3F 		.word	1072556849
 2194 0f28 DE3DEE3F 		.word	1072578014
 2195 0f2c A390EE3F 		.word	1072599203
 2196 0f30 8AE3EE3F 		.word	1072620426
 2197 0f34 8B36EF3F 		.word	1072641675
 2198 0f38 AD89EF3F 		.word	1072662957
 2199 0f3c E8DCEF3F 		.word	1072684264
 2200 0f40 4430F03F 		.word	1072705604
 2201 0f44 BA83F03F 		.word	1072726970
 2202 0f48 52D7F03F 		.word	1072748370
 2203 0f4c 022BF13F 		.word	1072769794
 2204 0f50 CC7EF13F 		.word	1072791244
 2205 0f54 B7D2F13F 		.word	1072812727
 2206 0f58 BB26F23F 		.word	1072834235
 2207 0f5c E17AF23F 		.word	1072855777
 2208 0f60 29CFF23F 		.word	1072877353
 2209 0f64 8123F33F 		.word	1072898945
 2210 0f68 0378F33F 		.word	1072920579
 2211 0f6c 9FCCF33F 		.word	1072942239
 2212 0f70 5321F43F 		.word	1072963923
 2213 0f74 2976F43F 		.word	1072985641
 2214 0f78 19CBF43F 		.word	1073007385
 2215 0f7c 2920F53F 		.word	1073029161
 2216 0f80 5C75F53F 		.word	1073050972
 2217 0f84 A7CAF53F 		.word	1073072807
 2218 0f88 0C20F63F 		.word	1073094668
 2219 0f8c 9275F63F 		.word	1073116562
 2220 0f90 3ACBF63F 		.word	1073138490
 2221 0f94 FB20F73F 		.word	1073160443
 2222 0f98 D576F73F 		.word	1073182421
 2223 0f9c D9CCF73F 		.word	1073204441
 2224 0fa0 EE22F83F 		.word	1073226478
 2225 0fa4 2D79F83F 		.word	1073248557
 2226 0fa8 85CFF83F 		.word	1073270661
 2227 0fac F625F93F 		.word	1073292790
 2228 0fb0 897CF93F 		.word	1073314953
 2229 0fb4 3DD3F93F 		.word	1073337149
 2230 0fb8 0B2AFA3F 		.word	1073359371
 2231 0fbc FA80FA3F 		.word	1073381626
 2232 0fc0 0AD8FA3F 		.word	1073403914
 2233 0fc4 342FFB3F 		.word	1073426228
ARM GAS  /var/folders/0z/tsy30v1j4xl4_7kw94k978ww0000gn/T//ccXLvwkV.s 			page 48


 2234 0fc8 7786FB3F 		.word	1073448567
 2235 0fcc E3DDFB3F 		.word	1073470947
 2236 0fd0 6935FC3F 		.word	1073493353
 2237 0fd4 098DFC3F 		.word	1073515785
 2238 0fd8 C9E4FC3F 		.word	1073538249
 2239 0fdc AC3CFD3F 		.word	1073560748
 2240 0fe0 AF94FD3F 		.word	1073583279
 2241 0fe4 CCECFD3F 		.word	1073605836
 2242 0fe8 0245FE3F 		.word	1073628418
 2243 0fec 629DFE3F 		.word	1073651042
 2244 0ff0 DCF5FE3F 		.word	1073673692
 2245 0ff4 774EFF3F 		.word	1073696375
 2246 0ff8 2AA7FF3F 		.word	1073719082
 2247 0ffc 00000040 		.word	1073741824
 2248              		.text
 2249              	.Letext0:
 2250              		.file 3 "/Users/johannes/Library/Application Support/Code/User/globalStorage/bmd.stm32-for-vscode/
 2251              		.file 4 "/Users/johannes/Library/Application Support/Code/User/globalStorage/bmd.stm32-for-vscode/
 2252              		.file 5 "Drivers/CMSIS/Device/ST/STM32F4xx/Include/stm32f407xx.h"
 2253              		.file 6 "Drivers/STM32F4xx_HAL_Driver/Inc/stm32f4xx_hal_def.h"
 2254              		.file 7 "Drivers/STM32F4xx_HAL_Driver/Inc/stm32f4xx_hal_dma.h"
 2255              		.file 8 "Drivers/STM32F4xx_HAL_Driver/Inc/stm32f4xx_hal_i2s.h"
 2256              		.file 9 "Core/Inc/audio.h"
 2257              		.file 10 "Core/Inc/oscillators.h"
 2258              		.file 11 "Core/Inc/ADSR_envelope.h"
 2259              		.file 12 "Core/Inc/ladder_filter.h"
 2260              		.file 13 "Core/Inc/MIDI_lut.h"
 2261              		.file 14 "Core/Inc/stereo_delay.h"
 2262              		.file 15 "Core/Inc/../../Drivers/BSP/STM32F4-Discovery/stm32f4_discovery_audio.h"
ARM GAS  /var/folders/0z/tsy30v1j4xl4_7kw94k978ww0000gn/T//ccXLvwkV.s 			page 49


DEFINED SYMBOLS
                            *ABS*:0000000000000000 audio.c
/var/folders/0z/tsy30v1j4xl4_7kw94k978ww0000gn/T//ccXLvwkV.s:20     .text.AUDIO_Init:0000000000000000 $t
/var/folders/0z/tsy30v1j4xl4_7kw94k978ww0000gn/T//ccXLvwkV.s:27     .text.AUDIO_Init:0000000000000000 AUDIO_Init
/var/folders/0z/tsy30v1j4xl4_7kw94k978ww0000gn/T//ccXLvwkV.s:145    .text.AUDIO_Init:00000000000000d0 $d
/var/folders/0z/tsy30v1j4xl4_7kw94k978ww0000gn/T//ccXLvwkV.s:163    .text.OpSetFreq:0000000000000000 $t
/var/folders/0z/tsy30v1j4xl4_7kw94k978ww0000gn/T//ccXLvwkV.s:170    .text.OpSetFreq:0000000000000000 OpSetFreq
/var/folders/0z/tsy30v1j4xl4_7kw94k978ww0000gn/T//ccXLvwkV.s:190    .text.OpSetFreq:0000000000000010 $d
/var/folders/0z/tsy30v1j4xl4_7kw94k978ww0000gn/T//ccXLvwkV.s:199    .text.audioBlock:0000000000000000 $t
/var/folders/0z/tsy30v1j4xl4_7kw94k978ww0000gn/T//ccXLvwkV.s:206    .text.audioBlock:0000000000000000 audioBlock
/var/folders/0z/tsy30v1j4xl4_7kw94k978ww0000gn/T//ccXLvwkV.s:876    .text.audioBlock:0000000000000318 $d
/var/folders/0z/tsy30v1j4xl4_7kw94k978ww0000gn/T//ccXLvwkV.s:914    .text.BSP_AUDIO_OUT_HalfTransfer_CallBack:0000000000000000 $t
/var/folders/0z/tsy30v1j4xl4_7kw94k978ww0000gn/T//ccXLvwkV.s:921    .text.BSP_AUDIO_OUT_HalfTransfer_CallBack:0000000000000000 BSP_AUDIO_OUT_HalfTransfer_CallBack
/var/folders/0z/tsy30v1j4xl4_7kw94k978ww0000gn/T//ccXLvwkV.s:936    .text.BSP_AUDIO_OUT_HalfTransfer_CallBack:0000000000000008 $d
/var/folders/0z/tsy30v1j4xl4_7kw94k978ww0000gn/T//ccXLvwkV.s:941    .text.BSP_AUDIO_OUT_TransferComplete_CallBack:0000000000000000 $t
/var/folders/0z/tsy30v1j4xl4_7kw94k978ww0000gn/T//ccXLvwkV.s:948    .text.BSP_AUDIO_OUT_TransferComplete_CallBack:0000000000000000 BSP_AUDIO_OUT_TransferComplete_CallBack
/var/folders/0z/tsy30v1j4xl4_7kw94k978ww0000gn/T//ccXLvwkV.s:963    .text.BSP_AUDIO_OUT_TransferComplete_CallBack:0000000000000008 $d
/var/folders/0z/tsy30v1j4xl4_7kw94k978ww0000gn/T//ccXLvwkV.s:968    .text.BSP_AUDIO_OUT_Error_CallBack:0000000000000000 $t
/var/folders/0z/tsy30v1j4xl4_7kw94k978ww0000gn/T//ccXLvwkV.s:975    .text.BSP_AUDIO_OUT_Error_CallBack:0000000000000000 BSP_AUDIO_OUT_Error_CallBack
/var/folders/0z/tsy30v1j4xl4_7kw94k978ww0000gn/T//ccXLvwkV.s:992    .text.DMA1_Stream7_IRQHandler:0000000000000000 $t
/var/folders/0z/tsy30v1j4xl4_7kw94k978ww0000gn/T//ccXLvwkV.s:999    .text.DMA1_Stream7_IRQHandler:0000000000000000 DMA1_Stream7_IRQHandler
/var/folders/0z/tsy30v1j4xl4_7kw94k978ww0000gn/T//ccXLvwkV.s:1014   .text.DMA1_Stream7_IRQHandler:0000000000000008 $d
/var/folders/0z/tsy30v1j4xl4_7kw94k978ww0000gn/T//ccXLvwkV.s:1019   .text.DMA1_Stream3_IRQHandler:0000000000000000 $t
/var/folders/0z/tsy30v1j4xl4_7kw94k978ww0000gn/T//ccXLvwkV.s:1026   .text.DMA1_Stream3_IRQHandler:0000000000000000 DMA1_Stream3_IRQHandler
/var/folders/0z/tsy30v1j4xl4_7kw94k978ww0000gn/T//ccXLvwkV.s:1041   .text.DMA1_Stream3_IRQHandler:0000000000000008 $d
/var/folders/0z/tsy30v1j4xl4_7kw94k978ww0000gn/T//ccXLvwkV.s:1069   .bss.delayROut:0000000000000000 delayROut
/var/folders/0z/tsy30v1j4xl4_7kw94k978ww0000gn/T//ccXLvwkV.s:1062   .bss.delayLOut:0000000000000000 delayLOut
/var/folders/0z/tsy30v1j4xl4_7kw94k978ww0000gn/T//ccXLvwkV.s:1055   .bss.audioBuffer:0000000000000000 audioBuffer
/var/folders/0z/tsy30v1j4xl4_7kw94k978ww0000gn/T//ccXLvwkV.s:1223   .rodata.pbend:0000000000000000 pbend
/var/folders/0z/tsy30v1j4xl4_7kw94k978ww0000gn/T//ccXLvwkV.s:1090   .rodata.mtof:0000000000000000 mtof
/var/folders/0z/tsy30v1j4xl4_7kw94k978ww0000gn/T//ccXLvwkV.s:1051   .bss.audioBuffer:0000000000000000 $d
/var/folders/0z/tsy30v1j4xl4_7kw94k978ww0000gn/T//ccXLvwkV.s:1058   .bss.delayLOut:0000000000000000 $d
/var/folders/0z/tsy30v1j4xl4_7kw94k978ww0000gn/T//ccXLvwkV.s:1065   .bss.delayROut:0000000000000000 $d
/var/folders/0z/tsy30v1j4xl4_7kw94k978ww0000gn/T//ccXLvwkV.s:1072   .bss.f0:0000000000000000 $d
/var/folders/0z/tsy30v1j4xl4_7kw94k978ww0000gn/T//ccXLvwkV.s:1076   .bss.f0:0000000000000000 f0
/var/folders/0z/tsy30v1j4xl4_7kw94k978ww0000gn/T//ccXLvwkV.s:1079   .bss.f_sub:0000000000000000 $d
/var/folders/0z/tsy30v1j4xl4_7kw94k978ww0000gn/T//ccXLvwkV.s:1083   .bss.f_sub:0000000000000000 f_sub
/var/folders/0z/tsy30v1j4xl4_7kw94k978ww0000gn/T//ccXLvwkV.s:1086   .rodata.mtof:0000000000000000 $d
/var/folders/0z/tsy30v1j4xl4_7kw94k978ww0000gn/T//ccXLvwkV.s:1220   .rodata.pbend:0000000000000000 $d

UNDEFINED SYMBOLS
BSP_AUDIO_OUT_Init
BSP_AUDIO_OUT_Play
osc_init
ADSR_init
MoogLP_init
Delay_init
osc1
osc2
osc3
osc4
sub_osc
adsr_amp
adsr_filt
adsr_index
Moog_filter
__aeabi_f2d
ARM GAS  /var/folders/0z/tsy30v1j4xl4_7kw94k978ww0000gn/T//ccXLvwkV.s 			page 50


__aeabi_dadd
__aeabi_dmul
__aeabi_d2f
ADSR_calculateMultiplier
osc_polyblepSaw
osc_polyblepRect
ADSR_compute
clip
MoogLP_compute
pingpongDelay_compute
osc_FM2OP
pot2_norm
current_count
currentPitch
delay_wet
feedback
pot1_norm
pot3_norm
HAL_DMA_IRQHandler
hAudioOutI2s
hAudioInI2s
