ARM GAS  /var/folders/0z/tsy30v1j4xl4_7kw94k978ww0000gn/T//cc0otGus.s 			page 1


   1              		.cpu cortex-m4
   2              		.arch armv7e-m
   3              		.fpu fpv4-sp-d16
   4              		.eabi_attribute 27, 1
   5              		.eabi_attribute 28, 1
   6              		.eabi_attribute 20, 1
   7              		.eabi_attribute 21, 1
   8              		.eabi_attribute 23, 3
   9              		.eabi_attribute 24, 1
  10              		.eabi_attribute 25, 1
  11              		.eabi_attribute 26, 1
  12              		.eabi_attribute 30, 2
  13              		.eabi_attribute 34, 1
  14              		.eabi_attribute 18, 4
  15              		.file	"audio.c"
  16              		.text
  17              	.Ltext0:
  18              		.cfi_sections	.debug_frame
  19              		.section	.text.AUDIO_Init,"ax",%progbits
  20              		.align	1
  21              		.p2align 2,,3
  22              		.global	AUDIO_Init
  23              		.syntax unified
  24              		.thumb
  25              		.thumb_func
  27              	AUDIO_Init:
  28              	.LFB134:
  29              		.file 1 "Core/Src/audio.c"
   1:Core/Src/audio.c **** /**
   2:Core/Src/audio.c ****  * @file audio.c
   3:Core/Src/audio.c ****  * @author johannes regnier
   4:Core/Src/audio.c ****  * @brief Functions to make sound! 
   5:Core/Src/audio.c ****  * @note  Most of it from Tom Erbe:
   6:Core/Src/audio.c ****  * @note  http://synthnotes.ucsd.edu/wp4/index.php/2019/09/24/setting-up-the-stmf4-to-connect-to-th
   7:Core/Src/audio.c ****  * @version 0.1
   8:Core/Src/audio.c ****  * @date 2023-12-12
   9:Core/Src/audio.c ****  * 
  10:Core/Src/audio.c ****  * @copyright Copyright (c) 2023
  11:Core/Src/audio.c ****  * 
  12:Core/Src/audio.c ****  */
  13:Core/Src/audio.c **** 
  14:Core/Src/audio.c **** 
  15:Core/Src/audio.c **** #include <stdint.h>
  16:Core/Src/audio.c **** #include "audio.h"
  17:Core/Src/audio.c **** #include "oscillators.h"
  18:Core/Src/audio.c **** #include "ADSR_envelope.h"
  19:Core/Src/audio.c **** #include "filter.h"
  20:Core/Src/audio.c **** #include "MIDI_lut.h"
  21:Core/Src/audio.c **** #include <stdint.h>
  22:Core/Src/audio.c **** #include "helper_functions.h"
  23:Core/Src/audio.c **** 
  24:Core/Src/audio.c **** 
  25:Core/Src/audio.c **** 
  26:Core/Src/audio.c **** 
  27:Core/Src/audio.c **** uint16_t audioBuffer[BUFFER_SIZE]; // 256 samples X 2 channels = 512 samples
  28:Core/Src/audio.c **** // float outputBuffer[BUFFER_SIZE_DIV_4];
  29:Core/Src/audio.c **** 
ARM GAS  /var/folders/0z/tsy30v1j4xl4_7kw94k978ww0000gn/T//cc0otGus.s 			page 2


  30:Core/Src/audio.c **** extern int8_t currentPitch;
  31:Core/Src/audio.c **** extern int8_t velocity;
  32:Core/Src/audio.c **** extern ADSR_t adsr;
  33:Core/Src/audio.c **** extern ZDFLadder_t Moog_filter;
  34:Core/Src/audio.c **** 
  35:Core/Src/audio.c **** 
  36:Core/Src/audio.c **** extern oscillator_t osc1, osc2, osc3, osc4, osc5, osc6, osc7;
  37:Core/Src/audio.c **** 
  38:Core/Src/audio.c **** /**
  39:Core/Src/audio.c ****  * @brief Initialize audio
  40:Core/Src/audio.c ****  * 
  41:Core/Src/audio.c ****  */
  42:Core/Src/audio.c **** void AUDIO_Init()
  43:Core/Src/audio.c **** {
  30              		.loc 1 43 1 view -0
  31              		.cfi_startproc
  32              		@ args = 0, pretend = 0, frame = 8
  33              		@ frame_needed = 0, uses_anonymous_args = 0
  44:Core/Src/audio.c ****     BSP_AUDIO_OUT_Init(OUTPUT_DEVICE_HEADPHONE, INITIAL_VOLUME, FS);
  34              		.loc 1 44 5 view .LVU1
  43:Core/Src/audio.c ****     BSP_AUDIO_OUT_Init(OUTPUT_DEVICE_HEADPHONE, INITIAL_VOLUME, FS);
  35              		.loc 1 43 1 is_stmt 0 view .LVU2
  36 0000 00B5     		push	{lr}
  37              		.cfi_def_cfa_offset 4
  38              		.cfi_offset 14, -4
  39 0002 2DED028B 		vpush.64	{d8}
  40              		.cfi_def_cfa_offset 12
  41              		.cfi_offset 80, -12
  42              		.cfi_offset 81, -8
  43              		.loc 1 44 5 view .LVU3
  44 0006 4BF68032 		movw	r2, #48000
  43:Core/Src/audio.c ****     BSP_AUDIO_OUT_Init(OUTPUT_DEVICE_HEADPHONE, INITIAL_VOLUME, FS);
  45              		.loc 1 43 1 view .LVU4
  46 000a 83B0     		sub	sp, sp, #12
  47              		.cfi_def_cfa_offset 24
  48              		.loc 1 44 5 view .LVU5
  49 000c 4121     		movs	r1, #65
  50 000e 0220     		movs	r0, #2
  51 0010 FFF7FEFF 		bl	BSP_AUDIO_OUT_Init
  52              	.LVL0:
  45:Core/Src/audio.c **** 	BSP_AUDIO_OUT_Play((uint16_t *)&audioBuffer[0], 2*BUFFER_SIZE); // 1024 samples
  53              		.loc 1 45 2 is_stmt 1 view .LVU6
  46:Core/Src/audio.c **** 
  47:Core/Src/audio.c **** 	
  48:Core/Src/audio.c **** 	
  49:Core/Src/audio.c **** 	osc_init(&osc1, 0.5, 1000, 0, 0, 0.5);
  54              		.loc 1 49 2 is_stmt 0 view .LVU7
  55 0014 DFED1E1A 		vldr.32	s3, .L4
  45:Core/Src/audio.c **** 	BSP_AUDIO_OUT_Play((uint16_t *)&audioBuffer[0], 2*BUFFER_SIZE); // 1024 samples
  56              		.loc 1 45 2 view .LVU8
  57 0018 1E48     		ldr	r0, .L4+4
  58              		.loc 1 49 2 view .LVU9
  59 001a CDED011A 		vstr.32	s3, [sp, #4]	@ int
  45:Core/Src/audio.c **** 	BSP_AUDIO_OUT_Play((uint16_t *)&audioBuffer[0], 2*BUFFER_SIZE); // 1024 samples
  60              		.loc 1 45 2 view .LVU10
  61 001e 4FF48061 		mov	r1, #1024
  62 0022 FFF7FEFF 		bl	BSP_AUDIO_OUT_Play
ARM GAS  /var/folders/0z/tsy30v1j4xl4_7kw94k978ww0000gn/T//cc0otGus.s 			page 3


  63              	.LVL1:
  64              		.loc 1 49 2 is_stmt 1 view .LVU11
  65 0026 DDED011A 		vldr.32	s3, [sp, #4]	@ int
  66 002a DFED1B0A 		vldr.32	s1, .L4+8
  67 002e 1B48     		ldr	r0, .L4+12
  50:Core/Src/audio.c **** 	osc_init(&osc2, 0.5, 440, 0, 0, 0.5);
  68              		.loc 1 50 2 is_stmt 0 view .LVU12
  69 0030 9FED1B8A 		vldr.32	s16, .L4+16
  49:Core/Src/audio.c **** 	osc_init(&osc2, 0.5, 440, 0, 0, 0.5);
  70              		.loc 1 49 2 view .LVU13
  71 0034 B6EE002A 		vmov.f32	s4, #5.0e-1
  72 0038 B0EE420A 		vmov.f32	s0, s4
  73 003c B0EE611A 		vmov.f32	s2, s3
  74 0040 FFF7FEFF 		bl	osc_init
  75              	.LVL2:
  76              		.loc 1 50 2 is_stmt 1 view .LVU14
  77 0044 DDED011A 		vldr.32	s3, [sp, #4]	@ int
  78 0048 1648     		ldr	r0, .L4+20
  79 004a B6EE002A 		vmov.f32	s4, #5.0e-1
  80 004e B0EE420A 		vmov.f32	s0, s4
  81 0052 B0EE611A 		vmov.f32	s2, s3
  82 0056 F0EE480A 		vmov.f32	s1, s16
  83 005a FFF7FEFF 		bl	osc_init
  84              	.LVL3:
  51:Core/Src/audio.c **** 	osc_init(&osc3, 0.5, 440, 0, 0, 0.5);
  85              		.loc 1 51 2 view .LVU15
  86 005e DDED011A 		vldr.32	s3, [sp, #4]	@ int
  87 0062 1148     		ldr	r0, .L4+24
  88 0064 B6EE002A 		vmov.f32	s4, #5.0e-1
  89 0068 B0EE611A 		vmov.f32	s2, s3
  90 006c F0EE480A 		vmov.f32	s1, s16
  91 0070 B0EE420A 		vmov.f32	s0, s4
  92 0074 FFF7FEFF 		bl	osc_init
  93              	.LVL4:
  52:Core/Src/audio.c **** 	// osc_init(&osc4, 0.5, 440, 0, 0, 0.5);
  53:Core/Src/audio.c **** 	// osc_init(&osc5, 0.5, 440, 0, 0, 0.5);
  54:Core/Src/audio.c **** 	// osc_init(&osc6, 0.5, 440, 0, 0, 0.5);
  55:Core/Src/audio.c **** 	// osc_init(&osc7, 0.5, 440, 0, 0, 0.5);
  56:Core/Src/audio.c **** 
  57:Core/Src/audio.c **** 	ADSR_init(&adsr);
  94              		.loc 1 57 2 view .LVU16
  95 0078 0C48     		ldr	r0, .L4+28
  96 007a FFF7FEFF 		bl	ADSR_init
  97              	.LVL5:
  58:Core/Src/audio.c **** 	MoogLP_init(&Moog_filter);
  98              		.loc 1 58 2 view .LVU17
  99 007e 0C48     		ldr	r0, .L4+32
  59:Core/Src/audio.c **** 	// ADSR_setReleaseTime(&adsr, 0.4);
  60:Core/Src/audio.c **** 	// ADSR_setTarget(&adsr, 1);
  61:Core/Src/audio.c **** }
 100              		.loc 1 61 1 is_stmt 0 view .LVU18
 101 0080 03B0     		add	sp, sp, #12
 102              		.cfi_def_cfa_offset 12
 103              		@ sp needed
 104 0082 BDEC028B 		vldm	sp!, {d8}
 105              		.cfi_restore 80
 106              		.cfi_restore 81
ARM GAS  /var/folders/0z/tsy30v1j4xl4_7kw94k978ww0000gn/T//cc0otGus.s 			page 4


 107              		.cfi_def_cfa_offset 4
 108 0086 5DF804EB 		ldr	lr, [sp], #4
 109              		.cfi_restore 14
 110              		.cfi_def_cfa_offset 0
  58:Core/Src/audio.c **** 	MoogLP_init(&Moog_filter);
 111              		.loc 1 58 2 view .LVU19
 112 008a FFF7FEBF 		b	MoogLP_init
 113              	.LVL6:
 114              	.L5:
 115 008e 00BF     		.align	2
 116              	.L4:
 117 0090 00000000 		.word	0
 118 0094 00000000 		.word	.LANCHOR0
 119 0098 00007A44 		.word	1148846080
 120 009c 00000000 		.word	osc1
 121 00a0 0000DC43 		.word	1138491392
 122 00a4 00000000 		.word	osc2
 123 00a8 00000000 		.word	osc3
 124 00ac 00000000 		.word	adsr
 125 00b0 00000000 		.word	Moog_filter
 126              		.cfi_endproc
 127              	.LFE134:
 129              		.section	.text.OpSetFreq,"ax",%progbits
 130              		.align	1
 131              		.p2align 2,,3
 132              		.global	OpSetFreq
 133              		.syntax unified
 134              		.thumb
 135              		.thumb_func
 137              	OpSetFreq:
 138              	.LVL7:
 139              	.LFB135:
  62:Core/Src/audio.c **** 
  63:Core/Src/audio.c **** 
  64:Core/Src/audio.c **** void
  65:Core/Src/audio.c **** OpSetFreq(oscillator_t * op, float f)
  66:Core/Src/audio.c **** {
 140              		.loc 1 66 1 is_stmt 1 view -0
 141              		.cfi_startproc
 142              		@ args = 0, pretend = 0, frame = 0
 143              		@ frame_needed = 0, uses_anonymous_args = 0
 144              		@ link register save eliminated.
  67:Core/Src/audio.c **** 	op->freq = f;
 145              		.loc 1 67 2 view .LVU21
 146              		.loc 1 67 11 is_stmt 0 view .LVU22
 147 0000 80ED010A 		vstr.32	s0, [r0, #4]
  68:Core/Src/audio.c **** }
 148              		.loc 1 68 1 view .LVU23
 149 0004 7047     		bx	lr
 150              		.cfi_endproc
 151              	.LFE135:
 153              		.global	__aeabi_f2d
 154              		.global	__aeabi_dadd
 155              		.global	__aeabi_d2f
 156              		.global	__aeabi_dmul
 157 0006 00BF     		.section	.text.audioBlock,"ax",%progbits
 158              		.align	1
ARM GAS  /var/folders/0z/tsy30v1j4xl4_7kw94k978ww0000gn/T//cc0otGus.s 			page 5


 159              		.p2align 2,,3
 160              		.global	audioBlock
 161              		.syntax unified
 162              		.thumb
 163              		.thumb_func
 165              	audioBlock:
 166              	.LVL8:
 167              	.LFB136:
  69:Core/Src/audio.c **** 
  70:Core/Src/audio.c **** float superSaw_outL, superSaw_outR;
  71:Core/Src/audio.c **** static float f0 _CCM_;
  72:Core/Src/audio.c **** static float f_sub _CCM_;
  73:Core/Src/audio.c **** // static float vol _CCM_;
  74:Core/Src/audio.c **** static float env _CCM_;
  75:Core/Src/audio.c **** 
  76:Core/Src/audio.c **** void audioBlock(uint16_t *buffer, uint16_t samples)
  77:Core/Src/audio.c **** {
 168              		.loc 1 77 1 is_stmt 1 view -0
 169              		.cfi_startproc
 170              		@ args = 0, pretend = 0, frame = 16
 171              		@ frame_needed = 0, uses_anonymous_args = 0
  78:Core/Src/audio.c **** 	//osc1.freq = 440.f;
  79:Core/Src/audio.c **** 	//osc2.freq = 110;
  80:Core/Src/audio.c **** 	int i;
 172              		.loc 1 80 2 view .LVU25
  81:Core/Src/audio.c **** 	uint16_t *output;
 173              		.loc 1 81 2 view .LVU26
  82:Core/Src/audio.c **** 	output = buffer;
 174              		.loc 1 82 2 view .LVU27
  77:Core/Src/audio.c **** 	//osc1.freq = 440.f;
 175              		.loc 1 77 1 is_stmt 0 view .LVU28
 176 0000 2DE9F04F 		push	{r4, r5, r6, r7, r8, r9, r10, fp, lr}
 177              		.cfi_def_cfa_offset 36
 178              		.cfi_offset 4, -36
 179              		.cfi_offset 5, -32
 180              		.cfi_offset 6, -28
 181              		.cfi_offset 7, -24
 182              		.cfi_offset 8, -20
 183              		.cfi_offset 9, -16
 184              		.cfi_offset 10, -12
 185              		.cfi_offset 11, -8
 186              		.cfi_offset 14, -4
 187 0004 2DED028B 		vpush.64	{d8}
 188              		.cfi_def_cfa_offset 44
 189              		.cfi_offset 80, -44
 190              		.cfi_offset 81, -40
 191 0008 85B0     		sub	sp, sp, #20
 192              		.cfi_def_cfa_offset 64
  83:Core/Src/audio.c **** 	float yL, yR;
  84:Core/Src/audio.c **** 	uint16_t valueL, valueR;
  85:Core/Src/audio.c **** 
  86:Core/Src/audio.c **** 	for (i = 0; i < samples; i++)
 193              		.loc 1 86 16 view .LVU29
 194 000a CDE90110 		strd	r1, r0, [sp, #4]
 195 000e 0029     		cmp	r1, #0
 196 0010 7FD0     		beq	.L7
 197 0012 0346     		mov	r3, r0
ARM GAS  /var/folders/0z/tsy30v1j4xl4_7kw94k978ww0000gn/T//cc0otGus.s 			page 6


  87:Core/Src/audio.c **** 	{
  88:Core/Src/audio.c **** 		
  89:Core/Src/audio.c **** 		// osc_Sine(&osc1);
  90:Core/Src/audio.c **** 
  91:Core/Src/audio.c **** 		/*--- compute ADSR envelope --*/
  92:Core/Src/audio.c **** 		env = ADSR_compute(&adsr);
  93:Core/Src/audio.c **** 
  94:Core/Src/audio.c **** 		f0 = mtof[currentPitch];
  95:Core/Src/audio.c **** 		
  96:Core/Src/audio.c **** 
  97:Core/Src/audio.c **** 		//osc_superSaw(frequency, 0.3, &superSaw_outL, &superSaw_outR);
  98:Core/Src/audio.c **** 		// Moog_filter.cutoff = 2000;
  99:Core/Src/audio.c **** 		OpSetFreq(&osc1, f0);
 100:Core/Src/audio.c **** 		OpSetFreq(&osc2, f0 + 0.1);
 101:Core/Src/audio.c **** 		f_sub = mtof[max(currentPitch - 12, 0)];
 102:Core/Src/audio.c **** 		OpSetFreq(&osc3, f_sub);
 103:Core/Src/audio.c **** 		// yL = 0.1*osc1.output + 0.1*osc2.output + 0.1*osc3.output;
 104:Core/Src/audio.c **** 		// yL = clip(osc1.output + osc2.output + osc3.output, -1, 1) ;
 105:Core/Src/audio.c **** 		yL = 0.2*osc_polyblepSaw(&osc1) + 0.2*osc_polyblepSaw(&osc2) + 0.2*osc_polyblepRect(&osc3);
 198              		.loc 1 105 11 view .LVU30
 199 0014 0FF2301B 		adr	fp, .L15+40
 200 0018 DBE900AB 		ldrd	r10, [fp]
 201 001c 0233     		adds	r3, r3, #2
 202 001e DFF83091 		ldr	r9, .L15+48
 203 0022 DFF83081 		ldr	r8, .L15+52
 106:Core/Src/audio.c **** 		// yL = 0.2*osc_polyblepSaw(&osc3);
 107:Core/Src/audio.c **** 		yR = yL;
 108:Core/Src/audio.c **** 		yL *= env;
 109:Core/Src/audio.c **** 
 110:Core/Src/audio.c **** 		// yL = 0.1*superSaw_outL * env;
 111:Core/Src/audio.c **** 		// yR = 0.1*superSaw_outR * env;
 112:Core/Src/audio.c **** 
 113:Core/Src/audio.c **** 		yL = MoogLP_compute(&Moog_filter, yL);
 114:Core/Src/audio.c **** 
 115:Core/Src/audio.c **** 		valueL = (uint16_t) ((int16_t) ((32767.0f) * yL)); 
 204              		.loc 1 115 46 view .LVU31
 205 0026 9FED408A 		vldr.32	s16, .L15+8
 206 002a 404D     		ldr	r5, .L15+12
 207 002c DFED408A 		vldr.32	s17, .L15+16
 208 0030 0393     		str	r3, [sp, #12]
  86:Core/Src/audio.c **** 	{
 209              		.loc 1 86 9 view .LVU32
 210 0032 0024     		movs	r4, #0
 211              	.LVL9:
 212              	.L8:
  92:Core/Src/audio.c **** 
 213              		.loc 1 92 3 is_stmt 1 view .LVU33
  92:Core/Src/audio.c **** 
 214              		.loc 1 92 9 is_stmt 0 view .LVU34
 215 0034 3F48     		ldr	r0, .L15+20
 216 0036 FFF7FEFF 		bl	ADSR_compute
 217              	.LVL10:
  94:Core/Src/audio.c **** 		
 218              		.loc 1 94 12 view .LVU35
 219 003a 3F4B     		ldr	r3, .L15+24
  92:Core/Src/audio.c **** 
 220              		.loc 1 92 7 view .LVU36
ARM GAS  /var/folders/0z/tsy30v1j4xl4_7kw94k978ww0000gn/T//cc0otGus.s 			page 7


 221 003c 89ED000A 		vstr.32	s0, [r9]
  94:Core/Src/audio.c **** 		
 222              		.loc 1 94 3 is_stmt 1 view .LVU37
  94:Core/Src/audio.c **** 		
 223              		.loc 1 94 12 is_stmt 0 view .LVU38
 224 0040 93F90060 		ldrsb	r6, [r3]
 225 0044 08EB8603 		add	r3, r8, r6, lsl #2
 226 0048 1868     		ldr	r0, [r3]	@ float
  99:Core/Src/audio.c **** 		OpSetFreq(&osc2, f0 + 0.1);
 227              		.loc 1 99 3 is_stmt 1 view .LVU39
 228              	.LVL11:
 229              	.LBB8:
 230              	.LBI8:
  65:Core/Src/audio.c **** {
 231              		.loc 1 65 1 view .LVU40
 232              	.LBB9:
  67:Core/Src/audio.c **** }
 233              		.loc 1 67 2 view .LVU41
  67:Core/Src/audio.c **** }
 234              		.loc 1 67 11 is_stmt 0 view .LVU42
 235 004a 6860     		str	r0, [r5, #4]	@ float
 236              	.LVL12:
  67:Core/Src/audio.c **** }
 237              		.loc 1 67 11 view .LVU43
 238              	.LBE9:
 239              	.LBE8:
 100:Core/Src/audio.c **** 		f_sub = mtof[max(currentPitch - 12, 0)];
 240              		.loc 1 100 3 is_stmt 1 view .LVU44
 241              	.LBB10:
 242              	.LBI10:
  65:Core/Src/audio.c **** {
 243              		.loc 1 65 1 view .LVU45
 244              	.LBB11:
  67:Core/Src/audio.c **** }
 245              		.loc 1 67 2 view .LVU46
 246              	.LBE11:
 247              	.LBE10:
 100:Core/Src/audio.c **** 		f_sub = mtof[max(currentPitch - 12, 0)];
 248              		.loc 1 100 23 is_stmt 0 view .LVU47
 249 004c FFF7FEFF 		bl	__aeabi_f2d
 250              	.LVL13:
 100:Core/Src/audio.c **** 		f_sub = mtof[max(currentPitch - 12, 0)];
 251              		.loc 1 100 23 view .LVU48
 252 0050 33A3     		adr	r3, .L15
 253 0052 D3E90023 		ldrd	r2, [r3]
 254 0056 FFF7FEFF 		bl	__aeabi_dadd
 255              	.LVL14:
 100:Core/Src/audio.c **** 		f_sub = mtof[max(currentPitch - 12, 0)];
 256              		.loc 1 100 3 view .LVU49
 257 005a FFF7FEFF 		bl	__aeabi_d2f
 258              	.LVL15:
 259 005e 374B     		ldr	r3, .L15+28
 260              	.LBB12:
 261              	.LBB13:
  67:Core/Src/audio.c **** }
 262              		.loc 1 67 11 view .LVU50
 263 0060 374A     		ldr	r2, .L15+32
ARM GAS  /var/folders/0z/tsy30v1j4xl4_7kw94k978ww0000gn/T//cc0otGus.s 			page 8


 264              	.LBE13:
 265              	.LBE12:
 100:Core/Src/audio.c **** 		f_sub = mtof[max(currentPitch - 12, 0)];
 266              		.loc 1 100 3 view .LVU51
 267 0062 5860     		str	r0, [r3, #4]	@ float
 268              	.LVL16:
 101:Core/Src/audio.c **** 		OpSetFreq(&osc3, f_sub);
 269              		.loc 1 101 3 is_stmt 1 view .LVU52
 102:Core/Src/audio.c **** 		// yL = 0.1*osc1.output + 0.1*osc2.output + 0.1*osc3.output;
 270              		.loc 1 102 3 view .LVU53
 271              	.LBB16:
 272              	.LBI12:
  65:Core/Src/audio.c **** {
 273              		.loc 1 65 1 view .LVU54
 274              	.LBB14:
  67:Core/Src/audio.c **** }
 275              		.loc 1 67 2 view .LVU55
 276              	.LBE14:
 277              	.LBE16:
 101:Core/Src/audio.c **** 		OpSetFreq(&osc3, f_sub);
 278              		.loc 1 101 16 is_stmt 0 view .LVU56
 279 0064 0C2E     		cmp	r6, #12
 101:Core/Src/audio.c **** 		OpSetFreq(&osc3, f_sub);
 280              		.loc 1 101 15 view .LVU57
 281 0066 08EB8606 		add	r6, r8, r6, lsl #2
 282 006a D4BF     		ite	le
 283 006c 18EE903A 		vmovle	r3, s17
 284 0070 56F8303C 		ldrgt	r3, [r6, #-48]	@ float
 285              	.LBB17:
 286              	.LBB15:
  67:Core/Src/audio.c **** }
 287              		.loc 1 67 11 view .LVU58
 288 0074 5360     		str	r3, [r2, #4]	@ float
 289              	.LVL17:
  67:Core/Src/audio.c **** }
 290              		.loc 1 67 11 view .LVU59
 291              	.LBE15:
 292              	.LBE17:
 105:Core/Src/audio.c **** 		// yL = 0.2*osc_polyblepSaw(&osc3);
 293              		.loc 1 105 3 is_stmt 1 view .LVU60
 105:Core/Src/audio.c **** 		// yL = 0.2*osc_polyblepSaw(&osc3);
 294              		.loc 1 105 12 is_stmt 0 view .LVU61
 295 0076 2846     		mov	r0, r5
 296 0078 FFF7FEFF 		bl	osc_polyblepSaw
 297              	.LVL18:
 105:Core/Src/audio.c **** 		// yL = 0.2*osc_polyblepSaw(&osc3);
 298              		.loc 1 105 41 view .LVU62
 299 007c 2F48     		ldr	r0, .L15+28
 105:Core/Src/audio.c **** 		// yL = 0.2*osc_polyblepSaw(&osc3);
 300              		.loc 1 105 12 view .LVU63
 301 007e 10EE106A 		vmov	r6, s0
 105:Core/Src/audio.c **** 		// yL = 0.2*osc_polyblepSaw(&osc3);
 302              		.loc 1 105 41 view .LVU64
 303 0082 FFF7FEFF 		bl	osc_polyblepSaw
 304              	.LVL19:
 105:Core/Src/audio.c **** 		// yL = 0.2*osc_polyblepSaw(&osc3);
 305              		.loc 1 105 12 view .LVU65
ARM GAS  /var/folders/0z/tsy30v1j4xl4_7kw94k978ww0000gn/T//cc0otGus.s 			page 9


 306 0086 3046     		mov	r0, r6	@ float
 105:Core/Src/audio.c **** 		// yL = 0.2*osc_polyblepSaw(&osc3);
 307              		.loc 1 105 41 view .LVU66
 308 0088 10EE107A 		vmov	r7, s0
 105:Core/Src/audio.c **** 		// yL = 0.2*osc_polyblepSaw(&osc3);
 309              		.loc 1 105 12 view .LVU67
 310 008c FFF7FEFF 		bl	__aeabi_f2d
 311              	.LVL20:
 105:Core/Src/audio.c **** 		// yL = 0.2*osc_polyblepSaw(&osc3);
 312              		.loc 1 105 11 view .LVU68
 313 0090 5B46     		mov	r3, fp
 314 0092 5246     		mov	r2, r10
 315 0094 FFF7FEFF 		bl	__aeabi_dmul
 316              	.LVL21:
 317 0098 0246     		mov	r2, r0
 105:Core/Src/audio.c **** 		// yL = 0.2*osc_polyblepSaw(&osc3);
 318              		.loc 1 105 41 view .LVU69
 319 009a 3846     		mov	r0, r7	@ float
 105:Core/Src/audio.c **** 		// yL = 0.2*osc_polyblepSaw(&osc3);
 320              		.loc 1 105 11 view .LVU70
 321 009c 1646     		mov	r6, r2
 322 009e 0F46     		mov	r7, r1
 105:Core/Src/audio.c **** 		// yL = 0.2*osc_polyblepSaw(&osc3);
 323              		.loc 1 105 41 view .LVU71
 324 00a0 FFF7FEFF 		bl	__aeabi_f2d
 325              	.LVL22:
 105:Core/Src/audio.c **** 		// yL = 0.2*osc_polyblepSaw(&osc3);
 326              		.loc 1 105 40 view .LVU72
 327 00a4 5246     		mov	r2, r10
 328 00a6 5B46     		mov	r3, fp
 329 00a8 FFF7FEFF 		bl	__aeabi_dmul
 330              	.LVL23:
 331 00ac 0246     		mov	r2, r0
 332 00ae 0B46     		mov	r3, r1
 105:Core/Src/audio.c **** 		// yL = 0.2*osc_polyblepSaw(&osc3);
 333              		.loc 1 105 35 view .LVU73
 334 00b0 3046     		mov	r0, r6
 335 00b2 3946     		mov	r1, r7
 336 00b4 FFF7FEFF 		bl	__aeabi_dadd
 337              	.LVL24:
 338 00b8 0646     		mov	r6, r0
 105:Core/Src/audio.c **** 		// yL = 0.2*osc_polyblepSaw(&osc3);
 339              		.loc 1 105 70 view .LVU74
 340 00ba 2148     		ldr	r0, .L15+32
 105:Core/Src/audio.c **** 		// yL = 0.2*osc_polyblepSaw(&osc3);
 341              		.loc 1 105 35 view .LVU75
 342 00bc 0F46     		mov	r7, r1
 105:Core/Src/audio.c **** 		// yL = 0.2*osc_polyblepSaw(&osc3);
 343              		.loc 1 105 70 view .LVU76
 344 00be FFF7FEFF 		bl	osc_polyblepRect
 345              	.LVL25:
 346 00c2 10EE100A 		vmov	r0, s0
 347 00c6 FFF7FEFF 		bl	__aeabi_f2d
 348              	.LVL26:
 105:Core/Src/audio.c **** 		// yL = 0.2*osc_polyblepSaw(&osc3);
 349              		.loc 1 105 69 view .LVU77
 350 00ca 5246     		mov	r2, r10
ARM GAS  /var/folders/0z/tsy30v1j4xl4_7kw94k978ww0000gn/T//cc0otGus.s 			page 10


 351 00cc 5B46     		mov	r3, fp
 352 00ce FFF7FEFF 		bl	__aeabi_dmul
 353              	.LVL27:
 105:Core/Src/audio.c **** 		// yL = 0.2*osc_polyblepSaw(&osc3);
 354              		.loc 1 105 64 view .LVU78
 355 00d2 3246     		mov	r2, r6
 356 00d4 3B46     		mov	r3, r7
 357 00d6 FFF7FEFF 		bl	__aeabi_dadd
 358              	.LVL28:
 105:Core/Src/audio.c **** 		// yL = 0.2*osc_polyblepSaw(&osc3);
 359              		.loc 1 105 6 view .LVU79
 360 00da FFF7FEFF 		bl	__aeabi_d2f
 361              	.LVL29:
 107:Core/Src/audio.c **** 		yL *= env;
 362              		.loc 1 107 3 is_stmt 1 view .LVU80
 108:Core/Src/audio.c **** 
 363              		.loc 1 108 3 view .LVU81
 108:Core/Src/audio.c **** 
 364              		.loc 1 108 6 is_stmt 0 view .LVU82
 365 00de 99ED000A 		vldr.32	s0, [r9]
 366              	.LVL30:
 113:Core/Src/audio.c **** 
 367              		.loc 1 113 3 is_stmt 1 view .LVU83
 113:Core/Src/audio.c **** 
 368              		.loc 1 113 8 is_stmt 0 view .LVU84
 369 00e2 07EE900A 		vmov	s15, r0
 370 00e6 1748     		ldr	r0, .L15+36
 371              	.LVL31:
 113:Core/Src/audio.c **** 
 372              		.loc 1 113 8 view .LVU85
 373 00e8 27EE800A 		vmul.f32	s0, s15, s0
 374              	.LVL32:
 113:Core/Src/audio.c **** 
 375              		.loc 1 113 8 view .LVU86
 376 00ec FFF7FEFF 		bl	MoogLP_compute
 377              	.LVL33:
 378              		.loc 1 115 3 is_stmt 1 view .LVU87
 379              		.loc 1 115 46 is_stmt 0 view .LVU88
 380 00f0 20EE080A 		vmul.f32	s0, s0, s16
 381              	.LVL34:
 116:Core/Src/audio.c **** 		valueR = (uint16_t) ((int16_t) ((32767.0f) * yL));
 117:Core/Src/audio.c **** 		*output++ = valueL; // left channel sample
 382              		.loc 1 117 13 view .LVU89
 383 00f4 029A     		ldr	r2, [sp, #8]
 115:Core/Src/audio.c **** 		valueR = (uint16_t) ((int16_t) ((32767.0f) * yL));
 384              		.loc 1 115 24 view .LVU90
 385 00f6 BDEEC00A 		vcvt.s32.f32	s0, s0
 115:Core/Src/audio.c **** 		valueR = (uint16_t) ((int16_t) ((32767.0f) * yL));
 386              		.loc 1 115 10 view .LVU91
 387 00fa 10EE103A 		vmov	r3, s0	@ int
 388 00fe 9BB2     		uxth	r3, r3
 389              	.LVL35:
 116:Core/Src/audio.c **** 		valueR = (uint16_t) ((int16_t) ((32767.0f) * yL));
 390              		.loc 1 116 3 is_stmt 1 view .LVU92
 391              		.loc 1 117 3 view .LVU93
 392              		.loc 1 117 13 is_stmt 0 view .LVU94
 393 0100 22F82430 		strh	r3, [r2, r4, lsl #2]	@ movhi
ARM GAS  /var/folders/0z/tsy30v1j4xl4_7kw94k978ww0000gn/T//cc0otGus.s 			page 11


 118:Core/Src/audio.c **** 		*output++ = valueR; // right channel sample
 394              		.loc 1 118 3 is_stmt 1 view .LVU95
 395              	.LVL36:
 396              		.loc 1 118 13 is_stmt 0 view .LVU96
 397 0104 039A     		ldr	r2, [sp, #12]
 398              	.LVL37:
 399              		.loc 1 118 13 view .LVU97
 400 0106 22F82430 		strh	r3, [r2, r4, lsl #2]	@ movhi
  86:Core/Src/audio.c **** 	{
 401              		.loc 1 86 28 is_stmt 1 view .LVU98
  86:Core/Src/audio.c **** 	{
 402              		.loc 1 86 16 is_stmt 0 view .LVU99
 403 010a 019B     		ldr	r3, [sp, #4]
 404              	.LVL38:
  86:Core/Src/audio.c **** 	{
 405              		.loc 1 86 28 view .LVU100
 406 010c 0134     		adds	r4, r4, #1
 407              	.LVL39:
  86:Core/Src/audio.c **** 	{
 408              		.loc 1 86 16 is_stmt 1 view .LVU101
 409 010e 9C42     		cmp	r4, r3
 410 0110 90D1     		bne	.L8
 411              	.LVL40:
 412              	.L7:
 119:Core/Src/audio.c **** 		
 120:Core/Src/audio.c **** 	}
 121:Core/Src/audio.c **** }
 413              		.loc 1 121 1 is_stmt 0 view .LVU102
 414 0112 05B0     		add	sp, sp, #20
 415              		.cfi_def_cfa_offset 44
 416              		@ sp needed
 417 0114 BDEC028B 		vldm	sp!, {d8}
 418              		.cfi_restore 80
 419              		.cfi_restore 81
 420              		.cfi_def_cfa_offset 36
 421 0118 BDE8F08F 		pop	{r4, r5, r6, r7, r8, r9, r10, fp, pc}
 422              	.LVL41:
 423              	.L16:
 424              		.loc 1 121 1 view .LVU103
 425 011c AFF30080 		.align	3
 426              	.L15:
 427 0120 9A999999 		.word	-1717986918
 428 0124 9999B93F 		.word	1069128089
 429 0128 00FEFF46 		.word	1191181824
 430 012c 00000000 		.word	osc1
 431 0130 13D00241 		.word	1090703379
 432 0134 00000000 		.word	adsr
 433 0138 00000000 		.word	currentPitch
 434 013c 00000000 		.word	osc2
 435 0140 00000000 		.word	osc3
 436 0144 00000000 		.word	Moog_filter
 437 0148 9A999999 		.word	-1717986918
 438 014c 9999C93F 		.word	1070176665
 439 0150 00000000 		.word	.LANCHOR1
 440 0154 00000000 		.word	.LANCHOR2
 441              		.cfi_endproc
 442              	.LFE136:
ARM GAS  /var/folders/0z/tsy30v1j4xl4_7kw94k978ww0000gn/T//cc0otGus.s 			page 12


 444              		.section	.text.BSP_AUDIO_OUT_HalfTransfer_CallBack,"ax",%progbits
 445              		.align	1
 446              		.p2align 2,,3
 447              		.global	BSP_AUDIO_OUT_HalfTransfer_CallBack
 448              		.syntax unified
 449              		.thumb
 450              		.thumb_func
 452              	BSP_AUDIO_OUT_HalfTransfer_CallBack:
 453              	.LFB137:
 122:Core/Src/audio.c **** 
 123:Core/Src/audio.c **** 
 124:Core/Src/audio.c **** 
 125:Core/Src/audio.c **** void BSP_AUDIO_OUT_HalfTransfer_CallBack(void)
 126:Core/Src/audio.c **** {
 454              		.loc 1 126 1 is_stmt 1 view -0
 455              		.cfi_startproc
 456              		@ args = 0, pretend = 0, frame = 0
 457              		@ frame_needed = 0, uses_anonymous_args = 0
 458              		@ link register save eliminated.
 127:Core/Src/audio.c **** 	audioBlock((uint16_t *)audioBuffer, BUFFER_SIZE_DIV_4);
 459              		.loc 1 127 2 view .LVU105
 460 0000 0148     		ldr	r0, .L18
 461 0002 8021     		movs	r1, #128
 462 0004 FFF7FEBF 		b	audioBlock
 463              	.LVL42:
 464              	.L19:
 465              		.align	2
 466              	.L18:
 467 0008 00000000 		.word	.LANCHOR0
 468              		.cfi_endproc
 469              	.LFE137:
 471              		.section	.text.BSP_AUDIO_OUT_TransferComplete_CallBack,"ax",%progbits
 472              		.align	1
 473              		.p2align 2,,3
 474              		.global	BSP_AUDIO_OUT_TransferComplete_CallBack
 475              		.syntax unified
 476              		.thumb
 477              		.thumb_func
 479              	BSP_AUDIO_OUT_TransferComplete_CallBack:
 480              	.LFB138:
 128:Core/Src/audio.c **** }
 129:Core/Src/audio.c **** 
 130:Core/Src/audio.c **** void BSP_AUDIO_OUT_TransferComplete_CallBack(void)
 131:Core/Src/audio.c **** {
 481              		.loc 1 131 1 view -0
 482              		.cfi_startproc
 483              		@ args = 0, pretend = 0, frame = 0
 484              		@ frame_needed = 0, uses_anonymous_args = 0
 485              		@ link register save eliminated.
 132:Core/Src/audio.c **** 	audioBlock((uint16_t *)(audioBuffer + BUFFER_SIZE_DIV_2), BUFFER_SIZE_DIV_4);
 486              		.loc 1 132 2 view .LVU107
 487 0000 0148     		ldr	r0, .L21
 488 0002 8021     		movs	r1, #128
 489 0004 FFF7FEBF 		b	audioBlock
 490              	.LVL43:
 491              	.L22:
 492              		.align	2
ARM GAS  /var/folders/0z/tsy30v1j4xl4_7kw94k978ww0000gn/T//cc0otGus.s 			page 13


 493              	.L21:
 494 0008 00020000 		.word	.LANCHOR0+512
 495              		.cfi_endproc
 496              	.LFE138:
 498              		.section	.text.BSP_AUDIO_OUT_Error_CallBack,"ax",%progbits
 499              		.align	1
 500              		.p2align 2,,3
 501              		.global	BSP_AUDIO_OUT_Error_CallBack
 502              		.syntax unified
 503              		.thumb
 504              		.thumb_func
 506              	BSP_AUDIO_OUT_Error_CallBack:
 507              	.LFB139:
 133:Core/Src/audio.c **** }
 134:Core/Src/audio.c **** 
 135:Core/Src/audio.c **** void BSP_AUDIO_OUT_Error_CallBack(void)
 136:Core/Src/audio.c **** {
 508              		.loc 1 136 1 view -0
 509              		.cfi_startproc
 510              		@ Volatile: function does not return.
 511              		@ args = 0, pretend = 0, frame = 0
 512              		@ frame_needed = 0, uses_anonymous_args = 0
 513              		@ link register save eliminated.
 514              	.L24:
 137:Core/Src/audio.c **** 	/* Stop the program with an infinite loop */
 138:Core/Src/audio.c **** 	while (1)
 515              		.loc 1 138 2 discriminator 1 view .LVU109
 139:Core/Src/audio.c **** 	{
 140:Core/Src/audio.c **** 	}
 516              		.loc 1 140 2 discriminator 1 view .LVU110
 138:Core/Src/audio.c **** 	{
 517              		.loc 1 138 8 discriminator 1 view .LVU111
 518 0000 FEE7     		b	.L24
 519              		.cfi_endproc
 520              	.LFE139:
 522 0002 00BF     		.section	.text.DMA1_Stream7_IRQHandler,"ax",%progbits
 523              		.align	1
 524              		.p2align 2,,3
 525              		.global	DMA1_Stream7_IRQHandler
 526              		.syntax unified
 527              		.thumb
 528              		.thumb_func
 530              	DMA1_Stream7_IRQHandler:
 531              	.LFB140:
 141:Core/Src/audio.c **** }
 142:Core/Src/audio.c **** 
 143:Core/Src/audio.c **** 
 144:Core/Src/audio.c **** void I2S3_IRQHandler(void)
 145:Core/Src/audio.c **** {
 532              		.loc 1 145 1 view -0
 533              		.cfi_startproc
 534              		@ args = 0, pretend = 0, frame = 0
 535              		@ frame_needed = 0, uses_anonymous_args = 0
 536              		@ link register save eliminated.
 146:Core/Src/audio.c **** 	HAL_DMA_IRQHandler(hAudioOutI2s.hdmatx);
 537              		.loc 1 146 2 view .LVU113
 538 0000 014B     		ldr	r3, .L26
ARM GAS  /var/folders/0z/tsy30v1j4xl4_7kw94k978ww0000gn/T//cc0otGus.s 			page 14


 539 0002 986B     		ldr	r0, [r3, #56]
 540 0004 FFF7FEBF 		b	HAL_DMA_IRQHandler
 541              	.LVL44:
 542              	.L27:
 543              		.align	2
 544              	.L26:
 545 0008 00000000 		.word	hAudioOutI2s
 546              		.cfi_endproc
 547              	.LFE140:
 549              		.section	.text.DMA1_Stream3_IRQHandler,"ax",%progbits
 550              		.align	1
 551              		.p2align 2,,3
 552              		.global	DMA1_Stream3_IRQHandler
 553              		.syntax unified
 554              		.thumb
 555              		.thumb_func
 557              	DMA1_Stream3_IRQHandler:
 558              	.LFB141:
 147:Core/Src/audio.c **** }
 148:Core/Src/audio.c **** void I2S2_IRQHandler(void)
 149:Core/Src/audio.c **** {
 559              		.loc 1 149 1 view -0
 560              		.cfi_startproc
 561              		@ args = 0, pretend = 0, frame = 0
 562              		@ frame_needed = 0, uses_anonymous_args = 0
 563              		@ link register save eliminated.
 150:Core/Src/audio.c **** 	HAL_DMA_IRQHandler(hAudioInI2s.hdmarx);
 564              		.loc 1 150 2 view .LVU115
 565 0000 014B     		ldr	r3, .L29
 566 0002 D86B     		ldr	r0, [r3, #60]
 567 0004 FFF7FEBF 		b	HAL_DMA_IRQHandler
 568              	.LVL45:
 569              	.L30:
 570              		.align	2
 571              	.L29:
 572 0008 00000000 		.word	hAudioInI2s
 573              		.cfi_endproc
 574              	.LFE141:
 576              		.global	superSaw_outR
 577              		.global	superSaw_outL
 578              		.global	audioBuffer
 579              		.global	pbend
 580              		.global	mtof
 581              		.section	.bss.audioBuffer,"aw",%nobits
 582              		.align	2
 583              		.set	.LANCHOR0,. + 0
 586              	audioBuffer:
 587 0000 00000000 		.space	1024
 587      00000000 
 587      00000000 
 587      00000000 
 587      00000000 
 588              		.section	.bss.superSaw_outL,"aw",%nobits
 589              		.align	2
 592              	superSaw_outL:
 593 0000 00000000 		.space	4
 594              		.section	.bss.superSaw_outR,"aw",%nobits
ARM GAS  /var/folders/0z/tsy30v1j4xl4_7kw94k978ww0000gn/T//cc0otGus.s 			page 15


 595              		.align	2
 598              	superSaw_outR:
 599 0000 00000000 		.space	4
 600              		.section	.ccmram,"aw"
 601              		.align	2
 602              		.set	.LANCHOR1,. + 0
 605              	env:
 606 0000 00000000 		.space	4
 607              		.section	.rodata.mtof,"a"
 608              		.align	2
 609              		.set	.LANCHOR2,. + 0
 612              	mtof:
 613 0000 13D00241 		.word	1090703379
 614 0004 60970A41 		.word	1091213152
 615 0008 17D51241 		.word	1091753239
 616 000c 41901B41 		.word	1092325441
 617 0010 54D02441 		.word	1092931668
 618 0014 369D2E41 		.word	1093573942
 619 0018 4AFF3841 		.word	1094254410
 620 001c 6AFF4341 		.word	1094975338
 621 0020 01A74F41 		.word	1095739137
 622 0024 00005C41 		.word	1096548352
 623 0028 F7146941 		.word	1097405687
 624 002c 10F17641 		.word	1098314000
 625 0030 13D08241 		.word	1099091987
 626 0034 60978A41 		.word	1099601760
 627 0038 17D59241 		.word	1100141847
 628 003c 41909B41 		.word	1100714049
 629 0040 54D0A441 		.word	1101320276
 630 0044 369DAE41 		.word	1101962550
 631 0048 49FFB841 		.word	1102643017
 632 004c 6BFFC341 		.word	1103363947
 633 0050 01A7CF41 		.word	1104127745
 634 0054 0000DC41 		.word	1104936960
 635 0058 F614E941 		.word	1105794294
 636 005c 10F1F641 		.word	1106702608
 637 0060 13D00242 		.word	1107480595
 638 0064 60970A42 		.word	1107990368
 639 0068 17D51242 		.word	1108530455
 640 006c 41901B42 		.word	1109102657
 641 0070 54D02442 		.word	1109708884
 642 0074 379D2E42 		.word	1110351159
 643 0078 49FF3842 		.word	1111031625
 644 007c 6AFF4342 		.word	1111752554
 645 0080 00A74F42 		.word	1112516352
 646 0084 00005C42 		.word	1113325568
 647 0088 F6146942 		.word	1114182902
 648 008c 10F17642 		.word	1115091216
 649 0090 12D08242 		.word	1115869202
 650 0094 60978A42 		.word	1116378976
 651 0098 17D59242 		.word	1116919063
 652 009c 41909B42 		.word	1117491265
 653 00a0 54D0A442 		.word	1118097492
 654 00a4 379DAE42 		.word	1118739767
 655 00a8 49FFB842 		.word	1119420233
 656 00ac 6AFFC342 		.word	1120141162
 657 00b0 00A7CF42 		.word	1120904960
ARM GAS  /var/folders/0z/tsy30v1j4xl4_7kw94k978ww0000gn/T//cc0otGus.s 			page 16


 658 00b4 0000DC42 		.word	1121714176
 659 00b8 F614E942 		.word	1122571510
 660 00bc 10F1F642 		.word	1123479824
 661 00c0 13D00243 		.word	1124257811
 662 00c4 60970A43 		.word	1124767584
 663 00c8 17D51243 		.word	1125307671
 664 00cc 41901B43 		.word	1125879873
 665 00d0 54D02443 		.word	1126486100
 666 00d4 379D2E43 		.word	1127128375
 667 00d8 49FF3843 		.word	1127808841
 668 00dc 6AFF4343 		.word	1128529770
 669 00e0 00A74F43 		.word	1129293568
 670 00e4 00005C43 		.word	1130102784
 671 00e8 F6146943 		.word	1130960118
 672 00ec 10F17643 		.word	1131868432
 673 00f0 13D08243 		.word	1132646419
 674 00f4 60978A43 		.word	1133156192
 675 00f8 17D59243 		.word	1133696279
 676 00fc 41909B43 		.word	1134268481
 677 0100 54D0A443 		.word	1134874708
 678 0104 379DAE43 		.word	1135516983
 679 0108 49FFB843 		.word	1136197449
 680 010c 6AFFC343 		.word	1136918378
 681 0110 00A7CF43 		.word	1137682176
 682 0114 0000DC43 		.word	1138491392
 683 0118 F614E943 		.word	1139348726
 684 011c 10F1F643 		.word	1140257040
 685 0120 13D00244 		.word	1141035027
 686 0124 60970A44 		.word	1141544800
 687 0128 17D51244 		.word	1142084887
 688 012c 41901B44 		.word	1142657089
 689 0130 54D02444 		.word	1143263316
 690 0134 379D2E44 		.word	1143905591
 691 0138 49FF3844 		.word	1144586057
 692 013c 6AFF4344 		.word	1145306986
 693 0140 00A74F44 		.word	1146070784
 694 0144 00005C44 		.word	1146880000
 695 0148 F6146944 		.word	1147737334
 696 014c 10F17644 		.word	1148645648
 697 0150 13D08244 		.word	1149423635
 698 0154 60978A44 		.word	1149933408
 699 0158 17D59244 		.word	1150473495
 700 015c 41909B44 		.word	1151045697
 701 0160 54D0A444 		.word	1151651924
 702 0164 379DAE44 		.word	1152294199
 703 0168 49FFB844 		.word	1152974665
 704 016c 6AFFC344 		.word	1153695594
 705 0170 00A7CF44 		.word	1154459392
 706 0174 0000DC44 		.word	1155268608
 707 0178 F614E944 		.word	1156125942
 708 017c 10F1F644 		.word	1157034256
 709 0180 13D00245 		.word	1157812243
 710 0184 60970A45 		.word	1158322016
 711 0188 17D51245 		.word	1158862103
 712 018c 41901B45 		.word	1159434305
 713 0190 54D02445 		.word	1160040532
 714 0194 379D2E45 		.word	1160682807
ARM GAS  /var/folders/0z/tsy30v1j4xl4_7kw94k978ww0000gn/T//cc0otGus.s 			page 17


 715 0198 49FF3845 		.word	1161363273
 716 019c 6AFF4345 		.word	1162084202
 717 01a0 00A74F45 		.word	1162848000
 718 01a4 00005C45 		.word	1163657216
 719 01a8 F6146945 		.word	1164514550
 720 01ac 10F17645 		.word	1165422864
 721 01b0 13D08245 		.word	1166200851
 722 01b4 60978A45 		.word	1166710624
 723 01b8 17D59245 		.word	1167250711
 724 01bc 41909B45 		.word	1167822913
 725 01c0 54D0A445 		.word	1168429140
 726 01c4 379DAE45 		.word	1169071415
 727 01c8 49FFB845 		.word	1169751881
 728 01cc 6AFFC345 		.word	1170472810
 729 01d0 00A7CF45 		.word	1171236608
 730 01d4 0000DC45 		.word	1172045824
 731 01d8 F614E945 		.word	1172903158
 732 01dc 10F1F645 		.word	1173811472
 733 01e0 13D00246 		.word	1174589459
 734 01e4 60970A46 		.word	1175099232
 735 01e8 17D51246 		.word	1175639319
 736 01ec 41901B46 		.word	1176211521
 737 01f0 54D02446 		.word	1176817748
 738 01f4 379D2E46 		.word	1177460023
 739 01f8 49FF3846 		.word	1178140489
 740 01fc 6AFF4346 		.word	1178861418
 741              		.section	.rodata.pbend,"a"
 742              		.align	2
 745              	pbend:
 746 0000 0000003F 		.word	1056964608
 747 0004 5E2C003F 		.word	1056975966
 748 0008 DE58003F 		.word	1056987358
 749 000c 5E85003F 		.word	1056998750
 750 0010 EEB1003F 		.word	1057010158
 751 0014 8FDE003F 		.word	1057021583
 752 0018 410B013F 		.word	1057033025
 753 001c 0438013F 		.word	1057044484
 754 0020 D864013F 		.word	1057055960
 755 0024 AC91013F 		.word	1057067436
 756 0028 A1BE013F 		.word	1057078945
 757 002c A7EB013F 		.word	1057090471
 758 0030 AD18023F 		.word	1057101997
 759 0034 D445023F 		.word	1057113556
 760 0038 FC72023F 		.word	1057125116
 761 003c 34A0023F 		.word	1057136692
 762 0040 8ECD023F 		.word	1057148302
 763 0044 E8FA023F 		.word	1057159912
 764 0048 5228033F 		.word	1057171538
 765 004c CE55033F 		.word	1057183182
 766 0050 5A83033F 		.word	1057194842
 767 0054 F7B0033F 		.word	1057206519
 768 0058 A4DE033F 		.word	1057218212
 769 005c 630C043F 		.word	1057229923
 770 0060 213A043F 		.word	1057241633
 771 0064 0168043F 		.word	1057253377
 772 0068 F295043F 		.word	1057265138
 773 006c E3C3043F 		.word	1057276899
ARM GAS  /var/folders/0z/tsy30v1j4xl4_7kw94k978ww0000gn/T//cc0otGus.s 			page 18


 774 0070 F5F1043F 		.word	1057288693
 775 0074 1920053F 		.word	1057300505
 776 0078 3C4E053F 		.word	1057312316
 777 007c 707C053F 		.word	1057324144
 778 0080 C5AA053F 		.word	1057336005
 779 0084 1BD9053F 		.word	1057347867
 780 0088 9207063F 		.word	1057359762
 781 008c 0936063F 		.word	1057371657
 782 0090 9164063F 		.word	1057383569
 783 0094 2993063F 		.word	1057395497
 784 0098 D3C1063F 		.word	1057407443
 785 009c 9EF0063F 		.word	1057419422
 786 00a0 681F073F 		.word	1057431400
 787 00a4 444E073F 		.word	1057443396
 788 00a8 317D073F 		.word	1057455409
 789 00ac 2EAC073F 		.word	1057467438
 790 00b0 3CDB073F 		.word	1057479484
 791 00b4 5B0A083F 		.word	1057491547
 792 00b8 7A39083F 		.word	1057503610
 793 00bc BA68083F 		.word	1057515706
 794 00c0 0B98083F 		.word	1057527819
 795 00c4 6DC7083F 		.word	1057539949
 796 00c8 E0F6083F 		.word	1057552096
 797 00cc 6326093F 		.word	1057564259
 798 00d0 E755093F 		.word	1057576423
 799 00d4 8C85093F 		.word	1057588620
 800 00d8 42B5093F 		.word	1057600834
 801 00dc 08E5093F 		.word	1057613064
 802 00e0 CF140A3F 		.word	1057625295
 803 00e4 B7440A3F 		.word	1057637559
 804 00e8 B0740A3F 		.word	1057649840
 805 00ec A9A40A3F 		.word	1057662121
 806 00f0 C3D40A3F 		.word	1057674435
 807 00f4 EE040B3F 		.word	1057686766
 808 00f8 2B350B3F 		.word	1057699115
 809 00fc 67650B3F 		.word	1057711463
 810 0100 C4950B3F 		.word	1057723844
 811 0104 32C60B3F 		.word	1057736242
 812 0108 A1F60B3F 		.word	1057748641
 813 010c 31270C3F 		.word	1057761073
 814 0110 D1570C3F 		.word	1057773521
 815 0114 72880C3F 		.word	1057785970
 816 0118 34B90C3F 		.word	1057798452
 817 011c 07EA0C3F 		.word	1057810951
 818 0120 DA1A0D3F 		.word	1057823450
 819 0124 CF4B0D3F 		.word	1057835983
 820 0128 D47C0D3F 		.word	1057848532
 821 012c DAAD0D3F 		.word	1057861082
 822 0130 01DF0D3F 		.word	1057873665
 823 0134 38100E3F 		.word	1057886264
 824 0138 81410E3F 		.word	1057898881
 825 013c DA720E3F 		.word	1057911514
 826 0140 33A40E3F 		.word	1057924147
 827 0144 AED50E3F 		.word	1057936814
 828 0148 3A070F3F 		.word	1057949498
 829 014c D6380F3F 		.word	1057962198
 830 0150 836A0F3F 		.word	1057974915
ARM GAS  /var/folders/0z/tsy30v1j4xl4_7kw94k978ww0000gn/T//cc0otGus.s 			page 19


 831 0154 419C0F3F 		.word	1057987649
 832 0158 10CE0F3F 		.word	1058000400
 833 015c EFFF0F3F 		.word	1058013167
 834 0160 DF31103F 		.word	1058025951
 835 0164 E063103F 		.word	1058038752
 836 0168 F295103F 		.word	1058051570
 837 016c 15C8103F 		.word	1058064405
 838 0170 48FA103F 		.word	1058077256
 839 0174 8C2C113F 		.word	1058090124
 840 0178 F25E113F 		.word	1058103026
 841 017c 5891113F 		.word	1058115928
 842 0180 CEC3113F 		.word	1058128846
 843 0184 66F6113F 		.word	1058141798
 844 0188 FE28123F 		.word	1058154750
 845 018c B85B123F 		.word	1058167736
 846 0190 718E123F 		.word	1058180721
 847 0194 4CC1123F 		.word	1058193740
 848 0198 28F4123F 		.word	1058206760
 849 019c 2427133F 		.word	1058219812
 850 01a0 325A133F 		.word	1058232882
 851 01a4 3F8D133F 		.word	1058245951
 852 01a8 6EC0133F 		.word	1058259054
 853 01ac AEF3133F 		.word	1058272174
 854 01b0 FE26143F 		.word	1058285310
 855 01b4 605A143F 		.word	1058298464
 856 01b8 D28D143F 		.word	1058311634
 857 01bc 55C1143F 		.word	1058324821
 858 01c0 E8F4143F 		.word	1058338024
 859 01c4 9E28153F 		.word	1058351262
 860 01c8 535C153F 		.word	1058364499
 861 01cc 1990153F 		.word	1058377753
 862 01d0 00C4153F 		.word	1058391040
 863 01d4 E8F7153F 		.word	1058404328
 864 01d8 F12B163F 		.word	1058417649
 865 01dc 0B60163F 		.word	1058430987
 866 01e0 2594163F 		.word	1058444325
 867 01e4 60C8163F 		.word	1058457696
 868 01e8 ADFC163F 		.word	1058471085
 869 01ec 0A31173F 		.word	1058484490
 870 01f0 7765173F 		.word	1058497911
 871 01f4 079A173F 		.word	1058511367
 872 01f8 96CE173F 		.word	1058524822
 873 01fc 3603183F 		.word	1058538294
 874 0200 F837183F 		.word	1058551800
 875 0204 B96C183F 		.word	1058565305
 876 0208 9DA1183F 		.word	1058578845
 877 020c 80D6183F 		.word	1058592384
 878 0210 850B193F 		.word	1058605957
 879 0214 9A40193F 		.word	1058619546
 880 0218 C075193F 		.word	1058633152
 881 021c F8AA193F 		.word	1058646776
 882 0220 3FE0193F 		.word	1058660415
 883 0224 A9151A3F 		.word	1058674089
 884 0228 124B1A3F 		.word	1058687762
 885 022c 9D801A3F 		.word	1058701469
 886 0230 28B61A3F 		.word	1058715176
 887 0234 D5EB1A3F 		.word	1058728917
ARM GAS  /var/folders/0z/tsy30v1j4xl4_7kw94k978ww0000gn/T//cc0otGus.s 			page 20


 888 0238 92211B3F 		.word	1058742674
 889 023c 60571B3F 		.word	1058756448
 890 0240 3F8D1B3F 		.word	1058770239
 891 0244 2FC31B3F 		.word	1058784047
 892 0248 2FF91B3F 		.word	1058797871
 893 024c 512F1C3F 		.word	1058811729
 894 0250 73651C3F 		.word	1058825587
 895 0254 B79B1C3F 		.word	1058839479
 896 0258 FAD11C3F 		.word	1058853370
 897 025c 5F081D3F 		.word	1058867295
 898 0260 D53E1D3F 		.word	1058881237
 899 0264 5C751D3F 		.word	1058895196
 900 0268 04AC1D3F 		.word	1058909188
 901 026c ACE21D3F 		.word	1058923180
 902 0270 76191E3F 		.word	1058937206
 903 0274 40501E3F 		.word	1058951232
 904 0278 2B871E3F 		.word	1058965291
 905 027c 27BE1E3F 		.word	1058979367
 906 0280 34F51E3F 		.word	1058993460
 907 0284 522C1F3F 		.word	1059007570
 908 0288 80631F3F 		.word	1059021696
 909 028c D09A1F3F 		.word	1059035856
 910 0290 20D21F3F 		.word	1059050016
 911 0294 9109203F 		.word	1059064209
 912 0298 1441203F 		.word	1059078420
 913 029c A778203F 		.word	1059092647
 914 02a0 4BB0203F 		.word	1059106891
 915 02a4 10E8203F 		.word	1059121168
 916 02a8 D61F213F 		.word	1059135446
 917 02ac BC57213F 		.word	1059149756
 918 02b0 B48F213F 		.word	1059164084
 919 02b4 BDC7213F 		.word	1059178429
 920 02b8 D6FF213F 		.word	1059192790
 921 02bc 0038223F 		.word	1059207168
 922 02c0 3B70223F 		.word	1059221563
 923 02c4 97A8223F 		.word	1059235991
 924 02c8 05E1223F 		.word	1059250437
 925 02cc 8319233F 		.word	1059264899
 926 02d0 1152233F 		.word	1059279377
 927 02d4 B18A233F 		.word	1059293873
 928 02d8 72C3233F 		.word	1059308402
 929 02dc 33FC233F 		.word	1059322931
 930 02e0 1635243F 		.word	1059337494
 931 02e4 096E243F 		.word	1059352073
 932 02e8 0DA7243F 		.word	1059366669
 933 02ec 22E0243F 		.word	1059381282
 934 02f0 5919253F 		.word	1059395929
 935 02f4 A052253F 		.word	1059410592
 936 02f8 E78B253F 		.word	1059425255
 937 02fc 61C5253F 		.word	1059439969
 938 0300 DAFE253F 		.word	1059454682
 939 0304 6538263F 		.word	1059469413
 940 0308 1172263F 		.word	1059484177
 941 030c CDAB263F 		.word	1059498957
 942 0310 9BE5263F 		.word	1059513755
 943 0314 791F273F 		.word	1059528569
 944 0318 6859273F 		.word	1059543400
ARM GAS  /var/folders/0z/tsy30v1j4xl4_7kw94k978ww0000gn/T//cc0otGus.s 			page 21


 945 031c 7993273F 		.word	1059558265
 946 0320 9ACD273F 		.word	1059573146
 947 0324 CC07283F 		.word	1059588044
 948 0328 0F42283F 		.word	1059602959
 949 032c 637C283F 		.word	1059617891
 950 0330 D8B6283F 		.word	1059632856
 951 0334 5EF1283F 		.word	1059647838
 952 0338 F52B293F 		.word	1059662837
 953 033c 9D66293F 		.word	1059677853
 954 0340 55A1293F 		.word	1059692885
 955 0344 2FDC293F 		.word	1059707951
 956 0348 1A172A3F 		.word	1059723034
 957 034c 15522A3F 		.word	1059738133
 958 0350 228D2A3F 		.word	1059753250
 959 0354 50C82A3F 		.word	1059768400
 960 0358 8E032B3F 		.word	1059783566
 961 035c DE3E2B3F 		.word	1059798750
 962 0360 3E7A2B3F 		.word	1059813950
 963 0364 AFB52B3F 		.word	1059829167
 964 0368 41F12B3F 		.word	1059844417
 965 036c E42C2C3F 		.word	1059859684
 966 0370 98682C3F 		.word	1059874968
 967 0374 5DA42C3F 		.word	1059890269
 968 0378 44E02C3F 		.word	1059905604
 969 037c 3B1C2D3F 		.word	1059920955
 970 0380 43582D3F 		.word	1059936323
 971 0384 5B942D3F 		.word	1059951707
 972 0388 96D02D3F 		.word	1059967126
 973 038c D00C2E3F 		.word	1059982544
 974 0390 3D492E3F 		.word	1059998013
 975 0394 A9852E3F 		.word	1060013481
 976 0398 27C22E3F 		.word	1060028967
 977 039c C5FE2E3F 		.word	1060044485
 978 03a0 753B2F3F 		.word	1060060021
 979 03a4 46782F3F 		.word	1060075590
 980 03a8 18B52F3F 		.word	1060091160
 981 03ac 0AF22F3F 		.word	1060106762
 982 03b0 0E2F303F 		.word	1060122382
 983 03b4 226C303F 		.word	1060138018
 984 03b8 58A9303F 		.word	1060153688
 985 03bc 9FE6303F 		.word	1060169375
 986 03c0 F623313F 		.word	1060185078
 987 03c4 5F61313F 		.word	1060200799
 988 03c8 E99E313F 		.word	1060216553
 989 03cc 83DC313F 		.word	1060232323
 990 03d0 2E1A323F 		.word	1060248110
 991 03d4 FB57323F 		.word	1060263931
 992 03d8 C895323F 		.word	1060279752
 993 03dc C8D3323F 		.word	1060295624
 994 03e0 C711333F 		.word	1060311495
 995 03e4 D74F333F 		.word	1060327383
 996 03e8 088E333F 		.word	1060343304
 997 03ec 5CCC333F 		.word	1060359260
 998 03f0 AF0A343F 		.word	1060375215
 999 03f4 2349343F 		.word	1060391203
 1000 03f8 A987343F 		.word	1060407209
 1001 03fc 3FC6343F 		.word	1060423231
ARM GAS  /var/folders/0z/tsy30v1j4xl4_7kw94k978ww0000gn/T//cc0otGus.s 			page 22


 1002 0400 F704353F 		.word	1060439287
 1003 0404 BF43353F 		.word	1060455359
 1004 0408 9982353F 		.word	1060471449
 1005 040c 83C1353F 		.word	1060487555
 1006 0410 8F00363F 		.word	1060503695
 1007 0414 AB3F363F 		.word	1060519851
 1008 0418 E97E363F 		.word	1060536041
 1009 041c 38BE363F 		.word	1060552248
 1010 0420 97FD363F 		.word	1060568471
 1011 0424 083D373F 		.word	1060584712
 1012 0428 9A7C373F 		.word	1060600986
 1013 042c 3CBC373F 		.word	1060617276
 1014 0430 F0FB373F 		.word	1060633584
 1015 0434 C53B383F 		.word	1060649925
 1016 0438 AB7B383F 		.word	1060666283
 1017 043c A1BB383F 		.word	1060682657
 1018 0440 A9FB383F 		.word	1060699049
 1019 0444 D13B393F 		.word	1060715473
 1020 0448 1C7C393F 		.word	1060731932
 1021 044c 66BC393F 		.word	1060748390
 1022 0450 D2FC393F 		.word	1060764882
 1023 0454 4F3D3A3F 		.word	1060781391
 1024 0458 ED7D3A3F 		.word	1060797933
 1025 045c 9DBE3A3F 		.word	1060814493
 1026 0460 5CFF3A3F 		.word	1060831068
 1027 0464 2D403B3F 		.word	1060847661
 1028 0468 1F813B3F 		.word	1060864287
 1029 046c 33C23B3F 		.word	1060880947
 1030 0470 47033C3F 		.word	1060897607
 1031 0474 7C443C3F 		.word	1060914300
 1032 0478 C2853C3F 		.word	1060931010
 1033 047c 2AC73C3F 		.word	1060947754
 1034 0480 A2083D3F 		.word	1060964514
 1035 0484 2C4A3D3F 		.word	1060981292
 1036 0488 D68B3D3F 		.word	1060998102
 1037 048c 92CD3D3F 		.word	1061014930
 1038 0490 6F0F3E3F 		.word	1061031791
 1039 0494 4C513E3F 		.word	1061048652
 1040 0498 4B933E3F 		.word	1061065547
 1041 049c 6BD53E3F 		.word	1061082475
 1042 04a0 9C173F3F 		.word	1061099420
 1043 04a4 DE593F3F 		.word	1061116382
 1044 04a8 419C3F3F 		.word	1061133377
 1045 04ac B5DE3F3F 		.word	1061150389
 1046 04b0 3A21403F 		.word	1061167418
 1047 04b4 E063403F 		.word	1061184480
 1048 04b8 98A6403F 		.word	1061201560
 1049 04bc 60E9403F 		.word	1061218656
 1050 04c0 492C413F 		.word	1061235785
 1051 04c4 446F413F 		.word	1061252932
 1052 04c8 5FB2413F 		.word	1061270111
 1053 04cc 8CF5413F 		.word	1061287308
 1054 04d0 DA38423F 		.word	1061304538
 1055 04d4 287C423F 		.word	1061321768
 1056 04d8 A9BF423F 		.word	1061339049
 1057 04dc 2A03433F 		.word	1061356330
 1058 04e0 CC46433F 		.word	1061373644
ARM GAS  /var/folders/0z/tsy30v1j4xl4_7kw94k978ww0000gn/T//cc0otGus.s 			page 23


 1059 04e4 7E8A433F 		.word	1061390974
 1060 04e8 53CE433F 		.word	1061408339
 1061 04ec 3812443F 		.word	1061425720
 1062 04f0 3F56443F 		.word	1061443135
 1063 04f4 569A443F 		.word	1061460566
 1064 04f8 7FDE443F 		.word	1061478015
 1065 04fc C922453F 		.word	1061495497
 1066 0500 2367453F 		.word	1061512995
 1067 0504 9FAB453F 		.word	1061530527
 1068 0508 2CF0453F 		.word	1061548076
 1069 050c DB34463F 		.word	1061565659
 1070 0510 8979463F 		.word	1061583241
 1071 0514 6ABE463F 		.word	1061600874
 1072 0518 4B03473F 		.word	1061618507
 1073 051c 5E48473F 		.word	1061636190
 1074 0520 718D473F 		.word	1061653873
 1075 0524 A6D2473F 		.word	1061671590
 1076 0528 FC17483F 		.word	1061689340
 1077 052c 645D483F 		.word	1061707108
 1078 0530 DBA2483F 		.word	1061724891
 1079 0534 75E8483F 		.word	1061742709
 1080 0538 1F2E493F 		.word	1061760543
 1081 053c DA73493F 		.word	1061778394
 1082 0540 B6B9493F 		.word	1061796278
 1083 0544 B5FF493F 		.word	1061814197
 1084 0548 C3454A3F 		.word	1061832131
 1085 054c E38B4A3F 		.word	1061850083
 1086 0550 24D24A3F 		.word	1061868068
 1087 0554 76184B3F 		.word	1061886070
 1088 0558 EA5E4B3F 		.word	1061904106
 1089 055c 6EA54B3F 		.word	1061922158
 1090 0560 14EC4B3F 		.word	1061940244
 1091 0564 CA324C3F 		.word	1061958346
 1092 0568 A3794C3F 		.word	1061976483
 1093 056c 8BC04C3F 		.word	1061994635
 1094 0570 85074D3F 		.word	1062012805
 1095 0574 A04E4D3F 		.word	1062031008
 1096 0578 DD954D3F 		.word	1062049245
 1097 057c 2BDD4D3F 		.word	1062067499
 1098 0580 89244E3F 		.word	1062085769
 1099 0584 096C4E3F 		.word	1062104073
 1100 0588 9AB34E3F 		.word	1062122394
 1101 058c 4CFB4E3F 		.word	1062140748
 1102 0590 20434F3F 		.word	1062159136
 1103 0594 F48A4F3F 		.word	1062177524
 1104 0598 FAD24F3F 		.word	1062195962
 1105 059c 001B503F 		.word	1062214400
 1106 05a0 3963503F 		.word	1062232889
 1107 05a4 71AB503F 		.word	1062251377
 1108 05a8 DCF3503F 		.word	1062269916
 1109 05ac 473C513F 		.word	1062288455
 1110 05b0 E484513F 		.word	1062307044
 1111 05b4 81CD513F 		.word	1062325633
 1112 05b8 5116523F 		.word	1062344273
 1113 05bc 205F523F 		.word	1062362912
 1114 05c0 22A8523F 		.word	1062381602
 1115 05c4 35F1523F 		.word	1062400309
ARM GAS  /var/folders/0z/tsy30v1j4xl4_7kw94k978ww0000gn/T//cc0otGus.s 			page 24


 1116 05c8 583A533F 		.word	1062419032
 1117 05cc 9D83533F 		.word	1062437789
 1118 05d0 F3CC533F 		.word	1062456563
 1119 05d4 6A16543F 		.word	1062475370
 1120 05d8 F25F543F 		.word	1062494194
 1121 05dc 9BA9543F 		.word	1062513051
 1122 05e0 56F3543F 		.word	1062531926
 1123 05e4 323D553F 		.word	1062550834
 1124 05e8 2F87553F 		.word	1062569775
 1125 05ec 3DD1553F 		.word	1062588733
 1126 05f0 5C1B563F 		.word	1062607708
 1127 05f4 9D65563F 		.word	1062626717
 1128 05f8 FFAF563F 		.word	1062645759
 1129 05fc 72FA563F 		.word	1062664818
 1130 0600 F644573F 		.word	1062683894
 1131 0604 AC8F573F 		.word	1062703020
 1132 0608 62DA573F 		.word	1062722146
 1133 060c 4A25583F 		.word	1062741322
 1134 0610 3370583F 		.word	1062760499
 1135 0614 4DBB583F 		.word	1062779725
 1136 0618 7906593F 		.word	1062798969
 1137 061c B551593F 		.word	1062818229
 1138 0620 139D593F 		.word	1062837523
 1139 0624 92E8593F 		.word	1062856850
 1140 0628 22345A3F 		.word	1062876194
 1141 062c D47F5A3F 		.word	1062895572
 1142 0630 96CB5A3F 		.word	1062914966
 1143 0634 7A175B3F 		.word	1062934394
 1144 0638 6F635B3F 		.word	1062953839
 1145 063c 86AF5B3F 		.word	1062973318
 1146 0640 BDFB5B3F 		.word	1062992829
 1147 0644 06485C3F 		.word	1063012358
 1148 0648 60945C3F 		.word	1063031904
 1149 064c EBE05C3F 		.word	1063051499
 1150 0650 882D5D3F 		.word	1063071112
 1151 0654 357A5D3F 		.word	1063090741
 1152 0658 04C75D3F 		.word	1063110404
 1153 065c F5135E3F 		.word	1063130101
 1154 0660 F6605E3F 		.word	1063149814
 1155 0664 19AE5E3F 		.word	1063169561
 1156 0668 4CFB5E3F 		.word	1063189324
 1157 066c A1485F3F 		.word	1063209121
 1158 0670 18965F3F 		.word	1063228952
 1159 0674 9FE35F3F 		.word	1063248799
 1160 0678 4831603F 		.word	1063268680
 1161 067c 027F603F 		.word	1063288578
 1162 0680 DECC603F 		.word	1063308510
 1163 0684 DA1A613F 		.word	1063328474
 1164 0688 E868613F 		.word	1063348456
 1165 068c 17B7613F 		.word	1063368471
 1166 0690 5705623F 		.word	1063388503
 1167 0694 B953623F 		.word	1063408569
 1168 0698 3CA2623F 		.word	1063428668
 1169 069c D0F0623F 		.word	1063448784
 1170 06a0 853F633F 		.word	1063468933
 1171 06a4 5C8E633F 		.word	1063489116
 1172 06a8 44DD633F 		.word	1063509316
ARM GAS  /var/folders/0z/tsy30v1j4xl4_7kw94k978ww0000gn/T//cc0otGus.s 			page 25


 1173 06ac 4D2C643F 		.word	1063529549
 1174 06b0 677B643F 		.word	1063549799
 1175 06b4 A3CA643F 		.word	1063570083
 1176 06b8 001A653F 		.word	1063590400
 1177 06bc 7F69653F 		.word	1063610751
 1178 06c0 0FB9653F 		.word	1063631119
 1179 06c4 AF08663F 		.word	1063651503
 1180 06c8 8258663F 		.word	1063671938
 1181 06cc 54A8663F 		.word	1063692372
 1182 06d0 59F8663F 		.word	1063712857
 1183 06d4 6F48673F 		.word	1063733359
 1184 06d8 A698673F 		.word	1063753894
 1185 06dc FFE8673F 		.word	1063774463
 1186 06e0 6939683F 		.word	1063795049
 1187 06e4 F489683F 		.word	1063815668
 1188 06e8 A1DA683F 		.word	1063836321
 1189 06ec 5E2B693F 		.word	1063856990
 1190 06f0 3D7C693F 		.word	1063877693
 1191 06f4 2DCD693F 		.word	1063898413
 1192 06f8 4F1E6A3F 		.word	1063919183
 1193 06fc 726F6A3F 		.word	1063939954
 1194 0700 C6C06A3F 		.word	1063960774
 1195 0704 2B126B3F 		.word	1063981611
 1196 0708 B2636B3F 		.word	1064002482
 1197 070c 5BB56B3F 		.word	1064023387
 1198 0710 14076C3F 		.word	1064044308
 1199 0714 EF586C3F 		.word	1064065263
 1200 0718 EBAA6C3F 		.word	1064086251
 1201 071c F8FC6C3F 		.word	1064107256
 1202 0720 374F6D3F 		.word	1064128311
 1203 0724 77A16D3F 		.word	1064149367
 1204 0728 E9F36D3F 		.word	1064170473
 1205 072c 6B466E3F 		.word	1064191595
 1206 0730 0F996E3F 		.word	1064212751
 1207 0734 D5EB6E3F 		.word	1064233941
 1208 0738 AB3E6F3F 		.word	1064255147
 1209 073c A3916F3F 		.word	1064276387
 1210 0740 BDE46F3F 		.word	1064297661
 1211 0744 E737703F 		.word	1064318951
 1212 0748 448B703F 		.word	1064340292
 1213 074c A0DE703F 		.word	1064361632
 1214 0750 2F32713F 		.word	1064383023
 1215 0754 CF85713F 		.word	1064404431
 1216 0758 A1D9713F 		.word	1064425889
 1217 075c 732D723F 		.word	1064447347
 1218 0760 7781723F 		.word	1064468855
 1219 0764 8DD5723F 		.word	1064490381
 1220 0768 C329733F 		.word	1064511939
 1221 076c 1C7E733F 		.word	1064533532
 1222 0770 95D2733F 		.word	1064555157
 1223 0774 2027743F 		.word	1064576800
 1224 0778 CC7B743F 		.word	1064598476
 1225 077c 9AD0743F 		.word	1064620186
 1226 0780 7825753F 		.word	1064641912
 1227 0784 897A753F 		.word	1064663689
 1228 0788 ABCF753F 		.word	1064685483
 1229 078c DD24763F 		.word	1064707293
ARM GAS  /var/folders/0z/tsy30v1j4xl4_7kw94k978ww0000gn/T//cc0otGus.s 			page 26


 1230 0790 427A763F 		.word	1064729154
 1231 0794 B7CF763F 		.word	1064751031
 1232 0798 4E25773F 		.word	1064772942
 1233 079c 077B773F 		.word	1064794887
 1234 07a0 E1D0773F 		.word	1064816865
 1235 07a4 CC26783F 		.word	1064838860
 1236 07a8 D97C783F 		.word	1064860889
 1237 07ac 07D3783F 		.word	1064882951
 1238 07b0 5629793F 		.word	1064905046
 1239 07b4 C77F793F 		.word	1064927175
 1240 07b8 49D6793F 		.word	1064949321
 1241 07bc ED2C7A3F 		.word	1064971501
 1242 07c0 B2837A3F 		.word	1064993714
 1243 07c4 98DA7A3F 		.word	1065015960
 1244 07c8 90317B3F 		.word	1065038224
 1245 07cc B9887B3F 		.word	1065060537
 1246 07d0 F4DF7B3F 		.word	1065082868
 1247 07d4 50377C3F 		.word	1065105232
 1248 07d8 BD8E7C3F 		.word	1065127613
 1249 07dc 5CE67C3F 		.word	1065150044
 1250 07e0 0C3E7D3F 		.word	1065172492
 1251 07e4 DD957D3F 		.word	1065194973
 1252 07e8 D0ED7D3F 		.word	1065217488
 1253 07ec E5457E3F 		.word	1065240037
 1254 07f0 0A9E7E3F 		.word	1065262602
 1255 07f4 62F67E3F 		.word	1065285218
 1256 07f8 CA4E7F3F 		.word	1065307850
 1257 07fc 54A77F3F 		.word	1065330516
 1258 0800 0000803F 		.word	1065353216
 1259 0804 772C803F 		.word	1065364599
 1260 0808 0859803F 		.word	1065376008
 1261 080c A185803F 		.word	1065387425
 1262 0810 4AB2803F 		.word	1065398858
 1263 0814 FCDE803F 		.word	1065410300
 1264 0818 C80B813F 		.word	1065421768
 1265 081c 9B38813F 		.word	1065433243
 1266 0820 8865813F 		.word	1065444744
 1267 0824 7D92813F 		.word	1065456253
 1268 0828 83BF813F 		.word	1065467779
 1269 082c 9AEC813F 		.word	1065479322
 1270 0830 C119823F 		.word	1065490881
 1271 0834 F146823F 		.word	1065502449
 1272 0838 3A74823F 		.word	1065514042
 1273 083c 8CA1823F 		.word	1065525644
 1274 0840 EECE823F 		.word	1065537262
 1275 0844 69FC823F 		.word	1065548905
 1276 0848 ED29833F 		.word	1065560557
 1277 084c 8257833F 		.word	1065572226
 1278 0850 1F85833F 		.word	1065583903
 1279 0854 D5B2833F 		.word	1065595605
 1280 0858 9CE0833F 		.word	1065607324
 1281 085c 6B0E843F 		.word	1065619051
 1282 0860 533C843F 		.word	1065630803
 1283 0864 446A843F 		.word	1065642564
 1284 0868 4698843F 		.word	1065654342
 1285 086c 58C6843F 		.word	1065666136
 1286 0870 7BF4843F 		.word	1065677947
ARM GAS  /var/folders/0z/tsy30v1j4xl4_7kw94k978ww0000gn/T//cc0otGus.s 			page 27


 1287 0874 AF22853F 		.word	1065689775
 1288 0878 F450853F 		.word	1065701620
 1289 087c 4A7F853F 		.word	1065713482
 1290 0880 A7AD853F 		.word	1065725351
 1291 0884 1EDC853F 		.word	1065737246
 1292 0888 9E0A863F 		.word	1065749150
 1293 088c 3739863F 		.word	1065761079
 1294 0890 D767863F 		.word	1065773015
 1295 0894 9296863F 		.word	1065784978
 1296 0898 54C5863F 		.word	1065796948
 1297 089c 28F4863F 		.word	1065808936
 1298 08a0 0C23873F 		.word	1065820940
 1299 08a4 0052873F 		.word	1065832960
 1300 08a8 0681873F 		.word	1065844998
 1301 08ac 1DB0873F 		.word	1065857053
 1302 08b0 44DF873F 		.word	1065869124
 1303 08b4 7C0E883F 		.word	1065881212
 1304 08b8 C53D883F 		.word	1065893317
 1305 08bc 166D883F 		.word	1065905430
 1306 08c0 809C883F 		.word	1065917568
 1307 08c4 FBCB883F 		.word	1065929723
 1308 08c8 7FFB883F 		.word	1065941887
 1309 08cc 1B2B893F 		.word	1065954075
 1310 08d0 C95A893F 		.word	1065966281
 1311 08d4 7E8A893F 		.word	1065978494
 1312 08d8 4DBA893F 		.word	1065990733
 1313 08dc 25EA893F 		.word	1066002981
 1314 08e0 151A8A3F 		.word	1066015253
 1315 08e4 0E4A8A3F 		.word	1066027534
 1316 08e8 207A8A3F 		.word	1066039840
 1317 08ec 3BAA8A3F 		.word	1066052155
 1318 08f0 6EDA8A3F 		.word	1066064494
 1319 08f4 AA0A8B3F 		.word	1066076842
 1320 08f8 003B8B3F 		.word	1066089216
 1321 08fc 5D6B8B3F 		.word	1066101597
 1322 0900 D49B8B3F 		.word	1066114004
 1323 0904 53CC8B3F 		.word	1066126419
 1324 0908 EBFC8B3F 		.word	1066138859
 1325 090c 8C2D8C3F 		.word	1066151308
 1326 0910 465E8C3F 		.word	1066163782
 1327 0914 088F8C3F 		.word	1066176264
 1328 0918 E4BF8C3F 		.word	1066188772
 1329 091c C7F08C3F 		.word	1066201287
 1330 0920 C4218D3F 		.word	1066213828
 1331 0924 D2528D3F 		.word	1066226386
 1332 0928 E8838D3F 		.word	1066238952
 1333 092c 18B58D3F 		.word	1066251544
 1334 0930 58E68D3F 		.word	1066264152
 1335 0934 A0178E3F 		.word	1066276768
 1336 0938 02498E3F 		.word	1066289410
 1337 093c 747A8E3F 		.word	1066302068
 1338 0940 F7AB8E3F 		.word	1066314743
 1339 0944 8BDD8E3F 		.word	1066327435
 1340 0948 300F8F3F 		.word	1066340144
 1341 094c E6408F3F 		.word	1066352870
 1342 0950 AC728F3F 		.word	1066365612
 1343 0954 83A48F3F 		.word	1066378371
ARM GAS  /var/folders/0z/tsy30v1j4xl4_7kw94k978ww0000gn/T//cc0otGus.s 			page 28


 1344 0958 73D68F3F 		.word	1066391155
 1345 095c 6C08903F 		.word	1066403948
 1346 0960 753A903F 		.word	1066416757
 1347 0964 986C903F 		.word	1066429592
 1348 0968 C39E903F 		.word	1066442435
 1349 096c 07D1903F 		.word	1066455303
 1350 0970 5C03913F 		.word	1066468188
 1351 0974 B935913F 		.word	1066481081
 1352 0978 3068913F 		.word	1066494000
 1353 097c B79A913F 		.word	1066506935
 1354 0980 4FCD913F 		.word	1066519887
 1355 0984 F8FF913F 		.word	1066532856
 1356 0988 BA32923F 		.word	1066545850
 1357 098c 8465923F 		.word	1066558852
 1358 0990 6798923F 		.word	1066571879
 1359 0994 53CB923F 		.word	1066584915
 1360 0998 58FE923F 		.word	1066597976
 1361 099c 6E31933F 		.word	1066611054
 1362 09a0 8C64933F 		.word	1066624140
 1363 09a4 C497933F 		.word	1066637252
 1364 09a8 14CB933F 		.word	1066650388
 1365 09ac 6DFE933F 		.word	1066663533
 1366 09b0 D731943F 		.word	1066676695
 1367 09b4 5A65943F 		.word	1066689882
 1368 09b8 E598943F 		.word	1066703077
 1369 09bc 8ACC943F 		.word	1066716298
 1370 09c0 3F00953F 		.word	1066729535
 1371 09c4 0534953F 		.word	1066742789
 1372 09c8 E467953F 		.word	1066756068
 1373 09cc CC9B953F 		.word	1066769356
 1374 09d0 C4CF953F 		.word	1066782660
 1375 09d4 D503963F 		.word	1066795989
 1376 09d8 F837963F 		.word	1066809336
 1377 09dc 2B6C963F 		.word	1066822699
 1378 09e0 6FA0963F 		.word	1066836079
 1379 09e4 C3D4963F 		.word	1066849475
 1380 09e8 3109973F 		.word	1066862897
 1381 09ec B03D973F 		.word	1066876336
 1382 09f0 3672973F 		.word	1066889782
 1383 09f4 D7A6973F 		.word	1066903255
 1384 09f8 90DB973F 		.word	1066916752
 1385 09fc 5210983F 		.word	1066930258
 1386 0a00 2445983F 		.word	1066943780
 1387 0a04 107A983F 		.word	1066957328
 1388 0a08 0CAF983F 		.word	1066970892
 1389 0a0c 19E4983F 		.word	1066984473
 1390 0a10 3F19993F 		.word	1066998079
 1391 0a14 6E4E993F 		.word	1067011694
 1392 0a18 B683993F 		.word	1067025334
 1393 0a1c 0FB9993F 		.word	1067038991
 1394 0a20 78EE993F 		.word	1067052664
 1395 0a24 F2239A3F 		.word	1067066354
 1396 0a28 86599A3F 		.word	1067080070
 1397 0a2c 2A8F9A3F 		.word	1067093802
 1398 0a30 DFC49A3F 		.word	1067107551
 1399 0a34 A4FA9A3F 		.word	1067121316
 1400 0a38 7B309B3F 		.word	1067135099
ARM GAS  /var/folders/0z/tsy30v1j4xl4_7kw94k978ww0000gn/T//cc0otGus.s 			page 29


 1401 0a3c 6B669B3F 		.word	1067148907
 1402 0a40 6B9C9B3F 		.word	1067162731
 1403 0a44 7CD29B3F 		.word	1067176572
 1404 0a48 A7089C3F 		.word	1067190439
 1405 0a4c D93E9C3F 		.word	1067204313
 1406 0a50 25759C3F 		.word	1067218213
 1407 0a54 82AB9C3F 		.word	1067232130
 1408 0a58 F8E19C3F 		.word	1067246072
 1409 0a5c 76189D3F 		.word	1067260022
 1410 0a60 0E4F9D3F 		.word	1067273998
 1411 0a64 BE859D3F 		.word	1067287998
 1412 0a68 77BC9D3F 		.word	1067302007
 1413 0a6c 49F39D3F 		.word	1067316041
 1414 0a70 2C2A9E3F 		.word	1067330092
 1415 0a74 20619E3F 		.word	1067344160
 1416 0a78 24989E3F 		.word	1067358244
 1417 0a7c 42CF9E3F 		.word	1067372354
 1418 0a80 70069F3F 		.word	1067386480
 1419 0a84 B83D9F3F 		.word	1067400632
 1420 0a88 08759F3F 		.word	1067414792
 1421 0a8c 71AC9F3F 		.word	1067428977
 1422 0a90 F3E39F3F 		.word	1067443187
 1423 0a94 7E1BA03F 		.word	1067457406
 1424 0a98 2253A03F 		.word	1067471650
 1425 0a9c D78AA03F 		.word	1067485911
 1426 0aa0 A4C2A03F 		.word	1067500196
 1427 0aa4 7BFAA03F 		.word	1067514491
 1428 0aa8 7232A13F 		.word	1067528818
 1429 0aac 726AA13F 		.word	1067543154
 1430 0ab0 8CA2A13F 		.word	1067557516
 1431 0ab4 B6DAA13F 		.word	1067571894
 1432 0ab8 F112A23F 		.word	1067586289
 1433 0abc 454BA23F 		.word	1067600709
 1434 0ac0 A983A23F 		.word	1067615145
 1435 0ac4 1FBCA23F 		.word	1067629599
 1436 0ac8 AEF4A23F 		.word	1067644078
 1437 0acc 4D2DA33F 		.word	1067658573
 1438 0ad0 FE65A33F 		.word	1067673086
 1439 0ad4 C79EA33F 		.word	1067687623
 1440 0ad8 A1D7A33F 		.word	1067702177
 1441 0adc 9510A43F 		.word	1067716757
 1442 0ae0 9949A43F 		.word	1067731353
 1443 0ae4 AE82A43F 		.word	1067745966
 1444 0ae8 D4BBA43F 		.word	1067760596
 1445 0aec 12F5A43F 		.word	1067775250
 1446 0af0 622EA53F 		.word	1067789922
 1447 0af4 CB67A53F 		.word	1067804619
 1448 0af8 45A1A53F 		.word	1067819333
 1449 0afc D7DAA53F 		.word	1067834071
 1450 0b00 7214A63F 		.word	1067848818
 1451 0b04 2F4EA63F 		.word	1067863599
 1452 0b08 F487A63F 		.word	1067878388
 1453 0b0c D3C1A63F 		.word	1067893203
 1454 0b10 CAFBA63F 		.word	1067908042
 1455 0b14 CA35A73F 		.word	1067922890
 1456 0b18 E36FA73F 		.word	1067937763
 1457 0b1c 15AAA73F 		.word	1067952661
ARM GAS  /var/folders/0z/tsy30v1j4xl4_7kw94k978ww0000gn/T//cc0otGus.s 			page 30


 1458 0b20 58E4A73F 		.word	1067967576
 1459 0b24 AC1EA83F 		.word	1067982508
 1460 0b28 1959A83F 		.word	1067997465
 1461 0b2c 9693A83F 		.word	1068012438
 1462 0b30 2DCEA83F 		.word	1068027437
 1463 0b34 D508A93F 		.word	1068042453
 1464 0b38 9643A93F 		.word	1068057494
 1465 0b3c 677EA93F 		.word	1068072551
 1466 0b40 49B9A93F 		.word	1068087625
 1467 0b44 45F4A93F 		.word	1068102725
 1468 0b48 512FAA3F 		.word	1068117841
 1469 0b4c 776AAA3F 		.word	1068132983
 1470 0b50 ADA5AA3F 		.word	1068148141
 1471 0b54 FCE0AA3F 		.word	1068163324
 1472 0b58 5C1CAB3F 		.word	1068178524
 1473 0b5c CD57AB3F 		.word	1068193741
 1474 0b60 5793AB3F 		.word	1068208983
 1475 0b64 FBCEAB3F 		.word	1068224251
 1476 0b68 AF0AAC3F 		.word	1068239535
 1477 0b6c 7446AC3F 		.word	1068254836
 1478 0b70 5182AC3F 		.word	1068270161
 1479 0b74 40BEAC3F 		.word	1068285504
 1480 0b78 48FAAC3F 		.word	1068300872
 1481 0b7c 6936AD3F 		.word	1068316265
 1482 0b80 9372AD3F 		.word	1068331667
 1483 0b84 DEAEAD3F 		.word	1068347102
 1484 0b88 3AEBAD3F 		.word	1068362554
 1485 0b8c A627AE3F 		.word	1068378022
 1486 0b90 2C64AE3F 		.word	1068393516
 1487 0b94 C3A0AE3F 		.word	1068409027
 1488 0b98 72DDAE3F 		.word	1068424562
 1489 0b9c 331AAF3F 		.word	1068440115
 1490 0ba0 0C57AF3F 		.word	1068455692
 1491 0ba4 FF93AF3F 		.word	1068471295
 1492 0ba8 FAD0AF3F 		.word	1068486906
 1493 0bac 170EB03F 		.word	1068502551
 1494 0bb0 454BB03F 		.word	1068518213
 1495 0bb4 8388B03F 		.word	1068533891
 1496 0bb8 DAC5B03F 		.word	1068549594
 1497 0bbc 4B03B13F 		.word	1068565323
 1498 0bc0 CC40B13F 		.word	1068581068
 1499 0bc4 677EB13F 		.word	1068596839
 1500 0bc8 12BCB13F 		.word	1068612626
 1501 0bcc D7F9B13F 		.word	1068628439
 1502 0bd0 AC37B23F 		.word	1068644268
 1503 0bd4 9B75B23F 		.word	1068660123
 1504 0bd8 A2B3B23F 		.word	1068676002
 1505 0bdc BBF1B23F 		.word	1068691899
 1506 0be0 E42FB33F 		.word	1068707812
 1507 0be4 266EB33F 		.word	1068723750
 1508 0be8 82ACB33F 		.word	1068739714
 1509 0bec EEEAB33F 		.word	1068755694
 1510 0bf0 7429B43F 		.word	1068771700
 1511 0bf4 1268B43F 		.word	1068787730
 1512 0bf8 C2A6B43F 		.word	1068803778
 1513 0bfc 8AE5B43F 		.word	1068819850
 1514 0c00 6424B53F 		.word	1068835940
ARM GAS  /var/folders/0z/tsy30v1j4xl4_7kw94k978ww0000gn/T//cc0otGus.s 			page 31


 1515 0c04 5663B53F 		.word	1068852054
 1516 0c08 59A2B53F 		.word	1068868185
 1517 0c0c 7EE1B53F 		.word	1068884350
 1518 0c10 AB20B63F 		.word	1068900523
 1519 0c14 FA5FB63F 		.word	1068916730
 1520 0c18 5A9FB63F 		.word	1068932954
 1521 0c1c CADEB63F 		.word	1068949194
 1522 0c20 5C1EB73F 		.word	1068965468
 1523 0c24 F65DB73F 		.word	1068981750
 1524 0c28 B29DB73F 		.word	1068998066
 1525 0c2c 7FDDB73F 		.word	1069014399
 1526 0c30 651DB83F 		.word	1069030757
 1527 0c34 5B5DB83F 		.word	1069047131
 1528 0c38 6B9DB83F 		.word	1069063531
 1529 0c3c 94DDB83F 		.word	1069079956
 1530 0c40 D61DB93F 		.word	1069096406
 1531 0c44 295EB93F 		.word	1069112873
 1532 0c48 8C9EB93F 		.word	1069129356
 1533 0c4c 11DFB93F 		.word	1069145873
 1534 0c50 A71FBA3F 		.word	1069162407
 1535 0c54 5760BA3F 		.word	1069178967
 1536 0c58 16A1BA3F 		.word	1069195542
 1537 0c5c EFE1BA3F 		.word	1069212143
 1538 0c60 E222BB3F 		.word	1069228770
 1539 0c64 E563BB3F 		.word	1069245413
 1540 0c68 09A5BB3F 		.word	1069262089
 1541 0c6c 36E6BB3F 		.word	1069278774
 1542 0c70 8527BC3F 		.word	1069295493
 1543 0c74 E468BC3F 		.word	1069312228
 1544 0c78 5CAABC3F 		.word	1069328988
 1545 0c7c EEEBBC3F 		.word	1069345774
 1546 0c80 902DBD3F 		.word	1069362576
 1547 0c84 546FBD3F 		.word	1069379412
 1548 0c88 21B1BD3F 		.word	1069396257
 1549 0c8c 0EF3BD3F 		.word	1069413134
 1550 0c90 0D35BE3F 		.word	1069430029
 1551 0c94 2577BE3F 		.word	1069446949
 1552 0c98 56B9BE3F 		.word	1069463894
 1553 0c9c A0FBBE3F 		.word	1069480864
 1554 0ca0 FB3DBF3F 		.word	1069497851
 1555 0ca4 6F80BF3F 		.word	1069514863
 1556 0ca8 FCC2BF3F 		.word	1069531900
 1557 0cac 9A05C03F 		.word	1069548954
 1558 0cb0 5A48C03F 		.word	1069566042
 1559 0cb4 2A8BC03F 		.word	1069583146
 1560 0cb8 0CCEC03F 		.word	1069600268
 1561 0cbc 0E11C13F 		.word	1069617422
 1562 0cc0 2254C13F 		.word	1069634594
 1563 0cc4 5797C13F 		.word	1069651799
 1564 0cc8 94DAC13F 		.word	1069669012
 1565 0ccc F31DC23F 		.word	1069686259
 1566 0cd0 6B61C23F 		.word	1069703531
 1567 0cd4 F4A4C23F 		.word	1069720820
 1568 0cd8 96E8C23F 		.word	1069738134
 1569 0cdc 522CC33F 		.word	1069755474
 1570 0ce0 2670C33F 		.word	1069772838
 1571 0ce4 0BB4C33F 		.word	1069790219
ARM GAS  /var/folders/0z/tsy30v1j4xl4_7kw94k978ww0000gn/T//cc0otGus.s 			page 32


 1572 0ce8 12F8C33F 		.word	1069807634
 1573 0cec 293CC43F 		.word	1069825065
 1574 0cf0 5A80C43F 		.word	1069842522
 1575 0cf4 9CC4C43F 		.word	1069859996
 1576 0cf8 FF08C53F 		.word	1069877503
 1577 0cfc 7B4DC53F 		.word	1069895035
 1578 0d00 0892C53F 		.word	1069912584
 1579 0d04 AED6C53F 		.word	1069930158
 1580 0d08 6D1BC63F 		.word	1069947757
 1581 0d0c 4660C63F 		.word	1069965382
 1582 0d10 2FA5C63F 		.word	1069983023
 1583 0d14 3AEAC63F 		.word	1070000698
 1584 0d18 552FC73F 		.word	1070018389
 1585 0d1c 9274C73F 		.word	1070036114
 1586 0d20 E0B9C73F 		.word	1070053856
 1587 0d24 47FFC73F 		.word	1070071623
 1588 0d28 C844C83F 		.word	1070089416
 1589 0d2c 598AC83F 		.word	1070107225
 1590 0d30 0BD0C83F 		.word	1070125067
 1591 0d34 CF15C93F 		.word	1070142927
 1592 0d38 B45BC93F 		.word	1070160820
 1593 0d3c A9A1C93F 		.word	1070178729
 1594 0d40 B8E7C93F 		.word	1070196664
 1595 0d44 E02DCA3F 		.word	1070214624
 1596 0d48 2174CA3F 		.word	1070232609
 1597 0d4c 7CBACA3F 		.word	1070250620
 1598 0d50 EF00CB3F 		.word	1070268655
 1599 0d54 7C47CB3F 		.word	1070286716
 1600 0d58 228ECB3F 		.word	1070304802
 1601 0d5c D8D4CB3F 		.word	1070322904
 1602 0d60 B01BCC3F 		.word	1070341040
 1603 0d64 9962CC3F 		.word	1070359193
 1604 0d68 A4A9CC3F 		.word	1070377380
 1605 0d6c BFF0CC3F 		.word	1070395583
 1606 0d70 F437CD3F 		.word	1070413812
 1607 0d74 417FCD3F 		.word	1070432065
 1608 0d78 B0C6CD3F 		.word	1070450352
 1609 0d7c 300ECE3F 		.word	1070468656
 1610 0d80 C955CE3F 		.word	1070486985
 1611 0d84 7C9DCE3F 		.word	1070505340
 1612 0d88 47E5CE3F 		.word	1070523719
 1613 0d8c 2C2DCF3F 		.word	1070542124
 1614 0d90 2975CF3F 		.word	1070560553
 1615 0d94 40BDCF3F 		.word	1070579008
 1616 0d98 7105D03F 		.word	1070597489
 1617 0d9c BA4DD03F 		.word	1070615994
 1618 0da0 1C96D03F 		.word	1070634524
 1619 0da4 98DED03F 		.word	1070653080
 1620 0da8 2D27D13F 		.word	1070671661
 1621 0dac DB6FD13F 		.word	1070690267
 1622 0db0 A2B8D13F 		.word	1070708898
 1623 0db4 8201D23F 		.word	1070727554
 1624 0db8 7B4AD23F 		.word	1070746235
 1625 0dbc 8E93D23F 		.word	1070764942
 1626 0dc0 BADCD23F 		.word	1070783674
 1627 0dc4 FF25D33F 		.word	1070802431
 1628 0dc8 5D6FD33F 		.word	1070821213
ARM GAS  /var/folders/0z/tsy30v1j4xl4_7kw94k978ww0000gn/T//cc0otGus.s 			page 33


 1629 0dcc D4B8D33F 		.word	1070840020
 1630 0dd0 6402D43F 		.word	1070858852
 1631 0dd4 164CD43F 		.word	1070877718
 1632 0dd8 D995D43F 		.word	1070896601
 1633 0ddc B5DFD43F 		.word	1070915509
 1634 0de0 B329D53F 		.word	1070934451
 1635 0de4 C173D53F 		.word	1070953409
 1636 0de8 F1BDD53F 		.word	1070972401
 1637 0dec 3108D63F 		.word	1070991409
 1638 0df0 9352D63F 		.word	1071010451
 1639 0df4 0F9DD63F 		.word	1071029519
 1640 0df8 A3E7D63F 		.word	1071048611
 1641 0dfc 5132D73F 		.word	1071067729
 1642 0e00 187DD73F 		.word	1071086872
 1643 0e04 F7C7D73F 		.word	1071106039
 1644 0e08 F112D83F 		.word	1071125233
 1645 0e0c 035ED83F 		.word	1071144451
 1646 0e10 37A9D83F 		.word	1071163703
 1647 0e14 7BF4D83F 		.word	1071182971
 1648 0e18 E23FD93F 		.word	1071202274
 1649 0e1c 618BD93F 		.word	1071221601
 1650 0e20 F9D6D93F 		.word	1071240953
 1651 0e24 AB22DA3F 		.word	1071260331
 1652 0e28 766EDA3F 		.word	1071279734
 1653 0e2c 62BADA3F 		.word	1071299170
 1654 0e30 6006DB3F 		.word	1071318624
 1655 0e34 7E52DB3F 		.word	1071338110
 1656 0e38 AE9EDB3F 		.word	1071357614
 1657 0e3c FFEADB3F 		.word	1071377151
 1658 0e40 7237DC3F 		.word	1071396722
 1659 0e44 F583DC3F 		.word	1071416309
 1660 0e48 91D0DC3F 		.word	1071435921
 1661 0e4c 501DDD3F 		.word	1071455568
 1662 0e50 276ADD3F 		.word	1071475239
 1663 0e54 17B7DD3F 		.word	1071494935
 1664 0e58 2104DE3F 		.word	1071514657
 1665 0e5c 4451DE3F 		.word	1071534404
 1666 0e60 889EDE3F 		.word	1071554184
 1667 0e64 E6EBDE3F 		.word	1071573990
 1668 0e68 5439DF3F 		.word	1071593812
 1669 0e6c EC86DF3F 		.word	1071613676
 1670 0e70 95D4DF3F 		.word	1071633557
 1671 0e74 6022E03F 		.word	1071653472
 1672 0e78 3B70E03F 		.word	1071673403
 1673 0e7c 40BEE03F 		.word	1071693376
 1674 0e80 560CE13F 		.word	1071713366
 1675 0e84 865AE13F 		.word	1071733382
 1676 0e88 D6A8E13F 		.word	1071753430
 1677 0e8c 40F7E13F 		.word	1071773504
 1678 0e90 C345E23F 		.word	1071793603
 1679 0e94 6894E23F 		.word	1071813736
 1680 0e98 26E3E23F 		.word	1071833894
 1681 0e9c FD31E33F 		.word	1071854077
 1682 0ea0 ED80E33F 		.word	1071874285
 1683 0ea4 F6CFE33F 		.word	1071894518
 1684 0ea8 211FE43F 		.word	1071914785
 1685 0eac 656EE43F 		.word	1071935077
ARM GAS  /var/folders/0z/tsy30v1j4xl4_7kw94k978ww0000gn/T//cc0otGus.s 			page 34


 1686 0eb0 CBBDE43F 		.word	1071955403
 1687 0eb4 410DE53F 		.word	1071975745
 1688 0eb8 D95CE53F 		.word	1071996121
 1689 0ebc 93ACE53F 		.word	1072016531
 1690 0ec0 5DFCE53F 		.word	1072036957
 1691 0ec4 494CE63F 		.word	1072057417
 1692 0ec8 4E9CE63F 		.word	1072077902
 1693 0ecc 74ECE63F 		.word	1072098420
 1694 0ed0 B43CE73F 		.word	1072118964
 1695 0ed4 0D8DE73F 		.word	1072139533
 1696 0ed8 7FDDE73F 		.word	1072160127
 1697 0edc 122EE83F 		.word	1072180754
 1698 0ee0 BF7EE83F 		.word	1072201407
 1699 0ee4 8DCFE83F 		.word	1072222093
 1700 0ee8 7520E93F 		.word	1072242805
 1701 0eec 7671E93F 		.word	1072263542
 1702 0ef0 8FC2E93F 		.word	1072284303
 1703 0ef4 CB13EA3F 		.word	1072305099
 1704 0ef8 2865EA3F 		.word	1072325928
 1705 0efc 95B6EA3F 		.word	1072346773
 1706 0f00 2508EB3F 		.word	1072367653
 1707 0f04 D559EB3F 		.word	1072388565
 1708 0f08 97ABEB3F 		.word	1072409495
 1709 0f0c 7AFDEB3F 		.word	1072430458
 1710 0f10 7F4FEC3F 		.word	1072451455
 1711 0f14 9DA1EC3F 		.word	1072472477
 1712 0f18 D4F3EC3F 		.word	1072493524
 1713 0f1c 2C46ED3F 		.word	1072514604
 1714 0f20 9E98ED3F 		.word	1072535710
 1715 0f24 31EBED3F 		.word	1072556849
 1716 0f28 DE3DEE3F 		.word	1072578014
 1717 0f2c A390EE3F 		.word	1072599203
 1718 0f30 8AE3EE3F 		.word	1072620426
 1719 0f34 8B36EF3F 		.word	1072641675
 1720 0f38 AD89EF3F 		.word	1072662957
 1721 0f3c E8DCEF3F 		.word	1072684264
 1722 0f40 4430F03F 		.word	1072705604
 1723 0f44 BA83F03F 		.word	1072726970
 1724 0f48 52D7F03F 		.word	1072748370
 1725 0f4c 022BF13F 		.word	1072769794
 1726 0f50 CC7EF13F 		.word	1072791244
 1727 0f54 B7D2F13F 		.word	1072812727
 1728 0f58 BB26F23F 		.word	1072834235
 1729 0f5c E17AF23F 		.word	1072855777
 1730 0f60 29CFF23F 		.word	1072877353
 1731 0f64 8123F33F 		.word	1072898945
 1732 0f68 0378F33F 		.word	1072920579
 1733 0f6c 9FCCF33F 		.word	1072942239
 1734 0f70 5321F43F 		.word	1072963923
 1735 0f74 2976F43F 		.word	1072985641
 1736 0f78 19CBF43F 		.word	1073007385
 1737 0f7c 2920F53F 		.word	1073029161
 1738 0f80 5C75F53F 		.word	1073050972
 1739 0f84 A7CAF53F 		.word	1073072807
 1740 0f88 0C20F63F 		.word	1073094668
 1741 0f8c 9275F63F 		.word	1073116562
 1742 0f90 3ACBF63F 		.word	1073138490
ARM GAS  /var/folders/0z/tsy30v1j4xl4_7kw94k978ww0000gn/T//cc0otGus.s 			page 35


 1743 0f94 FB20F73F 		.word	1073160443
 1744 0f98 D576F73F 		.word	1073182421
 1745 0f9c D9CCF73F 		.word	1073204441
 1746 0fa0 EE22F83F 		.word	1073226478
 1747 0fa4 2D79F83F 		.word	1073248557
 1748 0fa8 85CFF83F 		.word	1073270661
 1749 0fac F625F93F 		.word	1073292790
 1750 0fb0 897CF93F 		.word	1073314953
 1751 0fb4 3DD3F93F 		.word	1073337149
 1752 0fb8 0B2AFA3F 		.word	1073359371
 1753 0fbc FA80FA3F 		.word	1073381626
 1754 0fc0 0AD8FA3F 		.word	1073403914
 1755 0fc4 342FFB3F 		.word	1073426228
 1756 0fc8 7786FB3F 		.word	1073448567
 1757 0fcc E3DDFB3F 		.word	1073470947
 1758 0fd0 6935FC3F 		.word	1073493353
 1759 0fd4 098DFC3F 		.word	1073515785
 1760 0fd8 C9E4FC3F 		.word	1073538249
 1761 0fdc AC3CFD3F 		.word	1073560748
 1762 0fe0 AF94FD3F 		.word	1073583279
 1763 0fe4 CCECFD3F 		.word	1073605836
 1764 0fe8 0245FE3F 		.word	1073628418
 1765 0fec 629DFE3F 		.word	1073651042
 1766 0ff0 DCF5FE3F 		.word	1073673692
 1767 0ff4 774EFF3F 		.word	1073696375
 1768 0ff8 2AA7FF3F 		.word	1073719082
 1769 0ffc 00000040 		.word	1073741824
 1770              		.text
 1771              	.Letext0:
 1772              		.file 2 "/Users/johannes/Library/Application Support/Code/User/globalStorage/bmd.stm32-for-vscode/
 1773              		.file 3 "/Users/johannes/Library/Application Support/Code/User/globalStorage/bmd.stm32-for-vscode/
 1774              		.file 4 "Drivers/CMSIS/Device/ST/STM32F4xx/Include/stm32f407xx.h"
 1775              		.file 5 "Drivers/STM32F4xx_HAL_Driver/Inc/stm32f4xx_hal_def.h"
 1776              		.file 6 "Drivers/STM32F4xx_HAL_Driver/Inc/stm32f4xx_hal_dma.h"
 1777              		.file 7 "Drivers/STM32F4xx_HAL_Driver/Inc/stm32f4xx_hal_i2s.h"
 1778              		.file 8 "Core/Inc/audio.h"
 1779              		.file 9 "Core/Inc/oscillators.h"
 1780              		.file 10 "Core/Inc/ADSR_envelope.h"
 1781              		.file 11 "Core/Inc/filter.h"
 1782              		.file 12 "Core/Inc/MIDI_lut.h"
 1783              		.file 13 "Core/Inc/../../Drivers/BSP/STM32F4-Discovery/stm32f4_discovery_audio.h"
ARM GAS  /var/folders/0z/tsy30v1j4xl4_7kw94k978ww0000gn/T//cc0otGus.s 			page 36


DEFINED SYMBOLS
                            *ABS*:0000000000000000 audio.c
/var/folders/0z/tsy30v1j4xl4_7kw94k978ww0000gn/T//cc0otGus.s:20     .text.AUDIO_Init:0000000000000000 $t
/var/folders/0z/tsy30v1j4xl4_7kw94k978ww0000gn/T//cc0otGus.s:27     .text.AUDIO_Init:0000000000000000 AUDIO_Init
/var/folders/0z/tsy30v1j4xl4_7kw94k978ww0000gn/T//cc0otGus.s:117    .text.AUDIO_Init:0000000000000090 $d
/var/folders/0z/tsy30v1j4xl4_7kw94k978ww0000gn/T//cc0otGus.s:130    .text.OpSetFreq:0000000000000000 $t
/var/folders/0z/tsy30v1j4xl4_7kw94k978ww0000gn/T//cc0otGus.s:137    .text.OpSetFreq:0000000000000000 OpSetFreq
/var/folders/0z/tsy30v1j4xl4_7kw94k978ww0000gn/T//cc0otGus.s:158    .text.audioBlock:0000000000000000 $t
/var/folders/0z/tsy30v1j4xl4_7kw94k978ww0000gn/T//cc0otGus.s:165    .text.audioBlock:0000000000000000 audioBlock
/var/folders/0z/tsy30v1j4xl4_7kw94k978ww0000gn/T//cc0otGus.s:427    .text.audioBlock:0000000000000120 $d
/var/folders/0z/tsy30v1j4xl4_7kw94k978ww0000gn/T//cc0otGus.s:445    .text.BSP_AUDIO_OUT_HalfTransfer_CallBack:0000000000000000 $t
/var/folders/0z/tsy30v1j4xl4_7kw94k978ww0000gn/T//cc0otGus.s:452    .text.BSP_AUDIO_OUT_HalfTransfer_CallBack:0000000000000000 BSP_AUDIO_OUT_HalfTransfer_CallBack
/var/folders/0z/tsy30v1j4xl4_7kw94k978ww0000gn/T//cc0otGus.s:467    .text.BSP_AUDIO_OUT_HalfTransfer_CallBack:0000000000000008 $d
/var/folders/0z/tsy30v1j4xl4_7kw94k978ww0000gn/T//cc0otGus.s:472    .text.BSP_AUDIO_OUT_TransferComplete_CallBack:0000000000000000 $t
/var/folders/0z/tsy30v1j4xl4_7kw94k978ww0000gn/T//cc0otGus.s:479    .text.BSP_AUDIO_OUT_TransferComplete_CallBack:0000000000000000 BSP_AUDIO_OUT_TransferComplete_CallBack
/var/folders/0z/tsy30v1j4xl4_7kw94k978ww0000gn/T//cc0otGus.s:494    .text.BSP_AUDIO_OUT_TransferComplete_CallBack:0000000000000008 $d
/var/folders/0z/tsy30v1j4xl4_7kw94k978ww0000gn/T//cc0otGus.s:499    .text.BSP_AUDIO_OUT_Error_CallBack:0000000000000000 $t
/var/folders/0z/tsy30v1j4xl4_7kw94k978ww0000gn/T//cc0otGus.s:506    .text.BSP_AUDIO_OUT_Error_CallBack:0000000000000000 BSP_AUDIO_OUT_Error_CallBack
/var/folders/0z/tsy30v1j4xl4_7kw94k978ww0000gn/T//cc0otGus.s:523    .text.DMA1_Stream7_IRQHandler:0000000000000000 $t
/var/folders/0z/tsy30v1j4xl4_7kw94k978ww0000gn/T//cc0otGus.s:530    .text.DMA1_Stream7_IRQHandler:0000000000000000 DMA1_Stream7_IRQHandler
/var/folders/0z/tsy30v1j4xl4_7kw94k978ww0000gn/T//cc0otGus.s:545    .text.DMA1_Stream7_IRQHandler:0000000000000008 $d
/var/folders/0z/tsy30v1j4xl4_7kw94k978ww0000gn/T//cc0otGus.s:550    .text.DMA1_Stream3_IRQHandler:0000000000000000 $t
/var/folders/0z/tsy30v1j4xl4_7kw94k978ww0000gn/T//cc0otGus.s:557    .text.DMA1_Stream3_IRQHandler:0000000000000000 DMA1_Stream3_IRQHandler
/var/folders/0z/tsy30v1j4xl4_7kw94k978ww0000gn/T//cc0otGus.s:572    .text.DMA1_Stream3_IRQHandler:0000000000000008 $d
/var/folders/0z/tsy30v1j4xl4_7kw94k978ww0000gn/T//cc0otGus.s:598    .bss.superSaw_outR:0000000000000000 superSaw_outR
/var/folders/0z/tsy30v1j4xl4_7kw94k978ww0000gn/T//cc0otGus.s:592    .bss.superSaw_outL:0000000000000000 superSaw_outL
/var/folders/0z/tsy30v1j4xl4_7kw94k978ww0000gn/T//cc0otGus.s:586    .bss.audioBuffer:0000000000000000 audioBuffer
/var/folders/0z/tsy30v1j4xl4_7kw94k978ww0000gn/T//cc0otGus.s:745    .rodata.pbend:0000000000000000 pbend
/var/folders/0z/tsy30v1j4xl4_7kw94k978ww0000gn/T//cc0otGus.s:612    .rodata.mtof:0000000000000000 mtof
/var/folders/0z/tsy30v1j4xl4_7kw94k978ww0000gn/T//cc0otGus.s:582    .bss.audioBuffer:0000000000000000 $d
/var/folders/0z/tsy30v1j4xl4_7kw94k978ww0000gn/T//cc0otGus.s:589    .bss.superSaw_outL:0000000000000000 $d
/var/folders/0z/tsy30v1j4xl4_7kw94k978ww0000gn/T//cc0otGus.s:595    .bss.superSaw_outR:0000000000000000 $d
/var/folders/0z/tsy30v1j4xl4_7kw94k978ww0000gn/T//cc0otGus.s:601    .ccmram:0000000000000000 $d
/var/folders/0z/tsy30v1j4xl4_7kw94k978ww0000gn/T//cc0otGus.s:605    .ccmram:0000000000000000 env
/var/folders/0z/tsy30v1j4xl4_7kw94k978ww0000gn/T//cc0otGus.s:608    .rodata.mtof:0000000000000000 $d
/var/folders/0z/tsy30v1j4xl4_7kw94k978ww0000gn/T//cc0otGus.s:742    .rodata.pbend:0000000000000000 $d

UNDEFINED SYMBOLS
BSP_AUDIO_OUT_Init
BSP_AUDIO_OUT_Play
osc_init
ADSR_init
MoogLP_init
osc1
osc2
osc3
adsr
Moog_filter
__aeabi_f2d
__aeabi_dadd
__aeabi_d2f
__aeabi_dmul
ADSR_compute
osc_polyblepSaw
osc_polyblepRect
MoogLP_compute
currentPitch
ARM GAS  /var/folders/0z/tsy30v1j4xl4_7kw94k978ww0000gn/T//cc0otGus.s 			page 37


HAL_DMA_IRQHandler
hAudioOutI2s
hAudioInI2s
