ARM GAS  /var/folders/0z/tsy30v1j4xl4_7kw94k978ww0000gn/T//ccfc537T.s 			page 1


   1              		.cpu cortex-m4
   2              		.arch armv7e-m
   3              		.fpu fpv4-sp-d16
   4              		.eabi_attribute 27, 1
   5              		.eabi_attribute 28, 1
   6              		.eabi_attribute 20, 1
   7              		.eabi_attribute 21, 1
   8              		.eabi_attribute 23, 3
   9              		.eabi_attribute 24, 1
  10              		.eabi_attribute 25, 1
  11              		.eabi_attribute 26, 1
  12              		.eabi_attribute 30, 2
  13              		.eabi_attribute 34, 1
  14              		.eabi_attribute 18, 4
  15              		.file	"audio.c"
  16              		.text
  17              	.Ltext0:
  18              		.cfi_sections	.debug_frame
  19              		.global	__aeabi_f2d
  20              		.global	__aeabi_dadd
  21              		.global	__aeabi_d2f
  22              		.section	.text.audioBlock.constprop.0,"ax",%progbits
  23              		.align	1
  24              		.p2align 2,,3
  25              		.syntax unified
  26              		.thumb
  27              		.thumb_func
  29              	audioBlock.constprop.0:
  30              	.LVL0:
  31              	.LFB143:
  32              		.file 1 "Core/Src/audio.c"
   1:Core/Src/audio.c **** /**
   2:Core/Src/audio.c ****  * @file audio.c
   3:Core/Src/audio.c ****  * @author johannes regnier
   4:Core/Src/audio.c ****  * @brief Functions to make sound and main audio block function 
   5:Core/Src/audio.c ****  * @note  Essential initialization functions from Tom Erbe:	
   6:Core/Src/audio.c ****  * @note  http://synthnotes.ucsd.edu/wp4/index.php/2019/09/24/setting-up-the-stmf4-to-connect-to-th
   7:Core/Src/audio.c ****  * @version 0.1
   8:Core/Src/audio.c ****  * @date 2023-12-12
   9:Core/Src/audio.c ****  * 
  10:Core/Src/audio.c ****  * @copyright Copyright (c) 2023
  11:Core/Src/audio.c ****  * 
  12:Core/Src/audio.c ****  */
  13:Core/Src/audio.c **** 
  14:Core/Src/audio.c **** 
  15:Core/Src/audio.c **** #include <stdint.h>
  16:Core/Src/audio.c **** #include "audio.h"
  17:Core/Src/audio.c **** #include "oscillators.h"
  18:Core/Src/audio.c **** #include "ADSR_envelope.h"
  19:Core/Src/audio.c **** #include "ladder_filter.h"
  20:Core/Src/audio.c **** #include "bitcrusher.h"
  21:Core/Src/audio.c **** #include "stereo_delay.h"
  22:Core/Src/audio.c **** #include "MIDI_lut.h"
  23:Core/Src/audio.c **** #include <stdint.h>
  24:Core/Src/audio.c **** #include "helper_functions.h"
  25:Core/Src/audio.c **** 
  26:Core/Src/audio.c **** 
ARM GAS  /var/folders/0z/tsy30v1j4xl4_7kw94k978ww0000gn/T//ccfc537T.s 			page 2


  27:Core/Src/audio.c **** 
  28:Core/Src/audio.c **** /**
  29:Core/Src/audio.c ****  * @brief Audio Buffer - x samples X 2 channels = 2 * x samples
  30:Core/Src/audio.c ****  * @note Channels are interleaved - LRLRLRLRLRLRLRLRLRLRLR - audioBuffer[frame << 1] audioBuffer[(f
  31:Core/Src/audio.c ****  */
  32:Core/Src/audio.c **** int16_t audioBuffer[BUFFER_SIZE]; 
  33:Core/Src/audio.c **** 
  34:Core/Src/audio.c **** 
  35:Core/Src/audio.c **** extern uint8_t currentPitch;
  36:Core/Src/audio.c **** extern uint8_t velocity;
  37:Core/Src/audio.c **** extern ADSR_t adsr_amp, adsr_filt;
  38:Core/Src/audio.c **** extern ZDFLadder_t Moog_filter;
  39:Core/Src/audio.c **** extern oscillator_t osc1, osc2, osc3;
  40:Core/Src/audio.c **** 
  41:Core/Src/audio.c **** 
  42:Core/Src/audio.c **** static float f0 _CCM_;
  43:Core/Src/audio.c **** static float f_sub _CCM_;
  44:Core/Src/audio.c **** // static float vol _CCM_;
  45:Core/Src/audio.c **** static float amp_env _CCM_;
  46:Core/Src/audio.c **** static float filt_env _CCM_;
  47:Core/Src/audio.c **** 
  48:Core/Src/audio.c **** 
  49:Core/Src/audio.c **** static float delayLOut _CCM_;
  50:Core/Src/audio.c **** static float delayROut _CCM_;
  51:Core/Src/audio.c **** 
  52:Core/Src/audio.c **** 
  53:Core/Src/audio.c **** 
  54:Core/Src/audio.c **** /**
  55:Core/Src/audio.c ****  * @brief Initialize audio
  56:Core/Src/audio.c ****  * 
  57:Core/Src/audio.c ****  */
  58:Core/Src/audio.c **** void AUDIO_Init()
  59:Core/Src/audio.c **** {
  60:Core/Src/audio.c ****     BSP_AUDIO_OUT_Init(OUTPUT_DEVICE_HEADPHONE, INITIAL_VOLUME, FS);
  61:Core/Src/audio.c **** 
  62:Core/Src/audio.c **** 	/**
  63:Core/Src/audio.c **** 	 * @brief Ping pong buffer
  64:Core/Src/audio.c **** 	 * @note While one audiobuffer is transmitted via DMA, another one is computed
  65:Core/Src/audio.c **** 	 * @note Hence size = 2 * (audiobuffer size)
  66:Core/Src/audio.c **** 	 */
  67:Core/Src/audio.c **** 	BSP_AUDIO_OUT_Play((uint16_t *)&audioBuffer[0], 2*BUFFER_SIZE); 
  68:Core/Src/audio.c **** 
  69:Core/Src/audio.c **** 	
  70:Core/Src/audio.c **** 	
  71:Core/Src/audio.c **** 	osc_init(&osc1, 0.5, 1000, 0, 0, 0.5);
  72:Core/Src/audio.c **** 	osc_init(&osc2, 0.5, 440, 0, 0, 0.5);
  73:Core/Src/audio.c **** 	osc_init(&osc3, 0.5, 440, 0, 0, 0.5);
  74:Core/Src/audio.c **** 
  75:Core/Src/audio.c **** 
  76:Core/Src/audio.c **** 	ADSR_init(&adsr_amp);
  77:Core/Src/audio.c **** 	ADSR_init(&adsr_filt);
  78:Core/Src/audio.c **** 	MoogLP_init(&Moog_filter);
  79:Core/Src/audio.c **** 	Delay_init();
  80:Core/Src/audio.c **** 	
  81:Core/Src/audio.c **** }
  82:Core/Src/audio.c **** 
  83:Core/Src/audio.c **** void OpSetFreq(oscillator_t * op, float f)
ARM GAS  /var/folders/0z/tsy30v1j4xl4_7kw94k978ww0000gn/T//ccfc537T.s 			page 3


  84:Core/Src/audio.c **** {
  85:Core/Src/audio.c **** 	op->freq = A0 * f;
  86:Core/Src/audio.c **** }
  87:Core/Src/audio.c **** 
  88:Core/Src/audio.c **** 
  89:Core/Src/audio.c **** 
  90:Core/Src/audio.c **** /**
  91:Core/Src/audio.c ****  * @brief Main audio function. This is where the audio samples are computed, then the audio buffer 
  92:Core/Src/audio.c ****  * 
  93:Core/Src/audio.c ****  * @param buffer 
  94:Core/Src/audio.c ****  * @param samples 
  95:Core/Src/audio.c ****  */
  96:Core/Src/audio.c **** void audioBlock(uint16_t *buffer, uint16_t samples)
  33              		.loc 1 96 6 view -0
  34              		.cfi_startproc
  35              		@ args = 0, pretend = 0, frame = 0
  36              		@ frame_needed = 0, uses_anonymous_args = 0
  97:Core/Src/audio.c **** {
  98:Core/Src/audio.c **** 	int i;
  99:Core/Src/audio.c **** 	int16_t *output;
 100:Core/Src/audio.c **** 	output = buffer;
 101:Core/Src/audio.c **** 	float sample, sampleL, sampleR;
 102:Core/Src/audio.c **** 	uint16_t valueL, valueR;
 103:Core/Src/audio.c **** 	
 104:Core/Src/audio.c **** 
 105:Core/Src/audio.c **** 	for (i = 0; i < samples; i++)
  37              		.loc 1 105 16 view .LVU1
  96:Core/Src/audio.c **** {
  38              		.loc 1 96 6 is_stmt 0 view .LVU2
  39 0000 2DE9F84F 		push	{r3, r4, r5, r6, r7, r8, r9, r10, fp, lr}
  40              		.cfi_def_cfa_offset 40
  41              		.cfi_offset 3, -40
  42              		.cfi_offset 4, -36
  43              		.cfi_offset 5, -32
  44              		.cfi_offset 6, -28
  45              		.cfi_offset 7, -24
  46              		.cfi_offset 8, -20
  47              		.cfi_offset 9, -16
  48              		.cfi_offset 10, -12
  49              		.cfi_offset 11, -8
  50              		.cfi_offset 14, -4
  51 0004 DFF800B2 		ldr	fp, .L17+56
  52 0008 DFF80082 		ldr	r8, .L17+60
  53 000c 724F     		ldr	r7, .L17+8
  54 000e 734E     		ldr	r6, .L17+12
  55 0010 2DED068B 		vpush.64	{d8, d9, d10}
  56              		.cfi_def_cfa_offset 64
  57              		.cfi_offset 80, -64
  58              		.cfi_offset 81, -60
  59              		.cfi_offset 82, -56
  60              		.cfi_offset 83, -52
  61              		.cfi_offset 84, -48
  62              		.cfi_offset 85, -44
  96:Core/Src/audio.c **** {
  63              		.loc 1 96 6 view .LVU3
  64 0014 8146     		mov	r9, r0
  65              	.LBB36:
ARM GAS  /var/folders/0z/tsy30v1j4xl4_7kw94k978ww0000gn/T//ccfc537T.s 			page 4


  66              	.LBB37:
  85:Core/Src/audio.c **** }
  67              		.loc 1 85 16 view .LVU4
  68 0016 DFED728A 		vldr.32	s17, .L17+16
  69              	.LBE37:
  70              	.LBE36:
  71 001a 9FED72AA 		vldr.32	s20, .L17+20
 106:Core/Src/audio.c **** 	{
 107:Core/Src/audio.c **** 
 108:Core/Src/audio.c **** 		f0 = mtof[currentPitch];
 109:Core/Src/audio.c **** 		
 110:Core/Src/audio.c **** 		/* test with 3 sawtooth*/
 111:Core/Src/audio.c **** 		OpSetFreq(&osc1, f0);
 112:Core/Src/audio.c **** 		OpSetFreq(&osc2, f0 + 0.1);
 113:Core/Src/audio.c **** 
 114:Core/Src/audio.c **** 		f_sub = mtof[max(currentPitch - 12, 0)];
 115:Core/Src/audio.c **** 		OpSetFreq(&osc3, f_sub);
 116:Core/Src/audio.c **** 		sample = osc_polyblepSaw(&osc1) + osc_polyblepSaw(&osc2) + osc_polyblepRect(&osc3);
 117:Core/Src/audio.c **** 	
 118:Core/Src/audio.c **** 
 119:Core/Src/audio.c **** 		/* test with supersaw */
 120:Core/Src/audio.c **** 		// OpSetFreq(&osc1, f0);
 121:Core/Src/audio.c **** 		// OpSetFreq(&osc2, f0 * (1 - 0.3 * 0.01953125));
 122:Core/Src/audio.c **** 		// OpSetFreq(&osc3, f0 * (1 + 0.3 * 0.01953125));
 123:Core/Src/audio.c **** 		// OpSetFreq(&osc4, f0 * (1 + 0.3 * 0.0625));
 124:Core/Src/audio.c **** 		// OpSetFreq(&osc5, f0 * (1 - 0.3 * 0.109375));
 125:Core/Src/audio.c **** 		// OpSetFreq(&osc6, f0 * (1 + 0.3 * 0.109375));
 126:Core/Src/audio.c **** 		// yL = 0.25 * (0.707 * osc_polyblepSaw(&osc1) + osc_polyblepSaw(&osc2) + osc_polyblepSaw(&osc3) 
 127:Core/Src/audio.c ****     	// yR = 0.25 * (0.707 * osc_polyblepSaw(&osc1) + osc_polyblepSaw(&osc5) + osc_polyblepSaw(&osc
 128:Core/Src/audio.c **** 		
 129:Core/Src/audio.c **** 
 130:Core/Src/audio.c **** 		/****************** Apply filter ***********************/
 131:Core/Src/audio.c **** 		filt_env = ADSR_compute(&adsr_filt);
 132:Core/Src/audio.c **** 		Moog_filter.cutoff = 600 * filt_env;
  72              		.loc 1 132 28 view .LVU5
  73 001e 9FED729A 		vldr.32	s18, .L17+24
 133:Core/Src/audio.c **** 		// Moog_filterR.cutoff = 1600 * filt_env;
 134:Core/Src/audio.c **** 		sample = MoogLP_compute(&Moog_filter, sample);
 135:Core/Src/audio.c **** 	
 136:Core/Src/audio.c **** 
 137:Core/Src/audio.c **** 		/************** Apply amplitude envelope ****************/
 138:Core/Src/audio.c **** 		amp_env = ADSR_compute(&adsr_amp);
 139:Core/Src/audio.c **** 		sample *= amp_env;
 140:Core/Src/audio.c **** 
 141:Core/Src/audio.c **** 		
 142:Core/Src/audio.c **** 		/************** Apply bitcrushing effect ***************/
 143:Core/Src/audio.c **** 		sample = decimator(sample, 1., 4);
 144:Core/Src/audio.c **** 
 145:Core/Src/audio.c **** 		/************** Apply delay effect ****************/
 146:Core/Src/audio.c **** 		// pingpongDelay_compute(sample, &delayLOut, &delayROut);
 147:Core/Src/audio.c **** 		pingpongDelay_compute(sample, &delayLOut, &delayROut);
 148:Core/Src/audio.c **** 		sampleL = delayLOut;
 149:Core/Src/audio.c **** 		sampleR = delayROut;
 150:Core/Src/audio.c **** 
 151:Core/Src/audio.c **** 		/****************** softclip outputs ********************/
 152:Core/Src/audio.c **** 		sampleL = SoftClip(sampleL);
 153:Core/Src/audio.c **** 		sampleR = SoftClip(sampleR);
ARM GAS  /var/folders/0z/tsy30v1j4xl4_7kw94k978ww0000gn/T//ccfc537T.s 			page 5


 154:Core/Src/audio.c **** 
 155:Core/Src/audio.c **** 		/*************** Convert to 16 bits int *****************/
 156:Core/Src/audio.c **** 		valueL = ((int16_t) ((32767.0f) * sampleL)); 
  74              		.loc 1 156 35 view .LVU6
  75 0022 DFED729A 		vldr.32	s19, .L17+28
 105:Core/Src/audio.c **** 	{
  76              		.loc 1 105 9 view .LVU7
  77 0026 0024     		movs	r4, #0
  78 0028 00F1020A 		add	r10, r0, #2
  79 002c 50E0     		b	.L5
  80              	.LVL1:
  81              	.L15:
  82              	.LBB40:
  83              	.LBB41:
  84              		.file 2 "Core/Inc/helper_functions.h"
   1:Core/Inc/helper_functions.h **** /**
   2:Core/Inc/helper_functions.h ****  * @file helper_functions.h
   3:Core/Inc/helper_functions.h ****  * @author johannes regnier
   4:Core/Inc/helper_functions.h ****  * @brief Various math tools 
   5:Core/Inc/helper_functions.h ****  * @version 0.1
   6:Core/Inc/helper_functions.h ****  * @date 2023-12-30
   7:Core/Inc/helper_functions.h ****  * 
   8:Core/Inc/helper_functions.h ****  * @copyright Copyright (c) 2023
   9:Core/Inc/helper_functions.h ****  * 
  10:Core/Inc/helper_functions.h ****  */
  11:Core/Inc/helper_functions.h **** 
  12:Core/Inc/helper_functions.h **** #ifndef _HELPER_FUNCTIONS_H
  13:Core/Inc/helper_functions.h **** #define _HELPER_FUNCTIONS_H
  14:Core/Inc/helper_functions.h **** 
  15:Core/Inc/helper_functions.h **** 
  16:Core/Inc/helper_functions.h **** #include <math.h>
  17:Core/Inc/helper_functions.h **** #include <stdint.h>
  18:Core/Inc/helper_functions.h **** 
  19:Core/Inc/helper_functions.h **** #ifndef NOMINMAX
  20:Core/Inc/helper_functions.h **** 
  21:Core/Inc/helper_functions.h **** #ifndef max
  22:Core/Inc/helper_functions.h **** #define max(a,b)            (((a) > (b)) ? (a) : (b))
  23:Core/Inc/helper_functions.h **** #endif
  24:Core/Inc/helper_functions.h **** 
  25:Core/Inc/helper_functions.h **** #ifndef min
  26:Core/Inc/helper_functions.h **** #define min(a,b)            (((a) < (b)) ? (a) : (b))
  27:Core/Inc/helper_functions.h **** #endif
  28:Core/Inc/helper_functions.h **** 
  29:Core/Inc/helper_functions.h **** #endif  /* NOMINMAX */
  30:Core/Inc/helper_functions.h **** 
  31:Core/Inc/helper_functions.h **** /**
  32:Core/Inc/helper_functions.h ****  * @brief Keep value between 0 and max
  33:Core/Inc/helper_functions.h ****  * 
  34:Core/Inc/helper_functions.h ****  * @param value 
  35:Core/Inc/helper_functions.h ****  * @param max 
  36:Core/Inc/helper_functions.h ****  * @return float 
  37:Core/Inc/helper_functions.h ****  */
  38:Core/Inc/helper_functions.h **** inline float wrap(float value, float max)   
  39:Core/Inc/helper_functions.h **** {
  40:Core/Inc/helper_functions.h ****     if (value < 0.f)
  41:Core/Inc/helper_functions.h ****         value += max;
  42:Core/Inc/helper_functions.h ****     if (value >= max)
ARM GAS  /var/folders/0z/tsy30v1j4xl4_7kw94k978ww0000gn/T//ccfc537T.s 			page 6


  43:Core/Inc/helper_functions.h ****         value -= max;
  44:Core/Inc/helper_functions.h **** 
  45:Core/Inc/helper_functions.h ****     return value;
  46:Core/Inc/helper_functions.h **** }
  47:Core/Inc/helper_functions.h **** 
  48:Core/Inc/helper_functions.h **** inline float Crossfade(float a, float b, float fade)
  49:Core/Inc/helper_functions.h **** {
  50:Core/Inc/helper_functions.h ****     return a + (b - a) * fade;
  51:Core/Inc/helper_functions.h **** }
  52:Core/Inc/helper_functions.h **** 
  53:Core/Inc/helper_functions.h **** 
  54:Core/Inc/helper_functions.h **** /**
  55:Core/Inc/helper_functions.h ****  * @brief Pade-approximation of tanh for soft clipping
  56:Core/Inc/helper_functions.h ****  * @ from https://www.musicdsp.org/en/latest/Other/238-rational-tanh-approximation.html 
  57:Core/Inc/helper_functions.h ****  * @param x 
  58:Core/Inc/helper_functions.h ****  * @return float 
  59:Core/Inc/helper_functions.h ****  */
  60:Core/Inc/helper_functions.h **** inline float SoftClip(float x)
  61:Core/Inc/helper_functions.h **** {
  62:Core/Inc/helper_functions.h ****     if (x < -3.0f)
  63:Core/Inc/helper_functions.h ****     {
  64:Core/Inc/helper_functions.h ****         return -1.0f;
  65:Core/Inc/helper_functions.h ****     }
  66:Core/Inc/helper_functions.h ****     else if (x > 3.0f)
  85              		.loc 2 66 10 is_stmt 1 view .LVU8
  86              		.loc 2 66 13 is_stmt 0 view .LVU9
  87 002e F0EE086A 		vmov.f32	s13, #3.0e+0
  88 0032 B4EEE67A 		vcmpe.f32	s14, s13
  89 0036 F1EE10FA 		vmrs	APSR_nzcv, FPSCR
  90 003a 00F3C280 		bgt	.L8
  91              	.LVL2:
  92              	.LBB42:
  93              	.LBI42:
  60:Core/Inc/helper_functions.h **** {
  94              		.loc 2 60 14 is_stmt 1 view .LVU10
  95              	.LBB43:
  67:Core/Inc/helper_functions.h ****     {
  68:Core/Inc/helper_functions.h ****         return 1.0f;
  69:Core/Inc/helper_functions.h ****     }
  70:Core/Inc/helper_functions.h ****     else
  71:Core/Inc/helper_functions.h ****     {
  72:Core/Inc/helper_functions.h ****         return x * (27.0f + x * x) / (27.0f + 9.0f * x * x);
  96              		.loc 2 72 9 view .LVU11
  97              		.loc 2 72 27 is_stmt 0 view .LVU12
  98 003e F3EE0B6A 		vmov.f32	s13, #2.7e+1
  99              		.loc 2 72 52 view .LVU13
 100 0042 F2EE025A 		vmov.f32	s11, #9.0e+0
 101 0046 67EE255A 		vmul.f32	s11, s14, s11
 102              		.loc 2 72 27 view .LVU14
 103 004a B0EE665A 		vmov.f32	s10, s13
 104 004e A7EE075A 		vfma.f32	s10, s14, s14
 105              		.loc 2 72 45 view .LVU15
 106 0052 E7EE256A 		vfma.f32	s13, s14, s11
 107              		.loc 2 72 18 view .LVU16
 108 0056 27EE057A 		vmul.f32	s14, s14, s10
 109              	.LVL3:
 110              		.loc 2 72 45 view .LVU17
ARM GAS  /var/folders/0z/tsy30v1j4xl4_7kw94k978ww0000gn/T//ccfc537T.s 			page 7


 111 005a B0EE666A 		vmov.f32	s12, s13
 112              	.LVL4:
 113              		.loc 2 72 36 view .LVU18
 114 005e C7EE066A 		vdiv.f32	s13, s14, s12
 115              	.LBE43:
 116              	.LBE42:
 117              	.LBE41:
 118              	.LBE40:
 119              		.loc 1 156 35 view .LVU19
 120 0062 26EEA97A 		vmul.f32	s14, s13, s19
 121              		.loc 1 156 13 view .LVU20
 122 0066 BDEEC77A 		vcvt.s32.f32	s14, s14
 123 006a 17EE103A 		vmov	r3, s14	@ int
 124 006e 1AB2     		sxth	r2, r3
 125              	.L3:
 126              	.LVL5:
 153:Core/Src/audio.c **** 
 127              		.loc 1 153 3 is_stmt 1 view .LVU21
 128              	.LBB47:
 129              	.LBI47:
  60:Core/Inc/helper_functions.h **** {
 130              		.loc 2 60 14 view .LVU22
 131              	.LBB48:
  62:Core/Inc/helper_functions.h ****     {
 132              		.loc 2 62 5 view .LVU23
  62:Core/Inc/helper_functions.h ****     {
 133              		.loc 2 62 8 is_stmt 0 view .LVU24
 134 0070 B8EE087A 		vmov.f32	s14, #-3.0e+0
 135 0074 F4EEC77A 		vcmpe.f32	s15, s14
 136 0078 F1EE10FA 		vmrs	APSR_nzcv, FPSCR
 137 007c 00F19580 		bmi	.L9
 138              	.L16:
  66:Core/Inc/helper_functions.h ****     {
 139              		.loc 2 66 10 is_stmt 1 view .LVU25
  66:Core/Inc/helper_functions.h ****     {
 140              		.loc 2 66 13 is_stmt 0 view .LVU26
 141 0080 B0EE087A 		vmov.f32	s14, #3.0e+0
 142 0084 F4EEC77A 		vcmpe.f32	s15, s14
 143 0088 F1EE10FA 		vmrs	APSR_nzcv, FPSCR
 144 008c 00F39C80 		bgt	.L10
 145              	.LVL6:
 146              	.LBB49:
 147              	.LBI49:
  60:Core/Inc/helper_functions.h **** {
 148              		.loc 2 60 14 is_stmt 1 view .LVU27
 149              	.LBB50:
 150              		.loc 2 72 9 view .LVU28
 151              		.loc 2 72 27 is_stmt 0 view .LVU29
 152 0090 B3EE0B7A 		vmov.f32	s14, #2.7e+1
 153              		.loc 2 72 52 view .LVU30
 154 0094 B2EE026A 		vmov.f32	s12, #9.0e+0
 155 0098 27EE866A 		vmul.f32	s12, s15, s12
 156              		.loc 2 72 27 view .LVU31
 157 009c F0EE475A 		vmov.f32	s11, s14
 158 00a0 E7EEA75A 		vfma.f32	s11, s15, s15
 159              		.loc 2 72 45 view .LVU32
 160 00a4 A7EE867A 		vfma.f32	s14, s15, s12
ARM GAS  /var/folders/0z/tsy30v1j4xl4_7kw94k978ww0000gn/T//ccfc537T.s 			page 8


 161              		.loc 2 72 18 view .LVU33
 162 00a8 67EEA57A 		vmul.f32	s15, s15, s11
 163              	.LVL7:
 164              		.loc 2 72 45 view .LVU34
 165 00ac F0EE476A 		vmov.f32	s13, s14
 166              	.LVL8:
 167              		.loc 2 72 36 view .LVU35
 168 00b0 87EEA67A 		vdiv.f32	s14, s15, s13
 169              	.LBE50:
 170              	.LBE49:
 171              	.LBE48:
 172              	.LBE47:
 157:Core/Src/audio.c **** 		valueR = ((int16_t) ((32767.0f) * sampleR));
 173              		.loc 1 157 35 view .LVU36
 174 00b4 67EE297A 		vmul.f32	s15, s14, s19
 175              		.loc 1 157 13 view .LVU37
 176 00b8 FDEEE77A 		vcvt.s32.f32	s15, s15
 177 00bc 17EE903A 		vmov	r3, s15	@ int
 178 00c0 1BB2     		sxth	r3, r3
 179              	.L4:
 180              	.LVL9:
 156:Core/Src/audio.c **** 		valueR = ((int16_t) ((32767.0f) * sampleR));
 181              		.loc 1 156 3 is_stmt 1 view .LVU38
 182              		.loc 1 157 3 view .LVU39
 158:Core/Src/audio.c **** 
 159:Core/Src/audio.c **** 		/*************** Output to audio buffer *****************/
 160:Core/Src/audio.c **** 		output[i<<1] = valueL ;			// LEFT channel
 183              		.loc 1 160 3 view .LVU40
 184              		.loc 1 160 16 is_stmt 0 view .LVU41
 185 00c2 29F82420 		strh	r2, [r9, r4, lsl #2]	@ movhi
 161:Core/Src/audio.c **** 	    output[(i<<1) + 1] = valueR;	// RIGHT channel
 186              		.loc 1 161 6 is_stmt 1 view .LVU42
 187              		.loc 1 161 25 is_stmt 0 view .LVU43
 188 00c6 2AF82430 		strh	r3, [r10, r4, lsl #2]	@ movhi
 105:Core/Src/audio.c **** 	{
 189              		.loc 1 105 28 is_stmt 1 view .LVU44
 190 00ca 0134     		adds	r4, r4, #1
 191              	.LVL10:
 105:Core/Src/audio.c **** 	{
 192              		.loc 1 105 16 view .LVU45
 193 00cc 102C     		cmp	r4, #16
 194 00ce 74D0     		beq	.L14
 195              	.LVL11:
 196              	.L5:
 108:Core/Src/audio.c **** 		
 197              		.loc 1 108 3 view .LVU46
 108:Core/Src/audio.c **** 		
 198              		.loc 1 108 12 is_stmt 0 view .LVU47
 199 00d0 9BF80050 		ldrb	r5, [fp]	@ zero_extendqisi2
 200 00d4 08EB8503 		add	r3, r8, r5, lsl #2
 201 00d8 D3ED007A 		vldr.32	s15, [r3]
 111:Core/Src/audio.c **** 		OpSetFreq(&osc2, f0 + 0.1);
 202              		.loc 1 111 3 is_stmt 1 view .LVU48
 203              	.LVL12:
 204              	.LBB54:
 205              	.LBI36:
  83:Core/Src/audio.c **** {
ARM GAS  /var/folders/0z/tsy30v1j4xl4_7kw94k978ww0000gn/T//ccfc537T.s 			page 9


 206              		.loc 1 83 6 view .LVU49
 207              	.LBB38:
  85:Core/Src/audio.c **** }
 208              		.loc 1 85 2 view .LVU50
  85:Core/Src/audio.c **** }
 209              		.loc 1 85 16 is_stmt 0 view .LVU51
 210 00dc 27EEA87A 		vmul.f32	s14, s15, s17
 211              	.LBE38:
 212              	.LBE54:
 112:Core/Src/audio.c **** 
 213              		.loc 1 112 23 view .LVU52
 214 00e0 17EE900A 		vmov	r0, s15
 215              	.LBB55:
 216              	.LBB39:
  85:Core/Src/audio.c **** }
 217              		.loc 1 85 11 view .LVU53
 218 00e4 87ED017A 		vstr.32	s14, [r7, #4]
 219              	.LVL13:
  85:Core/Src/audio.c **** }
 220              		.loc 1 85 11 view .LVU54
 221              	.LBE39:
 222              	.LBE55:
 112:Core/Src/audio.c **** 
 223              		.loc 1 112 3 is_stmt 1 view .LVU55
 224              	.LBB56:
 225              	.LBI56:
  83:Core/Src/audio.c **** {
 226              		.loc 1 83 6 view .LVU56
 227              	.LBB57:
  85:Core/Src/audio.c **** }
 228              		.loc 1 85 2 view .LVU57
 229              	.LBE57:
 230              	.LBE56:
 112:Core/Src/audio.c **** 
 231              		.loc 1 112 23 is_stmt 0 view .LVU58
 232 00e8 FFF7FEFF 		bl	__aeabi_f2d
 233              	.LVL14:
 112:Core/Src/audio.c **** 
 234              		.loc 1 112 23 view .LVU59
 235 00ec 38A3     		adr	r3, .L17
 236 00ee D3E90023 		ldrd	r2, [r3]
 237 00f2 FFF7FEFF 		bl	__aeabi_dadd
 238              	.LVL15:
 112:Core/Src/audio.c **** 
 239              		.loc 1 112 3 view .LVU60
 240 00f6 FFF7FEFF 		bl	__aeabi_d2f
 241              	.LVL16:
 242              	.LBB61:
 243              	.LBB58:
  85:Core/Src/audio.c **** }
 244              		.loc 1 85 16 view .LVU61
 245 00fa 07EE900A 		vmov	s15, r0
 246              	.LBE58:
 247              	.LBE61:
 114:Core/Src/audio.c **** 		OpSetFreq(&osc3, f_sub);
 248              		.loc 1 114 16 view .LVU62
 249 00fe 0C2D     		cmp	r5, #12
ARM GAS  /var/folders/0z/tsy30v1j4xl4_7kw94k978ww0000gn/T//ccfc537T.s 			page 10


 250              	.LBB62:
 251              	.LBB59:
  85:Core/Src/audio.c **** }
 252              		.loc 1 85 16 view .LVU63
 253 0100 67EEA87A 		vmul.f32	s15, s15, s17
  85:Core/Src/audio.c **** }
 254              		.loc 1 85 11 view .LVU64
 255 0104 3A4B     		ldr	r3, .L17+32
 256              	.LBE59:
 257              	.LBE62:
 114:Core/Src/audio.c **** 		OpSetFreq(&osc3, f_sub);
 258              		.loc 1 114 15 view .LVU65
 259 0106 88BF     		it	hi
 260 0108 08EB8505 		addhi	r5, r8, r5, lsl #2
 261              	.LVL17:
 262              	.LBB63:
 263              	.LBB60:
  85:Core/Src/audio.c **** }
 264              		.loc 1 85 11 view .LVU66
 265 010c C3ED017A 		vstr.32	s15, [r3, #4]
 266              	.LVL18:
  85:Core/Src/audio.c **** }
 267              		.loc 1 85 11 view .LVU67
 268              	.LBE60:
 269              	.LBE63:
 114:Core/Src/audio.c **** 		OpSetFreq(&osc3, f_sub);
 270              		.loc 1 114 3 is_stmt 1 view .LVU68
 115:Core/Src/audio.c **** 		sample = osc_polyblepSaw(&osc1) + osc_polyblepSaw(&osc2) + osc_polyblepRect(&osc3);
 271              		.loc 1 115 3 view .LVU69
 272              	.LBB64:
 273              	.LBI64:
  83:Core/Src/audio.c **** {
 274              		.loc 1 83 6 view .LVU70
 275              	.LBB65:
  85:Core/Src/audio.c **** }
 276              		.loc 1 85 2 view .LVU71
  85:Core/Src/audio.c **** }
 277              		.loc 1 85 16 is_stmt 0 view .LVU72
 278 0110 88BF     		it	hi
 279 0112 55ED0C7A 		vldrhi.32	s15, [r5, #-48]
  85:Core/Src/audio.c **** }
 280              		.loc 1 85 11 view .LVU73
 281 0116 374B     		ldr	r3, .L17+36
  85:Core/Src/audio.c **** }
 282              		.loc 1 85 16 view .LVU74
 283 0118 8CBF     		ite	hi
 284 011a 67EEA87A 		vmulhi.f32	s15, s15, s17
 285              	.LBE65:
 286              	.LBE64:
 287 011e F0EE4A7A 		vmovls.f32	s15, s20
 116:Core/Src/audio.c **** 	
 288              		.loc 1 116 12 view .LVU75
 289 0122 3846     		mov	r0, r7
 290              	.LBB67:
 291              	.LBB66:
  85:Core/Src/audio.c **** }
 292              		.loc 1 85 11 view .LVU76
ARM GAS  /var/folders/0z/tsy30v1j4xl4_7kw94k978ww0000gn/T//ccfc537T.s 			page 11


 293 0124 C3ED017A 		vstr.32	s15, [r3, #4]
 294              	.LVL19:
  85:Core/Src/audio.c **** }
 295              		.loc 1 85 11 view .LVU77
 296              	.LBE66:
 297              	.LBE67:
 116:Core/Src/audio.c **** 	
 298              		.loc 1 116 3 is_stmt 1 view .LVU78
 116:Core/Src/audio.c **** 	
 299              		.loc 1 116 12 is_stmt 0 view .LVU79
 300 0128 FFF7FEFF 		bl	osc_polyblepSaw
 301              	.LVL20:
 116:Core/Src/audio.c **** 	
 302              		.loc 1 116 37 view .LVU80
 303 012c 3048     		ldr	r0, .L17+32
 116:Core/Src/audio.c **** 	
 304              		.loc 1 116 12 view .LVU81
 305 012e B0EE408A 		vmov.f32	s16, s0
 116:Core/Src/audio.c **** 	
 306              		.loc 1 116 37 view .LVU82
 307 0132 FFF7FEFF 		bl	osc_polyblepSaw
 308              	.LVL21:
 116:Core/Src/audio.c **** 	
 309              		.loc 1 116 62 view .LVU83
 310 0136 2F48     		ldr	r0, .L17+36
 116:Core/Src/audio.c **** 	
 311              		.loc 1 116 35 view .LVU84
 312 0138 38EE008A 		vadd.f32	s16, s16, s0
 116:Core/Src/audio.c **** 	
 313              		.loc 1 116 62 view .LVU85
 314 013c FFF7FEFF 		bl	osc_polyblepRect
 315              	.LVL22:
 131:Core/Src/audio.c **** 		Moog_filter.cutoff = 600 * filt_env;
 316              		.loc 1 131 14 view .LVU86
 317 0140 2D48     		ldr	r0, .L17+40
 116:Core/Src/audio.c **** 	
 318              		.loc 1 116 10 view .LVU87
 319 0142 38EE008A 		vadd.f32	s16, s16, s0
 320              	.LVL23:
 131:Core/Src/audio.c **** 		Moog_filter.cutoff = 600 * filt_env;
 321              		.loc 1 131 3 is_stmt 1 view .LVU88
 131:Core/Src/audio.c **** 		Moog_filter.cutoff = 600 * filt_env;
 322              		.loc 1 131 14 is_stmt 0 view .LVU89
 323 0146 FFF7FEFF 		bl	ADSR_compute
 324              	.LVL24:
 132:Core/Src/audio.c **** 		// Moog_filterR.cutoff = 1600 * filt_env;
 325              		.loc 1 132 3 is_stmt 1 view .LVU90
 131:Core/Src/audio.c **** 		Moog_filter.cutoff = 600 * filt_env;
 326              		.loc 1 131 14 is_stmt 0 view .LVU91
 327 014a F0EE407A 		vmov.f32	s15, s0
 132:Core/Src/audio.c **** 		// Moog_filterR.cutoff = 1600 * filt_env;
 328              		.loc 1 132 28 view .LVU92
 329 014e 67EE897A 		vmul.f32	s15, s15, s18
 134:Core/Src/audio.c **** 	
 330              		.loc 1 134 12 view .LVU93
 331 0152 2A48     		ldr	r0, .L17+44
 332 0154 B0EE480A 		vmov.f32	s0, s16
ARM GAS  /var/folders/0z/tsy30v1j4xl4_7kw94k978ww0000gn/T//ccfc537T.s 			page 12


 132:Core/Src/audio.c **** 		// Moog_filterR.cutoff = 1600 * filt_env;
 333              		.loc 1 132 22 view .LVU94
 334 0158 C0ED007A 		vstr.32	s15, [r0]
 134:Core/Src/audio.c **** 	
 335              		.loc 1 134 3 is_stmt 1 view .LVU95
 134:Core/Src/audio.c **** 	
 336              		.loc 1 134 12 is_stmt 0 view .LVU96
 337 015c FFF7FEFF 		bl	MoogLP_compute
 338              	.LVL25:
 138:Core/Src/audio.c **** 		sample *= amp_env;
 339              		.loc 1 138 13 view .LVU97
 340 0160 2748     		ldr	r0, .L17+48
 134:Core/Src/audio.c **** 	
 341              		.loc 1 134 12 view .LVU98
 342 0162 B0EE408A 		vmov.f32	s16, s0
 343              	.LVL26:
 138:Core/Src/audio.c **** 		sample *= amp_env;
 344              		.loc 1 138 3 is_stmt 1 view .LVU99
 138:Core/Src/audio.c **** 		sample *= amp_env;
 345              		.loc 1 138 13 is_stmt 0 view .LVU100
 346 0166 FFF7FEFF 		bl	ADSR_compute
 347              	.LVL27:
 139:Core/Src/audio.c **** 
 348              		.loc 1 139 3 is_stmt 1 view .LVU101
 143:Core/Src/audio.c **** 
 349              		.loc 1 143 3 view .LVU102
 143:Core/Src/audio.c **** 
 350              		.loc 1 143 12 is_stmt 0 view .LVU103
 351 016a F7EE000A 		vmov.f32	s1, #1.0e+0
 352 016e 0420     		movs	r0, #4
 353 0170 28EE000A 		vmul.f32	s0, s16, s0
 354              	.LVL28:
 143:Core/Src/audio.c **** 
 355              		.loc 1 143 12 view .LVU104
 356 0174 FFF7FEFF 		bl	decimator
 357              	.LVL29:
 147:Core/Src/audio.c **** 		sampleL = delayLOut;
 358              		.loc 1 147 3 is_stmt 1 view .LVU105
 359 0178 1849     		ldr	r1, .L17+12
 360 017a 081D     		adds	r0, r1, #4
 361 017c FFF7FEFF 		bl	pingpongDelay_compute
 362              	.LVL30:
 148:Core/Src/audio.c **** 		sampleR = delayROut;
 363              		.loc 1 148 3 view .LVU106
 148:Core/Src/audio.c **** 		sampleR = delayROut;
 364              		.loc 1 148 11 is_stmt 0 view .LVU107
 365 0180 96ED017A 		vldr.32	s14, [r6, #4]
 366              	.LVL31:
 149:Core/Src/audio.c **** 
 367              		.loc 1 149 3 is_stmt 1 view .LVU108
 149:Core/Src/audio.c **** 
 368              		.loc 1 149 11 is_stmt 0 view .LVU109
 369 0184 D6ED007A 		vldr.32	s15, [r6]
 370              	.LVL32:
 152:Core/Src/audio.c **** 		sampleR = SoftClip(sampleR);
 371              		.loc 1 152 3 is_stmt 1 view .LVU110
 372              	.LBB68:
ARM GAS  /var/folders/0z/tsy30v1j4xl4_7kw94k978ww0000gn/T//ccfc537T.s 			page 13


 373              	.LBI40:
  60:Core/Inc/helper_functions.h **** {
 374              		.loc 2 60 14 view .LVU111
 375              	.LBB44:
  62:Core/Inc/helper_functions.h ****     {
 376              		.loc 2 62 5 view .LVU112
  62:Core/Inc/helper_functions.h ****     {
 377              		.loc 2 62 8 is_stmt 0 view .LVU113
 378 0188 F8EE086A 		vmov.f32	s13, #-3.0e+0
 379 018c B4EEE67A 		vcmpe.f32	s14, s13
 380 0190 F1EE10FA 		vmrs	APSR_nzcv, FPSCR
 381 0194 7FF54BAF 		bpl	.L15
 382              	.LBE44:
 383              	.LBE68:
 384              	.LBB69:
 385              	.LBB51:
 386 0198 B8EE087A 		vmov.f32	s14, #-3.0e+0
 387              	.LVL33:
  62:Core/Inc/helper_functions.h ****     {
 388              		.loc 2 62 8 view .LVU114
 389 019c F4EEC77A 		vcmpe.f32	s15, s14
 390 01a0 F1EE10FA 		vmrs	APSR_nzcv, FPSCR
 391              	.LBE51:
 392              	.LBE69:
 393              	.LBB70:
 394              	.LBB45:
 395 01a4 174A     		ldr	r2, .L17+52
 396              	.LVL34:
  62:Core/Inc/helper_functions.h ****     {
 397              		.loc 2 62 8 view .LVU115
 398              	.LBE45:
 399              	.LBE70:
 153:Core/Src/audio.c **** 
 400              		.loc 1 153 3 is_stmt 1 view .LVU116
 401              	.LBB71:
  60:Core/Inc/helper_functions.h **** {
 402              		.loc 2 60 14 view .LVU117
 403              	.LBB52:
  62:Core/Inc/helper_functions.h ****     {
 404              		.loc 2 62 5 view .LVU118
  62:Core/Inc/helper_functions.h ****     {
 405              		.loc 2 62 8 is_stmt 0 view .LVU119
 406 01a6 7FF56BAF 		bpl	.L16
 407              	.L9:
 408 01aa 164B     		ldr	r3, .L17+52
 409              	.LVL35:
  62:Core/Inc/helper_functions.h ****     {
 410              		.loc 2 62 8 view .LVU120
 411              	.LBE52:
 412              	.LBE71:
 156:Core/Src/audio.c **** 		valueR = ((int16_t) ((32767.0f) * sampleR));
 413              		.loc 1 156 3 is_stmt 1 view .LVU121
 157:Core/Src/audio.c **** 
 414              		.loc 1 157 3 view .LVU122
 160:Core/Src/audio.c **** 	    output[(i<<1) + 1] = valueR;	// RIGHT channel
 415              		.loc 1 160 3 view .LVU123
 160:Core/Src/audio.c **** 	    output[(i<<1) + 1] = valueR;	// RIGHT channel
ARM GAS  /var/folders/0z/tsy30v1j4xl4_7kw94k978ww0000gn/T//ccfc537T.s 			page 14


 416              		.loc 1 160 16 is_stmt 0 view .LVU124
 417 01ac 29F82420 		strh	r2, [r9, r4, lsl #2]	@ movhi
 418              		.loc 1 161 6 is_stmt 1 view .LVU125
 419              		.loc 1 161 25 is_stmt 0 view .LVU126
 420 01b0 2AF82430 		strh	r3, [r10, r4, lsl #2]	@ movhi
 105:Core/Src/audio.c **** 	{
 421              		.loc 1 105 28 is_stmt 1 view .LVU127
 422 01b4 0134     		adds	r4, r4, #1
 423              	.LVL36:
 105:Core/Src/audio.c **** 	{
 424              		.loc 1 105 16 view .LVU128
 425 01b6 102C     		cmp	r4, #16
 426 01b8 8AD1     		bne	.L5
 427              	.L14:
 162:Core/Src/audio.c **** 		// *output++ = valueL; // left channel sample
 163:Core/Src/audio.c **** 		// *output++ = valueR; // right channel sample
 164:Core/Src/audio.c **** 		
 165:Core/Src/audio.c **** 	}
 166:Core/Src/audio.c **** }
 428              		.loc 1 166 1 is_stmt 0 view .LVU129
 429 01ba BDEC068B 		vldm	sp!, {d8-d10}
 430              		.cfi_remember_state
 431              		.cfi_restore 84
 432              		.cfi_restore 85
 433              		.cfi_restore 82
 434              		.cfi_restore 83
 435              		.cfi_restore 80
 436              		.cfi_restore 81
 437              		.cfi_def_cfa_offset 40
 438 01be BDE8F88F 		pop	{r3, r4, r5, r6, r7, r8, r9, r10, fp, pc}
 439              	.LVL37:
 440              	.L8:
 441              		.cfi_restore_state
 442              	.LBB72:
 443              	.LBB46:
 444              		.loc 1 166 1 view .LVU130
 445 01c2 47F6FF72 		movw	r2, #32767
 446 01c6 53E7     		b	.L3
 447              	.LVL38:
 448              	.L10:
 449              		.loc 1 166 1 view .LVU131
 450              	.LBE46:
 451              	.LBE72:
 452              	.LBB73:
 453              	.LBB53:
 454 01c8 47F6FF73 		movw	r3, #32767
 455 01cc 79E7     		b	.L4
 456              	.L18:
 457 01ce 00BF     		.align	3
 458              	.L17:
 459 01d0 9A999999 		.word	-1717986918
 460 01d4 9999B93F 		.word	1069128089
 461 01d8 00000000 		.word	osc1
 462 01dc 00000000 		.word	.LANCHOR1
 463 01e0 8D7E7F3F 		.word	1065320077
 464 01e4 ED8D0241 		.word	1090686445
 465 01e8 00001644 		.word	1142292480
ARM GAS  /var/folders/0z/tsy30v1j4xl4_7kw94k978ww0000gn/T//ccfc537T.s 			page 15


 466 01ec 00FEFF46 		.word	1191181824
 467 01f0 00000000 		.word	osc2
 468 01f4 00000000 		.word	osc3
 469 01f8 00000000 		.word	adsr_filt
 470 01fc 00000000 		.word	Moog_filter
 471 0200 00000000 		.word	adsr_amp
 472 0204 0180FFFF 		.word	-32767
 473 0208 00000000 		.word	currentPitch
 474 020c 00000000 		.word	.LANCHOR0
 475              	.LBE53:
 476              	.LBE73:
 477              		.cfi_endproc
 478              	.LFE143:
 480              		.section	.text.AUDIO_Init,"ax",%progbits
 481              		.align	1
 482              		.p2align 2,,3
 483              		.global	AUDIO_Init
 484              		.syntax unified
 485              		.thumb
 486              		.thumb_func
 488              	AUDIO_Init:
 489              	.LFB134:
  59:Core/Src/audio.c ****     BSP_AUDIO_OUT_Init(OUTPUT_DEVICE_HEADPHONE, INITIAL_VOLUME, FS);
 490              		.loc 1 59 1 is_stmt 1 view -0
 491              		.cfi_startproc
 492              		@ args = 0, pretend = 0, frame = 8
 493              		@ frame_needed = 0, uses_anonymous_args = 0
  60:Core/Src/audio.c **** 
 494              		.loc 1 60 5 view .LVU133
  59:Core/Src/audio.c ****     BSP_AUDIO_OUT_Init(OUTPUT_DEVICE_HEADPHONE, INITIAL_VOLUME, FS);
 495              		.loc 1 59 1 is_stmt 0 view .LVU134
 496 0000 00B5     		push	{lr}
 497              		.cfi_def_cfa_offset 4
 498              		.cfi_offset 14, -4
 499 0002 2DED028B 		vpush.64	{d8}
 500              		.cfi_def_cfa_offset 12
 501              		.cfi_offset 80, -12
 502              		.cfi_offset 81, -8
  60:Core/Src/audio.c **** 
 503              		.loc 1 60 5 view .LVU135
 504 0006 4BF68032 		movw	r2, #48000
  59:Core/Src/audio.c ****     BSP_AUDIO_OUT_Init(OUTPUT_DEVICE_HEADPHONE, INITIAL_VOLUME, FS);
 505              		.loc 1 59 1 view .LVU136
 506 000a 83B0     		sub	sp, sp, #12
 507              		.cfi_def_cfa_offset 24
  60:Core/Src/audio.c **** 
 508              		.loc 1 60 5 view .LVU137
 509 000c 4621     		movs	r1, #70
 510 000e 0220     		movs	r0, #2
 511 0010 FFF7FEFF 		bl	BSP_AUDIO_OUT_Init
 512              	.LVL39:
  67:Core/Src/audio.c **** 
 513              		.loc 1 67 2 is_stmt 1 view .LVU138
  71:Core/Src/audio.c **** 	osc_init(&osc2, 0.5, 440, 0, 0, 0.5);
 514              		.loc 1 71 2 is_stmt 0 view .LVU139
 515 0014 DFED201A 		vldr.32	s3, .L21
  67:Core/Src/audio.c **** 
ARM GAS  /var/folders/0z/tsy30v1j4xl4_7kw94k978ww0000gn/T//ccfc537T.s 			page 16


 516              		.loc 1 67 2 view .LVU140
 517 0018 2048     		ldr	r0, .L21+4
  71:Core/Src/audio.c **** 	osc_init(&osc2, 0.5, 440, 0, 0, 0.5);
 518              		.loc 1 71 2 view .LVU141
 519 001a CDED011A 		vstr.32	s3, [sp, #4]	@ int
  67:Core/Src/audio.c **** 
 520              		.loc 1 67 2 view .LVU142
 521 001e 8021     		movs	r1, #128
 522 0020 FFF7FEFF 		bl	BSP_AUDIO_OUT_Play
 523              	.LVL40:
  71:Core/Src/audio.c **** 	osc_init(&osc2, 0.5, 440, 0, 0, 0.5);
 524              		.loc 1 71 2 is_stmt 1 view .LVU143
 525 0024 DDED011A 		vldr.32	s3, [sp, #4]	@ int
 526 0028 DFED1D0A 		vldr.32	s1, .L21+8
 527 002c 1D48     		ldr	r0, .L21+12
  72:Core/Src/audio.c **** 	osc_init(&osc3, 0.5, 440, 0, 0, 0.5);
 528              		.loc 1 72 2 is_stmt 0 view .LVU144
 529 002e 9FED1E8A 		vldr.32	s16, .L21+16
  71:Core/Src/audio.c **** 	osc_init(&osc2, 0.5, 440, 0, 0, 0.5);
 530              		.loc 1 71 2 view .LVU145
 531 0032 B6EE002A 		vmov.f32	s4, #5.0e-1
 532 0036 B0EE611A 		vmov.f32	s2, s3
 533 003a B0EE420A 		vmov.f32	s0, s4
 534 003e FFF7FEFF 		bl	osc_init
 535              	.LVL41:
  72:Core/Src/audio.c **** 	osc_init(&osc3, 0.5, 440, 0, 0, 0.5);
 536              		.loc 1 72 2 is_stmt 1 view .LVU146
 537 0042 DDED011A 		vldr.32	s3, [sp, #4]	@ int
 538 0046 1948     		ldr	r0, .L21+20
 539 0048 B6EE002A 		vmov.f32	s4, #5.0e-1
 540 004c B0EE611A 		vmov.f32	s2, s3
 541 0050 F0EE480A 		vmov.f32	s1, s16
 542 0054 B0EE420A 		vmov.f32	s0, s4
 543 0058 FFF7FEFF 		bl	osc_init
 544              	.LVL42:
  73:Core/Src/audio.c **** 
 545              		.loc 1 73 2 view .LVU147
 546 005c DDED011A 		vldr.32	s3, [sp, #4]	@ int
 547 0060 1348     		ldr	r0, .L21+24
 548 0062 B6EE002A 		vmov.f32	s4, #5.0e-1
 549 0066 B0EE611A 		vmov.f32	s2, s3
 550 006a F0EE480A 		vmov.f32	s1, s16
 551 006e B0EE420A 		vmov.f32	s0, s4
 552 0072 FFF7FEFF 		bl	osc_init
 553              	.LVL43:
  76:Core/Src/audio.c **** 	ADSR_init(&adsr_filt);
 554              		.loc 1 76 2 view .LVU148
 555 0076 0F48     		ldr	r0, .L21+28
 556 0078 FFF7FEFF 		bl	ADSR_init
 557              	.LVL44:
  77:Core/Src/audio.c **** 	MoogLP_init(&Moog_filter);
 558              		.loc 1 77 2 view .LVU149
 559 007c 0E48     		ldr	r0, .L21+32
 560 007e FFF7FEFF 		bl	ADSR_init
 561              	.LVL45:
  78:Core/Src/audio.c **** 	Delay_init();
 562              		.loc 1 78 2 view .LVU150
ARM GAS  /var/folders/0z/tsy30v1j4xl4_7kw94k978ww0000gn/T//ccfc537T.s 			page 17


 563 0082 0E48     		ldr	r0, .L21+36
 564 0084 FFF7FEFF 		bl	MoogLP_init
 565              	.LVL46:
  79:Core/Src/audio.c **** 	
 566              		.loc 1 79 2 view .LVU151
  81:Core/Src/audio.c **** 
 567              		.loc 1 81 1 is_stmt 0 view .LVU152
 568 0088 03B0     		add	sp, sp, #12
 569              		.cfi_def_cfa_offset 12
 570              		@ sp needed
 571 008a BDEC028B 		vldm	sp!, {d8}
 572              		.cfi_restore 80
 573              		.cfi_restore 81
 574              		.cfi_def_cfa_offset 4
 575 008e 5DF804EB 		ldr	lr, [sp], #4
 576              		.cfi_restore 14
 577              		.cfi_def_cfa_offset 0
  79:Core/Src/audio.c **** 	
 578              		.loc 1 79 2 view .LVU153
 579 0092 FFF7FEBF 		b	Delay_init
 580              	.LVL47:
 581              	.L22:
 582 0096 00BF     		.align	2
 583              	.L21:
 584 0098 00000000 		.word	0
 585 009c 00000000 		.word	.LANCHOR2
 586 00a0 00007A44 		.word	1148846080
 587 00a4 00000000 		.word	osc1
 588 00a8 0000DC43 		.word	1138491392
 589 00ac 00000000 		.word	osc2
 590 00b0 00000000 		.word	osc3
 591 00b4 00000000 		.word	adsr_amp
 592 00b8 00000000 		.word	adsr_filt
 593 00bc 00000000 		.word	Moog_filter
 594              		.cfi_endproc
 595              	.LFE134:
 597              		.section	.text.OpSetFreq,"ax",%progbits
 598              		.align	1
 599              		.p2align 2,,3
 600              		.global	OpSetFreq
 601              		.syntax unified
 602              		.thumb
 603              		.thumb_func
 605              	OpSetFreq:
 606              	.LVL48:
 607              	.LFB135:
  84:Core/Src/audio.c **** 	op->freq = A0 * f;
 608              		.loc 1 84 1 is_stmt 1 view -0
 609              		.cfi_startproc
 610              		@ args = 0, pretend = 0, frame = 0
 611              		@ frame_needed = 0, uses_anonymous_args = 0
 612              		@ link register save eliminated.
  85:Core/Src/audio.c **** }
 613              		.loc 1 85 2 view .LVU155
  85:Core/Src/audio.c **** }
 614              		.loc 1 85 16 is_stmt 0 view .LVU156
 615 0000 DFED037A 		vldr.32	s15, .L24
ARM GAS  /var/folders/0z/tsy30v1j4xl4_7kw94k978ww0000gn/T//ccfc537T.s 			page 18


 616 0004 20EE270A 		vmul.f32	s0, s0, s15
 617              	.LVL49:
  85:Core/Src/audio.c **** }
 618              		.loc 1 85 11 view .LVU157
 619 0008 80ED010A 		vstr.32	s0, [r0, #4]
  86:Core/Src/audio.c **** 
 620              		.loc 1 86 1 view .LVU158
 621 000c 7047     		bx	lr
 622              	.L25:
 623 000e 00BF     		.align	2
 624              	.L24:
 625 0010 8D7E7F3F 		.word	1065320077
 626              		.cfi_endproc
 627              	.LFE135:
 629              		.section	.text.audioBlock,"ax",%progbits
 630              		.align	1
 631              		.p2align 2,,3
 632              		.global	audioBlock
 633              		.syntax unified
 634              		.thumb
 635              		.thumb_func
 637              	audioBlock:
 638              	.LVL50:
 639              	.LFB136:
  97:Core/Src/audio.c **** 	int i;
 640              		.loc 1 97 1 is_stmt 1 view -0
 641              		.cfi_startproc
 642              		@ args = 0, pretend = 0, frame = 0
 643              		@ frame_needed = 0, uses_anonymous_args = 0
  98:Core/Src/audio.c **** 	int16_t *output;
 644              		.loc 1 98 2 view .LVU160
  99:Core/Src/audio.c **** 	output = buffer;
 645              		.loc 1 99 2 view .LVU161
 100:Core/Src/audio.c **** 	float sample, sampleL, sampleR;
 646              		.loc 1 100 2 view .LVU162
 101:Core/Src/audio.c **** 	uint16_t valueL, valueR;
 647              		.loc 1 101 2 view .LVU163
 102:Core/Src/audio.c **** 	
 648              		.loc 1 102 2 view .LVU164
 105:Core/Src/audio.c **** 	{
 649              		.loc 1 105 2 view .LVU165
 105:Core/Src/audio.c **** 	{
 650              		.loc 1 105 16 view .LVU166
 651 0000 0029     		cmp	r1, #0
 652 0002 00F0E780 		beq	.L40
  97:Core/Src/audio.c **** 	int i;
 653              		.loc 1 97 1 is_stmt 0 view .LVU167
 654 0006 2DE9F84F 		push	{r3, r4, r5, r6, r7, r8, r9, r10, fp, lr}
 655              		.cfi_def_cfa_offset 40
 656              		.cfi_offset 3, -40
 657              		.cfi_offset 4, -36
 658              		.cfi_offset 5, -32
 659              		.cfi_offset 6, -28
 660              		.cfi_offset 7, -24
 661              		.cfi_offset 8, -20
 662              		.cfi_offset 9, -16
 663              		.cfi_offset 10, -12
ARM GAS  /var/folders/0z/tsy30v1j4xl4_7kw94k978ww0000gn/T//ccfc537T.s 			page 19


 664              		.cfi_offset 11, -8
 665              		.cfi_offset 14, -4
 666 000a DFF80882 		ldr	r8, .L46+60
 667 000e 744F     		ldr	r7, .L46+8
 668 0010 744E     		ldr	r6, .L46+12
 669 0012 2DED068B 		vpush.64	{d8, d9, d10}
 670              		.cfi_def_cfa_offset 64
 671              		.cfi_offset 80, -64
 672              		.cfi_offset 81, -60
 673              		.cfi_offset 82, -56
 674              		.cfi_offset 83, -52
 675              		.cfi_offset 84, -48
 676              		.cfi_offset 85, -44
 677 0016 8246     		mov	r10, r0
 678              	.LBB88:
 679              	.LBB89:
  85:Core/Src/audio.c **** }
 680              		.loc 1 85 16 view .LVU168
 681 0018 DFED738A 		vldr.32	s17, .L46+16
 682              	.LBE89:
 683              	.LBE88:
 684 001c 9FED73AA 		vldr.32	s20, .L46+20
 132:Core/Src/audio.c **** 		// Moog_filterR.cutoff = 1600 * filt_env;
 685              		.loc 1 132 28 view .LVU169
 686 0020 9FED739A 		vldr.32	s18, .L46+24
 156:Core/Src/audio.c **** 		valueR = ((int16_t) ((32767.0f) * sampleR));
 687              		.loc 1 156 35 view .LVU170
 688 0024 DFED739A 		vldr.32	s19, .L46+28
 689 0028 8946     		mov	r9, r1
 105:Core/Src/audio.c **** 	{
 690              		.loc 1 105 9 view .LVU171
 691 002a 0024     		movs	r4, #0
 692 002c 00F1020B 		add	fp, r0, #2
 693 0030 50E0     		b	.L27
 694              	.LVL51:
 695              	.L44:
 696              	.LBB92:
 697              	.LBB93:
  66:Core/Inc/helper_functions.h ****     {
 698              		.loc 2 66 10 is_stmt 1 view .LVU172
  66:Core/Inc/helper_functions.h ****     {
 699              		.loc 2 66 13 is_stmt 0 view .LVU173
 700 0032 F0EE086A 		vmov.f32	s13, #3.0e+0
 701 0036 B4EEE67A 		vcmpe.f32	s14, s13
 702 003a F1EE10FA 		vmrs	APSR_nzcv, FPSCR
 703 003e 00F3C380 		bgt	.L35
 704              	.LVL52:
 705              	.LBB94:
 706              	.LBI94:
  60:Core/Inc/helper_functions.h **** {
 707              		.loc 2 60 14 is_stmt 1 view .LVU174
 708              	.LBB95:
 709              		.loc 2 72 9 view .LVU175
 710              		.loc 2 72 27 is_stmt 0 view .LVU176
 711 0042 F3EE0B6A 		vmov.f32	s13, #2.7e+1
 712              		.loc 2 72 52 view .LVU177
 713 0046 F2EE025A 		vmov.f32	s11, #9.0e+0
ARM GAS  /var/folders/0z/tsy30v1j4xl4_7kw94k978ww0000gn/T//ccfc537T.s 			page 20


 714 004a 67EE255A 		vmul.f32	s11, s14, s11
 715              		.loc 2 72 27 view .LVU178
 716 004e B0EE665A 		vmov.f32	s10, s13
 717 0052 A7EE075A 		vfma.f32	s10, s14, s14
 718              		.loc 2 72 45 view .LVU179
 719 0056 E7EE256A 		vfma.f32	s13, s14, s11
 720              		.loc 2 72 18 view .LVU180
 721 005a 27EE057A 		vmul.f32	s14, s14, s10
 722              	.LVL53:
 723              		.loc 2 72 45 view .LVU181
 724 005e B0EE666A 		vmov.f32	s12, s13
 725              	.LVL54:
 726              		.loc 2 72 36 view .LVU182
 727 0062 C7EE066A 		vdiv.f32	s13, s14, s12
 728              	.LBE95:
 729              	.LBE94:
 730              	.LBE93:
 731              	.LBE92:
 156:Core/Src/audio.c **** 		valueR = ((int16_t) ((32767.0f) * sampleR));
 732              		.loc 1 156 35 view .LVU183
 733 0066 26EEA97A 		vmul.f32	s14, s13, s19
 156:Core/Src/audio.c **** 		valueR = ((int16_t) ((32767.0f) * sampleR));
 734              		.loc 1 156 13 view .LVU184
 735 006a BDEEC77A 		vcvt.s32.f32	s14, s14
 736 006e 17EE103A 		vmov	r3, s14	@ int
 737 0072 1AB2     		sxth	r2, r3
 738              	.L29:
 739              	.LVL55:
 153:Core/Src/audio.c **** 
 740              		.loc 1 153 3 is_stmt 1 view .LVU185
 741              	.LBB99:
 742              	.LBI99:
  60:Core/Inc/helper_functions.h **** {
 743              		.loc 2 60 14 view .LVU186
 744              	.LBB100:
  62:Core/Inc/helper_functions.h ****     {
 745              		.loc 2 62 5 view .LVU187
  62:Core/Inc/helper_functions.h ****     {
 746              		.loc 2 62 8 is_stmt 0 view .LVU188
 747 0074 B8EE087A 		vmov.f32	s14, #-3.0e+0
 748 0078 F4EEC77A 		vcmpe.f32	s15, s14
 749 007c F1EE10FA 		vmrs	APSR_nzcv, FPSCR
 750 0080 00F19680 		bmi	.L36
 751              	.L45:
  66:Core/Inc/helper_functions.h ****     {
 752              		.loc 2 66 10 is_stmt 1 view .LVU189
  66:Core/Inc/helper_functions.h ****     {
 753              		.loc 2 66 13 is_stmt 0 view .LVU190
 754 0084 B0EE087A 		vmov.f32	s14, #3.0e+0
 755 0088 F4EEC77A 		vcmpe.f32	s15, s14
 756 008c F1EE10FA 		vmrs	APSR_nzcv, FPSCR
 757 0090 00F39D80 		bgt	.L37
 758              	.LVL56:
 759              	.LBB101:
 760              	.LBI101:
  60:Core/Inc/helper_functions.h **** {
 761              		.loc 2 60 14 is_stmt 1 view .LVU191
ARM GAS  /var/folders/0z/tsy30v1j4xl4_7kw94k978ww0000gn/T//ccfc537T.s 			page 21


 762              	.LBB102:
 763              		.loc 2 72 9 view .LVU192
 764              		.loc 2 72 27 is_stmt 0 view .LVU193
 765 0094 B3EE0B7A 		vmov.f32	s14, #2.7e+1
 766              		.loc 2 72 52 view .LVU194
 767 0098 B2EE026A 		vmov.f32	s12, #9.0e+0
 768 009c 27EE866A 		vmul.f32	s12, s15, s12
 769              		.loc 2 72 27 view .LVU195
 770 00a0 F0EE475A 		vmov.f32	s11, s14
 771 00a4 E7EEA75A 		vfma.f32	s11, s15, s15
 772              		.loc 2 72 45 view .LVU196
 773 00a8 A7EE867A 		vfma.f32	s14, s15, s12
 774              		.loc 2 72 18 view .LVU197
 775 00ac 67EEA57A 		vmul.f32	s15, s15, s11
 776              	.LVL57:
 777              		.loc 2 72 45 view .LVU198
 778 00b0 F0EE476A 		vmov.f32	s13, s14
 779              	.LVL58:
 780              		.loc 2 72 36 view .LVU199
 781 00b4 87EEA67A 		vdiv.f32	s14, s15, s13
 782              	.LBE102:
 783              	.LBE101:
 784              	.LBE100:
 785              	.LBE99:
 157:Core/Src/audio.c **** 
 786              		.loc 1 157 35 view .LVU200
 787 00b8 67EE297A 		vmul.f32	s15, s14, s19
 157:Core/Src/audio.c **** 
 788              		.loc 1 157 13 view .LVU201
 789 00bc FDEEE77A 		vcvt.s32.f32	s15, s15
 790 00c0 17EE903A 		vmov	r3, s15	@ int
 791 00c4 1BB2     		sxth	r3, r3
 792              	.L30:
 793              	.LVL59:
 156:Core/Src/audio.c **** 		valueR = ((int16_t) ((32767.0f) * sampleR));
 794              		.loc 1 156 3 is_stmt 1 view .LVU202
 157:Core/Src/audio.c **** 
 795              		.loc 1 157 3 view .LVU203
 160:Core/Src/audio.c **** 	    output[(i<<1) + 1] = valueR;	// RIGHT channel
 796              		.loc 1 160 3 view .LVU204
 160:Core/Src/audio.c **** 	    output[(i<<1) + 1] = valueR;	// RIGHT channel
 797              		.loc 1 160 16 is_stmt 0 view .LVU205
 798 00c6 2AF82420 		strh	r2, [r10, r4, lsl #2]	@ movhi
 161:Core/Src/audio.c **** 		// *output++ = valueL; // left channel sample
 799              		.loc 1 161 6 is_stmt 1 view .LVU206
 161:Core/Src/audio.c **** 		// *output++ = valueL; // left channel sample
 800              		.loc 1 161 25 is_stmt 0 view .LVU207
 801 00ca 2BF82430 		strh	r3, [fp, r4, lsl #2]	@ movhi
 105:Core/Src/audio.c **** 	{
 802              		.loc 1 105 28 is_stmt 1 view .LVU208
 803 00ce 0134     		adds	r4, r4, #1
 804              	.LVL60:
 105:Core/Src/audio.c **** 	{
 805              		.loc 1 105 16 view .LVU209
 806 00d0 4C45     		cmp	r4, r9
 807 00d2 75D0     		beq	.L43
 808              	.LVL61:
ARM GAS  /var/folders/0z/tsy30v1j4xl4_7kw94k978ww0000gn/T//ccfc537T.s 			page 22


 809              	.L27:
 108:Core/Src/audio.c **** 		
 810              		.loc 1 108 3 view .LVU210
 108:Core/Src/audio.c **** 		
 811              		.loc 1 108 12 is_stmt 0 view .LVU211
 812 00d4 484B     		ldr	r3, .L46+32
 813 00d6 1D78     		ldrb	r5, [r3]	@ zero_extendqisi2
 814 00d8 08EB8503 		add	r3, r8, r5, lsl #2
 815 00dc D3ED007A 		vldr.32	s15, [r3]
 111:Core/Src/audio.c **** 		OpSetFreq(&osc2, f0 + 0.1);
 816              		.loc 1 111 3 is_stmt 1 view .LVU212
 817              	.LVL62:
 818              	.LBB106:
 819              	.LBI88:
  83:Core/Src/audio.c **** {
 820              		.loc 1 83 6 view .LVU213
 821              	.LBB90:
  85:Core/Src/audio.c **** }
 822              		.loc 1 85 2 view .LVU214
  85:Core/Src/audio.c **** }
 823              		.loc 1 85 16 is_stmt 0 view .LVU215
 824 00e0 27EEA87A 		vmul.f32	s14, s15, s17
 825              	.LBE90:
 826              	.LBE106:
 112:Core/Src/audio.c **** 
 827              		.loc 1 112 23 view .LVU216
 828 00e4 17EE900A 		vmov	r0, s15
 829              	.LBB107:
 830              	.LBB91:
  85:Core/Src/audio.c **** }
 831              		.loc 1 85 11 view .LVU217
 832 00e8 87ED017A 		vstr.32	s14, [r7, #4]
 833              	.LVL63:
  85:Core/Src/audio.c **** }
 834              		.loc 1 85 11 view .LVU218
 835              	.LBE91:
 836              	.LBE107:
 112:Core/Src/audio.c **** 
 837              		.loc 1 112 3 is_stmt 1 view .LVU219
 838              	.LBB108:
 839              	.LBI108:
  83:Core/Src/audio.c **** {
 840              		.loc 1 83 6 view .LVU220
 841              	.LBB109:
  85:Core/Src/audio.c **** }
 842              		.loc 1 85 2 view .LVU221
 843              	.LBE109:
 844              	.LBE108:
 112:Core/Src/audio.c **** 
 845              		.loc 1 112 23 is_stmt 0 view .LVU222
 846 00ec FFF7FEFF 		bl	__aeabi_f2d
 847              	.LVL64:
 112:Core/Src/audio.c **** 
 848              		.loc 1 112 23 view .LVU223
 849 00f0 39A3     		adr	r3, .L46
 850 00f2 D3E90023 		ldrd	r2, [r3]
 851 00f6 FFF7FEFF 		bl	__aeabi_dadd
ARM GAS  /var/folders/0z/tsy30v1j4xl4_7kw94k978ww0000gn/T//ccfc537T.s 			page 23


 852              	.LVL65:
 112:Core/Src/audio.c **** 
 853              		.loc 1 112 3 view .LVU224
 854 00fa FFF7FEFF 		bl	__aeabi_d2f
 855              	.LVL66:
 856              	.LBB113:
 857              	.LBB110:
  85:Core/Src/audio.c **** }
 858              		.loc 1 85 16 view .LVU225
 859 00fe 07EE900A 		vmov	s15, r0
 860              	.LBE110:
 861              	.LBE113:
 114:Core/Src/audio.c **** 		OpSetFreq(&osc3, f_sub);
 862              		.loc 1 114 16 view .LVU226
 863 0102 0C2D     		cmp	r5, #12
 864              	.LBB114:
 865              	.LBB111:
  85:Core/Src/audio.c **** }
 866              		.loc 1 85 16 view .LVU227
 867 0104 67EEA87A 		vmul.f32	s15, s15, s17
  85:Core/Src/audio.c **** }
 868              		.loc 1 85 11 view .LVU228
 869 0108 3C4B     		ldr	r3, .L46+36
 870              	.LBE111:
 871              	.LBE114:
 114:Core/Src/audio.c **** 		OpSetFreq(&osc3, f_sub);
 872              		.loc 1 114 15 view .LVU229
 873 010a 88BF     		it	hi
 874 010c 08EB8505 		addhi	r5, r8, r5, lsl #2
 875              	.LVL67:
 876              	.LBB115:
 877              	.LBB112:
  85:Core/Src/audio.c **** }
 878              		.loc 1 85 11 view .LVU230
 879 0110 C3ED017A 		vstr.32	s15, [r3, #4]
 880              	.LVL68:
  85:Core/Src/audio.c **** }
 881              		.loc 1 85 11 view .LVU231
 882              	.LBE112:
 883              	.LBE115:
 114:Core/Src/audio.c **** 		OpSetFreq(&osc3, f_sub);
 884              		.loc 1 114 3 is_stmt 1 view .LVU232
 115:Core/Src/audio.c **** 		sample = osc_polyblepSaw(&osc1) + osc_polyblepSaw(&osc2) + osc_polyblepRect(&osc3);
 885              		.loc 1 115 3 view .LVU233
 886              	.LBB116:
 887              	.LBI116:
  83:Core/Src/audio.c **** {
 888              		.loc 1 83 6 view .LVU234
 889              	.LBB117:
  85:Core/Src/audio.c **** }
 890              		.loc 1 85 2 view .LVU235
  85:Core/Src/audio.c **** }
 891              		.loc 1 85 16 is_stmt 0 view .LVU236
 892 0114 88BF     		it	hi
 893 0116 55ED0C7A 		vldrhi.32	s15, [r5, #-48]
  85:Core/Src/audio.c **** }
 894              		.loc 1 85 11 view .LVU237
ARM GAS  /var/folders/0z/tsy30v1j4xl4_7kw94k978ww0000gn/T//ccfc537T.s 			page 24


 895 011a 394B     		ldr	r3, .L46+40
  85:Core/Src/audio.c **** }
 896              		.loc 1 85 16 view .LVU238
 897 011c 8CBF     		ite	hi
 898 011e 67EEA87A 		vmulhi.f32	s15, s15, s17
 899              	.LBE117:
 900              	.LBE116:
 901 0122 F0EE4A7A 		vmovls.f32	s15, s20
 116:Core/Src/audio.c **** 	
 902              		.loc 1 116 12 view .LVU239
 903 0126 3846     		mov	r0, r7
 904              	.LBB119:
 905              	.LBB118:
  85:Core/Src/audio.c **** }
 906              		.loc 1 85 11 view .LVU240
 907 0128 C3ED017A 		vstr.32	s15, [r3, #4]
 908              	.LVL69:
  85:Core/Src/audio.c **** }
 909              		.loc 1 85 11 view .LVU241
 910              	.LBE118:
 911              	.LBE119:
 116:Core/Src/audio.c **** 	
 912              		.loc 1 116 3 is_stmt 1 view .LVU242
 116:Core/Src/audio.c **** 	
 913              		.loc 1 116 12 is_stmt 0 view .LVU243
 914 012c FFF7FEFF 		bl	osc_polyblepSaw
 915              	.LVL70:
 116:Core/Src/audio.c **** 	
 916              		.loc 1 116 37 view .LVU244
 917 0130 3248     		ldr	r0, .L46+36
 116:Core/Src/audio.c **** 	
 918              		.loc 1 116 12 view .LVU245
 919 0132 B0EE408A 		vmov.f32	s16, s0
 116:Core/Src/audio.c **** 	
 920              		.loc 1 116 37 view .LVU246
 921 0136 FFF7FEFF 		bl	osc_polyblepSaw
 922              	.LVL71:
 116:Core/Src/audio.c **** 	
 923              		.loc 1 116 62 view .LVU247
 924 013a 3148     		ldr	r0, .L46+40
 116:Core/Src/audio.c **** 	
 925              		.loc 1 116 35 view .LVU248
 926 013c 38EE008A 		vadd.f32	s16, s16, s0
 116:Core/Src/audio.c **** 	
 927              		.loc 1 116 62 view .LVU249
 928 0140 FFF7FEFF 		bl	osc_polyblepRect
 929              	.LVL72:
 131:Core/Src/audio.c **** 		Moog_filter.cutoff = 600 * filt_env;
 930              		.loc 1 131 14 view .LVU250
 931 0144 2F48     		ldr	r0, .L46+44
 116:Core/Src/audio.c **** 	
 932              		.loc 1 116 10 view .LVU251
 933 0146 38EE008A 		vadd.f32	s16, s16, s0
 934              	.LVL73:
 131:Core/Src/audio.c **** 		Moog_filter.cutoff = 600 * filt_env;
 935              		.loc 1 131 3 is_stmt 1 view .LVU252
 131:Core/Src/audio.c **** 		Moog_filter.cutoff = 600 * filt_env;
ARM GAS  /var/folders/0z/tsy30v1j4xl4_7kw94k978ww0000gn/T//ccfc537T.s 			page 25


 936              		.loc 1 131 14 is_stmt 0 view .LVU253
 937 014a FFF7FEFF 		bl	ADSR_compute
 938              	.LVL74:
 132:Core/Src/audio.c **** 		// Moog_filterR.cutoff = 1600 * filt_env;
 939              		.loc 1 132 3 is_stmt 1 view .LVU254
 132:Core/Src/audio.c **** 		// Moog_filterR.cutoff = 1600 * filt_env;
 940              		.loc 1 132 22 is_stmt 0 view .LVU255
 941 014e 2E4B     		ldr	r3, .L46+48
 131:Core/Src/audio.c **** 		Moog_filter.cutoff = 600 * filt_env;
 942              		.loc 1 131 14 view .LVU256
 943 0150 F0EE407A 		vmov.f32	s15, s0
 132:Core/Src/audio.c **** 		// Moog_filterR.cutoff = 1600 * filt_env;
 944              		.loc 1 132 28 view .LVU257
 945 0154 67EE897A 		vmul.f32	s15, s15, s18
 134:Core/Src/audio.c **** 	
 946              		.loc 1 134 12 view .LVU258
 947 0158 1846     		mov	r0, r3
 948 015a B0EE480A 		vmov.f32	s0, s16
 132:Core/Src/audio.c **** 		// Moog_filterR.cutoff = 1600 * filt_env;
 949              		.loc 1 132 22 view .LVU259
 950 015e C3ED007A 		vstr.32	s15, [r3]
 134:Core/Src/audio.c **** 	
 951              		.loc 1 134 3 is_stmt 1 view .LVU260
 134:Core/Src/audio.c **** 	
 952              		.loc 1 134 12 is_stmt 0 view .LVU261
 953 0162 FFF7FEFF 		bl	MoogLP_compute
 954              	.LVL75:
 138:Core/Src/audio.c **** 		sample *= amp_env;
 955              		.loc 1 138 13 view .LVU262
 956 0166 2948     		ldr	r0, .L46+52
 134:Core/Src/audio.c **** 	
 957              		.loc 1 134 12 view .LVU263
 958 0168 B0EE408A 		vmov.f32	s16, s0
 959              	.LVL76:
 138:Core/Src/audio.c **** 		sample *= amp_env;
 960              		.loc 1 138 3 is_stmt 1 view .LVU264
 138:Core/Src/audio.c **** 		sample *= amp_env;
 961              		.loc 1 138 13 is_stmt 0 view .LVU265
 962 016c FFF7FEFF 		bl	ADSR_compute
 963              	.LVL77:
 139:Core/Src/audio.c **** 
 964              		.loc 1 139 3 is_stmt 1 view .LVU266
 143:Core/Src/audio.c **** 
 965              		.loc 1 143 3 view .LVU267
 143:Core/Src/audio.c **** 
 966              		.loc 1 143 12 is_stmt 0 view .LVU268
 967 0170 F7EE000A 		vmov.f32	s1, #1.0e+0
 968 0174 0420     		movs	r0, #4
 969 0176 20EE080A 		vmul.f32	s0, s0, s16
 970              	.LVL78:
 143:Core/Src/audio.c **** 
 971              		.loc 1 143 12 view .LVU269
 972 017a FFF7FEFF 		bl	decimator
 973              	.LVL79:
 147:Core/Src/audio.c **** 		sampleL = delayLOut;
 974              		.loc 1 147 3 is_stmt 1 view .LVU270
 975 017e 1949     		ldr	r1, .L46+12
ARM GAS  /var/folders/0z/tsy30v1j4xl4_7kw94k978ww0000gn/T//ccfc537T.s 			page 26


 976 0180 081D     		adds	r0, r1, #4
 977 0182 FFF7FEFF 		bl	pingpongDelay_compute
 978              	.LVL80:
 148:Core/Src/audio.c **** 		sampleR = delayROut;
 979              		.loc 1 148 3 view .LVU271
 148:Core/Src/audio.c **** 		sampleR = delayROut;
 980              		.loc 1 148 11 is_stmt 0 view .LVU272
 981 0186 96ED017A 		vldr.32	s14, [r6, #4]
 982              	.LVL81:
 149:Core/Src/audio.c **** 
 983              		.loc 1 149 3 is_stmt 1 view .LVU273
 149:Core/Src/audio.c **** 
 984              		.loc 1 149 11 is_stmt 0 view .LVU274
 985 018a D6ED007A 		vldr.32	s15, [r6]
 986              	.LVL82:
 152:Core/Src/audio.c **** 		sampleR = SoftClip(sampleR);
 987              		.loc 1 152 3 is_stmt 1 view .LVU275
 988              	.LBB120:
 989              	.LBI92:
  60:Core/Inc/helper_functions.h **** {
 990              		.loc 2 60 14 view .LVU276
 991              	.LBB96:
  62:Core/Inc/helper_functions.h ****     {
 992              		.loc 2 62 5 view .LVU277
  62:Core/Inc/helper_functions.h ****     {
 993              		.loc 2 62 8 is_stmt 0 view .LVU278
 994 018e F8EE086A 		vmov.f32	s13, #-3.0e+0
 995 0192 B4EEE67A 		vcmpe.f32	s14, s13
 996 0196 F1EE10FA 		vmrs	APSR_nzcv, FPSCR
 997 019a 7FF54AAF 		bpl	.L44
 998              	.LBE96:
 999              	.LBE120:
 1000              	.LBB121:
 1001              	.LBB103:
 1002 019e B8EE087A 		vmov.f32	s14, #-3.0e+0
 1003              	.LVL83:
  62:Core/Inc/helper_functions.h ****     {
 1004              		.loc 2 62 8 view .LVU279
 1005 01a2 F4EEC77A 		vcmpe.f32	s15, s14
 1006 01a6 F1EE10FA 		vmrs	APSR_nzcv, FPSCR
 1007              	.LBE103:
 1008              	.LBE121:
 1009              	.LBB122:
 1010              	.LBB97:
 1011 01aa 194A     		ldr	r2, .L46+56
 1012              	.LVL84:
  62:Core/Inc/helper_functions.h ****     {
 1013              		.loc 2 62 8 view .LVU280
 1014              	.LBE97:
 1015              	.LBE122:
 153:Core/Src/audio.c **** 
 1016              		.loc 1 153 3 is_stmt 1 view .LVU281
 1017              	.LBB123:
  60:Core/Inc/helper_functions.h **** {
 1018              		.loc 2 60 14 view .LVU282
 1019              	.LBB104:
  62:Core/Inc/helper_functions.h ****     {
ARM GAS  /var/folders/0z/tsy30v1j4xl4_7kw94k978ww0000gn/T//ccfc537T.s 			page 27


 1020              		.loc 2 62 5 view .LVU283
  62:Core/Inc/helper_functions.h ****     {
 1021              		.loc 2 62 8 is_stmt 0 view .LVU284
 1022 01ac 7FF56AAF 		bpl	.L45
 1023              	.L36:
 1024 01b0 174B     		ldr	r3, .L46+56
 1025              	.LVL85:
  62:Core/Inc/helper_functions.h ****     {
 1026              		.loc 2 62 8 view .LVU285
 1027              	.LBE104:
 1028              	.LBE123:
 156:Core/Src/audio.c **** 		valueR = ((int16_t) ((32767.0f) * sampleR));
 1029              		.loc 1 156 3 is_stmt 1 view .LVU286
 157:Core/Src/audio.c **** 
 1030              		.loc 1 157 3 view .LVU287
 160:Core/Src/audio.c **** 	    output[(i<<1) + 1] = valueR;	// RIGHT channel
 1031              		.loc 1 160 3 view .LVU288
 160:Core/Src/audio.c **** 	    output[(i<<1) + 1] = valueR;	// RIGHT channel
 1032              		.loc 1 160 16 is_stmt 0 view .LVU289
 1033 01b2 2AF82420 		strh	r2, [r10, r4, lsl #2]	@ movhi
 161:Core/Src/audio.c **** 		// *output++ = valueL; // left channel sample
 1034              		.loc 1 161 6 is_stmt 1 view .LVU290
 161:Core/Src/audio.c **** 		// *output++ = valueL; // left channel sample
 1035              		.loc 1 161 25 is_stmt 0 view .LVU291
 1036 01b6 2BF82430 		strh	r3, [fp, r4, lsl #2]	@ movhi
 105:Core/Src/audio.c **** 	{
 1037              		.loc 1 105 28 is_stmt 1 view .LVU292
 1038 01ba 0134     		adds	r4, r4, #1
 1039              	.LVL86:
 105:Core/Src/audio.c **** 	{
 1040              		.loc 1 105 16 view .LVU293
 1041 01bc 4C45     		cmp	r4, r9
 1042 01be 89D1     		bne	.L27
 1043              	.L43:
 1044              		.loc 1 166 1 is_stmt 0 view .LVU294
 1045 01c0 BDEC068B 		vldm	sp!, {d8-d10}
 1046              		.cfi_remember_state
 1047              		.cfi_restore 84
 1048              		.cfi_restore 85
 1049              		.cfi_restore 82
 1050              		.cfi_restore 83
 1051              		.cfi_restore 80
 1052              		.cfi_restore 81
 1053              		.cfi_def_cfa_offset 40
 1054 01c4 BDE8F88F 		pop	{r3, r4, r5, r6, r7, r8, r9, r10, fp, pc}
 1055              	.LVL87:
 1056              	.L35:
 1057              		.cfi_restore_state
 1058              	.LBB124:
 1059              	.LBB98:
 1060              		.loc 1 166 1 view .LVU295
 1061 01c8 47F6FF72 		movw	r2, #32767
 1062 01cc 52E7     		b	.L29
 1063              	.LVL88:
 1064              	.L37:
 1065              		.loc 1 166 1 view .LVU296
 1066              	.LBE98:
ARM GAS  /var/folders/0z/tsy30v1j4xl4_7kw94k978ww0000gn/T//ccfc537T.s 			page 28


 1067              	.LBE124:
 1068              	.LBB125:
 1069              	.LBB105:
 1070 01ce 47F6FF73 		movw	r3, #32767
 1071 01d2 78E7     		b	.L30
 1072              	.LVL89:
 1073              	.L40:
 1074              		.cfi_def_cfa_offset 0
 1075              		.cfi_restore 3
 1076              		.cfi_restore 4
 1077              		.cfi_restore 5
 1078              		.cfi_restore 6
 1079              		.cfi_restore 7
 1080              		.cfi_restore 8
 1081              		.cfi_restore 9
 1082              		.cfi_restore 10
 1083              		.cfi_restore 11
 1084              		.cfi_restore 14
 1085              		.cfi_restore 80
 1086              		.cfi_restore 81
 1087              		.cfi_restore 82
 1088              		.cfi_restore 83
 1089              		.cfi_restore 84
 1090              		.cfi_restore 85
 1091              		.loc 1 166 1 view .LVU297
 1092 01d4 7047     		bx	lr
 1093              	.L47:
 1094 01d6 00BF     		.align	3
 1095              	.L46:
 1096 01d8 9A999999 		.word	-1717986918
 1097 01dc 9999B93F 		.word	1069128089
 1098 01e0 00000000 		.word	osc1
 1099 01e4 00000000 		.word	.LANCHOR1
 1100 01e8 8D7E7F3F 		.word	1065320077
 1101 01ec ED8D0241 		.word	1090686445
 1102 01f0 00001644 		.word	1142292480
 1103 01f4 00FEFF46 		.word	1191181824
 1104 01f8 00000000 		.word	currentPitch
 1105 01fc 00000000 		.word	osc2
 1106 0200 00000000 		.word	osc3
 1107 0204 00000000 		.word	adsr_filt
 1108 0208 00000000 		.word	Moog_filter
 1109 020c 00000000 		.word	adsr_amp
 1110 0210 0180FFFF 		.word	-32767
 1111 0214 00000000 		.word	.LANCHOR0
 1112              	.LBE105:
 1113              	.LBE125:
 1114              		.cfi_endproc
 1115              	.LFE136:
 1117              		.section	.text.BSP_AUDIO_OUT_HalfTransfer_CallBack,"ax",%progbits
 1118              		.align	1
 1119              		.p2align 2,,3
 1120              		.global	BSP_AUDIO_OUT_HalfTransfer_CallBack
 1121              		.syntax unified
 1122              		.thumb
 1123              		.thumb_func
 1125              	BSP_AUDIO_OUT_HalfTransfer_CallBack:
ARM GAS  /var/folders/0z/tsy30v1j4xl4_7kw94k978ww0000gn/T//ccfc537T.s 			page 29


 1126              	.LFB137:
 167:Core/Src/audio.c **** 
 168:Core/Src/audio.c **** 
 169:Core/Src/audio.c **** 
 170:Core/Src/audio.c **** void BSP_AUDIO_OUT_HalfTransfer_CallBack(void)
 171:Core/Src/audio.c **** {
 1127              		.loc 1 171 1 is_stmt 1 view -0
 1128              		.cfi_startproc
 1129              		@ args = 0, pretend = 0, frame = 0
 1130              		@ frame_needed = 0, uses_anonymous_args = 0
 1131              		@ link register save eliminated.
 172:Core/Src/audio.c **** 	audioBlock((uint16_t *)audioBuffer, BUFFER_SIZE_DIV_4);
 1132              		.loc 1 172 2 view .LVU299
 1133 0000 0148     		ldr	r0, .L49
 1134 0002 FFF7FEBF 		b	audioBlock.constprop.0
 1135              	.LVL90:
 1136              	.L50:
 1137 0006 00BF     		.align	2
 1138              	.L49:
 1139 0008 00000000 		.word	.LANCHOR2
 1140              		.cfi_endproc
 1141              	.LFE137:
 1143              		.section	.text.BSP_AUDIO_OUT_TransferComplete_CallBack,"ax",%progbits
 1144              		.align	1
 1145              		.p2align 2,,3
 1146              		.global	BSP_AUDIO_OUT_TransferComplete_CallBack
 1147              		.syntax unified
 1148              		.thumb
 1149              		.thumb_func
 1151              	BSP_AUDIO_OUT_TransferComplete_CallBack:
 1152              	.LFB138:
 173:Core/Src/audio.c **** }
 174:Core/Src/audio.c **** 
 175:Core/Src/audio.c **** void BSP_AUDIO_OUT_TransferComplete_CallBack(void)
 176:Core/Src/audio.c **** {
 1153              		.loc 1 176 1 view -0
 1154              		.cfi_startproc
 1155              		@ args = 0, pretend = 0, frame = 0
 1156              		@ frame_needed = 0, uses_anonymous_args = 0
 1157              		@ link register save eliminated.
 177:Core/Src/audio.c **** 	audioBlock((uint16_t *)(audioBuffer + BUFFER_SIZE_DIV_2), BUFFER_SIZE_DIV_4);
 1158              		.loc 1 177 2 view .LVU301
 1159 0000 0148     		ldr	r0, .L52
 1160 0002 FFF7FEBF 		b	audioBlock.constprop.0
 1161              	.LVL91:
 1162              	.L53:
 1163 0006 00BF     		.align	2
 1164              	.L52:
 1165 0008 40000000 		.word	.LANCHOR2+64
 1166              		.cfi_endproc
 1167              	.LFE138:
 1169              		.section	.text.BSP_AUDIO_OUT_Error_CallBack,"ax",%progbits
 1170              		.align	1
 1171              		.p2align 2,,3
 1172              		.global	BSP_AUDIO_OUT_Error_CallBack
 1173              		.syntax unified
 1174              		.thumb
ARM GAS  /var/folders/0z/tsy30v1j4xl4_7kw94k978ww0000gn/T//ccfc537T.s 			page 30


 1175              		.thumb_func
 1177              	BSP_AUDIO_OUT_Error_CallBack:
 1178              	.LFB139:
 178:Core/Src/audio.c **** }
 179:Core/Src/audio.c **** 
 180:Core/Src/audio.c **** void BSP_AUDIO_OUT_Error_CallBack(void)
 181:Core/Src/audio.c **** {
 1179              		.loc 1 181 1 view -0
 1180              		.cfi_startproc
 1181              		@ Volatile: function does not return.
 1182              		@ args = 0, pretend = 0, frame = 0
 1183              		@ frame_needed = 0, uses_anonymous_args = 0
 1184              		@ link register save eliminated.
 1185              	.L55:
 182:Core/Src/audio.c **** 	/* Stop the program with an infinite loop */
 183:Core/Src/audio.c **** 	while (1)
 1186              		.loc 1 183 2 discriminator 1 view .LVU303
 184:Core/Src/audio.c **** 	{
 185:Core/Src/audio.c **** 	}
 1187              		.loc 1 185 2 discriminator 1 view .LVU304
 183:Core/Src/audio.c **** 	{
 1188              		.loc 1 183 8 discriminator 1 view .LVU305
 1189 0000 FEE7     		b	.L55
 1190              		.cfi_endproc
 1191              	.LFE139:
 1193 0002 00BF     		.section	.text.DMA1_Stream7_IRQHandler,"ax",%progbits
 1194              		.align	1
 1195              		.p2align 2,,3
 1196              		.global	DMA1_Stream7_IRQHandler
 1197              		.syntax unified
 1198              		.thumb
 1199              		.thumb_func
 1201              	DMA1_Stream7_IRQHandler:
 1202              	.LFB140:
 186:Core/Src/audio.c **** }
 187:Core/Src/audio.c **** 
 188:Core/Src/audio.c **** 
 189:Core/Src/audio.c **** void I2S3_IRQHandler(void)
 190:Core/Src/audio.c **** {
 1203              		.loc 1 190 1 view -0
 1204              		.cfi_startproc
 1205              		@ args = 0, pretend = 0, frame = 0
 1206              		@ frame_needed = 0, uses_anonymous_args = 0
 1207              		@ link register save eliminated.
 191:Core/Src/audio.c **** 	HAL_DMA_IRQHandler(hAudioOutI2s.hdmatx);
 1208              		.loc 1 191 2 view .LVU307
 1209 0000 014B     		ldr	r3, .L57
 1210 0002 986B     		ldr	r0, [r3, #56]
 1211 0004 FFF7FEBF 		b	HAL_DMA_IRQHandler
 1212              	.LVL92:
 1213              	.L58:
 1214              		.align	2
 1215              	.L57:
 1216 0008 00000000 		.word	hAudioOutI2s
 1217              		.cfi_endproc
 1218              	.LFE140:
 1220              		.section	.text.DMA1_Stream3_IRQHandler,"ax",%progbits
ARM GAS  /var/folders/0z/tsy30v1j4xl4_7kw94k978ww0000gn/T//ccfc537T.s 			page 31


 1221              		.align	1
 1222              		.p2align 2,,3
 1223              		.global	DMA1_Stream3_IRQHandler
 1224              		.syntax unified
 1225              		.thumb
 1226              		.thumb_func
 1228              	DMA1_Stream3_IRQHandler:
 1229              	.LFB141:
 192:Core/Src/audio.c **** }
 193:Core/Src/audio.c **** void I2S2_IRQHandler(void)
 194:Core/Src/audio.c **** {
 1230              		.loc 1 194 1 view -0
 1231              		.cfi_startproc
 1232              		@ args = 0, pretend = 0, frame = 0
 1233              		@ frame_needed = 0, uses_anonymous_args = 0
 1234              		@ link register save eliminated.
 195:Core/Src/audio.c **** 	HAL_DMA_IRQHandler(hAudioInI2s.hdmarx);
 1235              		.loc 1 195 2 view .LVU309
 1236 0000 014B     		ldr	r3, .L60
 1237 0002 D86B     		ldr	r0, [r3, #60]
 1238 0004 FFF7FEBF 		b	HAL_DMA_IRQHandler
 1239              	.LVL93:
 1240              	.L61:
 1241              		.align	2
 1242              	.L60:
 1243 0008 00000000 		.word	hAudioInI2s
 1244              		.cfi_endproc
 1245              	.LFE141:
 1247              		.global	audioBuffer
 1248              		.global	pbend
 1249              		.global	mtof
 1250              		.section	.bss.audioBuffer,"aw",%nobits
 1251              		.align	2
 1252              		.set	.LANCHOR2,. + 0
 1255              	audioBuffer:
 1256 0000 00000000 		.space	128
 1256      00000000 
 1256      00000000 
 1256      00000000 
 1256      00000000 
 1257              		.section	.ccmram,"aw"
 1258              		.align	2
 1259              		.set	.LANCHOR1,. + 0
 1262              	delayROut:
 1263 0000 00000000 		.space	4
 1266              	delayLOut:
 1267 0004 00000000 		.space	4
 1268              		.section	.rodata.mtof,"a"
 1269              		.align	2
 1270              		.set	.LANCHOR0,. + 0
 1273              	mtof:
 1274 0000 13D00241 		.word	1090703379
 1275 0004 60970A41 		.word	1091213152
 1276 0008 17D51241 		.word	1091753239
 1277 000c 41901B41 		.word	1092325441
 1278 0010 54D02441 		.word	1092931668
 1279 0014 369D2E41 		.word	1093573942
ARM GAS  /var/folders/0z/tsy30v1j4xl4_7kw94k978ww0000gn/T//ccfc537T.s 			page 32


 1280 0018 4AFF3841 		.word	1094254410
 1281 001c 6AFF4341 		.word	1094975338
 1282 0020 01A74F41 		.word	1095739137
 1283 0024 00005C41 		.word	1096548352
 1284 0028 F7146941 		.word	1097405687
 1285 002c 10F17641 		.word	1098314000
 1286 0030 13D08241 		.word	1099091987
 1287 0034 60978A41 		.word	1099601760
 1288 0038 17D59241 		.word	1100141847
 1289 003c 41909B41 		.word	1100714049
 1290 0040 54D0A441 		.word	1101320276
 1291 0044 369DAE41 		.word	1101962550
 1292 0048 49FFB841 		.word	1102643017
 1293 004c 6BFFC341 		.word	1103363947
 1294 0050 01A7CF41 		.word	1104127745
 1295 0054 0000DC41 		.word	1104936960
 1296 0058 F614E941 		.word	1105794294
 1297 005c 10F1F641 		.word	1106702608
 1298 0060 13D00242 		.word	1107480595
 1299 0064 60970A42 		.word	1107990368
 1300 0068 17D51242 		.word	1108530455
 1301 006c 41901B42 		.word	1109102657
 1302 0070 54D02442 		.word	1109708884
 1303 0074 379D2E42 		.word	1110351159
 1304 0078 49FF3842 		.word	1111031625
 1305 007c 6AFF4342 		.word	1111752554
 1306 0080 00A74F42 		.word	1112516352
 1307 0084 00005C42 		.word	1113325568
 1308 0088 F6146942 		.word	1114182902
 1309 008c 10F17642 		.word	1115091216
 1310 0090 12D08242 		.word	1115869202
 1311 0094 60978A42 		.word	1116378976
 1312 0098 17D59242 		.word	1116919063
 1313 009c 41909B42 		.word	1117491265
 1314 00a0 54D0A442 		.word	1118097492
 1315 00a4 379DAE42 		.word	1118739767
 1316 00a8 49FFB842 		.word	1119420233
 1317 00ac 6AFFC342 		.word	1120141162
 1318 00b0 00A7CF42 		.word	1120904960
 1319 00b4 0000DC42 		.word	1121714176
 1320 00b8 F614E942 		.word	1122571510
 1321 00bc 10F1F642 		.word	1123479824
 1322 00c0 13D00243 		.word	1124257811
 1323 00c4 60970A43 		.word	1124767584
 1324 00c8 17D51243 		.word	1125307671
 1325 00cc 41901B43 		.word	1125879873
 1326 00d0 54D02443 		.word	1126486100
 1327 00d4 379D2E43 		.word	1127128375
 1328 00d8 49FF3843 		.word	1127808841
 1329 00dc 6AFF4343 		.word	1128529770
 1330 00e0 00A74F43 		.word	1129293568
 1331 00e4 00005C43 		.word	1130102784
 1332 00e8 F6146943 		.word	1130960118
 1333 00ec 10F17643 		.word	1131868432
 1334 00f0 13D08243 		.word	1132646419
 1335 00f4 60978A43 		.word	1133156192
 1336 00f8 17D59243 		.word	1133696279
ARM GAS  /var/folders/0z/tsy30v1j4xl4_7kw94k978ww0000gn/T//ccfc537T.s 			page 33


 1337 00fc 41909B43 		.word	1134268481
 1338 0100 54D0A443 		.word	1134874708
 1339 0104 379DAE43 		.word	1135516983
 1340 0108 49FFB843 		.word	1136197449
 1341 010c 6AFFC343 		.word	1136918378
 1342 0110 00A7CF43 		.word	1137682176
 1343 0114 0000DC43 		.word	1138491392
 1344 0118 F614E943 		.word	1139348726
 1345 011c 10F1F643 		.word	1140257040
 1346 0120 13D00244 		.word	1141035027
 1347 0124 60970A44 		.word	1141544800
 1348 0128 17D51244 		.word	1142084887
 1349 012c 41901B44 		.word	1142657089
 1350 0130 54D02444 		.word	1143263316
 1351 0134 379D2E44 		.word	1143905591
 1352 0138 49FF3844 		.word	1144586057
 1353 013c 6AFF4344 		.word	1145306986
 1354 0140 00A74F44 		.word	1146070784
 1355 0144 00005C44 		.word	1146880000
 1356 0148 F6146944 		.word	1147737334
 1357 014c 10F17644 		.word	1148645648
 1358 0150 13D08244 		.word	1149423635
 1359 0154 60978A44 		.word	1149933408
 1360 0158 17D59244 		.word	1150473495
 1361 015c 41909B44 		.word	1151045697
 1362 0160 54D0A444 		.word	1151651924
 1363 0164 379DAE44 		.word	1152294199
 1364 0168 49FFB844 		.word	1152974665
 1365 016c 6AFFC344 		.word	1153695594
 1366 0170 00A7CF44 		.word	1154459392
 1367 0174 0000DC44 		.word	1155268608
 1368 0178 F614E944 		.word	1156125942
 1369 017c 10F1F644 		.word	1157034256
 1370 0180 13D00245 		.word	1157812243
 1371 0184 60970A45 		.word	1158322016
 1372 0188 17D51245 		.word	1158862103
 1373 018c 41901B45 		.word	1159434305
 1374 0190 54D02445 		.word	1160040532
 1375 0194 379D2E45 		.word	1160682807
 1376 0198 49FF3845 		.word	1161363273
 1377 019c 6AFF4345 		.word	1162084202
 1378 01a0 00A74F45 		.word	1162848000
 1379 01a4 00005C45 		.word	1163657216
 1380 01a8 F6146945 		.word	1164514550
 1381 01ac 10F17645 		.word	1165422864
 1382 01b0 13D08245 		.word	1166200851
 1383 01b4 60978A45 		.word	1166710624
 1384 01b8 17D59245 		.word	1167250711
 1385 01bc 41909B45 		.word	1167822913
 1386 01c0 54D0A445 		.word	1168429140
 1387 01c4 379DAE45 		.word	1169071415
 1388 01c8 49FFB845 		.word	1169751881
 1389 01cc 6AFFC345 		.word	1170472810
 1390 01d0 00A7CF45 		.word	1171236608
 1391 01d4 0000DC45 		.word	1172045824
 1392 01d8 F614E945 		.word	1172903158
 1393 01dc 10F1F645 		.word	1173811472
ARM GAS  /var/folders/0z/tsy30v1j4xl4_7kw94k978ww0000gn/T//ccfc537T.s 			page 34


 1394 01e0 13D00246 		.word	1174589459
 1395 01e4 60970A46 		.word	1175099232
 1396 01e8 17D51246 		.word	1175639319
 1397 01ec 41901B46 		.word	1176211521
 1398 01f0 54D02446 		.word	1176817748
 1399 01f4 379D2E46 		.word	1177460023
 1400 01f8 49FF3846 		.word	1178140489
 1401 01fc 6AFF4346 		.word	1178861418
 1402              		.section	.rodata.pbend,"a"
 1403              		.align	2
 1406              	pbend:
 1407 0000 0000003F 		.word	1056964608
 1408 0004 5E2C003F 		.word	1056975966
 1409 0008 DE58003F 		.word	1056987358
 1410 000c 5E85003F 		.word	1056998750
 1411 0010 EEB1003F 		.word	1057010158
 1412 0014 8FDE003F 		.word	1057021583
 1413 0018 410B013F 		.word	1057033025
 1414 001c 0438013F 		.word	1057044484
 1415 0020 D864013F 		.word	1057055960
 1416 0024 AC91013F 		.word	1057067436
 1417 0028 A1BE013F 		.word	1057078945
 1418 002c A7EB013F 		.word	1057090471
 1419 0030 AD18023F 		.word	1057101997
 1420 0034 D445023F 		.word	1057113556
 1421 0038 FC72023F 		.word	1057125116
 1422 003c 34A0023F 		.word	1057136692
 1423 0040 8ECD023F 		.word	1057148302
 1424 0044 E8FA023F 		.word	1057159912
 1425 0048 5228033F 		.word	1057171538
 1426 004c CE55033F 		.word	1057183182
 1427 0050 5A83033F 		.word	1057194842
 1428 0054 F7B0033F 		.word	1057206519
 1429 0058 A4DE033F 		.word	1057218212
 1430 005c 630C043F 		.word	1057229923
 1431 0060 213A043F 		.word	1057241633
 1432 0064 0168043F 		.word	1057253377
 1433 0068 F295043F 		.word	1057265138
 1434 006c E3C3043F 		.word	1057276899
 1435 0070 F5F1043F 		.word	1057288693
 1436 0074 1920053F 		.word	1057300505
 1437 0078 3C4E053F 		.word	1057312316
 1438 007c 707C053F 		.word	1057324144
 1439 0080 C5AA053F 		.word	1057336005
 1440 0084 1BD9053F 		.word	1057347867
 1441 0088 9207063F 		.word	1057359762
 1442 008c 0936063F 		.word	1057371657
 1443 0090 9164063F 		.word	1057383569
 1444 0094 2993063F 		.word	1057395497
 1445 0098 D3C1063F 		.word	1057407443
 1446 009c 9EF0063F 		.word	1057419422
 1447 00a0 681F073F 		.word	1057431400
 1448 00a4 444E073F 		.word	1057443396
 1449 00a8 317D073F 		.word	1057455409
 1450 00ac 2EAC073F 		.word	1057467438
 1451 00b0 3CDB073F 		.word	1057479484
 1452 00b4 5B0A083F 		.word	1057491547
ARM GAS  /var/folders/0z/tsy30v1j4xl4_7kw94k978ww0000gn/T//ccfc537T.s 			page 35


 1453 00b8 7A39083F 		.word	1057503610
 1454 00bc BA68083F 		.word	1057515706
 1455 00c0 0B98083F 		.word	1057527819
 1456 00c4 6DC7083F 		.word	1057539949
 1457 00c8 E0F6083F 		.word	1057552096
 1458 00cc 6326093F 		.word	1057564259
 1459 00d0 E755093F 		.word	1057576423
 1460 00d4 8C85093F 		.word	1057588620
 1461 00d8 42B5093F 		.word	1057600834
 1462 00dc 08E5093F 		.word	1057613064
 1463 00e0 CF140A3F 		.word	1057625295
 1464 00e4 B7440A3F 		.word	1057637559
 1465 00e8 B0740A3F 		.word	1057649840
 1466 00ec A9A40A3F 		.word	1057662121
 1467 00f0 C3D40A3F 		.word	1057674435
 1468 00f4 EE040B3F 		.word	1057686766
 1469 00f8 2B350B3F 		.word	1057699115
 1470 00fc 67650B3F 		.word	1057711463
 1471 0100 C4950B3F 		.word	1057723844
 1472 0104 32C60B3F 		.word	1057736242
 1473 0108 A1F60B3F 		.word	1057748641
 1474 010c 31270C3F 		.word	1057761073
 1475 0110 D1570C3F 		.word	1057773521
 1476 0114 72880C3F 		.word	1057785970
 1477 0118 34B90C3F 		.word	1057798452
 1478 011c 07EA0C3F 		.word	1057810951
 1479 0120 DA1A0D3F 		.word	1057823450
 1480 0124 CF4B0D3F 		.word	1057835983
 1481 0128 D47C0D3F 		.word	1057848532
 1482 012c DAAD0D3F 		.word	1057861082
 1483 0130 01DF0D3F 		.word	1057873665
 1484 0134 38100E3F 		.word	1057886264
 1485 0138 81410E3F 		.word	1057898881
 1486 013c DA720E3F 		.word	1057911514
 1487 0140 33A40E3F 		.word	1057924147
 1488 0144 AED50E3F 		.word	1057936814
 1489 0148 3A070F3F 		.word	1057949498
 1490 014c D6380F3F 		.word	1057962198
 1491 0150 836A0F3F 		.word	1057974915
 1492 0154 419C0F3F 		.word	1057987649
 1493 0158 10CE0F3F 		.word	1058000400
 1494 015c EFFF0F3F 		.word	1058013167
 1495 0160 DF31103F 		.word	1058025951
 1496 0164 E063103F 		.word	1058038752
 1497 0168 F295103F 		.word	1058051570
 1498 016c 15C8103F 		.word	1058064405
 1499 0170 48FA103F 		.word	1058077256
 1500 0174 8C2C113F 		.word	1058090124
 1501 0178 F25E113F 		.word	1058103026
 1502 017c 5891113F 		.word	1058115928
 1503 0180 CEC3113F 		.word	1058128846
 1504 0184 66F6113F 		.word	1058141798
 1505 0188 FE28123F 		.word	1058154750
 1506 018c B85B123F 		.word	1058167736
 1507 0190 718E123F 		.word	1058180721
 1508 0194 4CC1123F 		.word	1058193740
 1509 0198 28F4123F 		.word	1058206760
ARM GAS  /var/folders/0z/tsy30v1j4xl4_7kw94k978ww0000gn/T//ccfc537T.s 			page 36


 1510 019c 2427133F 		.word	1058219812
 1511 01a0 325A133F 		.word	1058232882
 1512 01a4 3F8D133F 		.word	1058245951
 1513 01a8 6EC0133F 		.word	1058259054
 1514 01ac AEF3133F 		.word	1058272174
 1515 01b0 FE26143F 		.word	1058285310
 1516 01b4 605A143F 		.word	1058298464
 1517 01b8 D28D143F 		.word	1058311634
 1518 01bc 55C1143F 		.word	1058324821
 1519 01c0 E8F4143F 		.word	1058338024
 1520 01c4 9E28153F 		.word	1058351262
 1521 01c8 535C153F 		.word	1058364499
 1522 01cc 1990153F 		.word	1058377753
 1523 01d0 00C4153F 		.word	1058391040
 1524 01d4 E8F7153F 		.word	1058404328
 1525 01d8 F12B163F 		.word	1058417649
 1526 01dc 0B60163F 		.word	1058430987
 1527 01e0 2594163F 		.word	1058444325
 1528 01e4 60C8163F 		.word	1058457696
 1529 01e8 ADFC163F 		.word	1058471085
 1530 01ec 0A31173F 		.word	1058484490
 1531 01f0 7765173F 		.word	1058497911
 1532 01f4 079A173F 		.word	1058511367
 1533 01f8 96CE173F 		.word	1058524822
 1534 01fc 3603183F 		.word	1058538294
 1535 0200 F837183F 		.word	1058551800
 1536 0204 B96C183F 		.word	1058565305
 1537 0208 9DA1183F 		.word	1058578845
 1538 020c 80D6183F 		.word	1058592384
 1539 0210 850B193F 		.word	1058605957
 1540 0214 9A40193F 		.word	1058619546
 1541 0218 C075193F 		.word	1058633152
 1542 021c F8AA193F 		.word	1058646776
 1543 0220 3FE0193F 		.word	1058660415
 1544 0224 A9151A3F 		.word	1058674089
 1545 0228 124B1A3F 		.word	1058687762
 1546 022c 9D801A3F 		.word	1058701469
 1547 0230 28B61A3F 		.word	1058715176
 1548 0234 D5EB1A3F 		.word	1058728917
 1549 0238 92211B3F 		.word	1058742674
 1550 023c 60571B3F 		.word	1058756448
 1551 0240 3F8D1B3F 		.word	1058770239
 1552 0244 2FC31B3F 		.word	1058784047
 1553 0248 2FF91B3F 		.word	1058797871
 1554 024c 512F1C3F 		.word	1058811729
 1555 0250 73651C3F 		.word	1058825587
 1556 0254 B79B1C3F 		.word	1058839479
 1557 0258 FAD11C3F 		.word	1058853370
 1558 025c 5F081D3F 		.word	1058867295
 1559 0260 D53E1D3F 		.word	1058881237
 1560 0264 5C751D3F 		.word	1058895196
 1561 0268 04AC1D3F 		.word	1058909188
 1562 026c ACE21D3F 		.word	1058923180
 1563 0270 76191E3F 		.word	1058937206
 1564 0274 40501E3F 		.word	1058951232
 1565 0278 2B871E3F 		.word	1058965291
 1566 027c 27BE1E3F 		.word	1058979367
ARM GAS  /var/folders/0z/tsy30v1j4xl4_7kw94k978ww0000gn/T//ccfc537T.s 			page 37


 1567 0280 34F51E3F 		.word	1058993460
 1568 0284 522C1F3F 		.word	1059007570
 1569 0288 80631F3F 		.word	1059021696
 1570 028c D09A1F3F 		.word	1059035856
 1571 0290 20D21F3F 		.word	1059050016
 1572 0294 9109203F 		.word	1059064209
 1573 0298 1441203F 		.word	1059078420
 1574 029c A778203F 		.word	1059092647
 1575 02a0 4BB0203F 		.word	1059106891
 1576 02a4 10E8203F 		.word	1059121168
 1577 02a8 D61F213F 		.word	1059135446
 1578 02ac BC57213F 		.word	1059149756
 1579 02b0 B48F213F 		.word	1059164084
 1580 02b4 BDC7213F 		.word	1059178429
 1581 02b8 D6FF213F 		.word	1059192790
 1582 02bc 0038223F 		.word	1059207168
 1583 02c0 3B70223F 		.word	1059221563
 1584 02c4 97A8223F 		.word	1059235991
 1585 02c8 05E1223F 		.word	1059250437
 1586 02cc 8319233F 		.word	1059264899
 1587 02d0 1152233F 		.word	1059279377
 1588 02d4 B18A233F 		.word	1059293873
 1589 02d8 72C3233F 		.word	1059308402
 1590 02dc 33FC233F 		.word	1059322931
 1591 02e0 1635243F 		.word	1059337494
 1592 02e4 096E243F 		.word	1059352073
 1593 02e8 0DA7243F 		.word	1059366669
 1594 02ec 22E0243F 		.word	1059381282
 1595 02f0 5919253F 		.word	1059395929
 1596 02f4 A052253F 		.word	1059410592
 1597 02f8 E78B253F 		.word	1059425255
 1598 02fc 61C5253F 		.word	1059439969
 1599 0300 DAFE253F 		.word	1059454682
 1600 0304 6538263F 		.word	1059469413
 1601 0308 1172263F 		.word	1059484177
 1602 030c CDAB263F 		.word	1059498957
 1603 0310 9BE5263F 		.word	1059513755
 1604 0314 791F273F 		.word	1059528569
 1605 0318 6859273F 		.word	1059543400
 1606 031c 7993273F 		.word	1059558265
 1607 0320 9ACD273F 		.word	1059573146
 1608 0324 CC07283F 		.word	1059588044
 1609 0328 0F42283F 		.word	1059602959
 1610 032c 637C283F 		.word	1059617891
 1611 0330 D8B6283F 		.word	1059632856
 1612 0334 5EF1283F 		.word	1059647838
 1613 0338 F52B293F 		.word	1059662837
 1614 033c 9D66293F 		.word	1059677853
 1615 0340 55A1293F 		.word	1059692885
 1616 0344 2FDC293F 		.word	1059707951
 1617 0348 1A172A3F 		.word	1059723034
 1618 034c 15522A3F 		.word	1059738133
 1619 0350 228D2A3F 		.word	1059753250
 1620 0354 50C82A3F 		.word	1059768400
 1621 0358 8E032B3F 		.word	1059783566
 1622 035c DE3E2B3F 		.word	1059798750
 1623 0360 3E7A2B3F 		.word	1059813950
ARM GAS  /var/folders/0z/tsy30v1j4xl4_7kw94k978ww0000gn/T//ccfc537T.s 			page 38


 1624 0364 AFB52B3F 		.word	1059829167
 1625 0368 41F12B3F 		.word	1059844417
 1626 036c E42C2C3F 		.word	1059859684
 1627 0370 98682C3F 		.word	1059874968
 1628 0374 5DA42C3F 		.word	1059890269
 1629 0378 44E02C3F 		.word	1059905604
 1630 037c 3B1C2D3F 		.word	1059920955
 1631 0380 43582D3F 		.word	1059936323
 1632 0384 5B942D3F 		.word	1059951707
 1633 0388 96D02D3F 		.word	1059967126
 1634 038c D00C2E3F 		.word	1059982544
 1635 0390 3D492E3F 		.word	1059998013
 1636 0394 A9852E3F 		.word	1060013481
 1637 0398 27C22E3F 		.word	1060028967
 1638 039c C5FE2E3F 		.word	1060044485
 1639 03a0 753B2F3F 		.word	1060060021
 1640 03a4 46782F3F 		.word	1060075590
 1641 03a8 18B52F3F 		.word	1060091160
 1642 03ac 0AF22F3F 		.word	1060106762
 1643 03b0 0E2F303F 		.word	1060122382
 1644 03b4 226C303F 		.word	1060138018
 1645 03b8 58A9303F 		.word	1060153688
 1646 03bc 9FE6303F 		.word	1060169375
 1647 03c0 F623313F 		.word	1060185078
 1648 03c4 5F61313F 		.word	1060200799
 1649 03c8 E99E313F 		.word	1060216553
 1650 03cc 83DC313F 		.word	1060232323
 1651 03d0 2E1A323F 		.word	1060248110
 1652 03d4 FB57323F 		.word	1060263931
 1653 03d8 C895323F 		.word	1060279752
 1654 03dc C8D3323F 		.word	1060295624
 1655 03e0 C711333F 		.word	1060311495
 1656 03e4 D74F333F 		.word	1060327383
 1657 03e8 088E333F 		.word	1060343304
 1658 03ec 5CCC333F 		.word	1060359260
 1659 03f0 AF0A343F 		.word	1060375215
 1660 03f4 2349343F 		.word	1060391203
 1661 03f8 A987343F 		.word	1060407209
 1662 03fc 3FC6343F 		.word	1060423231
 1663 0400 F704353F 		.word	1060439287
 1664 0404 BF43353F 		.word	1060455359
 1665 0408 9982353F 		.word	1060471449
 1666 040c 83C1353F 		.word	1060487555
 1667 0410 8F00363F 		.word	1060503695
 1668 0414 AB3F363F 		.word	1060519851
 1669 0418 E97E363F 		.word	1060536041
 1670 041c 38BE363F 		.word	1060552248
 1671 0420 97FD363F 		.word	1060568471
 1672 0424 083D373F 		.word	1060584712
 1673 0428 9A7C373F 		.word	1060600986
 1674 042c 3CBC373F 		.word	1060617276
 1675 0430 F0FB373F 		.word	1060633584
 1676 0434 C53B383F 		.word	1060649925
 1677 0438 AB7B383F 		.word	1060666283
 1678 043c A1BB383F 		.word	1060682657
 1679 0440 A9FB383F 		.word	1060699049
 1680 0444 D13B393F 		.word	1060715473
ARM GAS  /var/folders/0z/tsy30v1j4xl4_7kw94k978ww0000gn/T//ccfc537T.s 			page 39


 1681 0448 1C7C393F 		.word	1060731932
 1682 044c 66BC393F 		.word	1060748390
 1683 0450 D2FC393F 		.word	1060764882
 1684 0454 4F3D3A3F 		.word	1060781391
 1685 0458 ED7D3A3F 		.word	1060797933
 1686 045c 9DBE3A3F 		.word	1060814493
 1687 0460 5CFF3A3F 		.word	1060831068
 1688 0464 2D403B3F 		.word	1060847661
 1689 0468 1F813B3F 		.word	1060864287
 1690 046c 33C23B3F 		.word	1060880947
 1691 0470 47033C3F 		.word	1060897607
 1692 0474 7C443C3F 		.word	1060914300
 1693 0478 C2853C3F 		.word	1060931010
 1694 047c 2AC73C3F 		.word	1060947754
 1695 0480 A2083D3F 		.word	1060964514
 1696 0484 2C4A3D3F 		.word	1060981292
 1697 0488 D68B3D3F 		.word	1060998102
 1698 048c 92CD3D3F 		.word	1061014930
 1699 0490 6F0F3E3F 		.word	1061031791
 1700 0494 4C513E3F 		.word	1061048652
 1701 0498 4B933E3F 		.word	1061065547
 1702 049c 6BD53E3F 		.word	1061082475
 1703 04a0 9C173F3F 		.word	1061099420
 1704 04a4 DE593F3F 		.word	1061116382
 1705 04a8 419C3F3F 		.word	1061133377
 1706 04ac B5DE3F3F 		.word	1061150389
 1707 04b0 3A21403F 		.word	1061167418
 1708 04b4 E063403F 		.word	1061184480
 1709 04b8 98A6403F 		.word	1061201560
 1710 04bc 60E9403F 		.word	1061218656
 1711 04c0 492C413F 		.word	1061235785
 1712 04c4 446F413F 		.word	1061252932
 1713 04c8 5FB2413F 		.word	1061270111
 1714 04cc 8CF5413F 		.word	1061287308
 1715 04d0 DA38423F 		.word	1061304538
 1716 04d4 287C423F 		.word	1061321768
 1717 04d8 A9BF423F 		.word	1061339049
 1718 04dc 2A03433F 		.word	1061356330
 1719 04e0 CC46433F 		.word	1061373644
 1720 04e4 7E8A433F 		.word	1061390974
 1721 04e8 53CE433F 		.word	1061408339
 1722 04ec 3812443F 		.word	1061425720
 1723 04f0 3F56443F 		.word	1061443135
 1724 04f4 569A443F 		.word	1061460566
 1725 04f8 7FDE443F 		.word	1061478015
 1726 04fc C922453F 		.word	1061495497
 1727 0500 2367453F 		.word	1061512995
 1728 0504 9FAB453F 		.word	1061530527
 1729 0508 2CF0453F 		.word	1061548076
 1730 050c DB34463F 		.word	1061565659
 1731 0510 8979463F 		.word	1061583241
 1732 0514 6ABE463F 		.word	1061600874
 1733 0518 4B03473F 		.word	1061618507
 1734 051c 5E48473F 		.word	1061636190
 1735 0520 718D473F 		.word	1061653873
 1736 0524 A6D2473F 		.word	1061671590
 1737 0528 FC17483F 		.word	1061689340
ARM GAS  /var/folders/0z/tsy30v1j4xl4_7kw94k978ww0000gn/T//ccfc537T.s 			page 40


 1738 052c 645D483F 		.word	1061707108
 1739 0530 DBA2483F 		.word	1061724891
 1740 0534 75E8483F 		.word	1061742709
 1741 0538 1F2E493F 		.word	1061760543
 1742 053c DA73493F 		.word	1061778394
 1743 0540 B6B9493F 		.word	1061796278
 1744 0544 B5FF493F 		.word	1061814197
 1745 0548 C3454A3F 		.word	1061832131
 1746 054c E38B4A3F 		.word	1061850083
 1747 0550 24D24A3F 		.word	1061868068
 1748 0554 76184B3F 		.word	1061886070
 1749 0558 EA5E4B3F 		.word	1061904106
 1750 055c 6EA54B3F 		.word	1061922158
 1751 0560 14EC4B3F 		.word	1061940244
 1752 0564 CA324C3F 		.word	1061958346
 1753 0568 A3794C3F 		.word	1061976483
 1754 056c 8BC04C3F 		.word	1061994635
 1755 0570 85074D3F 		.word	1062012805
 1756 0574 A04E4D3F 		.word	1062031008
 1757 0578 DD954D3F 		.word	1062049245
 1758 057c 2BDD4D3F 		.word	1062067499
 1759 0580 89244E3F 		.word	1062085769
 1760 0584 096C4E3F 		.word	1062104073
 1761 0588 9AB34E3F 		.word	1062122394
 1762 058c 4CFB4E3F 		.word	1062140748
 1763 0590 20434F3F 		.word	1062159136
 1764 0594 F48A4F3F 		.word	1062177524
 1765 0598 FAD24F3F 		.word	1062195962
 1766 059c 001B503F 		.word	1062214400
 1767 05a0 3963503F 		.word	1062232889
 1768 05a4 71AB503F 		.word	1062251377
 1769 05a8 DCF3503F 		.word	1062269916
 1770 05ac 473C513F 		.word	1062288455
 1771 05b0 E484513F 		.word	1062307044
 1772 05b4 81CD513F 		.word	1062325633
 1773 05b8 5116523F 		.word	1062344273
 1774 05bc 205F523F 		.word	1062362912
 1775 05c0 22A8523F 		.word	1062381602
 1776 05c4 35F1523F 		.word	1062400309
 1777 05c8 583A533F 		.word	1062419032
 1778 05cc 9D83533F 		.word	1062437789
 1779 05d0 F3CC533F 		.word	1062456563
 1780 05d4 6A16543F 		.word	1062475370
 1781 05d8 F25F543F 		.word	1062494194
 1782 05dc 9BA9543F 		.word	1062513051
 1783 05e0 56F3543F 		.word	1062531926
 1784 05e4 323D553F 		.word	1062550834
 1785 05e8 2F87553F 		.word	1062569775
 1786 05ec 3DD1553F 		.word	1062588733
 1787 05f0 5C1B563F 		.word	1062607708
 1788 05f4 9D65563F 		.word	1062626717
 1789 05f8 FFAF563F 		.word	1062645759
 1790 05fc 72FA563F 		.word	1062664818
 1791 0600 F644573F 		.word	1062683894
 1792 0604 AC8F573F 		.word	1062703020
 1793 0608 62DA573F 		.word	1062722146
 1794 060c 4A25583F 		.word	1062741322
ARM GAS  /var/folders/0z/tsy30v1j4xl4_7kw94k978ww0000gn/T//ccfc537T.s 			page 41


 1795 0610 3370583F 		.word	1062760499
 1796 0614 4DBB583F 		.word	1062779725
 1797 0618 7906593F 		.word	1062798969
 1798 061c B551593F 		.word	1062818229
 1799 0620 139D593F 		.word	1062837523
 1800 0624 92E8593F 		.word	1062856850
 1801 0628 22345A3F 		.word	1062876194
 1802 062c D47F5A3F 		.word	1062895572
 1803 0630 96CB5A3F 		.word	1062914966
 1804 0634 7A175B3F 		.word	1062934394
 1805 0638 6F635B3F 		.word	1062953839
 1806 063c 86AF5B3F 		.word	1062973318
 1807 0640 BDFB5B3F 		.word	1062992829
 1808 0644 06485C3F 		.word	1063012358
 1809 0648 60945C3F 		.word	1063031904
 1810 064c EBE05C3F 		.word	1063051499
 1811 0650 882D5D3F 		.word	1063071112
 1812 0654 357A5D3F 		.word	1063090741
 1813 0658 04C75D3F 		.word	1063110404
 1814 065c F5135E3F 		.word	1063130101
 1815 0660 F6605E3F 		.word	1063149814
 1816 0664 19AE5E3F 		.word	1063169561
 1817 0668 4CFB5E3F 		.word	1063189324
 1818 066c A1485F3F 		.word	1063209121
 1819 0670 18965F3F 		.word	1063228952
 1820 0674 9FE35F3F 		.word	1063248799
 1821 0678 4831603F 		.word	1063268680
 1822 067c 027F603F 		.word	1063288578
 1823 0680 DECC603F 		.word	1063308510
 1824 0684 DA1A613F 		.word	1063328474
 1825 0688 E868613F 		.word	1063348456
 1826 068c 17B7613F 		.word	1063368471
 1827 0690 5705623F 		.word	1063388503
 1828 0694 B953623F 		.word	1063408569
 1829 0698 3CA2623F 		.word	1063428668
 1830 069c D0F0623F 		.word	1063448784
 1831 06a0 853F633F 		.word	1063468933
 1832 06a4 5C8E633F 		.word	1063489116
 1833 06a8 44DD633F 		.word	1063509316
 1834 06ac 4D2C643F 		.word	1063529549
 1835 06b0 677B643F 		.word	1063549799
 1836 06b4 A3CA643F 		.word	1063570083
 1837 06b8 001A653F 		.word	1063590400
 1838 06bc 7F69653F 		.word	1063610751
 1839 06c0 0FB9653F 		.word	1063631119
 1840 06c4 AF08663F 		.word	1063651503
 1841 06c8 8258663F 		.word	1063671938
 1842 06cc 54A8663F 		.word	1063692372
 1843 06d0 59F8663F 		.word	1063712857
 1844 06d4 6F48673F 		.word	1063733359
 1845 06d8 A698673F 		.word	1063753894
 1846 06dc FFE8673F 		.word	1063774463
 1847 06e0 6939683F 		.word	1063795049
 1848 06e4 F489683F 		.word	1063815668
 1849 06e8 A1DA683F 		.word	1063836321
 1850 06ec 5E2B693F 		.word	1063856990
 1851 06f0 3D7C693F 		.word	1063877693
ARM GAS  /var/folders/0z/tsy30v1j4xl4_7kw94k978ww0000gn/T//ccfc537T.s 			page 42


 1852 06f4 2DCD693F 		.word	1063898413
 1853 06f8 4F1E6A3F 		.word	1063919183
 1854 06fc 726F6A3F 		.word	1063939954
 1855 0700 C6C06A3F 		.word	1063960774
 1856 0704 2B126B3F 		.word	1063981611
 1857 0708 B2636B3F 		.word	1064002482
 1858 070c 5BB56B3F 		.word	1064023387
 1859 0710 14076C3F 		.word	1064044308
 1860 0714 EF586C3F 		.word	1064065263
 1861 0718 EBAA6C3F 		.word	1064086251
 1862 071c F8FC6C3F 		.word	1064107256
 1863 0720 374F6D3F 		.word	1064128311
 1864 0724 77A16D3F 		.word	1064149367
 1865 0728 E9F36D3F 		.word	1064170473
 1866 072c 6B466E3F 		.word	1064191595
 1867 0730 0F996E3F 		.word	1064212751
 1868 0734 D5EB6E3F 		.word	1064233941
 1869 0738 AB3E6F3F 		.word	1064255147
 1870 073c A3916F3F 		.word	1064276387
 1871 0740 BDE46F3F 		.word	1064297661
 1872 0744 E737703F 		.word	1064318951
 1873 0748 448B703F 		.word	1064340292
 1874 074c A0DE703F 		.word	1064361632
 1875 0750 2F32713F 		.word	1064383023
 1876 0754 CF85713F 		.word	1064404431
 1877 0758 A1D9713F 		.word	1064425889
 1878 075c 732D723F 		.word	1064447347
 1879 0760 7781723F 		.word	1064468855
 1880 0764 8DD5723F 		.word	1064490381
 1881 0768 C329733F 		.word	1064511939
 1882 076c 1C7E733F 		.word	1064533532
 1883 0770 95D2733F 		.word	1064555157
 1884 0774 2027743F 		.word	1064576800
 1885 0778 CC7B743F 		.word	1064598476
 1886 077c 9AD0743F 		.word	1064620186
 1887 0780 7825753F 		.word	1064641912
 1888 0784 897A753F 		.word	1064663689
 1889 0788 ABCF753F 		.word	1064685483
 1890 078c DD24763F 		.word	1064707293
 1891 0790 427A763F 		.word	1064729154
 1892 0794 B7CF763F 		.word	1064751031
 1893 0798 4E25773F 		.word	1064772942
 1894 079c 077B773F 		.word	1064794887
 1895 07a0 E1D0773F 		.word	1064816865
 1896 07a4 CC26783F 		.word	1064838860
 1897 07a8 D97C783F 		.word	1064860889
 1898 07ac 07D3783F 		.word	1064882951
 1899 07b0 5629793F 		.word	1064905046
 1900 07b4 C77F793F 		.word	1064927175
 1901 07b8 49D6793F 		.word	1064949321
 1902 07bc ED2C7A3F 		.word	1064971501
 1903 07c0 B2837A3F 		.word	1064993714
 1904 07c4 98DA7A3F 		.word	1065015960
 1905 07c8 90317B3F 		.word	1065038224
 1906 07cc B9887B3F 		.word	1065060537
 1907 07d0 F4DF7B3F 		.word	1065082868
 1908 07d4 50377C3F 		.word	1065105232
ARM GAS  /var/folders/0z/tsy30v1j4xl4_7kw94k978ww0000gn/T//ccfc537T.s 			page 43


 1909 07d8 BD8E7C3F 		.word	1065127613
 1910 07dc 5CE67C3F 		.word	1065150044
 1911 07e0 0C3E7D3F 		.word	1065172492
 1912 07e4 DD957D3F 		.word	1065194973
 1913 07e8 D0ED7D3F 		.word	1065217488
 1914 07ec E5457E3F 		.word	1065240037
 1915 07f0 0A9E7E3F 		.word	1065262602
 1916 07f4 62F67E3F 		.word	1065285218
 1917 07f8 CA4E7F3F 		.word	1065307850
 1918 07fc 54A77F3F 		.word	1065330516
 1919 0800 0000803F 		.word	1065353216
 1920 0804 772C803F 		.word	1065364599
 1921 0808 0859803F 		.word	1065376008
 1922 080c A185803F 		.word	1065387425
 1923 0810 4AB2803F 		.word	1065398858
 1924 0814 FCDE803F 		.word	1065410300
 1925 0818 C80B813F 		.word	1065421768
 1926 081c 9B38813F 		.word	1065433243
 1927 0820 8865813F 		.word	1065444744
 1928 0824 7D92813F 		.word	1065456253
 1929 0828 83BF813F 		.word	1065467779
 1930 082c 9AEC813F 		.word	1065479322
 1931 0830 C119823F 		.word	1065490881
 1932 0834 F146823F 		.word	1065502449
 1933 0838 3A74823F 		.word	1065514042
 1934 083c 8CA1823F 		.word	1065525644
 1935 0840 EECE823F 		.word	1065537262
 1936 0844 69FC823F 		.word	1065548905
 1937 0848 ED29833F 		.word	1065560557
 1938 084c 8257833F 		.word	1065572226
 1939 0850 1F85833F 		.word	1065583903
 1940 0854 D5B2833F 		.word	1065595605
 1941 0858 9CE0833F 		.word	1065607324
 1942 085c 6B0E843F 		.word	1065619051
 1943 0860 533C843F 		.word	1065630803
 1944 0864 446A843F 		.word	1065642564
 1945 0868 4698843F 		.word	1065654342
 1946 086c 58C6843F 		.word	1065666136
 1947 0870 7BF4843F 		.word	1065677947
 1948 0874 AF22853F 		.word	1065689775
 1949 0878 F450853F 		.word	1065701620
 1950 087c 4A7F853F 		.word	1065713482
 1951 0880 A7AD853F 		.word	1065725351
 1952 0884 1EDC853F 		.word	1065737246
 1953 0888 9E0A863F 		.word	1065749150
 1954 088c 3739863F 		.word	1065761079
 1955 0890 D767863F 		.word	1065773015
 1956 0894 9296863F 		.word	1065784978
 1957 0898 54C5863F 		.word	1065796948
 1958 089c 28F4863F 		.word	1065808936
 1959 08a0 0C23873F 		.word	1065820940
 1960 08a4 0052873F 		.word	1065832960
 1961 08a8 0681873F 		.word	1065844998
 1962 08ac 1DB0873F 		.word	1065857053
 1963 08b0 44DF873F 		.word	1065869124
 1964 08b4 7C0E883F 		.word	1065881212
 1965 08b8 C53D883F 		.word	1065893317
ARM GAS  /var/folders/0z/tsy30v1j4xl4_7kw94k978ww0000gn/T//ccfc537T.s 			page 44


 1966 08bc 166D883F 		.word	1065905430
 1967 08c0 809C883F 		.word	1065917568
 1968 08c4 FBCB883F 		.word	1065929723
 1969 08c8 7FFB883F 		.word	1065941887
 1970 08cc 1B2B893F 		.word	1065954075
 1971 08d0 C95A893F 		.word	1065966281
 1972 08d4 7E8A893F 		.word	1065978494
 1973 08d8 4DBA893F 		.word	1065990733
 1974 08dc 25EA893F 		.word	1066002981
 1975 08e0 151A8A3F 		.word	1066015253
 1976 08e4 0E4A8A3F 		.word	1066027534
 1977 08e8 207A8A3F 		.word	1066039840
 1978 08ec 3BAA8A3F 		.word	1066052155
 1979 08f0 6EDA8A3F 		.word	1066064494
 1980 08f4 AA0A8B3F 		.word	1066076842
 1981 08f8 003B8B3F 		.word	1066089216
 1982 08fc 5D6B8B3F 		.word	1066101597
 1983 0900 D49B8B3F 		.word	1066114004
 1984 0904 53CC8B3F 		.word	1066126419
 1985 0908 EBFC8B3F 		.word	1066138859
 1986 090c 8C2D8C3F 		.word	1066151308
 1987 0910 465E8C3F 		.word	1066163782
 1988 0914 088F8C3F 		.word	1066176264
 1989 0918 E4BF8C3F 		.word	1066188772
 1990 091c C7F08C3F 		.word	1066201287
 1991 0920 C4218D3F 		.word	1066213828
 1992 0924 D2528D3F 		.word	1066226386
 1993 0928 E8838D3F 		.word	1066238952
 1994 092c 18B58D3F 		.word	1066251544
 1995 0930 58E68D3F 		.word	1066264152
 1996 0934 A0178E3F 		.word	1066276768
 1997 0938 02498E3F 		.word	1066289410
 1998 093c 747A8E3F 		.word	1066302068
 1999 0940 F7AB8E3F 		.word	1066314743
 2000 0944 8BDD8E3F 		.word	1066327435
 2001 0948 300F8F3F 		.word	1066340144
 2002 094c E6408F3F 		.word	1066352870
 2003 0950 AC728F3F 		.word	1066365612
 2004 0954 83A48F3F 		.word	1066378371
 2005 0958 73D68F3F 		.word	1066391155
 2006 095c 6C08903F 		.word	1066403948
 2007 0960 753A903F 		.word	1066416757
 2008 0964 986C903F 		.word	1066429592
 2009 0968 C39E903F 		.word	1066442435
 2010 096c 07D1903F 		.word	1066455303
 2011 0970 5C03913F 		.word	1066468188
 2012 0974 B935913F 		.word	1066481081
 2013 0978 3068913F 		.word	1066494000
 2014 097c B79A913F 		.word	1066506935
 2015 0980 4FCD913F 		.word	1066519887
 2016 0984 F8FF913F 		.word	1066532856
 2017 0988 BA32923F 		.word	1066545850
 2018 098c 8465923F 		.word	1066558852
 2019 0990 6798923F 		.word	1066571879
 2020 0994 53CB923F 		.word	1066584915
 2021 0998 58FE923F 		.word	1066597976
 2022 099c 6E31933F 		.word	1066611054
ARM GAS  /var/folders/0z/tsy30v1j4xl4_7kw94k978ww0000gn/T//ccfc537T.s 			page 45


 2023 09a0 8C64933F 		.word	1066624140
 2024 09a4 C497933F 		.word	1066637252
 2025 09a8 14CB933F 		.word	1066650388
 2026 09ac 6DFE933F 		.word	1066663533
 2027 09b0 D731943F 		.word	1066676695
 2028 09b4 5A65943F 		.word	1066689882
 2029 09b8 E598943F 		.word	1066703077
 2030 09bc 8ACC943F 		.word	1066716298
 2031 09c0 3F00953F 		.word	1066729535
 2032 09c4 0534953F 		.word	1066742789
 2033 09c8 E467953F 		.word	1066756068
 2034 09cc CC9B953F 		.word	1066769356
 2035 09d0 C4CF953F 		.word	1066782660
 2036 09d4 D503963F 		.word	1066795989
 2037 09d8 F837963F 		.word	1066809336
 2038 09dc 2B6C963F 		.word	1066822699
 2039 09e0 6FA0963F 		.word	1066836079
 2040 09e4 C3D4963F 		.word	1066849475
 2041 09e8 3109973F 		.word	1066862897
 2042 09ec B03D973F 		.word	1066876336
 2043 09f0 3672973F 		.word	1066889782
 2044 09f4 D7A6973F 		.word	1066903255
 2045 09f8 90DB973F 		.word	1066916752
 2046 09fc 5210983F 		.word	1066930258
 2047 0a00 2445983F 		.word	1066943780
 2048 0a04 107A983F 		.word	1066957328
 2049 0a08 0CAF983F 		.word	1066970892
 2050 0a0c 19E4983F 		.word	1066984473
 2051 0a10 3F19993F 		.word	1066998079
 2052 0a14 6E4E993F 		.word	1067011694
 2053 0a18 B683993F 		.word	1067025334
 2054 0a1c 0FB9993F 		.word	1067038991
 2055 0a20 78EE993F 		.word	1067052664
 2056 0a24 F2239A3F 		.word	1067066354
 2057 0a28 86599A3F 		.word	1067080070
 2058 0a2c 2A8F9A3F 		.word	1067093802
 2059 0a30 DFC49A3F 		.word	1067107551
 2060 0a34 A4FA9A3F 		.word	1067121316
 2061 0a38 7B309B3F 		.word	1067135099
 2062 0a3c 6B669B3F 		.word	1067148907
 2063 0a40 6B9C9B3F 		.word	1067162731
 2064 0a44 7CD29B3F 		.word	1067176572
 2065 0a48 A7089C3F 		.word	1067190439
 2066 0a4c D93E9C3F 		.word	1067204313
 2067 0a50 25759C3F 		.word	1067218213
 2068 0a54 82AB9C3F 		.word	1067232130
 2069 0a58 F8E19C3F 		.word	1067246072
 2070 0a5c 76189D3F 		.word	1067260022
 2071 0a60 0E4F9D3F 		.word	1067273998
 2072 0a64 BE859D3F 		.word	1067287998
 2073 0a68 77BC9D3F 		.word	1067302007
 2074 0a6c 49F39D3F 		.word	1067316041
 2075 0a70 2C2A9E3F 		.word	1067330092
 2076 0a74 20619E3F 		.word	1067344160
 2077 0a78 24989E3F 		.word	1067358244
 2078 0a7c 42CF9E3F 		.word	1067372354
 2079 0a80 70069F3F 		.word	1067386480
ARM GAS  /var/folders/0z/tsy30v1j4xl4_7kw94k978ww0000gn/T//ccfc537T.s 			page 46


 2080 0a84 B83D9F3F 		.word	1067400632
 2081 0a88 08759F3F 		.word	1067414792
 2082 0a8c 71AC9F3F 		.word	1067428977
 2083 0a90 F3E39F3F 		.word	1067443187
 2084 0a94 7E1BA03F 		.word	1067457406
 2085 0a98 2253A03F 		.word	1067471650
 2086 0a9c D78AA03F 		.word	1067485911
 2087 0aa0 A4C2A03F 		.word	1067500196
 2088 0aa4 7BFAA03F 		.word	1067514491
 2089 0aa8 7232A13F 		.word	1067528818
 2090 0aac 726AA13F 		.word	1067543154
 2091 0ab0 8CA2A13F 		.word	1067557516
 2092 0ab4 B6DAA13F 		.word	1067571894
 2093 0ab8 F112A23F 		.word	1067586289
 2094 0abc 454BA23F 		.word	1067600709
 2095 0ac0 A983A23F 		.word	1067615145
 2096 0ac4 1FBCA23F 		.word	1067629599
 2097 0ac8 AEF4A23F 		.word	1067644078
 2098 0acc 4D2DA33F 		.word	1067658573
 2099 0ad0 FE65A33F 		.word	1067673086
 2100 0ad4 C79EA33F 		.word	1067687623
 2101 0ad8 A1D7A33F 		.word	1067702177
 2102 0adc 9510A43F 		.word	1067716757
 2103 0ae0 9949A43F 		.word	1067731353
 2104 0ae4 AE82A43F 		.word	1067745966
 2105 0ae8 D4BBA43F 		.word	1067760596
 2106 0aec 12F5A43F 		.word	1067775250
 2107 0af0 622EA53F 		.word	1067789922
 2108 0af4 CB67A53F 		.word	1067804619
 2109 0af8 45A1A53F 		.word	1067819333
 2110 0afc D7DAA53F 		.word	1067834071
 2111 0b00 7214A63F 		.word	1067848818
 2112 0b04 2F4EA63F 		.word	1067863599
 2113 0b08 F487A63F 		.word	1067878388
 2114 0b0c D3C1A63F 		.word	1067893203
 2115 0b10 CAFBA63F 		.word	1067908042
 2116 0b14 CA35A73F 		.word	1067922890
 2117 0b18 E36FA73F 		.word	1067937763
 2118 0b1c 15AAA73F 		.word	1067952661
 2119 0b20 58E4A73F 		.word	1067967576
 2120 0b24 AC1EA83F 		.word	1067982508
 2121 0b28 1959A83F 		.word	1067997465
 2122 0b2c 9693A83F 		.word	1068012438
 2123 0b30 2DCEA83F 		.word	1068027437
 2124 0b34 D508A93F 		.word	1068042453
 2125 0b38 9643A93F 		.word	1068057494
 2126 0b3c 677EA93F 		.word	1068072551
 2127 0b40 49B9A93F 		.word	1068087625
 2128 0b44 45F4A93F 		.word	1068102725
 2129 0b48 512FAA3F 		.word	1068117841
 2130 0b4c 776AAA3F 		.word	1068132983
 2131 0b50 ADA5AA3F 		.word	1068148141
 2132 0b54 FCE0AA3F 		.word	1068163324
 2133 0b58 5C1CAB3F 		.word	1068178524
 2134 0b5c CD57AB3F 		.word	1068193741
 2135 0b60 5793AB3F 		.word	1068208983
 2136 0b64 FBCEAB3F 		.word	1068224251
ARM GAS  /var/folders/0z/tsy30v1j4xl4_7kw94k978ww0000gn/T//ccfc537T.s 			page 47


 2137 0b68 AF0AAC3F 		.word	1068239535
 2138 0b6c 7446AC3F 		.word	1068254836
 2139 0b70 5182AC3F 		.word	1068270161
 2140 0b74 40BEAC3F 		.word	1068285504
 2141 0b78 48FAAC3F 		.word	1068300872
 2142 0b7c 6936AD3F 		.word	1068316265
 2143 0b80 9372AD3F 		.word	1068331667
 2144 0b84 DEAEAD3F 		.word	1068347102
 2145 0b88 3AEBAD3F 		.word	1068362554
 2146 0b8c A627AE3F 		.word	1068378022
 2147 0b90 2C64AE3F 		.word	1068393516
 2148 0b94 C3A0AE3F 		.word	1068409027
 2149 0b98 72DDAE3F 		.word	1068424562
 2150 0b9c 331AAF3F 		.word	1068440115
 2151 0ba0 0C57AF3F 		.word	1068455692
 2152 0ba4 FF93AF3F 		.word	1068471295
 2153 0ba8 FAD0AF3F 		.word	1068486906
 2154 0bac 170EB03F 		.word	1068502551
 2155 0bb0 454BB03F 		.word	1068518213
 2156 0bb4 8388B03F 		.word	1068533891
 2157 0bb8 DAC5B03F 		.word	1068549594
 2158 0bbc 4B03B13F 		.word	1068565323
 2159 0bc0 CC40B13F 		.word	1068581068
 2160 0bc4 677EB13F 		.word	1068596839
 2161 0bc8 12BCB13F 		.word	1068612626
 2162 0bcc D7F9B13F 		.word	1068628439
 2163 0bd0 AC37B23F 		.word	1068644268
 2164 0bd4 9B75B23F 		.word	1068660123
 2165 0bd8 A2B3B23F 		.word	1068676002
 2166 0bdc BBF1B23F 		.word	1068691899
 2167 0be0 E42FB33F 		.word	1068707812
 2168 0be4 266EB33F 		.word	1068723750
 2169 0be8 82ACB33F 		.word	1068739714
 2170 0bec EEEAB33F 		.word	1068755694
 2171 0bf0 7429B43F 		.word	1068771700
 2172 0bf4 1268B43F 		.word	1068787730
 2173 0bf8 C2A6B43F 		.word	1068803778
 2174 0bfc 8AE5B43F 		.word	1068819850
 2175 0c00 6424B53F 		.word	1068835940
 2176 0c04 5663B53F 		.word	1068852054
 2177 0c08 59A2B53F 		.word	1068868185
 2178 0c0c 7EE1B53F 		.word	1068884350
 2179 0c10 AB20B63F 		.word	1068900523
 2180 0c14 FA5FB63F 		.word	1068916730
 2181 0c18 5A9FB63F 		.word	1068932954
 2182 0c1c CADEB63F 		.word	1068949194
 2183 0c20 5C1EB73F 		.word	1068965468
 2184 0c24 F65DB73F 		.word	1068981750
 2185 0c28 B29DB73F 		.word	1068998066
 2186 0c2c 7FDDB73F 		.word	1069014399
 2187 0c30 651DB83F 		.word	1069030757
 2188 0c34 5B5DB83F 		.word	1069047131
 2189 0c38 6B9DB83F 		.word	1069063531
 2190 0c3c 94DDB83F 		.word	1069079956
 2191 0c40 D61DB93F 		.word	1069096406
 2192 0c44 295EB93F 		.word	1069112873
 2193 0c48 8C9EB93F 		.word	1069129356
ARM GAS  /var/folders/0z/tsy30v1j4xl4_7kw94k978ww0000gn/T//ccfc537T.s 			page 48


 2194 0c4c 11DFB93F 		.word	1069145873
 2195 0c50 A71FBA3F 		.word	1069162407
 2196 0c54 5760BA3F 		.word	1069178967
 2197 0c58 16A1BA3F 		.word	1069195542
 2198 0c5c EFE1BA3F 		.word	1069212143
 2199 0c60 E222BB3F 		.word	1069228770
 2200 0c64 E563BB3F 		.word	1069245413
 2201 0c68 09A5BB3F 		.word	1069262089
 2202 0c6c 36E6BB3F 		.word	1069278774
 2203 0c70 8527BC3F 		.word	1069295493
 2204 0c74 E468BC3F 		.word	1069312228
 2205 0c78 5CAABC3F 		.word	1069328988
 2206 0c7c EEEBBC3F 		.word	1069345774
 2207 0c80 902DBD3F 		.word	1069362576
 2208 0c84 546FBD3F 		.word	1069379412
 2209 0c88 21B1BD3F 		.word	1069396257
 2210 0c8c 0EF3BD3F 		.word	1069413134
 2211 0c90 0D35BE3F 		.word	1069430029
 2212 0c94 2577BE3F 		.word	1069446949
 2213 0c98 56B9BE3F 		.word	1069463894
 2214 0c9c A0FBBE3F 		.word	1069480864
 2215 0ca0 FB3DBF3F 		.word	1069497851
 2216 0ca4 6F80BF3F 		.word	1069514863
 2217 0ca8 FCC2BF3F 		.word	1069531900
 2218 0cac 9A05C03F 		.word	1069548954
 2219 0cb0 5A48C03F 		.word	1069566042
 2220 0cb4 2A8BC03F 		.word	1069583146
 2221 0cb8 0CCEC03F 		.word	1069600268
 2222 0cbc 0E11C13F 		.word	1069617422
 2223 0cc0 2254C13F 		.word	1069634594
 2224 0cc4 5797C13F 		.word	1069651799
 2225 0cc8 94DAC13F 		.word	1069669012
 2226 0ccc F31DC23F 		.word	1069686259
 2227 0cd0 6B61C23F 		.word	1069703531
 2228 0cd4 F4A4C23F 		.word	1069720820
 2229 0cd8 96E8C23F 		.word	1069738134
 2230 0cdc 522CC33F 		.word	1069755474
 2231 0ce0 2670C33F 		.word	1069772838
 2232 0ce4 0BB4C33F 		.word	1069790219
 2233 0ce8 12F8C33F 		.word	1069807634
 2234 0cec 293CC43F 		.word	1069825065
 2235 0cf0 5A80C43F 		.word	1069842522
 2236 0cf4 9CC4C43F 		.word	1069859996
 2237 0cf8 FF08C53F 		.word	1069877503
 2238 0cfc 7B4DC53F 		.word	1069895035
 2239 0d00 0892C53F 		.word	1069912584
 2240 0d04 AED6C53F 		.word	1069930158
 2241 0d08 6D1BC63F 		.word	1069947757
 2242 0d0c 4660C63F 		.word	1069965382
 2243 0d10 2FA5C63F 		.word	1069983023
 2244 0d14 3AEAC63F 		.word	1070000698
 2245 0d18 552FC73F 		.word	1070018389
 2246 0d1c 9274C73F 		.word	1070036114
 2247 0d20 E0B9C73F 		.word	1070053856
 2248 0d24 47FFC73F 		.word	1070071623
 2249 0d28 C844C83F 		.word	1070089416
 2250 0d2c 598AC83F 		.word	1070107225
ARM GAS  /var/folders/0z/tsy30v1j4xl4_7kw94k978ww0000gn/T//ccfc537T.s 			page 49


 2251 0d30 0BD0C83F 		.word	1070125067
 2252 0d34 CF15C93F 		.word	1070142927
 2253 0d38 B45BC93F 		.word	1070160820
 2254 0d3c A9A1C93F 		.word	1070178729
 2255 0d40 B8E7C93F 		.word	1070196664
 2256 0d44 E02DCA3F 		.word	1070214624
 2257 0d48 2174CA3F 		.word	1070232609
 2258 0d4c 7CBACA3F 		.word	1070250620
 2259 0d50 EF00CB3F 		.word	1070268655
 2260 0d54 7C47CB3F 		.word	1070286716
 2261 0d58 228ECB3F 		.word	1070304802
 2262 0d5c D8D4CB3F 		.word	1070322904
 2263 0d60 B01BCC3F 		.word	1070341040
 2264 0d64 9962CC3F 		.word	1070359193
 2265 0d68 A4A9CC3F 		.word	1070377380
 2266 0d6c BFF0CC3F 		.word	1070395583
 2267 0d70 F437CD3F 		.word	1070413812
 2268 0d74 417FCD3F 		.word	1070432065
 2269 0d78 B0C6CD3F 		.word	1070450352
 2270 0d7c 300ECE3F 		.word	1070468656
 2271 0d80 C955CE3F 		.word	1070486985
 2272 0d84 7C9DCE3F 		.word	1070505340
 2273 0d88 47E5CE3F 		.word	1070523719
 2274 0d8c 2C2DCF3F 		.word	1070542124
 2275 0d90 2975CF3F 		.word	1070560553
 2276 0d94 40BDCF3F 		.word	1070579008
 2277 0d98 7105D03F 		.word	1070597489
 2278 0d9c BA4DD03F 		.word	1070615994
 2279 0da0 1C96D03F 		.word	1070634524
 2280 0da4 98DED03F 		.word	1070653080
 2281 0da8 2D27D13F 		.word	1070671661
 2282 0dac DB6FD13F 		.word	1070690267
 2283 0db0 A2B8D13F 		.word	1070708898
 2284 0db4 8201D23F 		.word	1070727554
 2285 0db8 7B4AD23F 		.word	1070746235
 2286 0dbc 8E93D23F 		.word	1070764942
 2287 0dc0 BADCD23F 		.word	1070783674
 2288 0dc4 FF25D33F 		.word	1070802431
 2289 0dc8 5D6FD33F 		.word	1070821213
 2290 0dcc D4B8D33F 		.word	1070840020
 2291 0dd0 6402D43F 		.word	1070858852
 2292 0dd4 164CD43F 		.word	1070877718
 2293 0dd8 D995D43F 		.word	1070896601
 2294 0ddc B5DFD43F 		.word	1070915509
 2295 0de0 B329D53F 		.word	1070934451
 2296 0de4 C173D53F 		.word	1070953409
 2297 0de8 F1BDD53F 		.word	1070972401
 2298 0dec 3108D63F 		.word	1070991409
 2299 0df0 9352D63F 		.word	1071010451
 2300 0df4 0F9DD63F 		.word	1071029519
 2301 0df8 A3E7D63F 		.word	1071048611
 2302 0dfc 5132D73F 		.word	1071067729
 2303 0e00 187DD73F 		.word	1071086872
 2304 0e04 F7C7D73F 		.word	1071106039
 2305 0e08 F112D83F 		.word	1071125233
 2306 0e0c 035ED83F 		.word	1071144451
 2307 0e10 37A9D83F 		.word	1071163703
ARM GAS  /var/folders/0z/tsy30v1j4xl4_7kw94k978ww0000gn/T//ccfc537T.s 			page 50


 2308 0e14 7BF4D83F 		.word	1071182971
 2309 0e18 E23FD93F 		.word	1071202274
 2310 0e1c 618BD93F 		.word	1071221601
 2311 0e20 F9D6D93F 		.word	1071240953
 2312 0e24 AB22DA3F 		.word	1071260331
 2313 0e28 766EDA3F 		.word	1071279734
 2314 0e2c 62BADA3F 		.word	1071299170
 2315 0e30 6006DB3F 		.word	1071318624
 2316 0e34 7E52DB3F 		.word	1071338110
 2317 0e38 AE9EDB3F 		.word	1071357614
 2318 0e3c FFEADB3F 		.word	1071377151
 2319 0e40 7237DC3F 		.word	1071396722
 2320 0e44 F583DC3F 		.word	1071416309
 2321 0e48 91D0DC3F 		.word	1071435921
 2322 0e4c 501DDD3F 		.word	1071455568
 2323 0e50 276ADD3F 		.word	1071475239
 2324 0e54 17B7DD3F 		.word	1071494935
 2325 0e58 2104DE3F 		.word	1071514657
 2326 0e5c 4451DE3F 		.word	1071534404
 2327 0e60 889EDE3F 		.word	1071554184
 2328 0e64 E6EBDE3F 		.word	1071573990
 2329 0e68 5439DF3F 		.word	1071593812
 2330 0e6c EC86DF3F 		.word	1071613676
 2331 0e70 95D4DF3F 		.word	1071633557
 2332 0e74 6022E03F 		.word	1071653472
 2333 0e78 3B70E03F 		.word	1071673403
 2334 0e7c 40BEE03F 		.word	1071693376
 2335 0e80 560CE13F 		.word	1071713366
 2336 0e84 865AE13F 		.word	1071733382
 2337 0e88 D6A8E13F 		.word	1071753430
 2338 0e8c 40F7E13F 		.word	1071773504
 2339 0e90 C345E23F 		.word	1071793603
 2340 0e94 6894E23F 		.word	1071813736
 2341 0e98 26E3E23F 		.word	1071833894
 2342 0e9c FD31E33F 		.word	1071854077
 2343 0ea0 ED80E33F 		.word	1071874285
 2344 0ea4 F6CFE33F 		.word	1071894518
 2345 0ea8 211FE43F 		.word	1071914785
 2346 0eac 656EE43F 		.word	1071935077
 2347 0eb0 CBBDE43F 		.word	1071955403
 2348 0eb4 410DE53F 		.word	1071975745
 2349 0eb8 D95CE53F 		.word	1071996121
 2350 0ebc 93ACE53F 		.word	1072016531
 2351 0ec0 5DFCE53F 		.word	1072036957
 2352 0ec4 494CE63F 		.word	1072057417
 2353 0ec8 4E9CE63F 		.word	1072077902
 2354 0ecc 74ECE63F 		.word	1072098420
 2355 0ed0 B43CE73F 		.word	1072118964
 2356 0ed4 0D8DE73F 		.word	1072139533
 2357 0ed8 7FDDE73F 		.word	1072160127
 2358 0edc 122EE83F 		.word	1072180754
 2359 0ee0 BF7EE83F 		.word	1072201407
 2360 0ee4 8DCFE83F 		.word	1072222093
 2361 0ee8 7520E93F 		.word	1072242805
 2362 0eec 7671E93F 		.word	1072263542
 2363 0ef0 8FC2E93F 		.word	1072284303
 2364 0ef4 CB13EA3F 		.word	1072305099
ARM GAS  /var/folders/0z/tsy30v1j4xl4_7kw94k978ww0000gn/T//ccfc537T.s 			page 51


 2365 0ef8 2865EA3F 		.word	1072325928
 2366 0efc 95B6EA3F 		.word	1072346773
 2367 0f00 2508EB3F 		.word	1072367653
 2368 0f04 D559EB3F 		.word	1072388565
 2369 0f08 97ABEB3F 		.word	1072409495
 2370 0f0c 7AFDEB3F 		.word	1072430458
 2371 0f10 7F4FEC3F 		.word	1072451455
 2372 0f14 9DA1EC3F 		.word	1072472477
 2373 0f18 D4F3EC3F 		.word	1072493524
 2374 0f1c 2C46ED3F 		.word	1072514604
 2375 0f20 9E98ED3F 		.word	1072535710
 2376 0f24 31EBED3F 		.word	1072556849
 2377 0f28 DE3DEE3F 		.word	1072578014
 2378 0f2c A390EE3F 		.word	1072599203
 2379 0f30 8AE3EE3F 		.word	1072620426
 2380 0f34 8B36EF3F 		.word	1072641675
 2381 0f38 AD89EF3F 		.word	1072662957
 2382 0f3c E8DCEF3F 		.word	1072684264
 2383 0f40 4430F03F 		.word	1072705604
 2384 0f44 BA83F03F 		.word	1072726970
 2385 0f48 52D7F03F 		.word	1072748370
 2386 0f4c 022BF13F 		.word	1072769794
 2387 0f50 CC7EF13F 		.word	1072791244
 2388 0f54 B7D2F13F 		.word	1072812727
 2389 0f58 BB26F23F 		.word	1072834235
 2390 0f5c E17AF23F 		.word	1072855777
 2391 0f60 29CFF23F 		.word	1072877353
 2392 0f64 8123F33F 		.word	1072898945
 2393 0f68 0378F33F 		.word	1072920579
 2394 0f6c 9FCCF33F 		.word	1072942239
 2395 0f70 5321F43F 		.word	1072963923
 2396 0f74 2976F43F 		.word	1072985641
 2397 0f78 19CBF43F 		.word	1073007385
 2398 0f7c 2920F53F 		.word	1073029161
 2399 0f80 5C75F53F 		.word	1073050972
 2400 0f84 A7CAF53F 		.word	1073072807
 2401 0f88 0C20F63F 		.word	1073094668
 2402 0f8c 9275F63F 		.word	1073116562
 2403 0f90 3ACBF63F 		.word	1073138490
 2404 0f94 FB20F73F 		.word	1073160443
 2405 0f98 D576F73F 		.word	1073182421
 2406 0f9c D9CCF73F 		.word	1073204441
 2407 0fa0 EE22F83F 		.word	1073226478
 2408 0fa4 2D79F83F 		.word	1073248557
 2409 0fa8 85CFF83F 		.word	1073270661
 2410 0fac F625F93F 		.word	1073292790
 2411 0fb0 897CF93F 		.word	1073314953
 2412 0fb4 3DD3F93F 		.word	1073337149
 2413 0fb8 0B2AFA3F 		.word	1073359371
 2414 0fbc FA80FA3F 		.word	1073381626
 2415 0fc0 0AD8FA3F 		.word	1073403914
 2416 0fc4 342FFB3F 		.word	1073426228
 2417 0fc8 7786FB3F 		.word	1073448567
 2418 0fcc E3DDFB3F 		.word	1073470947
 2419 0fd0 6935FC3F 		.word	1073493353
 2420 0fd4 098DFC3F 		.word	1073515785
 2421 0fd8 C9E4FC3F 		.word	1073538249
ARM GAS  /var/folders/0z/tsy30v1j4xl4_7kw94k978ww0000gn/T//ccfc537T.s 			page 52


 2422 0fdc AC3CFD3F 		.word	1073560748
 2423 0fe0 AF94FD3F 		.word	1073583279
 2424 0fe4 CCECFD3F 		.word	1073605836
 2425 0fe8 0245FE3F 		.word	1073628418
 2426 0fec 629DFE3F 		.word	1073651042
 2427 0ff0 DCF5FE3F 		.word	1073673692
 2428 0ff4 774EFF3F 		.word	1073696375
 2429 0ff8 2AA7FF3F 		.word	1073719082
 2430 0ffc 00000040 		.word	1073741824
 2431              		.text
 2432              	.Letext0:
 2433              		.file 3 "/Users/johannes/Library/Application Support/Code/User/globalStorage/bmd.stm32-for-vscode/
 2434              		.file 4 "/Users/johannes/Library/Application Support/Code/User/globalStorage/bmd.stm32-for-vscode/
 2435              		.file 5 "Drivers/CMSIS/Device/ST/STM32F4xx/Include/stm32f407xx.h"
 2436              		.file 6 "Drivers/STM32F4xx_HAL_Driver/Inc/stm32f4xx_hal_def.h"
 2437              		.file 7 "Drivers/STM32F4xx_HAL_Driver/Inc/stm32f4xx_hal_dma.h"
 2438              		.file 8 "Drivers/STM32F4xx_HAL_Driver/Inc/stm32f4xx_hal_i2s.h"
 2439              		.file 9 "Core/Inc/audio.h"
 2440              		.file 10 "Core/Inc/oscillators.h"
 2441              		.file 11 "Core/Inc/ADSR_envelope.h"
 2442              		.file 12 "Core/Inc/ladder_filter.h"
 2443              		.file 13 "Core/Inc/MIDI_lut.h"
 2444              		.file 14 "Core/Inc/stereo_delay.h"
 2445              		.file 15 "Core/Inc/bitcrusher.h"
 2446              		.file 16 "Core/Inc/../../Drivers/BSP/STM32F4-Discovery/stm32f4_discovery_audio.h"
ARM GAS  /var/folders/0z/tsy30v1j4xl4_7kw94k978ww0000gn/T//ccfc537T.s 			page 53


DEFINED SYMBOLS
                            *ABS*:0000000000000000 audio.c
/var/folders/0z/tsy30v1j4xl4_7kw94k978ww0000gn/T//ccfc537T.s:23     .text.audioBlock.constprop.0:0000000000000000 $t
/var/folders/0z/tsy30v1j4xl4_7kw94k978ww0000gn/T//ccfc537T.s:29     .text.audioBlock.constprop.0:0000000000000000 audioBlock.constprop.0
/var/folders/0z/tsy30v1j4xl4_7kw94k978ww0000gn/T//ccfc537T.s:459    .text.audioBlock.constprop.0:00000000000001d0 $d
/var/folders/0z/tsy30v1j4xl4_7kw94k978ww0000gn/T//ccfc537T.s:481    .text.AUDIO_Init:0000000000000000 $t
/var/folders/0z/tsy30v1j4xl4_7kw94k978ww0000gn/T//ccfc537T.s:488    .text.AUDIO_Init:0000000000000000 AUDIO_Init
/var/folders/0z/tsy30v1j4xl4_7kw94k978ww0000gn/T//ccfc537T.s:584    .text.AUDIO_Init:0000000000000098 $d
/var/folders/0z/tsy30v1j4xl4_7kw94k978ww0000gn/T//ccfc537T.s:598    .text.OpSetFreq:0000000000000000 $t
/var/folders/0z/tsy30v1j4xl4_7kw94k978ww0000gn/T//ccfc537T.s:605    .text.OpSetFreq:0000000000000000 OpSetFreq
/var/folders/0z/tsy30v1j4xl4_7kw94k978ww0000gn/T//ccfc537T.s:625    .text.OpSetFreq:0000000000000010 $d
/var/folders/0z/tsy30v1j4xl4_7kw94k978ww0000gn/T//ccfc537T.s:630    .text.audioBlock:0000000000000000 $t
/var/folders/0z/tsy30v1j4xl4_7kw94k978ww0000gn/T//ccfc537T.s:637    .text.audioBlock:0000000000000000 audioBlock
/var/folders/0z/tsy30v1j4xl4_7kw94k978ww0000gn/T//ccfc537T.s:1096   .text.audioBlock:00000000000001d8 $d
/var/folders/0z/tsy30v1j4xl4_7kw94k978ww0000gn/T//ccfc537T.s:1118   .text.BSP_AUDIO_OUT_HalfTransfer_CallBack:0000000000000000 $t
/var/folders/0z/tsy30v1j4xl4_7kw94k978ww0000gn/T//ccfc537T.s:1125   .text.BSP_AUDIO_OUT_HalfTransfer_CallBack:0000000000000000 BSP_AUDIO_OUT_HalfTransfer_CallBack
/var/folders/0z/tsy30v1j4xl4_7kw94k978ww0000gn/T//ccfc537T.s:1139   .text.BSP_AUDIO_OUT_HalfTransfer_CallBack:0000000000000008 $d
/var/folders/0z/tsy30v1j4xl4_7kw94k978ww0000gn/T//ccfc537T.s:1144   .text.BSP_AUDIO_OUT_TransferComplete_CallBack:0000000000000000 $t
/var/folders/0z/tsy30v1j4xl4_7kw94k978ww0000gn/T//ccfc537T.s:1151   .text.BSP_AUDIO_OUT_TransferComplete_CallBack:0000000000000000 BSP_AUDIO_OUT_TransferComplete_CallBack
/var/folders/0z/tsy30v1j4xl4_7kw94k978ww0000gn/T//ccfc537T.s:1165   .text.BSP_AUDIO_OUT_TransferComplete_CallBack:0000000000000008 $d
/var/folders/0z/tsy30v1j4xl4_7kw94k978ww0000gn/T//ccfc537T.s:1170   .text.BSP_AUDIO_OUT_Error_CallBack:0000000000000000 $t
/var/folders/0z/tsy30v1j4xl4_7kw94k978ww0000gn/T//ccfc537T.s:1177   .text.BSP_AUDIO_OUT_Error_CallBack:0000000000000000 BSP_AUDIO_OUT_Error_CallBack
/var/folders/0z/tsy30v1j4xl4_7kw94k978ww0000gn/T//ccfc537T.s:1194   .text.DMA1_Stream7_IRQHandler:0000000000000000 $t
/var/folders/0z/tsy30v1j4xl4_7kw94k978ww0000gn/T//ccfc537T.s:1201   .text.DMA1_Stream7_IRQHandler:0000000000000000 DMA1_Stream7_IRQHandler
/var/folders/0z/tsy30v1j4xl4_7kw94k978ww0000gn/T//ccfc537T.s:1216   .text.DMA1_Stream7_IRQHandler:0000000000000008 $d
/var/folders/0z/tsy30v1j4xl4_7kw94k978ww0000gn/T//ccfc537T.s:1221   .text.DMA1_Stream3_IRQHandler:0000000000000000 $t
/var/folders/0z/tsy30v1j4xl4_7kw94k978ww0000gn/T//ccfc537T.s:1228   .text.DMA1_Stream3_IRQHandler:0000000000000000 DMA1_Stream3_IRQHandler
/var/folders/0z/tsy30v1j4xl4_7kw94k978ww0000gn/T//ccfc537T.s:1243   .text.DMA1_Stream3_IRQHandler:0000000000000008 $d
/var/folders/0z/tsy30v1j4xl4_7kw94k978ww0000gn/T//ccfc537T.s:1255   .bss.audioBuffer:0000000000000000 audioBuffer
/var/folders/0z/tsy30v1j4xl4_7kw94k978ww0000gn/T//ccfc537T.s:1406   .rodata.pbend:0000000000000000 pbend
/var/folders/0z/tsy30v1j4xl4_7kw94k978ww0000gn/T//ccfc537T.s:1273   .rodata.mtof:0000000000000000 mtof
/var/folders/0z/tsy30v1j4xl4_7kw94k978ww0000gn/T//ccfc537T.s:1251   .bss.audioBuffer:0000000000000000 $d
/var/folders/0z/tsy30v1j4xl4_7kw94k978ww0000gn/T//ccfc537T.s:1258   .ccmram:0000000000000000 $d
/var/folders/0z/tsy30v1j4xl4_7kw94k978ww0000gn/T//ccfc537T.s:1262   .ccmram:0000000000000000 delayROut
/var/folders/0z/tsy30v1j4xl4_7kw94k978ww0000gn/T//ccfc537T.s:1266   .ccmram:0000000000000004 delayLOut
/var/folders/0z/tsy30v1j4xl4_7kw94k978ww0000gn/T//ccfc537T.s:1269   .rodata.mtof:0000000000000000 $d
/var/folders/0z/tsy30v1j4xl4_7kw94k978ww0000gn/T//ccfc537T.s:1403   .rodata.pbend:0000000000000000 $d

UNDEFINED SYMBOLS
__aeabi_f2d
__aeabi_dadd
__aeabi_d2f
osc_polyblepSaw
osc_polyblepRect
ADSR_compute
MoogLP_compute
decimator
pingpongDelay_compute
osc1
osc2
osc3
adsr_filt
Moog_filter
adsr_amp
currentPitch
BSP_AUDIO_OUT_Init
BSP_AUDIO_OUT_Play
ARM GAS  /var/folders/0z/tsy30v1j4xl4_7kw94k978ww0000gn/T//ccfc537T.s 			page 54


osc_init
ADSR_init
MoogLP_init
Delay_init
HAL_DMA_IRQHandler
hAudioOutI2s
hAudioInI2s
