ARM GAS  /var/folders/0z/tsy30v1j4xl4_7kw94k978ww0000gn/T//ccdJe4Gu.s 			page 1


   1              		.cpu cortex-m4
   2              		.arch armv7e-m
   3              		.fpu fpv4-sp-d16
   4              		.eabi_attribute 27, 1
   5              		.eabi_attribute 28, 1
   6              		.eabi_attribute 20, 1
   7              		.eabi_attribute 21, 1
   8              		.eabi_attribute 23, 3
   9              		.eabi_attribute 24, 1
  10              		.eabi_attribute 25, 1
  11              		.eabi_attribute 26, 1
  12              		.eabi_attribute 30, 2
  13              		.eabi_attribute 34, 1
  14              		.eabi_attribute 18, 4
  15              		.file	"audio.c"
  16              		.text
  17              	.Ltext0:
  18              		.cfi_sections	.debug_frame
  19              		.global	__aeabi_f2d
  20              		.global	__aeabi_dsub
  21              		.global	__aeabi_d2f
  22              		.section	.text.audioBlock.constprop.0,"ax",%progbits
  23              		.align	1
  24              		.p2align 2,,3
  25              		.syntax unified
  26              		.thumb
  27              		.thumb_func
  29              	audioBlock.constprop.0:
  30              	.LVL0:
  31              	.LFB248:
  32              		.file 1 "Core/Src/audio.c"
   1:Core/Src/audio.c **** /**
   2:Core/Src/audio.c ****  * @file audio.c
   3:Core/Src/audio.c ****  * @author johannes regnier
   4:Core/Src/audio.c ****  * @brief Functions to make sound and main audio block function 
   5:Core/Src/audio.c ****  * @note  Essential initialization functions from Tom Erbe:	
   6:Core/Src/audio.c ****  * @note  http://synthnotes.ucsd.edu/wp4/index.php/2019/09/24/setting-up-the-stmf4-to-connect-to-th
   7:Core/Src/audio.c ****  * @version 0.1
   8:Core/Src/audio.c ****  * @date 2023-12-12
   9:Core/Src/audio.c ****  * 
  10:Core/Src/audio.c ****  * @copyright Copyright (c) 2023
  11:Core/Src/audio.c ****  * 
  12:Core/Src/audio.c ****  */
  13:Core/Src/audio.c **** 
  14:Core/Src/audio.c **** 
  15:Core/Src/audio.c **** #include <stdint.h>
  16:Core/Src/audio.c **** #include "audio.h"
  17:Core/Src/audio.c **** #include "oscillators.h"
  18:Core/Src/audio.c **** #include "ADSR_envelope.h"
  19:Core/Src/audio.c **** #include "ladder_filter.h"
  20:Core/Src/audio.c **** #include "bitcrusher.h"
  21:Core/Src/audio.c **** #include "flanger.h"
  22:Core/Src/audio.c **** #include "stereo_delay.h"
  23:Core/Src/audio.c **** #include "MIDI_lut.h"
  24:Core/Src/audio.c **** #include <stdint.h>
  25:Core/Src/audio.c **** #include "helper_functions.h"
  26:Core/Src/audio.c **** #include "stdlib.h"
ARM GAS  /var/folders/0z/tsy30v1j4xl4_7kw94k978ww0000gn/T//ccdJe4Gu.s 			page 2


  27:Core/Src/audio.c **** 
  28:Core/Src/audio.c **** 
  29:Core/Src/audio.c **** 
  30:Core/Src/audio.c **** 
  31:Core/Src/audio.c **** 
  32:Core/Src/audio.c **** /**
  33:Core/Src/audio.c ****  * @brief Audio Buffer - x samples X 2 channels = 2 * x samples
  34:Core/Src/audio.c ****  * @note Channels are interleaved - LRLRLRLRLRLRLRLRLRLRLR - audioBuffer[frame << 1] audioBuffer[(f
  35:Core/Src/audio.c ****  */
  36:Core/Src/audio.c **** int16_t audioBuffer[BUFFER_SIZE]; 
  37:Core/Src/audio.c **** 
  38:Core/Src/audio.c **** 
  39:Core/Src/audio.c **** extern uint8_t currentPitch;
  40:Core/Src/audio.c **** extern uint8_t velocity, noteOn_velocity;
  41:Core/Src/audio.c **** extern ADSR_t adsr_amp, adsr_filt;
  42:Core/Src/audio.c **** extern ADSR_t adsr_index;
  43:Core/Src/audio.c **** extern ZDFLadder_t Moog_filter;
  44:Core/Src/audio.c **** extern oscillator_t osc1, osc2, osc3, osc4, sub_osc;
  45:Core/Src/audio.c **** 
  46:Core/Src/audio.c **** 
  47:Core/Src/audio.c **** static float f0;			// frequency of oscillators 1 & 2
  48:Core/Src/audio.c **** static float f_sub ;		// frequency of sub oscillator
  49:Core/Src/audio.c **** static float amp_env ;		// amplitude envelope
  50:Core/Src/audio.c **** static float filt_env ;		// filter envelope
  51:Core/Src/audio.c **** static float index_env ;	// FM index envelope
  52:Core/Src/audio.c **** 
  53:Core/Src/audio.c **** float delayLOut = 0 ;		// left output of ping pong delay
  54:Core/Src/audio.c **** float delayROut = 0;		// right output of ping pong delay
  55:Core/Src/audio.c **** 
  56:Core/Src/audio.c **** 
  57:Core/Src/audio.c **** 
  58:Core/Src/audio.c **** 
  59:Core/Src/audio.c **** /**
  60:Core/Src/audio.c ****  * @brief Initialize audio
  61:Core/Src/audio.c ****  * 
  62:Core/Src/audio.c ****  */
  63:Core/Src/audio.c **** void AUDIO_Init()
  64:Core/Src/audio.c **** {
  65:Core/Src/audio.c ****     BSP_AUDIO_OUT_Init(OUTPUT_DEVICE_HEADPHONE, INITIAL_VOLUME, FS);
  66:Core/Src/audio.c **** 
  67:Core/Src/audio.c **** 	/**
  68:Core/Src/audio.c **** 	 * @brief Ping pong buffer
  69:Core/Src/audio.c **** 	 * @note While one audiobuffer is transmitted via DMA, another one is computed
  70:Core/Src/audio.c **** 	 * @note Hence size = 2 * (audiobuffer size)
  71:Core/Src/audio.c **** 	 */
  72:Core/Src/audio.c **** 	BSP_AUDIO_OUT_Play((uint16_t *)&audioBuffer[0], 2*BUFFER_SIZE); 
  73:Core/Src/audio.c **** 
  74:Core/Src/audio.c **** 	
  75:Core/Src/audio.c **** 	
  76:Core/Src/audio.c **** 	osc_init(&osc1, 0.5, 1000, 0, 0, 0.5);
  77:Core/Src/audio.c **** 	osc_init(&osc2, 0.5, 440, 0, 2, 0.5);
  78:Core/Src/audio.c **** 	osc_init(&osc3, 0.5, 1000, 0, 0, 0.5);
  79:Core/Src/audio.c **** 	osc_init(&osc4, 0.5, 440, 0, 0, 0.5);
  80:Core/Src/audio.c **** 	osc_init(&sub_osc, 0.5, 440, 0, 0, 0.5);
  81:Core/Src/audio.c **** 
  82:Core/Src/audio.c **** 
  83:Core/Src/audio.c **** 	ADSR_init(&adsr_amp);
ARM GAS  /var/folders/0z/tsy30v1j4xl4_7kw94k978ww0000gn/T//ccdJe4Gu.s 			page 3


  84:Core/Src/audio.c **** 	ADSR_init(&adsr_filt);
  85:Core/Src/audio.c **** 	ADSR_init(&adsr_index);
  86:Core/Src/audio.c **** 	MoogLP_init(&Moog_filter);
  87:Core/Src/audio.c **** 	// flanger_init();
  88:Core/Src/audio.c **** 	Delay_init();
  89:Core/Src/audio.c **** }
  90:Core/Src/audio.c **** 
  91:Core/Src/audio.c **** void OpSetFreq(oscillator_t * op, float f)
  92:Core/Src/audio.c **** {
  93:Core/Src/audio.c **** 	op->freq = A0 * f;
  94:Core/Src/audio.c **** }
  95:Core/Src/audio.c **** 
  96:Core/Src/audio.c **** 
  97:Core/Src/audio.c **** 
  98:Core/Src/audio.c **** /**
  99:Core/Src/audio.c ****  * @brief Main audio function. This is where the audio samples are computed, then the audio buffer 
 100:Core/Src/audio.c ****  * 
 101:Core/Src/audio.c ****  * @param buffer 
 102:Core/Src/audio.c ****  * @param samples 
 103:Core/Src/audio.c ****  */
 104:Core/Src/audio.c **** void audioBlock(int16_t *buffer, uint16_t samples)
  33              		.loc 1 104 6 view -0
  34              		.cfi_startproc
  35              		@ args = 0, pretend = 0, frame = 0
  36              		@ frame_needed = 0, uses_anonymous_args = 0
 105:Core/Src/audio.c **** {
 106:Core/Src/audio.c **** 	int i;
 107:Core/Src/audio.c **** 	int16_t *output;
 108:Core/Src/audio.c **** 	output = buffer;
 109:Core/Src/audio.c **** 	float sample, sampleL, sampleR;
 110:Core/Src/audio.c **** 	uint16_t valueL, valueR;
 111:Core/Src/audio.c **** 	
 112:Core/Src/audio.c **** 	for (i = 0; i < samples; i++)
  37              		.loc 1 112 16 view .LVU1
 104:Core/Src/audio.c **** {
  38              		.loc 1 104 6 is_stmt 0 view .LVU2
  39 0000 2DE9F84F 		push	{r3, r4, r5, r6, r7, r8, r9, r10, fp, lr}
  40              		.cfi_def_cfa_offset 40
  41              		.cfi_offset 3, -40
  42              		.cfi_offset 4, -36
  43              		.cfi_offset 5, -32
  44              		.cfi_offset 6, -28
  45              		.cfi_offset 7, -24
  46              		.cfi_offset 8, -20
  47              		.cfi_offset 9, -16
  48              		.cfi_offset 10, -12
  49              		.cfi_offset 11, -8
  50              		.cfi_offset 14, -4
  51 0004 DFF820B2 		ldr	fp, .L17+72
  52 0008 774E     		ldr	r6, .L17+8
  53 000a DFF8F8A1 		ldr	r10, .L17+36
  54 000e DFF81C92 		ldr	r9, .L17+76
  55 0012 2DED088B 		vpush.64	{d8, d9, d10, d11}
  56              		.cfi_def_cfa_offset 72
  57              		.cfi_offset 80, -72
  58              		.cfi_offset 81, -68
  59              		.cfi_offset 82, -64
ARM GAS  /var/folders/0z/tsy30v1j4xl4_7kw94k978ww0000gn/T//ccdJe4Gu.s 			page 4


  60              		.cfi_offset 83, -60
  61              		.cfi_offset 84, -56
  62              		.cfi_offset 85, -52
  63              		.cfi_offset 86, -48
  64              		.cfi_offset 87, -44
 104:Core/Src/audio.c **** {
  65              		.loc 1 104 6 view .LVU3
  66 0016 0746     		mov	r7, r0
  67              	.LBB48:
  68              	.LBB49:
  93:Core/Src/audio.c **** }
  69              		.loc 1 93 16 view .LVU4
  70 0018 DFED748A 		vldr.32	s17, .L17+12
  71              	.LBE49:
  72              	.LBE48:
  73 001c DFED74AA 		vldr.32	s21, .L17+16
 113:Core/Src/audio.c **** 	{
 114:Core/Src/audio.c **** 
 115:Core/Src/audio.c **** 		f0 = mtof[currentPitch];
 116:Core/Src/audio.c **** 		
 117:Core/Src/audio.c **** 		/* test with 3 oscillators*/
 118:Core/Src/audio.c **** 		OpSetFreq(&osc1, f0);
 119:Core/Src/audio.c **** 		OpSetFreq(&osc2, f0);
 120:Core/Src/audio.c **** 		OpSetFreq(&osc3, f0-0.2);
 121:Core/Src/audio.c **** 		OpSetFreq(&osc4, f0 + 0.5);
 122:Core/Src/audio.c **** 		
 123:Core/Src/audio.c **** 		f_sub = mtof[max(currentPitch - 12, 0)];
 124:Core/Src/audio.c **** 		OpSetFreq(&sub_osc, f_sub);
 125:Core/Src/audio.c **** 		// sample = 0.5*(osc_polyblepSaw(&osc1) + osc_polyblepSaw(&osc2) + osc_polyblepSaw(&osc3) + osc_p
 126:Core/Src/audio.c **** 		sample = 0*osc_polyblepSaw(&osc1) + osc_polyblepRect(&sub_osc);
  74              		.loc 1 126 10 view .LVU5
  75 0020 DFED749A 		vldr.32	s19, .L17+20
 127:Core/Src/audio.c **** 		// sample = osc_Sine(&osc1);
 128:Core/Src/audio.c **** 
 129:Core/Src/audio.c **** 		// FM
 130:Core/Src/audio.c **** 		//index_env = ADSR_compute(&adsr_index);
 131:Core/Src/audio.c **** 		//osc1.FM_index = (noteOn_velocity/127.f) * 0.033 * index_env;	
 132:Core/Src/audio.c **** 		//sample = osc_FM2OP(f0);
 133:Core/Src/audio.c **** 
 134:Core/Src/audio.c **** 		/****************** Apply filter ***********************/
 135:Core/Src/audio.c **** 		filt_env = ADSR_compute(&adsr_filt);
 136:Core/Src/audio.c **** 		Moog_filter.cutoff = 2000 * filt_env;
  76              		.loc 1 136 29 view .LVU6
  77 0024 9FED749A 		vldr.32	s18, .L17+24
 137:Core/Src/audio.c **** 		sample = MoogLP_compute(&Moog_filter, sample);
 138:Core/Src/audio.c **** 	
 139:Core/Src/audio.c **** 		
 140:Core/Src/audio.c **** 		
 141:Core/Src/audio.c **** 		/************** Apply amplitude envelope ****************/
 142:Core/Src/audio.c **** 		amp_env = ADSR_compute(&adsr_amp);
 143:Core/Src/audio.c **** 		sample *= amp_env;
 144:Core/Src/audio.c **** 
 145:Core/Src/audio.c **** 		
 146:Core/Src/audio.c **** 		/************** Apply bitcrushing effect ***************/
 147:Core/Src/audio.c **** 		// sample = decimator(sample, 0.2, 16);
 148:Core/Src/audio.c **** 
 149:Core/Src/audio.c **** 		/************** Apply flanging effect ***************/
ARM GAS  /var/folders/0z/tsy30v1j4xl4_7kw94k978ww0000gn/T//ccdJe4Gu.s 			page 5


 150:Core/Src/audio.c **** 		// sample = flanger_compute(sample); // TODO
 151:Core/Src/audio.c **** 
 152:Core/Src/audio.c **** 		/************** Apply delay effect ****************/
 153:Core/Src/audio.c **** 		pingpongDelay_compute(sample, &delayLOut, &delayROut);
 154:Core/Src/audio.c **** 		sampleL = delayLOut;
 155:Core/Src/audio.c **** 		sampleR = delayROut;
 156:Core/Src/audio.c **** 		//sampleL = sample;
 157:Core/Src/audio.c **** 		//sampleR = sample;
 158:Core/Src/audio.c **** 
 159:Core/Src/audio.c **** 		/****************** softclip outputs ********************/
 160:Core/Src/audio.c **** 		sampleL = SoftClip(sampleL);
 161:Core/Src/audio.c **** 		sampleR = SoftClip(sampleR);
 162:Core/Src/audio.c **** 
 163:Core/Src/audio.c **** 		/*************** Convert to 16 bits int *****************/
 164:Core/Src/audio.c **** 		valueL = ((int16_t) ((32767.0f) * sampleL)); 
  78              		.loc 1 164 35 view .LVU7
  79 0028 9FED74AA 		vldr.32	s20, .L17+28
 112:Core/Src/audio.c **** 	{
  80              		.loc 1 112 9 view .LVU8
  81 002c 0024     		movs	r4, #0
  82 002e 00F10208 		add	r8, r0, #2
  83 0032 50E0     		b	.L5
  84              	.LVL1:
  85              	.L15:
  86              	.LBB52:
  87              	.LBB53:
  88              		.file 2 "Core/Inc/helper_functions.h"
   1:Core/Inc/helper_functions.h **** /**
   2:Core/Inc/helper_functions.h ****  * @file helper_functions.h
   3:Core/Inc/helper_functions.h ****  * @author johannes regnier
   4:Core/Inc/helper_functions.h ****  * @brief Various math tools 
   5:Core/Inc/helper_functions.h ****  * @version 0.1
   6:Core/Inc/helper_functions.h ****  * @date 2023-12-30
   7:Core/Inc/helper_functions.h ****  * 
   8:Core/Inc/helper_functions.h ****  * @copyright Copyright (c) 2023
   9:Core/Inc/helper_functions.h ****  * 
  10:Core/Inc/helper_functions.h ****  */
  11:Core/Inc/helper_functions.h **** 
  12:Core/Inc/helper_functions.h **** #ifndef _HELPER_FUNCTIONS_H
  13:Core/Inc/helper_functions.h **** #define _HELPER_FUNCTIONS_H
  14:Core/Inc/helper_functions.h **** 
  15:Core/Inc/helper_functions.h **** 
  16:Core/Inc/helper_functions.h **** #include <math.h>
  17:Core/Inc/helper_functions.h **** #include <stdint.h>
  18:Core/Inc/helper_functions.h **** 
  19:Core/Inc/helper_functions.h **** #ifndef NOMINMAX
  20:Core/Inc/helper_functions.h **** 
  21:Core/Inc/helper_functions.h **** #ifndef max
  22:Core/Inc/helper_functions.h **** #define max(a,b)            (((a) > (b)) ? (a) : (b))
  23:Core/Inc/helper_functions.h **** #endif
  24:Core/Inc/helper_functions.h **** 
  25:Core/Inc/helper_functions.h **** #ifndef min
  26:Core/Inc/helper_functions.h **** #define min(a,b)            (((a) < (b)) ? (a) : (b))
  27:Core/Inc/helper_functions.h **** #endif
  28:Core/Inc/helper_functions.h **** 
  29:Core/Inc/helper_functions.h **** #endif  /* NOMINMAX */
  30:Core/Inc/helper_functions.h **** 
ARM GAS  /var/folders/0z/tsy30v1j4xl4_7kw94k978ww0000gn/T//ccdJe4Gu.s 			page 6


  31:Core/Inc/helper_functions.h **** /**
  32:Core/Inc/helper_functions.h ****  * @brief Keep value between 0 and max
  33:Core/Inc/helper_functions.h ****  * 
  34:Core/Inc/helper_functions.h ****  * @param value 
  35:Core/Inc/helper_functions.h ****  * @param max 
  36:Core/Inc/helper_functions.h ****  * @return float 
  37:Core/Inc/helper_functions.h ****  */
  38:Core/Inc/helper_functions.h **** inline float wrap(float value, float max)   
  39:Core/Inc/helper_functions.h **** {
  40:Core/Inc/helper_functions.h ****     if (value < 0.f)
  41:Core/Inc/helper_functions.h ****         value += max;
  42:Core/Inc/helper_functions.h ****     if (value >= max)
  43:Core/Inc/helper_functions.h ****         value -= max;
  44:Core/Inc/helper_functions.h **** 
  45:Core/Inc/helper_functions.h ****     return value;
  46:Core/Inc/helper_functions.h **** }
  47:Core/Inc/helper_functions.h **** 
  48:Core/Inc/helper_functions.h **** inline float Crossfade(float a, float b, float fade)
  49:Core/Inc/helper_functions.h **** {
  50:Core/Inc/helper_functions.h ****     return a + (b - a) * fade;
  51:Core/Inc/helper_functions.h **** }
  52:Core/Inc/helper_functions.h **** 
  53:Core/Inc/helper_functions.h **** 
  54:Core/Inc/helper_functions.h **** /**
  55:Core/Inc/helper_functions.h ****  * @brief Pade-approximation of tanh for soft clipping
  56:Core/Inc/helper_functions.h ****  * @ from https://www.musicdsp.org/en/latest/Other/238-rational-tanh-approximation.html 
  57:Core/Inc/helper_functions.h ****  * @param x 
  58:Core/Inc/helper_functions.h ****  * @return float 
  59:Core/Inc/helper_functions.h ****  */
  60:Core/Inc/helper_functions.h **** inline float SoftClip(float x)
  61:Core/Inc/helper_functions.h **** {
  62:Core/Inc/helper_functions.h ****     if (x < -3.0f)
  63:Core/Inc/helper_functions.h ****     {
  64:Core/Inc/helper_functions.h ****         return -1.0f;
  65:Core/Inc/helper_functions.h ****     }
  66:Core/Inc/helper_functions.h ****     else if (x > 3.0f)
  89              		.loc 2 66 10 is_stmt 1 view .LVU9
  90              		.loc 2 66 13 is_stmt 0 view .LVU10
  91 0034 F0EE086A 		vmov.f32	s13, #3.0e+0
  92 0038 B4EEE67A 		vcmpe.f32	s14, s13
  93 003c F1EE10FA 		vmrs	APSR_nzcv, FPSCR
  94 0040 00F3C880 		bgt	.L8
  95              	.LVL2:
  96              	.LBB54:
  97              	.LBI54:
  60:Core/Inc/helper_functions.h **** {
  98              		.loc 2 60 14 is_stmt 1 view .LVU11
  99              	.LBB55:
  67:Core/Inc/helper_functions.h ****     {
  68:Core/Inc/helper_functions.h ****         return 1.0f;
  69:Core/Inc/helper_functions.h ****     }
  70:Core/Inc/helper_functions.h ****     else
  71:Core/Inc/helper_functions.h ****     {
  72:Core/Inc/helper_functions.h ****         return x * (27.0f + x * x) / (27.0f + 9.0f * x * x);
 100              		.loc 2 72 9 view .LVU12
 101              		.loc 2 72 27 is_stmt 0 view .LVU13
 102 0044 F3EE0B6A 		vmov.f32	s13, #2.7e+1
ARM GAS  /var/folders/0z/tsy30v1j4xl4_7kw94k978ww0000gn/T//ccdJe4Gu.s 			page 7


 103              		.loc 2 72 52 view .LVU14
 104 0048 F2EE025A 		vmov.f32	s11, #9.0e+0
 105 004c 67EE255A 		vmul.f32	s11, s14, s11
 106              		.loc 2 72 27 view .LVU15
 107 0050 B0EE665A 		vmov.f32	s10, s13
 108 0054 A7EE075A 		vfma.f32	s10, s14, s14
 109              		.loc 2 72 45 view .LVU16
 110 0058 E7EE256A 		vfma.f32	s13, s14, s11
 111              		.loc 2 72 18 view .LVU17
 112 005c 27EE057A 		vmul.f32	s14, s14, s10
 113              	.LVL3:
 114              		.loc 2 72 45 view .LVU18
 115 0060 B0EE666A 		vmov.f32	s12, s13
 116              	.LVL4:
 117              		.loc 2 72 36 view .LVU19
 118 0064 C7EE066A 		vdiv.f32	s13, s14, s12
 119              	.LBE55:
 120              	.LBE54:
 121              	.LBE53:
 122              	.LBE52:
 123              		.loc 1 164 35 view .LVU20
 124 0068 26EE8A7A 		vmul.f32	s14, s13, s20
 125              		.loc 1 164 13 view .LVU21
 126 006c BDEEC77A 		vcvt.s32.f32	s14, s14
 127 0070 17EE103A 		vmov	r3, s14	@ int
 128 0074 1AB2     		sxth	r2, r3
 129              	.L3:
 130              	.LVL5:
 161:Core/Src/audio.c **** 
 131              		.loc 1 161 3 is_stmt 1 view .LVU22
 132              	.LBB60:
 133              	.LBI60:
  60:Core/Inc/helper_functions.h **** {
 134              		.loc 2 60 14 view .LVU23
 135              	.LBB61:
  62:Core/Inc/helper_functions.h ****     {
 136              		.loc 2 62 5 view .LVU24
  62:Core/Inc/helper_functions.h ****     {
 137              		.loc 2 62 8 is_stmt 0 view .LVU25
 138 0076 B8EE087A 		vmov.f32	s14, #-3.0e+0
 139 007a F4EEC77A 		vcmpe.f32	s15, s14
 140 007e F1EE10FA 		vmrs	APSR_nzcv, FPSCR
 141 0082 00F19B80 		bmi	.L9
 142              	.L16:
  66:Core/Inc/helper_functions.h ****     {
 143              		.loc 2 66 10 is_stmt 1 view .LVU26
  66:Core/Inc/helper_functions.h ****     {
 144              		.loc 2 66 13 is_stmt 0 view .LVU27
 145 0086 B0EE087A 		vmov.f32	s14, #3.0e+0
 146 008a F4EEC77A 		vcmpe.f32	s15, s14
 147 008e F1EE10FA 		vmrs	APSR_nzcv, FPSCR
 148 0092 00F3A280 		bgt	.L10
 149              	.LVL6:
 150              	.LBB62:
 151              	.LBI62:
  60:Core/Inc/helper_functions.h **** {
 152              		.loc 2 60 14 is_stmt 1 view .LVU28
ARM GAS  /var/folders/0z/tsy30v1j4xl4_7kw94k978ww0000gn/T//ccdJe4Gu.s 			page 8


 153              	.LBB63:
 154              		.loc 2 72 9 view .LVU29
 155              		.loc 2 72 27 is_stmt 0 view .LVU30
 156 0096 B3EE0B7A 		vmov.f32	s14, #2.7e+1
 157              		.loc 2 72 52 view .LVU31
 158 009a B2EE026A 		vmov.f32	s12, #9.0e+0
 159 009e 27EE866A 		vmul.f32	s12, s15, s12
 160              		.loc 2 72 27 view .LVU32
 161 00a2 F0EE475A 		vmov.f32	s11, s14
 162 00a6 E7EEA75A 		vfma.f32	s11, s15, s15
 163              		.loc 2 72 45 view .LVU33
 164 00aa A7EE867A 		vfma.f32	s14, s15, s12
 165              		.loc 2 72 18 view .LVU34
 166 00ae 67EEA57A 		vmul.f32	s15, s15, s11
 167              	.LVL7:
 168              		.loc 2 72 45 view .LVU35
 169 00b2 F0EE476A 		vmov.f32	s13, s14
 170              	.LVL8:
 171              		.loc 2 72 36 view .LVU36
 172 00b6 87EEA67A 		vdiv.f32	s14, s15, s13
 173              	.LBE63:
 174              	.LBE62:
 175              	.LBE61:
 176              	.LBE60:
 165:Core/Src/audio.c **** 		valueR = ((int16_t) ((32767.0f) * sampleR));
 177              		.loc 1 165 35 view .LVU37
 178 00ba 67EE0A7A 		vmul.f32	s15, s14, s20
 179              		.loc 1 165 13 view .LVU38
 180 00be FDEEE77A 		vcvt.s32.f32	s15, s15
 181 00c2 17EE903A 		vmov	r3, s15	@ int
 182 00c6 1BB2     		sxth	r3, r3
 183              	.L4:
 184              	.LVL9:
 164:Core/Src/audio.c **** 		valueR = ((int16_t) ((32767.0f) * sampleR));
 185              		.loc 1 164 3 is_stmt 1 view .LVU39
 186              		.loc 1 165 3 view .LVU40
 166:Core/Src/audio.c **** 
 167:Core/Src/audio.c **** 		/*************** Output to audio buffer *****************/
 168:Core/Src/audio.c **** 		output[i<<1] = valueL ;			// LEFT channel
 187              		.loc 1 168 3 view .LVU41
 188              		.loc 1 168 16 is_stmt 0 view .LVU42
 189 00c8 27F82420 		strh	r2, [r7, r4, lsl #2]	@ movhi
 169:Core/Src/audio.c **** 	    output[(i<<1) + 1] = valueR;	// RIGHT channel
 190              		.loc 1 169 6 is_stmt 1 view .LVU43
 191              		.loc 1 169 25 is_stmt 0 view .LVU44
 192 00cc 28F82430 		strh	r3, [r8, r4, lsl #2]	@ movhi
 112:Core/Src/audio.c **** 	{
 193              		.loc 1 112 28 is_stmt 1 view .LVU45
 194 00d0 0134     		adds	r4, r4, #1
 195              	.LVL10:
 112:Core/Src/audio.c **** 	{
 196              		.loc 1 112 16 view .LVU46
 197 00d2 402C     		cmp	r4, #64
 198 00d4 7AD0     		beq	.L14
 199              	.LVL11:
 200              	.L5:
 115:Core/Src/audio.c **** 		
ARM GAS  /var/folders/0z/tsy30v1j4xl4_7kw94k978ww0000gn/T//ccdJe4Gu.s 			page 9


 201              		.loc 1 115 3 view .LVU47
 115:Core/Src/audio.c **** 		
 202              		.loc 1 115 12 is_stmt 0 view .LVU48
 203 00d6 9BF80050 		ldrb	r5, [fp]	@ zero_extendqisi2
 204 00da 06EB8503 		add	r3, r6, r5, lsl #2
 205 00de 93ED008A 		vldr.32	s16, [r3]
 118:Core/Src/audio.c **** 		OpSetFreq(&osc2, f0);
 206              		.loc 1 118 3 is_stmt 1 view .LVU49
 207              	.LVL12:
 208              	.LBB67:
 209              	.LBI48:
  91:Core/Src/audio.c **** {
 210              		.loc 1 91 6 view .LVU50
 211              	.LBB50:
  93:Core/Src/audio.c **** }
 212              		.loc 1 93 2 view .LVU51
  93:Core/Src/audio.c **** }
 213              		.loc 1 93 16 is_stmt 0 view .LVU52
 214 00e2 68EE287A 		vmul.f32	s15, s16, s17
 215              	.LBE50:
 216              	.LBE67:
 120:Core/Src/audio.c **** 		OpSetFreq(&osc4, f0 + 0.5);
 217              		.loc 1 120 22 view .LVU53
 218 00e6 18EE100A 		vmov	r0, s16
 219              	.LBB68:
 220              	.LBB51:
  93:Core/Src/audio.c **** }
 221              		.loc 1 93 11 view .LVU54
 222 00ea CAED017A 		vstr.32	s15, [r10, #4]
 223              	.LVL13:
  93:Core/Src/audio.c **** }
 224              		.loc 1 93 11 view .LVU55
 225              	.LBE51:
 226              	.LBE68:
 119:Core/Src/audio.c **** 		OpSetFreq(&osc3, f0-0.2);
 227              		.loc 1 119 3 is_stmt 1 view .LVU56
 228              	.LBB69:
 229              	.LBI69:
  91:Core/Src/audio.c **** {
 230              		.loc 1 91 6 view .LVU57
 231              	.LBB70:
  93:Core/Src/audio.c **** }
 232              		.loc 1 93 2 view .LVU58
  93:Core/Src/audio.c **** }
 233              		.loc 1 93 11 is_stmt 0 view .LVU59
 234 00ee C9ED017A 		vstr.32	s15, [r9, #4]
 235              	.LVL14:
  93:Core/Src/audio.c **** }
 236              		.loc 1 93 11 view .LVU60
 237              	.LBE70:
 238              	.LBE69:
 120:Core/Src/audio.c **** 		OpSetFreq(&osc4, f0 + 0.5);
 239              		.loc 1 120 3 is_stmt 1 view .LVU61
 240              	.LBB71:
 241              	.LBI71:
  91:Core/Src/audio.c **** {
 242              		.loc 1 91 6 view .LVU62
ARM GAS  /var/folders/0z/tsy30v1j4xl4_7kw94k978ww0000gn/T//ccdJe4Gu.s 			page 10


 243              	.LBB72:
  93:Core/Src/audio.c **** }
 244              		.loc 1 93 2 view .LVU63
 245              	.LBE72:
 246              	.LBE71:
 120:Core/Src/audio.c **** 		OpSetFreq(&osc4, f0 + 0.5);
 247              		.loc 1 120 22 is_stmt 0 view .LVU64
 248 00f2 FFF7FEFF 		bl	__aeabi_f2d
 249              	.LVL15:
 250 00f6 3AA3     		adr	r3, .L17
 251 00f8 D3E90023 		ldrd	r2, [r3]
 252 00fc FFF7FEFF 		bl	__aeabi_dsub
 253              	.LVL16:
 120:Core/Src/audio.c **** 		OpSetFreq(&osc4, f0 + 0.5);
 254              		.loc 1 120 3 view .LVU65
 255 0100 FFF7FEFF 		bl	__aeabi_d2f
 256              	.LVL17:
 257              	.LBB77:
 258              	.LBB73:
  93:Core/Src/audio.c **** }
 259              		.loc 1 93 16 view .LVU66
 260 0104 07EE900A 		vmov	s15, r0
 261              	.LBE73:
 262              	.LBE77:
 121:Core/Src/audio.c **** 		
 263              		.loc 1 121 3 view .LVU67
 264 0108 B6EE007A 		vmov.f32	s14, #5.0e-1
 123:Core/Src/audio.c **** 		OpSetFreq(&sub_osc, f_sub);
 265              		.loc 1 123 16 view .LVU68
 266 010c 0C2D     		cmp	r5, #12
 267              	.LBB78:
 268              	.LBB74:
  93:Core/Src/audio.c **** }
 269              		.loc 1 93 16 view .LVU69
 270 010e 67EEA87A 		vmul.f32	s15, s15, s17
 271              	.LBE74:
 272              	.LBE78:
 121:Core/Src/audio.c **** 		
 273              		.loc 1 121 3 view .LVU70
 274 0112 38EE078A 		vadd.f32	s16, s16, s14
 275              	.LVL18:
 276              	.LBB79:
 277              	.LBB75:
  93:Core/Src/audio.c **** }
 278              		.loc 1 93 11 view .LVU71
 279 0116 3A4B     		ldr	r3, .L17+32
 280              	.LBE75:
 281              	.LBE79:
 126:Core/Src/audio.c **** 		// sample = osc_Sine(&osc1);
 282              		.loc 1 126 14 view .LVU72
 283 0118 3A48     		ldr	r0, .L17+36
 284              	.LBB80:
 285              	.LBB76:
  93:Core/Src/audio.c **** }
 286              		.loc 1 93 11 view .LVU73
 287 011a C3ED017A 		vstr.32	s15, [r3, #4]
 288              	.LVL19:
ARM GAS  /var/folders/0z/tsy30v1j4xl4_7kw94k978ww0000gn/T//ccdJe4Gu.s 			page 11


  93:Core/Src/audio.c **** }
 289              		.loc 1 93 11 view .LVU74
 290              	.LBE76:
 291              	.LBE80:
 121:Core/Src/audio.c **** 		
 292              		.loc 1 121 3 is_stmt 1 view .LVU75
 293              	.LBB81:
 294              	.LBI81:
  91:Core/Src/audio.c **** {
 295              		.loc 1 91 6 view .LVU76
 296              	.LBB82:
  93:Core/Src/audio.c **** }
 297              		.loc 1 93 2 view .LVU77
 298              	.LBE82:
 299              	.LBE81:
 123:Core/Src/audio.c **** 		OpSetFreq(&sub_osc, f_sub);
 300              		.loc 1 123 15 is_stmt 0 view .LVU78
 301 011e 84BF     		itt	hi
 302 0120 06EB8505 		addhi	r5, r6, r5, lsl #2
 303              	.LVL20:
 304              	.LBB85:
 305              	.LBB86:
  93:Core/Src/audio.c **** }
 306              		.loc 1 93 16 view .LVU79
 307 0124 55ED0C7A 		vldrhi.32	s15, [r5, #-48]
 308              	.LBE86:
 309              	.LBE85:
 310              	.LBB90:
 311              	.LBB83:
  93:Core/Src/audio.c **** }
 312              		.loc 1 93 11 view .LVU80
 313 0128 374B     		ldr	r3, .L17+40
  93:Core/Src/audio.c **** }
 314              		.loc 1 93 16 view .LVU81
 315 012a 28EE288A 		vmul.f32	s16, s16, s17
 316              	.LBE83:
 317              	.LBE90:
 318              	.LBB91:
 319              	.LBB87:
 320 012e 88BF     		it	hi
 321 0130 67EEA87A 		vmulhi.f32	s15, s15, s17
 322              	.LBE87:
 323              	.LBE91:
 324              	.LBB92:
 325              	.LBB84:
  93:Core/Src/audio.c **** }
 326              		.loc 1 93 11 view .LVU82
 327 0134 83ED018A 		vstr.32	s16, [r3, #4]
 328              	.LVL21:
  93:Core/Src/audio.c **** }
 329              		.loc 1 93 11 view .LVU83
 330              	.LBE84:
 331              	.LBE92:
 123:Core/Src/audio.c **** 		OpSetFreq(&sub_osc, f_sub);
 332              		.loc 1 123 3 is_stmt 1 view .LVU84
 124:Core/Src/audio.c **** 		// sample = 0.5*(osc_polyblepSaw(&osc1) + osc_polyblepSaw(&osc2) + osc_polyblepSaw(&osc3) + osc_p
 333              		.loc 1 124 3 view .LVU85
ARM GAS  /var/folders/0z/tsy30v1j4xl4_7kw94k978ww0000gn/T//ccdJe4Gu.s 			page 12


 334              	.LBB93:
 335              	.LBI85:
  91:Core/Src/audio.c **** {
 336              		.loc 1 91 6 view .LVU86
 337              	.LBB88:
  93:Core/Src/audio.c **** }
 338              		.loc 1 93 2 view .LVU87
  93:Core/Src/audio.c **** }
 339              		.loc 1 93 11 is_stmt 0 view .LVU88
 340 0138 344B     		ldr	r3, .L17+44
 341              	.LBE88:
 342              	.LBE93:
 343 013a 98BF     		it	ls
 344 013c F0EE6A7A 		vmovls.f32	s15, s21
 345              	.LBB94:
 346              	.LBB89:
 347 0140 C3ED017A 		vstr.32	s15, [r3, #4]
 348              	.LVL22:
  93:Core/Src/audio.c **** }
 349              		.loc 1 93 11 view .LVU89
 350              	.LBE89:
 351              	.LBE94:
 126:Core/Src/audio.c **** 		// sample = osc_Sine(&osc1);
 352              		.loc 1 126 3 is_stmt 1 view .LVU90
 126:Core/Src/audio.c **** 		// sample = osc_Sine(&osc1);
 353              		.loc 1 126 14 is_stmt 0 view .LVU91
 354 0144 FFF7FEFF 		bl	osc_polyblepSaw
 355              	.LVL23:
 126:Core/Src/audio.c **** 		// sample = osc_Sine(&osc1);
 356              		.loc 1 126 39 view .LVU92
 357 0148 3048     		ldr	r0, .L17+44
 126:Core/Src/audio.c **** 		// sample = osc_Sine(&osc1);
 358              		.loc 1 126 14 view .LVU93
 359 014a B0EE40BA 		vmov.f32	s22, s0
 126:Core/Src/audio.c **** 		// sample = osc_Sine(&osc1);
 360              		.loc 1 126 39 view .LVU94
 361 014e FFF7FEFF 		bl	osc_polyblepRect
 362              	.LVL24:
 126:Core/Src/audio.c **** 		// sample = osc_Sine(&osc1);
 363              		.loc 1 126 10 view .LVU95
 364 0152 ABEE290A 		vfma.f32	s0, s22, s19
 135:Core/Src/audio.c **** 		Moog_filter.cutoff = 2000 * filt_env;
 365              		.loc 1 135 14 view .LVU96
 366 0156 2E48     		ldr	r0, .L17+48
 126:Core/Src/audio.c **** 		// sample = osc_Sine(&osc1);
 367              		.loc 1 126 10 view .LVU97
 368 0158 B0EE408A 		vmov.f32	s16, s0
 369              	.LVL25:
 135:Core/Src/audio.c **** 		Moog_filter.cutoff = 2000 * filt_env;
 370              		.loc 1 135 3 is_stmt 1 view .LVU98
 135:Core/Src/audio.c **** 		Moog_filter.cutoff = 2000 * filt_env;
 371              		.loc 1 135 14 is_stmt 0 view .LVU99
 372 015c FFF7FEFF 		bl	ADSR_compute
 373              	.LVL26:
 136:Core/Src/audio.c **** 		sample = MoogLP_compute(&Moog_filter, sample);
 374              		.loc 1 136 3 is_stmt 1 view .LVU100
 136:Core/Src/audio.c **** 		sample = MoogLP_compute(&Moog_filter, sample);
ARM GAS  /var/folders/0z/tsy30v1j4xl4_7kw94k978ww0000gn/T//ccdJe4Gu.s 			page 13


 375              		.loc 1 136 22 is_stmt 0 view .LVU101
 376 0160 2C4B     		ldr	r3, .L17+52
 135:Core/Src/audio.c **** 		Moog_filter.cutoff = 2000 * filt_env;
 377              		.loc 1 135 14 view .LVU102
 378 0162 F0EE407A 		vmov.f32	s15, s0
 136:Core/Src/audio.c **** 		sample = MoogLP_compute(&Moog_filter, sample);
 379              		.loc 1 136 29 view .LVU103
 380 0166 67EE897A 		vmul.f32	s15, s15, s18
 137:Core/Src/audio.c **** 	
 381              		.loc 1 137 12 view .LVU104
 382 016a 1846     		mov	r0, r3
 383 016c B0EE480A 		vmov.f32	s0, s16
 136:Core/Src/audio.c **** 		sample = MoogLP_compute(&Moog_filter, sample);
 384              		.loc 1 136 22 view .LVU105
 385 0170 C3ED007A 		vstr.32	s15, [r3]
 137:Core/Src/audio.c **** 	
 386              		.loc 1 137 3 is_stmt 1 view .LVU106
 137:Core/Src/audio.c **** 	
 387              		.loc 1 137 12 is_stmt 0 view .LVU107
 388 0174 FFF7FEFF 		bl	MoogLP_compute
 389              	.LVL27:
 142:Core/Src/audio.c **** 		sample *= amp_env;
 390              		.loc 1 142 13 view .LVU108
 391 0178 2748     		ldr	r0, .L17+56
 137:Core/Src/audio.c **** 	
 392              		.loc 1 137 12 view .LVU109
 393 017a B0EE408A 		vmov.f32	s16, s0
 394              	.LVL28:
 142:Core/Src/audio.c **** 		sample *= amp_env;
 395              		.loc 1 142 3 is_stmt 1 view .LVU110
 142:Core/Src/audio.c **** 		sample *= amp_env;
 396              		.loc 1 142 13 is_stmt 0 view .LVU111
 397 017e FFF7FEFF 		bl	ADSR_compute
 398              	.LVL29:
 143:Core/Src/audio.c **** 
 399              		.loc 1 143 3 is_stmt 1 view .LVU112
 153:Core/Src/audio.c **** 		sampleL = delayLOut;
 400              		.loc 1 153 3 view .LVU113
 401 0182 2649     		ldr	r1, .L17+60
 402 0184 2648     		ldr	r0, .L17+64
 403 0186 28EE000A 		vmul.f32	s0, s16, s0
 404              	.LVL30:
 153:Core/Src/audio.c **** 		sampleL = delayLOut;
 405              		.loc 1 153 3 is_stmt 0 view .LVU114
 406 018a FFF7FEFF 		bl	pingpongDelay_compute
 407              	.LVL31:
 154:Core/Src/audio.c **** 		sampleR = delayROut;
 408              		.loc 1 154 3 is_stmt 1 view .LVU115
 154:Core/Src/audio.c **** 		sampleR = delayROut;
 409              		.loc 1 154 11 is_stmt 0 view .LVU116
 410 018e 244B     		ldr	r3, .L17+64
 411 0190 93ED007A 		vldr.32	s14, [r3]
 412              	.LVL32:
 155:Core/Src/audio.c **** 		//sampleL = sample;
 413              		.loc 1 155 3 is_stmt 1 view .LVU117
 155:Core/Src/audio.c **** 		//sampleL = sample;
 414              		.loc 1 155 11 is_stmt 0 view .LVU118
ARM GAS  /var/folders/0z/tsy30v1j4xl4_7kw94k978ww0000gn/T//ccdJe4Gu.s 			page 14


 415 0194 214B     		ldr	r3, .L17+60
 416              	.LBB95:
 417              	.LBB56:
  62:Core/Inc/helper_functions.h ****     {
 418              		.loc 2 62 8 view .LVU119
 419 0196 F8EE086A 		vmov.f32	s13, #-3.0e+0
 420 019a B4EEE67A 		vcmpe.f32	s14, s13
 421 019e F1EE10FA 		vmrs	APSR_nzcv, FPSCR
 422              	.LBE56:
 423              	.LBE95:
 155:Core/Src/audio.c **** 		//sampleL = sample;
 424              		.loc 1 155 11 view .LVU120
 425 01a2 D3ED007A 		vldr.32	s15, [r3]
 426              	.LVL33:
 160:Core/Src/audio.c **** 		sampleR = SoftClip(sampleR);
 427              		.loc 1 160 3 is_stmt 1 view .LVU121
 428              	.LBB96:
 429              	.LBI52:
  60:Core/Inc/helper_functions.h **** {
 430              		.loc 2 60 14 view .LVU122
 431              	.LBB57:
  62:Core/Inc/helper_functions.h ****     {
 432              		.loc 2 62 5 view .LVU123
  62:Core/Inc/helper_functions.h ****     {
 433              		.loc 2 62 8 is_stmt 0 view .LVU124
 434 01a6 7FF545AF 		bpl	.L15
 435              	.LBE57:
 436              	.LBE96:
 437              	.LBB97:
 438              	.LBB64:
 439 01aa B8EE087A 		vmov.f32	s14, #-3.0e+0
 440              	.LVL34:
  62:Core/Inc/helper_functions.h ****     {
 441              		.loc 2 62 8 view .LVU125
 442 01ae F4EEC77A 		vcmpe.f32	s15, s14
 443 01b2 F1EE10FA 		vmrs	APSR_nzcv, FPSCR
 444              	.LBE64:
 445              	.LBE97:
 446              	.LBB98:
 447              	.LBB58:
 448 01b6 1B4A     		ldr	r2, .L17+68
 449              	.LVL35:
  62:Core/Inc/helper_functions.h ****     {
 450              		.loc 2 62 8 view .LVU126
 451              	.LBE58:
 452              	.LBE98:
 161:Core/Src/audio.c **** 
 453              		.loc 1 161 3 is_stmt 1 view .LVU127
 454              	.LBB99:
  60:Core/Inc/helper_functions.h **** {
 455              		.loc 2 60 14 view .LVU128
 456              	.LBB65:
  62:Core/Inc/helper_functions.h ****     {
 457              		.loc 2 62 5 view .LVU129
  62:Core/Inc/helper_functions.h ****     {
 458              		.loc 2 62 8 is_stmt 0 view .LVU130
 459 01b8 7FF565AF 		bpl	.L16
ARM GAS  /var/folders/0z/tsy30v1j4xl4_7kw94k978ww0000gn/T//ccdJe4Gu.s 			page 15


 460              	.L9:
 461 01bc 194B     		ldr	r3, .L17+68
 462              	.LVL36:
  62:Core/Inc/helper_functions.h ****     {
 463              		.loc 2 62 8 view .LVU131
 464              	.LBE65:
 465              	.LBE99:
 164:Core/Src/audio.c **** 		valueR = ((int16_t) ((32767.0f) * sampleR));
 466              		.loc 1 164 3 is_stmt 1 view .LVU132
 165:Core/Src/audio.c **** 
 467              		.loc 1 165 3 view .LVU133
 168:Core/Src/audio.c **** 	    output[(i<<1) + 1] = valueR;	// RIGHT channel
 468              		.loc 1 168 3 view .LVU134
 168:Core/Src/audio.c **** 	    output[(i<<1) + 1] = valueR;	// RIGHT channel
 469              		.loc 1 168 16 is_stmt 0 view .LVU135
 470 01be 27F82420 		strh	r2, [r7, r4, lsl #2]	@ movhi
 471              		.loc 1 169 6 is_stmt 1 view .LVU136
 472              		.loc 1 169 25 is_stmt 0 view .LVU137
 473 01c2 28F82430 		strh	r3, [r8, r4, lsl #2]	@ movhi
 112:Core/Src/audio.c **** 	{
 474              		.loc 1 112 28 is_stmt 1 view .LVU138
 475 01c6 0134     		adds	r4, r4, #1
 476              	.LVL37:
 112:Core/Src/audio.c **** 	{
 477              		.loc 1 112 16 view .LVU139
 478 01c8 402C     		cmp	r4, #64
 479 01ca 84D1     		bne	.L5
 480              	.L14:
 170:Core/Src/audio.c **** 	}
 171:Core/Src/audio.c **** }
 481              		.loc 1 171 1 is_stmt 0 view .LVU140
 482 01cc BDEC088B 		vldm	sp!, {d8-d11}
 483              		.cfi_remember_state
 484              		.cfi_restore 86
 485              		.cfi_restore 87
 486              		.cfi_restore 84
 487              		.cfi_restore 85
 488              		.cfi_restore 82
 489              		.cfi_restore 83
 490              		.cfi_restore 80
 491              		.cfi_restore 81
 492              		.cfi_def_cfa_offset 40
 493              		.loc 1 171 1 view .LVU141
 494 01d0 BDE8F88F 		pop	{r3, r4, r5, r6, r7, r8, r9, r10, fp, pc}
 495              	.LVL38:
 496              	.L8:
 497              		.cfi_restore_state
 498              	.LBB100:
 499              	.LBB59:
 500              		.loc 1 171 1 view .LVU142
 501 01d4 47F6FF72 		movw	r2, #32767
 502 01d8 4DE7     		b	.L3
 503              	.LVL39:
 504              	.L10:
 505              		.loc 1 171 1 view .LVU143
 506              	.LBE59:
 507              	.LBE100:
ARM GAS  /var/folders/0z/tsy30v1j4xl4_7kw94k978ww0000gn/T//ccdJe4Gu.s 			page 16


 508              	.LBB101:
 509              	.LBB66:
 510 01da 47F6FF73 		movw	r3, #32767
 511 01de 73E7     		b	.L4
 512              	.L18:
 513              		.align	3
 514              	.L17:
 515 01e0 9A999999 		.word	-1717986918
 516 01e4 9999C93F 		.word	1070176665
 517 01e8 00000000 		.word	.LANCHOR0
 518 01ec 8D3B803F 		.word	1065368461
 519 01f0 EF0C0341 		.word	1090718959
 520 01f4 00000000 		.word	0
 521 01f8 0000FA44 		.word	1157234688
 522 01fc 00FEFF46 		.word	1191181824
 523 0200 00000000 		.word	osc3
 524 0204 00000000 		.word	osc1
 525 0208 00000000 		.word	osc4
 526 020c 00000000 		.word	sub_osc
 527 0210 00000000 		.word	adsr_filt
 528 0214 00000000 		.word	Moog_filter
 529 0218 00000000 		.word	adsr_amp
 530 021c 00000000 		.word	.LANCHOR1
 531 0220 00000000 		.word	.LANCHOR2
 532 0224 0180FFFF 		.word	-32767
 533 0228 00000000 		.word	currentPitch
 534 022c 00000000 		.word	osc2
 535              	.LBE66:
 536              	.LBE101:
 537              		.cfi_endproc
 538              	.LFE248:
 540              		.section	.text.AUDIO_Init,"ax",%progbits
 541              		.align	1
 542              		.p2align 2,,3
 543              		.global	AUDIO_Init
 544              		.syntax unified
 545              		.thumb
 546              		.thumb_func
 548              	AUDIO_Init:
 549              	.LFB239:
  64:Core/Src/audio.c ****     BSP_AUDIO_OUT_Init(OUTPUT_DEVICE_HEADPHONE, INITIAL_VOLUME, FS);
 550              		.loc 1 64 1 is_stmt 1 view -0
 551              		.cfi_startproc
 552              		@ args = 0, pretend = 0, frame = 0
 553              		@ frame_needed = 0, uses_anonymous_args = 0
  65:Core/Src/audio.c **** 
 554              		.loc 1 65 5 view .LVU145
  64:Core/Src/audio.c ****     BSP_AUDIO_OUT_Init(OUTPUT_DEVICE_HEADPHONE, INITIAL_VOLUME, FS);
 555              		.loc 1 64 1 is_stmt 0 view .LVU146
 556 0000 08B5     		push	{r3, lr}
 557              		.cfi_def_cfa_offset 8
 558              		.cfi_offset 3, -8
 559              		.cfi_offset 14, -4
  65:Core/Src/audio.c **** 
 560              		.loc 1 65 5 view .LVU147
 561 0002 4AF64442 		movw	r2, #44100
  64:Core/Src/audio.c ****     BSP_AUDIO_OUT_Init(OUTPUT_DEVICE_HEADPHONE, INITIAL_VOLUME, FS);
ARM GAS  /var/folders/0z/tsy30v1j4xl4_7kw94k978ww0000gn/T//ccdJe4Gu.s 			page 17


 562              		.loc 1 64 1 view .LVU148
 563 0006 2DED048B 		vpush.64	{d8, d9}
 564              		.cfi_def_cfa_offset 24
 565              		.cfi_offset 80, -24
 566              		.cfi_offset 81, -20
 567              		.cfi_offset 82, -16
 568              		.cfi_offset 83, -12
  65:Core/Src/audio.c **** 
 569              		.loc 1 65 5 view .LVU149
 570 000a 5521     		movs	r1, #85
 571 000c 0220     		movs	r0, #2
 572 000e FFF7FEFF 		bl	BSP_AUDIO_OUT_Init
 573              	.LVL40:
  72:Core/Src/audio.c **** 
 574              		.loc 1 72 2 is_stmt 1 view .LVU150
  76:Core/Src/audio.c **** 	osc_init(&osc2, 0.5, 440, 0, 2, 0.5);
 575              		.loc 1 76 2 is_stmt 0 view .LVU151
 576 0012 9FED2F8A 		vldr.32	s16, .L21
 577 0016 9FED2F9A 		vldr.32	s18, .L21+4
  72:Core/Src/audio.c **** 
 578              		.loc 1 72 2 view .LVU152
 579 001a 2F48     		ldr	r0, .L21+8
  77:Core/Src/audio.c **** 	osc_init(&osc3, 0.5, 1000, 0, 0, 0.5);
 580              		.loc 1 77 2 view .LVU153
 581 001c DFED2F8A 		vldr.32	s17, .L21+12
  72:Core/Src/audio.c **** 
 582              		.loc 1 72 2 view .LVU154
 583 0020 4FF40071 		mov	r1, #512
 584 0024 FFF7FEFF 		bl	BSP_AUDIO_OUT_Play
 585              	.LVL41:
  76:Core/Src/audio.c **** 	osc_init(&osc2, 0.5, 440, 0, 2, 0.5);
 586              		.loc 1 76 2 is_stmt 1 view .LVU155
 587 0028 B6EE002A 		vmov.f32	s4, #5.0e-1
 588 002c F0EE481A 		vmov.f32	s3, s16
 589 0030 B0EE481A 		vmov.f32	s2, s16
 590 0034 F0EE490A 		vmov.f32	s1, s18
 591 0038 B0EE420A 		vmov.f32	s0, s4
 592 003c 2848     		ldr	r0, .L21+16
 593 003e FFF7FEFF 		bl	osc_init
 594              	.LVL42:
  77:Core/Src/audio.c **** 	osc_init(&osc3, 0.5, 1000, 0, 0, 0.5);
 595              		.loc 1 77 2 view .LVU156
 596 0042 B6EE002A 		vmov.f32	s4, #5.0e-1
 597 0046 B0EE481A 		vmov.f32	s2, s16
 598 004a F0EE680A 		vmov.f32	s1, s17
 599 004e B0EE420A 		vmov.f32	s0, s4
 600 0052 2448     		ldr	r0, .L21+20
 601 0054 F0EE001A 		vmov.f32	s3, #2.0e+0
 602 0058 FFF7FEFF 		bl	osc_init
 603              	.LVL43:
  78:Core/Src/audio.c **** 	osc_init(&osc4, 0.5, 440, 0, 0, 0.5);
 604              		.loc 1 78 2 view .LVU157
 605 005c B6EE002A 		vmov.f32	s4, #5.0e-1
 606 0060 F0EE481A 		vmov.f32	s3, s16
 607 0064 B0EE481A 		vmov.f32	s2, s16
 608 0068 F0EE490A 		vmov.f32	s1, s18
 609 006c B0EE420A 		vmov.f32	s0, s4
ARM GAS  /var/folders/0z/tsy30v1j4xl4_7kw94k978ww0000gn/T//ccdJe4Gu.s 			page 18


 610 0070 1D48     		ldr	r0, .L21+24
 611 0072 FFF7FEFF 		bl	osc_init
 612              	.LVL44:
  79:Core/Src/audio.c **** 	osc_init(&sub_osc, 0.5, 440, 0, 0, 0.5);
 613              		.loc 1 79 2 view .LVU158
 614 0076 B6EE002A 		vmov.f32	s4, #5.0e-1
 615 007a F0EE481A 		vmov.f32	s3, s16
 616 007e B0EE481A 		vmov.f32	s2, s16
 617 0082 F0EE680A 		vmov.f32	s1, s17
 618 0086 B0EE420A 		vmov.f32	s0, s4
 619 008a 1848     		ldr	r0, .L21+28
 620 008c FFF7FEFF 		bl	osc_init
 621              	.LVL45:
  80:Core/Src/audio.c **** 
 622              		.loc 1 80 2 view .LVU159
 623 0090 B6EE002A 		vmov.f32	s4, #5.0e-1
 624 0094 F0EE481A 		vmov.f32	s3, s16
 625 0098 B0EE481A 		vmov.f32	s2, s16
 626 009c F0EE680A 		vmov.f32	s1, s17
 627 00a0 B0EE420A 		vmov.f32	s0, s4
 628 00a4 1248     		ldr	r0, .L21+32
 629 00a6 FFF7FEFF 		bl	osc_init
 630              	.LVL46:
  83:Core/Src/audio.c **** 	ADSR_init(&adsr_filt);
 631              		.loc 1 83 2 view .LVU160
 632 00aa 1248     		ldr	r0, .L21+36
 633 00ac FFF7FEFF 		bl	ADSR_init
 634              	.LVL47:
  84:Core/Src/audio.c **** 	ADSR_init(&adsr_index);
 635              		.loc 1 84 2 view .LVU161
 636 00b0 1148     		ldr	r0, .L21+40
 637 00b2 FFF7FEFF 		bl	ADSR_init
 638              	.LVL48:
  85:Core/Src/audio.c **** 	MoogLP_init(&Moog_filter);
 639              		.loc 1 85 2 view .LVU162
 640 00b6 1148     		ldr	r0, .L21+44
 641 00b8 FFF7FEFF 		bl	ADSR_init
 642              	.LVL49:
  86:Core/Src/audio.c **** 	// flanger_init();
 643              		.loc 1 86 2 view .LVU163
 644 00bc 1048     		ldr	r0, .L21+48
 645 00be FFF7FEFF 		bl	MoogLP_init
 646              	.LVL50:
  88:Core/Src/audio.c **** }
 647              		.loc 1 88 2 view .LVU164
  89:Core/Src/audio.c **** 
 648              		.loc 1 89 1 is_stmt 0 view .LVU165
 649 00c2 BDEC048B 		vldm	sp!, {d8-d9}
 650              		.cfi_restore 82
 651              		.cfi_restore 83
 652              		.cfi_restore 80
 653              		.cfi_restore 81
 654              		.cfi_def_cfa_offset 8
 655 00c6 BDE80840 		pop	{r3, lr}
 656              		.cfi_restore 14
 657              		.cfi_restore 3
 658              		.cfi_def_cfa_offset 0
ARM GAS  /var/folders/0z/tsy30v1j4xl4_7kw94k978ww0000gn/T//ccdJe4Gu.s 			page 19


  88:Core/Src/audio.c **** }
 659              		.loc 1 88 2 view .LVU166
 660 00ca FFF7FEBF 		b	Delay_init
 661              	.LVL51:
 662              	.L22:
 663 00ce 00BF     		.align	2
 664              	.L21:
 665 00d0 00000000 		.word	0
 666 00d4 00007A44 		.word	1148846080
 667 00d8 00000000 		.word	.LANCHOR3
 668 00dc 0000DC43 		.word	1138491392
 669 00e0 00000000 		.word	osc1
 670 00e4 00000000 		.word	osc2
 671 00e8 00000000 		.word	osc3
 672 00ec 00000000 		.word	osc4
 673 00f0 00000000 		.word	sub_osc
 674 00f4 00000000 		.word	adsr_amp
 675 00f8 00000000 		.word	adsr_filt
 676 00fc 00000000 		.word	adsr_index
 677 0100 00000000 		.word	Moog_filter
 678              		.cfi_endproc
 679              	.LFE239:
 681              		.section	.text.OpSetFreq,"ax",%progbits
 682              		.align	1
 683              		.p2align 2,,3
 684              		.global	OpSetFreq
 685              		.syntax unified
 686              		.thumb
 687              		.thumb_func
 689              	OpSetFreq:
 690              	.LVL52:
 691              	.LFB240:
  92:Core/Src/audio.c **** 	op->freq = A0 * f;
 692              		.loc 1 92 1 is_stmt 1 view -0
 693              		.cfi_startproc
 694              		@ args = 0, pretend = 0, frame = 0
 695              		@ frame_needed = 0, uses_anonymous_args = 0
 696              		@ link register save eliminated.
  93:Core/Src/audio.c **** }
 697              		.loc 1 93 2 view .LVU168
  93:Core/Src/audio.c **** }
 698              		.loc 1 93 16 is_stmt 0 view .LVU169
 699 0000 DFED037A 		vldr.32	s15, .L24
 700 0004 20EE270A 		vmul.f32	s0, s0, s15
 701              	.LVL53:
  93:Core/Src/audio.c **** }
 702              		.loc 1 93 11 view .LVU170
 703 0008 80ED010A 		vstr.32	s0, [r0, #4]
  94:Core/Src/audio.c **** 
 704              		.loc 1 94 1 view .LVU171
 705 000c 7047     		bx	lr
 706              	.L25:
 707 000e 00BF     		.align	2
 708              	.L24:
 709 0010 8D3B803F 		.word	1065368461
 710              		.cfi_endproc
 711              	.LFE240:
ARM GAS  /var/folders/0z/tsy30v1j4xl4_7kw94k978ww0000gn/T//ccdJe4Gu.s 			page 20


 713              		.section	.text.audioBlock,"ax",%progbits
 714              		.align	1
 715              		.p2align 2,,3
 716              		.global	audioBlock
 717              		.syntax unified
 718              		.thumb
 719              		.thumb_func
 721              	audioBlock:
 722              	.LVL54:
 723              	.LFB241:
 105:Core/Src/audio.c **** 	int i;
 724              		.loc 1 105 1 is_stmt 1 view -0
 725              		.cfi_startproc
 726              		@ args = 0, pretend = 0, frame = 0
 727              		@ frame_needed = 0, uses_anonymous_args = 0
 106:Core/Src/audio.c **** 	int16_t *output;
 728              		.loc 1 106 2 view .LVU173
 107:Core/Src/audio.c **** 	output = buffer;
 729              		.loc 1 107 2 view .LVU174
 108:Core/Src/audio.c **** 	float sample, sampleL, sampleR;
 730              		.loc 1 108 2 view .LVU175
 109:Core/Src/audio.c **** 	uint16_t valueL, valueR;
 731              		.loc 1 109 2 view .LVU176
 110:Core/Src/audio.c **** 	
 732              		.loc 1 110 2 view .LVU177
 112:Core/Src/audio.c **** 	{
 733              		.loc 1 112 2 view .LVU178
 112:Core/Src/audio.c **** 	{
 734              		.loc 1 112 16 view .LVU179
 735 0000 0029     		cmp	r1, #0
 736 0002 00F0F080 		beq	.L40
 105:Core/Src/audio.c **** 	int i;
 737              		.loc 1 105 1 is_stmt 0 view .LVU180
 738 0006 2DE9F84F 		push	{r3, r4, r5, r6, r7, r8, r9, r10, fp, lr}
 739              		.cfi_def_cfa_offset 40
 740              		.cfi_offset 3, -40
 741              		.cfi_offset 4, -36
 742              		.cfi_offset 5, -32
 743              		.cfi_offset 6, -28
 744              		.cfi_offset 7, -24
 745              		.cfi_offset 8, -20
 746              		.cfi_offset 9, -16
 747              		.cfi_offset 10, -12
 748              		.cfi_offset 11, -8
 749              		.cfi_offset 14, -4
 750 000a DFF828B2 		ldr	fp, .L46+76
 751 000e 784E     		ldr	r6, .L46+8
 752 0010 DFF8FCA1 		ldr	r10, .L46+40
 753 0014 2DED088B 		vpush.64	{d8, d9, d10, d11}
 754              		.cfi_def_cfa_offset 72
 755              		.cfi_offset 80, -72
 756              		.cfi_offset 81, -68
 757              		.cfi_offset 82, -64
 758              		.cfi_offset 83, -60
 759              		.cfi_offset 84, -56
 760              		.cfi_offset 85, -52
 761              		.cfi_offset 86, -48
ARM GAS  /var/folders/0z/tsy30v1j4xl4_7kw94k978ww0000gn/T//ccdJe4Gu.s 			page 21


 762              		.cfi_offset 87, -44
 763 0018 8046     		mov	r8, r0
 764              	.LBB120:
 765              	.LBB121:
  93:Core/Src/audio.c **** }
 766              		.loc 1 93 16 view .LVU181
 767 001a DFED768A 		vldr.32	s17, .L46+12
 768              	.LBE121:
 769              	.LBE120:
 770 001e DFED76AA 		vldr.32	s21, .L46+16
 126:Core/Src/audio.c **** 		// sample = osc_Sine(&osc1);
 771              		.loc 1 126 10 view .LVU182
 772 0022 DFED769A 		vldr.32	s19, .L46+20
 136:Core/Src/audio.c **** 		sample = MoogLP_compute(&Moog_filter, sample);
 773              		.loc 1 136 29 view .LVU183
 774 0026 9FED769A 		vldr.32	s18, .L46+24
 164:Core/Src/audio.c **** 		valueR = ((int16_t) ((32767.0f) * sampleR));
 775              		.loc 1 164 35 view .LVU184
 776 002a 9FED76AA 		vldr.32	s20, .L46+28
 777 002e 0F46     		mov	r7, r1
 112:Core/Src/audio.c **** 	{
 778              		.loc 1 112 9 view .LVU185
 779 0030 0024     		movs	r4, #0
 780 0032 00F10209 		add	r9, r0, #2
 781 0036 50E0     		b	.L27
 782              	.LVL55:
 783              	.L44:
 784              	.LBB125:
 785              	.LBB126:
  66:Core/Inc/helper_functions.h ****     {
 786              		.loc 2 66 10 is_stmt 1 view .LVU186
  66:Core/Inc/helper_functions.h ****     {
 787              		.loc 2 66 13 is_stmt 0 view .LVU187
 788 0038 F0EE086A 		vmov.f32	s13, #3.0e+0
 789 003c B4EEE67A 		vcmpe.f32	s14, s13
 790 0040 F1EE10FA 		vmrs	APSR_nzcv, FPSCR
 791 0044 00F3C980 		bgt	.L35
 792              	.LVL56:
 793              	.LBB127:
 794              	.LBI127:
  60:Core/Inc/helper_functions.h **** {
 795              		.loc 2 60 14 is_stmt 1 view .LVU188
 796              	.LBB128:
 797              		.loc 2 72 9 view .LVU189
 798              		.loc 2 72 27 is_stmt 0 view .LVU190
 799 0048 F3EE0B6A 		vmov.f32	s13, #2.7e+1
 800              		.loc 2 72 52 view .LVU191
 801 004c F2EE025A 		vmov.f32	s11, #9.0e+0
 802 0050 67EE255A 		vmul.f32	s11, s14, s11
 803              		.loc 2 72 27 view .LVU192
 804 0054 B0EE665A 		vmov.f32	s10, s13
 805 0058 A7EE075A 		vfma.f32	s10, s14, s14
 806              		.loc 2 72 45 view .LVU193
 807 005c E7EE256A 		vfma.f32	s13, s14, s11
 808              		.loc 2 72 18 view .LVU194
 809 0060 27EE057A 		vmul.f32	s14, s14, s10
 810              	.LVL57:
ARM GAS  /var/folders/0z/tsy30v1j4xl4_7kw94k978ww0000gn/T//ccdJe4Gu.s 			page 22


 811              		.loc 2 72 45 view .LVU195
 812 0064 B0EE666A 		vmov.f32	s12, s13
 813              	.LVL58:
 814              		.loc 2 72 36 view .LVU196
 815 0068 C7EE066A 		vdiv.f32	s13, s14, s12
 816              	.LBE128:
 817              	.LBE127:
 818              	.LBE126:
 819              	.LBE125:
 164:Core/Src/audio.c **** 		valueR = ((int16_t) ((32767.0f) * sampleR));
 820              		.loc 1 164 35 view .LVU197
 821 006c 26EE8A7A 		vmul.f32	s14, s13, s20
 164:Core/Src/audio.c **** 		valueR = ((int16_t) ((32767.0f) * sampleR));
 822              		.loc 1 164 13 view .LVU198
 823 0070 BDEEC77A 		vcvt.s32.f32	s14, s14
 824 0074 17EE103A 		vmov	r3, s14	@ int
 825 0078 1AB2     		sxth	r2, r3
 826              	.L29:
 827              	.LVL59:
 161:Core/Src/audio.c **** 
 828              		.loc 1 161 3 is_stmt 1 view .LVU199
 829              	.LBB133:
 830              	.LBI133:
  60:Core/Inc/helper_functions.h **** {
 831              		.loc 2 60 14 view .LVU200
 832              	.LBB134:
  62:Core/Inc/helper_functions.h ****     {
 833              		.loc 2 62 5 view .LVU201
  62:Core/Inc/helper_functions.h ****     {
 834              		.loc 2 62 8 is_stmt 0 view .LVU202
 835 007a B8EE087A 		vmov.f32	s14, #-3.0e+0
 836 007e F4EEC77A 		vcmpe.f32	s15, s14
 837 0082 F1EE10FA 		vmrs	APSR_nzcv, FPSCR
 838 0086 00F19C80 		bmi	.L36
 839              	.L45:
  66:Core/Inc/helper_functions.h ****     {
 840              		.loc 2 66 10 is_stmt 1 view .LVU203
  66:Core/Inc/helper_functions.h ****     {
 841              		.loc 2 66 13 is_stmt 0 view .LVU204
 842 008a B0EE087A 		vmov.f32	s14, #3.0e+0
 843 008e F4EEC77A 		vcmpe.f32	s15, s14
 844 0092 F1EE10FA 		vmrs	APSR_nzcv, FPSCR
 845 0096 00F3A380 		bgt	.L37
 846              	.LVL60:
 847              	.LBB135:
 848              	.LBI135:
  60:Core/Inc/helper_functions.h **** {
 849              		.loc 2 60 14 is_stmt 1 view .LVU205
 850              	.LBB136:
 851              		.loc 2 72 9 view .LVU206
 852              		.loc 2 72 27 is_stmt 0 view .LVU207
 853 009a B3EE0B7A 		vmov.f32	s14, #2.7e+1
 854              		.loc 2 72 52 view .LVU208
 855 009e B2EE026A 		vmov.f32	s12, #9.0e+0
 856 00a2 27EE866A 		vmul.f32	s12, s15, s12
 857              		.loc 2 72 27 view .LVU209
 858 00a6 F0EE475A 		vmov.f32	s11, s14
ARM GAS  /var/folders/0z/tsy30v1j4xl4_7kw94k978ww0000gn/T//ccdJe4Gu.s 			page 23


 859 00aa E7EEA75A 		vfma.f32	s11, s15, s15
 860              		.loc 2 72 45 view .LVU210
 861 00ae A7EE867A 		vfma.f32	s14, s15, s12
 862              		.loc 2 72 18 view .LVU211
 863 00b2 67EEA57A 		vmul.f32	s15, s15, s11
 864              	.LVL61:
 865              		.loc 2 72 45 view .LVU212
 866 00b6 F0EE476A 		vmov.f32	s13, s14
 867              	.LVL62:
 868              		.loc 2 72 36 view .LVU213
 869 00ba 87EEA67A 		vdiv.f32	s14, s15, s13
 870              	.LBE136:
 871              	.LBE135:
 872              	.LBE134:
 873              	.LBE133:
 165:Core/Src/audio.c **** 
 874              		.loc 1 165 35 view .LVU214
 875 00be 67EE0A7A 		vmul.f32	s15, s14, s20
 165:Core/Src/audio.c **** 
 876              		.loc 1 165 13 view .LVU215
 877 00c2 FDEEE77A 		vcvt.s32.f32	s15, s15
 878 00c6 17EE903A 		vmov	r3, s15	@ int
 879 00ca 1BB2     		sxth	r3, r3
 880              	.L30:
 881              	.LVL63:
 164:Core/Src/audio.c **** 		valueR = ((int16_t) ((32767.0f) * sampleR));
 882              		.loc 1 164 3 is_stmt 1 view .LVU216
 165:Core/Src/audio.c **** 
 883              		.loc 1 165 3 view .LVU217
 168:Core/Src/audio.c **** 	    output[(i<<1) + 1] = valueR;	// RIGHT channel
 884              		.loc 1 168 3 view .LVU218
 168:Core/Src/audio.c **** 	    output[(i<<1) + 1] = valueR;	// RIGHT channel
 885              		.loc 1 168 16 is_stmt 0 view .LVU219
 886 00cc 28F82420 		strh	r2, [r8, r4, lsl #2]	@ movhi
 169:Core/Src/audio.c **** 	}
 887              		.loc 1 169 6 is_stmt 1 view .LVU220
 169:Core/Src/audio.c **** 	}
 888              		.loc 1 169 25 is_stmt 0 view .LVU221
 889 00d0 29F82430 		strh	r3, [r9, r4, lsl #2]	@ movhi
 112:Core/Src/audio.c **** 	{
 890              		.loc 1 112 28 is_stmt 1 view .LVU222
 891 00d4 0134     		adds	r4, r4, #1
 892              	.LVL64:
 112:Core/Src/audio.c **** 	{
 893              		.loc 1 112 16 view .LVU223
 894 00d6 BC42     		cmp	r4, r7
 895 00d8 7BD0     		beq	.L43
 896              	.LVL65:
 897              	.L27:
 115:Core/Src/audio.c **** 		
 898              		.loc 1 115 3 view .LVU224
 115:Core/Src/audio.c **** 		
 899              		.loc 1 115 12 is_stmt 0 view .LVU225
 900 00da 9BF80050 		ldrb	r5, [fp]	@ zero_extendqisi2
 901 00de 06EB8503 		add	r3, r6, r5, lsl #2
 902 00e2 93ED008A 		vldr.32	s16, [r3]
 118:Core/Src/audio.c **** 		OpSetFreq(&osc2, f0);
ARM GAS  /var/folders/0z/tsy30v1j4xl4_7kw94k978ww0000gn/T//ccdJe4Gu.s 			page 24


 903              		.loc 1 118 3 is_stmt 1 view .LVU226
 904              	.LVL66:
 905              	.LBB140:
 906              	.LBI120:
  91:Core/Src/audio.c **** {
 907              		.loc 1 91 6 view .LVU227
 908              	.LBB122:
  93:Core/Src/audio.c **** }
 909              		.loc 1 93 2 view .LVU228
 910              	.LBE122:
 911              	.LBE140:
 912              	.LBB141:
 913              	.LBB142:
  93:Core/Src/audio.c **** }
 914              		.loc 1 93 11 is_stmt 0 view .LVU229
 915 00e6 484B     		ldr	r3, .L46+32
 916              	.LBE142:
 917              	.LBE141:
 918              	.LBB145:
 919              	.LBB123:
  93:Core/Src/audio.c **** }
 920              		.loc 1 93 16 view .LVU230
 921 00e8 68EE287A 		vmul.f32	s15, s16, s17
 922              	.LBE123:
 923              	.LBE145:
 120:Core/Src/audio.c **** 		OpSetFreq(&osc4, f0 + 0.5);
 924              		.loc 1 120 22 view .LVU231
 925 00ec 18EE100A 		vmov	r0, s16
 926              	.LBB146:
 927              	.LBB143:
  93:Core/Src/audio.c **** }
 928              		.loc 1 93 11 view .LVU232
 929 00f0 C3ED017A 		vstr.32	s15, [r3, #4]
 930              	.LBE143:
 931              	.LBE146:
 932              	.LBB147:
 933              	.LBB124:
 934 00f4 CAED017A 		vstr.32	s15, [r10, #4]
 935              	.LVL67:
  93:Core/Src/audio.c **** }
 936              		.loc 1 93 11 view .LVU233
 937              	.LBE124:
 938              	.LBE147:
 119:Core/Src/audio.c **** 		OpSetFreq(&osc3, f0-0.2);
 939              		.loc 1 119 3 is_stmt 1 view .LVU234
 940              	.LBB148:
 941              	.LBI141:
  91:Core/Src/audio.c **** {
 942              		.loc 1 91 6 view .LVU235
 943              	.LBB144:
  93:Core/Src/audio.c **** }
 944              		.loc 1 93 2 view .LVU236
  93:Core/Src/audio.c **** }
 945              		.loc 1 93 2 is_stmt 0 view .LVU237
 946              	.LBE144:
 947              	.LBE148:
 120:Core/Src/audio.c **** 		OpSetFreq(&osc4, f0 + 0.5);
ARM GAS  /var/folders/0z/tsy30v1j4xl4_7kw94k978ww0000gn/T//ccdJe4Gu.s 			page 25


 948              		.loc 1 120 3 is_stmt 1 view .LVU238
 949              	.LBB149:
 950              	.LBI149:
  91:Core/Src/audio.c **** {
 951              		.loc 1 91 6 view .LVU239
 952              	.LBB150:
  93:Core/Src/audio.c **** }
 953              		.loc 1 93 2 view .LVU240
 954              	.LBE150:
 955              	.LBE149:
 120:Core/Src/audio.c **** 		OpSetFreq(&osc4, f0 + 0.5);
 956              		.loc 1 120 22 is_stmt 0 view .LVU241
 957 00f8 FFF7FEFF 		bl	__aeabi_f2d
 958              	.LVL68:
 959 00fc 3AA3     		adr	r3, .L46
 960 00fe D3E90023 		ldrd	r2, [r3]
 961 0102 FFF7FEFF 		bl	__aeabi_dsub
 962              	.LVL69:
 120:Core/Src/audio.c **** 		OpSetFreq(&osc4, f0 + 0.5);
 963              		.loc 1 120 3 view .LVU242
 964 0106 FFF7FEFF 		bl	__aeabi_d2f
 965              	.LVL70:
 966              	.LBB155:
 967              	.LBB151:
  93:Core/Src/audio.c **** }
 968              		.loc 1 93 16 view .LVU243
 969 010a 07EE900A 		vmov	s15, r0
 970              	.LBE151:
 971              	.LBE155:
 121:Core/Src/audio.c **** 		
 972              		.loc 1 121 3 view .LVU244
 973 010e B6EE007A 		vmov.f32	s14, #5.0e-1
 123:Core/Src/audio.c **** 		OpSetFreq(&sub_osc, f_sub);
 974              		.loc 1 123 16 view .LVU245
 975 0112 0C2D     		cmp	r5, #12
 976              	.LBB156:
 977              	.LBB152:
  93:Core/Src/audio.c **** }
 978              		.loc 1 93 16 view .LVU246
 979 0114 67EEA87A 		vmul.f32	s15, s15, s17
 980              	.LBE152:
 981              	.LBE156:
 121:Core/Src/audio.c **** 		
 982              		.loc 1 121 3 view .LVU247
 983 0118 38EE078A 		vadd.f32	s16, s16, s14
 984              	.LVL71:
 985              	.LBB157:
 986              	.LBB153:
  93:Core/Src/audio.c **** }
 987              		.loc 1 93 11 view .LVU248
 988 011c 3B4B     		ldr	r3, .L46+36
 989              	.LBE153:
 990              	.LBE157:
 126:Core/Src/audio.c **** 		// sample = osc_Sine(&osc1);
 991              		.loc 1 126 14 view .LVU249
 992 011e 3C48     		ldr	r0, .L46+40
 993              	.LBB158:
ARM GAS  /var/folders/0z/tsy30v1j4xl4_7kw94k978ww0000gn/T//ccdJe4Gu.s 			page 26


 994              	.LBB154:
  93:Core/Src/audio.c **** }
 995              		.loc 1 93 11 view .LVU250
 996 0120 C3ED017A 		vstr.32	s15, [r3, #4]
 997              	.LVL72:
  93:Core/Src/audio.c **** }
 998              		.loc 1 93 11 view .LVU251
 999              	.LBE154:
 1000              	.LBE158:
 121:Core/Src/audio.c **** 		
 1001              		.loc 1 121 3 is_stmt 1 view .LVU252
 1002              	.LBB159:
 1003              	.LBI159:
  91:Core/Src/audio.c **** {
 1004              		.loc 1 91 6 view .LVU253
 1005              	.LBB160:
  93:Core/Src/audio.c **** }
 1006              		.loc 1 93 2 view .LVU254
 1007              	.LBE160:
 1008              	.LBE159:
 123:Core/Src/audio.c **** 		OpSetFreq(&sub_osc, f_sub);
 1009              		.loc 1 123 15 is_stmt 0 view .LVU255
 1010 0124 84BF     		itt	hi
 1011 0126 06EB8505 		addhi	r5, r6, r5, lsl #2
 1012              	.LVL73:
 1013              	.LBB163:
 1014              	.LBB164:
  93:Core/Src/audio.c **** }
 1015              		.loc 1 93 16 view .LVU256
 1016 012a 55ED0C7A 		vldrhi.32	s15, [r5, #-48]
 1017              	.LBE164:
 1018              	.LBE163:
 1019              	.LBB168:
 1020              	.LBB161:
  93:Core/Src/audio.c **** }
 1021              		.loc 1 93 11 view .LVU257
 1022 012e 394B     		ldr	r3, .L46+44
  93:Core/Src/audio.c **** }
 1023              		.loc 1 93 16 view .LVU258
 1024 0130 28EE288A 		vmul.f32	s16, s16, s17
 1025              	.LBE161:
 1026              	.LBE168:
 1027              	.LBB169:
 1028              	.LBB165:
 1029 0134 88BF     		it	hi
 1030 0136 67EEA87A 		vmulhi.f32	s15, s15, s17
 1031              	.LBE165:
 1032              	.LBE169:
 1033              	.LBB170:
 1034              	.LBB162:
  93:Core/Src/audio.c **** }
 1035              		.loc 1 93 11 view .LVU259
 1036 013a 83ED018A 		vstr.32	s16, [r3, #4]
 1037              	.LVL74:
  93:Core/Src/audio.c **** }
 1038              		.loc 1 93 11 view .LVU260
 1039              	.LBE162:
ARM GAS  /var/folders/0z/tsy30v1j4xl4_7kw94k978ww0000gn/T//ccdJe4Gu.s 			page 27


 1040              	.LBE170:
 123:Core/Src/audio.c **** 		OpSetFreq(&sub_osc, f_sub);
 1041              		.loc 1 123 3 is_stmt 1 view .LVU261
 124:Core/Src/audio.c **** 		// sample = 0.5*(osc_polyblepSaw(&osc1) + osc_polyblepSaw(&osc2) + osc_polyblepSaw(&osc3) + osc_p
 1042              		.loc 1 124 3 view .LVU262
 1043              	.LBB171:
 1044              	.LBI163:
  91:Core/Src/audio.c **** {
 1045              		.loc 1 91 6 view .LVU263
 1046              	.LBB166:
  93:Core/Src/audio.c **** }
 1047              		.loc 1 93 2 view .LVU264
  93:Core/Src/audio.c **** }
 1048              		.loc 1 93 11 is_stmt 0 view .LVU265
 1049 013e 364B     		ldr	r3, .L46+48
 1050              	.LBE166:
 1051              	.LBE171:
 1052 0140 98BF     		it	ls
 1053 0142 F0EE6A7A 		vmovls.f32	s15, s21
 1054              	.LBB172:
 1055              	.LBB167:
 1056 0146 C3ED017A 		vstr.32	s15, [r3, #4]
 1057              	.LVL75:
  93:Core/Src/audio.c **** }
 1058              		.loc 1 93 11 view .LVU266
 1059              	.LBE167:
 1060              	.LBE172:
 126:Core/Src/audio.c **** 		// sample = osc_Sine(&osc1);
 1061              		.loc 1 126 3 is_stmt 1 view .LVU267
 126:Core/Src/audio.c **** 		// sample = osc_Sine(&osc1);
 1062              		.loc 1 126 14 is_stmt 0 view .LVU268
 1063 014a FFF7FEFF 		bl	osc_polyblepSaw
 1064              	.LVL76:
 126:Core/Src/audio.c **** 		// sample = osc_Sine(&osc1);
 1065              		.loc 1 126 39 view .LVU269
 1066 014e 3248     		ldr	r0, .L46+48
 126:Core/Src/audio.c **** 		// sample = osc_Sine(&osc1);
 1067              		.loc 1 126 14 view .LVU270
 1068 0150 B0EE40BA 		vmov.f32	s22, s0
 126:Core/Src/audio.c **** 		// sample = osc_Sine(&osc1);
 1069              		.loc 1 126 39 view .LVU271
 1070 0154 FFF7FEFF 		bl	osc_polyblepRect
 1071              	.LVL77:
 126:Core/Src/audio.c **** 		// sample = osc_Sine(&osc1);
 1072              		.loc 1 126 10 view .LVU272
 1073 0158 ABEE290A 		vfma.f32	s0, s22, s19
 135:Core/Src/audio.c **** 		Moog_filter.cutoff = 2000 * filt_env;
 1074              		.loc 1 135 14 view .LVU273
 1075 015c 2F48     		ldr	r0, .L46+52
 126:Core/Src/audio.c **** 		// sample = osc_Sine(&osc1);
 1076              		.loc 1 126 10 view .LVU274
 1077 015e B0EE408A 		vmov.f32	s16, s0
 1078              	.LVL78:
 135:Core/Src/audio.c **** 		Moog_filter.cutoff = 2000 * filt_env;
 1079              		.loc 1 135 3 is_stmt 1 view .LVU275
 135:Core/Src/audio.c **** 		Moog_filter.cutoff = 2000 * filt_env;
 1080              		.loc 1 135 14 is_stmt 0 view .LVU276
ARM GAS  /var/folders/0z/tsy30v1j4xl4_7kw94k978ww0000gn/T//ccdJe4Gu.s 			page 28


 1081 0162 FFF7FEFF 		bl	ADSR_compute
 1082              	.LVL79:
 136:Core/Src/audio.c **** 		sample = MoogLP_compute(&Moog_filter, sample);
 1083              		.loc 1 136 3 is_stmt 1 view .LVU277
 136:Core/Src/audio.c **** 		sample = MoogLP_compute(&Moog_filter, sample);
 1084              		.loc 1 136 22 is_stmt 0 view .LVU278
 1085 0166 2E4B     		ldr	r3, .L46+56
 135:Core/Src/audio.c **** 		Moog_filter.cutoff = 2000 * filt_env;
 1086              		.loc 1 135 14 view .LVU279
 1087 0168 F0EE407A 		vmov.f32	s15, s0
 136:Core/Src/audio.c **** 		sample = MoogLP_compute(&Moog_filter, sample);
 1088              		.loc 1 136 29 view .LVU280
 1089 016c 67EE897A 		vmul.f32	s15, s15, s18
 137:Core/Src/audio.c **** 	
 1090              		.loc 1 137 12 view .LVU281
 1091 0170 1846     		mov	r0, r3
 1092 0172 B0EE480A 		vmov.f32	s0, s16
 136:Core/Src/audio.c **** 		sample = MoogLP_compute(&Moog_filter, sample);
 1093              		.loc 1 136 22 view .LVU282
 1094 0176 C3ED007A 		vstr.32	s15, [r3]
 137:Core/Src/audio.c **** 	
 1095              		.loc 1 137 3 is_stmt 1 view .LVU283
 137:Core/Src/audio.c **** 	
 1096              		.loc 1 137 12 is_stmt 0 view .LVU284
 1097 017a FFF7FEFF 		bl	MoogLP_compute
 1098              	.LVL80:
 142:Core/Src/audio.c **** 		sample *= amp_env;
 1099              		.loc 1 142 13 view .LVU285
 1100 017e 2948     		ldr	r0, .L46+60
 137:Core/Src/audio.c **** 	
 1101              		.loc 1 137 12 view .LVU286
 1102 0180 B0EE408A 		vmov.f32	s16, s0
 1103              	.LVL81:
 142:Core/Src/audio.c **** 		sample *= amp_env;
 1104              		.loc 1 142 3 is_stmt 1 view .LVU287
 142:Core/Src/audio.c **** 		sample *= amp_env;
 1105              		.loc 1 142 13 is_stmt 0 view .LVU288
 1106 0184 FFF7FEFF 		bl	ADSR_compute
 1107              	.LVL82:
 143:Core/Src/audio.c **** 
 1108              		.loc 1 143 3 is_stmt 1 view .LVU289
 153:Core/Src/audio.c **** 		sampleL = delayLOut;
 1109              		.loc 1 153 3 view .LVU290
 1110 0188 2749     		ldr	r1, .L46+64
 1111 018a 2848     		ldr	r0, .L46+68
 1112 018c 20EE080A 		vmul.f32	s0, s0, s16
 1113              	.LVL83:
 153:Core/Src/audio.c **** 		sampleL = delayLOut;
 1114              		.loc 1 153 3 is_stmt 0 view .LVU291
 1115 0190 FFF7FEFF 		bl	pingpongDelay_compute
 1116              	.LVL84:
 154:Core/Src/audio.c **** 		sampleR = delayROut;
 1117              		.loc 1 154 3 is_stmt 1 view .LVU292
 154:Core/Src/audio.c **** 		sampleR = delayROut;
 1118              		.loc 1 154 11 is_stmt 0 view .LVU293
 1119 0194 254B     		ldr	r3, .L46+68
 1120 0196 93ED007A 		vldr.32	s14, [r3]
ARM GAS  /var/folders/0z/tsy30v1j4xl4_7kw94k978ww0000gn/T//ccdJe4Gu.s 			page 29


 1121              	.LVL85:
 155:Core/Src/audio.c **** 		//sampleL = sample;
 1122              		.loc 1 155 3 is_stmt 1 view .LVU294
 155:Core/Src/audio.c **** 		//sampleL = sample;
 1123              		.loc 1 155 11 is_stmt 0 view .LVU295
 1124 019a 234B     		ldr	r3, .L46+64
 1125              	.LBB173:
 1126              	.LBB129:
  62:Core/Inc/helper_functions.h ****     {
 1127              		.loc 2 62 8 view .LVU296
 1128 019c F8EE086A 		vmov.f32	s13, #-3.0e+0
 1129 01a0 B4EEE67A 		vcmpe.f32	s14, s13
 1130 01a4 F1EE10FA 		vmrs	APSR_nzcv, FPSCR
 1131              	.LBE129:
 1132              	.LBE173:
 155:Core/Src/audio.c **** 		//sampleL = sample;
 1133              		.loc 1 155 11 view .LVU297
 1134 01a8 D3ED007A 		vldr.32	s15, [r3]
 1135              	.LVL86:
 160:Core/Src/audio.c **** 		sampleR = SoftClip(sampleR);
 1136              		.loc 1 160 3 is_stmt 1 view .LVU298
 1137              	.LBB174:
 1138              	.LBI125:
  60:Core/Inc/helper_functions.h **** {
 1139              		.loc 2 60 14 view .LVU299
 1140              	.LBB130:
  62:Core/Inc/helper_functions.h ****     {
 1141              		.loc 2 62 5 view .LVU300
  62:Core/Inc/helper_functions.h ****     {
 1142              		.loc 2 62 8 is_stmt 0 view .LVU301
 1143 01ac 7FF544AF 		bpl	.L44
 1144              	.LBE130:
 1145              	.LBE174:
 1146              	.LBB175:
 1147              	.LBB137:
 1148 01b0 B8EE087A 		vmov.f32	s14, #-3.0e+0
 1149              	.LVL87:
  62:Core/Inc/helper_functions.h ****     {
 1150              		.loc 2 62 8 view .LVU302
 1151 01b4 F4EEC77A 		vcmpe.f32	s15, s14
 1152 01b8 F1EE10FA 		vmrs	APSR_nzcv, FPSCR
 1153              	.LBE137:
 1154              	.LBE175:
 1155              	.LBB176:
 1156              	.LBB131:
 1157 01bc 1C4A     		ldr	r2, .L46+72
 1158              	.LVL88:
  62:Core/Inc/helper_functions.h ****     {
 1159              		.loc 2 62 8 view .LVU303
 1160              	.LBE131:
 1161              	.LBE176:
 161:Core/Src/audio.c **** 
 1162              		.loc 1 161 3 is_stmt 1 view .LVU304
 1163              	.LBB177:
  60:Core/Inc/helper_functions.h **** {
 1164              		.loc 2 60 14 view .LVU305
 1165              	.LBB138:
ARM GAS  /var/folders/0z/tsy30v1j4xl4_7kw94k978ww0000gn/T//ccdJe4Gu.s 			page 30


  62:Core/Inc/helper_functions.h ****     {
 1166              		.loc 2 62 5 view .LVU306
  62:Core/Inc/helper_functions.h ****     {
 1167              		.loc 2 62 8 is_stmt 0 view .LVU307
 1168 01be 7FF564AF 		bpl	.L45
 1169              	.L36:
 1170 01c2 1B4B     		ldr	r3, .L46+72
 1171              	.LVL89:
  62:Core/Inc/helper_functions.h ****     {
 1172              		.loc 2 62 8 view .LVU308
 1173              	.LBE138:
 1174              	.LBE177:
 164:Core/Src/audio.c **** 		valueR = ((int16_t) ((32767.0f) * sampleR));
 1175              		.loc 1 164 3 is_stmt 1 view .LVU309
 165:Core/Src/audio.c **** 
 1176              		.loc 1 165 3 view .LVU310
 168:Core/Src/audio.c **** 	    output[(i<<1) + 1] = valueR;	// RIGHT channel
 1177              		.loc 1 168 3 view .LVU311
 168:Core/Src/audio.c **** 	    output[(i<<1) + 1] = valueR;	// RIGHT channel
 1178              		.loc 1 168 16 is_stmt 0 view .LVU312
 1179 01c4 28F82420 		strh	r2, [r8, r4, lsl #2]	@ movhi
 169:Core/Src/audio.c **** 	}
 1180              		.loc 1 169 6 is_stmt 1 view .LVU313
 169:Core/Src/audio.c **** 	}
 1181              		.loc 1 169 25 is_stmt 0 view .LVU314
 1182 01c8 29F82430 		strh	r3, [r9, r4, lsl #2]	@ movhi
 112:Core/Src/audio.c **** 	{
 1183              		.loc 1 112 28 is_stmt 1 view .LVU315
 1184 01cc 0134     		adds	r4, r4, #1
 1185              	.LVL90:
 112:Core/Src/audio.c **** 	{
 1186              		.loc 1 112 16 view .LVU316
 1187 01ce BC42     		cmp	r4, r7
 1188 01d0 83D1     		bne	.L27
 1189              	.L43:
 1190              		.loc 1 171 1 is_stmt 0 view .LVU317
 1191 01d2 BDEC088B 		vldm	sp!, {d8-d11}
 1192              		.cfi_remember_state
 1193              		.cfi_restore 86
 1194              		.cfi_restore 87
 1195              		.cfi_restore 84
 1196              		.cfi_restore 85
 1197              		.cfi_restore 82
 1198              		.cfi_restore 83
 1199              		.cfi_restore 80
 1200              		.cfi_restore 81
 1201              		.cfi_def_cfa_offset 40
 1202 01d6 BDE8F88F 		pop	{r3, r4, r5, r6, r7, r8, r9, r10, fp, pc}
 1203              	.LVL91:
 1204              	.L35:
 1205              		.cfi_restore_state
 1206              	.LBB178:
 1207              	.LBB132:
 1208              		.loc 1 171 1 view .LVU318
 1209 01da 47F6FF72 		movw	r2, #32767
 1210 01de 4CE7     		b	.L29
 1211              	.LVL92:
ARM GAS  /var/folders/0z/tsy30v1j4xl4_7kw94k978ww0000gn/T//ccdJe4Gu.s 			page 31


 1212              	.L37:
 1213              		.loc 1 171 1 view .LVU319
 1214              	.LBE132:
 1215              	.LBE178:
 1216              	.LBB179:
 1217              	.LBB139:
 1218 01e0 47F6FF73 		movw	r3, #32767
 1219 01e4 72E7     		b	.L30
 1220              	.LVL93:
 1221              	.L40:
 1222              		.cfi_def_cfa_offset 0
 1223              		.cfi_restore 3
 1224              		.cfi_restore 4
 1225              		.cfi_restore 5
 1226              		.cfi_restore 6
 1227              		.cfi_restore 7
 1228              		.cfi_restore 8
 1229              		.cfi_restore 9
 1230              		.cfi_restore 10
 1231              		.cfi_restore 11
 1232              		.cfi_restore 14
 1233              		.cfi_restore 80
 1234              		.cfi_restore 81
 1235              		.cfi_restore 82
 1236              		.cfi_restore 83
 1237              		.cfi_restore 84
 1238              		.cfi_restore 85
 1239              		.cfi_restore 86
 1240              		.cfi_restore 87
 1241              		.loc 1 171 1 view .LVU320
 1242 01e6 7047     		bx	lr
 1243              	.L47:
 1244              		.align	3
 1245              	.L46:
 1246 01e8 9A999999 		.word	-1717986918
 1247 01ec 9999C93F 		.word	1070176665
 1248 01f0 00000000 		.word	.LANCHOR0
 1249 01f4 8D3B803F 		.word	1065368461
 1250 01f8 EF0C0341 		.word	1090718959
 1251 01fc 00000000 		.word	0
 1252 0200 0000FA44 		.word	1157234688
 1253 0204 00FEFF46 		.word	1191181824
 1254 0208 00000000 		.word	osc2
 1255 020c 00000000 		.word	osc3
 1256 0210 00000000 		.word	osc1
 1257 0214 00000000 		.word	osc4
 1258 0218 00000000 		.word	sub_osc
 1259 021c 00000000 		.word	adsr_filt
 1260 0220 00000000 		.word	Moog_filter
 1261 0224 00000000 		.word	adsr_amp
 1262 0228 00000000 		.word	.LANCHOR1
 1263 022c 00000000 		.word	.LANCHOR2
 1264 0230 0180FFFF 		.word	-32767
 1265 0234 00000000 		.word	currentPitch
 1266              	.LBE139:
 1267              	.LBE179:
 1268              		.cfi_endproc
ARM GAS  /var/folders/0z/tsy30v1j4xl4_7kw94k978ww0000gn/T//ccdJe4Gu.s 			page 32


 1269              	.LFE241:
 1271              		.section	.text.BSP_AUDIO_OUT_HalfTransfer_CallBack,"ax",%progbits
 1272              		.align	1
 1273              		.p2align 2,,3
 1274              		.global	BSP_AUDIO_OUT_HalfTransfer_CallBack
 1275              		.syntax unified
 1276              		.thumb
 1277              		.thumb_func
 1279              	BSP_AUDIO_OUT_HalfTransfer_CallBack:
 1280              	.LFB242:
 172:Core/Src/audio.c **** 
 173:Core/Src/audio.c **** 
 174:Core/Src/audio.c **** 
 175:Core/Src/audio.c **** void BSP_AUDIO_OUT_HalfTransfer_CallBack(void)
 176:Core/Src/audio.c **** {
 1281              		.loc 1 176 1 is_stmt 1 view -0
 1282              		.cfi_startproc
 1283              		@ args = 0, pretend = 0, frame = 0
 1284              		@ frame_needed = 0, uses_anonymous_args = 0
 1285              		@ link register save eliminated.
 177:Core/Src/audio.c **** 	audioBlock((uint16_t *)audioBuffer, BUFFER_SIZE_DIV_4);
 1286              		.loc 1 177 2 view .LVU322
 1287 0000 0148     		ldr	r0, .L49
 1288 0002 FFF7FEBF 		b	audioBlock.constprop.0
 1289              	.LVL94:
 1290              	.L50:
 1291 0006 00BF     		.align	2
 1292              	.L49:
 1293 0008 00000000 		.word	.LANCHOR3
 1294              		.cfi_endproc
 1295              	.LFE242:
 1297              		.section	.text.BSP_AUDIO_OUT_TransferComplete_CallBack,"ax",%progbits
 1298              		.align	1
 1299              		.p2align 2,,3
 1300              		.global	BSP_AUDIO_OUT_TransferComplete_CallBack
 1301              		.syntax unified
 1302              		.thumb
 1303              		.thumb_func
 1305              	BSP_AUDIO_OUT_TransferComplete_CallBack:
 1306              	.LFB243:
 178:Core/Src/audio.c **** }
 179:Core/Src/audio.c **** 
 180:Core/Src/audio.c **** void BSP_AUDIO_OUT_TransferComplete_CallBack(void)
 181:Core/Src/audio.c **** {
 1307              		.loc 1 181 1 view -0
 1308              		.cfi_startproc
 1309              		@ args = 0, pretend = 0, frame = 0
 1310              		@ frame_needed = 0, uses_anonymous_args = 0
 1311              		@ link register save eliminated.
 182:Core/Src/audio.c **** 	audioBlock((uint16_t *)(audioBuffer + BUFFER_SIZE_DIV_2), BUFFER_SIZE_DIV_4);
 1312              		.loc 1 182 2 view .LVU324
 1313 0000 0148     		ldr	r0, .L52
 1314 0002 FFF7FEBF 		b	audioBlock.constprop.0
 1315              	.LVL95:
 1316              	.L53:
 1317 0006 00BF     		.align	2
 1318              	.L52:
ARM GAS  /var/folders/0z/tsy30v1j4xl4_7kw94k978ww0000gn/T//ccdJe4Gu.s 			page 33


 1319 0008 00010000 		.word	.LANCHOR3+256
 1320              		.cfi_endproc
 1321              	.LFE243:
 1323              		.section	.text.BSP_AUDIO_OUT_Error_CallBack,"ax",%progbits
 1324              		.align	1
 1325              		.p2align 2,,3
 1326              		.global	BSP_AUDIO_OUT_Error_CallBack
 1327              		.syntax unified
 1328              		.thumb
 1329              		.thumb_func
 1331              	BSP_AUDIO_OUT_Error_CallBack:
 1332              	.LFB244:
 183:Core/Src/audio.c **** }
 184:Core/Src/audio.c **** 
 185:Core/Src/audio.c **** void BSP_AUDIO_OUT_Error_CallBack(void)
 186:Core/Src/audio.c **** {
 1333              		.loc 1 186 1 view -0
 1334              		.cfi_startproc
 1335              		@ Volatile: function does not return.
 1336              		@ args = 0, pretend = 0, frame = 0
 1337              		@ frame_needed = 0, uses_anonymous_args = 0
 1338              		@ link register save eliminated.
 1339              	.L55:
 187:Core/Src/audio.c **** 	/* Stop the program with an infinite loop */
 188:Core/Src/audio.c **** 	while (1)
 1340              		.loc 1 188 2 discriminator 1 view .LVU326
 189:Core/Src/audio.c **** 	{
 190:Core/Src/audio.c **** 	}
 1341              		.loc 1 190 2 discriminator 1 view .LVU327
 188:Core/Src/audio.c **** 	{
 1342              		.loc 1 188 8 discriminator 1 view .LVU328
 1343 0000 FEE7     		b	.L55
 1344              		.cfi_endproc
 1345              	.LFE244:
 1347 0002 00BF     		.section	.text.DMA1_Stream7_IRQHandler,"ax",%progbits
 1348              		.align	1
 1349              		.p2align 2,,3
 1350              		.global	DMA1_Stream7_IRQHandler
 1351              		.syntax unified
 1352              		.thumb
 1353              		.thumb_func
 1355              	DMA1_Stream7_IRQHandler:
 1356              	.LFB245:
 191:Core/Src/audio.c **** }
 192:Core/Src/audio.c **** 
 193:Core/Src/audio.c **** 
 194:Core/Src/audio.c **** void I2S3_IRQHandler(void)
 195:Core/Src/audio.c **** {
 1357              		.loc 1 195 1 view -0
 1358              		.cfi_startproc
 1359              		@ args = 0, pretend = 0, frame = 0
 1360              		@ frame_needed = 0, uses_anonymous_args = 0
 1361              		@ link register save eliminated.
 196:Core/Src/audio.c **** 	HAL_DMA_IRQHandler(hAudioOutI2s.hdmatx);
 1362              		.loc 1 196 2 view .LVU330
 1363 0000 014B     		ldr	r3, .L57
 1364 0002 986B     		ldr	r0, [r3, #56]
ARM GAS  /var/folders/0z/tsy30v1j4xl4_7kw94k978ww0000gn/T//ccdJe4Gu.s 			page 34


 1365 0004 FFF7FEBF 		b	HAL_DMA_IRQHandler
 1366              	.LVL96:
 1367              	.L58:
 1368              		.align	2
 1369              	.L57:
 1370 0008 00000000 		.word	hAudioOutI2s
 1371              		.cfi_endproc
 1372              	.LFE245:
 1374              		.section	.text.DMA1_Stream3_IRQHandler,"ax",%progbits
 1375              		.align	1
 1376              		.p2align 2,,3
 1377              		.global	DMA1_Stream3_IRQHandler
 1378              		.syntax unified
 1379              		.thumb
 1380              		.thumb_func
 1382              	DMA1_Stream3_IRQHandler:
 1383              	.LFB246:
 197:Core/Src/audio.c **** }
 198:Core/Src/audio.c **** void I2S2_IRQHandler(void)
 199:Core/Src/audio.c **** {
 1384              		.loc 1 199 1 view -0
 1385              		.cfi_startproc
 1386              		@ args = 0, pretend = 0, frame = 0
 1387              		@ frame_needed = 0, uses_anonymous_args = 0
 1388              		@ link register save eliminated.
 200:Core/Src/audio.c **** 	HAL_DMA_IRQHandler(hAudioInI2s.hdmarx);
 1389              		.loc 1 200 2 view .LVU332
 1390 0000 014B     		ldr	r3, .L60
 1391 0002 D86B     		ldr	r0, [r3, #60]
 1392 0004 FFF7FEBF 		b	HAL_DMA_IRQHandler
 1393              	.LVL97:
 1394              	.L61:
 1395              		.align	2
 1396              	.L60:
 1397 0008 00000000 		.word	hAudioInI2s
 1398              		.cfi_endproc
 1399              	.LFE246:
 1401              		.global	delayROut
 1402              		.global	delayLOut
 1403              		.global	audioBuffer
 1404              		.global	pbend
 1405              		.global	mtof
 1406              		.section	.bss.audioBuffer,"aw",%nobits
 1407              		.align	2
 1408              		.set	.LANCHOR3,. + 0
 1411              	audioBuffer:
 1412 0000 00000000 		.space	512
 1412      00000000 
 1412      00000000 
 1412      00000000 
 1412      00000000 
 1413              		.section	.bss.delayLOut,"aw",%nobits
 1414              		.align	2
 1415              		.set	.LANCHOR2,. + 0
 1418              	delayLOut:
 1419 0000 00000000 		.space	4
 1420              		.section	.bss.delayROut,"aw",%nobits
ARM GAS  /var/folders/0z/tsy30v1j4xl4_7kw94k978ww0000gn/T//ccdJe4Gu.s 			page 35


 1421              		.align	2
 1422              		.set	.LANCHOR1,. + 0
 1425              	delayROut:
 1426 0000 00000000 		.space	4
 1427              		.section	.rodata.mtof,"a"
 1428              		.align	2
 1429              		.set	.LANCHOR0,. + 0
 1432              	mtof:
 1433 0000 13D00241 		.word	1090703379
 1434 0004 60970A41 		.word	1091213152
 1435 0008 17D51241 		.word	1091753239
 1436 000c 41901B41 		.word	1092325441
 1437 0010 54D02441 		.word	1092931668
 1438 0014 369D2E41 		.word	1093573942
 1439 0018 4AFF3841 		.word	1094254410
 1440 001c 6AFF4341 		.word	1094975338
 1441 0020 01A74F41 		.word	1095739137
 1442 0024 00005C41 		.word	1096548352
 1443 0028 F7146941 		.word	1097405687
 1444 002c 10F17641 		.word	1098314000
 1445 0030 13D08241 		.word	1099091987
 1446 0034 60978A41 		.word	1099601760
 1447 0038 17D59241 		.word	1100141847
 1448 003c 41909B41 		.word	1100714049
 1449 0040 54D0A441 		.word	1101320276
 1450 0044 369DAE41 		.word	1101962550
 1451 0048 49FFB841 		.word	1102643017
 1452 004c 6BFFC341 		.word	1103363947
 1453 0050 01A7CF41 		.word	1104127745
 1454 0054 0000DC41 		.word	1104936960
 1455 0058 F614E941 		.word	1105794294
 1456 005c 10F1F641 		.word	1106702608
 1457 0060 13D00242 		.word	1107480595
 1458 0064 60970A42 		.word	1107990368
 1459 0068 17D51242 		.word	1108530455
 1460 006c 41901B42 		.word	1109102657
 1461 0070 54D02442 		.word	1109708884
 1462 0074 379D2E42 		.word	1110351159
 1463 0078 49FF3842 		.word	1111031625
 1464 007c 6AFF4342 		.word	1111752554
 1465 0080 00A74F42 		.word	1112516352
 1466 0084 00005C42 		.word	1113325568
 1467 0088 F6146942 		.word	1114182902
 1468 008c 10F17642 		.word	1115091216
 1469 0090 12D08242 		.word	1115869202
 1470 0094 60978A42 		.word	1116378976
 1471 0098 17D59242 		.word	1116919063
 1472 009c 41909B42 		.word	1117491265
 1473 00a0 54D0A442 		.word	1118097492
 1474 00a4 379DAE42 		.word	1118739767
 1475 00a8 49FFB842 		.word	1119420233
 1476 00ac 6AFFC342 		.word	1120141162
 1477 00b0 00A7CF42 		.word	1120904960
 1478 00b4 0000DC42 		.word	1121714176
 1479 00b8 F614E942 		.word	1122571510
 1480 00bc 10F1F642 		.word	1123479824
 1481 00c0 13D00243 		.word	1124257811
ARM GAS  /var/folders/0z/tsy30v1j4xl4_7kw94k978ww0000gn/T//ccdJe4Gu.s 			page 36


 1482 00c4 60970A43 		.word	1124767584
 1483 00c8 17D51243 		.word	1125307671
 1484 00cc 41901B43 		.word	1125879873
 1485 00d0 54D02443 		.word	1126486100
 1486 00d4 379D2E43 		.word	1127128375
 1487 00d8 49FF3843 		.word	1127808841
 1488 00dc 6AFF4343 		.word	1128529770
 1489 00e0 00A74F43 		.word	1129293568
 1490 00e4 00005C43 		.word	1130102784
 1491 00e8 F6146943 		.word	1130960118
 1492 00ec 10F17643 		.word	1131868432
 1493 00f0 13D08243 		.word	1132646419
 1494 00f4 60978A43 		.word	1133156192
 1495 00f8 17D59243 		.word	1133696279
 1496 00fc 41909B43 		.word	1134268481
 1497 0100 54D0A443 		.word	1134874708
 1498 0104 379DAE43 		.word	1135516983
 1499 0108 49FFB843 		.word	1136197449
 1500 010c 6AFFC343 		.word	1136918378
 1501 0110 00A7CF43 		.word	1137682176
 1502 0114 0000DC43 		.word	1138491392
 1503 0118 F614E943 		.word	1139348726
 1504 011c 10F1F643 		.word	1140257040
 1505 0120 13D00244 		.word	1141035027
 1506 0124 60970A44 		.word	1141544800
 1507 0128 17D51244 		.word	1142084887
 1508 012c 41901B44 		.word	1142657089
 1509 0130 54D02444 		.word	1143263316
 1510 0134 379D2E44 		.word	1143905591
 1511 0138 49FF3844 		.word	1144586057
 1512 013c 6AFF4344 		.word	1145306986
 1513 0140 00A74F44 		.word	1146070784
 1514 0144 00005C44 		.word	1146880000
 1515 0148 F6146944 		.word	1147737334
 1516 014c 10F17644 		.word	1148645648
 1517 0150 13D08244 		.word	1149423635
 1518 0154 60978A44 		.word	1149933408
 1519 0158 17D59244 		.word	1150473495
 1520 015c 41909B44 		.word	1151045697
 1521 0160 54D0A444 		.word	1151651924
 1522 0164 379DAE44 		.word	1152294199
 1523 0168 49FFB844 		.word	1152974665
 1524 016c 6AFFC344 		.word	1153695594
 1525 0170 00A7CF44 		.word	1154459392
 1526 0174 0000DC44 		.word	1155268608
 1527 0178 F614E944 		.word	1156125942
 1528 017c 10F1F644 		.word	1157034256
 1529 0180 13D00245 		.word	1157812243
 1530 0184 60970A45 		.word	1158322016
 1531 0188 17D51245 		.word	1158862103
 1532 018c 41901B45 		.word	1159434305
 1533 0190 54D02445 		.word	1160040532
 1534 0194 379D2E45 		.word	1160682807
 1535 0198 49FF3845 		.word	1161363273
 1536 019c 6AFF4345 		.word	1162084202
 1537 01a0 00A74F45 		.word	1162848000
 1538 01a4 00005C45 		.word	1163657216
ARM GAS  /var/folders/0z/tsy30v1j4xl4_7kw94k978ww0000gn/T//ccdJe4Gu.s 			page 37


 1539 01a8 F6146945 		.word	1164514550
 1540 01ac 10F17645 		.word	1165422864
 1541 01b0 13D08245 		.word	1166200851
 1542 01b4 60978A45 		.word	1166710624
 1543 01b8 17D59245 		.word	1167250711
 1544 01bc 41909B45 		.word	1167822913
 1545 01c0 54D0A445 		.word	1168429140
 1546 01c4 379DAE45 		.word	1169071415
 1547 01c8 49FFB845 		.word	1169751881
 1548 01cc 6AFFC345 		.word	1170472810
 1549 01d0 00A7CF45 		.word	1171236608
 1550 01d4 0000DC45 		.word	1172045824
 1551 01d8 F614E945 		.word	1172903158
 1552 01dc 10F1F645 		.word	1173811472
 1553 01e0 13D00246 		.word	1174589459
 1554 01e4 60970A46 		.word	1175099232
 1555 01e8 17D51246 		.word	1175639319
 1556 01ec 41901B46 		.word	1176211521
 1557 01f0 54D02446 		.word	1176817748
 1558 01f4 379D2E46 		.word	1177460023
 1559 01f8 49FF3846 		.word	1178140489
 1560 01fc 6AFF4346 		.word	1178861418
 1561              		.section	.rodata.pbend,"a"
 1562              		.align	2
 1565              	pbend:
 1566 0000 0000003F 		.word	1056964608
 1567 0004 5E2C003F 		.word	1056975966
 1568 0008 DE58003F 		.word	1056987358
 1569 000c 5E85003F 		.word	1056998750
 1570 0010 EEB1003F 		.word	1057010158
 1571 0014 8FDE003F 		.word	1057021583
 1572 0018 410B013F 		.word	1057033025
 1573 001c 0438013F 		.word	1057044484
 1574 0020 D864013F 		.word	1057055960
 1575 0024 AC91013F 		.word	1057067436
 1576 0028 A1BE013F 		.word	1057078945
 1577 002c A7EB013F 		.word	1057090471
 1578 0030 AD18023F 		.word	1057101997
 1579 0034 D445023F 		.word	1057113556
 1580 0038 FC72023F 		.word	1057125116
 1581 003c 34A0023F 		.word	1057136692
 1582 0040 8ECD023F 		.word	1057148302
 1583 0044 E8FA023F 		.word	1057159912
 1584 0048 5228033F 		.word	1057171538
 1585 004c CE55033F 		.word	1057183182
 1586 0050 5A83033F 		.word	1057194842
 1587 0054 F7B0033F 		.word	1057206519
 1588 0058 A4DE033F 		.word	1057218212
 1589 005c 630C043F 		.word	1057229923
 1590 0060 213A043F 		.word	1057241633
 1591 0064 0168043F 		.word	1057253377
 1592 0068 F295043F 		.word	1057265138
 1593 006c E3C3043F 		.word	1057276899
 1594 0070 F5F1043F 		.word	1057288693
 1595 0074 1920053F 		.word	1057300505
 1596 0078 3C4E053F 		.word	1057312316
 1597 007c 707C053F 		.word	1057324144
ARM GAS  /var/folders/0z/tsy30v1j4xl4_7kw94k978ww0000gn/T//ccdJe4Gu.s 			page 38


 1598 0080 C5AA053F 		.word	1057336005
 1599 0084 1BD9053F 		.word	1057347867
 1600 0088 9207063F 		.word	1057359762
 1601 008c 0936063F 		.word	1057371657
 1602 0090 9164063F 		.word	1057383569
 1603 0094 2993063F 		.word	1057395497
 1604 0098 D3C1063F 		.word	1057407443
 1605 009c 9EF0063F 		.word	1057419422
 1606 00a0 681F073F 		.word	1057431400
 1607 00a4 444E073F 		.word	1057443396
 1608 00a8 317D073F 		.word	1057455409
 1609 00ac 2EAC073F 		.word	1057467438
 1610 00b0 3CDB073F 		.word	1057479484
 1611 00b4 5B0A083F 		.word	1057491547
 1612 00b8 7A39083F 		.word	1057503610
 1613 00bc BA68083F 		.word	1057515706
 1614 00c0 0B98083F 		.word	1057527819
 1615 00c4 6DC7083F 		.word	1057539949
 1616 00c8 E0F6083F 		.word	1057552096
 1617 00cc 6326093F 		.word	1057564259
 1618 00d0 E755093F 		.word	1057576423
 1619 00d4 8C85093F 		.word	1057588620
 1620 00d8 42B5093F 		.word	1057600834
 1621 00dc 08E5093F 		.word	1057613064
 1622 00e0 CF140A3F 		.word	1057625295
 1623 00e4 B7440A3F 		.word	1057637559
 1624 00e8 B0740A3F 		.word	1057649840
 1625 00ec A9A40A3F 		.word	1057662121
 1626 00f0 C3D40A3F 		.word	1057674435
 1627 00f4 EE040B3F 		.word	1057686766
 1628 00f8 2B350B3F 		.word	1057699115
 1629 00fc 67650B3F 		.word	1057711463
 1630 0100 C4950B3F 		.word	1057723844
 1631 0104 32C60B3F 		.word	1057736242
 1632 0108 A1F60B3F 		.word	1057748641
 1633 010c 31270C3F 		.word	1057761073
 1634 0110 D1570C3F 		.word	1057773521
 1635 0114 72880C3F 		.word	1057785970
 1636 0118 34B90C3F 		.word	1057798452
 1637 011c 07EA0C3F 		.word	1057810951
 1638 0120 DA1A0D3F 		.word	1057823450
 1639 0124 CF4B0D3F 		.word	1057835983
 1640 0128 D47C0D3F 		.word	1057848532
 1641 012c DAAD0D3F 		.word	1057861082
 1642 0130 01DF0D3F 		.word	1057873665
 1643 0134 38100E3F 		.word	1057886264
 1644 0138 81410E3F 		.word	1057898881
 1645 013c DA720E3F 		.word	1057911514
 1646 0140 33A40E3F 		.word	1057924147
 1647 0144 AED50E3F 		.word	1057936814
 1648 0148 3A070F3F 		.word	1057949498
 1649 014c D6380F3F 		.word	1057962198
 1650 0150 836A0F3F 		.word	1057974915
 1651 0154 419C0F3F 		.word	1057987649
 1652 0158 10CE0F3F 		.word	1058000400
 1653 015c EFFF0F3F 		.word	1058013167
 1654 0160 DF31103F 		.word	1058025951
ARM GAS  /var/folders/0z/tsy30v1j4xl4_7kw94k978ww0000gn/T//ccdJe4Gu.s 			page 39


 1655 0164 E063103F 		.word	1058038752
 1656 0168 F295103F 		.word	1058051570
 1657 016c 15C8103F 		.word	1058064405
 1658 0170 48FA103F 		.word	1058077256
 1659 0174 8C2C113F 		.word	1058090124
 1660 0178 F25E113F 		.word	1058103026
 1661 017c 5891113F 		.word	1058115928
 1662 0180 CEC3113F 		.word	1058128846
 1663 0184 66F6113F 		.word	1058141798
 1664 0188 FE28123F 		.word	1058154750
 1665 018c B85B123F 		.word	1058167736
 1666 0190 718E123F 		.word	1058180721
 1667 0194 4CC1123F 		.word	1058193740
 1668 0198 28F4123F 		.word	1058206760
 1669 019c 2427133F 		.word	1058219812
 1670 01a0 325A133F 		.word	1058232882
 1671 01a4 3F8D133F 		.word	1058245951
 1672 01a8 6EC0133F 		.word	1058259054
 1673 01ac AEF3133F 		.word	1058272174
 1674 01b0 FE26143F 		.word	1058285310
 1675 01b4 605A143F 		.word	1058298464
 1676 01b8 D28D143F 		.word	1058311634
 1677 01bc 55C1143F 		.word	1058324821
 1678 01c0 E8F4143F 		.word	1058338024
 1679 01c4 9E28153F 		.word	1058351262
 1680 01c8 535C153F 		.word	1058364499
 1681 01cc 1990153F 		.word	1058377753
 1682 01d0 00C4153F 		.word	1058391040
 1683 01d4 E8F7153F 		.word	1058404328
 1684 01d8 F12B163F 		.word	1058417649
 1685 01dc 0B60163F 		.word	1058430987
 1686 01e0 2594163F 		.word	1058444325
 1687 01e4 60C8163F 		.word	1058457696
 1688 01e8 ADFC163F 		.word	1058471085
 1689 01ec 0A31173F 		.word	1058484490
 1690 01f0 7765173F 		.word	1058497911
 1691 01f4 079A173F 		.word	1058511367
 1692 01f8 96CE173F 		.word	1058524822
 1693 01fc 3603183F 		.word	1058538294
 1694 0200 F837183F 		.word	1058551800
 1695 0204 B96C183F 		.word	1058565305
 1696 0208 9DA1183F 		.word	1058578845
 1697 020c 80D6183F 		.word	1058592384
 1698 0210 850B193F 		.word	1058605957
 1699 0214 9A40193F 		.word	1058619546
 1700 0218 C075193F 		.word	1058633152
 1701 021c F8AA193F 		.word	1058646776
 1702 0220 3FE0193F 		.word	1058660415
 1703 0224 A9151A3F 		.word	1058674089
 1704 0228 124B1A3F 		.word	1058687762
 1705 022c 9D801A3F 		.word	1058701469
 1706 0230 28B61A3F 		.word	1058715176
 1707 0234 D5EB1A3F 		.word	1058728917
 1708 0238 92211B3F 		.word	1058742674
 1709 023c 60571B3F 		.word	1058756448
 1710 0240 3F8D1B3F 		.word	1058770239
 1711 0244 2FC31B3F 		.word	1058784047
ARM GAS  /var/folders/0z/tsy30v1j4xl4_7kw94k978ww0000gn/T//ccdJe4Gu.s 			page 40


 1712 0248 2FF91B3F 		.word	1058797871
 1713 024c 512F1C3F 		.word	1058811729
 1714 0250 73651C3F 		.word	1058825587
 1715 0254 B79B1C3F 		.word	1058839479
 1716 0258 FAD11C3F 		.word	1058853370
 1717 025c 5F081D3F 		.word	1058867295
 1718 0260 D53E1D3F 		.word	1058881237
 1719 0264 5C751D3F 		.word	1058895196
 1720 0268 04AC1D3F 		.word	1058909188
 1721 026c ACE21D3F 		.word	1058923180
 1722 0270 76191E3F 		.word	1058937206
 1723 0274 40501E3F 		.word	1058951232
 1724 0278 2B871E3F 		.word	1058965291
 1725 027c 27BE1E3F 		.word	1058979367
 1726 0280 34F51E3F 		.word	1058993460
 1727 0284 522C1F3F 		.word	1059007570
 1728 0288 80631F3F 		.word	1059021696
 1729 028c D09A1F3F 		.word	1059035856
 1730 0290 20D21F3F 		.word	1059050016
 1731 0294 9109203F 		.word	1059064209
 1732 0298 1441203F 		.word	1059078420
 1733 029c A778203F 		.word	1059092647
 1734 02a0 4BB0203F 		.word	1059106891
 1735 02a4 10E8203F 		.word	1059121168
 1736 02a8 D61F213F 		.word	1059135446
 1737 02ac BC57213F 		.word	1059149756
 1738 02b0 B48F213F 		.word	1059164084
 1739 02b4 BDC7213F 		.word	1059178429
 1740 02b8 D6FF213F 		.word	1059192790
 1741 02bc 0038223F 		.word	1059207168
 1742 02c0 3B70223F 		.word	1059221563
 1743 02c4 97A8223F 		.word	1059235991
 1744 02c8 05E1223F 		.word	1059250437
 1745 02cc 8319233F 		.word	1059264899
 1746 02d0 1152233F 		.word	1059279377
 1747 02d4 B18A233F 		.word	1059293873
 1748 02d8 72C3233F 		.word	1059308402
 1749 02dc 33FC233F 		.word	1059322931
 1750 02e0 1635243F 		.word	1059337494
 1751 02e4 096E243F 		.word	1059352073
 1752 02e8 0DA7243F 		.word	1059366669
 1753 02ec 22E0243F 		.word	1059381282
 1754 02f0 5919253F 		.word	1059395929
 1755 02f4 A052253F 		.word	1059410592
 1756 02f8 E78B253F 		.word	1059425255
 1757 02fc 61C5253F 		.word	1059439969
 1758 0300 DAFE253F 		.word	1059454682
 1759 0304 6538263F 		.word	1059469413
 1760 0308 1172263F 		.word	1059484177
 1761 030c CDAB263F 		.word	1059498957
 1762 0310 9BE5263F 		.word	1059513755
 1763 0314 791F273F 		.word	1059528569
 1764 0318 6859273F 		.word	1059543400
 1765 031c 7993273F 		.word	1059558265
 1766 0320 9ACD273F 		.word	1059573146
 1767 0324 CC07283F 		.word	1059588044
 1768 0328 0F42283F 		.word	1059602959
ARM GAS  /var/folders/0z/tsy30v1j4xl4_7kw94k978ww0000gn/T//ccdJe4Gu.s 			page 41


 1769 032c 637C283F 		.word	1059617891
 1770 0330 D8B6283F 		.word	1059632856
 1771 0334 5EF1283F 		.word	1059647838
 1772 0338 F52B293F 		.word	1059662837
 1773 033c 9D66293F 		.word	1059677853
 1774 0340 55A1293F 		.word	1059692885
 1775 0344 2FDC293F 		.word	1059707951
 1776 0348 1A172A3F 		.word	1059723034
 1777 034c 15522A3F 		.word	1059738133
 1778 0350 228D2A3F 		.word	1059753250
 1779 0354 50C82A3F 		.word	1059768400
 1780 0358 8E032B3F 		.word	1059783566
 1781 035c DE3E2B3F 		.word	1059798750
 1782 0360 3E7A2B3F 		.word	1059813950
 1783 0364 AFB52B3F 		.word	1059829167
 1784 0368 41F12B3F 		.word	1059844417
 1785 036c E42C2C3F 		.word	1059859684
 1786 0370 98682C3F 		.word	1059874968
 1787 0374 5DA42C3F 		.word	1059890269
 1788 0378 44E02C3F 		.word	1059905604
 1789 037c 3B1C2D3F 		.word	1059920955
 1790 0380 43582D3F 		.word	1059936323
 1791 0384 5B942D3F 		.word	1059951707
 1792 0388 96D02D3F 		.word	1059967126
 1793 038c D00C2E3F 		.word	1059982544
 1794 0390 3D492E3F 		.word	1059998013
 1795 0394 A9852E3F 		.word	1060013481
 1796 0398 27C22E3F 		.word	1060028967
 1797 039c C5FE2E3F 		.word	1060044485
 1798 03a0 753B2F3F 		.word	1060060021
 1799 03a4 46782F3F 		.word	1060075590
 1800 03a8 18B52F3F 		.word	1060091160
 1801 03ac 0AF22F3F 		.word	1060106762
 1802 03b0 0E2F303F 		.word	1060122382
 1803 03b4 226C303F 		.word	1060138018
 1804 03b8 58A9303F 		.word	1060153688
 1805 03bc 9FE6303F 		.word	1060169375
 1806 03c0 F623313F 		.word	1060185078
 1807 03c4 5F61313F 		.word	1060200799
 1808 03c8 E99E313F 		.word	1060216553
 1809 03cc 83DC313F 		.word	1060232323
 1810 03d0 2E1A323F 		.word	1060248110
 1811 03d4 FB57323F 		.word	1060263931
 1812 03d8 C895323F 		.word	1060279752
 1813 03dc C8D3323F 		.word	1060295624
 1814 03e0 C711333F 		.word	1060311495
 1815 03e4 D74F333F 		.word	1060327383
 1816 03e8 088E333F 		.word	1060343304
 1817 03ec 5CCC333F 		.word	1060359260
 1818 03f0 AF0A343F 		.word	1060375215
 1819 03f4 2349343F 		.word	1060391203
 1820 03f8 A987343F 		.word	1060407209
 1821 03fc 3FC6343F 		.word	1060423231
 1822 0400 F704353F 		.word	1060439287
 1823 0404 BF43353F 		.word	1060455359
 1824 0408 9982353F 		.word	1060471449
 1825 040c 83C1353F 		.word	1060487555
ARM GAS  /var/folders/0z/tsy30v1j4xl4_7kw94k978ww0000gn/T//ccdJe4Gu.s 			page 42


 1826 0410 8F00363F 		.word	1060503695
 1827 0414 AB3F363F 		.word	1060519851
 1828 0418 E97E363F 		.word	1060536041
 1829 041c 38BE363F 		.word	1060552248
 1830 0420 97FD363F 		.word	1060568471
 1831 0424 083D373F 		.word	1060584712
 1832 0428 9A7C373F 		.word	1060600986
 1833 042c 3CBC373F 		.word	1060617276
 1834 0430 F0FB373F 		.word	1060633584
 1835 0434 C53B383F 		.word	1060649925
 1836 0438 AB7B383F 		.word	1060666283
 1837 043c A1BB383F 		.word	1060682657
 1838 0440 A9FB383F 		.word	1060699049
 1839 0444 D13B393F 		.word	1060715473
 1840 0448 1C7C393F 		.word	1060731932
 1841 044c 66BC393F 		.word	1060748390
 1842 0450 D2FC393F 		.word	1060764882
 1843 0454 4F3D3A3F 		.word	1060781391
 1844 0458 ED7D3A3F 		.word	1060797933
 1845 045c 9DBE3A3F 		.word	1060814493
 1846 0460 5CFF3A3F 		.word	1060831068
 1847 0464 2D403B3F 		.word	1060847661
 1848 0468 1F813B3F 		.word	1060864287
 1849 046c 33C23B3F 		.word	1060880947
 1850 0470 47033C3F 		.word	1060897607
 1851 0474 7C443C3F 		.word	1060914300
 1852 0478 C2853C3F 		.word	1060931010
 1853 047c 2AC73C3F 		.word	1060947754
 1854 0480 A2083D3F 		.word	1060964514
 1855 0484 2C4A3D3F 		.word	1060981292
 1856 0488 D68B3D3F 		.word	1060998102
 1857 048c 92CD3D3F 		.word	1061014930
 1858 0490 6F0F3E3F 		.word	1061031791
 1859 0494 4C513E3F 		.word	1061048652
 1860 0498 4B933E3F 		.word	1061065547
 1861 049c 6BD53E3F 		.word	1061082475
 1862 04a0 9C173F3F 		.word	1061099420
 1863 04a4 DE593F3F 		.word	1061116382
 1864 04a8 419C3F3F 		.word	1061133377
 1865 04ac B5DE3F3F 		.word	1061150389
 1866 04b0 3A21403F 		.word	1061167418
 1867 04b4 E063403F 		.word	1061184480
 1868 04b8 98A6403F 		.word	1061201560
 1869 04bc 60E9403F 		.word	1061218656
 1870 04c0 492C413F 		.word	1061235785
 1871 04c4 446F413F 		.word	1061252932
 1872 04c8 5FB2413F 		.word	1061270111
 1873 04cc 8CF5413F 		.word	1061287308
 1874 04d0 DA38423F 		.word	1061304538
 1875 04d4 287C423F 		.word	1061321768
 1876 04d8 A9BF423F 		.word	1061339049
 1877 04dc 2A03433F 		.word	1061356330
 1878 04e0 CC46433F 		.word	1061373644
 1879 04e4 7E8A433F 		.word	1061390974
 1880 04e8 53CE433F 		.word	1061408339
 1881 04ec 3812443F 		.word	1061425720
 1882 04f0 3F56443F 		.word	1061443135
ARM GAS  /var/folders/0z/tsy30v1j4xl4_7kw94k978ww0000gn/T//ccdJe4Gu.s 			page 43


 1883 04f4 569A443F 		.word	1061460566
 1884 04f8 7FDE443F 		.word	1061478015
 1885 04fc C922453F 		.word	1061495497
 1886 0500 2367453F 		.word	1061512995
 1887 0504 9FAB453F 		.word	1061530527
 1888 0508 2CF0453F 		.word	1061548076
 1889 050c DB34463F 		.word	1061565659
 1890 0510 8979463F 		.word	1061583241
 1891 0514 6ABE463F 		.word	1061600874
 1892 0518 4B03473F 		.word	1061618507
 1893 051c 5E48473F 		.word	1061636190
 1894 0520 718D473F 		.word	1061653873
 1895 0524 A6D2473F 		.word	1061671590
 1896 0528 FC17483F 		.word	1061689340
 1897 052c 645D483F 		.word	1061707108
 1898 0530 DBA2483F 		.word	1061724891
 1899 0534 75E8483F 		.word	1061742709
 1900 0538 1F2E493F 		.word	1061760543
 1901 053c DA73493F 		.word	1061778394
 1902 0540 B6B9493F 		.word	1061796278
 1903 0544 B5FF493F 		.word	1061814197
 1904 0548 C3454A3F 		.word	1061832131
 1905 054c E38B4A3F 		.word	1061850083
 1906 0550 24D24A3F 		.word	1061868068
 1907 0554 76184B3F 		.word	1061886070
 1908 0558 EA5E4B3F 		.word	1061904106
 1909 055c 6EA54B3F 		.word	1061922158
 1910 0560 14EC4B3F 		.word	1061940244
 1911 0564 CA324C3F 		.word	1061958346
 1912 0568 A3794C3F 		.word	1061976483
 1913 056c 8BC04C3F 		.word	1061994635
 1914 0570 85074D3F 		.word	1062012805
 1915 0574 A04E4D3F 		.word	1062031008
 1916 0578 DD954D3F 		.word	1062049245
 1917 057c 2BDD4D3F 		.word	1062067499
 1918 0580 89244E3F 		.word	1062085769
 1919 0584 096C4E3F 		.word	1062104073
 1920 0588 9AB34E3F 		.word	1062122394
 1921 058c 4CFB4E3F 		.word	1062140748
 1922 0590 20434F3F 		.word	1062159136
 1923 0594 F48A4F3F 		.word	1062177524
 1924 0598 FAD24F3F 		.word	1062195962
 1925 059c 001B503F 		.word	1062214400
 1926 05a0 3963503F 		.word	1062232889
 1927 05a4 71AB503F 		.word	1062251377
 1928 05a8 DCF3503F 		.word	1062269916
 1929 05ac 473C513F 		.word	1062288455
 1930 05b0 E484513F 		.word	1062307044
 1931 05b4 81CD513F 		.word	1062325633
 1932 05b8 5116523F 		.word	1062344273
 1933 05bc 205F523F 		.word	1062362912
 1934 05c0 22A8523F 		.word	1062381602
 1935 05c4 35F1523F 		.word	1062400309
 1936 05c8 583A533F 		.word	1062419032
 1937 05cc 9D83533F 		.word	1062437789
 1938 05d0 F3CC533F 		.word	1062456563
 1939 05d4 6A16543F 		.word	1062475370
ARM GAS  /var/folders/0z/tsy30v1j4xl4_7kw94k978ww0000gn/T//ccdJe4Gu.s 			page 44


 1940 05d8 F25F543F 		.word	1062494194
 1941 05dc 9BA9543F 		.word	1062513051
 1942 05e0 56F3543F 		.word	1062531926
 1943 05e4 323D553F 		.word	1062550834
 1944 05e8 2F87553F 		.word	1062569775
 1945 05ec 3DD1553F 		.word	1062588733
 1946 05f0 5C1B563F 		.word	1062607708
 1947 05f4 9D65563F 		.word	1062626717
 1948 05f8 FFAF563F 		.word	1062645759
 1949 05fc 72FA563F 		.word	1062664818
 1950 0600 F644573F 		.word	1062683894
 1951 0604 AC8F573F 		.word	1062703020
 1952 0608 62DA573F 		.word	1062722146
 1953 060c 4A25583F 		.word	1062741322
 1954 0610 3370583F 		.word	1062760499
 1955 0614 4DBB583F 		.word	1062779725
 1956 0618 7906593F 		.word	1062798969
 1957 061c B551593F 		.word	1062818229
 1958 0620 139D593F 		.word	1062837523
 1959 0624 92E8593F 		.word	1062856850
 1960 0628 22345A3F 		.word	1062876194
 1961 062c D47F5A3F 		.word	1062895572
 1962 0630 96CB5A3F 		.word	1062914966
 1963 0634 7A175B3F 		.word	1062934394
 1964 0638 6F635B3F 		.word	1062953839
 1965 063c 86AF5B3F 		.word	1062973318
 1966 0640 BDFB5B3F 		.word	1062992829
 1967 0644 06485C3F 		.word	1063012358
 1968 0648 60945C3F 		.word	1063031904
 1969 064c EBE05C3F 		.word	1063051499
 1970 0650 882D5D3F 		.word	1063071112
 1971 0654 357A5D3F 		.word	1063090741
 1972 0658 04C75D3F 		.word	1063110404
 1973 065c F5135E3F 		.word	1063130101
 1974 0660 F6605E3F 		.word	1063149814
 1975 0664 19AE5E3F 		.word	1063169561
 1976 0668 4CFB5E3F 		.word	1063189324
 1977 066c A1485F3F 		.word	1063209121
 1978 0670 18965F3F 		.word	1063228952
 1979 0674 9FE35F3F 		.word	1063248799
 1980 0678 4831603F 		.word	1063268680
 1981 067c 027F603F 		.word	1063288578
 1982 0680 DECC603F 		.word	1063308510
 1983 0684 DA1A613F 		.word	1063328474
 1984 0688 E868613F 		.word	1063348456
 1985 068c 17B7613F 		.word	1063368471
 1986 0690 5705623F 		.word	1063388503
 1987 0694 B953623F 		.word	1063408569
 1988 0698 3CA2623F 		.word	1063428668
 1989 069c D0F0623F 		.word	1063448784
 1990 06a0 853F633F 		.word	1063468933
 1991 06a4 5C8E633F 		.word	1063489116
 1992 06a8 44DD633F 		.word	1063509316
 1993 06ac 4D2C643F 		.word	1063529549
 1994 06b0 677B643F 		.word	1063549799
 1995 06b4 A3CA643F 		.word	1063570083
 1996 06b8 001A653F 		.word	1063590400
ARM GAS  /var/folders/0z/tsy30v1j4xl4_7kw94k978ww0000gn/T//ccdJe4Gu.s 			page 45


 1997 06bc 7F69653F 		.word	1063610751
 1998 06c0 0FB9653F 		.word	1063631119
 1999 06c4 AF08663F 		.word	1063651503
 2000 06c8 8258663F 		.word	1063671938
 2001 06cc 54A8663F 		.word	1063692372
 2002 06d0 59F8663F 		.word	1063712857
 2003 06d4 6F48673F 		.word	1063733359
 2004 06d8 A698673F 		.word	1063753894
 2005 06dc FFE8673F 		.word	1063774463
 2006 06e0 6939683F 		.word	1063795049
 2007 06e4 F489683F 		.word	1063815668
 2008 06e8 A1DA683F 		.word	1063836321
 2009 06ec 5E2B693F 		.word	1063856990
 2010 06f0 3D7C693F 		.word	1063877693
 2011 06f4 2DCD693F 		.word	1063898413
 2012 06f8 4F1E6A3F 		.word	1063919183
 2013 06fc 726F6A3F 		.word	1063939954
 2014 0700 C6C06A3F 		.word	1063960774
 2015 0704 2B126B3F 		.word	1063981611
 2016 0708 B2636B3F 		.word	1064002482
 2017 070c 5BB56B3F 		.word	1064023387
 2018 0710 14076C3F 		.word	1064044308
 2019 0714 EF586C3F 		.word	1064065263
 2020 0718 EBAA6C3F 		.word	1064086251
 2021 071c F8FC6C3F 		.word	1064107256
 2022 0720 374F6D3F 		.word	1064128311
 2023 0724 77A16D3F 		.word	1064149367
 2024 0728 E9F36D3F 		.word	1064170473
 2025 072c 6B466E3F 		.word	1064191595
 2026 0730 0F996E3F 		.word	1064212751
 2027 0734 D5EB6E3F 		.word	1064233941
 2028 0738 AB3E6F3F 		.word	1064255147
 2029 073c A3916F3F 		.word	1064276387
 2030 0740 BDE46F3F 		.word	1064297661
 2031 0744 E737703F 		.word	1064318951
 2032 0748 448B703F 		.word	1064340292
 2033 074c A0DE703F 		.word	1064361632
 2034 0750 2F32713F 		.word	1064383023
 2035 0754 CF85713F 		.word	1064404431
 2036 0758 A1D9713F 		.word	1064425889
 2037 075c 732D723F 		.word	1064447347
 2038 0760 7781723F 		.word	1064468855
 2039 0764 8DD5723F 		.word	1064490381
 2040 0768 C329733F 		.word	1064511939
 2041 076c 1C7E733F 		.word	1064533532
 2042 0770 95D2733F 		.word	1064555157
 2043 0774 2027743F 		.word	1064576800
 2044 0778 CC7B743F 		.word	1064598476
 2045 077c 9AD0743F 		.word	1064620186
 2046 0780 7825753F 		.word	1064641912
 2047 0784 897A753F 		.word	1064663689
 2048 0788 ABCF753F 		.word	1064685483
 2049 078c DD24763F 		.word	1064707293
 2050 0790 427A763F 		.word	1064729154
 2051 0794 B7CF763F 		.word	1064751031
 2052 0798 4E25773F 		.word	1064772942
 2053 079c 077B773F 		.word	1064794887
ARM GAS  /var/folders/0z/tsy30v1j4xl4_7kw94k978ww0000gn/T//ccdJe4Gu.s 			page 46


 2054 07a0 E1D0773F 		.word	1064816865
 2055 07a4 CC26783F 		.word	1064838860
 2056 07a8 D97C783F 		.word	1064860889
 2057 07ac 07D3783F 		.word	1064882951
 2058 07b0 5629793F 		.word	1064905046
 2059 07b4 C77F793F 		.word	1064927175
 2060 07b8 49D6793F 		.word	1064949321
 2061 07bc ED2C7A3F 		.word	1064971501
 2062 07c0 B2837A3F 		.word	1064993714
 2063 07c4 98DA7A3F 		.word	1065015960
 2064 07c8 90317B3F 		.word	1065038224
 2065 07cc B9887B3F 		.word	1065060537
 2066 07d0 F4DF7B3F 		.word	1065082868
 2067 07d4 50377C3F 		.word	1065105232
 2068 07d8 BD8E7C3F 		.word	1065127613
 2069 07dc 5CE67C3F 		.word	1065150044
 2070 07e0 0C3E7D3F 		.word	1065172492
 2071 07e4 DD957D3F 		.word	1065194973
 2072 07e8 D0ED7D3F 		.word	1065217488
 2073 07ec E5457E3F 		.word	1065240037
 2074 07f0 0A9E7E3F 		.word	1065262602
 2075 07f4 62F67E3F 		.word	1065285218
 2076 07f8 CA4E7F3F 		.word	1065307850
 2077 07fc 54A77F3F 		.word	1065330516
 2078 0800 0000803F 		.word	1065353216
 2079 0804 772C803F 		.word	1065364599
 2080 0808 0859803F 		.word	1065376008
 2081 080c A185803F 		.word	1065387425
 2082 0810 4AB2803F 		.word	1065398858
 2083 0814 FCDE803F 		.word	1065410300
 2084 0818 C80B813F 		.word	1065421768
 2085 081c 9B38813F 		.word	1065433243
 2086 0820 8865813F 		.word	1065444744
 2087 0824 7D92813F 		.word	1065456253
 2088 0828 83BF813F 		.word	1065467779
 2089 082c 9AEC813F 		.word	1065479322
 2090 0830 C119823F 		.word	1065490881
 2091 0834 F146823F 		.word	1065502449
 2092 0838 3A74823F 		.word	1065514042
 2093 083c 8CA1823F 		.word	1065525644
 2094 0840 EECE823F 		.word	1065537262
 2095 0844 69FC823F 		.word	1065548905
 2096 0848 ED29833F 		.word	1065560557
 2097 084c 8257833F 		.word	1065572226
 2098 0850 1F85833F 		.word	1065583903
 2099 0854 D5B2833F 		.word	1065595605
 2100 0858 9CE0833F 		.word	1065607324
 2101 085c 6B0E843F 		.word	1065619051
 2102 0860 533C843F 		.word	1065630803
 2103 0864 446A843F 		.word	1065642564
 2104 0868 4698843F 		.word	1065654342
 2105 086c 58C6843F 		.word	1065666136
 2106 0870 7BF4843F 		.word	1065677947
 2107 0874 AF22853F 		.word	1065689775
 2108 0878 F450853F 		.word	1065701620
 2109 087c 4A7F853F 		.word	1065713482
 2110 0880 A7AD853F 		.word	1065725351
ARM GAS  /var/folders/0z/tsy30v1j4xl4_7kw94k978ww0000gn/T//ccdJe4Gu.s 			page 47


 2111 0884 1EDC853F 		.word	1065737246
 2112 0888 9E0A863F 		.word	1065749150
 2113 088c 3739863F 		.word	1065761079
 2114 0890 D767863F 		.word	1065773015
 2115 0894 9296863F 		.word	1065784978
 2116 0898 54C5863F 		.word	1065796948
 2117 089c 28F4863F 		.word	1065808936
 2118 08a0 0C23873F 		.word	1065820940
 2119 08a4 0052873F 		.word	1065832960
 2120 08a8 0681873F 		.word	1065844998
 2121 08ac 1DB0873F 		.word	1065857053
 2122 08b0 44DF873F 		.word	1065869124
 2123 08b4 7C0E883F 		.word	1065881212
 2124 08b8 C53D883F 		.word	1065893317
 2125 08bc 166D883F 		.word	1065905430
 2126 08c0 809C883F 		.word	1065917568
 2127 08c4 FBCB883F 		.word	1065929723
 2128 08c8 7FFB883F 		.word	1065941887
 2129 08cc 1B2B893F 		.word	1065954075
 2130 08d0 C95A893F 		.word	1065966281
 2131 08d4 7E8A893F 		.word	1065978494
 2132 08d8 4DBA893F 		.word	1065990733
 2133 08dc 25EA893F 		.word	1066002981
 2134 08e0 151A8A3F 		.word	1066015253
 2135 08e4 0E4A8A3F 		.word	1066027534
 2136 08e8 207A8A3F 		.word	1066039840
 2137 08ec 3BAA8A3F 		.word	1066052155
 2138 08f0 6EDA8A3F 		.word	1066064494
 2139 08f4 AA0A8B3F 		.word	1066076842
 2140 08f8 003B8B3F 		.word	1066089216
 2141 08fc 5D6B8B3F 		.word	1066101597
 2142 0900 D49B8B3F 		.word	1066114004
 2143 0904 53CC8B3F 		.word	1066126419
 2144 0908 EBFC8B3F 		.word	1066138859
 2145 090c 8C2D8C3F 		.word	1066151308
 2146 0910 465E8C3F 		.word	1066163782
 2147 0914 088F8C3F 		.word	1066176264
 2148 0918 E4BF8C3F 		.word	1066188772
 2149 091c C7F08C3F 		.word	1066201287
 2150 0920 C4218D3F 		.word	1066213828
 2151 0924 D2528D3F 		.word	1066226386
 2152 0928 E8838D3F 		.word	1066238952
 2153 092c 18B58D3F 		.word	1066251544
 2154 0930 58E68D3F 		.word	1066264152
 2155 0934 A0178E3F 		.word	1066276768
 2156 0938 02498E3F 		.word	1066289410
 2157 093c 747A8E3F 		.word	1066302068
 2158 0940 F7AB8E3F 		.word	1066314743
 2159 0944 8BDD8E3F 		.word	1066327435
 2160 0948 300F8F3F 		.word	1066340144
 2161 094c E6408F3F 		.word	1066352870
 2162 0950 AC728F3F 		.word	1066365612
 2163 0954 83A48F3F 		.word	1066378371
 2164 0958 73D68F3F 		.word	1066391155
 2165 095c 6C08903F 		.word	1066403948
 2166 0960 753A903F 		.word	1066416757
 2167 0964 986C903F 		.word	1066429592
ARM GAS  /var/folders/0z/tsy30v1j4xl4_7kw94k978ww0000gn/T//ccdJe4Gu.s 			page 48


 2168 0968 C39E903F 		.word	1066442435
 2169 096c 07D1903F 		.word	1066455303
 2170 0970 5C03913F 		.word	1066468188
 2171 0974 B935913F 		.word	1066481081
 2172 0978 3068913F 		.word	1066494000
 2173 097c B79A913F 		.word	1066506935
 2174 0980 4FCD913F 		.word	1066519887
 2175 0984 F8FF913F 		.word	1066532856
 2176 0988 BA32923F 		.word	1066545850
 2177 098c 8465923F 		.word	1066558852
 2178 0990 6798923F 		.word	1066571879
 2179 0994 53CB923F 		.word	1066584915
 2180 0998 58FE923F 		.word	1066597976
 2181 099c 6E31933F 		.word	1066611054
 2182 09a0 8C64933F 		.word	1066624140
 2183 09a4 C497933F 		.word	1066637252
 2184 09a8 14CB933F 		.word	1066650388
 2185 09ac 6DFE933F 		.word	1066663533
 2186 09b0 D731943F 		.word	1066676695
 2187 09b4 5A65943F 		.word	1066689882
 2188 09b8 E598943F 		.word	1066703077
 2189 09bc 8ACC943F 		.word	1066716298
 2190 09c0 3F00953F 		.word	1066729535
 2191 09c4 0534953F 		.word	1066742789
 2192 09c8 E467953F 		.word	1066756068
 2193 09cc CC9B953F 		.word	1066769356
 2194 09d0 C4CF953F 		.word	1066782660
 2195 09d4 D503963F 		.word	1066795989
 2196 09d8 F837963F 		.word	1066809336
 2197 09dc 2B6C963F 		.word	1066822699
 2198 09e0 6FA0963F 		.word	1066836079
 2199 09e4 C3D4963F 		.word	1066849475
 2200 09e8 3109973F 		.word	1066862897
 2201 09ec B03D973F 		.word	1066876336
 2202 09f0 3672973F 		.word	1066889782
 2203 09f4 D7A6973F 		.word	1066903255
 2204 09f8 90DB973F 		.word	1066916752
 2205 09fc 5210983F 		.word	1066930258
 2206 0a00 2445983F 		.word	1066943780
 2207 0a04 107A983F 		.word	1066957328
 2208 0a08 0CAF983F 		.word	1066970892
 2209 0a0c 19E4983F 		.word	1066984473
 2210 0a10 3F19993F 		.word	1066998079
 2211 0a14 6E4E993F 		.word	1067011694
 2212 0a18 B683993F 		.word	1067025334
 2213 0a1c 0FB9993F 		.word	1067038991
 2214 0a20 78EE993F 		.word	1067052664
 2215 0a24 F2239A3F 		.word	1067066354
 2216 0a28 86599A3F 		.word	1067080070
 2217 0a2c 2A8F9A3F 		.word	1067093802
 2218 0a30 DFC49A3F 		.word	1067107551
 2219 0a34 A4FA9A3F 		.word	1067121316
 2220 0a38 7B309B3F 		.word	1067135099
 2221 0a3c 6B669B3F 		.word	1067148907
 2222 0a40 6B9C9B3F 		.word	1067162731
 2223 0a44 7CD29B3F 		.word	1067176572
 2224 0a48 A7089C3F 		.word	1067190439
ARM GAS  /var/folders/0z/tsy30v1j4xl4_7kw94k978ww0000gn/T//ccdJe4Gu.s 			page 49


 2225 0a4c D93E9C3F 		.word	1067204313
 2226 0a50 25759C3F 		.word	1067218213
 2227 0a54 82AB9C3F 		.word	1067232130
 2228 0a58 F8E19C3F 		.word	1067246072
 2229 0a5c 76189D3F 		.word	1067260022
 2230 0a60 0E4F9D3F 		.word	1067273998
 2231 0a64 BE859D3F 		.word	1067287998
 2232 0a68 77BC9D3F 		.word	1067302007
 2233 0a6c 49F39D3F 		.word	1067316041
 2234 0a70 2C2A9E3F 		.word	1067330092
 2235 0a74 20619E3F 		.word	1067344160
 2236 0a78 24989E3F 		.word	1067358244
 2237 0a7c 42CF9E3F 		.word	1067372354
 2238 0a80 70069F3F 		.word	1067386480
 2239 0a84 B83D9F3F 		.word	1067400632
 2240 0a88 08759F3F 		.word	1067414792
 2241 0a8c 71AC9F3F 		.word	1067428977
 2242 0a90 F3E39F3F 		.word	1067443187
 2243 0a94 7E1BA03F 		.word	1067457406
 2244 0a98 2253A03F 		.word	1067471650
 2245 0a9c D78AA03F 		.word	1067485911
 2246 0aa0 A4C2A03F 		.word	1067500196
 2247 0aa4 7BFAA03F 		.word	1067514491
 2248 0aa8 7232A13F 		.word	1067528818
 2249 0aac 726AA13F 		.word	1067543154
 2250 0ab0 8CA2A13F 		.word	1067557516
 2251 0ab4 B6DAA13F 		.word	1067571894
 2252 0ab8 F112A23F 		.word	1067586289
 2253 0abc 454BA23F 		.word	1067600709
 2254 0ac0 A983A23F 		.word	1067615145
 2255 0ac4 1FBCA23F 		.word	1067629599
 2256 0ac8 AEF4A23F 		.word	1067644078
 2257 0acc 4D2DA33F 		.word	1067658573
 2258 0ad0 FE65A33F 		.word	1067673086
 2259 0ad4 C79EA33F 		.word	1067687623
 2260 0ad8 A1D7A33F 		.word	1067702177
 2261 0adc 9510A43F 		.word	1067716757
 2262 0ae0 9949A43F 		.word	1067731353
 2263 0ae4 AE82A43F 		.word	1067745966
 2264 0ae8 D4BBA43F 		.word	1067760596
 2265 0aec 12F5A43F 		.word	1067775250
 2266 0af0 622EA53F 		.word	1067789922
 2267 0af4 CB67A53F 		.word	1067804619
 2268 0af8 45A1A53F 		.word	1067819333
 2269 0afc D7DAA53F 		.word	1067834071
 2270 0b00 7214A63F 		.word	1067848818
 2271 0b04 2F4EA63F 		.word	1067863599
 2272 0b08 F487A63F 		.word	1067878388
 2273 0b0c D3C1A63F 		.word	1067893203
 2274 0b10 CAFBA63F 		.word	1067908042
 2275 0b14 CA35A73F 		.word	1067922890
 2276 0b18 E36FA73F 		.word	1067937763
 2277 0b1c 15AAA73F 		.word	1067952661
 2278 0b20 58E4A73F 		.word	1067967576
 2279 0b24 AC1EA83F 		.word	1067982508
 2280 0b28 1959A83F 		.word	1067997465
 2281 0b2c 9693A83F 		.word	1068012438
ARM GAS  /var/folders/0z/tsy30v1j4xl4_7kw94k978ww0000gn/T//ccdJe4Gu.s 			page 50


 2282 0b30 2DCEA83F 		.word	1068027437
 2283 0b34 D508A93F 		.word	1068042453
 2284 0b38 9643A93F 		.word	1068057494
 2285 0b3c 677EA93F 		.word	1068072551
 2286 0b40 49B9A93F 		.word	1068087625
 2287 0b44 45F4A93F 		.word	1068102725
 2288 0b48 512FAA3F 		.word	1068117841
 2289 0b4c 776AAA3F 		.word	1068132983
 2290 0b50 ADA5AA3F 		.word	1068148141
 2291 0b54 FCE0AA3F 		.word	1068163324
 2292 0b58 5C1CAB3F 		.word	1068178524
 2293 0b5c CD57AB3F 		.word	1068193741
 2294 0b60 5793AB3F 		.word	1068208983
 2295 0b64 FBCEAB3F 		.word	1068224251
 2296 0b68 AF0AAC3F 		.word	1068239535
 2297 0b6c 7446AC3F 		.word	1068254836
 2298 0b70 5182AC3F 		.word	1068270161
 2299 0b74 40BEAC3F 		.word	1068285504
 2300 0b78 48FAAC3F 		.word	1068300872
 2301 0b7c 6936AD3F 		.word	1068316265
 2302 0b80 9372AD3F 		.word	1068331667
 2303 0b84 DEAEAD3F 		.word	1068347102
 2304 0b88 3AEBAD3F 		.word	1068362554
 2305 0b8c A627AE3F 		.word	1068378022
 2306 0b90 2C64AE3F 		.word	1068393516
 2307 0b94 C3A0AE3F 		.word	1068409027
 2308 0b98 72DDAE3F 		.word	1068424562
 2309 0b9c 331AAF3F 		.word	1068440115
 2310 0ba0 0C57AF3F 		.word	1068455692
 2311 0ba4 FF93AF3F 		.word	1068471295
 2312 0ba8 FAD0AF3F 		.word	1068486906
 2313 0bac 170EB03F 		.word	1068502551
 2314 0bb0 454BB03F 		.word	1068518213
 2315 0bb4 8388B03F 		.word	1068533891
 2316 0bb8 DAC5B03F 		.word	1068549594
 2317 0bbc 4B03B13F 		.word	1068565323
 2318 0bc0 CC40B13F 		.word	1068581068
 2319 0bc4 677EB13F 		.word	1068596839
 2320 0bc8 12BCB13F 		.word	1068612626
 2321 0bcc D7F9B13F 		.word	1068628439
 2322 0bd0 AC37B23F 		.word	1068644268
 2323 0bd4 9B75B23F 		.word	1068660123
 2324 0bd8 A2B3B23F 		.word	1068676002
 2325 0bdc BBF1B23F 		.word	1068691899
 2326 0be0 E42FB33F 		.word	1068707812
 2327 0be4 266EB33F 		.word	1068723750
 2328 0be8 82ACB33F 		.word	1068739714
 2329 0bec EEEAB33F 		.word	1068755694
 2330 0bf0 7429B43F 		.word	1068771700
 2331 0bf4 1268B43F 		.word	1068787730
 2332 0bf8 C2A6B43F 		.word	1068803778
 2333 0bfc 8AE5B43F 		.word	1068819850
 2334 0c00 6424B53F 		.word	1068835940
 2335 0c04 5663B53F 		.word	1068852054
 2336 0c08 59A2B53F 		.word	1068868185
 2337 0c0c 7EE1B53F 		.word	1068884350
 2338 0c10 AB20B63F 		.word	1068900523
ARM GAS  /var/folders/0z/tsy30v1j4xl4_7kw94k978ww0000gn/T//ccdJe4Gu.s 			page 51


 2339 0c14 FA5FB63F 		.word	1068916730
 2340 0c18 5A9FB63F 		.word	1068932954
 2341 0c1c CADEB63F 		.word	1068949194
 2342 0c20 5C1EB73F 		.word	1068965468
 2343 0c24 F65DB73F 		.word	1068981750
 2344 0c28 B29DB73F 		.word	1068998066
 2345 0c2c 7FDDB73F 		.word	1069014399
 2346 0c30 651DB83F 		.word	1069030757
 2347 0c34 5B5DB83F 		.word	1069047131
 2348 0c38 6B9DB83F 		.word	1069063531
 2349 0c3c 94DDB83F 		.word	1069079956
 2350 0c40 D61DB93F 		.word	1069096406
 2351 0c44 295EB93F 		.word	1069112873
 2352 0c48 8C9EB93F 		.word	1069129356
 2353 0c4c 11DFB93F 		.word	1069145873
 2354 0c50 A71FBA3F 		.word	1069162407
 2355 0c54 5760BA3F 		.word	1069178967
 2356 0c58 16A1BA3F 		.word	1069195542
 2357 0c5c EFE1BA3F 		.word	1069212143
 2358 0c60 E222BB3F 		.word	1069228770
 2359 0c64 E563BB3F 		.word	1069245413
 2360 0c68 09A5BB3F 		.word	1069262089
 2361 0c6c 36E6BB3F 		.word	1069278774
 2362 0c70 8527BC3F 		.word	1069295493
 2363 0c74 E468BC3F 		.word	1069312228
 2364 0c78 5CAABC3F 		.word	1069328988
 2365 0c7c EEEBBC3F 		.word	1069345774
 2366 0c80 902DBD3F 		.word	1069362576
 2367 0c84 546FBD3F 		.word	1069379412
 2368 0c88 21B1BD3F 		.word	1069396257
 2369 0c8c 0EF3BD3F 		.word	1069413134
 2370 0c90 0D35BE3F 		.word	1069430029
 2371 0c94 2577BE3F 		.word	1069446949
 2372 0c98 56B9BE3F 		.word	1069463894
 2373 0c9c A0FBBE3F 		.word	1069480864
 2374 0ca0 FB3DBF3F 		.word	1069497851
 2375 0ca4 6F80BF3F 		.word	1069514863
 2376 0ca8 FCC2BF3F 		.word	1069531900
 2377 0cac 9A05C03F 		.word	1069548954
 2378 0cb0 5A48C03F 		.word	1069566042
 2379 0cb4 2A8BC03F 		.word	1069583146
 2380 0cb8 0CCEC03F 		.word	1069600268
 2381 0cbc 0E11C13F 		.word	1069617422
 2382 0cc0 2254C13F 		.word	1069634594
 2383 0cc4 5797C13F 		.word	1069651799
 2384 0cc8 94DAC13F 		.word	1069669012
 2385 0ccc F31DC23F 		.word	1069686259
 2386 0cd0 6B61C23F 		.word	1069703531
 2387 0cd4 F4A4C23F 		.word	1069720820
 2388 0cd8 96E8C23F 		.word	1069738134
 2389 0cdc 522CC33F 		.word	1069755474
 2390 0ce0 2670C33F 		.word	1069772838
 2391 0ce4 0BB4C33F 		.word	1069790219
 2392 0ce8 12F8C33F 		.word	1069807634
 2393 0cec 293CC43F 		.word	1069825065
 2394 0cf0 5A80C43F 		.word	1069842522
 2395 0cf4 9CC4C43F 		.word	1069859996
ARM GAS  /var/folders/0z/tsy30v1j4xl4_7kw94k978ww0000gn/T//ccdJe4Gu.s 			page 52


 2396 0cf8 FF08C53F 		.word	1069877503
 2397 0cfc 7B4DC53F 		.word	1069895035
 2398 0d00 0892C53F 		.word	1069912584
 2399 0d04 AED6C53F 		.word	1069930158
 2400 0d08 6D1BC63F 		.word	1069947757
 2401 0d0c 4660C63F 		.word	1069965382
 2402 0d10 2FA5C63F 		.word	1069983023
 2403 0d14 3AEAC63F 		.word	1070000698
 2404 0d18 552FC73F 		.word	1070018389
 2405 0d1c 9274C73F 		.word	1070036114
 2406 0d20 E0B9C73F 		.word	1070053856
 2407 0d24 47FFC73F 		.word	1070071623
 2408 0d28 C844C83F 		.word	1070089416
 2409 0d2c 598AC83F 		.word	1070107225
 2410 0d30 0BD0C83F 		.word	1070125067
 2411 0d34 CF15C93F 		.word	1070142927
 2412 0d38 B45BC93F 		.word	1070160820
 2413 0d3c A9A1C93F 		.word	1070178729
 2414 0d40 B8E7C93F 		.word	1070196664
 2415 0d44 E02DCA3F 		.word	1070214624
 2416 0d48 2174CA3F 		.word	1070232609
 2417 0d4c 7CBACA3F 		.word	1070250620
 2418 0d50 EF00CB3F 		.word	1070268655
 2419 0d54 7C47CB3F 		.word	1070286716
 2420 0d58 228ECB3F 		.word	1070304802
 2421 0d5c D8D4CB3F 		.word	1070322904
 2422 0d60 B01BCC3F 		.word	1070341040
 2423 0d64 9962CC3F 		.word	1070359193
 2424 0d68 A4A9CC3F 		.word	1070377380
 2425 0d6c BFF0CC3F 		.word	1070395583
 2426 0d70 F437CD3F 		.word	1070413812
 2427 0d74 417FCD3F 		.word	1070432065
 2428 0d78 B0C6CD3F 		.word	1070450352
 2429 0d7c 300ECE3F 		.word	1070468656
 2430 0d80 C955CE3F 		.word	1070486985
 2431 0d84 7C9DCE3F 		.word	1070505340
 2432 0d88 47E5CE3F 		.word	1070523719
 2433 0d8c 2C2DCF3F 		.word	1070542124
 2434 0d90 2975CF3F 		.word	1070560553
 2435 0d94 40BDCF3F 		.word	1070579008
 2436 0d98 7105D03F 		.word	1070597489
 2437 0d9c BA4DD03F 		.word	1070615994
 2438 0da0 1C96D03F 		.word	1070634524
 2439 0da4 98DED03F 		.word	1070653080
 2440 0da8 2D27D13F 		.word	1070671661
 2441 0dac DB6FD13F 		.word	1070690267
 2442 0db0 A2B8D13F 		.word	1070708898
 2443 0db4 8201D23F 		.word	1070727554
 2444 0db8 7B4AD23F 		.word	1070746235
 2445 0dbc 8E93D23F 		.word	1070764942
 2446 0dc0 BADCD23F 		.word	1070783674
 2447 0dc4 FF25D33F 		.word	1070802431
 2448 0dc8 5D6FD33F 		.word	1070821213
 2449 0dcc D4B8D33F 		.word	1070840020
 2450 0dd0 6402D43F 		.word	1070858852
 2451 0dd4 164CD43F 		.word	1070877718
 2452 0dd8 D995D43F 		.word	1070896601
ARM GAS  /var/folders/0z/tsy30v1j4xl4_7kw94k978ww0000gn/T//ccdJe4Gu.s 			page 53


 2453 0ddc B5DFD43F 		.word	1070915509
 2454 0de0 B329D53F 		.word	1070934451
 2455 0de4 C173D53F 		.word	1070953409
 2456 0de8 F1BDD53F 		.word	1070972401
 2457 0dec 3108D63F 		.word	1070991409
 2458 0df0 9352D63F 		.word	1071010451
 2459 0df4 0F9DD63F 		.word	1071029519
 2460 0df8 A3E7D63F 		.word	1071048611
 2461 0dfc 5132D73F 		.word	1071067729
 2462 0e00 187DD73F 		.word	1071086872
 2463 0e04 F7C7D73F 		.word	1071106039
 2464 0e08 F112D83F 		.word	1071125233
 2465 0e0c 035ED83F 		.word	1071144451
 2466 0e10 37A9D83F 		.word	1071163703
 2467 0e14 7BF4D83F 		.word	1071182971
 2468 0e18 E23FD93F 		.word	1071202274
 2469 0e1c 618BD93F 		.word	1071221601
 2470 0e20 F9D6D93F 		.word	1071240953
 2471 0e24 AB22DA3F 		.word	1071260331
 2472 0e28 766EDA3F 		.word	1071279734
 2473 0e2c 62BADA3F 		.word	1071299170
 2474 0e30 6006DB3F 		.word	1071318624
 2475 0e34 7E52DB3F 		.word	1071338110
 2476 0e38 AE9EDB3F 		.word	1071357614
 2477 0e3c FFEADB3F 		.word	1071377151
 2478 0e40 7237DC3F 		.word	1071396722
 2479 0e44 F583DC3F 		.word	1071416309
 2480 0e48 91D0DC3F 		.word	1071435921
 2481 0e4c 501DDD3F 		.word	1071455568
 2482 0e50 276ADD3F 		.word	1071475239
 2483 0e54 17B7DD3F 		.word	1071494935
 2484 0e58 2104DE3F 		.word	1071514657
 2485 0e5c 4451DE3F 		.word	1071534404
 2486 0e60 889EDE3F 		.word	1071554184
 2487 0e64 E6EBDE3F 		.word	1071573990
 2488 0e68 5439DF3F 		.word	1071593812
 2489 0e6c EC86DF3F 		.word	1071613676
 2490 0e70 95D4DF3F 		.word	1071633557
 2491 0e74 6022E03F 		.word	1071653472
 2492 0e78 3B70E03F 		.word	1071673403
 2493 0e7c 40BEE03F 		.word	1071693376
 2494 0e80 560CE13F 		.word	1071713366
 2495 0e84 865AE13F 		.word	1071733382
 2496 0e88 D6A8E13F 		.word	1071753430
 2497 0e8c 40F7E13F 		.word	1071773504
 2498 0e90 C345E23F 		.word	1071793603
 2499 0e94 6894E23F 		.word	1071813736
 2500 0e98 26E3E23F 		.word	1071833894
 2501 0e9c FD31E33F 		.word	1071854077
 2502 0ea0 ED80E33F 		.word	1071874285
 2503 0ea4 F6CFE33F 		.word	1071894518
 2504 0ea8 211FE43F 		.word	1071914785
 2505 0eac 656EE43F 		.word	1071935077
 2506 0eb0 CBBDE43F 		.word	1071955403
 2507 0eb4 410DE53F 		.word	1071975745
 2508 0eb8 D95CE53F 		.word	1071996121
 2509 0ebc 93ACE53F 		.word	1072016531
ARM GAS  /var/folders/0z/tsy30v1j4xl4_7kw94k978ww0000gn/T//ccdJe4Gu.s 			page 54


 2510 0ec0 5DFCE53F 		.word	1072036957
 2511 0ec4 494CE63F 		.word	1072057417
 2512 0ec8 4E9CE63F 		.word	1072077902
 2513 0ecc 74ECE63F 		.word	1072098420
 2514 0ed0 B43CE73F 		.word	1072118964
 2515 0ed4 0D8DE73F 		.word	1072139533
 2516 0ed8 7FDDE73F 		.word	1072160127
 2517 0edc 122EE83F 		.word	1072180754
 2518 0ee0 BF7EE83F 		.word	1072201407
 2519 0ee4 8DCFE83F 		.word	1072222093
 2520 0ee8 7520E93F 		.word	1072242805
 2521 0eec 7671E93F 		.word	1072263542
 2522 0ef0 8FC2E93F 		.word	1072284303
 2523 0ef4 CB13EA3F 		.word	1072305099
 2524 0ef8 2865EA3F 		.word	1072325928
 2525 0efc 95B6EA3F 		.word	1072346773
 2526 0f00 2508EB3F 		.word	1072367653
 2527 0f04 D559EB3F 		.word	1072388565
 2528 0f08 97ABEB3F 		.word	1072409495
 2529 0f0c 7AFDEB3F 		.word	1072430458
 2530 0f10 7F4FEC3F 		.word	1072451455
 2531 0f14 9DA1EC3F 		.word	1072472477
 2532 0f18 D4F3EC3F 		.word	1072493524
 2533 0f1c 2C46ED3F 		.word	1072514604
 2534 0f20 9E98ED3F 		.word	1072535710
 2535 0f24 31EBED3F 		.word	1072556849
 2536 0f28 DE3DEE3F 		.word	1072578014
 2537 0f2c A390EE3F 		.word	1072599203
 2538 0f30 8AE3EE3F 		.word	1072620426
 2539 0f34 8B36EF3F 		.word	1072641675
 2540 0f38 AD89EF3F 		.word	1072662957
 2541 0f3c E8DCEF3F 		.word	1072684264
 2542 0f40 4430F03F 		.word	1072705604
 2543 0f44 BA83F03F 		.word	1072726970
 2544 0f48 52D7F03F 		.word	1072748370
 2545 0f4c 022BF13F 		.word	1072769794
 2546 0f50 CC7EF13F 		.word	1072791244
 2547 0f54 B7D2F13F 		.word	1072812727
 2548 0f58 BB26F23F 		.word	1072834235
 2549 0f5c E17AF23F 		.word	1072855777
 2550 0f60 29CFF23F 		.word	1072877353
 2551 0f64 8123F33F 		.word	1072898945
 2552 0f68 0378F33F 		.word	1072920579
 2553 0f6c 9FCCF33F 		.word	1072942239
 2554 0f70 5321F43F 		.word	1072963923
 2555 0f74 2976F43F 		.word	1072985641
 2556 0f78 19CBF43F 		.word	1073007385
 2557 0f7c 2920F53F 		.word	1073029161
 2558 0f80 5C75F53F 		.word	1073050972
 2559 0f84 A7CAF53F 		.word	1073072807
 2560 0f88 0C20F63F 		.word	1073094668
 2561 0f8c 9275F63F 		.word	1073116562
 2562 0f90 3ACBF63F 		.word	1073138490
 2563 0f94 FB20F73F 		.word	1073160443
 2564 0f98 D576F73F 		.word	1073182421
 2565 0f9c D9CCF73F 		.word	1073204441
 2566 0fa0 EE22F83F 		.word	1073226478
ARM GAS  /var/folders/0z/tsy30v1j4xl4_7kw94k978ww0000gn/T//ccdJe4Gu.s 			page 55


 2567 0fa4 2D79F83F 		.word	1073248557
 2568 0fa8 85CFF83F 		.word	1073270661
 2569 0fac F625F93F 		.word	1073292790
 2570 0fb0 897CF93F 		.word	1073314953
 2571 0fb4 3DD3F93F 		.word	1073337149
 2572 0fb8 0B2AFA3F 		.word	1073359371
 2573 0fbc FA80FA3F 		.word	1073381626
 2574 0fc0 0AD8FA3F 		.word	1073403914
 2575 0fc4 342FFB3F 		.word	1073426228
 2576 0fc8 7786FB3F 		.word	1073448567
 2577 0fcc E3DDFB3F 		.word	1073470947
 2578 0fd0 6935FC3F 		.word	1073493353
 2579 0fd4 098DFC3F 		.word	1073515785
 2580 0fd8 C9E4FC3F 		.word	1073538249
 2581 0fdc AC3CFD3F 		.word	1073560748
 2582 0fe0 AF94FD3F 		.word	1073583279
 2583 0fe4 CCECFD3F 		.word	1073605836
 2584 0fe8 0245FE3F 		.word	1073628418
 2585 0fec 629DFE3F 		.word	1073651042
 2586 0ff0 DCF5FE3F 		.word	1073673692
 2587 0ff4 774EFF3F 		.word	1073696375
 2588 0ff8 2AA7FF3F 		.word	1073719082
 2589 0ffc 00000040 		.word	1073741824
 2590              		.text
 2591              	.Letext0:
 2592              		.file 3 "/Users/johannes/Library/Application Support/Code/User/globalStorage/bmd.stm32-for-vscode/
 2593              		.file 4 "/Users/johannes/Library/Application Support/Code/User/globalStorage/bmd.stm32-for-vscode/
 2594              		.file 5 "Drivers/CMSIS/Device/ST/STM32F4xx/Include/stm32f407xx.h"
 2595              		.file 6 "Drivers/STM32F4xx_HAL_Driver/Inc/stm32f4xx_hal_def.h"
 2596              		.file 7 "Drivers/STM32F4xx_HAL_Driver/Inc/stm32f4xx_hal_dma.h"
 2597              		.file 8 "Drivers/STM32F4xx_HAL_Driver/Inc/stm32f4xx_hal_i2s.h"
 2598              		.file 9 "Core/Inc/audio.h"
 2599              		.file 10 "Core/Inc/oscillators.h"
 2600              		.file 11 "Core/Inc/ADSR_envelope.h"
 2601              		.file 12 "Core/Inc/ladder_filter.h"
 2602              		.file 13 "Core/Inc/MIDI_lut.h"
 2603              		.file 14 "Core/Inc/stereo_delay.h"
 2604              		.file 15 "Core/Inc/../../Drivers/BSP/STM32F4-Discovery/stm32f4_discovery_audio.h"
ARM GAS  /var/folders/0z/tsy30v1j4xl4_7kw94k978ww0000gn/T//ccdJe4Gu.s 			page 56


DEFINED SYMBOLS
                            *ABS*:0000000000000000 audio.c
/var/folders/0z/tsy30v1j4xl4_7kw94k978ww0000gn/T//ccdJe4Gu.s:23     .text.audioBlock.constprop.0:0000000000000000 $t
/var/folders/0z/tsy30v1j4xl4_7kw94k978ww0000gn/T//ccdJe4Gu.s:29     .text.audioBlock.constprop.0:0000000000000000 audioBlock.constprop.0
/var/folders/0z/tsy30v1j4xl4_7kw94k978ww0000gn/T//ccdJe4Gu.s:515    .text.audioBlock.constprop.0:00000000000001e0 $d
/var/folders/0z/tsy30v1j4xl4_7kw94k978ww0000gn/T//ccdJe4Gu.s:541    .text.AUDIO_Init:0000000000000000 $t
/var/folders/0z/tsy30v1j4xl4_7kw94k978ww0000gn/T//ccdJe4Gu.s:548    .text.AUDIO_Init:0000000000000000 AUDIO_Init
/var/folders/0z/tsy30v1j4xl4_7kw94k978ww0000gn/T//ccdJe4Gu.s:665    .text.AUDIO_Init:00000000000000d0 $d
/var/folders/0z/tsy30v1j4xl4_7kw94k978ww0000gn/T//ccdJe4Gu.s:682    .text.OpSetFreq:0000000000000000 $t
/var/folders/0z/tsy30v1j4xl4_7kw94k978ww0000gn/T//ccdJe4Gu.s:689    .text.OpSetFreq:0000000000000000 OpSetFreq
/var/folders/0z/tsy30v1j4xl4_7kw94k978ww0000gn/T//ccdJe4Gu.s:709    .text.OpSetFreq:0000000000000010 $d
/var/folders/0z/tsy30v1j4xl4_7kw94k978ww0000gn/T//ccdJe4Gu.s:714    .text.audioBlock:0000000000000000 $t
/var/folders/0z/tsy30v1j4xl4_7kw94k978ww0000gn/T//ccdJe4Gu.s:721    .text.audioBlock:0000000000000000 audioBlock
/var/folders/0z/tsy30v1j4xl4_7kw94k978ww0000gn/T//ccdJe4Gu.s:1246   .text.audioBlock:00000000000001e8 $d
/var/folders/0z/tsy30v1j4xl4_7kw94k978ww0000gn/T//ccdJe4Gu.s:1272   .text.BSP_AUDIO_OUT_HalfTransfer_CallBack:0000000000000000 $t
/var/folders/0z/tsy30v1j4xl4_7kw94k978ww0000gn/T//ccdJe4Gu.s:1279   .text.BSP_AUDIO_OUT_HalfTransfer_CallBack:0000000000000000 BSP_AUDIO_OUT_HalfTransfer_CallBack
/var/folders/0z/tsy30v1j4xl4_7kw94k978ww0000gn/T//ccdJe4Gu.s:1293   .text.BSP_AUDIO_OUT_HalfTransfer_CallBack:0000000000000008 $d
/var/folders/0z/tsy30v1j4xl4_7kw94k978ww0000gn/T//ccdJe4Gu.s:1298   .text.BSP_AUDIO_OUT_TransferComplete_CallBack:0000000000000000 $t
/var/folders/0z/tsy30v1j4xl4_7kw94k978ww0000gn/T//ccdJe4Gu.s:1305   .text.BSP_AUDIO_OUT_TransferComplete_CallBack:0000000000000000 BSP_AUDIO_OUT_TransferComplete_CallBack
/var/folders/0z/tsy30v1j4xl4_7kw94k978ww0000gn/T//ccdJe4Gu.s:1319   .text.BSP_AUDIO_OUT_TransferComplete_CallBack:0000000000000008 $d
/var/folders/0z/tsy30v1j4xl4_7kw94k978ww0000gn/T//ccdJe4Gu.s:1324   .text.BSP_AUDIO_OUT_Error_CallBack:0000000000000000 $t
/var/folders/0z/tsy30v1j4xl4_7kw94k978ww0000gn/T//ccdJe4Gu.s:1331   .text.BSP_AUDIO_OUT_Error_CallBack:0000000000000000 BSP_AUDIO_OUT_Error_CallBack
/var/folders/0z/tsy30v1j4xl4_7kw94k978ww0000gn/T//ccdJe4Gu.s:1348   .text.DMA1_Stream7_IRQHandler:0000000000000000 $t
/var/folders/0z/tsy30v1j4xl4_7kw94k978ww0000gn/T//ccdJe4Gu.s:1355   .text.DMA1_Stream7_IRQHandler:0000000000000000 DMA1_Stream7_IRQHandler
/var/folders/0z/tsy30v1j4xl4_7kw94k978ww0000gn/T//ccdJe4Gu.s:1370   .text.DMA1_Stream7_IRQHandler:0000000000000008 $d
/var/folders/0z/tsy30v1j4xl4_7kw94k978ww0000gn/T//ccdJe4Gu.s:1375   .text.DMA1_Stream3_IRQHandler:0000000000000000 $t
/var/folders/0z/tsy30v1j4xl4_7kw94k978ww0000gn/T//ccdJe4Gu.s:1382   .text.DMA1_Stream3_IRQHandler:0000000000000000 DMA1_Stream3_IRQHandler
/var/folders/0z/tsy30v1j4xl4_7kw94k978ww0000gn/T//ccdJe4Gu.s:1397   .text.DMA1_Stream3_IRQHandler:0000000000000008 $d
/var/folders/0z/tsy30v1j4xl4_7kw94k978ww0000gn/T//ccdJe4Gu.s:1425   .bss.delayROut:0000000000000000 delayROut
/var/folders/0z/tsy30v1j4xl4_7kw94k978ww0000gn/T//ccdJe4Gu.s:1418   .bss.delayLOut:0000000000000000 delayLOut
/var/folders/0z/tsy30v1j4xl4_7kw94k978ww0000gn/T//ccdJe4Gu.s:1411   .bss.audioBuffer:0000000000000000 audioBuffer
/var/folders/0z/tsy30v1j4xl4_7kw94k978ww0000gn/T//ccdJe4Gu.s:1565   .rodata.pbend:0000000000000000 pbend
/var/folders/0z/tsy30v1j4xl4_7kw94k978ww0000gn/T//ccdJe4Gu.s:1432   .rodata.mtof:0000000000000000 mtof
/var/folders/0z/tsy30v1j4xl4_7kw94k978ww0000gn/T//ccdJe4Gu.s:1407   .bss.audioBuffer:0000000000000000 $d
/var/folders/0z/tsy30v1j4xl4_7kw94k978ww0000gn/T//ccdJe4Gu.s:1414   .bss.delayLOut:0000000000000000 $d
/var/folders/0z/tsy30v1j4xl4_7kw94k978ww0000gn/T//ccdJe4Gu.s:1421   .bss.delayROut:0000000000000000 $d
/var/folders/0z/tsy30v1j4xl4_7kw94k978ww0000gn/T//ccdJe4Gu.s:1428   .rodata.mtof:0000000000000000 $d
/var/folders/0z/tsy30v1j4xl4_7kw94k978ww0000gn/T//ccdJe4Gu.s:1562   .rodata.pbend:0000000000000000 $d

UNDEFINED SYMBOLS
__aeabi_f2d
__aeabi_dsub
__aeabi_d2f
osc_polyblepSaw
osc_polyblepRect
ADSR_compute
MoogLP_compute
pingpongDelay_compute
osc3
osc1
osc4
sub_osc
adsr_filt
Moog_filter
adsr_amp
currentPitch
osc2
ARM GAS  /var/folders/0z/tsy30v1j4xl4_7kw94k978ww0000gn/T//ccdJe4Gu.s 			page 57


BSP_AUDIO_OUT_Init
BSP_AUDIO_OUT_Play
osc_init
ADSR_init
MoogLP_init
Delay_init
adsr_index
HAL_DMA_IRQHandler
hAudioOutI2s
hAudioInI2s
