ARM GAS  /var/folders/0z/tsy30v1j4xl4_7kw94k978ww0000gn/T//cc3r10W3.s 			page 1


   1              		.cpu cortex-m4
   2              		.arch armv7e-m
   3              		.fpu fpv4-sp-d16
   4              		.eabi_attribute 27, 1
   5              		.eabi_attribute 28, 1
   6              		.eabi_attribute 20, 1
   7              		.eabi_attribute 21, 1
   8              		.eabi_attribute 23, 3
   9              		.eabi_attribute 24, 1
  10              		.eabi_attribute 25, 1
  11              		.eabi_attribute 26, 1
  12              		.eabi_attribute 30, 2
  13              		.eabi_attribute 34, 1
  14              		.eabi_attribute 18, 4
  15              		.file	"audio.c"
  16              		.text
  17              	.Ltext0:
  18              		.cfi_sections	.debug_frame
  19              		.global	__aeabi_f2d
  20              		.global	__aeabi_dsub
  21              		.global	__aeabi_d2f
  22              		.global	__aeabi_dmul
  23              		.section	.text.audioBlock.constprop.0,"ax",%progbits
  24              		.align	1
  25              		.p2align 2,,3
  26              		.syntax unified
  27              		.thumb
  28              		.thumb_func
  30              	audioBlock.constprop.0:
  31              	.LVL0:
  32              	.LFB143:
  33              		.file 1 "Core/Src/audio.c"
   1:Core/Src/audio.c **** /**
   2:Core/Src/audio.c ****  * @file audio.c
   3:Core/Src/audio.c ****  * @author johannes regnier
   4:Core/Src/audio.c ****  * @brief Functions to make sound and main audio block function 
   5:Core/Src/audio.c ****  * @note  Essential initialization functions from Tom Erbe:	
   6:Core/Src/audio.c ****  * @note  http://synthnotes.ucsd.edu/wp4/index.php/2019/09/24/setting-up-the-stmf4-to-connect-to-th
   7:Core/Src/audio.c ****  * @version 0.1
   8:Core/Src/audio.c ****  * @date 2023-12-12
   9:Core/Src/audio.c ****  * 
  10:Core/Src/audio.c ****  * @copyright Copyright (c) 2023
  11:Core/Src/audio.c ****  * 
  12:Core/Src/audio.c ****  */
  13:Core/Src/audio.c **** 
  14:Core/Src/audio.c **** 
  15:Core/Src/audio.c **** #include <stdint.h>
  16:Core/Src/audio.c **** #include "audio.h"
  17:Core/Src/audio.c **** #include "oscillators.h"
  18:Core/Src/audio.c **** #include "ADSR_envelope.h"
  19:Core/Src/audio.c **** #include "ladder_filter.h"
  20:Core/Src/audio.c **** #include "bitcrusher.h"
  21:Core/Src/audio.c **** #include "stereo_delay.h"
  22:Core/Src/audio.c **** #include "MIDI_lut.h"
  23:Core/Src/audio.c **** #include <stdint.h>
  24:Core/Src/audio.c **** #include "helper_functions.h"
  25:Core/Src/audio.c **** #include "stdlib.h"
ARM GAS  /var/folders/0z/tsy30v1j4xl4_7kw94k978ww0000gn/T//cc3r10W3.s 			page 2


  26:Core/Src/audio.c **** 
  27:Core/Src/audio.c **** 
  28:Core/Src/audio.c **** 
  29:Core/Src/audio.c **** 
  30:Core/Src/audio.c **** 
  31:Core/Src/audio.c **** /**
  32:Core/Src/audio.c ****  * @brief Audio Buffer - x samples X 2 channels = 2 * x samples
  33:Core/Src/audio.c ****  * @note Channels are interleaved - LRLRLRLRLRLRLRLRLRLRLR - audioBuffer[frame << 1] audioBuffer[(f
  34:Core/Src/audio.c ****  */
  35:Core/Src/audio.c **** int16_t audioBuffer[BUFFER_SIZE]; 
  36:Core/Src/audio.c **** 
  37:Core/Src/audio.c **** 
  38:Core/Src/audio.c **** extern uint8_t currentPitch;
  39:Core/Src/audio.c **** extern uint8_t velocity, noteOn_velocity;
  40:Core/Src/audio.c **** extern ADSR_t adsr_amp, adsr_filt;
  41:Core/Src/audio.c **** extern ADSR_t adsr_index;
  42:Core/Src/audio.c **** extern ZDFLadder_t Moog_filter;
  43:Core/Src/audio.c **** extern oscillator_t osc1, osc2, osc3, osc4, sub_osc;
  44:Core/Src/audio.c **** 
  45:Core/Src/audio.c **** 
  46:Core/Src/audio.c **** static float f0;			// frequency of oscillators 1 & 2
  47:Core/Src/audio.c **** static float f_sub ;		// frequency of sub oscillator
  48:Core/Src/audio.c **** static float amp_env ;		// amplitude envelope
  49:Core/Src/audio.c **** static float filt_env ;		// filter envelope
  50:Core/Src/audio.c **** static float index_env ;	// FM index envelope
  51:Core/Src/audio.c **** 
  52:Core/Src/audio.c **** float delayLOut = 0 ;		// left output of ping pong delay
  53:Core/Src/audio.c **** float delayROut = 0;		// right output of ping pong delay
  54:Core/Src/audio.c **** 
  55:Core/Src/audio.c **** 
  56:Core/Src/audio.c **** 
  57:Core/Src/audio.c **** 
  58:Core/Src/audio.c **** /**
  59:Core/Src/audio.c ****  * @brief Initialize audio
  60:Core/Src/audio.c ****  * 
  61:Core/Src/audio.c ****  */
  62:Core/Src/audio.c **** void AUDIO_Init()
  63:Core/Src/audio.c **** {
  64:Core/Src/audio.c ****     BSP_AUDIO_OUT_Init(OUTPUT_DEVICE_HEADPHONE, INITIAL_VOLUME, FS);
  65:Core/Src/audio.c **** 
  66:Core/Src/audio.c **** 	/**
  67:Core/Src/audio.c **** 	 * @brief Ping pong buffer
  68:Core/Src/audio.c **** 	 * @note While one audiobuffer is transmitted via DMA, another one is computed
  69:Core/Src/audio.c **** 	 * @note Hence size = 2 * (audiobuffer size)
  70:Core/Src/audio.c **** 	 */
  71:Core/Src/audio.c **** 	BSP_AUDIO_OUT_Play((uint16_t *)&audioBuffer[0], 2*BUFFER_SIZE); 
  72:Core/Src/audio.c **** 
  73:Core/Src/audio.c **** 	
  74:Core/Src/audio.c **** 	
  75:Core/Src/audio.c **** 	osc_init(&osc1, 0.5, 1000, 0, 0, 0.5);
  76:Core/Src/audio.c **** 	osc_init(&osc2, 0.5, 440, 0, 2, 0.5);
  77:Core/Src/audio.c **** 	osc_init(&osc3, 0.5, 1000, 0, 0, 0.5);
  78:Core/Src/audio.c **** 	osc_init(&osc4, 0.5, 440, 0, 0, 0.5);
  79:Core/Src/audio.c **** 	osc_init(&sub_osc, 0.5, 440, 0, 0, 0.5);
  80:Core/Src/audio.c **** 
  81:Core/Src/audio.c **** 
  82:Core/Src/audio.c **** 	ADSR_init(&adsr_amp);
ARM GAS  /var/folders/0z/tsy30v1j4xl4_7kw94k978ww0000gn/T//cc3r10W3.s 			page 3


  83:Core/Src/audio.c **** 	ADSR_init(&adsr_filt);
  84:Core/Src/audio.c **** 	ADSR_init(&adsr_index);
  85:Core/Src/audio.c **** 	MoogLP_init(&Moog_filter);
  86:Core/Src/audio.c **** 	Delay_init();
  87:Core/Src/audio.c **** 	
  88:Core/Src/audio.c **** }
  89:Core/Src/audio.c **** 
  90:Core/Src/audio.c **** void OpSetFreq(oscillator_t * op, float f)
  91:Core/Src/audio.c **** {
  92:Core/Src/audio.c **** 	op->freq = A0 * f;
  93:Core/Src/audio.c **** }
  94:Core/Src/audio.c **** 
  95:Core/Src/audio.c **** 
  96:Core/Src/audio.c **** 
  97:Core/Src/audio.c **** /**
  98:Core/Src/audio.c ****  * @brief Main audio function. This is where the audio samples are computed, then the audio buffer 
  99:Core/Src/audio.c ****  * 
 100:Core/Src/audio.c ****  * @param buffer 
 101:Core/Src/audio.c ****  * @param samples 
 102:Core/Src/audio.c ****  */
 103:Core/Src/audio.c **** void audioBlock(int16_t *buffer, uint16_t samples)
  34              		.loc 1 103 6 view -0
  35              		.cfi_startproc
  36              		@ args = 0, pretend = 0, frame = 0
  37              		@ frame_needed = 0, uses_anonymous_args = 0
 104:Core/Src/audio.c **** {
 105:Core/Src/audio.c **** 	int i;
 106:Core/Src/audio.c **** 	int16_t *output;
 107:Core/Src/audio.c **** 	output = buffer;
 108:Core/Src/audio.c **** 	float sample, sampleL, sampleR;
 109:Core/Src/audio.c **** 	uint16_t valueL, valueR;
 110:Core/Src/audio.c **** 	
 111:Core/Src/audio.c **** 	for (i = 0; i < samples; i++)
  38              		.loc 1 111 16 view .LVU1
 103:Core/Src/audio.c **** {
  39              		.loc 1 103 6 is_stmt 0 view .LVU2
  40 0000 2DE9F84F 		push	{r3, r4, r5, r6, r7, r8, r9, r10, fp, lr}
  41              		.cfi_def_cfa_offset 40
  42              		.cfi_offset 3, -40
  43              		.cfi_offset 4, -36
  44              		.cfi_offset 5, -32
  45              		.cfi_offset 6, -28
  46              		.cfi_offset 7, -24
  47              		.cfi_offset 8, -20
  48              		.cfi_offset 9, -16
  49              		.cfi_offset 10, -12
  50              		.cfi_offset 11, -8
  51              		.cfi_offset 14, -4
  52 0004 DFF87C92 		ldr	r9, .L17+92
  53 0008 DFF87C82 		ldr	r8, .L17+96
  54 000c 8A4D     		ldr	r5, .L17+16
  55 000e 2DED068B 		vpush.64	{d8, d9, d10}
  56              		.cfi_def_cfa_offset 64
  57              		.cfi_offset 80, -64
  58              		.cfi_offset 81, -60
  59              		.cfi_offset 82, -56
  60              		.cfi_offset 83, -52
ARM GAS  /var/folders/0z/tsy30v1j4xl4_7kw94k978ww0000gn/T//cc3r10W3.s 			page 4


  61              		.cfi_offset 84, -48
  62              		.cfi_offset 85, -44
 103:Core/Src/audio.c **** {
  63              		.loc 1 103 6 view .LVU3
  64 0012 8246     		mov	r10, r0
  65              	.LBB48:
  66              	.LBB49:
  92:Core/Src/audio.c **** }
  67              		.loc 1 92 16 view .LVU4
  68 0014 DFED898A 		vldr.32	s17, .L17+20
  69              	.LBE49:
  70              	.LBE48:
  71 0018 9FED89AA 		vldr.32	s20, .L17+24
 112:Core/Src/audio.c **** 	{
 113:Core/Src/audio.c **** 
 114:Core/Src/audio.c **** 		f0 = mtof[currentPitch];
 115:Core/Src/audio.c **** 		
 116:Core/Src/audio.c **** 		/* test with 3 oscillators*/
 117:Core/Src/audio.c **** 		OpSetFreq(&osc1, f0);
 118:Core/Src/audio.c **** 		OpSetFreq(&osc2, f0);
 119:Core/Src/audio.c **** 		OpSetFreq(&osc3, f0-0.2);
 120:Core/Src/audio.c **** 		OpSetFreq(&osc4, f0 + 0.5);
 121:Core/Src/audio.c **** 		
 122:Core/Src/audio.c **** 		f_sub = mtof[max(currentPitch - 12, 0)];
 123:Core/Src/audio.c **** 		OpSetFreq(&sub_osc, f_sub);
 124:Core/Src/audio.c **** 		//sample = 0.5*(osc_polyblepSaw(&osc1) + osc_polyblepSaw(&osc2) + osc_polyblepSaw(&osc3) + osc_po
 125:Core/Src/audio.c **** 		//sample = osc_Sine(&osc1);
 126:Core/Src/audio.c **** 
 127:Core/Src/audio.c **** 		// FM
 128:Core/Src/audio.c **** 		index_env = ADSR_compute(&adsr_index);
 129:Core/Src/audio.c **** 		osc1.FM_index = (noteOn_velocity/127.f) * 0.033 * index_env;	
  72              		.loc 1 129 35 view .LVU5
  73 001c DFED899A 		vldr.32	s19, .L17+28
 130:Core/Src/audio.c **** 		sample = osc_FM2OP(f0);
 131:Core/Src/audio.c **** 
 132:Core/Src/audio.c **** 		/****************** Apply filter ***********************/
 133:Core/Src/audio.c **** 		filt_env = ADSR_compute(&adsr_filt);
 134:Core/Src/audio.c **** 		Moog_filter.cutoff = 1300 * filt_env;
  74              		.loc 1 134 29 view .LVU6
  75 0020 9FED899A 		vldr.32	s18, .L17+32
 111:Core/Src/audio.c **** 	{
  76              		.loc 1 111 9 view .LVU7
  77 0024 0024     		movs	r4, #0
  78 0026 00F1020B 		add	fp, r0, #2
  79 002a 55E0     		b	.L5
  80              	.LVL1:
  81              	.L15:
  82              	.LBB52:
  83              	.LBB53:
  84              		.file 2 "Core/Inc/helper_functions.h"
   1:Core/Inc/helper_functions.h **** /**
   2:Core/Inc/helper_functions.h ****  * @file helper_functions.h
   3:Core/Inc/helper_functions.h ****  * @author johannes regnier
   4:Core/Inc/helper_functions.h ****  * @brief Various math tools 
   5:Core/Inc/helper_functions.h ****  * @version 0.1
   6:Core/Inc/helper_functions.h ****  * @date 2023-12-30
   7:Core/Inc/helper_functions.h ****  * 
ARM GAS  /var/folders/0z/tsy30v1j4xl4_7kw94k978ww0000gn/T//cc3r10W3.s 			page 5


   8:Core/Inc/helper_functions.h ****  * @copyright Copyright (c) 2023
   9:Core/Inc/helper_functions.h ****  * 
  10:Core/Inc/helper_functions.h ****  */
  11:Core/Inc/helper_functions.h **** 
  12:Core/Inc/helper_functions.h **** #ifndef _HELPER_FUNCTIONS_H
  13:Core/Inc/helper_functions.h **** #define _HELPER_FUNCTIONS_H
  14:Core/Inc/helper_functions.h **** 
  15:Core/Inc/helper_functions.h **** 
  16:Core/Inc/helper_functions.h **** #include <math.h>
  17:Core/Inc/helper_functions.h **** #include <stdint.h>
  18:Core/Inc/helper_functions.h **** 
  19:Core/Inc/helper_functions.h **** #ifndef NOMINMAX
  20:Core/Inc/helper_functions.h **** 
  21:Core/Inc/helper_functions.h **** #ifndef max
  22:Core/Inc/helper_functions.h **** #define max(a,b)            (((a) > (b)) ? (a) : (b))
  23:Core/Inc/helper_functions.h **** #endif
  24:Core/Inc/helper_functions.h **** 
  25:Core/Inc/helper_functions.h **** #ifndef min
  26:Core/Inc/helper_functions.h **** #define min(a,b)            (((a) < (b)) ? (a) : (b))
  27:Core/Inc/helper_functions.h **** #endif
  28:Core/Inc/helper_functions.h **** 
  29:Core/Inc/helper_functions.h **** #endif  /* NOMINMAX */
  30:Core/Inc/helper_functions.h **** 
  31:Core/Inc/helper_functions.h **** /**
  32:Core/Inc/helper_functions.h ****  * @brief Keep value between 0 and max
  33:Core/Inc/helper_functions.h ****  * 
  34:Core/Inc/helper_functions.h ****  * @param value 
  35:Core/Inc/helper_functions.h ****  * @param max 
  36:Core/Inc/helper_functions.h ****  * @return float 
  37:Core/Inc/helper_functions.h ****  */
  38:Core/Inc/helper_functions.h **** inline float wrap(float value, float max)   
  39:Core/Inc/helper_functions.h **** {
  40:Core/Inc/helper_functions.h ****     if (value < 0.f)
  41:Core/Inc/helper_functions.h ****         value += max;
  42:Core/Inc/helper_functions.h ****     if (value >= max)
  43:Core/Inc/helper_functions.h ****         value -= max;
  44:Core/Inc/helper_functions.h **** 
  45:Core/Inc/helper_functions.h ****     return value;
  46:Core/Inc/helper_functions.h **** }
  47:Core/Inc/helper_functions.h **** 
  48:Core/Inc/helper_functions.h **** inline float Crossfade(float a, float b, float fade)
  49:Core/Inc/helper_functions.h **** {
  50:Core/Inc/helper_functions.h ****     return a + (b - a) * fade;
  51:Core/Inc/helper_functions.h **** }
  52:Core/Inc/helper_functions.h **** 
  53:Core/Inc/helper_functions.h **** 
  54:Core/Inc/helper_functions.h **** /**
  55:Core/Inc/helper_functions.h ****  * @brief Pade-approximation of tanh for soft clipping
  56:Core/Inc/helper_functions.h ****  * @ from https://www.musicdsp.org/en/latest/Other/238-rational-tanh-approximation.html 
  57:Core/Inc/helper_functions.h ****  * @param x 
  58:Core/Inc/helper_functions.h ****  * @return float 
  59:Core/Inc/helper_functions.h ****  */
  60:Core/Inc/helper_functions.h **** inline float SoftClip(float x)
  61:Core/Inc/helper_functions.h **** {
  62:Core/Inc/helper_functions.h ****     if (x < -3.0f)
  63:Core/Inc/helper_functions.h ****     {
  64:Core/Inc/helper_functions.h ****         return -1.0f;
ARM GAS  /var/folders/0z/tsy30v1j4xl4_7kw94k978ww0000gn/T//cc3r10W3.s 			page 6


  65:Core/Inc/helper_functions.h ****     }
  66:Core/Inc/helper_functions.h ****     else if (x > 3.0f)
  85              		.loc 2 66 10 is_stmt 1 view .LVU8
  86              		.loc 2 66 13 is_stmt 0 view .LVU9
  87 002c F0EE086A 		vmov.f32	s13, #3.0e+0
  88 0030 B4EEE67A 		vcmpe.f32	s14, s13
  89 0034 F1EE10FA 		vmrs	APSR_nzcv, FPSCR
  90 0038 00F3F080 		bgt	.L8
  91              	.LVL2:
  92              	.LBB54:
  93              	.LBI54:
  60:Core/Inc/helper_functions.h **** {
  94              		.loc 2 60 14 is_stmt 1 view .LVU10
  95              	.LBB55:
  67:Core/Inc/helper_functions.h ****     {
  68:Core/Inc/helper_functions.h ****         return 1.0f;
  69:Core/Inc/helper_functions.h ****     }
  70:Core/Inc/helper_functions.h ****     else
  71:Core/Inc/helper_functions.h ****     {
  72:Core/Inc/helper_functions.h ****         return x * (27.0f + x * x) / (27.0f + 9.0f * x * x);
  96              		.loc 2 72 9 view .LVU11
  97              		.loc 2 72 27 is_stmt 0 view .LVU12
  98 003c F3EE0B6A 		vmov.f32	s13, #2.7e+1
  99              		.loc 2 72 52 view .LVU13
 100 0040 F2EE025A 		vmov.f32	s11, #9.0e+0
 101 0044 67EE255A 		vmul.f32	s11, s14, s11
 102              		.loc 2 72 27 view .LVU14
 103 0048 F0EE664A 		vmov.f32	s9, s13
 104 004c E7EE074A 		vfma.f32	s9, s14, s14
 105              		.loc 2 72 45 view .LVU15
 106 0050 E7EE256A 		vfma.f32	s13, s14, s11
 107              		.loc 2 72 18 view .LVU16
 108 0054 27EE247A 		vmul.f32	s14, s14, s9
 109              	.LVL3:
 110              		.loc 2 72 45 view .LVU17
 111 0058 B0EE666A 		vmov.f32	s12, s13
 112              	.LVL4:
 113              		.loc 2 72 36 view .LVU18
 114 005c C7EE066A 		vdiv.f32	s13, s14, s12
 115              	.LBE55:
 116              	.LBE54:
 117              	.LBE53:
 118              	.LBE52:
 135:Core/Src/audio.c **** 		sample = MoogLP_compute(&Moog_filter, sample);
 136:Core/Src/audio.c **** 	
 137:Core/Src/audio.c **** 		
 138:Core/Src/audio.c **** 		
 139:Core/Src/audio.c **** 		/************** Apply amplitude envelope ****************/
 140:Core/Src/audio.c **** 		amp_env = ADSR_compute(&adsr_amp);
 141:Core/Src/audio.c **** 		sample *= amp_env;
 142:Core/Src/audio.c **** 
 143:Core/Src/audio.c **** 		
 144:Core/Src/audio.c **** 		/************** Apply bitcrushing effect ***************/
 145:Core/Src/audio.c **** 		// sample = decimator(sample, 0.2, 16);
 146:Core/Src/audio.c **** 
 147:Core/Src/audio.c **** 		/************** Apply delay effect ****************/
 148:Core/Src/audio.c **** 		pingpongDelay_compute(sample, &delayLOut, &delayROut);
ARM GAS  /var/folders/0z/tsy30v1j4xl4_7kw94k978ww0000gn/T//cc3r10W3.s 			page 7


 149:Core/Src/audio.c **** 		sampleL = delayLOut;
 150:Core/Src/audio.c **** 		sampleR = delayROut;
 151:Core/Src/audio.c **** 		//sampleL = sample;
 152:Core/Src/audio.c **** 		//sampleR = sample;
 153:Core/Src/audio.c **** 
 154:Core/Src/audio.c **** 		/****************** softclip outputs ********************/
 155:Core/Src/audio.c **** 		sampleL = SoftClip(sampleL);
 156:Core/Src/audio.c **** 		sampleR = SoftClip(sampleR);
 157:Core/Src/audio.c **** 
 158:Core/Src/audio.c **** 		/*************** Convert to 16 bits int *****************/
 159:Core/Src/audio.c **** 		valueL = ((int16_t) ((32767.0f) * sampleL)); 
 119              		.loc 1 159 35 view .LVU19
 120 0060 9FED7A5A 		vldr.32	s10, .L17+36
 121 0064 26EE857A 		vmul.f32	s14, s13, s10
 122              		.loc 1 159 13 view .LVU20
 123 0068 BDEEC77A 		vcvt.s32.f32	s14, s14
 124 006c 17EE103A 		vmov	r3, s14	@ int
 125 0070 1AB2     		sxth	r2, r3
 126              	.L3:
 127              	.LVL5:
 156:Core/Src/audio.c **** 
 128              		.loc 1 156 3 is_stmt 1 view .LVU21
 129              	.LBB60:
 130              	.LBI60:
  60:Core/Inc/helper_functions.h **** {
 131              		.loc 2 60 14 view .LVU22
 132              	.LBB61:
  62:Core/Inc/helper_functions.h ****     {
 133              		.loc 2 62 5 view .LVU23
  62:Core/Inc/helper_functions.h ****     {
 134              		.loc 2 62 8 is_stmt 0 view .LVU24
 135 0072 B8EE087A 		vmov.f32	s14, #-3.0e+0
 136 0076 F4EEC77A 		vcmpe.f32	s15, s14
 137 007a F1EE10FA 		vmrs	APSR_nzcv, FPSCR
 138 007e 00F1C080 		bmi	.L9
 139              	.L16:
  66:Core/Inc/helper_functions.h ****     {
 140              		.loc 2 66 10 is_stmt 1 view .LVU25
  66:Core/Inc/helper_functions.h ****     {
 141              		.loc 2 66 13 is_stmt 0 view .LVU26
 142 0082 B0EE087A 		vmov.f32	s14, #3.0e+0
 143 0086 F4EEC77A 		vcmpe.f32	s15, s14
 144 008a F1EE10FA 		vmrs	APSR_nzcv, FPSCR
 145 008e 00F3C880 		bgt	.L10
 146              	.LVL6:
 147              	.LBB62:
 148              	.LBI62:
  60:Core/Inc/helper_functions.h **** {
 149              		.loc 2 60 14 is_stmt 1 view .LVU27
 150              	.LBB63:
 151              		.loc 2 72 9 view .LVU28
 152              		.loc 2 72 27 is_stmt 0 view .LVU29
 153 0092 B3EE0B7A 		vmov.f32	s14, #2.7e+1
 154              		.loc 2 72 52 view .LVU30
 155 0096 B2EE026A 		vmov.f32	s12, #9.0e+0
 156 009a 27EE866A 		vmul.f32	s12, s15, s12
 157              		.loc 2 72 27 view .LVU31
ARM GAS  /var/folders/0z/tsy30v1j4xl4_7kw94k978ww0000gn/T//cc3r10W3.s 			page 8


 158 009e B0EE475A 		vmov.f32	s10, s14
 159 00a2 A7EEA75A 		vfma.f32	s10, s15, s15
 160              		.loc 2 72 45 view .LVU32
 161 00a6 A7EE867A 		vfma.f32	s14, s15, s12
 162              		.loc 2 72 18 view .LVU33
 163 00aa 67EE857A 		vmul.f32	s15, s15, s10
 164              	.LVL7:
 165              		.loc 2 72 45 view .LVU34
 166 00ae F0EE476A 		vmov.f32	s13, s14
 167              	.LVL8:
 168              		.loc 2 72 36 view .LVU35
 169 00b2 87EEA67A 		vdiv.f32	s14, s15, s13
 170              	.LBE63:
 171              	.LBE62:
 172              	.LBE61:
 173              	.LBE60:
 160:Core/Src/audio.c **** 		valueR = ((int16_t) ((32767.0f) * sampleR));
 174              		.loc 1 160 35 view .LVU36
 175 00b6 DFED655A 		vldr.32	s11, .L17+36
 176 00ba 67EE257A 		vmul.f32	s15, s14, s11
 177              		.loc 1 160 13 view .LVU37
 178 00be FDEEE77A 		vcvt.s32.f32	s15, s15
 179 00c2 17EE903A 		vmov	r3, s15	@ int
 180 00c6 1BB2     		sxth	r3, r3
 181              	.L4:
 182              	.LVL9:
 159:Core/Src/audio.c **** 		valueR = ((int16_t) ((32767.0f) * sampleR));
 183              		.loc 1 159 3 is_stmt 1 view .LVU38
 184              		.loc 1 160 3 view .LVU39
 161:Core/Src/audio.c **** 
 162:Core/Src/audio.c **** 		/*************** Output to audio buffer *****************/
 163:Core/Src/audio.c **** 		output[i<<1] = valueL ;			// LEFT channel
 185              		.loc 1 163 3 view .LVU40
 186              		.loc 1 163 16 is_stmt 0 view .LVU41
 187 00c8 2AF82420 		strh	r2, [r10, r4, lsl #2]	@ movhi
 164:Core/Src/audio.c **** 	    output[(i<<1) + 1] = valueR;	// RIGHT channel
 188              		.loc 1 164 6 is_stmt 1 view .LVU42
 189              		.loc 1 164 25 is_stmt 0 view .LVU43
 190 00cc 2BF82430 		strh	r3, [fp, r4, lsl #2]	@ movhi
 111:Core/Src/audio.c **** 	{
 191              		.loc 1 111 28 is_stmt 1 view .LVU44
 192 00d0 0134     		adds	r4, r4, #1
 193              	.LVL10:
 111:Core/Src/audio.c **** 	{
 194              		.loc 1 111 16 view .LVU45
 195 00d2 402C     		cmp	r4, #64
 196 00d4 00F09E80 		beq	.L14
 197              	.LVL11:
 198              	.L5:
 114:Core/Src/audio.c **** 		
 199              		.loc 1 114 3 view .LVU46
 114:Core/Src/audio.c **** 		
 200              		.loc 1 114 12 is_stmt 0 view .LVU47
 201 00d8 5D4B     		ldr	r3, .L17+40
 202 00da 1E78     		ldrb	r6, [r3]	@ zero_extendqisi2
 203 00dc 09EB8603 		add	r3, r9, r6, lsl #2
 204 00e0 93ED008A 		vldr.32	s16, [r3]
ARM GAS  /var/folders/0z/tsy30v1j4xl4_7kw94k978ww0000gn/T//cc3r10W3.s 			page 9


 205              	.LBB67:
 206              	.LBB68:
  92:Core/Src/audio.c **** }
 207              		.loc 1 92 11 view .LVU48
 208 00e4 5B4B     		ldr	r3, .L17+44
 209              	.LBE68:
 210              	.LBE67:
 114:Core/Src/audio.c **** 		
 211              		.loc 1 114 6 view .LVU49
 212 00e6 88ED008A 		vstr.32	s16, [r8]
 117:Core/Src/audio.c **** 		OpSetFreq(&osc2, f0);
 213              		.loc 1 117 3 is_stmt 1 view .LVU50
 214              	.LVL12:
 215              	.LBB71:
 216              	.LBI48:
  90:Core/Src/audio.c **** {
 217              		.loc 1 90 6 view .LVU51
 218              	.LBB50:
  92:Core/Src/audio.c **** }
 219              		.loc 1 92 2 view .LVU52
  92:Core/Src/audio.c **** }
 220              		.loc 1 92 16 is_stmt 0 view .LVU53
 221 00ea 68EE287A 		vmul.f32	s15, s16, s17
 222              	.LBE50:
 223              	.LBE71:
 119:Core/Src/audio.c **** 		OpSetFreq(&osc4, f0 + 0.5);
 224              		.loc 1 119 22 view .LVU54
 225 00ee 18EE100A 		vmov	r0, s16
 226              	.LBB72:
 227              	.LBB69:
  92:Core/Src/audio.c **** }
 228              		.loc 1 92 11 view .LVU55
 229 00f2 C3ED017A 		vstr.32	s15, [r3, #4]
 230              	.LBE69:
 231              	.LBE72:
 232              	.LBB73:
 233              	.LBB51:
 234 00f6 C5ED017A 		vstr.32	s15, [r5, #4]
 235              	.LVL13:
  92:Core/Src/audio.c **** }
 236              		.loc 1 92 11 view .LVU56
 237              	.LBE51:
 238              	.LBE73:
 118:Core/Src/audio.c **** 		OpSetFreq(&osc3, f0-0.2);
 239              		.loc 1 118 3 is_stmt 1 view .LVU57
 240              	.LBB74:
 241              	.LBI67:
  90:Core/Src/audio.c **** {
 242              		.loc 1 90 6 view .LVU58
 243              	.LBB70:
  92:Core/Src/audio.c **** }
 244              		.loc 1 92 2 view .LVU59
  92:Core/Src/audio.c **** }
 245              		.loc 1 92 2 is_stmt 0 view .LVU60
 246              	.LBE70:
 247              	.LBE74:
 119:Core/Src/audio.c **** 		OpSetFreq(&osc4, f0 + 0.5);
ARM GAS  /var/folders/0z/tsy30v1j4xl4_7kw94k978ww0000gn/T//cc3r10W3.s 			page 10


 248              		.loc 1 119 3 is_stmt 1 view .LVU61
 249              	.LBB75:
 250              	.LBI75:
  90:Core/Src/audio.c **** {
 251              		.loc 1 90 6 view .LVU62
 252              	.LBB76:
  92:Core/Src/audio.c **** }
 253              		.loc 1 92 2 view .LVU63
 254              	.LBE76:
 255              	.LBE75:
 119:Core/Src/audio.c **** 		OpSetFreq(&osc4, f0 + 0.5);
 256              		.loc 1 119 22 is_stmt 0 view .LVU64
 257 00fa FFF7FEFF 		bl	__aeabi_f2d
 258              	.LVL14:
 259 00fe 4AA3     		adr	r3, .L17
 260 0100 D3E90023 		ldrd	r2, [r3]
 261 0104 FFF7FEFF 		bl	__aeabi_dsub
 262              	.LVL15:
 119:Core/Src/audio.c **** 		OpSetFreq(&osc4, f0 + 0.5);
 263              		.loc 1 119 3 view .LVU65
 264 0108 FFF7FEFF 		bl	__aeabi_d2f
 265              	.LVL16:
 266              	.LBB80:
 267              	.LBB77:
  92:Core/Src/audio.c **** }
 268              		.loc 1 92 16 view .LVU66
 269 010c 07EE900A 		vmov	s15, r0
 270              	.LBE77:
 271              	.LBE80:
 120:Core/Src/audio.c **** 		
 272              		.loc 1 120 3 view .LVU67
 273 0110 B6EE007A 		vmov.f32	s14, #5.0e-1
 122:Core/Src/audio.c **** 		OpSetFreq(&sub_osc, f_sub);
 274              		.loc 1 122 16 view .LVU68
 275 0114 0C2E     		cmp	r6, #12
 120:Core/Src/audio.c **** 		
 276              		.loc 1 120 3 view .LVU69
 277 0116 38EE078A 		vadd.f32	s16, s16, s14
 278              	.LVL17:
 279              	.LBB81:
 280              	.LBB78:
  92:Core/Src/audio.c **** }
 281              		.loc 1 92 16 view .LVU70
 282 011a 67EEA87A 		vmul.f32	s15, s15, s17
  92:Core/Src/audio.c **** }
 283              		.loc 1 92 11 view .LVU71
 284 011e 4E4B     		ldr	r3, .L17+48
 285              	.LBE78:
 286              	.LBE81:
 128:Core/Src/audio.c **** 		osc1.FM_index = (noteOn_velocity/127.f) * 0.033 * index_env;	
 287              		.loc 1 128 15 view .LVU72
 288 0120 4E48     		ldr	r0, .L17+52
 289              	.LBB82:
 290              	.LBB79:
  92:Core/Src/audio.c **** }
 291              		.loc 1 92 11 view .LVU73
 292 0122 C3ED017A 		vstr.32	s15, [r3, #4]
ARM GAS  /var/folders/0z/tsy30v1j4xl4_7kw94k978ww0000gn/T//cc3r10W3.s 			page 11


 293              	.LVL18:
  92:Core/Src/audio.c **** }
 294              		.loc 1 92 11 view .LVU74
 295              	.LBE79:
 296              	.LBE82:
 120:Core/Src/audio.c **** 		
 297              		.loc 1 120 3 is_stmt 1 view .LVU75
 298              	.LBB83:
 299              	.LBI83:
  90:Core/Src/audio.c **** {
 300              		.loc 1 90 6 view .LVU76
 301              	.LBB84:
  92:Core/Src/audio.c **** }
 302              		.loc 1 92 2 view .LVU77
 303              	.LBE84:
 304              	.LBE83:
 122:Core/Src/audio.c **** 		OpSetFreq(&sub_osc, f_sub);
 305              		.loc 1 122 15 is_stmt 0 view .LVU78
 306 0126 84BF     		itt	hi
 307 0128 09EB8606 		addhi	r6, r9, r6, lsl #2
 308              	.LVL19:
 309              	.LBB87:
 310              	.LBB88:
  92:Core/Src/audio.c **** }
 311              		.loc 1 92 16 view .LVU79
 312 012c 56ED0C7A 		vldrhi.32	s15, [r6, #-48]
 313              	.LBE88:
 314              	.LBE87:
 315              	.LBB92:
 316              	.LBB85:
  92:Core/Src/audio.c **** }
 317              		.loc 1 92 11 view .LVU80
 318 0130 4B4B     		ldr	r3, .L17+56
  92:Core/Src/audio.c **** }
 319              		.loc 1 92 16 view .LVU81
 320 0132 28EE288A 		vmul.f32	s16, s16, s17
 321              	.LBE85:
 322              	.LBE92:
 323              	.LBB93:
 324              	.LBB89:
 325 0136 88BF     		it	hi
 326 0138 67EEA87A 		vmulhi.f32	s15, s15, s17
 327              	.LBE89:
 328              	.LBE93:
 329              	.LBB94:
 330              	.LBB86:
  92:Core/Src/audio.c **** }
 331              		.loc 1 92 11 view .LVU82
 332 013c 83ED018A 		vstr.32	s16, [r3, #4]
 333              	.LVL20:
  92:Core/Src/audio.c **** }
 334              		.loc 1 92 11 view .LVU83
 335              	.LBE86:
 336              	.LBE94:
 122:Core/Src/audio.c **** 		OpSetFreq(&sub_osc, f_sub);
 337              		.loc 1 122 3 is_stmt 1 view .LVU84
 123:Core/Src/audio.c **** 		//sample = 0.5*(osc_polyblepSaw(&osc1) + osc_polyblepSaw(&osc2) + osc_polyblepSaw(&osc3) + osc_po
ARM GAS  /var/folders/0z/tsy30v1j4xl4_7kw94k978ww0000gn/T//cc3r10W3.s 			page 12


 338              		.loc 1 123 3 view .LVU85
 339              	.LBB95:
 340              	.LBI87:
  90:Core/Src/audio.c **** {
 341              		.loc 1 90 6 view .LVU86
 342              	.LBB90:
  92:Core/Src/audio.c **** }
 343              		.loc 1 92 2 view .LVU87
  92:Core/Src/audio.c **** }
 344              		.loc 1 92 11 is_stmt 0 view .LVU88
 345 0140 484B     		ldr	r3, .L17+60
 346              	.LBE90:
 347              	.LBE95:
 348 0142 98BF     		it	ls
 349 0144 F0EE4A7A 		vmovls.f32	s15, s20
 350              	.LBB96:
 351              	.LBB91:
 352 0148 C3ED017A 		vstr.32	s15, [r3, #4]
 353              	.LVL21:
  92:Core/Src/audio.c **** }
 354              		.loc 1 92 11 view .LVU89
 355              	.LBE91:
 356              	.LBE96:
 128:Core/Src/audio.c **** 		osc1.FM_index = (noteOn_velocity/127.f) * 0.033 * index_env;	
 357              		.loc 1 128 3 is_stmt 1 view .LVU90
 128:Core/Src/audio.c **** 		osc1.FM_index = (noteOn_velocity/127.f) * 0.033 * index_env;	
 358              		.loc 1 128 15 is_stmt 0 view .LVU91
 359 014c FFF7FEFF 		bl	ADSR_compute
 360              	.LVL22:
 129:Core/Src/audio.c **** 		sample = osc_FM2OP(f0);
 361              		.loc 1 129 35 view .LVU92
 362 0150 454B     		ldr	r3, .L17+64
 363 0152 1B78     		ldrb	r3, [r3]	@ zero_extendqisi2
 364 0154 07EE903A 		vmov	s15, r3	@ int
 365 0158 F8EEE77A 		vcvt.f32.s32	s15, s15
 128:Core/Src/audio.c **** 		osc1.FM_index = (noteOn_velocity/127.f) * 0.033 * index_env;	
 366              		.loc 1 128 15 view .LVU93
 367 015c 10EE107A 		vmov	r7, s0
 129:Core/Src/audio.c **** 		sample = osc_FM2OP(f0);
 368              		.loc 1 129 3 is_stmt 1 view .LVU94
 129:Core/Src/audio.c **** 		sample = osc_FM2OP(f0);
 369              		.loc 1 129 35 is_stmt 0 view .LVU95
 370 0160 C7EEA97A 		vdiv.f32	s15, s15, s19
 371 0164 17EE900A 		vmov	r0, s15
 372 0168 FFF7FEFF 		bl	__aeabi_f2d
 373              	.LVL23:
 129:Core/Src/audio.c **** 		sample = osc_FM2OP(f0);
 374              		.loc 1 129 43 view .LVU96
 375 016c 30A3     		adr	r3, .L17+8
 376 016e D3E90023 		ldrd	r2, [r3]
 377 0172 FFF7FEFF 		bl	__aeabi_dmul
 378              	.LVL24:
 379 0176 0246     		mov	r2, r0
 129:Core/Src/audio.c **** 		sample = osc_FM2OP(f0);
 380              		.loc 1 129 51 view .LVU97
 381 0178 3846     		mov	r0, r7	@ float
 129:Core/Src/audio.c **** 		sample = osc_FM2OP(f0);
ARM GAS  /var/folders/0z/tsy30v1j4xl4_7kw94k978ww0000gn/T//cc3r10W3.s 			page 13


 382              		.loc 1 129 43 view .LVU98
 383 017a 1646     		mov	r6, r2
 384 017c 0F46     		mov	r7, r1
 129:Core/Src/audio.c **** 		sample = osc_FM2OP(f0);
 385              		.loc 1 129 51 view .LVU99
 386 017e FFF7FEFF 		bl	__aeabi_f2d
 387              	.LVL25:
 388 0182 0246     		mov	r2, r0
 389 0184 0B46     		mov	r3, r1
 390 0186 3046     		mov	r0, r6
 391 0188 3946     		mov	r1, r7
 392 018a FFF7FEFF 		bl	__aeabi_dmul
 393              	.LVL26:
 394 018e FFF7FEFF 		bl	__aeabi_d2f
 395              	.LVL27:
 130:Core/Src/audio.c **** 
 396              		.loc 1 130 12 view .LVU100
 397 0192 98ED000A 		vldr.32	s0, [r8]
 129:Core/Src/audio.c **** 		sample = osc_FM2OP(f0);
 398              		.loc 1 129 51 view .LVU101
 399 0196 E860     		str	r0, [r5, #12]	@ float
 130:Core/Src/audio.c **** 
 400              		.loc 1 130 3 is_stmt 1 view .LVU102
 130:Core/Src/audio.c **** 
 401              		.loc 1 130 12 is_stmt 0 view .LVU103
 402 0198 FFF7FEFF 		bl	osc_FM2OP
 403              	.LVL28:
 133:Core/Src/audio.c **** 		Moog_filter.cutoff = 1300 * filt_env;
 404              		.loc 1 133 14 view .LVU104
 405 019c 3348     		ldr	r0, .L17+68
 130:Core/Src/audio.c **** 
 406              		.loc 1 130 12 view .LVU105
 407 019e B0EE408A 		vmov.f32	s16, s0
 408              	.LVL29:
 133:Core/Src/audio.c **** 		Moog_filter.cutoff = 1300 * filt_env;
 409              		.loc 1 133 3 is_stmt 1 view .LVU106
 133:Core/Src/audio.c **** 		Moog_filter.cutoff = 1300 * filt_env;
 410              		.loc 1 133 14 is_stmt 0 view .LVU107
 411 01a2 FFF7FEFF 		bl	ADSR_compute
 412              	.LVL30:
 134:Core/Src/audio.c **** 		sample = MoogLP_compute(&Moog_filter, sample);
 413              		.loc 1 134 3 is_stmt 1 view .LVU108
 134:Core/Src/audio.c **** 		sample = MoogLP_compute(&Moog_filter, sample);
 414              		.loc 1 134 22 is_stmt 0 view .LVU109
 415 01a6 324B     		ldr	r3, .L17+72
 133:Core/Src/audio.c **** 		Moog_filter.cutoff = 1300 * filt_env;
 416              		.loc 1 133 14 view .LVU110
 417 01a8 F0EE407A 		vmov.f32	s15, s0
 134:Core/Src/audio.c **** 		sample = MoogLP_compute(&Moog_filter, sample);
 418              		.loc 1 134 29 view .LVU111
 419 01ac 67EE897A 		vmul.f32	s15, s15, s18
 135:Core/Src/audio.c **** 	
 420              		.loc 1 135 12 view .LVU112
 421 01b0 1846     		mov	r0, r3
 422 01b2 B0EE480A 		vmov.f32	s0, s16
 134:Core/Src/audio.c **** 		sample = MoogLP_compute(&Moog_filter, sample);
 423              		.loc 1 134 22 view .LVU113
ARM GAS  /var/folders/0z/tsy30v1j4xl4_7kw94k978ww0000gn/T//cc3r10W3.s 			page 14


 424 01b6 C3ED007A 		vstr.32	s15, [r3]
 135:Core/Src/audio.c **** 	
 425              		.loc 1 135 3 is_stmt 1 view .LVU114
 135:Core/Src/audio.c **** 	
 426              		.loc 1 135 12 is_stmt 0 view .LVU115
 427 01ba FFF7FEFF 		bl	MoogLP_compute
 428              	.LVL31:
 140:Core/Src/audio.c **** 		sample *= amp_env;
 429              		.loc 1 140 13 view .LVU116
 430 01be 2D48     		ldr	r0, .L17+76
 135:Core/Src/audio.c **** 	
 431              		.loc 1 135 12 view .LVU117
 432 01c0 B0EE408A 		vmov.f32	s16, s0
 433              	.LVL32:
 140:Core/Src/audio.c **** 		sample *= amp_env;
 434              		.loc 1 140 3 is_stmt 1 view .LVU118
 140:Core/Src/audio.c **** 		sample *= amp_env;
 435              		.loc 1 140 13 is_stmt 0 view .LVU119
 436 01c4 FFF7FEFF 		bl	ADSR_compute
 437              	.LVL33:
 141:Core/Src/audio.c **** 
 438              		.loc 1 141 3 is_stmt 1 view .LVU120
 148:Core/Src/audio.c **** 		sampleL = delayLOut;
 439              		.loc 1 148 3 view .LVU121
 440 01c8 2B49     		ldr	r1, .L17+80
 441 01ca 2C48     		ldr	r0, .L17+84
 442 01cc 28EE000A 		vmul.f32	s0, s16, s0
 443              	.LVL34:
 148:Core/Src/audio.c **** 		sampleL = delayLOut;
 444              		.loc 1 148 3 is_stmt 0 view .LVU122
 445 01d0 FFF7FEFF 		bl	pingpongDelay_compute
 446              	.LVL35:
 149:Core/Src/audio.c **** 		sampleR = delayROut;
 447              		.loc 1 149 3 is_stmt 1 view .LVU123
 149:Core/Src/audio.c **** 		sampleR = delayROut;
 448              		.loc 1 149 11 is_stmt 0 view .LVU124
 449 01d4 294B     		ldr	r3, .L17+84
 450 01d6 93ED007A 		vldr.32	s14, [r3]
 451              	.LVL36:
 150:Core/Src/audio.c **** 		//sampleL = sample;
 452              		.loc 1 150 3 is_stmt 1 view .LVU125
 150:Core/Src/audio.c **** 		//sampleL = sample;
 453              		.loc 1 150 11 is_stmt 0 view .LVU126
 454 01da 274B     		ldr	r3, .L17+80
 455              	.LBB97:
 456              	.LBB56:
  62:Core/Inc/helper_functions.h ****     {
 457              		.loc 2 62 8 view .LVU127
 458 01dc F8EE086A 		vmov.f32	s13, #-3.0e+0
 459 01e0 B4EEE67A 		vcmpe.f32	s14, s13
 460 01e4 F1EE10FA 		vmrs	APSR_nzcv, FPSCR
 461              	.LBE56:
 462              	.LBE97:
 150:Core/Src/audio.c **** 		//sampleL = sample;
 463              		.loc 1 150 11 view .LVU128
 464 01e8 D3ED007A 		vldr.32	s15, [r3]
 465              	.LVL37:
ARM GAS  /var/folders/0z/tsy30v1j4xl4_7kw94k978ww0000gn/T//cc3r10W3.s 			page 15


 155:Core/Src/audio.c **** 		sampleR = SoftClip(sampleR);
 466              		.loc 1 155 3 is_stmt 1 view .LVU129
 467              	.LBB98:
 468              	.LBI52:
  60:Core/Inc/helper_functions.h **** {
 469              		.loc 2 60 14 view .LVU130
 470              	.LBB57:
  62:Core/Inc/helper_functions.h ****     {
 471              		.loc 2 62 5 view .LVU131
  62:Core/Inc/helper_functions.h ****     {
 472              		.loc 2 62 8 is_stmt 0 view .LVU132
 473 01ec 7FF51EAF 		bpl	.L15
 474              	.LBE57:
 475              	.LBE98:
 476              	.LBB99:
 477              	.LBB64:
 478 01f0 B8EE087A 		vmov.f32	s14, #-3.0e+0
 479              	.LVL38:
  62:Core/Inc/helper_functions.h ****     {
 480              		.loc 2 62 8 view .LVU133
 481 01f4 F4EEC77A 		vcmpe.f32	s15, s14
 482 01f8 F1EE10FA 		vmrs	APSR_nzcv, FPSCR
 483              	.LBE64:
 484              	.LBE99:
 485              	.LBB100:
 486              	.LBB58:
 487 01fc 204A     		ldr	r2, .L17+88
 488              	.LVL39:
  62:Core/Inc/helper_functions.h ****     {
 489              		.loc 2 62 8 view .LVU134
 490              	.LBE58:
 491              	.LBE100:
 156:Core/Src/audio.c **** 
 492              		.loc 1 156 3 is_stmt 1 view .LVU135
 493              	.LBB101:
  60:Core/Inc/helper_functions.h **** {
 494              		.loc 2 60 14 view .LVU136
 495              	.LBB65:
  62:Core/Inc/helper_functions.h ****     {
 496              		.loc 2 62 5 view .LVU137
  62:Core/Inc/helper_functions.h ****     {
 497              		.loc 2 62 8 is_stmt 0 view .LVU138
 498 01fe 7FF540AF 		bpl	.L16
 499              	.L9:
 500 0202 1F4B     		ldr	r3, .L17+88
 501              	.LVL40:
  62:Core/Inc/helper_functions.h ****     {
 502              		.loc 2 62 8 view .LVU139
 503              	.LBE65:
 504              	.LBE101:
 159:Core/Src/audio.c **** 		valueR = ((int16_t) ((32767.0f) * sampleR));
 505              		.loc 1 159 3 is_stmt 1 view .LVU140
 160:Core/Src/audio.c **** 
 506              		.loc 1 160 3 view .LVU141
 163:Core/Src/audio.c **** 	    output[(i<<1) + 1] = valueR;	// RIGHT channel
 507              		.loc 1 163 3 view .LVU142
 163:Core/Src/audio.c **** 	    output[(i<<1) + 1] = valueR;	// RIGHT channel
ARM GAS  /var/folders/0z/tsy30v1j4xl4_7kw94k978ww0000gn/T//cc3r10W3.s 			page 16


 508              		.loc 1 163 16 is_stmt 0 view .LVU143
 509 0204 2AF82420 		strh	r2, [r10, r4, lsl #2]	@ movhi
 510              		.loc 1 164 6 is_stmt 1 view .LVU144
 511              		.loc 1 164 25 is_stmt 0 view .LVU145
 512 0208 2BF82430 		strh	r3, [fp, r4, lsl #2]	@ movhi
 111:Core/Src/audio.c **** 	{
 513              		.loc 1 111 28 is_stmt 1 view .LVU146
 514 020c 0134     		adds	r4, r4, #1
 515              	.LVL41:
 111:Core/Src/audio.c **** 	{
 516              		.loc 1 111 16 view .LVU147
 517 020e 402C     		cmp	r4, #64
 518 0210 7FF462AF 		bne	.L5
 519              	.L14:
 165:Core/Src/audio.c **** 	}
 166:Core/Src/audio.c **** }
 520              		.loc 1 166 1 is_stmt 0 view .LVU148
 521 0214 BDEC068B 		vldm	sp!, {d8-d10}
 522              		.cfi_remember_state
 523              		.cfi_restore 84
 524              		.cfi_restore 85
 525              		.cfi_restore 82
 526              		.cfi_restore 83
 527              		.cfi_restore 80
 528              		.cfi_restore 81
 529              		.cfi_def_cfa_offset 40
 530              		.loc 1 166 1 view .LVU149
 531 0218 BDE8F88F 		pop	{r3, r4, r5, r6, r7, r8, r9, r10, fp, pc}
 532              	.LVL42:
 533              	.L8:
 534              		.cfi_restore_state
 535              	.LBB102:
 536              	.LBB59:
 537              		.loc 1 166 1 view .LVU150
 538 021c 47F6FF72 		movw	r2, #32767
 539 0220 27E7     		b	.L3
 540              	.LVL43:
 541              	.L10:
 542              		.loc 1 166 1 view .LVU151
 543              	.LBE59:
 544              	.LBE102:
 545              	.LBB103:
 546              	.LBB66:
 547 0222 47F6FF73 		movw	r3, #32767
 548 0226 4FE7     		b	.L4
 549              	.L18:
 550              		.align	3
 551              	.L17:
 552 0228 9A999999 		.word	-1717986918
 553 022c 9999C93F 		.word	1070176665
 554 0230 4C378941 		.word	1099511628
 555 0234 60E5A03F 		.word	1067509088
 556 0238 00000000 		.word	osc1
 557 023c 8D3B803F 		.word	1065368461
 558 0240 EF0C0341 		.word	1090718959
 559 0244 0000FE42 		.word	1123942400
 560 0248 0080A244 		.word	1151500288
ARM GAS  /var/folders/0z/tsy30v1j4xl4_7kw94k978ww0000gn/T//cc3r10W3.s 			page 17


 561 024c 00FEFF46 		.word	1191181824
 562 0250 00000000 		.word	currentPitch
 563 0254 00000000 		.word	osc2
 564 0258 00000000 		.word	osc3
 565 025c 00000000 		.word	adsr_index
 566 0260 00000000 		.word	osc4
 567 0264 00000000 		.word	sub_osc
 568 0268 00000000 		.word	noteOn_velocity
 569 026c 00000000 		.word	adsr_filt
 570 0270 00000000 		.word	Moog_filter
 571 0274 00000000 		.word	adsr_amp
 572 0278 00000000 		.word	.LANCHOR2
 573 027c 00000000 		.word	.LANCHOR3
 574 0280 0180FFFF 		.word	-32767
 575 0284 00000000 		.word	.LANCHOR0
 576 0288 00000000 		.word	.LANCHOR1
 577              	.LBE66:
 578              	.LBE103:
 579              		.cfi_endproc
 580              	.LFE143:
 582              		.section	.text.AUDIO_Init,"ax",%progbits
 583              		.align	1
 584              		.p2align 2,,3
 585              		.global	AUDIO_Init
 586              		.syntax unified
 587              		.thumb
 588              		.thumb_func
 590              	AUDIO_Init:
 591              	.LFB134:
  63:Core/Src/audio.c ****     BSP_AUDIO_OUT_Init(OUTPUT_DEVICE_HEADPHONE, INITIAL_VOLUME, FS);
 592              		.loc 1 63 1 is_stmt 1 view -0
 593              		.cfi_startproc
 594              		@ args = 0, pretend = 0, frame = 0
 595              		@ frame_needed = 0, uses_anonymous_args = 0
  64:Core/Src/audio.c **** 
 596              		.loc 1 64 5 view .LVU153
  63:Core/Src/audio.c ****     BSP_AUDIO_OUT_Init(OUTPUT_DEVICE_HEADPHONE, INITIAL_VOLUME, FS);
 597              		.loc 1 63 1 is_stmt 0 view .LVU154
 598 0000 08B5     		push	{r3, lr}
 599              		.cfi_def_cfa_offset 8
 600              		.cfi_offset 3, -8
 601              		.cfi_offset 14, -4
  64:Core/Src/audio.c **** 
 602              		.loc 1 64 5 view .LVU155
 603 0002 4AF64442 		movw	r2, #44100
  63:Core/Src/audio.c ****     BSP_AUDIO_OUT_Init(OUTPUT_DEVICE_HEADPHONE, INITIAL_VOLUME, FS);
 604              		.loc 1 63 1 view .LVU156
 605 0006 2DED048B 		vpush.64	{d8, d9}
 606              		.cfi_def_cfa_offset 24
 607              		.cfi_offset 80, -24
 608              		.cfi_offset 81, -20
 609              		.cfi_offset 82, -16
 610              		.cfi_offset 83, -12
  64:Core/Src/audio.c **** 
 611              		.loc 1 64 5 view .LVU157
 612 000a 5521     		movs	r1, #85
 613 000c 0220     		movs	r0, #2
ARM GAS  /var/folders/0z/tsy30v1j4xl4_7kw94k978ww0000gn/T//cc3r10W3.s 			page 18


 614 000e FFF7FEFF 		bl	BSP_AUDIO_OUT_Init
 615              	.LVL44:
  71:Core/Src/audio.c **** 
 616              		.loc 1 71 2 is_stmt 1 view .LVU158
  75:Core/Src/audio.c **** 	osc_init(&osc2, 0.5, 440, 0, 2, 0.5);
 617              		.loc 1 75 2 is_stmt 0 view .LVU159
 618 0012 9FED2F8A 		vldr.32	s16, .L21
 619 0016 9FED2F9A 		vldr.32	s18, .L21+4
  71:Core/Src/audio.c **** 
 620              		.loc 1 71 2 view .LVU160
 621 001a 2F48     		ldr	r0, .L21+8
  76:Core/Src/audio.c **** 	osc_init(&osc3, 0.5, 1000, 0, 0, 0.5);
 622              		.loc 1 76 2 view .LVU161
 623 001c DFED2F8A 		vldr.32	s17, .L21+12
  71:Core/Src/audio.c **** 
 624              		.loc 1 71 2 view .LVU162
 625 0020 4FF40071 		mov	r1, #512
 626 0024 FFF7FEFF 		bl	BSP_AUDIO_OUT_Play
 627              	.LVL45:
  75:Core/Src/audio.c **** 	osc_init(&osc2, 0.5, 440, 0, 2, 0.5);
 628              		.loc 1 75 2 is_stmt 1 view .LVU163
 629 0028 B6EE002A 		vmov.f32	s4, #5.0e-1
 630 002c F0EE481A 		vmov.f32	s3, s16
 631 0030 B0EE481A 		vmov.f32	s2, s16
 632 0034 F0EE490A 		vmov.f32	s1, s18
 633 0038 B0EE420A 		vmov.f32	s0, s4
 634 003c 2848     		ldr	r0, .L21+16
 635 003e FFF7FEFF 		bl	osc_init
 636              	.LVL46:
  76:Core/Src/audio.c **** 	osc_init(&osc3, 0.5, 1000, 0, 0, 0.5);
 637              		.loc 1 76 2 view .LVU164
 638 0042 B6EE002A 		vmov.f32	s4, #5.0e-1
 639 0046 B0EE481A 		vmov.f32	s2, s16
 640 004a F0EE680A 		vmov.f32	s1, s17
 641 004e B0EE420A 		vmov.f32	s0, s4
 642 0052 2448     		ldr	r0, .L21+20
 643 0054 F0EE001A 		vmov.f32	s3, #2.0e+0
 644 0058 FFF7FEFF 		bl	osc_init
 645              	.LVL47:
  77:Core/Src/audio.c **** 	osc_init(&osc4, 0.5, 440, 0, 0, 0.5);
 646              		.loc 1 77 2 view .LVU165
 647 005c B6EE002A 		vmov.f32	s4, #5.0e-1
 648 0060 F0EE481A 		vmov.f32	s3, s16
 649 0064 B0EE481A 		vmov.f32	s2, s16
 650 0068 F0EE490A 		vmov.f32	s1, s18
 651 006c B0EE420A 		vmov.f32	s0, s4
 652 0070 1D48     		ldr	r0, .L21+24
 653 0072 FFF7FEFF 		bl	osc_init
 654              	.LVL48:
  78:Core/Src/audio.c **** 	osc_init(&sub_osc, 0.5, 440, 0, 0, 0.5);
 655              		.loc 1 78 2 view .LVU166
 656 0076 B6EE002A 		vmov.f32	s4, #5.0e-1
 657 007a F0EE481A 		vmov.f32	s3, s16
 658 007e B0EE481A 		vmov.f32	s2, s16
 659 0082 F0EE680A 		vmov.f32	s1, s17
 660 0086 B0EE420A 		vmov.f32	s0, s4
 661 008a 1848     		ldr	r0, .L21+28
ARM GAS  /var/folders/0z/tsy30v1j4xl4_7kw94k978ww0000gn/T//cc3r10W3.s 			page 19


 662 008c FFF7FEFF 		bl	osc_init
 663              	.LVL49:
  79:Core/Src/audio.c **** 
 664              		.loc 1 79 2 view .LVU167
 665 0090 B6EE002A 		vmov.f32	s4, #5.0e-1
 666 0094 F0EE481A 		vmov.f32	s3, s16
 667 0098 B0EE481A 		vmov.f32	s2, s16
 668 009c F0EE680A 		vmov.f32	s1, s17
 669 00a0 B0EE420A 		vmov.f32	s0, s4
 670 00a4 1248     		ldr	r0, .L21+32
 671 00a6 FFF7FEFF 		bl	osc_init
 672              	.LVL50:
  82:Core/Src/audio.c **** 	ADSR_init(&adsr_filt);
 673              		.loc 1 82 2 view .LVU168
 674 00aa 1248     		ldr	r0, .L21+36
 675 00ac FFF7FEFF 		bl	ADSR_init
 676              	.LVL51:
  83:Core/Src/audio.c **** 	ADSR_init(&adsr_index);
 677              		.loc 1 83 2 view .LVU169
 678 00b0 1148     		ldr	r0, .L21+40
 679 00b2 FFF7FEFF 		bl	ADSR_init
 680              	.LVL52:
  84:Core/Src/audio.c **** 	MoogLP_init(&Moog_filter);
 681              		.loc 1 84 2 view .LVU170
 682 00b6 1148     		ldr	r0, .L21+44
 683 00b8 FFF7FEFF 		bl	ADSR_init
 684              	.LVL53:
  85:Core/Src/audio.c **** 	Delay_init();
 685              		.loc 1 85 2 view .LVU171
 686 00bc 1048     		ldr	r0, .L21+48
 687 00be FFF7FEFF 		bl	MoogLP_init
 688              	.LVL54:
  86:Core/Src/audio.c **** 	
 689              		.loc 1 86 2 view .LVU172
  88:Core/Src/audio.c **** 
 690              		.loc 1 88 1 is_stmt 0 view .LVU173
 691 00c2 BDEC048B 		vldm	sp!, {d8-d9}
 692              		.cfi_restore 82
 693              		.cfi_restore 83
 694              		.cfi_restore 80
 695              		.cfi_restore 81
 696              		.cfi_def_cfa_offset 8
 697 00c6 BDE80840 		pop	{r3, lr}
 698              		.cfi_restore 14
 699              		.cfi_restore 3
 700              		.cfi_def_cfa_offset 0
  86:Core/Src/audio.c **** 	
 701              		.loc 1 86 2 view .LVU174
 702 00ca FFF7FEBF 		b	Delay_init
 703              	.LVL55:
 704              	.L22:
 705 00ce 00BF     		.align	2
 706              	.L21:
 707 00d0 00000000 		.word	0
 708 00d4 00007A44 		.word	1148846080
 709 00d8 00000000 		.word	.LANCHOR4
 710 00dc 0000DC43 		.word	1138491392
ARM GAS  /var/folders/0z/tsy30v1j4xl4_7kw94k978ww0000gn/T//cc3r10W3.s 			page 20


 711 00e0 00000000 		.word	osc1
 712 00e4 00000000 		.word	osc2
 713 00e8 00000000 		.word	osc3
 714 00ec 00000000 		.word	osc4
 715 00f0 00000000 		.word	sub_osc
 716 00f4 00000000 		.word	adsr_amp
 717 00f8 00000000 		.word	adsr_filt
 718 00fc 00000000 		.word	adsr_index
 719 0100 00000000 		.word	Moog_filter
 720              		.cfi_endproc
 721              	.LFE134:
 723              		.section	.text.OpSetFreq,"ax",%progbits
 724              		.align	1
 725              		.p2align 2,,3
 726              		.global	OpSetFreq
 727              		.syntax unified
 728              		.thumb
 729              		.thumb_func
 731              	OpSetFreq:
 732              	.LVL56:
 733              	.LFB135:
  91:Core/Src/audio.c **** 	op->freq = A0 * f;
 734              		.loc 1 91 1 is_stmt 1 view -0
 735              		.cfi_startproc
 736              		@ args = 0, pretend = 0, frame = 0
 737              		@ frame_needed = 0, uses_anonymous_args = 0
 738              		@ link register save eliminated.
  92:Core/Src/audio.c **** }
 739              		.loc 1 92 2 view .LVU176
  92:Core/Src/audio.c **** }
 740              		.loc 1 92 16 is_stmt 0 view .LVU177
 741 0000 DFED037A 		vldr.32	s15, .L24
 742 0004 20EE270A 		vmul.f32	s0, s0, s15
 743              	.LVL57:
  92:Core/Src/audio.c **** }
 744              		.loc 1 92 11 view .LVU178
 745 0008 80ED010A 		vstr.32	s0, [r0, #4]
  93:Core/Src/audio.c **** 
 746              		.loc 1 93 1 view .LVU179
 747 000c 7047     		bx	lr
 748              	.L25:
 749 000e 00BF     		.align	2
 750              	.L24:
 751 0010 8D3B803F 		.word	1065368461
 752              		.cfi_endproc
 753              	.LFE135:
 755              		.section	.text.audioBlock,"ax",%progbits
 756              		.align	1
 757              		.p2align 2,,3
 758              		.global	audioBlock
 759              		.syntax unified
 760              		.thumb
 761              		.thumb_func
 763              	audioBlock:
 764              	.LVL58:
 765              	.LFB136:
 104:Core/Src/audio.c **** 	int i;
ARM GAS  /var/folders/0z/tsy30v1j4xl4_7kw94k978ww0000gn/T//cc3r10W3.s 			page 21


 766              		.loc 1 104 1 is_stmt 1 view -0
 767              		.cfi_startproc
 768              		@ args = 0, pretend = 0, frame = 8
 769              		@ frame_needed = 0, uses_anonymous_args = 0
 105:Core/Src/audio.c **** 	int16_t *output;
 770              		.loc 1 105 2 view .LVU181
 106:Core/Src/audio.c **** 	output = buffer;
 771              		.loc 1 106 2 view .LVU182
 107:Core/Src/audio.c **** 	float sample, sampleL, sampleR;
 772              		.loc 1 107 2 view .LVU183
 108:Core/Src/audio.c **** 	uint16_t valueL, valueR;
 773              		.loc 1 108 2 view .LVU184
 109:Core/Src/audio.c **** 	
 774              		.loc 1 109 2 view .LVU185
 111:Core/Src/audio.c **** 	{
 775              		.loc 1 111 2 view .LVU186
 111:Core/Src/audio.c **** 	{
 776              		.loc 1 111 16 view .LVU187
 777 0000 0029     		cmp	r1, #0
 778 0002 00F01181 		beq	.L40
 104:Core/Src/audio.c **** 	int i;
 779              		.loc 1 104 1 is_stmt 0 view .LVU188
 780 0006 2DE9F04F 		push	{r4, r5, r6, r7, r8, r9, r10, fp, lr}
 781              		.cfi_def_cfa_offset 36
 782              		.cfi_offset 4, -36
 783              		.cfi_offset 5, -32
 784              		.cfi_offset 6, -28
 785              		.cfi_offset 7, -24
 786              		.cfi_offset 8, -20
 787              		.cfi_offset 9, -16
 788              		.cfi_offset 10, -12
 789              		.cfi_offset 11, -8
 790              		.cfi_offset 14, -4
 791 000a 2DED068B 		vpush.64	{d8, d9, d10}
 792              		.cfi_def_cfa_offset 60
 793              		.cfi_offset 80, -60
 794              		.cfi_offset 81, -56
 795              		.cfi_offset 82, -52
 796              		.cfi_offset 83, -48
 797              		.cfi_offset 84, -44
 798              		.cfi_offset 85, -40
 799 000e 83B0     		sub	sp, sp, #12
 800              		.cfi_def_cfa_offset 72
 801 0010 831C     		adds	r3, r0, #2
 802 0012 DFF87892 		ldr	r9, .L46+92
 803 0016 DFF87882 		ldr	r8, .L46+96
 804              	.LBB122:
 805              	.LBB123:
  92:Core/Src/audio.c **** }
 806              		.loc 1 92 16 view .LVU189
 807 001a DFED898A 		vldr.32	s17, .L46+16
 808              	.LBE123:
 809              	.LBE122:
 810 001e 9FED89AA 		vldr.32	s20, .L46+20
 129:Core/Src/audio.c **** 		sample = osc_FM2OP(f0);
 811              		.loc 1 129 35 view .LVU190
 812 0022 DFED899A 		vldr.32	s19, .L46+24
ARM GAS  /var/folders/0z/tsy30v1j4xl4_7kw94k978ww0000gn/T//cc3r10W3.s 			page 22


 134:Core/Src/audio.c **** 		sample = MoogLP_compute(&Moog_filter, sample);
 813              		.loc 1 134 29 view .LVU191
 814 0026 9FED899A 		vldr.32	s18, .L46+28
 815 002a 894D     		ldr	r5, .L46+32
 816 002c 0193     		str	r3, [sp, #4]
 817 002e 8346     		mov	fp, r0
 818 0030 8A46     		mov	r10, r1
 111:Core/Src/audio.c **** 	{
 819              		.loc 1 111 9 view .LVU192
 820 0032 0024     		movs	r4, #0
 821 0034 56E0     		b	.L27
 822              	.LVL59:
 823              	.L44:
 824              	.LBB126:
 825              	.LBB127:
  66:Core/Inc/helper_functions.h ****     {
 826              		.loc 2 66 10 is_stmt 1 view .LVU193
  66:Core/Inc/helper_functions.h ****     {
 827              		.loc 2 66 13 is_stmt 0 view .LVU194
 828 0036 F0EE086A 		vmov.f32	s13, #3.0e+0
 829 003a B4EEE67A 		vcmpe.f32	s14, s13
 830 003e F1EE10FA 		vmrs	APSR_nzcv, FPSCR
 831 0042 00F3E680 		bgt	.L35
 832              	.LVL60:
 833              	.LBB128:
 834              	.LBI128:
  60:Core/Inc/helper_functions.h **** {
 835              		.loc 2 60 14 is_stmt 1 view .LVU195
 836              	.LBB129:
 837              		.loc 2 72 9 view .LVU196
 838              		.loc 2 72 27 is_stmt 0 view .LVU197
 839 0046 F3EE0B6A 		vmov.f32	s13, #2.7e+1
 840              		.loc 2 72 52 view .LVU198
 841 004a F2EE025A 		vmov.f32	s11, #9.0e+0
 842 004e 67EE255A 		vmul.f32	s11, s14, s11
 843              		.loc 2 72 27 view .LVU199
 844 0052 F0EE664A 		vmov.f32	s9, s13
 845 0056 E7EE074A 		vfma.f32	s9, s14, s14
 846              		.loc 2 72 45 view .LVU200
 847 005a E7EE256A 		vfma.f32	s13, s14, s11
 848              		.loc 2 72 18 view .LVU201
 849 005e 27EE247A 		vmul.f32	s14, s14, s9
 850              	.LVL61:
 851              		.loc 2 72 45 view .LVU202
 852 0062 B0EE666A 		vmov.f32	s12, s13
 853              	.LVL62:
 854              		.loc 2 72 36 view .LVU203
 855 0066 C7EE066A 		vdiv.f32	s13, s14, s12
 856              	.LBE129:
 857              	.LBE128:
 858              	.LBE127:
 859              	.LBE126:
 159:Core/Src/audio.c **** 		valueR = ((int16_t) ((32767.0f) * sampleR));
 860              		.loc 1 159 35 view .LVU204
 861 006a 9FED7A5A 		vldr.32	s10, .L46+36
 862 006e 26EE857A 		vmul.f32	s14, s13, s10
 159:Core/Src/audio.c **** 		valueR = ((int16_t) ((32767.0f) * sampleR));
ARM GAS  /var/folders/0z/tsy30v1j4xl4_7kw94k978ww0000gn/T//cc3r10W3.s 			page 23


 863              		.loc 1 159 13 view .LVU205
 864 0072 BDEEC77A 		vcvt.s32.f32	s14, s14
 865 0076 17EE103A 		vmov	r3, s14	@ int
 866 007a 1AB2     		sxth	r2, r3
 867              	.L29:
 868              	.LVL63:
 156:Core/Src/audio.c **** 
 869              		.loc 1 156 3 is_stmt 1 view .LVU206
 870              	.LBB134:
 871              	.LBI134:
  60:Core/Inc/helper_functions.h **** {
 872              		.loc 2 60 14 view .LVU207
 873              	.LBB135:
  62:Core/Inc/helper_functions.h ****     {
 874              		.loc 2 62 5 view .LVU208
  62:Core/Inc/helper_functions.h ****     {
 875              		.loc 2 62 8 is_stmt 0 view .LVU209
 876 007c B8EE087A 		vmov.f32	s14, #-3.0e+0
 877 0080 F4EEC77A 		vcmpe.f32	s15, s14
 878 0084 F1EE10FA 		vmrs	APSR_nzcv, FPSCR
 879 0088 00F1C180 		bmi	.L36
 880              	.L45:
  66:Core/Inc/helper_functions.h ****     {
 881              		.loc 2 66 10 is_stmt 1 view .LVU210
  66:Core/Inc/helper_functions.h ****     {
 882              		.loc 2 66 13 is_stmt 0 view .LVU211
 883 008c B0EE087A 		vmov.f32	s14, #3.0e+0
 884 0090 F4EEC77A 		vcmpe.f32	s15, s14
 885 0094 F1EE10FA 		vmrs	APSR_nzcv, FPSCR
 886 0098 00F3BE80 		bgt	.L37
 887              	.LVL64:
 888              	.LBB136:
 889              	.LBI136:
  60:Core/Inc/helper_functions.h **** {
 890              		.loc 2 60 14 is_stmt 1 view .LVU212
 891              	.LBB137:
 892              		.loc 2 72 9 view .LVU213
 893              		.loc 2 72 27 is_stmt 0 view .LVU214
 894 009c B3EE0B7A 		vmov.f32	s14, #2.7e+1
 895              		.loc 2 72 52 view .LVU215
 896 00a0 B2EE026A 		vmov.f32	s12, #9.0e+0
 897 00a4 27EE866A 		vmul.f32	s12, s15, s12
 898              		.loc 2 72 27 view .LVU216
 899 00a8 B0EE475A 		vmov.f32	s10, s14
 900 00ac A7EEA75A 		vfma.f32	s10, s15, s15
 901              		.loc 2 72 45 view .LVU217
 902 00b0 A7EE867A 		vfma.f32	s14, s15, s12
 903              		.loc 2 72 18 view .LVU218
 904 00b4 67EE857A 		vmul.f32	s15, s15, s10
 905              	.LVL65:
 906              		.loc 2 72 45 view .LVU219
 907 00b8 F0EE476A 		vmov.f32	s13, s14
 908              	.LVL66:
 909              		.loc 2 72 36 view .LVU220
 910 00bc 87EEA67A 		vdiv.f32	s14, s15, s13
 911              	.LBE137:
 912              	.LBE136:
ARM GAS  /var/folders/0z/tsy30v1j4xl4_7kw94k978ww0000gn/T//cc3r10W3.s 			page 24


 913              	.LBE135:
 914              	.LBE134:
 160:Core/Src/audio.c **** 
 915              		.loc 1 160 35 view .LVU221
 916 00c0 DFED645A 		vldr.32	s11, .L46+36
 917 00c4 67EE257A 		vmul.f32	s15, s14, s11
 160:Core/Src/audio.c **** 
 918              		.loc 1 160 13 view .LVU222
 919 00c8 FDEEE77A 		vcvt.s32.f32	s15, s15
 920 00cc 17EE903A 		vmov	r3, s15	@ int
 921 00d0 1BB2     		sxth	r3, r3
 922              	.L30:
 923              	.LVL67:
 159:Core/Src/audio.c **** 		valueR = ((int16_t) ((32767.0f) * sampleR));
 924              		.loc 1 159 3 is_stmt 1 view .LVU223
 160:Core/Src/audio.c **** 
 925              		.loc 1 160 3 view .LVU224
 163:Core/Src/audio.c **** 	    output[(i<<1) + 1] = valueR;	// RIGHT channel
 926              		.loc 1 163 3 view .LVU225
 163:Core/Src/audio.c **** 	    output[(i<<1) + 1] = valueR;	// RIGHT channel
 927              		.loc 1 163 16 is_stmt 0 view .LVU226
 928 00d2 2BF82420 		strh	r2, [fp, r4, lsl #2]	@ movhi
 164:Core/Src/audio.c **** 	}
 929              		.loc 1 164 6 is_stmt 1 view .LVU227
 164:Core/Src/audio.c **** 	}
 930              		.loc 1 164 25 is_stmt 0 view .LVU228
 931 00d6 019A     		ldr	r2, [sp, #4]
 932 00d8 22F82430 		strh	r3, [r2, r4, lsl #2]	@ movhi
 111:Core/Src/audio.c **** 	{
 933              		.loc 1 111 28 is_stmt 1 view .LVU229
 934 00dc 0134     		adds	r4, r4, #1
 935              	.LVL68:
 111:Core/Src/audio.c **** 	{
 936              		.loc 1 111 16 view .LVU230
 937 00de 5445     		cmp	r4, r10
 938 00e0 00F09D80 		beq	.L43
 939              	.LVL69:
 940              	.L27:
 114:Core/Src/audio.c **** 		
 941              		.loc 1 114 3 view .LVU231
 114:Core/Src/audio.c **** 		
 942              		.loc 1 114 12 is_stmt 0 view .LVU232
 943 00e4 5C4B     		ldr	r3, .L46+40
 944 00e6 1E78     		ldrb	r6, [r3]	@ zero_extendqisi2
 945 00e8 09EB8603 		add	r3, r9, r6, lsl #2
 946 00ec 93ED008A 		vldr.32	s16, [r3]
 947              	.LBB141:
 948              	.LBB142:
  92:Core/Src/audio.c **** }
 949              		.loc 1 92 11 view .LVU233
 950 00f0 5A4B     		ldr	r3, .L46+44
 951              	.LBE142:
 952              	.LBE141:
 114:Core/Src/audio.c **** 		
 953              		.loc 1 114 6 view .LVU234
 954 00f2 88ED008A 		vstr.32	s16, [r8]
 117:Core/Src/audio.c **** 		OpSetFreq(&osc2, f0);
ARM GAS  /var/folders/0z/tsy30v1j4xl4_7kw94k978ww0000gn/T//cc3r10W3.s 			page 25


 955              		.loc 1 117 3 is_stmt 1 view .LVU235
 956              	.LVL70:
 957              	.LBB145:
 958              	.LBI122:
  90:Core/Src/audio.c **** {
 959              		.loc 1 90 6 view .LVU236
 960              	.LBB124:
  92:Core/Src/audio.c **** }
 961              		.loc 1 92 2 view .LVU237
  92:Core/Src/audio.c **** }
 962              		.loc 1 92 16 is_stmt 0 view .LVU238
 963 00f6 68EE287A 		vmul.f32	s15, s16, s17
 964              	.LBE124:
 965              	.LBE145:
 119:Core/Src/audio.c **** 		OpSetFreq(&osc4, f0 + 0.5);
 966              		.loc 1 119 22 view .LVU239
 967 00fa 18EE100A 		vmov	r0, s16
 968              	.LBB146:
 969              	.LBB143:
  92:Core/Src/audio.c **** }
 970              		.loc 1 92 11 view .LVU240
 971 00fe C3ED017A 		vstr.32	s15, [r3, #4]
 972              	.LBE143:
 973              	.LBE146:
 974              	.LBB147:
 975              	.LBB125:
 976 0102 C5ED017A 		vstr.32	s15, [r5, #4]
 977              	.LVL71:
  92:Core/Src/audio.c **** }
 978              		.loc 1 92 11 view .LVU241
 979              	.LBE125:
 980              	.LBE147:
 118:Core/Src/audio.c **** 		OpSetFreq(&osc3, f0-0.2);
 981              		.loc 1 118 3 is_stmt 1 view .LVU242
 982              	.LBB148:
 983              	.LBI141:
  90:Core/Src/audio.c **** {
 984              		.loc 1 90 6 view .LVU243
 985              	.LBB144:
  92:Core/Src/audio.c **** }
 986              		.loc 1 92 2 view .LVU244
  92:Core/Src/audio.c **** }
 987              		.loc 1 92 2 is_stmt 0 view .LVU245
 988              	.LBE144:
 989              	.LBE148:
 119:Core/Src/audio.c **** 		OpSetFreq(&osc4, f0 + 0.5);
 990              		.loc 1 119 3 is_stmt 1 view .LVU246
 991              	.LBB149:
 992              	.LBI149:
  90:Core/Src/audio.c **** {
 993              		.loc 1 90 6 view .LVU247
 994              	.LBB150:
  92:Core/Src/audio.c **** }
 995              		.loc 1 92 2 view .LVU248
 996              	.LBE150:
 997              	.LBE149:
 119:Core/Src/audio.c **** 		OpSetFreq(&osc4, f0 + 0.5);
ARM GAS  /var/folders/0z/tsy30v1j4xl4_7kw94k978ww0000gn/T//cc3r10W3.s 			page 26


 998              		.loc 1 119 22 is_stmt 0 view .LVU249
 999 0106 FFF7FEFF 		bl	__aeabi_f2d
 1000              	.LVL72:
 1001 010a 49A3     		adr	r3, .L46
 1002 010c D3E90023 		ldrd	r2, [r3]
 1003 0110 FFF7FEFF 		bl	__aeabi_dsub
 1004              	.LVL73:
 119:Core/Src/audio.c **** 		OpSetFreq(&osc4, f0 + 0.5);
 1005              		.loc 1 119 3 view .LVU250
 1006 0114 FFF7FEFF 		bl	__aeabi_d2f
 1007              	.LVL74:
 1008              	.LBB154:
 1009              	.LBB151:
  92:Core/Src/audio.c **** }
 1010              		.loc 1 92 16 view .LVU251
 1011 0118 07EE900A 		vmov	s15, r0
 1012              	.LBE151:
 1013              	.LBE154:
 120:Core/Src/audio.c **** 		
 1014              		.loc 1 120 3 view .LVU252
 1015 011c B6EE007A 		vmov.f32	s14, #5.0e-1
 122:Core/Src/audio.c **** 		OpSetFreq(&sub_osc, f_sub);
 1016              		.loc 1 122 16 view .LVU253
 1017 0120 0C2E     		cmp	r6, #12
 120:Core/Src/audio.c **** 		
 1018              		.loc 1 120 3 view .LVU254
 1019 0122 38EE078A 		vadd.f32	s16, s16, s14
 1020              	.LVL75:
 1021              	.LBB155:
 1022              	.LBB152:
  92:Core/Src/audio.c **** }
 1023              		.loc 1 92 16 view .LVU255
 1024 0126 67EEA87A 		vmul.f32	s15, s15, s17
  92:Core/Src/audio.c **** }
 1025              		.loc 1 92 11 view .LVU256
 1026 012a 4D4B     		ldr	r3, .L46+48
 1027              	.LBE152:
 1028              	.LBE155:
 128:Core/Src/audio.c **** 		osc1.FM_index = (noteOn_velocity/127.f) * 0.033 * index_env;	
 1029              		.loc 1 128 15 view .LVU257
 1030 012c 4D48     		ldr	r0, .L46+52
 1031              	.LBB156:
 1032              	.LBB153:
  92:Core/Src/audio.c **** }
 1033              		.loc 1 92 11 view .LVU258
 1034 012e C3ED017A 		vstr.32	s15, [r3, #4]
 1035              	.LVL76:
  92:Core/Src/audio.c **** }
 1036              		.loc 1 92 11 view .LVU259
 1037              	.LBE153:
 1038              	.LBE156:
 120:Core/Src/audio.c **** 		
 1039              		.loc 1 120 3 is_stmt 1 view .LVU260
 1040              	.LBB157:
 1041              	.LBI157:
  90:Core/Src/audio.c **** {
 1042              		.loc 1 90 6 view .LVU261
ARM GAS  /var/folders/0z/tsy30v1j4xl4_7kw94k978ww0000gn/T//cc3r10W3.s 			page 27


 1043              	.LBB158:
  92:Core/Src/audio.c **** }
 1044              		.loc 1 92 2 view .LVU262
 1045              	.LBE158:
 1046              	.LBE157:
 122:Core/Src/audio.c **** 		OpSetFreq(&sub_osc, f_sub);
 1047              		.loc 1 122 15 is_stmt 0 view .LVU263
 1048 0132 84BF     		itt	hi
 1049 0134 09EB8606 		addhi	r6, r9, r6, lsl #2
 1050              	.LVL77:
 1051              	.LBB161:
 1052              	.LBB162:
  92:Core/Src/audio.c **** }
 1053              		.loc 1 92 16 view .LVU264
 1054 0138 56ED0C7A 		vldrhi.32	s15, [r6, #-48]
 1055              	.LBE162:
 1056              	.LBE161:
 1057              	.LBB166:
 1058              	.LBB159:
  92:Core/Src/audio.c **** }
 1059              		.loc 1 92 11 view .LVU265
 1060 013c 4A4B     		ldr	r3, .L46+56
  92:Core/Src/audio.c **** }
 1061              		.loc 1 92 16 view .LVU266
 1062 013e 28EE288A 		vmul.f32	s16, s16, s17
 1063              	.LBE159:
 1064              	.LBE166:
 1065              	.LBB167:
 1066              	.LBB163:
 1067 0142 88BF     		it	hi
 1068 0144 67EEA87A 		vmulhi.f32	s15, s15, s17
 1069              	.LBE163:
 1070              	.LBE167:
 1071              	.LBB168:
 1072              	.LBB160:
  92:Core/Src/audio.c **** }
 1073              		.loc 1 92 11 view .LVU267
 1074 0148 83ED018A 		vstr.32	s16, [r3, #4]
 1075              	.LVL78:
  92:Core/Src/audio.c **** }
 1076              		.loc 1 92 11 view .LVU268
 1077              	.LBE160:
 1078              	.LBE168:
 122:Core/Src/audio.c **** 		OpSetFreq(&sub_osc, f_sub);
 1079              		.loc 1 122 3 is_stmt 1 view .LVU269
 123:Core/Src/audio.c **** 		//sample = 0.5*(osc_polyblepSaw(&osc1) + osc_polyblepSaw(&osc2) + osc_polyblepSaw(&osc3) + osc_po
 1080              		.loc 1 123 3 view .LVU270
 1081              	.LBB169:
 1082              	.LBI161:
  90:Core/Src/audio.c **** {
 1083              		.loc 1 90 6 view .LVU271
 1084              	.LBB164:
  92:Core/Src/audio.c **** }
 1085              		.loc 1 92 2 view .LVU272
  92:Core/Src/audio.c **** }
 1086              		.loc 1 92 11 is_stmt 0 view .LVU273
 1087 014c 474B     		ldr	r3, .L46+60
ARM GAS  /var/folders/0z/tsy30v1j4xl4_7kw94k978ww0000gn/T//cc3r10W3.s 			page 28


 1088              	.LBE164:
 1089              	.LBE169:
 1090 014e 98BF     		it	ls
 1091 0150 F0EE4A7A 		vmovls.f32	s15, s20
 1092              	.LBB170:
 1093              	.LBB165:
 1094 0154 C3ED017A 		vstr.32	s15, [r3, #4]
 1095              	.LVL79:
  92:Core/Src/audio.c **** }
 1096              		.loc 1 92 11 view .LVU274
 1097              	.LBE165:
 1098              	.LBE170:
 128:Core/Src/audio.c **** 		osc1.FM_index = (noteOn_velocity/127.f) * 0.033 * index_env;	
 1099              		.loc 1 128 3 is_stmt 1 view .LVU275
 128:Core/Src/audio.c **** 		osc1.FM_index = (noteOn_velocity/127.f) * 0.033 * index_env;	
 1100              		.loc 1 128 15 is_stmt 0 view .LVU276
 1101 0158 FFF7FEFF 		bl	ADSR_compute
 1102              	.LVL80:
 129:Core/Src/audio.c **** 		sample = osc_FM2OP(f0);
 1103              		.loc 1 129 35 view .LVU277
 1104 015c 444B     		ldr	r3, .L46+64
 1105 015e 1B78     		ldrb	r3, [r3]	@ zero_extendqisi2
 1106 0160 07EE903A 		vmov	s15, r3	@ int
 1107 0164 F8EEE77A 		vcvt.f32.s32	s15, s15
 128:Core/Src/audio.c **** 		osc1.FM_index = (noteOn_velocity/127.f) * 0.033 * index_env;	
 1108              		.loc 1 128 15 view .LVU278
 1109 0168 10EE107A 		vmov	r7, s0
 129:Core/Src/audio.c **** 		sample = osc_FM2OP(f0);
 1110              		.loc 1 129 3 is_stmt 1 view .LVU279
 129:Core/Src/audio.c **** 		sample = osc_FM2OP(f0);
 1111              		.loc 1 129 35 is_stmt 0 view .LVU280
 1112 016c C7EEA97A 		vdiv.f32	s15, s15, s19
 1113 0170 17EE900A 		vmov	r0, s15
 1114 0174 FFF7FEFF 		bl	__aeabi_f2d
 1115              	.LVL81:
 129:Core/Src/audio.c **** 		sample = osc_FM2OP(f0);
 1116              		.loc 1 129 43 view .LVU281
 1117 0178 2FA3     		adr	r3, .L46+8
 1118 017a D3E90023 		ldrd	r2, [r3]
 1119 017e FFF7FEFF 		bl	__aeabi_dmul
 1120              	.LVL82:
 1121 0182 0246     		mov	r2, r0
 129:Core/Src/audio.c **** 		sample = osc_FM2OP(f0);
 1122              		.loc 1 129 51 view .LVU282
 1123 0184 3846     		mov	r0, r7	@ float
 129:Core/Src/audio.c **** 		sample = osc_FM2OP(f0);
 1124              		.loc 1 129 43 view .LVU283
 1125 0186 1646     		mov	r6, r2
 1126 0188 0F46     		mov	r7, r1
 129:Core/Src/audio.c **** 		sample = osc_FM2OP(f0);
 1127              		.loc 1 129 51 view .LVU284
 1128 018a FFF7FEFF 		bl	__aeabi_f2d
 1129              	.LVL83:
 1130 018e 0246     		mov	r2, r0
 1131 0190 0B46     		mov	r3, r1
 1132 0192 3046     		mov	r0, r6
 1133 0194 3946     		mov	r1, r7
ARM GAS  /var/folders/0z/tsy30v1j4xl4_7kw94k978ww0000gn/T//cc3r10W3.s 			page 29


 1134 0196 FFF7FEFF 		bl	__aeabi_dmul
 1135              	.LVL84:
 1136 019a FFF7FEFF 		bl	__aeabi_d2f
 1137              	.LVL85:
 130:Core/Src/audio.c **** 
 1138              		.loc 1 130 12 view .LVU285
 1139 019e 98ED000A 		vldr.32	s0, [r8]
 129:Core/Src/audio.c **** 		sample = osc_FM2OP(f0);
 1140              		.loc 1 129 51 view .LVU286
 1141 01a2 E860     		str	r0, [r5, #12]	@ float
 130:Core/Src/audio.c **** 
 1142              		.loc 1 130 3 is_stmt 1 view .LVU287
 130:Core/Src/audio.c **** 
 1143              		.loc 1 130 12 is_stmt 0 view .LVU288
 1144 01a4 FFF7FEFF 		bl	osc_FM2OP
 1145              	.LVL86:
 133:Core/Src/audio.c **** 		Moog_filter.cutoff = 1300 * filt_env;
 1146              		.loc 1 133 14 view .LVU289
 1147 01a8 3248     		ldr	r0, .L46+68
 130:Core/Src/audio.c **** 
 1148              		.loc 1 130 12 view .LVU290
 1149 01aa B0EE408A 		vmov.f32	s16, s0
 1150              	.LVL87:
 133:Core/Src/audio.c **** 		Moog_filter.cutoff = 1300 * filt_env;
 1151              		.loc 1 133 3 is_stmt 1 view .LVU291
 133:Core/Src/audio.c **** 		Moog_filter.cutoff = 1300 * filt_env;
 1152              		.loc 1 133 14 is_stmt 0 view .LVU292
 1153 01ae FFF7FEFF 		bl	ADSR_compute
 1154              	.LVL88:
 134:Core/Src/audio.c **** 		sample = MoogLP_compute(&Moog_filter, sample);
 1155              		.loc 1 134 3 is_stmt 1 view .LVU293
 134:Core/Src/audio.c **** 		sample = MoogLP_compute(&Moog_filter, sample);
 1156              		.loc 1 134 22 is_stmt 0 view .LVU294
 1157 01b2 314B     		ldr	r3, .L46+72
 133:Core/Src/audio.c **** 		Moog_filter.cutoff = 1300 * filt_env;
 1158              		.loc 1 133 14 view .LVU295
 1159 01b4 F0EE407A 		vmov.f32	s15, s0
 134:Core/Src/audio.c **** 		sample = MoogLP_compute(&Moog_filter, sample);
 1160              		.loc 1 134 29 view .LVU296
 1161 01b8 67EE897A 		vmul.f32	s15, s15, s18
 135:Core/Src/audio.c **** 	
 1162              		.loc 1 135 12 view .LVU297
 1163 01bc 1846     		mov	r0, r3
 1164 01be B0EE480A 		vmov.f32	s0, s16
 134:Core/Src/audio.c **** 		sample = MoogLP_compute(&Moog_filter, sample);
 1165              		.loc 1 134 22 view .LVU298
 1166 01c2 C3ED007A 		vstr.32	s15, [r3]
 135:Core/Src/audio.c **** 	
 1167              		.loc 1 135 3 is_stmt 1 view .LVU299
 135:Core/Src/audio.c **** 	
 1168              		.loc 1 135 12 is_stmt 0 view .LVU300
 1169 01c6 FFF7FEFF 		bl	MoogLP_compute
 1170              	.LVL89:
 140:Core/Src/audio.c **** 		sample *= amp_env;
 1171              		.loc 1 140 13 view .LVU301
 1172 01ca 2C48     		ldr	r0, .L46+76
 135:Core/Src/audio.c **** 	
ARM GAS  /var/folders/0z/tsy30v1j4xl4_7kw94k978ww0000gn/T//cc3r10W3.s 			page 30


 1173              		.loc 1 135 12 view .LVU302
 1174 01cc B0EE408A 		vmov.f32	s16, s0
 1175              	.LVL90:
 140:Core/Src/audio.c **** 		sample *= amp_env;
 1176              		.loc 1 140 3 is_stmt 1 view .LVU303
 140:Core/Src/audio.c **** 		sample *= amp_env;
 1177              		.loc 1 140 13 is_stmt 0 view .LVU304
 1178 01d0 FFF7FEFF 		bl	ADSR_compute
 1179              	.LVL91:
 141:Core/Src/audio.c **** 
 1180              		.loc 1 141 3 is_stmt 1 view .LVU305
 148:Core/Src/audio.c **** 		sampleL = delayLOut;
 1181              		.loc 1 148 3 view .LVU306
 1182 01d4 2A49     		ldr	r1, .L46+80
 1183 01d6 2B48     		ldr	r0, .L46+84
 1184 01d8 20EE080A 		vmul.f32	s0, s0, s16
 1185              	.LVL92:
 148:Core/Src/audio.c **** 		sampleL = delayLOut;
 1186              		.loc 1 148 3 is_stmt 0 view .LVU307
 1187 01dc FFF7FEFF 		bl	pingpongDelay_compute
 1188              	.LVL93:
 149:Core/Src/audio.c **** 		sampleR = delayROut;
 1189              		.loc 1 149 3 is_stmt 1 view .LVU308
 149:Core/Src/audio.c **** 		sampleR = delayROut;
 1190              		.loc 1 149 11 is_stmt 0 view .LVU309
 1191 01e0 284B     		ldr	r3, .L46+84
 1192 01e2 93ED007A 		vldr.32	s14, [r3]
 1193              	.LVL94:
 150:Core/Src/audio.c **** 		//sampleL = sample;
 1194              		.loc 1 150 3 is_stmt 1 view .LVU310
 150:Core/Src/audio.c **** 		//sampleL = sample;
 1195              		.loc 1 150 11 is_stmt 0 view .LVU311
 1196 01e6 264B     		ldr	r3, .L46+80
 1197              	.LBB171:
 1198              	.LBB130:
  62:Core/Inc/helper_functions.h ****     {
 1199              		.loc 2 62 8 view .LVU312
 1200 01e8 F8EE086A 		vmov.f32	s13, #-3.0e+0
 1201 01ec B4EEE67A 		vcmpe.f32	s14, s13
 1202 01f0 F1EE10FA 		vmrs	APSR_nzcv, FPSCR
 1203              	.LBE130:
 1204              	.LBE171:
 150:Core/Src/audio.c **** 		//sampleL = sample;
 1205              		.loc 1 150 11 view .LVU313
 1206 01f4 D3ED007A 		vldr.32	s15, [r3]
 1207              	.LVL95:
 155:Core/Src/audio.c **** 		sampleR = SoftClip(sampleR);
 1208              		.loc 1 155 3 is_stmt 1 view .LVU314
 1209              	.LBB172:
 1210              	.LBI126:
  60:Core/Inc/helper_functions.h **** {
 1211              		.loc 2 60 14 view .LVU315
 1212              	.LBB131:
  62:Core/Inc/helper_functions.h ****     {
 1213              		.loc 2 62 5 view .LVU316
  62:Core/Inc/helper_functions.h ****     {
 1214              		.loc 2 62 8 is_stmt 0 view .LVU317
ARM GAS  /var/folders/0z/tsy30v1j4xl4_7kw94k978ww0000gn/T//cc3r10W3.s 			page 31


 1215 01f8 7FF51DAF 		bpl	.L44
 1216              	.LBE131:
 1217              	.LBE172:
 1218              	.LBB173:
 1219              	.LBB138:
 1220 01fc B8EE087A 		vmov.f32	s14, #-3.0e+0
 1221              	.LVL96:
  62:Core/Inc/helper_functions.h ****     {
 1222              		.loc 2 62 8 view .LVU318
 1223 0200 F4EEC77A 		vcmpe.f32	s15, s14
 1224 0204 F1EE10FA 		vmrs	APSR_nzcv, FPSCR
 1225              	.LBE138:
 1226              	.LBE173:
 1227              	.LBB174:
 1228              	.LBB132:
 1229 0208 1F4A     		ldr	r2, .L46+88
 1230              	.LVL97:
  62:Core/Inc/helper_functions.h ****     {
 1231              		.loc 2 62 8 view .LVU319
 1232              	.LBE132:
 1233              	.LBE174:
 156:Core/Src/audio.c **** 
 1234              		.loc 1 156 3 is_stmt 1 view .LVU320
 1235              	.LBB175:
  60:Core/Inc/helper_functions.h **** {
 1236              		.loc 2 60 14 view .LVU321
 1237              	.LBB139:
  62:Core/Inc/helper_functions.h ****     {
 1238              		.loc 2 62 5 view .LVU322
  62:Core/Inc/helper_functions.h ****     {
 1239              		.loc 2 62 8 is_stmt 0 view .LVU323
 1240 020a 7FF53FAF 		bpl	.L45
 1241              	.L36:
 1242 020e 1E4B     		ldr	r3, .L46+88
 1243 0210 5FE7     		b	.L30
 1244              	.LVL98:
 1245              	.L35:
  62:Core/Inc/helper_functions.h ****     {
 1246              		.loc 2 62 8 view .LVU324
 1247              	.LBE139:
 1248              	.LBE175:
 1249              	.LBB176:
 1250              	.LBB133:
 1251 0212 47F6FF72 		movw	r2, #32767
 1252 0216 31E7     		b	.L29
 1253              	.LVL99:
 1254              	.L37:
  62:Core/Inc/helper_functions.h ****     {
 1255              		.loc 2 62 8 view .LVU325
 1256              	.LBE133:
 1257              	.LBE176:
 1258              	.LBB177:
 1259              	.LBB140:
 1260 0218 47F6FF73 		movw	r3, #32767
 1261 021c 59E7     		b	.L30
 1262              	.LVL100:
 1263              	.L43:
ARM GAS  /var/folders/0z/tsy30v1j4xl4_7kw94k978ww0000gn/T//cc3r10W3.s 			page 32


  62:Core/Inc/helper_functions.h ****     {
 1264              		.loc 2 62 8 view .LVU326
 1265              	.LBE140:
 1266              	.LBE177:
 1267              		.loc 1 166 1 view .LVU327
 1268 021e 03B0     		add	sp, sp, #12
 1269              		.cfi_def_cfa_offset 60
 1270              		@ sp needed
 1271 0220 BDEC068B 		vldm	sp!, {d8-d10}
 1272              		.cfi_restore 84
 1273              		.cfi_restore 85
 1274              		.cfi_restore 82
 1275              		.cfi_restore 83
 1276              		.cfi_restore 80
 1277              		.cfi_restore 81
 1278              		.cfi_def_cfa_offset 36
 1279 0224 BDE8F08F 		pop	{r4, r5, r6, r7, r8, r9, r10, fp, pc}
 1280              	.LVL101:
 1281              	.L40:
 1282              		.cfi_def_cfa_offset 0
 1283              		.cfi_restore 4
 1284              		.cfi_restore 5
 1285              		.cfi_restore 6
 1286              		.cfi_restore 7
 1287              		.cfi_restore 8
 1288              		.cfi_restore 9
 1289              		.cfi_restore 10
 1290              		.cfi_restore 11
 1291              		.cfi_restore 14
 1292              		.loc 1 166 1 view .LVU328
 1293 0228 7047     		bx	lr
 1294              	.L47:
 1295 022a 00BFAFF3 		.align	3
 1295      0080
 1296              	.L46:
 1297 0230 9A999999 		.word	-1717986918
 1298 0234 9999C93F 		.word	1070176665
 1299 0238 4C378941 		.word	1099511628
 1300 023c 60E5A03F 		.word	1067509088
 1301 0240 8D3B803F 		.word	1065368461
 1302 0244 EF0C0341 		.word	1090718959
 1303 0248 0000FE42 		.word	1123942400
 1304 024c 0080A244 		.word	1151500288
 1305 0250 00000000 		.word	osc1
 1306 0254 00FEFF46 		.word	1191181824
 1307 0258 00000000 		.word	currentPitch
 1308 025c 00000000 		.word	osc2
 1309 0260 00000000 		.word	osc3
 1310 0264 00000000 		.word	adsr_index
 1311 0268 00000000 		.word	osc4
 1312 026c 00000000 		.word	sub_osc
 1313 0270 00000000 		.word	noteOn_velocity
 1314 0274 00000000 		.word	adsr_filt
 1315 0278 00000000 		.word	Moog_filter
 1316 027c 00000000 		.word	adsr_amp
 1317 0280 00000000 		.word	.LANCHOR2
 1318 0284 00000000 		.word	.LANCHOR3
ARM GAS  /var/folders/0z/tsy30v1j4xl4_7kw94k978ww0000gn/T//cc3r10W3.s 			page 33


 1319 0288 0180FFFF 		.word	-32767
 1320 028c 00000000 		.word	.LANCHOR0
 1321 0290 00000000 		.word	.LANCHOR1
 1322              		.cfi_endproc
 1323              	.LFE136:
 1325              		.section	.text.BSP_AUDIO_OUT_HalfTransfer_CallBack,"ax",%progbits
 1326              		.align	1
 1327              		.p2align 2,,3
 1328              		.global	BSP_AUDIO_OUT_HalfTransfer_CallBack
 1329              		.syntax unified
 1330              		.thumb
 1331              		.thumb_func
 1333              	BSP_AUDIO_OUT_HalfTransfer_CallBack:
 1334              	.LFB137:
 167:Core/Src/audio.c **** 
 168:Core/Src/audio.c **** 
 169:Core/Src/audio.c **** 
 170:Core/Src/audio.c **** void BSP_AUDIO_OUT_HalfTransfer_CallBack(void)
 171:Core/Src/audio.c **** {
 1335              		.loc 1 171 1 is_stmt 1 view -0
 1336              		.cfi_startproc
 1337              		@ args = 0, pretend = 0, frame = 0
 1338              		@ frame_needed = 0, uses_anonymous_args = 0
 1339              		@ link register save eliminated.
 172:Core/Src/audio.c **** 	audioBlock((uint16_t *)audioBuffer, BUFFER_SIZE_DIV_4);
 1340              		.loc 1 172 2 view .LVU330
 1341 0000 0148     		ldr	r0, .L49
 1342 0002 FFF7FEBF 		b	audioBlock.constprop.0
 1343              	.LVL102:
 1344              	.L50:
 1345 0006 00BF     		.align	2
 1346              	.L49:
 1347 0008 00000000 		.word	.LANCHOR4
 1348              		.cfi_endproc
 1349              	.LFE137:
 1351              		.section	.text.BSP_AUDIO_OUT_TransferComplete_CallBack,"ax",%progbits
 1352              		.align	1
 1353              		.p2align 2,,3
 1354              		.global	BSP_AUDIO_OUT_TransferComplete_CallBack
 1355              		.syntax unified
 1356              		.thumb
 1357              		.thumb_func
 1359              	BSP_AUDIO_OUT_TransferComplete_CallBack:
 1360              	.LFB138:
 173:Core/Src/audio.c **** }
 174:Core/Src/audio.c **** 
 175:Core/Src/audio.c **** void BSP_AUDIO_OUT_TransferComplete_CallBack(void)
 176:Core/Src/audio.c **** {
 1361              		.loc 1 176 1 view -0
 1362              		.cfi_startproc
 1363              		@ args = 0, pretend = 0, frame = 0
 1364              		@ frame_needed = 0, uses_anonymous_args = 0
 1365              		@ link register save eliminated.
 177:Core/Src/audio.c **** 	audioBlock((uint16_t *)(audioBuffer + BUFFER_SIZE_DIV_2), BUFFER_SIZE_DIV_4);
 1366              		.loc 1 177 2 view .LVU332
 1367 0000 0148     		ldr	r0, .L52
 1368 0002 FFF7FEBF 		b	audioBlock.constprop.0
ARM GAS  /var/folders/0z/tsy30v1j4xl4_7kw94k978ww0000gn/T//cc3r10W3.s 			page 34


 1369              	.LVL103:
 1370              	.L53:
 1371 0006 00BF     		.align	2
 1372              	.L52:
 1373 0008 00010000 		.word	.LANCHOR4+256
 1374              		.cfi_endproc
 1375              	.LFE138:
 1377              		.section	.text.BSP_AUDIO_OUT_Error_CallBack,"ax",%progbits
 1378              		.align	1
 1379              		.p2align 2,,3
 1380              		.global	BSP_AUDIO_OUT_Error_CallBack
 1381              		.syntax unified
 1382              		.thumb
 1383              		.thumb_func
 1385              	BSP_AUDIO_OUT_Error_CallBack:
 1386              	.LFB139:
 178:Core/Src/audio.c **** }
 179:Core/Src/audio.c **** 
 180:Core/Src/audio.c **** void BSP_AUDIO_OUT_Error_CallBack(void)
 181:Core/Src/audio.c **** {
 1387              		.loc 1 181 1 view -0
 1388              		.cfi_startproc
 1389              		@ Volatile: function does not return.
 1390              		@ args = 0, pretend = 0, frame = 0
 1391              		@ frame_needed = 0, uses_anonymous_args = 0
 1392              		@ link register save eliminated.
 1393              	.L55:
 182:Core/Src/audio.c **** 	/* Stop the program with an infinite loop */
 183:Core/Src/audio.c **** 	while (1)
 1394              		.loc 1 183 2 discriminator 1 view .LVU334
 184:Core/Src/audio.c **** 	{
 185:Core/Src/audio.c **** 	}
 1395              		.loc 1 185 2 discriminator 1 view .LVU335
 183:Core/Src/audio.c **** 	{
 1396              		.loc 1 183 8 discriminator 1 view .LVU336
 1397 0000 FEE7     		b	.L55
 1398              		.cfi_endproc
 1399              	.LFE139:
 1401 0002 00BF     		.section	.text.DMA1_Stream7_IRQHandler,"ax",%progbits
 1402              		.align	1
 1403              		.p2align 2,,3
 1404              		.global	DMA1_Stream7_IRQHandler
 1405              		.syntax unified
 1406              		.thumb
 1407              		.thumb_func
 1409              	DMA1_Stream7_IRQHandler:
 1410              	.LFB140:
 186:Core/Src/audio.c **** }
 187:Core/Src/audio.c **** 
 188:Core/Src/audio.c **** 
 189:Core/Src/audio.c **** void I2S3_IRQHandler(void)
 190:Core/Src/audio.c **** {
 1411              		.loc 1 190 1 view -0
 1412              		.cfi_startproc
 1413              		@ args = 0, pretend = 0, frame = 0
 1414              		@ frame_needed = 0, uses_anonymous_args = 0
 1415              		@ link register save eliminated.
ARM GAS  /var/folders/0z/tsy30v1j4xl4_7kw94k978ww0000gn/T//cc3r10W3.s 			page 35


 191:Core/Src/audio.c **** 	HAL_DMA_IRQHandler(hAudioOutI2s.hdmatx);
 1416              		.loc 1 191 2 view .LVU338
 1417 0000 014B     		ldr	r3, .L57
 1418 0002 986B     		ldr	r0, [r3, #56]
 1419 0004 FFF7FEBF 		b	HAL_DMA_IRQHandler
 1420              	.LVL104:
 1421              	.L58:
 1422              		.align	2
 1423              	.L57:
 1424 0008 00000000 		.word	hAudioOutI2s
 1425              		.cfi_endproc
 1426              	.LFE140:
 1428              		.section	.text.DMA1_Stream3_IRQHandler,"ax",%progbits
 1429              		.align	1
 1430              		.p2align 2,,3
 1431              		.global	DMA1_Stream3_IRQHandler
 1432              		.syntax unified
 1433              		.thumb
 1434              		.thumb_func
 1436              	DMA1_Stream3_IRQHandler:
 1437              	.LFB141:
 192:Core/Src/audio.c **** }
 193:Core/Src/audio.c **** void I2S2_IRQHandler(void)
 194:Core/Src/audio.c **** {
 1438              		.loc 1 194 1 view -0
 1439              		.cfi_startproc
 1440              		@ args = 0, pretend = 0, frame = 0
 1441              		@ frame_needed = 0, uses_anonymous_args = 0
 1442              		@ link register save eliminated.
 195:Core/Src/audio.c **** 	HAL_DMA_IRQHandler(hAudioInI2s.hdmarx);
 1443              		.loc 1 195 2 view .LVU340
 1444 0000 014B     		ldr	r3, .L60
 1445 0002 D86B     		ldr	r0, [r3, #60]
 1446 0004 FFF7FEBF 		b	HAL_DMA_IRQHandler
 1447              	.LVL105:
 1448              	.L61:
 1449              		.align	2
 1450              	.L60:
 1451 0008 00000000 		.word	hAudioInI2s
 1452              		.cfi_endproc
 1453              	.LFE141:
 1455              		.global	delayROut
 1456              		.global	delayLOut
 1457              		.global	audioBuffer
 1458              		.global	pbend
 1459              		.global	mtof
 1460              		.section	.bss.audioBuffer,"aw",%nobits
 1461              		.align	2
 1462              		.set	.LANCHOR4,. + 0
 1465              	audioBuffer:
 1466 0000 00000000 		.space	512
 1466      00000000 
 1466      00000000 
 1466      00000000 
 1466      00000000 
 1467              		.section	.bss.delayLOut,"aw",%nobits
 1468              		.align	2
ARM GAS  /var/folders/0z/tsy30v1j4xl4_7kw94k978ww0000gn/T//cc3r10W3.s 			page 36


 1469              		.set	.LANCHOR3,. + 0
 1472              	delayLOut:
 1473 0000 00000000 		.space	4
 1474              		.section	.bss.delayROut,"aw",%nobits
 1475              		.align	2
 1476              		.set	.LANCHOR2,. + 0
 1479              	delayROut:
 1480 0000 00000000 		.space	4
 1481              		.section	.bss.f0,"aw",%nobits
 1482              		.align	2
 1483              		.set	.LANCHOR1,. + 0
 1486              	f0:
 1487 0000 00000000 		.space	4
 1488              		.section	.rodata.mtof,"a"
 1489              		.align	2
 1490              		.set	.LANCHOR0,. + 0
 1493              	mtof:
 1494 0000 13D00241 		.word	1090703379
 1495 0004 60970A41 		.word	1091213152
 1496 0008 17D51241 		.word	1091753239
 1497 000c 41901B41 		.word	1092325441
 1498 0010 54D02441 		.word	1092931668
 1499 0014 369D2E41 		.word	1093573942
 1500 0018 4AFF3841 		.word	1094254410
 1501 001c 6AFF4341 		.word	1094975338
 1502 0020 01A74F41 		.word	1095739137
 1503 0024 00005C41 		.word	1096548352
 1504 0028 F7146941 		.word	1097405687
 1505 002c 10F17641 		.word	1098314000
 1506 0030 13D08241 		.word	1099091987
 1507 0034 60978A41 		.word	1099601760
 1508 0038 17D59241 		.word	1100141847
 1509 003c 41909B41 		.word	1100714049
 1510 0040 54D0A441 		.word	1101320276
 1511 0044 369DAE41 		.word	1101962550
 1512 0048 49FFB841 		.word	1102643017
 1513 004c 6BFFC341 		.word	1103363947
 1514 0050 01A7CF41 		.word	1104127745
 1515 0054 0000DC41 		.word	1104936960
 1516 0058 F614E941 		.word	1105794294
 1517 005c 10F1F641 		.word	1106702608
 1518 0060 13D00242 		.word	1107480595
 1519 0064 60970A42 		.word	1107990368
 1520 0068 17D51242 		.word	1108530455
 1521 006c 41901B42 		.word	1109102657
 1522 0070 54D02442 		.word	1109708884
 1523 0074 379D2E42 		.word	1110351159
 1524 0078 49FF3842 		.word	1111031625
 1525 007c 6AFF4342 		.word	1111752554
 1526 0080 00A74F42 		.word	1112516352
 1527 0084 00005C42 		.word	1113325568
 1528 0088 F6146942 		.word	1114182902
 1529 008c 10F17642 		.word	1115091216
 1530 0090 12D08242 		.word	1115869202
 1531 0094 60978A42 		.word	1116378976
 1532 0098 17D59242 		.word	1116919063
 1533 009c 41909B42 		.word	1117491265
ARM GAS  /var/folders/0z/tsy30v1j4xl4_7kw94k978ww0000gn/T//cc3r10W3.s 			page 37


 1534 00a0 54D0A442 		.word	1118097492
 1535 00a4 379DAE42 		.word	1118739767
 1536 00a8 49FFB842 		.word	1119420233
 1537 00ac 6AFFC342 		.word	1120141162
 1538 00b0 00A7CF42 		.word	1120904960
 1539 00b4 0000DC42 		.word	1121714176
 1540 00b8 F614E942 		.word	1122571510
 1541 00bc 10F1F642 		.word	1123479824
 1542 00c0 13D00243 		.word	1124257811
 1543 00c4 60970A43 		.word	1124767584
 1544 00c8 17D51243 		.word	1125307671
 1545 00cc 41901B43 		.word	1125879873
 1546 00d0 54D02443 		.word	1126486100
 1547 00d4 379D2E43 		.word	1127128375
 1548 00d8 49FF3843 		.word	1127808841
 1549 00dc 6AFF4343 		.word	1128529770
 1550 00e0 00A74F43 		.word	1129293568
 1551 00e4 00005C43 		.word	1130102784
 1552 00e8 F6146943 		.word	1130960118
 1553 00ec 10F17643 		.word	1131868432
 1554 00f0 13D08243 		.word	1132646419
 1555 00f4 60978A43 		.word	1133156192
 1556 00f8 17D59243 		.word	1133696279
 1557 00fc 41909B43 		.word	1134268481
 1558 0100 54D0A443 		.word	1134874708
 1559 0104 379DAE43 		.word	1135516983
 1560 0108 49FFB843 		.word	1136197449
 1561 010c 6AFFC343 		.word	1136918378
 1562 0110 00A7CF43 		.word	1137682176
 1563 0114 0000DC43 		.word	1138491392
 1564 0118 F614E943 		.word	1139348726
 1565 011c 10F1F643 		.word	1140257040
 1566 0120 13D00244 		.word	1141035027
 1567 0124 60970A44 		.word	1141544800
 1568 0128 17D51244 		.word	1142084887
 1569 012c 41901B44 		.word	1142657089
 1570 0130 54D02444 		.word	1143263316
 1571 0134 379D2E44 		.word	1143905591
 1572 0138 49FF3844 		.word	1144586057
 1573 013c 6AFF4344 		.word	1145306986
 1574 0140 00A74F44 		.word	1146070784
 1575 0144 00005C44 		.word	1146880000
 1576 0148 F6146944 		.word	1147737334
 1577 014c 10F17644 		.word	1148645648
 1578 0150 13D08244 		.word	1149423635
 1579 0154 60978A44 		.word	1149933408
 1580 0158 17D59244 		.word	1150473495
 1581 015c 41909B44 		.word	1151045697
 1582 0160 54D0A444 		.word	1151651924
 1583 0164 379DAE44 		.word	1152294199
 1584 0168 49FFB844 		.word	1152974665
 1585 016c 6AFFC344 		.word	1153695594
 1586 0170 00A7CF44 		.word	1154459392
 1587 0174 0000DC44 		.word	1155268608
 1588 0178 F614E944 		.word	1156125942
 1589 017c 10F1F644 		.word	1157034256
 1590 0180 13D00245 		.word	1157812243
ARM GAS  /var/folders/0z/tsy30v1j4xl4_7kw94k978ww0000gn/T//cc3r10W3.s 			page 38


 1591 0184 60970A45 		.word	1158322016
 1592 0188 17D51245 		.word	1158862103
 1593 018c 41901B45 		.word	1159434305
 1594 0190 54D02445 		.word	1160040532
 1595 0194 379D2E45 		.word	1160682807
 1596 0198 49FF3845 		.word	1161363273
 1597 019c 6AFF4345 		.word	1162084202
 1598 01a0 00A74F45 		.word	1162848000
 1599 01a4 00005C45 		.word	1163657216
 1600 01a8 F6146945 		.word	1164514550
 1601 01ac 10F17645 		.word	1165422864
 1602 01b0 13D08245 		.word	1166200851
 1603 01b4 60978A45 		.word	1166710624
 1604 01b8 17D59245 		.word	1167250711
 1605 01bc 41909B45 		.word	1167822913
 1606 01c0 54D0A445 		.word	1168429140
 1607 01c4 379DAE45 		.word	1169071415
 1608 01c8 49FFB845 		.word	1169751881
 1609 01cc 6AFFC345 		.word	1170472810
 1610 01d0 00A7CF45 		.word	1171236608
 1611 01d4 0000DC45 		.word	1172045824
 1612 01d8 F614E945 		.word	1172903158
 1613 01dc 10F1F645 		.word	1173811472
 1614 01e0 13D00246 		.word	1174589459
 1615 01e4 60970A46 		.word	1175099232
 1616 01e8 17D51246 		.word	1175639319
 1617 01ec 41901B46 		.word	1176211521
 1618 01f0 54D02446 		.word	1176817748
 1619 01f4 379D2E46 		.word	1177460023
 1620 01f8 49FF3846 		.word	1178140489
 1621 01fc 6AFF4346 		.word	1178861418
 1622              		.section	.rodata.pbend,"a"
 1623              		.align	2
 1626              	pbend:
 1627 0000 0000003F 		.word	1056964608
 1628 0004 5E2C003F 		.word	1056975966
 1629 0008 DE58003F 		.word	1056987358
 1630 000c 5E85003F 		.word	1056998750
 1631 0010 EEB1003F 		.word	1057010158
 1632 0014 8FDE003F 		.word	1057021583
 1633 0018 410B013F 		.word	1057033025
 1634 001c 0438013F 		.word	1057044484
 1635 0020 D864013F 		.word	1057055960
 1636 0024 AC91013F 		.word	1057067436
 1637 0028 A1BE013F 		.word	1057078945
 1638 002c A7EB013F 		.word	1057090471
 1639 0030 AD18023F 		.word	1057101997
 1640 0034 D445023F 		.word	1057113556
 1641 0038 FC72023F 		.word	1057125116
 1642 003c 34A0023F 		.word	1057136692
 1643 0040 8ECD023F 		.word	1057148302
 1644 0044 E8FA023F 		.word	1057159912
 1645 0048 5228033F 		.word	1057171538
 1646 004c CE55033F 		.word	1057183182
 1647 0050 5A83033F 		.word	1057194842
 1648 0054 F7B0033F 		.word	1057206519
 1649 0058 A4DE033F 		.word	1057218212
ARM GAS  /var/folders/0z/tsy30v1j4xl4_7kw94k978ww0000gn/T//cc3r10W3.s 			page 39


 1650 005c 630C043F 		.word	1057229923
 1651 0060 213A043F 		.word	1057241633
 1652 0064 0168043F 		.word	1057253377
 1653 0068 F295043F 		.word	1057265138
 1654 006c E3C3043F 		.word	1057276899
 1655 0070 F5F1043F 		.word	1057288693
 1656 0074 1920053F 		.word	1057300505
 1657 0078 3C4E053F 		.word	1057312316
 1658 007c 707C053F 		.word	1057324144
 1659 0080 C5AA053F 		.word	1057336005
 1660 0084 1BD9053F 		.word	1057347867
 1661 0088 9207063F 		.word	1057359762
 1662 008c 0936063F 		.word	1057371657
 1663 0090 9164063F 		.word	1057383569
 1664 0094 2993063F 		.word	1057395497
 1665 0098 D3C1063F 		.word	1057407443
 1666 009c 9EF0063F 		.word	1057419422
 1667 00a0 681F073F 		.word	1057431400
 1668 00a4 444E073F 		.word	1057443396
 1669 00a8 317D073F 		.word	1057455409
 1670 00ac 2EAC073F 		.word	1057467438
 1671 00b0 3CDB073F 		.word	1057479484
 1672 00b4 5B0A083F 		.word	1057491547
 1673 00b8 7A39083F 		.word	1057503610
 1674 00bc BA68083F 		.word	1057515706
 1675 00c0 0B98083F 		.word	1057527819
 1676 00c4 6DC7083F 		.word	1057539949
 1677 00c8 E0F6083F 		.word	1057552096
 1678 00cc 6326093F 		.word	1057564259
 1679 00d0 E755093F 		.word	1057576423
 1680 00d4 8C85093F 		.word	1057588620
 1681 00d8 42B5093F 		.word	1057600834
 1682 00dc 08E5093F 		.word	1057613064
 1683 00e0 CF140A3F 		.word	1057625295
 1684 00e4 B7440A3F 		.word	1057637559
 1685 00e8 B0740A3F 		.word	1057649840
 1686 00ec A9A40A3F 		.word	1057662121
 1687 00f0 C3D40A3F 		.word	1057674435
 1688 00f4 EE040B3F 		.word	1057686766
 1689 00f8 2B350B3F 		.word	1057699115
 1690 00fc 67650B3F 		.word	1057711463
 1691 0100 C4950B3F 		.word	1057723844
 1692 0104 32C60B3F 		.word	1057736242
 1693 0108 A1F60B3F 		.word	1057748641
 1694 010c 31270C3F 		.word	1057761073
 1695 0110 D1570C3F 		.word	1057773521
 1696 0114 72880C3F 		.word	1057785970
 1697 0118 34B90C3F 		.word	1057798452
 1698 011c 07EA0C3F 		.word	1057810951
 1699 0120 DA1A0D3F 		.word	1057823450
 1700 0124 CF4B0D3F 		.word	1057835983
 1701 0128 D47C0D3F 		.word	1057848532
 1702 012c DAAD0D3F 		.word	1057861082
 1703 0130 01DF0D3F 		.word	1057873665
 1704 0134 38100E3F 		.word	1057886264
 1705 0138 81410E3F 		.word	1057898881
 1706 013c DA720E3F 		.word	1057911514
ARM GAS  /var/folders/0z/tsy30v1j4xl4_7kw94k978ww0000gn/T//cc3r10W3.s 			page 40


 1707 0140 33A40E3F 		.word	1057924147
 1708 0144 AED50E3F 		.word	1057936814
 1709 0148 3A070F3F 		.word	1057949498
 1710 014c D6380F3F 		.word	1057962198
 1711 0150 836A0F3F 		.word	1057974915
 1712 0154 419C0F3F 		.word	1057987649
 1713 0158 10CE0F3F 		.word	1058000400
 1714 015c EFFF0F3F 		.word	1058013167
 1715 0160 DF31103F 		.word	1058025951
 1716 0164 E063103F 		.word	1058038752
 1717 0168 F295103F 		.word	1058051570
 1718 016c 15C8103F 		.word	1058064405
 1719 0170 48FA103F 		.word	1058077256
 1720 0174 8C2C113F 		.word	1058090124
 1721 0178 F25E113F 		.word	1058103026
 1722 017c 5891113F 		.word	1058115928
 1723 0180 CEC3113F 		.word	1058128846
 1724 0184 66F6113F 		.word	1058141798
 1725 0188 FE28123F 		.word	1058154750
 1726 018c B85B123F 		.word	1058167736
 1727 0190 718E123F 		.word	1058180721
 1728 0194 4CC1123F 		.word	1058193740
 1729 0198 28F4123F 		.word	1058206760
 1730 019c 2427133F 		.word	1058219812
 1731 01a0 325A133F 		.word	1058232882
 1732 01a4 3F8D133F 		.word	1058245951
 1733 01a8 6EC0133F 		.word	1058259054
 1734 01ac AEF3133F 		.word	1058272174
 1735 01b0 FE26143F 		.word	1058285310
 1736 01b4 605A143F 		.word	1058298464
 1737 01b8 D28D143F 		.word	1058311634
 1738 01bc 55C1143F 		.word	1058324821
 1739 01c0 E8F4143F 		.word	1058338024
 1740 01c4 9E28153F 		.word	1058351262
 1741 01c8 535C153F 		.word	1058364499
 1742 01cc 1990153F 		.word	1058377753
 1743 01d0 00C4153F 		.word	1058391040
 1744 01d4 E8F7153F 		.word	1058404328
 1745 01d8 F12B163F 		.word	1058417649
 1746 01dc 0B60163F 		.word	1058430987
 1747 01e0 2594163F 		.word	1058444325
 1748 01e4 60C8163F 		.word	1058457696
 1749 01e8 ADFC163F 		.word	1058471085
 1750 01ec 0A31173F 		.word	1058484490
 1751 01f0 7765173F 		.word	1058497911
 1752 01f4 079A173F 		.word	1058511367
 1753 01f8 96CE173F 		.word	1058524822
 1754 01fc 3603183F 		.word	1058538294
 1755 0200 F837183F 		.word	1058551800
 1756 0204 B96C183F 		.word	1058565305
 1757 0208 9DA1183F 		.word	1058578845
 1758 020c 80D6183F 		.word	1058592384
 1759 0210 850B193F 		.word	1058605957
 1760 0214 9A40193F 		.word	1058619546
 1761 0218 C075193F 		.word	1058633152
 1762 021c F8AA193F 		.word	1058646776
 1763 0220 3FE0193F 		.word	1058660415
ARM GAS  /var/folders/0z/tsy30v1j4xl4_7kw94k978ww0000gn/T//cc3r10W3.s 			page 41


 1764 0224 A9151A3F 		.word	1058674089
 1765 0228 124B1A3F 		.word	1058687762
 1766 022c 9D801A3F 		.word	1058701469
 1767 0230 28B61A3F 		.word	1058715176
 1768 0234 D5EB1A3F 		.word	1058728917
 1769 0238 92211B3F 		.word	1058742674
 1770 023c 60571B3F 		.word	1058756448
 1771 0240 3F8D1B3F 		.word	1058770239
 1772 0244 2FC31B3F 		.word	1058784047
 1773 0248 2FF91B3F 		.word	1058797871
 1774 024c 512F1C3F 		.word	1058811729
 1775 0250 73651C3F 		.word	1058825587
 1776 0254 B79B1C3F 		.word	1058839479
 1777 0258 FAD11C3F 		.word	1058853370
 1778 025c 5F081D3F 		.word	1058867295
 1779 0260 D53E1D3F 		.word	1058881237
 1780 0264 5C751D3F 		.word	1058895196
 1781 0268 04AC1D3F 		.word	1058909188
 1782 026c ACE21D3F 		.word	1058923180
 1783 0270 76191E3F 		.word	1058937206
 1784 0274 40501E3F 		.word	1058951232
 1785 0278 2B871E3F 		.word	1058965291
 1786 027c 27BE1E3F 		.word	1058979367
 1787 0280 34F51E3F 		.word	1058993460
 1788 0284 522C1F3F 		.word	1059007570
 1789 0288 80631F3F 		.word	1059021696
 1790 028c D09A1F3F 		.word	1059035856
 1791 0290 20D21F3F 		.word	1059050016
 1792 0294 9109203F 		.word	1059064209
 1793 0298 1441203F 		.word	1059078420
 1794 029c A778203F 		.word	1059092647
 1795 02a0 4BB0203F 		.word	1059106891
 1796 02a4 10E8203F 		.word	1059121168
 1797 02a8 D61F213F 		.word	1059135446
 1798 02ac BC57213F 		.word	1059149756
 1799 02b0 B48F213F 		.word	1059164084
 1800 02b4 BDC7213F 		.word	1059178429
 1801 02b8 D6FF213F 		.word	1059192790
 1802 02bc 0038223F 		.word	1059207168
 1803 02c0 3B70223F 		.word	1059221563
 1804 02c4 97A8223F 		.word	1059235991
 1805 02c8 05E1223F 		.word	1059250437
 1806 02cc 8319233F 		.word	1059264899
 1807 02d0 1152233F 		.word	1059279377
 1808 02d4 B18A233F 		.word	1059293873
 1809 02d8 72C3233F 		.word	1059308402
 1810 02dc 33FC233F 		.word	1059322931
 1811 02e0 1635243F 		.word	1059337494
 1812 02e4 096E243F 		.word	1059352073
 1813 02e8 0DA7243F 		.word	1059366669
 1814 02ec 22E0243F 		.word	1059381282
 1815 02f0 5919253F 		.word	1059395929
 1816 02f4 A052253F 		.word	1059410592
 1817 02f8 E78B253F 		.word	1059425255
 1818 02fc 61C5253F 		.word	1059439969
 1819 0300 DAFE253F 		.word	1059454682
 1820 0304 6538263F 		.word	1059469413
ARM GAS  /var/folders/0z/tsy30v1j4xl4_7kw94k978ww0000gn/T//cc3r10W3.s 			page 42


 1821 0308 1172263F 		.word	1059484177
 1822 030c CDAB263F 		.word	1059498957
 1823 0310 9BE5263F 		.word	1059513755
 1824 0314 791F273F 		.word	1059528569
 1825 0318 6859273F 		.word	1059543400
 1826 031c 7993273F 		.word	1059558265
 1827 0320 9ACD273F 		.word	1059573146
 1828 0324 CC07283F 		.word	1059588044
 1829 0328 0F42283F 		.word	1059602959
 1830 032c 637C283F 		.word	1059617891
 1831 0330 D8B6283F 		.word	1059632856
 1832 0334 5EF1283F 		.word	1059647838
 1833 0338 F52B293F 		.word	1059662837
 1834 033c 9D66293F 		.word	1059677853
 1835 0340 55A1293F 		.word	1059692885
 1836 0344 2FDC293F 		.word	1059707951
 1837 0348 1A172A3F 		.word	1059723034
 1838 034c 15522A3F 		.word	1059738133
 1839 0350 228D2A3F 		.word	1059753250
 1840 0354 50C82A3F 		.word	1059768400
 1841 0358 8E032B3F 		.word	1059783566
 1842 035c DE3E2B3F 		.word	1059798750
 1843 0360 3E7A2B3F 		.word	1059813950
 1844 0364 AFB52B3F 		.word	1059829167
 1845 0368 41F12B3F 		.word	1059844417
 1846 036c E42C2C3F 		.word	1059859684
 1847 0370 98682C3F 		.word	1059874968
 1848 0374 5DA42C3F 		.word	1059890269
 1849 0378 44E02C3F 		.word	1059905604
 1850 037c 3B1C2D3F 		.word	1059920955
 1851 0380 43582D3F 		.word	1059936323
 1852 0384 5B942D3F 		.word	1059951707
 1853 0388 96D02D3F 		.word	1059967126
 1854 038c D00C2E3F 		.word	1059982544
 1855 0390 3D492E3F 		.word	1059998013
 1856 0394 A9852E3F 		.word	1060013481
 1857 0398 27C22E3F 		.word	1060028967
 1858 039c C5FE2E3F 		.word	1060044485
 1859 03a0 753B2F3F 		.word	1060060021
 1860 03a4 46782F3F 		.word	1060075590
 1861 03a8 18B52F3F 		.word	1060091160
 1862 03ac 0AF22F3F 		.word	1060106762
 1863 03b0 0E2F303F 		.word	1060122382
 1864 03b4 226C303F 		.word	1060138018
 1865 03b8 58A9303F 		.word	1060153688
 1866 03bc 9FE6303F 		.word	1060169375
 1867 03c0 F623313F 		.word	1060185078
 1868 03c4 5F61313F 		.word	1060200799
 1869 03c8 E99E313F 		.word	1060216553
 1870 03cc 83DC313F 		.word	1060232323
 1871 03d0 2E1A323F 		.word	1060248110
 1872 03d4 FB57323F 		.word	1060263931
 1873 03d8 C895323F 		.word	1060279752
 1874 03dc C8D3323F 		.word	1060295624
 1875 03e0 C711333F 		.word	1060311495
 1876 03e4 D74F333F 		.word	1060327383
 1877 03e8 088E333F 		.word	1060343304
ARM GAS  /var/folders/0z/tsy30v1j4xl4_7kw94k978ww0000gn/T//cc3r10W3.s 			page 43


 1878 03ec 5CCC333F 		.word	1060359260
 1879 03f0 AF0A343F 		.word	1060375215
 1880 03f4 2349343F 		.word	1060391203
 1881 03f8 A987343F 		.word	1060407209
 1882 03fc 3FC6343F 		.word	1060423231
 1883 0400 F704353F 		.word	1060439287
 1884 0404 BF43353F 		.word	1060455359
 1885 0408 9982353F 		.word	1060471449
 1886 040c 83C1353F 		.word	1060487555
 1887 0410 8F00363F 		.word	1060503695
 1888 0414 AB3F363F 		.word	1060519851
 1889 0418 E97E363F 		.word	1060536041
 1890 041c 38BE363F 		.word	1060552248
 1891 0420 97FD363F 		.word	1060568471
 1892 0424 083D373F 		.word	1060584712
 1893 0428 9A7C373F 		.word	1060600986
 1894 042c 3CBC373F 		.word	1060617276
 1895 0430 F0FB373F 		.word	1060633584
 1896 0434 C53B383F 		.word	1060649925
 1897 0438 AB7B383F 		.word	1060666283
 1898 043c A1BB383F 		.word	1060682657
 1899 0440 A9FB383F 		.word	1060699049
 1900 0444 D13B393F 		.word	1060715473
 1901 0448 1C7C393F 		.word	1060731932
 1902 044c 66BC393F 		.word	1060748390
 1903 0450 D2FC393F 		.word	1060764882
 1904 0454 4F3D3A3F 		.word	1060781391
 1905 0458 ED7D3A3F 		.word	1060797933
 1906 045c 9DBE3A3F 		.word	1060814493
 1907 0460 5CFF3A3F 		.word	1060831068
 1908 0464 2D403B3F 		.word	1060847661
 1909 0468 1F813B3F 		.word	1060864287
 1910 046c 33C23B3F 		.word	1060880947
 1911 0470 47033C3F 		.word	1060897607
 1912 0474 7C443C3F 		.word	1060914300
 1913 0478 C2853C3F 		.word	1060931010
 1914 047c 2AC73C3F 		.word	1060947754
 1915 0480 A2083D3F 		.word	1060964514
 1916 0484 2C4A3D3F 		.word	1060981292
 1917 0488 D68B3D3F 		.word	1060998102
 1918 048c 92CD3D3F 		.word	1061014930
 1919 0490 6F0F3E3F 		.word	1061031791
 1920 0494 4C513E3F 		.word	1061048652
 1921 0498 4B933E3F 		.word	1061065547
 1922 049c 6BD53E3F 		.word	1061082475
 1923 04a0 9C173F3F 		.word	1061099420
 1924 04a4 DE593F3F 		.word	1061116382
 1925 04a8 419C3F3F 		.word	1061133377
 1926 04ac B5DE3F3F 		.word	1061150389
 1927 04b0 3A21403F 		.word	1061167418
 1928 04b4 E063403F 		.word	1061184480
 1929 04b8 98A6403F 		.word	1061201560
 1930 04bc 60E9403F 		.word	1061218656
 1931 04c0 492C413F 		.word	1061235785
 1932 04c4 446F413F 		.word	1061252932
 1933 04c8 5FB2413F 		.word	1061270111
 1934 04cc 8CF5413F 		.word	1061287308
ARM GAS  /var/folders/0z/tsy30v1j4xl4_7kw94k978ww0000gn/T//cc3r10W3.s 			page 44


 1935 04d0 DA38423F 		.word	1061304538
 1936 04d4 287C423F 		.word	1061321768
 1937 04d8 A9BF423F 		.word	1061339049
 1938 04dc 2A03433F 		.word	1061356330
 1939 04e0 CC46433F 		.word	1061373644
 1940 04e4 7E8A433F 		.word	1061390974
 1941 04e8 53CE433F 		.word	1061408339
 1942 04ec 3812443F 		.word	1061425720
 1943 04f0 3F56443F 		.word	1061443135
 1944 04f4 569A443F 		.word	1061460566
 1945 04f8 7FDE443F 		.word	1061478015
 1946 04fc C922453F 		.word	1061495497
 1947 0500 2367453F 		.word	1061512995
 1948 0504 9FAB453F 		.word	1061530527
 1949 0508 2CF0453F 		.word	1061548076
 1950 050c DB34463F 		.word	1061565659
 1951 0510 8979463F 		.word	1061583241
 1952 0514 6ABE463F 		.word	1061600874
 1953 0518 4B03473F 		.word	1061618507
 1954 051c 5E48473F 		.word	1061636190
 1955 0520 718D473F 		.word	1061653873
 1956 0524 A6D2473F 		.word	1061671590
 1957 0528 FC17483F 		.word	1061689340
 1958 052c 645D483F 		.word	1061707108
 1959 0530 DBA2483F 		.word	1061724891
 1960 0534 75E8483F 		.word	1061742709
 1961 0538 1F2E493F 		.word	1061760543
 1962 053c DA73493F 		.word	1061778394
 1963 0540 B6B9493F 		.word	1061796278
 1964 0544 B5FF493F 		.word	1061814197
 1965 0548 C3454A3F 		.word	1061832131
 1966 054c E38B4A3F 		.word	1061850083
 1967 0550 24D24A3F 		.word	1061868068
 1968 0554 76184B3F 		.word	1061886070
 1969 0558 EA5E4B3F 		.word	1061904106
 1970 055c 6EA54B3F 		.word	1061922158
 1971 0560 14EC4B3F 		.word	1061940244
 1972 0564 CA324C3F 		.word	1061958346
 1973 0568 A3794C3F 		.word	1061976483
 1974 056c 8BC04C3F 		.word	1061994635
 1975 0570 85074D3F 		.word	1062012805
 1976 0574 A04E4D3F 		.word	1062031008
 1977 0578 DD954D3F 		.word	1062049245
 1978 057c 2BDD4D3F 		.word	1062067499
 1979 0580 89244E3F 		.word	1062085769
 1980 0584 096C4E3F 		.word	1062104073
 1981 0588 9AB34E3F 		.word	1062122394
 1982 058c 4CFB4E3F 		.word	1062140748
 1983 0590 20434F3F 		.word	1062159136
 1984 0594 F48A4F3F 		.word	1062177524
 1985 0598 FAD24F3F 		.word	1062195962
 1986 059c 001B503F 		.word	1062214400
 1987 05a0 3963503F 		.word	1062232889
 1988 05a4 71AB503F 		.word	1062251377
 1989 05a8 DCF3503F 		.word	1062269916
 1990 05ac 473C513F 		.word	1062288455
 1991 05b0 E484513F 		.word	1062307044
ARM GAS  /var/folders/0z/tsy30v1j4xl4_7kw94k978ww0000gn/T//cc3r10W3.s 			page 45


 1992 05b4 81CD513F 		.word	1062325633
 1993 05b8 5116523F 		.word	1062344273
 1994 05bc 205F523F 		.word	1062362912
 1995 05c0 22A8523F 		.word	1062381602
 1996 05c4 35F1523F 		.word	1062400309
 1997 05c8 583A533F 		.word	1062419032
 1998 05cc 9D83533F 		.word	1062437789
 1999 05d0 F3CC533F 		.word	1062456563
 2000 05d4 6A16543F 		.word	1062475370
 2001 05d8 F25F543F 		.word	1062494194
 2002 05dc 9BA9543F 		.word	1062513051
 2003 05e0 56F3543F 		.word	1062531926
 2004 05e4 323D553F 		.word	1062550834
 2005 05e8 2F87553F 		.word	1062569775
 2006 05ec 3DD1553F 		.word	1062588733
 2007 05f0 5C1B563F 		.word	1062607708
 2008 05f4 9D65563F 		.word	1062626717
 2009 05f8 FFAF563F 		.word	1062645759
 2010 05fc 72FA563F 		.word	1062664818
 2011 0600 F644573F 		.word	1062683894
 2012 0604 AC8F573F 		.word	1062703020
 2013 0608 62DA573F 		.word	1062722146
 2014 060c 4A25583F 		.word	1062741322
 2015 0610 3370583F 		.word	1062760499
 2016 0614 4DBB583F 		.word	1062779725
 2017 0618 7906593F 		.word	1062798969
 2018 061c B551593F 		.word	1062818229
 2019 0620 139D593F 		.word	1062837523
 2020 0624 92E8593F 		.word	1062856850
 2021 0628 22345A3F 		.word	1062876194
 2022 062c D47F5A3F 		.word	1062895572
 2023 0630 96CB5A3F 		.word	1062914966
 2024 0634 7A175B3F 		.word	1062934394
 2025 0638 6F635B3F 		.word	1062953839
 2026 063c 86AF5B3F 		.word	1062973318
 2027 0640 BDFB5B3F 		.word	1062992829
 2028 0644 06485C3F 		.word	1063012358
 2029 0648 60945C3F 		.word	1063031904
 2030 064c EBE05C3F 		.word	1063051499
 2031 0650 882D5D3F 		.word	1063071112
 2032 0654 357A5D3F 		.word	1063090741
 2033 0658 04C75D3F 		.word	1063110404
 2034 065c F5135E3F 		.word	1063130101
 2035 0660 F6605E3F 		.word	1063149814
 2036 0664 19AE5E3F 		.word	1063169561
 2037 0668 4CFB5E3F 		.word	1063189324
 2038 066c A1485F3F 		.word	1063209121
 2039 0670 18965F3F 		.word	1063228952
 2040 0674 9FE35F3F 		.word	1063248799
 2041 0678 4831603F 		.word	1063268680
 2042 067c 027F603F 		.word	1063288578
 2043 0680 DECC603F 		.word	1063308510
 2044 0684 DA1A613F 		.word	1063328474
 2045 0688 E868613F 		.word	1063348456
 2046 068c 17B7613F 		.word	1063368471
 2047 0690 5705623F 		.word	1063388503
 2048 0694 B953623F 		.word	1063408569
ARM GAS  /var/folders/0z/tsy30v1j4xl4_7kw94k978ww0000gn/T//cc3r10W3.s 			page 46


 2049 0698 3CA2623F 		.word	1063428668
 2050 069c D0F0623F 		.word	1063448784
 2051 06a0 853F633F 		.word	1063468933
 2052 06a4 5C8E633F 		.word	1063489116
 2053 06a8 44DD633F 		.word	1063509316
 2054 06ac 4D2C643F 		.word	1063529549
 2055 06b0 677B643F 		.word	1063549799
 2056 06b4 A3CA643F 		.word	1063570083
 2057 06b8 001A653F 		.word	1063590400
 2058 06bc 7F69653F 		.word	1063610751
 2059 06c0 0FB9653F 		.word	1063631119
 2060 06c4 AF08663F 		.word	1063651503
 2061 06c8 8258663F 		.word	1063671938
 2062 06cc 54A8663F 		.word	1063692372
 2063 06d0 59F8663F 		.word	1063712857
 2064 06d4 6F48673F 		.word	1063733359
 2065 06d8 A698673F 		.word	1063753894
 2066 06dc FFE8673F 		.word	1063774463
 2067 06e0 6939683F 		.word	1063795049
 2068 06e4 F489683F 		.word	1063815668
 2069 06e8 A1DA683F 		.word	1063836321
 2070 06ec 5E2B693F 		.word	1063856990
 2071 06f0 3D7C693F 		.word	1063877693
 2072 06f4 2DCD693F 		.word	1063898413
 2073 06f8 4F1E6A3F 		.word	1063919183
 2074 06fc 726F6A3F 		.word	1063939954
 2075 0700 C6C06A3F 		.word	1063960774
 2076 0704 2B126B3F 		.word	1063981611
 2077 0708 B2636B3F 		.word	1064002482
 2078 070c 5BB56B3F 		.word	1064023387
 2079 0710 14076C3F 		.word	1064044308
 2080 0714 EF586C3F 		.word	1064065263
 2081 0718 EBAA6C3F 		.word	1064086251
 2082 071c F8FC6C3F 		.word	1064107256
 2083 0720 374F6D3F 		.word	1064128311
 2084 0724 77A16D3F 		.word	1064149367
 2085 0728 E9F36D3F 		.word	1064170473
 2086 072c 6B466E3F 		.word	1064191595
 2087 0730 0F996E3F 		.word	1064212751
 2088 0734 D5EB6E3F 		.word	1064233941
 2089 0738 AB3E6F3F 		.word	1064255147
 2090 073c A3916F3F 		.word	1064276387
 2091 0740 BDE46F3F 		.word	1064297661
 2092 0744 E737703F 		.word	1064318951
 2093 0748 448B703F 		.word	1064340292
 2094 074c A0DE703F 		.word	1064361632
 2095 0750 2F32713F 		.word	1064383023
 2096 0754 CF85713F 		.word	1064404431
 2097 0758 A1D9713F 		.word	1064425889
 2098 075c 732D723F 		.word	1064447347
 2099 0760 7781723F 		.word	1064468855
 2100 0764 8DD5723F 		.word	1064490381
 2101 0768 C329733F 		.word	1064511939
 2102 076c 1C7E733F 		.word	1064533532
 2103 0770 95D2733F 		.word	1064555157
 2104 0774 2027743F 		.word	1064576800
 2105 0778 CC7B743F 		.word	1064598476
ARM GAS  /var/folders/0z/tsy30v1j4xl4_7kw94k978ww0000gn/T//cc3r10W3.s 			page 47


 2106 077c 9AD0743F 		.word	1064620186
 2107 0780 7825753F 		.word	1064641912
 2108 0784 897A753F 		.word	1064663689
 2109 0788 ABCF753F 		.word	1064685483
 2110 078c DD24763F 		.word	1064707293
 2111 0790 427A763F 		.word	1064729154
 2112 0794 B7CF763F 		.word	1064751031
 2113 0798 4E25773F 		.word	1064772942
 2114 079c 077B773F 		.word	1064794887
 2115 07a0 E1D0773F 		.word	1064816865
 2116 07a4 CC26783F 		.word	1064838860
 2117 07a8 D97C783F 		.word	1064860889
 2118 07ac 07D3783F 		.word	1064882951
 2119 07b0 5629793F 		.word	1064905046
 2120 07b4 C77F793F 		.word	1064927175
 2121 07b8 49D6793F 		.word	1064949321
 2122 07bc ED2C7A3F 		.word	1064971501
 2123 07c0 B2837A3F 		.word	1064993714
 2124 07c4 98DA7A3F 		.word	1065015960
 2125 07c8 90317B3F 		.word	1065038224
 2126 07cc B9887B3F 		.word	1065060537
 2127 07d0 F4DF7B3F 		.word	1065082868
 2128 07d4 50377C3F 		.word	1065105232
 2129 07d8 BD8E7C3F 		.word	1065127613
 2130 07dc 5CE67C3F 		.word	1065150044
 2131 07e0 0C3E7D3F 		.word	1065172492
 2132 07e4 DD957D3F 		.word	1065194973
 2133 07e8 D0ED7D3F 		.word	1065217488
 2134 07ec E5457E3F 		.word	1065240037
 2135 07f0 0A9E7E3F 		.word	1065262602
 2136 07f4 62F67E3F 		.word	1065285218
 2137 07f8 CA4E7F3F 		.word	1065307850
 2138 07fc 54A77F3F 		.word	1065330516
 2139 0800 0000803F 		.word	1065353216
 2140 0804 772C803F 		.word	1065364599
 2141 0808 0859803F 		.word	1065376008
 2142 080c A185803F 		.word	1065387425
 2143 0810 4AB2803F 		.word	1065398858
 2144 0814 FCDE803F 		.word	1065410300
 2145 0818 C80B813F 		.word	1065421768
 2146 081c 9B38813F 		.word	1065433243
 2147 0820 8865813F 		.word	1065444744
 2148 0824 7D92813F 		.word	1065456253
 2149 0828 83BF813F 		.word	1065467779
 2150 082c 9AEC813F 		.word	1065479322
 2151 0830 C119823F 		.word	1065490881
 2152 0834 F146823F 		.word	1065502449
 2153 0838 3A74823F 		.word	1065514042
 2154 083c 8CA1823F 		.word	1065525644
 2155 0840 EECE823F 		.word	1065537262
 2156 0844 69FC823F 		.word	1065548905
 2157 0848 ED29833F 		.word	1065560557
 2158 084c 8257833F 		.word	1065572226
 2159 0850 1F85833F 		.word	1065583903
 2160 0854 D5B2833F 		.word	1065595605
 2161 0858 9CE0833F 		.word	1065607324
 2162 085c 6B0E843F 		.word	1065619051
ARM GAS  /var/folders/0z/tsy30v1j4xl4_7kw94k978ww0000gn/T//cc3r10W3.s 			page 48


 2163 0860 533C843F 		.word	1065630803
 2164 0864 446A843F 		.word	1065642564
 2165 0868 4698843F 		.word	1065654342
 2166 086c 58C6843F 		.word	1065666136
 2167 0870 7BF4843F 		.word	1065677947
 2168 0874 AF22853F 		.word	1065689775
 2169 0878 F450853F 		.word	1065701620
 2170 087c 4A7F853F 		.word	1065713482
 2171 0880 A7AD853F 		.word	1065725351
 2172 0884 1EDC853F 		.word	1065737246
 2173 0888 9E0A863F 		.word	1065749150
 2174 088c 3739863F 		.word	1065761079
 2175 0890 D767863F 		.word	1065773015
 2176 0894 9296863F 		.word	1065784978
 2177 0898 54C5863F 		.word	1065796948
 2178 089c 28F4863F 		.word	1065808936
 2179 08a0 0C23873F 		.word	1065820940
 2180 08a4 0052873F 		.word	1065832960
 2181 08a8 0681873F 		.word	1065844998
 2182 08ac 1DB0873F 		.word	1065857053
 2183 08b0 44DF873F 		.word	1065869124
 2184 08b4 7C0E883F 		.word	1065881212
 2185 08b8 C53D883F 		.word	1065893317
 2186 08bc 166D883F 		.word	1065905430
 2187 08c0 809C883F 		.word	1065917568
 2188 08c4 FBCB883F 		.word	1065929723
 2189 08c8 7FFB883F 		.word	1065941887
 2190 08cc 1B2B893F 		.word	1065954075
 2191 08d0 C95A893F 		.word	1065966281
 2192 08d4 7E8A893F 		.word	1065978494
 2193 08d8 4DBA893F 		.word	1065990733
 2194 08dc 25EA893F 		.word	1066002981
 2195 08e0 151A8A3F 		.word	1066015253
 2196 08e4 0E4A8A3F 		.word	1066027534
 2197 08e8 207A8A3F 		.word	1066039840
 2198 08ec 3BAA8A3F 		.word	1066052155
 2199 08f0 6EDA8A3F 		.word	1066064494
 2200 08f4 AA0A8B3F 		.word	1066076842
 2201 08f8 003B8B3F 		.word	1066089216
 2202 08fc 5D6B8B3F 		.word	1066101597
 2203 0900 D49B8B3F 		.word	1066114004
 2204 0904 53CC8B3F 		.word	1066126419
 2205 0908 EBFC8B3F 		.word	1066138859
 2206 090c 8C2D8C3F 		.word	1066151308
 2207 0910 465E8C3F 		.word	1066163782
 2208 0914 088F8C3F 		.word	1066176264
 2209 0918 E4BF8C3F 		.word	1066188772
 2210 091c C7F08C3F 		.word	1066201287
 2211 0920 C4218D3F 		.word	1066213828
 2212 0924 D2528D3F 		.word	1066226386
 2213 0928 E8838D3F 		.word	1066238952
 2214 092c 18B58D3F 		.word	1066251544
 2215 0930 58E68D3F 		.word	1066264152
 2216 0934 A0178E3F 		.word	1066276768
 2217 0938 02498E3F 		.word	1066289410
 2218 093c 747A8E3F 		.word	1066302068
 2219 0940 F7AB8E3F 		.word	1066314743
ARM GAS  /var/folders/0z/tsy30v1j4xl4_7kw94k978ww0000gn/T//cc3r10W3.s 			page 49


 2220 0944 8BDD8E3F 		.word	1066327435
 2221 0948 300F8F3F 		.word	1066340144
 2222 094c E6408F3F 		.word	1066352870
 2223 0950 AC728F3F 		.word	1066365612
 2224 0954 83A48F3F 		.word	1066378371
 2225 0958 73D68F3F 		.word	1066391155
 2226 095c 6C08903F 		.word	1066403948
 2227 0960 753A903F 		.word	1066416757
 2228 0964 986C903F 		.word	1066429592
 2229 0968 C39E903F 		.word	1066442435
 2230 096c 07D1903F 		.word	1066455303
 2231 0970 5C03913F 		.word	1066468188
 2232 0974 B935913F 		.word	1066481081
 2233 0978 3068913F 		.word	1066494000
 2234 097c B79A913F 		.word	1066506935
 2235 0980 4FCD913F 		.word	1066519887
 2236 0984 F8FF913F 		.word	1066532856
 2237 0988 BA32923F 		.word	1066545850
 2238 098c 8465923F 		.word	1066558852
 2239 0990 6798923F 		.word	1066571879
 2240 0994 53CB923F 		.word	1066584915
 2241 0998 58FE923F 		.word	1066597976
 2242 099c 6E31933F 		.word	1066611054
 2243 09a0 8C64933F 		.word	1066624140
 2244 09a4 C497933F 		.word	1066637252
 2245 09a8 14CB933F 		.word	1066650388
 2246 09ac 6DFE933F 		.word	1066663533
 2247 09b0 D731943F 		.word	1066676695
 2248 09b4 5A65943F 		.word	1066689882
 2249 09b8 E598943F 		.word	1066703077
 2250 09bc 8ACC943F 		.word	1066716298
 2251 09c0 3F00953F 		.word	1066729535
 2252 09c4 0534953F 		.word	1066742789
 2253 09c8 E467953F 		.word	1066756068
 2254 09cc CC9B953F 		.word	1066769356
 2255 09d0 C4CF953F 		.word	1066782660
 2256 09d4 D503963F 		.word	1066795989
 2257 09d8 F837963F 		.word	1066809336
 2258 09dc 2B6C963F 		.word	1066822699
 2259 09e0 6FA0963F 		.word	1066836079
 2260 09e4 C3D4963F 		.word	1066849475
 2261 09e8 3109973F 		.word	1066862897
 2262 09ec B03D973F 		.word	1066876336
 2263 09f0 3672973F 		.word	1066889782
 2264 09f4 D7A6973F 		.word	1066903255
 2265 09f8 90DB973F 		.word	1066916752
 2266 09fc 5210983F 		.word	1066930258
 2267 0a00 2445983F 		.word	1066943780
 2268 0a04 107A983F 		.word	1066957328
 2269 0a08 0CAF983F 		.word	1066970892
 2270 0a0c 19E4983F 		.word	1066984473
 2271 0a10 3F19993F 		.word	1066998079
 2272 0a14 6E4E993F 		.word	1067011694
 2273 0a18 B683993F 		.word	1067025334
 2274 0a1c 0FB9993F 		.word	1067038991
 2275 0a20 78EE993F 		.word	1067052664
 2276 0a24 F2239A3F 		.word	1067066354
ARM GAS  /var/folders/0z/tsy30v1j4xl4_7kw94k978ww0000gn/T//cc3r10W3.s 			page 50


 2277 0a28 86599A3F 		.word	1067080070
 2278 0a2c 2A8F9A3F 		.word	1067093802
 2279 0a30 DFC49A3F 		.word	1067107551
 2280 0a34 A4FA9A3F 		.word	1067121316
 2281 0a38 7B309B3F 		.word	1067135099
 2282 0a3c 6B669B3F 		.word	1067148907
 2283 0a40 6B9C9B3F 		.word	1067162731
 2284 0a44 7CD29B3F 		.word	1067176572
 2285 0a48 A7089C3F 		.word	1067190439
 2286 0a4c D93E9C3F 		.word	1067204313
 2287 0a50 25759C3F 		.word	1067218213
 2288 0a54 82AB9C3F 		.word	1067232130
 2289 0a58 F8E19C3F 		.word	1067246072
 2290 0a5c 76189D3F 		.word	1067260022
 2291 0a60 0E4F9D3F 		.word	1067273998
 2292 0a64 BE859D3F 		.word	1067287998
 2293 0a68 77BC9D3F 		.word	1067302007
 2294 0a6c 49F39D3F 		.word	1067316041
 2295 0a70 2C2A9E3F 		.word	1067330092
 2296 0a74 20619E3F 		.word	1067344160
 2297 0a78 24989E3F 		.word	1067358244
 2298 0a7c 42CF9E3F 		.word	1067372354
 2299 0a80 70069F3F 		.word	1067386480
 2300 0a84 B83D9F3F 		.word	1067400632
 2301 0a88 08759F3F 		.word	1067414792
 2302 0a8c 71AC9F3F 		.word	1067428977
 2303 0a90 F3E39F3F 		.word	1067443187
 2304 0a94 7E1BA03F 		.word	1067457406
 2305 0a98 2253A03F 		.word	1067471650
 2306 0a9c D78AA03F 		.word	1067485911
 2307 0aa0 A4C2A03F 		.word	1067500196
 2308 0aa4 7BFAA03F 		.word	1067514491
 2309 0aa8 7232A13F 		.word	1067528818
 2310 0aac 726AA13F 		.word	1067543154
 2311 0ab0 8CA2A13F 		.word	1067557516
 2312 0ab4 B6DAA13F 		.word	1067571894
 2313 0ab8 F112A23F 		.word	1067586289
 2314 0abc 454BA23F 		.word	1067600709
 2315 0ac0 A983A23F 		.word	1067615145
 2316 0ac4 1FBCA23F 		.word	1067629599
 2317 0ac8 AEF4A23F 		.word	1067644078
 2318 0acc 4D2DA33F 		.word	1067658573
 2319 0ad0 FE65A33F 		.word	1067673086
 2320 0ad4 C79EA33F 		.word	1067687623
 2321 0ad8 A1D7A33F 		.word	1067702177
 2322 0adc 9510A43F 		.word	1067716757
 2323 0ae0 9949A43F 		.word	1067731353
 2324 0ae4 AE82A43F 		.word	1067745966
 2325 0ae8 D4BBA43F 		.word	1067760596
 2326 0aec 12F5A43F 		.word	1067775250
 2327 0af0 622EA53F 		.word	1067789922
 2328 0af4 CB67A53F 		.word	1067804619
 2329 0af8 45A1A53F 		.word	1067819333
 2330 0afc D7DAA53F 		.word	1067834071
 2331 0b00 7214A63F 		.word	1067848818
 2332 0b04 2F4EA63F 		.word	1067863599
 2333 0b08 F487A63F 		.word	1067878388
ARM GAS  /var/folders/0z/tsy30v1j4xl4_7kw94k978ww0000gn/T//cc3r10W3.s 			page 51


 2334 0b0c D3C1A63F 		.word	1067893203
 2335 0b10 CAFBA63F 		.word	1067908042
 2336 0b14 CA35A73F 		.word	1067922890
 2337 0b18 E36FA73F 		.word	1067937763
 2338 0b1c 15AAA73F 		.word	1067952661
 2339 0b20 58E4A73F 		.word	1067967576
 2340 0b24 AC1EA83F 		.word	1067982508
 2341 0b28 1959A83F 		.word	1067997465
 2342 0b2c 9693A83F 		.word	1068012438
 2343 0b30 2DCEA83F 		.word	1068027437
 2344 0b34 D508A93F 		.word	1068042453
 2345 0b38 9643A93F 		.word	1068057494
 2346 0b3c 677EA93F 		.word	1068072551
 2347 0b40 49B9A93F 		.word	1068087625
 2348 0b44 45F4A93F 		.word	1068102725
 2349 0b48 512FAA3F 		.word	1068117841
 2350 0b4c 776AAA3F 		.word	1068132983
 2351 0b50 ADA5AA3F 		.word	1068148141
 2352 0b54 FCE0AA3F 		.word	1068163324
 2353 0b58 5C1CAB3F 		.word	1068178524
 2354 0b5c CD57AB3F 		.word	1068193741
 2355 0b60 5793AB3F 		.word	1068208983
 2356 0b64 FBCEAB3F 		.word	1068224251
 2357 0b68 AF0AAC3F 		.word	1068239535
 2358 0b6c 7446AC3F 		.word	1068254836
 2359 0b70 5182AC3F 		.word	1068270161
 2360 0b74 40BEAC3F 		.word	1068285504
 2361 0b78 48FAAC3F 		.word	1068300872
 2362 0b7c 6936AD3F 		.word	1068316265
 2363 0b80 9372AD3F 		.word	1068331667
 2364 0b84 DEAEAD3F 		.word	1068347102
 2365 0b88 3AEBAD3F 		.word	1068362554
 2366 0b8c A627AE3F 		.word	1068378022
 2367 0b90 2C64AE3F 		.word	1068393516
 2368 0b94 C3A0AE3F 		.word	1068409027
 2369 0b98 72DDAE3F 		.word	1068424562
 2370 0b9c 331AAF3F 		.word	1068440115
 2371 0ba0 0C57AF3F 		.word	1068455692
 2372 0ba4 FF93AF3F 		.word	1068471295
 2373 0ba8 FAD0AF3F 		.word	1068486906
 2374 0bac 170EB03F 		.word	1068502551
 2375 0bb0 454BB03F 		.word	1068518213
 2376 0bb4 8388B03F 		.word	1068533891
 2377 0bb8 DAC5B03F 		.word	1068549594
 2378 0bbc 4B03B13F 		.word	1068565323
 2379 0bc0 CC40B13F 		.word	1068581068
 2380 0bc4 677EB13F 		.word	1068596839
 2381 0bc8 12BCB13F 		.word	1068612626
 2382 0bcc D7F9B13F 		.word	1068628439
 2383 0bd0 AC37B23F 		.word	1068644268
 2384 0bd4 9B75B23F 		.word	1068660123
 2385 0bd8 A2B3B23F 		.word	1068676002
 2386 0bdc BBF1B23F 		.word	1068691899
 2387 0be0 E42FB33F 		.word	1068707812
 2388 0be4 266EB33F 		.word	1068723750
 2389 0be8 82ACB33F 		.word	1068739714
 2390 0bec EEEAB33F 		.word	1068755694
ARM GAS  /var/folders/0z/tsy30v1j4xl4_7kw94k978ww0000gn/T//cc3r10W3.s 			page 52


 2391 0bf0 7429B43F 		.word	1068771700
 2392 0bf4 1268B43F 		.word	1068787730
 2393 0bf8 C2A6B43F 		.word	1068803778
 2394 0bfc 8AE5B43F 		.word	1068819850
 2395 0c00 6424B53F 		.word	1068835940
 2396 0c04 5663B53F 		.word	1068852054
 2397 0c08 59A2B53F 		.word	1068868185
 2398 0c0c 7EE1B53F 		.word	1068884350
 2399 0c10 AB20B63F 		.word	1068900523
 2400 0c14 FA5FB63F 		.word	1068916730
 2401 0c18 5A9FB63F 		.word	1068932954
 2402 0c1c CADEB63F 		.word	1068949194
 2403 0c20 5C1EB73F 		.word	1068965468
 2404 0c24 F65DB73F 		.word	1068981750
 2405 0c28 B29DB73F 		.word	1068998066
 2406 0c2c 7FDDB73F 		.word	1069014399
 2407 0c30 651DB83F 		.word	1069030757
 2408 0c34 5B5DB83F 		.word	1069047131
 2409 0c38 6B9DB83F 		.word	1069063531
 2410 0c3c 94DDB83F 		.word	1069079956
 2411 0c40 D61DB93F 		.word	1069096406
 2412 0c44 295EB93F 		.word	1069112873
 2413 0c48 8C9EB93F 		.word	1069129356
 2414 0c4c 11DFB93F 		.word	1069145873
 2415 0c50 A71FBA3F 		.word	1069162407
 2416 0c54 5760BA3F 		.word	1069178967
 2417 0c58 16A1BA3F 		.word	1069195542
 2418 0c5c EFE1BA3F 		.word	1069212143
 2419 0c60 E222BB3F 		.word	1069228770
 2420 0c64 E563BB3F 		.word	1069245413
 2421 0c68 09A5BB3F 		.word	1069262089
 2422 0c6c 36E6BB3F 		.word	1069278774
 2423 0c70 8527BC3F 		.word	1069295493
 2424 0c74 E468BC3F 		.word	1069312228
 2425 0c78 5CAABC3F 		.word	1069328988
 2426 0c7c EEEBBC3F 		.word	1069345774
 2427 0c80 902DBD3F 		.word	1069362576
 2428 0c84 546FBD3F 		.word	1069379412
 2429 0c88 21B1BD3F 		.word	1069396257
 2430 0c8c 0EF3BD3F 		.word	1069413134
 2431 0c90 0D35BE3F 		.word	1069430029
 2432 0c94 2577BE3F 		.word	1069446949
 2433 0c98 56B9BE3F 		.word	1069463894
 2434 0c9c A0FBBE3F 		.word	1069480864
 2435 0ca0 FB3DBF3F 		.word	1069497851
 2436 0ca4 6F80BF3F 		.word	1069514863
 2437 0ca8 FCC2BF3F 		.word	1069531900
 2438 0cac 9A05C03F 		.word	1069548954
 2439 0cb0 5A48C03F 		.word	1069566042
 2440 0cb4 2A8BC03F 		.word	1069583146
 2441 0cb8 0CCEC03F 		.word	1069600268
 2442 0cbc 0E11C13F 		.word	1069617422
 2443 0cc0 2254C13F 		.word	1069634594
 2444 0cc4 5797C13F 		.word	1069651799
 2445 0cc8 94DAC13F 		.word	1069669012
 2446 0ccc F31DC23F 		.word	1069686259
 2447 0cd0 6B61C23F 		.word	1069703531
ARM GAS  /var/folders/0z/tsy30v1j4xl4_7kw94k978ww0000gn/T//cc3r10W3.s 			page 53


 2448 0cd4 F4A4C23F 		.word	1069720820
 2449 0cd8 96E8C23F 		.word	1069738134
 2450 0cdc 522CC33F 		.word	1069755474
 2451 0ce0 2670C33F 		.word	1069772838
 2452 0ce4 0BB4C33F 		.word	1069790219
 2453 0ce8 12F8C33F 		.word	1069807634
 2454 0cec 293CC43F 		.word	1069825065
 2455 0cf0 5A80C43F 		.word	1069842522
 2456 0cf4 9CC4C43F 		.word	1069859996
 2457 0cf8 FF08C53F 		.word	1069877503
 2458 0cfc 7B4DC53F 		.word	1069895035
 2459 0d00 0892C53F 		.word	1069912584
 2460 0d04 AED6C53F 		.word	1069930158
 2461 0d08 6D1BC63F 		.word	1069947757
 2462 0d0c 4660C63F 		.word	1069965382
 2463 0d10 2FA5C63F 		.word	1069983023
 2464 0d14 3AEAC63F 		.word	1070000698
 2465 0d18 552FC73F 		.word	1070018389
 2466 0d1c 9274C73F 		.word	1070036114
 2467 0d20 E0B9C73F 		.word	1070053856
 2468 0d24 47FFC73F 		.word	1070071623
 2469 0d28 C844C83F 		.word	1070089416
 2470 0d2c 598AC83F 		.word	1070107225
 2471 0d30 0BD0C83F 		.word	1070125067
 2472 0d34 CF15C93F 		.word	1070142927
 2473 0d38 B45BC93F 		.word	1070160820
 2474 0d3c A9A1C93F 		.word	1070178729
 2475 0d40 B8E7C93F 		.word	1070196664
 2476 0d44 E02DCA3F 		.word	1070214624
 2477 0d48 2174CA3F 		.word	1070232609
 2478 0d4c 7CBACA3F 		.word	1070250620
 2479 0d50 EF00CB3F 		.word	1070268655
 2480 0d54 7C47CB3F 		.word	1070286716
 2481 0d58 228ECB3F 		.word	1070304802
 2482 0d5c D8D4CB3F 		.word	1070322904
 2483 0d60 B01BCC3F 		.word	1070341040
 2484 0d64 9962CC3F 		.word	1070359193
 2485 0d68 A4A9CC3F 		.word	1070377380
 2486 0d6c BFF0CC3F 		.word	1070395583
 2487 0d70 F437CD3F 		.word	1070413812
 2488 0d74 417FCD3F 		.word	1070432065
 2489 0d78 B0C6CD3F 		.word	1070450352
 2490 0d7c 300ECE3F 		.word	1070468656
 2491 0d80 C955CE3F 		.word	1070486985
 2492 0d84 7C9DCE3F 		.word	1070505340
 2493 0d88 47E5CE3F 		.word	1070523719
 2494 0d8c 2C2DCF3F 		.word	1070542124
 2495 0d90 2975CF3F 		.word	1070560553
 2496 0d94 40BDCF3F 		.word	1070579008
 2497 0d98 7105D03F 		.word	1070597489
 2498 0d9c BA4DD03F 		.word	1070615994
 2499 0da0 1C96D03F 		.word	1070634524
 2500 0da4 98DED03F 		.word	1070653080
 2501 0da8 2D27D13F 		.word	1070671661
 2502 0dac DB6FD13F 		.word	1070690267
 2503 0db0 A2B8D13F 		.word	1070708898
 2504 0db4 8201D23F 		.word	1070727554
ARM GAS  /var/folders/0z/tsy30v1j4xl4_7kw94k978ww0000gn/T//cc3r10W3.s 			page 54


 2505 0db8 7B4AD23F 		.word	1070746235
 2506 0dbc 8E93D23F 		.word	1070764942
 2507 0dc0 BADCD23F 		.word	1070783674
 2508 0dc4 FF25D33F 		.word	1070802431
 2509 0dc8 5D6FD33F 		.word	1070821213
 2510 0dcc D4B8D33F 		.word	1070840020
 2511 0dd0 6402D43F 		.word	1070858852
 2512 0dd4 164CD43F 		.word	1070877718
 2513 0dd8 D995D43F 		.word	1070896601
 2514 0ddc B5DFD43F 		.word	1070915509
 2515 0de0 B329D53F 		.word	1070934451
 2516 0de4 C173D53F 		.word	1070953409
 2517 0de8 F1BDD53F 		.word	1070972401
 2518 0dec 3108D63F 		.word	1070991409
 2519 0df0 9352D63F 		.word	1071010451
 2520 0df4 0F9DD63F 		.word	1071029519
 2521 0df8 A3E7D63F 		.word	1071048611
 2522 0dfc 5132D73F 		.word	1071067729
 2523 0e00 187DD73F 		.word	1071086872
 2524 0e04 F7C7D73F 		.word	1071106039
 2525 0e08 F112D83F 		.word	1071125233
 2526 0e0c 035ED83F 		.word	1071144451
 2527 0e10 37A9D83F 		.word	1071163703
 2528 0e14 7BF4D83F 		.word	1071182971
 2529 0e18 E23FD93F 		.word	1071202274
 2530 0e1c 618BD93F 		.word	1071221601
 2531 0e20 F9D6D93F 		.word	1071240953
 2532 0e24 AB22DA3F 		.word	1071260331
 2533 0e28 766EDA3F 		.word	1071279734
 2534 0e2c 62BADA3F 		.word	1071299170
 2535 0e30 6006DB3F 		.word	1071318624
 2536 0e34 7E52DB3F 		.word	1071338110
 2537 0e38 AE9EDB3F 		.word	1071357614
 2538 0e3c FFEADB3F 		.word	1071377151
 2539 0e40 7237DC3F 		.word	1071396722
 2540 0e44 F583DC3F 		.word	1071416309
 2541 0e48 91D0DC3F 		.word	1071435921
 2542 0e4c 501DDD3F 		.word	1071455568
 2543 0e50 276ADD3F 		.word	1071475239
 2544 0e54 17B7DD3F 		.word	1071494935
 2545 0e58 2104DE3F 		.word	1071514657
 2546 0e5c 4451DE3F 		.word	1071534404
 2547 0e60 889EDE3F 		.word	1071554184
 2548 0e64 E6EBDE3F 		.word	1071573990
 2549 0e68 5439DF3F 		.word	1071593812
 2550 0e6c EC86DF3F 		.word	1071613676
 2551 0e70 95D4DF3F 		.word	1071633557
 2552 0e74 6022E03F 		.word	1071653472
 2553 0e78 3B70E03F 		.word	1071673403
 2554 0e7c 40BEE03F 		.word	1071693376
 2555 0e80 560CE13F 		.word	1071713366
 2556 0e84 865AE13F 		.word	1071733382
 2557 0e88 D6A8E13F 		.word	1071753430
 2558 0e8c 40F7E13F 		.word	1071773504
 2559 0e90 C345E23F 		.word	1071793603
 2560 0e94 6894E23F 		.word	1071813736
 2561 0e98 26E3E23F 		.word	1071833894
ARM GAS  /var/folders/0z/tsy30v1j4xl4_7kw94k978ww0000gn/T//cc3r10W3.s 			page 55


 2562 0e9c FD31E33F 		.word	1071854077
 2563 0ea0 ED80E33F 		.word	1071874285
 2564 0ea4 F6CFE33F 		.word	1071894518
 2565 0ea8 211FE43F 		.word	1071914785
 2566 0eac 656EE43F 		.word	1071935077
 2567 0eb0 CBBDE43F 		.word	1071955403
 2568 0eb4 410DE53F 		.word	1071975745
 2569 0eb8 D95CE53F 		.word	1071996121
 2570 0ebc 93ACE53F 		.word	1072016531
 2571 0ec0 5DFCE53F 		.word	1072036957
 2572 0ec4 494CE63F 		.word	1072057417
 2573 0ec8 4E9CE63F 		.word	1072077902
 2574 0ecc 74ECE63F 		.word	1072098420
 2575 0ed0 B43CE73F 		.word	1072118964
 2576 0ed4 0D8DE73F 		.word	1072139533
 2577 0ed8 7FDDE73F 		.word	1072160127
 2578 0edc 122EE83F 		.word	1072180754
 2579 0ee0 BF7EE83F 		.word	1072201407
 2580 0ee4 8DCFE83F 		.word	1072222093
 2581 0ee8 7520E93F 		.word	1072242805
 2582 0eec 7671E93F 		.word	1072263542
 2583 0ef0 8FC2E93F 		.word	1072284303
 2584 0ef4 CB13EA3F 		.word	1072305099
 2585 0ef8 2865EA3F 		.word	1072325928
 2586 0efc 95B6EA3F 		.word	1072346773
 2587 0f00 2508EB3F 		.word	1072367653
 2588 0f04 D559EB3F 		.word	1072388565
 2589 0f08 97ABEB3F 		.word	1072409495
 2590 0f0c 7AFDEB3F 		.word	1072430458
 2591 0f10 7F4FEC3F 		.word	1072451455
 2592 0f14 9DA1EC3F 		.word	1072472477
 2593 0f18 D4F3EC3F 		.word	1072493524
 2594 0f1c 2C46ED3F 		.word	1072514604
 2595 0f20 9E98ED3F 		.word	1072535710
 2596 0f24 31EBED3F 		.word	1072556849
 2597 0f28 DE3DEE3F 		.word	1072578014
 2598 0f2c A390EE3F 		.word	1072599203
 2599 0f30 8AE3EE3F 		.word	1072620426
 2600 0f34 8B36EF3F 		.word	1072641675
 2601 0f38 AD89EF3F 		.word	1072662957
 2602 0f3c E8DCEF3F 		.word	1072684264
 2603 0f40 4430F03F 		.word	1072705604
 2604 0f44 BA83F03F 		.word	1072726970
 2605 0f48 52D7F03F 		.word	1072748370
 2606 0f4c 022BF13F 		.word	1072769794
 2607 0f50 CC7EF13F 		.word	1072791244
 2608 0f54 B7D2F13F 		.word	1072812727
 2609 0f58 BB26F23F 		.word	1072834235
 2610 0f5c E17AF23F 		.word	1072855777
 2611 0f60 29CFF23F 		.word	1072877353
 2612 0f64 8123F33F 		.word	1072898945
 2613 0f68 0378F33F 		.word	1072920579
 2614 0f6c 9FCCF33F 		.word	1072942239
 2615 0f70 5321F43F 		.word	1072963923
 2616 0f74 2976F43F 		.word	1072985641
 2617 0f78 19CBF43F 		.word	1073007385
 2618 0f7c 2920F53F 		.word	1073029161
ARM GAS  /var/folders/0z/tsy30v1j4xl4_7kw94k978ww0000gn/T//cc3r10W3.s 			page 56


 2619 0f80 5C75F53F 		.word	1073050972
 2620 0f84 A7CAF53F 		.word	1073072807
 2621 0f88 0C20F63F 		.word	1073094668
 2622 0f8c 9275F63F 		.word	1073116562
 2623 0f90 3ACBF63F 		.word	1073138490
 2624 0f94 FB20F73F 		.word	1073160443
 2625 0f98 D576F73F 		.word	1073182421
 2626 0f9c D9CCF73F 		.word	1073204441
 2627 0fa0 EE22F83F 		.word	1073226478
 2628 0fa4 2D79F83F 		.word	1073248557
 2629 0fa8 85CFF83F 		.word	1073270661
 2630 0fac F625F93F 		.word	1073292790
 2631 0fb0 897CF93F 		.word	1073314953
 2632 0fb4 3DD3F93F 		.word	1073337149
 2633 0fb8 0B2AFA3F 		.word	1073359371
 2634 0fbc FA80FA3F 		.word	1073381626
 2635 0fc0 0AD8FA3F 		.word	1073403914
 2636 0fc4 342FFB3F 		.word	1073426228
 2637 0fc8 7786FB3F 		.word	1073448567
 2638 0fcc E3DDFB3F 		.word	1073470947
 2639 0fd0 6935FC3F 		.word	1073493353
 2640 0fd4 098DFC3F 		.word	1073515785
 2641 0fd8 C9E4FC3F 		.word	1073538249
 2642 0fdc AC3CFD3F 		.word	1073560748
 2643 0fe0 AF94FD3F 		.word	1073583279
 2644 0fe4 CCECFD3F 		.word	1073605836
 2645 0fe8 0245FE3F 		.word	1073628418
 2646 0fec 629DFE3F 		.word	1073651042
 2647 0ff0 DCF5FE3F 		.word	1073673692
 2648 0ff4 774EFF3F 		.word	1073696375
 2649 0ff8 2AA7FF3F 		.word	1073719082
 2650 0ffc 00000040 		.word	1073741824
 2651              		.text
 2652              	.Letext0:
 2653              		.file 3 "/Users/johannes/Library/Application Support/Code/User/globalStorage/bmd.stm32-for-vscode/
 2654              		.file 4 "/Users/johannes/Library/Application Support/Code/User/globalStorage/bmd.stm32-for-vscode/
 2655              		.file 5 "Drivers/CMSIS/Device/ST/STM32F4xx/Include/stm32f407xx.h"
 2656              		.file 6 "Drivers/STM32F4xx_HAL_Driver/Inc/stm32f4xx_hal_def.h"
 2657              		.file 7 "Drivers/STM32F4xx_HAL_Driver/Inc/stm32f4xx_hal_dma.h"
 2658              		.file 8 "Drivers/STM32F4xx_HAL_Driver/Inc/stm32f4xx_hal_i2s.h"
 2659              		.file 9 "Core/Inc/audio.h"
 2660              		.file 10 "Core/Inc/oscillators.h"
 2661              		.file 11 "Core/Inc/ADSR_envelope.h"
 2662              		.file 12 "Core/Inc/ladder_filter.h"
 2663              		.file 13 "Core/Inc/MIDI_lut.h"
 2664              		.file 14 "Core/Inc/stereo_delay.h"
 2665              		.file 15 "Core/Inc/../../Drivers/BSP/STM32F4-Discovery/stm32f4_discovery_audio.h"
ARM GAS  /var/folders/0z/tsy30v1j4xl4_7kw94k978ww0000gn/T//cc3r10W3.s 			page 57


DEFINED SYMBOLS
                            *ABS*:0000000000000000 audio.c
/var/folders/0z/tsy30v1j4xl4_7kw94k978ww0000gn/T//cc3r10W3.s:24     .text.audioBlock.constprop.0:0000000000000000 $t
/var/folders/0z/tsy30v1j4xl4_7kw94k978ww0000gn/T//cc3r10W3.s:30     .text.audioBlock.constprop.0:0000000000000000 audioBlock.constprop.0
/var/folders/0z/tsy30v1j4xl4_7kw94k978ww0000gn/T//cc3r10W3.s:552    .text.audioBlock.constprop.0:0000000000000228 $d
/var/folders/0z/tsy30v1j4xl4_7kw94k978ww0000gn/T//cc3r10W3.s:583    .text.AUDIO_Init:0000000000000000 $t
/var/folders/0z/tsy30v1j4xl4_7kw94k978ww0000gn/T//cc3r10W3.s:590    .text.AUDIO_Init:0000000000000000 AUDIO_Init
/var/folders/0z/tsy30v1j4xl4_7kw94k978ww0000gn/T//cc3r10W3.s:707    .text.AUDIO_Init:00000000000000d0 $d
/var/folders/0z/tsy30v1j4xl4_7kw94k978ww0000gn/T//cc3r10W3.s:724    .text.OpSetFreq:0000000000000000 $t
/var/folders/0z/tsy30v1j4xl4_7kw94k978ww0000gn/T//cc3r10W3.s:731    .text.OpSetFreq:0000000000000000 OpSetFreq
/var/folders/0z/tsy30v1j4xl4_7kw94k978ww0000gn/T//cc3r10W3.s:751    .text.OpSetFreq:0000000000000010 $d
/var/folders/0z/tsy30v1j4xl4_7kw94k978ww0000gn/T//cc3r10W3.s:756    .text.audioBlock:0000000000000000 $t
/var/folders/0z/tsy30v1j4xl4_7kw94k978ww0000gn/T//cc3r10W3.s:763    .text.audioBlock:0000000000000000 audioBlock
/var/folders/0z/tsy30v1j4xl4_7kw94k978ww0000gn/T//cc3r10W3.s:1297   .text.audioBlock:0000000000000230 $d
/var/folders/0z/tsy30v1j4xl4_7kw94k978ww0000gn/T//cc3r10W3.s:1326   .text.BSP_AUDIO_OUT_HalfTransfer_CallBack:0000000000000000 $t
/var/folders/0z/tsy30v1j4xl4_7kw94k978ww0000gn/T//cc3r10W3.s:1333   .text.BSP_AUDIO_OUT_HalfTransfer_CallBack:0000000000000000 BSP_AUDIO_OUT_HalfTransfer_CallBack
/var/folders/0z/tsy30v1j4xl4_7kw94k978ww0000gn/T//cc3r10W3.s:1347   .text.BSP_AUDIO_OUT_HalfTransfer_CallBack:0000000000000008 $d
/var/folders/0z/tsy30v1j4xl4_7kw94k978ww0000gn/T//cc3r10W3.s:1352   .text.BSP_AUDIO_OUT_TransferComplete_CallBack:0000000000000000 $t
/var/folders/0z/tsy30v1j4xl4_7kw94k978ww0000gn/T//cc3r10W3.s:1359   .text.BSP_AUDIO_OUT_TransferComplete_CallBack:0000000000000000 BSP_AUDIO_OUT_TransferComplete_CallBack
/var/folders/0z/tsy30v1j4xl4_7kw94k978ww0000gn/T//cc3r10W3.s:1373   .text.BSP_AUDIO_OUT_TransferComplete_CallBack:0000000000000008 $d
/var/folders/0z/tsy30v1j4xl4_7kw94k978ww0000gn/T//cc3r10W3.s:1378   .text.BSP_AUDIO_OUT_Error_CallBack:0000000000000000 $t
/var/folders/0z/tsy30v1j4xl4_7kw94k978ww0000gn/T//cc3r10W3.s:1385   .text.BSP_AUDIO_OUT_Error_CallBack:0000000000000000 BSP_AUDIO_OUT_Error_CallBack
/var/folders/0z/tsy30v1j4xl4_7kw94k978ww0000gn/T//cc3r10W3.s:1402   .text.DMA1_Stream7_IRQHandler:0000000000000000 $t
/var/folders/0z/tsy30v1j4xl4_7kw94k978ww0000gn/T//cc3r10W3.s:1409   .text.DMA1_Stream7_IRQHandler:0000000000000000 DMA1_Stream7_IRQHandler
/var/folders/0z/tsy30v1j4xl4_7kw94k978ww0000gn/T//cc3r10W3.s:1424   .text.DMA1_Stream7_IRQHandler:0000000000000008 $d
/var/folders/0z/tsy30v1j4xl4_7kw94k978ww0000gn/T//cc3r10W3.s:1429   .text.DMA1_Stream3_IRQHandler:0000000000000000 $t
/var/folders/0z/tsy30v1j4xl4_7kw94k978ww0000gn/T//cc3r10W3.s:1436   .text.DMA1_Stream3_IRQHandler:0000000000000000 DMA1_Stream3_IRQHandler
/var/folders/0z/tsy30v1j4xl4_7kw94k978ww0000gn/T//cc3r10W3.s:1451   .text.DMA1_Stream3_IRQHandler:0000000000000008 $d
/var/folders/0z/tsy30v1j4xl4_7kw94k978ww0000gn/T//cc3r10W3.s:1479   .bss.delayROut:0000000000000000 delayROut
/var/folders/0z/tsy30v1j4xl4_7kw94k978ww0000gn/T//cc3r10W3.s:1472   .bss.delayLOut:0000000000000000 delayLOut
/var/folders/0z/tsy30v1j4xl4_7kw94k978ww0000gn/T//cc3r10W3.s:1465   .bss.audioBuffer:0000000000000000 audioBuffer
/var/folders/0z/tsy30v1j4xl4_7kw94k978ww0000gn/T//cc3r10W3.s:1626   .rodata.pbend:0000000000000000 pbend
/var/folders/0z/tsy30v1j4xl4_7kw94k978ww0000gn/T//cc3r10W3.s:1493   .rodata.mtof:0000000000000000 mtof
/var/folders/0z/tsy30v1j4xl4_7kw94k978ww0000gn/T//cc3r10W3.s:1461   .bss.audioBuffer:0000000000000000 $d
/var/folders/0z/tsy30v1j4xl4_7kw94k978ww0000gn/T//cc3r10W3.s:1468   .bss.delayLOut:0000000000000000 $d
/var/folders/0z/tsy30v1j4xl4_7kw94k978ww0000gn/T//cc3r10W3.s:1475   .bss.delayROut:0000000000000000 $d
/var/folders/0z/tsy30v1j4xl4_7kw94k978ww0000gn/T//cc3r10W3.s:1482   .bss.f0:0000000000000000 $d
/var/folders/0z/tsy30v1j4xl4_7kw94k978ww0000gn/T//cc3r10W3.s:1486   .bss.f0:0000000000000000 f0
/var/folders/0z/tsy30v1j4xl4_7kw94k978ww0000gn/T//cc3r10W3.s:1489   .rodata.mtof:0000000000000000 $d
/var/folders/0z/tsy30v1j4xl4_7kw94k978ww0000gn/T//cc3r10W3.s:1623   .rodata.pbend:0000000000000000 $d

UNDEFINED SYMBOLS
__aeabi_f2d
__aeabi_dsub
__aeabi_d2f
__aeabi_dmul
ADSR_compute
osc_FM2OP
MoogLP_compute
pingpongDelay_compute
osc1
currentPitch
osc2
osc3
adsr_index
osc4
sub_osc
ARM GAS  /var/folders/0z/tsy30v1j4xl4_7kw94k978ww0000gn/T//cc3r10W3.s 			page 58


noteOn_velocity
adsr_filt
Moog_filter
adsr_amp
BSP_AUDIO_OUT_Init
BSP_AUDIO_OUT_Play
osc_init
ADSR_init
MoogLP_init
Delay_init
HAL_DMA_IRQHandler
hAudioOutI2s
hAudioInI2s
