ARM GAS  /var/folders/0z/tsy30v1j4xl4_7kw94k978ww0000gn/T//ccE8zZrE.s 			page 1


   1              		.cpu cortex-m4
   2              		.arch armv7e-m
   3              		.fpu fpv4-sp-d16
   4              		.eabi_attribute 27, 1
   5              		.eabi_attribute 28, 1
   6              		.eabi_attribute 20, 1
   7              		.eabi_attribute 21, 1
   8              		.eabi_attribute 23, 3
   9              		.eabi_attribute 24, 1
  10              		.eabi_attribute 25, 1
  11              		.eabi_attribute 26, 1
  12              		.eabi_attribute 30, 2
  13              		.eabi_attribute 34, 1
  14              		.eabi_attribute 18, 4
  15              		.file	"audio.c"
  16              		.text
  17              	.Ltext0:
  18              		.cfi_sections	.debug_frame
  19              		.section	.text.audioBlock.constprop.0,"ax",%progbits
  20              		.align	1
  21              		.p2align 2,,3
  22              		.syntax unified
  23              		.thumb
  24              		.thumb_func
  26              	audioBlock.constprop.0:
  27              	.LVL0:
  28              	.LFB143:
  29              		.file 1 "Core/Src/audio.c"
   1:Core/Src/audio.c **** /**
   2:Core/Src/audio.c ****  * @file audio.c
   3:Core/Src/audio.c ****  * @author johannes regnier
   4:Core/Src/audio.c ****  * @brief Functions to make sound and main audio block function 
   5:Core/Src/audio.c ****  * @note  Essential initialization functions from Tom Erbe:	
   6:Core/Src/audio.c ****  * @note  http://synthnotes.ucsd.edu/wp4/index.php/2019/09/24/setting-up-the-stmf4-to-connect-to-th
   7:Core/Src/audio.c ****  * @version 0.1
   8:Core/Src/audio.c ****  * @date 2023-12-12
   9:Core/Src/audio.c ****  * 
  10:Core/Src/audio.c ****  * @copyright Copyright (c) 2023
  11:Core/Src/audio.c ****  * 
  12:Core/Src/audio.c ****  */
  13:Core/Src/audio.c **** 
  14:Core/Src/audio.c **** 
  15:Core/Src/audio.c **** #include <stdint.h>
  16:Core/Src/audio.c **** #include "audio.h"
  17:Core/Src/audio.c **** #include "oscillators.h"
  18:Core/Src/audio.c **** #include "ADSR_envelope.h"
  19:Core/Src/audio.c **** #include "ladder_filter.h"
  20:Core/Src/audio.c **** #include "bitcrusher.h"
  21:Core/Src/audio.c **** #include "stereo_delay.h"
  22:Core/Src/audio.c **** #include "MIDI_lut.h"
  23:Core/Src/audio.c **** #include <stdint.h>
  24:Core/Src/audio.c **** #include "helper_functions.h"
  25:Core/Src/audio.c **** #include "stdlib.h"
  26:Core/Src/audio.c **** 
  27:Core/Src/audio.c **** 
  28:Core/Src/audio.c **** 
  29:Core/Src/audio.c **** 
ARM GAS  /var/folders/0z/tsy30v1j4xl4_7kw94k978ww0000gn/T//ccE8zZrE.s 			page 2


  30:Core/Src/audio.c **** 
  31:Core/Src/audio.c **** /**
  32:Core/Src/audio.c ****  * @brief Audio Buffer - x samples X 2 channels = 2 * x samples
  33:Core/Src/audio.c ****  * @note Channels are interleaved - LRLRLRLRLRLRLRLRLRLRLR - audioBuffer[frame << 1] audioBuffer[(f
  34:Core/Src/audio.c ****  */
  35:Core/Src/audio.c **** int16_t audioBuffer[BUFFER_SIZE]; 
  36:Core/Src/audio.c **** 
  37:Core/Src/audio.c **** 
  38:Core/Src/audio.c **** extern uint8_t currentPitch;
  39:Core/Src/audio.c **** extern uint8_t velocity;
  40:Core/Src/audio.c **** extern ADSR_t adsr_amp, adsr_filt;
  41:Core/Src/audio.c **** extern ZDFLadder_t Moog_filter;
  42:Core/Src/audio.c **** extern oscillator_t osc1, osc2, sub_osc;
  43:Core/Src/audio.c **** 
  44:Core/Src/audio.c **** 
  45:Core/Src/audio.c **** static float f0 ;			// frequency of oscillators 1 & 2
  46:Core/Src/audio.c **** static float f_sub ;		// frequency of sub oscillator
  47:Core/Src/audio.c **** static float amp_env ;		// amplitude envelope
  48:Core/Src/audio.c **** static float filt_env ;	// filter envelope
  49:Core/Src/audio.c **** 
  50:Core/Src/audio.c **** 
  51:Core/Src/audio.c **** float delayLOut = 0 ;	// left output of ping pong delay
  52:Core/Src/audio.c **** float delayROut = 0;	// right output of ping pong delay
  53:Core/Src/audio.c **** 
  54:Core/Src/audio.c **** 
  55:Core/Src/audio.c **** 
  56:Core/Src/audio.c **** 
  57:Core/Src/audio.c **** /**
  58:Core/Src/audio.c ****  * @brief Initialize audio
  59:Core/Src/audio.c ****  * 
  60:Core/Src/audio.c ****  */
  61:Core/Src/audio.c **** void AUDIO_Init()
  62:Core/Src/audio.c **** {
  63:Core/Src/audio.c ****     BSP_AUDIO_OUT_Init(OUTPUT_DEVICE_HEADPHONE, INITIAL_VOLUME, FS);
  64:Core/Src/audio.c **** 
  65:Core/Src/audio.c **** 	/**
  66:Core/Src/audio.c **** 	 * @brief Ping pong buffer
  67:Core/Src/audio.c **** 	 * @note While one audiobuffer is transmitted via DMA, another one is computed
  68:Core/Src/audio.c **** 	 * @note Hence size = 2 * (audiobuffer size)
  69:Core/Src/audio.c **** 	 */
  70:Core/Src/audio.c **** 	BSP_AUDIO_OUT_Play((uint16_t *)&audioBuffer[0], 2*BUFFER_SIZE); 
  71:Core/Src/audio.c **** 
  72:Core/Src/audio.c **** 	
  73:Core/Src/audio.c **** 	
  74:Core/Src/audio.c **** 	osc_init(&osc1, 0.5, 1000, 0, 0, 0.5);
  75:Core/Src/audio.c **** 	osc_init(&osc2, 0.5, 440, 0, 0, 0.5);
  76:Core/Src/audio.c **** 	osc_init(&sub_osc, 0.5, 440, 0, 0, 0.5);
  77:Core/Src/audio.c **** 
  78:Core/Src/audio.c **** 
  79:Core/Src/audio.c **** 	ADSR_init(&adsr_amp);
  80:Core/Src/audio.c **** 	ADSR_init(&adsr_filt);
  81:Core/Src/audio.c **** 	MoogLP_init(&Moog_filter);
  82:Core/Src/audio.c **** 	Delay_init();
  83:Core/Src/audio.c **** 	
  84:Core/Src/audio.c **** }
  85:Core/Src/audio.c **** 
  86:Core/Src/audio.c **** void OpSetFreq(oscillator_t * op, float f)
ARM GAS  /var/folders/0z/tsy30v1j4xl4_7kw94k978ww0000gn/T//ccE8zZrE.s 			page 3


  87:Core/Src/audio.c **** {
  88:Core/Src/audio.c **** 	op->freq = A0 * f;
  89:Core/Src/audio.c **** }
  90:Core/Src/audio.c **** 
  91:Core/Src/audio.c **** 
  92:Core/Src/audio.c **** 
  93:Core/Src/audio.c **** /**
  94:Core/Src/audio.c ****  * @brief Main audio function. This is where the audio samples are computed, then the audio buffer 
  95:Core/Src/audio.c ****  * 
  96:Core/Src/audio.c ****  * @param buffer 
  97:Core/Src/audio.c ****  * @param samples 
  98:Core/Src/audio.c ****  */
  99:Core/Src/audio.c **** void audioBlock(int16_t *buffer, uint16_t samples)
  30              		.loc 1 99 6 view -0
  31              		.cfi_startproc
  32              		@ args = 0, pretend = 0, frame = 0
  33              		@ frame_needed = 0, uses_anonymous_args = 0
 100:Core/Src/audio.c **** {
 101:Core/Src/audio.c **** 	int i;
 102:Core/Src/audio.c **** 	int16_t *output;
 103:Core/Src/audio.c **** 	output = buffer;
 104:Core/Src/audio.c **** 	float sample, sampleL, sampleR;
 105:Core/Src/audio.c **** 	uint16_t valueL, valueR;
 106:Core/Src/audio.c **** 	
 107:Core/Src/audio.c **** 	for (i = 0; i < samples; i++)
  34              		.loc 1 107 16 view .LVU1
  99:Core/Src/audio.c **** {
  35              		.loc 1 99 6 is_stmt 0 view .LVU2
  36 0000 2DE9F84F 		push	{r3, r4, r5, r6, r7, r8, r9, r10, fp, lr}
  37              		.cfi_def_cfa_offset 40
  38              		.cfi_offset 3, -40
  39              		.cfi_offset 4, -36
  40              		.cfi_offset 5, -32
  41              		.cfi_offset 6, -28
  42              		.cfi_offset 7, -24
  43              		.cfi_offset 8, -20
  44              		.cfi_offset 9, -16
  45              		.cfi_offset 10, -12
  46              		.cfi_offset 11, -8
  47              		.cfi_offset 14, -4
  48 0004 DFF8E0B1 		ldr	fp, .L17+56
  49 0008 694D     		ldr	r5, .L17
  50 000a 6A4F     		ldr	r7, .L17+4
  51 000c 6A4C     		ldr	r4, .L17+8
  52 000e DFF8BCA1 		ldr	r10, .L17+28
  53 0012 2DED068B 		vpush.64	{d8, d9, d10}
  54              		.cfi_def_cfa_offset 64
  55              		.cfi_offset 80, -64
  56              		.cfi_offset 81, -60
  57              		.cfi_offset 82, -56
  58              		.cfi_offset 83, -52
  59              		.cfi_offset 84, -48
  60              		.cfi_offset 85, -44
  99:Core/Src/audio.c **** {
  61              		.loc 1 99 6 view .LVU3
  62 0016 0646     		mov	r6, r0
  63              	.LBB36:
ARM GAS  /var/folders/0z/tsy30v1j4xl4_7kw94k978ww0000gn/T//ccE8zZrE.s 			page 4


  64              	.LBB37:
  88:Core/Src/audio.c **** }
  65              		.loc 1 88 16 view .LVU4
  66 0018 DFED68AA 		vldr.32	s21, .L17+12
  67              	.LBE37:
  68              	.LBE36:
  69 001c DFED689A 		vldr.32	s19, .L17+16
 108:Core/Src/audio.c **** 	{
 109:Core/Src/audio.c **** 
 110:Core/Src/audio.c **** 		f0 = mtof[currentPitch];
 111:Core/Src/audio.c **** 		
 112:Core/Src/audio.c **** 		/* test with 3 oscillators*/
 113:Core/Src/audio.c **** 		OpSetFreq(&osc1, f0);
 114:Core/Src/audio.c **** 		OpSetFreq(&osc2, f0 + 5);
 115:Core/Src/audio.c **** 		
 116:Core/Src/audio.c **** 		f_sub = mtof[max(currentPitch - 12, 0)];
 117:Core/Src/audio.c **** 		OpSetFreq(&sub_osc, f_sub);
 118:Core/Src/audio.c **** 		sample = 0.5*(osc_polyblepSaw(&osc1) + osc_polyblepSaw(&osc2) + osc_polyblepRect(&sub_osc));
 119:Core/Src/audio.c **** 	
 120:Core/Src/audio.c **** 		/****************** Apply filter ***********************/
 121:Core/Src/audio.c **** 		filt_env = ADSR_compute(&adsr_filt);
 122:Core/Src/audio.c **** 		Moog_filter.cutoff = 2000 * filt_env;
  70              		.loc 1 122 29 view .LVU5
  71 0020 DFED688A 		vldr.32	s17, .L17+20
 123:Core/Src/audio.c **** 		sample = MoogLP_compute(&Moog_filter, sample);
 124:Core/Src/audio.c **** 	
 125:Core/Src/audio.c **** 
 126:Core/Src/audio.c **** 		/************** Apply amplitude envelope ****************/
 127:Core/Src/audio.c **** 		amp_env = ADSR_compute(&adsr_amp);
 128:Core/Src/audio.c **** 		sample *= amp_env;
 129:Core/Src/audio.c **** 
 130:Core/Src/audio.c **** 		
 131:Core/Src/audio.c **** 		/************** Apply bitcrushing effect ***************/
 132:Core/Src/audio.c **** 		// sample = decimator(sample, 0.2, 16);
 133:Core/Src/audio.c **** 
 134:Core/Src/audio.c **** 		/************** Apply delay effect ****************/
 135:Core/Src/audio.c **** 		pingpongDelay_compute(sample, &delayLOut, &delayROut);
 136:Core/Src/audio.c **** 		sampleL = delayLOut;
 137:Core/Src/audio.c **** 		sampleR = delayROut;
 138:Core/Src/audio.c **** 		
 139:Core/Src/audio.c **** 
 140:Core/Src/audio.c **** 		/****************** softclip outputs ********************/
 141:Core/Src/audio.c **** 		sampleL = SoftClip(sampleL);
 142:Core/Src/audio.c **** 		sampleR = SoftClip(sampleR);
 143:Core/Src/audio.c **** 
 144:Core/Src/audio.c **** 		/*************** Convert to 16 bits int *****************/
 145:Core/Src/audio.c **** 		valueL = ((int16_t) ((32767.0f) * sampleL)); 
  72              		.loc 1 145 35 view .LVU6
  73 0024 9FED689A 		vldr.32	s18, .L17+24
 107:Core/Src/audio.c **** 	{
  74              		.loc 1 107 9 view .LVU7
  75 0028 4FF00009 		mov	r9, #0
  76 002c 00F10208 		add	r8, r0, #2
  77 0030 52E0     		b	.L5
  78              	.LVL1:
  79              	.L15:
  80              	.LBB41:
ARM GAS  /var/folders/0z/tsy30v1j4xl4_7kw94k978ww0000gn/T//ccE8zZrE.s 			page 5


  81              	.LBB42:
  82              		.file 2 "Core/Inc/helper_functions.h"
   1:Core/Inc/helper_functions.h **** /**
   2:Core/Inc/helper_functions.h ****  * @file helper_functions.h
   3:Core/Inc/helper_functions.h ****  * @author johannes regnier
   4:Core/Inc/helper_functions.h ****  * @brief Various math tools 
   5:Core/Inc/helper_functions.h ****  * @version 0.1
   6:Core/Inc/helper_functions.h ****  * @date 2023-12-30
   7:Core/Inc/helper_functions.h ****  * 
   8:Core/Inc/helper_functions.h ****  * @copyright Copyright (c) 2023
   9:Core/Inc/helper_functions.h ****  * 
  10:Core/Inc/helper_functions.h ****  */
  11:Core/Inc/helper_functions.h **** 
  12:Core/Inc/helper_functions.h **** #ifndef _HELPER_FUNCTIONS_H
  13:Core/Inc/helper_functions.h **** #define _HELPER_FUNCTIONS_H
  14:Core/Inc/helper_functions.h **** 
  15:Core/Inc/helper_functions.h **** 
  16:Core/Inc/helper_functions.h **** #include <math.h>
  17:Core/Inc/helper_functions.h **** #include <stdint.h>
  18:Core/Inc/helper_functions.h **** 
  19:Core/Inc/helper_functions.h **** #ifndef NOMINMAX
  20:Core/Inc/helper_functions.h **** 
  21:Core/Inc/helper_functions.h **** #ifndef max
  22:Core/Inc/helper_functions.h **** #define max(a,b)            (((a) > (b)) ? (a) : (b))
  23:Core/Inc/helper_functions.h **** #endif
  24:Core/Inc/helper_functions.h **** 
  25:Core/Inc/helper_functions.h **** #ifndef min
  26:Core/Inc/helper_functions.h **** #define min(a,b)            (((a) < (b)) ? (a) : (b))
  27:Core/Inc/helper_functions.h **** #endif
  28:Core/Inc/helper_functions.h **** 
  29:Core/Inc/helper_functions.h **** #endif  /* NOMINMAX */
  30:Core/Inc/helper_functions.h **** 
  31:Core/Inc/helper_functions.h **** /**
  32:Core/Inc/helper_functions.h ****  * @brief Keep value between 0 and max
  33:Core/Inc/helper_functions.h ****  * 
  34:Core/Inc/helper_functions.h ****  * @param value 
  35:Core/Inc/helper_functions.h ****  * @param max 
  36:Core/Inc/helper_functions.h ****  * @return float 
  37:Core/Inc/helper_functions.h ****  */
  38:Core/Inc/helper_functions.h **** inline float wrap(float value, float max)   
  39:Core/Inc/helper_functions.h **** {
  40:Core/Inc/helper_functions.h ****     if (value < 0.f)
  41:Core/Inc/helper_functions.h ****         value += max;
  42:Core/Inc/helper_functions.h ****     if (value >= max)
  43:Core/Inc/helper_functions.h ****         value -= max;
  44:Core/Inc/helper_functions.h **** 
  45:Core/Inc/helper_functions.h ****     return value;
  46:Core/Inc/helper_functions.h **** }
  47:Core/Inc/helper_functions.h **** 
  48:Core/Inc/helper_functions.h **** inline float Crossfade(float a, float b, float fade)
  49:Core/Inc/helper_functions.h **** {
  50:Core/Inc/helper_functions.h ****     return a + (b - a) * fade;
  51:Core/Inc/helper_functions.h **** }
  52:Core/Inc/helper_functions.h **** 
  53:Core/Inc/helper_functions.h **** 
  54:Core/Inc/helper_functions.h **** /**
  55:Core/Inc/helper_functions.h ****  * @brief Pade-approximation of tanh for soft clipping
ARM GAS  /var/folders/0z/tsy30v1j4xl4_7kw94k978ww0000gn/T//ccE8zZrE.s 			page 6


  56:Core/Inc/helper_functions.h ****  * @ from https://www.musicdsp.org/en/latest/Other/238-rational-tanh-approximation.html 
  57:Core/Inc/helper_functions.h ****  * @param x 
  58:Core/Inc/helper_functions.h ****  * @return float 
  59:Core/Inc/helper_functions.h ****  */
  60:Core/Inc/helper_functions.h **** inline float SoftClip(float x)
  61:Core/Inc/helper_functions.h **** {
  62:Core/Inc/helper_functions.h ****     if (x < -3.0f)
  63:Core/Inc/helper_functions.h ****     {
  64:Core/Inc/helper_functions.h ****         return -1.0f;
  65:Core/Inc/helper_functions.h ****     }
  66:Core/Inc/helper_functions.h ****     else if (x > 3.0f)
  83              		.loc 2 66 10 is_stmt 1 view .LVU8
  84              		.loc 2 66 13 is_stmt 0 view .LVU9
  85 0032 F0EE086A 		vmov.f32	s13, #3.0e+0
  86 0036 B4EEE67A 		vcmpe.f32	s14, s13
  87 003a F1EE10FA 		vmrs	APSR_nzcv, FPSCR
  88 003e 00F3AD80 		bgt	.L8
  89              	.LVL2:
  90              	.LBB43:
  91              	.LBI43:
  60:Core/Inc/helper_functions.h **** {
  92              		.loc 2 60 14 is_stmt 1 view .LVU10
  93              	.LBB44:
  67:Core/Inc/helper_functions.h ****     {
  68:Core/Inc/helper_functions.h ****         return 1.0f;
  69:Core/Inc/helper_functions.h ****     }
  70:Core/Inc/helper_functions.h ****     else
  71:Core/Inc/helper_functions.h ****     {
  72:Core/Inc/helper_functions.h ****         return x * (27.0f + x * x) / (27.0f + 9.0f * x * x);
  94              		.loc 2 72 9 view .LVU11
  95              		.loc 2 72 27 is_stmt 0 view .LVU12
  96 0042 F3EE0B6A 		vmov.f32	s13, #2.7e+1
  97              		.loc 2 72 52 view .LVU13
  98 0046 F2EE025A 		vmov.f32	s11, #9.0e+0
  99 004a 67EE255A 		vmul.f32	s11, s14, s11
 100              		.loc 2 72 27 view .LVU14
 101 004e B0EE665A 		vmov.f32	s10, s13
 102 0052 A7EE075A 		vfma.f32	s10, s14, s14
 103              		.loc 2 72 45 view .LVU15
 104 0056 E7EE256A 		vfma.f32	s13, s14, s11
 105              		.loc 2 72 18 view .LVU16
 106 005a 27EE057A 		vmul.f32	s14, s14, s10
 107              	.LVL3:
 108              		.loc 2 72 45 view .LVU17
 109 005e B0EE666A 		vmov.f32	s12, s13
 110              	.LVL4:
 111              		.loc 2 72 36 view .LVU18
 112 0062 C7EE066A 		vdiv.f32	s13, s14, s12
 113              	.LBE44:
 114              	.LBE43:
 115              	.LBE42:
 116              	.LBE41:
 117              		.loc 1 145 35 view .LVU19
 118 0066 26EE897A 		vmul.f32	s14, s13, s18
 119              		.loc 1 145 13 view .LVU20
 120 006a BDEEC77A 		vcvt.s32.f32	s14, s14
 121 006e 17EE103A 		vmov	r3, s14	@ int
ARM GAS  /var/folders/0z/tsy30v1j4xl4_7kw94k978ww0000gn/T//ccE8zZrE.s 			page 7


 122 0072 1AB2     		sxth	r2, r3
 123              	.L3:
 124              	.LVL5:
 142:Core/Src/audio.c **** 
 125              		.loc 1 142 3 is_stmt 1 view .LVU21
 126              	.LBB49:
 127              	.LBI49:
  60:Core/Inc/helper_functions.h **** {
 128              		.loc 2 60 14 view .LVU22
 129              	.LBB50:
  62:Core/Inc/helper_functions.h ****     {
 130              		.loc 2 62 5 view .LVU23
  62:Core/Inc/helper_functions.h ****     {
 131              		.loc 2 62 8 is_stmt 0 view .LVU24
 132 0074 B8EE087A 		vmov.f32	s14, #-3.0e+0
 133 0078 F4EEC77A 		vcmpe.f32	s15, s14
 134 007c F1EE10FA 		vmrs	APSR_nzcv, FPSCR
 135 0080 00F18A80 		bmi	.L9
 136              	.L16:
  66:Core/Inc/helper_functions.h ****     {
 137              		.loc 2 66 10 is_stmt 1 view .LVU25
  66:Core/Inc/helper_functions.h ****     {
 138              		.loc 2 66 13 is_stmt 0 view .LVU26
 139 0084 B0EE087A 		vmov.f32	s14, #3.0e+0
 140 0088 F4EEC77A 		vcmpe.f32	s15, s14
 141 008c F1EE10FA 		vmrs	APSR_nzcv, FPSCR
 142 0090 00F38780 		bgt	.L10
 143              	.LVL6:
 144              	.LBB51:
 145              	.LBI51:
  60:Core/Inc/helper_functions.h **** {
 146              		.loc 2 60 14 is_stmt 1 view .LVU27
 147              	.LBB52:
 148              		.loc 2 72 9 view .LVU28
 149              		.loc 2 72 27 is_stmt 0 view .LVU29
 150 0094 B3EE0B7A 		vmov.f32	s14, #2.7e+1
 151              		.loc 2 72 52 view .LVU30
 152 0098 B2EE026A 		vmov.f32	s12, #9.0e+0
 153 009c 27EE866A 		vmul.f32	s12, s15, s12
 154              		.loc 2 72 27 view .LVU31
 155 00a0 F0EE475A 		vmov.f32	s11, s14
 156 00a4 E7EEA75A 		vfma.f32	s11, s15, s15
 157              		.loc 2 72 45 view .LVU32
 158 00a8 A7EE867A 		vfma.f32	s14, s15, s12
 159              		.loc 2 72 18 view .LVU33
 160 00ac 67EEA57A 		vmul.f32	s15, s15, s11
 161              	.LVL7:
 162              		.loc 2 72 45 view .LVU34
 163 00b0 F0EE476A 		vmov.f32	s13, s14
 164              	.LVL8:
 165              		.loc 2 72 36 view .LVU35
 166 00b4 87EEA67A 		vdiv.f32	s14, s15, s13
 167              	.LBE52:
 168              	.LBE51:
 169              	.LBE50:
 170              	.LBE49:
 146:Core/Src/audio.c **** 		valueR = ((int16_t) ((32767.0f) * sampleR));
ARM GAS  /var/folders/0z/tsy30v1j4xl4_7kw94k978ww0000gn/T//ccE8zZrE.s 			page 8


 171              		.loc 1 146 35 view .LVU36
 172 00b8 67EE097A 		vmul.f32	s15, s14, s18
 173              		.loc 1 146 13 view .LVU37
 174 00bc FDEEE77A 		vcvt.s32.f32	s15, s15
 175 00c0 17EE903A 		vmov	r3, s15	@ int
 176 00c4 1BB2     		sxth	r3, r3
 177              	.L4:
 178              	.LVL9:
 145:Core/Src/audio.c **** 		valueR = ((int16_t) ((32767.0f) * sampleR));
 179              		.loc 1 145 3 is_stmt 1 view .LVU38
 180              		.loc 1 146 3 view .LVU39
 147:Core/Src/audio.c **** 
 148:Core/Src/audio.c **** 		/*************** Output to audio buffer *****************/
 149:Core/Src/audio.c **** 		output[i<<1] = valueL ;			// LEFT channel
 181              		.loc 1 149 3 view .LVU40
 182              		.loc 1 149 16 is_stmt 0 view .LVU41
 183 00c6 26F82920 		strh	r2, [r6, r9, lsl #2]	@ movhi
 150:Core/Src/audio.c **** 	    output[(i<<1) + 1] = valueR;	// RIGHT channel
 184              		.loc 1 150 6 is_stmt 1 view .LVU42
 185              		.loc 1 150 25 is_stmt 0 view .LVU43
 186 00ca 28F82930 		strh	r3, [r8, r9, lsl #2]	@ movhi
 107:Core/Src/audio.c **** 	{
 187              		.loc 1 107 28 is_stmt 1 view .LVU44
 188 00ce 09F10109 		add	r9, r9, #1
 189              	.LVL10:
 107:Core/Src/audio.c **** 	{
 190              		.loc 1 107 16 view .LVU45
 191 00d2 B9F1400F 		cmp	r9, #64
 192 00d6 67D0     		beq	.L14
 193              	.LVL11:
 194              	.L5:
 110:Core/Src/audio.c **** 		
 195              		.loc 1 110 3 view .LVU46
 110:Core/Src/audio.c **** 		
 196              		.loc 1 110 12 is_stmt 0 view .LVU47
 197 00d8 9BF80030 		ldrb	r3, [fp]	@ zero_extendqisi2
 198 00dc 05EB8302 		add	r2, r5, r3, lsl #2
 199 00e0 92ED007A 		vldr.32	s14, [r2]
 113:Core/Src/audio.c **** 		OpSetFreq(&osc2, f0 + 5);
 200              		.loc 1 113 3 is_stmt 1 view .LVU48
 201              	.LVL12:
 202              	.LBB56:
 203              	.LBI36:
  86:Core/Src/audio.c **** {
 204              		.loc 1 86 6 view .LVU49
 205              	.LBB38:
  88:Core/Src/audio.c **** }
 206              		.loc 1 88 2 view .LVU50
 207              	.LBE38:
 208              	.LBE56:
 114:Core/Src/audio.c **** 		
 209              		.loc 1 114 3 is_stmt 0 view .LVU51
 210 00e4 F1EE047A 		vmov.f32	s15, #5.0e+0
 211 00e8 77EE277A 		vadd.f32	s15, s14, s15
 116:Core/Src/audio.c **** 		OpSetFreq(&sub_osc, f_sub);
 212              		.loc 1 116 16 view .LVU52
 213 00ec 0C2B     		cmp	r3, #12
ARM GAS  /var/folders/0z/tsy30v1j4xl4_7kw94k978ww0000gn/T//ccE8zZrE.s 			page 9


 214              	.LBB57:
 215              	.LBB58:
  88:Core/Src/audio.c **** }
 216              		.loc 1 88 16 view .LVU53
 217 00ee 67EEAA7A 		vmul.f32	s15, s15, s21
 218              	.LBE58:
 219              	.LBE57:
 116:Core/Src/audio.c **** 		OpSetFreq(&sub_osc, f_sub);
 220              		.loc 1 116 15 view .LVU54
 221 00f2 88BF     		it	hi
 222 00f4 1346     		movhi	r3, r2
 223              	.LBB61:
 224              	.LBB59:
  88:Core/Src/audio.c **** }
 225              		.loc 1 88 11 view .LVU55
 226 00f6 C4ED017A 		vstr.32	s15, [r4, #4]
 227              	.LBE59:
 228              	.LBE61:
 229              	.LBB62:
 230              	.LBB63:
  88:Core/Src/audio.c **** }
 231              		.loc 1 88 16 view .LVU56
 232 00fa 88BF     		it	hi
 233 00fc 53ED0C7A 		vldrhi.32	s15, [r3, #-48]
 234              	.LBE63:
 235              	.LBE62:
 236              	.LBB66:
 237              	.LBB39:
 238 0100 27EE2A7A 		vmul.f32	s14, s14, s21
 239              	.LVL13:
  88:Core/Src/audio.c **** }
 240              		.loc 1 88 16 view .LVU57
 241              	.LBE39:
 242              	.LBE66:
 243              	.LBB67:
 244              	.LBB64:
 245 0104 8CBF     		ite	hi
 246 0106 67EEAA7A 		vmulhi.f32	s15, s15, s21
 247              	.LBE64:
 248              	.LBE67:
 249 010a F0EE697A 		vmovls.f32	s15, s19
 118:Core/Src/audio.c **** 	
 250              		.loc 1 118 17 view .LVU58
 251 010e 3846     		mov	r0, r7
 252              	.LBB68:
 253              	.LBB40:
  88:Core/Src/audio.c **** }
 254              		.loc 1 88 11 view .LVU59
 255 0110 87ED017A 		vstr.32	s14, [r7, #4]
 256              	.LVL14:
  88:Core/Src/audio.c **** }
 257              		.loc 1 88 11 view .LVU60
 258              	.LBE40:
 259              	.LBE68:
 114:Core/Src/audio.c **** 		
 260              		.loc 1 114 3 is_stmt 1 view .LVU61
 261              	.LBB69:
ARM GAS  /var/folders/0z/tsy30v1j4xl4_7kw94k978ww0000gn/T//ccE8zZrE.s 			page 10


 262              	.LBI57:
  86:Core/Src/audio.c **** {
 263              		.loc 1 86 6 view .LVU62
 264              	.LBB60:
  88:Core/Src/audio.c **** }
 265              		.loc 1 88 2 view .LVU63
  88:Core/Src/audio.c **** }
 266              		.loc 1 88 2 is_stmt 0 view .LVU64
 267              	.LBE60:
 268              	.LBE69:
 116:Core/Src/audio.c **** 		OpSetFreq(&sub_osc, f_sub);
 269              		.loc 1 116 3 is_stmt 1 view .LVU65
 117:Core/Src/audio.c **** 		sample = 0.5*(osc_polyblepSaw(&osc1) + osc_polyblepSaw(&osc2) + osc_polyblepRect(&sub_osc));
 270              		.loc 1 117 3 view .LVU66
 271              	.LBB70:
 272              	.LBI62:
  86:Core/Src/audio.c **** {
 273              		.loc 1 86 6 view .LVU67
 274              	.LBB65:
  88:Core/Src/audio.c **** }
 275              		.loc 1 88 2 view .LVU68
  88:Core/Src/audio.c **** }
 276              		.loc 1 88 11 is_stmt 0 view .LVU69
 277 0114 CAED017A 		vstr.32	s15, [r10, #4]
 278              	.LVL15:
  88:Core/Src/audio.c **** }
 279              		.loc 1 88 11 view .LVU70
 280              	.LBE65:
 281              	.LBE70:
 118:Core/Src/audio.c **** 	
 282              		.loc 1 118 3 is_stmt 1 view .LVU71
 118:Core/Src/audio.c **** 	
 283              		.loc 1 118 17 is_stmt 0 view .LVU72
 284 0118 FFF7FEFF 		bl	osc_polyblepSaw
 285              	.LVL16:
 118:Core/Src/audio.c **** 	
 286              		.loc 1 118 42 view .LVU73
 287 011c 2046     		mov	r0, r4
 118:Core/Src/audio.c **** 	
 288              		.loc 1 118 17 view .LVU74
 289 011e B0EE408A 		vmov.f32	s16, s0
 118:Core/Src/audio.c **** 	
 290              		.loc 1 118 42 view .LVU75
 291 0122 FFF7FEFF 		bl	osc_polyblepSaw
 292              	.LVL17:
 118:Core/Src/audio.c **** 	
 293              		.loc 1 118 67 view .LVU76
 294 0126 2948     		ldr	r0, .L17+28
 118:Core/Src/audio.c **** 	
 295              		.loc 1 118 40 view .LVU77
 296 0128 38EE008A 		vadd.f32	s16, s16, s0
 118:Core/Src/audio.c **** 	
 297              		.loc 1 118 67 view .LVU78
 298 012c FFF7FEFF 		bl	osc_polyblepRect
 299              	.LVL18:
 121:Core/Src/audio.c **** 		Moog_filter.cutoff = 2000 * filt_env;
 300              		.loc 1 121 14 view .LVU79
ARM GAS  /var/folders/0z/tsy30v1j4xl4_7kw94k978ww0000gn/T//ccE8zZrE.s 			page 11


 301 0130 2748     		ldr	r0, .L17+32
 118:Core/Src/audio.c **** 	
 302              		.loc 1 118 67 view .LVU80
 303 0132 B0EE40AA 		vmov.f32	s20, s0
 304              	.LVL19:
 121:Core/Src/audio.c **** 		Moog_filter.cutoff = 2000 * filt_env;
 305              		.loc 1 121 3 is_stmt 1 view .LVU81
 121:Core/Src/audio.c **** 		Moog_filter.cutoff = 2000 * filt_env;
 306              		.loc 1 121 14 is_stmt 0 view .LVU82
 307 0136 FFF7FEFF 		bl	ADSR_compute
 308              	.LVL20:
 122:Core/Src/audio.c **** 		sample = MoogLP_compute(&Moog_filter, sample);
 309              		.loc 1 122 3 is_stmt 1 view .LVU83
 118:Core/Src/audio.c **** 	
 310              		.loc 1 118 65 is_stmt 0 view .LVU84
 311 013a 38EE0A8A 		vadd.f32	s16, s16, s20
 312              	.LVL21:
 122:Core/Src/audio.c **** 		sample = MoogLP_compute(&Moog_filter, sample);
 313              		.loc 1 122 29 view .LVU85
 314 013e 60EE287A 		vmul.f32	s15, s0, s17
 123:Core/Src/audio.c **** 	
 315              		.loc 1 123 12 view .LVU86
 316 0142 2448     		ldr	r0, .L17+36
 317 0144 B6EE000A 		vmov.f32	s0, #5.0e-1
 318 0148 28EE000A 		vmul.f32	s0, s16, s0
 319              	.LVL22:
 122:Core/Src/audio.c **** 		sample = MoogLP_compute(&Moog_filter, sample);
 320              		.loc 1 122 22 view .LVU87
 321 014c C0ED007A 		vstr.32	s15, [r0]
 123:Core/Src/audio.c **** 	
 322              		.loc 1 123 3 is_stmt 1 view .LVU88
 123:Core/Src/audio.c **** 	
 323              		.loc 1 123 12 is_stmt 0 view .LVU89
 324 0150 FFF7FEFF 		bl	MoogLP_compute
 325              	.LVL23:
 127:Core/Src/audio.c **** 		sample *= amp_env;
 326              		.loc 1 127 13 view .LVU90
 327 0154 2048     		ldr	r0, .L17+40
 123:Core/Src/audio.c **** 	
 328              		.loc 1 123 12 view .LVU91
 329 0156 B0EE408A 		vmov.f32	s16, s0
 330              	.LVL24:
 127:Core/Src/audio.c **** 		sample *= amp_env;
 331              		.loc 1 127 3 is_stmt 1 view .LVU92
 127:Core/Src/audio.c **** 		sample *= amp_env;
 332              		.loc 1 127 13 is_stmt 0 view .LVU93
 333 015a FFF7FEFF 		bl	ADSR_compute
 334              	.LVL25:
 128:Core/Src/audio.c **** 
 335              		.loc 1 128 3 is_stmt 1 view .LVU94
 135:Core/Src/audio.c **** 		sampleL = delayLOut;
 336              		.loc 1 135 3 view .LVU95
 337 015e 1F49     		ldr	r1, .L17+44
 338 0160 1F48     		ldr	r0, .L17+48
 339 0162 28EE000A 		vmul.f32	s0, s16, s0
 340              	.LVL26:
 135:Core/Src/audio.c **** 		sampleL = delayLOut;
ARM GAS  /var/folders/0z/tsy30v1j4xl4_7kw94k978ww0000gn/T//ccE8zZrE.s 			page 12


 341              		.loc 1 135 3 is_stmt 0 view .LVU96
 342 0166 FFF7FEFF 		bl	pingpongDelay_compute
 343              	.LVL27:
 136:Core/Src/audio.c **** 		sampleR = delayROut;
 344              		.loc 1 136 3 is_stmt 1 view .LVU97
 136:Core/Src/audio.c **** 		sampleR = delayROut;
 345              		.loc 1 136 11 is_stmt 0 view .LVU98
 346 016a 1D4B     		ldr	r3, .L17+48
 347 016c 93ED007A 		vldr.32	s14, [r3]
 348              	.LVL28:
 137:Core/Src/audio.c **** 		
 349              		.loc 1 137 3 is_stmt 1 view .LVU99
 137:Core/Src/audio.c **** 		
 350              		.loc 1 137 11 is_stmt 0 view .LVU100
 351 0170 1A4B     		ldr	r3, .L17+44
 352              	.LBB71:
 353              	.LBB45:
  62:Core/Inc/helper_functions.h ****     {
 354              		.loc 2 62 8 view .LVU101
 355 0172 F8EE086A 		vmov.f32	s13, #-3.0e+0
 356 0176 B4EEE67A 		vcmpe.f32	s14, s13
 357 017a F1EE10FA 		vmrs	APSR_nzcv, FPSCR
 358              	.LBE45:
 359              	.LBE71:
 137:Core/Src/audio.c **** 		
 360              		.loc 1 137 11 view .LVU102
 361 017e D3ED007A 		vldr.32	s15, [r3]
 362              	.LVL29:
 141:Core/Src/audio.c **** 		sampleR = SoftClip(sampleR);
 363              		.loc 1 141 3 is_stmt 1 view .LVU103
 364              	.LBB72:
 365              	.LBI41:
  60:Core/Inc/helper_functions.h **** {
 366              		.loc 2 60 14 view .LVU104
 367              	.LBB46:
  62:Core/Inc/helper_functions.h ****     {
 368              		.loc 2 62 5 view .LVU105
  62:Core/Inc/helper_functions.h ****     {
 369              		.loc 2 62 8 is_stmt 0 view .LVU106
 370 0182 7FF556AF 		bpl	.L15
 371              	.LBE46:
 372              	.LBE72:
 373              	.LBB73:
 374              	.LBB53:
 375 0186 B8EE087A 		vmov.f32	s14, #-3.0e+0
 376              	.LVL30:
  62:Core/Inc/helper_functions.h ****     {
 377              		.loc 2 62 8 view .LVU107
 378 018a F4EEC77A 		vcmpe.f32	s15, s14
 379 018e F1EE10FA 		vmrs	APSR_nzcv, FPSCR
 380              	.LBE53:
 381              	.LBE73:
 382              	.LBB74:
 383              	.LBB47:
 384 0192 144A     		ldr	r2, .L17+52
 385              	.LVL31:
  62:Core/Inc/helper_functions.h ****     {
ARM GAS  /var/folders/0z/tsy30v1j4xl4_7kw94k978ww0000gn/T//ccE8zZrE.s 			page 13


 386              		.loc 2 62 8 view .LVU108
 387              	.LBE47:
 388              	.LBE74:
 142:Core/Src/audio.c **** 
 389              		.loc 1 142 3 is_stmt 1 view .LVU109
 390              	.LBB75:
  60:Core/Inc/helper_functions.h **** {
 391              		.loc 2 60 14 view .LVU110
 392              	.LBB54:
  62:Core/Inc/helper_functions.h ****     {
 393              		.loc 2 62 5 view .LVU111
  62:Core/Inc/helper_functions.h ****     {
 394              		.loc 2 62 8 is_stmt 0 view .LVU112
 395 0194 7FF576AF 		bpl	.L16
 396              	.L9:
 397 0198 124B     		ldr	r3, .L17+52
 398 019a 94E7     		b	.L4
 399              	.LVL32:
 400              	.L8:
  62:Core/Inc/helper_functions.h ****     {
 401              		.loc 2 62 8 view .LVU113
 402              	.LBE54:
 403              	.LBE75:
 404              	.LBB76:
 405              	.LBB48:
 406 019c 47F6FF72 		movw	r2, #32767
 407 01a0 68E7     		b	.L3
 408              	.LVL33:
 409              	.L10:
  62:Core/Inc/helper_functions.h ****     {
 410              		.loc 2 62 8 view .LVU114
 411              	.LBE48:
 412              	.LBE76:
 413              	.LBB77:
 414              	.LBB55:
 415 01a2 47F6FF73 		movw	r3, #32767
 416 01a6 8EE7     		b	.L4
 417              	.LVL34:
 418              	.L14:
  62:Core/Inc/helper_functions.h ****     {
 419              		.loc 2 62 8 view .LVU115
 420              	.LBE55:
 421              	.LBE77:
 151:Core/Src/audio.c **** 	}
 152:Core/Src/audio.c **** }
 422              		.loc 1 152 1 view .LVU116
 423 01a8 BDEC068B 		vldm	sp!, {d8-d10}
 424              		.cfi_restore 84
 425              		.cfi_restore 85
 426              		.cfi_restore 82
 427              		.cfi_restore 83
 428              		.cfi_restore 80
 429              		.cfi_restore 81
 430              		.cfi_def_cfa_offset 40
 431              		.loc 1 152 1 view .LVU117
 432 01ac BDE8F88F 		pop	{r3, r4, r5, r6, r7, r8, r9, r10, fp, pc}
 433              	.LVL35:
ARM GAS  /var/folders/0z/tsy30v1j4xl4_7kw94k978ww0000gn/T//ccE8zZrE.s 			page 14


 434              	.L18:
 435              		.loc 1 152 1 view .LVU118
 436              		.align	2
 437              	.L17:
 438 01b0 00000000 		.word	.LANCHOR0
 439 01b4 00000000 		.word	osc1
 440 01b8 00000000 		.word	osc2
 441 01bc F622803F 		.word	1065362166
 442 01c0 CEF30241 		.word	1090712526
 443 01c4 0000FA44 		.word	1157234688
 444 01c8 00FEFF46 		.word	1191181824
 445 01cc 00000000 		.word	sub_osc
 446 01d0 00000000 		.word	adsr_filt
 447 01d4 00000000 		.word	Moog_filter
 448 01d8 00000000 		.word	adsr_amp
 449 01dc 00000000 		.word	.LANCHOR1
 450 01e0 00000000 		.word	.LANCHOR2
 451 01e4 0180FFFF 		.word	-32767
 452 01e8 00000000 		.word	currentPitch
 453              		.cfi_endproc
 454              	.LFE143:
 456              		.section	.text.AUDIO_Init,"ax",%progbits
 457              		.align	1
 458              		.p2align 2,,3
 459              		.global	AUDIO_Init
 460              		.syntax unified
 461              		.thumb
 462              		.thumb_func
 464              	AUDIO_Init:
 465              	.LFB134:
  62:Core/Src/audio.c ****     BSP_AUDIO_OUT_Init(OUTPUT_DEVICE_HEADPHONE, INITIAL_VOLUME, FS);
 466              		.loc 1 62 1 is_stmt 1 view -0
 467              		.cfi_startproc
 468              		@ args = 0, pretend = 0, frame = 8
 469              		@ frame_needed = 0, uses_anonymous_args = 0
  63:Core/Src/audio.c **** 
 470              		.loc 1 63 5 view .LVU120
  62:Core/Src/audio.c ****     BSP_AUDIO_OUT_Init(OUTPUT_DEVICE_HEADPHONE, INITIAL_VOLUME, FS);
 471              		.loc 1 62 1 is_stmt 0 view .LVU121
 472 0000 00B5     		push	{lr}
 473              		.cfi_def_cfa_offset 4
 474              		.cfi_offset 14, -4
 475 0002 2DED028B 		vpush.64	{d8}
 476              		.cfi_def_cfa_offset 12
 477              		.cfi_offset 80, -12
 478              		.cfi_offset 81, -8
  63:Core/Src/audio.c **** 
 479              		.loc 1 63 5 view .LVU122
 480 0006 4AF64442 		movw	r2, #44100
  62:Core/Src/audio.c ****     BSP_AUDIO_OUT_Init(OUTPUT_DEVICE_HEADPHONE, INITIAL_VOLUME, FS);
 481              		.loc 1 62 1 view .LVU123
 482 000a 83B0     		sub	sp, sp, #12
 483              		.cfi_def_cfa_offset 24
  63:Core/Src/audio.c **** 
 484              		.loc 1 63 5 view .LVU124
 485 000c 5521     		movs	r1, #85
 486 000e 0220     		movs	r0, #2
ARM GAS  /var/folders/0z/tsy30v1j4xl4_7kw94k978ww0000gn/T//ccE8zZrE.s 			page 15


 487 0010 FFF7FEFF 		bl	BSP_AUDIO_OUT_Init
 488              	.LVL36:
  70:Core/Src/audio.c **** 
 489              		.loc 1 70 2 is_stmt 1 view .LVU125
  74:Core/Src/audio.c **** 	osc_init(&osc2, 0.5, 440, 0, 0, 0.5);
 490              		.loc 1 74 2 is_stmt 0 view .LVU126
 491 0014 DFED201A 		vldr.32	s3, .L21
  70:Core/Src/audio.c **** 
 492              		.loc 1 70 2 view .LVU127
 493 0018 2048     		ldr	r0, .L21+4
  74:Core/Src/audio.c **** 	osc_init(&osc2, 0.5, 440, 0, 0, 0.5);
 494              		.loc 1 74 2 view .LVU128
 495 001a CDED011A 		vstr.32	s3, [sp, #4]	@ int
  70:Core/Src/audio.c **** 
 496              		.loc 1 70 2 view .LVU129
 497 001e 4FF40071 		mov	r1, #512
 498 0022 FFF7FEFF 		bl	BSP_AUDIO_OUT_Play
 499              	.LVL37:
  74:Core/Src/audio.c **** 	osc_init(&osc2, 0.5, 440, 0, 0, 0.5);
 500              		.loc 1 74 2 is_stmt 1 view .LVU130
 501 0026 DDED011A 		vldr.32	s3, [sp, #4]	@ int
 502 002a DFED1D0A 		vldr.32	s1, .L21+8
 503 002e 1D48     		ldr	r0, .L21+12
  75:Core/Src/audio.c **** 	osc_init(&sub_osc, 0.5, 440, 0, 0, 0.5);
 504              		.loc 1 75 2 is_stmt 0 view .LVU131
 505 0030 9FED1D8A 		vldr.32	s16, .L21+16
  74:Core/Src/audio.c **** 	osc_init(&osc2, 0.5, 440, 0, 0, 0.5);
 506              		.loc 1 74 2 view .LVU132
 507 0034 B6EE002A 		vmov.f32	s4, #5.0e-1
 508 0038 B0EE611A 		vmov.f32	s2, s3
 509 003c B0EE420A 		vmov.f32	s0, s4
 510 0040 FFF7FEFF 		bl	osc_init
 511              	.LVL38:
  75:Core/Src/audio.c **** 	osc_init(&sub_osc, 0.5, 440, 0, 0, 0.5);
 512              		.loc 1 75 2 is_stmt 1 view .LVU133
 513 0044 DDED011A 		vldr.32	s3, [sp, #4]	@ int
 514 0048 1848     		ldr	r0, .L21+20
 515 004a B6EE002A 		vmov.f32	s4, #5.0e-1
 516 004e B0EE611A 		vmov.f32	s2, s3
 517 0052 F0EE480A 		vmov.f32	s1, s16
 518 0056 B0EE420A 		vmov.f32	s0, s4
 519 005a FFF7FEFF 		bl	osc_init
 520              	.LVL39:
  76:Core/Src/audio.c **** 
 521              		.loc 1 76 2 view .LVU134
 522 005e DDED011A 		vldr.32	s3, [sp, #4]	@ int
 523 0062 1348     		ldr	r0, .L21+24
 524 0064 B6EE002A 		vmov.f32	s4, #5.0e-1
 525 0068 B0EE611A 		vmov.f32	s2, s3
 526 006c F0EE480A 		vmov.f32	s1, s16
 527 0070 B0EE420A 		vmov.f32	s0, s4
 528 0074 FFF7FEFF 		bl	osc_init
 529              	.LVL40:
  79:Core/Src/audio.c **** 	ADSR_init(&adsr_filt);
 530              		.loc 1 79 2 view .LVU135
 531 0078 0E48     		ldr	r0, .L21+28
 532 007a FFF7FEFF 		bl	ADSR_init
ARM GAS  /var/folders/0z/tsy30v1j4xl4_7kw94k978ww0000gn/T//ccE8zZrE.s 			page 16


 533              	.LVL41:
  80:Core/Src/audio.c **** 	MoogLP_init(&Moog_filter);
 534              		.loc 1 80 2 view .LVU136
 535 007e 0E48     		ldr	r0, .L21+32
 536 0080 FFF7FEFF 		bl	ADSR_init
 537              	.LVL42:
  81:Core/Src/audio.c **** 	Delay_init();
 538              		.loc 1 81 2 view .LVU137
 539 0084 0D48     		ldr	r0, .L21+36
 540 0086 FFF7FEFF 		bl	MoogLP_init
 541              	.LVL43:
  82:Core/Src/audio.c **** 	
 542              		.loc 1 82 2 view .LVU138
  84:Core/Src/audio.c **** 
 543              		.loc 1 84 1 is_stmt 0 view .LVU139
 544 008a 03B0     		add	sp, sp, #12
 545              		.cfi_def_cfa_offset 12
 546              		@ sp needed
 547 008c BDEC028B 		vldm	sp!, {d8}
 548              		.cfi_restore 80
 549              		.cfi_restore 81
 550              		.cfi_def_cfa_offset 4
 551 0090 5DF804EB 		ldr	lr, [sp], #4
 552              		.cfi_restore 14
 553              		.cfi_def_cfa_offset 0
  82:Core/Src/audio.c **** 	
 554              		.loc 1 82 2 view .LVU140
 555 0094 FFF7FEBF 		b	Delay_init
 556              	.LVL44:
 557              	.L22:
 558              		.align	2
 559              	.L21:
 560 0098 00000000 		.word	0
 561 009c 00000000 		.word	.LANCHOR3
 562 00a0 00007A44 		.word	1148846080
 563 00a4 00000000 		.word	osc1
 564 00a8 0000DC43 		.word	1138491392
 565 00ac 00000000 		.word	osc2
 566 00b0 00000000 		.word	sub_osc
 567 00b4 00000000 		.word	adsr_amp
 568 00b8 00000000 		.word	adsr_filt
 569 00bc 00000000 		.word	Moog_filter
 570              		.cfi_endproc
 571              	.LFE134:
 573              		.section	.text.OpSetFreq,"ax",%progbits
 574              		.align	1
 575              		.p2align 2,,3
 576              		.global	OpSetFreq
 577              		.syntax unified
 578              		.thumb
 579              		.thumb_func
 581              	OpSetFreq:
 582              	.LVL45:
 583              	.LFB135:
  87:Core/Src/audio.c **** 	op->freq = A0 * f;
 584              		.loc 1 87 1 is_stmt 1 view -0
 585              		.cfi_startproc
ARM GAS  /var/folders/0z/tsy30v1j4xl4_7kw94k978ww0000gn/T//ccE8zZrE.s 			page 17


 586              		@ args = 0, pretend = 0, frame = 0
 587              		@ frame_needed = 0, uses_anonymous_args = 0
 588              		@ link register save eliminated.
  88:Core/Src/audio.c **** }
 589              		.loc 1 88 2 view .LVU142
  88:Core/Src/audio.c **** }
 590              		.loc 1 88 16 is_stmt 0 view .LVU143
 591 0000 DFED037A 		vldr.32	s15, .L24
 592 0004 20EE270A 		vmul.f32	s0, s0, s15
 593              	.LVL46:
  88:Core/Src/audio.c **** }
 594              		.loc 1 88 11 view .LVU144
 595 0008 80ED010A 		vstr.32	s0, [r0, #4]
  89:Core/Src/audio.c **** 
 596              		.loc 1 89 1 view .LVU145
 597 000c 7047     		bx	lr
 598              	.L25:
 599 000e 00BF     		.align	2
 600              	.L24:
 601 0010 F622803F 		.word	1065362166
 602              		.cfi_endproc
 603              	.LFE135:
 605              		.section	.text.audioBlock,"ax",%progbits
 606              		.align	1
 607              		.p2align 2,,3
 608              		.global	audioBlock
 609              		.syntax unified
 610              		.thumb
 611              		.thumb_func
 613              	audioBlock:
 614              	.LVL47:
 615              	.LFB136:
 100:Core/Src/audio.c **** 	int i;
 616              		.loc 1 100 1 is_stmt 1 view -0
 617              		.cfi_startproc
 618              		@ args = 0, pretend = 0, frame = 0
 619              		@ frame_needed = 0, uses_anonymous_args = 0
 101:Core/Src/audio.c **** 	int16_t *output;
 620              		.loc 1 101 2 view .LVU147
 102:Core/Src/audio.c **** 	output = buffer;
 621              		.loc 1 102 2 view .LVU148
 103:Core/Src/audio.c **** 	float sample, sampleL, sampleR;
 622              		.loc 1 103 2 view .LVU149
 104:Core/Src/audio.c **** 	uint16_t valueL, valueR;
 623              		.loc 1 104 2 view .LVU150
 105:Core/Src/audio.c **** 	
 624              		.loc 1 105 2 view .LVU151
 107:Core/Src/audio.c **** 	{
 625              		.loc 1 107 2 view .LVU152
 107:Core/Src/audio.c **** 	{
 626              		.loc 1 107 16 view .LVU153
 627 0000 0029     		cmp	r1, #0
 628 0002 00F0E080 		beq	.L40
 100:Core/Src/audio.c **** 	int i;
 629              		.loc 1 100 1 is_stmt 0 view .LVU154
 630 0006 2DE9F84F 		push	{r3, r4, r5, r6, r7, r8, r9, r10, fp, lr}
 631              		.cfi_def_cfa_offset 40
ARM GAS  /var/folders/0z/tsy30v1j4xl4_7kw94k978ww0000gn/T//ccE8zZrE.s 			page 18


 632              		.cfi_offset 3, -40
 633              		.cfi_offset 4, -36
 634              		.cfi_offset 5, -32
 635              		.cfi_offset 6, -28
 636              		.cfi_offset 7, -24
 637              		.cfi_offset 8, -20
 638              		.cfi_offset 9, -16
 639              		.cfi_offset 10, -12
 640              		.cfi_offset 11, -8
 641              		.cfi_offset 14, -4
 642 000a DFF8F0B1 		ldr	fp, .L46+52
 643 000e 6E4D     		ldr	r5, .L46
 644 0010 DFF8ECA1 		ldr	r10, .L46+56
 645 0014 6D4C     		ldr	r4, .L46+4
 646 0016 2DED068B 		vpush.64	{d8, d9, d10}
 647              		.cfi_def_cfa_offset 64
 648              		.cfi_offset 80, -64
 649              		.cfi_offset 81, -60
 650              		.cfi_offset 82, -56
 651              		.cfi_offset 83, -52
 652              		.cfi_offset 84, -48
 653              		.cfi_offset 85, -44
 654 001a 0746     		mov	r7, r0
 655              	.LBB92:
 656              	.LBB93:
  88:Core/Src/audio.c **** }
 657              		.loc 1 88 16 view .LVU155
 658 001c DFED6CAA 		vldr.32	s21, .L46+8
 659              	.LBE93:
 660              	.LBE92:
 661 0020 DFED6C9A 		vldr.32	s19, .L46+12
 122:Core/Src/audio.c **** 		sample = MoogLP_compute(&Moog_filter, sample);
 662              		.loc 1 122 29 view .LVU156
 663 0024 DFED6C8A 		vldr.32	s17, .L46+16
 145:Core/Src/audio.c **** 		valueR = ((int16_t) ((32767.0f) * sampleR));
 664              		.loc 1 145 35 view .LVU157
 665 0028 9FED6C9A 		vldr.32	s18, .L46+20
 666 002c 0E46     		mov	r6, r1
 107:Core/Src/audio.c **** 	{
 667              		.loc 1 107 9 view .LVU158
 668 002e 4FF00009 		mov	r9, #0
 669 0032 00F10208 		add	r8, r0, #2
 670 0036 51E0     		b	.L27
 671              	.LVL48:
 672              	.L44:
 673              	.LBB97:
 674              	.LBB98:
  66:Core/Inc/helper_functions.h ****     {
 675              		.loc 2 66 10 is_stmt 1 view .LVU159
  66:Core/Inc/helper_functions.h ****     {
 676              		.loc 2 66 13 is_stmt 0 view .LVU160
 677 0038 F0EE086A 		vmov.f32	s13, #3.0e+0
 678 003c B4EEE67A 		vcmpe.f32	s14, s13
 679 0040 F1EE10FA 		vmrs	APSR_nzcv, FPSCR
 680 0044 00F3B980 		bgt	.L35
 681              	.LVL49:
 682              	.LBB99:
ARM GAS  /var/folders/0z/tsy30v1j4xl4_7kw94k978ww0000gn/T//ccE8zZrE.s 			page 19


 683              	.LBI99:
  60:Core/Inc/helper_functions.h **** {
 684              		.loc 2 60 14 is_stmt 1 view .LVU161
 685              	.LBB100:
 686              		.loc 2 72 9 view .LVU162
 687              		.loc 2 72 27 is_stmt 0 view .LVU163
 688 0048 F3EE0B6A 		vmov.f32	s13, #2.7e+1
 689              		.loc 2 72 52 view .LVU164
 690 004c F2EE025A 		vmov.f32	s11, #9.0e+0
 691 0050 67EE255A 		vmul.f32	s11, s14, s11
 692              		.loc 2 72 27 view .LVU165
 693 0054 B0EE665A 		vmov.f32	s10, s13
 694 0058 A7EE075A 		vfma.f32	s10, s14, s14
 695              		.loc 2 72 45 view .LVU166
 696 005c E7EE256A 		vfma.f32	s13, s14, s11
 697              		.loc 2 72 18 view .LVU167
 698 0060 27EE057A 		vmul.f32	s14, s14, s10
 699              	.LVL50:
 700              		.loc 2 72 45 view .LVU168
 701 0064 B0EE666A 		vmov.f32	s12, s13
 702              	.LVL51:
 703              		.loc 2 72 36 view .LVU169
 704 0068 C7EE066A 		vdiv.f32	s13, s14, s12
 705              	.LBE100:
 706              	.LBE99:
 707              	.LBE98:
 708              	.LBE97:
 145:Core/Src/audio.c **** 		valueR = ((int16_t) ((32767.0f) * sampleR));
 709              		.loc 1 145 35 view .LVU170
 710 006c 26EE897A 		vmul.f32	s14, s13, s18
 145:Core/Src/audio.c **** 		valueR = ((int16_t) ((32767.0f) * sampleR));
 711              		.loc 1 145 13 view .LVU171
 712 0070 BDEEC77A 		vcvt.s32.f32	s14, s14
 713 0074 17EE103A 		vmov	r3, s14	@ int
 714 0078 1AB2     		sxth	r2, r3
 715              	.L29:
 716              	.LVL52:
 142:Core/Src/audio.c **** 
 717              		.loc 1 142 3 is_stmt 1 view .LVU172
 718              	.LBB105:
 719              	.LBI105:
  60:Core/Inc/helper_functions.h **** {
 720              		.loc 2 60 14 view .LVU173
 721              	.LBB106:
  62:Core/Inc/helper_functions.h ****     {
 722              		.loc 2 62 5 view .LVU174
  62:Core/Inc/helper_functions.h ****     {
 723              		.loc 2 62 8 is_stmt 0 view .LVU175
 724 007a B8EE087A 		vmov.f32	s14, #-3.0e+0
 725 007e F4EEC77A 		vcmpe.f32	s15, s14
 726 0082 F1EE10FA 		vmrs	APSR_nzcv, FPSCR
 727 0086 00F18B80 		bmi	.L36
 728              	.L45:
  66:Core/Inc/helper_functions.h ****     {
 729              		.loc 2 66 10 is_stmt 1 view .LVU176
  66:Core/Inc/helper_functions.h ****     {
 730              		.loc 2 66 13 is_stmt 0 view .LVU177
ARM GAS  /var/folders/0z/tsy30v1j4xl4_7kw94k978ww0000gn/T//ccE8zZrE.s 			page 20


 731 008a B0EE087A 		vmov.f32	s14, #3.0e+0
 732 008e F4EEC77A 		vcmpe.f32	s15, s14
 733 0092 F1EE10FA 		vmrs	APSR_nzcv, FPSCR
 734 0096 00F39380 		bgt	.L37
 735              	.LVL53:
 736              	.LBB107:
 737              	.LBI107:
  60:Core/Inc/helper_functions.h **** {
 738              		.loc 2 60 14 is_stmt 1 view .LVU178
 739              	.LBB108:
 740              		.loc 2 72 9 view .LVU179
 741              		.loc 2 72 27 is_stmt 0 view .LVU180
 742 009a B3EE0B7A 		vmov.f32	s14, #2.7e+1
 743              		.loc 2 72 52 view .LVU181
 744 009e B2EE026A 		vmov.f32	s12, #9.0e+0
 745 00a2 27EE866A 		vmul.f32	s12, s15, s12
 746              		.loc 2 72 27 view .LVU182
 747 00a6 F0EE475A 		vmov.f32	s11, s14
 748 00aa E7EEA75A 		vfma.f32	s11, s15, s15
 749              		.loc 2 72 45 view .LVU183
 750 00ae A7EE867A 		vfma.f32	s14, s15, s12
 751              		.loc 2 72 18 view .LVU184
 752 00b2 67EEA57A 		vmul.f32	s15, s15, s11
 753              	.LVL54:
 754              		.loc 2 72 45 view .LVU185
 755 00b6 F0EE476A 		vmov.f32	s13, s14
 756              	.LVL55:
 757              		.loc 2 72 36 view .LVU186
 758 00ba 87EEA67A 		vdiv.f32	s14, s15, s13
 759              	.LBE108:
 760              	.LBE107:
 761              	.LBE106:
 762              	.LBE105:
 146:Core/Src/audio.c **** 
 763              		.loc 1 146 35 view .LVU187
 764 00be 67EE097A 		vmul.f32	s15, s14, s18
 146:Core/Src/audio.c **** 
 765              		.loc 1 146 13 view .LVU188
 766 00c2 FDEEE77A 		vcvt.s32.f32	s15, s15
 767 00c6 17EE903A 		vmov	r3, s15	@ int
 768 00ca 1BB2     		sxth	r3, r3
 769              	.L30:
 770              	.LVL56:
 145:Core/Src/audio.c **** 		valueR = ((int16_t) ((32767.0f) * sampleR));
 771              		.loc 1 145 3 is_stmt 1 view .LVU189
 146:Core/Src/audio.c **** 
 772              		.loc 1 146 3 view .LVU190
 149:Core/Src/audio.c **** 	    output[(i<<1) + 1] = valueR;	// RIGHT channel
 773              		.loc 1 149 3 view .LVU191
 149:Core/Src/audio.c **** 	    output[(i<<1) + 1] = valueR;	// RIGHT channel
 774              		.loc 1 149 16 is_stmt 0 view .LVU192
 775 00cc 27F82920 		strh	r2, [r7, r9, lsl #2]	@ movhi
 150:Core/Src/audio.c **** 	}
 776              		.loc 1 150 6 is_stmt 1 view .LVU193
 150:Core/Src/audio.c **** 	}
 777              		.loc 1 150 25 is_stmt 0 view .LVU194
 778 00d0 28F82930 		strh	r3, [r8, r9, lsl #2]	@ movhi
ARM GAS  /var/folders/0z/tsy30v1j4xl4_7kw94k978ww0000gn/T//ccE8zZrE.s 			page 21


 107:Core/Src/audio.c **** 	{
 779              		.loc 1 107 28 is_stmt 1 view .LVU195
 780 00d4 09F10109 		add	r9, r9, #1
 781              	.LVL57:
 107:Core/Src/audio.c **** 	{
 782              		.loc 1 107 16 view .LVU196
 783 00d8 B145     		cmp	r9, r6
 784 00da 6AD0     		beq	.L43
 785              	.LVL58:
 786              	.L27:
 110:Core/Src/audio.c **** 		
 787              		.loc 1 110 3 view .LVU197
 110:Core/Src/audio.c **** 		
 788              		.loc 1 110 12 is_stmt 0 view .LVU198
 789 00dc 9BF80030 		ldrb	r3, [fp]	@ zero_extendqisi2
 790 00e0 05EB8302 		add	r2, r5, r3, lsl #2
 791 00e4 92ED007A 		vldr.32	s14, [r2]
 113:Core/Src/audio.c **** 		OpSetFreq(&osc2, f0 + 5);
 792              		.loc 1 113 3 is_stmt 1 view .LVU199
 793              	.LVL59:
 794              	.LBB112:
 795              	.LBI92:
  86:Core/Src/audio.c **** {
 796              		.loc 1 86 6 view .LVU200
 797              	.LBB94:
  88:Core/Src/audio.c **** }
 798              		.loc 1 88 2 view .LVU201
 799              	.LBE94:
 800              	.LBE112:
 114:Core/Src/audio.c **** 		
 801              		.loc 1 114 3 is_stmt 0 view .LVU202
 802 00e8 F1EE047A 		vmov.f32	s15, #5.0e+0
 803 00ec 77EE277A 		vadd.f32	s15, s14, s15
 116:Core/Src/audio.c **** 		OpSetFreq(&sub_osc, f_sub);
 804              		.loc 1 116 16 view .LVU203
 805 00f0 0C2B     		cmp	r3, #12
 806              	.LBB113:
 807              	.LBB114:
  88:Core/Src/audio.c **** }
 808              		.loc 1 88 16 view .LVU204
 809 00f2 67EEAA7A 		vmul.f32	s15, s15, s21
 810              	.LBE114:
 811              	.LBE113:
 116:Core/Src/audio.c **** 		OpSetFreq(&sub_osc, f_sub);
 812              		.loc 1 116 15 view .LVU205
 813 00f6 88BF     		it	hi
 814 00f8 1346     		movhi	r3, r2
 815              	.LBB117:
 816              	.LBB115:
  88:Core/Src/audio.c **** }
 817              		.loc 1 88 11 view .LVU206
 818 00fa C4ED017A 		vstr.32	s15, [r4, #4]
 819              	.LBE115:
 820              	.LBE117:
 821              	.LBB118:
 822              	.LBB119:
  88:Core/Src/audio.c **** }
ARM GAS  /var/folders/0z/tsy30v1j4xl4_7kw94k978ww0000gn/T//ccE8zZrE.s 			page 22


 823              		.loc 1 88 16 view .LVU207
 824 00fe 88BF     		it	hi
 825 0100 53ED0C7A 		vldrhi.32	s15, [r3, #-48]
  88:Core/Src/audio.c **** }
 826              		.loc 1 88 11 view .LVU208
 827 0104 364B     		ldr	r3, .L46+24
  88:Core/Src/audio.c **** }
 828              		.loc 1 88 16 view .LVU209
 829 0106 88BF     		it	hi
 830 0108 67EEAA7A 		vmulhi.f32	s15, s15, s21
 831              	.LBE119:
 832              	.LBE118:
 833              	.LBB122:
 834              	.LBB95:
 835 010c 27EE2A7A 		vmul.f32	s14, s14, s21
 836              	.LVL60:
  88:Core/Src/audio.c **** }
 837              		.loc 1 88 16 view .LVU210
 838              	.LBE95:
 839              	.LBE122:
 840 0110 98BF     		it	ls
 841 0112 F0EE697A 		vmovls.f32	s15, s19
 118:Core/Src/audio.c **** 	
 842              		.loc 1 118 17 view .LVU211
 843 0116 5046     		mov	r0, r10
 844              	.LBB123:
 845              	.LBB120:
  88:Core/Src/audio.c **** }
 846              		.loc 1 88 11 view .LVU212
 847 0118 C3ED017A 		vstr.32	s15, [r3, #4]
 848              	.LBE120:
 849              	.LBE123:
 850              	.LBB124:
 851              	.LBB96:
 852 011c 8AED017A 		vstr.32	s14, [r10, #4]
 853              	.LVL61:
  88:Core/Src/audio.c **** }
 854              		.loc 1 88 11 view .LVU213
 855              	.LBE96:
 856              	.LBE124:
 114:Core/Src/audio.c **** 		
 857              		.loc 1 114 3 is_stmt 1 view .LVU214
 858              	.LBB125:
 859              	.LBI113:
  86:Core/Src/audio.c **** {
 860              		.loc 1 86 6 view .LVU215
 861              	.LBB116:
  88:Core/Src/audio.c **** }
 862              		.loc 1 88 2 view .LVU216
  88:Core/Src/audio.c **** }
 863              		.loc 1 88 2 is_stmt 0 view .LVU217
 864              	.LBE116:
 865              	.LBE125:
 116:Core/Src/audio.c **** 		OpSetFreq(&sub_osc, f_sub);
 866              		.loc 1 116 3 is_stmt 1 view .LVU218
 117:Core/Src/audio.c **** 		sample = 0.5*(osc_polyblepSaw(&osc1) + osc_polyblepSaw(&osc2) + osc_polyblepRect(&sub_osc));
 867              		.loc 1 117 3 view .LVU219
ARM GAS  /var/folders/0z/tsy30v1j4xl4_7kw94k978ww0000gn/T//ccE8zZrE.s 			page 23


 868              	.LBB126:
 869              	.LBI118:
  86:Core/Src/audio.c **** {
 870              		.loc 1 86 6 view .LVU220
 871              	.LBB121:
  88:Core/Src/audio.c **** }
 872              		.loc 1 88 2 view .LVU221
  88:Core/Src/audio.c **** }
 873              		.loc 1 88 2 is_stmt 0 view .LVU222
 874              	.LBE121:
 875              	.LBE126:
 118:Core/Src/audio.c **** 	
 876              		.loc 1 118 3 is_stmt 1 view .LVU223
 118:Core/Src/audio.c **** 	
 877              		.loc 1 118 17 is_stmt 0 view .LVU224
 878 0120 FFF7FEFF 		bl	osc_polyblepSaw
 879              	.LVL62:
 118:Core/Src/audio.c **** 	
 880              		.loc 1 118 42 view .LVU225
 881 0124 2046     		mov	r0, r4
 118:Core/Src/audio.c **** 	
 882              		.loc 1 118 17 view .LVU226
 883 0126 B0EE408A 		vmov.f32	s16, s0
 118:Core/Src/audio.c **** 	
 884              		.loc 1 118 42 view .LVU227
 885 012a FFF7FEFF 		bl	osc_polyblepSaw
 886              	.LVL63:
 118:Core/Src/audio.c **** 	
 887              		.loc 1 118 67 view .LVU228
 888 012e 2C48     		ldr	r0, .L46+24
 118:Core/Src/audio.c **** 	
 889              		.loc 1 118 40 view .LVU229
 890 0130 38EE008A 		vadd.f32	s16, s16, s0
 118:Core/Src/audio.c **** 	
 891              		.loc 1 118 67 view .LVU230
 892 0134 FFF7FEFF 		bl	osc_polyblepRect
 893              	.LVL64:
 121:Core/Src/audio.c **** 		Moog_filter.cutoff = 2000 * filt_env;
 894              		.loc 1 121 14 view .LVU231
 895 0138 2A48     		ldr	r0, .L46+28
 118:Core/Src/audio.c **** 	
 896              		.loc 1 118 67 view .LVU232
 897 013a B0EE40AA 		vmov.f32	s20, s0
 898              	.LVL65:
 121:Core/Src/audio.c **** 		Moog_filter.cutoff = 2000 * filt_env;
 899              		.loc 1 121 3 is_stmt 1 view .LVU233
 121:Core/Src/audio.c **** 		Moog_filter.cutoff = 2000 * filt_env;
 900              		.loc 1 121 14 is_stmt 0 view .LVU234
 901 013e FFF7FEFF 		bl	ADSR_compute
 902              	.LVL66:
 122:Core/Src/audio.c **** 		sample = MoogLP_compute(&Moog_filter, sample);
 903              		.loc 1 122 3 is_stmt 1 view .LVU235
 118:Core/Src/audio.c **** 	
 904              		.loc 1 118 65 is_stmt 0 view .LVU236
 905 0142 38EE0A8A 		vadd.f32	s16, s16, s20
 906              	.LVL67:
 122:Core/Src/audio.c **** 		sample = MoogLP_compute(&Moog_filter, sample);
ARM GAS  /var/folders/0z/tsy30v1j4xl4_7kw94k978ww0000gn/T//ccE8zZrE.s 			page 24


 907              		.loc 1 122 29 view .LVU237
 908 0146 60EE287A 		vmul.f32	s15, s0, s17
 123:Core/Src/audio.c **** 	
 909              		.loc 1 123 12 view .LVU238
 910 014a 2748     		ldr	r0, .L46+32
 911 014c B6EE000A 		vmov.f32	s0, #5.0e-1
 912 0150 28EE000A 		vmul.f32	s0, s16, s0
 913              	.LVL68:
 122:Core/Src/audio.c **** 		sample = MoogLP_compute(&Moog_filter, sample);
 914              		.loc 1 122 22 view .LVU239
 915 0154 C0ED007A 		vstr.32	s15, [r0]
 123:Core/Src/audio.c **** 	
 916              		.loc 1 123 3 is_stmt 1 view .LVU240
 123:Core/Src/audio.c **** 	
 917              		.loc 1 123 12 is_stmt 0 view .LVU241
 918 0158 FFF7FEFF 		bl	MoogLP_compute
 919              	.LVL69:
 127:Core/Src/audio.c **** 		sample *= amp_env;
 920              		.loc 1 127 13 view .LVU242
 921 015c 2348     		ldr	r0, .L46+36
 123:Core/Src/audio.c **** 	
 922              		.loc 1 123 12 view .LVU243
 923 015e B0EE408A 		vmov.f32	s16, s0
 924              	.LVL70:
 127:Core/Src/audio.c **** 		sample *= amp_env;
 925              		.loc 1 127 3 is_stmt 1 view .LVU244
 127:Core/Src/audio.c **** 		sample *= amp_env;
 926              		.loc 1 127 13 is_stmt 0 view .LVU245
 927 0162 FFF7FEFF 		bl	ADSR_compute
 928              	.LVL71:
 128:Core/Src/audio.c **** 
 929              		.loc 1 128 3 is_stmt 1 view .LVU246
 135:Core/Src/audio.c **** 		sampleL = delayLOut;
 930              		.loc 1 135 3 view .LVU247
 931 0166 2249     		ldr	r1, .L46+40
 932 0168 2248     		ldr	r0, .L46+44
 933 016a 20EE080A 		vmul.f32	s0, s0, s16
 934              	.LVL72:
 135:Core/Src/audio.c **** 		sampleL = delayLOut;
 935              		.loc 1 135 3 is_stmt 0 view .LVU248
 936 016e FFF7FEFF 		bl	pingpongDelay_compute
 937              	.LVL73:
 136:Core/Src/audio.c **** 		sampleR = delayROut;
 938              		.loc 1 136 3 is_stmt 1 view .LVU249
 136:Core/Src/audio.c **** 		sampleR = delayROut;
 939              		.loc 1 136 11 is_stmt 0 view .LVU250
 940 0172 204B     		ldr	r3, .L46+44
 941 0174 93ED007A 		vldr.32	s14, [r3]
 942              	.LVL74:
 137:Core/Src/audio.c **** 		
 943              		.loc 1 137 3 is_stmt 1 view .LVU251
 137:Core/Src/audio.c **** 		
 944              		.loc 1 137 11 is_stmt 0 view .LVU252
 945 0178 1D4B     		ldr	r3, .L46+40
 946              	.LBB127:
 947              	.LBB101:
  62:Core/Inc/helper_functions.h ****     {
ARM GAS  /var/folders/0z/tsy30v1j4xl4_7kw94k978ww0000gn/T//ccE8zZrE.s 			page 25


 948              		.loc 2 62 8 view .LVU253
 949 017a F8EE086A 		vmov.f32	s13, #-3.0e+0
 950 017e B4EEE67A 		vcmpe.f32	s14, s13
 951 0182 F1EE10FA 		vmrs	APSR_nzcv, FPSCR
 952              	.LBE101:
 953              	.LBE127:
 137:Core/Src/audio.c **** 		
 954              		.loc 1 137 11 view .LVU254
 955 0186 D3ED007A 		vldr.32	s15, [r3]
 956              	.LVL75:
 141:Core/Src/audio.c **** 		sampleR = SoftClip(sampleR);
 957              		.loc 1 141 3 is_stmt 1 view .LVU255
 958              	.LBB128:
 959              	.LBI97:
  60:Core/Inc/helper_functions.h **** {
 960              		.loc 2 60 14 view .LVU256
 961              	.LBB102:
  62:Core/Inc/helper_functions.h ****     {
 962              		.loc 2 62 5 view .LVU257
  62:Core/Inc/helper_functions.h ****     {
 963              		.loc 2 62 8 is_stmt 0 view .LVU258
 964 018a 7FF555AF 		bpl	.L44
 965              	.LBE102:
 966              	.LBE128:
 967              	.LBB129:
 968              	.LBB109:
 969 018e B8EE087A 		vmov.f32	s14, #-3.0e+0
 970              	.LVL76:
  62:Core/Inc/helper_functions.h ****     {
 971              		.loc 2 62 8 view .LVU259
 972 0192 F4EEC77A 		vcmpe.f32	s15, s14
 973 0196 F1EE10FA 		vmrs	APSR_nzcv, FPSCR
 974              	.LBE109:
 975              	.LBE129:
 976              	.LBB130:
 977              	.LBB103:
 978 019a 174A     		ldr	r2, .L46+48
 979              	.LVL77:
  62:Core/Inc/helper_functions.h ****     {
 980              		.loc 2 62 8 view .LVU260
 981              	.LBE103:
 982              	.LBE130:
 142:Core/Src/audio.c **** 
 983              		.loc 1 142 3 is_stmt 1 view .LVU261
 984              	.LBB131:
  60:Core/Inc/helper_functions.h **** {
 985              		.loc 2 60 14 view .LVU262
 986              	.LBB110:
  62:Core/Inc/helper_functions.h ****     {
 987              		.loc 2 62 5 view .LVU263
  62:Core/Inc/helper_functions.h ****     {
 988              		.loc 2 62 8 is_stmt 0 view .LVU264
 989 019c 7FF575AF 		bpl	.L45
 990              	.L36:
 991 01a0 154B     		ldr	r3, .L46+48
 992              	.LVL78:
  62:Core/Inc/helper_functions.h ****     {
ARM GAS  /var/folders/0z/tsy30v1j4xl4_7kw94k978ww0000gn/T//ccE8zZrE.s 			page 26


 993              		.loc 2 62 8 view .LVU265
 994              	.LBE110:
 995              	.LBE131:
 145:Core/Src/audio.c **** 		valueR = ((int16_t) ((32767.0f) * sampleR));
 996              		.loc 1 145 3 is_stmt 1 view .LVU266
 146:Core/Src/audio.c **** 
 997              		.loc 1 146 3 view .LVU267
 149:Core/Src/audio.c **** 	    output[(i<<1) + 1] = valueR;	// RIGHT channel
 998              		.loc 1 149 3 view .LVU268
 149:Core/Src/audio.c **** 	    output[(i<<1) + 1] = valueR;	// RIGHT channel
 999              		.loc 1 149 16 is_stmt 0 view .LVU269
 1000 01a2 27F82920 		strh	r2, [r7, r9, lsl #2]	@ movhi
 150:Core/Src/audio.c **** 	}
 1001              		.loc 1 150 6 is_stmt 1 view .LVU270
 150:Core/Src/audio.c **** 	}
 1002              		.loc 1 150 25 is_stmt 0 view .LVU271
 1003 01a6 28F82930 		strh	r3, [r8, r9, lsl #2]	@ movhi
 107:Core/Src/audio.c **** 	{
 1004              		.loc 1 107 28 is_stmt 1 view .LVU272
 1005 01aa 09F10109 		add	r9, r9, #1
 1006              	.LVL79:
 107:Core/Src/audio.c **** 	{
 1007              		.loc 1 107 16 view .LVU273
 1008 01ae B145     		cmp	r9, r6
 1009 01b0 94D1     		bne	.L27
 1010              	.L43:
 1011              		.loc 1 152 1 is_stmt 0 view .LVU274
 1012 01b2 BDEC068B 		vldm	sp!, {d8-d10}
 1013              		.cfi_remember_state
 1014              		.cfi_restore 84
 1015              		.cfi_restore 85
 1016              		.cfi_restore 82
 1017              		.cfi_restore 83
 1018              		.cfi_restore 80
 1019              		.cfi_restore 81
 1020              		.cfi_def_cfa_offset 40
 1021 01b6 BDE8F88F 		pop	{r3, r4, r5, r6, r7, r8, r9, r10, fp, pc}
 1022              	.LVL80:
 1023              	.L35:
 1024              		.cfi_restore_state
 1025              	.LBB132:
 1026              	.LBB104:
 1027              		.loc 1 152 1 view .LVU275
 1028 01ba 47F6FF72 		movw	r2, #32767
 1029 01be 5CE7     		b	.L29
 1030              	.LVL81:
 1031              	.L37:
 1032              		.loc 1 152 1 view .LVU276
 1033              	.LBE104:
 1034              	.LBE132:
 1035              	.LBB133:
 1036              	.LBB111:
 1037 01c0 47F6FF73 		movw	r3, #32767
 1038 01c4 82E7     		b	.L30
 1039              	.LVL82:
 1040              	.L40:
 1041              		.cfi_def_cfa_offset 0
ARM GAS  /var/folders/0z/tsy30v1j4xl4_7kw94k978ww0000gn/T//ccE8zZrE.s 			page 27


 1042              		.cfi_restore 3
 1043              		.cfi_restore 4
 1044              		.cfi_restore 5
 1045              		.cfi_restore 6
 1046              		.cfi_restore 7
 1047              		.cfi_restore 8
 1048              		.cfi_restore 9
 1049              		.cfi_restore 10
 1050              		.cfi_restore 11
 1051              		.cfi_restore 14
 1052              		.cfi_restore 80
 1053              		.cfi_restore 81
 1054              		.cfi_restore 82
 1055              		.cfi_restore 83
 1056              		.cfi_restore 84
 1057              		.cfi_restore 85
 1058              		.loc 1 152 1 view .LVU277
 1059 01c6 7047     		bx	lr
 1060              	.L47:
 1061              		.align	2
 1062              	.L46:
 1063 01c8 00000000 		.word	.LANCHOR0
 1064 01cc 00000000 		.word	osc2
 1065 01d0 F622803F 		.word	1065362166
 1066 01d4 CEF30241 		.word	1090712526
 1067 01d8 0000FA44 		.word	1157234688
 1068 01dc 00FEFF46 		.word	1191181824
 1069 01e0 00000000 		.word	sub_osc
 1070 01e4 00000000 		.word	adsr_filt
 1071 01e8 00000000 		.word	Moog_filter
 1072 01ec 00000000 		.word	adsr_amp
 1073 01f0 00000000 		.word	.LANCHOR1
 1074 01f4 00000000 		.word	.LANCHOR2
 1075 01f8 0180FFFF 		.word	-32767
 1076 01fc 00000000 		.word	currentPitch
 1077 0200 00000000 		.word	osc1
 1078              	.LBE111:
 1079              	.LBE133:
 1080              		.cfi_endproc
 1081              	.LFE136:
 1083              		.section	.text.BSP_AUDIO_OUT_HalfTransfer_CallBack,"ax",%progbits
 1084              		.align	1
 1085              		.p2align 2,,3
 1086              		.global	BSP_AUDIO_OUT_HalfTransfer_CallBack
 1087              		.syntax unified
 1088              		.thumb
 1089              		.thumb_func
 1091              	BSP_AUDIO_OUT_HalfTransfer_CallBack:
 1092              	.LFB137:
 153:Core/Src/audio.c **** 
 154:Core/Src/audio.c **** 
 155:Core/Src/audio.c **** 
 156:Core/Src/audio.c **** void BSP_AUDIO_OUT_HalfTransfer_CallBack(void)
 157:Core/Src/audio.c **** {
 1093              		.loc 1 157 1 is_stmt 1 view -0
 1094              		.cfi_startproc
 1095              		@ args = 0, pretend = 0, frame = 0
ARM GAS  /var/folders/0z/tsy30v1j4xl4_7kw94k978ww0000gn/T//ccE8zZrE.s 			page 28


 1096              		@ frame_needed = 0, uses_anonymous_args = 0
 1097              		@ link register save eliminated.
 158:Core/Src/audio.c **** 	audioBlock((uint16_t *)audioBuffer, BUFFER_SIZE_DIV_4);
 1098              		.loc 1 158 2 view .LVU279
 1099 0000 0148     		ldr	r0, .L49
 1100 0002 FFF7FEBF 		b	audioBlock.constprop.0
 1101              	.LVL83:
 1102              	.L50:
 1103 0006 00BF     		.align	2
 1104              	.L49:
 1105 0008 00000000 		.word	.LANCHOR3
 1106              		.cfi_endproc
 1107              	.LFE137:
 1109              		.section	.text.BSP_AUDIO_OUT_TransferComplete_CallBack,"ax",%progbits
 1110              		.align	1
 1111              		.p2align 2,,3
 1112              		.global	BSP_AUDIO_OUT_TransferComplete_CallBack
 1113              		.syntax unified
 1114              		.thumb
 1115              		.thumb_func
 1117              	BSP_AUDIO_OUT_TransferComplete_CallBack:
 1118              	.LFB138:
 159:Core/Src/audio.c **** }
 160:Core/Src/audio.c **** 
 161:Core/Src/audio.c **** void BSP_AUDIO_OUT_TransferComplete_CallBack(void)
 162:Core/Src/audio.c **** {
 1119              		.loc 1 162 1 view -0
 1120              		.cfi_startproc
 1121              		@ args = 0, pretend = 0, frame = 0
 1122              		@ frame_needed = 0, uses_anonymous_args = 0
 1123              		@ link register save eliminated.
 163:Core/Src/audio.c **** 	audioBlock((uint16_t *)(audioBuffer + BUFFER_SIZE_DIV_2), BUFFER_SIZE_DIV_4);
 1124              		.loc 1 163 2 view .LVU281
 1125 0000 0148     		ldr	r0, .L52
 1126 0002 FFF7FEBF 		b	audioBlock.constprop.0
 1127              	.LVL84:
 1128              	.L53:
 1129 0006 00BF     		.align	2
 1130              	.L52:
 1131 0008 00010000 		.word	.LANCHOR3+256
 1132              		.cfi_endproc
 1133              	.LFE138:
 1135              		.section	.text.BSP_AUDIO_OUT_Error_CallBack,"ax",%progbits
 1136              		.align	1
 1137              		.p2align 2,,3
 1138              		.global	BSP_AUDIO_OUT_Error_CallBack
 1139              		.syntax unified
 1140              		.thumb
 1141              		.thumb_func
 1143              	BSP_AUDIO_OUT_Error_CallBack:
 1144              	.LFB139:
 164:Core/Src/audio.c **** }
 165:Core/Src/audio.c **** 
 166:Core/Src/audio.c **** void BSP_AUDIO_OUT_Error_CallBack(void)
 167:Core/Src/audio.c **** {
 1145              		.loc 1 167 1 view -0
 1146              		.cfi_startproc
ARM GAS  /var/folders/0z/tsy30v1j4xl4_7kw94k978ww0000gn/T//ccE8zZrE.s 			page 29


 1147              		@ Volatile: function does not return.
 1148              		@ args = 0, pretend = 0, frame = 0
 1149              		@ frame_needed = 0, uses_anonymous_args = 0
 1150              		@ link register save eliminated.
 1151              	.L55:
 168:Core/Src/audio.c **** 	/* Stop the program with an infinite loop */
 169:Core/Src/audio.c **** 	while (1)
 1152              		.loc 1 169 2 discriminator 1 view .LVU283
 170:Core/Src/audio.c **** 	{
 171:Core/Src/audio.c **** 	}
 1153              		.loc 1 171 2 discriminator 1 view .LVU284
 169:Core/Src/audio.c **** 	{
 1154              		.loc 1 169 8 discriminator 1 view .LVU285
 1155 0000 FEE7     		b	.L55
 1156              		.cfi_endproc
 1157              	.LFE139:
 1159 0002 00BF     		.section	.text.DMA1_Stream7_IRQHandler,"ax",%progbits
 1160              		.align	1
 1161              		.p2align 2,,3
 1162              		.global	DMA1_Stream7_IRQHandler
 1163              		.syntax unified
 1164              		.thumb
 1165              		.thumb_func
 1167              	DMA1_Stream7_IRQHandler:
 1168              	.LFB140:
 172:Core/Src/audio.c **** }
 173:Core/Src/audio.c **** 
 174:Core/Src/audio.c **** 
 175:Core/Src/audio.c **** void I2S3_IRQHandler(void)
 176:Core/Src/audio.c **** {
 1169              		.loc 1 176 1 view -0
 1170              		.cfi_startproc
 1171              		@ args = 0, pretend = 0, frame = 0
 1172              		@ frame_needed = 0, uses_anonymous_args = 0
 1173              		@ link register save eliminated.
 177:Core/Src/audio.c **** 	HAL_DMA_IRQHandler(hAudioOutI2s.hdmatx);
 1174              		.loc 1 177 2 view .LVU287
 1175 0000 014B     		ldr	r3, .L57
 1176 0002 986B     		ldr	r0, [r3, #56]
 1177 0004 FFF7FEBF 		b	HAL_DMA_IRQHandler
 1178              	.LVL85:
 1179              	.L58:
 1180              		.align	2
 1181              	.L57:
 1182 0008 00000000 		.word	hAudioOutI2s
 1183              		.cfi_endproc
 1184              	.LFE140:
 1186              		.section	.text.DMA1_Stream3_IRQHandler,"ax",%progbits
 1187              		.align	1
 1188              		.p2align 2,,3
 1189              		.global	DMA1_Stream3_IRQHandler
 1190              		.syntax unified
 1191              		.thumb
 1192              		.thumb_func
 1194              	DMA1_Stream3_IRQHandler:
 1195              	.LFB141:
 178:Core/Src/audio.c **** }
ARM GAS  /var/folders/0z/tsy30v1j4xl4_7kw94k978ww0000gn/T//ccE8zZrE.s 			page 30


 179:Core/Src/audio.c **** void I2S2_IRQHandler(void)
 180:Core/Src/audio.c **** {
 1196              		.loc 1 180 1 view -0
 1197              		.cfi_startproc
 1198              		@ args = 0, pretend = 0, frame = 0
 1199              		@ frame_needed = 0, uses_anonymous_args = 0
 1200              		@ link register save eliminated.
 181:Core/Src/audio.c **** 	HAL_DMA_IRQHandler(hAudioInI2s.hdmarx);
 1201              		.loc 1 181 2 view .LVU289
 1202 0000 014B     		ldr	r3, .L60
 1203 0002 D86B     		ldr	r0, [r3, #60]
 1204 0004 FFF7FEBF 		b	HAL_DMA_IRQHandler
 1205              	.LVL86:
 1206              	.L61:
 1207              		.align	2
 1208              	.L60:
 1209 0008 00000000 		.word	hAudioInI2s
 1210              		.cfi_endproc
 1211              	.LFE141:
 1213              		.global	delayROut
 1214              		.global	delayLOut
 1215              		.global	audioBuffer
 1216              		.global	pbend
 1217              		.global	mtof
 1218              		.section	.bss.audioBuffer,"aw",%nobits
 1219              		.align	2
 1220              		.set	.LANCHOR3,. + 0
 1223              	audioBuffer:
 1224 0000 00000000 		.space	512
 1224      00000000 
 1224      00000000 
 1224      00000000 
 1224      00000000 
 1225              		.section	.bss.delayLOut,"aw",%nobits
 1226              		.align	2
 1227              		.set	.LANCHOR2,. + 0
 1230              	delayLOut:
 1231 0000 00000000 		.space	4
 1232              		.section	.bss.delayROut,"aw",%nobits
 1233              		.align	2
 1234              		.set	.LANCHOR1,. + 0
 1237              	delayROut:
 1238 0000 00000000 		.space	4
 1239              		.section	.rodata.mtof,"a"
 1240              		.align	2
 1241              		.set	.LANCHOR0,. + 0
 1244              	mtof:
 1245 0000 13D00241 		.word	1090703379
 1246 0004 60970A41 		.word	1091213152
 1247 0008 17D51241 		.word	1091753239
 1248 000c 41901B41 		.word	1092325441
 1249 0010 54D02441 		.word	1092931668
 1250 0014 369D2E41 		.word	1093573942
 1251 0018 4AFF3841 		.word	1094254410
 1252 001c 6AFF4341 		.word	1094975338
 1253 0020 01A74F41 		.word	1095739137
 1254 0024 00005C41 		.word	1096548352
ARM GAS  /var/folders/0z/tsy30v1j4xl4_7kw94k978ww0000gn/T//ccE8zZrE.s 			page 31


 1255 0028 F7146941 		.word	1097405687
 1256 002c 10F17641 		.word	1098314000
 1257 0030 13D08241 		.word	1099091987
 1258 0034 60978A41 		.word	1099601760
 1259 0038 17D59241 		.word	1100141847
 1260 003c 41909B41 		.word	1100714049
 1261 0040 54D0A441 		.word	1101320276
 1262 0044 369DAE41 		.word	1101962550
 1263 0048 49FFB841 		.word	1102643017
 1264 004c 6BFFC341 		.word	1103363947
 1265 0050 01A7CF41 		.word	1104127745
 1266 0054 0000DC41 		.word	1104936960
 1267 0058 F614E941 		.word	1105794294
 1268 005c 10F1F641 		.word	1106702608
 1269 0060 13D00242 		.word	1107480595
 1270 0064 60970A42 		.word	1107990368
 1271 0068 17D51242 		.word	1108530455
 1272 006c 41901B42 		.word	1109102657
 1273 0070 54D02442 		.word	1109708884
 1274 0074 379D2E42 		.word	1110351159
 1275 0078 49FF3842 		.word	1111031625
 1276 007c 6AFF4342 		.word	1111752554
 1277 0080 00A74F42 		.word	1112516352
 1278 0084 00005C42 		.word	1113325568
 1279 0088 F6146942 		.word	1114182902
 1280 008c 10F17642 		.word	1115091216
 1281 0090 12D08242 		.word	1115869202
 1282 0094 60978A42 		.word	1116378976
 1283 0098 17D59242 		.word	1116919063
 1284 009c 41909B42 		.word	1117491265
 1285 00a0 54D0A442 		.word	1118097492
 1286 00a4 379DAE42 		.word	1118739767
 1287 00a8 49FFB842 		.word	1119420233
 1288 00ac 6AFFC342 		.word	1120141162
 1289 00b0 00A7CF42 		.word	1120904960
 1290 00b4 0000DC42 		.word	1121714176
 1291 00b8 F614E942 		.word	1122571510
 1292 00bc 10F1F642 		.word	1123479824
 1293 00c0 13D00243 		.word	1124257811
 1294 00c4 60970A43 		.word	1124767584
 1295 00c8 17D51243 		.word	1125307671
 1296 00cc 41901B43 		.word	1125879873
 1297 00d0 54D02443 		.word	1126486100
 1298 00d4 379D2E43 		.word	1127128375
 1299 00d8 49FF3843 		.word	1127808841
 1300 00dc 6AFF4343 		.word	1128529770
 1301 00e0 00A74F43 		.word	1129293568
 1302 00e4 00005C43 		.word	1130102784
 1303 00e8 F6146943 		.word	1130960118
 1304 00ec 10F17643 		.word	1131868432
 1305 00f0 13D08243 		.word	1132646419
 1306 00f4 60978A43 		.word	1133156192
 1307 00f8 17D59243 		.word	1133696279
 1308 00fc 41909B43 		.word	1134268481
 1309 0100 54D0A443 		.word	1134874708
 1310 0104 379DAE43 		.word	1135516983
 1311 0108 49FFB843 		.word	1136197449
ARM GAS  /var/folders/0z/tsy30v1j4xl4_7kw94k978ww0000gn/T//ccE8zZrE.s 			page 32


 1312 010c 6AFFC343 		.word	1136918378
 1313 0110 00A7CF43 		.word	1137682176
 1314 0114 0000DC43 		.word	1138491392
 1315 0118 F614E943 		.word	1139348726
 1316 011c 10F1F643 		.word	1140257040
 1317 0120 13D00244 		.word	1141035027
 1318 0124 60970A44 		.word	1141544800
 1319 0128 17D51244 		.word	1142084887
 1320 012c 41901B44 		.word	1142657089
 1321 0130 54D02444 		.word	1143263316
 1322 0134 379D2E44 		.word	1143905591
 1323 0138 49FF3844 		.word	1144586057
 1324 013c 6AFF4344 		.word	1145306986
 1325 0140 00A74F44 		.word	1146070784
 1326 0144 00005C44 		.word	1146880000
 1327 0148 F6146944 		.word	1147737334
 1328 014c 10F17644 		.word	1148645648
 1329 0150 13D08244 		.word	1149423635
 1330 0154 60978A44 		.word	1149933408
 1331 0158 17D59244 		.word	1150473495
 1332 015c 41909B44 		.word	1151045697
 1333 0160 54D0A444 		.word	1151651924
 1334 0164 379DAE44 		.word	1152294199
 1335 0168 49FFB844 		.word	1152974665
 1336 016c 6AFFC344 		.word	1153695594
 1337 0170 00A7CF44 		.word	1154459392
 1338 0174 0000DC44 		.word	1155268608
 1339 0178 F614E944 		.word	1156125942
 1340 017c 10F1F644 		.word	1157034256
 1341 0180 13D00245 		.word	1157812243
 1342 0184 60970A45 		.word	1158322016
 1343 0188 17D51245 		.word	1158862103
 1344 018c 41901B45 		.word	1159434305
 1345 0190 54D02445 		.word	1160040532
 1346 0194 379D2E45 		.word	1160682807
 1347 0198 49FF3845 		.word	1161363273
 1348 019c 6AFF4345 		.word	1162084202
 1349 01a0 00A74F45 		.word	1162848000
 1350 01a4 00005C45 		.word	1163657216
 1351 01a8 F6146945 		.word	1164514550
 1352 01ac 10F17645 		.word	1165422864
 1353 01b0 13D08245 		.word	1166200851
 1354 01b4 60978A45 		.word	1166710624
 1355 01b8 17D59245 		.word	1167250711
 1356 01bc 41909B45 		.word	1167822913
 1357 01c0 54D0A445 		.word	1168429140
 1358 01c4 379DAE45 		.word	1169071415
 1359 01c8 49FFB845 		.word	1169751881
 1360 01cc 6AFFC345 		.word	1170472810
 1361 01d0 00A7CF45 		.word	1171236608
 1362 01d4 0000DC45 		.word	1172045824
 1363 01d8 F614E945 		.word	1172903158
 1364 01dc 10F1F645 		.word	1173811472
 1365 01e0 13D00246 		.word	1174589459
 1366 01e4 60970A46 		.word	1175099232
 1367 01e8 17D51246 		.word	1175639319
 1368 01ec 41901B46 		.word	1176211521
ARM GAS  /var/folders/0z/tsy30v1j4xl4_7kw94k978ww0000gn/T//ccE8zZrE.s 			page 33


 1369 01f0 54D02446 		.word	1176817748
 1370 01f4 379D2E46 		.word	1177460023
 1371 01f8 49FF3846 		.word	1178140489
 1372 01fc 6AFF4346 		.word	1178861418
 1373              		.section	.rodata.pbend,"a"
 1374              		.align	2
 1377              	pbend:
 1378 0000 0000003F 		.word	1056964608
 1379 0004 5E2C003F 		.word	1056975966
 1380 0008 DE58003F 		.word	1056987358
 1381 000c 5E85003F 		.word	1056998750
 1382 0010 EEB1003F 		.word	1057010158
 1383 0014 8FDE003F 		.word	1057021583
 1384 0018 410B013F 		.word	1057033025
 1385 001c 0438013F 		.word	1057044484
 1386 0020 D864013F 		.word	1057055960
 1387 0024 AC91013F 		.word	1057067436
 1388 0028 A1BE013F 		.word	1057078945
 1389 002c A7EB013F 		.word	1057090471
 1390 0030 AD18023F 		.word	1057101997
 1391 0034 D445023F 		.word	1057113556
 1392 0038 FC72023F 		.word	1057125116
 1393 003c 34A0023F 		.word	1057136692
 1394 0040 8ECD023F 		.word	1057148302
 1395 0044 E8FA023F 		.word	1057159912
 1396 0048 5228033F 		.word	1057171538
 1397 004c CE55033F 		.word	1057183182
 1398 0050 5A83033F 		.word	1057194842
 1399 0054 F7B0033F 		.word	1057206519
 1400 0058 A4DE033F 		.word	1057218212
 1401 005c 630C043F 		.word	1057229923
 1402 0060 213A043F 		.word	1057241633
 1403 0064 0168043F 		.word	1057253377
 1404 0068 F295043F 		.word	1057265138
 1405 006c E3C3043F 		.word	1057276899
 1406 0070 F5F1043F 		.word	1057288693
 1407 0074 1920053F 		.word	1057300505
 1408 0078 3C4E053F 		.word	1057312316
 1409 007c 707C053F 		.word	1057324144
 1410 0080 C5AA053F 		.word	1057336005
 1411 0084 1BD9053F 		.word	1057347867
 1412 0088 9207063F 		.word	1057359762
 1413 008c 0936063F 		.word	1057371657
 1414 0090 9164063F 		.word	1057383569
 1415 0094 2993063F 		.word	1057395497
 1416 0098 D3C1063F 		.word	1057407443
 1417 009c 9EF0063F 		.word	1057419422
 1418 00a0 681F073F 		.word	1057431400
 1419 00a4 444E073F 		.word	1057443396
 1420 00a8 317D073F 		.word	1057455409
 1421 00ac 2EAC073F 		.word	1057467438
 1422 00b0 3CDB073F 		.word	1057479484
 1423 00b4 5B0A083F 		.word	1057491547
 1424 00b8 7A39083F 		.word	1057503610
 1425 00bc BA68083F 		.word	1057515706
 1426 00c0 0B98083F 		.word	1057527819
 1427 00c4 6DC7083F 		.word	1057539949
ARM GAS  /var/folders/0z/tsy30v1j4xl4_7kw94k978ww0000gn/T//ccE8zZrE.s 			page 34


 1428 00c8 E0F6083F 		.word	1057552096
 1429 00cc 6326093F 		.word	1057564259
 1430 00d0 E755093F 		.word	1057576423
 1431 00d4 8C85093F 		.word	1057588620
 1432 00d8 42B5093F 		.word	1057600834
 1433 00dc 08E5093F 		.word	1057613064
 1434 00e0 CF140A3F 		.word	1057625295
 1435 00e4 B7440A3F 		.word	1057637559
 1436 00e8 B0740A3F 		.word	1057649840
 1437 00ec A9A40A3F 		.word	1057662121
 1438 00f0 C3D40A3F 		.word	1057674435
 1439 00f4 EE040B3F 		.word	1057686766
 1440 00f8 2B350B3F 		.word	1057699115
 1441 00fc 67650B3F 		.word	1057711463
 1442 0100 C4950B3F 		.word	1057723844
 1443 0104 32C60B3F 		.word	1057736242
 1444 0108 A1F60B3F 		.word	1057748641
 1445 010c 31270C3F 		.word	1057761073
 1446 0110 D1570C3F 		.word	1057773521
 1447 0114 72880C3F 		.word	1057785970
 1448 0118 34B90C3F 		.word	1057798452
 1449 011c 07EA0C3F 		.word	1057810951
 1450 0120 DA1A0D3F 		.word	1057823450
 1451 0124 CF4B0D3F 		.word	1057835983
 1452 0128 D47C0D3F 		.word	1057848532
 1453 012c DAAD0D3F 		.word	1057861082
 1454 0130 01DF0D3F 		.word	1057873665
 1455 0134 38100E3F 		.word	1057886264
 1456 0138 81410E3F 		.word	1057898881
 1457 013c DA720E3F 		.word	1057911514
 1458 0140 33A40E3F 		.word	1057924147
 1459 0144 AED50E3F 		.word	1057936814
 1460 0148 3A070F3F 		.word	1057949498
 1461 014c D6380F3F 		.word	1057962198
 1462 0150 836A0F3F 		.word	1057974915
 1463 0154 419C0F3F 		.word	1057987649
 1464 0158 10CE0F3F 		.word	1058000400
 1465 015c EFFF0F3F 		.word	1058013167
 1466 0160 DF31103F 		.word	1058025951
 1467 0164 E063103F 		.word	1058038752
 1468 0168 F295103F 		.word	1058051570
 1469 016c 15C8103F 		.word	1058064405
 1470 0170 48FA103F 		.word	1058077256
 1471 0174 8C2C113F 		.word	1058090124
 1472 0178 F25E113F 		.word	1058103026
 1473 017c 5891113F 		.word	1058115928
 1474 0180 CEC3113F 		.word	1058128846
 1475 0184 66F6113F 		.word	1058141798
 1476 0188 FE28123F 		.word	1058154750
 1477 018c B85B123F 		.word	1058167736
 1478 0190 718E123F 		.word	1058180721
 1479 0194 4CC1123F 		.word	1058193740
 1480 0198 28F4123F 		.word	1058206760
 1481 019c 2427133F 		.word	1058219812
 1482 01a0 325A133F 		.word	1058232882
 1483 01a4 3F8D133F 		.word	1058245951
 1484 01a8 6EC0133F 		.word	1058259054
ARM GAS  /var/folders/0z/tsy30v1j4xl4_7kw94k978ww0000gn/T//ccE8zZrE.s 			page 35


 1485 01ac AEF3133F 		.word	1058272174
 1486 01b0 FE26143F 		.word	1058285310
 1487 01b4 605A143F 		.word	1058298464
 1488 01b8 D28D143F 		.word	1058311634
 1489 01bc 55C1143F 		.word	1058324821
 1490 01c0 E8F4143F 		.word	1058338024
 1491 01c4 9E28153F 		.word	1058351262
 1492 01c8 535C153F 		.word	1058364499
 1493 01cc 1990153F 		.word	1058377753
 1494 01d0 00C4153F 		.word	1058391040
 1495 01d4 E8F7153F 		.word	1058404328
 1496 01d8 F12B163F 		.word	1058417649
 1497 01dc 0B60163F 		.word	1058430987
 1498 01e0 2594163F 		.word	1058444325
 1499 01e4 60C8163F 		.word	1058457696
 1500 01e8 ADFC163F 		.word	1058471085
 1501 01ec 0A31173F 		.word	1058484490
 1502 01f0 7765173F 		.word	1058497911
 1503 01f4 079A173F 		.word	1058511367
 1504 01f8 96CE173F 		.word	1058524822
 1505 01fc 3603183F 		.word	1058538294
 1506 0200 F837183F 		.word	1058551800
 1507 0204 B96C183F 		.word	1058565305
 1508 0208 9DA1183F 		.word	1058578845
 1509 020c 80D6183F 		.word	1058592384
 1510 0210 850B193F 		.word	1058605957
 1511 0214 9A40193F 		.word	1058619546
 1512 0218 C075193F 		.word	1058633152
 1513 021c F8AA193F 		.word	1058646776
 1514 0220 3FE0193F 		.word	1058660415
 1515 0224 A9151A3F 		.word	1058674089
 1516 0228 124B1A3F 		.word	1058687762
 1517 022c 9D801A3F 		.word	1058701469
 1518 0230 28B61A3F 		.word	1058715176
 1519 0234 D5EB1A3F 		.word	1058728917
 1520 0238 92211B3F 		.word	1058742674
 1521 023c 60571B3F 		.word	1058756448
 1522 0240 3F8D1B3F 		.word	1058770239
 1523 0244 2FC31B3F 		.word	1058784047
 1524 0248 2FF91B3F 		.word	1058797871
 1525 024c 512F1C3F 		.word	1058811729
 1526 0250 73651C3F 		.word	1058825587
 1527 0254 B79B1C3F 		.word	1058839479
 1528 0258 FAD11C3F 		.word	1058853370
 1529 025c 5F081D3F 		.word	1058867295
 1530 0260 D53E1D3F 		.word	1058881237
 1531 0264 5C751D3F 		.word	1058895196
 1532 0268 04AC1D3F 		.word	1058909188
 1533 026c ACE21D3F 		.word	1058923180
 1534 0270 76191E3F 		.word	1058937206
 1535 0274 40501E3F 		.word	1058951232
 1536 0278 2B871E3F 		.word	1058965291
 1537 027c 27BE1E3F 		.word	1058979367
 1538 0280 34F51E3F 		.word	1058993460
 1539 0284 522C1F3F 		.word	1059007570
 1540 0288 80631F3F 		.word	1059021696
 1541 028c D09A1F3F 		.word	1059035856
ARM GAS  /var/folders/0z/tsy30v1j4xl4_7kw94k978ww0000gn/T//ccE8zZrE.s 			page 36


 1542 0290 20D21F3F 		.word	1059050016
 1543 0294 9109203F 		.word	1059064209
 1544 0298 1441203F 		.word	1059078420
 1545 029c A778203F 		.word	1059092647
 1546 02a0 4BB0203F 		.word	1059106891
 1547 02a4 10E8203F 		.word	1059121168
 1548 02a8 D61F213F 		.word	1059135446
 1549 02ac BC57213F 		.word	1059149756
 1550 02b0 B48F213F 		.word	1059164084
 1551 02b4 BDC7213F 		.word	1059178429
 1552 02b8 D6FF213F 		.word	1059192790
 1553 02bc 0038223F 		.word	1059207168
 1554 02c0 3B70223F 		.word	1059221563
 1555 02c4 97A8223F 		.word	1059235991
 1556 02c8 05E1223F 		.word	1059250437
 1557 02cc 8319233F 		.word	1059264899
 1558 02d0 1152233F 		.word	1059279377
 1559 02d4 B18A233F 		.word	1059293873
 1560 02d8 72C3233F 		.word	1059308402
 1561 02dc 33FC233F 		.word	1059322931
 1562 02e0 1635243F 		.word	1059337494
 1563 02e4 096E243F 		.word	1059352073
 1564 02e8 0DA7243F 		.word	1059366669
 1565 02ec 22E0243F 		.word	1059381282
 1566 02f0 5919253F 		.word	1059395929
 1567 02f4 A052253F 		.word	1059410592
 1568 02f8 E78B253F 		.word	1059425255
 1569 02fc 61C5253F 		.word	1059439969
 1570 0300 DAFE253F 		.word	1059454682
 1571 0304 6538263F 		.word	1059469413
 1572 0308 1172263F 		.word	1059484177
 1573 030c CDAB263F 		.word	1059498957
 1574 0310 9BE5263F 		.word	1059513755
 1575 0314 791F273F 		.word	1059528569
 1576 0318 6859273F 		.word	1059543400
 1577 031c 7993273F 		.word	1059558265
 1578 0320 9ACD273F 		.word	1059573146
 1579 0324 CC07283F 		.word	1059588044
 1580 0328 0F42283F 		.word	1059602959
 1581 032c 637C283F 		.word	1059617891
 1582 0330 D8B6283F 		.word	1059632856
 1583 0334 5EF1283F 		.word	1059647838
 1584 0338 F52B293F 		.word	1059662837
 1585 033c 9D66293F 		.word	1059677853
 1586 0340 55A1293F 		.word	1059692885
 1587 0344 2FDC293F 		.word	1059707951
 1588 0348 1A172A3F 		.word	1059723034
 1589 034c 15522A3F 		.word	1059738133
 1590 0350 228D2A3F 		.word	1059753250
 1591 0354 50C82A3F 		.word	1059768400
 1592 0358 8E032B3F 		.word	1059783566
 1593 035c DE3E2B3F 		.word	1059798750
 1594 0360 3E7A2B3F 		.word	1059813950
 1595 0364 AFB52B3F 		.word	1059829167
 1596 0368 41F12B3F 		.word	1059844417
 1597 036c E42C2C3F 		.word	1059859684
 1598 0370 98682C3F 		.word	1059874968
ARM GAS  /var/folders/0z/tsy30v1j4xl4_7kw94k978ww0000gn/T//ccE8zZrE.s 			page 37


 1599 0374 5DA42C3F 		.word	1059890269
 1600 0378 44E02C3F 		.word	1059905604
 1601 037c 3B1C2D3F 		.word	1059920955
 1602 0380 43582D3F 		.word	1059936323
 1603 0384 5B942D3F 		.word	1059951707
 1604 0388 96D02D3F 		.word	1059967126
 1605 038c D00C2E3F 		.word	1059982544
 1606 0390 3D492E3F 		.word	1059998013
 1607 0394 A9852E3F 		.word	1060013481
 1608 0398 27C22E3F 		.word	1060028967
 1609 039c C5FE2E3F 		.word	1060044485
 1610 03a0 753B2F3F 		.word	1060060021
 1611 03a4 46782F3F 		.word	1060075590
 1612 03a8 18B52F3F 		.word	1060091160
 1613 03ac 0AF22F3F 		.word	1060106762
 1614 03b0 0E2F303F 		.word	1060122382
 1615 03b4 226C303F 		.word	1060138018
 1616 03b8 58A9303F 		.word	1060153688
 1617 03bc 9FE6303F 		.word	1060169375
 1618 03c0 F623313F 		.word	1060185078
 1619 03c4 5F61313F 		.word	1060200799
 1620 03c8 E99E313F 		.word	1060216553
 1621 03cc 83DC313F 		.word	1060232323
 1622 03d0 2E1A323F 		.word	1060248110
 1623 03d4 FB57323F 		.word	1060263931
 1624 03d8 C895323F 		.word	1060279752
 1625 03dc C8D3323F 		.word	1060295624
 1626 03e0 C711333F 		.word	1060311495
 1627 03e4 D74F333F 		.word	1060327383
 1628 03e8 088E333F 		.word	1060343304
 1629 03ec 5CCC333F 		.word	1060359260
 1630 03f0 AF0A343F 		.word	1060375215
 1631 03f4 2349343F 		.word	1060391203
 1632 03f8 A987343F 		.word	1060407209
 1633 03fc 3FC6343F 		.word	1060423231
 1634 0400 F704353F 		.word	1060439287
 1635 0404 BF43353F 		.word	1060455359
 1636 0408 9982353F 		.word	1060471449
 1637 040c 83C1353F 		.word	1060487555
 1638 0410 8F00363F 		.word	1060503695
 1639 0414 AB3F363F 		.word	1060519851
 1640 0418 E97E363F 		.word	1060536041
 1641 041c 38BE363F 		.word	1060552248
 1642 0420 97FD363F 		.word	1060568471
 1643 0424 083D373F 		.word	1060584712
 1644 0428 9A7C373F 		.word	1060600986
 1645 042c 3CBC373F 		.word	1060617276
 1646 0430 F0FB373F 		.word	1060633584
 1647 0434 C53B383F 		.word	1060649925
 1648 0438 AB7B383F 		.word	1060666283
 1649 043c A1BB383F 		.word	1060682657
 1650 0440 A9FB383F 		.word	1060699049
 1651 0444 D13B393F 		.word	1060715473
 1652 0448 1C7C393F 		.word	1060731932
 1653 044c 66BC393F 		.word	1060748390
 1654 0450 D2FC393F 		.word	1060764882
 1655 0454 4F3D3A3F 		.word	1060781391
ARM GAS  /var/folders/0z/tsy30v1j4xl4_7kw94k978ww0000gn/T//ccE8zZrE.s 			page 38


 1656 0458 ED7D3A3F 		.word	1060797933
 1657 045c 9DBE3A3F 		.word	1060814493
 1658 0460 5CFF3A3F 		.word	1060831068
 1659 0464 2D403B3F 		.word	1060847661
 1660 0468 1F813B3F 		.word	1060864287
 1661 046c 33C23B3F 		.word	1060880947
 1662 0470 47033C3F 		.word	1060897607
 1663 0474 7C443C3F 		.word	1060914300
 1664 0478 C2853C3F 		.word	1060931010
 1665 047c 2AC73C3F 		.word	1060947754
 1666 0480 A2083D3F 		.word	1060964514
 1667 0484 2C4A3D3F 		.word	1060981292
 1668 0488 D68B3D3F 		.word	1060998102
 1669 048c 92CD3D3F 		.word	1061014930
 1670 0490 6F0F3E3F 		.word	1061031791
 1671 0494 4C513E3F 		.word	1061048652
 1672 0498 4B933E3F 		.word	1061065547
 1673 049c 6BD53E3F 		.word	1061082475
 1674 04a0 9C173F3F 		.word	1061099420
 1675 04a4 DE593F3F 		.word	1061116382
 1676 04a8 419C3F3F 		.word	1061133377
 1677 04ac B5DE3F3F 		.word	1061150389
 1678 04b0 3A21403F 		.word	1061167418
 1679 04b4 E063403F 		.word	1061184480
 1680 04b8 98A6403F 		.word	1061201560
 1681 04bc 60E9403F 		.word	1061218656
 1682 04c0 492C413F 		.word	1061235785
 1683 04c4 446F413F 		.word	1061252932
 1684 04c8 5FB2413F 		.word	1061270111
 1685 04cc 8CF5413F 		.word	1061287308
 1686 04d0 DA38423F 		.word	1061304538
 1687 04d4 287C423F 		.word	1061321768
 1688 04d8 A9BF423F 		.word	1061339049
 1689 04dc 2A03433F 		.word	1061356330
 1690 04e0 CC46433F 		.word	1061373644
 1691 04e4 7E8A433F 		.word	1061390974
 1692 04e8 53CE433F 		.word	1061408339
 1693 04ec 3812443F 		.word	1061425720
 1694 04f0 3F56443F 		.word	1061443135
 1695 04f4 569A443F 		.word	1061460566
 1696 04f8 7FDE443F 		.word	1061478015
 1697 04fc C922453F 		.word	1061495497
 1698 0500 2367453F 		.word	1061512995
 1699 0504 9FAB453F 		.word	1061530527
 1700 0508 2CF0453F 		.word	1061548076
 1701 050c DB34463F 		.word	1061565659
 1702 0510 8979463F 		.word	1061583241
 1703 0514 6ABE463F 		.word	1061600874
 1704 0518 4B03473F 		.word	1061618507
 1705 051c 5E48473F 		.word	1061636190
 1706 0520 718D473F 		.word	1061653873
 1707 0524 A6D2473F 		.word	1061671590
 1708 0528 FC17483F 		.word	1061689340
 1709 052c 645D483F 		.word	1061707108
 1710 0530 DBA2483F 		.word	1061724891
 1711 0534 75E8483F 		.word	1061742709
 1712 0538 1F2E493F 		.word	1061760543
ARM GAS  /var/folders/0z/tsy30v1j4xl4_7kw94k978ww0000gn/T//ccE8zZrE.s 			page 39


 1713 053c DA73493F 		.word	1061778394
 1714 0540 B6B9493F 		.word	1061796278
 1715 0544 B5FF493F 		.word	1061814197
 1716 0548 C3454A3F 		.word	1061832131
 1717 054c E38B4A3F 		.word	1061850083
 1718 0550 24D24A3F 		.word	1061868068
 1719 0554 76184B3F 		.word	1061886070
 1720 0558 EA5E4B3F 		.word	1061904106
 1721 055c 6EA54B3F 		.word	1061922158
 1722 0560 14EC4B3F 		.word	1061940244
 1723 0564 CA324C3F 		.word	1061958346
 1724 0568 A3794C3F 		.word	1061976483
 1725 056c 8BC04C3F 		.word	1061994635
 1726 0570 85074D3F 		.word	1062012805
 1727 0574 A04E4D3F 		.word	1062031008
 1728 0578 DD954D3F 		.word	1062049245
 1729 057c 2BDD4D3F 		.word	1062067499
 1730 0580 89244E3F 		.word	1062085769
 1731 0584 096C4E3F 		.word	1062104073
 1732 0588 9AB34E3F 		.word	1062122394
 1733 058c 4CFB4E3F 		.word	1062140748
 1734 0590 20434F3F 		.word	1062159136
 1735 0594 F48A4F3F 		.word	1062177524
 1736 0598 FAD24F3F 		.word	1062195962
 1737 059c 001B503F 		.word	1062214400
 1738 05a0 3963503F 		.word	1062232889
 1739 05a4 71AB503F 		.word	1062251377
 1740 05a8 DCF3503F 		.word	1062269916
 1741 05ac 473C513F 		.word	1062288455
 1742 05b0 E484513F 		.word	1062307044
 1743 05b4 81CD513F 		.word	1062325633
 1744 05b8 5116523F 		.word	1062344273
 1745 05bc 205F523F 		.word	1062362912
 1746 05c0 22A8523F 		.word	1062381602
 1747 05c4 35F1523F 		.word	1062400309
 1748 05c8 583A533F 		.word	1062419032
 1749 05cc 9D83533F 		.word	1062437789
 1750 05d0 F3CC533F 		.word	1062456563
 1751 05d4 6A16543F 		.word	1062475370
 1752 05d8 F25F543F 		.word	1062494194
 1753 05dc 9BA9543F 		.word	1062513051
 1754 05e0 56F3543F 		.word	1062531926
 1755 05e4 323D553F 		.word	1062550834
 1756 05e8 2F87553F 		.word	1062569775
 1757 05ec 3DD1553F 		.word	1062588733
 1758 05f0 5C1B563F 		.word	1062607708
 1759 05f4 9D65563F 		.word	1062626717
 1760 05f8 FFAF563F 		.word	1062645759
 1761 05fc 72FA563F 		.word	1062664818
 1762 0600 F644573F 		.word	1062683894
 1763 0604 AC8F573F 		.word	1062703020
 1764 0608 62DA573F 		.word	1062722146
 1765 060c 4A25583F 		.word	1062741322
 1766 0610 3370583F 		.word	1062760499
 1767 0614 4DBB583F 		.word	1062779725
 1768 0618 7906593F 		.word	1062798969
 1769 061c B551593F 		.word	1062818229
ARM GAS  /var/folders/0z/tsy30v1j4xl4_7kw94k978ww0000gn/T//ccE8zZrE.s 			page 40


 1770 0620 139D593F 		.word	1062837523
 1771 0624 92E8593F 		.word	1062856850
 1772 0628 22345A3F 		.word	1062876194
 1773 062c D47F5A3F 		.word	1062895572
 1774 0630 96CB5A3F 		.word	1062914966
 1775 0634 7A175B3F 		.word	1062934394
 1776 0638 6F635B3F 		.word	1062953839
 1777 063c 86AF5B3F 		.word	1062973318
 1778 0640 BDFB5B3F 		.word	1062992829
 1779 0644 06485C3F 		.word	1063012358
 1780 0648 60945C3F 		.word	1063031904
 1781 064c EBE05C3F 		.word	1063051499
 1782 0650 882D5D3F 		.word	1063071112
 1783 0654 357A5D3F 		.word	1063090741
 1784 0658 04C75D3F 		.word	1063110404
 1785 065c F5135E3F 		.word	1063130101
 1786 0660 F6605E3F 		.word	1063149814
 1787 0664 19AE5E3F 		.word	1063169561
 1788 0668 4CFB5E3F 		.word	1063189324
 1789 066c A1485F3F 		.word	1063209121
 1790 0670 18965F3F 		.word	1063228952
 1791 0674 9FE35F3F 		.word	1063248799
 1792 0678 4831603F 		.word	1063268680
 1793 067c 027F603F 		.word	1063288578
 1794 0680 DECC603F 		.word	1063308510
 1795 0684 DA1A613F 		.word	1063328474
 1796 0688 E868613F 		.word	1063348456
 1797 068c 17B7613F 		.word	1063368471
 1798 0690 5705623F 		.word	1063388503
 1799 0694 B953623F 		.word	1063408569
 1800 0698 3CA2623F 		.word	1063428668
 1801 069c D0F0623F 		.word	1063448784
 1802 06a0 853F633F 		.word	1063468933
 1803 06a4 5C8E633F 		.word	1063489116
 1804 06a8 44DD633F 		.word	1063509316
 1805 06ac 4D2C643F 		.word	1063529549
 1806 06b0 677B643F 		.word	1063549799
 1807 06b4 A3CA643F 		.word	1063570083
 1808 06b8 001A653F 		.word	1063590400
 1809 06bc 7F69653F 		.word	1063610751
 1810 06c0 0FB9653F 		.word	1063631119
 1811 06c4 AF08663F 		.word	1063651503
 1812 06c8 8258663F 		.word	1063671938
 1813 06cc 54A8663F 		.word	1063692372
 1814 06d0 59F8663F 		.word	1063712857
 1815 06d4 6F48673F 		.word	1063733359
 1816 06d8 A698673F 		.word	1063753894
 1817 06dc FFE8673F 		.word	1063774463
 1818 06e0 6939683F 		.word	1063795049
 1819 06e4 F489683F 		.word	1063815668
 1820 06e8 A1DA683F 		.word	1063836321
 1821 06ec 5E2B693F 		.word	1063856990
 1822 06f0 3D7C693F 		.word	1063877693
 1823 06f4 2DCD693F 		.word	1063898413
 1824 06f8 4F1E6A3F 		.word	1063919183
 1825 06fc 726F6A3F 		.word	1063939954
 1826 0700 C6C06A3F 		.word	1063960774
ARM GAS  /var/folders/0z/tsy30v1j4xl4_7kw94k978ww0000gn/T//ccE8zZrE.s 			page 41


 1827 0704 2B126B3F 		.word	1063981611
 1828 0708 B2636B3F 		.word	1064002482
 1829 070c 5BB56B3F 		.word	1064023387
 1830 0710 14076C3F 		.word	1064044308
 1831 0714 EF586C3F 		.word	1064065263
 1832 0718 EBAA6C3F 		.word	1064086251
 1833 071c F8FC6C3F 		.word	1064107256
 1834 0720 374F6D3F 		.word	1064128311
 1835 0724 77A16D3F 		.word	1064149367
 1836 0728 E9F36D3F 		.word	1064170473
 1837 072c 6B466E3F 		.word	1064191595
 1838 0730 0F996E3F 		.word	1064212751
 1839 0734 D5EB6E3F 		.word	1064233941
 1840 0738 AB3E6F3F 		.word	1064255147
 1841 073c A3916F3F 		.word	1064276387
 1842 0740 BDE46F3F 		.word	1064297661
 1843 0744 E737703F 		.word	1064318951
 1844 0748 448B703F 		.word	1064340292
 1845 074c A0DE703F 		.word	1064361632
 1846 0750 2F32713F 		.word	1064383023
 1847 0754 CF85713F 		.word	1064404431
 1848 0758 A1D9713F 		.word	1064425889
 1849 075c 732D723F 		.word	1064447347
 1850 0760 7781723F 		.word	1064468855
 1851 0764 8DD5723F 		.word	1064490381
 1852 0768 C329733F 		.word	1064511939
 1853 076c 1C7E733F 		.word	1064533532
 1854 0770 95D2733F 		.word	1064555157
 1855 0774 2027743F 		.word	1064576800
 1856 0778 CC7B743F 		.word	1064598476
 1857 077c 9AD0743F 		.word	1064620186
 1858 0780 7825753F 		.word	1064641912
 1859 0784 897A753F 		.word	1064663689
 1860 0788 ABCF753F 		.word	1064685483
 1861 078c DD24763F 		.word	1064707293
 1862 0790 427A763F 		.word	1064729154
 1863 0794 B7CF763F 		.word	1064751031
 1864 0798 4E25773F 		.word	1064772942
 1865 079c 077B773F 		.word	1064794887
 1866 07a0 E1D0773F 		.word	1064816865
 1867 07a4 CC26783F 		.word	1064838860
 1868 07a8 D97C783F 		.word	1064860889
 1869 07ac 07D3783F 		.word	1064882951
 1870 07b0 5629793F 		.word	1064905046
 1871 07b4 C77F793F 		.word	1064927175
 1872 07b8 49D6793F 		.word	1064949321
 1873 07bc ED2C7A3F 		.word	1064971501
 1874 07c0 B2837A3F 		.word	1064993714
 1875 07c4 98DA7A3F 		.word	1065015960
 1876 07c8 90317B3F 		.word	1065038224
 1877 07cc B9887B3F 		.word	1065060537
 1878 07d0 F4DF7B3F 		.word	1065082868
 1879 07d4 50377C3F 		.word	1065105232
 1880 07d8 BD8E7C3F 		.word	1065127613
 1881 07dc 5CE67C3F 		.word	1065150044
 1882 07e0 0C3E7D3F 		.word	1065172492
 1883 07e4 DD957D3F 		.word	1065194973
ARM GAS  /var/folders/0z/tsy30v1j4xl4_7kw94k978ww0000gn/T//ccE8zZrE.s 			page 42


 1884 07e8 D0ED7D3F 		.word	1065217488
 1885 07ec E5457E3F 		.word	1065240037
 1886 07f0 0A9E7E3F 		.word	1065262602
 1887 07f4 62F67E3F 		.word	1065285218
 1888 07f8 CA4E7F3F 		.word	1065307850
 1889 07fc 54A77F3F 		.word	1065330516
 1890 0800 0000803F 		.word	1065353216
 1891 0804 772C803F 		.word	1065364599
 1892 0808 0859803F 		.word	1065376008
 1893 080c A185803F 		.word	1065387425
 1894 0810 4AB2803F 		.word	1065398858
 1895 0814 FCDE803F 		.word	1065410300
 1896 0818 C80B813F 		.word	1065421768
 1897 081c 9B38813F 		.word	1065433243
 1898 0820 8865813F 		.word	1065444744
 1899 0824 7D92813F 		.word	1065456253
 1900 0828 83BF813F 		.word	1065467779
 1901 082c 9AEC813F 		.word	1065479322
 1902 0830 C119823F 		.word	1065490881
 1903 0834 F146823F 		.word	1065502449
 1904 0838 3A74823F 		.word	1065514042
 1905 083c 8CA1823F 		.word	1065525644
 1906 0840 EECE823F 		.word	1065537262
 1907 0844 69FC823F 		.word	1065548905
 1908 0848 ED29833F 		.word	1065560557
 1909 084c 8257833F 		.word	1065572226
 1910 0850 1F85833F 		.word	1065583903
 1911 0854 D5B2833F 		.word	1065595605
 1912 0858 9CE0833F 		.word	1065607324
 1913 085c 6B0E843F 		.word	1065619051
 1914 0860 533C843F 		.word	1065630803
 1915 0864 446A843F 		.word	1065642564
 1916 0868 4698843F 		.word	1065654342
 1917 086c 58C6843F 		.word	1065666136
 1918 0870 7BF4843F 		.word	1065677947
 1919 0874 AF22853F 		.word	1065689775
 1920 0878 F450853F 		.word	1065701620
 1921 087c 4A7F853F 		.word	1065713482
 1922 0880 A7AD853F 		.word	1065725351
 1923 0884 1EDC853F 		.word	1065737246
 1924 0888 9E0A863F 		.word	1065749150
 1925 088c 3739863F 		.word	1065761079
 1926 0890 D767863F 		.word	1065773015
 1927 0894 9296863F 		.word	1065784978
 1928 0898 54C5863F 		.word	1065796948
 1929 089c 28F4863F 		.word	1065808936
 1930 08a0 0C23873F 		.word	1065820940
 1931 08a4 0052873F 		.word	1065832960
 1932 08a8 0681873F 		.word	1065844998
 1933 08ac 1DB0873F 		.word	1065857053
 1934 08b0 44DF873F 		.word	1065869124
 1935 08b4 7C0E883F 		.word	1065881212
 1936 08b8 C53D883F 		.word	1065893317
 1937 08bc 166D883F 		.word	1065905430
 1938 08c0 809C883F 		.word	1065917568
 1939 08c4 FBCB883F 		.word	1065929723
 1940 08c8 7FFB883F 		.word	1065941887
ARM GAS  /var/folders/0z/tsy30v1j4xl4_7kw94k978ww0000gn/T//ccE8zZrE.s 			page 43


 1941 08cc 1B2B893F 		.word	1065954075
 1942 08d0 C95A893F 		.word	1065966281
 1943 08d4 7E8A893F 		.word	1065978494
 1944 08d8 4DBA893F 		.word	1065990733
 1945 08dc 25EA893F 		.word	1066002981
 1946 08e0 151A8A3F 		.word	1066015253
 1947 08e4 0E4A8A3F 		.word	1066027534
 1948 08e8 207A8A3F 		.word	1066039840
 1949 08ec 3BAA8A3F 		.word	1066052155
 1950 08f0 6EDA8A3F 		.word	1066064494
 1951 08f4 AA0A8B3F 		.word	1066076842
 1952 08f8 003B8B3F 		.word	1066089216
 1953 08fc 5D6B8B3F 		.word	1066101597
 1954 0900 D49B8B3F 		.word	1066114004
 1955 0904 53CC8B3F 		.word	1066126419
 1956 0908 EBFC8B3F 		.word	1066138859
 1957 090c 8C2D8C3F 		.word	1066151308
 1958 0910 465E8C3F 		.word	1066163782
 1959 0914 088F8C3F 		.word	1066176264
 1960 0918 E4BF8C3F 		.word	1066188772
 1961 091c C7F08C3F 		.word	1066201287
 1962 0920 C4218D3F 		.word	1066213828
 1963 0924 D2528D3F 		.word	1066226386
 1964 0928 E8838D3F 		.word	1066238952
 1965 092c 18B58D3F 		.word	1066251544
 1966 0930 58E68D3F 		.word	1066264152
 1967 0934 A0178E3F 		.word	1066276768
 1968 0938 02498E3F 		.word	1066289410
 1969 093c 747A8E3F 		.word	1066302068
 1970 0940 F7AB8E3F 		.word	1066314743
 1971 0944 8BDD8E3F 		.word	1066327435
 1972 0948 300F8F3F 		.word	1066340144
 1973 094c E6408F3F 		.word	1066352870
 1974 0950 AC728F3F 		.word	1066365612
 1975 0954 83A48F3F 		.word	1066378371
 1976 0958 73D68F3F 		.word	1066391155
 1977 095c 6C08903F 		.word	1066403948
 1978 0960 753A903F 		.word	1066416757
 1979 0964 986C903F 		.word	1066429592
 1980 0968 C39E903F 		.word	1066442435
 1981 096c 07D1903F 		.word	1066455303
 1982 0970 5C03913F 		.word	1066468188
 1983 0974 B935913F 		.word	1066481081
 1984 0978 3068913F 		.word	1066494000
 1985 097c B79A913F 		.word	1066506935
 1986 0980 4FCD913F 		.word	1066519887
 1987 0984 F8FF913F 		.word	1066532856
 1988 0988 BA32923F 		.word	1066545850
 1989 098c 8465923F 		.word	1066558852
 1990 0990 6798923F 		.word	1066571879
 1991 0994 53CB923F 		.word	1066584915
 1992 0998 58FE923F 		.word	1066597976
 1993 099c 6E31933F 		.word	1066611054
 1994 09a0 8C64933F 		.word	1066624140
 1995 09a4 C497933F 		.word	1066637252
 1996 09a8 14CB933F 		.word	1066650388
 1997 09ac 6DFE933F 		.word	1066663533
ARM GAS  /var/folders/0z/tsy30v1j4xl4_7kw94k978ww0000gn/T//ccE8zZrE.s 			page 44


 1998 09b0 D731943F 		.word	1066676695
 1999 09b4 5A65943F 		.word	1066689882
 2000 09b8 E598943F 		.word	1066703077
 2001 09bc 8ACC943F 		.word	1066716298
 2002 09c0 3F00953F 		.word	1066729535
 2003 09c4 0534953F 		.word	1066742789
 2004 09c8 E467953F 		.word	1066756068
 2005 09cc CC9B953F 		.word	1066769356
 2006 09d0 C4CF953F 		.word	1066782660
 2007 09d4 D503963F 		.word	1066795989
 2008 09d8 F837963F 		.word	1066809336
 2009 09dc 2B6C963F 		.word	1066822699
 2010 09e0 6FA0963F 		.word	1066836079
 2011 09e4 C3D4963F 		.word	1066849475
 2012 09e8 3109973F 		.word	1066862897
 2013 09ec B03D973F 		.word	1066876336
 2014 09f0 3672973F 		.word	1066889782
 2015 09f4 D7A6973F 		.word	1066903255
 2016 09f8 90DB973F 		.word	1066916752
 2017 09fc 5210983F 		.word	1066930258
 2018 0a00 2445983F 		.word	1066943780
 2019 0a04 107A983F 		.word	1066957328
 2020 0a08 0CAF983F 		.word	1066970892
 2021 0a0c 19E4983F 		.word	1066984473
 2022 0a10 3F19993F 		.word	1066998079
 2023 0a14 6E4E993F 		.word	1067011694
 2024 0a18 B683993F 		.word	1067025334
 2025 0a1c 0FB9993F 		.word	1067038991
 2026 0a20 78EE993F 		.word	1067052664
 2027 0a24 F2239A3F 		.word	1067066354
 2028 0a28 86599A3F 		.word	1067080070
 2029 0a2c 2A8F9A3F 		.word	1067093802
 2030 0a30 DFC49A3F 		.word	1067107551
 2031 0a34 A4FA9A3F 		.word	1067121316
 2032 0a38 7B309B3F 		.word	1067135099
 2033 0a3c 6B669B3F 		.word	1067148907
 2034 0a40 6B9C9B3F 		.word	1067162731
 2035 0a44 7CD29B3F 		.word	1067176572
 2036 0a48 A7089C3F 		.word	1067190439
 2037 0a4c D93E9C3F 		.word	1067204313
 2038 0a50 25759C3F 		.word	1067218213
 2039 0a54 82AB9C3F 		.word	1067232130
 2040 0a58 F8E19C3F 		.word	1067246072
 2041 0a5c 76189D3F 		.word	1067260022
 2042 0a60 0E4F9D3F 		.word	1067273998
 2043 0a64 BE859D3F 		.word	1067287998
 2044 0a68 77BC9D3F 		.word	1067302007
 2045 0a6c 49F39D3F 		.word	1067316041
 2046 0a70 2C2A9E3F 		.word	1067330092
 2047 0a74 20619E3F 		.word	1067344160
 2048 0a78 24989E3F 		.word	1067358244
 2049 0a7c 42CF9E3F 		.word	1067372354
 2050 0a80 70069F3F 		.word	1067386480
 2051 0a84 B83D9F3F 		.word	1067400632
 2052 0a88 08759F3F 		.word	1067414792
 2053 0a8c 71AC9F3F 		.word	1067428977
 2054 0a90 F3E39F3F 		.word	1067443187
ARM GAS  /var/folders/0z/tsy30v1j4xl4_7kw94k978ww0000gn/T//ccE8zZrE.s 			page 45


 2055 0a94 7E1BA03F 		.word	1067457406
 2056 0a98 2253A03F 		.word	1067471650
 2057 0a9c D78AA03F 		.word	1067485911
 2058 0aa0 A4C2A03F 		.word	1067500196
 2059 0aa4 7BFAA03F 		.word	1067514491
 2060 0aa8 7232A13F 		.word	1067528818
 2061 0aac 726AA13F 		.word	1067543154
 2062 0ab0 8CA2A13F 		.word	1067557516
 2063 0ab4 B6DAA13F 		.word	1067571894
 2064 0ab8 F112A23F 		.word	1067586289
 2065 0abc 454BA23F 		.word	1067600709
 2066 0ac0 A983A23F 		.word	1067615145
 2067 0ac4 1FBCA23F 		.word	1067629599
 2068 0ac8 AEF4A23F 		.word	1067644078
 2069 0acc 4D2DA33F 		.word	1067658573
 2070 0ad0 FE65A33F 		.word	1067673086
 2071 0ad4 C79EA33F 		.word	1067687623
 2072 0ad8 A1D7A33F 		.word	1067702177
 2073 0adc 9510A43F 		.word	1067716757
 2074 0ae0 9949A43F 		.word	1067731353
 2075 0ae4 AE82A43F 		.word	1067745966
 2076 0ae8 D4BBA43F 		.word	1067760596
 2077 0aec 12F5A43F 		.word	1067775250
 2078 0af0 622EA53F 		.word	1067789922
 2079 0af4 CB67A53F 		.word	1067804619
 2080 0af8 45A1A53F 		.word	1067819333
 2081 0afc D7DAA53F 		.word	1067834071
 2082 0b00 7214A63F 		.word	1067848818
 2083 0b04 2F4EA63F 		.word	1067863599
 2084 0b08 F487A63F 		.word	1067878388
 2085 0b0c D3C1A63F 		.word	1067893203
 2086 0b10 CAFBA63F 		.word	1067908042
 2087 0b14 CA35A73F 		.word	1067922890
 2088 0b18 E36FA73F 		.word	1067937763
 2089 0b1c 15AAA73F 		.word	1067952661
 2090 0b20 58E4A73F 		.word	1067967576
 2091 0b24 AC1EA83F 		.word	1067982508
 2092 0b28 1959A83F 		.word	1067997465
 2093 0b2c 9693A83F 		.word	1068012438
 2094 0b30 2DCEA83F 		.word	1068027437
 2095 0b34 D508A93F 		.word	1068042453
 2096 0b38 9643A93F 		.word	1068057494
 2097 0b3c 677EA93F 		.word	1068072551
 2098 0b40 49B9A93F 		.word	1068087625
 2099 0b44 45F4A93F 		.word	1068102725
 2100 0b48 512FAA3F 		.word	1068117841
 2101 0b4c 776AAA3F 		.word	1068132983
 2102 0b50 ADA5AA3F 		.word	1068148141
 2103 0b54 FCE0AA3F 		.word	1068163324
 2104 0b58 5C1CAB3F 		.word	1068178524
 2105 0b5c CD57AB3F 		.word	1068193741
 2106 0b60 5793AB3F 		.word	1068208983
 2107 0b64 FBCEAB3F 		.word	1068224251
 2108 0b68 AF0AAC3F 		.word	1068239535
 2109 0b6c 7446AC3F 		.word	1068254836
 2110 0b70 5182AC3F 		.word	1068270161
 2111 0b74 40BEAC3F 		.word	1068285504
ARM GAS  /var/folders/0z/tsy30v1j4xl4_7kw94k978ww0000gn/T//ccE8zZrE.s 			page 46


 2112 0b78 48FAAC3F 		.word	1068300872
 2113 0b7c 6936AD3F 		.word	1068316265
 2114 0b80 9372AD3F 		.word	1068331667
 2115 0b84 DEAEAD3F 		.word	1068347102
 2116 0b88 3AEBAD3F 		.word	1068362554
 2117 0b8c A627AE3F 		.word	1068378022
 2118 0b90 2C64AE3F 		.word	1068393516
 2119 0b94 C3A0AE3F 		.word	1068409027
 2120 0b98 72DDAE3F 		.word	1068424562
 2121 0b9c 331AAF3F 		.word	1068440115
 2122 0ba0 0C57AF3F 		.word	1068455692
 2123 0ba4 FF93AF3F 		.word	1068471295
 2124 0ba8 FAD0AF3F 		.word	1068486906
 2125 0bac 170EB03F 		.word	1068502551
 2126 0bb0 454BB03F 		.word	1068518213
 2127 0bb4 8388B03F 		.word	1068533891
 2128 0bb8 DAC5B03F 		.word	1068549594
 2129 0bbc 4B03B13F 		.word	1068565323
 2130 0bc0 CC40B13F 		.word	1068581068
 2131 0bc4 677EB13F 		.word	1068596839
 2132 0bc8 12BCB13F 		.word	1068612626
 2133 0bcc D7F9B13F 		.word	1068628439
 2134 0bd0 AC37B23F 		.word	1068644268
 2135 0bd4 9B75B23F 		.word	1068660123
 2136 0bd8 A2B3B23F 		.word	1068676002
 2137 0bdc BBF1B23F 		.word	1068691899
 2138 0be0 E42FB33F 		.word	1068707812
 2139 0be4 266EB33F 		.word	1068723750
 2140 0be8 82ACB33F 		.word	1068739714
 2141 0bec EEEAB33F 		.word	1068755694
 2142 0bf0 7429B43F 		.word	1068771700
 2143 0bf4 1268B43F 		.word	1068787730
 2144 0bf8 C2A6B43F 		.word	1068803778
 2145 0bfc 8AE5B43F 		.word	1068819850
 2146 0c00 6424B53F 		.word	1068835940
 2147 0c04 5663B53F 		.word	1068852054
 2148 0c08 59A2B53F 		.word	1068868185
 2149 0c0c 7EE1B53F 		.word	1068884350
 2150 0c10 AB20B63F 		.word	1068900523
 2151 0c14 FA5FB63F 		.word	1068916730
 2152 0c18 5A9FB63F 		.word	1068932954
 2153 0c1c CADEB63F 		.word	1068949194
 2154 0c20 5C1EB73F 		.word	1068965468
 2155 0c24 F65DB73F 		.word	1068981750
 2156 0c28 B29DB73F 		.word	1068998066
 2157 0c2c 7FDDB73F 		.word	1069014399
 2158 0c30 651DB83F 		.word	1069030757
 2159 0c34 5B5DB83F 		.word	1069047131
 2160 0c38 6B9DB83F 		.word	1069063531
 2161 0c3c 94DDB83F 		.word	1069079956
 2162 0c40 D61DB93F 		.word	1069096406
 2163 0c44 295EB93F 		.word	1069112873
 2164 0c48 8C9EB93F 		.word	1069129356
 2165 0c4c 11DFB93F 		.word	1069145873
 2166 0c50 A71FBA3F 		.word	1069162407
 2167 0c54 5760BA3F 		.word	1069178967
 2168 0c58 16A1BA3F 		.word	1069195542
ARM GAS  /var/folders/0z/tsy30v1j4xl4_7kw94k978ww0000gn/T//ccE8zZrE.s 			page 47


 2169 0c5c EFE1BA3F 		.word	1069212143
 2170 0c60 E222BB3F 		.word	1069228770
 2171 0c64 E563BB3F 		.word	1069245413
 2172 0c68 09A5BB3F 		.word	1069262089
 2173 0c6c 36E6BB3F 		.word	1069278774
 2174 0c70 8527BC3F 		.word	1069295493
 2175 0c74 E468BC3F 		.word	1069312228
 2176 0c78 5CAABC3F 		.word	1069328988
 2177 0c7c EEEBBC3F 		.word	1069345774
 2178 0c80 902DBD3F 		.word	1069362576
 2179 0c84 546FBD3F 		.word	1069379412
 2180 0c88 21B1BD3F 		.word	1069396257
 2181 0c8c 0EF3BD3F 		.word	1069413134
 2182 0c90 0D35BE3F 		.word	1069430029
 2183 0c94 2577BE3F 		.word	1069446949
 2184 0c98 56B9BE3F 		.word	1069463894
 2185 0c9c A0FBBE3F 		.word	1069480864
 2186 0ca0 FB3DBF3F 		.word	1069497851
 2187 0ca4 6F80BF3F 		.word	1069514863
 2188 0ca8 FCC2BF3F 		.word	1069531900
 2189 0cac 9A05C03F 		.word	1069548954
 2190 0cb0 5A48C03F 		.word	1069566042
 2191 0cb4 2A8BC03F 		.word	1069583146
 2192 0cb8 0CCEC03F 		.word	1069600268
 2193 0cbc 0E11C13F 		.word	1069617422
 2194 0cc0 2254C13F 		.word	1069634594
 2195 0cc4 5797C13F 		.word	1069651799
 2196 0cc8 94DAC13F 		.word	1069669012
 2197 0ccc F31DC23F 		.word	1069686259
 2198 0cd0 6B61C23F 		.word	1069703531
 2199 0cd4 F4A4C23F 		.word	1069720820
 2200 0cd8 96E8C23F 		.word	1069738134
 2201 0cdc 522CC33F 		.word	1069755474
 2202 0ce0 2670C33F 		.word	1069772838
 2203 0ce4 0BB4C33F 		.word	1069790219
 2204 0ce8 12F8C33F 		.word	1069807634
 2205 0cec 293CC43F 		.word	1069825065
 2206 0cf0 5A80C43F 		.word	1069842522
 2207 0cf4 9CC4C43F 		.word	1069859996
 2208 0cf8 FF08C53F 		.word	1069877503
 2209 0cfc 7B4DC53F 		.word	1069895035
 2210 0d00 0892C53F 		.word	1069912584
 2211 0d04 AED6C53F 		.word	1069930158
 2212 0d08 6D1BC63F 		.word	1069947757
 2213 0d0c 4660C63F 		.word	1069965382
 2214 0d10 2FA5C63F 		.word	1069983023
 2215 0d14 3AEAC63F 		.word	1070000698
 2216 0d18 552FC73F 		.word	1070018389
 2217 0d1c 9274C73F 		.word	1070036114
 2218 0d20 E0B9C73F 		.word	1070053856
 2219 0d24 47FFC73F 		.word	1070071623
 2220 0d28 C844C83F 		.word	1070089416
 2221 0d2c 598AC83F 		.word	1070107225
 2222 0d30 0BD0C83F 		.word	1070125067
 2223 0d34 CF15C93F 		.word	1070142927
 2224 0d38 B45BC93F 		.word	1070160820
 2225 0d3c A9A1C93F 		.word	1070178729
ARM GAS  /var/folders/0z/tsy30v1j4xl4_7kw94k978ww0000gn/T//ccE8zZrE.s 			page 48


 2226 0d40 B8E7C93F 		.word	1070196664
 2227 0d44 E02DCA3F 		.word	1070214624
 2228 0d48 2174CA3F 		.word	1070232609
 2229 0d4c 7CBACA3F 		.word	1070250620
 2230 0d50 EF00CB3F 		.word	1070268655
 2231 0d54 7C47CB3F 		.word	1070286716
 2232 0d58 228ECB3F 		.word	1070304802
 2233 0d5c D8D4CB3F 		.word	1070322904
 2234 0d60 B01BCC3F 		.word	1070341040
 2235 0d64 9962CC3F 		.word	1070359193
 2236 0d68 A4A9CC3F 		.word	1070377380
 2237 0d6c BFF0CC3F 		.word	1070395583
 2238 0d70 F437CD3F 		.word	1070413812
 2239 0d74 417FCD3F 		.word	1070432065
 2240 0d78 B0C6CD3F 		.word	1070450352
 2241 0d7c 300ECE3F 		.word	1070468656
 2242 0d80 C955CE3F 		.word	1070486985
 2243 0d84 7C9DCE3F 		.word	1070505340
 2244 0d88 47E5CE3F 		.word	1070523719
 2245 0d8c 2C2DCF3F 		.word	1070542124
 2246 0d90 2975CF3F 		.word	1070560553
 2247 0d94 40BDCF3F 		.word	1070579008
 2248 0d98 7105D03F 		.word	1070597489
 2249 0d9c BA4DD03F 		.word	1070615994
 2250 0da0 1C96D03F 		.word	1070634524
 2251 0da4 98DED03F 		.word	1070653080
 2252 0da8 2D27D13F 		.word	1070671661
 2253 0dac DB6FD13F 		.word	1070690267
 2254 0db0 A2B8D13F 		.word	1070708898
 2255 0db4 8201D23F 		.word	1070727554
 2256 0db8 7B4AD23F 		.word	1070746235
 2257 0dbc 8E93D23F 		.word	1070764942
 2258 0dc0 BADCD23F 		.word	1070783674
 2259 0dc4 FF25D33F 		.word	1070802431
 2260 0dc8 5D6FD33F 		.word	1070821213
 2261 0dcc D4B8D33F 		.word	1070840020
 2262 0dd0 6402D43F 		.word	1070858852
 2263 0dd4 164CD43F 		.word	1070877718
 2264 0dd8 D995D43F 		.word	1070896601
 2265 0ddc B5DFD43F 		.word	1070915509
 2266 0de0 B329D53F 		.word	1070934451
 2267 0de4 C173D53F 		.word	1070953409
 2268 0de8 F1BDD53F 		.word	1070972401
 2269 0dec 3108D63F 		.word	1070991409
 2270 0df0 9352D63F 		.word	1071010451
 2271 0df4 0F9DD63F 		.word	1071029519
 2272 0df8 A3E7D63F 		.word	1071048611
 2273 0dfc 5132D73F 		.word	1071067729
 2274 0e00 187DD73F 		.word	1071086872
 2275 0e04 F7C7D73F 		.word	1071106039
 2276 0e08 F112D83F 		.word	1071125233
 2277 0e0c 035ED83F 		.word	1071144451
 2278 0e10 37A9D83F 		.word	1071163703
 2279 0e14 7BF4D83F 		.word	1071182971
 2280 0e18 E23FD93F 		.word	1071202274
 2281 0e1c 618BD93F 		.word	1071221601
 2282 0e20 F9D6D93F 		.word	1071240953
ARM GAS  /var/folders/0z/tsy30v1j4xl4_7kw94k978ww0000gn/T//ccE8zZrE.s 			page 49


 2283 0e24 AB22DA3F 		.word	1071260331
 2284 0e28 766EDA3F 		.word	1071279734
 2285 0e2c 62BADA3F 		.word	1071299170
 2286 0e30 6006DB3F 		.word	1071318624
 2287 0e34 7E52DB3F 		.word	1071338110
 2288 0e38 AE9EDB3F 		.word	1071357614
 2289 0e3c FFEADB3F 		.word	1071377151
 2290 0e40 7237DC3F 		.word	1071396722
 2291 0e44 F583DC3F 		.word	1071416309
 2292 0e48 91D0DC3F 		.word	1071435921
 2293 0e4c 501DDD3F 		.word	1071455568
 2294 0e50 276ADD3F 		.word	1071475239
 2295 0e54 17B7DD3F 		.word	1071494935
 2296 0e58 2104DE3F 		.word	1071514657
 2297 0e5c 4451DE3F 		.word	1071534404
 2298 0e60 889EDE3F 		.word	1071554184
 2299 0e64 E6EBDE3F 		.word	1071573990
 2300 0e68 5439DF3F 		.word	1071593812
 2301 0e6c EC86DF3F 		.word	1071613676
 2302 0e70 95D4DF3F 		.word	1071633557
 2303 0e74 6022E03F 		.word	1071653472
 2304 0e78 3B70E03F 		.word	1071673403
 2305 0e7c 40BEE03F 		.word	1071693376
 2306 0e80 560CE13F 		.word	1071713366
 2307 0e84 865AE13F 		.word	1071733382
 2308 0e88 D6A8E13F 		.word	1071753430
 2309 0e8c 40F7E13F 		.word	1071773504
 2310 0e90 C345E23F 		.word	1071793603
 2311 0e94 6894E23F 		.word	1071813736
 2312 0e98 26E3E23F 		.word	1071833894
 2313 0e9c FD31E33F 		.word	1071854077
 2314 0ea0 ED80E33F 		.word	1071874285
 2315 0ea4 F6CFE33F 		.word	1071894518
 2316 0ea8 211FE43F 		.word	1071914785
 2317 0eac 656EE43F 		.word	1071935077
 2318 0eb0 CBBDE43F 		.word	1071955403
 2319 0eb4 410DE53F 		.word	1071975745
 2320 0eb8 D95CE53F 		.word	1071996121
 2321 0ebc 93ACE53F 		.word	1072016531
 2322 0ec0 5DFCE53F 		.word	1072036957
 2323 0ec4 494CE63F 		.word	1072057417
 2324 0ec8 4E9CE63F 		.word	1072077902
 2325 0ecc 74ECE63F 		.word	1072098420
 2326 0ed0 B43CE73F 		.word	1072118964
 2327 0ed4 0D8DE73F 		.word	1072139533
 2328 0ed8 7FDDE73F 		.word	1072160127
 2329 0edc 122EE83F 		.word	1072180754
 2330 0ee0 BF7EE83F 		.word	1072201407
 2331 0ee4 8DCFE83F 		.word	1072222093
 2332 0ee8 7520E93F 		.word	1072242805
 2333 0eec 7671E93F 		.word	1072263542
 2334 0ef0 8FC2E93F 		.word	1072284303
 2335 0ef4 CB13EA3F 		.word	1072305099
 2336 0ef8 2865EA3F 		.word	1072325928
 2337 0efc 95B6EA3F 		.word	1072346773
 2338 0f00 2508EB3F 		.word	1072367653
 2339 0f04 D559EB3F 		.word	1072388565
ARM GAS  /var/folders/0z/tsy30v1j4xl4_7kw94k978ww0000gn/T//ccE8zZrE.s 			page 50


 2340 0f08 97ABEB3F 		.word	1072409495
 2341 0f0c 7AFDEB3F 		.word	1072430458
 2342 0f10 7F4FEC3F 		.word	1072451455
 2343 0f14 9DA1EC3F 		.word	1072472477
 2344 0f18 D4F3EC3F 		.word	1072493524
 2345 0f1c 2C46ED3F 		.word	1072514604
 2346 0f20 9E98ED3F 		.word	1072535710
 2347 0f24 31EBED3F 		.word	1072556849
 2348 0f28 DE3DEE3F 		.word	1072578014
 2349 0f2c A390EE3F 		.word	1072599203
 2350 0f30 8AE3EE3F 		.word	1072620426
 2351 0f34 8B36EF3F 		.word	1072641675
 2352 0f38 AD89EF3F 		.word	1072662957
 2353 0f3c E8DCEF3F 		.word	1072684264
 2354 0f40 4430F03F 		.word	1072705604
 2355 0f44 BA83F03F 		.word	1072726970
 2356 0f48 52D7F03F 		.word	1072748370
 2357 0f4c 022BF13F 		.word	1072769794
 2358 0f50 CC7EF13F 		.word	1072791244
 2359 0f54 B7D2F13F 		.word	1072812727
 2360 0f58 BB26F23F 		.word	1072834235
 2361 0f5c E17AF23F 		.word	1072855777
 2362 0f60 29CFF23F 		.word	1072877353
 2363 0f64 8123F33F 		.word	1072898945
 2364 0f68 0378F33F 		.word	1072920579
 2365 0f6c 9FCCF33F 		.word	1072942239
 2366 0f70 5321F43F 		.word	1072963923
 2367 0f74 2976F43F 		.word	1072985641
 2368 0f78 19CBF43F 		.word	1073007385
 2369 0f7c 2920F53F 		.word	1073029161
 2370 0f80 5C75F53F 		.word	1073050972
 2371 0f84 A7CAF53F 		.word	1073072807
 2372 0f88 0C20F63F 		.word	1073094668
 2373 0f8c 9275F63F 		.word	1073116562
 2374 0f90 3ACBF63F 		.word	1073138490
 2375 0f94 FB20F73F 		.word	1073160443
 2376 0f98 D576F73F 		.word	1073182421
 2377 0f9c D9CCF73F 		.word	1073204441
 2378 0fa0 EE22F83F 		.word	1073226478
 2379 0fa4 2D79F83F 		.word	1073248557
 2380 0fa8 85CFF83F 		.word	1073270661
 2381 0fac F625F93F 		.word	1073292790
 2382 0fb0 897CF93F 		.word	1073314953
 2383 0fb4 3DD3F93F 		.word	1073337149
 2384 0fb8 0B2AFA3F 		.word	1073359371
 2385 0fbc FA80FA3F 		.word	1073381626
 2386 0fc0 0AD8FA3F 		.word	1073403914
 2387 0fc4 342FFB3F 		.word	1073426228
 2388 0fc8 7786FB3F 		.word	1073448567
 2389 0fcc E3DDFB3F 		.word	1073470947
 2390 0fd0 6935FC3F 		.word	1073493353
 2391 0fd4 098DFC3F 		.word	1073515785
 2392 0fd8 C9E4FC3F 		.word	1073538249
 2393 0fdc AC3CFD3F 		.word	1073560748
 2394 0fe0 AF94FD3F 		.word	1073583279
 2395 0fe4 CCECFD3F 		.word	1073605836
 2396 0fe8 0245FE3F 		.word	1073628418
ARM GAS  /var/folders/0z/tsy30v1j4xl4_7kw94k978ww0000gn/T//ccE8zZrE.s 			page 51


 2397 0fec 629DFE3F 		.word	1073651042
 2398 0ff0 DCF5FE3F 		.word	1073673692
 2399 0ff4 774EFF3F 		.word	1073696375
 2400 0ff8 2AA7FF3F 		.word	1073719082
 2401 0ffc 00000040 		.word	1073741824
 2402              		.text
 2403              	.Letext0:
 2404              		.file 3 "/Users/johannes/Library/Application Support/Code/User/globalStorage/bmd.stm32-for-vscode/
 2405              		.file 4 "/Users/johannes/Library/Application Support/Code/User/globalStorage/bmd.stm32-for-vscode/
 2406              		.file 5 "Drivers/CMSIS/Device/ST/STM32F4xx/Include/stm32f407xx.h"
 2407              		.file 6 "Drivers/STM32F4xx_HAL_Driver/Inc/stm32f4xx_hal_def.h"
 2408              		.file 7 "Drivers/STM32F4xx_HAL_Driver/Inc/stm32f4xx_hal_dma.h"
 2409              		.file 8 "Drivers/STM32F4xx_HAL_Driver/Inc/stm32f4xx_hal_i2s.h"
 2410              		.file 9 "Core/Inc/audio.h"
 2411              		.file 10 "Core/Inc/oscillators.h"
 2412              		.file 11 "Core/Inc/ADSR_envelope.h"
 2413              		.file 12 "Core/Inc/ladder_filter.h"
 2414              		.file 13 "Core/Inc/MIDI_lut.h"
 2415              		.file 14 "Core/Inc/stereo_delay.h"
 2416              		.file 15 "Core/Inc/../../Drivers/BSP/STM32F4-Discovery/stm32f4_discovery_audio.h"
ARM GAS  /var/folders/0z/tsy30v1j4xl4_7kw94k978ww0000gn/T//ccE8zZrE.s 			page 52


DEFINED SYMBOLS
                            *ABS*:0000000000000000 audio.c
/var/folders/0z/tsy30v1j4xl4_7kw94k978ww0000gn/T//ccE8zZrE.s:20     .text.audioBlock.constprop.0:0000000000000000 $t
/var/folders/0z/tsy30v1j4xl4_7kw94k978ww0000gn/T//ccE8zZrE.s:26     .text.audioBlock.constprop.0:0000000000000000 audioBlock.constprop.0
/var/folders/0z/tsy30v1j4xl4_7kw94k978ww0000gn/T//ccE8zZrE.s:438    .text.audioBlock.constprop.0:00000000000001b0 $d
/var/folders/0z/tsy30v1j4xl4_7kw94k978ww0000gn/T//ccE8zZrE.s:457    .text.AUDIO_Init:0000000000000000 $t
/var/folders/0z/tsy30v1j4xl4_7kw94k978ww0000gn/T//ccE8zZrE.s:464    .text.AUDIO_Init:0000000000000000 AUDIO_Init
/var/folders/0z/tsy30v1j4xl4_7kw94k978ww0000gn/T//ccE8zZrE.s:560    .text.AUDIO_Init:0000000000000098 $d
/var/folders/0z/tsy30v1j4xl4_7kw94k978ww0000gn/T//ccE8zZrE.s:574    .text.OpSetFreq:0000000000000000 $t
/var/folders/0z/tsy30v1j4xl4_7kw94k978ww0000gn/T//ccE8zZrE.s:581    .text.OpSetFreq:0000000000000000 OpSetFreq
/var/folders/0z/tsy30v1j4xl4_7kw94k978ww0000gn/T//ccE8zZrE.s:601    .text.OpSetFreq:0000000000000010 $d
/var/folders/0z/tsy30v1j4xl4_7kw94k978ww0000gn/T//ccE8zZrE.s:606    .text.audioBlock:0000000000000000 $t
/var/folders/0z/tsy30v1j4xl4_7kw94k978ww0000gn/T//ccE8zZrE.s:613    .text.audioBlock:0000000000000000 audioBlock
/var/folders/0z/tsy30v1j4xl4_7kw94k978ww0000gn/T//ccE8zZrE.s:1063   .text.audioBlock:00000000000001c8 $d
/var/folders/0z/tsy30v1j4xl4_7kw94k978ww0000gn/T//ccE8zZrE.s:1084   .text.BSP_AUDIO_OUT_HalfTransfer_CallBack:0000000000000000 $t
/var/folders/0z/tsy30v1j4xl4_7kw94k978ww0000gn/T//ccE8zZrE.s:1091   .text.BSP_AUDIO_OUT_HalfTransfer_CallBack:0000000000000000 BSP_AUDIO_OUT_HalfTransfer_CallBack
/var/folders/0z/tsy30v1j4xl4_7kw94k978ww0000gn/T//ccE8zZrE.s:1105   .text.BSP_AUDIO_OUT_HalfTransfer_CallBack:0000000000000008 $d
/var/folders/0z/tsy30v1j4xl4_7kw94k978ww0000gn/T//ccE8zZrE.s:1110   .text.BSP_AUDIO_OUT_TransferComplete_CallBack:0000000000000000 $t
/var/folders/0z/tsy30v1j4xl4_7kw94k978ww0000gn/T//ccE8zZrE.s:1117   .text.BSP_AUDIO_OUT_TransferComplete_CallBack:0000000000000000 BSP_AUDIO_OUT_TransferComplete_CallBack
/var/folders/0z/tsy30v1j4xl4_7kw94k978ww0000gn/T//ccE8zZrE.s:1131   .text.BSP_AUDIO_OUT_TransferComplete_CallBack:0000000000000008 $d
/var/folders/0z/tsy30v1j4xl4_7kw94k978ww0000gn/T//ccE8zZrE.s:1136   .text.BSP_AUDIO_OUT_Error_CallBack:0000000000000000 $t
/var/folders/0z/tsy30v1j4xl4_7kw94k978ww0000gn/T//ccE8zZrE.s:1143   .text.BSP_AUDIO_OUT_Error_CallBack:0000000000000000 BSP_AUDIO_OUT_Error_CallBack
/var/folders/0z/tsy30v1j4xl4_7kw94k978ww0000gn/T//ccE8zZrE.s:1160   .text.DMA1_Stream7_IRQHandler:0000000000000000 $t
/var/folders/0z/tsy30v1j4xl4_7kw94k978ww0000gn/T//ccE8zZrE.s:1167   .text.DMA1_Stream7_IRQHandler:0000000000000000 DMA1_Stream7_IRQHandler
/var/folders/0z/tsy30v1j4xl4_7kw94k978ww0000gn/T//ccE8zZrE.s:1182   .text.DMA1_Stream7_IRQHandler:0000000000000008 $d
/var/folders/0z/tsy30v1j4xl4_7kw94k978ww0000gn/T//ccE8zZrE.s:1187   .text.DMA1_Stream3_IRQHandler:0000000000000000 $t
/var/folders/0z/tsy30v1j4xl4_7kw94k978ww0000gn/T//ccE8zZrE.s:1194   .text.DMA1_Stream3_IRQHandler:0000000000000000 DMA1_Stream3_IRQHandler
/var/folders/0z/tsy30v1j4xl4_7kw94k978ww0000gn/T//ccE8zZrE.s:1209   .text.DMA1_Stream3_IRQHandler:0000000000000008 $d
/var/folders/0z/tsy30v1j4xl4_7kw94k978ww0000gn/T//ccE8zZrE.s:1237   .bss.delayROut:0000000000000000 delayROut
/var/folders/0z/tsy30v1j4xl4_7kw94k978ww0000gn/T//ccE8zZrE.s:1230   .bss.delayLOut:0000000000000000 delayLOut
/var/folders/0z/tsy30v1j4xl4_7kw94k978ww0000gn/T//ccE8zZrE.s:1223   .bss.audioBuffer:0000000000000000 audioBuffer
/var/folders/0z/tsy30v1j4xl4_7kw94k978ww0000gn/T//ccE8zZrE.s:1377   .rodata.pbend:0000000000000000 pbend
/var/folders/0z/tsy30v1j4xl4_7kw94k978ww0000gn/T//ccE8zZrE.s:1244   .rodata.mtof:0000000000000000 mtof
/var/folders/0z/tsy30v1j4xl4_7kw94k978ww0000gn/T//ccE8zZrE.s:1219   .bss.audioBuffer:0000000000000000 $d
/var/folders/0z/tsy30v1j4xl4_7kw94k978ww0000gn/T//ccE8zZrE.s:1226   .bss.delayLOut:0000000000000000 $d
/var/folders/0z/tsy30v1j4xl4_7kw94k978ww0000gn/T//ccE8zZrE.s:1233   .bss.delayROut:0000000000000000 $d
/var/folders/0z/tsy30v1j4xl4_7kw94k978ww0000gn/T//ccE8zZrE.s:1240   .rodata.mtof:0000000000000000 $d
/var/folders/0z/tsy30v1j4xl4_7kw94k978ww0000gn/T//ccE8zZrE.s:1374   .rodata.pbend:0000000000000000 $d

UNDEFINED SYMBOLS
osc_polyblepSaw
osc_polyblepRect
ADSR_compute
MoogLP_compute
pingpongDelay_compute
osc1
osc2
sub_osc
adsr_filt
Moog_filter
adsr_amp
currentPitch
BSP_AUDIO_OUT_Init
BSP_AUDIO_OUT_Play
osc_init
ADSR_init
MoogLP_init
ARM GAS  /var/folders/0z/tsy30v1j4xl4_7kw94k978ww0000gn/T//ccE8zZrE.s 			page 53


Delay_init
HAL_DMA_IRQHandler
hAudioOutI2s
hAudioInI2s
