ARM GAS  /var/folders/0z/tsy30v1j4xl4_7kw94k978ww0000gn/T//ccm5Xl3w.s 			page 1


   1              		.cpu cortex-m4
   2              		.arch armv7e-m
   3              		.fpu fpv4-sp-d16
   4              		.eabi_attribute 27, 1
   5              		.eabi_attribute 28, 1
   6              		.eabi_attribute 20, 1
   7              		.eabi_attribute 21, 1
   8              		.eabi_attribute 23, 3
   9              		.eabi_attribute 24, 1
  10              		.eabi_attribute 25, 1
  11              		.eabi_attribute 26, 1
  12              		.eabi_attribute 30, 2
  13              		.eabi_attribute 34, 1
  14              		.eabi_attribute 18, 4
  15              		.file	"audio.c"
  16              		.text
  17              	.Ltext0:
  18              		.cfi_sections	.debug_frame
  19              		.global	__aeabi_f2d
  20              		.global	__aeabi_dsub
  21              		.global	__aeabi_d2f
  22              		.section	.text.audioBlock.constprop.0,"ax",%progbits
  23              		.align	1
  24              		.p2align 2,,3
  25              		.syntax unified
  26              		.thumb
  27              		.thumb_func
  29              	audioBlock.constprop.0:
  30              	.LVL0:
  31              	.LFB248:
  32              		.file 1 "Core/Src/audio.c"
   1:Core/Src/audio.c **** /**
   2:Core/Src/audio.c ****  * @file audio.c
   3:Core/Src/audio.c ****  * @author johannes regnier
   4:Core/Src/audio.c ****  * @brief Functions to make sound and main audio block function 
   5:Core/Src/audio.c ****  * @note  Essential initialization functions from Tom Erbe:	
   6:Core/Src/audio.c ****  * @note  http://synthnotes.ucsd.edu/wp4/index.php/2019/09/24/setting-up-the-stmf4-to-connect-to-th
   7:Core/Src/audio.c ****  * @version 0.1
   8:Core/Src/audio.c ****  * @date 2023-12-12
   9:Core/Src/audio.c ****  * 
  10:Core/Src/audio.c ****  * @copyright Copyright (c) 2023
  11:Core/Src/audio.c ****  * 
  12:Core/Src/audio.c ****  */
  13:Core/Src/audio.c **** 
  14:Core/Src/audio.c **** 
  15:Core/Src/audio.c **** #include <stdint.h>
  16:Core/Src/audio.c **** #include "audio.h"
  17:Core/Src/audio.c **** #include "oscillators.h"
  18:Core/Src/audio.c **** #include "ADSR_envelope.h"
  19:Core/Src/audio.c **** #include "ladder_filter.h"
  20:Core/Src/audio.c **** #include "bitcrusher.h"
  21:Core/Src/audio.c **** #include "flanger.h"
  22:Core/Src/audio.c **** #include "stereo_delay.h"
  23:Core/Src/audio.c **** #include "MIDI_lut.h"
  24:Core/Src/audio.c **** #include <stdint.h>
  25:Core/Src/audio.c **** #include "helper_functions.h"
  26:Core/Src/audio.c **** #include "stdlib.h"
ARM GAS  /var/folders/0z/tsy30v1j4xl4_7kw94k978ww0000gn/T//ccm5Xl3w.s 			page 2


  27:Core/Src/audio.c **** 
  28:Core/Src/audio.c **** 
  29:Core/Src/audio.c **** 
  30:Core/Src/audio.c **** 
  31:Core/Src/audio.c **** 
  32:Core/Src/audio.c **** /**
  33:Core/Src/audio.c ****  * @brief Audio Buffer - x samples X 2 channels = 2 * x samples
  34:Core/Src/audio.c ****  * @note Channels are interleaved - LRLRLRLRLRLRLRLRLRLRLR - audioBuffer[frame << 1] audioBuffer[(f
  35:Core/Src/audio.c ****  */
  36:Core/Src/audio.c **** int16_t audioBuffer[BUFFER_SIZE]; 
  37:Core/Src/audio.c **** 
  38:Core/Src/audio.c **** 
  39:Core/Src/audio.c **** extern uint8_t currentPitch;
  40:Core/Src/audio.c **** extern uint8_t velocity, noteOn_velocity;
  41:Core/Src/audio.c **** extern ADSR_t adsr_amp, adsr_filt;
  42:Core/Src/audio.c **** extern ADSR_t adsr_index;
  43:Core/Src/audio.c **** extern ZDFLadder_t Moog_filter;
  44:Core/Src/audio.c **** extern oscillator_t osc1, osc2, osc3, osc4, sub_osc;
  45:Core/Src/audio.c **** extern float pot1_norm, pot2_norm;
  46:Core/Src/audio.c **** 
  47:Core/Src/audio.c **** static float f0;			// frequency of oscillators 1 & 2
  48:Core/Src/audio.c **** static float f_sub ;		// frequency of sub oscillator
  49:Core/Src/audio.c **** static float amp_env ;		// amplitude envelope
  50:Core/Src/audio.c **** static float filt_env ;		// filter envelope
  51:Core/Src/audio.c **** static float index_env ;	// FM index envelope
  52:Core/Src/audio.c **** 
  53:Core/Src/audio.c **** float delayLOut = 0 ;		// left output of ping pong delay
  54:Core/Src/audio.c **** float delayROut = 0;		// right output of ping pong delay
  55:Core/Src/audio.c **** 
  56:Core/Src/audio.c **** 
  57:Core/Src/audio.c **** 
  58:Core/Src/audio.c **** 
  59:Core/Src/audio.c **** /**
  60:Core/Src/audio.c ****  * @brief Initialize audio
  61:Core/Src/audio.c ****  * 
  62:Core/Src/audio.c ****  */
  63:Core/Src/audio.c **** void AUDIO_Init()
  64:Core/Src/audio.c **** {
  65:Core/Src/audio.c ****     BSP_AUDIO_OUT_Init(OUTPUT_DEVICE_HEADPHONE, INITIAL_VOLUME, FS);
  66:Core/Src/audio.c **** 
  67:Core/Src/audio.c **** 	/**
  68:Core/Src/audio.c **** 	 * @brief Ping pong buffer
  69:Core/Src/audio.c **** 	 * @note While one audiobuffer is transmitted via DMA, another one is computed
  70:Core/Src/audio.c **** 	 * @note Hence size = 2 * (audiobuffer size)
  71:Core/Src/audio.c **** 	 */
  72:Core/Src/audio.c **** 	BSP_AUDIO_OUT_Play((uint16_t *)&audioBuffer[0], 2*BUFFER_SIZE); 
  73:Core/Src/audio.c **** 
  74:Core/Src/audio.c **** 	
  75:Core/Src/audio.c **** 	
  76:Core/Src/audio.c **** 	osc_init(&osc1, 0.5, 1000, 0, 0, 0.5);
  77:Core/Src/audio.c **** 	osc_init(&osc2, 0.5, 440, 0, 2, 0.5);
  78:Core/Src/audio.c **** 	osc_init(&osc3, 0.5, 1000, 0, 0, 0.5);
  79:Core/Src/audio.c **** 	osc_init(&osc4, 0.5, 440, 0, 0, 0.5);
  80:Core/Src/audio.c **** 	osc_init(&sub_osc, 0.5, 440, 0, 0, 0.5);
  81:Core/Src/audio.c **** 
  82:Core/Src/audio.c **** 
  83:Core/Src/audio.c **** 	ADSR_init(&adsr_amp);
ARM GAS  /var/folders/0z/tsy30v1j4xl4_7kw94k978ww0000gn/T//ccm5Xl3w.s 			page 3


  84:Core/Src/audio.c **** 	ADSR_init(&adsr_filt);
  85:Core/Src/audio.c **** 	ADSR_init(&adsr_index);
  86:Core/Src/audio.c **** 	MoogLP_init(&Moog_filter);
  87:Core/Src/audio.c **** 	// flanger_init();
  88:Core/Src/audio.c **** 	Delay_init();
  89:Core/Src/audio.c **** }
  90:Core/Src/audio.c **** 
  91:Core/Src/audio.c **** void OpSetFreq(oscillator_t * op, float f)
  92:Core/Src/audio.c **** {
  93:Core/Src/audio.c **** 	op->freq = A0 * f;
  94:Core/Src/audio.c **** }
  95:Core/Src/audio.c **** 
  96:Core/Src/audio.c **** 
  97:Core/Src/audio.c **** 
  98:Core/Src/audio.c **** /**
  99:Core/Src/audio.c ****  * @brief Main audio function. This is where the audio samples are computed, then the audio buffer 
 100:Core/Src/audio.c ****  * 
 101:Core/Src/audio.c ****  * @param buffer 
 102:Core/Src/audio.c ****  * @param samples 
 103:Core/Src/audio.c ****  */
 104:Core/Src/audio.c **** void audioBlock(int16_t *buffer, uint16_t samples)
  33              		.loc 1 104 6 view -0
  34              		.cfi_startproc
  35              		@ args = 0, pretend = 0, frame = 0
  36              		@ frame_needed = 0, uses_anonymous_args = 0
 105:Core/Src/audio.c **** {
 106:Core/Src/audio.c **** 	int i;
 107:Core/Src/audio.c **** 	int16_t *output;
 108:Core/Src/audio.c **** 	output = buffer;
 109:Core/Src/audio.c **** 	float sample, sampleL, sampleR;
 110:Core/Src/audio.c **** 	uint16_t valueL, valueR;
 111:Core/Src/audio.c **** 	
 112:Core/Src/audio.c **** 
 113:Core/Src/audio.c **** 	for (i = 0; i < samples; i++)
  37              		.loc 1 113 16 view .LVU1
 104:Core/Src/audio.c **** {
  38              		.loc 1 104 6 is_stmt 0 view .LVU2
  39 0000 2DE9F84F 		push	{r3, r4, r5, r6, r7, r8, r9, r10, fp, lr}
  40              		.cfi_def_cfa_offset 40
  41              		.cfi_offset 3, -40
  42              		.cfi_offset 4, -36
  43              		.cfi_offset 5, -32
  44              		.cfi_offset 6, -28
  45              		.cfi_offset 7, -24
  46              		.cfi_offset 8, -20
  47              		.cfi_offset 9, -16
  48              		.cfi_offset 10, -12
  49              		.cfi_offset 11, -8
  50              		.cfi_offset 14, -4
  51 0004 8A4F     		ldr	r7, .L17+8
  52 0006 DFF86CA2 		ldr	r10, .L17+76
  53 000a 8A4E     		ldr	r6, .L17+12
  54 000c DFF86892 		ldr	r9, .L17+80
  55 0010 2DED088B 		vpush.64	{d8, d9, d10, d11}
  56              		.cfi_def_cfa_offset 72
  57              		.cfi_offset 80, -72
  58              		.cfi_offset 81, -68
ARM GAS  /var/folders/0z/tsy30v1j4xl4_7kw94k978ww0000gn/T//ccm5Xl3w.s 			page 4


  59              		.cfi_offset 82, -64
  60              		.cfi_offset 83, -60
  61              		.cfi_offset 84, -56
  62              		.cfi_offset 85, -52
  63              		.cfi_offset 86, -48
  64              		.cfi_offset 87, -44
 104:Core/Src/audio.c **** {
  65              		.loc 1 104 6 view .LVU3
  66 0014 8046     		mov	r8, r0
  67              	.LBB48:
  68              	.LBB49:
  93:Core/Src/audio.c **** }
  69              		.loc 1 93 16 view .LVU4
  70 0016 DFED888A 		vldr.32	s17, .L17+16
  71              	.LBE49:
  72              	.LBE48:
  73 001a DFED88AA 		vldr.32	s21, .L17+20
 114:Core/Src/audio.c **** 	{
 115:Core/Src/audio.c **** 
 116:Core/Src/audio.c **** 		f0 = mtof[currentPitch];
 117:Core/Src/audio.c **** 		
 118:Core/Src/audio.c **** 		/* test with 3 oscillators*/
 119:Core/Src/audio.c **** 		OpSetFreq(&osc1, f0);
 120:Core/Src/audio.c **** 		OpSetFreq(&osc2, f0);
 121:Core/Src/audio.c **** 		OpSetFreq(&osc3, f0-0.2);
 122:Core/Src/audio.c **** 		OpSetFreq(&osc4, f0 + 0.5);
 123:Core/Src/audio.c **** 		
 124:Core/Src/audio.c **** 		f_sub = mtof[max(currentPitch - 12, 0)];
 125:Core/Src/audio.c **** 		OpSetFreq(&sub_osc, f_sub);
 126:Core/Src/audio.c **** 		sample = 0.5*(osc_polyblepSaw(&osc1) + osc_polyblepSaw(&osc2) + osc_polyblepSaw(&osc3) + osc_poly
 127:Core/Src/audio.c **** 		// sample = 0*osc_polyblepSaw(&osc1) + osc_polyblepRect(&sub_osc);
 128:Core/Src/audio.c **** 		// sample = osc_Sine(&osc1);
 129:Core/Src/audio.c **** 
 130:Core/Src/audio.c **** 		// FM
 131:Core/Src/audio.c **** 		//index_env = ADSR_compute(&adsr_index);
 132:Core/Src/audio.c **** 		//osc1.FM_index = (noteOn_velocity/127.f) * 0.033 * index_env;	
 133:Core/Src/audio.c **** 		//sample = osc_FM2OP(f0);
 134:Core/Src/audio.c **** 
 135:Core/Src/audio.c **** 		/****************** Apply filter ***********************/
 136:Core/Src/audio.c **** 		filt_env = ADSR_compute(&adsr_filt);
 137:Core/Src/audio.c **** 		Moog_filter.cutoff =clip(10.f * filt_env + 12000.f * pot1_norm, 20, 12000); // probably error in 
  74              		.loc 1 137 54 view .LVU5
  75 001e DFED889A 		vldr.32	s19, .L17+24
 138:Core/Src/audio.c **** 		Moog_filter.k = 4.5f * pot2_norm;
 139:Core/Src/audio.c **** 
 140:Core/Src/audio.c **** 		sample = MoogLP_compute(&Moog_filter, sample);
 141:Core/Src/audio.c **** 
 142:Core/Src/audio.c **** 		/************** Apply amplitude envelope ****************/
 143:Core/Src/audio.c **** 		amp_env = ADSR_compute(&adsr_amp);
 144:Core/Src/audio.c **** 		sample *= amp_env;
 145:Core/Src/audio.c **** 
 146:Core/Src/audio.c **** 		
 147:Core/Src/audio.c **** 		/************** Apply bitcrushing effect ***************/
 148:Core/Src/audio.c **** 		// sample = decimator(sample, 0.2, 16);
 149:Core/Src/audio.c **** 
 150:Core/Src/audio.c **** 		/************** Apply flanging effect ***************/
 151:Core/Src/audio.c **** 		// sample = flanger_compute(sample); // TODO
ARM GAS  /var/folders/0z/tsy30v1j4xl4_7kw94k978ww0000gn/T//ccm5Xl3w.s 			page 5


 152:Core/Src/audio.c **** 
 153:Core/Src/audio.c **** 		/************** Apply delay effect ****************/
 154:Core/Src/audio.c **** 		pingpongDelay_compute(sample, &delayLOut, &delayROut);
 155:Core/Src/audio.c **** 		sampleL = delayLOut;
 156:Core/Src/audio.c **** 		sampleR = delayROut;
 157:Core/Src/audio.c **** 		//sampleL = sample;
 158:Core/Src/audio.c **** 		//sampleR = sample;
 159:Core/Src/audio.c **** 
 160:Core/Src/audio.c **** 		/****************** softclip outputs ********************/
 161:Core/Src/audio.c **** 		sampleL = SoftClip(sampleL);
 162:Core/Src/audio.c **** 		sampleR = SoftClip(sampleR);
 163:Core/Src/audio.c **** 
 164:Core/Src/audio.c **** 		/*************** Convert to 16 bits int *****************/
 165:Core/Src/audio.c **** 		valueL = ((int16_t) ((32767.0f) * sampleL)); 
  76              		.loc 1 165 35 view .LVU6
  77 0022 9FED88AA 		vldr.32	s20, .L17+28
 113:Core/Src/audio.c **** 	{
  78              		.loc 1 113 9 view .LVU7
  79 0026 0024     		movs	r4, #0
 122:Core/Src/audio.c **** 		
  80              		.loc 1 122 3 view .LVU8
  81 0028 B6EE009A 		vmov.f32	s18, #5.0e-1
  82 002c 00F1020B 		add	fp, r0, #2
  83 0030 51E0     		b	.L5
  84              	.LVL1:
  85              	.L15:
  86              	.LBB52:
  87              	.LBB53:
  88              		.file 2 "Core/Inc/helper_functions.h"
   1:Core/Inc/helper_functions.h **** /**
   2:Core/Inc/helper_functions.h ****  * @file helper_functions.h
   3:Core/Inc/helper_functions.h ****  * @author johannes regnier
   4:Core/Inc/helper_functions.h ****  * @brief Various math tools 
   5:Core/Inc/helper_functions.h ****  * @version 0.1
   6:Core/Inc/helper_functions.h ****  * @date 2023-12-30
   7:Core/Inc/helper_functions.h ****  * 
   8:Core/Inc/helper_functions.h ****  * @copyright Copyright (c) 2023
   9:Core/Inc/helper_functions.h ****  * 
  10:Core/Inc/helper_functions.h ****  */
  11:Core/Inc/helper_functions.h **** 
  12:Core/Inc/helper_functions.h **** #ifndef _HELPER_FUNCTIONS_H
  13:Core/Inc/helper_functions.h **** #define _HELPER_FUNCTIONS_H
  14:Core/Inc/helper_functions.h **** 
  15:Core/Inc/helper_functions.h **** 
  16:Core/Inc/helper_functions.h **** #include <math.h>
  17:Core/Inc/helper_functions.h **** #include <stdint.h>
  18:Core/Inc/helper_functions.h **** 
  19:Core/Inc/helper_functions.h **** #ifndef NOMINMAX
  20:Core/Inc/helper_functions.h **** 
  21:Core/Inc/helper_functions.h **** #ifndef max
  22:Core/Inc/helper_functions.h **** #define max(a,b)            (((a) > (b)) ? (a) : (b))
  23:Core/Inc/helper_functions.h **** #endif
  24:Core/Inc/helper_functions.h **** 
  25:Core/Inc/helper_functions.h **** #ifndef min
  26:Core/Inc/helper_functions.h **** #define min(a,b)            (((a) < (b)) ? (a) : (b))
  27:Core/Inc/helper_functions.h **** #endif
  28:Core/Inc/helper_functions.h **** 
ARM GAS  /var/folders/0z/tsy30v1j4xl4_7kw94k978ww0000gn/T//ccm5Xl3w.s 			page 6


  29:Core/Inc/helper_functions.h **** #endif  /* NOMINMAX */
  30:Core/Inc/helper_functions.h **** 
  31:Core/Inc/helper_functions.h **** /**
  32:Core/Inc/helper_functions.h ****  * @brief Keep value between 0 and max
  33:Core/Inc/helper_functions.h ****  * 
  34:Core/Inc/helper_functions.h ****  * @param value 
  35:Core/Inc/helper_functions.h ****  * @param max 
  36:Core/Inc/helper_functions.h ****  * @return float 
  37:Core/Inc/helper_functions.h ****  */
  38:Core/Inc/helper_functions.h **** inline float wrap(float value, float max)   
  39:Core/Inc/helper_functions.h **** {
  40:Core/Inc/helper_functions.h ****     if (value < 0.f)
  41:Core/Inc/helper_functions.h ****         value += max;
  42:Core/Inc/helper_functions.h ****     if (value >= max)
  43:Core/Inc/helper_functions.h ****         value -= max;
  44:Core/Inc/helper_functions.h **** 
  45:Core/Inc/helper_functions.h ****     return value;
  46:Core/Inc/helper_functions.h **** }
  47:Core/Inc/helper_functions.h **** 
  48:Core/Inc/helper_functions.h **** inline float Crossfade(float a, float b, float fade)
  49:Core/Inc/helper_functions.h **** {
  50:Core/Inc/helper_functions.h ****     return a + (b - a) * fade;
  51:Core/Inc/helper_functions.h **** }
  52:Core/Inc/helper_functions.h **** 
  53:Core/Inc/helper_functions.h **** 
  54:Core/Inc/helper_functions.h **** /**
  55:Core/Inc/helper_functions.h ****  * @brief Pade-approximation of tanh for soft clipping
  56:Core/Inc/helper_functions.h ****  * @ from https://www.musicdsp.org/en/latest/Other/238-rational-tanh-approximation.html 
  57:Core/Inc/helper_functions.h ****  * @param x 
  58:Core/Inc/helper_functions.h ****  * @return float 
  59:Core/Inc/helper_functions.h ****  */
  60:Core/Inc/helper_functions.h **** inline float SoftClip(float x)
  61:Core/Inc/helper_functions.h **** {
  62:Core/Inc/helper_functions.h ****     if (x < -3.0f)
  63:Core/Inc/helper_functions.h ****     {
  64:Core/Inc/helper_functions.h ****         return -1.0f;
  65:Core/Inc/helper_functions.h ****     }
  66:Core/Inc/helper_functions.h ****     else if (x > 3.0f)
  89              		.loc 2 66 10 is_stmt 1 view .LVU9
  90              		.loc 2 66 13 is_stmt 0 view .LVU10
  91 0032 F0EE086A 		vmov.f32	s13, #3.0e+0
  92 0036 B4EEE67A 		vcmpe.f32	s14, s13
  93 003a F1EE10FA 		vmrs	APSR_nzcv, FPSCR
  94 003e 00F3EC80 		bgt	.L8
  95              	.LVL2:
  96              	.LBB54:
  97              	.LBI54:
  60:Core/Inc/helper_functions.h **** {
  98              		.loc 2 60 14 is_stmt 1 view .LVU11
  99              	.LBB55:
  67:Core/Inc/helper_functions.h ****     {
  68:Core/Inc/helper_functions.h ****         return 1.0f;
  69:Core/Inc/helper_functions.h ****     }
  70:Core/Inc/helper_functions.h ****     else
  71:Core/Inc/helper_functions.h ****     {
  72:Core/Inc/helper_functions.h ****         return x * (27.0f + x * x) / (27.0f + 9.0f * x * x);
 100              		.loc 2 72 9 view .LVU12
ARM GAS  /var/folders/0z/tsy30v1j4xl4_7kw94k978ww0000gn/T//ccm5Xl3w.s 			page 7


 101              		.loc 2 72 27 is_stmt 0 view .LVU13
 102 0042 F3EE0B6A 		vmov.f32	s13, #2.7e+1
 103              		.loc 2 72 52 view .LVU14
 104 0046 F2EE025A 		vmov.f32	s11, #9.0e+0
 105 004a 67EE255A 		vmul.f32	s11, s14, s11
 106              		.loc 2 72 27 view .LVU15
 107 004e B0EE665A 		vmov.f32	s10, s13
 108 0052 A7EE075A 		vfma.f32	s10, s14, s14
 109              		.loc 2 72 45 view .LVU16
 110 0056 E7EE256A 		vfma.f32	s13, s14, s11
 111              		.loc 2 72 18 view .LVU17
 112 005a 27EE057A 		vmul.f32	s14, s14, s10
 113              	.LVL3:
 114              		.loc 2 72 45 view .LVU18
 115 005e B0EE666A 		vmov.f32	s12, s13
 116              	.LVL4:
 117              		.loc 2 72 36 view .LVU19
 118 0062 C7EE066A 		vdiv.f32	s13, s14, s12
 119              	.LBE55:
 120              	.LBE54:
 121              	.LBE53:
 122              	.LBE52:
 123              		.loc 1 165 35 view .LVU20
 124 0066 26EE8A7A 		vmul.f32	s14, s13, s20
 125              		.loc 1 165 13 view .LVU21
 126 006a BDEEC77A 		vcvt.s32.f32	s14, s14
 127 006e 17EE103A 		vmov	r3, s14	@ int
 128 0072 1AB2     		sxth	r2, r3
 129              	.L3:
 130              	.LVL5:
 162:Core/Src/audio.c **** 
 131              		.loc 1 162 3 is_stmt 1 view .LVU22
 132              	.LBB60:
 133              	.LBI60:
  60:Core/Inc/helper_functions.h **** {
 134              		.loc 2 60 14 view .LVU23
 135              	.LBB61:
  62:Core/Inc/helper_functions.h ****     {
 136              		.loc 2 62 5 view .LVU24
  62:Core/Inc/helper_functions.h ****     {
 137              		.loc 2 62 8 is_stmt 0 view .LVU25
 138 0074 B8EE087A 		vmov.f32	s14, #-3.0e+0
 139 0078 F4EEC77A 		vcmpe.f32	s15, s14
 140 007c F1EE10FA 		vmrs	APSR_nzcv, FPSCR
 141 0080 00F1BE80 		bmi	.L9
 142              	.L16:
  66:Core/Inc/helper_functions.h ****     {
 143              		.loc 2 66 10 is_stmt 1 view .LVU26
  66:Core/Inc/helper_functions.h ****     {
 144              		.loc 2 66 13 is_stmt 0 view .LVU27
 145 0084 B0EE087A 		vmov.f32	s14, #3.0e+0
 146 0088 F4EEC77A 		vcmpe.f32	s15, s14
 147 008c F1EE10FA 		vmrs	APSR_nzcv, FPSCR
 148 0090 00F3C680 		bgt	.L10
 149              	.LVL6:
 150              	.LBB62:
 151              	.LBI62:
ARM GAS  /var/folders/0z/tsy30v1j4xl4_7kw94k978ww0000gn/T//ccm5Xl3w.s 			page 8


  60:Core/Inc/helper_functions.h **** {
 152              		.loc 2 60 14 is_stmt 1 view .LVU28
 153              	.LBB63:
 154              		.loc 2 72 9 view .LVU29
 155              		.loc 2 72 27 is_stmt 0 view .LVU30
 156 0094 B3EE0B7A 		vmov.f32	s14, #2.7e+1
 157              		.loc 2 72 52 view .LVU31
 158 0098 B2EE026A 		vmov.f32	s12, #9.0e+0
 159 009c 27EE866A 		vmul.f32	s12, s15, s12
 160              		.loc 2 72 27 view .LVU32
 161 00a0 F0EE475A 		vmov.f32	s11, s14
 162 00a4 E7EEA75A 		vfma.f32	s11, s15, s15
 163              		.loc 2 72 45 view .LVU33
 164 00a8 A7EE867A 		vfma.f32	s14, s15, s12
 165              		.loc 2 72 18 view .LVU34
 166 00ac 67EEA57A 		vmul.f32	s15, s15, s11
 167              	.LVL7:
 168              		.loc 2 72 45 view .LVU35
 169 00b0 F0EE476A 		vmov.f32	s13, s14
 170              	.LVL8:
 171              		.loc 2 72 36 view .LVU36
 172 00b4 87EEA67A 		vdiv.f32	s14, s15, s13
 173              	.LBE63:
 174              	.LBE62:
 175              	.LBE61:
 176              	.LBE60:
 166:Core/Src/audio.c **** 		valueR = ((int16_t) ((32767.0f) * sampleR));
 177              		.loc 1 166 35 view .LVU37
 178 00b8 67EE0A7A 		vmul.f32	s15, s14, s20
 179              		.loc 1 166 13 view .LVU38
 180 00bc FDEEE77A 		vcvt.s32.f32	s15, s15
 181 00c0 17EE903A 		vmov	r3, s15	@ int
 182 00c4 1BB2     		sxth	r3, r3
 183              	.L4:
 184              	.LVL9:
 165:Core/Src/audio.c **** 		valueR = ((int16_t) ((32767.0f) * sampleR));
 185              		.loc 1 165 3 is_stmt 1 view .LVU39
 186              		.loc 1 166 3 view .LVU40
 167:Core/Src/audio.c **** 
 168:Core/Src/audio.c **** 		/*************** Output to audio buffer *****************/
 169:Core/Src/audio.c **** 		output[i<<1] = valueL ;			// LEFT channel
 187              		.loc 1 169 3 view .LVU41
 188              		.loc 1 169 16 is_stmt 0 view .LVU42
 189 00c6 28F82420 		strh	r2, [r8, r4, lsl #2]	@ movhi
 170:Core/Src/audio.c **** 	    output[(i<<1) + 1] = valueR;	// RIGHT channel
 190              		.loc 1 170 6 is_stmt 1 view .LVU43
 191              		.loc 1 170 25 is_stmt 0 view .LVU44
 192 00ca 2BF82430 		strh	r3, [fp, r4, lsl #2]	@ movhi
 113:Core/Src/audio.c **** 	{
 193              		.loc 1 113 28 is_stmt 1 view .LVU45
 194 00ce 0134     		adds	r4, r4, #1
 195              	.LVL10:
 113:Core/Src/audio.c **** 	{
 196              		.loc 1 113 16 view .LVU46
 197 00d0 402C     		cmp	r4, #64
 198 00d2 00F09E80 		beq	.L14
 199              	.LVL11:
ARM GAS  /var/folders/0z/tsy30v1j4xl4_7kw94k978ww0000gn/T//ccm5Xl3w.s 			page 9


 200              	.L5:
 116:Core/Src/audio.c **** 		
 201              		.loc 1 116 3 view .LVU47
 116:Core/Src/audio.c **** 		
 202              		.loc 1 116 12 is_stmt 0 view .LVU48
 203 00d6 5C4B     		ldr	r3, .L17+32
 204 00d8 1D78     		ldrb	r5, [r3]	@ zero_extendqisi2
 205 00da 07EB8503 		add	r3, r7, r5, lsl #2
 206 00de 93ED008A 		vldr.32	s16, [r3]
 119:Core/Src/audio.c **** 		OpSetFreq(&osc2, f0);
 207              		.loc 1 119 3 is_stmt 1 view .LVU49
 208              	.LVL12:
 209              	.LBB67:
 210              	.LBI48:
  91:Core/Src/audio.c **** {
 211              		.loc 1 91 6 view .LVU50
 212              	.LBB50:
  93:Core/Src/audio.c **** }
 213              		.loc 1 93 2 view .LVU51
  93:Core/Src/audio.c **** }
 214              		.loc 1 93 11 is_stmt 0 view .LVU52
 215 00e2 5A4B     		ldr	r3, .L17+36
  93:Core/Src/audio.c **** }
 216              		.loc 1 93 16 view .LVU53
 217 00e4 68EE287A 		vmul.f32	s15, s16, s17
 218              	.LBE50:
 219              	.LBE67:
 121:Core/Src/audio.c **** 		OpSetFreq(&osc4, f0 + 0.5);
 220              		.loc 1 121 22 view .LVU54
 221 00e8 18EE100A 		vmov	r0, s16
 222              	.LBB68:
 223              	.LBB51:
  93:Core/Src/audio.c **** }
 224              		.loc 1 93 11 view .LVU55
 225 00ec C3ED017A 		vstr.32	s15, [r3, #4]
 226              	.LVL13:
  93:Core/Src/audio.c **** }
 227              		.loc 1 93 11 view .LVU56
 228              	.LBE51:
 229              	.LBE68:
 120:Core/Src/audio.c **** 		OpSetFreq(&osc3, f0-0.2);
 230              		.loc 1 120 3 is_stmt 1 view .LVU57
 231              	.LBB69:
 232              	.LBI69:
  91:Core/Src/audio.c **** {
 233              		.loc 1 91 6 view .LVU58
 234              	.LBB70:
  93:Core/Src/audio.c **** }
 235              		.loc 1 93 2 view .LVU59
  93:Core/Src/audio.c **** }
 236              		.loc 1 93 11 is_stmt 0 view .LVU60
 237 00f0 574B     		ldr	r3, .L17+40
 238 00f2 C3ED017A 		vstr.32	s15, [r3, #4]
 239              	.LVL14:
  93:Core/Src/audio.c **** }
 240              		.loc 1 93 11 view .LVU61
 241              	.LBE70:
ARM GAS  /var/folders/0z/tsy30v1j4xl4_7kw94k978ww0000gn/T//ccm5Xl3w.s 			page 10


 242              	.LBE69:
 121:Core/Src/audio.c **** 		OpSetFreq(&osc4, f0 + 0.5);
 243              		.loc 1 121 3 is_stmt 1 view .LVU62
 244              	.LBB71:
 245              	.LBI71:
  91:Core/Src/audio.c **** {
 246              		.loc 1 91 6 view .LVU63
 247              	.LBB72:
  93:Core/Src/audio.c **** }
 248              		.loc 1 93 2 view .LVU64
 249              	.LBE72:
 250              	.LBE71:
 121:Core/Src/audio.c **** 		OpSetFreq(&osc4, f0 + 0.5);
 251              		.loc 1 121 22 is_stmt 0 view .LVU65
 252 00f6 FFF7FEFF 		bl	__aeabi_f2d
 253              	.LVL15:
 254 00fa 4BA3     		adr	r3, .L17
 255 00fc D3E90023 		ldrd	r2, [r3]
 256 0100 FFF7FEFF 		bl	__aeabi_dsub
 257              	.LVL16:
 121:Core/Src/audio.c **** 		OpSetFreq(&osc4, f0 + 0.5);
 258              		.loc 1 121 3 view .LVU66
 259 0104 FFF7FEFF 		bl	__aeabi_d2f
 260              	.LVL17:
 261              	.LBB76:
 262              	.LBB73:
  93:Core/Src/audio.c **** }
 263              		.loc 1 93 16 view .LVU67
 264 0108 07EE900A 		vmov	s15, r0
 265              	.LBE73:
 266              	.LBE76:
 124:Core/Src/audio.c **** 		OpSetFreq(&sub_osc, f_sub);
 267              		.loc 1 124 16 view .LVU68
 268 010c 0C2D     		cmp	r5, #12
 269              	.LBB77:
 270              	.LBB74:
  93:Core/Src/audio.c **** }
 271              		.loc 1 93 16 view .LVU69
 272 010e 67EEA87A 		vmul.f32	s15, s15, s17
  93:Core/Src/audio.c **** }
 273              		.loc 1 93 11 view .LVU70
 274 0112 504B     		ldr	r3, .L17+44
 275              	.LBE74:
 276              	.LBE77:
 126:Core/Src/audio.c **** 		// sample = 0*osc_polyblepSaw(&osc1) + osc_polyblepRect(&sub_osc);
 277              		.loc 1 126 17 view .LVU71
 278 0114 4D48     		ldr	r0, .L17+36
 279              	.LBB78:
 280              	.LBB75:
  93:Core/Src/audio.c **** }
 281              		.loc 1 93 11 view .LVU72
 282 0116 C3ED017A 		vstr.32	s15, [r3, #4]
 283              	.LVL18:
  93:Core/Src/audio.c **** }
 284              		.loc 1 93 11 view .LVU73
 285              	.LBE75:
 286              	.LBE78:
ARM GAS  /var/folders/0z/tsy30v1j4xl4_7kw94k978ww0000gn/T//ccm5Xl3w.s 			page 11


 122:Core/Src/audio.c **** 		
 287              		.loc 1 122 3 is_stmt 1 view .LVU74
 288              	.LBB79:
 289              	.LBI79:
  91:Core/Src/audio.c **** {
 290              		.loc 1 91 6 view .LVU75
 291              	.LBB80:
  93:Core/Src/audio.c **** }
 292              		.loc 1 93 2 view .LVU76
 293              	.LBE80:
 294              	.LBE79:
 122:Core/Src/audio.c **** 		
 295              		.loc 1 122 3 is_stmt 0 view .LVU77
 296 011a 38EE098A 		vadd.f32	s16, s16, s18
 297              	.LVL19:
 124:Core/Src/audio.c **** 		OpSetFreq(&sub_osc, f_sub);
 298              		.loc 1 124 15 view .LVU78
 299 011e 84BF     		itt	hi
 300 0120 07EB8505 		addhi	r5, r7, r5, lsl #2
 301              	.LVL20:
 302              	.LBB83:
 303              	.LBB84:
  93:Core/Src/audio.c **** }
 304              		.loc 1 93 16 view .LVU79
 305 0124 55ED0C7A 		vldrhi.32	s15, [r5, #-48]
 306              	.LBE84:
 307              	.LBE83:
 308              	.LBB88:
 309              	.LBB81:
  93:Core/Src/audio.c **** }
 310              		.loc 1 93 11 view .LVU80
 311 0128 4B4B     		ldr	r3, .L17+48
  93:Core/Src/audio.c **** }
 312              		.loc 1 93 16 view .LVU81
 313 012a 28EE288A 		vmul.f32	s16, s16, s17
 314              	.LBE81:
 315              	.LBE88:
 316              	.LBB89:
 317              	.LBB85:
 318 012e 88BF     		it	hi
 319 0130 67EEA87A 		vmulhi.f32	s15, s15, s17
 320              	.LBE85:
 321              	.LBE89:
 322              	.LBB90:
 323              	.LBB82:
  93:Core/Src/audio.c **** }
 324              		.loc 1 93 11 view .LVU82
 325 0134 83ED018A 		vstr.32	s16, [r3, #4]
 326              	.LVL21:
  93:Core/Src/audio.c **** }
 327              		.loc 1 93 11 view .LVU83
 328              	.LBE82:
 329              	.LBE90:
 124:Core/Src/audio.c **** 		OpSetFreq(&sub_osc, f_sub);
 330              		.loc 1 124 3 is_stmt 1 view .LVU84
 125:Core/Src/audio.c **** 		sample = 0.5*(osc_polyblepSaw(&osc1) + osc_polyblepSaw(&osc2) + osc_polyblepSaw(&osc3) + osc_poly
 331              		.loc 1 125 3 view .LVU85
ARM GAS  /var/folders/0z/tsy30v1j4xl4_7kw94k978ww0000gn/T//ccm5Xl3w.s 			page 12


 332              	.LBB91:
 333              	.LBI83:
  91:Core/Src/audio.c **** {
 334              		.loc 1 91 6 view .LVU86
 335              	.LBB86:
  93:Core/Src/audio.c **** }
 336              		.loc 1 93 2 view .LVU87
  93:Core/Src/audio.c **** }
 337              		.loc 1 93 11 is_stmt 0 view .LVU88
 338 0138 484B     		ldr	r3, .L17+52
 339              	.LBE86:
 340              	.LBE91:
 341 013a 98BF     		it	ls
 342 013c F0EE6A7A 		vmovls.f32	s15, s21
 343              	.LBB92:
 344              	.LBB87:
 345 0140 C3ED017A 		vstr.32	s15, [r3, #4]
 346              	.LVL22:
  93:Core/Src/audio.c **** }
 347              		.loc 1 93 11 view .LVU89
 348              	.LBE87:
 349              	.LBE92:
 126:Core/Src/audio.c **** 		// sample = 0*osc_polyblepSaw(&osc1) + osc_polyblepRect(&sub_osc);
 350              		.loc 1 126 3 is_stmt 1 view .LVU90
 126:Core/Src/audio.c **** 		// sample = 0*osc_polyblepSaw(&osc1) + osc_polyblepRect(&sub_osc);
 351              		.loc 1 126 17 is_stmt 0 view .LVU91
 352 0144 FFF7FEFF 		bl	osc_polyblepSaw
 353              	.LVL23:
 126:Core/Src/audio.c **** 		// sample = 0*osc_polyblepSaw(&osc1) + osc_polyblepRect(&sub_osc);
 354              		.loc 1 126 42 view .LVU92
 355 0148 4148     		ldr	r0, .L17+40
 126:Core/Src/audio.c **** 		// sample = 0*osc_polyblepSaw(&osc1) + osc_polyblepRect(&sub_osc);
 356              		.loc 1 126 17 view .LVU93
 357 014a B0EE408A 		vmov.f32	s16, s0
 126:Core/Src/audio.c **** 		// sample = 0*osc_polyblepSaw(&osc1) + osc_polyblepRect(&sub_osc);
 358              		.loc 1 126 42 view .LVU94
 359 014e FFF7FEFF 		bl	osc_polyblepSaw
 360              	.LVL24:
 126:Core/Src/audio.c **** 		// sample = 0*osc_polyblepSaw(&osc1) + osc_polyblepRect(&sub_osc);
 361              		.loc 1 126 67 view .LVU95
 362 0152 4048     		ldr	r0, .L17+44
 126:Core/Src/audio.c **** 		// sample = 0*osc_polyblepSaw(&osc1) + osc_polyblepRect(&sub_osc);
 363              		.loc 1 126 40 view .LVU96
 364 0154 38EE008A 		vadd.f32	s16, s16, s0
 126:Core/Src/audio.c **** 		// sample = 0*osc_polyblepSaw(&osc1) + osc_polyblepRect(&sub_osc);
 365              		.loc 1 126 67 view .LVU97
 366 0158 FFF7FEFF 		bl	osc_polyblepSaw
 367              	.LVL25:
 126:Core/Src/audio.c **** 		// sample = 0*osc_polyblepSaw(&osc1) + osc_polyblepRect(&sub_osc);
 368              		.loc 1 126 92 view .LVU98
 369 015c 3E48     		ldr	r0, .L17+48
 126:Core/Src/audio.c **** 		// sample = 0*osc_polyblepSaw(&osc1) + osc_polyblepRect(&sub_osc);
 370              		.loc 1 126 65 view .LVU99
 371 015e 38EE008A 		vadd.f32	s16, s16, s0
 126:Core/Src/audio.c **** 		// sample = 0*osc_polyblepSaw(&osc1) + osc_polyblepRect(&sub_osc);
 372              		.loc 1 126 92 view .LVU100
 373 0162 FFF7FEFF 		bl	osc_polyblepSaw
ARM GAS  /var/folders/0z/tsy30v1j4xl4_7kw94k978ww0000gn/T//ccm5Xl3w.s 			page 13


 374              	.LVL26:
 126:Core/Src/audio.c **** 		// sample = 0*osc_polyblepSaw(&osc1) + osc_polyblepRect(&sub_osc);
 375              		.loc 1 126 116 view .LVU101
 376 0166 3D48     		ldr	r0, .L17+52
 126:Core/Src/audio.c **** 		// sample = 0*osc_polyblepSaw(&osc1) + osc_polyblepRect(&sub_osc);
 377              		.loc 1 126 90 view .LVU102
 378 0168 38EE008A 		vadd.f32	s16, s16, s0
 126:Core/Src/audio.c **** 		// sample = 0*osc_polyblepSaw(&osc1) + osc_polyblepRect(&sub_osc);
 379              		.loc 1 126 116 view .LVU103
 380 016c FFF7FEFF 		bl	osc_polyblepRect
 381              	.LVL27:
 136:Core/Src/audio.c **** 		Moog_filter.cutoff =clip(10.f * filt_env + 12000.f * pot1_norm, 20, 12000); // probably error in 
 382              		.loc 1 136 14 view .LVU104
 383 0170 3B48     		ldr	r0, .L17+56
 126:Core/Src/audio.c **** 		// sample = 0*osc_polyblepSaw(&osc1) + osc_polyblepRect(&sub_osc);
 384              		.loc 1 126 116 view .LVU105
 385 0172 B0EE40BA 		vmov.f32	s22, s0
 386              	.LVL28:
 136:Core/Src/audio.c **** 		Moog_filter.cutoff =clip(10.f * filt_env + 12000.f * pot1_norm, 20, 12000); // probably error in 
 387              		.loc 1 136 3 is_stmt 1 view .LVU106
 136:Core/Src/audio.c **** 		Moog_filter.cutoff =clip(10.f * filt_env + 12000.f * pot1_norm, 20, 12000); // probably error in 
 388              		.loc 1 136 14 is_stmt 0 view .LVU107
 389 0176 FFF7FEFF 		bl	ADSR_compute
 390              	.LVL29:
 137:Core/Src/audio.c **** 		Moog_filter.k = 4.5f * pot2_norm;
 391              		.loc 1 137 3 is_stmt 1 view .LVU108
 137:Core/Src/audio.c **** 		Moog_filter.k = 4.5f * pot2_norm;
 392              		.loc 1 137 54 is_stmt 0 view .LVU109
 393 017a DAED007A 		vldr.32	s15, [r10]
 137:Core/Src/audio.c **** 		Moog_filter.k = 4.5f * pot2_norm;
 394              		.loc 1 137 23 view .LVU110
 395 017e 9FED301A 		vldr.32	s2, .L17+24
 137:Core/Src/audio.c **** 		Moog_filter.k = 4.5f * pot2_norm;
 396              		.loc 1 137 54 view .LVU111
 397 0182 67EEA97A 		vmul.f32	s15, s15, s19
 137:Core/Src/audio.c **** 		Moog_filter.k = 4.5f * pot2_norm;
 398              		.loc 1 137 23 view .LVU112
 399 0186 B2EE047A 		vmov.f32	s14, #1.0e+1
 400 018a E0EE077A 		vfma.f32	s15, s0, s14
 401 018e F3EE040A 		vmov.f32	s1, #2.0e+1
 402 0192 B0EE670A 		vmov.f32	s0, s15
 403 0196 FFF7FEFF 		bl	clip
 404              	.LVL30:
 138:Core/Src/audio.c **** 
 405              		.loc 1 138 24 view .LVU113
 406 019a D9ED007A 		vldr.32	s15, [r9]
 137:Core/Src/audio.c **** 		Moog_filter.k = 4.5f * pot2_norm;
 407              		.loc 1 137 22 view .LVU114
 408 019e 86ED000A 		vstr.32	s0, [r6]
 138:Core/Src/audio.c **** 
 409              		.loc 1 138 3 is_stmt 1 view .LVU115
 138:Core/Src/audio.c **** 
 410              		.loc 1 138 24 is_stmt 0 view .LVU116
 411 01a2 B1EE027A 		vmov.f32	s14, #4.5e+0
 126:Core/Src/audio.c **** 		// sample = 0*osc_polyblepSaw(&osc1) + osc_polyblepRect(&sub_osc);
 412              		.loc 1 126 114 view .LVU117
 413 01a6 38EE0B0A 		vadd.f32	s0, s16, s22
ARM GAS  /var/folders/0z/tsy30v1j4xl4_7kw94k978ww0000gn/T//ccm5Xl3w.s 			page 14


 138:Core/Src/audio.c **** 
 414              		.loc 1 138 24 view .LVU118
 415 01aa 67EE877A 		vmul.f32	s15, s15, s14
 140:Core/Src/audio.c **** 
 416              		.loc 1 140 12 view .LVU119
 417 01ae 2148     		ldr	r0, .L17+12
 138:Core/Src/audio.c **** 
 418              		.loc 1 138 17 view .LVU120
 419 01b0 C6ED057A 		vstr.32	s15, [r6, #20]
 140:Core/Src/audio.c **** 
 420              		.loc 1 140 3 is_stmt 1 view .LVU121
 140:Core/Src/audio.c **** 
 421              		.loc 1 140 12 is_stmt 0 view .LVU122
 422 01b4 20EE090A 		vmul.f32	s0, s0, s18
 423 01b8 FFF7FEFF 		bl	MoogLP_compute
 424              	.LVL31:
 143:Core/Src/audio.c **** 		sample *= amp_env;
 425              		.loc 1 143 13 view .LVU123
 426 01bc 2948     		ldr	r0, .L17+60
 140:Core/Src/audio.c **** 
 427              		.loc 1 140 12 view .LVU124
 428 01be B0EE408A 		vmov.f32	s16, s0
 429              	.LVL32:
 143:Core/Src/audio.c **** 		sample *= amp_env;
 430              		.loc 1 143 3 is_stmt 1 view .LVU125
 143:Core/Src/audio.c **** 		sample *= amp_env;
 431              		.loc 1 143 13 is_stmt 0 view .LVU126
 432 01c2 FFF7FEFF 		bl	ADSR_compute
 433              	.LVL33:
 144:Core/Src/audio.c **** 
 434              		.loc 1 144 3 is_stmt 1 view .LVU127
 154:Core/Src/audio.c **** 		sampleL = delayLOut;
 435              		.loc 1 154 3 view .LVU128
 436 01c6 2849     		ldr	r1, .L17+64
 437 01c8 2848     		ldr	r0, .L17+68
 438 01ca 28EE000A 		vmul.f32	s0, s16, s0
 439              	.LVL34:
 154:Core/Src/audio.c **** 		sampleL = delayLOut;
 440              		.loc 1 154 3 is_stmt 0 view .LVU129
 441 01ce FFF7FEFF 		bl	pingpongDelay_compute
 442              	.LVL35:
 155:Core/Src/audio.c **** 		sampleR = delayROut;
 443              		.loc 1 155 3 is_stmt 1 view .LVU130
 155:Core/Src/audio.c **** 		sampleR = delayROut;
 444              		.loc 1 155 11 is_stmt 0 view .LVU131
 445 01d2 264B     		ldr	r3, .L17+68
 446 01d4 93ED007A 		vldr.32	s14, [r3]
 447              	.LVL36:
 156:Core/Src/audio.c **** 		//sampleL = sample;
 448              		.loc 1 156 3 is_stmt 1 view .LVU132
 156:Core/Src/audio.c **** 		//sampleL = sample;
 449              		.loc 1 156 11 is_stmt 0 view .LVU133
 450 01d8 234B     		ldr	r3, .L17+64
 451              	.LBB93:
 452              	.LBB56:
  62:Core/Inc/helper_functions.h ****     {
 453              		.loc 2 62 8 view .LVU134
ARM GAS  /var/folders/0z/tsy30v1j4xl4_7kw94k978ww0000gn/T//ccm5Xl3w.s 			page 15


 454 01da F8EE086A 		vmov.f32	s13, #-3.0e+0
 455 01de B4EEE67A 		vcmpe.f32	s14, s13
 456 01e2 F1EE10FA 		vmrs	APSR_nzcv, FPSCR
 457              	.LBE56:
 458              	.LBE93:
 156:Core/Src/audio.c **** 		//sampleL = sample;
 459              		.loc 1 156 11 view .LVU135
 460 01e6 D3ED007A 		vldr.32	s15, [r3]
 461              	.LVL37:
 161:Core/Src/audio.c **** 		sampleR = SoftClip(sampleR);
 462              		.loc 1 161 3 is_stmt 1 view .LVU136
 463              	.LBB94:
 464              	.LBI52:
  60:Core/Inc/helper_functions.h **** {
 465              		.loc 2 60 14 view .LVU137
 466              	.LBB57:
  62:Core/Inc/helper_functions.h ****     {
 467              		.loc 2 62 5 view .LVU138
  62:Core/Inc/helper_functions.h ****     {
 468              		.loc 2 62 8 is_stmt 0 view .LVU139
 469 01ea 7FF522AF 		bpl	.L15
 470              	.LBE57:
 471              	.LBE94:
 472              	.LBB95:
 473              	.LBB64:
 474 01ee B8EE087A 		vmov.f32	s14, #-3.0e+0
 475              	.LVL38:
  62:Core/Inc/helper_functions.h ****     {
 476              		.loc 2 62 8 view .LVU140
 477 01f2 F4EEC77A 		vcmpe.f32	s15, s14
 478 01f6 F1EE10FA 		vmrs	APSR_nzcv, FPSCR
 479              	.LBE64:
 480              	.LBE95:
 481              	.LBB96:
 482              	.LBB58:
 483 01fa 1D4A     		ldr	r2, .L17+72
 484              	.LVL39:
  62:Core/Inc/helper_functions.h ****     {
 485              		.loc 2 62 8 view .LVU141
 486              	.LBE58:
 487              	.LBE96:
 162:Core/Src/audio.c **** 
 488              		.loc 1 162 3 is_stmt 1 view .LVU142
 489              	.LBB97:
  60:Core/Inc/helper_functions.h **** {
 490              		.loc 2 60 14 view .LVU143
 491              	.LBB65:
  62:Core/Inc/helper_functions.h ****     {
 492              		.loc 2 62 5 view .LVU144
  62:Core/Inc/helper_functions.h ****     {
 493              		.loc 2 62 8 is_stmt 0 view .LVU145
 494 01fc 7FF542AF 		bpl	.L16
 495              	.L9:
 496 0200 1B4B     		ldr	r3, .L17+72
 497              	.LVL40:
  62:Core/Inc/helper_functions.h ****     {
 498              		.loc 2 62 8 view .LVU146
ARM GAS  /var/folders/0z/tsy30v1j4xl4_7kw94k978ww0000gn/T//ccm5Xl3w.s 			page 16


 499              	.LBE65:
 500              	.LBE97:
 165:Core/Src/audio.c **** 		valueR = ((int16_t) ((32767.0f) * sampleR));
 501              		.loc 1 165 3 is_stmt 1 view .LVU147
 166:Core/Src/audio.c **** 
 502              		.loc 1 166 3 view .LVU148
 169:Core/Src/audio.c **** 	    output[(i<<1) + 1] = valueR;	// RIGHT channel
 503              		.loc 1 169 3 view .LVU149
 169:Core/Src/audio.c **** 	    output[(i<<1) + 1] = valueR;	// RIGHT channel
 504              		.loc 1 169 16 is_stmt 0 view .LVU150
 505 0202 28F82420 		strh	r2, [r8, r4, lsl #2]	@ movhi
 506              		.loc 1 170 6 is_stmt 1 view .LVU151
 507              		.loc 1 170 25 is_stmt 0 view .LVU152
 508 0206 2BF82430 		strh	r3, [fp, r4, lsl #2]	@ movhi
 113:Core/Src/audio.c **** 	{
 509              		.loc 1 113 28 is_stmt 1 view .LVU153
 510 020a 0134     		adds	r4, r4, #1
 511              	.LVL41:
 113:Core/Src/audio.c **** 	{
 512              		.loc 1 113 16 view .LVU154
 513 020c 402C     		cmp	r4, #64
 514 020e 7FF462AF 		bne	.L5
 515              	.L14:
 171:Core/Src/audio.c **** 	}
 172:Core/Src/audio.c **** }
 516              		.loc 1 172 1 is_stmt 0 view .LVU155
 517 0212 BDEC088B 		vldm	sp!, {d8-d11}
 518              		.cfi_remember_state
 519              		.cfi_restore 86
 520              		.cfi_restore 87
 521              		.cfi_restore 84
 522              		.cfi_restore 85
 523              		.cfi_restore 82
 524              		.cfi_restore 83
 525              		.cfi_restore 80
 526              		.cfi_restore 81
 527              		.cfi_def_cfa_offset 40
 528              		.loc 1 172 1 view .LVU156
 529 0216 BDE8F88F 		pop	{r3, r4, r5, r6, r7, r8, r9, r10, fp, pc}
 530              	.LVL42:
 531              	.L8:
 532              		.cfi_restore_state
 533              	.LBB98:
 534              	.LBB59:
 535              		.loc 1 172 1 view .LVU157
 536 021a 47F6FF72 		movw	r2, #32767
 537 021e 29E7     		b	.L3
 538              	.LVL43:
 539              	.L10:
 540              		.loc 1 172 1 view .LVU158
 541              	.LBE59:
 542              	.LBE98:
 543              	.LBB99:
 544              	.LBB66:
 545 0220 47F6FF73 		movw	r3, #32767
 546 0224 4FE7     		b	.L4
 547              	.L18:
ARM GAS  /var/folders/0z/tsy30v1j4xl4_7kw94k978ww0000gn/T//ccm5Xl3w.s 			page 17


 548 0226 00BF     		.align	3
 549              	.L17:
 550 0228 9A999999 		.word	-1717986918
 551 022c 9999C93F 		.word	1070176665
 552 0230 00000000 		.word	.LANCHOR0
 553 0234 00000000 		.word	Moog_filter
 554 0238 8D3B803F 		.word	1065368461
 555 023c EF0C0341 		.word	1090718959
 556 0240 00803B46 		.word	1178304512
 557 0244 00FEFF46 		.word	1191181824
 558 0248 00000000 		.word	currentPitch
 559 024c 00000000 		.word	osc1
 560 0250 00000000 		.word	osc2
 561 0254 00000000 		.word	osc3
 562 0258 00000000 		.word	osc4
 563 025c 00000000 		.word	sub_osc
 564 0260 00000000 		.word	adsr_filt
 565 0264 00000000 		.word	adsr_amp
 566 0268 00000000 		.word	.LANCHOR1
 567 026c 00000000 		.word	.LANCHOR2
 568 0270 0180FFFF 		.word	-32767
 569 0274 00000000 		.word	pot1_norm
 570 0278 00000000 		.word	pot2_norm
 571              	.LBE66:
 572              	.LBE99:
 573              		.cfi_endproc
 574              	.LFE248:
 576              		.section	.text.AUDIO_Init,"ax",%progbits
 577              		.align	1
 578              		.p2align 2,,3
 579              		.global	AUDIO_Init
 580              		.syntax unified
 581              		.thumb
 582              		.thumb_func
 584              	AUDIO_Init:
 585              	.LFB239:
  64:Core/Src/audio.c ****     BSP_AUDIO_OUT_Init(OUTPUT_DEVICE_HEADPHONE, INITIAL_VOLUME, FS);
 586              		.loc 1 64 1 is_stmt 1 view -0
 587              		.cfi_startproc
 588              		@ args = 0, pretend = 0, frame = 0
 589              		@ frame_needed = 0, uses_anonymous_args = 0
  65:Core/Src/audio.c **** 
 590              		.loc 1 65 5 view .LVU160
  64:Core/Src/audio.c ****     BSP_AUDIO_OUT_Init(OUTPUT_DEVICE_HEADPHONE, INITIAL_VOLUME, FS);
 591              		.loc 1 64 1 is_stmt 0 view .LVU161
 592 0000 08B5     		push	{r3, lr}
 593              		.cfi_def_cfa_offset 8
 594              		.cfi_offset 3, -8
 595              		.cfi_offset 14, -4
  65:Core/Src/audio.c **** 
 596              		.loc 1 65 5 view .LVU162
 597 0002 4AF64442 		movw	r2, #44100
  64:Core/Src/audio.c ****     BSP_AUDIO_OUT_Init(OUTPUT_DEVICE_HEADPHONE, INITIAL_VOLUME, FS);
 598              		.loc 1 64 1 view .LVU163
 599 0006 2DED048B 		vpush.64	{d8, d9}
 600              		.cfi_def_cfa_offset 24
 601              		.cfi_offset 80, -24
ARM GAS  /var/folders/0z/tsy30v1j4xl4_7kw94k978ww0000gn/T//ccm5Xl3w.s 			page 18


 602              		.cfi_offset 81, -20
 603              		.cfi_offset 82, -16
 604              		.cfi_offset 83, -12
  65:Core/Src/audio.c **** 
 605              		.loc 1 65 5 view .LVU164
 606 000a 5521     		movs	r1, #85
 607 000c 0220     		movs	r0, #2
 608 000e FFF7FEFF 		bl	BSP_AUDIO_OUT_Init
 609              	.LVL44:
  72:Core/Src/audio.c **** 
 610              		.loc 1 72 2 is_stmt 1 view .LVU165
  76:Core/Src/audio.c **** 	osc_init(&osc2, 0.5, 440, 0, 2, 0.5);
 611              		.loc 1 76 2 is_stmt 0 view .LVU166
 612 0012 9FED2F8A 		vldr.32	s16, .L21
 613 0016 9FED2F9A 		vldr.32	s18, .L21+4
  72:Core/Src/audio.c **** 
 614              		.loc 1 72 2 view .LVU167
 615 001a 2F48     		ldr	r0, .L21+8
  77:Core/Src/audio.c **** 	osc_init(&osc3, 0.5, 1000, 0, 0, 0.5);
 616              		.loc 1 77 2 view .LVU168
 617 001c DFED2F8A 		vldr.32	s17, .L21+12
  72:Core/Src/audio.c **** 
 618              		.loc 1 72 2 view .LVU169
 619 0020 4FF40071 		mov	r1, #512
 620 0024 FFF7FEFF 		bl	BSP_AUDIO_OUT_Play
 621              	.LVL45:
  76:Core/Src/audio.c **** 	osc_init(&osc2, 0.5, 440, 0, 2, 0.5);
 622              		.loc 1 76 2 is_stmt 1 view .LVU170
 623 0028 B6EE002A 		vmov.f32	s4, #5.0e-1
 624 002c F0EE481A 		vmov.f32	s3, s16
 625 0030 B0EE481A 		vmov.f32	s2, s16
 626 0034 F0EE490A 		vmov.f32	s1, s18
 627 0038 B0EE420A 		vmov.f32	s0, s4
 628 003c 2848     		ldr	r0, .L21+16
 629 003e FFF7FEFF 		bl	osc_init
 630              	.LVL46:
  77:Core/Src/audio.c **** 	osc_init(&osc3, 0.5, 1000, 0, 0, 0.5);
 631              		.loc 1 77 2 view .LVU171
 632 0042 B6EE002A 		vmov.f32	s4, #5.0e-1
 633 0046 B0EE481A 		vmov.f32	s2, s16
 634 004a F0EE680A 		vmov.f32	s1, s17
 635 004e B0EE420A 		vmov.f32	s0, s4
 636 0052 2448     		ldr	r0, .L21+20
 637 0054 F0EE001A 		vmov.f32	s3, #2.0e+0
 638 0058 FFF7FEFF 		bl	osc_init
 639              	.LVL47:
  78:Core/Src/audio.c **** 	osc_init(&osc4, 0.5, 440, 0, 0, 0.5);
 640              		.loc 1 78 2 view .LVU172
 641 005c B6EE002A 		vmov.f32	s4, #5.0e-1
 642 0060 F0EE481A 		vmov.f32	s3, s16
 643 0064 B0EE481A 		vmov.f32	s2, s16
 644 0068 F0EE490A 		vmov.f32	s1, s18
 645 006c B0EE420A 		vmov.f32	s0, s4
 646 0070 1D48     		ldr	r0, .L21+24
 647 0072 FFF7FEFF 		bl	osc_init
 648              	.LVL48:
  79:Core/Src/audio.c **** 	osc_init(&sub_osc, 0.5, 440, 0, 0, 0.5);
ARM GAS  /var/folders/0z/tsy30v1j4xl4_7kw94k978ww0000gn/T//ccm5Xl3w.s 			page 19


 649              		.loc 1 79 2 view .LVU173
 650 0076 B6EE002A 		vmov.f32	s4, #5.0e-1
 651 007a F0EE481A 		vmov.f32	s3, s16
 652 007e B0EE481A 		vmov.f32	s2, s16
 653 0082 F0EE680A 		vmov.f32	s1, s17
 654 0086 B0EE420A 		vmov.f32	s0, s4
 655 008a 1848     		ldr	r0, .L21+28
 656 008c FFF7FEFF 		bl	osc_init
 657              	.LVL49:
  80:Core/Src/audio.c **** 
 658              		.loc 1 80 2 view .LVU174
 659 0090 B6EE002A 		vmov.f32	s4, #5.0e-1
 660 0094 F0EE481A 		vmov.f32	s3, s16
 661 0098 B0EE481A 		vmov.f32	s2, s16
 662 009c F0EE680A 		vmov.f32	s1, s17
 663 00a0 B0EE420A 		vmov.f32	s0, s4
 664 00a4 1248     		ldr	r0, .L21+32
 665 00a6 FFF7FEFF 		bl	osc_init
 666              	.LVL50:
  83:Core/Src/audio.c **** 	ADSR_init(&adsr_filt);
 667              		.loc 1 83 2 view .LVU175
 668 00aa 1248     		ldr	r0, .L21+36
 669 00ac FFF7FEFF 		bl	ADSR_init
 670              	.LVL51:
  84:Core/Src/audio.c **** 	ADSR_init(&adsr_index);
 671              		.loc 1 84 2 view .LVU176
 672 00b0 1148     		ldr	r0, .L21+40
 673 00b2 FFF7FEFF 		bl	ADSR_init
 674              	.LVL52:
  85:Core/Src/audio.c **** 	MoogLP_init(&Moog_filter);
 675              		.loc 1 85 2 view .LVU177
 676 00b6 1148     		ldr	r0, .L21+44
 677 00b8 FFF7FEFF 		bl	ADSR_init
 678              	.LVL53:
  86:Core/Src/audio.c **** 	// flanger_init();
 679              		.loc 1 86 2 view .LVU178
 680 00bc 1048     		ldr	r0, .L21+48
 681 00be FFF7FEFF 		bl	MoogLP_init
 682              	.LVL54:
  88:Core/Src/audio.c **** }
 683              		.loc 1 88 2 view .LVU179
  89:Core/Src/audio.c **** 
 684              		.loc 1 89 1 is_stmt 0 view .LVU180
 685 00c2 BDEC048B 		vldm	sp!, {d8-d9}
 686              		.cfi_restore 82
 687              		.cfi_restore 83
 688              		.cfi_restore 80
 689              		.cfi_restore 81
 690              		.cfi_def_cfa_offset 8
 691 00c6 BDE80840 		pop	{r3, lr}
 692              		.cfi_restore 14
 693              		.cfi_restore 3
 694              		.cfi_def_cfa_offset 0
  88:Core/Src/audio.c **** }
 695              		.loc 1 88 2 view .LVU181
 696 00ca FFF7FEBF 		b	Delay_init
 697              	.LVL55:
ARM GAS  /var/folders/0z/tsy30v1j4xl4_7kw94k978ww0000gn/T//ccm5Xl3w.s 			page 20


 698              	.L22:
 699 00ce 00BF     		.align	2
 700              	.L21:
 701 00d0 00000000 		.word	0
 702 00d4 00007A44 		.word	1148846080
 703 00d8 00000000 		.word	.LANCHOR3
 704 00dc 0000DC43 		.word	1138491392
 705 00e0 00000000 		.word	osc1
 706 00e4 00000000 		.word	osc2
 707 00e8 00000000 		.word	osc3
 708 00ec 00000000 		.word	osc4
 709 00f0 00000000 		.word	sub_osc
 710 00f4 00000000 		.word	adsr_amp
 711 00f8 00000000 		.word	adsr_filt
 712 00fc 00000000 		.word	adsr_index
 713 0100 00000000 		.word	Moog_filter
 714              		.cfi_endproc
 715              	.LFE239:
 717              		.section	.text.OpSetFreq,"ax",%progbits
 718              		.align	1
 719              		.p2align 2,,3
 720              		.global	OpSetFreq
 721              		.syntax unified
 722              		.thumb
 723              		.thumb_func
 725              	OpSetFreq:
 726              	.LVL56:
 727              	.LFB240:
  92:Core/Src/audio.c **** 	op->freq = A0 * f;
 728              		.loc 1 92 1 is_stmt 1 view -0
 729              		.cfi_startproc
 730              		@ args = 0, pretend = 0, frame = 0
 731              		@ frame_needed = 0, uses_anonymous_args = 0
 732              		@ link register save eliminated.
  93:Core/Src/audio.c **** }
 733              		.loc 1 93 2 view .LVU183
  93:Core/Src/audio.c **** }
 734              		.loc 1 93 16 is_stmt 0 view .LVU184
 735 0000 DFED037A 		vldr.32	s15, .L24
 736 0004 20EE270A 		vmul.f32	s0, s0, s15
 737              	.LVL57:
  93:Core/Src/audio.c **** }
 738              		.loc 1 93 11 view .LVU185
 739 0008 80ED010A 		vstr.32	s0, [r0, #4]
  94:Core/Src/audio.c **** 
 740              		.loc 1 94 1 view .LVU186
 741 000c 7047     		bx	lr
 742              	.L25:
 743 000e 00BF     		.align	2
 744              	.L24:
 745 0010 8D3B803F 		.word	1065368461
 746              		.cfi_endproc
 747              	.LFE240:
 749              		.section	.text.audioBlock,"ax",%progbits
 750              		.align	1
 751              		.p2align 2,,3
 752              		.global	audioBlock
ARM GAS  /var/folders/0z/tsy30v1j4xl4_7kw94k978ww0000gn/T//ccm5Xl3w.s 			page 21


 753              		.syntax unified
 754              		.thumb
 755              		.thumb_func
 757              	audioBlock:
 758              	.LVL58:
 759              	.LFB241:
 105:Core/Src/audio.c **** 	int i;
 760              		.loc 1 105 1 is_stmt 1 view -0
 761              		.cfi_startproc
 762              		@ args = 0, pretend = 0, frame = 8
 763              		@ frame_needed = 0, uses_anonymous_args = 0
 106:Core/Src/audio.c **** 	int16_t *output;
 764              		.loc 1 106 2 view .LVU188
 107:Core/Src/audio.c **** 	output = buffer;
 765              		.loc 1 107 2 view .LVU189
 108:Core/Src/audio.c **** 	float sample, sampleL, sampleR;
 766              		.loc 1 108 2 view .LVU190
 109:Core/Src/audio.c **** 	uint16_t valueL, valueR;
 767              		.loc 1 109 2 view .LVU191
 110:Core/Src/audio.c **** 	
 768              		.loc 1 110 2 view .LVU192
 113:Core/Src/audio.c **** 	{
 769              		.loc 1 113 2 view .LVU193
 113:Core/Src/audio.c **** 	{
 770              		.loc 1 113 16 view .LVU194
 771 0000 0029     		cmp	r1, #0
 772 0002 00F01081 		beq	.L40
 105:Core/Src/audio.c **** 	int i;
 773              		.loc 1 105 1 is_stmt 0 view .LVU195
 774 0006 2DE9F04F 		push	{r4, r5, r6, r7, r8, r9, r10, fp, lr}
 775              		.cfi_def_cfa_offset 36
 776              		.cfi_offset 4, -36
 777              		.cfi_offset 5, -32
 778              		.cfi_offset 6, -28
 779              		.cfi_offset 7, -24
 780              		.cfi_offset 8, -20
 781              		.cfi_offset 9, -16
 782              		.cfi_offset 10, -12
 783              		.cfi_offset 11, -8
 784              		.cfi_offset 14, -4
 785 000a 2DED088B 		vpush.64	{d8, d9, d10, d11}
 786              		.cfi_def_cfa_offset 68
 787              		.cfi_offset 80, -68
 788              		.cfi_offset 81, -64
 789              		.cfi_offset 82, -60
 790              		.cfi_offset 83, -56
 791              		.cfi_offset 84, -52
 792              		.cfi_offset 85, -48
 793              		.cfi_offset 86, -44
 794              		.cfi_offset 87, -40
 795 000e 83B0     		sub	sp, sp, #12
 796              		.cfi_def_cfa_offset 80
 797 0010 831C     		adds	r3, r0, #2
 798 0012 874F     		ldr	r7, .L46+8
 799              	.LBB118:
 800              	.LBB119:
  93:Core/Src/audio.c **** }
ARM GAS  /var/folders/0z/tsy30v1j4xl4_7kw94k978ww0000gn/T//ccm5Xl3w.s 			page 22


 801              		.loc 1 93 16 view .LVU196
 802 0014 DFED878A 		vldr.32	s17, .L46+12
 803              	.LBE119:
 804              	.LBE118:
 805 0018 DFED87AA 		vldr.32	s21, .L46+16
 137:Core/Src/audio.c **** 		Moog_filter.k = 4.5f * pot2_norm;
 806              		.loc 1 137 54 view .LVU197
 807 001c DFED879A 		vldr.32	s19, .L46+20
 165:Core/Src/audio.c **** 		valueR = ((int16_t) ((32767.0f) * sampleR));
 808              		.loc 1 165 35 view .LVU198
 809 0020 9FED87AA 		vldr.32	s20, .L46+24
 810 0024 DFF84CB2 		ldr	fp, .L46+76
 811 0028 864E     		ldr	r6, .L46+28
 812 002a DFF84CA2 		ldr	r10, .L46+80
 813 002e 0193     		str	r3, [sp, #4]
 814 0030 8146     		mov	r9, r0
 815 0032 8846     		mov	r8, r1
 113:Core/Src/audio.c **** 	{
 816              		.loc 1 113 9 view .LVU199
 817 0034 0024     		movs	r4, #0
 122:Core/Src/audio.c **** 		
 818              		.loc 1 122 3 view .LVU200
 819 0036 B6EE009A 		vmov.f32	s18, #5.0e-1
 820 003a 52E0     		b	.L27
 821              	.LVL59:
 822              	.L44:
 823              	.LBB122:
 824              	.LBB123:
  66:Core/Inc/helper_functions.h ****     {
 825              		.loc 2 66 10 is_stmt 1 view .LVU201
  66:Core/Inc/helper_functions.h ****     {
 826              		.loc 2 66 13 is_stmt 0 view .LVU202
 827 003c F0EE086A 		vmov.f32	s13, #3.0e+0
 828 0040 B4EEE67A 		vcmpe.f32	s14, s13
 829 0044 F1EE10FA 		vmrs	APSR_nzcv, FPSCR
 830 0048 00F3E280 		bgt	.L35
 831              	.LVL60:
 832              	.LBB124:
 833              	.LBI124:
  60:Core/Inc/helper_functions.h **** {
 834              		.loc 2 60 14 is_stmt 1 view .LVU203
 835              	.LBB125:
 836              		.loc 2 72 9 view .LVU204
 837              		.loc 2 72 27 is_stmt 0 view .LVU205
 838 004c F3EE0B6A 		vmov.f32	s13, #2.7e+1
 839              		.loc 2 72 52 view .LVU206
 840 0050 F2EE025A 		vmov.f32	s11, #9.0e+0
 841 0054 67EE255A 		vmul.f32	s11, s14, s11
 842              		.loc 2 72 27 view .LVU207
 843 0058 B0EE665A 		vmov.f32	s10, s13
 844 005c A7EE075A 		vfma.f32	s10, s14, s14
 845              		.loc 2 72 45 view .LVU208
 846 0060 E7EE256A 		vfma.f32	s13, s14, s11
 847              		.loc 2 72 18 view .LVU209
 848 0064 27EE057A 		vmul.f32	s14, s14, s10
 849              	.LVL61:
 850              		.loc 2 72 45 view .LVU210
ARM GAS  /var/folders/0z/tsy30v1j4xl4_7kw94k978ww0000gn/T//ccm5Xl3w.s 			page 23


 851 0068 B0EE666A 		vmov.f32	s12, s13
 852              	.LVL62:
 853              		.loc 2 72 36 view .LVU211
 854 006c C7EE066A 		vdiv.f32	s13, s14, s12
 855              	.LBE125:
 856              	.LBE124:
 857              	.LBE123:
 858              	.LBE122:
 165:Core/Src/audio.c **** 		valueR = ((int16_t) ((32767.0f) * sampleR));
 859              		.loc 1 165 35 view .LVU212
 860 0070 26EE8A7A 		vmul.f32	s14, s13, s20
 165:Core/Src/audio.c **** 		valueR = ((int16_t) ((32767.0f) * sampleR));
 861              		.loc 1 165 13 view .LVU213
 862 0074 BDEEC77A 		vcvt.s32.f32	s14, s14
 863 0078 17EE103A 		vmov	r3, s14	@ int
 864 007c 1AB2     		sxth	r2, r3
 865              	.L29:
 866              	.LVL63:
 162:Core/Src/audio.c **** 
 867              		.loc 1 162 3 is_stmt 1 view .LVU214
 868              	.LBB130:
 869              	.LBI130:
  60:Core/Inc/helper_functions.h **** {
 870              		.loc 2 60 14 view .LVU215
 871              	.LBB131:
  62:Core/Inc/helper_functions.h ****     {
 872              		.loc 2 62 5 view .LVU216
  62:Core/Inc/helper_functions.h ****     {
 873              		.loc 2 62 8 is_stmt 0 view .LVU217
 874 007e B8EE087A 		vmov.f32	s14, #-3.0e+0
 875 0082 F4EEC77A 		vcmpe.f32	s15, s14
 876 0086 F1EE10FA 		vmrs	APSR_nzcv, FPSCR
 877 008a 00F1BF80 		bmi	.L36
 878              	.L45:
  66:Core/Inc/helper_functions.h ****     {
 879              		.loc 2 66 10 is_stmt 1 view .LVU218
  66:Core/Inc/helper_functions.h ****     {
 880              		.loc 2 66 13 is_stmt 0 view .LVU219
 881 008e B0EE087A 		vmov.f32	s14, #3.0e+0
 882 0092 F4EEC77A 		vcmpe.f32	s15, s14
 883 0096 F1EE10FA 		vmrs	APSR_nzcv, FPSCR
 884 009a 00F3BC80 		bgt	.L37
 885              	.LVL64:
 886              	.LBB132:
 887              	.LBI132:
  60:Core/Inc/helper_functions.h **** {
 888              		.loc 2 60 14 is_stmt 1 view .LVU220
 889              	.LBB133:
 890              		.loc 2 72 9 view .LVU221
 891              		.loc 2 72 27 is_stmt 0 view .LVU222
 892 009e B3EE0B7A 		vmov.f32	s14, #2.7e+1
 893              		.loc 2 72 52 view .LVU223
 894 00a2 B2EE026A 		vmov.f32	s12, #9.0e+0
 895 00a6 27EE866A 		vmul.f32	s12, s15, s12
 896              		.loc 2 72 27 view .LVU224
 897 00aa F0EE475A 		vmov.f32	s11, s14
 898 00ae E7EEA75A 		vfma.f32	s11, s15, s15
ARM GAS  /var/folders/0z/tsy30v1j4xl4_7kw94k978ww0000gn/T//ccm5Xl3w.s 			page 24


 899              		.loc 2 72 45 view .LVU225
 900 00b2 A7EE867A 		vfma.f32	s14, s15, s12
 901              		.loc 2 72 18 view .LVU226
 902 00b6 67EEA57A 		vmul.f32	s15, s15, s11
 903              	.LVL65:
 904              		.loc 2 72 45 view .LVU227
 905 00ba F0EE476A 		vmov.f32	s13, s14
 906              	.LVL66:
 907              		.loc 2 72 36 view .LVU228
 908 00be 87EEA67A 		vdiv.f32	s14, s15, s13
 909              	.LBE133:
 910              	.LBE132:
 911              	.LBE131:
 912              	.LBE130:
 166:Core/Src/audio.c **** 
 913              		.loc 1 166 35 view .LVU229
 914 00c2 67EE0A7A 		vmul.f32	s15, s14, s20
 166:Core/Src/audio.c **** 
 915              		.loc 1 166 13 view .LVU230
 916 00c6 FDEEE77A 		vcvt.s32.f32	s15, s15
 917 00ca 17EE903A 		vmov	r3, s15	@ int
 918 00ce 1BB2     		sxth	r3, r3
 919              	.L30:
 920              	.LVL67:
 165:Core/Src/audio.c **** 		valueR = ((int16_t) ((32767.0f) * sampleR));
 921              		.loc 1 165 3 is_stmt 1 view .LVU231
 166:Core/Src/audio.c **** 
 922              		.loc 1 166 3 view .LVU232
 169:Core/Src/audio.c **** 	    output[(i<<1) + 1] = valueR;	// RIGHT channel
 923              		.loc 1 169 3 view .LVU233
 169:Core/Src/audio.c **** 	    output[(i<<1) + 1] = valueR;	// RIGHT channel
 924              		.loc 1 169 16 is_stmt 0 view .LVU234
 925 00d0 29F82420 		strh	r2, [r9, r4, lsl #2]	@ movhi
 170:Core/Src/audio.c **** 	}
 926              		.loc 1 170 6 is_stmt 1 view .LVU235
 170:Core/Src/audio.c **** 	}
 927              		.loc 1 170 25 is_stmt 0 view .LVU236
 928 00d4 019A     		ldr	r2, [sp, #4]
 929 00d6 22F82430 		strh	r3, [r2, r4, lsl #2]	@ movhi
 113:Core/Src/audio.c **** 	{
 930              		.loc 1 113 28 is_stmt 1 view .LVU237
 931 00da 0134     		adds	r4, r4, #1
 932              	.LVL68:
 113:Core/Src/audio.c **** 	{
 933              		.loc 1 113 16 view .LVU238
 934 00dc 4445     		cmp	r4, r8
 935 00de 00F09D80 		beq	.L43
 936              	.LVL69:
 937              	.L27:
 116:Core/Src/audio.c **** 		
 938              		.loc 1 116 3 view .LVU239
 116:Core/Src/audio.c **** 		
 939              		.loc 1 116 12 is_stmt 0 view .LVU240
 940 00e2 594B     		ldr	r3, .L46+32
 941 00e4 1D78     		ldrb	r5, [r3]	@ zero_extendqisi2
 942 00e6 07EB8503 		add	r3, r7, r5, lsl #2
 943 00ea 93ED008A 		vldr.32	s16, [r3]
ARM GAS  /var/folders/0z/tsy30v1j4xl4_7kw94k978ww0000gn/T//ccm5Xl3w.s 			page 25


 119:Core/Src/audio.c **** 		OpSetFreq(&osc2, f0);
 944              		.loc 1 119 3 is_stmt 1 view .LVU241
 945              	.LVL70:
 946              	.LBB137:
 947              	.LBI118:
  91:Core/Src/audio.c **** {
 948              		.loc 1 91 6 view .LVU242
 949              	.LBB120:
  93:Core/Src/audio.c **** }
 950              		.loc 1 93 2 view .LVU243
  93:Core/Src/audio.c **** }
 951              		.loc 1 93 11 is_stmt 0 view .LVU244
 952 00ee 574B     		ldr	r3, .L46+36
  93:Core/Src/audio.c **** }
 953              		.loc 1 93 16 view .LVU245
 954 00f0 68EE287A 		vmul.f32	s15, s16, s17
 955              	.LBE120:
 956              	.LBE137:
 121:Core/Src/audio.c **** 		OpSetFreq(&osc4, f0 + 0.5);
 957              		.loc 1 121 22 view .LVU246
 958 00f4 18EE100A 		vmov	r0, s16
 959              	.LBB138:
 960              	.LBB121:
  93:Core/Src/audio.c **** }
 961              		.loc 1 93 11 view .LVU247
 962 00f8 C3ED017A 		vstr.32	s15, [r3, #4]
 963              	.LVL71:
  93:Core/Src/audio.c **** }
 964              		.loc 1 93 11 view .LVU248
 965              	.LBE121:
 966              	.LBE138:
 120:Core/Src/audio.c **** 		OpSetFreq(&osc3, f0-0.2);
 967              		.loc 1 120 3 is_stmt 1 view .LVU249
 968              	.LBB139:
 969              	.LBI139:
  91:Core/Src/audio.c **** {
 970              		.loc 1 91 6 view .LVU250
 971              	.LBB140:
  93:Core/Src/audio.c **** }
 972              		.loc 1 93 2 view .LVU251
  93:Core/Src/audio.c **** }
 973              		.loc 1 93 11 is_stmt 0 view .LVU252
 974 00fc 544B     		ldr	r3, .L46+40
 975 00fe C3ED017A 		vstr.32	s15, [r3, #4]
 976              	.LVL72:
  93:Core/Src/audio.c **** }
 977              		.loc 1 93 11 view .LVU253
 978              	.LBE140:
 979              	.LBE139:
 121:Core/Src/audio.c **** 		OpSetFreq(&osc4, f0 + 0.5);
 980              		.loc 1 121 3 is_stmt 1 view .LVU254
 981              	.LBB141:
 982              	.LBI141:
  91:Core/Src/audio.c **** {
 983              		.loc 1 91 6 view .LVU255
 984              	.LBB142:
  93:Core/Src/audio.c **** }
ARM GAS  /var/folders/0z/tsy30v1j4xl4_7kw94k978ww0000gn/T//ccm5Xl3w.s 			page 26


 985              		.loc 1 93 2 view .LVU256
 986              	.LBE142:
 987              	.LBE141:
 121:Core/Src/audio.c **** 		OpSetFreq(&osc4, f0 + 0.5);
 988              		.loc 1 121 22 is_stmt 0 view .LVU257
 989 0102 FFF7FEFF 		bl	__aeabi_f2d
 990              	.LVL73:
 991 0106 48A3     		adr	r3, .L46
 992 0108 D3E90023 		ldrd	r2, [r3]
 993 010c FFF7FEFF 		bl	__aeabi_dsub
 994              	.LVL74:
 121:Core/Src/audio.c **** 		OpSetFreq(&osc4, f0 + 0.5);
 995              		.loc 1 121 3 view .LVU258
 996 0110 FFF7FEFF 		bl	__aeabi_d2f
 997              	.LVL75:
 998              	.LBB146:
 999              	.LBB143:
  93:Core/Src/audio.c **** }
 1000              		.loc 1 93 16 view .LVU259
 1001 0114 07EE900A 		vmov	s15, r0
 1002              	.LBE143:
 1003              	.LBE146:
 124:Core/Src/audio.c **** 		OpSetFreq(&sub_osc, f_sub);
 1004              		.loc 1 124 16 view .LVU260
 1005 0118 0C2D     		cmp	r5, #12
 1006              	.LBB147:
 1007              	.LBB144:
  93:Core/Src/audio.c **** }
 1008              		.loc 1 93 16 view .LVU261
 1009 011a 67EEA87A 		vmul.f32	s15, s15, s17
  93:Core/Src/audio.c **** }
 1010              		.loc 1 93 11 view .LVU262
 1011 011e 4D4B     		ldr	r3, .L46+44
 1012              	.LBE144:
 1013              	.LBE147:
 126:Core/Src/audio.c **** 		// sample = 0*osc_polyblepSaw(&osc1) + osc_polyblepRect(&sub_osc);
 1014              		.loc 1 126 17 view .LVU263
 1015 0120 4A48     		ldr	r0, .L46+36
 1016              	.LBB148:
 1017              	.LBB145:
  93:Core/Src/audio.c **** }
 1018              		.loc 1 93 11 view .LVU264
 1019 0122 C3ED017A 		vstr.32	s15, [r3, #4]
 1020              	.LVL76:
  93:Core/Src/audio.c **** }
 1021              		.loc 1 93 11 view .LVU265
 1022              	.LBE145:
 1023              	.LBE148:
 122:Core/Src/audio.c **** 		
 1024              		.loc 1 122 3 is_stmt 1 view .LVU266
 1025              	.LBB149:
 1026              	.LBI149:
  91:Core/Src/audio.c **** {
 1027              		.loc 1 91 6 view .LVU267
 1028              	.LBB150:
  93:Core/Src/audio.c **** }
 1029              		.loc 1 93 2 view .LVU268
ARM GAS  /var/folders/0z/tsy30v1j4xl4_7kw94k978ww0000gn/T//ccm5Xl3w.s 			page 27


 1030              	.LBE150:
 1031              	.LBE149:
 122:Core/Src/audio.c **** 		
 1032              		.loc 1 122 3 is_stmt 0 view .LVU269
 1033 0126 38EE098A 		vadd.f32	s16, s16, s18
 1034              	.LVL77:
 124:Core/Src/audio.c **** 		OpSetFreq(&sub_osc, f_sub);
 1035              		.loc 1 124 15 view .LVU270
 1036 012a 84BF     		itt	hi
 1037 012c 07EB8505 		addhi	r5, r7, r5, lsl #2
 1038              	.LVL78:
 1039              	.LBB153:
 1040              	.LBB154:
  93:Core/Src/audio.c **** }
 1041              		.loc 1 93 16 view .LVU271
 1042 0130 55ED0C7A 		vldrhi.32	s15, [r5, #-48]
 1043              	.LBE154:
 1044              	.LBE153:
 1045              	.LBB158:
 1046              	.LBB151:
  93:Core/Src/audio.c **** }
 1047              		.loc 1 93 11 view .LVU272
 1048 0134 484B     		ldr	r3, .L46+48
  93:Core/Src/audio.c **** }
 1049              		.loc 1 93 16 view .LVU273
 1050 0136 28EE288A 		vmul.f32	s16, s16, s17
 1051              	.LBE151:
 1052              	.LBE158:
 1053              	.LBB159:
 1054              	.LBB155:
 1055 013a 88BF     		it	hi
 1056 013c 67EEA87A 		vmulhi.f32	s15, s15, s17
 1057              	.LBE155:
 1058              	.LBE159:
 1059              	.LBB160:
 1060              	.LBB152:
  93:Core/Src/audio.c **** }
 1061              		.loc 1 93 11 view .LVU274
 1062 0140 83ED018A 		vstr.32	s16, [r3, #4]
 1063              	.LVL79:
  93:Core/Src/audio.c **** }
 1064              		.loc 1 93 11 view .LVU275
 1065              	.LBE152:
 1066              	.LBE160:
 124:Core/Src/audio.c **** 		OpSetFreq(&sub_osc, f_sub);
 1067              		.loc 1 124 3 is_stmt 1 view .LVU276
 125:Core/Src/audio.c **** 		sample = 0.5*(osc_polyblepSaw(&osc1) + osc_polyblepSaw(&osc2) + osc_polyblepSaw(&osc3) + osc_poly
 1068              		.loc 1 125 3 view .LVU277
 1069              	.LBB161:
 1070              	.LBI153:
  91:Core/Src/audio.c **** {
 1071              		.loc 1 91 6 view .LVU278
 1072              	.LBB156:
  93:Core/Src/audio.c **** }
 1073              		.loc 1 93 2 view .LVU279
  93:Core/Src/audio.c **** }
 1074              		.loc 1 93 11 is_stmt 0 view .LVU280
ARM GAS  /var/folders/0z/tsy30v1j4xl4_7kw94k978ww0000gn/T//ccm5Xl3w.s 			page 28


 1075 0144 454B     		ldr	r3, .L46+52
 1076              	.LBE156:
 1077              	.LBE161:
 1078 0146 98BF     		it	ls
 1079 0148 F0EE6A7A 		vmovls.f32	s15, s21
 1080              	.LBB162:
 1081              	.LBB157:
 1082 014c C3ED017A 		vstr.32	s15, [r3, #4]
 1083              	.LVL80:
  93:Core/Src/audio.c **** }
 1084              		.loc 1 93 11 view .LVU281
 1085              	.LBE157:
 1086              	.LBE162:
 126:Core/Src/audio.c **** 		// sample = 0*osc_polyblepSaw(&osc1) + osc_polyblepRect(&sub_osc);
 1087              		.loc 1 126 3 is_stmt 1 view .LVU282
 126:Core/Src/audio.c **** 		// sample = 0*osc_polyblepSaw(&osc1) + osc_polyblepRect(&sub_osc);
 1088              		.loc 1 126 17 is_stmt 0 view .LVU283
 1089 0150 FFF7FEFF 		bl	osc_polyblepSaw
 1090              	.LVL81:
 126:Core/Src/audio.c **** 		// sample = 0*osc_polyblepSaw(&osc1) + osc_polyblepRect(&sub_osc);
 1091              		.loc 1 126 42 view .LVU284
 1092 0154 3E48     		ldr	r0, .L46+40
 126:Core/Src/audio.c **** 		// sample = 0*osc_polyblepSaw(&osc1) + osc_polyblepRect(&sub_osc);
 1093              		.loc 1 126 17 view .LVU285
 1094 0156 B0EE408A 		vmov.f32	s16, s0
 126:Core/Src/audio.c **** 		// sample = 0*osc_polyblepSaw(&osc1) + osc_polyblepRect(&sub_osc);
 1095              		.loc 1 126 42 view .LVU286
 1096 015a FFF7FEFF 		bl	osc_polyblepSaw
 1097              	.LVL82:
 126:Core/Src/audio.c **** 		// sample = 0*osc_polyblepSaw(&osc1) + osc_polyblepRect(&sub_osc);
 1098              		.loc 1 126 67 view .LVU287
 1099 015e 3D48     		ldr	r0, .L46+44
 126:Core/Src/audio.c **** 		// sample = 0*osc_polyblepSaw(&osc1) + osc_polyblepRect(&sub_osc);
 1100              		.loc 1 126 40 view .LVU288
 1101 0160 38EE008A 		vadd.f32	s16, s16, s0
 126:Core/Src/audio.c **** 		// sample = 0*osc_polyblepSaw(&osc1) + osc_polyblepRect(&sub_osc);
 1102              		.loc 1 126 67 view .LVU289
 1103 0164 FFF7FEFF 		bl	osc_polyblepSaw
 1104              	.LVL83:
 126:Core/Src/audio.c **** 		// sample = 0*osc_polyblepSaw(&osc1) + osc_polyblepRect(&sub_osc);
 1105              		.loc 1 126 92 view .LVU290
 1106 0168 3B48     		ldr	r0, .L46+48
 126:Core/Src/audio.c **** 		// sample = 0*osc_polyblepSaw(&osc1) + osc_polyblepRect(&sub_osc);
 1107              		.loc 1 126 65 view .LVU291
 1108 016a 38EE008A 		vadd.f32	s16, s16, s0
 126:Core/Src/audio.c **** 		// sample = 0*osc_polyblepSaw(&osc1) + osc_polyblepRect(&sub_osc);
 1109              		.loc 1 126 92 view .LVU292
 1110 016e FFF7FEFF 		bl	osc_polyblepSaw
 1111              	.LVL84:
 126:Core/Src/audio.c **** 		// sample = 0*osc_polyblepSaw(&osc1) + osc_polyblepRect(&sub_osc);
 1112              		.loc 1 126 116 view .LVU293
 1113 0172 3A48     		ldr	r0, .L46+52
 126:Core/Src/audio.c **** 		// sample = 0*osc_polyblepSaw(&osc1) + osc_polyblepRect(&sub_osc);
 1114              		.loc 1 126 90 view .LVU294
 1115 0174 38EE008A 		vadd.f32	s16, s16, s0
 126:Core/Src/audio.c **** 		// sample = 0*osc_polyblepSaw(&osc1) + osc_polyblepRect(&sub_osc);
 1116              		.loc 1 126 116 view .LVU295
ARM GAS  /var/folders/0z/tsy30v1j4xl4_7kw94k978ww0000gn/T//ccm5Xl3w.s 			page 29


 1117 0178 FFF7FEFF 		bl	osc_polyblepRect
 1118              	.LVL85:
 136:Core/Src/audio.c **** 		Moog_filter.cutoff =clip(10.f * filt_env + 12000.f * pot1_norm, 20, 12000); // probably error in 
 1119              		.loc 1 136 14 view .LVU296
 1120 017c 3848     		ldr	r0, .L46+56
 126:Core/Src/audio.c **** 		// sample = 0*osc_polyblepSaw(&osc1) + osc_polyblepRect(&sub_osc);
 1121              		.loc 1 126 116 view .LVU297
 1122 017e B0EE40BA 		vmov.f32	s22, s0
 1123              	.LVL86:
 136:Core/Src/audio.c **** 		Moog_filter.cutoff =clip(10.f * filt_env + 12000.f * pot1_norm, 20, 12000); // probably error in 
 1124              		.loc 1 136 3 is_stmt 1 view .LVU298
 136:Core/Src/audio.c **** 		Moog_filter.cutoff =clip(10.f * filt_env + 12000.f * pot1_norm, 20, 12000); // probably error in 
 1125              		.loc 1 136 14 is_stmt 0 view .LVU299
 1126 0182 FFF7FEFF 		bl	ADSR_compute
 1127              	.LVL87:
 137:Core/Src/audio.c **** 		Moog_filter.k = 4.5f * pot2_norm;
 1128              		.loc 1 137 3 is_stmt 1 view .LVU300
 137:Core/Src/audio.c **** 		Moog_filter.k = 4.5f * pot2_norm;
 1129              		.loc 1 137 54 is_stmt 0 view .LVU301
 1130 0186 DBED007A 		vldr.32	s15, [fp]
 137:Core/Src/audio.c **** 		Moog_filter.k = 4.5f * pot2_norm;
 1131              		.loc 1 137 23 view .LVU302
 1132 018a 9FED2C1A 		vldr.32	s2, .L46+20
 137:Core/Src/audio.c **** 		Moog_filter.k = 4.5f * pot2_norm;
 1133              		.loc 1 137 54 view .LVU303
 1134 018e 67EEA97A 		vmul.f32	s15, s15, s19
 137:Core/Src/audio.c **** 		Moog_filter.k = 4.5f * pot2_norm;
 1135              		.loc 1 137 23 view .LVU304
 1136 0192 B2EE047A 		vmov.f32	s14, #1.0e+1
 1137 0196 E0EE077A 		vfma.f32	s15, s0, s14
 1138 019a F3EE040A 		vmov.f32	s1, #2.0e+1
 1139 019e B0EE670A 		vmov.f32	s0, s15
 1140 01a2 FFF7FEFF 		bl	clip
 1141              	.LVL88:
 138:Core/Src/audio.c **** 
 1142              		.loc 1 138 24 view .LVU305
 1143 01a6 DAED007A 		vldr.32	s15, [r10]
 137:Core/Src/audio.c **** 		Moog_filter.k = 4.5f * pot2_norm;
 1144              		.loc 1 137 22 view .LVU306
 1145 01aa 86ED000A 		vstr.32	s0, [r6]
 138:Core/Src/audio.c **** 
 1146              		.loc 1 138 3 is_stmt 1 view .LVU307
 138:Core/Src/audio.c **** 
 1147              		.loc 1 138 24 is_stmt 0 view .LVU308
 1148 01ae B1EE027A 		vmov.f32	s14, #4.5e+0
 126:Core/Src/audio.c **** 		// sample = 0*osc_polyblepSaw(&osc1) + osc_polyblepRect(&sub_osc);
 1149              		.loc 1 126 114 view .LVU309
 1150 01b2 38EE0B0A 		vadd.f32	s0, s16, s22
 138:Core/Src/audio.c **** 
 1151              		.loc 1 138 24 view .LVU310
 1152 01b6 67EE877A 		vmul.f32	s15, s15, s14
 140:Core/Src/audio.c **** 
 1153              		.loc 1 140 12 view .LVU311
 1154 01ba 2248     		ldr	r0, .L46+28
 138:Core/Src/audio.c **** 
 1155              		.loc 1 138 17 view .LVU312
 1156 01bc C6ED057A 		vstr.32	s15, [r6, #20]
ARM GAS  /var/folders/0z/tsy30v1j4xl4_7kw94k978ww0000gn/T//ccm5Xl3w.s 			page 30


 140:Core/Src/audio.c **** 
 1157              		.loc 1 140 3 is_stmt 1 view .LVU313
 140:Core/Src/audio.c **** 
 1158              		.loc 1 140 12 is_stmt 0 view .LVU314
 1159 01c0 20EE090A 		vmul.f32	s0, s0, s18
 1160 01c4 FFF7FEFF 		bl	MoogLP_compute
 1161              	.LVL89:
 143:Core/Src/audio.c **** 		sample *= amp_env;
 1162              		.loc 1 143 13 view .LVU315
 1163 01c8 2648     		ldr	r0, .L46+60
 140:Core/Src/audio.c **** 
 1164              		.loc 1 140 12 view .LVU316
 1165 01ca B0EE408A 		vmov.f32	s16, s0
 1166              	.LVL90:
 143:Core/Src/audio.c **** 		sample *= amp_env;
 1167              		.loc 1 143 3 is_stmt 1 view .LVU317
 143:Core/Src/audio.c **** 		sample *= amp_env;
 1168              		.loc 1 143 13 is_stmt 0 view .LVU318
 1169 01ce FFF7FEFF 		bl	ADSR_compute
 1170              	.LVL91:
 144:Core/Src/audio.c **** 
 1171              		.loc 1 144 3 is_stmt 1 view .LVU319
 154:Core/Src/audio.c **** 		sampleL = delayLOut;
 1172              		.loc 1 154 3 view .LVU320
 1173 01d2 2549     		ldr	r1, .L46+64
 1174 01d4 2548     		ldr	r0, .L46+68
 1175 01d6 20EE080A 		vmul.f32	s0, s0, s16
 1176              	.LVL92:
 154:Core/Src/audio.c **** 		sampleL = delayLOut;
 1177              		.loc 1 154 3 is_stmt 0 view .LVU321
 1178 01da FFF7FEFF 		bl	pingpongDelay_compute
 1179              	.LVL93:
 155:Core/Src/audio.c **** 		sampleR = delayROut;
 1180              		.loc 1 155 3 is_stmt 1 view .LVU322
 155:Core/Src/audio.c **** 		sampleR = delayROut;
 1181              		.loc 1 155 11 is_stmt 0 view .LVU323
 1182 01de 234B     		ldr	r3, .L46+68
 1183 01e0 93ED007A 		vldr.32	s14, [r3]
 1184              	.LVL94:
 156:Core/Src/audio.c **** 		//sampleL = sample;
 1185              		.loc 1 156 3 is_stmt 1 view .LVU324
 156:Core/Src/audio.c **** 		//sampleL = sample;
 1186              		.loc 1 156 11 is_stmt 0 view .LVU325
 1187 01e4 204B     		ldr	r3, .L46+64
 1188              	.LBB163:
 1189              	.LBB126:
  62:Core/Inc/helper_functions.h ****     {
 1190              		.loc 2 62 8 view .LVU326
 1191 01e6 F8EE086A 		vmov.f32	s13, #-3.0e+0
 1192 01ea B4EEE67A 		vcmpe.f32	s14, s13
 1193 01ee F1EE10FA 		vmrs	APSR_nzcv, FPSCR
 1194              	.LBE126:
 1195              	.LBE163:
 156:Core/Src/audio.c **** 		//sampleL = sample;
 1196              		.loc 1 156 11 view .LVU327
 1197 01f2 D3ED007A 		vldr.32	s15, [r3]
 1198              	.LVL95:
ARM GAS  /var/folders/0z/tsy30v1j4xl4_7kw94k978ww0000gn/T//ccm5Xl3w.s 			page 31


 161:Core/Src/audio.c **** 		sampleR = SoftClip(sampleR);
 1199              		.loc 1 161 3 is_stmt 1 view .LVU328
 1200              	.LBB164:
 1201              	.LBI122:
  60:Core/Inc/helper_functions.h **** {
 1202              		.loc 2 60 14 view .LVU329
 1203              	.LBB127:
  62:Core/Inc/helper_functions.h ****     {
 1204              		.loc 2 62 5 view .LVU330
  62:Core/Inc/helper_functions.h ****     {
 1205              		.loc 2 62 8 is_stmt 0 view .LVU331
 1206 01f6 7FF521AF 		bpl	.L44
 1207              	.LBE127:
 1208              	.LBE164:
 1209              	.LBB165:
 1210              	.LBB134:
 1211 01fa B8EE087A 		vmov.f32	s14, #-3.0e+0
 1212              	.LVL96:
  62:Core/Inc/helper_functions.h ****     {
 1213              		.loc 2 62 8 view .LVU332
 1214 01fe F4EEC77A 		vcmpe.f32	s15, s14
 1215 0202 F1EE10FA 		vmrs	APSR_nzcv, FPSCR
 1216              	.LBE134:
 1217              	.LBE165:
 1218              	.LBB166:
 1219              	.LBB128:
 1220 0206 1A4A     		ldr	r2, .L46+72
 1221              	.LVL97:
  62:Core/Inc/helper_functions.h ****     {
 1222              		.loc 2 62 8 view .LVU333
 1223              	.LBE128:
 1224              	.LBE166:
 162:Core/Src/audio.c **** 
 1225              		.loc 1 162 3 is_stmt 1 view .LVU334
 1226              	.LBB167:
  60:Core/Inc/helper_functions.h **** {
 1227              		.loc 2 60 14 view .LVU335
 1228              	.LBB135:
  62:Core/Inc/helper_functions.h ****     {
 1229              		.loc 2 62 5 view .LVU336
  62:Core/Inc/helper_functions.h ****     {
 1230              		.loc 2 62 8 is_stmt 0 view .LVU337
 1231 0208 7FF541AF 		bpl	.L45
 1232              	.L36:
 1233 020c 184B     		ldr	r3, .L46+72
 1234 020e 5FE7     		b	.L30
 1235              	.LVL98:
 1236              	.L35:
  62:Core/Inc/helper_functions.h ****     {
 1237              		.loc 2 62 8 view .LVU338
 1238              	.LBE135:
 1239              	.LBE167:
 1240              	.LBB168:
 1241              	.LBB129:
 1242 0210 47F6FF72 		movw	r2, #32767
 1243 0214 33E7     		b	.L29
 1244              	.LVL99:
ARM GAS  /var/folders/0z/tsy30v1j4xl4_7kw94k978ww0000gn/T//ccm5Xl3w.s 			page 32


 1245              	.L37:
  62:Core/Inc/helper_functions.h ****     {
 1246              		.loc 2 62 8 view .LVU339
 1247              	.LBE129:
 1248              	.LBE168:
 1249              	.LBB169:
 1250              	.LBB136:
 1251 0216 47F6FF73 		movw	r3, #32767
 1252 021a 59E7     		b	.L30
 1253              	.LVL100:
 1254              	.L43:
  62:Core/Inc/helper_functions.h ****     {
 1255              		.loc 2 62 8 view .LVU340
 1256              	.LBE136:
 1257              	.LBE169:
 1258              		.loc 1 172 1 view .LVU341
 1259 021c 03B0     		add	sp, sp, #12
 1260              		.cfi_def_cfa_offset 68
 1261              		@ sp needed
 1262 021e BDEC088B 		vldm	sp!, {d8-d11}
 1263              		.cfi_restore 86
 1264              		.cfi_restore 87
 1265              		.cfi_restore 84
 1266              		.cfi_restore 85
 1267              		.cfi_restore 82
 1268              		.cfi_restore 83
 1269              		.cfi_restore 80
 1270              		.cfi_restore 81
 1271              		.cfi_def_cfa_offset 36
 1272 0222 BDE8F08F 		pop	{r4, r5, r6, r7, r8, r9, r10, fp, pc}
 1273              	.LVL101:
 1274              	.L40:
 1275              		.cfi_def_cfa_offset 0
 1276              		.cfi_restore 4
 1277              		.cfi_restore 5
 1278              		.cfi_restore 6
 1279              		.cfi_restore 7
 1280              		.cfi_restore 8
 1281              		.cfi_restore 9
 1282              		.cfi_restore 10
 1283              		.cfi_restore 11
 1284              		.cfi_restore 14
 1285              		.loc 1 172 1 view .LVU342
 1286 0226 7047     		bx	lr
 1287              	.L47:
 1288              		.align	3
 1289              	.L46:
 1290 0228 9A999999 		.word	-1717986918
 1291 022c 9999C93F 		.word	1070176665
 1292 0230 00000000 		.word	.LANCHOR0
 1293 0234 8D3B803F 		.word	1065368461
 1294 0238 EF0C0341 		.word	1090718959
 1295 023c 00803B46 		.word	1178304512
 1296 0240 00FEFF46 		.word	1191181824
 1297 0244 00000000 		.word	Moog_filter
 1298 0248 00000000 		.word	currentPitch
 1299 024c 00000000 		.word	osc1
ARM GAS  /var/folders/0z/tsy30v1j4xl4_7kw94k978ww0000gn/T//ccm5Xl3w.s 			page 33


 1300 0250 00000000 		.word	osc2
 1301 0254 00000000 		.word	osc3
 1302 0258 00000000 		.word	osc4
 1303 025c 00000000 		.word	sub_osc
 1304 0260 00000000 		.word	adsr_filt
 1305 0264 00000000 		.word	adsr_amp
 1306 0268 00000000 		.word	.LANCHOR1
 1307 026c 00000000 		.word	.LANCHOR2
 1308 0270 0180FFFF 		.word	-32767
 1309 0274 00000000 		.word	pot1_norm
 1310 0278 00000000 		.word	pot2_norm
 1311              		.cfi_endproc
 1312              	.LFE241:
 1314              		.section	.text.BSP_AUDIO_OUT_HalfTransfer_CallBack,"ax",%progbits
 1315              		.align	1
 1316              		.p2align 2,,3
 1317              		.global	BSP_AUDIO_OUT_HalfTransfer_CallBack
 1318              		.syntax unified
 1319              		.thumb
 1320              		.thumb_func
 1322              	BSP_AUDIO_OUT_HalfTransfer_CallBack:
 1323              	.LFB242:
 173:Core/Src/audio.c **** 
 174:Core/Src/audio.c **** 
 175:Core/Src/audio.c **** 
 176:Core/Src/audio.c **** void BSP_AUDIO_OUT_HalfTransfer_CallBack(void)
 177:Core/Src/audio.c **** {
 1324              		.loc 1 177 1 is_stmt 1 view -0
 1325              		.cfi_startproc
 1326              		@ args = 0, pretend = 0, frame = 0
 1327              		@ frame_needed = 0, uses_anonymous_args = 0
 1328              		@ link register save eliminated.
 178:Core/Src/audio.c **** 	audioBlock((uint16_t *)audioBuffer, BUFFER_SIZE_DIV_4);
 1329              		.loc 1 178 2 view .LVU344
 1330 0000 0148     		ldr	r0, .L49
 1331 0002 FFF7FEBF 		b	audioBlock.constprop.0
 1332              	.LVL102:
 1333              	.L50:
 1334 0006 00BF     		.align	2
 1335              	.L49:
 1336 0008 00000000 		.word	.LANCHOR3
 1337              		.cfi_endproc
 1338              	.LFE242:
 1340              		.section	.text.BSP_AUDIO_OUT_TransferComplete_CallBack,"ax",%progbits
 1341              		.align	1
 1342              		.p2align 2,,3
 1343              		.global	BSP_AUDIO_OUT_TransferComplete_CallBack
 1344              		.syntax unified
 1345              		.thumb
 1346              		.thumb_func
 1348              	BSP_AUDIO_OUT_TransferComplete_CallBack:
 1349              	.LFB243:
 179:Core/Src/audio.c **** }
 180:Core/Src/audio.c **** 
 181:Core/Src/audio.c **** void BSP_AUDIO_OUT_TransferComplete_CallBack(void)
 182:Core/Src/audio.c **** {
 1350              		.loc 1 182 1 view -0
ARM GAS  /var/folders/0z/tsy30v1j4xl4_7kw94k978ww0000gn/T//ccm5Xl3w.s 			page 34


 1351              		.cfi_startproc
 1352              		@ args = 0, pretend = 0, frame = 0
 1353              		@ frame_needed = 0, uses_anonymous_args = 0
 1354              		@ link register save eliminated.
 183:Core/Src/audio.c **** 	audioBlock((uint16_t *)(audioBuffer + BUFFER_SIZE_DIV_2), BUFFER_SIZE_DIV_4);
 1355              		.loc 1 183 2 view .LVU346
 1356 0000 0148     		ldr	r0, .L52
 1357 0002 FFF7FEBF 		b	audioBlock.constprop.0
 1358              	.LVL103:
 1359              	.L53:
 1360 0006 00BF     		.align	2
 1361              	.L52:
 1362 0008 00010000 		.word	.LANCHOR3+256
 1363              		.cfi_endproc
 1364              	.LFE243:
 1366              		.section	.text.BSP_AUDIO_OUT_Error_CallBack,"ax",%progbits
 1367              		.align	1
 1368              		.p2align 2,,3
 1369              		.global	BSP_AUDIO_OUT_Error_CallBack
 1370              		.syntax unified
 1371              		.thumb
 1372              		.thumb_func
 1374              	BSP_AUDIO_OUT_Error_CallBack:
 1375              	.LFB244:
 184:Core/Src/audio.c **** }
 185:Core/Src/audio.c **** 
 186:Core/Src/audio.c **** void BSP_AUDIO_OUT_Error_CallBack(void)
 187:Core/Src/audio.c **** {
 1376              		.loc 1 187 1 view -0
 1377              		.cfi_startproc
 1378              		@ Volatile: function does not return.
 1379              		@ args = 0, pretend = 0, frame = 0
 1380              		@ frame_needed = 0, uses_anonymous_args = 0
 1381              		@ link register save eliminated.
 1382              	.L55:
 188:Core/Src/audio.c **** 	/* Stop the program with an infinite loop */
 189:Core/Src/audio.c **** 	while (1)
 1383              		.loc 1 189 2 discriminator 1 view .LVU348
 190:Core/Src/audio.c **** 	{
 191:Core/Src/audio.c **** 	}
 1384              		.loc 1 191 2 discriminator 1 view .LVU349
 189:Core/Src/audio.c **** 	{
 1385              		.loc 1 189 8 discriminator 1 view .LVU350
 1386 0000 FEE7     		b	.L55
 1387              		.cfi_endproc
 1388              	.LFE244:
 1390 0002 00BF     		.section	.text.DMA1_Stream7_IRQHandler,"ax",%progbits
 1391              		.align	1
 1392              		.p2align 2,,3
 1393              		.global	DMA1_Stream7_IRQHandler
 1394              		.syntax unified
 1395              		.thumb
 1396              		.thumb_func
 1398              	DMA1_Stream7_IRQHandler:
 1399              	.LFB245:
 192:Core/Src/audio.c **** }
 193:Core/Src/audio.c **** 
ARM GAS  /var/folders/0z/tsy30v1j4xl4_7kw94k978ww0000gn/T//ccm5Xl3w.s 			page 35


 194:Core/Src/audio.c **** 
 195:Core/Src/audio.c **** void I2S3_IRQHandler(void)
 196:Core/Src/audio.c **** {
 1400              		.loc 1 196 1 view -0
 1401              		.cfi_startproc
 1402              		@ args = 0, pretend = 0, frame = 0
 1403              		@ frame_needed = 0, uses_anonymous_args = 0
 1404              		@ link register save eliminated.
 197:Core/Src/audio.c **** 	HAL_DMA_IRQHandler(hAudioOutI2s.hdmatx);
 1405              		.loc 1 197 2 view .LVU352
 1406 0000 014B     		ldr	r3, .L57
 1407 0002 986B     		ldr	r0, [r3, #56]
 1408 0004 FFF7FEBF 		b	HAL_DMA_IRQHandler
 1409              	.LVL104:
 1410              	.L58:
 1411              		.align	2
 1412              	.L57:
 1413 0008 00000000 		.word	hAudioOutI2s
 1414              		.cfi_endproc
 1415              	.LFE245:
 1417              		.section	.text.DMA1_Stream3_IRQHandler,"ax",%progbits
 1418              		.align	1
 1419              		.p2align 2,,3
 1420              		.global	DMA1_Stream3_IRQHandler
 1421              		.syntax unified
 1422              		.thumb
 1423              		.thumb_func
 1425              	DMA1_Stream3_IRQHandler:
 1426              	.LFB246:
 198:Core/Src/audio.c **** }
 199:Core/Src/audio.c **** void I2S2_IRQHandler(void)
 200:Core/Src/audio.c **** {
 1427              		.loc 1 200 1 view -0
 1428              		.cfi_startproc
 1429              		@ args = 0, pretend = 0, frame = 0
 1430              		@ frame_needed = 0, uses_anonymous_args = 0
 1431              		@ link register save eliminated.
 201:Core/Src/audio.c **** 	HAL_DMA_IRQHandler(hAudioInI2s.hdmarx);
 1432              		.loc 1 201 2 view .LVU354
 1433 0000 014B     		ldr	r3, .L60
 1434 0002 D86B     		ldr	r0, [r3, #60]
 1435 0004 FFF7FEBF 		b	HAL_DMA_IRQHandler
 1436              	.LVL105:
 1437              	.L61:
 1438              		.align	2
 1439              	.L60:
 1440 0008 00000000 		.word	hAudioInI2s
 1441              		.cfi_endproc
 1442              	.LFE246:
 1444              		.global	delayROut
 1445              		.global	delayLOut
 1446              		.global	audioBuffer
 1447              		.global	pbend
 1448              		.global	mtof
 1449              		.section	.bss.audioBuffer,"aw",%nobits
 1450              		.align	2
 1451              		.set	.LANCHOR3,. + 0
ARM GAS  /var/folders/0z/tsy30v1j4xl4_7kw94k978ww0000gn/T//ccm5Xl3w.s 			page 36


 1454              	audioBuffer:
 1455 0000 00000000 		.space	512
 1455      00000000 
 1455      00000000 
 1455      00000000 
 1455      00000000 
 1456              		.section	.bss.delayLOut,"aw",%nobits
 1457              		.align	2
 1458              		.set	.LANCHOR2,. + 0
 1461              	delayLOut:
 1462 0000 00000000 		.space	4
 1463              		.section	.bss.delayROut,"aw",%nobits
 1464              		.align	2
 1465              		.set	.LANCHOR1,. + 0
 1468              	delayROut:
 1469 0000 00000000 		.space	4
 1470              		.section	.rodata.mtof,"a"
 1471              		.align	2
 1472              		.set	.LANCHOR0,. + 0
 1475              	mtof:
 1476 0000 13D00241 		.word	1090703379
 1477 0004 60970A41 		.word	1091213152
 1478 0008 17D51241 		.word	1091753239
 1479 000c 41901B41 		.word	1092325441
 1480 0010 54D02441 		.word	1092931668
 1481 0014 369D2E41 		.word	1093573942
 1482 0018 4AFF3841 		.word	1094254410
 1483 001c 6AFF4341 		.word	1094975338
 1484 0020 01A74F41 		.word	1095739137
 1485 0024 00005C41 		.word	1096548352
 1486 0028 F7146941 		.word	1097405687
 1487 002c 10F17641 		.word	1098314000
 1488 0030 13D08241 		.word	1099091987
 1489 0034 60978A41 		.word	1099601760
 1490 0038 17D59241 		.word	1100141847
 1491 003c 41909B41 		.word	1100714049
 1492 0040 54D0A441 		.word	1101320276
 1493 0044 369DAE41 		.word	1101962550
 1494 0048 49FFB841 		.word	1102643017
 1495 004c 6BFFC341 		.word	1103363947
 1496 0050 01A7CF41 		.word	1104127745
 1497 0054 0000DC41 		.word	1104936960
 1498 0058 F614E941 		.word	1105794294
 1499 005c 10F1F641 		.word	1106702608
 1500 0060 13D00242 		.word	1107480595
 1501 0064 60970A42 		.word	1107990368
 1502 0068 17D51242 		.word	1108530455
 1503 006c 41901B42 		.word	1109102657
 1504 0070 54D02442 		.word	1109708884
 1505 0074 379D2E42 		.word	1110351159
 1506 0078 49FF3842 		.word	1111031625
 1507 007c 6AFF4342 		.word	1111752554
 1508 0080 00A74F42 		.word	1112516352
 1509 0084 00005C42 		.word	1113325568
 1510 0088 F6146942 		.word	1114182902
 1511 008c 10F17642 		.word	1115091216
 1512 0090 12D08242 		.word	1115869202
ARM GAS  /var/folders/0z/tsy30v1j4xl4_7kw94k978ww0000gn/T//ccm5Xl3w.s 			page 37


 1513 0094 60978A42 		.word	1116378976
 1514 0098 17D59242 		.word	1116919063
 1515 009c 41909B42 		.word	1117491265
 1516 00a0 54D0A442 		.word	1118097492
 1517 00a4 379DAE42 		.word	1118739767
 1518 00a8 49FFB842 		.word	1119420233
 1519 00ac 6AFFC342 		.word	1120141162
 1520 00b0 00A7CF42 		.word	1120904960
 1521 00b4 0000DC42 		.word	1121714176
 1522 00b8 F614E942 		.word	1122571510
 1523 00bc 10F1F642 		.word	1123479824
 1524 00c0 13D00243 		.word	1124257811
 1525 00c4 60970A43 		.word	1124767584
 1526 00c8 17D51243 		.word	1125307671
 1527 00cc 41901B43 		.word	1125879873
 1528 00d0 54D02443 		.word	1126486100
 1529 00d4 379D2E43 		.word	1127128375
 1530 00d8 49FF3843 		.word	1127808841
 1531 00dc 6AFF4343 		.word	1128529770
 1532 00e0 00A74F43 		.word	1129293568
 1533 00e4 00005C43 		.word	1130102784
 1534 00e8 F6146943 		.word	1130960118
 1535 00ec 10F17643 		.word	1131868432
 1536 00f0 13D08243 		.word	1132646419
 1537 00f4 60978A43 		.word	1133156192
 1538 00f8 17D59243 		.word	1133696279
 1539 00fc 41909B43 		.word	1134268481
 1540 0100 54D0A443 		.word	1134874708
 1541 0104 379DAE43 		.word	1135516983
 1542 0108 49FFB843 		.word	1136197449
 1543 010c 6AFFC343 		.word	1136918378
 1544 0110 00A7CF43 		.word	1137682176
 1545 0114 0000DC43 		.word	1138491392
 1546 0118 F614E943 		.word	1139348726
 1547 011c 10F1F643 		.word	1140257040
 1548 0120 13D00244 		.word	1141035027
 1549 0124 60970A44 		.word	1141544800
 1550 0128 17D51244 		.word	1142084887
 1551 012c 41901B44 		.word	1142657089
 1552 0130 54D02444 		.word	1143263316
 1553 0134 379D2E44 		.word	1143905591
 1554 0138 49FF3844 		.word	1144586057
 1555 013c 6AFF4344 		.word	1145306986
 1556 0140 00A74F44 		.word	1146070784
 1557 0144 00005C44 		.word	1146880000
 1558 0148 F6146944 		.word	1147737334
 1559 014c 10F17644 		.word	1148645648
 1560 0150 13D08244 		.word	1149423635
 1561 0154 60978A44 		.word	1149933408
 1562 0158 17D59244 		.word	1150473495
 1563 015c 41909B44 		.word	1151045697
 1564 0160 54D0A444 		.word	1151651924
 1565 0164 379DAE44 		.word	1152294199
 1566 0168 49FFB844 		.word	1152974665
 1567 016c 6AFFC344 		.word	1153695594
 1568 0170 00A7CF44 		.word	1154459392
 1569 0174 0000DC44 		.word	1155268608
ARM GAS  /var/folders/0z/tsy30v1j4xl4_7kw94k978ww0000gn/T//ccm5Xl3w.s 			page 38


 1570 0178 F614E944 		.word	1156125942
 1571 017c 10F1F644 		.word	1157034256
 1572 0180 13D00245 		.word	1157812243
 1573 0184 60970A45 		.word	1158322016
 1574 0188 17D51245 		.word	1158862103
 1575 018c 41901B45 		.word	1159434305
 1576 0190 54D02445 		.word	1160040532
 1577 0194 379D2E45 		.word	1160682807
 1578 0198 49FF3845 		.word	1161363273
 1579 019c 6AFF4345 		.word	1162084202
 1580 01a0 00A74F45 		.word	1162848000
 1581 01a4 00005C45 		.word	1163657216
 1582 01a8 F6146945 		.word	1164514550
 1583 01ac 10F17645 		.word	1165422864
 1584 01b0 13D08245 		.word	1166200851
 1585 01b4 60978A45 		.word	1166710624
 1586 01b8 17D59245 		.word	1167250711
 1587 01bc 41909B45 		.word	1167822913
 1588 01c0 54D0A445 		.word	1168429140
 1589 01c4 379DAE45 		.word	1169071415
 1590 01c8 49FFB845 		.word	1169751881
 1591 01cc 6AFFC345 		.word	1170472810
 1592 01d0 00A7CF45 		.word	1171236608
 1593 01d4 0000DC45 		.word	1172045824
 1594 01d8 F614E945 		.word	1172903158
 1595 01dc 10F1F645 		.word	1173811472
 1596 01e0 13D00246 		.word	1174589459
 1597 01e4 60970A46 		.word	1175099232
 1598 01e8 17D51246 		.word	1175639319
 1599 01ec 41901B46 		.word	1176211521
 1600 01f0 54D02446 		.word	1176817748
 1601 01f4 379D2E46 		.word	1177460023
 1602 01f8 49FF3846 		.word	1178140489
 1603 01fc 6AFF4346 		.word	1178861418
 1604              		.section	.rodata.pbend,"a"
 1605              		.align	2
 1608              	pbend:
 1609 0000 0000003F 		.word	1056964608
 1610 0004 5E2C003F 		.word	1056975966
 1611 0008 DE58003F 		.word	1056987358
 1612 000c 5E85003F 		.word	1056998750
 1613 0010 EEB1003F 		.word	1057010158
 1614 0014 8FDE003F 		.word	1057021583
 1615 0018 410B013F 		.word	1057033025
 1616 001c 0438013F 		.word	1057044484
 1617 0020 D864013F 		.word	1057055960
 1618 0024 AC91013F 		.word	1057067436
 1619 0028 A1BE013F 		.word	1057078945
 1620 002c A7EB013F 		.word	1057090471
 1621 0030 AD18023F 		.word	1057101997
 1622 0034 D445023F 		.word	1057113556
 1623 0038 FC72023F 		.word	1057125116
 1624 003c 34A0023F 		.word	1057136692
 1625 0040 8ECD023F 		.word	1057148302
 1626 0044 E8FA023F 		.word	1057159912
 1627 0048 5228033F 		.word	1057171538
 1628 004c CE55033F 		.word	1057183182
ARM GAS  /var/folders/0z/tsy30v1j4xl4_7kw94k978ww0000gn/T//ccm5Xl3w.s 			page 39


 1629 0050 5A83033F 		.word	1057194842
 1630 0054 F7B0033F 		.word	1057206519
 1631 0058 A4DE033F 		.word	1057218212
 1632 005c 630C043F 		.word	1057229923
 1633 0060 213A043F 		.word	1057241633
 1634 0064 0168043F 		.word	1057253377
 1635 0068 F295043F 		.word	1057265138
 1636 006c E3C3043F 		.word	1057276899
 1637 0070 F5F1043F 		.word	1057288693
 1638 0074 1920053F 		.word	1057300505
 1639 0078 3C4E053F 		.word	1057312316
 1640 007c 707C053F 		.word	1057324144
 1641 0080 C5AA053F 		.word	1057336005
 1642 0084 1BD9053F 		.word	1057347867
 1643 0088 9207063F 		.word	1057359762
 1644 008c 0936063F 		.word	1057371657
 1645 0090 9164063F 		.word	1057383569
 1646 0094 2993063F 		.word	1057395497
 1647 0098 D3C1063F 		.word	1057407443
 1648 009c 9EF0063F 		.word	1057419422
 1649 00a0 681F073F 		.word	1057431400
 1650 00a4 444E073F 		.word	1057443396
 1651 00a8 317D073F 		.word	1057455409
 1652 00ac 2EAC073F 		.word	1057467438
 1653 00b0 3CDB073F 		.word	1057479484
 1654 00b4 5B0A083F 		.word	1057491547
 1655 00b8 7A39083F 		.word	1057503610
 1656 00bc BA68083F 		.word	1057515706
 1657 00c0 0B98083F 		.word	1057527819
 1658 00c4 6DC7083F 		.word	1057539949
 1659 00c8 E0F6083F 		.word	1057552096
 1660 00cc 6326093F 		.word	1057564259
 1661 00d0 E755093F 		.word	1057576423
 1662 00d4 8C85093F 		.word	1057588620
 1663 00d8 42B5093F 		.word	1057600834
 1664 00dc 08E5093F 		.word	1057613064
 1665 00e0 CF140A3F 		.word	1057625295
 1666 00e4 B7440A3F 		.word	1057637559
 1667 00e8 B0740A3F 		.word	1057649840
 1668 00ec A9A40A3F 		.word	1057662121
 1669 00f0 C3D40A3F 		.word	1057674435
 1670 00f4 EE040B3F 		.word	1057686766
 1671 00f8 2B350B3F 		.word	1057699115
 1672 00fc 67650B3F 		.word	1057711463
 1673 0100 C4950B3F 		.word	1057723844
 1674 0104 32C60B3F 		.word	1057736242
 1675 0108 A1F60B3F 		.word	1057748641
 1676 010c 31270C3F 		.word	1057761073
 1677 0110 D1570C3F 		.word	1057773521
 1678 0114 72880C3F 		.word	1057785970
 1679 0118 34B90C3F 		.word	1057798452
 1680 011c 07EA0C3F 		.word	1057810951
 1681 0120 DA1A0D3F 		.word	1057823450
 1682 0124 CF4B0D3F 		.word	1057835983
 1683 0128 D47C0D3F 		.word	1057848532
 1684 012c DAAD0D3F 		.word	1057861082
 1685 0130 01DF0D3F 		.word	1057873665
ARM GAS  /var/folders/0z/tsy30v1j4xl4_7kw94k978ww0000gn/T//ccm5Xl3w.s 			page 40


 1686 0134 38100E3F 		.word	1057886264
 1687 0138 81410E3F 		.word	1057898881
 1688 013c DA720E3F 		.word	1057911514
 1689 0140 33A40E3F 		.word	1057924147
 1690 0144 AED50E3F 		.word	1057936814
 1691 0148 3A070F3F 		.word	1057949498
 1692 014c D6380F3F 		.word	1057962198
 1693 0150 836A0F3F 		.word	1057974915
 1694 0154 419C0F3F 		.word	1057987649
 1695 0158 10CE0F3F 		.word	1058000400
 1696 015c EFFF0F3F 		.word	1058013167
 1697 0160 DF31103F 		.word	1058025951
 1698 0164 E063103F 		.word	1058038752
 1699 0168 F295103F 		.word	1058051570
 1700 016c 15C8103F 		.word	1058064405
 1701 0170 48FA103F 		.word	1058077256
 1702 0174 8C2C113F 		.word	1058090124
 1703 0178 F25E113F 		.word	1058103026
 1704 017c 5891113F 		.word	1058115928
 1705 0180 CEC3113F 		.word	1058128846
 1706 0184 66F6113F 		.word	1058141798
 1707 0188 FE28123F 		.word	1058154750
 1708 018c B85B123F 		.word	1058167736
 1709 0190 718E123F 		.word	1058180721
 1710 0194 4CC1123F 		.word	1058193740
 1711 0198 28F4123F 		.word	1058206760
 1712 019c 2427133F 		.word	1058219812
 1713 01a0 325A133F 		.word	1058232882
 1714 01a4 3F8D133F 		.word	1058245951
 1715 01a8 6EC0133F 		.word	1058259054
 1716 01ac AEF3133F 		.word	1058272174
 1717 01b0 FE26143F 		.word	1058285310
 1718 01b4 605A143F 		.word	1058298464
 1719 01b8 D28D143F 		.word	1058311634
 1720 01bc 55C1143F 		.word	1058324821
 1721 01c0 E8F4143F 		.word	1058338024
 1722 01c4 9E28153F 		.word	1058351262
 1723 01c8 535C153F 		.word	1058364499
 1724 01cc 1990153F 		.word	1058377753
 1725 01d0 00C4153F 		.word	1058391040
 1726 01d4 E8F7153F 		.word	1058404328
 1727 01d8 F12B163F 		.word	1058417649
 1728 01dc 0B60163F 		.word	1058430987
 1729 01e0 2594163F 		.word	1058444325
 1730 01e4 60C8163F 		.word	1058457696
 1731 01e8 ADFC163F 		.word	1058471085
 1732 01ec 0A31173F 		.word	1058484490
 1733 01f0 7765173F 		.word	1058497911
 1734 01f4 079A173F 		.word	1058511367
 1735 01f8 96CE173F 		.word	1058524822
 1736 01fc 3603183F 		.word	1058538294
 1737 0200 F837183F 		.word	1058551800
 1738 0204 B96C183F 		.word	1058565305
 1739 0208 9DA1183F 		.word	1058578845
 1740 020c 80D6183F 		.word	1058592384
 1741 0210 850B193F 		.word	1058605957
 1742 0214 9A40193F 		.word	1058619546
ARM GAS  /var/folders/0z/tsy30v1j4xl4_7kw94k978ww0000gn/T//ccm5Xl3w.s 			page 41


 1743 0218 C075193F 		.word	1058633152
 1744 021c F8AA193F 		.word	1058646776
 1745 0220 3FE0193F 		.word	1058660415
 1746 0224 A9151A3F 		.word	1058674089
 1747 0228 124B1A3F 		.word	1058687762
 1748 022c 9D801A3F 		.word	1058701469
 1749 0230 28B61A3F 		.word	1058715176
 1750 0234 D5EB1A3F 		.word	1058728917
 1751 0238 92211B3F 		.word	1058742674
 1752 023c 60571B3F 		.word	1058756448
 1753 0240 3F8D1B3F 		.word	1058770239
 1754 0244 2FC31B3F 		.word	1058784047
 1755 0248 2FF91B3F 		.word	1058797871
 1756 024c 512F1C3F 		.word	1058811729
 1757 0250 73651C3F 		.word	1058825587
 1758 0254 B79B1C3F 		.word	1058839479
 1759 0258 FAD11C3F 		.word	1058853370
 1760 025c 5F081D3F 		.word	1058867295
 1761 0260 D53E1D3F 		.word	1058881237
 1762 0264 5C751D3F 		.word	1058895196
 1763 0268 04AC1D3F 		.word	1058909188
 1764 026c ACE21D3F 		.word	1058923180
 1765 0270 76191E3F 		.word	1058937206
 1766 0274 40501E3F 		.word	1058951232
 1767 0278 2B871E3F 		.word	1058965291
 1768 027c 27BE1E3F 		.word	1058979367
 1769 0280 34F51E3F 		.word	1058993460
 1770 0284 522C1F3F 		.word	1059007570
 1771 0288 80631F3F 		.word	1059021696
 1772 028c D09A1F3F 		.word	1059035856
 1773 0290 20D21F3F 		.word	1059050016
 1774 0294 9109203F 		.word	1059064209
 1775 0298 1441203F 		.word	1059078420
 1776 029c A778203F 		.word	1059092647
 1777 02a0 4BB0203F 		.word	1059106891
 1778 02a4 10E8203F 		.word	1059121168
 1779 02a8 D61F213F 		.word	1059135446
 1780 02ac BC57213F 		.word	1059149756
 1781 02b0 B48F213F 		.word	1059164084
 1782 02b4 BDC7213F 		.word	1059178429
 1783 02b8 D6FF213F 		.word	1059192790
 1784 02bc 0038223F 		.word	1059207168
 1785 02c0 3B70223F 		.word	1059221563
 1786 02c4 97A8223F 		.word	1059235991
 1787 02c8 05E1223F 		.word	1059250437
 1788 02cc 8319233F 		.word	1059264899
 1789 02d0 1152233F 		.word	1059279377
 1790 02d4 B18A233F 		.word	1059293873
 1791 02d8 72C3233F 		.word	1059308402
 1792 02dc 33FC233F 		.word	1059322931
 1793 02e0 1635243F 		.word	1059337494
 1794 02e4 096E243F 		.word	1059352073
 1795 02e8 0DA7243F 		.word	1059366669
 1796 02ec 22E0243F 		.word	1059381282
 1797 02f0 5919253F 		.word	1059395929
 1798 02f4 A052253F 		.word	1059410592
 1799 02f8 E78B253F 		.word	1059425255
ARM GAS  /var/folders/0z/tsy30v1j4xl4_7kw94k978ww0000gn/T//ccm5Xl3w.s 			page 42


 1800 02fc 61C5253F 		.word	1059439969
 1801 0300 DAFE253F 		.word	1059454682
 1802 0304 6538263F 		.word	1059469413
 1803 0308 1172263F 		.word	1059484177
 1804 030c CDAB263F 		.word	1059498957
 1805 0310 9BE5263F 		.word	1059513755
 1806 0314 791F273F 		.word	1059528569
 1807 0318 6859273F 		.word	1059543400
 1808 031c 7993273F 		.word	1059558265
 1809 0320 9ACD273F 		.word	1059573146
 1810 0324 CC07283F 		.word	1059588044
 1811 0328 0F42283F 		.word	1059602959
 1812 032c 637C283F 		.word	1059617891
 1813 0330 D8B6283F 		.word	1059632856
 1814 0334 5EF1283F 		.word	1059647838
 1815 0338 F52B293F 		.word	1059662837
 1816 033c 9D66293F 		.word	1059677853
 1817 0340 55A1293F 		.word	1059692885
 1818 0344 2FDC293F 		.word	1059707951
 1819 0348 1A172A3F 		.word	1059723034
 1820 034c 15522A3F 		.word	1059738133
 1821 0350 228D2A3F 		.word	1059753250
 1822 0354 50C82A3F 		.word	1059768400
 1823 0358 8E032B3F 		.word	1059783566
 1824 035c DE3E2B3F 		.word	1059798750
 1825 0360 3E7A2B3F 		.word	1059813950
 1826 0364 AFB52B3F 		.word	1059829167
 1827 0368 41F12B3F 		.word	1059844417
 1828 036c E42C2C3F 		.word	1059859684
 1829 0370 98682C3F 		.word	1059874968
 1830 0374 5DA42C3F 		.word	1059890269
 1831 0378 44E02C3F 		.word	1059905604
 1832 037c 3B1C2D3F 		.word	1059920955
 1833 0380 43582D3F 		.word	1059936323
 1834 0384 5B942D3F 		.word	1059951707
 1835 0388 96D02D3F 		.word	1059967126
 1836 038c D00C2E3F 		.word	1059982544
 1837 0390 3D492E3F 		.word	1059998013
 1838 0394 A9852E3F 		.word	1060013481
 1839 0398 27C22E3F 		.word	1060028967
 1840 039c C5FE2E3F 		.word	1060044485
 1841 03a0 753B2F3F 		.word	1060060021
 1842 03a4 46782F3F 		.word	1060075590
 1843 03a8 18B52F3F 		.word	1060091160
 1844 03ac 0AF22F3F 		.word	1060106762
 1845 03b0 0E2F303F 		.word	1060122382
 1846 03b4 226C303F 		.word	1060138018
 1847 03b8 58A9303F 		.word	1060153688
 1848 03bc 9FE6303F 		.word	1060169375
 1849 03c0 F623313F 		.word	1060185078
 1850 03c4 5F61313F 		.word	1060200799
 1851 03c8 E99E313F 		.word	1060216553
 1852 03cc 83DC313F 		.word	1060232323
 1853 03d0 2E1A323F 		.word	1060248110
 1854 03d4 FB57323F 		.word	1060263931
 1855 03d8 C895323F 		.word	1060279752
 1856 03dc C8D3323F 		.word	1060295624
ARM GAS  /var/folders/0z/tsy30v1j4xl4_7kw94k978ww0000gn/T//ccm5Xl3w.s 			page 43


 1857 03e0 C711333F 		.word	1060311495
 1858 03e4 D74F333F 		.word	1060327383
 1859 03e8 088E333F 		.word	1060343304
 1860 03ec 5CCC333F 		.word	1060359260
 1861 03f0 AF0A343F 		.word	1060375215
 1862 03f4 2349343F 		.word	1060391203
 1863 03f8 A987343F 		.word	1060407209
 1864 03fc 3FC6343F 		.word	1060423231
 1865 0400 F704353F 		.word	1060439287
 1866 0404 BF43353F 		.word	1060455359
 1867 0408 9982353F 		.word	1060471449
 1868 040c 83C1353F 		.word	1060487555
 1869 0410 8F00363F 		.word	1060503695
 1870 0414 AB3F363F 		.word	1060519851
 1871 0418 E97E363F 		.word	1060536041
 1872 041c 38BE363F 		.word	1060552248
 1873 0420 97FD363F 		.word	1060568471
 1874 0424 083D373F 		.word	1060584712
 1875 0428 9A7C373F 		.word	1060600986
 1876 042c 3CBC373F 		.word	1060617276
 1877 0430 F0FB373F 		.word	1060633584
 1878 0434 C53B383F 		.word	1060649925
 1879 0438 AB7B383F 		.word	1060666283
 1880 043c A1BB383F 		.word	1060682657
 1881 0440 A9FB383F 		.word	1060699049
 1882 0444 D13B393F 		.word	1060715473
 1883 0448 1C7C393F 		.word	1060731932
 1884 044c 66BC393F 		.word	1060748390
 1885 0450 D2FC393F 		.word	1060764882
 1886 0454 4F3D3A3F 		.word	1060781391
 1887 0458 ED7D3A3F 		.word	1060797933
 1888 045c 9DBE3A3F 		.word	1060814493
 1889 0460 5CFF3A3F 		.word	1060831068
 1890 0464 2D403B3F 		.word	1060847661
 1891 0468 1F813B3F 		.word	1060864287
 1892 046c 33C23B3F 		.word	1060880947
 1893 0470 47033C3F 		.word	1060897607
 1894 0474 7C443C3F 		.word	1060914300
 1895 0478 C2853C3F 		.word	1060931010
 1896 047c 2AC73C3F 		.word	1060947754
 1897 0480 A2083D3F 		.word	1060964514
 1898 0484 2C4A3D3F 		.word	1060981292
 1899 0488 D68B3D3F 		.word	1060998102
 1900 048c 92CD3D3F 		.word	1061014930
 1901 0490 6F0F3E3F 		.word	1061031791
 1902 0494 4C513E3F 		.word	1061048652
 1903 0498 4B933E3F 		.word	1061065547
 1904 049c 6BD53E3F 		.word	1061082475
 1905 04a0 9C173F3F 		.word	1061099420
 1906 04a4 DE593F3F 		.word	1061116382
 1907 04a8 419C3F3F 		.word	1061133377
 1908 04ac B5DE3F3F 		.word	1061150389
 1909 04b0 3A21403F 		.word	1061167418
 1910 04b4 E063403F 		.word	1061184480
 1911 04b8 98A6403F 		.word	1061201560
 1912 04bc 60E9403F 		.word	1061218656
 1913 04c0 492C413F 		.word	1061235785
ARM GAS  /var/folders/0z/tsy30v1j4xl4_7kw94k978ww0000gn/T//ccm5Xl3w.s 			page 44


 1914 04c4 446F413F 		.word	1061252932
 1915 04c8 5FB2413F 		.word	1061270111
 1916 04cc 8CF5413F 		.word	1061287308
 1917 04d0 DA38423F 		.word	1061304538
 1918 04d4 287C423F 		.word	1061321768
 1919 04d8 A9BF423F 		.word	1061339049
 1920 04dc 2A03433F 		.word	1061356330
 1921 04e0 CC46433F 		.word	1061373644
 1922 04e4 7E8A433F 		.word	1061390974
 1923 04e8 53CE433F 		.word	1061408339
 1924 04ec 3812443F 		.word	1061425720
 1925 04f0 3F56443F 		.word	1061443135
 1926 04f4 569A443F 		.word	1061460566
 1927 04f8 7FDE443F 		.word	1061478015
 1928 04fc C922453F 		.word	1061495497
 1929 0500 2367453F 		.word	1061512995
 1930 0504 9FAB453F 		.word	1061530527
 1931 0508 2CF0453F 		.word	1061548076
 1932 050c DB34463F 		.word	1061565659
 1933 0510 8979463F 		.word	1061583241
 1934 0514 6ABE463F 		.word	1061600874
 1935 0518 4B03473F 		.word	1061618507
 1936 051c 5E48473F 		.word	1061636190
 1937 0520 718D473F 		.word	1061653873
 1938 0524 A6D2473F 		.word	1061671590
 1939 0528 FC17483F 		.word	1061689340
 1940 052c 645D483F 		.word	1061707108
 1941 0530 DBA2483F 		.word	1061724891
 1942 0534 75E8483F 		.word	1061742709
 1943 0538 1F2E493F 		.word	1061760543
 1944 053c DA73493F 		.word	1061778394
 1945 0540 B6B9493F 		.word	1061796278
 1946 0544 B5FF493F 		.word	1061814197
 1947 0548 C3454A3F 		.word	1061832131
 1948 054c E38B4A3F 		.word	1061850083
 1949 0550 24D24A3F 		.word	1061868068
 1950 0554 76184B3F 		.word	1061886070
 1951 0558 EA5E4B3F 		.word	1061904106
 1952 055c 6EA54B3F 		.word	1061922158
 1953 0560 14EC4B3F 		.word	1061940244
 1954 0564 CA324C3F 		.word	1061958346
 1955 0568 A3794C3F 		.word	1061976483
 1956 056c 8BC04C3F 		.word	1061994635
 1957 0570 85074D3F 		.word	1062012805
 1958 0574 A04E4D3F 		.word	1062031008
 1959 0578 DD954D3F 		.word	1062049245
 1960 057c 2BDD4D3F 		.word	1062067499
 1961 0580 89244E3F 		.word	1062085769
 1962 0584 096C4E3F 		.word	1062104073
 1963 0588 9AB34E3F 		.word	1062122394
 1964 058c 4CFB4E3F 		.word	1062140748
 1965 0590 20434F3F 		.word	1062159136
 1966 0594 F48A4F3F 		.word	1062177524
 1967 0598 FAD24F3F 		.word	1062195962
 1968 059c 001B503F 		.word	1062214400
 1969 05a0 3963503F 		.word	1062232889
 1970 05a4 71AB503F 		.word	1062251377
ARM GAS  /var/folders/0z/tsy30v1j4xl4_7kw94k978ww0000gn/T//ccm5Xl3w.s 			page 45


 1971 05a8 DCF3503F 		.word	1062269916
 1972 05ac 473C513F 		.word	1062288455
 1973 05b0 E484513F 		.word	1062307044
 1974 05b4 81CD513F 		.word	1062325633
 1975 05b8 5116523F 		.word	1062344273
 1976 05bc 205F523F 		.word	1062362912
 1977 05c0 22A8523F 		.word	1062381602
 1978 05c4 35F1523F 		.word	1062400309
 1979 05c8 583A533F 		.word	1062419032
 1980 05cc 9D83533F 		.word	1062437789
 1981 05d0 F3CC533F 		.word	1062456563
 1982 05d4 6A16543F 		.word	1062475370
 1983 05d8 F25F543F 		.word	1062494194
 1984 05dc 9BA9543F 		.word	1062513051
 1985 05e0 56F3543F 		.word	1062531926
 1986 05e4 323D553F 		.word	1062550834
 1987 05e8 2F87553F 		.word	1062569775
 1988 05ec 3DD1553F 		.word	1062588733
 1989 05f0 5C1B563F 		.word	1062607708
 1990 05f4 9D65563F 		.word	1062626717
 1991 05f8 FFAF563F 		.word	1062645759
 1992 05fc 72FA563F 		.word	1062664818
 1993 0600 F644573F 		.word	1062683894
 1994 0604 AC8F573F 		.word	1062703020
 1995 0608 62DA573F 		.word	1062722146
 1996 060c 4A25583F 		.word	1062741322
 1997 0610 3370583F 		.word	1062760499
 1998 0614 4DBB583F 		.word	1062779725
 1999 0618 7906593F 		.word	1062798969
 2000 061c B551593F 		.word	1062818229
 2001 0620 139D593F 		.word	1062837523
 2002 0624 92E8593F 		.word	1062856850
 2003 0628 22345A3F 		.word	1062876194
 2004 062c D47F5A3F 		.word	1062895572
 2005 0630 96CB5A3F 		.word	1062914966
 2006 0634 7A175B3F 		.word	1062934394
 2007 0638 6F635B3F 		.word	1062953839
 2008 063c 86AF5B3F 		.word	1062973318
 2009 0640 BDFB5B3F 		.word	1062992829
 2010 0644 06485C3F 		.word	1063012358
 2011 0648 60945C3F 		.word	1063031904
 2012 064c EBE05C3F 		.word	1063051499
 2013 0650 882D5D3F 		.word	1063071112
 2014 0654 357A5D3F 		.word	1063090741
 2015 0658 04C75D3F 		.word	1063110404
 2016 065c F5135E3F 		.word	1063130101
 2017 0660 F6605E3F 		.word	1063149814
 2018 0664 19AE5E3F 		.word	1063169561
 2019 0668 4CFB5E3F 		.word	1063189324
 2020 066c A1485F3F 		.word	1063209121
 2021 0670 18965F3F 		.word	1063228952
 2022 0674 9FE35F3F 		.word	1063248799
 2023 0678 4831603F 		.word	1063268680
 2024 067c 027F603F 		.word	1063288578
 2025 0680 DECC603F 		.word	1063308510
 2026 0684 DA1A613F 		.word	1063328474
 2027 0688 E868613F 		.word	1063348456
ARM GAS  /var/folders/0z/tsy30v1j4xl4_7kw94k978ww0000gn/T//ccm5Xl3w.s 			page 46


 2028 068c 17B7613F 		.word	1063368471
 2029 0690 5705623F 		.word	1063388503
 2030 0694 B953623F 		.word	1063408569
 2031 0698 3CA2623F 		.word	1063428668
 2032 069c D0F0623F 		.word	1063448784
 2033 06a0 853F633F 		.word	1063468933
 2034 06a4 5C8E633F 		.word	1063489116
 2035 06a8 44DD633F 		.word	1063509316
 2036 06ac 4D2C643F 		.word	1063529549
 2037 06b0 677B643F 		.word	1063549799
 2038 06b4 A3CA643F 		.word	1063570083
 2039 06b8 001A653F 		.word	1063590400
 2040 06bc 7F69653F 		.word	1063610751
 2041 06c0 0FB9653F 		.word	1063631119
 2042 06c4 AF08663F 		.word	1063651503
 2043 06c8 8258663F 		.word	1063671938
 2044 06cc 54A8663F 		.word	1063692372
 2045 06d0 59F8663F 		.word	1063712857
 2046 06d4 6F48673F 		.word	1063733359
 2047 06d8 A698673F 		.word	1063753894
 2048 06dc FFE8673F 		.word	1063774463
 2049 06e0 6939683F 		.word	1063795049
 2050 06e4 F489683F 		.word	1063815668
 2051 06e8 A1DA683F 		.word	1063836321
 2052 06ec 5E2B693F 		.word	1063856990
 2053 06f0 3D7C693F 		.word	1063877693
 2054 06f4 2DCD693F 		.word	1063898413
 2055 06f8 4F1E6A3F 		.word	1063919183
 2056 06fc 726F6A3F 		.word	1063939954
 2057 0700 C6C06A3F 		.word	1063960774
 2058 0704 2B126B3F 		.word	1063981611
 2059 0708 B2636B3F 		.word	1064002482
 2060 070c 5BB56B3F 		.word	1064023387
 2061 0710 14076C3F 		.word	1064044308
 2062 0714 EF586C3F 		.word	1064065263
 2063 0718 EBAA6C3F 		.word	1064086251
 2064 071c F8FC6C3F 		.word	1064107256
 2065 0720 374F6D3F 		.word	1064128311
 2066 0724 77A16D3F 		.word	1064149367
 2067 0728 E9F36D3F 		.word	1064170473
 2068 072c 6B466E3F 		.word	1064191595
 2069 0730 0F996E3F 		.word	1064212751
 2070 0734 D5EB6E3F 		.word	1064233941
 2071 0738 AB3E6F3F 		.word	1064255147
 2072 073c A3916F3F 		.word	1064276387
 2073 0740 BDE46F3F 		.word	1064297661
 2074 0744 E737703F 		.word	1064318951
 2075 0748 448B703F 		.word	1064340292
 2076 074c A0DE703F 		.word	1064361632
 2077 0750 2F32713F 		.word	1064383023
 2078 0754 CF85713F 		.word	1064404431
 2079 0758 A1D9713F 		.word	1064425889
 2080 075c 732D723F 		.word	1064447347
 2081 0760 7781723F 		.word	1064468855
 2082 0764 8DD5723F 		.word	1064490381
 2083 0768 C329733F 		.word	1064511939
 2084 076c 1C7E733F 		.word	1064533532
ARM GAS  /var/folders/0z/tsy30v1j4xl4_7kw94k978ww0000gn/T//ccm5Xl3w.s 			page 47


 2085 0770 95D2733F 		.word	1064555157
 2086 0774 2027743F 		.word	1064576800
 2087 0778 CC7B743F 		.word	1064598476
 2088 077c 9AD0743F 		.word	1064620186
 2089 0780 7825753F 		.word	1064641912
 2090 0784 897A753F 		.word	1064663689
 2091 0788 ABCF753F 		.word	1064685483
 2092 078c DD24763F 		.word	1064707293
 2093 0790 427A763F 		.word	1064729154
 2094 0794 B7CF763F 		.word	1064751031
 2095 0798 4E25773F 		.word	1064772942
 2096 079c 077B773F 		.word	1064794887
 2097 07a0 E1D0773F 		.word	1064816865
 2098 07a4 CC26783F 		.word	1064838860
 2099 07a8 D97C783F 		.word	1064860889
 2100 07ac 07D3783F 		.word	1064882951
 2101 07b0 5629793F 		.word	1064905046
 2102 07b4 C77F793F 		.word	1064927175
 2103 07b8 49D6793F 		.word	1064949321
 2104 07bc ED2C7A3F 		.word	1064971501
 2105 07c0 B2837A3F 		.word	1064993714
 2106 07c4 98DA7A3F 		.word	1065015960
 2107 07c8 90317B3F 		.word	1065038224
 2108 07cc B9887B3F 		.word	1065060537
 2109 07d0 F4DF7B3F 		.word	1065082868
 2110 07d4 50377C3F 		.word	1065105232
 2111 07d8 BD8E7C3F 		.word	1065127613
 2112 07dc 5CE67C3F 		.word	1065150044
 2113 07e0 0C3E7D3F 		.word	1065172492
 2114 07e4 DD957D3F 		.word	1065194973
 2115 07e8 D0ED7D3F 		.word	1065217488
 2116 07ec E5457E3F 		.word	1065240037
 2117 07f0 0A9E7E3F 		.word	1065262602
 2118 07f4 62F67E3F 		.word	1065285218
 2119 07f8 CA4E7F3F 		.word	1065307850
 2120 07fc 54A77F3F 		.word	1065330516
 2121 0800 0000803F 		.word	1065353216
 2122 0804 772C803F 		.word	1065364599
 2123 0808 0859803F 		.word	1065376008
 2124 080c A185803F 		.word	1065387425
 2125 0810 4AB2803F 		.word	1065398858
 2126 0814 FCDE803F 		.word	1065410300
 2127 0818 C80B813F 		.word	1065421768
 2128 081c 9B38813F 		.word	1065433243
 2129 0820 8865813F 		.word	1065444744
 2130 0824 7D92813F 		.word	1065456253
 2131 0828 83BF813F 		.word	1065467779
 2132 082c 9AEC813F 		.word	1065479322
 2133 0830 C119823F 		.word	1065490881
 2134 0834 F146823F 		.word	1065502449
 2135 0838 3A74823F 		.word	1065514042
 2136 083c 8CA1823F 		.word	1065525644
 2137 0840 EECE823F 		.word	1065537262
 2138 0844 69FC823F 		.word	1065548905
 2139 0848 ED29833F 		.word	1065560557
 2140 084c 8257833F 		.word	1065572226
 2141 0850 1F85833F 		.word	1065583903
ARM GAS  /var/folders/0z/tsy30v1j4xl4_7kw94k978ww0000gn/T//ccm5Xl3w.s 			page 48


 2142 0854 D5B2833F 		.word	1065595605
 2143 0858 9CE0833F 		.word	1065607324
 2144 085c 6B0E843F 		.word	1065619051
 2145 0860 533C843F 		.word	1065630803
 2146 0864 446A843F 		.word	1065642564
 2147 0868 4698843F 		.word	1065654342
 2148 086c 58C6843F 		.word	1065666136
 2149 0870 7BF4843F 		.word	1065677947
 2150 0874 AF22853F 		.word	1065689775
 2151 0878 F450853F 		.word	1065701620
 2152 087c 4A7F853F 		.word	1065713482
 2153 0880 A7AD853F 		.word	1065725351
 2154 0884 1EDC853F 		.word	1065737246
 2155 0888 9E0A863F 		.word	1065749150
 2156 088c 3739863F 		.word	1065761079
 2157 0890 D767863F 		.word	1065773015
 2158 0894 9296863F 		.word	1065784978
 2159 0898 54C5863F 		.word	1065796948
 2160 089c 28F4863F 		.word	1065808936
 2161 08a0 0C23873F 		.word	1065820940
 2162 08a4 0052873F 		.word	1065832960
 2163 08a8 0681873F 		.word	1065844998
 2164 08ac 1DB0873F 		.word	1065857053
 2165 08b0 44DF873F 		.word	1065869124
 2166 08b4 7C0E883F 		.word	1065881212
 2167 08b8 C53D883F 		.word	1065893317
 2168 08bc 166D883F 		.word	1065905430
 2169 08c0 809C883F 		.word	1065917568
 2170 08c4 FBCB883F 		.word	1065929723
 2171 08c8 7FFB883F 		.word	1065941887
 2172 08cc 1B2B893F 		.word	1065954075
 2173 08d0 C95A893F 		.word	1065966281
 2174 08d4 7E8A893F 		.word	1065978494
 2175 08d8 4DBA893F 		.word	1065990733
 2176 08dc 25EA893F 		.word	1066002981
 2177 08e0 151A8A3F 		.word	1066015253
 2178 08e4 0E4A8A3F 		.word	1066027534
 2179 08e8 207A8A3F 		.word	1066039840
 2180 08ec 3BAA8A3F 		.word	1066052155
 2181 08f0 6EDA8A3F 		.word	1066064494
 2182 08f4 AA0A8B3F 		.word	1066076842
 2183 08f8 003B8B3F 		.word	1066089216
 2184 08fc 5D6B8B3F 		.word	1066101597
 2185 0900 D49B8B3F 		.word	1066114004
 2186 0904 53CC8B3F 		.word	1066126419
 2187 0908 EBFC8B3F 		.word	1066138859
 2188 090c 8C2D8C3F 		.word	1066151308
 2189 0910 465E8C3F 		.word	1066163782
 2190 0914 088F8C3F 		.word	1066176264
 2191 0918 E4BF8C3F 		.word	1066188772
 2192 091c C7F08C3F 		.word	1066201287
 2193 0920 C4218D3F 		.word	1066213828
 2194 0924 D2528D3F 		.word	1066226386
 2195 0928 E8838D3F 		.word	1066238952
 2196 092c 18B58D3F 		.word	1066251544
 2197 0930 58E68D3F 		.word	1066264152
 2198 0934 A0178E3F 		.word	1066276768
ARM GAS  /var/folders/0z/tsy30v1j4xl4_7kw94k978ww0000gn/T//ccm5Xl3w.s 			page 49


 2199 0938 02498E3F 		.word	1066289410
 2200 093c 747A8E3F 		.word	1066302068
 2201 0940 F7AB8E3F 		.word	1066314743
 2202 0944 8BDD8E3F 		.word	1066327435
 2203 0948 300F8F3F 		.word	1066340144
 2204 094c E6408F3F 		.word	1066352870
 2205 0950 AC728F3F 		.word	1066365612
 2206 0954 83A48F3F 		.word	1066378371
 2207 0958 73D68F3F 		.word	1066391155
 2208 095c 6C08903F 		.word	1066403948
 2209 0960 753A903F 		.word	1066416757
 2210 0964 986C903F 		.word	1066429592
 2211 0968 C39E903F 		.word	1066442435
 2212 096c 07D1903F 		.word	1066455303
 2213 0970 5C03913F 		.word	1066468188
 2214 0974 B935913F 		.word	1066481081
 2215 0978 3068913F 		.word	1066494000
 2216 097c B79A913F 		.word	1066506935
 2217 0980 4FCD913F 		.word	1066519887
 2218 0984 F8FF913F 		.word	1066532856
 2219 0988 BA32923F 		.word	1066545850
 2220 098c 8465923F 		.word	1066558852
 2221 0990 6798923F 		.word	1066571879
 2222 0994 53CB923F 		.word	1066584915
 2223 0998 58FE923F 		.word	1066597976
 2224 099c 6E31933F 		.word	1066611054
 2225 09a0 8C64933F 		.word	1066624140
 2226 09a4 C497933F 		.word	1066637252
 2227 09a8 14CB933F 		.word	1066650388
 2228 09ac 6DFE933F 		.word	1066663533
 2229 09b0 D731943F 		.word	1066676695
 2230 09b4 5A65943F 		.word	1066689882
 2231 09b8 E598943F 		.word	1066703077
 2232 09bc 8ACC943F 		.word	1066716298
 2233 09c0 3F00953F 		.word	1066729535
 2234 09c4 0534953F 		.word	1066742789
 2235 09c8 E467953F 		.word	1066756068
 2236 09cc CC9B953F 		.word	1066769356
 2237 09d0 C4CF953F 		.word	1066782660
 2238 09d4 D503963F 		.word	1066795989
 2239 09d8 F837963F 		.word	1066809336
 2240 09dc 2B6C963F 		.word	1066822699
 2241 09e0 6FA0963F 		.word	1066836079
 2242 09e4 C3D4963F 		.word	1066849475
 2243 09e8 3109973F 		.word	1066862897
 2244 09ec B03D973F 		.word	1066876336
 2245 09f0 3672973F 		.word	1066889782
 2246 09f4 D7A6973F 		.word	1066903255
 2247 09f8 90DB973F 		.word	1066916752
 2248 09fc 5210983F 		.word	1066930258
 2249 0a00 2445983F 		.word	1066943780
 2250 0a04 107A983F 		.word	1066957328
 2251 0a08 0CAF983F 		.word	1066970892
 2252 0a0c 19E4983F 		.word	1066984473
 2253 0a10 3F19993F 		.word	1066998079
 2254 0a14 6E4E993F 		.word	1067011694
 2255 0a18 B683993F 		.word	1067025334
ARM GAS  /var/folders/0z/tsy30v1j4xl4_7kw94k978ww0000gn/T//ccm5Xl3w.s 			page 50


 2256 0a1c 0FB9993F 		.word	1067038991
 2257 0a20 78EE993F 		.word	1067052664
 2258 0a24 F2239A3F 		.word	1067066354
 2259 0a28 86599A3F 		.word	1067080070
 2260 0a2c 2A8F9A3F 		.word	1067093802
 2261 0a30 DFC49A3F 		.word	1067107551
 2262 0a34 A4FA9A3F 		.word	1067121316
 2263 0a38 7B309B3F 		.word	1067135099
 2264 0a3c 6B669B3F 		.word	1067148907
 2265 0a40 6B9C9B3F 		.word	1067162731
 2266 0a44 7CD29B3F 		.word	1067176572
 2267 0a48 A7089C3F 		.word	1067190439
 2268 0a4c D93E9C3F 		.word	1067204313
 2269 0a50 25759C3F 		.word	1067218213
 2270 0a54 82AB9C3F 		.word	1067232130
 2271 0a58 F8E19C3F 		.word	1067246072
 2272 0a5c 76189D3F 		.word	1067260022
 2273 0a60 0E4F9D3F 		.word	1067273998
 2274 0a64 BE859D3F 		.word	1067287998
 2275 0a68 77BC9D3F 		.word	1067302007
 2276 0a6c 49F39D3F 		.word	1067316041
 2277 0a70 2C2A9E3F 		.word	1067330092
 2278 0a74 20619E3F 		.word	1067344160
 2279 0a78 24989E3F 		.word	1067358244
 2280 0a7c 42CF9E3F 		.word	1067372354
 2281 0a80 70069F3F 		.word	1067386480
 2282 0a84 B83D9F3F 		.word	1067400632
 2283 0a88 08759F3F 		.word	1067414792
 2284 0a8c 71AC9F3F 		.word	1067428977
 2285 0a90 F3E39F3F 		.word	1067443187
 2286 0a94 7E1BA03F 		.word	1067457406
 2287 0a98 2253A03F 		.word	1067471650
 2288 0a9c D78AA03F 		.word	1067485911
 2289 0aa0 A4C2A03F 		.word	1067500196
 2290 0aa4 7BFAA03F 		.word	1067514491
 2291 0aa8 7232A13F 		.word	1067528818
 2292 0aac 726AA13F 		.word	1067543154
 2293 0ab0 8CA2A13F 		.word	1067557516
 2294 0ab4 B6DAA13F 		.word	1067571894
 2295 0ab8 F112A23F 		.word	1067586289
 2296 0abc 454BA23F 		.word	1067600709
 2297 0ac0 A983A23F 		.word	1067615145
 2298 0ac4 1FBCA23F 		.word	1067629599
 2299 0ac8 AEF4A23F 		.word	1067644078
 2300 0acc 4D2DA33F 		.word	1067658573
 2301 0ad0 FE65A33F 		.word	1067673086
 2302 0ad4 C79EA33F 		.word	1067687623
 2303 0ad8 A1D7A33F 		.word	1067702177
 2304 0adc 9510A43F 		.word	1067716757
 2305 0ae0 9949A43F 		.word	1067731353
 2306 0ae4 AE82A43F 		.word	1067745966
 2307 0ae8 D4BBA43F 		.word	1067760596
 2308 0aec 12F5A43F 		.word	1067775250
 2309 0af0 622EA53F 		.word	1067789922
 2310 0af4 CB67A53F 		.word	1067804619
 2311 0af8 45A1A53F 		.word	1067819333
 2312 0afc D7DAA53F 		.word	1067834071
ARM GAS  /var/folders/0z/tsy30v1j4xl4_7kw94k978ww0000gn/T//ccm5Xl3w.s 			page 51


 2313 0b00 7214A63F 		.word	1067848818
 2314 0b04 2F4EA63F 		.word	1067863599
 2315 0b08 F487A63F 		.word	1067878388
 2316 0b0c D3C1A63F 		.word	1067893203
 2317 0b10 CAFBA63F 		.word	1067908042
 2318 0b14 CA35A73F 		.word	1067922890
 2319 0b18 E36FA73F 		.word	1067937763
 2320 0b1c 15AAA73F 		.word	1067952661
 2321 0b20 58E4A73F 		.word	1067967576
 2322 0b24 AC1EA83F 		.word	1067982508
 2323 0b28 1959A83F 		.word	1067997465
 2324 0b2c 9693A83F 		.word	1068012438
 2325 0b30 2DCEA83F 		.word	1068027437
 2326 0b34 D508A93F 		.word	1068042453
 2327 0b38 9643A93F 		.word	1068057494
 2328 0b3c 677EA93F 		.word	1068072551
 2329 0b40 49B9A93F 		.word	1068087625
 2330 0b44 45F4A93F 		.word	1068102725
 2331 0b48 512FAA3F 		.word	1068117841
 2332 0b4c 776AAA3F 		.word	1068132983
 2333 0b50 ADA5AA3F 		.word	1068148141
 2334 0b54 FCE0AA3F 		.word	1068163324
 2335 0b58 5C1CAB3F 		.word	1068178524
 2336 0b5c CD57AB3F 		.word	1068193741
 2337 0b60 5793AB3F 		.word	1068208983
 2338 0b64 FBCEAB3F 		.word	1068224251
 2339 0b68 AF0AAC3F 		.word	1068239535
 2340 0b6c 7446AC3F 		.word	1068254836
 2341 0b70 5182AC3F 		.word	1068270161
 2342 0b74 40BEAC3F 		.word	1068285504
 2343 0b78 48FAAC3F 		.word	1068300872
 2344 0b7c 6936AD3F 		.word	1068316265
 2345 0b80 9372AD3F 		.word	1068331667
 2346 0b84 DEAEAD3F 		.word	1068347102
 2347 0b88 3AEBAD3F 		.word	1068362554
 2348 0b8c A627AE3F 		.word	1068378022
 2349 0b90 2C64AE3F 		.word	1068393516
 2350 0b94 C3A0AE3F 		.word	1068409027
 2351 0b98 72DDAE3F 		.word	1068424562
 2352 0b9c 331AAF3F 		.word	1068440115
 2353 0ba0 0C57AF3F 		.word	1068455692
 2354 0ba4 FF93AF3F 		.word	1068471295
 2355 0ba8 FAD0AF3F 		.word	1068486906
 2356 0bac 170EB03F 		.word	1068502551
 2357 0bb0 454BB03F 		.word	1068518213
 2358 0bb4 8388B03F 		.word	1068533891
 2359 0bb8 DAC5B03F 		.word	1068549594
 2360 0bbc 4B03B13F 		.word	1068565323
 2361 0bc0 CC40B13F 		.word	1068581068
 2362 0bc4 677EB13F 		.word	1068596839
 2363 0bc8 12BCB13F 		.word	1068612626
 2364 0bcc D7F9B13F 		.word	1068628439
 2365 0bd0 AC37B23F 		.word	1068644268
 2366 0bd4 9B75B23F 		.word	1068660123
 2367 0bd8 A2B3B23F 		.word	1068676002
 2368 0bdc BBF1B23F 		.word	1068691899
 2369 0be0 E42FB33F 		.word	1068707812
ARM GAS  /var/folders/0z/tsy30v1j4xl4_7kw94k978ww0000gn/T//ccm5Xl3w.s 			page 52


 2370 0be4 266EB33F 		.word	1068723750
 2371 0be8 82ACB33F 		.word	1068739714
 2372 0bec EEEAB33F 		.word	1068755694
 2373 0bf0 7429B43F 		.word	1068771700
 2374 0bf4 1268B43F 		.word	1068787730
 2375 0bf8 C2A6B43F 		.word	1068803778
 2376 0bfc 8AE5B43F 		.word	1068819850
 2377 0c00 6424B53F 		.word	1068835940
 2378 0c04 5663B53F 		.word	1068852054
 2379 0c08 59A2B53F 		.word	1068868185
 2380 0c0c 7EE1B53F 		.word	1068884350
 2381 0c10 AB20B63F 		.word	1068900523
 2382 0c14 FA5FB63F 		.word	1068916730
 2383 0c18 5A9FB63F 		.word	1068932954
 2384 0c1c CADEB63F 		.word	1068949194
 2385 0c20 5C1EB73F 		.word	1068965468
 2386 0c24 F65DB73F 		.word	1068981750
 2387 0c28 B29DB73F 		.word	1068998066
 2388 0c2c 7FDDB73F 		.word	1069014399
 2389 0c30 651DB83F 		.word	1069030757
 2390 0c34 5B5DB83F 		.word	1069047131
 2391 0c38 6B9DB83F 		.word	1069063531
 2392 0c3c 94DDB83F 		.word	1069079956
 2393 0c40 D61DB93F 		.word	1069096406
 2394 0c44 295EB93F 		.word	1069112873
 2395 0c48 8C9EB93F 		.word	1069129356
 2396 0c4c 11DFB93F 		.word	1069145873
 2397 0c50 A71FBA3F 		.word	1069162407
 2398 0c54 5760BA3F 		.word	1069178967
 2399 0c58 16A1BA3F 		.word	1069195542
 2400 0c5c EFE1BA3F 		.word	1069212143
 2401 0c60 E222BB3F 		.word	1069228770
 2402 0c64 E563BB3F 		.word	1069245413
 2403 0c68 09A5BB3F 		.word	1069262089
 2404 0c6c 36E6BB3F 		.word	1069278774
 2405 0c70 8527BC3F 		.word	1069295493
 2406 0c74 E468BC3F 		.word	1069312228
 2407 0c78 5CAABC3F 		.word	1069328988
 2408 0c7c EEEBBC3F 		.word	1069345774
 2409 0c80 902DBD3F 		.word	1069362576
 2410 0c84 546FBD3F 		.word	1069379412
 2411 0c88 21B1BD3F 		.word	1069396257
 2412 0c8c 0EF3BD3F 		.word	1069413134
 2413 0c90 0D35BE3F 		.word	1069430029
 2414 0c94 2577BE3F 		.word	1069446949
 2415 0c98 56B9BE3F 		.word	1069463894
 2416 0c9c A0FBBE3F 		.word	1069480864
 2417 0ca0 FB3DBF3F 		.word	1069497851
 2418 0ca4 6F80BF3F 		.word	1069514863
 2419 0ca8 FCC2BF3F 		.word	1069531900
 2420 0cac 9A05C03F 		.word	1069548954
 2421 0cb0 5A48C03F 		.word	1069566042
 2422 0cb4 2A8BC03F 		.word	1069583146
 2423 0cb8 0CCEC03F 		.word	1069600268
 2424 0cbc 0E11C13F 		.word	1069617422
 2425 0cc0 2254C13F 		.word	1069634594
 2426 0cc4 5797C13F 		.word	1069651799
ARM GAS  /var/folders/0z/tsy30v1j4xl4_7kw94k978ww0000gn/T//ccm5Xl3w.s 			page 53


 2427 0cc8 94DAC13F 		.word	1069669012
 2428 0ccc F31DC23F 		.word	1069686259
 2429 0cd0 6B61C23F 		.word	1069703531
 2430 0cd4 F4A4C23F 		.word	1069720820
 2431 0cd8 96E8C23F 		.word	1069738134
 2432 0cdc 522CC33F 		.word	1069755474
 2433 0ce0 2670C33F 		.word	1069772838
 2434 0ce4 0BB4C33F 		.word	1069790219
 2435 0ce8 12F8C33F 		.word	1069807634
 2436 0cec 293CC43F 		.word	1069825065
 2437 0cf0 5A80C43F 		.word	1069842522
 2438 0cf4 9CC4C43F 		.word	1069859996
 2439 0cf8 FF08C53F 		.word	1069877503
 2440 0cfc 7B4DC53F 		.word	1069895035
 2441 0d00 0892C53F 		.word	1069912584
 2442 0d04 AED6C53F 		.word	1069930158
 2443 0d08 6D1BC63F 		.word	1069947757
 2444 0d0c 4660C63F 		.word	1069965382
 2445 0d10 2FA5C63F 		.word	1069983023
 2446 0d14 3AEAC63F 		.word	1070000698
 2447 0d18 552FC73F 		.word	1070018389
 2448 0d1c 9274C73F 		.word	1070036114
 2449 0d20 E0B9C73F 		.word	1070053856
 2450 0d24 47FFC73F 		.word	1070071623
 2451 0d28 C844C83F 		.word	1070089416
 2452 0d2c 598AC83F 		.word	1070107225
 2453 0d30 0BD0C83F 		.word	1070125067
 2454 0d34 CF15C93F 		.word	1070142927
 2455 0d38 B45BC93F 		.word	1070160820
 2456 0d3c A9A1C93F 		.word	1070178729
 2457 0d40 B8E7C93F 		.word	1070196664
 2458 0d44 E02DCA3F 		.word	1070214624
 2459 0d48 2174CA3F 		.word	1070232609
 2460 0d4c 7CBACA3F 		.word	1070250620
 2461 0d50 EF00CB3F 		.word	1070268655
 2462 0d54 7C47CB3F 		.word	1070286716
 2463 0d58 228ECB3F 		.word	1070304802
 2464 0d5c D8D4CB3F 		.word	1070322904
 2465 0d60 B01BCC3F 		.word	1070341040
 2466 0d64 9962CC3F 		.word	1070359193
 2467 0d68 A4A9CC3F 		.word	1070377380
 2468 0d6c BFF0CC3F 		.word	1070395583
 2469 0d70 F437CD3F 		.word	1070413812
 2470 0d74 417FCD3F 		.word	1070432065
 2471 0d78 B0C6CD3F 		.word	1070450352
 2472 0d7c 300ECE3F 		.word	1070468656
 2473 0d80 C955CE3F 		.word	1070486985
 2474 0d84 7C9DCE3F 		.word	1070505340
 2475 0d88 47E5CE3F 		.word	1070523719
 2476 0d8c 2C2DCF3F 		.word	1070542124
 2477 0d90 2975CF3F 		.word	1070560553
 2478 0d94 40BDCF3F 		.word	1070579008
 2479 0d98 7105D03F 		.word	1070597489
 2480 0d9c BA4DD03F 		.word	1070615994
 2481 0da0 1C96D03F 		.word	1070634524
 2482 0da4 98DED03F 		.word	1070653080
 2483 0da8 2D27D13F 		.word	1070671661
ARM GAS  /var/folders/0z/tsy30v1j4xl4_7kw94k978ww0000gn/T//ccm5Xl3w.s 			page 54


 2484 0dac DB6FD13F 		.word	1070690267
 2485 0db0 A2B8D13F 		.word	1070708898
 2486 0db4 8201D23F 		.word	1070727554
 2487 0db8 7B4AD23F 		.word	1070746235
 2488 0dbc 8E93D23F 		.word	1070764942
 2489 0dc0 BADCD23F 		.word	1070783674
 2490 0dc4 FF25D33F 		.word	1070802431
 2491 0dc8 5D6FD33F 		.word	1070821213
 2492 0dcc D4B8D33F 		.word	1070840020
 2493 0dd0 6402D43F 		.word	1070858852
 2494 0dd4 164CD43F 		.word	1070877718
 2495 0dd8 D995D43F 		.word	1070896601
 2496 0ddc B5DFD43F 		.word	1070915509
 2497 0de0 B329D53F 		.word	1070934451
 2498 0de4 C173D53F 		.word	1070953409
 2499 0de8 F1BDD53F 		.word	1070972401
 2500 0dec 3108D63F 		.word	1070991409
 2501 0df0 9352D63F 		.word	1071010451
 2502 0df4 0F9DD63F 		.word	1071029519
 2503 0df8 A3E7D63F 		.word	1071048611
 2504 0dfc 5132D73F 		.word	1071067729
 2505 0e00 187DD73F 		.word	1071086872
 2506 0e04 F7C7D73F 		.word	1071106039
 2507 0e08 F112D83F 		.word	1071125233
 2508 0e0c 035ED83F 		.word	1071144451
 2509 0e10 37A9D83F 		.word	1071163703
 2510 0e14 7BF4D83F 		.word	1071182971
 2511 0e18 E23FD93F 		.word	1071202274
 2512 0e1c 618BD93F 		.word	1071221601
 2513 0e20 F9D6D93F 		.word	1071240953
 2514 0e24 AB22DA3F 		.word	1071260331
 2515 0e28 766EDA3F 		.word	1071279734
 2516 0e2c 62BADA3F 		.word	1071299170
 2517 0e30 6006DB3F 		.word	1071318624
 2518 0e34 7E52DB3F 		.word	1071338110
 2519 0e38 AE9EDB3F 		.word	1071357614
 2520 0e3c FFEADB3F 		.word	1071377151
 2521 0e40 7237DC3F 		.word	1071396722
 2522 0e44 F583DC3F 		.word	1071416309
 2523 0e48 91D0DC3F 		.word	1071435921
 2524 0e4c 501DDD3F 		.word	1071455568
 2525 0e50 276ADD3F 		.word	1071475239
 2526 0e54 17B7DD3F 		.word	1071494935
 2527 0e58 2104DE3F 		.word	1071514657
 2528 0e5c 4451DE3F 		.word	1071534404
 2529 0e60 889EDE3F 		.word	1071554184
 2530 0e64 E6EBDE3F 		.word	1071573990
 2531 0e68 5439DF3F 		.word	1071593812
 2532 0e6c EC86DF3F 		.word	1071613676
 2533 0e70 95D4DF3F 		.word	1071633557
 2534 0e74 6022E03F 		.word	1071653472
 2535 0e78 3B70E03F 		.word	1071673403
 2536 0e7c 40BEE03F 		.word	1071693376
 2537 0e80 560CE13F 		.word	1071713366
 2538 0e84 865AE13F 		.word	1071733382
 2539 0e88 D6A8E13F 		.word	1071753430
 2540 0e8c 40F7E13F 		.word	1071773504
ARM GAS  /var/folders/0z/tsy30v1j4xl4_7kw94k978ww0000gn/T//ccm5Xl3w.s 			page 55


 2541 0e90 C345E23F 		.word	1071793603
 2542 0e94 6894E23F 		.word	1071813736
 2543 0e98 26E3E23F 		.word	1071833894
 2544 0e9c FD31E33F 		.word	1071854077
 2545 0ea0 ED80E33F 		.word	1071874285
 2546 0ea4 F6CFE33F 		.word	1071894518
 2547 0ea8 211FE43F 		.word	1071914785
 2548 0eac 656EE43F 		.word	1071935077
 2549 0eb0 CBBDE43F 		.word	1071955403
 2550 0eb4 410DE53F 		.word	1071975745
 2551 0eb8 D95CE53F 		.word	1071996121
 2552 0ebc 93ACE53F 		.word	1072016531
 2553 0ec0 5DFCE53F 		.word	1072036957
 2554 0ec4 494CE63F 		.word	1072057417
 2555 0ec8 4E9CE63F 		.word	1072077902
 2556 0ecc 74ECE63F 		.word	1072098420
 2557 0ed0 B43CE73F 		.word	1072118964
 2558 0ed4 0D8DE73F 		.word	1072139533
 2559 0ed8 7FDDE73F 		.word	1072160127
 2560 0edc 122EE83F 		.word	1072180754
 2561 0ee0 BF7EE83F 		.word	1072201407
 2562 0ee4 8DCFE83F 		.word	1072222093
 2563 0ee8 7520E93F 		.word	1072242805
 2564 0eec 7671E93F 		.word	1072263542
 2565 0ef0 8FC2E93F 		.word	1072284303
 2566 0ef4 CB13EA3F 		.word	1072305099
 2567 0ef8 2865EA3F 		.word	1072325928
 2568 0efc 95B6EA3F 		.word	1072346773
 2569 0f00 2508EB3F 		.word	1072367653
 2570 0f04 D559EB3F 		.word	1072388565
 2571 0f08 97ABEB3F 		.word	1072409495
 2572 0f0c 7AFDEB3F 		.word	1072430458
 2573 0f10 7F4FEC3F 		.word	1072451455
 2574 0f14 9DA1EC3F 		.word	1072472477
 2575 0f18 D4F3EC3F 		.word	1072493524
 2576 0f1c 2C46ED3F 		.word	1072514604
 2577 0f20 9E98ED3F 		.word	1072535710
 2578 0f24 31EBED3F 		.word	1072556849
 2579 0f28 DE3DEE3F 		.word	1072578014
 2580 0f2c A390EE3F 		.word	1072599203
 2581 0f30 8AE3EE3F 		.word	1072620426
 2582 0f34 8B36EF3F 		.word	1072641675
 2583 0f38 AD89EF3F 		.word	1072662957
 2584 0f3c E8DCEF3F 		.word	1072684264
 2585 0f40 4430F03F 		.word	1072705604
 2586 0f44 BA83F03F 		.word	1072726970
 2587 0f48 52D7F03F 		.word	1072748370
 2588 0f4c 022BF13F 		.word	1072769794
 2589 0f50 CC7EF13F 		.word	1072791244
 2590 0f54 B7D2F13F 		.word	1072812727
 2591 0f58 BB26F23F 		.word	1072834235
 2592 0f5c E17AF23F 		.word	1072855777
 2593 0f60 29CFF23F 		.word	1072877353
 2594 0f64 8123F33F 		.word	1072898945
 2595 0f68 0378F33F 		.word	1072920579
 2596 0f6c 9FCCF33F 		.word	1072942239
 2597 0f70 5321F43F 		.word	1072963923
ARM GAS  /var/folders/0z/tsy30v1j4xl4_7kw94k978ww0000gn/T//ccm5Xl3w.s 			page 56


 2598 0f74 2976F43F 		.word	1072985641
 2599 0f78 19CBF43F 		.word	1073007385
 2600 0f7c 2920F53F 		.word	1073029161
 2601 0f80 5C75F53F 		.word	1073050972
 2602 0f84 A7CAF53F 		.word	1073072807
 2603 0f88 0C20F63F 		.word	1073094668
 2604 0f8c 9275F63F 		.word	1073116562
 2605 0f90 3ACBF63F 		.word	1073138490
 2606 0f94 FB20F73F 		.word	1073160443
 2607 0f98 D576F73F 		.word	1073182421
 2608 0f9c D9CCF73F 		.word	1073204441
 2609 0fa0 EE22F83F 		.word	1073226478
 2610 0fa4 2D79F83F 		.word	1073248557
 2611 0fa8 85CFF83F 		.word	1073270661
 2612 0fac F625F93F 		.word	1073292790
 2613 0fb0 897CF93F 		.word	1073314953
 2614 0fb4 3DD3F93F 		.word	1073337149
 2615 0fb8 0B2AFA3F 		.word	1073359371
 2616 0fbc FA80FA3F 		.word	1073381626
 2617 0fc0 0AD8FA3F 		.word	1073403914
 2618 0fc4 342FFB3F 		.word	1073426228
 2619 0fc8 7786FB3F 		.word	1073448567
 2620 0fcc E3DDFB3F 		.word	1073470947
 2621 0fd0 6935FC3F 		.word	1073493353
 2622 0fd4 098DFC3F 		.word	1073515785
 2623 0fd8 C9E4FC3F 		.word	1073538249
 2624 0fdc AC3CFD3F 		.word	1073560748
 2625 0fe0 AF94FD3F 		.word	1073583279
 2626 0fe4 CCECFD3F 		.word	1073605836
 2627 0fe8 0245FE3F 		.word	1073628418
 2628 0fec 629DFE3F 		.word	1073651042
 2629 0ff0 DCF5FE3F 		.word	1073673692
 2630 0ff4 774EFF3F 		.word	1073696375
 2631 0ff8 2AA7FF3F 		.word	1073719082
 2632 0ffc 00000040 		.word	1073741824
 2633              		.text
 2634              	.Letext0:
 2635              		.file 3 "/Users/johannes/Library/Application Support/Code/User/globalStorage/bmd.stm32-for-vscode/
 2636              		.file 4 "/Users/johannes/Library/Application Support/Code/User/globalStorage/bmd.stm32-for-vscode/
 2637              		.file 5 "Drivers/CMSIS/Device/ST/STM32F4xx/Include/stm32f407xx.h"
 2638              		.file 6 "Drivers/STM32F4xx_HAL_Driver/Inc/stm32f4xx_hal_def.h"
 2639              		.file 7 "Drivers/STM32F4xx_HAL_Driver/Inc/stm32f4xx_hal_dma.h"
 2640              		.file 8 "Drivers/STM32F4xx_HAL_Driver/Inc/stm32f4xx_hal_i2s.h"
 2641              		.file 9 "Core/Inc/audio.h"
 2642              		.file 10 "Core/Inc/oscillators.h"
 2643              		.file 11 "Core/Inc/ADSR_envelope.h"
 2644              		.file 12 "Core/Inc/ladder_filter.h"
 2645              		.file 13 "Core/Inc/MIDI_lut.h"
 2646              		.file 14 "Core/Inc/stereo_delay.h"
 2647              		.file 15 "Core/Inc/../../Drivers/BSP/STM32F4-Discovery/stm32f4_discovery_audio.h"
ARM GAS  /var/folders/0z/tsy30v1j4xl4_7kw94k978ww0000gn/T//ccm5Xl3w.s 			page 57


DEFINED SYMBOLS
                            *ABS*:0000000000000000 audio.c
/var/folders/0z/tsy30v1j4xl4_7kw94k978ww0000gn/T//ccm5Xl3w.s:23     .text.audioBlock.constprop.0:0000000000000000 $t
/var/folders/0z/tsy30v1j4xl4_7kw94k978ww0000gn/T//ccm5Xl3w.s:29     .text.audioBlock.constprop.0:0000000000000000 audioBlock.constprop.0
/var/folders/0z/tsy30v1j4xl4_7kw94k978ww0000gn/T//ccm5Xl3w.s:550    .text.audioBlock.constprop.0:0000000000000228 $d
/var/folders/0z/tsy30v1j4xl4_7kw94k978ww0000gn/T//ccm5Xl3w.s:577    .text.AUDIO_Init:0000000000000000 $t
/var/folders/0z/tsy30v1j4xl4_7kw94k978ww0000gn/T//ccm5Xl3w.s:584    .text.AUDIO_Init:0000000000000000 AUDIO_Init
/var/folders/0z/tsy30v1j4xl4_7kw94k978ww0000gn/T//ccm5Xl3w.s:701    .text.AUDIO_Init:00000000000000d0 $d
/var/folders/0z/tsy30v1j4xl4_7kw94k978ww0000gn/T//ccm5Xl3w.s:718    .text.OpSetFreq:0000000000000000 $t
/var/folders/0z/tsy30v1j4xl4_7kw94k978ww0000gn/T//ccm5Xl3w.s:725    .text.OpSetFreq:0000000000000000 OpSetFreq
/var/folders/0z/tsy30v1j4xl4_7kw94k978ww0000gn/T//ccm5Xl3w.s:745    .text.OpSetFreq:0000000000000010 $d
/var/folders/0z/tsy30v1j4xl4_7kw94k978ww0000gn/T//ccm5Xl3w.s:750    .text.audioBlock:0000000000000000 $t
/var/folders/0z/tsy30v1j4xl4_7kw94k978ww0000gn/T//ccm5Xl3w.s:757    .text.audioBlock:0000000000000000 audioBlock
/var/folders/0z/tsy30v1j4xl4_7kw94k978ww0000gn/T//ccm5Xl3w.s:1290   .text.audioBlock:0000000000000228 $d
/var/folders/0z/tsy30v1j4xl4_7kw94k978ww0000gn/T//ccm5Xl3w.s:1315   .text.BSP_AUDIO_OUT_HalfTransfer_CallBack:0000000000000000 $t
/var/folders/0z/tsy30v1j4xl4_7kw94k978ww0000gn/T//ccm5Xl3w.s:1322   .text.BSP_AUDIO_OUT_HalfTransfer_CallBack:0000000000000000 BSP_AUDIO_OUT_HalfTransfer_CallBack
/var/folders/0z/tsy30v1j4xl4_7kw94k978ww0000gn/T//ccm5Xl3w.s:1336   .text.BSP_AUDIO_OUT_HalfTransfer_CallBack:0000000000000008 $d
/var/folders/0z/tsy30v1j4xl4_7kw94k978ww0000gn/T//ccm5Xl3w.s:1341   .text.BSP_AUDIO_OUT_TransferComplete_CallBack:0000000000000000 $t
/var/folders/0z/tsy30v1j4xl4_7kw94k978ww0000gn/T//ccm5Xl3w.s:1348   .text.BSP_AUDIO_OUT_TransferComplete_CallBack:0000000000000000 BSP_AUDIO_OUT_TransferComplete_CallBack
/var/folders/0z/tsy30v1j4xl4_7kw94k978ww0000gn/T//ccm5Xl3w.s:1362   .text.BSP_AUDIO_OUT_TransferComplete_CallBack:0000000000000008 $d
/var/folders/0z/tsy30v1j4xl4_7kw94k978ww0000gn/T//ccm5Xl3w.s:1367   .text.BSP_AUDIO_OUT_Error_CallBack:0000000000000000 $t
/var/folders/0z/tsy30v1j4xl4_7kw94k978ww0000gn/T//ccm5Xl3w.s:1374   .text.BSP_AUDIO_OUT_Error_CallBack:0000000000000000 BSP_AUDIO_OUT_Error_CallBack
/var/folders/0z/tsy30v1j4xl4_7kw94k978ww0000gn/T//ccm5Xl3w.s:1391   .text.DMA1_Stream7_IRQHandler:0000000000000000 $t
/var/folders/0z/tsy30v1j4xl4_7kw94k978ww0000gn/T//ccm5Xl3w.s:1398   .text.DMA1_Stream7_IRQHandler:0000000000000000 DMA1_Stream7_IRQHandler
/var/folders/0z/tsy30v1j4xl4_7kw94k978ww0000gn/T//ccm5Xl3w.s:1413   .text.DMA1_Stream7_IRQHandler:0000000000000008 $d
/var/folders/0z/tsy30v1j4xl4_7kw94k978ww0000gn/T//ccm5Xl3w.s:1418   .text.DMA1_Stream3_IRQHandler:0000000000000000 $t
/var/folders/0z/tsy30v1j4xl4_7kw94k978ww0000gn/T//ccm5Xl3w.s:1425   .text.DMA1_Stream3_IRQHandler:0000000000000000 DMA1_Stream3_IRQHandler
/var/folders/0z/tsy30v1j4xl4_7kw94k978ww0000gn/T//ccm5Xl3w.s:1440   .text.DMA1_Stream3_IRQHandler:0000000000000008 $d
/var/folders/0z/tsy30v1j4xl4_7kw94k978ww0000gn/T//ccm5Xl3w.s:1468   .bss.delayROut:0000000000000000 delayROut
/var/folders/0z/tsy30v1j4xl4_7kw94k978ww0000gn/T//ccm5Xl3w.s:1461   .bss.delayLOut:0000000000000000 delayLOut
/var/folders/0z/tsy30v1j4xl4_7kw94k978ww0000gn/T//ccm5Xl3w.s:1454   .bss.audioBuffer:0000000000000000 audioBuffer
/var/folders/0z/tsy30v1j4xl4_7kw94k978ww0000gn/T//ccm5Xl3w.s:1608   .rodata.pbend:0000000000000000 pbend
/var/folders/0z/tsy30v1j4xl4_7kw94k978ww0000gn/T//ccm5Xl3w.s:1475   .rodata.mtof:0000000000000000 mtof
/var/folders/0z/tsy30v1j4xl4_7kw94k978ww0000gn/T//ccm5Xl3w.s:1450   .bss.audioBuffer:0000000000000000 $d
/var/folders/0z/tsy30v1j4xl4_7kw94k978ww0000gn/T//ccm5Xl3w.s:1457   .bss.delayLOut:0000000000000000 $d
/var/folders/0z/tsy30v1j4xl4_7kw94k978ww0000gn/T//ccm5Xl3w.s:1464   .bss.delayROut:0000000000000000 $d
/var/folders/0z/tsy30v1j4xl4_7kw94k978ww0000gn/T//ccm5Xl3w.s:1471   .rodata.mtof:0000000000000000 $d
/var/folders/0z/tsy30v1j4xl4_7kw94k978ww0000gn/T//ccm5Xl3w.s:1605   .rodata.pbend:0000000000000000 $d

UNDEFINED SYMBOLS
__aeabi_f2d
__aeabi_dsub
__aeabi_d2f
osc_polyblepSaw
osc_polyblepRect
ADSR_compute
clip
MoogLP_compute
pingpongDelay_compute
Moog_filter
currentPitch
osc1
osc2
osc3
osc4
sub_osc
adsr_filt
ARM GAS  /var/folders/0z/tsy30v1j4xl4_7kw94k978ww0000gn/T//ccm5Xl3w.s 			page 58


adsr_amp
pot1_norm
pot2_norm
BSP_AUDIO_OUT_Init
BSP_AUDIO_OUT_Play
osc_init
ADSR_init
MoogLP_init
Delay_init
adsr_index
HAL_DMA_IRQHandler
hAudioOutI2s
hAudioInI2s
