ARM GAS  /var/folders/0z/tsy30v1j4xl4_7kw94k978ww0000gn/T//cckFv8KR.s 			page 1


   1              		.cpu cortex-m4
   2              		.arch armv7e-m
   3              		.fpu fpv4-sp-d16
   4              		.eabi_attribute 27, 1
   5              		.eabi_attribute 28, 1
   6              		.eabi_attribute 20, 1
   7              		.eabi_attribute 21, 1
   8              		.eabi_attribute 23, 3
   9              		.eabi_attribute 24, 1
  10              		.eabi_attribute 25, 1
  11              		.eabi_attribute 26, 1
  12              		.eabi_attribute 30, 2
  13              		.eabi_attribute 34, 1
  14              		.eabi_attribute 18, 4
  15              		.file	"audio.c"
  16              		.text
  17              	.Ltext0:
  18              		.cfi_sections	.debug_frame
  19              		.section	.text.audioBlock.constprop.0,"ax",%progbits
  20              		.align	1
  21              		.p2align 2,,3
  22              		.syntax unified
  23              		.thumb
  24              		.thumb_func
  26              	audioBlock.constprop.0:
  27              	.LVL0:
  28              	.LFB143:
  29              		.file 1 "Core/Src/audio.c"
   1:Core/Src/audio.c **** /**
   2:Core/Src/audio.c ****  * @file audio.c
   3:Core/Src/audio.c ****  * @author johannes regnier
   4:Core/Src/audio.c ****  * @brief Functions to make sound and main audio block function 
   5:Core/Src/audio.c ****  * @note  Essential initialization functions from Tom Erbe:	
   6:Core/Src/audio.c ****  * @note  http://synthnotes.ucsd.edu/wp4/index.php/2019/09/24/setting-up-the-stmf4-to-connect-to-th
   7:Core/Src/audio.c ****  * @version 0.1
   8:Core/Src/audio.c ****  * @date 2023-12-12
   9:Core/Src/audio.c ****  * 
  10:Core/Src/audio.c ****  * @copyright Copyright (c) 2023
  11:Core/Src/audio.c ****  * 
  12:Core/Src/audio.c ****  */
  13:Core/Src/audio.c **** 
  14:Core/Src/audio.c **** 
  15:Core/Src/audio.c **** #include <stdint.h>
  16:Core/Src/audio.c **** #include "audio.h"
  17:Core/Src/audio.c **** #include "oscillators.h"
  18:Core/Src/audio.c **** #include "ADSR_envelope.h"
  19:Core/Src/audio.c **** #include "ladder_filter.h"
  20:Core/Src/audio.c **** #include "bitcrusher.h"
  21:Core/Src/audio.c **** #include "stereo_delay.h"
  22:Core/Src/audio.c **** #include "MIDI_lut.h"
  23:Core/Src/audio.c **** #include <stdint.h>
  24:Core/Src/audio.c **** #include "helper_functions.h"
  25:Core/Src/audio.c **** 
  26:Core/Src/audio.c **** 
  27:Core/Src/audio.c **** 
  28:Core/Src/audio.c **** /**
  29:Core/Src/audio.c ****  * @brief Audio Buffer - x samples X 2 channels = 2 * x samples
ARM GAS  /var/folders/0z/tsy30v1j4xl4_7kw94k978ww0000gn/T//cckFv8KR.s 			page 2


  30:Core/Src/audio.c ****  * @note Channels are interleaved - LRLRLRLRLRLRLRLRLRLRLR - audioBuffer[frame << 1] audioBuffer[(f
  31:Core/Src/audio.c ****  */
  32:Core/Src/audio.c **** int16_t audioBuffer[BUFFER_SIZE]; 
  33:Core/Src/audio.c **** 
  34:Core/Src/audio.c **** 
  35:Core/Src/audio.c **** extern uint8_t currentPitch;
  36:Core/Src/audio.c **** extern uint8_t velocity;
  37:Core/Src/audio.c **** extern ADSR_t adsr_amp, adsr_filt;
  38:Core/Src/audio.c **** extern ZDFLadder_t Moog_filter;
  39:Core/Src/audio.c **** extern oscillator_t osc1, osc2, sub_osc;
  40:Core/Src/audio.c **** 
  41:Core/Src/audio.c **** 
  42:Core/Src/audio.c **** static float f0 _CCM_;			// frequency of oscillators 1 & 2
  43:Core/Src/audio.c **** static float f_sub _CCM_;		// frequency of sub oscillator
  44:Core/Src/audio.c **** // static float vol _CCM_;
  45:Core/Src/audio.c **** static float amp_env _CCM_;		// amplitude envelope
  46:Core/Src/audio.c **** static float filt_env _CCM_;	// filter envelope
  47:Core/Src/audio.c **** 
  48:Core/Src/audio.c **** 
  49:Core/Src/audio.c **** static float delayLOut _CCM_;	// left output of ping pong delay
  50:Core/Src/audio.c **** static float delayROut _CCM_;	// right output of ping pong delay
  51:Core/Src/audio.c **** 
  52:Core/Src/audio.c **** 
  53:Core/Src/audio.c **** 
  54:Core/Src/audio.c **** /**
  55:Core/Src/audio.c ****  * @brief Initialize audio
  56:Core/Src/audio.c ****  * 
  57:Core/Src/audio.c ****  */
  58:Core/Src/audio.c **** void AUDIO_Init()
  59:Core/Src/audio.c **** {
  60:Core/Src/audio.c ****     BSP_AUDIO_OUT_Init(OUTPUT_DEVICE_HEADPHONE, INITIAL_VOLUME, FS);
  61:Core/Src/audio.c **** 
  62:Core/Src/audio.c **** 	/**
  63:Core/Src/audio.c **** 	 * @brief Ping pong buffer
  64:Core/Src/audio.c **** 	 * @note While one audiobuffer is transmitted via DMA, another one is computed
  65:Core/Src/audio.c **** 	 * @note Hence size = 2 * (audiobuffer size)
  66:Core/Src/audio.c **** 	 */
  67:Core/Src/audio.c **** 	BSP_AUDIO_OUT_Play((uint16_t *)&audioBuffer[0], 2*BUFFER_SIZE); 
  68:Core/Src/audio.c **** 
  69:Core/Src/audio.c **** 	
  70:Core/Src/audio.c **** 	
  71:Core/Src/audio.c **** 	osc_init(&osc1, 0.5, 1000, 0, 0, 0.5);
  72:Core/Src/audio.c **** 	osc_init(&osc2, 0.5, 440, 0, 0, 0.5);
  73:Core/Src/audio.c **** 	osc_init(&sub_osc, 0.5, 440, 0, 0, 0.5);
  74:Core/Src/audio.c **** 
  75:Core/Src/audio.c **** 
  76:Core/Src/audio.c **** 	ADSR_init(&adsr_amp);
  77:Core/Src/audio.c **** 	ADSR_init(&adsr_filt);
  78:Core/Src/audio.c **** 	MoogLP_init(&Moog_filter);
  79:Core/Src/audio.c **** 	Delay_init();
  80:Core/Src/audio.c **** 	
  81:Core/Src/audio.c **** }
  82:Core/Src/audio.c **** 
  83:Core/Src/audio.c **** void OpSetFreq(oscillator_t * op, float f)
  84:Core/Src/audio.c **** {
  85:Core/Src/audio.c **** 	op->freq = A0 * f;
  86:Core/Src/audio.c **** }
ARM GAS  /var/folders/0z/tsy30v1j4xl4_7kw94k978ww0000gn/T//cckFv8KR.s 			page 3


  87:Core/Src/audio.c **** 
  88:Core/Src/audio.c **** 
  89:Core/Src/audio.c **** 
  90:Core/Src/audio.c **** /**
  91:Core/Src/audio.c ****  * @brief Main audio function. This is where the audio samples are computed, then the audio buffer 
  92:Core/Src/audio.c ****  * 
  93:Core/Src/audio.c ****  * @param buffer 
  94:Core/Src/audio.c ****  * @param samples 
  95:Core/Src/audio.c ****  */
  96:Core/Src/audio.c **** void audioBlock(uint16_t *buffer, uint16_t samples)
  30              		.loc 1 96 6 view -0
  31              		.cfi_startproc
  32              		@ args = 0, pretend = 0, frame = 0
  33              		@ frame_needed = 0, uses_anonymous_args = 0
  97:Core/Src/audio.c **** {
  98:Core/Src/audio.c **** 	int i;
  99:Core/Src/audio.c **** 	int16_t *output;
 100:Core/Src/audio.c **** 	output = buffer;
 101:Core/Src/audio.c **** 	float sample, sampleL, sampleR;
 102:Core/Src/audio.c **** 	uint16_t valueL, valueR;
 103:Core/Src/audio.c **** 	
 104:Core/Src/audio.c **** 
 105:Core/Src/audio.c **** 	for (i = 0; i < samples; i++)
  34              		.loc 1 105 16 view .LVU1
  96:Core/Src/audio.c **** {
  35              		.loc 1 96 6 is_stmt 0 view .LVU2
  36 0000 2DE9F84F 		push	{r3, r4, r5, r6, r7, r8, r9, r10, fp, lr}
  37              		.cfi_def_cfa_offset 40
  38              		.cfi_offset 3, -40
  39              		.cfi_offset 4, -36
  40              		.cfi_offset 5, -32
  41              		.cfi_offset 6, -28
  42              		.cfi_offset 7, -24
  43              		.cfi_offset 8, -20
  44              		.cfi_offset 9, -16
  45              		.cfi_offset 10, -12
  46              		.cfi_offset 11, -8
  47              		.cfi_offset 14, -4
  48 0004 DFF8E0B1 		ldr	fp, .L17+48
  49 0008 6B4E     		ldr	r6, .L17
  50 000a DFF8E0A1 		ldr	r10, .L17+52
  51 000e 6B4D     		ldr	r5, .L17+4
  52 0010 DFF8CC91 		ldr	r9, .L17+40
  53 0014 2DED068B 		vpush.64	{d8, d9, d10}
  54              		.cfi_def_cfa_offset 64
  55              		.cfi_offset 80, -64
  56              		.cfi_offset 81, -60
  57              		.cfi_offset 82, -56
  58              		.cfi_offset 83, -52
  59              		.cfi_offset 84, -48
  60              		.cfi_offset 85, -44
  96:Core/Src/audio.c **** {
  61              		.loc 1 96 6 view .LVU3
  62 0018 0746     		mov	r7, r0
  63              	.LBB36:
  64              	.LBB37:
  85:Core/Src/audio.c **** }
ARM GAS  /var/folders/0z/tsy30v1j4xl4_7kw94k978ww0000gn/T//cckFv8KR.s 			page 4


  65              		.loc 1 85 16 view .LVU4
  66 001a DFED69AA 		vldr.32	s21, .L17+8
  67              	.LBE37:
  68              	.LBE36:
  69 001e DFED699A 		vldr.32	s19, .L17+12
 106:Core/Src/audio.c **** 	{
 107:Core/Src/audio.c **** 
 108:Core/Src/audio.c **** 		f0 = mtof[currentPitch];
 109:Core/Src/audio.c **** 		
 110:Core/Src/audio.c **** 		/* test with 3 oscillators*/
 111:Core/Src/audio.c **** 		OpSetFreq(&osc1, f0);
 112:Core/Src/audio.c **** 		OpSetFreq(&osc2, f0 + 1);
 113:Core/Src/audio.c **** 
 114:Core/Src/audio.c **** 		f_sub = mtof[max(currentPitch - 12, 0)];
 115:Core/Src/audio.c **** 		OpSetFreq(&sub_osc, f_sub);
 116:Core/Src/audio.c **** 		sample = 0.5*(osc_polyblepSaw(&osc1) + osc_polyblepSaw(&osc2) + osc_polyblepRect(&sub_osc));
 117:Core/Src/audio.c **** 	
 118:Core/Src/audio.c **** 		/****************** Apply filter ***********************/
 119:Core/Src/audio.c **** 		filt_env = ADSR_compute(&adsr_filt);
 120:Core/Src/audio.c **** 		Moog_filter.cutoff = 2000 * filt_env;
  70              		.loc 1 120 29 view .LVU5
  71 0022 DFED698A 		vldr.32	s17, .L17+16
 121:Core/Src/audio.c **** 		sample = MoogLP_compute(&Moog_filter, sample);
 122:Core/Src/audio.c **** 	
 123:Core/Src/audio.c **** 
 124:Core/Src/audio.c **** 		/************** Apply amplitude envelope ****************/
 125:Core/Src/audio.c **** 		amp_env = ADSR_compute(&adsr_amp);
 126:Core/Src/audio.c **** 		sample *= amp_env;
 127:Core/Src/audio.c **** 
 128:Core/Src/audio.c **** 		
 129:Core/Src/audio.c **** 		/************** Apply bitcrushing effect ***************/
 130:Core/Src/audio.c **** 		// sample = decimator(sample, 0.2, 16);
 131:Core/Src/audio.c **** 
 132:Core/Src/audio.c **** 		/************** Apply delay effect ****************/
 133:Core/Src/audio.c **** 		pingpongDelay_compute(sample, &delayLOut, &delayROut);
 134:Core/Src/audio.c **** 		sampleL = delayLOut;
 135:Core/Src/audio.c **** 		sampleR = delayROut;
 136:Core/Src/audio.c **** 
 137:Core/Src/audio.c **** 		/****************** softclip outputs ********************/
 138:Core/Src/audio.c **** 		sampleL = SoftClip(sampleL);
 139:Core/Src/audio.c **** 		sampleR = SoftClip(sampleR);
 140:Core/Src/audio.c **** 
 141:Core/Src/audio.c **** 		/*************** Convert to 16 bits int *****************/
 142:Core/Src/audio.c **** 		valueL = ((int16_t) ((32767.0f) * sampleL)); 
  72              		.loc 1 142 35 view .LVU6
  73 0026 9FED699A 		vldr.32	s18, .L17+20
 105:Core/Src/audio.c **** 	{
  74              		.loc 1 105 9 view .LVU7
  75 002a 0024     		movs	r4, #0
  76 002c 00F10208 		add	r8, r0, #2
  77 0030 50E0     		b	.L5
  78              	.LVL1:
  79              	.L15:
  80              	.LBB41:
  81              	.LBB42:
  82              		.file 2 "Core/Inc/helper_functions.h"
   1:Core/Inc/helper_functions.h **** /**
ARM GAS  /var/folders/0z/tsy30v1j4xl4_7kw94k978ww0000gn/T//cckFv8KR.s 			page 5


   2:Core/Inc/helper_functions.h ****  * @file helper_functions.h
   3:Core/Inc/helper_functions.h ****  * @author johannes regnier
   4:Core/Inc/helper_functions.h ****  * @brief Various math tools 
   5:Core/Inc/helper_functions.h ****  * @version 0.1
   6:Core/Inc/helper_functions.h ****  * @date 2023-12-30
   7:Core/Inc/helper_functions.h ****  * 
   8:Core/Inc/helper_functions.h ****  * @copyright Copyright (c) 2023
   9:Core/Inc/helper_functions.h ****  * 
  10:Core/Inc/helper_functions.h ****  */
  11:Core/Inc/helper_functions.h **** 
  12:Core/Inc/helper_functions.h **** #ifndef _HELPER_FUNCTIONS_H
  13:Core/Inc/helper_functions.h **** #define _HELPER_FUNCTIONS_H
  14:Core/Inc/helper_functions.h **** 
  15:Core/Inc/helper_functions.h **** 
  16:Core/Inc/helper_functions.h **** #include <math.h>
  17:Core/Inc/helper_functions.h **** #include <stdint.h>
  18:Core/Inc/helper_functions.h **** 
  19:Core/Inc/helper_functions.h **** #ifndef NOMINMAX
  20:Core/Inc/helper_functions.h **** 
  21:Core/Inc/helper_functions.h **** #ifndef max
  22:Core/Inc/helper_functions.h **** #define max(a,b)            (((a) > (b)) ? (a) : (b))
  23:Core/Inc/helper_functions.h **** #endif
  24:Core/Inc/helper_functions.h **** 
  25:Core/Inc/helper_functions.h **** #ifndef min
  26:Core/Inc/helper_functions.h **** #define min(a,b)            (((a) < (b)) ? (a) : (b))
  27:Core/Inc/helper_functions.h **** #endif
  28:Core/Inc/helper_functions.h **** 
  29:Core/Inc/helper_functions.h **** #endif  /* NOMINMAX */
  30:Core/Inc/helper_functions.h **** 
  31:Core/Inc/helper_functions.h **** /**
  32:Core/Inc/helper_functions.h ****  * @brief Keep value between 0 and max
  33:Core/Inc/helper_functions.h ****  * 
  34:Core/Inc/helper_functions.h ****  * @param value 
  35:Core/Inc/helper_functions.h ****  * @param max 
  36:Core/Inc/helper_functions.h ****  * @return float 
  37:Core/Inc/helper_functions.h ****  */
  38:Core/Inc/helper_functions.h **** inline float wrap(float value, float max)   
  39:Core/Inc/helper_functions.h **** {
  40:Core/Inc/helper_functions.h ****     if (value < 0.f)
  41:Core/Inc/helper_functions.h ****         value += max;
  42:Core/Inc/helper_functions.h ****     if (value >= max)
  43:Core/Inc/helper_functions.h ****         value -= max;
  44:Core/Inc/helper_functions.h **** 
  45:Core/Inc/helper_functions.h ****     return value;
  46:Core/Inc/helper_functions.h **** }
  47:Core/Inc/helper_functions.h **** 
  48:Core/Inc/helper_functions.h **** inline float Crossfade(float a, float b, float fade)
  49:Core/Inc/helper_functions.h **** {
  50:Core/Inc/helper_functions.h ****     return a + (b - a) * fade;
  51:Core/Inc/helper_functions.h **** }
  52:Core/Inc/helper_functions.h **** 
  53:Core/Inc/helper_functions.h **** 
  54:Core/Inc/helper_functions.h **** /**
  55:Core/Inc/helper_functions.h ****  * @brief Pade-approximation of tanh for soft clipping
  56:Core/Inc/helper_functions.h ****  * @ from https://www.musicdsp.org/en/latest/Other/238-rational-tanh-approximation.html 
  57:Core/Inc/helper_functions.h ****  * @param x 
  58:Core/Inc/helper_functions.h ****  * @return float 
ARM GAS  /var/folders/0z/tsy30v1j4xl4_7kw94k978ww0000gn/T//cckFv8KR.s 			page 6


  59:Core/Inc/helper_functions.h ****  */
  60:Core/Inc/helper_functions.h **** inline float SoftClip(float x)
  61:Core/Inc/helper_functions.h **** {
  62:Core/Inc/helper_functions.h ****     if (x < -3.0f)
  63:Core/Inc/helper_functions.h ****     {
  64:Core/Inc/helper_functions.h ****         return -1.0f;
  65:Core/Inc/helper_functions.h ****     }
  66:Core/Inc/helper_functions.h ****     else if (x > 3.0f)
  83              		.loc 2 66 10 is_stmt 1 view .LVU8
  84              		.loc 2 66 13 is_stmt 0 view .LVU9
  85 0032 F0EE086A 		vmov.f32	s13, #3.0e+0
  86 0036 B4EEE67A 		vcmpe.f32	s14, s13
  87 003a F1EE10FA 		vmrs	APSR_nzcv, FPSCR
  88 003e 00F3B480 		bgt	.L8
  89              	.LVL2:
  90              	.LBB43:
  91              	.LBI43:
  60:Core/Inc/helper_functions.h **** {
  92              		.loc 2 60 14 is_stmt 1 view .LVU10
  93              	.LBB44:
  67:Core/Inc/helper_functions.h ****     {
  68:Core/Inc/helper_functions.h ****         return 1.0f;
  69:Core/Inc/helper_functions.h ****     }
  70:Core/Inc/helper_functions.h ****     else
  71:Core/Inc/helper_functions.h ****     {
  72:Core/Inc/helper_functions.h ****         return x * (27.0f + x * x) / (27.0f + 9.0f * x * x);
  94              		.loc 2 72 9 view .LVU11
  95              		.loc 2 72 27 is_stmt 0 view .LVU12
  96 0042 F3EE0B6A 		vmov.f32	s13, #2.7e+1
  97              		.loc 2 72 52 view .LVU13
  98 0046 F2EE025A 		vmov.f32	s11, #9.0e+0
  99 004a 67EE255A 		vmul.f32	s11, s14, s11
 100              		.loc 2 72 27 view .LVU14
 101 004e B0EE665A 		vmov.f32	s10, s13
 102 0052 A7EE075A 		vfma.f32	s10, s14, s14
 103              		.loc 2 72 45 view .LVU15
 104 0056 E7EE256A 		vfma.f32	s13, s14, s11
 105              		.loc 2 72 18 view .LVU16
 106 005a 27EE057A 		vmul.f32	s14, s14, s10
 107              	.LVL3:
 108              		.loc 2 72 45 view .LVU17
 109 005e B0EE666A 		vmov.f32	s12, s13
 110              	.LVL4:
 111              		.loc 2 72 36 view .LVU18
 112 0062 C7EE066A 		vdiv.f32	s13, s14, s12
 113              	.LBE44:
 114              	.LBE43:
 115              	.LBE42:
 116              	.LBE41:
 117              		.loc 1 142 35 view .LVU19
 118 0066 26EE897A 		vmul.f32	s14, s13, s18
 119              		.loc 1 142 13 view .LVU20
 120 006a BDEEC77A 		vcvt.s32.f32	s14, s14
 121 006e 17EE103A 		vmov	r3, s14	@ int
 122 0072 18B2     		sxth	r0, r3
 123              	.L3:
 124              	.LVL5:
ARM GAS  /var/folders/0z/tsy30v1j4xl4_7kw94k978ww0000gn/T//cckFv8KR.s 			page 7


 139:Core/Src/audio.c **** 
 125              		.loc 1 139 3 is_stmt 1 view .LVU21
 126              	.LBB48:
 127              	.LBI48:
  60:Core/Inc/helper_functions.h **** {
 128              		.loc 2 60 14 view .LVU22
 129              	.LBB49:
  62:Core/Inc/helper_functions.h ****     {
 130              		.loc 2 62 5 view .LVU23
  62:Core/Inc/helper_functions.h ****     {
 131              		.loc 2 62 8 is_stmt 0 view .LVU24
 132 0074 B8EE087A 		vmov.f32	s14, #-3.0e+0
 133 0078 F4EEC77A 		vcmpe.f32	s15, s14
 134 007c F1EE10FA 		vmrs	APSR_nzcv, FPSCR
 135 0080 00F18780 		bmi	.L9
 136              	.L16:
  66:Core/Inc/helper_functions.h ****     {
 137              		.loc 2 66 10 is_stmt 1 view .LVU25
  66:Core/Inc/helper_functions.h ****     {
 138              		.loc 2 66 13 is_stmt 0 view .LVU26
 139 0084 B0EE087A 		vmov.f32	s14, #3.0e+0
 140 0088 F4EEC77A 		vcmpe.f32	s15, s14
 141 008c F1EE10FA 		vmrs	APSR_nzcv, FPSCR
 142 0090 00F38E80 		bgt	.L10
 143              	.LVL6:
 144              	.LBB50:
 145              	.LBI50:
  60:Core/Inc/helper_functions.h **** {
 146              		.loc 2 60 14 is_stmt 1 view .LVU27
 147              	.LBB51:
 148              		.loc 2 72 9 view .LVU28
 149              		.loc 2 72 27 is_stmt 0 view .LVU29
 150 0094 B3EE0B7A 		vmov.f32	s14, #2.7e+1
 151              		.loc 2 72 52 view .LVU30
 152 0098 B2EE026A 		vmov.f32	s12, #9.0e+0
 153 009c 27EE866A 		vmul.f32	s12, s15, s12
 154              		.loc 2 72 27 view .LVU31
 155 00a0 F0EE475A 		vmov.f32	s11, s14
 156 00a4 E7EEA75A 		vfma.f32	s11, s15, s15
 157              		.loc 2 72 45 view .LVU32
 158 00a8 A7EE867A 		vfma.f32	s14, s15, s12
 159              		.loc 2 72 18 view .LVU33
 160 00ac 67EEA57A 		vmul.f32	s15, s15, s11
 161              	.LVL7:
 162              		.loc 2 72 45 view .LVU34
 163 00b0 F0EE476A 		vmov.f32	s13, s14
 164              	.LVL8:
 165              		.loc 2 72 36 view .LVU35
 166 00b4 87EEA67A 		vdiv.f32	s14, s15, s13
 167              	.LBE51:
 168              	.LBE50:
 169              	.LBE49:
 170              	.LBE48:
 143:Core/Src/audio.c **** 		valueR = ((int16_t) ((32767.0f) * sampleR));
 171              		.loc 1 143 35 view .LVU36
 172 00b8 67EE097A 		vmul.f32	s15, s14, s18
 173              		.loc 1 143 13 view .LVU37
ARM GAS  /var/folders/0z/tsy30v1j4xl4_7kw94k978ww0000gn/T//cckFv8KR.s 			page 8


 174 00bc FDEEE77A 		vcvt.s32.f32	s15, s15
 175 00c0 17EE903A 		vmov	r3, s15	@ int
 176 00c4 19B2     		sxth	r1, r3
 177              	.L4:
 178              	.LVL9:
 142:Core/Src/audio.c **** 		valueR = ((int16_t) ((32767.0f) * sampleR));
 179              		.loc 1 142 3 is_stmt 1 view .LVU38
 180              		.loc 1 143 3 view .LVU39
 144:Core/Src/audio.c **** 
 145:Core/Src/audio.c **** 		/*************** Output to audio buffer *****************/
 146:Core/Src/audio.c **** 		output[i<<1] = valueL ;			// LEFT channel
 181              		.loc 1 146 3 view .LVU40
 182              		.loc 1 146 16 is_stmt 0 view .LVU41
 183 00c6 27F82400 		strh	r0, [r7, r4, lsl #2]	@ movhi
 147:Core/Src/audio.c **** 	    output[(i<<1) + 1] = valueR;	// RIGHT channel
 184              		.loc 1 147 6 is_stmt 1 view .LVU42
 185              		.loc 1 147 25 is_stmt 0 view .LVU43
 186 00ca 28F82410 		strh	r1, [r8, r4, lsl #2]	@ movhi
 105:Core/Src/audio.c **** 	{
 187              		.loc 1 105 28 is_stmt 1 view .LVU44
 188 00ce 0134     		adds	r4, r4, #1
 189              	.LVL10:
 105:Core/Src/audio.c **** 	{
 190              		.loc 1 105 16 view .LVU45
 191 00d0 102C     		cmp	r4, #16
 192 00d2 66D0     		beq	.L14
 193              	.LVL11:
 194              	.L5:
 108:Core/Src/audio.c **** 		
 195              		.loc 1 108 3 view .LVU46
 108:Core/Src/audio.c **** 		
 196              		.loc 1 108 12 is_stmt 0 view .LVU47
 197 00d4 9BF80010 		ldrb	r1, [fp]	@ zero_extendqisi2
 198              	.LBB55:
 199              	.LBB56:
  85:Core/Src/audio.c **** }
 200              		.loc 1 85 11 view .LVU48
 201 00d8 3D4B     		ldr	r3, .L17+24
 202              	.LBE56:
 203              	.LBE55:
 108:Core/Src/audio.c **** 		
 204              		.loc 1 108 12 view .LVU49
 205 00da 06EB8100 		add	r0, r6, r1, lsl #2
 206 00de 90ED007A 		vldr.32	s14, [r0]
 111:Core/Src/audio.c **** 		OpSetFreq(&osc2, f0 + 1);
 207              		.loc 1 111 3 is_stmt 1 view .LVU50
 208              	.LVL12:
 209              	.LBB60:
 210              	.LBI36:
  83:Core/Src/audio.c **** {
 211              		.loc 1 83 6 view .LVU51
 212              	.LBB38:
  85:Core/Src/audio.c **** }
 213              		.loc 1 85 2 view .LVU52
 214              	.LBE38:
 215              	.LBE60:
 112:Core/Src/audio.c **** 
ARM GAS  /var/folders/0z/tsy30v1j4xl4_7kw94k978ww0000gn/T//cckFv8KR.s 			page 9


 216              		.loc 1 112 3 is_stmt 0 view .LVU53
 217 00e2 F7EE007A 		vmov.f32	s15, #1.0e+0
 218 00e6 77EE277A 		vadd.f32	s15, s14, s15
 114:Core/Src/audio.c **** 		OpSetFreq(&sub_osc, f_sub);
 219              		.loc 1 114 16 view .LVU54
 220 00ea 0C29     		cmp	r1, #12
 221              	.LBB61:
 222              	.LBB62:
  85:Core/Src/audio.c **** }
 223              		.loc 1 85 16 view .LVU55
 224 00ec 67EEAA7A 		vmul.f32	s15, s15, s21
 225              	.LBE62:
 226              	.LBE61:
 114:Core/Src/audio.c **** 		OpSetFreq(&sub_osc, f_sub);
 227              		.loc 1 114 15 view .LVU56
 228 00f0 88BF     		it	hi
 229 00f2 0146     		movhi	r1, r0
 230              	.LBB65:
 231              	.LBB63:
  85:Core/Src/audio.c **** }
 232              		.loc 1 85 11 view .LVU57
 233 00f4 C5ED017A 		vstr.32	s15, [r5, #4]
 234              	.LBE63:
 235              	.LBE65:
 236              	.LBB66:
 237              	.LBB57:
  85:Core/Src/audio.c **** }
 238              		.loc 1 85 16 view .LVU58
 239 00f8 88BF     		it	hi
 240 00fa 51ED0C7A 		vldrhi.32	s15, [r1, #-48]
 241              	.LBE57:
 242              	.LBE66:
 243              	.LBB67:
 244              	.LBB39:
 245 00fe 27EE2A7A 		vmul.f32	s14, s14, s21
 246              	.LVL13:
  85:Core/Src/audio.c **** }
 247              		.loc 1 85 16 view .LVU59
 248              	.LBE39:
 249              	.LBE67:
 250              	.LBB68:
 251              	.LBB58:
 252 0102 8CBF     		ite	hi
 253 0104 67EEAA7A 		vmulhi.f32	s15, s15, s21
 254              	.LBE58:
 255              	.LBE68:
 256 0108 F0EE697A 		vmovls.f32	s15, s19
 116:Core/Src/audio.c **** 	
 257              		.loc 1 116 17 view .LVU60
 258 010c 5046     		mov	r0, r10
 259              	.LVL14:
 260              	.LBB69:
 261              	.LBB40:
  85:Core/Src/audio.c **** }
 262              		.loc 1 85 11 view .LVU61
 263 010e 8AED017A 		vstr.32	s14, [r10, #4]
 264              	.LVL15:
ARM GAS  /var/folders/0z/tsy30v1j4xl4_7kw94k978ww0000gn/T//cckFv8KR.s 			page 10


  85:Core/Src/audio.c **** }
 265              		.loc 1 85 11 view .LVU62
 266              	.LBE40:
 267              	.LBE69:
 112:Core/Src/audio.c **** 
 268              		.loc 1 112 3 is_stmt 1 view .LVU63
 269              	.LBB70:
 270              	.LBI61:
  83:Core/Src/audio.c **** {
 271              		.loc 1 83 6 view .LVU64
 272              	.LBB64:
  85:Core/Src/audio.c **** }
 273              		.loc 1 85 2 view .LVU65
  85:Core/Src/audio.c **** }
 274              		.loc 1 85 2 is_stmt 0 view .LVU66
 275              	.LBE64:
 276              	.LBE70:
 114:Core/Src/audio.c **** 		OpSetFreq(&sub_osc, f_sub);
 277              		.loc 1 114 3 is_stmt 1 view .LVU67
 115:Core/Src/audio.c **** 		sample = 0.5*(osc_polyblepSaw(&osc1) + osc_polyblepSaw(&osc2) + osc_polyblepRect(&sub_osc));
 278              		.loc 1 115 3 view .LVU68
 279              	.LBB71:
 280              	.LBI55:
  83:Core/Src/audio.c **** {
 281              		.loc 1 83 6 view .LVU69
 282              	.LBB59:
  85:Core/Src/audio.c **** }
 283              		.loc 1 85 2 view .LVU70
  85:Core/Src/audio.c **** }
 284              		.loc 1 85 11 is_stmt 0 view .LVU71
 285 0112 C3ED017A 		vstr.32	s15, [r3, #4]
 286              	.LVL16:
  85:Core/Src/audio.c **** }
 287              		.loc 1 85 11 view .LVU72
 288              	.LBE59:
 289              	.LBE71:
 116:Core/Src/audio.c **** 	
 290              		.loc 1 116 3 is_stmt 1 view .LVU73
 116:Core/Src/audio.c **** 	
 291              		.loc 1 116 17 is_stmt 0 view .LVU74
 292 0116 FFF7FEFF 		bl	osc_polyblepSaw
 293              	.LVL17:
 116:Core/Src/audio.c **** 	
 294              		.loc 1 116 42 view .LVU75
 295 011a 2846     		mov	r0, r5
 116:Core/Src/audio.c **** 	
 296              		.loc 1 116 17 view .LVU76
 297 011c B0EE408A 		vmov.f32	s16, s0
 116:Core/Src/audio.c **** 	
 298              		.loc 1 116 42 view .LVU77
 299 0120 FFF7FEFF 		bl	osc_polyblepSaw
 300              	.LVL18:
 116:Core/Src/audio.c **** 	
 301              		.loc 1 116 67 view .LVU78
 302 0124 2A48     		ldr	r0, .L17+24
 116:Core/Src/audio.c **** 	
 303              		.loc 1 116 40 view .LVU79
ARM GAS  /var/folders/0z/tsy30v1j4xl4_7kw94k978ww0000gn/T//cckFv8KR.s 			page 11


 304 0126 38EE008A 		vadd.f32	s16, s16, s0
 116:Core/Src/audio.c **** 	
 305              		.loc 1 116 67 view .LVU80
 306 012a FFF7FEFF 		bl	osc_polyblepRect
 307              	.LVL19:
 119:Core/Src/audio.c **** 		Moog_filter.cutoff = 2000 * filt_env;
 308              		.loc 1 119 14 view .LVU81
 309 012e 2948     		ldr	r0, .L17+28
 116:Core/Src/audio.c **** 	
 310              		.loc 1 116 67 view .LVU82
 311 0130 B0EE40AA 		vmov.f32	s20, s0
 312              	.LVL20:
 119:Core/Src/audio.c **** 		Moog_filter.cutoff = 2000 * filt_env;
 313              		.loc 1 119 3 is_stmt 1 view .LVU83
 119:Core/Src/audio.c **** 		Moog_filter.cutoff = 2000 * filt_env;
 314              		.loc 1 119 14 is_stmt 0 view .LVU84
 315 0134 FFF7FEFF 		bl	ADSR_compute
 316              	.LVL21:
 120:Core/Src/audio.c **** 		sample = MoogLP_compute(&Moog_filter, sample);
 317              		.loc 1 120 3 is_stmt 1 view .LVU85
 116:Core/Src/audio.c **** 	
 318              		.loc 1 116 65 is_stmt 0 view .LVU86
 319 0138 38EE0A8A 		vadd.f32	s16, s16, s20
 320              	.LVL22:
 120:Core/Src/audio.c **** 		sample = MoogLP_compute(&Moog_filter, sample);
 321              		.loc 1 120 29 view .LVU87
 322 013c 60EE287A 		vmul.f32	s15, s0, s17
 121:Core/Src/audio.c **** 	
 323              		.loc 1 121 12 view .LVU88
 324 0140 2548     		ldr	r0, .L17+32
 325 0142 B6EE000A 		vmov.f32	s0, #5.0e-1
 326 0146 28EE000A 		vmul.f32	s0, s16, s0
 327              	.LVL23:
 120:Core/Src/audio.c **** 		sample = MoogLP_compute(&Moog_filter, sample);
 328              		.loc 1 120 22 view .LVU89
 329 014a C0ED007A 		vstr.32	s15, [r0]
 121:Core/Src/audio.c **** 	
 330              		.loc 1 121 3 is_stmt 1 view .LVU90
 121:Core/Src/audio.c **** 	
 331              		.loc 1 121 12 is_stmt 0 view .LVU91
 332 014e FFF7FEFF 		bl	MoogLP_compute
 333              	.LVL24:
 125:Core/Src/audio.c **** 		sample *= amp_env;
 334              		.loc 1 125 13 view .LVU92
 335 0152 2248     		ldr	r0, .L17+36
 121:Core/Src/audio.c **** 	
 336              		.loc 1 121 12 view .LVU93
 337 0154 B0EE408A 		vmov.f32	s16, s0
 338              	.LVL25:
 125:Core/Src/audio.c **** 		sample *= amp_env;
 339              		.loc 1 125 3 is_stmt 1 view .LVU94
 125:Core/Src/audio.c **** 		sample *= amp_env;
 340              		.loc 1 125 13 is_stmt 0 view .LVU95
 341 0158 FFF7FEFF 		bl	ADSR_compute
 342              	.LVL26:
 126:Core/Src/audio.c **** 
 343              		.loc 1 126 3 is_stmt 1 view .LVU96
ARM GAS  /var/folders/0z/tsy30v1j4xl4_7kw94k978ww0000gn/T//cckFv8KR.s 			page 12


 133:Core/Src/audio.c **** 		sampleL = delayLOut;
 344              		.loc 1 133 3 view .LVU97
 345 015c 2049     		ldr	r1, .L17+40
 346 015e 28EE000A 		vmul.f32	s0, s16, s0
 347              	.LVL27:
 133:Core/Src/audio.c **** 		sampleL = delayLOut;
 348              		.loc 1 133 3 is_stmt 0 view .LVU98
 349 0162 081D     		adds	r0, r1, #4
 350 0164 FFF7FEFF 		bl	pingpongDelay_compute
 351              	.LVL28:
 134:Core/Src/audio.c **** 		sampleR = delayROut;
 352              		.loc 1 134 3 is_stmt 1 view .LVU99
 134:Core/Src/audio.c **** 		sampleR = delayROut;
 353              		.loc 1 134 11 is_stmt 0 view .LVU100
 354 0168 99ED017A 		vldr.32	s14, [r9, #4]
 355              	.LVL29:
 135:Core/Src/audio.c **** 
 356              		.loc 1 135 3 is_stmt 1 view .LVU101
 135:Core/Src/audio.c **** 
 357              		.loc 1 135 11 is_stmt 0 view .LVU102
 358 016c D9ED007A 		vldr.32	s15, [r9]
 359              	.LVL30:
 138:Core/Src/audio.c **** 		sampleR = SoftClip(sampleR);
 360              		.loc 1 138 3 is_stmt 1 view .LVU103
 361              	.LBB72:
 362              	.LBI41:
  60:Core/Inc/helper_functions.h **** {
 363              		.loc 2 60 14 view .LVU104
 364              	.LBB45:
  62:Core/Inc/helper_functions.h ****     {
 365              		.loc 2 62 5 view .LVU105
  62:Core/Inc/helper_functions.h ****     {
 366              		.loc 2 62 8 is_stmt 0 view .LVU106
 367 0170 F8EE086A 		vmov.f32	s13, #-3.0e+0
 368 0174 B4EEE67A 		vcmpe.f32	s14, s13
 369 0178 F1EE10FA 		vmrs	APSR_nzcv, FPSCR
 370 017c 7FF559AF 		bpl	.L15
 371              	.LBE45:
 372              	.LBE72:
 373              	.LBB73:
 374              	.LBB52:
 375 0180 B8EE087A 		vmov.f32	s14, #-3.0e+0
 376              	.LVL31:
  62:Core/Inc/helper_functions.h ****     {
 377              		.loc 2 62 8 view .LVU107
 378 0184 F4EEC77A 		vcmpe.f32	s15, s14
 379 0188 F1EE10FA 		vmrs	APSR_nzcv, FPSCR
 380              	.LBE52:
 381              	.LBE73:
 382              	.LBB74:
 383              	.LBB46:
 384 018c 1548     		ldr	r0, .L17+44
 385              	.LVL32:
  62:Core/Inc/helper_functions.h ****     {
 386              		.loc 2 62 8 view .LVU108
 387              	.LBE46:
 388              	.LBE74:
ARM GAS  /var/folders/0z/tsy30v1j4xl4_7kw94k978ww0000gn/T//cckFv8KR.s 			page 13


 139:Core/Src/audio.c **** 
 389              		.loc 1 139 3 is_stmt 1 view .LVU109
 390              	.LBB75:
  60:Core/Inc/helper_functions.h **** {
 391              		.loc 2 60 14 view .LVU110
 392              	.LBB53:
  62:Core/Inc/helper_functions.h ****     {
 393              		.loc 2 62 5 view .LVU111
  62:Core/Inc/helper_functions.h ****     {
 394              		.loc 2 62 8 is_stmt 0 view .LVU112
 395 018e 7FF579AF 		bpl	.L16
 396              	.L9:
 397 0192 1449     		ldr	r1, .L17+44
 398              	.LVL33:
  62:Core/Inc/helper_functions.h ****     {
 399              		.loc 2 62 8 view .LVU113
 400              	.LBE53:
 401              	.LBE75:
 142:Core/Src/audio.c **** 		valueR = ((int16_t) ((32767.0f) * sampleR));
 402              		.loc 1 142 3 is_stmt 1 view .LVU114
 143:Core/Src/audio.c **** 
 403              		.loc 1 143 3 view .LVU115
 146:Core/Src/audio.c **** 	    output[(i<<1) + 1] = valueR;	// RIGHT channel
 404              		.loc 1 146 3 view .LVU116
 146:Core/Src/audio.c **** 	    output[(i<<1) + 1] = valueR;	// RIGHT channel
 405              		.loc 1 146 16 is_stmt 0 view .LVU117
 406 0194 27F82400 		strh	r0, [r7, r4, lsl #2]	@ movhi
 407              		.loc 1 147 6 is_stmt 1 view .LVU118
 408              		.loc 1 147 25 is_stmt 0 view .LVU119
 409 0198 28F82410 		strh	r1, [r8, r4, lsl #2]	@ movhi
 105:Core/Src/audio.c **** 	{
 410              		.loc 1 105 28 is_stmt 1 view .LVU120
 411 019c 0134     		adds	r4, r4, #1
 412              	.LVL34:
 105:Core/Src/audio.c **** 	{
 413              		.loc 1 105 16 view .LVU121
 414 019e 102C     		cmp	r4, #16
 415 01a0 98D1     		bne	.L5
 416              	.L14:
 148:Core/Src/audio.c **** 	}
 149:Core/Src/audio.c **** }
 417              		.loc 1 149 1 is_stmt 0 view .LVU122
 418 01a2 BDEC068B 		vldm	sp!, {d8-d10}
 419              		.cfi_remember_state
 420              		.cfi_restore 84
 421              		.cfi_restore 85
 422              		.cfi_restore 82
 423              		.cfi_restore 83
 424              		.cfi_restore 80
 425              		.cfi_restore 81
 426              		.cfi_def_cfa_offset 40
 427              		.loc 1 149 1 view .LVU123
 428 01a6 BDE8F88F 		pop	{r3, r4, r5, r6, r7, r8, r9, r10, fp, pc}
 429              	.LVL35:
 430              	.L8:
 431              		.cfi_restore_state
 432              	.LBB76:
ARM GAS  /var/folders/0z/tsy30v1j4xl4_7kw94k978ww0000gn/T//cckFv8KR.s 			page 14


 433              	.LBB47:
 434              		.loc 1 149 1 view .LVU124
 435 01aa 47F6FF70 		movw	r0, #32767
 436 01ae 61E7     		b	.L3
 437              	.LVL36:
 438              	.L10:
 439              		.loc 1 149 1 view .LVU125
 440              	.LBE47:
 441              	.LBE76:
 442              	.LBB77:
 443              	.LBB54:
 444 01b0 47F6FF71 		movw	r1, #32767
 445 01b4 87E7     		b	.L4
 446              	.L18:
 447 01b6 00BF     		.align	2
 448              	.L17:
 449 01b8 00000000 		.word	.LANCHOR0
 450 01bc 00000000 		.word	osc2
 451 01c0 27B17F3F 		.word	1065333031
 452 01c4 C9A70241 		.word	1090693065
 453 01c8 0000FA44 		.word	1157234688
 454 01cc 00FEFF46 		.word	1191181824
 455 01d0 00000000 		.word	sub_osc
 456 01d4 00000000 		.word	adsr_filt
 457 01d8 00000000 		.word	Moog_filter
 458 01dc 00000000 		.word	adsr_amp
 459 01e0 00000000 		.word	.LANCHOR1
 460 01e4 0180FFFF 		.word	-32767
 461 01e8 00000000 		.word	currentPitch
 462 01ec 00000000 		.word	osc1
 463              	.LBE54:
 464              	.LBE77:
 465              		.cfi_endproc
 466              	.LFE143:
 468              		.section	.text.AUDIO_Init,"ax",%progbits
 469              		.align	1
 470              		.p2align 2,,3
 471              		.global	AUDIO_Init
 472              		.syntax unified
 473              		.thumb
 474              		.thumb_func
 476              	AUDIO_Init:
 477              	.LFB134:
  59:Core/Src/audio.c ****     BSP_AUDIO_OUT_Init(OUTPUT_DEVICE_HEADPHONE, INITIAL_VOLUME, FS);
 478              		.loc 1 59 1 is_stmt 1 view -0
 479              		.cfi_startproc
 480              		@ args = 0, pretend = 0, frame = 8
 481              		@ frame_needed = 0, uses_anonymous_args = 0
  60:Core/Src/audio.c **** 
 482              		.loc 1 60 5 view .LVU127
  59:Core/Src/audio.c ****     BSP_AUDIO_OUT_Init(OUTPUT_DEVICE_HEADPHONE, INITIAL_VOLUME, FS);
 483              		.loc 1 59 1 is_stmt 0 view .LVU128
 484 0000 00B5     		push	{lr}
 485              		.cfi_def_cfa_offset 4
 486              		.cfi_offset 14, -4
 487 0002 2DED028B 		vpush.64	{d8}
 488              		.cfi_def_cfa_offset 12
ARM GAS  /var/folders/0z/tsy30v1j4xl4_7kw94k978ww0000gn/T//cckFv8KR.s 			page 15


 489              		.cfi_offset 80, -12
 490              		.cfi_offset 81, -8
  60:Core/Src/audio.c **** 
 491              		.loc 1 60 5 view .LVU129
 492 0006 4AF6E032 		movw	r2, #44000
  59:Core/Src/audio.c ****     BSP_AUDIO_OUT_Init(OUTPUT_DEVICE_HEADPHONE, INITIAL_VOLUME, FS);
 493              		.loc 1 59 1 view .LVU130
 494 000a 83B0     		sub	sp, sp, #12
 495              		.cfi_def_cfa_offset 24
  60:Core/Src/audio.c **** 
 496              		.loc 1 60 5 view .LVU131
 497 000c 4621     		movs	r1, #70
 498 000e 0220     		movs	r0, #2
 499 0010 FFF7FEFF 		bl	BSP_AUDIO_OUT_Init
 500              	.LVL37:
  67:Core/Src/audio.c **** 
 501              		.loc 1 67 2 is_stmt 1 view .LVU132
  71:Core/Src/audio.c **** 	osc_init(&osc2, 0.5, 440, 0, 0, 0.5);
 502              		.loc 1 71 2 is_stmt 0 view .LVU133
 503 0014 DFED201A 		vldr.32	s3, .L21
  67:Core/Src/audio.c **** 
 504              		.loc 1 67 2 view .LVU134
 505 0018 2048     		ldr	r0, .L21+4
  71:Core/Src/audio.c **** 	osc_init(&osc2, 0.5, 440, 0, 0, 0.5);
 506              		.loc 1 71 2 view .LVU135
 507 001a CDED011A 		vstr.32	s3, [sp, #4]	@ int
  67:Core/Src/audio.c **** 
 508              		.loc 1 67 2 view .LVU136
 509 001e 8021     		movs	r1, #128
 510 0020 FFF7FEFF 		bl	BSP_AUDIO_OUT_Play
 511              	.LVL38:
  71:Core/Src/audio.c **** 	osc_init(&osc2, 0.5, 440, 0, 0, 0.5);
 512              		.loc 1 71 2 is_stmt 1 view .LVU137
 513 0024 DDED011A 		vldr.32	s3, [sp, #4]	@ int
 514 0028 DFED1D0A 		vldr.32	s1, .L21+8
 515 002c 1D48     		ldr	r0, .L21+12
  72:Core/Src/audio.c **** 	osc_init(&sub_osc, 0.5, 440, 0, 0, 0.5);
 516              		.loc 1 72 2 is_stmt 0 view .LVU138
 517 002e 9FED1E8A 		vldr.32	s16, .L21+16
  71:Core/Src/audio.c **** 	osc_init(&osc2, 0.5, 440, 0, 0, 0.5);
 518              		.loc 1 71 2 view .LVU139
 519 0032 B6EE002A 		vmov.f32	s4, #5.0e-1
 520 0036 B0EE611A 		vmov.f32	s2, s3
 521 003a B0EE420A 		vmov.f32	s0, s4
 522 003e FFF7FEFF 		bl	osc_init
 523              	.LVL39:
  72:Core/Src/audio.c **** 	osc_init(&sub_osc, 0.5, 440, 0, 0, 0.5);
 524              		.loc 1 72 2 is_stmt 1 view .LVU140
 525 0042 DDED011A 		vldr.32	s3, [sp, #4]	@ int
 526 0046 1948     		ldr	r0, .L21+20
 527 0048 B6EE002A 		vmov.f32	s4, #5.0e-1
 528 004c B0EE611A 		vmov.f32	s2, s3
 529 0050 F0EE480A 		vmov.f32	s1, s16
 530 0054 B0EE420A 		vmov.f32	s0, s4
 531 0058 FFF7FEFF 		bl	osc_init
 532              	.LVL40:
  73:Core/Src/audio.c **** 
ARM GAS  /var/folders/0z/tsy30v1j4xl4_7kw94k978ww0000gn/T//cckFv8KR.s 			page 16


 533              		.loc 1 73 2 view .LVU141
 534 005c DDED011A 		vldr.32	s3, [sp, #4]	@ int
 535 0060 1348     		ldr	r0, .L21+24
 536 0062 B6EE002A 		vmov.f32	s4, #5.0e-1
 537 0066 B0EE611A 		vmov.f32	s2, s3
 538 006a F0EE480A 		vmov.f32	s1, s16
 539 006e B0EE420A 		vmov.f32	s0, s4
 540 0072 FFF7FEFF 		bl	osc_init
 541              	.LVL41:
  76:Core/Src/audio.c **** 	ADSR_init(&adsr_filt);
 542              		.loc 1 76 2 view .LVU142
 543 0076 0F48     		ldr	r0, .L21+28
 544 0078 FFF7FEFF 		bl	ADSR_init
 545              	.LVL42:
  77:Core/Src/audio.c **** 	MoogLP_init(&Moog_filter);
 546              		.loc 1 77 2 view .LVU143
 547 007c 0E48     		ldr	r0, .L21+32
 548 007e FFF7FEFF 		bl	ADSR_init
 549              	.LVL43:
  78:Core/Src/audio.c **** 	Delay_init();
 550              		.loc 1 78 2 view .LVU144
 551 0082 0E48     		ldr	r0, .L21+36
 552 0084 FFF7FEFF 		bl	MoogLP_init
 553              	.LVL44:
  79:Core/Src/audio.c **** 	
 554              		.loc 1 79 2 view .LVU145
  81:Core/Src/audio.c **** 
 555              		.loc 1 81 1 is_stmt 0 view .LVU146
 556 0088 03B0     		add	sp, sp, #12
 557              		.cfi_def_cfa_offset 12
 558              		@ sp needed
 559 008a BDEC028B 		vldm	sp!, {d8}
 560              		.cfi_restore 80
 561              		.cfi_restore 81
 562              		.cfi_def_cfa_offset 4
 563 008e 5DF804EB 		ldr	lr, [sp], #4
 564              		.cfi_restore 14
 565              		.cfi_def_cfa_offset 0
  79:Core/Src/audio.c **** 	
 566              		.loc 1 79 2 view .LVU147
 567 0092 FFF7FEBF 		b	Delay_init
 568              	.LVL45:
 569              	.L22:
 570 0096 00BF     		.align	2
 571              	.L21:
 572 0098 00000000 		.word	0
 573 009c 00000000 		.word	.LANCHOR2
 574 00a0 00007A44 		.word	1148846080
 575 00a4 00000000 		.word	osc1
 576 00a8 0000DC43 		.word	1138491392
 577 00ac 00000000 		.word	osc2
 578 00b0 00000000 		.word	sub_osc
 579 00b4 00000000 		.word	adsr_amp
 580 00b8 00000000 		.word	adsr_filt
 581 00bc 00000000 		.word	Moog_filter
 582              		.cfi_endproc
 583              	.LFE134:
ARM GAS  /var/folders/0z/tsy30v1j4xl4_7kw94k978ww0000gn/T//cckFv8KR.s 			page 17


 585              		.section	.text.OpSetFreq,"ax",%progbits
 586              		.align	1
 587              		.p2align 2,,3
 588              		.global	OpSetFreq
 589              		.syntax unified
 590              		.thumb
 591              		.thumb_func
 593              	OpSetFreq:
 594              	.LVL46:
 595              	.LFB135:
  84:Core/Src/audio.c **** 	op->freq = A0 * f;
 596              		.loc 1 84 1 is_stmt 1 view -0
 597              		.cfi_startproc
 598              		@ args = 0, pretend = 0, frame = 0
 599              		@ frame_needed = 0, uses_anonymous_args = 0
 600              		@ link register save eliminated.
  85:Core/Src/audio.c **** }
 601              		.loc 1 85 2 view .LVU149
  85:Core/Src/audio.c **** }
 602              		.loc 1 85 16 is_stmt 0 view .LVU150
 603 0000 DFED037A 		vldr.32	s15, .L24
 604 0004 20EE270A 		vmul.f32	s0, s0, s15
 605              	.LVL47:
  85:Core/Src/audio.c **** }
 606              		.loc 1 85 11 view .LVU151
 607 0008 80ED010A 		vstr.32	s0, [r0, #4]
  86:Core/Src/audio.c **** 
 608              		.loc 1 86 1 view .LVU152
 609 000c 7047     		bx	lr
 610              	.L25:
 611 000e 00BF     		.align	2
 612              	.L24:
 613 0010 27B17F3F 		.word	1065333031
 614              		.cfi_endproc
 615              	.LFE135:
 617              		.section	.text.audioBlock,"ax",%progbits
 618              		.align	1
 619              		.p2align 2,,3
 620              		.global	audioBlock
 621              		.syntax unified
 622              		.thumb
 623              		.thumb_func
 625              	audioBlock:
 626              	.LVL48:
 627              	.LFB136:
  97:Core/Src/audio.c **** 	int i;
 628              		.loc 1 97 1 is_stmt 1 view -0
 629              		.cfi_startproc
 630              		@ args = 0, pretend = 0, frame = 0
 631              		@ frame_needed = 0, uses_anonymous_args = 0
  98:Core/Src/audio.c **** 	int16_t *output;
 632              		.loc 1 98 2 view .LVU154
  99:Core/Src/audio.c **** 	output = buffer;
 633              		.loc 1 99 2 view .LVU155
 100:Core/Src/audio.c **** 	float sample, sampleL, sampleR;
 634              		.loc 1 100 2 view .LVU156
 101:Core/Src/audio.c **** 	uint16_t valueL, valueR;
ARM GAS  /var/folders/0z/tsy30v1j4xl4_7kw94k978ww0000gn/T//cckFv8KR.s 			page 18


 635              		.loc 1 101 2 view .LVU157
 102:Core/Src/audio.c **** 	
 636              		.loc 1 102 2 view .LVU158
 105:Core/Src/audio.c **** 	{
 637              		.loc 1 105 2 view .LVU159
 105:Core/Src/audio.c **** 	{
 638              		.loc 1 105 16 view .LVU160
 639 0000 0029     		cmp	r1, #0
 640 0002 00F0DB80 		beq	.L40
  97:Core/Src/audio.c **** 	int i;
 641              		.loc 1 97 1 is_stmt 0 view .LVU161
 642 0006 2DE9F84F 		push	{r3, r4, r5, r6, r7, r8, r9, r10, fp, lr}
 643              		.cfi_def_cfa_offset 40
 644              		.cfi_offset 3, -40
 645              		.cfi_offset 4, -36
 646              		.cfi_offset 5, -32
 647              		.cfi_offset 6, -28
 648              		.cfi_offset 7, -24
 649              		.cfi_offset 8, -20
 650              		.cfi_offset 9, -16
 651              		.cfi_offset 10, -12
 652              		.cfi_offset 11, -8
 653              		.cfi_offset 14, -4
 654 000a 6D4E     		ldr	r6, .L46
 655 000c DFF8E4B1 		ldr	fp, .L46+52
 656 0010 6C4D     		ldr	r5, .L46+4
 657 0012 DFF8D8A1 		ldr	r10, .L46+44
 658 0016 2DED068B 		vpush.64	{d8, d9, d10}
 659              		.cfi_def_cfa_offset 64
 660              		.cfi_offset 80, -64
 661              		.cfi_offset 81, -60
 662              		.cfi_offset 82, -56
 663              		.cfi_offset 83, -52
 664              		.cfi_offset 84, -48
 665              		.cfi_offset 85, -44
 666 001a 8046     		mov	r8, r0
 667              	.LBB92:
 668              	.LBB93:
  85:Core/Src/audio.c **** }
 669              		.loc 1 85 16 view .LVU162
 670 001c DFED6AAA 		vldr.32	s21, .L46+8
 671              	.LBE93:
 672              	.LBE92:
 673 0020 DFED6A9A 		vldr.32	s19, .L46+12
 120:Core/Src/audio.c **** 		sample = MoogLP_compute(&Moog_filter, sample);
 674              		.loc 1 120 29 view .LVU163
 675 0024 DFED6A8A 		vldr.32	s17, .L46+16
 142:Core/Src/audio.c **** 		valueR = ((int16_t) ((32767.0f) * sampleR));
 676              		.loc 1 142 35 view .LVU164
 677 0028 9FED6A9A 		vldr.32	s18, .L46+20
 678 002c 0F46     		mov	r7, r1
 105:Core/Src/audio.c **** 	{
 679              		.loc 1 105 9 view .LVU165
 680 002e 0024     		movs	r4, #0
 681 0030 00F10209 		add	r9, r0, #2
 682 0034 50E0     		b	.L27
 683              	.LVL49:
ARM GAS  /var/folders/0z/tsy30v1j4xl4_7kw94k978ww0000gn/T//cckFv8KR.s 			page 19


 684              	.L44:
 685              	.LBB97:
 686              	.LBB98:
  66:Core/Inc/helper_functions.h ****     {
 687              		.loc 2 66 10 is_stmt 1 view .LVU166
  66:Core/Inc/helper_functions.h ****     {
 688              		.loc 2 66 13 is_stmt 0 view .LVU167
 689 0036 F0EE086A 		vmov.f32	s13, #3.0e+0
 690 003a B4EEE67A 		vcmpe.f32	s14, s13
 691 003e F1EE10FA 		vmrs	APSR_nzcv, FPSCR
 692 0042 00F3B580 		bgt	.L35
 693              	.LVL50:
 694              	.LBB99:
 695              	.LBI99:
  60:Core/Inc/helper_functions.h **** {
 696              		.loc 2 60 14 is_stmt 1 view .LVU168
 697              	.LBB100:
 698              		.loc 2 72 9 view .LVU169
 699              		.loc 2 72 27 is_stmt 0 view .LVU170
 700 0046 F3EE0B6A 		vmov.f32	s13, #2.7e+1
 701              		.loc 2 72 52 view .LVU171
 702 004a F2EE025A 		vmov.f32	s11, #9.0e+0
 703 004e 67EE255A 		vmul.f32	s11, s14, s11
 704              		.loc 2 72 27 view .LVU172
 705 0052 B0EE665A 		vmov.f32	s10, s13
 706 0056 A7EE075A 		vfma.f32	s10, s14, s14
 707              		.loc 2 72 45 view .LVU173
 708 005a E7EE256A 		vfma.f32	s13, s14, s11
 709              		.loc 2 72 18 view .LVU174
 710 005e 27EE057A 		vmul.f32	s14, s14, s10
 711              	.LVL51:
 712              		.loc 2 72 45 view .LVU175
 713 0062 B0EE666A 		vmov.f32	s12, s13
 714              	.LVL52:
 715              		.loc 2 72 36 view .LVU176
 716 0066 C7EE066A 		vdiv.f32	s13, s14, s12
 717              	.LBE100:
 718              	.LBE99:
 719              	.LBE98:
 720              	.LBE97:
 142:Core/Src/audio.c **** 		valueR = ((int16_t) ((32767.0f) * sampleR));
 721              		.loc 1 142 35 view .LVU177
 722 006a 26EE897A 		vmul.f32	s14, s13, s18
 142:Core/Src/audio.c **** 		valueR = ((int16_t) ((32767.0f) * sampleR));
 723              		.loc 1 142 13 view .LVU178
 724 006e BDEEC77A 		vcvt.s32.f32	s14, s14
 725 0072 17EE103A 		vmov	r3, s14	@ int
 726 0076 1AB2     		sxth	r2, r3
 727              	.L29:
 728              	.LVL53:
 139:Core/Src/audio.c **** 
 729              		.loc 1 139 3 is_stmt 1 view .LVU179
 730              	.LBB104:
 731              	.LBI104:
  60:Core/Inc/helper_functions.h **** {
 732              		.loc 2 60 14 view .LVU180
 733              	.LBB105:
ARM GAS  /var/folders/0z/tsy30v1j4xl4_7kw94k978ww0000gn/T//cckFv8KR.s 			page 20


  62:Core/Inc/helper_functions.h ****     {
 734              		.loc 2 62 5 view .LVU181
  62:Core/Inc/helper_functions.h ****     {
 735              		.loc 2 62 8 is_stmt 0 view .LVU182
 736 0078 B8EE087A 		vmov.f32	s14, #-3.0e+0
 737 007c F4EEC77A 		vcmpe.f32	s15, s14
 738 0080 F1EE10FA 		vmrs	APSR_nzcv, FPSCR
 739 0084 00F18880 		bmi	.L36
 740              	.L45:
  66:Core/Inc/helper_functions.h ****     {
 741              		.loc 2 66 10 is_stmt 1 view .LVU183
  66:Core/Inc/helper_functions.h ****     {
 742              		.loc 2 66 13 is_stmt 0 view .LVU184
 743 0088 B0EE087A 		vmov.f32	s14, #3.0e+0
 744 008c F4EEC77A 		vcmpe.f32	s15, s14
 745 0090 F1EE10FA 		vmrs	APSR_nzcv, FPSCR
 746 0094 00F38F80 		bgt	.L37
 747              	.LVL54:
 748              	.LBB106:
 749              	.LBI106:
  60:Core/Inc/helper_functions.h **** {
 750              		.loc 2 60 14 is_stmt 1 view .LVU185
 751              	.LBB107:
 752              		.loc 2 72 9 view .LVU186
 753              		.loc 2 72 27 is_stmt 0 view .LVU187
 754 0098 B3EE0B7A 		vmov.f32	s14, #2.7e+1
 755              		.loc 2 72 52 view .LVU188
 756 009c B2EE026A 		vmov.f32	s12, #9.0e+0
 757 00a0 27EE866A 		vmul.f32	s12, s15, s12
 758              		.loc 2 72 27 view .LVU189
 759 00a4 F0EE475A 		vmov.f32	s11, s14
 760 00a8 E7EEA75A 		vfma.f32	s11, s15, s15
 761              		.loc 2 72 45 view .LVU190
 762 00ac A7EE867A 		vfma.f32	s14, s15, s12
 763              		.loc 2 72 18 view .LVU191
 764 00b0 67EEA57A 		vmul.f32	s15, s15, s11
 765              	.LVL55:
 766              		.loc 2 72 45 view .LVU192
 767 00b4 F0EE476A 		vmov.f32	s13, s14
 768              	.LVL56:
 769              		.loc 2 72 36 view .LVU193
 770 00b8 87EEA67A 		vdiv.f32	s14, s15, s13
 771              	.LBE107:
 772              	.LBE106:
 773              	.LBE105:
 774              	.LBE104:
 143:Core/Src/audio.c **** 
 775              		.loc 1 143 35 view .LVU194
 776 00bc 67EE097A 		vmul.f32	s15, s14, s18
 143:Core/Src/audio.c **** 
 777              		.loc 1 143 13 view .LVU195
 778 00c0 FDEEE77A 		vcvt.s32.f32	s15, s15
 779 00c4 17EE903A 		vmov	r3, s15	@ int
 780 00c8 1BB2     		sxth	r3, r3
 781              	.L30:
 782              	.LVL57:
 142:Core/Src/audio.c **** 		valueR = ((int16_t) ((32767.0f) * sampleR));
ARM GAS  /var/folders/0z/tsy30v1j4xl4_7kw94k978ww0000gn/T//cckFv8KR.s 			page 21


 783              		.loc 1 142 3 is_stmt 1 view .LVU196
 143:Core/Src/audio.c **** 
 784              		.loc 1 143 3 view .LVU197
 146:Core/Src/audio.c **** 	    output[(i<<1) + 1] = valueR;	// RIGHT channel
 785              		.loc 1 146 3 view .LVU198
 146:Core/Src/audio.c **** 	    output[(i<<1) + 1] = valueR;	// RIGHT channel
 786              		.loc 1 146 16 is_stmt 0 view .LVU199
 787 00ca 28F82420 		strh	r2, [r8, r4, lsl #2]	@ movhi
 147:Core/Src/audio.c **** 	}
 788              		.loc 1 147 6 is_stmt 1 view .LVU200
 147:Core/Src/audio.c **** 	}
 789              		.loc 1 147 25 is_stmt 0 view .LVU201
 790 00ce 29F82430 		strh	r3, [r9, r4, lsl #2]	@ movhi
 105:Core/Src/audio.c **** 	{
 791              		.loc 1 105 28 is_stmt 1 view .LVU202
 792 00d2 0134     		adds	r4, r4, #1
 793              	.LVL58:
 105:Core/Src/audio.c **** 	{
 794              		.loc 1 105 16 view .LVU203
 795 00d4 BC42     		cmp	r4, r7
 796 00d6 67D0     		beq	.L43
 797              	.LVL59:
 798              	.L27:
 108:Core/Src/audio.c **** 		
 799              		.loc 1 108 3 view .LVU204
 108:Core/Src/audio.c **** 		
 800              		.loc 1 108 12 is_stmt 0 view .LVU205
 801 00d8 3F4B     		ldr	r3, .L46+24
 802 00da 1B78     		ldrb	r3, [r3]	@ zero_extendqisi2
 803 00dc 06EB8302 		add	r2, r6, r3, lsl #2
 804 00e0 92ED007A 		vldr.32	s14, [r2]
 111:Core/Src/audio.c **** 		OpSetFreq(&osc2, f0 + 1);
 805              		.loc 1 111 3 is_stmt 1 view .LVU206
 806              	.LVL60:
 807              	.LBB111:
 808              	.LBI92:
  83:Core/Src/audio.c **** {
 809              		.loc 1 83 6 view .LVU207
 810              	.LBB94:
  85:Core/Src/audio.c **** }
 811              		.loc 1 85 2 view .LVU208
 812              	.LBE94:
 813              	.LBE111:
 112:Core/Src/audio.c **** 
 814              		.loc 1 112 3 is_stmt 0 view .LVU209
 815 00e4 F7EE007A 		vmov.f32	s15, #1.0e+0
 816 00e8 77EE277A 		vadd.f32	s15, s14, s15
 114:Core/Src/audio.c **** 		OpSetFreq(&sub_osc, f_sub);
 817              		.loc 1 114 16 view .LVU210
 818 00ec 0C2B     		cmp	r3, #12
 819              	.LBB112:
 820              	.LBB113:
  85:Core/Src/audio.c **** }
 821              		.loc 1 85 16 view .LVU211
 822 00ee 67EEAA7A 		vmul.f32	s15, s15, s21
 823              	.LBE113:
 824              	.LBE112:
ARM GAS  /var/folders/0z/tsy30v1j4xl4_7kw94k978ww0000gn/T//cckFv8KR.s 			page 22


 114:Core/Src/audio.c **** 		OpSetFreq(&sub_osc, f_sub);
 825              		.loc 1 114 15 view .LVU212
 826 00f2 88BF     		it	hi
 827 00f4 1346     		movhi	r3, r2
 828              	.LBB116:
 829              	.LBB114:
  85:Core/Src/audio.c **** }
 830              		.loc 1 85 11 view .LVU213
 831 00f6 C5ED017A 		vstr.32	s15, [r5, #4]
 832              	.LBE114:
 833              	.LBE116:
 834              	.LBB117:
 835              	.LBB118:
  85:Core/Src/audio.c **** }
 836              		.loc 1 85 16 view .LVU214
 837 00fa 88BF     		it	hi
 838 00fc 53ED0C7A 		vldrhi.32	s15, [r3, #-48]
  85:Core/Src/audio.c **** }
 839              		.loc 1 85 11 view .LVU215
 840 0100 364B     		ldr	r3, .L46+28
  85:Core/Src/audio.c **** }
 841              		.loc 1 85 16 view .LVU216
 842 0102 88BF     		it	hi
 843 0104 67EEAA7A 		vmulhi.f32	s15, s15, s21
 844              	.LBE118:
 845              	.LBE117:
 846              	.LBB120:
 847              	.LBB95:
 848 0108 27EE2A7A 		vmul.f32	s14, s14, s21
 849              	.LVL61:
  85:Core/Src/audio.c **** }
 850              		.loc 1 85 16 view .LVU217
 851              	.LBE95:
 852              	.LBE120:
 853 010c 98BF     		it	ls
 854 010e F0EE697A 		vmovls.f32	s15, s19
 116:Core/Src/audio.c **** 	
 855              		.loc 1 116 17 view .LVU218
 856 0112 5846     		mov	r0, fp
 857              	.LBB121:
 858              	.LBB96:
  85:Core/Src/audio.c **** }
 859              		.loc 1 85 11 view .LVU219
 860 0114 8BED017A 		vstr.32	s14, [fp, #4]
 861              	.LVL62:
  85:Core/Src/audio.c **** }
 862              		.loc 1 85 11 view .LVU220
 863              	.LBE96:
 864              	.LBE121:
 112:Core/Src/audio.c **** 
 865              		.loc 1 112 3 is_stmt 1 view .LVU221
 866              	.LBB122:
 867              	.LBI112:
  83:Core/Src/audio.c **** {
 868              		.loc 1 83 6 view .LVU222
 869              	.LBB115:
  85:Core/Src/audio.c **** }
ARM GAS  /var/folders/0z/tsy30v1j4xl4_7kw94k978ww0000gn/T//cckFv8KR.s 			page 23


 870              		.loc 1 85 2 view .LVU223
  85:Core/Src/audio.c **** }
 871              		.loc 1 85 2 is_stmt 0 view .LVU224
 872              	.LBE115:
 873              	.LBE122:
 114:Core/Src/audio.c **** 		OpSetFreq(&sub_osc, f_sub);
 874              		.loc 1 114 3 is_stmt 1 view .LVU225
 115:Core/Src/audio.c **** 		sample = 0.5*(osc_polyblepSaw(&osc1) + osc_polyblepSaw(&osc2) + osc_polyblepRect(&sub_osc));
 875              		.loc 1 115 3 view .LVU226
 876              	.LBB123:
 877              	.LBI117:
  83:Core/Src/audio.c **** {
 878              		.loc 1 83 6 view .LVU227
 879              	.LBB119:
  85:Core/Src/audio.c **** }
 880              		.loc 1 85 2 view .LVU228
  85:Core/Src/audio.c **** }
 881              		.loc 1 85 11 is_stmt 0 view .LVU229
 882 0118 C3ED017A 		vstr.32	s15, [r3, #4]
 883              	.LVL63:
  85:Core/Src/audio.c **** }
 884              		.loc 1 85 11 view .LVU230
 885              	.LBE119:
 886              	.LBE123:
 116:Core/Src/audio.c **** 	
 887              		.loc 1 116 3 is_stmt 1 view .LVU231
 116:Core/Src/audio.c **** 	
 888              		.loc 1 116 17 is_stmt 0 view .LVU232
 889 011c FFF7FEFF 		bl	osc_polyblepSaw
 890              	.LVL64:
 116:Core/Src/audio.c **** 	
 891              		.loc 1 116 42 view .LVU233
 892 0120 2846     		mov	r0, r5
 116:Core/Src/audio.c **** 	
 893              		.loc 1 116 17 view .LVU234
 894 0122 B0EE408A 		vmov.f32	s16, s0
 116:Core/Src/audio.c **** 	
 895              		.loc 1 116 42 view .LVU235
 896 0126 FFF7FEFF 		bl	osc_polyblepSaw
 897              	.LVL65:
 116:Core/Src/audio.c **** 	
 898              		.loc 1 116 67 view .LVU236
 899 012a 2C48     		ldr	r0, .L46+28
 116:Core/Src/audio.c **** 	
 900              		.loc 1 116 40 view .LVU237
 901 012c 38EE008A 		vadd.f32	s16, s16, s0
 116:Core/Src/audio.c **** 	
 902              		.loc 1 116 67 view .LVU238
 903 0130 FFF7FEFF 		bl	osc_polyblepRect
 904              	.LVL66:
 119:Core/Src/audio.c **** 		Moog_filter.cutoff = 2000 * filt_env;
 905              		.loc 1 119 14 view .LVU239
 906 0134 2A48     		ldr	r0, .L46+32
 116:Core/Src/audio.c **** 	
 907              		.loc 1 116 67 view .LVU240
 908 0136 B0EE40AA 		vmov.f32	s20, s0
 909              	.LVL67:
ARM GAS  /var/folders/0z/tsy30v1j4xl4_7kw94k978ww0000gn/T//cckFv8KR.s 			page 24


 119:Core/Src/audio.c **** 		Moog_filter.cutoff = 2000 * filt_env;
 910              		.loc 1 119 3 is_stmt 1 view .LVU241
 119:Core/Src/audio.c **** 		Moog_filter.cutoff = 2000 * filt_env;
 911              		.loc 1 119 14 is_stmt 0 view .LVU242
 912 013a FFF7FEFF 		bl	ADSR_compute
 913              	.LVL68:
 120:Core/Src/audio.c **** 		sample = MoogLP_compute(&Moog_filter, sample);
 914              		.loc 1 120 3 is_stmt 1 view .LVU243
 116:Core/Src/audio.c **** 	
 915              		.loc 1 116 65 is_stmt 0 view .LVU244
 916 013e 38EE0A8A 		vadd.f32	s16, s16, s20
 917              	.LVL69:
 120:Core/Src/audio.c **** 		sample = MoogLP_compute(&Moog_filter, sample);
 918              		.loc 1 120 29 view .LVU245
 919 0142 60EE287A 		vmul.f32	s15, s0, s17
 121:Core/Src/audio.c **** 	
 920              		.loc 1 121 12 view .LVU246
 921 0146 2748     		ldr	r0, .L46+36
 922 0148 B6EE000A 		vmov.f32	s0, #5.0e-1
 923 014c 28EE000A 		vmul.f32	s0, s16, s0
 924              	.LVL70:
 120:Core/Src/audio.c **** 		sample = MoogLP_compute(&Moog_filter, sample);
 925              		.loc 1 120 22 view .LVU247
 926 0150 C0ED007A 		vstr.32	s15, [r0]
 121:Core/Src/audio.c **** 	
 927              		.loc 1 121 3 is_stmt 1 view .LVU248
 121:Core/Src/audio.c **** 	
 928              		.loc 1 121 12 is_stmt 0 view .LVU249
 929 0154 FFF7FEFF 		bl	MoogLP_compute
 930              	.LVL71:
 125:Core/Src/audio.c **** 		sample *= amp_env;
 931              		.loc 1 125 13 view .LVU250
 932 0158 2348     		ldr	r0, .L46+40
 121:Core/Src/audio.c **** 	
 933              		.loc 1 121 12 view .LVU251
 934 015a B0EE408A 		vmov.f32	s16, s0
 935              	.LVL72:
 125:Core/Src/audio.c **** 		sample *= amp_env;
 936              		.loc 1 125 3 is_stmt 1 view .LVU252
 125:Core/Src/audio.c **** 		sample *= amp_env;
 937              		.loc 1 125 13 is_stmt 0 view .LVU253
 938 015e FFF7FEFF 		bl	ADSR_compute
 939              	.LVL73:
 126:Core/Src/audio.c **** 
 940              		.loc 1 126 3 is_stmt 1 view .LVU254
 133:Core/Src/audio.c **** 		sampleL = delayLOut;
 941              		.loc 1 133 3 view .LVU255
 942 0162 2249     		ldr	r1, .L46+44
 943 0164 20EE080A 		vmul.f32	s0, s0, s16
 944              	.LVL74:
 133:Core/Src/audio.c **** 		sampleL = delayLOut;
 945              		.loc 1 133 3 is_stmt 0 view .LVU256
 946 0168 081D     		adds	r0, r1, #4
 947 016a FFF7FEFF 		bl	pingpongDelay_compute
 948              	.LVL75:
 134:Core/Src/audio.c **** 		sampleR = delayROut;
 949              		.loc 1 134 3 is_stmt 1 view .LVU257
ARM GAS  /var/folders/0z/tsy30v1j4xl4_7kw94k978ww0000gn/T//cckFv8KR.s 			page 25


 134:Core/Src/audio.c **** 		sampleR = delayROut;
 950              		.loc 1 134 11 is_stmt 0 view .LVU258
 951 016e 9AED017A 		vldr.32	s14, [r10, #4]
 952              	.LVL76:
 135:Core/Src/audio.c **** 
 953              		.loc 1 135 3 is_stmt 1 view .LVU259
 135:Core/Src/audio.c **** 
 954              		.loc 1 135 11 is_stmt 0 view .LVU260
 955 0172 DAED007A 		vldr.32	s15, [r10]
 956              	.LVL77:
 138:Core/Src/audio.c **** 		sampleR = SoftClip(sampleR);
 957              		.loc 1 138 3 is_stmt 1 view .LVU261
 958              	.LBB124:
 959              	.LBI97:
  60:Core/Inc/helper_functions.h **** {
 960              		.loc 2 60 14 view .LVU262
 961              	.LBB101:
  62:Core/Inc/helper_functions.h ****     {
 962              		.loc 2 62 5 view .LVU263
  62:Core/Inc/helper_functions.h ****     {
 963              		.loc 2 62 8 is_stmt 0 view .LVU264
 964 0176 F8EE086A 		vmov.f32	s13, #-3.0e+0
 965 017a B4EEE67A 		vcmpe.f32	s14, s13
 966 017e F1EE10FA 		vmrs	APSR_nzcv, FPSCR
 967 0182 7FF558AF 		bpl	.L44
 968              	.LBE101:
 969              	.LBE124:
 970              	.LBB125:
 971              	.LBB108:
 972 0186 B8EE087A 		vmov.f32	s14, #-3.0e+0
 973              	.LVL78:
  62:Core/Inc/helper_functions.h ****     {
 974              		.loc 2 62 8 view .LVU265
 975 018a F4EEC77A 		vcmpe.f32	s15, s14
 976 018e F1EE10FA 		vmrs	APSR_nzcv, FPSCR
 977              	.LBE108:
 978              	.LBE125:
 979              	.LBB126:
 980              	.LBB102:
 981 0192 174A     		ldr	r2, .L46+48
 982              	.LVL79:
  62:Core/Inc/helper_functions.h ****     {
 983              		.loc 2 62 8 view .LVU266
 984              	.LBE102:
 985              	.LBE126:
 139:Core/Src/audio.c **** 
 986              		.loc 1 139 3 is_stmt 1 view .LVU267
 987              	.LBB127:
  60:Core/Inc/helper_functions.h **** {
 988              		.loc 2 60 14 view .LVU268
 989              	.LBB109:
  62:Core/Inc/helper_functions.h ****     {
 990              		.loc 2 62 5 view .LVU269
  62:Core/Inc/helper_functions.h ****     {
 991              		.loc 2 62 8 is_stmt 0 view .LVU270
 992 0194 7FF578AF 		bpl	.L45
 993              	.L36:
ARM GAS  /var/folders/0z/tsy30v1j4xl4_7kw94k978ww0000gn/T//cckFv8KR.s 			page 26


 994 0198 154B     		ldr	r3, .L46+48
 995              	.LVL80:
  62:Core/Inc/helper_functions.h ****     {
 996              		.loc 2 62 8 view .LVU271
 997              	.LBE109:
 998              	.LBE127:
 142:Core/Src/audio.c **** 		valueR = ((int16_t) ((32767.0f) * sampleR));
 999              		.loc 1 142 3 is_stmt 1 view .LVU272
 143:Core/Src/audio.c **** 
 1000              		.loc 1 143 3 view .LVU273
 146:Core/Src/audio.c **** 	    output[(i<<1) + 1] = valueR;	// RIGHT channel
 1001              		.loc 1 146 3 view .LVU274
 146:Core/Src/audio.c **** 	    output[(i<<1) + 1] = valueR;	// RIGHT channel
 1002              		.loc 1 146 16 is_stmt 0 view .LVU275
 1003 019a 28F82420 		strh	r2, [r8, r4, lsl #2]	@ movhi
 147:Core/Src/audio.c **** 	}
 1004              		.loc 1 147 6 is_stmt 1 view .LVU276
 147:Core/Src/audio.c **** 	}
 1005              		.loc 1 147 25 is_stmt 0 view .LVU277
 1006 019e 29F82430 		strh	r3, [r9, r4, lsl #2]	@ movhi
 105:Core/Src/audio.c **** 	{
 1007              		.loc 1 105 28 is_stmt 1 view .LVU278
 1008 01a2 0134     		adds	r4, r4, #1
 1009              	.LVL81:
 105:Core/Src/audio.c **** 	{
 1010              		.loc 1 105 16 view .LVU279
 1011 01a4 BC42     		cmp	r4, r7
 1012 01a6 97D1     		bne	.L27
 1013              	.L43:
 1014              		.loc 1 149 1 is_stmt 0 view .LVU280
 1015 01a8 BDEC068B 		vldm	sp!, {d8-d10}
 1016              		.cfi_remember_state
 1017              		.cfi_restore 84
 1018              		.cfi_restore 85
 1019              		.cfi_restore 82
 1020              		.cfi_restore 83
 1021              		.cfi_restore 80
 1022              		.cfi_restore 81
 1023              		.cfi_def_cfa_offset 40
 1024 01ac BDE8F88F 		pop	{r3, r4, r5, r6, r7, r8, r9, r10, fp, pc}
 1025              	.LVL82:
 1026              	.L35:
 1027              		.cfi_restore_state
 1028              	.LBB128:
 1029              	.LBB103:
 1030              		.loc 1 149 1 view .LVU281
 1031 01b0 47F6FF72 		movw	r2, #32767
 1032 01b4 60E7     		b	.L29
 1033              	.LVL83:
 1034              	.L37:
 1035              		.loc 1 149 1 view .LVU282
 1036              	.LBE103:
 1037              	.LBE128:
 1038              	.LBB129:
 1039              	.LBB110:
 1040 01b6 47F6FF73 		movw	r3, #32767
 1041 01ba 86E7     		b	.L30
ARM GAS  /var/folders/0z/tsy30v1j4xl4_7kw94k978ww0000gn/T//cckFv8KR.s 			page 27


 1042              	.LVL84:
 1043              	.L40:
 1044              		.cfi_def_cfa_offset 0
 1045              		.cfi_restore 3
 1046              		.cfi_restore 4
 1047              		.cfi_restore 5
 1048              		.cfi_restore 6
 1049              		.cfi_restore 7
 1050              		.cfi_restore 8
 1051              		.cfi_restore 9
 1052              		.cfi_restore 10
 1053              		.cfi_restore 11
 1054              		.cfi_restore 14
 1055              		.cfi_restore 80
 1056              		.cfi_restore 81
 1057              		.cfi_restore 82
 1058              		.cfi_restore 83
 1059              		.cfi_restore 84
 1060              		.cfi_restore 85
 1061              		.loc 1 149 1 view .LVU283
 1062 01bc 7047     		bx	lr
 1063              	.L47:
 1064 01be 00BF     		.align	2
 1065              	.L46:
 1066 01c0 00000000 		.word	.LANCHOR0
 1067 01c4 00000000 		.word	osc2
 1068 01c8 27B17F3F 		.word	1065333031
 1069 01cc C9A70241 		.word	1090693065
 1070 01d0 0000FA44 		.word	1157234688
 1071 01d4 00FEFF46 		.word	1191181824
 1072 01d8 00000000 		.word	currentPitch
 1073 01dc 00000000 		.word	sub_osc
 1074 01e0 00000000 		.word	adsr_filt
 1075 01e4 00000000 		.word	Moog_filter
 1076 01e8 00000000 		.word	adsr_amp
 1077 01ec 00000000 		.word	.LANCHOR1
 1078 01f0 0180FFFF 		.word	-32767
 1079 01f4 00000000 		.word	osc1
 1080              	.LBE110:
 1081              	.LBE129:
 1082              		.cfi_endproc
 1083              	.LFE136:
 1085              		.section	.text.BSP_AUDIO_OUT_HalfTransfer_CallBack,"ax",%progbits
 1086              		.align	1
 1087              		.p2align 2,,3
 1088              		.global	BSP_AUDIO_OUT_HalfTransfer_CallBack
 1089              		.syntax unified
 1090              		.thumb
 1091              		.thumb_func
 1093              	BSP_AUDIO_OUT_HalfTransfer_CallBack:
 1094              	.LFB137:
 150:Core/Src/audio.c **** 
 151:Core/Src/audio.c **** 
 152:Core/Src/audio.c **** 
 153:Core/Src/audio.c **** void BSP_AUDIO_OUT_HalfTransfer_CallBack(void)
 154:Core/Src/audio.c **** {
 1095              		.loc 1 154 1 is_stmt 1 view -0
ARM GAS  /var/folders/0z/tsy30v1j4xl4_7kw94k978ww0000gn/T//cckFv8KR.s 			page 28


 1096              		.cfi_startproc
 1097              		@ args = 0, pretend = 0, frame = 0
 1098              		@ frame_needed = 0, uses_anonymous_args = 0
 1099              		@ link register save eliminated.
 155:Core/Src/audio.c **** 	audioBlock((uint16_t *)audioBuffer, BUFFER_SIZE_DIV_4);
 1100              		.loc 1 155 2 view .LVU285
 1101 0000 0148     		ldr	r0, .L49
 1102 0002 FFF7FEBF 		b	audioBlock.constprop.0
 1103              	.LVL85:
 1104              	.L50:
 1105 0006 00BF     		.align	2
 1106              	.L49:
 1107 0008 00000000 		.word	.LANCHOR2
 1108              		.cfi_endproc
 1109              	.LFE137:
 1111              		.section	.text.BSP_AUDIO_OUT_TransferComplete_CallBack,"ax",%progbits
 1112              		.align	1
 1113              		.p2align 2,,3
 1114              		.global	BSP_AUDIO_OUT_TransferComplete_CallBack
 1115              		.syntax unified
 1116              		.thumb
 1117              		.thumb_func
 1119              	BSP_AUDIO_OUT_TransferComplete_CallBack:
 1120              	.LFB138:
 156:Core/Src/audio.c **** }
 157:Core/Src/audio.c **** 
 158:Core/Src/audio.c **** void BSP_AUDIO_OUT_TransferComplete_CallBack(void)
 159:Core/Src/audio.c **** {
 1121              		.loc 1 159 1 view -0
 1122              		.cfi_startproc
 1123              		@ args = 0, pretend = 0, frame = 0
 1124              		@ frame_needed = 0, uses_anonymous_args = 0
 1125              		@ link register save eliminated.
 160:Core/Src/audio.c **** 	audioBlock((uint16_t *)(audioBuffer + BUFFER_SIZE_DIV_2), BUFFER_SIZE_DIV_4);
 1126              		.loc 1 160 2 view .LVU287
 1127 0000 0148     		ldr	r0, .L52
 1128 0002 FFF7FEBF 		b	audioBlock.constprop.0
 1129              	.LVL86:
 1130              	.L53:
 1131 0006 00BF     		.align	2
 1132              	.L52:
 1133 0008 40000000 		.word	.LANCHOR2+64
 1134              		.cfi_endproc
 1135              	.LFE138:
 1137              		.section	.text.BSP_AUDIO_OUT_Error_CallBack,"ax",%progbits
 1138              		.align	1
 1139              		.p2align 2,,3
 1140              		.global	BSP_AUDIO_OUT_Error_CallBack
 1141              		.syntax unified
 1142              		.thumb
 1143              		.thumb_func
 1145              	BSP_AUDIO_OUT_Error_CallBack:
 1146              	.LFB139:
 161:Core/Src/audio.c **** }
 162:Core/Src/audio.c **** 
 163:Core/Src/audio.c **** void BSP_AUDIO_OUT_Error_CallBack(void)
 164:Core/Src/audio.c **** {
ARM GAS  /var/folders/0z/tsy30v1j4xl4_7kw94k978ww0000gn/T//cckFv8KR.s 			page 29


 1147              		.loc 1 164 1 view -0
 1148              		.cfi_startproc
 1149              		@ Volatile: function does not return.
 1150              		@ args = 0, pretend = 0, frame = 0
 1151              		@ frame_needed = 0, uses_anonymous_args = 0
 1152              		@ link register save eliminated.
 1153              	.L55:
 165:Core/Src/audio.c **** 	/* Stop the program with an infinite loop */
 166:Core/Src/audio.c **** 	while (1)
 1154              		.loc 1 166 2 discriminator 1 view .LVU289
 167:Core/Src/audio.c **** 	{
 168:Core/Src/audio.c **** 	}
 1155              		.loc 1 168 2 discriminator 1 view .LVU290
 166:Core/Src/audio.c **** 	{
 1156              		.loc 1 166 8 discriminator 1 view .LVU291
 1157 0000 FEE7     		b	.L55
 1158              		.cfi_endproc
 1159              	.LFE139:
 1161 0002 00BF     		.section	.text.DMA1_Stream7_IRQHandler,"ax",%progbits
 1162              		.align	1
 1163              		.p2align 2,,3
 1164              		.global	DMA1_Stream7_IRQHandler
 1165              		.syntax unified
 1166              		.thumb
 1167              		.thumb_func
 1169              	DMA1_Stream7_IRQHandler:
 1170              	.LFB140:
 169:Core/Src/audio.c **** }
 170:Core/Src/audio.c **** 
 171:Core/Src/audio.c **** 
 172:Core/Src/audio.c **** void I2S3_IRQHandler(void)
 173:Core/Src/audio.c **** {
 1171              		.loc 1 173 1 view -0
 1172              		.cfi_startproc
 1173              		@ args = 0, pretend = 0, frame = 0
 1174              		@ frame_needed = 0, uses_anonymous_args = 0
 1175              		@ link register save eliminated.
 174:Core/Src/audio.c **** 	HAL_DMA_IRQHandler(hAudioOutI2s.hdmatx);
 1176              		.loc 1 174 2 view .LVU293
 1177 0000 014B     		ldr	r3, .L57
 1178 0002 986B     		ldr	r0, [r3, #56]
 1179 0004 FFF7FEBF 		b	HAL_DMA_IRQHandler
 1180              	.LVL87:
 1181              	.L58:
 1182              		.align	2
 1183              	.L57:
 1184 0008 00000000 		.word	hAudioOutI2s
 1185              		.cfi_endproc
 1186              	.LFE140:
 1188              		.section	.text.DMA1_Stream3_IRQHandler,"ax",%progbits
 1189              		.align	1
 1190              		.p2align 2,,3
 1191              		.global	DMA1_Stream3_IRQHandler
 1192              		.syntax unified
 1193              		.thumb
 1194              		.thumb_func
 1196              	DMA1_Stream3_IRQHandler:
ARM GAS  /var/folders/0z/tsy30v1j4xl4_7kw94k978ww0000gn/T//cckFv8KR.s 			page 30


 1197              	.LFB141:
 175:Core/Src/audio.c **** }
 176:Core/Src/audio.c **** void I2S2_IRQHandler(void)
 177:Core/Src/audio.c **** {
 1198              		.loc 1 177 1 view -0
 1199              		.cfi_startproc
 1200              		@ args = 0, pretend = 0, frame = 0
 1201              		@ frame_needed = 0, uses_anonymous_args = 0
 1202              		@ link register save eliminated.
 178:Core/Src/audio.c **** 	HAL_DMA_IRQHandler(hAudioInI2s.hdmarx);
 1203              		.loc 1 178 2 view .LVU295
 1204 0000 014B     		ldr	r3, .L60
 1205 0002 D86B     		ldr	r0, [r3, #60]
 1206 0004 FFF7FEBF 		b	HAL_DMA_IRQHandler
 1207              	.LVL88:
 1208              	.L61:
 1209              		.align	2
 1210              	.L60:
 1211 0008 00000000 		.word	hAudioInI2s
 1212              		.cfi_endproc
 1213              	.LFE141:
 1215              		.global	audioBuffer
 1216              		.global	pbend
 1217              		.global	mtof
 1218              		.section	.bss.audioBuffer,"aw",%nobits
 1219              		.align	2
 1220              		.set	.LANCHOR2,. + 0
 1223              	audioBuffer:
 1224 0000 00000000 		.space	128
 1224      00000000 
 1224      00000000 
 1224      00000000 
 1224      00000000 
 1225              		.section	.ccmram,"aw"
 1226              		.align	2
 1227              		.set	.LANCHOR1,. + 0
 1230              	delayROut:
 1231 0000 00000000 		.space	4
 1234              	delayLOut:
 1235 0004 00000000 		.space	4
 1236              		.section	.rodata.mtof,"a"
 1237              		.align	2
 1238              		.set	.LANCHOR0,. + 0
 1241              	mtof:
 1242 0000 13D00241 		.word	1090703379
 1243 0004 60970A41 		.word	1091213152
 1244 0008 17D51241 		.word	1091753239
 1245 000c 41901B41 		.word	1092325441
 1246 0010 54D02441 		.word	1092931668
 1247 0014 369D2E41 		.word	1093573942
 1248 0018 4AFF3841 		.word	1094254410
 1249 001c 6AFF4341 		.word	1094975338
 1250 0020 01A74F41 		.word	1095739137
 1251 0024 00005C41 		.word	1096548352
 1252 0028 F7146941 		.word	1097405687
 1253 002c 10F17641 		.word	1098314000
 1254 0030 13D08241 		.word	1099091987
ARM GAS  /var/folders/0z/tsy30v1j4xl4_7kw94k978ww0000gn/T//cckFv8KR.s 			page 31


 1255 0034 60978A41 		.word	1099601760
 1256 0038 17D59241 		.word	1100141847
 1257 003c 41909B41 		.word	1100714049
 1258 0040 54D0A441 		.word	1101320276
 1259 0044 369DAE41 		.word	1101962550
 1260 0048 49FFB841 		.word	1102643017
 1261 004c 6BFFC341 		.word	1103363947
 1262 0050 01A7CF41 		.word	1104127745
 1263 0054 0000DC41 		.word	1104936960
 1264 0058 F614E941 		.word	1105794294
 1265 005c 10F1F641 		.word	1106702608
 1266 0060 13D00242 		.word	1107480595
 1267 0064 60970A42 		.word	1107990368
 1268 0068 17D51242 		.word	1108530455
 1269 006c 41901B42 		.word	1109102657
 1270 0070 54D02442 		.word	1109708884
 1271 0074 379D2E42 		.word	1110351159
 1272 0078 49FF3842 		.word	1111031625
 1273 007c 6AFF4342 		.word	1111752554
 1274 0080 00A74F42 		.word	1112516352
 1275 0084 00005C42 		.word	1113325568
 1276 0088 F6146942 		.word	1114182902
 1277 008c 10F17642 		.word	1115091216
 1278 0090 12D08242 		.word	1115869202
 1279 0094 60978A42 		.word	1116378976
 1280 0098 17D59242 		.word	1116919063
 1281 009c 41909B42 		.word	1117491265
 1282 00a0 54D0A442 		.word	1118097492
 1283 00a4 379DAE42 		.word	1118739767
 1284 00a8 49FFB842 		.word	1119420233
 1285 00ac 6AFFC342 		.word	1120141162
 1286 00b0 00A7CF42 		.word	1120904960
 1287 00b4 0000DC42 		.word	1121714176
 1288 00b8 F614E942 		.word	1122571510
 1289 00bc 10F1F642 		.word	1123479824
 1290 00c0 13D00243 		.word	1124257811
 1291 00c4 60970A43 		.word	1124767584
 1292 00c8 17D51243 		.word	1125307671
 1293 00cc 41901B43 		.word	1125879873
 1294 00d0 54D02443 		.word	1126486100
 1295 00d4 379D2E43 		.word	1127128375
 1296 00d8 49FF3843 		.word	1127808841
 1297 00dc 6AFF4343 		.word	1128529770
 1298 00e0 00A74F43 		.word	1129293568
 1299 00e4 00005C43 		.word	1130102784
 1300 00e8 F6146943 		.word	1130960118
 1301 00ec 10F17643 		.word	1131868432
 1302 00f0 13D08243 		.word	1132646419
 1303 00f4 60978A43 		.word	1133156192
 1304 00f8 17D59243 		.word	1133696279
 1305 00fc 41909B43 		.word	1134268481
 1306 0100 54D0A443 		.word	1134874708
 1307 0104 379DAE43 		.word	1135516983
 1308 0108 49FFB843 		.word	1136197449
 1309 010c 6AFFC343 		.word	1136918378
 1310 0110 00A7CF43 		.word	1137682176
 1311 0114 0000DC43 		.word	1138491392
ARM GAS  /var/folders/0z/tsy30v1j4xl4_7kw94k978ww0000gn/T//cckFv8KR.s 			page 32


 1312 0118 F614E943 		.word	1139348726
 1313 011c 10F1F643 		.word	1140257040
 1314 0120 13D00244 		.word	1141035027
 1315 0124 60970A44 		.word	1141544800
 1316 0128 17D51244 		.word	1142084887
 1317 012c 41901B44 		.word	1142657089
 1318 0130 54D02444 		.word	1143263316
 1319 0134 379D2E44 		.word	1143905591
 1320 0138 49FF3844 		.word	1144586057
 1321 013c 6AFF4344 		.word	1145306986
 1322 0140 00A74F44 		.word	1146070784
 1323 0144 00005C44 		.word	1146880000
 1324 0148 F6146944 		.word	1147737334
 1325 014c 10F17644 		.word	1148645648
 1326 0150 13D08244 		.word	1149423635
 1327 0154 60978A44 		.word	1149933408
 1328 0158 17D59244 		.word	1150473495
 1329 015c 41909B44 		.word	1151045697
 1330 0160 54D0A444 		.word	1151651924
 1331 0164 379DAE44 		.word	1152294199
 1332 0168 49FFB844 		.word	1152974665
 1333 016c 6AFFC344 		.word	1153695594
 1334 0170 00A7CF44 		.word	1154459392
 1335 0174 0000DC44 		.word	1155268608
 1336 0178 F614E944 		.word	1156125942
 1337 017c 10F1F644 		.word	1157034256
 1338 0180 13D00245 		.word	1157812243
 1339 0184 60970A45 		.word	1158322016
 1340 0188 17D51245 		.word	1158862103
 1341 018c 41901B45 		.word	1159434305
 1342 0190 54D02445 		.word	1160040532
 1343 0194 379D2E45 		.word	1160682807
 1344 0198 49FF3845 		.word	1161363273
 1345 019c 6AFF4345 		.word	1162084202
 1346 01a0 00A74F45 		.word	1162848000
 1347 01a4 00005C45 		.word	1163657216
 1348 01a8 F6146945 		.word	1164514550
 1349 01ac 10F17645 		.word	1165422864
 1350 01b0 13D08245 		.word	1166200851
 1351 01b4 60978A45 		.word	1166710624
 1352 01b8 17D59245 		.word	1167250711
 1353 01bc 41909B45 		.word	1167822913
 1354 01c0 54D0A445 		.word	1168429140
 1355 01c4 379DAE45 		.word	1169071415
 1356 01c8 49FFB845 		.word	1169751881
 1357 01cc 6AFFC345 		.word	1170472810
 1358 01d0 00A7CF45 		.word	1171236608
 1359 01d4 0000DC45 		.word	1172045824
 1360 01d8 F614E945 		.word	1172903158
 1361 01dc 10F1F645 		.word	1173811472
 1362 01e0 13D00246 		.word	1174589459
 1363 01e4 60970A46 		.word	1175099232
 1364 01e8 17D51246 		.word	1175639319
 1365 01ec 41901B46 		.word	1176211521
 1366 01f0 54D02446 		.word	1176817748
 1367 01f4 379D2E46 		.word	1177460023
 1368 01f8 49FF3846 		.word	1178140489
ARM GAS  /var/folders/0z/tsy30v1j4xl4_7kw94k978ww0000gn/T//cckFv8KR.s 			page 33


 1369 01fc 6AFF4346 		.word	1178861418
 1370              		.section	.rodata.pbend,"a"
 1371              		.align	2
 1374              	pbend:
 1375 0000 0000003F 		.word	1056964608
 1376 0004 5E2C003F 		.word	1056975966
 1377 0008 DE58003F 		.word	1056987358
 1378 000c 5E85003F 		.word	1056998750
 1379 0010 EEB1003F 		.word	1057010158
 1380 0014 8FDE003F 		.word	1057021583
 1381 0018 410B013F 		.word	1057033025
 1382 001c 0438013F 		.word	1057044484
 1383 0020 D864013F 		.word	1057055960
 1384 0024 AC91013F 		.word	1057067436
 1385 0028 A1BE013F 		.word	1057078945
 1386 002c A7EB013F 		.word	1057090471
 1387 0030 AD18023F 		.word	1057101997
 1388 0034 D445023F 		.word	1057113556
 1389 0038 FC72023F 		.word	1057125116
 1390 003c 34A0023F 		.word	1057136692
 1391 0040 8ECD023F 		.word	1057148302
 1392 0044 E8FA023F 		.word	1057159912
 1393 0048 5228033F 		.word	1057171538
 1394 004c CE55033F 		.word	1057183182
 1395 0050 5A83033F 		.word	1057194842
 1396 0054 F7B0033F 		.word	1057206519
 1397 0058 A4DE033F 		.word	1057218212
 1398 005c 630C043F 		.word	1057229923
 1399 0060 213A043F 		.word	1057241633
 1400 0064 0168043F 		.word	1057253377
 1401 0068 F295043F 		.word	1057265138
 1402 006c E3C3043F 		.word	1057276899
 1403 0070 F5F1043F 		.word	1057288693
 1404 0074 1920053F 		.word	1057300505
 1405 0078 3C4E053F 		.word	1057312316
 1406 007c 707C053F 		.word	1057324144
 1407 0080 C5AA053F 		.word	1057336005
 1408 0084 1BD9053F 		.word	1057347867
 1409 0088 9207063F 		.word	1057359762
 1410 008c 0936063F 		.word	1057371657
 1411 0090 9164063F 		.word	1057383569
 1412 0094 2993063F 		.word	1057395497
 1413 0098 D3C1063F 		.word	1057407443
 1414 009c 9EF0063F 		.word	1057419422
 1415 00a0 681F073F 		.word	1057431400
 1416 00a4 444E073F 		.word	1057443396
 1417 00a8 317D073F 		.word	1057455409
 1418 00ac 2EAC073F 		.word	1057467438
 1419 00b0 3CDB073F 		.word	1057479484
 1420 00b4 5B0A083F 		.word	1057491547
 1421 00b8 7A39083F 		.word	1057503610
 1422 00bc BA68083F 		.word	1057515706
 1423 00c0 0B98083F 		.word	1057527819
 1424 00c4 6DC7083F 		.word	1057539949
 1425 00c8 E0F6083F 		.word	1057552096
 1426 00cc 6326093F 		.word	1057564259
 1427 00d0 E755093F 		.word	1057576423
ARM GAS  /var/folders/0z/tsy30v1j4xl4_7kw94k978ww0000gn/T//cckFv8KR.s 			page 34


 1428 00d4 8C85093F 		.word	1057588620
 1429 00d8 42B5093F 		.word	1057600834
 1430 00dc 08E5093F 		.word	1057613064
 1431 00e0 CF140A3F 		.word	1057625295
 1432 00e4 B7440A3F 		.word	1057637559
 1433 00e8 B0740A3F 		.word	1057649840
 1434 00ec A9A40A3F 		.word	1057662121
 1435 00f0 C3D40A3F 		.word	1057674435
 1436 00f4 EE040B3F 		.word	1057686766
 1437 00f8 2B350B3F 		.word	1057699115
 1438 00fc 67650B3F 		.word	1057711463
 1439 0100 C4950B3F 		.word	1057723844
 1440 0104 32C60B3F 		.word	1057736242
 1441 0108 A1F60B3F 		.word	1057748641
 1442 010c 31270C3F 		.word	1057761073
 1443 0110 D1570C3F 		.word	1057773521
 1444 0114 72880C3F 		.word	1057785970
 1445 0118 34B90C3F 		.word	1057798452
 1446 011c 07EA0C3F 		.word	1057810951
 1447 0120 DA1A0D3F 		.word	1057823450
 1448 0124 CF4B0D3F 		.word	1057835983
 1449 0128 D47C0D3F 		.word	1057848532
 1450 012c DAAD0D3F 		.word	1057861082
 1451 0130 01DF0D3F 		.word	1057873665
 1452 0134 38100E3F 		.word	1057886264
 1453 0138 81410E3F 		.word	1057898881
 1454 013c DA720E3F 		.word	1057911514
 1455 0140 33A40E3F 		.word	1057924147
 1456 0144 AED50E3F 		.word	1057936814
 1457 0148 3A070F3F 		.word	1057949498
 1458 014c D6380F3F 		.word	1057962198
 1459 0150 836A0F3F 		.word	1057974915
 1460 0154 419C0F3F 		.word	1057987649
 1461 0158 10CE0F3F 		.word	1058000400
 1462 015c EFFF0F3F 		.word	1058013167
 1463 0160 DF31103F 		.word	1058025951
 1464 0164 E063103F 		.word	1058038752
 1465 0168 F295103F 		.word	1058051570
 1466 016c 15C8103F 		.word	1058064405
 1467 0170 48FA103F 		.word	1058077256
 1468 0174 8C2C113F 		.word	1058090124
 1469 0178 F25E113F 		.word	1058103026
 1470 017c 5891113F 		.word	1058115928
 1471 0180 CEC3113F 		.word	1058128846
 1472 0184 66F6113F 		.word	1058141798
 1473 0188 FE28123F 		.word	1058154750
 1474 018c B85B123F 		.word	1058167736
 1475 0190 718E123F 		.word	1058180721
 1476 0194 4CC1123F 		.word	1058193740
 1477 0198 28F4123F 		.word	1058206760
 1478 019c 2427133F 		.word	1058219812
 1479 01a0 325A133F 		.word	1058232882
 1480 01a4 3F8D133F 		.word	1058245951
 1481 01a8 6EC0133F 		.word	1058259054
 1482 01ac AEF3133F 		.word	1058272174
 1483 01b0 FE26143F 		.word	1058285310
 1484 01b4 605A143F 		.word	1058298464
ARM GAS  /var/folders/0z/tsy30v1j4xl4_7kw94k978ww0000gn/T//cckFv8KR.s 			page 35


 1485 01b8 D28D143F 		.word	1058311634
 1486 01bc 55C1143F 		.word	1058324821
 1487 01c0 E8F4143F 		.word	1058338024
 1488 01c4 9E28153F 		.word	1058351262
 1489 01c8 535C153F 		.word	1058364499
 1490 01cc 1990153F 		.word	1058377753
 1491 01d0 00C4153F 		.word	1058391040
 1492 01d4 E8F7153F 		.word	1058404328
 1493 01d8 F12B163F 		.word	1058417649
 1494 01dc 0B60163F 		.word	1058430987
 1495 01e0 2594163F 		.word	1058444325
 1496 01e4 60C8163F 		.word	1058457696
 1497 01e8 ADFC163F 		.word	1058471085
 1498 01ec 0A31173F 		.word	1058484490
 1499 01f0 7765173F 		.word	1058497911
 1500 01f4 079A173F 		.word	1058511367
 1501 01f8 96CE173F 		.word	1058524822
 1502 01fc 3603183F 		.word	1058538294
 1503 0200 F837183F 		.word	1058551800
 1504 0204 B96C183F 		.word	1058565305
 1505 0208 9DA1183F 		.word	1058578845
 1506 020c 80D6183F 		.word	1058592384
 1507 0210 850B193F 		.word	1058605957
 1508 0214 9A40193F 		.word	1058619546
 1509 0218 C075193F 		.word	1058633152
 1510 021c F8AA193F 		.word	1058646776
 1511 0220 3FE0193F 		.word	1058660415
 1512 0224 A9151A3F 		.word	1058674089
 1513 0228 124B1A3F 		.word	1058687762
 1514 022c 9D801A3F 		.word	1058701469
 1515 0230 28B61A3F 		.word	1058715176
 1516 0234 D5EB1A3F 		.word	1058728917
 1517 0238 92211B3F 		.word	1058742674
 1518 023c 60571B3F 		.word	1058756448
 1519 0240 3F8D1B3F 		.word	1058770239
 1520 0244 2FC31B3F 		.word	1058784047
 1521 0248 2FF91B3F 		.word	1058797871
 1522 024c 512F1C3F 		.word	1058811729
 1523 0250 73651C3F 		.word	1058825587
 1524 0254 B79B1C3F 		.word	1058839479
 1525 0258 FAD11C3F 		.word	1058853370
 1526 025c 5F081D3F 		.word	1058867295
 1527 0260 D53E1D3F 		.word	1058881237
 1528 0264 5C751D3F 		.word	1058895196
 1529 0268 04AC1D3F 		.word	1058909188
 1530 026c ACE21D3F 		.word	1058923180
 1531 0270 76191E3F 		.word	1058937206
 1532 0274 40501E3F 		.word	1058951232
 1533 0278 2B871E3F 		.word	1058965291
 1534 027c 27BE1E3F 		.word	1058979367
 1535 0280 34F51E3F 		.word	1058993460
 1536 0284 522C1F3F 		.word	1059007570
 1537 0288 80631F3F 		.word	1059021696
 1538 028c D09A1F3F 		.word	1059035856
 1539 0290 20D21F3F 		.word	1059050016
 1540 0294 9109203F 		.word	1059064209
 1541 0298 1441203F 		.word	1059078420
ARM GAS  /var/folders/0z/tsy30v1j4xl4_7kw94k978ww0000gn/T//cckFv8KR.s 			page 36


 1542 029c A778203F 		.word	1059092647
 1543 02a0 4BB0203F 		.word	1059106891
 1544 02a4 10E8203F 		.word	1059121168
 1545 02a8 D61F213F 		.word	1059135446
 1546 02ac BC57213F 		.word	1059149756
 1547 02b0 B48F213F 		.word	1059164084
 1548 02b4 BDC7213F 		.word	1059178429
 1549 02b8 D6FF213F 		.word	1059192790
 1550 02bc 0038223F 		.word	1059207168
 1551 02c0 3B70223F 		.word	1059221563
 1552 02c4 97A8223F 		.word	1059235991
 1553 02c8 05E1223F 		.word	1059250437
 1554 02cc 8319233F 		.word	1059264899
 1555 02d0 1152233F 		.word	1059279377
 1556 02d4 B18A233F 		.word	1059293873
 1557 02d8 72C3233F 		.word	1059308402
 1558 02dc 33FC233F 		.word	1059322931
 1559 02e0 1635243F 		.word	1059337494
 1560 02e4 096E243F 		.word	1059352073
 1561 02e8 0DA7243F 		.word	1059366669
 1562 02ec 22E0243F 		.word	1059381282
 1563 02f0 5919253F 		.word	1059395929
 1564 02f4 A052253F 		.word	1059410592
 1565 02f8 E78B253F 		.word	1059425255
 1566 02fc 61C5253F 		.word	1059439969
 1567 0300 DAFE253F 		.word	1059454682
 1568 0304 6538263F 		.word	1059469413
 1569 0308 1172263F 		.word	1059484177
 1570 030c CDAB263F 		.word	1059498957
 1571 0310 9BE5263F 		.word	1059513755
 1572 0314 791F273F 		.word	1059528569
 1573 0318 6859273F 		.word	1059543400
 1574 031c 7993273F 		.word	1059558265
 1575 0320 9ACD273F 		.word	1059573146
 1576 0324 CC07283F 		.word	1059588044
 1577 0328 0F42283F 		.word	1059602959
 1578 032c 637C283F 		.word	1059617891
 1579 0330 D8B6283F 		.word	1059632856
 1580 0334 5EF1283F 		.word	1059647838
 1581 0338 F52B293F 		.word	1059662837
 1582 033c 9D66293F 		.word	1059677853
 1583 0340 55A1293F 		.word	1059692885
 1584 0344 2FDC293F 		.word	1059707951
 1585 0348 1A172A3F 		.word	1059723034
 1586 034c 15522A3F 		.word	1059738133
 1587 0350 228D2A3F 		.word	1059753250
 1588 0354 50C82A3F 		.word	1059768400
 1589 0358 8E032B3F 		.word	1059783566
 1590 035c DE3E2B3F 		.word	1059798750
 1591 0360 3E7A2B3F 		.word	1059813950
 1592 0364 AFB52B3F 		.word	1059829167
 1593 0368 41F12B3F 		.word	1059844417
 1594 036c E42C2C3F 		.word	1059859684
 1595 0370 98682C3F 		.word	1059874968
 1596 0374 5DA42C3F 		.word	1059890269
 1597 0378 44E02C3F 		.word	1059905604
 1598 037c 3B1C2D3F 		.word	1059920955
ARM GAS  /var/folders/0z/tsy30v1j4xl4_7kw94k978ww0000gn/T//cckFv8KR.s 			page 37


 1599 0380 43582D3F 		.word	1059936323
 1600 0384 5B942D3F 		.word	1059951707
 1601 0388 96D02D3F 		.word	1059967126
 1602 038c D00C2E3F 		.word	1059982544
 1603 0390 3D492E3F 		.word	1059998013
 1604 0394 A9852E3F 		.word	1060013481
 1605 0398 27C22E3F 		.word	1060028967
 1606 039c C5FE2E3F 		.word	1060044485
 1607 03a0 753B2F3F 		.word	1060060021
 1608 03a4 46782F3F 		.word	1060075590
 1609 03a8 18B52F3F 		.word	1060091160
 1610 03ac 0AF22F3F 		.word	1060106762
 1611 03b0 0E2F303F 		.word	1060122382
 1612 03b4 226C303F 		.word	1060138018
 1613 03b8 58A9303F 		.word	1060153688
 1614 03bc 9FE6303F 		.word	1060169375
 1615 03c0 F623313F 		.word	1060185078
 1616 03c4 5F61313F 		.word	1060200799
 1617 03c8 E99E313F 		.word	1060216553
 1618 03cc 83DC313F 		.word	1060232323
 1619 03d0 2E1A323F 		.word	1060248110
 1620 03d4 FB57323F 		.word	1060263931
 1621 03d8 C895323F 		.word	1060279752
 1622 03dc C8D3323F 		.word	1060295624
 1623 03e0 C711333F 		.word	1060311495
 1624 03e4 D74F333F 		.word	1060327383
 1625 03e8 088E333F 		.word	1060343304
 1626 03ec 5CCC333F 		.word	1060359260
 1627 03f0 AF0A343F 		.word	1060375215
 1628 03f4 2349343F 		.word	1060391203
 1629 03f8 A987343F 		.word	1060407209
 1630 03fc 3FC6343F 		.word	1060423231
 1631 0400 F704353F 		.word	1060439287
 1632 0404 BF43353F 		.word	1060455359
 1633 0408 9982353F 		.word	1060471449
 1634 040c 83C1353F 		.word	1060487555
 1635 0410 8F00363F 		.word	1060503695
 1636 0414 AB3F363F 		.word	1060519851
 1637 0418 E97E363F 		.word	1060536041
 1638 041c 38BE363F 		.word	1060552248
 1639 0420 97FD363F 		.word	1060568471
 1640 0424 083D373F 		.word	1060584712
 1641 0428 9A7C373F 		.word	1060600986
 1642 042c 3CBC373F 		.word	1060617276
 1643 0430 F0FB373F 		.word	1060633584
 1644 0434 C53B383F 		.word	1060649925
 1645 0438 AB7B383F 		.word	1060666283
 1646 043c A1BB383F 		.word	1060682657
 1647 0440 A9FB383F 		.word	1060699049
 1648 0444 D13B393F 		.word	1060715473
 1649 0448 1C7C393F 		.word	1060731932
 1650 044c 66BC393F 		.word	1060748390
 1651 0450 D2FC393F 		.word	1060764882
 1652 0454 4F3D3A3F 		.word	1060781391
 1653 0458 ED7D3A3F 		.word	1060797933
 1654 045c 9DBE3A3F 		.word	1060814493
 1655 0460 5CFF3A3F 		.word	1060831068
ARM GAS  /var/folders/0z/tsy30v1j4xl4_7kw94k978ww0000gn/T//cckFv8KR.s 			page 38


 1656 0464 2D403B3F 		.word	1060847661
 1657 0468 1F813B3F 		.word	1060864287
 1658 046c 33C23B3F 		.word	1060880947
 1659 0470 47033C3F 		.word	1060897607
 1660 0474 7C443C3F 		.word	1060914300
 1661 0478 C2853C3F 		.word	1060931010
 1662 047c 2AC73C3F 		.word	1060947754
 1663 0480 A2083D3F 		.word	1060964514
 1664 0484 2C4A3D3F 		.word	1060981292
 1665 0488 D68B3D3F 		.word	1060998102
 1666 048c 92CD3D3F 		.word	1061014930
 1667 0490 6F0F3E3F 		.word	1061031791
 1668 0494 4C513E3F 		.word	1061048652
 1669 0498 4B933E3F 		.word	1061065547
 1670 049c 6BD53E3F 		.word	1061082475
 1671 04a0 9C173F3F 		.word	1061099420
 1672 04a4 DE593F3F 		.word	1061116382
 1673 04a8 419C3F3F 		.word	1061133377
 1674 04ac B5DE3F3F 		.word	1061150389
 1675 04b0 3A21403F 		.word	1061167418
 1676 04b4 E063403F 		.word	1061184480
 1677 04b8 98A6403F 		.word	1061201560
 1678 04bc 60E9403F 		.word	1061218656
 1679 04c0 492C413F 		.word	1061235785
 1680 04c4 446F413F 		.word	1061252932
 1681 04c8 5FB2413F 		.word	1061270111
 1682 04cc 8CF5413F 		.word	1061287308
 1683 04d0 DA38423F 		.word	1061304538
 1684 04d4 287C423F 		.word	1061321768
 1685 04d8 A9BF423F 		.word	1061339049
 1686 04dc 2A03433F 		.word	1061356330
 1687 04e0 CC46433F 		.word	1061373644
 1688 04e4 7E8A433F 		.word	1061390974
 1689 04e8 53CE433F 		.word	1061408339
 1690 04ec 3812443F 		.word	1061425720
 1691 04f0 3F56443F 		.word	1061443135
 1692 04f4 569A443F 		.word	1061460566
 1693 04f8 7FDE443F 		.word	1061478015
 1694 04fc C922453F 		.word	1061495497
 1695 0500 2367453F 		.word	1061512995
 1696 0504 9FAB453F 		.word	1061530527
 1697 0508 2CF0453F 		.word	1061548076
 1698 050c DB34463F 		.word	1061565659
 1699 0510 8979463F 		.word	1061583241
 1700 0514 6ABE463F 		.word	1061600874
 1701 0518 4B03473F 		.word	1061618507
 1702 051c 5E48473F 		.word	1061636190
 1703 0520 718D473F 		.word	1061653873
 1704 0524 A6D2473F 		.word	1061671590
 1705 0528 FC17483F 		.word	1061689340
 1706 052c 645D483F 		.word	1061707108
 1707 0530 DBA2483F 		.word	1061724891
 1708 0534 75E8483F 		.word	1061742709
 1709 0538 1F2E493F 		.word	1061760543
 1710 053c DA73493F 		.word	1061778394
 1711 0540 B6B9493F 		.word	1061796278
 1712 0544 B5FF493F 		.word	1061814197
ARM GAS  /var/folders/0z/tsy30v1j4xl4_7kw94k978ww0000gn/T//cckFv8KR.s 			page 39


 1713 0548 C3454A3F 		.word	1061832131
 1714 054c E38B4A3F 		.word	1061850083
 1715 0550 24D24A3F 		.word	1061868068
 1716 0554 76184B3F 		.word	1061886070
 1717 0558 EA5E4B3F 		.word	1061904106
 1718 055c 6EA54B3F 		.word	1061922158
 1719 0560 14EC4B3F 		.word	1061940244
 1720 0564 CA324C3F 		.word	1061958346
 1721 0568 A3794C3F 		.word	1061976483
 1722 056c 8BC04C3F 		.word	1061994635
 1723 0570 85074D3F 		.word	1062012805
 1724 0574 A04E4D3F 		.word	1062031008
 1725 0578 DD954D3F 		.word	1062049245
 1726 057c 2BDD4D3F 		.word	1062067499
 1727 0580 89244E3F 		.word	1062085769
 1728 0584 096C4E3F 		.word	1062104073
 1729 0588 9AB34E3F 		.word	1062122394
 1730 058c 4CFB4E3F 		.word	1062140748
 1731 0590 20434F3F 		.word	1062159136
 1732 0594 F48A4F3F 		.word	1062177524
 1733 0598 FAD24F3F 		.word	1062195962
 1734 059c 001B503F 		.word	1062214400
 1735 05a0 3963503F 		.word	1062232889
 1736 05a4 71AB503F 		.word	1062251377
 1737 05a8 DCF3503F 		.word	1062269916
 1738 05ac 473C513F 		.word	1062288455
 1739 05b0 E484513F 		.word	1062307044
 1740 05b4 81CD513F 		.word	1062325633
 1741 05b8 5116523F 		.word	1062344273
 1742 05bc 205F523F 		.word	1062362912
 1743 05c0 22A8523F 		.word	1062381602
 1744 05c4 35F1523F 		.word	1062400309
 1745 05c8 583A533F 		.word	1062419032
 1746 05cc 9D83533F 		.word	1062437789
 1747 05d0 F3CC533F 		.word	1062456563
 1748 05d4 6A16543F 		.word	1062475370
 1749 05d8 F25F543F 		.word	1062494194
 1750 05dc 9BA9543F 		.word	1062513051
 1751 05e0 56F3543F 		.word	1062531926
 1752 05e4 323D553F 		.word	1062550834
 1753 05e8 2F87553F 		.word	1062569775
 1754 05ec 3DD1553F 		.word	1062588733
 1755 05f0 5C1B563F 		.word	1062607708
 1756 05f4 9D65563F 		.word	1062626717
 1757 05f8 FFAF563F 		.word	1062645759
 1758 05fc 72FA563F 		.word	1062664818
 1759 0600 F644573F 		.word	1062683894
 1760 0604 AC8F573F 		.word	1062703020
 1761 0608 62DA573F 		.word	1062722146
 1762 060c 4A25583F 		.word	1062741322
 1763 0610 3370583F 		.word	1062760499
 1764 0614 4DBB583F 		.word	1062779725
 1765 0618 7906593F 		.word	1062798969
 1766 061c B551593F 		.word	1062818229
 1767 0620 139D593F 		.word	1062837523
 1768 0624 92E8593F 		.word	1062856850
 1769 0628 22345A3F 		.word	1062876194
ARM GAS  /var/folders/0z/tsy30v1j4xl4_7kw94k978ww0000gn/T//cckFv8KR.s 			page 40


 1770 062c D47F5A3F 		.word	1062895572
 1771 0630 96CB5A3F 		.word	1062914966
 1772 0634 7A175B3F 		.word	1062934394
 1773 0638 6F635B3F 		.word	1062953839
 1774 063c 86AF5B3F 		.word	1062973318
 1775 0640 BDFB5B3F 		.word	1062992829
 1776 0644 06485C3F 		.word	1063012358
 1777 0648 60945C3F 		.word	1063031904
 1778 064c EBE05C3F 		.word	1063051499
 1779 0650 882D5D3F 		.word	1063071112
 1780 0654 357A5D3F 		.word	1063090741
 1781 0658 04C75D3F 		.word	1063110404
 1782 065c F5135E3F 		.word	1063130101
 1783 0660 F6605E3F 		.word	1063149814
 1784 0664 19AE5E3F 		.word	1063169561
 1785 0668 4CFB5E3F 		.word	1063189324
 1786 066c A1485F3F 		.word	1063209121
 1787 0670 18965F3F 		.word	1063228952
 1788 0674 9FE35F3F 		.word	1063248799
 1789 0678 4831603F 		.word	1063268680
 1790 067c 027F603F 		.word	1063288578
 1791 0680 DECC603F 		.word	1063308510
 1792 0684 DA1A613F 		.word	1063328474
 1793 0688 E868613F 		.word	1063348456
 1794 068c 17B7613F 		.word	1063368471
 1795 0690 5705623F 		.word	1063388503
 1796 0694 B953623F 		.word	1063408569
 1797 0698 3CA2623F 		.word	1063428668
 1798 069c D0F0623F 		.word	1063448784
 1799 06a0 853F633F 		.word	1063468933
 1800 06a4 5C8E633F 		.word	1063489116
 1801 06a8 44DD633F 		.word	1063509316
 1802 06ac 4D2C643F 		.word	1063529549
 1803 06b0 677B643F 		.word	1063549799
 1804 06b4 A3CA643F 		.word	1063570083
 1805 06b8 001A653F 		.word	1063590400
 1806 06bc 7F69653F 		.word	1063610751
 1807 06c0 0FB9653F 		.word	1063631119
 1808 06c4 AF08663F 		.word	1063651503
 1809 06c8 8258663F 		.word	1063671938
 1810 06cc 54A8663F 		.word	1063692372
 1811 06d0 59F8663F 		.word	1063712857
 1812 06d4 6F48673F 		.word	1063733359
 1813 06d8 A698673F 		.word	1063753894
 1814 06dc FFE8673F 		.word	1063774463
 1815 06e0 6939683F 		.word	1063795049
 1816 06e4 F489683F 		.word	1063815668
 1817 06e8 A1DA683F 		.word	1063836321
 1818 06ec 5E2B693F 		.word	1063856990
 1819 06f0 3D7C693F 		.word	1063877693
 1820 06f4 2DCD693F 		.word	1063898413
 1821 06f8 4F1E6A3F 		.word	1063919183
 1822 06fc 726F6A3F 		.word	1063939954
 1823 0700 C6C06A3F 		.word	1063960774
 1824 0704 2B126B3F 		.word	1063981611
 1825 0708 B2636B3F 		.word	1064002482
 1826 070c 5BB56B3F 		.word	1064023387
ARM GAS  /var/folders/0z/tsy30v1j4xl4_7kw94k978ww0000gn/T//cckFv8KR.s 			page 41


 1827 0710 14076C3F 		.word	1064044308
 1828 0714 EF586C3F 		.word	1064065263
 1829 0718 EBAA6C3F 		.word	1064086251
 1830 071c F8FC6C3F 		.word	1064107256
 1831 0720 374F6D3F 		.word	1064128311
 1832 0724 77A16D3F 		.word	1064149367
 1833 0728 E9F36D3F 		.word	1064170473
 1834 072c 6B466E3F 		.word	1064191595
 1835 0730 0F996E3F 		.word	1064212751
 1836 0734 D5EB6E3F 		.word	1064233941
 1837 0738 AB3E6F3F 		.word	1064255147
 1838 073c A3916F3F 		.word	1064276387
 1839 0740 BDE46F3F 		.word	1064297661
 1840 0744 E737703F 		.word	1064318951
 1841 0748 448B703F 		.word	1064340292
 1842 074c A0DE703F 		.word	1064361632
 1843 0750 2F32713F 		.word	1064383023
 1844 0754 CF85713F 		.word	1064404431
 1845 0758 A1D9713F 		.word	1064425889
 1846 075c 732D723F 		.word	1064447347
 1847 0760 7781723F 		.word	1064468855
 1848 0764 8DD5723F 		.word	1064490381
 1849 0768 C329733F 		.word	1064511939
 1850 076c 1C7E733F 		.word	1064533532
 1851 0770 95D2733F 		.word	1064555157
 1852 0774 2027743F 		.word	1064576800
 1853 0778 CC7B743F 		.word	1064598476
 1854 077c 9AD0743F 		.word	1064620186
 1855 0780 7825753F 		.word	1064641912
 1856 0784 897A753F 		.word	1064663689
 1857 0788 ABCF753F 		.word	1064685483
 1858 078c DD24763F 		.word	1064707293
 1859 0790 427A763F 		.word	1064729154
 1860 0794 B7CF763F 		.word	1064751031
 1861 0798 4E25773F 		.word	1064772942
 1862 079c 077B773F 		.word	1064794887
 1863 07a0 E1D0773F 		.word	1064816865
 1864 07a4 CC26783F 		.word	1064838860
 1865 07a8 D97C783F 		.word	1064860889
 1866 07ac 07D3783F 		.word	1064882951
 1867 07b0 5629793F 		.word	1064905046
 1868 07b4 C77F793F 		.word	1064927175
 1869 07b8 49D6793F 		.word	1064949321
 1870 07bc ED2C7A3F 		.word	1064971501
 1871 07c0 B2837A3F 		.word	1064993714
 1872 07c4 98DA7A3F 		.word	1065015960
 1873 07c8 90317B3F 		.word	1065038224
 1874 07cc B9887B3F 		.word	1065060537
 1875 07d0 F4DF7B3F 		.word	1065082868
 1876 07d4 50377C3F 		.word	1065105232
 1877 07d8 BD8E7C3F 		.word	1065127613
 1878 07dc 5CE67C3F 		.word	1065150044
 1879 07e0 0C3E7D3F 		.word	1065172492
 1880 07e4 DD957D3F 		.word	1065194973
 1881 07e8 D0ED7D3F 		.word	1065217488
 1882 07ec E5457E3F 		.word	1065240037
 1883 07f0 0A9E7E3F 		.word	1065262602
ARM GAS  /var/folders/0z/tsy30v1j4xl4_7kw94k978ww0000gn/T//cckFv8KR.s 			page 42


 1884 07f4 62F67E3F 		.word	1065285218
 1885 07f8 CA4E7F3F 		.word	1065307850
 1886 07fc 54A77F3F 		.word	1065330516
 1887 0800 0000803F 		.word	1065353216
 1888 0804 772C803F 		.word	1065364599
 1889 0808 0859803F 		.word	1065376008
 1890 080c A185803F 		.word	1065387425
 1891 0810 4AB2803F 		.word	1065398858
 1892 0814 FCDE803F 		.word	1065410300
 1893 0818 C80B813F 		.word	1065421768
 1894 081c 9B38813F 		.word	1065433243
 1895 0820 8865813F 		.word	1065444744
 1896 0824 7D92813F 		.word	1065456253
 1897 0828 83BF813F 		.word	1065467779
 1898 082c 9AEC813F 		.word	1065479322
 1899 0830 C119823F 		.word	1065490881
 1900 0834 F146823F 		.word	1065502449
 1901 0838 3A74823F 		.word	1065514042
 1902 083c 8CA1823F 		.word	1065525644
 1903 0840 EECE823F 		.word	1065537262
 1904 0844 69FC823F 		.word	1065548905
 1905 0848 ED29833F 		.word	1065560557
 1906 084c 8257833F 		.word	1065572226
 1907 0850 1F85833F 		.word	1065583903
 1908 0854 D5B2833F 		.word	1065595605
 1909 0858 9CE0833F 		.word	1065607324
 1910 085c 6B0E843F 		.word	1065619051
 1911 0860 533C843F 		.word	1065630803
 1912 0864 446A843F 		.word	1065642564
 1913 0868 4698843F 		.word	1065654342
 1914 086c 58C6843F 		.word	1065666136
 1915 0870 7BF4843F 		.word	1065677947
 1916 0874 AF22853F 		.word	1065689775
 1917 0878 F450853F 		.word	1065701620
 1918 087c 4A7F853F 		.word	1065713482
 1919 0880 A7AD853F 		.word	1065725351
 1920 0884 1EDC853F 		.word	1065737246
 1921 0888 9E0A863F 		.word	1065749150
 1922 088c 3739863F 		.word	1065761079
 1923 0890 D767863F 		.word	1065773015
 1924 0894 9296863F 		.word	1065784978
 1925 0898 54C5863F 		.word	1065796948
 1926 089c 28F4863F 		.word	1065808936
 1927 08a0 0C23873F 		.word	1065820940
 1928 08a4 0052873F 		.word	1065832960
 1929 08a8 0681873F 		.word	1065844998
 1930 08ac 1DB0873F 		.word	1065857053
 1931 08b0 44DF873F 		.word	1065869124
 1932 08b4 7C0E883F 		.word	1065881212
 1933 08b8 C53D883F 		.word	1065893317
 1934 08bc 166D883F 		.word	1065905430
 1935 08c0 809C883F 		.word	1065917568
 1936 08c4 FBCB883F 		.word	1065929723
 1937 08c8 7FFB883F 		.word	1065941887
 1938 08cc 1B2B893F 		.word	1065954075
 1939 08d0 C95A893F 		.word	1065966281
 1940 08d4 7E8A893F 		.word	1065978494
ARM GAS  /var/folders/0z/tsy30v1j4xl4_7kw94k978ww0000gn/T//cckFv8KR.s 			page 43


 1941 08d8 4DBA893F 		.word	1065990733
 1942 08dc 25EA893F 		.word	1066002981
 1943 08e0 151A8A3F 		.word	1066015253
 1944 08e4 0E4A8A3F 		.word	1066027534
 1945 08e8 207A8A3F 		.word	1066039840
 1946 08ec 3BAA8A3F 		.word	1066052155
 1947 08f0 6EDA8A3F 		.word	1066064494
 1948 08f4 AA0A8B3F 		.word	1066076842
 1949 08f8 003B8B3F 		.word	1066089216
 1950 08fc 5D6B8B3F 		.word	1066101597
 1951 0900 D49B8B3F 		.word	1066114004
 1952 0904 53CC8B3F 		.word	1066126419
 1953 0908 EBFC8B3F 		.word	1066138859
 1954 090c 8C2D8C3F 		.word	1066151308
 1955 0910 465E8C3F 		.word	1066163782
 1956 0914 088F8C3F 		.word	1066176264
 1957 0918 E4BF8C3F 		.word	1066188772
 1958 091c C7F08C3F 		.word	1066201287
 1959 0920 C4218D3F 		.word	1066213828
 1960 0924 D2528D3F 		.word	1066226386
 1961 0928 E8838D3F 		.word	1066238952
 1962 092c 18B58D3F 		.word	1066251544
 1963 0930 58E68D3F 		.word	1066264152
 1964 0934 A0178E3F 		.word	1066276768
 1965 0938 02498E3F 		.word	1066289410
 1966 093c 747A8E3F 		.word	1066302068
 1967 0940 F7AB8E3F 		.word	1066314743
 1968 0944 8BDD8E3F 		.word	1066327435
 1969 0948 300F8F3F 		.word	1066340144
 1970 094c E6408F3F 		.word	1066352870
 1971 0950 AC728F3F 		.word	1066365612
 1972 0954 83A48F3F 		.word	1066378371
 1973 0958 73D68F3F 		.word	1066391155
 1974 095c 6C08903F 		.word	1066403948
 1975 0960 753A903F 		.word	1066416757
 1976 0964 986C903F 		.word	1066429592
 1977 0968 C39E903F 		.word	1066442435
 1978 096c 07D1903F 		.word	1066455303
 1979 0970 5C03913F 		.word	1066468188
 1980 0974 B935913F 		.word	1066481081
 1981 0978 3068913F 		.word	1066494000
 1982 097c B79A913F 		.word	1066506935
 1983 0980 4FCD913F 		.word	1066519887
 1984 0984 F8FF913F 		.word	1066532856
 1985 0988 BA32923F 		.word	1066545850
 1986 098c 8465923F 		.word	1066558852
 1987 0990 6798923F 		.word	1066571879
 1988 0994 53CB923F 		.word	1066584915
 1989 0998 58FE923F 		.word	1066597976
 1990 099c 6E31933F 		.word	1066611054
 1991 09a0 8C64933F 		.word	1066624140
 1992 09a4 C497933F 		.word	1066637252
 1993 09a8 14CB933F 		.word	1066650388
 1994 09ac 6DFE933F 		.word	1066663533
 1995 09b0 D731943F 		.word	1066676695
 1996 09b4 5A65943F 		.word	1066689882
 1997 09b8 E598943F 		.word	1066703077
ARM GAS  /var/folders/0z/tsy30v1j4xl4_7kw94k978ww0000gn/T//cckFv8KR.s 			page 44


 1998 09bc 8ACC943F 		.word	1066716298
 1999 09c0 3F00953F 		.word	1066729535
 2000 09c4 0534953F 		.word	1066742789
 2001 09c8 E467953F 		.word	1066756068
 2002 09cc CC9B953F 		.word	1066769356
 2003 09d0 C4CF953F 		.word	1066782660
 2004 09d4 D503963F 		.word	1066795989
 2005 09d8 F837963F 		.word	1066809336
 2006 09dc 2B6C963F 		.word	1066822699
 2007 09e0 6FA0963F 		.word	1066836079
 2008 09e4 C3D4963F 		.word	1066849475
 2009 09e8 3109973F 		.word	1066862897
 2010 09ec B03D973F 		.word	1066876336
 2011 09f0 3672973F 		.word	1066889782
 2012 09f4 D7A6973F 		.word	1066903255
 2013 09f8 90DB973F 		.word	1066916752
 2014 09fc 5210983F 		.word	1066930258
 2015 0a00 2445983F 		.word	1066943780
 2016 0a04 107A983F 		.word	1066957328
 2017 0a08 0CAF983F 		.word	1066970892
 2018 0a0c 19E4983F 		.word	1066984473
 2019 0a10 3F19993F 		.word	1066998079
 2020 0a14 6E4E993F 		.word	1067011694
 2021 0a18 B683993F 		.word	1067025334
 2022 0a1c 0FB9993F 		.word	1067038991
 2023 0a20 78EE993F 		.word	1067052664
 2024 0a24 F2239A3F 		.word	1067066354
 2025 0a28 86599A3F 		.word	1067080070
 2026 0a2c 2A8F9A3F 		.word	1067093802
 2027 0a30 DFC49A3F 		.word	1067107551
 2028 0a34 A4FA9A3F 		.word	1067121316
 2029 0a38 7B309B3F 		.word	1067135099
 2030 0a3c 6B669B3F 		.word	1067148907
 2031 0a40 6B9C9B3F 		.word	1067162731
 2032 0a44 7CD29B3F 		.word	1067176572
 2033 0a48 A7089C3F 		.word	1067190439
 2034 0a4c D93E9C3F 		.word	1067204313
 2035 0a50 25759C3F 		.word	1067218213
 2036 0a54 82AB9C3F 		.word	1067232130
 2037 0a58 F8E19C3F 		.word	1067246072
 2038 0a5c 76189D3F 		.word	1067260022
 2039 0a60 0E4F9D3F 		.word	1067273998
 2040 0a64 BE859D3F 		.word	1067287998
 2041 0a68 77BC9D3F 		.word	1067302007
 2042 0a6c 49F39D3F 		.word	1067316041
 2043 0a70 2C2A9E3F 		.word	1067330092
 2044 0a74 20619E3F 		.word	1067344160
 2045 0a78 24989E3F 		.word	1067358244
 2046 0a7c 42CF9E3F 		.word	1067372354
 2047 0a80 70069F3F 		.word	1067386480
 2048 0a84 B83D9F3F 		.word	1067400632
 2049 0a88 08759F3F 		.word	1067414792
 2050 0a8c 71AC9F3F 		.word	1067428977
 2051 0a90 F3E39F3F 		.word	1067443187
 2052 0a94 7E1BA03F 		.word	1067457406
 2053 0a98 2253A03F 		.word	1067471650
 2054 0a9c D78AA03F 		.word	1067485911
ARM GAS  /var/folders/0z/tsy30v1j4xl4_7kw94k978ww0000gn/T//cckFv8KR.s 			page 45


 2055 0aa0 A4C2A03F 		.word	1067500196
 2056 0aa4 7BFAA03F 		.word	1067514491
 2057 0aa8 7232A13F 		.word	1067528818
 2058 0aac 726AA13F 		.word	1067543154
 2059 0ab0 8CA2A13F 		.word	1067557516
 2060 0ab4 B6DAA13F 		.word	1067571894
 2061 0ab8 F112A23F 		.word	1067586289
 2062 0abc 454BA23F 		.word	1067600709
 2063 0ac0 A983A23F 		.word	1067615145
 2064 0ac4 1FBCA23F 		.word	1067629599
 2065 0ac8 AEF4A23F 		.word	1067644078
 2066 0acc 4D2DA33F 		.word	1067658573
 2067 0ad0 FE65A33F 		.word	1067673086
 2068 0ad4 C79EA33F 		.word	1067687623
 2069 0ad8 A1D7A33F 		.word	1067702177
 2070 0adc 9510A43F 		.word	1067716757
 2071 0ae0 9949A43F 		.word	1067731353
 2072 0ae4 AE82A43F 		.word	1067745966
 2073 0ae8 D4BBA43F 		.word	1067760596
 2074 0aec 12F5A43F 		.word	1067775250
 2075 0af0 622EA53F 		.word	1067789922
 2076 0af4 CB67A53F 		.word	1067804619
 2077 0af8 45A1A53F 		.word	1067819333
 2078 0afc D7DAA53F 		.word	1067834071
 2079 0b00 7214A63F 		.word	1067848818
 2080 0b04 2F4EA63F 		.word	1067863599
 2081 0b08 F487A63F 		.word	1067878388
 2082 0b0c D3C1A63F 		.word	1067893203
 2083 0b10 CAFBA63F 		.word	1067908042
 2084 0b14 CA35A73F 		.word	1067922890
 2085 0b18 E36FA73F 		.word	1067937763
 2086 0b1c 15AAA73F 		.word	1067952661
 2087 0b20 58E4A73F 		.word	1067967576
 2088 0b24 AC1EA83F 		.word	1067982508
 2089 0b28 1959A83F 		.word	1067997465
 2090 0b2c 9693A83F 		.word	1068012438
 2091 0b30 2DCEA83F 		.word	1068027437
 2092 0b34 D508A93F 		.word	1068042453
 2093 0b38 9643A93F 		.word	1068057494
 2094 0b3c 677EA93F 		.word	1068072551
 2095 0b40 49B9A93F 		.word	1068087625
 2096 0b44 45F4A93F 		.word	1068102725
 2097 0b48 512FAA3F 		.word	1068117841
 2098 0b4c 776AAA3F 		.word	1068132983
 2099 0b50 ADA5AA3F 		.word	1068148141
 2100 0b54 FCE0AA3F 		.word	1068163324
 2101 0b58 5C1CAB3F 		.word	1068178524
 2102 0b5c CD57AB3F 		.word	1068193741
 2103 0b60 5793AB3F 		.word	1068208983
 2104 0b64 FBCEAB3F 		.word	1068224251
 2105 0b68 AF0AAC3F 		.word	1068239535
 2106 0b6c 7446AC3F 		.word	1068254836
 2107 0b70 5182AC3F 		.word	1068270161
 2108 0b74 40BEAC3F 		.word	1068285504
 2109 0b78 48FAAC3F 		.word	1068300872
 2110 0b7c 6936AD3F 		.word	1068316265
 2111 0b80 9372AD3F 		.word	1068331667
ARM GAS  /var/folders/0z/tsy30v1j4xl4_7kw94k978ww0000gn/T//cckFv8KR.s 			page 46


 2112 0b84 DEAEAD3F 		.word	1068347102
 2113 0b88 3AEBAD3F 		.word	1068362554
 2114 0b8c A627AE3F 		.word	1068378022
 2115 0b90 2C64AE3F 		.word	1068393516
 2116 0b94 C3A0AE3F 		.word	1068409027
 2117 0b98 72DDAE3F 		.word	1068424562
 2118 0b9c 331AAF3F 		.word	1068440115
 2119 0ba0 0C57AF3F 		.word	1068455692
 2120 0ba4 FF93AF3F 		.word	1068471295
 2121 0ba8 FAD0AF3F 		.word	1068486906
 2122 0bac 170EB03F 		.word	1068502551
 2123 0bb0 454BB03F 		.word	1068518213
 2124 0bb4 8388B03F 		.word	1068533891
 2125 0bb8 DAC5B03F 		.word	1068549594
 2126 0bbc 4B03B13F 		.word	1068565323
 2127 0bc0 CC40B13F 		.word	1068581068
 2128 0bc4 677EB13F 		.word	1068596839
 2129 0bc8 12BCB13F 		.word	1068612626
 2130 0bcc D7F9B13F 		.word	1068628439
 2131 0bd0 AC37B23F 		.word	1068644268
 2132 0bd4 9B75B23F 		.word	1068660123
 2133 0bd8 A2B3B23F 		.word	1068676002
 2134 0bdc BBF1B23F 		.word	1068691899
 2135 0be0 E42FB33F 		.word	1068707812
 2136 0be4 266EB33F 		.word	1068723750
 2137 0be8 82ACB33F 		.word	1068739714
 2138 0bec EEEAB33F 		.word	1068755694
 2139 0bf0 7429B43F 		.word	1068771700
 2140 0bf4 1268B43F 		.word	1068787730
 2141 0bf8 C2A6B43F 		.word	1068803778
 2142 0bfc 8AE5B43F 		.word	1068819850
 2143 0c00 6424B53F 		.word	1068835940
 2144 0c04 5663B53F 		.word	1068852054
 2145 0c08 59A2B53F 		.word	1068868185
 2146 0c0c 7EE1B53F 		.word	1068884350
 2147 0c10 AB20B63F 		.word	1068900523
 2148 0c14 FA5FB63F 		.word	1068916730
 2149 0c18 5A9FB63F 		.word	1068932954
 2150 0c1c CADEB63F 		.word	1068949194
 2151 0c20 5C1EB73F 		.word	1068965468
 2152 0c24 F65DB73F 		.word	1068981750
 2153 0c28 B29DB73F 		.word	1068998066
 2154 0c2c 7FDDB73F 		.word	1069014399
 2155 0c30 651DB83F 		.word	1069030757
 2156 0c34 5B5DB83F 		.word	1069047131
 2157 0c38 6B9DB83F 		.word	1069063531
 2158 0c3c 94DDB83F 		.word	1069079956
 2159 0c40 D61DB93F 		.word	1069096406
 2160 0c44 295EB93F 		.word	1069112873
 2161 0c48 8C9EB93F 		.word	1069129356
 2162 0c4c 11DFB93F 		.word	1069145873
 2163 0c50 A71FBA3F 		.word	1069162407
 2164 0c54 5760BA3F 		.word	1069178967
 2165 0c58 16A1BA3F 		.word	1069195542
 2166 0c5c EFE1BA3F 		.word	1069212143
 2167 0c60 E222BB3F 		.word	1069228770
 2168 0c64 E563BB3F 		.word	1069245413
ARM GAS  /var/folders/0z/tsy30v1j4xl4_7kw94k978ww0000gn/T//cckFv8KR.s 			page 47


 2169 0c68 09A5BB3F 		.word	1069262089
 2170 0c6c 36E6BB3F 		.word	1069278774
 2171 0c70 8527BC3F 		.word	1069295493
 2172 0c74 E468BC3F 		.word	1069312228
 2173 0c78 5CAABC3F 		.word	1069328988
 2174 0c7c EEEBBC3F 		.word	1069345774
 2175 0c80 902DBD3F 		.word	1069362576
 2176 0c84 546FBD3F 		.word	1069379412
 2177 0c88 21B1BD3F 		.word	1069396257
 2178 0c8c 0EF3BD3F 		.word	1069413134
 2179 0c90 0D35BE3F 		.word	1069430029
 2180 0c94 2577BE3F 		.word	1069446949
 2181 0c98 56B9BE3F 		.word	1069463894
 2182 0c9c A0FBBE3F 		.word	1069480864
 2183 0ca0 FB3DBF3F 		.word	1069497851
 2184 0ca4 6F80BF3F 		.word	1069514863
 2185 0ca8 FCC2BF3F 		.word	1069531900
 2186 0cac 9A05C03F 		.word	1069548954
 2187 0cb0 5A48C03F 		.word	1069566042
 2188 0cb4 2A8BC03F 		.word	1069583146
 2189 0cb8 0CCEC03F 		.word	1069600268
 2190 0cbc 0E11C13F 		.word	1069617422
 2191 0cc0 2254C13F 		.word	1069634594
 2192 0cc4 5797C13F 		.word	1069651799
 2193 0cc8 94DAC13F 		.word	1069669012
 2194 0ccc F31DC23F 		.word	1069686259
 2195 0cd0 6B61C23F 		.word	1069703531
 2196 0cd4 F4A4C23F 		.word	1069720820
 2197 0cd8 96E8C23F 		.word	1069738134
 2198 0cdc 522CC33F 		.word	1069755474
 2199 0ce0 2670C33F 		.word	1069772838
 2200 0ce4 0BB4C33F 		.word	1069790219
 2201 0ce8 12F8C33F 		.word	1069807634
 2202 0cec 293CC43F 		.word	1069825065
 2203 0cf0 5A80C43F 		.word	1069842522
 2204 0cf4 9CC4C43F 		.word	1069859996
 2205 0cf8 FF08C53F 		.word	1069877503
 2206 0cfc 7B4DC53F 		.word	1069895035
 2207 0d00 0892C53F 		.word	1069912584
 2208 0d04 AED6C53F 		.word	1069930158
 2209 0d08 6D1BC63F 		.word	1069947757
 2210 0d0c 4660C63F 		.word	1069965382
 2211 0d10 2FA5C63F 		.word	1069983023
 2212 0d14 3AEAC63F 		.word	1070000698
 2213 0d18 552FC73F 		.word	1070018389
 2214 0d1c 9274C73F 		.word	1070036114
 2215 0d20 E0B9C73F 		.word	1070053856
 2216 0d24 47FFC73F 		.word	1070071623
 2217 0d28 C844C83F 		.word	1070089416
 2218 0d2c 598AC83F 		.word	1070107225
 2219 0d30 0BD0C83F 		.word	1070125067
 2220 0d34 CF15C93F 		.word	1070142927
 2221 0d38 B45BC93F 		.word	1070160820
 2222 0d3c A9A1C93F 		.word	1070178729
 2223 0d40 B8E7C93F 		.word	1070196664
 2224 0d44 E02DCA3F 		.word	1070214624
 2225 0d48 2174CA3F 		.word	1070232609
ARM GAS  /var/folders/0z/tsy30v1j4xl4_7kw94k978ww0000gn/T//cckFv8KR.s 			page 48


 2226 0d4c 7CBACA3F 		.word	1070250620
 2227 0d50 EF00CB3F 		.word	1070268655
 2228 0d54 7C47CB3F 		.word	1070286716
 2229 0d58 228ECB3F 		.word	1070304802
 2230 0d5c D8D4CB3F 		.word	1070322904
 2231 0d60 B01BCC3F 		.word	1070341040
 2232 0d64 9962CC3F 		.word	1070359193
 2233 0d68 A4A9CC3F 		.word	1070377380
 2234 0d6c BFF0CC3F 		.word	1070395583
 2235 0d70 F437CD3F 		.word	1070413812
 2236 0d74 417FCD3F 		.word	1070432065
 2237 0d78 B0C6CD3F 		.word	1070450352
 2238 0d7c 300ECE3F 		.word	1070468656
 2239 0d80 C955CE3F 		.word	1070486985
 2240 0d84 7C9DCE3F 		.word	1070505340
 2241 0d88 47E5CE3F 		.word	1070523719
 2242 0d8c 2C2DCF3F 		.word	1070542124
 2243 0d90 2975CF3F 		.word	1070560553
 2244 0d94 40BDCF3F 		.word	1070579008
 2245 0d98 7105D03F 		.word	1070597489
 2246 0d9c BA4DD03F 		.word	1070615994
 2247 0da0 1C96D03F 		.word	1070634524
 2248 0da4 98DED03F 		.word	1070653080
 2249 0da8 2D27D13F 		.word	1070671661
 2250 0dac DB6FD13F 		.word	1070690267
 2251 0db0 A2B8D13F 		.word	1070708898
 2252 0db4 8201D23F 		.word	1070727554
 2253 0db8 7B4AD23F 		.word	1070746235
 2254 0dbc 8E93D23F 		.word	1070764942
 2255 0dc0 BADCD23F 		.word	1070783674
 2256 0dc4 FF25D33F 		.word	1070802431
 2257 0dc8 5D6FD33F 		.word	1070821213
 2258 0dcc D4B8D33F 		.word	1070840020
 2259 0dd0 6402D43F 		.word	1070858852
 2260 0dd4 164CD43F 		.word	1070877718
 2261 0dd8 D995D43F 		.word	1070896601
 2262 0ddc B5DFD43F 		.word	1070915509
 2263 0de0 B329D53F 		.word	1070934451
 2264 0de4 C173D53F 		.word	1070953409
 2265 0de8 F1BDD53F 		.word	1070972401
 2266 0dec 3108D63F 		.word	1070991409
 2267 0df0 9352D63F 		.word	1071010451
 2268 0df4 0F9DD63F 		.word	1071029519
 2269 0df8 A3E7D63F 		.word	1071048611
 2270 0dfc 5132D73F 		.word	1071067729
 2271 0e00 187DD73F 		.word	1071086872
 2272 0e04 F7C7D73F 		.word	1071106039
 2273 0e08 F112D83F 		.word	1071125233
 2274 0e0c 035ED83F 		.word	1071144451
 2275 0e10 37A9D83F 		.word	1071163703
 2276 0e14 7BF4D83F 		.word	1071182971
 2277 0e18 E23FD93F 		.word	1071202274
 2278 0e1c 618BD93F 		.word	1071221601
 2279 0e20 F9D6D93F 		.word	1071240953
 2280 0e24 AB22DA3F 		.word	1071260331
 2281 0e28 766EDA3F 		.word	1071279734
 2282 0e2c 62BADA3F 		.word	1071299170
ARM GAS  /var/folders/0z/tsy30v1j4xl4_7kw94k978ww0000gn/T//cckFv8KR.s 			page 49


 2283 0e30 6006DB3F 		.word	1071318624
 2284 0e34 7E52DB3F 		.word	1071338110
 2285 0e38 AE9EDB3F 		.word	1071357614
 2286 0e3c FFEADB3F 		.word	1071377151
 2287 0e40 7237DC3F 		.word	1071396722
 2288 0e44 F583DC3F 		.word	1071416309
 2289 0e48 91D0DC3F 		.word	1071435921
 2290 0e4c 501DDD3F 		.word	1071455568
 2291 0e50 276ADD3F 		.word	1071475239
 2292 0e54 17B7DD3F 		.word	1071494935
 2293 0e58 2104DE3F 		.word	1071514657
 2294 0e5c 4451DE3F 		.word	1071534404
 2295 0e60 889EDE3F 		.word	1071554184
 2296 0e64 E6EBDE3F 		.word	1071573990
 2297 0e68 5439DF3F 		.word	1071593812
 2298 0e6c EC86DF3F 		.word	1071613676
 2299 0e70 95D4DF3F 		.word	1071633557
 2300 0e74 6022E03F 		.word	1071653472
 2301 0e78 3B70E03F 		.word	1071673403
 2302 0e7c 40BEE03F 		.word	1071693376
 2303 0e80 560CE13F 		.word	1071713366
 2304 0e84 865AE13F 		.word	1071733382
 2305 0e88 D6A8E13F 		.word	1071753430
 2306 0e8c 40F7E13F 		.word	1071773504
 2307 0e90 C345E23F 		.word	1071793603
 2308 0e94 6894E23F 		.word	1071813736
 2309 0e98 26E3E23F 		.word	1071833894
 2310 0e9c FD31E33F 		.word	1071854077
 2311 0ea0 ED80E33F 		.word	1071874285
 2312 0ea4 F6CFE33F 		.word	1071894518
 2313 0ea8 211FE43F 		.word	1071914785
 2314 0eac 656EE43F 		.word	1071935077
 2315 0eb0 CBBDE43F 		.word	1071955403
 2316 0eb4 410DE53F 		.word	1071975745
 2317 0eb8 D95CE53F 		.word	1071996121
 2318 0ebc 93ACE53F 		.word	1072016531
 2319 0ec0 5DFCE53F 		.word	1072036957
 2320 0ec4 494CE63F 		.word	1072057417
 2321 0ec8 4E9CE63F 		.word	1072077902
 2322 0ecc 74ECE63F 		.word	1072098420
 2323 0ed0 B43CE73F 		.word	1072118964
 2324 0ed4 0D8DE73F 		.word	1072139533
 2325 0ed8 7FDDE73F 		.word	1072160127
 2326 0edc 122EE83F 		.word	1072180754
 2327 0ee0 BF7EE83F 		.word	1072201407
 2328 0ee4 8DCFE83F 		.word	1072222093
 2329 0ee8 7520E93F 		.word	1072242805
 2330 0eec 7671E93F 		.word	1072263542
 2331 0ef0 8FC2E93F 		.word	1072284303
 2332 0ef4 CB13EA3F 		.word	1072305099
 2333 0ef8 2865EA3F 		.word	1072325928
 2334 0efc 95B6EA3F 		.word	1072346773
 2335 0f00 2508EB3F 		.word	1072367653
 2336 0f04 D559EB3F 		.word	1072388565
 2337 0f08 97ABEB3F 		.word	1072409495
 2338 0f0c 7AFDEB3F 		.word	1072430458
 2339 0f10 7F4FEC3F 		.word	1072451455
ARM GAS  /var/folders/0z/tsy30v1j4xl4_7kw94k978ww0000gn/T//cckFv8KR.s 			page 50


 2340 0f14 9DA1EC3F 		.word	1072472477
 2341 0f18 D4F3EC3F 		.word	1072493524
 2342 0f1c 2C46ED3F 		.word	1072514604
 2343 0f20 9E98ED3F 		.word	1072535710
 2344 0f24 31EBED3F 		.word	1072556849
 2345 0f28 DE3DEE3F 		.word	1072578014
 2346 0f2c A390EE3F 		.word	1072599203
 2347 0f30 8AE3EE3F 		.word	1072620426
 2348 0f34 8B36EF3F 		.word	1072641675
 2349 0f38 AD89EF3F 		.word	1072662957
 2350 0f3c E8DCEF3F 		.word	1072684264
 2351 0f40 4430F03F 		.word	1072705604
 2352 0f44 BA83F03F 		.word	1072726970
 2353 0f48 52D7F03F 		.word	1072748370
 2354 0f4c 022BF13F 		.word	1072769794
 2355 0f50 CC7EF13F 		.word	1072791244
 2356 0f54 B7D2F13F 		.word	1072812727
 2357 0f58 BB26F23F 		.word	1072834235
 2358 0f5c E17AF23F 		.word	1072855777
 2359 0f60 29CFF23F 		.word	1072877353
 2360 0f64 8123F33F 		.word	1072898945
 2361 0f68 0378F33F 		.word	1072920579
 2362 0f6c 9FCCF33F 		.word	1072942239
 2363 0f70 5321F43F 		.word	1072963923
 2364 0f74 2976F43F 		.word	1072985641
 2365 0f78 19CBF43F 		.word	1073007385
 2366 0f7c 2920F53F 		.word	1073029161
 2367 0f80 5C75F53F 		.word	1073050972
 2368 0f84 A7CAF53F 		.word	1073072807
 2369 0f88 0C20F63F 		.word	1073094668
 2370 0f8c 9275F63F 		.word	1073116562
 2371 0f90 3ACBF63F 		.word	1073138490
 2372 0f94 FB20F73F 		.word	1073160443
 2373 0f98 D576F73F 		.word	1073182421
 2374 0f9c D9CCF73F 		.word	1073204441
 2375 0fa0 EE22F83F 		.word	1073226478
 2376 0fa4 2D79F83F 		.word	1073248557
 2377 0fa8 85CFF83F 		.word	1073270661
 2378 0fac F625F93F 		.word	1073292790
 2379 0fb0 897CF93F 		.word	1073314953
 2380 0fb4 3DD3F93F 		.word	1073337149
 2381 0fb8 0B2AFA3F 		.word	1073359371
 2382 0fbc FA80FA3F 		.word	1073381626
 2383 0fc0 0AD8FA3F 		.word	1073403914
 2384 0fc4 342FFB3F 		.word	1073426228
 2385 0fc8 7786FB3F 		.word	1073448567
 2386 0fcc E3DDFB3F 		.word	1073470947
 2387 0fd0 6935FC3F 		.word	1073493353
 2388 0fd4 098DFC3F 		.word	1073515785
 2389 0fd8 C9E4FC3F 		.word	1073538249
 2390 0fdc AC3CFD3F 		.word	1073560748
 2391 0fe0 AF94FD3F 		.word	1073583279
 2392 0fe4 CCECFD3F 		.word	1073605836
 2393 0fe8 0245FE3F 		.word	1073628418
 2394 0fec 629DFE3F 		.word	1073651042
 2395 0ff0 DCF5FE3F 		.word	1073673692
 2396 0ff4 774EFF3F 		.word	1073696375
ARM GAS  /var/folders/0z/tsy30v1j4xl4_7kw94k978ww0000gn/T//cckFv8KR.s 			page 51


 2397 0ff8 2AA7FF3F 		.word	1073719082
 2398 0ffc 00000040 		.word	1073741824
 2399              		.text
 2400              	.Letext0:
 2401              		.file 3 "/Users/johannes/Library/Application Support/Code/User/globalStorage/bmd.stm32-for-vscode/
 2402              		.file 4 "/Users/johannes/Library/Application Support/Code/User/globalStorage/bmd.stm32-for-vscode/
 2403              		.file 5 "Drivers/CMSIS/Device/ST/STM32F4xx/Include/stm32f407xx.h"
 2404              		.file 6 "Drivers/STM32F4xx_HAL_Driver/Inc/stm32f4xx_hal_def.h"
 2405              		.file 7 "Drivers/STM32F4xx_HAL_Driver/Inc/stm32f4xx_hal_dma.h"
 2406              		.file 8 "Drivers/STM32F4xx_HAL_Driver/Inc/stm32f4xx_hal_i2s.h"
 2407              		.file 9 "Core/Inc/audio.h"
 2408              		.file 10 "Core/Inc/oscillators.h"
 2409              		.file 11 "Core/Inc/ADSR_envelope.h"
 2410              		.file 12 "Core/Inc/ladder_filter.h"
 2411              		.file 13 "Core/Inc/MIDI_lut.h"
 2412              		.file 14 "Core/Inc/stereo_delay.h"
 2413              		.file 15 "Core/Inc/../../Drivers/BSP/STM32F4-Discovery/stm32f4_discovery_audio.h"
ARM GAS  /var/folders/0z/tsy30v1j4xl4_7kw94k978ww0000gn/T//cckFv8KR.s 			page 52


DEFINED SYMBOLS
                            *ABS*:0000000000000000 audio.c
/var/folders/0z/tsy30v1j4xl4_7kw94k978ww0000gn/T//cckFv8KR.s:20     .text.audioBlock.constprop.0:0000000000000000 $t
/var/folders/0z/tsy30v1j4xl4_7kw94k978ww0000gn/T//cckFv8KR.s:26     .text.audioBlock.constprop.0:0000000000000000 audioBlock.constprop.0
/var/folders/0z/tsy30v1j4xl4_7kw94k978ww0000gn/T//cckFv8KR.s:449    .text.audioBlock.constprop.0:00000000000001b8 $d
/var/folders/0z/tsy30v1j4xl4_7kw94k978ww0000gn/T//cckFv8KR.s:469    .text.AUDIO_Init:0000000000000000 $t
/var/folders/0z/tsy30v1j4xl4_7kw94k978ww0000gn/T//cckFv8KR.s:476    .text.AUDIO_Init:0000000000000000 AUDIO_Init
/var/folders/0z/tsy30v1j4xl4_7kw94k978ww0000gn/T//cckFv8KR.s:572    .text.AUDIO_Init:0000000000000098 $d
/var/folders/0z/tsy30v1j4xl4_7kw94k978ww0000gn/T//cckFv8KR.s:586    .text.OpSetFreq:0000000000000000 $t
/var/folders/0z/tsy30v1j4xl4_7kw94k978ww0000gn/T//cckFv8KR.s:593    .text.OpSetFreq:0000000000000000 OpSetFreq
/var/folders/0z/tsy30v1j4xl4_7kw94k978ww0000gn/T//cckFv8KR.s:613    .text.OpSetFreq:0000000000000010 $d
/var/folders/0z/tsy30v1j4xl4_7kw94k978ww0000gn/T//cckFv8KR.s:618    .text.audioBlock:0000000000000000 $t
/var/folders/0z/tsy30v1j4xl4_7kw94k978ww0000gn/T//cckFv8KR.s:625    .text.audioBlock:0000000000000000 audioBlock
/var/folders/0z/tsy30v1j4xl4_7kw94k978ww0000gn/T//cckFv8KR.s:1066   .text.audioBlock:00000000000001c0 $d
/var/folders/0z/tsy30v1j4xl4_7kw94k978ww0000gn/T//cckFv8KR.s:1086   .text.BSP_AUDIO_OUT_HalfTransfer_CallBack:0000000000000000 $t
/var/folders/0z/tsy30v1j4xl4_7kw94k978ww0000gn/T//cckFv8KR.s:1093   .text.BSP_AUDIO_OUT_HalfTransfer_CallBack:0000000000000000 BSP_AUDIO_OUT_HalfTransfer_CallBack
/var/folders/0z/tsy30v1j4xl4_7kw94k978ww0000gn/T//cckFv8KR.s:1107   .text.BSP_AUDIO_OUT_HalfTransfer_CallBack:0000000000000008 $d
/var/folders/0z/tsy30v1j4xl4_7kw94k978ww0000gn/T//cckFv8KR.s:1112   .text.BSP_AUDIO_OUT_TransferComplete_CallBack:0000000000000000 $t
/var/folders/0z/tsy30v1j4xl4_7kw94k978ww0000gn/T//cckFv8KR.s:1119   .text.BSP_AUDIO_OUT_TransferComplete_CallBack:0000000000000000 BSP_AUDIO_OUT_TransferComplete_CallBack
/var/folders/0z/tsy30v1j4xl4_7kw94k978ww0000gn/T//cckFv8KR.s:1133   .text.BSP_AUDIO_OUT_TransferComplete_CallBack:0000000000000008 $d
/var/folders/0z/tsy30v1j4xl4_7kw94k978ww0000gn/T//cckFv8KR.s:1138   .text.BSP_AUDIO_OUT_Error_CallBack:0000000000000000 $t
/var/folders/0z/tsy30v1j4xl4_7kw94k978ww0000gn/T//cckFv8KR.s:1145   .text.BSP_AUDIO_OUT_Error_CallBack:0000000000000000 BSP_AUDIO_OUT_Error_CallBack
/var/folders/0z/tsy30v1j4xl4_7kw94k978ww0000gn/T//cckFv8KR.s:1162   .text.DMA1_Stream7_IRQHandler:0000000000000000 $t
/var/folders/0z/tsy30v1j4xl4_7kw94k978ww0000gn/T//cckFv8KR.s:1169   .text.DMA1_Stream7_IRQHandler:0000000000000000 DMA1_Stream7_IRQHandler
/var/folders/0z/tsy30v1j4xl4_7kw94k978ww0000gn/T//cckFv8KR.s:1184   .text.DMA1_Stream7_IRQHandler:0000000000000008 $d
/var/folders/0z/tsy30v1j4xl4_7kw94k978ww0000gn/T//cckFv8KR.s:1189   .text.DMA1_Stream3_IRQHandler:0000000000000000 $t
/var/folders/0z/tsy30v1j4xl4_7kw94k978ww0000gn/T//cckFv8KR.s:1196   .text.DMA1_Stream3_IRQHandler:0000000000000000 DMA1_Stream3_IRQHandler
/var/folders/0z/tsy30v1j4xl4_7kw94k978ww0000gn/T//cckFv8KR.s:1211   .text.DMA1_Stream3_IRQHandler:0000000000000008 $d
/var/folders/0z/tsy30v1j4xl4_7kw94k978ww0000gn/T//cckFv8KR.s:1223   .bss.audioBuffer:0000000000000000 audioBuffer
/var/folders/0z/tsy30v1j4xl4_7kw94k978ww0000gn/T//cckFv8KR.s:1374   .rodata.pbend:0000000000000000 pbend
/var/folders/0z/tsy30v1j4xl4_7kw94k978ww0000gn/T//cckFv8KR.s:1241   .rodata.mtof:0000000000000000 mtof
/var/folders/0z/tsy30v1j4xl4_7kw94k978ww0000gn/T//cckFv8KR.s:1219   .bss.audioBuffer:0000000000000000 $d
/var/folders/0z/tsy30v1j4xl4_7kw94k978ww0000gn/T//cckFv8KR.s:1226   .ccmram:0000000000000000 $d
/var/folders/0z/tsy30v1j4xl4_7kw94k978ww0000gn/T//cckFv8KR.s:1230   .ccmram:0000000000000000 delayROut
/var/folders/0z/tsy30v1j4xl4_7kw94k978ww0000gn/T//cckFv8KR.s:1234   .ccmram:0000000000000004 delayLOut
/var/folders/0z/tsy30v1j4xl4_7kw94k978ww0000gn/T//cckFv8KR.s:1237   .rodata.mtof:0000000000000000 $d
/var/folders/0z/tsy30v1j4xl4_7kw94k978ww0000gn/T//cckFv8KR.s:1371   .rodata.pbend:0000000000000000 $d

UNDEFINED SYMBOLS
osc_polyblepSaw
osc_polyblepRect
ADSR_compute
MoogLP_compute
pingpongDelay_compute
osc2
sub_osc
adsr_filt
Moog_filter
adsr_amp
currentPitch
osc1
BSP_AUDIO_OUT_Init
BSP_AUDIO_OUT_Play
osc_init
ADSR_init
MoogLP_init
Delay_init
ARM GAS  /var/folders/0z/tsy30v1j4xl4_7kw94k978ww0000gn/T//cckFv8KR.s 			page 53


HAL_DMA_IRQHandler
hAudioOutI2s
hAudioInI2s
