ARM GAS  /var/folders/0z/tsy30v1j4xl4_7kw94k978ww0000gn/T//ccMZHCqF.s 			page 1


   1              		.cpu cortex-m4
   2              		.arch armv7e-m
   3              		.fpu fpv4-sp-d16
   4              		.eabi_attribute 27, 1
   5              		.eabi_attribute 28, 1
   6              		.eabi_attribute 23, 1
   7              		.eabi_attribute 24, 1
   8              		.eabi_attribute 25, 1
   9              		.eabi_attribute 26, 1
  10              		.eabi_attribute 30, 2
  11              		.eabi_attribute 34, 1
  12              		.eabi_attribute 18, 4
  13              		.file	"bitcrusher.c"
  14              		.text
  15              	.Ltext0:
  16              		.cfi_sections	.debug_frame
  17              		.section	.text.decimator,"ax",%progbits
  18              		.align	1
  19              		.p2align 2,,3
  20              		.global	decimator
  21              		.syntax unified
  22              		.thumb
  23              		.thumb_func
  25              	decimator:
  26              	.LVL0:
  27              	.LFB0:
  28              		.file 1 "Core/Src/bitcrusher.c"
   1:Core/Src/bitcrusher.c **** /**
   2:Core/Src/bitcrusher.c ****  * @file bitcrusher.c
   3:Core/Src/bitcrusher.c ****  * @author johannes regnier
   4:Core/Src/bitcrusher.c ****  * @brief a classic bitcrusher + sample rate decimator
   5:Core/Src/bitcrusher.c ****  * @version 0.1
   6:Core/Src/bitcrusher.c ****  * @date 2024-01-01
   7:Core/Src/bitcrusher.c ****  * 
   8:Core/Src/bitcrusher.c ****  * @copyright Copyright (c) 2024
   9:Core/Src/bitcrusher.c ****  * 
  10:Core/Src/bitcrusher.c ****  */
  11:Core/Src/bitcrusher.c **** 
  12:Core/Src/bitcrusher.c **** #include "bitcrusher.h"
  13:Core/Src/bitcrusher.c **** 
  14:Core/Src/bitcrusher.c **** 
  15:Core/Src/bitcrusher.c **** 
  16:Core/Src/bitcrusher.c **** float cnt = 0;
  17:Core/Src/bitcrusher.c **** 
  18:Core/Src/bitcrusher.c **** 
  19:Core/Src/bitcrusher.c **** float decimator(float sample, float rate, int bit){
  29              		.loc 1 19 51 view -0
  30              		.cfi_startproc
  31              		@ args = 0, pretend = 0, frame = 0
  32              		@ frame_needed = 0, uses_anonymous_args = 0
  33              		@ link register save eliminated.
  20:Core/Src/bitcrusher.c ****     float sampRate = rate * 0.995f + 0.005f;
  34              		.loc 1 20 5 view .LVU1
  21:Core/Src/bitcrusher.c ****     static float value;
  22:Core/Src/bitcrusher.c ****     uint32_t m = 1 << (bit - 1); // bit - 1 --> signal goes max from -32767 to 32767
  23:Core/Src/bitcrusher.c ****     cnt += sampRate;
  35              		.loc 1 23 9 is_stmt 0 view .LVU2
ARM GAS  /var/folders/0z/tsy30v1j4xl4_7kw94k978ww0000gn/T//ccMZHCqF.s 			page 2


  36 0000 174A     		ldr	r2, .L6
  37 0002 9FED187A 		vldr.32	s14, .L6+4
  38 0006 D2ED007A 		vldr.32	s15, [r2]
  39              	.LVL1:
  21:Core/Src/bitcrusher.c ****     static float value;
  40              		.loc 1 21 5 is_stmt 1 view .LVU3
  22:Core/Src/bitcrusher.c ****     cnt += sampRate;
  41              		.loc 1 22 5 view .LVU4
  42              		.loc 1 23 9 is_stmt 0 view .LVU5
  43 000a 77EE877A 		vadd.f32	s15, s15, s14
  44 000e 9FED167A 		vldr.32	s14, .L6+8
  45 0012 E0EE877A 		vfma.f32	s15, s1, s14
  24:Core/Src/bitcrusher.c ****     if (cnt >= 1) // sample and hold
  46              		.loc 1 24 8 view .LVU6
  47 0016 F7EE006A 		vmov.f32	s13, #1.0e+0
  48 001a F4EEE67A 		vcmpe.f32	s15, s13
  49 001e F1EE10FA 		vmrs	APSR_nzcv, FPSCR
  23:Core/Src/bitcrusher.c ****     if (cnt >= 1) // sample and hold
  50              		.loc 1 23 9 view .LVU7
  51 0022 C2ED007A 		vstr.32	s15, [r2]
  52              	.LVL2:
  23:Core/Src/bitcrusher.c ****     if (cnt >= 1) // sample and hold
  53              		.loc 1 23 5 is_stmt 1 view .LVU8
  54              		.loc 1 24 5 view .LVU9
  55              		.loc 1 24 8 is_stmt 0 view .LVU10
  56 0026 16DB     		blt	.L5
  25:Core/Src/bitcrusher.c ****     {
  26:Core/Src/bitcrusher.c ****         cnt -= 1;
  57              		.loc 1 26 9 is_stmt 1 view .LVU11
  22:Core/Src/bitcrusher.c ****     cnt += sampRate;
  58              		.loc 1 22 28 is_stmt 0 view .LVU12
  59 0028 0138     		subs	r0, r0, #1
  60              	.LVL3:
  22:Core/Src/bitcrusher.c ****     cnt += sampRate;
  61              		.loc 1 22 20 view .LVU13
  62 002a 0123     		movs	r3, #1
  63 002c 8340     		lsls	r3, r3, r0
  27:Core/Src/bitcrusher.c ****         value = (int32_t)(sample * m) / (float)m;
  64              		.loc 1 27 34 view .LVU14
  65 002e 07EE103A 		vmov	s14, r3	@ int
  66 0032 B8EE477A 		vcvt.f32.u32	s14, s14
  26:Core/Src/bitcrusher.c ****         value = (int32_t)(sample * m) / (float)m;
  67              		.loc 1 26 13 view .LVU15
  68 0036 77EEE67A 		vsub.f32	s15, s15, s13
  69              		.loc 1 27 34 view .LVU16
  70 003a 27EE000A 		vmul.f32	s0, s14, s0
  71              	.LVL4:
  26:Core/Src/bitcrusher.c ****         value = (int32_t)(sample * m) / (float)m;
  72              		.loc 1 26 13 view .LVU17
  73 003e C2ED007A 		vstr.32	s15, [r2]
  74              		.loc 1 27 9 is_stmt 1 view .LVU18
  75              		.loc 1 27 17 is_stmt 0 view .LVU19
  76 0042 BDEEC00A 		vcvt.s32.f32	s0, s0
  77              		.loc 1 27 15 view .LVU20
  78 0046 094B     		ldr	r3, .L6+12
  79              		.loc 1 27 39 view .LVU21
  80 0048 F8EEC07A 		vcvt.f32.s32	s15, s0
ARM GAS  /var/folders/0z/tsy30v1j4xl4_7kw94k978ww0000gn/T//ccMZHCqF.s 			page 3


  81 004c 87EE870A 		vdiv.f32	s0, s15, s14
  82              		.loc 1 27 15 view .LVU22
  83 0050 83ED000A 		vstr.32	s0, [r3]
  28:Core/Src/bitcrusher.c ****     }
  29:Core/Src/bitcrusher.c ****     return value;
  84              		.loc 1 29 5 is_stmt 1 view .LVU23
  30:Core/Src/bitcrusher.c **** }...
  85              		.loc 1 30 1 is_stmt 0 view .LVU24
  86 0054 7047     		bx	lr
  87              	.LVL5:
  88              	.L5:
  29:Core/Src/bitcrusher.c ****     return value;
  89              		.loc 1 29 12 view .LVU25
  90 0056 054B     		ldr	r3, .L6+12
  91 0058 93ED000A 		vldr.32	s0, [r3]
  92              	.LVL6:
  29:Core/Src/bitcrusher.c ****     return value;
  93              		.loc 1 29 12 view .LVU26
  94 005c 7047     		bx	lr
  95              	.L7:
  96 005e 00BF     		.align	2
  97              	.L6:
  98 0060 00000000 		.word	.LANCHOR0
  99 0064 0AD7A33B 		.word	1000593162
 100 0068 52B87E3F 		.word	1065269330
 101 006c 00000000 		.word	.LANCHOR1
 102              		.cfi_endproc
 103              	.LFE0:
 105              		.global	cnt
 106              		.section	.bss.cnt,"aw",%nobits
 107              		.align	2
 108              		.set	.LANCHOR0,. + 0
 111              	cnt:
 112 0000 00000000 		.space	4
 113              		.section	.bss.value.0,"aw",%nobits
 114              		.align	2
 115              		.set	.LANCHOR1,. + 0
 118              	value.0:
 119 0000 00000000 		.space	4
 120              		.text
 121              	.Letext0:
 122              		.file 2 "/Users/johannes/Library/Application Support/Code/User/globalStorage/bmd.stm32-for-vscode/
 123              		.file 3 "/Users/johannes/Library/Application Support/Code/User/globalStorage/bmd.stm32-for-vscode/
ARM GAS  /var/folders/0z/tsy30v1j4xl4_7kw94k978ww0000gn/T//ccMZHCqF.s 			page 4


DEFINED SYMBOLS
                            *ABS*:0000000000000000 bitcrusher.c
/var/folders/0z/tsy30v1j4xl4_7kw94k978ww0000gn/T//ccMZHCqF.s:18     .text.decimator:0000000000000000 $t
/var/folders/0z/tsy30v1j4xl4_7kw94k978ww0000gn/T//ccMZHCqF.s:25     .text.decimator:0000000000000000 decimator
/var/folders/0z/tsy30v1j4xl4_7kw94k978ww0000gn/T//ccMZHCqF.s:98     .text.decimator:0000000000000060 $d
/var/folders/0z/tsy30v1j4xl4_7kw94k978ww0000gn/T//ccMZHCqF.s:111    .bss.cnt:0000000000000000 cnt
/var/folders/0z/tsy30v1j4xl4_7kw94k978ww0000gn/T//ccMZHCqF.s:107    .bss.cnt:0000000000000000 $d
/var/folders/0z/tsy30v1j4xl4_7kw94k978ww0000gn/T//ccMZHCqF.s:114    .bss.value.0:0000000000000000 $d
/var/folders/0z/tsy30v1j4xl4_7kw94k978ww0000gn/T//ccMZHCqF.s:118    .bss.value.0:0000000000000000 value.0

NO UNDEFINED SYMBOLS
