ARM GAS  /var/folders/0z/tsy30v1j4xl4_7kw94k978ww0000gn/T//ccAaKleR.s 			page 1


   1              		.cpu cortex-m4
   2              		.arch armv7e-m
   3              		.fpu fpv4-sp-d16
   4              		.eabi_attribute 27, 1
   5              		.eabi_attribute 28, 1
   6              		.eabi_attribute 20, 1
   7              		.eabi_attribute 21, 1
   8              		.eabi_attribute 23, 3
   9              		.eabi_attribute 24, 1
  10              		.eabi_attribute 25, 1
  11              		.eabi_attribute 26, 1
  12              		.eabi_attribute 30, 2
  13              		.eabi_attribute 34, 1
  14              		.eabi_attribute 18, 4
  15              		.file	"bitcrusher.c"
  16              		.text
  17              	.Ltext0:
  18              		.cfi_sections	.debug_frame
  19              		.section	.text.decimator,"ax",%progbits
  20              		.align	1
  21              		.p2align 2,,3
  22              		.global	decimator
  23              		.syntax unified
  24              		.thumb
  25              		.thumb_func
  27              	decimator:
  28              	.LVL0:
  29              	.LFB0:
  30              		.file 1 "Core/Src/bitcrusher.c"
   1:Core/Src/bitcrusher.c **** /**
   2:Core/Src/bitcrusher.c ****  * @file bitcrusher.c
   3:Core/Src/bitcrusher.c ****  * @author johannes regnier
   4:Core/Src/bitcrusher.c ****  * @brief a classic bitcrusher + sample rate decimator
   5:Core/Src/bitcrusher.c ****  * @version 0.1
   6:Core/Src/bitcrusher.c ****  * @date 2024-01-01
   7:Core/Src/bitcrusher.c ****  * 
   8:Core/Src/bitcrusher.c ****  * @copyright Copyright (c) 2024
   9:Core/Src/bitcrusher.c ****  * 
  10:Core/Src/bitcrusher.c ****  */
  11:Core/Src/bitcrusher.c **** 
  12:Core/Src/bitcrusher.c **** #include "bitcrusher.h"
  13:Core/Src/bitcrusher.c **** 
  14:Core/Src/bitcrusher.c **** 
  15:Core/Src/bitcrusher.c **** 
  16:Core/Src/bitcrusher.c **** float cnt = 0;
  17:Core/Src/bitcrusher.c **** 
  18:Core/Src/bitcrusher.c **** 
  19:Core/Src/bitcrusher.c **** float decimator(float sample, float rate, int bit){
  31              		.loc 1 19 51 view -0
  32              		.cfi_startproc
  33              		@ args = 0, pretend = 0, frame = 0
  34              		@ frame_needed = 0, uses_anonymous_args = 0
  35              		@ link register save eliminated.
  20:Core/Src/bitcrusher.c ****     float sampRate = rate * 0.995f + 0.005f;
  36              		.loc 1 20 5 view .LVU1
  37              		.loc 1 20 11 is_stmt 0 view .LVU2
  38 0000 9FED177A 		vldr.32	s14, .L6
ARM GAS  /var/folders/0z/tsy30v1j4xl4_7kw94k978ww0000gn/T//ccAaKleR.s 			page 2


  39 0004 DFED177A 		vldr.32	s15, .L6+4
  21:Core/Src/bitcrusher.c ****     static float value;
  22:Core/Src/bitcrusher.c ****     uint32_t m = 1 << (bit - 1); // bit - 1 --> signal goes max from -32767 to 32767
  23:Core/Src/bitcrusher.c ****     cnt += sampRate;
  40              		.loc 1 23 9 view .LVU3
  41 0008 174A     		ldr	r2, .L6+8
  20:Core/Src/bitcrusher.c ****     float sampRate = rate * 0.995f + 0.005f;
  42              		.loc 1 20 11 view .LVU4
  43 000a E0EE877A 		vfma.f32	s15, s1, s14
  44              	.LVL1:
  21:Core/Src/bitcrusher.c ****     static float value;
  45              		.loc 1 21 5 is_stmt 1 view .LVU5
  22:Core/Src/bitcrusher.c ****     cnt += sampRate;
  46              		.loc 1 22 5 view .LVU6
  47              		.loc 1 23 9 is_stmt 0 view .LVU7
  48 000e 92ED007A 		vldr.32	s14, [r2]
  49 0012 77EE877A 		vadd.f32	s15, s15, s14
  50              	.LVL2:
  24:Core/Src/bitcrusher.c ****     if (cnt >= 1) // sample and hold
  51              		.loc 1 24 8 view .LVU8
  52 0016 F7EE006A 		vmov.f32	s13, #1.0e+0
  53 001a F4EEE67A 		vcmpe.f32	s15, s13
  54 001e F1EE10FA 		vmrs	APSR_nzcv, FPSCR
  23:Core/Src/bitcrusher.c ****     if (cnt >= 1) // sample and hold
  55              		.loc 1 23 9 view .LVU9
  56 0022 C2ED007A 		vstr.32	s15, [r2]
  57              	.LVL3:
  23:Core/Src/bitcrusher.c ****     if (cnt >= 1) // sample and hold
  58              		.loc 1 23 5 is_stmt 1 view .LVU10
  59              		.loc 1 24 5 view .LVU11
  60              		.loc 1 24 8 is_stmt 0 view .LVU12
  61 0026 16DB     		blt	.L5
  25:Core/Src/bitcrusher.c ****     {
  26:Core/Src/bitcrusher.c ****         cnt -= 1;
  62              		.loc 1 26 9 is_stmt 1 view .LVU13
  22:Core/Src/bitcrusher.c ****     cnt += sampRate;
  63              		.loc 1 22 28 is_stmt 0 view .LVU14
  64 0028 0138     		subs	r0, r0, #1
  65              	.LVL4:
  22:Core/Src/bitcrusher.c ****     cnt += sampRate;
  66              		.loc 1 22 20 view .LVU15
  67 002a 0123     		movs	r3, #1
  68 002c 8340     		lsls	r3, r3, r0
  27:Core/Src/bitcrusher.c ****         value = (int32_t)(sample * m) / (float)m;
  69              		.loc 1 27 34 view .LVU16
  70 002e 07EE103A 		vmov	s14, r3	@ int
  71 0032 B8EE477A 		vcvt.f32.u32	s14, s14
  26:Core/Src/bitcrusher.c ****         value = (int32_t)(sample * m) / (float)m;
  72              		.loc 1 26 13 view .LVU17
  73 0036 77EEE67A 		vsub.f32	s15, s15, s13
  74              		.loc 1 27 34 view .LVU18
  75 003a 27EE000A 		vmul.f32	s0, s14, s0
  76              	.LVL5:
  26:Core/Src/bitcrusher.c ****         value = (int32_t)(sample * m) / (float)m;
  77              		.loc 1 26 13 view .LVU19
  78 003e C2ED007A 		vstr.32	s15, [r2]
  79              		.loc 1 27 9 is_stmt 1 view .LVU20
ARM GAS  /var/folders/0z/tsy30v1j4xl4_7kw94k978ww0000gn/T//ccAaKleR.s 			page 3


  80              		.loc 1 27 17 is_stmt 0 view .LVU21
  81 0042 BDEEC00A 		vcvt.s32.f32	s0, s0
  82              		.loc 1 27 15 view .LVU22
  83 0046 094B     		ldr	r3, .L6+12
  84              		.loc 1 27 39 view .LVU23
  85 0048 F8EEC07A 		vcvt.f32.s32	s15, s0
  86 004c 87EE870A 		vdiv.f32	s0, s15, s14
  87              		.loc 1 27 15 view .LVU24
  88 0050 83ED000A 		vstr.32	s0, [r3]
  28:Core/Src/bitcrusher.c ****     }
  29:Core/Src/bitcrusher.c ****     return value;
  89              		.loc 1 29 5 is_stmt 1 view .LVU25
  30:Core/Src/bitcrusher.c **** }...
  90              		.loc 1 30 1 is_stmt 0 view .LVU26
  91 0054 7047     		bx	lr
  92              	.LVL6:
  93              	.L5:
  29:Core/Src/bitcrusher.c ****     return value;
  94              		.loc 1 29 12 view .LVU27
  95 0056 054B     		ldr	r3, .L6+12
  96 0058 93ED000A 		vldr.32	s0, [r3]
  97              	.LVL7:
  29:Core/Src/bitcrusher.c ****     return value;
  98              		.loc 1 29 12 view .LVU28
  99 005c 7047     		bx	lr
 100              	.L7:
 101 005e 00BF     		.align	2
 102              	.L6:
 103 0060 52B87E3F 		.word	1065269330
 104 0064 0AD7A33B 		.word	1000593162
 105 0068 00000000 		.word	.LANCHOR0
 106 006c 00000000 		.word	.LANCHOR1
 107              		.cfi_endproc
 108              	.LFE0:
 110              		.global	cnt
 111              		.section	.bss.cnt,"aw",%nobits
 112              		.align	2
 113              		.set	.LANCHOR0,. + 0
 116              	cnt:
 117 0000 00000000 		.space	4
 118              		.section	.bss.value.0,"aw",%nobits
 119              		.align	2
 120              		.set	.LANCHOR1,. + 0
 123              	value.0:
 124 0000 00000000 		.space	4
 125              		.text
 126              	.Letext0:
 127              		.file 2 "/Users/johannes/Library/Application Support/Code/User/globalStorage/bmd.stm32-for-vscode/
 128              		.file 3 "/Users/johannes/Library/Application Support/Code/User/globalStorage/bmd.stm32-for-vscode/
ARM GAS  /var/folders/0z/tsy30v1j4xl4_7kw94k978ww0000gn/T//ccAaKleR.s 			page 4


DEFINED SYMBOLS
                            *ABS*:0000000000000000 bitcrusher.c
/var/folders/0z/tsy30v1j4xl4_7kw94k978ww0000gn/T//ccAaKleR.s:20     .text.decimator:0000000000000000 $t
/var/folders/0z/tsy30v1j4xl4_7kw94k978ww0000gn/T//ccAaKleR.s:27     .text.decimator:0000000000000000 decimator
/var/folders/0z/tsy30v1j4xl4_7kw94k978ww0000gn/T//ccAaKleR.s:103    .text.decimator:0000000000000060 $d
/var/folders/0z/tsy30v1j4xl4_7kw94k978ww0000gn/T//ccAaKleR.s:116    .bss.cnt:0000000000000000 cnt
/var/folders/0z/tsy30v1j4xl4_7kw94k978ww0000gn/T//ccAaKleR.s:112    .bss.cnt:0000000000000000 $d
/var/folders/0z/tsy30v1j4xl4_7kw94k978ww0000gn/T//ccAaKleR.s:119    .bss.value.0:0000000000000000 $d
/var/folders/0z/tsy30v1j4xl4_7kw94k978ww0000gn/T//ccAaKleR.s:123    .bss.value.0:0000000000000000 value.0

NO UNDEFINED SYMBOLS
