ARM GAS  /var/folders/0z/tsy30v1j4xl4_7kw94k978ww0000gn/T//ccUsMkpM.s 			page 1


   1              		.cpu cortex-m4
   2              		.arch armv7e-m
   3              		.fpu fpv4-sp-d16
   4              		.eabi_attribute 27, 1
   5              		.eabi_attribute 28, 1
   6              		.eabi_attribute 23, 1
   7              		.eabi_attribute 24, 1
   8              		.eabi_attribute 25, 1
   9              		.eabi_attribute 26, 1
  10              		.eabi_attribute 30, 2
  11              		.eabi_attribute 34, 1
  12              		.eabi_attribute 18, 4
  13              		.file	"consoleCommands.c"
  14              		.text
  15              	.Ltext0:
  16              		.cfi_sections	.debug_frame
  17              		.section	.text.ConsoleCommandComment,"ax",%progbits
  18              		.align	1
  19              		.p2align 2,,3
  20              		.syntax unified
  21              		.thumb
  22              		.thumb_func
  24              	ConsoleCommandComment:
  25              	.LVL0:
  26              	.LFB130:
  27              		.file 1 "Core/Src/consoleCommands.c"
   1:Core/Src/consoleCommands.c **** // ConsoleCommands.c
   2:Core/Src/consoleCommands.c **** // This is where you add commands:
   3:Core/Src/consoleCommands.c **** //		1. Add a protoype
   4:Core/Src/consoleCommands.c **** //			static eCommandResult_T ConsoleCommandVer(const char buffer[]);
   5:Core/Src/consoleCommands.c **** //		2. Add the command to mConsoleCommandTable
   6:Core/Src/consoleCommands.c **** //		    {"ver", &ConsoleCommandVer, HELP("Get the version string")},
   7:Core/Src/consoleCommands.c **** //		3. Implement the function, using ConsoleReceiveParam<Type> to get the parameters from the buffe
   8:Core/Src/consoleCommands.c **** 
   9:Core/Src/consoleCommands.c **** #include <string.h>
  10:Core/Src/consoleCommands.c **** #include "stm32f4xx_hal.h"
  11:Core/Src/consoleCommands.c **** 
  12:Core/Src/consoleCommands.c **** #include "consoleCommands.h"
  13:Core/Src/consoleCommands.c **** #include "console.h"
  14:Core/Src/consoleCommands.c **** #include "consoleIo.h"
  15:Core/Src/consoleCommands.c **** #include "version.h"
  16:Core/Src/consoleCommands.c **** 
  17:Core/Src/consoleCommands.c **** #define IGNORE_UNUSED_VARIABLE(x)     if ( &x == &x ) {}
  18:Core/Src/consoleCommands.c **** 
  19:Core/Src/consoleCommands.c **** extern uint16_t saw1_freq;
  20:Core/Src/consoleCommands.c **** extern uint16_t saw2_freq;
  21:Core/Src/consoleCommands.c **** 
  22:Core/Src/consoleCommands.c **** static eCommandResult_T ConsoleCommandComment(const char buffer[]);
  23:Core/Src/consoleCommands.c **** static eCommandResult_T ConsoleCommandVer(const char buffer[]);
  24:Core/Src/consoleCommands.c **** static eCommandResult_T ConsoleCommandHelp(const char buffer[]);
  25:Core/Src/consoleCommands.c **** static eCommandResult_T ConsoleCommandParamSaw1(const char buffer[]);
  26:Core/Src/consoleCommands.c **** static eCommandResult_T ConsoleCommandParamSaw2(const char buffer[]);
  27:Core/Src/consoleCommands.c **** 
  28:Core/Src/consoleCommands.c **** 
  29:Core/Src/consoleCommands.c **** static const sConsoleCommandTable_T mConsoleCommandTable[] =
  30:Core/Src/consoleCommands.c **** {
  31:Core/Src/consoleCommands.c ****     {";", ConsoleCommandComment, HELP("Comment! You do need a space after the semicolon. ")},
ARM GAS  /var/folders/0z/tsy30v1j4xl4_7kw94k978ww0000gn/T//ccUsMkpM.s 			page 2


  32:Core/Src/consoleCommands.c ****     {"help", ConsoleCommandHelp, HELP("Lists the commands available")},
  33:Core/Src/consoleCommands.c ****     {"ver", ConsoleCommandVer, HELP("Get the version string")},
  34:Core/Src/consoleCommands.c ****     {"saw1", ConsoleCommandParamSaw1, HELP("Specify left-channel sawtooth frequency: saw1 220")},
  35:Core/Src/consoleCommands.c ****     {"saw2", ConsoleCommandParamSaw2, HELP("Specify right-channel sawtooth frequency: saw2 220")},
  36:Core/Src/consoleCommands.c **** 
  37:Core/Src/consoleCommands.c **** 	CONSOLE_COMMAND_TABLE_END // must be LAST
  38:Core/Src/consoleCommands.c **** };
  39:Core/Src/consoleCommands.c **** 
  40:Core/Src/consoleCommands.c **** static eCommandResult_T ConsoleCommandComment(const char buffer[])
  41:Core/Src/consoleCommands.c **** {
  28              		.loc 1 41 1 view -0
  29              		.cfi_startproc
  30              		@ args = 0, pretend = 0, frame = 0
  31              		@ frame_needed = 0, uses_anonymous_args = 0
  32              		@ link register save eliminated.
  42:Core/Src/consoleCommands.c **** 	// do nothing
  43:Core/Src/consoleCommands.c **** 	IGNORE_UNUSED_VARIABLE(buffer);
  33              		.loc 1 43 2 view .LVU1
  34              		.loc 1 43 2 view .LVU2
  35              		.loc 1 43 32 view .LVU3
  44:Core/Src/consoleCommands.c **** 	return COMMAND_SUCCESS;
  36              		.loc 1 44 2 view .LVU4
  45:Core/Src/consoleCommands.c **** }
  37              		.loc 1 45 1 is_stmt 0 view .LVU5
  38 0000 0020     		movs	r0, #0
  39              	.LVL1:
  40              		.loc 1 45 1 view .LVU6
  41 0002 7047     		bx	lr
  42              		.cfi_endproc
  43              	.LFE130:
  45              		.section	.text.ConsoleCommandParamSaw2,"ax",%progbits
  46              		.align	1
  47              		.p2align 2,,3
  48              		.syntax unified
  49              		.thumb
  50              		.thumb_func
  52              	ConsoleCommandParamSaw2:
  53              	.LVL2:
  54              	.LFB133:
  46:Core/Src/consoleCommands.c **** 
  47:Core/Src/consoleCommands.c **** static eCommandResult_T ConsoleCommandHelp(const char buffer[])
  48:Core/Src/consoleCommands.c **** {
  49:Core/Src/consoleCommands.c **** 	uint32_t i;
  50:Core/Src/consoleCommands.c **** 	uint32_t tableLength;
  51:Core/Src/consoleCommands.c **** 	eCommandResult_T result = COMMAND_SUCCESS;
  52:Core/Src/consoleCommands.c **** 
  53:Core/Src/consoleCommands.c ****     IGNORE_UNUSED_VARIABLE(buffer);
  54:Core/Src/consoleCommands.c **** 
  55:Core/Src/consoleCommands.c **** 	tableLength = sizeof(mConsoleCommandTable) / sizeof(mConsoleCommandTable[0]);
  56:Core/Src/consoleCommands.c **** 	for ( i = 0u ; i < tableLength - 1u ; i++ )
  57:Core/Src/consoleCommands.c **** 	{
  58:Core/Src/consoleCommands.c **** 		ConsoleIoSendString(mConsoleCommandTable[i].name);
  59:Core/Src/consoleCommands.c **** #if CONSOLE_COMMAND_MAX_HELP_LENGTH > 0
  60:Core/Src/consoleCommands.c **** 		ConsoleIoSendString(" : ");
  61:Core/Src/consoleCommands.c **** 		ConsoleIoSendString(mConsoleCommandTable[i].help);
  62:Core/Src/consoleCommands.c **** #endif // CONSOLE_COMMAND_MAX_HELP_LENGTH > 0
  63:Core/Src/consoleCommands.c **** 		ConsoleIoSendString(STR_ENDLINE);
ARM GAS  /var/folders/0z/tsy30v1j4xl4_7kw94k978ww0000gn/T//ccUsMkpM.s 			page 3


  64:Core/Src/consoleCommands.c **** 	}
  65:Core/Src/consoleCommands.c **** 	return result;
  66:Core/Src/consoleCommands.c **** }
  67:Core/Src/consoleCommands.c **** 
  68:Core/Src/consoleCommands.c **** static eCommandResult_T ConsoleCommandParamSaw1(const char buffer[])
  69:Core/Src/consoleCommands.c **** {
  70:Core/Src/consoleCommands.c **** 	int16_t parameterInt;
  71:Core/Src/consoleCommands.c **** 	eCommandResult_T result;
  72:Core/Src/consoleCommands.c **** 	result = ConsoleReceiveParamInt16(buffer, 1, &parameterInt);
  73:Core/Src/consoleCommands.c **** 	if ( COMMAND_SUCCESS == result )
  74:Core/Src/consoleCommands.c **** 	{
  75:Core/Src/consoleCommands.c **** 		saw1_freq = parameterInt;
  76:Core/Src/consoleCommands.c **** 	}
  77:Core/Src/consoleCommands.c **** 	return result;
  78:Core/Src/consoleCommands.c **** }
  79:Core/Src/consoleCommands.c **** 
  80:Core/Src/consoleCommands.c **** static eCommandResult_T ConsoleCommandParamSaw2(const char buffer[])
  81:Core/Src/consoleCommands.c **** {
  55              		.loc 1 81 1 is_stmt 1 view -0
  56              		.cfi_startproc
  57              		@ args = 0, pretend = 0, frame = 8
  58              		@ frame_needed = 0, uses_anonymous_args = 0
  82:Core/Src/consoleCommands.c **** 	int16_t parameterInt;
  59              		.loc 1 82 2 view .LVU8
  83:Core/Src/consoleCommands.c **** 	eCommandResult_T result;
  60              		.loc 1 83 2 view .LVU9
  84:Core/Src/consoleCommands.c **** 	result = ConsoleReceiveParamInt16(buffer, 1, &parameterInt);
  61              		.loc 1 84 2 view .LVU10
  81:Core/Src/consoleCommands.c **** 	int16_t parameterInt;
  62              		.loc 1 81 1 is_stmt 0 view .LVU11
  63 0000 00B5     		push	{lr}
  64              		.cfi_def_cfa_offset 4
  65              		.cfi_offset 14, -4
  66 0002 83B0     		sub	sp, sp, #12
  67              		.cfi_def_cfa_offset 16
  68              		.loc 1 84 11 view .LVU12
  69 0004 0DF10602 		add	r2, sp, #6
  70 0008 0121     		movs	r1, #1
  71 000a FFF7FEFF 		bl	ConsoleReceiveParamInt16
  72              	.LVL3:
  85:Core/Src/consoleCommands.c **** 	if ( COMMAND_SUCCESS == result )
  73              		.loc 1 85 2 is_stmt 1 view .LVU13
  74              		.loc 1 85 5 is_stmt 0 view .LVU14
  75 000e 18B9     		cbnz	r0, .L4
  86:Core/Src/consoleCommands.c **** 	{
  87:Core/Src/consoleCommands.c **** 		saw2_freq = parameterInt;
  76              		.loc 1 87 3 is_stmt 1 view .LVU15
  77              		.loc 1 87 13 is_stmt 0 view .LVU16
  78 0010 034B     		ldr	r3, .L6
  79 0012 BDF80620 		ldrh	r2, [sp, #6]
  80 0016 1A80     		strh	r2, [r3]	@ movhi
  81              	.L4:
  88:Core/Src/consoleCommands.c **** 	}
  89:Core/Src/consoleCommands.c **** 	return result;
  82              		.loc 1 89 2 is_stmt 1 view .LVU17
  90:Core/Src/consoleCommands.c **** }
  83              		.loc 1 90 1 is_stmt 0 view .LVU18
ARM GAS  /var/folders/0z/tsy30v1j4xl4_7kw94k978ww0000gn/T//ccUsMkpM.s 			page 4


  84 0018 03B0     		add	sp, sp, #12
  85              		.cfi_def_cfa_offset 4
  86              		@ sp needed
  87 001a 5DF804FB 		ldr	pc, [sp], #4
  88              	.L7:
  89 001e 00BF     		.align	2
  90              	.L6:
  91 0020 00000000 		.word	saw2_freq
  92              		.cfi_endproc
  93              	.LFE133:
  95              		.section	.text.ConsoleCommandParamSaw1,"ax",%progbits
  96              		.align	1
  97              		.p2align 2,,3
  98              		.syntax unified
  99              		.thumb
 100              		.thumb_func
 102              	ConsoleCommandParamSaw1:
 103              	.LVL4:
 104              	.LFB132:
  69:Core/Src/consoleCommands.c **** 	int16_t parameterInt;
 105              		.loc 1 69 1 is_stmt 1 view -0
 106              		.cfi_startproc
 107              		@ args = 0, pretend = 0, frame = 8
 108              		@ frame_needed = 0, uses_anonymous_args = 0
  70:Core/Src/consoleCommands.c **** 	eCommandResult_T result;
 109              		.loc 1 70 2 view .LVU20
  71:Core/Src/consoleCommands.c **** 	result = ConsoleReceiveParamInt16(buffer, 1, &parameterInt);
 110              		.loc 1 71 2 view .LVU21
  72:Core/Src/consoleCommands.c **** 	if ( COMMAND_SUCCESS == result )
 111              		.loc 1 72 2 view .LVU22
  69:Core/Src/consoleCommands.c **** 	int16_t parameterInt;
 112              		.loc 1 69 1 is_stmt 0 view .LVU23
 113 0000 00B5     		push	{lr}
 114              		.cfi_def_cfa_offset 4
 115              		.cfi_offset 14, -4
 116 0002 83B0     		sub	sp, sp, #12
 117              		.cfi_def_cfa_offset 16
  72:Core/Src/consoleCommands.c **** 	if ( COMMAND_SUCCESS == result )
 118              		.loc 1 72 11 view .LVU24
 119 0004 0DF10602 		add	r2, sp, #6
 120 0008 0121     		movs	r1, #1
 121 000a FFF7FEFF 		bl	ConsoleReceiveParamInt16
 122              	.LVL5:
  73:Core/Src/consoleCommands.c **** 	{
 123              		.loc 1 73 2 is_stmt 1 view .LVU25
  73:Core/Src/consoleCommands.c **** 	{
 124              		.loc 1 73 5 is_stmt 0 view .LVU26
 125 000e 18B9     		cbnz	r0, .L9
  75:Core/Src/consoleCommands.c **** 	}
 126              		.loc 1 75 3 is_stmt 1 view .LVU27
  75:Core/Src/consoleCommands.c **** 	}
 127              		.loc 1 75 13 is_stmt 0 view .LVU28
 128 0010 034B     		ldr	r3, .L11
 129 0012 BDF80620 		ldrh	r2, [sp, #6]
 130 0016 1A80     		strh	r2, [r3]	@ movhi
 131              	.L9:
  77:Core/Src/consoleCommands.c **** }
ARM GAS  /var/folders/0z/tsy30v1j4xl4_7kw94k978ww0000gn/T//ccUsMkpM.s 			page 5


 132              		.loc 1 77 2 is_stmt 1 view .LVU29
  78:Core/Src/consoleCommands.c **** 
 133              		.loc 1 78 1 is_stmt 0 view .LVU30
 134 0018 03B0     		add	sp, sp, #12
 135              		.cfi_def_cfa_offset 4
 136              		@ sp needed
 137 001a 5DF804FB 		ldr	pc, [sp], #4
 138              	.L12:
 139 001e 00BF     		.align	2
 140              	.L11:
 141 0020 00000000 		.word	saw1_freq
 142              		.cfi_endproc
 143              	.LFE132:
 145              		.section	.rodata.ConsoleCommandVer.str1.4,"aMS",%progbits,1
 146              		.align	2
 147              	.LC0:
 148 0000 4D455320 		.ascii	"MES Minisynth STM32F407G-disco 0.1\000"
 148      4D696E69 
 148      73796E74 
 148      68205354 
 148      4D333246 
 149 0023 00       		.align	2
 150              	.LC1:
 151 0024 0D0A00   		.ascii	"\015\012\000"
 152              		.section	.text.ConsoleCommandVer,"ax",%progbits
 153              		.align	1
 154              		.p2align 2,,3
 155              		.syntax unified
 156              		.thumb
 157              		.thumb_func
 159              	ConsoleCommandVer:
 160              	.LVL6:
 161              	.LFB134:
  91:Core/Src/consoleCommands.c **** 
  92:Core/Src/consoleCommands.c **** static eCommandResult_T ConsoleCommandVer(const char buffer[])
  93:Core/Src/consoleCommands.c **** {
 162              		.loc 1 93 1 is_stmt 1 view -0
 163              		.cfi_startproc
 164              		@ args = 0, pretend = 0, frame = 0
 165              		@ frame_needed = 0, uses_anonymous_args = 0
  94:Core/Src/consoleCommands.c **** 	eCommandResult_T result = COMMAND_SUCCESS;
 166              		.loc 1 94 2 view .LVU32
  95:Core/Src/consoleCommands.c **** 
  96:Core/Src/consoleCommands.c ****     IGNORE_UNUSED_VARIABLE(buffer);
 167              		.loc 1 96 5 view .LVU33
 168              		.loc 1 96 5 view .LVU34
 169              		.loc 1 96 35 view .LVU35
  97:Core/Src/consoleCommands.c **** 
  98:Core/Src/consoleCommands.c **** 	ConsoleIoSendString(VERSION_STRING);
 170              		.loc 1 98 2 view .LVU36
  93:Core/Src/consoleCommands.c **** 	eCommandResult_T result = COMMAND_SUCCESS;
 171              		.loc 1 93 1 is_stmt 0 view .LVU37
 172 0000 08B5     		push	{r3, lr}
 173              		.cfi_def_cfa_offset 8
 174              		.cfi_offset 3, -8
 175              		.cfi_offset 14, -4
 176              		.loc 1 98 2 view .LVU38
ARM GAS  /var/folders/0z/tsy30v1j4xl4_7kw94k978ww0000gn/T//ccUsMkpM.s 			page 6


 177 0002 0448     		ldr	r0, .L15
 178              	.LVL7:
 179              		.loc 1 98 2 view .LVU39
 180 0004 FFF7FEFF 		bl	ConsoleIoSendString
 181              	.LVL8:
  99:Core/Src/consoleCommands.c **** 	ConsoleIoSendString(STR_ENDLINE);
 182              		.loc 1 99 2 is_stmt 1 view .LVU40
 183 0008 0348     		ldr	r0, .L15+4
 184 000a FFF7FEFF 		bl	ConsoleIoSendString
 185              	.LVL9:
 100:Core/Src/consoleCommands.c **** 	return result;
 186              		.loc 1 100 2 view .LVU41
 101:Core/Src/consoleCommands.c **** }
 187              		.loc 1 101 1 is_stmt 0 view .LVU42
 188 000e 0020     		movs	r0, #0
 189 0010 08BD     		pop	{r3, pc}
 190              	.L16:
 191 0012 00BF     		.align	2
 192              	.L15:
 193 0014 00000000 		.word	.LC0
 194 0018 24000000 		.word	.LC1
 195              		.cfi_endproc
 196              	.LFE134:
 198              		.section	.rodata.ConsoleCommandHelp.str1.4,"aMS",%progbits,1
 199              		.align	2
 200              	.LC2:
 201 0000 203A2000 		.ascii	" : \000"
 202              		.section	.text.ConsoleCommandHelp,"ax",%progbits
 203              		.align	1
 204              		.p2align 2,,3
 205              		.syntax unified
 206              		.thumb
 207              		.thumb_func
 209              	ConsoleCommandHelp:
 210              	.LVL10:
 211              	.LFB131:
  48:Core/Src/consoleCommands.c **** 	uint32_t i;
 212              		.loc 1 48 1 is_stmt 1 view -0
 213              		.cfi_startproc
 214              		@ args = 0, pretend = 0, frame = 0
 215              		@ frame_needed = 0, uses_anonymous_args = 0
  49:Core/Src/consoleCommands.c **** 	uint32_t tableLength;
 216              		.loc 1 49 2 view .LVU44
  50:Core/Src/consoleCommands.c **** 	eCommandResult_T result = COMMAND_SUCCESS;
 217              		.loc 1 50 2 view .LVU45
  51:Core/Src/consoleCommands.c **** 
 218              		.loc 1 51 2 view .LVU46
  53:Core/Src/consoleCommands.c **** 
 219              		.loc 1 53 5 view .LVU47
  53:Core/Src/consoleCommands.c **** 
 220              		.loc 1 53 5 view .LVU48
  53:Core/Src/consoleCommands.c **** 
 221              		.loc 1 53 35 view .LVU49
  55:Core/Src/consoleCommands.c **** 	for ( i = 0u ; i < tableLength - 1u ; i++ )
 222              		.loc 1 55 2 view .LVU50
  56:Core/Src/consoleCommands.c **** 	{
 223              		.loc 1 56 2 view .LVU51
ARM GAS  /var/folders/0z/tsy30v1j4xl4_7kw94k978ww0000gn/T//ccUsMkpM.s 			page 7


  56:Core/Src/consoleCommands.c **** 	{
 224              		.loc 1 56 19 view .LVU52
  48:Core/Src/consoleCommands.c **** 	uint32_t i;
 225              		.loc 1 48 1 is_stmt 0 view .LVU53
 226 0000 F8B5     		push	{r3, r4, r5, r6, r7, lr}
 227              		.cfi_def_cfa_offset 24
 228              		.cfi_offset 3, -24
 229              		.cfi_offset 4, -20
 230              		.cfi_offset 5, -16
 231              		.cfi_offset 6, -12
 232              		.cfi_offset 7, -8
 233              		.cfi_offset 14, -4
 234 0002 0B4C     		ldr	r4, .L21
  60:Core/Src/consoleCommands.c **** 		ConsoleIoSendString(mConsoleCommandTable[i].help);
 235              		.loc 1 60 3 view .LVU54
 236 0004 0B4F     		ldr	r7, .L21+4
  63:Core/Src/consoleCommands.c **** 	}
 237              		.loc 1 63 3 view .LVU55
 238 0006 0C4E     		ldr	r6, .L21+8
 239 0008 04F5B475 		add	r5, r4, #360
 240              	.LVL11:
 241              	.L18:
  58:Core/Src/consoleCommands.c **** #if CONSOLE_COMMAND_MAX_HELP_LENGTH > 0
 242              		.loc 1 58 3 is_stmt 1 discriminator 3 view .LVU56
 243 000c 54F8080C 		ldr	r0, [r4, #-8]
 244 0010 FFF7FEFF 		bl	ConsoleIoSendString
 245              	.LVL12:
  60:Core/Src/consoleCommands.c **** 		ConsoleIoSendString(mConsoleCommandTable[i].help);
 246              		.loc 1 60 3 discriminator 3 view .LVU57
 247 0014 3846     		mov	r0, r7
 248 0016 FFF7FEFF 		bl	ConsoleIoSendString
 249              	.LVL13:
  61:Core/Src/consoleCommands.c **** #endif // CONSOLE_COMMAND_MAX_HELP_LENGTH > 0
 250              		.loc 1 61 3 discriminator 3 view .LVU58
 251 001a 2046     		mov	r0, r4
 252 001c FFF7FEFF 		bl	ConsoleIoSendString
 253              	.LVL14:
  63:Core/Src/consoleCommands.c **** 	}
 254              		.loc 1 63 3 discriminator 3 view .LVU59
  56:Core/Src/consoleCommands.c **** 	{
 255              		.loc 1 56 19 is_stmt 0 discriminator 3 view .LVU60
 256 0020 4834     		adds	r4, r4, #72
  63:Core/Src/consoleCommands.c **** 	}
 257              		.loc 1 63 3 discriminator 3 view .LVU61
 258 0022 3046     		mov	r0, r6
 259 0024 FFF7FEFF 		bl	ConsoleIoSendString
 260              	.LVL15:
  56:Core/Src/consoleCommands.c **** 	{
 261              		.loc 1 56 41 is_stmt 1 discriminator 3 view .LVU62
  56:Core/Src/consoleCommands.c **** 	{
 262              		.loc 1 56 19 discriminator 3 view .LVU63
 263 0028 AC42     		cmp	r4, r5
 264 002a EFD1     		bne	.L18
  65:Core/Src/consoleCommands.c **** }
 265              		.loc 1 65 2 view .LVU64
  66:Core/Src/consoleCommands.c **** 
 266              		.loc 1 66 1 is_stmt 0 view .LVU65
ARM GAS  /var/folders/0z/tsy30v1j4xl4_7kw94k978ww0000gn/T//ccUsMkpM.s 			page 8


 267 002c 0020     		movs	r0, #0
 268 002e F8BD     		pop	{r3, r4, r5, r6, r7, pc}
 269              	.L22:
 270              		.align	2
 271              	.L21:
 272 0030 08000000 		.word	.LANCHOR0+8
 273 0034 00000000 		.word	.LC2
 274 0038 24000000 		.word	.LC1
 275              		.cfi_endproc
 276              	.LFE131:
 278              		.section	.text.ConsoleCommandsGetTable,"ax",%progbits
 279              		.align	1
 280              		.p2align 2,,3
 281              		.global	ConsoleCommandsGetTable
 282              		.syntax unified
 283              		.thumb
 284              		.thumb_func
 286              	ConsoleCommandsGetTable:
 287              	.LFB135:
 102:Core/Src/consoleCommands.c **** 
 103:Core/Src/consoleCommands.c **** 
 104:Core/Src/consoleCommands.c **** const sConsoleCommandTable_T* ConsoleCommandsGetTable(void)
 105:Core/Src/consoleCommands.c **** {
 288              		.loc 1 105 1 is_stmt 1 view -0
 289              		.cfi_startproc
 290              		@ args = 0, pretend = 0, frame = 0
 291              		@ frame_needed = 0, uses_anonymous_args = 0
 292              		@ link register save eliminated.
 106:Core/Src/consoleCommands.c **** 	return (mConsoleCommandTable);
 293              		.loc 1 106 2 view .LVU67
 107:Core/Src/consoleCommands.c **** }
 294              		.loc 1 107 1 is_stmt 0 view .LVU68
 295 0000 0048     		ldr	r0, .L24
 296 0002 7047     		bx	lr
 297              	.L25:
 298              		.align	2
 299              	.L24:
 300 0004 00000000 		.word	.LANCHOR0
 301              		.cfi_endproc
 302              	.LFE135:
 304              		.section	.rodata.str1.4,"aMS",%progbits,1
 305              		.align	2
 306              	.LC3:
 307 0000 3B00     		.ascii	";\000"
 308 0002 0000     		.align	2
 309              	.LC4:
 310 0004 68656C70 		.ascii	"help\000"
 310      00
 311 0009 000000   		.align	2
 312              	.LC5:
 313 000c 76657200 		.ascii	"ver\000"
 314              		.align	2
 315              	.LC6:
 316 0010 73617731 		.ascii	"saw1\000"
 316      00
 317 0015 000000   		.align	2
 318              	.LC7:
ARM GAS  /var/folders/0z/tsy30v1j4xl4_7kw94k978ww0000gn/T//ccUsMkpM.s 			page 9


 319 0018 73617732 		.ascii	"saw2\000"
 319      00
 320              		.section	.rodata.mConsoleCommandTable,"a"
 321              		.align	2
 322              		.set	.LANCHOR0,. + 0
 325              	mConsoleCommandTable:
 326 0000 00000000 		.word	.LC3
 327 0004 00000000 		.word	ConsoleCommandComment
 328 0008 436F6D6D 		.ascii	"Comment! You do need a space after the semicolon. \000"
 328      656E7421 
 328      20596F75 
 328      20646F20 
 328      6E656564 
 329 003b 00000000 		.space	13
 329      00000000 
 329      00000000 
 329      00
 330 0048 04000000 		.word	.LC4
 331 004c 00000000 		.word	ConsoleCommandHelp
 332 0050 4C697374 		.ascii	"Lists the commands available\000"
 332      73207468 
 332      6520636F 
 332      6D6D616E 
 332      64732061 
 333 006d 00000000 		.space	35
 333      00000000 
 333      00000000 
 333      00000000 
 333      00000000 
 334 0090 0C000000 		.word	.LC5
 335 0094 00000000 		.word	ConsoleCommandVer
 336 0098 47657420 		.ascii	"Get the version string\000"
 336      74686520 
 336      76657273 
 336      696F6E20 
 336      73747269 
 337 00af 00000000 		.space	41
 337      00000000 
 337      00000000 
 337      00000000 
 337      00000000 
 338 00d8 10000000 		.word	.LC6
 339 00dc 00000000 		.word	ConsoleCommandParamSaw1
 340 00e0 53706563 		.ascii	"Specify left-channel sawtooth frequency: saw1 220\000"
 340      69667920 
 340      6C656674 
 340      2D636861 
 340      6E6E656C 
 341 0112 00000000 		.space	14
 341      00000000 
 341      00000000 
 341      0000
 342 0120 18000000 		.word	.LC7
 343 0124 00000000 		.word	ConsoleCommandParamSaw2
 344 0128 53706563 		.ascii	"Specify right-channel sawtooth frequency: saw2 220\000"
 344      69667920 
 344      72696768 
ARM GAS  /var/folders/0z/tsy30v1j4xl4_7kw94k978ww0000gn/T//ccUsMkpM.s 			page 10


 344      742D6368 
 344      616E6E65 
 345 015b 00000000 		.space	13
 345      00000000 
 345      00000000 
 345      00
 346 0168 00000000 		.word	0
 347 016c 00000000 		.word	0
 348 0170 00       		.ascii	"\000"
 349 0171 00000000 		.space	63
 349      00000000 
 349      00000000 
 349      00000000 
 349      00000000 
 350              		.text
 351              	.Letext0:
 352              		.file 2 "/Users/johannes/Library/Application Support/Code/User/globalStorage/bmd.stm32-for-vscode/
 353              		.file 3 "/Users/johannes/Library/Application Support/Code/User/globalStorage/bmd.stm32-for-vscode/
 354              		.file 4 "Core/Inc/console.h"
 355              		.file 5 "Core/Inc/consoleCommands.h"
 356              		.file 6 "Core/Inc/consoleIo.h"
ARM GAS  /var/folders/0z/tsy30v1j4xl4_7kw94k978ww0000gn/T//ccUsMkpM.s 			page 11

