ARM GAS  /var/folders/0z/tsy30v1j4xl4_7kw94k978ww0000gn/T//ccpRaHw6.s 			page 1


   1              		.cpu cortex-m4
   2              		.arch armv7e-m
   3              		.fpu fpv4-sp-d16
   4              		.eabi_attribute 27, 1
   5              		.eabi_attribute 28, 1
   6              		.eabi_attribute 20, 1
   7              		.eabi_attribute 21, 1
   8              		.eabi_attribute 23, 3
   9              		.eabi_attribute 24, 1
  10              		.eabi_attribute 25, 1
  11              		.eabi_attribute 26, 1
  12              		.eabi_attribute 30, 2
  13              		.eabi_attribute 34, 1
  14              		.eabi_attribute 18, 4
  15              		.file	"consoleIo.c"
  16              		.text
  17              	.Ltext0:
  18              		.cfi_sections	.debug_frame
  19              		.section	.text.ConsoleIoInit,"ax",%progbits
  20              		.align	1
  21              		.p2align 2,,3
  22              		.global	ConsoleIoInit
  23              		.syntax unified
  24              		.thumb
  25              		.thumb_func
  27              	ConsoleIoInit:
  28              	.LFB3:
  29              		.file 1 "Core/Src/consoleIo.c"
   1:Core/Src/consoleIo.c **** // Console IO is a wrapper between the actual in and output and the console code
   2:Core/Src/consoleIo.c **** // In an embedded system, this might interface to a UART driver.
   3:Core/Src/consoleIo.c **** 
   4:Core/Src/consoleIo.c **** #include "consoleIo.h"
   5:Core/Src/consoleIo.c **** #include <stdio.h>
   6:Core/Src/consoleIo.c **** 
   7:Core/Src/consoleIo.c **** #include "SEGGER_RTT.h"
   8:Core/Src/consoleIo.c **** 
   9:Core/Src/consoleIo.c **** 
  10:Core/Src/consoleIo.c **** 
  11:Core/Src/consoleIo.c **** // static char r;
  12:Core/Src/consoleIo.c **** 
  13:Core/Src/consoleIo.c **** eConsoleError ConsoleIoInit(void)
  14:Core/Src/consoleIo.c **** {
  30              		.loc 1 14 1 view -0
  31              		.cfi_startproc
  32              		@ args = 0, pretend = 0, frame = 0
  33              		@ frame_needed = 0, uses_anonymous_args = 0
  34              		@ link register save eliminated.
  15:Core/Src/consoleIo.c **** 	return CONSOLE_SUCCESS;
  35              		.loc 1 15 2 view .LVU1
  16:Core/Src/consoleIo.c **** }
  36              		.loc 1 16 1 is_stmt 0 view .LVU2
  37 0000 0020     		movs	r0, #0
  38 0002 7047     		bx	lr
  39              		.cfi_endproc
  40              	.LFE3:
  42              		.section	.text.ConsoleIoReceive,"ax",%progbits
  43              		.align	1
ARM GAS  /var/folders/0z/tsy30v1j4xl4_7kw94k978ww0000gn/T//ccpRaHw6.s 			page 2


  44              		.p2align 2,,3
  45              		.global	ConsoleIoReceive
  46              		.syntax unified
  47              		.thumb
  48              		.thumb_func
  50              	ConsoleIoReceive:
  51              	.LVL0:
  52              	.LFB4:
  17:Core/Src/consoleIo.c **** 
  18:Core/Src/consoleIo.c **** // This is modified for the Wokwi RPi Pico simulator. It works fine 
  19:Core/Src/consoleIo.c **** // but that's partially because the serial terminal sends all of the 
  20:Core/Src/consoleIo.c **** // characters at a time without losing any of them. What if this function
  21:Core/Src/consoleIo.c **** // wasn't called fast enough?
  22:Core/Src/consoleIo.c **** eConsoleError ConsoleIoReceive(uint8_t *buffer, const uint32_t bufferLength, uint32_t *readLength)
  23:Core/Src/consoleIo.c **** {
  53              		.loc 1 23 1 is_stmt 1 view -0
  54              		.cfi_startproc
  55              		@ args = 0, pretend = 0, frame = 0
  56              		@ frame_needed = 0, uses_anonymous_args = 0
  24:Core/Src/consoleIo.c **** 	uint32_t i = 0;
  57              		.loc 1 24 2 view .LVU4
  23:Core/Src/consoleIo.c **** 	uint32_t i = 0;
  58              		.loc 1 23 1 is_stmt 0 view .LVU5
  59 0000 70B5     		push	{r4, r5, r6, lr}
  60              		.cfi_def_cfa_offset 16
  61              		.cfi_offset 4, -16
  62              		.cfi_offset 5, -12
  63              		.cfi_offset 6, -8
  64              		.cfi_offset 14, -4
  23:Core/Src/consoleIo.c **** 	uint32_t i = 0;
  65              		.loc 1 23 1 view .LVU6
  66 0002 0546     		mov	r5, r0
  67 0004 1646     		mov	r6, r2
  68 0006 441E     		subs	r4, r0, #1
  69              	.LVL1:
  70              	.L4:
  25:Core/Src/consoleIo.c **** 	char ch;
  71              		.loc 1 25 2 is_stmt 1 discriminator 1 view .LVU7
  26:Core/Src/consoleIo.c **** 
  27:Core/Src/consoleIo.c **** 	do {
  72              		.loc 1 27 2 discriminator 1 view .LVU8
  28:Core/Src/consoleIo.c ****     ch = SEGGER_RTT_WaitKey();
  73              		.loc 1 28 5 discriminator 1 view .LVU9
  74              		.loc 1 28 10 is_stmt 0 discriminator 1 view .LVU10
  75 0008 FFF7FEFF 		bl	SEGGER_RTT_WaitKey
  76              	.LVL2:
  77 000c 2346     		mov	r3, r4
  78              		.loc 1 28 8 discriminator 1 view .LVU11
  79 000e C1B2     		uxtb	r1, r0
  80              	.LVL3:
  29:Core/Src/consoleIo.c ****     buffer[i] = (uint8_t) ch;
  81              		.loc 1 29 5 is_stmt 1 discriminator 1 view .LVU12
  82 0010 0233     		adds	r3, r3, #2
  30:Core/Src/consoleIo.c **** 	i++;
  31:Core/Src/consoleIo.c ****   	} while (ch != '\n');
  83              		.loc 1 31 16 is_stmt 0 discriminator 1 view .LVU13
  84 0012 0A29     		cmp	r1, #10
ARM GAS  /var/folders/0z/tsy30v1j4xl4_7kw94k978ww0000gn/T//ccpRaHw6.s 			page 3


  29:Core/Src/consoleIo.c ****     buffer[i] = (uint8_t) ch;
  85              		.loc 1 29 15 discriminator 1 view .LVU14
  86 0014 04F8011F 		strb	r1, [r4, #1]!
  87              	.LVL4:
  30:Core/Src/consoleIo.c **** 	i++;
  88              		.loc 1 30 2 is_stmt 1 discriminator 1 view .LVU15
  89 0018 A3EB0503 		sub	r3, r3, r5
  90              	.LVL5:
  91              		.loc 1 31 16 discriminator 1 view .LVU16
  92 001c F4D1     		bne	.L4
  32:Core/Src/consoleIo.c **** 
  33:Core/Src/consoleIo.c **** 	*readLength = i;
  93              		.loc 1 33 2 view .LVU17
  94              		.loc 1 33 14 is_stmt 0 view .LVU18
  95 001e 3360     		str	r3, [r6]
  34:Core/Src/consoleIo.c **** 	return CONSOLE_SUCCESS;
  96              		.loc 1 34 2 is_stmt 1 view .LVU19
  35:Core/Src/consoleIo.c **** }
  97              		.loc 1 35 1 is_stmt 0 view .LVU20
  98 0020 0020     		movs	r0, #0
  99 0022 70BD     		pop	{r4, r5, r6, pc}
 100              		.loc 1 35 1 view .LVU21
 101              		.cfi_endproc
 102              	.LFE4:
 104              		.section	.rodata.ConsoleIoSendString.str1.4,"aMS",%progbits,1
 105              		.align	2
 106              	.LC0:
 107 0000 257300   		.ascii	"%s\000"
 108              		.section	.text.ConsoleIoSendString,"ax",%progbits
 109              		.align	1
 110              		.p2align 2,,3
 111              		.global	ConsoleIoSendString
 112              		.syntax unified
 113              		.thumb
 114              		.thumb_func
 116              	ConsoleIoSendString:
 117              	.LVL6:
 118              	.LFB5:
  36:Core/Src/consoleIo.c **** 
  37:Core/Src/consoleIo.c **** eConsoleError ConsoleIoSendString(const char *buffer)
  38:Core/Src/consoleIo.c **** {
 119              		.loc 1 38 1 is_stmt 1 view -0
 120              		.cfi_startproc
 121              		@ args = 0, pretend = 0, frame = 0
 122              		@ frame_needed = 0, uses_anonymous_args = 0
  39:Core/Src/consoleIo.c **** 
  40:Core/Src/consoleIo.c **** 	SEGGER_RTT_printf(0, "%s", buffer);
 123              		.loc 1 40 2 view .LVU23
  38:Core/Src/consoleIo.c **** 
 124              		.loc 1 38 1 is_stmt 0 view .LVU24
 125 0000 08B5     		push	{r3, lr}
 126              		.cfi_def_cfa_offset 8
 127              		.cfi_offset 3, -8
 128              		.cfi_offset 14, -4
  38:Core/Src/consoleIo.c **** 
 129              		.loc 1 38 1 view .LVU25
 130 0002 0246     		mov	r2, r0
ARM GAS  /var/folders/0z/tsy30v1j4xl4_7kw94k978ww0000gn/T//ccpRaHw6.s 			page 4


 131              		.loc 1 40 2 view .LVU26
 132 0004 0249     		ldr	r1, .L9
 133 0006 0020     		movs	r0, #0
 134              	.LVL7:
 135              		.loc 1 40 2 view .LVU27
 136 0008 FFF7FEFF 		bl	SEGGER_RTT_printf
 137              	.LVL8:
  41:Core/Src/consoleIo.c **** 	return CONSOLE_SUCCESS;
 138              		.loc 1 41 2 is_stmt 1 view .LVU28
  42:Core/Src/consoleIo.c **** }
 139              		.loc 1 42 1 is_stmt 0 view .LVU29
 140 000c 0020     		movs	r0, #0
 141 000e 08BD     		pop	{r3, pc}
 142              	.L10:
 143              		.align	2
 144              	.L9:
 145 0010 00000000 		.word	.LC0
 146              		.cfi_endproc
 147              	.LFE5:
 149              		.text
 150              	.Letext0:
 151              		.file 2 "/Users/johannes/Library/Application Support/Code/User/globalStorage/bmd.stm32-for-vscode/
 152              		.file 3 "/Users/johannes/Library/Application Support/Code/User/globalStorage/bmd.stm32-for-vscode/
 153              		.file 4 "Core/Inc/consoleIo.h"
 154              		.file 5 "Core/Inc/SEGGER_RTT.h"
ARM GAS  /var/folders/0z/tsy30v1j4xl4_7kw94k978ww0000gn/T//ccpRaHw6.s 			page 5

