ARM GAS  /var/folders/lp/x54gwt890xv47sdkqj1k04q40000gn/T//cczx2gXV.s 			page 1


   1              		.cpu cortex-m4
   2              		.arch armv7e-m
   3              		.fpu fpv4-sp-d16
   4              		.eabi_attribute 27, 1
   5              		.eabi_attribute 28, 1
   6              		.eabi_attribute 20, 1
   7              		.eabi_attribute 21, 1
   8              		.eabi_attribute 23, 3
   9              		.eabi_attribute 24, 1
  10              		.eabi_attribute 25, 1
  11              		.eabi_attribute 26, 1
  12              		.eabi_attribute 30, 2
  13              		.eabi_attribute 34, 1
  14              		.eabi_attribute 18, 4
  15              		.file	"console.c"
  16              		.text
  17              	.Ltext0:
  18              		.cfi_sections	.debug_frame
  19              		.file 1 "Core/Src/console.c"
  20              		.section	.text.smallItoa.constprop.0,"ax",%progbits
  21              		.align	1
  22              		.p2align 2,,3
  23              		.syntax unified
  24              		.thumb
  25              		.thumb_func
  27              	smallItoa.constprop.0:
  28              	.LVL0:
  29              	.LFB17:
   1:Core/Src/console.c **** // Console is the generic interface to the command line.
   2:Core/Src/console.c **** // These functions should not need signficant modification, only
   3:Core/Src/console.c **** // to be called from the normal loop. Note that adding commands should
   4:Core/Src/console.c **** // be done in console commands.
   5:Core/Src/console.c **** 
   6:Core/Src/console.c **** #include <string.h>  // for NULL
   7:Core/Src/console.c **** #include <stdlib.h>  // for atoi and itoa (though this code implement a version of that)
   8:Core/Src/console.c **** #include <stdbool.h>
   9:Core/Src/console.c **** #include "console.h"
  10:Core/Src/console.c **** #include "consoleIo.h"
  11:Core/Src/console.c **** #include "consoleCommands.h"
  12:Core/Src/console.c **** 
  13:Core/Src/console.c **** #ifndef MIN
  14:Core/Src/console.c ****   #define MIN(X, Y)		(((X) < (Y)) ? (X) : (Y))
  15:Core/Src/console.c **** #endif
  16:Core/Src/console.c **** 
  17:Core/Src/console.c **** #define NOT_FOUND		-1
  18:Core/Src/console.c **** #define INT16_MAX_STR_LENGTH 8 // -65534: six characters plus a two NULLs
  19:Core/Src/console.c **** #define INT32_MAX_STR_LENGTH 16
  20:Core/Src/console.c **** #define NULL_CHAR            '\0'
  21:Core/Src/console.c **** #define CR_CHAR              '\r'
  22:Core/Src/console.c **** #define LF_CHAR              '\n'
  23:Core/Src/console.c **** 
  24:Core/Src/console.c **** // global variables
  25:Core/Src/console.c **** char mReceiveBuffer[CONSOLE_COMMAND_MAX_LENGTH];
  26:Core/Src/console.c **** uint32_t mReceivedSoFar;
  27:Core/Src/console.c **** bool mReceiveBufferNeedsChecking = false;
  28:Core/Src/console.c **** 
  29:Core/Src/console.c **** // local functions
ARM GAS  /var/folders/lp/x54gwt890xv47sdkqj1k04q40000gn/T//cczx2gXV.s 			page 2


  30:Core/Src/console.c **** static int32_t ConsoleCommandEndline(const char receiveBuffer[], const  uint32_t filledLength);
  31:Core/Src/console.c **** 
  32:Core/Src/console.c **** static uint32_t ConsoleCommandMatch(const char* name, const char *buffer);
  33:Core/Src/console.c **** static eCommandResult_T ConsoleParamFindN(const char * buffer, const uint8_t parameterNumber, uint3
  34:Core/Src/console.c **** static uint32_t ConsoleResetBuffer(char receiveBuffer[], const  uint32_t filledLength, uint32_t use
  35:Core/Src/console.c **** 
  36:Core/Src/console.c **** static eCommandResult_T ConsoleUtilHexCharToInt(char charVal, uint8_t* pInt); // this might be repl
  37:Core/Src/console.c **** static eCommandResult_T ConsoleUtilsIntToHexChar(uint8_t intVal, char* pChar); // this could be rep
  38:Core/Src/console.c **** 
  39:Core/Src/console.c **** // ConsoleCommandMatch
  40:Core/Src/console.c **** // Look to see if the data in the buffer matches the command name given that
  41:Core/Src/console.c **** // the strings are different lengths and we have parameter separators
  42:Core/Src/console.c **** static uint32_t ConsoleCommandMatch(const char* name, const char *buffer)
  43:Core/Src/console.c **** {
  44:Core/Src/console.c **** 	uint32_t i = 0u;
  45:Core/Src/console.c **** 	uint32_t result = 0u; // match
  46:Core/Src/console.c **** 
  47:Core/Src/console.c **** 	if ( buffer[i] == name [i] )
  48:Core/Src/console.c **** 	{
  49:Core/Src/console.c **** 		result = 1u;
  50:Core/Src/console.c **** 		i++;
  51:Core/Src/console.c **** 	}
  52:Core/Src/console.c **** 
  53:Core/Src/console.c **** 	while ( ( 1u == result ) &&
  54:Core/Src/console.c **** 		( i < CONSOLE_COMMAND_MAX_COMMAND_LENGTH )  &&
  55:Core/Src/console.c **** 		( buffer[i] != PARAMETER_SEPARATER ) &&
  56:Core/Src/console.c **** 		( buffer[i] != LF_CHAR ) &&( buffer[i] != CR_CHAR ) &&
  57:Core/Src/console.c **** 		( buffer[i] != (char) NULL_CHAR )
  58:Core/Src/console.c **** 		)
  59:Core/Src/console.c **** 	{
  60:Core/Src/console.c **** 		if ( buffer[i] != name[i] )
  61:Core/Src/console.c **** 		{
  62:Core/Src/console.c **** 			result = 0u;
  63:Core/Src/console.c **** 		}
  64:Core/Src/console.c **** 		i++;
  65:Core/Src/console.c **** 	}
  66:Core/Src/console.c **** 
  67:Core/Src/console.c **** 	return result;
  68:Core/Src/console.c **** }
  69:Core/Src/console.c **** 
  70:Core/Src/console.c **** // ConsoleResetBuffer
  71:Core/Src/console.c **** // In an ideal world, this would just zero out the buffer. However, thre are times when the
  72:Core/Src/console.c **** // buffer may have data beyond what was used in the last command.
  73:Core/Src/console.c **** // We don't want to lose that data so we move it to the start of the command buffer and then zero
  74:Core/Src/console.c **** // the rest.
  75:Core/Src/console.c **** static uint32_t ConsoleResetBuffer(char receiveBuffer[], const uint32_t filledLength, uint32_t used
  76:Core/Src/console.c **** {
  77:Core/Src/console.c **** 	uint32_t remaining = (filledLength - usedSoFar);
  78:Core/Src/console.c **** 	uint32_t i = 0;
  79:Core/Src/console.c **** 
  80:Core/Src/console.c **** 	while (usedSoFar < filledLength)
  81:Core/Src/console.c **** 	{
  82:Core/Src/console.c **** 		receiveBuffer[i] = receiveBuffer[usedSoFar]; // move the end to the start
  83:Core/Src/console.c **** 		i++;
  84:Core/Src/console.c **** 		usedSoFar++;
  85:Core/Src/console.c **** 	}
  86:Core/Src/console.c **** 	for ( /* nothing */ ; i < CONSOLE_COMMAND_MAX_LENGTH ; i++)
ARM GAS  /var/folders/lp/x54gwt890xv47sdkqj1k04q40000gn/T//cczx2gXV.s 			page 3


  87:Core/Src/console.c **** 	{
  88:Core/Src/console.c **** 		receiveBuffer[i] =  NULL_CHAR;
  89:Core/Src/console.c **** 	}
  90:Core/Src/console.c **** 	return remaining;
  91:Core/Src/console.c **** }
  92:Core/Src/console.c **** 
  93:Core/Src/console.c **** // ConsoleCommandEndline
  94:Core/Src/console.c **** // Check to see where in the buffer stream the endline is; that is the end of the command and param
  95:Core/Src/console.c **** static int32_t ConsoleCommandEndline(const char receiveBuffer[], const  uint32_t filledLength)
  96:Core/Src/console.c **** {
  97:Core/Src/console.c **** 	uint32_t i = 0;
  98:Core/Src/console.c **** 	int32_t result = NOT_FOUND; // if no endline is found, then return -1 (NOT_FOUND)
  99:Core/Src/console.c **** 
 100:Core/Src/console.c **** 	while ( ( CR_CHAR != receiveBuffer[i])  && (LF_CHAR != receiveBuffer[i])
 101:Core/Src/console.c **** 			&& ( i < filledLength ) )
 102:Core/Src/console.c **** 	{
 103:Core/Src/console.c **** 		i++;
 104:Core/Src/console.c **** 	}
 105:Core/Src/console.c **** 	if ( i < filledLength )
 106:Core/Src/console.c **** 	{
 107:Core/Src/console.c **** 		result = i;
 108:Core/Src/console.c **** 	}
 109:Core/Src/console.c **** 	return result;
 110:Core/Src/console.c **** }
 111:Core/Src/console.c **** 
 112:Core/Src/console.c **** // ConsoleInit
 113:Core/Src/console.c **** // Initialize the console interface and all it depends on
 114:Core/Src/console.c **** void ConsoleInit(void)
 115:Core/Src/console.c **** {
 116:Core/Src/console.c **** 	uint32_t i;
 117:Core/Src/console.c **** 
 118:Core/Src/console.c **** 	ConsoleIoInit();
 119:Core/Src/console.c **** 	ConsoleIoSendString("Welcome to the Consolinator, your gateway to testing code and hardware.");	
 120:Core/Src/console.c **** 	ConsoleIoSendString(STR_ENDLINE);
 121:Core/Src/console.c **** 	ConsoleIoSendString(CONSOLE_PROMPT);
 122:Core/Src/console.c **** 	mReceivedSoFar = 0u;
 123:Core/Src/console.c **** 
 124:Core/Src/console.c **** 	for ( i = 0u ; i < CONSOLE_COMMAND_MAX_LENGTH ; i++)
 125:Core/Src/console.c **** 	{
 126:Core/Src/console.c **** 		mReceiveBuffer[i] = NULL_CHAR;
 127:Core/Src/console.c **** 	}
 128:Core/Src/console.c **** 
 129:Core/Src/console.c **** }
 130:Core/Src/console.c **** 
 131:Core/Src/console.c **** // ConsoleProcess
 132:Core/Src/console.c **** // Looks for new inputs, checks for endline, then runs the matching command.
 133:Core/Src/console.c **** // Call ConsoleProcess from a loop, it will handle commands as they become available
 134:Core/Src/console.c **** void ConsoleProcess(void)
 135:Core/Src/console.c **** {
 136:Core/Src/console.c **** 	const sConsoleCommandTable_T* commandTable;
 137:Core/Src/console.c **** 	uint32_t received;
 138:Core/Src/console.c **** 	uint32_t cmdIndex;
 139:Core/Src/console.c **** 	int32_t  cmdEndline;
 140:Core/Src/console.c **** 	int32_t  found;
 141:Core/Src/console.c **** 	eCommandResult_T result;
 142:Core/Src/console.c **** 
 143:Core/Src/console.c **** 	ConsoleIoReceive((uint8_t*)&(mReceiveBuffer[mReceivedSoFar]), ( CONSOLE_COMMAND_MAX_LENGTH - mRece
ARM GAS  /var/folders/lp/x54gwt890xv47sdkqj1k04q40000gn/T//cczx2gXV.s 			page 4


 144:Core/Src/console.c **** 	if ( received > 0u || mReceiveBufferNeedsChecking)
 145:Core/Src/console.c **** 	{
 146:Core/Src/console.c **** 		mReceiveBufferNeedsChecking = false;
 147:Core/Src/console.c **** 		mReceivedSoFar += received;
 148:Core/Src/console.c **** 		cmdEndline = ConsoleCommandEndline(mReceiveBuffer, mReceivedSoFar);
 149:Core/Src/console.c **** 		if ( cmdEndline >= 0 )  // have complete string, find command
 150:Core/Src/console.c **** 		{
 151:Core/Src/console.c **** 			commandTable = ConsoleCommandsGetTable();
 152:Core/Src/console.c **** 			cmdIndex = 0u;
 153:Core/Src/console.c **** 			found = NOT_FOUND;
 154:Core/Src/console.c **** 			while ( ( NULL != commandTable[cmdIndex].name ) && ( NOT_FOUND == found ) )
 155:Core/Src/console.c **** 			{
 156:Core/Src/console.c **** 				if ( ConsoleCommandMatch(commandTable[cmdIndex].name, mReceiveBuffer) )
 157:Core/Src/console.c **** 				{
 158:Core/Src/console.c **** 					result = commandTable[cmdIndex].execute(mReceiveBuffer);
 159:Core/Src/console.c **** 					if ( COMMAND_SUCCESS != result )
 160:Core/Src/console.c **** 					{
 161:Core/Src/console.c **** 						ConsoleIoSendString("Error: ");
 162:Core/Src/console.c **** 						ConsoleIoSendString(mReceiveBuffer);
 163:Core/Src/console.c **** 
 164:Core/Src/console.c **** 						ConsoleIoSendString("Help: ");
 165:Core/Src/console.c **** 						ConsoleIoSendString(commandTable[cmdIndex].help);
 166:Core/Src/console.c **** 						ConsoleIoSendString(STR_ENDLINE);
 167:Core/Src/console.c **** 
 168:Core/Src/console.c **** 					}
 169:Core/Src/console.c **** 					found = cmdIndex;
 170:Core/Src/console.c **** 				}
 171:Core/Src/console.c **** 				else
 172:Core/Src/console.c **** 				{
 173:Core/Src/console.c **** 					cmdIndex++;
 174:Core/Src/console.c **** 
 175:Core/Src/console.c **** 				}
 176:Core/Src/console.c **** 			}
 177:Core/Src/console.c **** 			if ( ( cmdEndline != 0 ) && ( NOT_FOUND == found ) )
 178:Core/Src/console.c **** 			{
 179:Core/Src/console.c **** 				if (mReceivedSoFar > 2) /// shorter than that, it is probably nothing
 180:Core/Src/console.c **** 				{
 181:Core/Src/console.c **** 					ConsoleIoSendString("Command not found.");
 182:Core/Src/console.c **** 					ConsoleIoSendString(STR_ENDLINE);
 183:Core/Src/console.c **** 				}
 184:Core/Src/console.c **** 			}
 185:Core/Src/console.c **** 			//reset the buffer by moving over any leftovers and nulling the rest
 186:Core/Src/console.c **** 			// clear up to and including the found end line character
 187:Core/Src/console.c **** 			mReceivedSoFar = ConsoleResetBuffer(mReceiveBuffer, mReceivedSoFar, cmdEndline + 1);
 188:Core/Src/console.c **** 			mReceiveBufferNeedsChecking = mReceivedSoFar > 0 ? true : false;
 189:Core/Src/console.c **** 			ConsoleIoSendString(CONSOLE_PROMPT);
 190:Core/Src/console.c **** 		}
 191:Core/Src/console.c **** 	}
 192:Core/Src/console.c **** }
 193:Core/Src/console.c **** 
 194:Core/Src/console.c **** // ConsoleParamFindN
 195:Core/Src/console.c **** // Find the start location of the nth parametr in the buffer where the command itself is parameter 
 196:Core/Src/console.c **** static eCommandResult_T ConsoleParamFindN(const char * buffer, const uint8_t parameterNumber, uint3
 197:Core/Src/console.c **** {
 198:Core/Src/console.c **** 	uint32_t bufferIndex = 0;
 199:Core/Src/console.c **** 	uint32_t parameterIndex = 0;
 200:Core/Src/console.c **** 	eCommandResult_T result = COMMAND_SUCCESS;
ARM GAS  /var/folders/lp/x54gwt890xv47sdkqj1k04q40000gn/T//cczx2gXV.s 			page 5


 201:Core/Src/console.c **** 	while ( ( parameterNumber != parameterIndex ) && ( bufferIndex < CONSOLE_COMMAND_MAX_LENGTH ) )
 202:Core/Src/console.c **** 	{
 203:Core/Src/console.c **** 		if ( PARAMETER_SEPARATER == buffer[bufferIndex] )
 204:Core/Src/console.c **** 		{
 205:Core/Src/console.c **** 			parameterIndex++;
 206:Core/Src/console.c **** 		}
 207:Core/Src/console.c **** 		bufferIndex++;
 208:Core/Src/console.c **** 	}
 209:Core/Src/console.c **** 	if  ( CONSOLE_COMMAND_MAX_LENGTH == bufferIndex )
 210:Core/Src/console.c **** 	{
 211:Core/Src/console.c **** 		result = COMMAND_PARAMETER_ERROR;
 212:Core/Src/console.c **** 	}
 213:Core/Src/console.c **** 	else
 214:Core/Src/console.c **** 	{
 215:Core/Src/console.c **** 		*startLocation = bufferIndex;
 216:Core/Src/console.c **** 	}
 217:Core/Src/console.c **** 	return result;
 218:Core/Src/console.c **** }
 219:Core/Src/console.c **** 
 220:Core/Src/console.c **** // ConsoleReceiveParamInt16
 221:Core/Src/console.c **** // Identify and obtain a parameter of type int16_t, sent in in decimal, possibly with a negative si
 222:Core/Src/console.c **** // Note that this uses atoi, a somewhat costly function. You may want to replace it, see ConsoleRec
 223:Core/Src/console.c **** // for some ideas on how to do that.
 224:Core/Src/console.c **** eCommandResult_T ConsoleReceiveParamInt16(const char * buffer, const uint8_t parameterNumber, int16
 225:Core/Src/console.c **** {
 226:Core/Src/console.c **** 	uint32_t startIndex = 0;
 227:Core/Src/console.c **** 	uint32_t i;
 228:Core/Src/console.c **** 	eCommandResult_T result;
 229:Core/Src/console.c **** 	char charVal;
 230:Core/Src/console.c **** 	char str[INT16_MAX_STR_LENGTH];
 231:Core/Src/console.c **** 
 232:Core/Src/console.c **** 	result = ConsoleParamFindN(buffer, parameterNumber, &startIndex);
 233:Core/Src/console.c **** 
 234:Core/Src/console.c **** 	i = 0;
 235:Core/Src/console.c **** 	charVal = buffer[startIndex + i];
 236:Core/Src/console.c **** 	while ( ( LF_CHAR != charVal ) && ( CR_CHAR != charVal )
 237:Core/Src/console.c **** 			&& ( PARAMETER_SEPARATER != charVal )
 238:Core/Src/console.c **** 		&& ( i < INT16_MAX_STR_LENGTH ) )
 239:Core/Src/console.c **** 	{
 240:Core/Src/console.c **** 		str[i] = charVal;					// copy the relevant part
 241:Core/Src/console.c **** 		i++;
 242:Core/Src/console.c **** 		charVal = buffer[startIndex + i];
 243:Core/Src/console.c **** 	}
 244:Core/Src/console.c **** 	if ( i == INT16_MAX_STR_LENGTH)
 245:Core/Src/console.c **** 	{
 246:Core/Src/console.c **** 		result = COMMAND_PARAMETER_ERROR;
 247:Core/Src/console.c **** 	}
 248:Core/Src/console.c **** 	if ( COMMAND_SUCCESS == result )
 249:Core/Src/console.c **** 	{
 250:Core/Src/console.c **** 		str[i] = NULL_CHAR;
 251:Core/Src/console.c **** 		*parameterInt = atoi(str);
 252:Core/Src/console.c **** 	}
 253:Core/Src/console.c **** 	return result;
 254:Core/Src/console.c **** }
 255:Core/Src/console.c **** 
 256:Core/Src/console.c **** // ConsoleReceiveParamHexUint16
 257:Core/Src/console.c **** // Identify and obtain a parameter of type uint16, sent in as hex. This parses the number and does 
ARM GAS  /var/folders/lp/x54gwt890xv47sdkqj1k04q40000gn/T//cczx2gXV.s 			page 6


 258:Core/Src/console.c **** // a library function to do it.
 259:Core/Src/console.c **** eCommandResult_T ConsoleReceiveParamHexUint16(const char * buffer, const uint8_t parameterNumber, u
 260:Core/Src/console.c **** {
 261:Core/Src/console.c **** 	uint32_t startIndex = 0;
 262:Core/Src/console.c **** 	uint16_t value = 0;
 263:Core/Src/console.c **** 	uint32_t i;
 264:Core/Src/console.c **** 	eCommandResult_T result;
 265:Core/Src/console.c **** 	uint8_t tmpUint8;
 266:Core/Src/console.c **** 
 267:Core/Src/console.c **** 	result = ConsoleParamFindN(buffer, parameterNumber, &startIndex);
 268:Core/Src/console.c **** 	if ( COMMAND_SUCCESS == result )
 269:Core/Src/console.c **** 	{
 270:Core/Src/console.c **** 		// bufferIndex points to start of integer
 271:Core/Src/console.c **** 		// next separator or newline or NULL indicates end of parameter
 272:Core/Src/console.c **** 		for ( i = 0u ; i < 4u ; i ++)   // U16 must be less than 4 hex digits: 0xFFFF
 273:Core/Src/console.c **** 		{
 274:Core/Src/console.c **** 			if ( COMMAND_SUCCESS == result )
 275:Core/Src/console.c **** 			{
 276:Core/Src/console.c **** 				result = ConsoleUtilHexCharToInt(buffer[startIndex + i], &tmpUint8);
 277:Core/Src/console.c **** 			}
 278:Core/Src/console.c **** 			if ( COMMAND_SUCCESS == result )
 279:Core/Src/console.c **** 			{
 280:Core/Src/console.c **** 				value = (value << 4u);
 281:Core/Src/console.c **** 				value += tmpUint8;
 282:Core/Src/console.c **** 			}
 283:Core/Src/console.c **** 		}
 284:Core/Src/console.c **** 		if  ( COMMAND_PARAMETER_END == result )
 285:Core/Src/console.c **** 		{
 286:Core/Src/console.c **** 			result = COMMAND_SUCCESS;
 287:Core/Src/console.c **** 		}
 288:Core/Src/console.c **** 		*parameterUint16 = value;
 289:Core/Src/console.c **** 	}
 290:Core/Src/console.c **** 	return result;
 291:Core/Src/console.c **** }
 292:Core/Src/console.c **** 
 293:Core/Src/console.c **** // ConsoleSendParamHexUint16
 294:Core/Src/console.c **** // Send a parameter of type uint16 as hex.
 295:Core/Src/console.c **** // This does not use a library function to do it (though you could
 296:Core/Src/console.c **** // do itoa (parameterUint16, out, 16);  instead of building it up
 297:Core/Src/console.c **** eCommandResult_T ConsoleSendParamHexUint16(uint16_t parameterUint16)
 298:Core/Src/console.c **** {
 299:Core/Src/console.c **** 	uint32_t i;
 300:Core/Src/console.c **** 	char out[4u + 1u];  // U16 must be less than 4 hex digits: 0xFFFF, end buffer with a NULL
 301:Core/Src/console.c **** 	eCommandResult_T result = COMMAND_SUCCESS;
 302:Core/Src/console.c **** 	uint8_t tmpUint8;
 303:Core/Src/console.c **** 
 304:Core/Src/console.c **** 	for ( i = 0u ; i < 4u ; i ++)   // U16 must be less than 4 hex digits: 0xFFFF
 305:Core/Src/console.c **** 	{
 306:Core/Src/console.c **** 		if ( COMMAND_SUCCESS == result )
 307:Core/Src/console.c **** 		{
 308:Core/Src/console.c **** 			tmpUint8 = ( parameterUint16 >> (12u - (i*4u)) & 0xF);
 309:Core/Src/console.c **** 			result = ConsoleUtilsIntToHexChar(tmpUint8, &(out[i]));
 310:Core/Src/console.c **** 		}
 311:Core/Src/console.c **** 	}
 312:Core/Src/console.c **** 	out[i] = NULL_CHAR;
 313:Core/Src/console.c **** 	ConsoleIoSendString(out);
 314:Core/Src/console.c **** 
ARM GAS  /var/folders/lp/x54gwt890xv47sdkqj1k04q40000gn/T//cczx2gXV.s 			page 7


 315:Core/Src/console.c **** 	return COMMAND_SUCCESS;
 316:Core/Src/console.c **** }
 317:Core/Src/console.c **** 
 318:Core/Src/console.c **** eCommandResult_T ConsoleSendParamHexUint8(uint8_t parameterUint8)
 319:Core/Src/console.c **** {
 320:Core/Src/console.c **** 	uint32_t i;
 321:Core/Src/console.c **** 	char out[2u + 1u];  // U8 must be less than 4 hex digits: 0xFFFF, end buffer with a NULL
 322:Core/Src/console.c **** 	eCommandResult_T result = COMMAND_SUCCESS;
 323:Core/Src/console.c **** 
 324:Core/Src/console.c **** 	i = 0u;
 325:Core/Src/console.c **** 	result = ConsoleUtilsIntToHexChar( (parameterUint8 >> 4u) & 0xF, &(out[i]));
 326:Core/Src/console.c **** 	i++;
 327:Core/Src/console.c **** 	if ( COMMAND_SUCCESS == result )
 328:Core/Src/console.c **** 	{
 329:Core/Src/console.c **** 		result = ConsoleUtilsIntToHexChar( parameterUint8 & 0xF, &(out[i]));
 330:Core/Src/console.c **** 		i++;
 331:Core/Src/console.c **** 	}
 332:Core/Src/console.c **** 	out[i] = NULL_CHAR;
 333:Core/Src/console.c **** 	ConsoleIoSendString(out);
 334:Core/Src/console.c **** 
 335:Core/Src/console.c **** 	return COMMAND_SUCCESS;
 336:Core/Src/console.c **** }
 337:Core/Src/console.c **** 
 338:Core/Src/console.c **** 
 339:Core/Src/console.c **** #if CONSOLE_USE_BUILTIN_ITOA
 340:Core/Src/console.c **** #define itoa smallItoa
 341:Core/Src/console.c **** // The C library itoa is sometimes a complicated function and the library costs aren't worth it
 342:Core/Src/console.c **** // so this is implements the parts of the function needed for console.
 343:Core/Src/console.c **** static void smallItoa(int in, char* outBuffer, int radix)
  30              		.loc 1 343 13 view -0
  31              		.cfi_startproc
  32              		@ args = 0, pretend = 0, frame = 0
  33              		@ frame_needed = 0, uses_anonymous_args = 0
 344:Core/Src/console.c **** {
 345:Core/Src/console.c **** 	bool isNegative = false;
  34              		.loc 1 345 2 view .LVU1
 346:Core/Src/console.c **** 	int tmpIn;
  35              		.loc 1 346 2 view .LVU2
 347:Core/Src/console.c **** 	int stringLen = 1u; // it will be at least as long as the NULL character
  36              		.loc 1 347 2 view .LVU3
 348:Core/Src/console.c **** 
 349:Core/Src/console.c **** 	if (in < 0) {
  37              		.loc 1 349 2 view .LVU4
  38              		.loc 1 349 5 is_stmt 0 view .LVU5
  39 0000 0028     		cmp	r0, #0
 343:Core/Src/console.c **** {
  40              		.loc 1 343 13 view .LVU6
  41 0002 30B5     		push	{r4, r5, lr}
  42              		.cfi_def_cfa_offset 12
  43              		.cfi_offset 4, -12
  44              		.cfi_offset 5, -8
  45              		.cfi_offset 14, -4
  46              		.loc 1 349 5 view .LVU7
  47 0004 2DDB     		blt	.L16
 350:Core/Src/console.c **** 		isNegative = true;
 351:Core/Src/console.c **** 		in = -in;
 352:Core/Src/console.c **** 		stringLen++;
ARM GAS  /var/folders/lp/x54gwt890xv47sdkqj1k04q40000gn/T//cczx2gXV.s 			page 8


 353:Core/Src/console.c **** 	}
 354:Core/Src/console.c **** 
 355:Core/Src/console.c **** 	tmpIn = in;
 356:Core/Src/console.c **** 	while ((int)tmpIn/radix != 0) {
  48              		.loc 1 356 19 view .LVU8
  49 0006 1D4B     		ldr	r3, .L18
  50 0008 A3FB0023 		umull	r2, r3, r3, r0
  51              		.loc 1 356 26 view .LVU9
  52 000c DB08     		lsrs	r3, r3, #3
 347:Core/Src/console.c **** 
  53              		.loc 1 347 6 view .LVU10
  54 000e 4FF0010E 		mov	lr, #1
 345:Core/Src/console.c **** 	int tmpIn;
  55              		.loc 1 345 7 view .LVU11
  56 0012 4FF00004 		mov	r4, #0
  57              	.LVL1:
 355:Core/Src/console.c **** 	while ((int)tmpIn/radix != 0) {
  58              		.loc 1 355 2 is_stmt 1 view .LVU12
  59              		.loc 1 356 2 view .LVU13
  60              		.loc 1 356 26 view .LVU14
  61 0016 2ED0     		beq	.L3
  62              	.LVL2:
  63              	.L17:
  64              		.loc 1 356 19 is_stmt 0 view .LVU15
  65 0018 194D     		ldr	r5, .L18+4
  66              	.LVL3:
  67              	.L4:
 357:Core/Src/console.c **** 		tmpIn = (int)tmpIn/radix;
  68              		.loc 1 357 3 is_stmt 1 view .LVU16
 358:Core/Src/console.c **** 		stringLen++;
  69              		.loc 1 358 3 view .LVU17
 356:Core/Src/console.c **** 		tmpIn = (int)tmpIn/radix;
  70              		.loc 1 356 19 is_stmt 0 view .LVU18
  71 001a 85FB03C2 		smull	ip, r2, r5, r3
  72 001e DB17     		asrs	r3, r3, #31
  73              	.LVL4:
 356:Core/Src/console.c **** 		tmpIn = (int)tmpIn/radix;
  74              		.loc 1 356 26 view .LVU19
  75 0020 D3EBA203 		rsbs	r3, r3, r2, asr #2
  76 0024 F446     		mov	ip, lr
  77              	.LVL5:
  78              		.loc 1 358 12 view .LVU20
  79 0026 0EF1010E 		add	lr, lr, #1
  80              	.LVL6:
 356:Core/Src/console.c **** 		tmpIn = (int)tmpIn/radix;
  81              		.loc 1 356 26 is_stmt 1 view .LVU21
  82 002a F6D1     		bne	.L4
  83              	.LVL7:
  84              	.L5:
 359:Core/Src/console.c **** 	}
 360:Core/Src/console.c ****     
 361:Core/Src/console.c ****     // Now fill it in backwards, starting with the NULL at the end
 362:Core/Src/console.c ****     *(outBuffer + stringLen) = NULL_CHAR;
  85              		.loc 1 362 5 view .LVU22
  86              		.loc 1 362 30 is_stmt 0 view .LVU23
  87 002c 0023     		movs	r3, #0
  88 002e 0CF1010C 		add	ip, ip, #1
ARM GAS  /var/folders/lp/x54gwt890xv47sdkqj1k04q40000gn/T//cczx2gXV.s 			page 9


  89 0032 01F80E30 		strb	r3, [r1, lr]
 363:Core/Src/console.c ****     stringLen--;
  90              		.loc 1 363 5 is_stmt 1 view .LVU24
 364:Core/Src/console.c **** 
 365:Core/Src/console.c **** 	tmpIn = in;
  91              		.loc 1 365 2 view .LVU25
  92              	.LVL8:
 366:Core/Src/console.c **** 	do {
 367:Core/Src/console.c **** 		*(outBuffer+stringLen) = (tmpIn%radix)+'0';
  93              		.loc 1 367 34 is_stmt 0 view .LVU26
  94 0036 124D     		ldr	r5, .L18+4
  95 0038 8C44     		add	ip, ip, r1
  96              	.LVL9:
  97              	.L6:
 366:Core/Src/console.c **** 	do {
  98              		.loc 1 366 2 is_stmt 1 view .LVU27
  99              		.loc 1 367 3 view .LVU28
 100              		.loc 1 367 34 is_stmt 0 view .LVU29
 101 003a 85FB0032 		smull	r3, r2, r5, r0
 102 003e C317     		asrs	r3, r0, #31
 103 0040 C3EBA203 		rsb	r3, r3, r2, asr #2
 104 0044 03EB8302 		add	r2, r3, r3, lsl #2
 105 0048 A0EB4202 		sub	r2, r0, r2, lsl #1
 106              		.loc 1 367 41 view .LVU30
 107 004c 3032     		adds	r2, r2, #48
 108              		.loc 1 367 26 view .LVU31
 109 004e 0CF8012D 		strb	r2, [ip, #-1]!
 110              	.LVL10:
 368:Core/Src/console.c **** 		tmpIn = (int) tmpIn / radix;
 111              		.loc 1 368 3 is_stmt 1 view .LVU32
 369:Core/Src/console.c **** 	} while(stringLen--);
 112              		.loc 1 369 10 is_stmt 0 discriminator 1 view .LVU33
 113 0052 8C45     		cmp	ip, r1
 368:Core/Src/console.c **** 		tmpIn = (int) tmpIn / radix;
 114              		.loc 1 368 9 view .LVU34
 115 0054 1846     		mov	r0, r3
 116              	.LVL11:
 117              		.loc 1 369 10 is_stmt 1 discriminator 1 view .LVU35
 118              		.loc 1 369 10 is_stmt 0 discriminator 1 view .LVU36
 119 0056 F0D1     		bne	.L6
 370:Core/Src/console.c **** 
 371:Core/Src/console.c **** 	if (isNegative) {
 120              		.loc 1 371 2 is_stmt 1 view .LVU37
 121              		.loc 1 371 5 is_stmt 0 view .LVU38
 122 0058 14B1     		cbz	r4, .L1
 372:Core/Src/console.c **** 		*(outBuffer) = '-';
 123              		.loc 1 372 3 is_stmt 1 view .LVU39
 124              		.loc 1 372 16 is_stmt 0 view .LVU40
 125 005a 2D23     		movs	r3, #45
 126 005c 8CF80030 		strb	r3, [ip]
 127              	.L1:
 373:Core/Src/console.c **** 	}
 374:Core/Src/console.c **** }
 128              		.loc 1 374 1 view .LVU41
 129 0060 30BD     		pop	{r4, r5, pc}
 130              	.LVL12:
 131              	.L16:
ARM GAS  /var/folders/lp/x54gwt890xv47sdkqj1k04q40000gn/T//cczx2gXV.s 			page 10


 350:Core/Src/console.c **** 		in = -in;
 132              		.loc 1 350 3 is_stmt 1 view .LVU42
 351:Core/Src/console.c **** 		stringLen++;
 133              		.loc 1 351 3 view .LVU43
 356:Core/Src/console.c **** 		tmpIn = (int)tmpIn/radix;
 134              		.loc 1 356 19 is_stmt 0 view .LVU44
 135 0062 064B     		ldr	r3, .L18
 351:Core/Src/console.c **** 		stringLen++;
 136              		.loc 1 351 6 view .LVU45
 137 0064 4042     		rsbs	r0, r0, #0
 138              	.LVL13:
 352:Core/Src/console.c **** 	}
 139              		.loc 1 352 3 is_stmt 1 view .LVU46
 356:Core/Src/console.c **** 		tmpIn = (int)tmpIn/radix;
 140              		.loc 1 356 19 is_stmt 0 view .LVU47
 141 0066 A3FB0023 		umull	r2, r3, r3, r0
 356:Core/Src/console.c **** 		tmpIn = (int)tmpIn/radix;
 142              		.loc 1 356 26 view .LVU48
 143 006a DB08     		lsrs	r3, r3, #3
 352:Core/Src/console.c **** 	}
 144              		.loc 1 352 12 view .LVU49
 145 006c 4FF0020E 		mov	lr, #2
 350:Core/Src/console.c **** 		in = -in;
 146              		.loc 1 350 14 view .LVU50
 147 0070 4FF00104 		mov	r4, #1
 148              	.LVL14:
 355:Core/Src/console.c **** 	while ((int)tmpIn/radix != 0) {
 149              		.loc 1 355 2 is_stmt 1 view .LVU51
 356:Core/Src/console.c **** 		tmpIn = (int)tmpIn/radix;
 150              		.loc 1 356 2 view .LVU52
 356:Core/Src/console.c **** 		tmpIn = (int)tmpIn/radix;
 151              		.loc 1 356 26 view .LVU53
 152 0074 D0D1     		bne	.L17
 153              	.LVL15:
 154              	.L3:
 363:Core/Src/console.c **** 
 155              		.loc 1 363 14 is_stmt 0 view .LVU54
 156 0076 0EF1FF3C 		add	ip, lr, #-1
 157 007a D7E7     		b	.L5
 158              	.L19:
 159              		.align	2
 160              	.L18:
 161 007c CDCCCCCC 		.word	-858993459
 162 0080 67666666 		.word	1717986919
 163              		.cfi_endproc
 164              	.LFE17:
 166              		.section	.rodata.ConsoleInit.str1.4,"aMS",%progbits,1
 167              		.align	2
 168              	.LC0:
 169 0000 57656C63 		.ascii	"Welcome to the Consolinator, your gateway to testin"
 169      6F6D6520 
 169      746F2074 
 169      68652043 
 169      6F6E736F 
 170 0033 6720636F 		.ascii	"g code and hardware.\000"
 170      64652061 
 170      6E642068 
ARM GAS  /var/folders/lp/x54gwt890xv47sdkqj1k04q40000gn/T//cczx2gXV.s 			page 11


 170      61726477 
 170      6172652E 
 171              		.align	2
 172              	.LC1:
 173 0048 0D0A00   		.ascii	"\015\012\000"
 174 004b 00       		.align	2
 175              	.LC2:
 176 004c 3E2000   		.ascii	"> \000"
 177              		.section	.text.ConsoleInit,"ax",%progbits
 178              		.align	1
 179              		.p2align 2,,3
 180              		.global	ConsoleInit
 181              		.syntax unified
 182              		.thumb
 183              		.thumb_func
 185              	ConsoleInit:
 186              	.LFB3:
 115:Core/Src/console.c **** 	uint32_t i;
 187              		.loc 1 115 1 is_stmt 1 view -0
 188              		.cfi_startproc
 189              		@ args = 0, pretend = 0, frame = 0
 190              		@ frame_needed = 0, uses_anonymous_args = 0
 116:Core/Src/console.c **** 
 191              		.loc 1 116 2 view .LVU56
 118:Core/Src/console.c **** 	ConsoleIoSendString("Welcome to the Consolinator, your gateway to testing code and hardware.");	
 192              		.loc 1 118 2 view .LVU57
 115:Core/Src/console.c **** 	uint32_t i;
 193              		.loc 1 115 1 is_stmt 0 view .LVU58
 194 0000 08B5     		push	{r3, lr}
 195              		.cfi_def_cfa_offset 8
 196              		.cfi_offset 3, -8
 197              		.cfi_offset 14, -4
 118:Core/Src/console.c **** 	ConsoleIoSendString("Welcome to the Consolinator, your gateway to testing code and hardware.");	
 198              		.loc 1 118 2 view .LVU59
 199 0002 FFF7FEFF 		bl	ConsoleIoInit
 200              	.LVL16:
 119:Core/Src/console.c **** 	ConsoleIoSendString(STR_ENDLINE);
 201              		.loc 1 119 2 is_stmt 1 view .LVU60
 202 0006 0948     		ldr	r0, .L22
 203 0008 FFF7FEFF 		bl	ConsoleIoSendString
 204              	.LVL17:
 120:Core/Src/console.c **** 	ConsoleIoSendString(CONSOLE_PROMPT);
 205              		.loc 1 120 2 view .LVU61
 206 000c 0848     		ldr	r0, .L22+4
 207 000e FFF7FEFF 		bl	ConsoleIoSendString
 208              	.LVL18:
 121:Core/Src/console.c **** 	mReceivedSoFar = 0u;
 209              		.loc 1 121 2 view .LVU62
 210 0012 0848     		ldr	r0, .L22+8
 211 0014 FFF7FEFF 		bl	ConsoleIoSendString
 212              	.LVL19:
 122:Core/Src/console.c **** 
 213              		.loc 1 122 2 view .LVU63
 122:Core/Src/console.c **** 
 214              		.loc 1 122 17 is_stmt 0 view .LVU64
 215 0018 074B     		ldr	r3, .L22+12
 126:Core/Src/console.c **** 	}
ARM GAS  /var/folders/lp/x54gwt890xv47sdkqj1k04q40000gn/T//cczx2gXV.s 			page 12


 216              		.loc 1 126 21 view .LVU65
 217 001a 0848     		ldr	r0, .L22+16
 122:Core/Src/console.c **** 
 218              		.loc 1 122 17 view .LVU66
 219 001c 0021     		movs	r1, #0
 220 001e 1960     		str	r1, [r3]
 124:Core/Src/console.c **** 	{
 221              		.loc 1 124 2 is_stmt 1 view .LVU67
 222              	.LVL20:
 124:Core/Src/console.c **** 	{
 223              		.loc 1 124 19 discriminator 1 view .LVU68
 126:Core/Src/console.c **** 	}
 224              		.loc 1 126 21 is_stmt 0 view .LVU69
 225 0020 4FF48072 		mov	r2, #256
 129:Core/Src/console.c **** 
 226              		.loc 1 129 1 view .LVU70
 227 0024 BDE80840 		pop	{r3, lr}
 228              		.cfi_restore 14
 229              		.cfi_restore 3
 230              		.cfi_def_cfa_offset 0
 126:Core/Src/console.c **** 	}
 231              		.loc 1 126 21 view .LVU71
 232 0028 FFF7FEBF 		b	memset
 233              	.LVL21:
 234              	.L23:
 235              		.align	2
 236              	.L22:
 237 002c 00000000 		.word	.LC0
 238 0030 48000000 		.word	.LC1
 239 0034 4C000000 		.word	.LC2
 240 0038 00000000 		.word	mReceivedSoFar
 241 003c 00000000 		.word	mReceiveBuffer
 242              		.cfi_endproc
 243              	.LFE3:
 245              		.section	.rodata.ConsoleProcess.str1.4,"aMS",%progbits,1
 246              		.align	2
 247              	.LC3:
 248 0000 4572726F 		.ascii	"Error: \000"
 248      723A2000 
 249              		.align	2
 250              	.LC4:
 251 0008 48656C70 		.ascii	"Help: \000"
 251      3A2000
 252 000f 00       		.align	2
 253              	.LC5:
 254 0010 436F6D6D 		.ascii	"Command not found.\000"
 254      616E6420 
 254      6E6F7420 
 254      666F756E 
 254      642E00
 255              		.section	.text.ConsoleProcess,"ax",%progbits
 256              		.align	1
 257              		.p2align 2,,3
 258              		.global	ConsoleProcess
 259              		.syntax unified
 260              		.thumb
 261              		.thumb_func
ARM GAS  /var/folders/lp/x54gwt890xv47sdkqj1k04q40000gn/T//cczx2gXV.s 			page 13


 263              	ConsoleProcess:
 264              	.LFB4:
 135:Core/Src/console.c **** 	const sConsoleCommandTable_T* commandTable;
 265              		.loc 1 135 1 is_stmt 1 view -0
 266              		.cfi_startproc
 267              		@ args = 0, pretend = 0, frame = 16
 268              		@ frame_needed = 0, uses_anonymous_args = 0
 136:Core/Src/console.c **** 	uint32_t received;
 269              		.loc 1 136 2 view .LVU73
 137:Core/Src/console.c **** 	uint32_t cmdIndex;
 270              		.loc 1 137 2 view .LVU74
 138:Core/Src/console.c **** 	int32_t  cmdEndline;
 271              		.loc 1 138 2 view .LVU75
 139:Core/Src/console.c **** 	int32_t  found;
 272              		.loc 1 139 2 view .LVU76
 140:Core/Src/console.c **** 	eCommandResult_T result;
 273              		.loc 1 140 2 view .LVU77
 141:Core/Src/console.c **** 
 274              		.loc 1 141 2 view .LVU78
 143:Core/Src/console.c **** 	if ( received > 0u || mReceiveBufferNeedsChecking)
 275              		.loc 1 143 2 view .LVU79
 135:Core/Src/console.c **** 	const sConsoleCommandTable_T* commandTable;
 276              		.loc 1 135 1 is_stmt 0 view .LVU80
 277 0000 2DE9F04F 		push	{r4, r5, r6, r7, r8, r9, r10, fp, lr}
 278              		.cfi_def_cfa_offset 36
 279              		.cfi_offset 4, -36
 280              		.cfi_offset 5, -32
 281              		.cfi_offset 6, -28
 282              		.cfi_offset 7, -24
 283              		.cfi_offset 8, -20
 284              		.cfi_offset 9, -16
 285              		.cfi_offset 10, -12
 286              		.cfi_offset 11, -8
 287              		.cfi_offset 14, -4
 143:Core/Src/console.c **** 	if ( received > 0u || mReceiveBufferNeedsChecking)
 288              		.loc 1 143 45 view .LVU81
 289 0004 6D4F     		ldr	r7, .L85
 143:Core/Src/console.c **** 	if ( received > 0u || mReceiveBufferNeedsChecking)
 290              		.loc 1 143 29 view .LVU82
 291 0006 6E4E     		ldr	r6, .L85+4
 143:Core/Src/console.c **** 	if ( received > 0u || mReceiveBufferNeedsChecking)
 292              		.loc 1 143 45 view .LVU83
 293 0008 3868     		ldr	r0, [r7]
 294 000a DFF8D081 		ldr	r8, .L85+32
 135:Core/Src/console.c **** 	const sConsoleCommandTable_T* commandTable;
 295              		.loc 1 135 1 view .LVU84
 296 000e 85B0     		sub	sp, sp, #20
 297              		.cfi_def_cfa_offset 56
 143:Core/Src/console.c **** 	if ( received > 0u || mReceiveBufferNeedsChecking)
 298              		.loc 1 143 2 view .LVU85
 299 0010 C0F58071 		rsb	r1, r0, #256
 300 0014 03AA     		add	r2, sp, #12
 301 0016 3044     		add	r0, r0, r6
 302 0018 FFF7FEFF 		bl	ConsoleIoReceive
 303              	.LVL22:
 144:Core/Src/console.c **** 	{
 304              		.loc 1 144 2 is_stmt 1 view .LVU86
ARM GAS  /var/folders/lp/x54gwt890xv47sdkqj1k04q40000gn/T//cczx2gXV.s 			page 14


 144:Core/Src/console.c **** 	{
 305              		.loc 1 144 16 is_stmt 0 view .LVU87
 306 001c 0399     		ldr	r1, [sp, #12]
 144:Core/Src/console.c **** 	{
 307              		.loc 1 144 5 view .LVU88
 308 001e 11B9     		cbnz	r1, .L25
 144:Core/Src/console.c **** 	{
 309              		.loc 1 144 21 discriminator 1 view .LVU89
 310 0020 98F80030 		ldrb	r3, [r8]	@ zero_extendqisi2
 311 0024 D3B1     		cbz	r3, .L24
 312              	.L25:
 146:Core/Src/console.c **** 		mReceivedSoFar += received;
 313              		.loc 1 146 3 is_stmt 1 view .LVU90
 147:Core/Src/console.c **** 		cmdEndline = ConsoleCommandEndline(mReceiveBuffer, mReceivedSoFar);
 314              		.loc 1 147 18 is_stmt 0 view .LVU91
 315 0026 3B68     		ldr	r3, [r7]
 316 0028 1944     		add	r1, r1, r3
 317              	.LBB14:
 318              	.LBB15:
 100:Core/Src/console.c **** 			&& ( i < filledLength ) )
 319              		.loc 1 100 36 view .LVU92
 320 002a 3378     		ldrb	r3, [r6]	@ zero_extendqisi2
 321              	.LBE15:
 322              	.LBE14:
 147:Core/Src/console.c **** 		cmdEndline = ConsoleCommandEndline(mReceiveBuffer, mReceivedSoFar);
 323              		.loc 1 147 18 view .LVU93
 324 002c 3960     		str	r1, [r7]
 146:Core/Src/console.c **** 		mReceivedSoFar += received;
 325              		.loc 1 146 31 view .LVU94
 326 002e 0024     		movs	r4, #0
 327              	.LBB21:
 328              	.LBB16:
 101:Core/Src/console.c **** 	{
 329              		.loc 1 101 4 view .LVU95
 330 0030 0D2B     		cmp	r3, #13
 331              	.LBE16:
 332              	.LBE21:
 146:Core/Src/console.c **** 		mReceivedSoFar += received;
 333              		.loc 1 146 31 view .LVU96
 334 0032 88F80040 		strb	r4, [r8]
 147:Core/Src/console.c **** 		cmdEndline = ConsoleCommandEndline(mReceiveBuffer, mReceivedSoFar);
 335              		.loc 1 147 3 is_stmt 1 view .LVU97
 148:Core/Src/console.c **** 		if ( cmdEndline >= 0 )  // have complete string, find command
 336              		.loc 1 148 3 view .LVU98
 337              	.LVL23:
 338              	.LBB22:
 339              	.LBI14:
  95:Core/Src/console.c **** {
 340              		.loc 1 95 16 view .LVU99
 341              	.LBB17:
  97:Core/Src/console.c **** 	int32_t result = NOT_FOUND; // if no endline is found, then return -1 (NOT_FOUND)
 342              		.loc 1 97 2 view .LVU100
  98:Core/Src/console.c **** 
 343              		.loc 1 98 2 view .LVU101
 100:Core/Src/console.c **** 			&& ( i < filledLength ) )
 344              		.loc 1 100 2 view .LVU102
 101:Core/Src/console.c **** 	{
ARM GAS  /var/folders/lp/x54gwt890xv47sdkqj1k04q40000gn/T//cczx2gXV.s 			page 15


 345              		.loc 1 101 4 view .LVU103
 346 0036 00F0A580 		beq	.L27
 347 003a 614A     		ldr	r2, .L85+4
 348 003c 07E0     		b	.L28
 349              	.LVL24:
 350              	.L78:
 101:Core/Src/console.c **** 	{
 351              		.loc 1 101 4 is_stmt 0 view .LVU104
 352 003e A142     		cmp	r1, r4
 103:Core/Src/console.c **** 	}
 353              		.loc 1 103 4 view .LVU105
 354 0040 04F10104 		add	r4, r4, #1
 355              	.LVL25:
 101:Core/Src/console.c **** 	{
 356              		.loc 1 101 4 is_stmt 1 view .LVU106
 357 0044 0AD0     		beq	.L24
 100:Core/Src/console.c **** 			&& ( i < filledLength ) )
 358              		.loc 1 100 36 is_stmt 0 view .LVU107
 359 0046 12F8013F 		ldrb	r3, [r2, #1]!	@ zero_extendqisi2
 101:Core/Src/console.c **** 	{
 360              		.loc 1 101 4 view .LVU108
 361 004a 0D2B     		cmp	r3, #13
 362 004c 01D0     		beq	.L32
 363              	.LVL26:
 364              	.L28:
 103:Core/Src/console.c **** 	}
 365              		.loc 1 103 3 is_stmt 1 view .LVU109
 100:Core/Src/console.c **** 			&& ( i < filledLength ) )
 366              		.loc 1 100 42 is_stmt 0 view .LVU110
 367 004e 0A2B     		cmp	r3, #10
 368 0050 F5D1     		bne	.L78
 369              	.L32:
 105:Core/Src/console.c **** 	{
 370              		.loc 1 105 2 is_stmt 1 view .LVU111
 105:Core/Src/console.c **** 	{
 371              		.loc 1 105 5 is_stmt 0 view .LVU112
 372 0052 A142     		cmp	r1, r4
 373 0054 02D9     		bls	.L24
 107:Core/Src/console.c **** 	}
 374              		.loc 1 107 3 is_stmt 1 view .LVU113
 375              	.LBE17:
 376              	.LBE22:
 149:Core/Src/console.c **** 		{
 377              		.loc 1 149 6 is_stmt 0 view .LVU114
 378 0056 002C     		cmp	r4, #0
 379              	.LBB23:
 380              	.LBB18:
 107:Core/Src/console.c **** 	}
 381              		.loc 1 107 10 view .LVU115
 382 0058 0094     		str	r4, [sp]
 383              	.LVL27:
 109:Core/Src/console.c **** }
 384              		.loc 1 109 2 is_stmt 1 view .LVU116
 109:Core/Src/console.c **** }
 385              		.loc 1 109 2 is_stmt 0 view .LVU117
 386              	.LBE18:
 387              	.LBE23:
ARM GAS  /var/folders/lp/x54gwt890xv47sdkqj1k04q40000gn/T//cczx2gXV.s 			page 16


 149:Core/Src/console.c **** 		{
 388              		.loc 1 149 3 is_stmt 1 view .LVU118
 149:Core/Src/console.c **** 		{
 389              		.loc 1 149 6 is_stmt 0 view .LVU119
 390 005a 02DA     		bge	.L79
 391              	.LVL28:
 392              	.L24:
 192:Core/Src/console.c **** 
 393              		.loc 1 192 1 view .LVU120
 394 005c 05B0     		add	sp, sp, #20
 395              		.cfi_remember_state
 396              		.cfi_def_cfa_offset 36
 397              		@ sp needed
 398 005e BDE8F08F 		pop	{r4, r5, r6, r7, r8, r9, r10, fp, pc}
 399              	.LVL29:
 400              	.L79:
 401              		.cfi_restore_state
 151:Core/Src/console.c **** 			cmdIndex = 0u;
 402              		.loc 1 151 4 is_stmt 1 view .LVU121
 151:Core/Src/console.c **** 			cmdIndex = 0u;
 403              		.loc 1 151 19 is_stmt 0 view .LVU122
 404 0062 FFF7FEFF 		bl	ConsoleCommandsGetTable
 405              	.LVL30:
 406 0066 8246     		mov	r10, r0
 407              	.LVL31:
 152:Core/Src/console.c **** 			found = NOT_FOUND;
 408              		.loc 1 152 4 is_stmt 1 view .LVU123
 153:Core/Src/console.c **** 			while ( ( NULL != commandTable[cmdIndex].name ) && ( NOT_FOUND == found ) )
 409              		.loc 1 153 4 view .LVU124
 154:Core/Src/console.c **** 			{
 410              		.loc 1 154 4 view .LVU125
 154:Core/Src/console.c **** 			{
 411              		.loc 1 154 52 view .LVU126
 154:Core/Src/console.c **** 			{
 412              		.loc 1 154 44 is_stmt 0 view .LVU127
 413 0068 0068     		ldr	r0, [r0]
 414              	.LVL32:
 187:Core/Src/console.c **** 			mReceiveBufferNeedsChecking = mReceivedSoFar > 0 ? true : false;
 415              		.loc 1 187 83 view .LVU128
 416 006a 631C     		adds	r3, r4, #1
 417 006c 0193     		str	r3, [sp, #4]
 154:Core/Src/console.c **** 			{
 418              		.loc 1 154 52 view .LVU129
 419 006e 0028     		cmp	r0, #0
 420 0070 00F09480 		beq	.L80
 421              	.LVL33:
 422              	.L30:
 154:Core/Src/console.c **** 			{
 423              		.loc 1 154 52 view .LVU130
 424 0074 534C     		ldr	r4, .L85+8
 158:Core/Src/console.c **** 					if ( COMMAND_SUCCESS != result )
 425              		.loc 1 158 15 view .LVU131
 426 0076 DFF84891 		ldr	r9, .L85+4
 154:Core/Src/console.c **** 			{
 427              		.loc 1 154 34 view .LVU132
 428 007a D346     		mov	fp, r10
 152:Core/Src/console.c **** 			found = NOT_FOUND;
ARM GAS  /var/folders/lp/x54gwt890xv47sdkqj1k04q40000gn/T//cczx2gXV.s 			page 17


 429              		.loc 1 152 13 view .LVU133
 430 007c 0025     		movs	r5, #0
 431              	.LVL34:
 432              	.L45:
 156:Core/Src/console.c **** 				{
 433              		.loc 1 156 5 is_stmt 1 view .LVU134
 434              	.LBB24:
 435              	.LBI24:
  42:Core/Src/console.c **** {
 436              		.loc 1 42 17 view .LVU135
 437              	.LBB25:
  44:Core/Src/console.c **** 	uint32_t result = 0u; // match
 438              		.loc 1 44 2 view .LVU136
  45:Core/Src/console.c **** 
 439              		.loc 1 45 2 view .LVU137
  47:Core/Src/console.c **** 	{
 440              		.loc 1 47 2 view .LVU138
  56:Core/Src/console.c **** 		( buffer[i] != (char) NULL_CHAR )
 441              		.loc 1 56 55 view .LVU139
 442 007e 3278     		ldrb	r2, [r6]	@ zero_extendqisi2
 443 0080 0378     		ldrb	r3, [r0]	@ zero_extendqisi2
 444 0082 9A42     		cmp	r2, r3
 445 0084 4ED1     		bne	.L35
 446 0086 4E49     		ldr	r1, .L85+4
 447 0088 01F1090C 		add	ip, r1, #9
 448 008c 08E0     		b	.L36
 449              	.LVL35:
 450              	.L81:
  56:Core/Src/console.c **** 		( buffer[i] != (char) NULL_CHAR )
 451              		.loc 1 56 55 is_stmt 0 view .LVU140
 452 008e 1EF0010F 		tst	lr, #1
 453 0092 10D1     		bne	.L37
 454              	.L39:
 455 0094 10F8013F 		ldrb	r3, [r0, #1]!	@ zero_extendqisi2
 456              	.LVL36:
  56:Core/Src/console.c **** 		( buffer[i] != (char) NULL_CHAR )
 457              		.loc 1 56 55 view .LVU141
 458 0098 9342     		cmp	r3, r2
 459 009a 43D1     		bne	.L35
  53:Core/Src/console.c **** 		( i < CONSOLE_COMMAND_MAX_COMMAND_LENGTH )  &&
 460              		.loc 1 53 27 view .LVU142
 461 009c 6145     		cmp	r1, ip
 462 009e 0AD0     		beq	.L37
 463              	.LVL37:
 464              	.L36:
  60:Core/Src/console.c **** 		{
 465              		.loc 1 60 3 is_stmt 1 view .LVU143
  55:Core/Src/console.c **** 		( buffer[i] != LF_CHAR ) &&( buffer[i] != CR_CHAR ) &&
 466              		.loc 1 55 11 is_stmt 0 view .LVU144
 467 00a0 11F8012F 		ldrb	r2, [r1, #1]!	@ zero_extendqisi2
 468              	.LVL38:
  64:Core/Src/console.c **** 	}
 469              		.loc 1 64 3 is_stmt 1 view .LVU145
  56:Core/Src/console.c **** 		( buffer[i] != (char) NULL_CHAR )
 470              		.loc 1 56 55 view .LVU146
 471 00a4 A2F10A03 		sub	r3, r2, #10
 472 00a8 DBB2     		uxtb	r3, r3
ARM GAS  /var/folders/lp/x54gwt890xv47sdkqj1k04q40000gn/T//cczx2gXV.s 			page 18


 473 00aa 162B     		cmp	r3, #22
 474 00ac 24FA03FE 		lsr	lr, r4, r3
 475 00b0 EDD9     		bls	.L81
  56:Core/Src/console.c **** 		( buffer[i] != (char) NULL_CHAR )
 476              		.loc 1 56 55 is_stmt 0 discriminator 1 view .LVU147
 477 00b2 002A     		cmp	r2, #0
 478 00b4 EED1     		bne	.L39
 479              	.LVL39:
 480              	.L37:
  67:Core/Src/console.c **** }
 481              		.loc 1 67 2 is_stmt 1 view .LVU148
  67:Core/Src/console.c **** }
 482              		.loc 1 67 2 is_stmt 0 view .LVU149
 483              	.LBE25:
 484              	.LBE24:
 158:Core/Src/console.c **** 					if ( COMMAND_SUCCESS != result )
 485              		.loc 1 158 6 is_stmt 1 view .LVU150
 158:Core/Src/console.c **** 					if ( COMMAND_SUCCESS != result )
 486              		.loc 1 158 15 is_stmt 0 view .LVU151
 487 00b6 DBF80430 		ldr	r3, [fp, #4]
 488 00ba 4846     		mov	r0, r9
 489 00bc 9847     		blx	r3
 490              	.LVL40:
 159:Core/Src/console.c **** 					{
 491              		.loc 1 159 6 is_stmt 1 view .LVU152
 159:Core/Src/console.c **** 					{
 492              		.loc 1 159 9 is_stmt 0 view .LVU153
 493 00be 0028     		cmp	r0, #0
 494 00c0 3DD1     		bne	.L82
 495              	.LVL41:
 496              	.L54:
 169:Core/Src/console.c **** 				}
 497              		.loc 1 169 6 is_stmt 1 view .LVU154
 154:Core/Src/console.c **** 			{
 498              		.loc 1 154 52 view .LVU155
 154:Core/Src/console.c **** 			{
 499              		.loc 1 154 34 is_stmt 0 view .LVU156
 500 00c2 05EBC503 		add	r3, r5, r5, lsl #3
 501 00c6 0AEBC30B 		add	fp, r10, r3, lsl #3
 154:Core/Src/console.c **** 			{
 502              		.loc 1 154 44 view .LVU157
 503 00ca 5AF83300 		ldr	r0, [r10, r3, lsl #3]
 154:Core/Src/console.c **** 			{
 504              		.loc 1 154 52 view .LVU158
 505 00ce 0028     		cmp	r0, #0
 506 00d0 46D0     		beq	.L83
 154:Core/Src/console.c **** 			{
 507              		.loc 1 154 52 discriminator 1 view .LVU159
 508 00d2 6B1C     		adds	r3, r5, #1
 509 00d4 D3D0     		beq	.L45
 510              	.LVL42:
 511              	.L77:
 187:Core/Src/console.c **** 			mReceiveBufferNeedsChecking = mReceivedSoFar > 0 ? true : false;
 512              		.loc 1 187 21 view .LVU160
 513 00d6 3B68     		ldr	r3, [r7]
 514              	.L31:
 187:Core/Src/console.c **** 			mReceiveBufferNeedsChecking = mReceivedSoFar > 0 ? true : false;
ARM GAS  /var/folders/lp/x54gwt890xv47sdkqj1k04q40000gn/T//cczx2gXV.s 			page 19


 515              		.loc 1 187 4 is_stmt 1 view .LVU161
 516              	.LVL43:
 517              	.LBB26:
 518              	.LBI26:
  75:Core/Src/console.c **** {
 519              		.loc 1 75 17 view .LVU162
 520              	.LBB27:
  77:Core/Src/console.c **** 	uint32_t i = 0;
 521              		.loc 1 77 2 view .LVU163
  77:Core/Src/console.c **** 	uint32_t i = 0;
 522              		.loc 1 77 11 is_stmt 0 view .LVU164
 523 00d8 0199     		ldr	r1, [sp, #4]
  80:Core/Src/console.c **** 	{
 524              		.loc 1 80 19 view .LVU165
 525 00da 8B42     		cmp	r3, r1
  77:Core/Src/console.c **** 	uint32_t i = 0;
 526              		.loc 1 77 11 view .LVU166
 527 00dc A3EB0104 		sub	r4, r3, r1
 528              	.LVL44:
  78:Core/Src/console.c **** 
 529              		.loc 1 78 2 is_stmt 1 view .LVU167
  80:Core/Src/console.c **** 	{
 530              		.loc 1 80 2 view .LVU168
  80:Core/Src/console.c **** 	{
 531              		.loc 1 80 19 view .LVU169
 532 00e0 4ED9     		bls	.L57
 533 00e2 4A1E     		subs	r2, r1, #1
 534 00e4 3244     		add	r2, r2, r6
 535 00e6 364E     		ldr	r6, .L85+4
 536 00e8 3344     		add	r3, r3, r6
 537 00ea 581A     		subs	r0, r3, r1
 538 00ec 3346     		mov	r3, r6
 539              	.LVL45:
 540              	.L50:
  82:Core/Src/console.c **** 		i++;
 541              		.loc 1 82 3 view .LVU170
  82:Core/Src/console.c **** 		i++;
 542              		.loc 1 82 35 is_stmt 0 view .LVU171
 543 00ee 12F8011F 		ldrb	r1, [r2, #1]!	@ zero_extendqisi2
 544              	.LVL46:
  82:Core/Src/console.c **** 		i++;
 545              		.loc 1 82 20 view .LVU172
 546 00f2 03F8011B 		strb	r1, [r3], #1
  83:Core/Src/console.c **** 		usedSoFar++;
 547              		.loc 1 83 3 is_stmt 1 view .LVU173
  84:Core/Src/console.c **** 	}
 548              		.loc 1 84 3 view .LVU174
 549              	.LVL47:
  80:Core/Src/console.c **** 	{
 550              		.loc 1 80 19 view .LVU175
 551 00f6 9842     		cmp	r0, r3
 552 00f8 F9D1     		bne	.L50
 553              	.LVL48:
  86:Core/Src/console.c **** 	{
 554              		.loc 1 86 26 discriminator 1 view .LVU176
 555 00fa FF2C     		cmp	r4, #255
 556 00fc 06D8     		bhi	.L51
ARM GAS  /var/folders/lp/x54gwt890xv47sdkqj1k04q40000gn/T//cczx2gXV.s 			page 20


 557 00fe 2246     		mov	r2, r4
 558              	.LVL49:
 559              	.L47:
  88:Core/Src/console.c **** 	}
 560              		.loc 1 88 20 is_stmt 0 view .LVU177
 561 0100 B018     		adds	r0, r6, r2
 562 0102 0021     		movs	r1, #0
 563 0104 C2F58072 		rsb	r2, r2, #256
 564 0108 FFF7FEFF 		bl	memset
 565              	.LVL50:
 566              	.L51:
  90:Core/Src/console.c **** }
 567              		.loc 1 90 2 is_stmt 1 view .LVU178
  90:Core/Src/console.c **** }
 568              		.loc 1 90 2 is_stmt 0 view .LVU179
 569              	.LBE27:
 570              	.LBE26:
 188:Core/Src/console.c **** 			ConsoleIoSendString(CONSOLE_PROMPT);
 571              		.loc 1 188 60 view .LVU180
 572 010c 231E     		subs	r3, r4, #0
 573 010e 18BF     		it	ne
 574 0110 0123     		movne	r3, #1
 189:Core/Src/console.c **** 		}
 575              		.loc 1 189 4 view .LVU181
 576 0112 2D48     		ldr	r0, .L85+12
 187:Core/Src/console.c **** 			mReceiveBufferNeedsChecking = mReceivedSoFar > 0 ? true : false;
 577              		.loc 1 187 19 discriminator 1 view .LVU182
 578 0114 3C60     		str	r4, [r7]
 188:Core/Src/console.c **** 			ConsoleIoSendString(CONSOLE_PROMPT);
 579              		.loc 1 188 4 is_stmt 1 view .LVU183
 188:Core/Src/console.c **** 			ConsoleIoSendString(CONSOLE_PROMPT);
 580              		.loc 1 188 60 is_stmt 0 view .LVU184
 581 0116 88F80030 		strb	r3, [r8]
 189:Core/Src/console.c **** 		}
 582              		.loc 1 189 4 is_stmt 1 view .LVU185
 583 011a FFF7FEFF 		bl	ConsoleIoSendString
 584              	.LVL51:
 192:Core/Src/console.c **** 
 585              		.loc 1 192 1 is_stmt 0 view .LVU186
 586 011e 05B0     		add	sp, sp, #20
 587              		.cfi_remember_state
 588              		.cfi_def_cfa_offset 36
 589              		@ sp needed
 590 0120 BDE8F08F 		pop	{r4, r5, r6, r7, r8, r9, r10, fp, pc}
 591              	.LVL52:
 592              	.L35:
 593              		.cfi_restore_state
 173:Core/Src/console.c **** 
 594              		.loc 1 173 6 is_stmt 1 view .LVU187
 173:Core/Src/console.c **** 
 595              		.loc 1 173 14 is_stmt 0 view .LVU188
 596 0124 0135     		adds	r5, r5, #1
 597              	.LVL53:
 154:Core/Src/console.c **** 			{
 598              		.loc 1 154 52 is_stmt 1 view .LVU189
 154:Core/Src/console.c **** 			{
 599              		.loc 1 154 34 is_stmt 0 view .LVU190
ARM GAS  /var/folders/lp/x54gwt890xv47sdkqj1k04q40000gn/T//cczx2gXV.s 			page 21


 600 0126 05EBC503 		add	r3, r5, r5, lsl #3
 601 012a 0AEBC30B 		add	fp, r10, r3, lsl #3
 154:Core/Src/console.c **** 			{
 602              		.loc 1 154 44 view .LVU191
 603 012e 5AF83300 		ldr	r0, [r10, r3, lsl #3]
 154:Core/Src/console.c **** 			{
 604              		.loc 1 154 52 view .LVU192
 605 0132 0028     		cmp	r0, #0
 606 0134 A3D1     		bne	.L45
 177:Core/Src/console.c **** 			{
 607              		.loc 1 177 4 is_stmt 1 view .LVU193
 177:Core/Src/console.c **** 			{
 608              		.loc 1 177 7 is_stmt 0 view .LVU194
 609 0136 009A     		ldr	r2, [sp]
 179:Core/Src/console.c **** 				{
 610              		.loc 1 179 24 view .LVU195
 611 0138 3B68     		ldr	r3, [r7]
 177:Core/Src/console.c **** 			{
 612              		.loc 1 177 7 view .LVU196
 613 013a BAB9     		cbnz	r2, .L52
 614 013c CCE7     		b	.L31
 615              	.LVL54:
 616              	.L82:
 161:Core/Src/console.c **** 						ConsoleIoSendString(mReceiveBuffer);
 617              		.loc 1 161 7 is_stmt 1 view .LVU197
 618 013e 2348     		ldr	r0, .L85+16
 619              	.LVL55:
 161:Core/Src/console.c **** 						ConsoleIoSendString(mReceiveBuffer);
 620              		.loc 1 161 7 is_stmt 0 view .LVU198
 621 0140 FFF7FEFF 		bl	ConsoleIoSendString
 622              	.LVL56:
 162:Core/Src/console.c **** 
 623              		.loc 1 162 7 is_stmt 1 view .LVU199
 624 0144 4846     		mov	r0, r9
 625 0146 FFF7FEFF 		bl	ConsoleIoSendString
 626              	.LVL57:
 164:Core/Src/console.c **** 						ConsoleIoSendString(commandTable[cmdIndex].help);
 627              		.loc 1 164 7 view .LVU200
 628 014a 2148     		ldr	r0, .L85+20
 629 014c FFF7FEFF 		bl	ConsoleIoSendString
 630              	.LVL58:
 165:Core/Src/console.c **** 						ConsoleIoSendString(STR_ENDLINE);
 631              		.loc 1 165 7 view .LVU201
 632 0150 0BF10800 		add	r0, fp, #8
 633 0154 FFF7FEFF 		bl	ConsoleIoSendString
 634              	.LVL59:
 166:Core/Src/console.c **** 
 635              		.loc 1 166 7 view .LVU202
 636 0158 1E48     		ldr	r0, .L85+24
 637 015a FFF7FEFF 		bl	ConsoleIoSendString
 638              	.LVL60:
 639 015e B0E7     		b	.L54
 640              	.LVL61:
 641              	.L83:
 177:Core/Src/console.c **** 			{
 642              		.loc 1 177 4 view .LVU203
 177:Core/Src/console.c **** 			{
ARM GAS  /var/folders/lp/x54gwt890xv47sdkqj1k04q40000gn/T//cczx2gXV.s 			page 22


 643              		.loc 1 177 7 is_stmt 0 view .LVU204
 644 0160 009A     		ldr	r2, [sp]
 179:Core/Src/console.c **** 				{
 645              		.loc 1 179 24 view .LVU205
 646 0162 3B68     		ldr	r3, [r7]
 177:Core/Src/console.c **** 			{
 647              		.loc 1 177 7 view .LVU206
 648 0164 002A     		cmp	r2, #0
 649 0166 B7D0     		beq	.L31
 177:Core/Src/console.c **** 			{
 650              		.loc 1 177 29 discriminator 1 view .LVU207
 651 0168 0135     		adds	r5, r5, #1
 652              	.LVL62:
 177:Core/Src/console.c **** 			{
 653              		.loc 1 177 29 discriminator 1 view .LVU208
 654 016a B5D1     		bne	.L31
 655              	.LVL63:
 656              	.L52:
 179:Core/Src/console.c **** 				{
 657              		.loc 1 179 5 is_stmt 1 view .LVU209
 179:Core/Src/console.c **** 				{
 658              		.loc 1 179 24 is_stmt 0 view .LVU210
 659 016c 3B68     		ldr	r3, [r7]
 179:Core/Src/console.c **** 				{
 660              		.loc 1 179 8 view .LVU211
 661 016e 022B     		cmp	r3, #2
 662 0170 B2D9     		bls	.L31
 663              	.L46:
 181:Core/Src/console.c **** 					ConsoleIoSendString(STR_ENDLINE);
 664              		.loc 1 181 6 is_stmt 1 view .LVU212
 665 0172 1948     		ldr	r0, .L85+28
 666 0174 FFF7FEFF 		bl	ConsoleIoSendString
 667              	.LVL64:
 182:Core/Src/console.c **** 				}
 668              		.loc 1 182 6 view .LVU213
 669 0178 1648     		ldr	r0, .L85+24
 670 017a FFF7FEFF 		bl	ConsoleIoSendString
 671              	.LVL65:
 672 017e AAE7     		b	.L77
 673              	.LVL66:
 674              	.L57:
 675              	.LBB30:
 676              	.LBB28:
  78:Core/Src/console.c **** 
 677              		.loc 1 78 11 is_stmt 0 view .LVU214
 678 0180 0022     		movs	r2, #0
 679 0182 BDE7     		b	.L47
 680              	.LVL67:
 681              	.L27:
  78:Core/Src/console.c **** 
 682              		.loc 1 78 11 view .LVU215
 683              	.LBE28:
 684              	.LBE30:
 685              	.LBB31:
 686              	.LBB19:
 105:Core/Src/console.c **** 	{
 687              		.loc 1 105 2 is_stmt 1 view .LVU216
ARM GAS  /var/folders/lp/x54gwt890xv47sdkqj1k04q40000gn/T//cczx2gXV.s 			page 23


 105:Core/Src/console.c **** 	{
 688              		.loc 1 105 5 is_stmt 0 view .LVU217
 689 0184 0029     		cmp	r1, #0
 690 0186 3FF469AF 		beq	.L24
 107:Core/Src/console.c **** 	}
 691              		.loc 1 107 3 is_stmt 1 view .LVU218
 692              	.LVL68:
 109:Core/Src/console.c **** }
 693              		.loc 1 109 2 view .LVU219
 109:Core/Src/console.c **** }
 694              		.loc 1 109 2 is_stmt 0 view .LVU220
 695              	.LBE19:
 696              	.LBE31:
 149:Core/Src/console.c **** 		{
 697              		.loc 1 149 3 is_stmt 1 view .LVU221
 151:Core/Src/console.c **** 			cmdIndex = 0u;
 698              		.loc 1 151 4 view .LVU222
 151:Core/Src/console.c **** 			cmdIndex = 0u;
 699              		.loc 1 151 19 is_stmt 0 view .LVU223
 700 018a FFF7FEFF 		bl	ConsoleCommandsGetTable
 701              	.LVL69:
 702 018e 8246     		mov	r10, r0
 703              	.LVL70:
 152:Core/Src/console.c **** 			found = NOT_FOUND;
 704              		.loc 1 152 4 is_stmt 1 view .LVU224
 153:Core/Src/console.c **** 			while ( ( NULL != commandTable[cmdIndex].name ) && ( NOT_FOUND == found ) )
 705              		.loc 1 153 4 view .LVU225
 154:Core/Src/console.c **** 			{
 706              		.loc 1 154 4 view .LVU226
 154:Core/Src/console.c **** 			{
 707              		.loc 1 154 52 view .LVU227
 154:Core/Src/console.c **** 			{
 708              		.loc 1 154 44 is_stmt 0 view .LVU228
 709 0190 0068     		ldr	r0, [r0]
 710              	.LVL71:
 154:Core/Src/console.c **** 			{
 711              		.loc 1 154 52 view .LVU229
 712 0192 70B1     		cbz	r0, .L84
 713 0194 0123     		movs	r3, #1
 714              	.LBB32:
 715              	.LBB20:
 107:Core/Src/console.c **** 	}
 716              		.loc 1 107 10 view .LVU230
 717 0196 0094     		str	r4, [sp]
 718              	.LBE20:
 719              	.LBE32:
 154:Core/Src/console.c **** 			{
 720              		.loc 1 154 52 view .LVU231
 721 0198 0193     		str	r3, [sp, #4]
 722 019a 6BE7     		b	.L30
 723              	.LVL72:
 724              	.L80:
 177:Core/Src/console.c **** 			{
 725              		.loc 1 177 4 is_stmt 1 view .LVU232
 187:Core/Src/console.c **** 			mReceiveBufferNeedsChecking = mReceivedSoFar > 0 ? true : false;
 726              		.loc 1 187 21 is_stmt 0 view .LVU233
 727 019c 3B68     		ldr	r3, [r7]
ARM GAS  /var/folders/lp/x54gwt890xv47sdkqj1k04q40000gn/T//cczx2gXV.s 			page 24


 177:Core/Src/console.c **** 			{
 728              		.loc 1 177 7 view .LVU234
 729 019e 2CB1     		cbz	r4, .L56
 179:Core/Src/console.c **** 				{
 730              		.loc 1 179 5 is_stmt 1 view .LVU235
 179:Core/Src/console.c **** 				{
 731              		.loc 1 179 8 is_stmt 0 view .LVU236
 732 01a0 022B     		cmp	r3, #2
 733 01a2 E6D8     		bhi	.L46
 187:Core/Src/console.c **** 			mReceiveBufferNeedsChecking = mReceivedSoFar > 0 ? true : false;
 734              		.loc 1 187 4 is_stmt 1 view .LVU237
 735              	.LVL73:
 736              	.LBB33:
  75:Core/Src/console.c **** {
 737              		.loc 1 75 17 view .LVU238
 738              	.LBB29:
  77:Core/Src/console.c **** 	uint32_t i = 0;
 739              		.loc 1 77 2 view .LVU239
  77:Core/Src/console.c **** 	uint32_t i = 0;
 740              		.loc 1 77 11 is_stmt 0 view .LVU240
 741 01a4 019A     		ldr	r2, [sp, #4]
 742 01a6 9C1A     		subs	r4, r3, r2
 743              	.LVL74:
  78:Core/Src/console.c **** 
 744              		.loc 1 78 2 is_stmt 1 view .LVU241
  80:Core/Src/console.c **** 	{
 745              		.loc 1 80 2 view .LVU242
  80:Core/Src/console.c **** 	{
 746              		.loc 1 80 19 view .LVU243
  78:Core/Src/console.c **** 
 747              		.loc 1 78 11 is_stmt 0 view .LVU244
 748 01a8 0246     		mov	r2, r0
 749 01aa A9E7     		b	.L47
 750              	.LVL75:
 751              	.L56:
  78:Core/Src/console.c **** 
 752              		.loc 1 78 11 view .LVU245
 753              	.LBE29:
 754              	.LBE33:
 177:Core/Src/console.c **** 			{
 755              		.loc 1 177 7 view .LVU246
 756 01ac 0122     		movs	r2, #1
 757 01ae 0192     		str	r2, [sp, #4]
 758 01b0 92E7     		b	.L31
 759              	.LVL76:
 760              	.L84:
 187:Core/Src/console.c **** 			mReceiveBufferNeedsChecking = mReceivedSoFar > 0 ? true : false;
 761              		.loc 1 187 21 view .LVU247
 762 01b2 0122     		movs	r2, #1
 763 01b4 3B68     		ldr	r3, [r7]
 764 01b6 0192     		str	r2, [sp, #4]
 765 01b8 8EE7     		b	.L31
 766              	.L86:
 767 01ba 00BF     		.align	2
 768              	.L85:
 769 01bc 00000000 		.word	mReceivedSoFar
 770 01c0 00000000 		.word	mReceiveBuffer
ARM GAS  /var/folders/lp/x54gwt890xv47sdkqj1k04q40000gn/T//cczx2gXV.s 			page 25


 771 01c4 09004000 		.word	4194313
 772 01c8 4C000000 		.word	.LC2
 773 01cc 00000000 		.word	.LC3
 774 01d0 08000000 		.word	.LC4
 775 01d4 48000000 		.word	.LC1
 776 01d8 10000000 		.word	.LC5
 777 01dc 00000000 		.word	mReceiveBufferNeedsChecking
 778              		.cfi_endproc
 779              	.LFE4:
 781              		.section	.text.ConsoleReceiveParamInt16,"ax",%progbits
 782              		.align	1
 783              		.p2align 2,,3
 784              		.global	ConsoleReceiveParamInt16
 785              		.syntax unified
 786              		.thumb
 787              		.thumb_func
 789              	ConsoleReceiveParamInt16:
 790              	.LVL77:
 791              	.LFB6:
 225:Core/Src/console.c **** 	uint32_t startIndex = 0;
 792              		.loc 1 225 1 is_stmt 1 view -0
 793              		.cfi_startproc
 794              		@ args = 0, pretend = 0, frame = 8
 795              		@ frame_needed = 0, uses_anonymous_args = 0
 226:Core/Src/console.c **** 	uint32_t i;
 796              		.loc 1 226 2 view .LVU249
 227:Core/Src/console.c **** 	eCommandResult_T result;
 797              		.loc 1 227 2 view .LVU250
 228:Core/Src/console.c **** 	char charVal;
 798              		.loc 1 228 2 view .LVU251
 229:Core/Src/console.c **** 	char str[INT16_MAX_STR_LENGTH];
 799              		.loc 1 229 2 view .LVU252
 230:Core/Src/console.c **** 
 800              		.loc 1 230 2 view .LVU253
 232:Core/Src/console.c **** 
 801              		.loc 1 232 2 view .LVU254
 802              	.LBB36:
 803              	.LBI36:
 196:Core/Src/console.c **** {
 804              		.loc 1 196 25 view .LVU255
 805              	.LBB37:
 198:Core/Src/console.c **** 	uint32_t parameterIndex = 0;
 806              		.loc 1 198 2 view .LVU256
 199:Core/Src/console.c **** 	eCommandResult_T result = COMMAND_SUCCESS;
 807              		.loc 1 199 2 view .LVU257
 200:Core/Src/console.c **** 	while ( ( parameterNumber != parameterIndex ) && ( bufferIndex < CONSOLE_COMMAND_MAX_LENGTH ) )
 808              		.loc 1 200 2 view .LVU258
 201:Core/Src/console.c **** 	{
 809              		.loc 1 201 2 view .LVU259
 201:Core/Src/console.c **** 	{
 810              		.loc 1 201 48 view .LVU260
 811              	.LBE37:
 812              	.LBE36:
 225:Core/Src/console.c **** 	uint32_t startIndex = 0;
 813              		.loc 1 225 1 is_stmt 0 view .LVU261
 814 0000 F0B5     		push	{r4, r5, r6, r7, lr}
 815              		.cfi_def_cfa_offset 20
ARM GAS  /var/folders/lp/x54gwt890xv47sdkqj1k04q40000gn/T//cczx2gXV.s 			page 26


 816              		.cfi_offset 4, -20
 817              		.cfi_offset 5, -16
 818              		.cfi_offset 6, -12
 819              		.cfi_offset 7, -8
 820              		.cfi_offset 14, -4
 821 0002 1546     		mov	r5, r2
 822 0004 83B0     		sub	sp, sp, #12
 823              		.cfi_def_cfa_offset 32
 824              	.LBB41:
 825              	.LBB38:
 201:Core/Src/console.c **** 	{
 826              		.loc 1 201 48 view .LVU262
 827 0006 0029     		cmp	r1, #0
 828 0008 47D0     		beq	.L98
 829 000a 431E     		subs	r3, r0, #1
 830 000c 00F1FF02 		add	r2, r0, #255
 831              	.LVL78:
 199:Core/Src/console.c **** 	eCommandResult_T result = COMMAND_SUCCESS;
 832              		.loc 1 199 11 view .LVU263
 833 0010 0024     		movs	r4, #0
 834 0012 01E0     		b	.L91
 835              	.LVL79:
 836              	.L104:
 201:Core/Src/console.c **** 	{
 837              		.loc 1 201 48 discriminator 1 view .LVU264
 838 0014 9342     		cmp	r3, r2
 839 0016 08D0     		beq	.L90
 840              	.LVL80:
 841              	.L91:
 203:Core/Src/console.c **** 		{
 842              		.loc 1 203 3 is_stmt 1 view .LVU265
 843 0018 9C46     		mov	ip, r3
 203:Core/Src/console.c **** 		{
 844              		.loc 1 203 6 is_stmt 0 view .LVU266
 845 001a 13F801EF 		ldrb	lr, [r3, #1]!	@ zero_extendqisi2
 846 001e BEF1200F 		cmp	lr, #32
 205:Core/Src/console.c **** 		}
 847              		.loc 1 205 4 is_stmt 1 view .LVU267
 205:Core/Src/console.c **** 		}
 848              		.loc 1 205 18 is_stmt 0 view .LVU268
 849 0022 08BF     		it	eq
 850 0024 0134     		addeq	r4, r4, #1
 851              	.LVL81:
 207:Core/Src/console.c **** 	}
 852              		.loc 1 207 3 is_stmt 1 view .LVU269
 201:Core/Src/console.c **** 	{
 853              		.loc 1 201 48 view .LVU270
 201:Core/Src/console.c **** 	{
 854              		.loc 1 201 48 is_stmt 0 view .LVU271
 855 0026 8C42     		cmp	r4, r1
 856 0028 F4D1     		bne	.L104
 857              	.L90:
 207:Core/Src/console.c **** 	}
 858              		.loc 1 207 14 view .LVU272
 859 002a 0CF10203 		add	r3, ip, #2
 860 002e 1B1A     		subs	r3, r3, r0
 209:Core/Src/console.c **** 	{
ARM GAS  /var/folders/lp/x54gwt890xv47sdkqj1k04q40000gn/T//cczx2gXV.s 			page 27


 861              		.loc 1 209 2 is_stmt 1 view .LVU273
 209:Core/Src/console.c **** 	{
 862              		.loc 1 209 6 is_stmt 0 view .LVU274
 863 0030 B3F5807F 		cmp	r3, #256
 864 0034 2ED0     		beq	.L99
 865              	.LBE38:
 866              	.LBE41:
 235:Core/Src/console.c **** 	while ( ( LF_CHAR != charVal ) && ( CR_CHAR != charVal )
 867              		.loc 1 235 18 view .LVU275
 868 0036 0344     		add	r3, r3, r0
 869 0038 1846     		mov	r0, r3
 870              	.LVL82:
 871              	.L88:
 872              	.LBB42:
 873              	.LBB39:
 215:Core/Src/console.c **** 	}
 874              		.loc 1 215 3 is_stmt 1 view .LVU276
 200:Core/Src/console.c **** 	while ( ( parameterNumber != parameterIndex ) && ( bufferIndex < CONSOLE_COMMAND_MAX_LENGTH ) )
 875              		.loc 1 200 19 is_stmt 0 view .LVU277
 876 003a 0026     		movs	r6, #0
 877              	.LVL83:
 878              	.L92:
 217:Core/Src/console.c **** }
 879              		.loc 1 217 2 is_stmt 1 view .LVU278
 217:Core/Src/console.c **** }
 880              		.loc 1 217 2 is_stmt 0 view .LVU279
 881              	.LBE39:
 882              	.LBE42:
 234:Core/Src/console.c **** 	charVal = buffer[startIndex + i];
 883              		.loc 1 234 2 is_stmt 1 view .LVU280
 235:Core/Src/console.c **** 	while ( ( LF_CHAR != charVal ) && ( CR_CHAR != charVal )
 884              		.loc 1 235 2 view .LVU281
 235:Core/Src/console.c **** 	while ( ( LF_CHAR != charVal ) && ( CR_CHAR != charVal )
 885              		.loc 1 235 10 is_stmt 0 view .LVU282
 886 003c 0078     		ldrb	r0, [r0]	@ zero_extendqisi2
 887              	.LVL84:
 236:Core/Src/console.c **** 			&& ( PARAMETER_SEPARATER != charVal )
 888              		.loc 1 236 2 is_stmt 1 view .LVU283
 889 003e 184F     		ldr	r7, .L105
 890 0040 0DF1FF34 		add	r4, sp, #-1
 234:Core/Src/console.c **** 	charVal = buffer[startIndex + i];
 891              		.loc 1 234 4 is_stmt 0 view .LVU284
 892 0044 0022     		movs	r2, #0
 236:Core/Src/console.c **** 			&& ( PARAMETER_SEPARATER != charVal )
 893              		.loc 1 236 8 view .LVU285
 894 0046 04E0     		b	.L93
 895              	.LVL85:
 896              	.L96:
 240:Core/Src/console.c **** 		i++;
 897              		.loc 1 240 10 view .LVU286
 898 0048 04F8010F 		strb	r0, [r4, #1]!
 241:Core/Src/console.c **** 		charVal = buffer[startIndex + i];
 899              		.loc 1 241 3 is_stmt 1 view .LVU287
 242:Core/Src/console.c **** 	}
 900              		.loc 1 242 11 is_stmt 0 view .LVU288
 901 004c 13F8010F 		ldrb	r0, [r3, #1]!	@ zero_extendqisi2
 902              	.LVL86:
ARM GAS  /var/folders/lp/x54gwt890xv47sdkqj1k04q40000gn/T//cczx2gXV.s 			page 28


 241:Core/Src/console.c **** 		charVal = buffer[startIndex + i];
 903              		.loc 1 241 4 view .LVU289
 904 0050 0132     		adds	r2, r2, #1
 905              	.LVL87:
 242:Core/Src/console.c **** 	}
 906              		.loc 1 242 3 is_stmt 1 view .LVU290
 907              	.L93:
 240:Core/Src/console.c **** 		i++;
 908              		.loc 1 240 3 view .LVU291
 238:Core/Src/console.c **** 	{
 909              		.loc 1 238 3 view .LVU292
 910 0052 A0F10A01 		sub	r1, r0, #10
 911 0056 C9B2     		uxtb	r1, r1
 912 0058 1629     		cmp	r1, #22
 913 005a 27FA01FC 		lsr	ip, r7, r1
 914 005e 02D8     		bhi	.L94
 238:Core/Src/console.c **** 	{
 915              		.loc 1 238 3 is_stmt 0 view .LVU293
 916 0060 1CF0010F 		tst	ip, #1
 917 0064 05D1     		bne	.L95
 918              	.L94:
 919 0066 082A     		cmp	r2, #8
 920 0068 EED1     		bne	.L96
 921              	.L101:
 246:Core/Src/console.c **** 	}
 922              		.loc 1 246 10 view .LVU294
 923 006a 1026     		movs	r6, #16
 924              	.LVL88:
 253:Core/Src/console.c **** }
 925              		.loc 1 253 2 is_stmt 1 view .LVU295
 254:Core/Src/console.c **** 
 926              		.loc 1 254 1 is_stmt 0 view .LVU296
 927 006c 3046     		mov	r0, r6
 928              	.LVL89:
 254:Core/Src/console.c **** 
 929              		.loc 1 254 1 view .LVU297
 930 006e 03B0     		add	sp, sp, #12
 931              		.cfi_remember_state
 932              		.cfi_def_cfa_offset 20
 933              		@ sp needed
 934 0070 F0BD     		pop	{r4, r5, r6, r7, pc}
 935              	.LVL90:
 936              	.L95:
 937              		.cfi_restore_state
 244:Core/Src/console.c **** 	{
 938              		.loc 1 244 2 is_stmt 1 view .LVU298
 244:Core/Src/console.c **** 	{
 939              		.loc 1 244 5 is_stmt 0 view .LVU299
 940 0072 082A     		cmp	r2, #8
 941 0074 F9D0     		beq	.L101
 248:Core/Src/console.c **** 	{
 942              		.loc 1 248 2 is_stmt 1 view .LVU300
 248:Core/Src/console.c **** 	{
 943              		.loc 1 248 5 is_stmt 0 view .LVU301
 944 0076 002E     		cmp	r6, #0
 945 0078 F7D1     		bne	.L101
 250:Core/Src/console.c **** 		*parameterInt = atoi(str);
ARM GAS  /var/folders/lp/x54gwt890xv47sdkqj1k04q40000gn/T//cczx2gXV.s 			page 29


 946              		.loc 1 250 3 is_stmt 1 view .LVU302
 250:Core/Src/console.c **** 		*parameterInt = atoi(str);
 947              		.loc 1 250 10 is_stmt 0 view .LVU303
 948 007a 02F10803 		add	r3, r2, #8
 949 007e 0DEB0302 		add	r2, sp, r3
 950              	.LVL91:
 251:Core/Src/console.c **** 	}
 951              		.loc 1 251 19 view .LVU304
 952 0082 6846     		mov	r0, sp
 953              	.LVL92:
 250:Core/Src/console.c **** 		*parameterInt = atoi(str);
 954              		.loc 1 250 10 view .LVU305
 955 0084 02F8086C 		strb	r6, [r2, #-8]
 251:Core/Src/console.c **** 	}
 956              		.loc 1 251 3 is_stmt 1 view .LVU306
 251:Core/Src/console.c **** 	}
 957              		.loc 1 251 19 is_stmt 0 view .LVU307
 958 0088 FFF7FEFF 		bl	atoi
 959              	.LVL93:
 251:Core/Src/console.c **** 	}
 960              		.loc 1 251 17 discriminator 1 view .LVU308
 961 008c 2880     		strh	r0, [r5]	@ movhi
 962              	.LVL94:
 253:Core/Src/console.c **** }
 963              		.loc 1 253 2 is_stmt 1 view .LVU309
 254:Core/Src/console.c **** 
 964              		.loc 1 254 1 is_stmt 0 view .LVU310
 965 008e 3046     		mov	r0, r6
 966 0090 03B0     		add	sp, sp, #12
 967              		.cfi_remember_state
 968              		.cfi_def_cfa_offset 20
 969              		@ sp needed
 970 0092 F0BD     		pop	{r4, r5, r6, r7, pc}
 971              	.LVL95:
 972              	.L99:
 973              		.cfi_restore_state
 974              	.LBB43:
 975              	.LBB40:
 211:Core/Src/console.c **** 	}
 976              		.loc 1 211 10 view .LVU311
 977 0094 1026     		movs	r6, #16
 978 0096 0346     		mov	r3, r0
 979 0098 D0E7     		b	.L92
 980              	.LVL96:
 981              	.L98:
 211:Core/Src/console.c **** 	}
 982              		.loc 1 211 10 view .LVU312
 983 009a 0346     		mov	r3, r0
 984 009c CDE7     		b	.L88
 985              	.L106:
 986 009e 00BF     		.align	2
 987              	.L105:
 988 00a0 09004000 		.word	4194313
 989              	.LBE40:
 990              	.LBE43:
 991              		.cfi_endproc
 992              	.LFE6:
ARM GAS  /var/folders/lp/x54gwt890xv47sdkqj1k04q40000gn/T//cczx2gXV.s 			page 30


 994              		.section	.text.ConsoleReceiveParamHexUint16,"ax",%progbits
 995              		.align	1
 996              		.p2align 2,,3
 997              		.global	ConsoleReceiveParamHexUint16
 998              		.syntax unified
 999              		.thumb
 1000              		.thumb_func
 1002              	ConsoleReceiveParamHexUint16:
 1003              	.LVL97:
 1004              	.LFB7:
 260:Core/Src/console.c **** 	uint32_t startIndex = 0;
 1005              		.loc 1 260 1 is_stmt 1 view -0
 1006              		.cfi_startproc
 1007              		@ args = 0, pretend = 0, frame = 0
 1008              		@ frame_needed = 0, uses_anonymous_args = 0
 261:Core/Src/console.c **** 	uint16_t value = 0;
 1009              		.loc 1 261 2 view .LVU314
 262:Core/Src/console.c **** 	uint32_t i;
 1010              		.loc 1 262 2 view .LVU315
 263:Core/Src/console.c **** 	eCommandResult_T result;
 1011              		.loc 1 263 2 view .LVU316
 264:Core/Src/console.c **** 	uint8_t tmpUint8;
 1012              		.loc 1 264 2 view .LVU317
 265:Core/Src/console.c **** 
 1013              		.loc 1 265 2 view .LVU318
 267:Core/Src/console.c **** 	if ( COMMAND_SUCCESS == result )
 1014              		.loc 1 267 2 view .LVU319
 1015              	.LBB48:
 1016              	.LBI48:
 196:Core/Src/console.c **** {
 1017              		.loc 1 196 25 view .LVU320
 1018              	.LBB49:
 198:Core/Src/console.c **** 	uint32_t parameterIndex = 0;
 1019              		.loc 1 198 2 view .LVU321
 199:Core/Src/console.c **** 	eCommandResult_T result = COMMAND_SUCCESS;
 1020              		.loc 1 199 2 view .LVU322
 200:Core/Src/console.c **** 	while ( ( parameterNumber != parameterIndex ) && ( bufferIndex < CONSOLE_COMMAND_MAX_LENGTH ) )
 1021              		.loc 1 200 2 view .LVU323
 201:Core/Src/console.c **** 	{
 1022              		.loc 1 201 2 view .LVU324
 201:Core/Src/console.c **** 	{
 1023              		.loc 1 201 48 view .LVU325
 1024              	.LBE49:
 1025              	.LBE48:
 260:Core/Src/console.c **** 	uint32_t startIndex = 0;
 1026              		.loc 1 260 1 is_stmt 0 view .LVU326
 1027 0000 30B5     		push	{r4, r5, lr}
 1028              		.cfi_def_cfa_offset 12
 1029              		.cfi_offset 4, -12
 1030              		.cfi_offset 5, -8
 1031              		.cfi_offset 14, -4
 1032              	.LBB52:
 1033              	.LBB50:
 201:Core/Src/console.c **** 	{
 1034              		.loc 1 201 48 view .LVU327
 1035 0002 0029     		cmp	r1, #0
 1036 0004 52D0     		beq	.L119
ARM GAS  /var/folders/lp/x54gwt890xv47sdkqj1k04q40000gn/T//cczx2gXV.s 			page 31


 1037 0006 431E     		subs	r3, r0, #1
 1038 0008 00F1FF05 		add	r5, r0, #255
 199:Core/Src/console.c **** 	eCommandResult_T result = COMMAND_SUCCESS;
 1039              		.loc 1 199 11 view .LVU328
 1040 000c 4FF0000E 		mov	lr, #0
 1041 0010 01E0     		b	.L111
 1042              	.LVL98:
 1043              	.L127:
 201:Core/Src/console.c **** 	{
 1044              		.loc 1 201 48 discriminator 1 view .LVU329
 1045 0012 9D42     		cmp	r5, r3
 1046 0014 09D0     		beq	.L110
 1047              	.LVL99:
 1048              	.L111:
 203:Core/Src/console.c **** 		{
 1049              		.loc 1 203 3 is_stmt 1 view .LVU330
 1050 0016 1C46     		mov	r4, r3
 203:Core/Src/console.c **** 		{
 1051              		.loc 1 203 6 is_stmt 0 view .LVU331
 1052 0018 13F801CF 		ldrb	ip, [r3, #1]!	@ zero_extendqisi2
 1053              	.LVL100:
 203:Core/Src/console.c **** 		{
 1054              		.loc 1 203 6 view .LVU332
 1055 001c BCF1200F 		cmp	ip, #32
 205:Core/Src/console.c **** 		}
 1056              		.loc 1 205 4 is_stmt 1 view .LVU333
 205:Core/Src/console.c **** 		}
 1057              		.loc 1 205 18 is_stmt 0 view .LVU334
 1058 0020 08BF     		it	eq
 1059 0022 0EF1010E 		addeq	lr, lr, #1
 1060              	.LVL101:
 207:Core/Src/console.c **** 	}
 1061              		.loc 1 207 3 is_stmt 1 view .LVU335
 201:Core/Src/console.c **** 	{
 1062              		.loc 1 201 48 view .LVU336
 201:Core/Src/console.c **** 	{
 1063              		.loc 1 201 48 is_stmt 0 view .LVU337
 1064 0026 8E45     		cmp	lr, r1
 1065 0028 F3D1     		bne	.L127
 1066              	.L110:
 207:Core/Src/console.c **** 	}
 1067              		.loc 1 207 14 view .LVU338
 1068 002a 0234     		adds	r4, r4, #2
 1069 002c 241A     		subs	r4, r4, r0
 209:Core/Src/console.c **** 	{
 1070              		.loc 1 209 2 is_stmt 1 view .LVU339
 209:Core/Src/console.c **** 	{
 1071              		.loc 1 209 6 is_stmt 0 view .LVU340
 1072 002e B4F5807F 		cmp	r4, #256
 1073 0032 27D0     		beq	.L128
 1074              	.LVL102:
 1075              	.L108:
 209:Core/Src/console.c **** 	{
 1076              		.loc 1 209 6 view .LVU341
 1077              	.LBE50:
 1078              	.LBE52:
 272:Core/Src/console.c **** 		{
ARM GAS  /var/folders/lp/x54gwt890xv47sdkqj1k04q40000gn/T//cczx2gXV.s 			page 32


 1079              		.loc 1 272 20 is_stmt 1 discriminator 1 view .LVU342
 1080 0034 011D     		adds	r1, r0, #4
 1081              	.LVL103:
 272:Core/Src/console.c **** 		{
 1082              		.loc 1 272 20 is_stmt 0 discriminator 1 view .LVU343
 1083 0036 2144     		add	r1, r1, r4
 1084 0038 2044     		add	r0, r0, r4
 1085              	.LVL104:
 274:Core/Src/console.c **** 			{
 1086              		.loc 1 274 4 is_stmt 1 view .LVU344
 1087 003a 0025     		movs	r5, #0
 1088              	.LVL105:
 1089              	.L118:
 276:Core/Src/console.c **** 			}
 1090              		.loc 1 276 5 view .LVU345
 1091              	.LBB53:
 1092              	.LBB54:
 375:Core/Src/console.c **** #endif
 376:Core/Src/console.c **** 
 377:Core/Src/console.c **** // ConsoleSendParamInt16
 378:Core/Src/console.c **** // Send a parameter of type int16 using the (unsafe) C library function
 379:Core/Src/console.c **** // itoa to translate from integer to string.
 380:Core/Src/console.c **** eCommandResult_T ConsoleSendParamInt16(int16_t parameterInt)
 381:Core/Src/console.c **** {
 382:Core/Src/console.c **** 	char out[INT16_MAX_STR_LENGTH];
 383:Core/Src/console.c **** //	memset(out, 0, INT16_MAX_STR_LENGTH);
 384:Core/Src/console.c **** 
 385:Core/Src/console.c **** 	itoa (parameterInt, out, 10);
 386:Core/Src/console.c **** 	ConsoleIoSendString(out);
 387:Core/Src/console.c **** 
 388:Core/Src/console.c **** 	return COMMAND_SUCCESS;
 389:Core/Src/console.c **** }
 390:Core/Src/console.c **** 
 391:Core/Src/console.c **** // ConsoleSendParamInt32
 392:Core/Src/console.c **** // Send a parameter of type int16 using the (unsafe) C library function
 393:Core/Src/console.c **** // itoa to translate from integer to string.
 394:Core/Src/console.c **** eCommandResult_T ConsoleSendParamInt32(int32_t parameterInt)
 395:Core/Src/console.c **** {
 396:Core/Src/console.c **** 	char out[INT32_MAX_STR_LENGTH];
 397:Core/Src/console.c **** 	memset(out, 0, sizeof(out));
 398:Core/Src/console.c **** 
 399:Core/Src/console.c **** 	itoa (parameterInt, out, 10);
 400:Core/Src/console.c **** 	ConsoleIoSendString(out);
 401:Core/Src/console.c **** 
 402:Core/Src/console.c **** 	return COMMAND_SUCCESS;
 403:Core/Src/console.c **** }
 404:Core/Src/console.c **** // ConsoleUtilHexCharToInt
 405:Core/Src/console.c **** // Converts a single hex character (0-9,A-F) to an integer (0-15)
 406:Core/Src/console.c **** static eCommandResult_T ConsoleUtilHexCharToInt(char charVal, uint8_t* pInt)
 407:Core/Src/console.c **** {
 408:Core/Src/console.c ****     eCommandResult_T result = COMMAND_SUCCESS;
 409:Core/Src/console.c **** 
 410:Core/Src/console.c ****     if ( ( '0' <= charVal ) && ( charVal <= '9' ) )
 411:Core/Src/console.c ****     {
 412:Core/Src/console.c ****         *pInt = charVal - '0';
 413:Core/Src/console.c ****     }
 414:Core/Src/console.c ****     else if ( ( 'A' <= charVal ) && ( charVal <= 'F' ) )
ARM GAS  /var/folders/lp/x54gwt890xv47sdkqj1k04q40000gn/T//cczx2gXV.s 			page 33


 1093              		.loc 1 414 10 view .LVU346
 1094              	.LBE54:
 1095              	.LBE53:
 276:Core/Src/console.c **** 			}
 1096              		.loc 1 276 14 is_stmt 0 view .LVU347
 1097 003c 0478     		ldrb	r4, [r0]	@ zero_extendqisi2
 1098              	.LVL106:
 1099              	.LBB58:
 1100              	.LBI53:
 406:Core/Src/console.c **** {
 1101              		.loc 1 406 25 is_stmt 1 view .LVU348
 1102              	.LBB55:
 408:Core/Src/console.c **** 
 1103              		.loc 1 408 5 view .LVU349
 410:Core/Src/console.c ****     {
 1104              		.loc 1 410 5 view .LVU350
 410:Core/Src/console.c ****     {
 1105              		.loc 1 410 29 is_stmt 0 view .LVU351
 1106 003e A4F13003 		sub	r3, r4, #48
 1107 0042 DBB2     		uxtb	r3, r3
 410:Core/Src/console.c ****     {
 1108              		.loc 1 410 8 view .LVU352
 1109 0044 092B     		cmp	r3, #9
 1110              		.loc 1 414 13 view .LVU353
 1111 0046 A4F1410C 		sub	ip, r4, #65
 410:Core/Src/console.c ****     {
 1112              		.loc 1 410 8 view .LVU354
 1113 004a 08D8     		bhi	.L129
 1114              	.LVL107:
 410:Core/Src/console.c ****     {
 1115              		.loc 1 410 8 view .LVU355
 1116              	.LBE55:
 1117              	.LBE58:
 280:Core/Src/console.c **** 				value += tmpUint8;
 1118              		.loc 1 280 5 is_stmt 1 view .LVU356
 281:Core/Src/console.c **** 			}
 1119              		.loc 1 281 5 view .LVU357
 272:Core/Src/console.c **** 		{
 1120              		.loc 1 272 20 is_stmt 0 discriminator 1 view .LVU358
 1121 004c 0130     		adds	r0, r0, #1
 281:Core/Src/console.c **** 			}
 1122              		.loc 1 281 11 view .LVU359
 1123 004e 03EB0515 		add	r5, r3, r5, lsl #4
 1124              	.LVL108:
 272:Core/Src/console.c **** 		{
 1125              		.loc 1 272 20 discriminator 1 view .LVU360
 1126 0052 8842     		cmp	r0, r1
 281:Core/Src/console.c **** 			}
 1127              		.loc 1 281 11 view .LVU361
 1128 0054 ADB2     		uxth	r5, r5
 1129              	.LVL109:
 272:Core/Src/console.c **** 		{
 1130              		.loc 1 272 29 is_stmt 1 discriminator 2 view .LVU362
 272:Core/Src/console.c **** 		{
 1131              		.loc 1 272 20 discriminator 1 view .LVU363
 1132 0056 F1D1     		bne	.L118
 1133              	.LVL110:
ARM GAS  /var/folders/lp/x54gwt890xv47sdkqj1k04q40000gn/T//cczx2gXV.s 			page 34


 1134              	.L117:
 288:Core/Src/console.c **** 	}
 1135              		.loc 1 288 3 view .LVU364
 288:Core/Src/console.c **** 	}
 1136              		.loc 1 288 20 is_stmt 0 view .LVU365
 1137 0058 1580     		strh	r5, [r2]	@ movhi
 1138 005a 0020     		movs	r0, #0
 1139              	.LVL111:
 290:Core/Src/console.c **** }
 1140              		.loc 1 290 2 is_stmt 1 view .LVU366
 291:Core/Src/console.c **** 
 1141              		.loc 1 291 1 is_stmt 0 view .LVU367
 1142 005c 30BD     		pop	{r4, r5, pc}
 1143              	.LVL112:
 1144              	.L129:
 1145              	.LBB59:
 1146              	.LBB56:
 415:Core/Src/console.c ****     {
 416:Core/Src/console.c ****         *pInt = 10u + charVal - 'A';
 1147              		.loc 1 416 9 is_stmt 1 view .LVU368
 417:Core/Src/console.c ****     }
 418:Core/Src/console.c ****     else if( ( 'a' <= charVal ) && ( charVal <= 'f' ) )
 1148              		.loc 1 418 10 view .LVU369
 414:Core/Src/console.c ****     {
 1149              		.loc 1 414 13 is_stmt 0 view .LVU370
 1150 005e BCF1050F 		cmp	ip, #5
 1151              		.loc 1 418 12 view .LVU371
 1152 0062 A4F1610E 		sub	lr, r4, #97
 416:Core/Src/console.c ****     }
 1153              		.loc 1 416 31 view .LVU372
 1154 0066 A4F13703 		sub	r3, r4, #55
 414:Core/Src/console.c ****     {
 1155              		.loc 1 414 13 view .LVU373
 1156 006a 0DD9     		bls	.L130
 419:Core/Src/console.c ****     {
 420:Core/Src/console.c ****         *pInt = 10u + charVal - 'a';
 1157              		.loc 1 420 9 is_stmt 1 view .LVU374
 418:Core/Src/console.c ****     {
 1158              		.loc 1 418 12 is_stmt 0 view .LVU375
 1159 006c BEF1050F 		cmp	lr, #5
 1160 0070 12D8     		bhi	.L131
 1161              		.loc 1 420 31 view .LVU376
 1162 0072 573C     		subs	r4, r4, #87
 1163              	.LVL113:
 1164              		.loc 1 420 31 view .LVU377
 1165 0074 E3B2     		uxtb	r3, r4
 1166              	.LVL114:
 421:Core/Src/console.c ****     }
 422:Core/Src/console.c **** 	else if ( ( LF_CHAR != charVal ) || ( CR_CHAR != charVal )
 423:Core/Src/console.c **** 			|| ( PARAMETER_SEPARATER == charVal ) )
 424:Core/Src/console.c **** 	{
 425:Core/Src/console.c **** 		result = COMMAND_PARAMETER_END;
 426:Core/Src/console.c **** 
 427:Core/Src/console.c **** 	}
 428:Core/Src/console.c ****     else
 429:Core/Src/console.c ****     {
 430:Core/Src/console.c ****         result = COMMAND_PARAMETER_ERROR;
ARM GAS  /var/folders/lp/x54gwt890xv47sdkqj1k04q40000gn/T//cczx2gXV.s 			page 35


 431:Core/Src/console.c ****     }
 432:Core/Src/console.c **** 
 433:Core/Src/console.c ****     return result;
 1167              		.loc 1 433 5 is_stmt 1 view .LVU378
 1168              		.loc 1 433 5 is_stmt 0 view .LVU379
 1169              	.LBE56:
 1170              	.LBE59:
 278:Core/Src/console.c **** 			{
 1171              		.loc 1 278 4 is_stmt 1 view .LVU380
 280:Core/Src/console.c **** 				value += tmpUint8;
 1172              		.loc 1 280 5 view .LVU381
 281:Core/Src/console.c **** 			}
 1173              		.loc 1 281 5 view .LVU382
 272:Core/Src/console.c **** 		{
 1174              		.loc 1 272 20 is_stmt 0 discriminator 1 view .LVU383
 1175 0076 0130     		adds	r0, r0, #1
 281:Core/Src/console.c **** 			}
 1176              		.loc 1 281 11 view .LVU384
 1177 0078 03EB0515 		add	r5, r3, r5, lsl #4
 1178              	.LVL115:
 272:Core/Src/console.c **** 		{
 1179              		.loc 1 272 20 discriminator 1 view .LVU385
 1180 007c 8842     		cmp	r0, r1
 281:Core/Src/console.c **** 			}
 1181              		.loc 1 281 11 view .LVU386
 1182 007e ADB2     		uxth	r5, r5
 1183              	.LVL116:
 272:Core/Src/console.c **** 		{
 1184              		.loc 1 272 29 is_stmt 1 discriminator 2 view .LVU387
 272:Core/Src/console.c **** 		{
 1185              		.loc 1 272 20 discriminator 1 view .LVU388
 1186 0080 DCD1     		bne	.L118
 1187 0082 E9E7     		b	.L117
 1188              	.LVL117:
 1189              	.L128:
 267:Core/Src/console.c **** 	if ( COMMAND_SUCCESS == result )
 1190              		.loc 1 267 11 is_stmt 0 view .LVU389
 1191 0084 1020     		movs	r0, #16
 1192              	.LVL118:
 290:Core/Src/console.c **** }
 1193              		.loc 1 290 2 is_stmt 1 view .LVU390
 291:Core/Src/console.c **** 
 1194              		.loc 1 291 1 is_stmt 0 view .LVU391
 1195 0086 30BD     		pop	{r4, r5, pc}
 1196              	.LVL119:
 1197              	.L130:
 1198              	.LBB60:
 1199              	.LBB57:
 416:Core/Src/console.c ****     }
 1200              		.loc 1 416 31 view .LVU392
 1201 0088 DBB2     		uxtb	r3, r3
 1202              	.LVL120:
 1203              		.loc 1 433 5 is_stmt 1 view .LVU393
 1204              		.loc 1 433 5 is_stmt 0 view .LVU394
 1205              	.LBE57:
 1206              	.LBE60:
 278:Core/Src/console.c **** 			{
ARM GAS  /var/folders/lp/x54gwt890xv47sdkqj1k04q40000gn/T//cczx2gXV.s 			page 36


 1207              		.loc 1 278 4 is_stmt 1 view .LVU395
 280:Core/Src/console.c **** 				value += tmpUint8;
 1208              		.loc 1 280 5 view .LVU396
 281:Core/Src/console.c **** 			}
 1209              		.loc 1 281 5 view .LVU397
 272:Core/Src/console.c **** 		{
 1210              		.loc 1 272 20 is_stmt 0 discriminator 1 view .LVU398
 1211 008a 0130     		adds	r0, r0, #1
 281:Core/Src/console.c **** 			}
 1212              		.loc 1 281 11 view .LVU399
 1213 008c 03EB0515 		add	r5, r3, r5, lsl #4
 1214              	.LVL121:
 272:Core/Src/console.c **** 		{
 1215              		.loc 1 272 20 discriminator 1 view .LVU400
 1216 0090 8842     		cmp	r0, r1
 281:Core/Src/console.c **** 			}
 1217              		.loc 1 281 11 view .LVU401
 1218 0092 ADB2     		uxth	r5, r5
 1219              	.LVL122:
 272:Core/Src/console.c **** 		{
 1220              		.loc 1 272 29 is_stmt 1 discriminator 2 view .LVU402
 272:Core/Src/console.c **** 		{
 1221              		.loc 1 272 20 discriminator 1 view .LVU403
 1222 0094 D2D1     		bne	.L118
 1223 0096 DFE7     		b	.L117
 1224              	.LVL123:
 1225              	.L131:
 272:Core/Src/console.c **** 		{
 1226              		.loc 1 272 29 discriminator 2 view .LVU404
 272:Core/Src/console.c **** 		{
 1227              		.loc 1 272 20 discriminator 1 view .LVU405
 1228 0098 431C     		adds	r3, r0, #1
 1229 009a 9942     		cmp	r1, r3
 1230 009c DCD0     		beq	.L117
 1231              	.LVL124:
 1232              	.L116:
 272:Core/Src/console.c **** 		{
 1233              		.loc 1 272 29 discriminator 2 view .LVU406
 272:Core/Src/console.c **** 		{
 1234              		.loc 1 272 20 discriminator 1 view .LVU407
 1235 009e 0133     		adds	r3, r3, #1
 272:Core/Src/console.c **** 		{
 1236              		.loc 1 272 20 is_stmt 0 discriminator 1 view .LVU408
 1237 00a0 9942     		cmp	r1, r3
 1238 00a2 D9D0     		beq	.L117
 1239              	.LVL125:
 272:Core/Src/console.c **** 		{
 1240              		.loc 1 272 29 is_stmt 1 discriminator 2 view .LVU409
 272:Core/Src/console.c **** 		{
 1241              		.loc 1 272 20 discriminator 1 view .LVU410
 1242 00a4 0133     		adds	r3, r3, #1
 272:Core/Src/console.c **** 		{
 1243              		.loc 1 272 20 is_stmt 0 discriminator 1 view .LVU411
 1244 00a6 9942     		cmp	r1, r3
 1245 00a8 F9D1     		bne	.L116
 1246 00aa D5E7     		b	.L117
 1247              	.LVL126:
ARM GAS  /var/folders/lp/x54gwt890xv47sdkqj1k04q40000gn/T//cczx2gXV.s 			page 37


 1248              	.L119:
 1249              	.LBB61:
 1250              	.LBB51:
 198:Core/Src/console.c **** 	uint32_t parameterIndex = 0;
 1251              		.loc 1 198 11 view .LVU412
 1252 00ac 0C46     		mov	r4, r1
 1253 00ae C1E7     		b	.L108
 1254              	.LBE51:
 1255              	.LBE61:
 1256              		.cfi_endproc
 1257              	.LFE7:
 1259              		.section	.text.ConsoleSendParamHexUint16,"ax",%progbits
 1260              		.align	1
 1261              		.p2align 2,,3
 1262              		.global	ConsoleSendParamHexUint16
 1263              		.syntax unified
 1264              		.thumb
 1265              		.thumb_func
 1267              	ConsoleSendParamHexUint16:
 1268              	.LVL127:
 1269              	.LFB8:
 298:Core/Src/console.c **** 	uint32_t i;
 1270              		.loc 1 298 1 is_stmt 1 view -0
 1271              		.cfi_startproc
 1272              		@ args = 0, pretend = 0, frame = 8
 1273              		@ frame_needed = 0, uses_anonymous_args = 0
 299:Core/Src/console.c **** 	char out[4u + 1u];  // U16 must be less than 4 hex digits: 0xFFFF, end buffer with a NULL
 1274              		.loc 1 299 2 view .LVU414
 300:Core/Src/console.c **** 	eCommandResult_T result = COMMAND_SUCCESS;
 1275              		.loc 1 300 2 view .LVU415
 301:Core/Src/console.c **** 	uint8_t tmpUint8;
 1276              		.loc 1 301 2 view .LVU416
 302:Core/Src/console.c **** 
 1277              		.loc 1 302 2 view .LVU417
 304:Core/Src/console.c **** 	{
 1278              		.loc 1 304 2 view .LVU418
 304:Core/Src/console.c **** 	{
 1279              		.loc 1 304 19 discriminator 1 view .LVU419
 298:Core/Src/console.c **** 	uint32_t i;
 1280              		.loc 1 298 1 is_stmt 0 view .LVU420
 1281 0000 10B5     		push	{r4, lr}
 1282              		.cfi_def_cfa_offset 8
 1283              		.cfi_offset 4, -8
 1284              		.cfi_offset 14, -4
 1285 0002 82B0     		sub	sp, sp, #8
 1286              		.cfi_def_cfa_offset 16
 1287 0004 6946     		mov	r1, sp
 308:Core/Src/console.c **** 			result = ConsoleUtilsIntToHexChar(tmpUint8, &(out[i]));
 1288              		.loc 1 308 33 view .LVU421
 1289 0006 0C22     		movs	r2, #12
 1290              	.LVL128:
 1291              	.L135:
 306:Core/Src/console.c **** 		{
 1292              		.loc 1 306 3 is_stmt 1 view .LVU422
 308:Core/Src/console.c **** 			result = ConsoleUtilsIntToHexChar(tmpUint8, &(out[i]));
 1293              		.loc 1 308 4 view .LVU423
 1294              	.LBB62:
ARM GAS  /var/folders/lp/x54gwt890xv47sdkqj1k04q40000gn/T//cczx2gXV.s 			page 38


 1295              	.LBB63:
 434:Core/Src/console.c **** }
 435:Core/Src/console.c **** // ConsoleUtilsIntToHexChar
 436:Core/Src/console.c **** // Converts an integer nibble (0-15) to a hex character (0-9,A-F)
 437:Core/Src/console.c **** static eCommandResult_T ConsoleUtilsIntToHexChar(uint8_t intVal, char* pChar)
 438:Core/Src/console.c **** {
 439:Core/Src/console.c ****     eCommandResult_T result = COMMAND_SUCCESS;
 440:Core/Src/console.c **** 
 441:Core/Src/console.c ****     if ( intVal <= 9u )
 442:Core/Src/console.c ****     {
 443:Core/Src/console.c ****         *pChar = intVal + '0';
 1296              		.loc 1 443 9 view .LVU424
 444:Core/Src/console.c ****     }
 445:Core/Src/console.c ****     else if ( ( 10u <= intVal ) && ( intVal <= 15u ) )
 1297              		.loc 1 445 10 view .LVU425
 446:Core/Src/console.c ****     {
 447:Core/Src/console.c ****         *pChar = intVal - 10u + 'A';
 1298              		.loc 1 447 9 view .LVU426
 1299              	.LBE63:
 1300              	.LBE62:
 308:Core/Src/console.c **** 			result = ConsoleUtilsIntToHexChar(tmpUint8, &(out[i]));
 1301              		.loc 1 308 33 is_stmt 0 view .LVU427
 1302 0008 40FA02F3 		asr	r3, r0, r2
 308:Core/Src/console.c **** 			result = ConsoleUtilsIntToHexChar(tmpUint8, &(out[i]));
 1303              		.loc 1 308 13 view .LVU428
 1304 000c 03F00F03 		and	r3, r3, #15
 1305              	.LVL129:
 309:Core/Src/console.c **** 		}
 1306              		.loc 1 309 4 is_stmt 1 view .LVU429
 1307              	.LBB66:
 1308              	.LBI62:
 437:Core/Src/console.c **** {
 1309              		.loc 1 437 25 view .LVU430
 1310              	.LBB64:
 439:Core/Src/console.c **** 
 1311              		.loc 1 439 5 view .LVU431
 441:Core/Src/console.c ****     {
 1312              		.loc 1 441 5 view .LVU432
 441:Core/Src/console.c ****     {
 1313              		.loc 1 441 8 is_stmt 0 view .LVU433
 1314 0010 092B     		cmp	r3, #9
 443:Core/Src/console.c ****     }
 1315              		.loc 1 443 25 view .LVU434
 1316 0012 94BF     		ite	ls
 1317 0014 3033     		addls	r3, r3, #48
 1318              	.LVL130:
 1319              		.loc 1 447 31 view .LVU435
 1320 0016 3733     		addhi	r3, r3, #55
 1321              	.LBE64:
 1322              	.LBE66:
 304:Core/Src/console.c **** 	{
 1323              		.loc 1 304 19 discriminator 1 view .LVU436
 1324 0018 043A     		subs	r2, r2, #4
 1325              	.LVL131:
 304:Core/Src/console.c **** 	{
 1326              		.loc 1 304 19 discriminator 1 view .LVU437
 1327 001a 01F8013B 		strb	r3, [r1], #1
ARM GAS  /var/folders/lp/x54gwt890xv47sdkqj1k04q40000gn/T//cczx2gXV.s 			page 39


 1328              	.LVL132:
 1329              	.LBB67:
 1330              	.LBB65:
 448:Core/Src/console.c ****     }
 449:Core/Src/console.c ****     else
 450:Core/Src/console.c ****     {
 451:Core/Src/console.c ****         result = COMMAND_PARAMETER_ERROR;
 452:Core/Src/console.c ****     }
 453:Core/Src/console.c **** 
 454:Core/Src/console.c ****     return result;
 1331              		.loc 1 454 5 is_stmt 1 view .LVU438
 1332              		.loc 1 454 5 is_stmt 0 view .LVU439
 1333              	.LBE65:
 1334              	.LBE67:
 304:Core/Src/console.c **** 	{
 1335              		.loc 1 304 28 is_stmt 1 discriminator 2 view .LVU440
 304:Core/Src/console.c **** 	{
 1336              		.loc 1 304 19 discriminator 1 view .LVU441
 1337 001e 131D     		adds	r3, r2, #4
 1338 0020 F2D1     		bne	.L135
 312:Core/Src/console.c **** 	ConsoleIoSendString(out);
 1339              		.loc 1 312 2 view .LVU442
 312:Core/Src/console.c **** 	ConsoleIoSendString(out);
 1340              		.loc 1 312 9 is_stmt 0 view .LVU443
 1341 0022 0024     		movs	r4, #0
 313:Core/Src/console.c **** 
 1342              		.loc 1 313 2 view .LVU444
 1343 0024 6846     		mov	r0, sp
 1344              	.LVL133:
 312:Core/Src/console.c **** 	ConsoleIoSendString(out);
 1345              		.loc 1 312 9 view .LVU445
 1346 0026 8DF80440 		strb	r4, [sp, #4]
 313:Core/Src/console.c **** 
 1347              		.loc 1 313 2 is_stmt 1 view .LVU446
 1348 002a FFF7FEFF 		bl	ConsoleIoSendString
 1349              	.LVL134:
 315:Core/Src/console.c **** }
 1350              		.loc 1 315 2 view .LVU447
 316:Core/Src/console.c **** 
 1351              		.loc 1 316 1 is_stmt 0 view .LVU448
 1352 002e 2046     		mov	r0, r4
 1353 0030 02B0     		add	sp, sp, #8
 1354              		.cfi_def_cfa_offset 8
 1355              		@ sp needed
 1356 0032 10BD     		pop	{r4, pc}
 1357              		.cfi_endproc
 1358              	.LFE8:
 1360              		.section	.text.ConsoleSendParamHexUint8,"ax",%progbits
 1361              		.align	1
 1362              		.p2align 2,,3
 1363              		.global	ConsoleSendParamHexUint8
 1364              		.syntax unified
 1365              		.thumb
 1366              		.thumb_func
 1368              	ConsoleSendParamHexUint8:
 1369              	.LVL135:
 1370              	.LFB9:
ARM GAS  /var/folders/lp/x54gwt890xv47sdkqj1k04q40000gn/T//cczx2gXV.s 			page 40


 319:Core/Src/console.c **** 	uint32_t i;
 1371              		.loc 1 319 1 is_stmt 1 view -0
 1372              		.cfi_startproc
 1373              		@ args = 0, pretend = 0, frame = 8
 1374              		@ frame_needed = 0, uses_anonymous_args = 0
 320:Core/Src/console.c **** 	char out[2u + 1u];  // U8 must be less than 4 hex digits: 0xFFFF, end buffer with a NULL
 1375              		.loc 1 320 2 view .LVU450
 321:Core/Src/console.c **** 	eCommandResult_T result = COMMAND_SUCCESS;
 1376              		.loc 1 321 2 view .LVU451
 322:Core/Src/console.c **** 
 1377              		.loc 1 322 2 view .LVU452
 324:Core/Src/console.c **** 	result = ConsoleUtilsIntToHexChar( (parameterUint8 >> 4u) & 0xF, &(out[i]));
 1378              		.loc 1 324 2 view .LVU453
 325:Core/Src/console.c **** 	i++;
 1379              		.loc 1 325 2 view .LVU454
 319:Core/Src/console.c **** 	uint32_t i;
 1380              		.loc 1 319 1 is_stmt 0 view .LVU455
 1381 0000 10B5     		push	{r4, lr}
 1382              		.cfi_def_cfa_offset 8
 1383              		.cfi_offset 4, -8
 1384              		.cfi_offset 14, -4
 1385              	.LBB68:
 1386              	.LBB69:
 441:Core/Src/console.c ****     {
 1387              		.loc 1 441 8 view .LVU456
 1388 0002 9F28     		cmp	r0, #159
 1389              	.LBE69:
 1390              	.LBE68:
 319:Core/Src/console.c **** 	uint32_t i;
 1391              		.loc 1 319 1 view .LVU457
 1392 0004 82B0     		sub	sp, sp, #8
 1393              		.cfi_def_cfa_offset 16
 325:Core/Src/console.c **** 	i++;
 1394              		.loc 1 325 11 view .LVU458
 1395 0006 4FEA1013 		lsr	r3, r0, #4
 1396              	.LVL136:
 1397              	.LBB76:
 1398              	.LBI68:
 437:Core/Src/console.c **** {
 1399              		.loc 1 437 25 is_stmt 1 view .LVU459
 1400              	.LBB70:
 439:Core/Src/console.c **** 
 1401              		.loc 1 439 5 view .LVU460
 441:Core/Src/console.c ****     {
 1402              		.loc 1 441 5 view .LVU461
 441:Core/Src/console.c ****     {
 1403              		.loc 1 441 8 is_stmt 0 view .LVU462
 1404 000a 13D8     		bhi	.L139
 443:Core/Src/console.c ****     }
 1405              		.loc 1 443 9 is_stmt 1 view .LVU463
 1406              	.LBE70:
 1407              	.LBE76:
 329:Core/Src/console.c **** 		i++;
 1408              		.loc 1 329 12 is_stmt 0 view .LVU464
 1409 000c 00F00F00 		and	r0, r0, #15
 1410              	.LVL137:
 1411              	.LBB77:
ARM GAS  /var/folders/lp/x54gwt890xv47sdkqj1k04q40000gn/T//cczx2gXV.s 			page 41


 1412              	.LBB71:
 443:Core/Src/console.c ****     }
 1413              		.loc 1 443 25 view .LVU465
 1414 0010 3033     		adds	r3, r3, #48
 1415              	.LVL138:
 443:Core/Src/console.c ****     }
 1416              		.loc 1 443 25 view .LVU466
 1417              	.LBE71:
 1418              	.LBE77:
 1419              	.LBB78:
 1420              	.LBB79:
 441:Core/Src/console.c ****     {
 1421              		.loc 1 441 8 view .LVU467
 1422 0012 0928     		cmp	r0, #9
 1423 0014 8DF80430 		strb	r3, [sp, #4]
 441:Core/Src/console.c ****     {
 1424              		.loc 1 441 8 view .LVU468
 1425              	.LBE79:
 1426              	.LBE78:
 1427              	.LBB84:
 1428              	.LBB72:
 1429              		.loc 1 454 5 is_stmt 1 view .LVU469
 1430              	.LVL139:
 1431              		.loc 1 454 5 is_stmt 0 view .LVU470
 1432              	.LBE72:
 1433              	.LBE84:
 326:Core/Src/console.c **** 	if ( COMMAND_SUCCESS == result )
 1434              		.loc 1 326 2 is_stmt 1 view .LVU471
 327:Core/Src/console.c **** 	{
 1435              		.loc 1 327 2 view .LVU472
 329:Core/Src/console.c **** 		i++;
 1436              		.loc 1 329 3 view .LVU473
 1437              	.LBB85:
 1438              	.LBI78:
 437:Core/Src/console.c **** {
 1439              		.loc 1 437 25 view .LVU474
 1440              	.LBB80:
 439:Core/Src/console.c **** 
 1441              		.loc 1 439 5 view .LVU475
 441:Core/Src/console.c ****     {
 1442              		.loc 1 441 5 view .LVU476
 441:Core/Src/console.c ****     {
 1443              		.loc 1 441 8 is_stmt 0 view .LVU477
 1444 0018 13D8     		bhi	.L147
 1445              	.L140:
 443:Core/Src/console.c ****     }
 1446              		.loc 1 443 9 is_stmt 1 view .LVU478
 443:Core/Src/console.c ****     }
 1447              		.loc 1 443 25 is_stmt 0 view .LVU479
 1448 001a 00F13003 		add	r3, r0, #48
 1449              	.L143:
 443:Core/Src/console.c ****     }
 1450              		.loc 1 443 25 view .LVU480
 1451              	.LBE80:
 1452              	.LBE85:
 332:Core/Src/console.c **** 	ConsoleIoSendString(out);
 1453              		.loc 1 332 9 view .LVU481
ARM GAS  /var/folders/lp/x54gwt890xv47sdkqj1k04q40000gn/T//cczx2gXV.s 			page 42


 1454 001e 0024     		movs	r4, #0
 333:Core/Src/console.c **** 
 1455              		.loc 1 333 2 view .LVU482
 1456 0020 01A8     		add	r0, sp, #4
 1457              	.LVL140:
 333:Core/Src/console.c **** 
 1458              		.loc 1 333 2 view .LVU483
 1459 0022 8DF80530 		strb	r3, [sp, #5]
 1460              	.LBB86:
 1461              	.LBB81:
 1462              		.loc 1 454 5 is_stmt 1 view .LVU484
 1463              	.LVL141:
 1464              		.loc 1 454 5 is_stmt 0 view .LVU485
 1465              	.LBE81:
 1466              	.LBE86:
 330:Core/Src/console.c **** 	}
 1467              		.loc 1 330 3 is_stmt 1 view .LVU486
 332:Core/Src/console.c **** 	ConsoleIoSendString(out);
 1468              		.loc 1 332 2 view .LVU487
 332:Core/Src/console.c **** 	ConsoleIoSendString(out);
 1469              		.loc 1 332 9 is_stmt 0 view .LVU488
 1470 0026 8DF80640 		strb	r4, [sp, #6]
 333:Core/Src/console.c **** 
 1471              		.loc 1 333 2 is_stmt 1 view .LVU489
 1472 002a FFF7FEFF 		bl	ConsoleIoSendString
 1473              	.LVL142:
 335:Core/Src/console.c **** }
 1474              		.loc 1 335 2 view .LVU490
 336:Core/Src/console.c **** 
 1475              		.loc 1 336 1 is_stmt 0 view .LVU491
 1476 002e 2046     		mov	r0, r4
 1477 0030 02B0     		add	sp, sp, #8
 1478              		.cfi_remember_state
 1479              		.cfi_def_cfa_offset 8
 1480              		@ sp needed
 1481 0032 10BD     		pop	{r4, pc}
 1482              	.LVL143:
 1483              	.L139:
 1484              		.cfi_restore_state
 1485              	.LBB87:
 1486              	.LBB73:
 445:Core/Src/console.c ****     {
 1487              		.loc 1 445 10 is_stmt 1 view .LVU492
 447:Core/Src/console.c ****     }
 1488              		.loc 1 447 9 view .LVU493
 1489              	.LBE73:
 1490              	.LBE87:
 329:Core/Src/console.c **** 		i++;
 1491              		.loc 1 329 12 is_stmt 0 view .LVU494
 1492 0034 00F00F00 		and	r0, r0, #15
 1493              	.LVL144:
 1494              	.LBB88:
 1495              	.LBB74:
 447:Core/Src/console.c ****     }
 1496              		.loc 1 447 31 view .LVU495
 1497 0038 3733     		adds	r3, r3, #55
 1498              	.LVL145:
ARM GAS  /var/folders/lp/x54gwt890xv47sdkqj1k04q40000gn/T//cczx2gXV.s 			page 43


 447:Core/Src/console.c ****     }
 1499              		.loc 1 447 31 view .LVU496
 1500              	.LBE74:
 1501              	.LBE88:
 1502              	.LBB89:
 1503              	.LBB82:
 441:Core/Src/console.c ****     {
 1504              		.loc 1 441 8 view .LVU497
 1505 003a 0928     		cmp	r0, #9
 1506 003c 8DF80430 		strb	r3, [sp, #4]
 441:Core/Src/console.c ****     {
 1507              		.loc 1 441 8 view .LVU498
 1508              	.LBE82:
 1509              	.LBE89:
 1510              	.LBB90:
 1511              	.LBB75:
 1512              		.loc 1 454 5 is_stmt 1 view .LVU499
 1513              	.LVL146:
 1514              		.loc 1 454 5 is_stmt 0 view .LVU500
 1515              	.LBE75:
 1516              	.LBE90:
 326:Core/Src/console.c **** 	if ( COMMAND_SUCCESS == result )
 1517              		.loc 1 326 2 is_stmt 1 view .LVU501
 327:Core/Src/console.c **** 	{
 1518              		.loc 1 327 2 view .LVU502
 329:Core/Src/console.c **** 		i++;
 1519              		.loc 1 329 3 view .LVU503
 1520              	.LBB91:
 437:Core/Src/console.c **** {
 1521              		.loc 1 437 25 view .LVU504
 1522              	.LBB83:
 439:Core/Src/console.c **** 
 1523              		.loc 1 439 5 view .LVU505
 441:Core/Src/console.c ****     {
 1524              		.loc 1 441 5 view .LVU506
 441:Core/Src/console.c ****     {
 1525              		.loc 1 441 8 is_stmt 0 view .LVU507
 1526 0040 EBD9     		bls	.L140
 1527              	.L147:
 445:Core/Src/console.c ****     {
 1528              		.loc 1 445 10 is_stmt 1 view .LVU508
 447:Core/Src/console.c ****     }
 1529              		.loc 1 447 9 view .LVU509
 447:Core/Src/console.c ****     }
 1530              		.loc 1 447 31 is_stmt 0 view .LVU510
 1531 0042 00F13703 		add	r3, r0, #55
 1532 0046 EAE7     		b	.L143
 1533              	.LBE83:
 1534              	.LBE91:
 1535              		.cfi_endproc
 1536              	.LFE9:
 1538              		.section	.text.ConsoleSendParamInt16,"ax",%progbits
 1539              		.align	1
 1540              		.p2align 2,,3
 1541              		.global	ConsoleSendParamInt16
 1542              		.syntax unified
 1543              		.thumb
ARM GAS  /var/folders/lp/x54gwt890xv47sdkqj1k04q40000gn/T//cczx2gXV.s 			page 44


 1544              		.thumb_func
 1546              	ConsoleSendParamInt16:
 1547              	.LVL147:
 1548              	.LFB11:
 381:Core/Src/console.c **** 	char out[INT16_MAX_STR_LENGTH];
 1549              		.loc 1 381 1 is_stmt 1 view -0
 1550              		.cfi_startproc
 1551              		@ args = 0, pretend = 0, frame = 8
 1552              		@ frame_needed = 0, uses_anonymous_args = 0
 382:Core/Src/console.c **** //	memset(out, 0, INT16_MAX_STR_LENGTH);
 1553              		.loc 1 382 2 view .LVU512
 385:Core/Src/console.c **** 	ConsoleIoSendString(out);
 1554              		.loc 1 385 2 view .LVU513
 381:Core/Src/console.c **** 	char out[INT16_MAX_STR_LENGTH];
 1555              		.loc 1 381 1 is_stmt 0 view .LVU514
 1556 0000 00B5     		push	{lr}
 1557              		.cfi_def_cfa_offset 4
 1558              		.cfi_offset 14, -4
 1559 0002 83B0     		sub	sp, sp, #12
 1560              		.cfi_def_cfa_offset 16
 385:Core/Src/console.c **** 	ConsoleIoSendString(out);
 1561              		.loc 1 385 2 view .LVU515
 1562 0004 6946     		mov	r1, sp
 1563 0006 FFF7FEFF 		bl	smallItoa.constprop.0
 1564              	.LVL148:
 386:Core/Src/console.c **** 
 1565              		.loc 1 386 2 is_stmt 1 view .LVU516
 1566 000a 0846     		mov	r0, r1
 1567 000c FFF7FEFF 		bl	ConsoleIoSendString
 1568              	.LVL149:
 388:Core/Src/console.c **** }
 1569              		.loc 1 388 2 view .LVU517
 389:Core/Src/console.c **** 
 1570              		.loc 1 389 1 is_stmt 0 view .LVU518
 1571 0010 0020     		movs	r0, #0
 1572 0012 03B0     		add	sp, sp, #12
 1573              		.cfi_def_cfa_offset 4
 1574              		@ sp needed
 1575 0014 5DF804FB 		ldr	pc, [sp], #4
 1576              		.cfi_endproc
 1577              	.LFE11:
 1579              		.section	.text.ConsoleSendParamInt32,"ax",%progbits
 1580              		.align	1
 1581              		.p2align 2,,3
 1582              		.global	ConsoleSendParamInt32
 1583              		.syntax unified
 1584              		.thumb
 1585              		.thumb_func
 1587              	ConsoleSendParamInt32:
 1588              	.LVL150:
 1589              	.LFB12:
 395:Core/Src/console.c **** 	char out[INT32_MAX_STR_LENGTH];
 1590              		.loc 1 395 1 is_stmt 1 view -0
 1591              		.cfi_startproc
 1592              		@ args = 0, pretend = 0, frame = 16
 1593              		@ frame_needed = 0, uses_anonymous_args = 0
 396:Core/Src/console.c **** 	memset(out, 0, sizeof(out));
ARM GAS  /var/folders/lp/x54gwt890xv47sdkqj1k04q40000gn/T//cczx2gXV.s 			page 45


 1594              		.loc 1 396 2 view .LVU520
 397:Core/Src/console.c **** 
 1595              		.loc 1 397 2 view .LVU521
 395:Core/Src/console.c **** 	char out[INT32_MAX_STR_LENGTH];
 1596              		.loc 1 395 1 is_stmt 0 view .LVU522
 1597 0000 10B5     		push	{r4, lr}
 1598              		.cfi_def_cfa_offset 8
 1599              		.cfi_offset 4, -8
 1600              		.cfi_offset 14, -4
 1601 0002 84B0     		sub	sp, sp, #16
 1602              		.cfi_def_cfa_offset 24
 399:Core/Src/console.c **** 	ConsoleIoSendString(out);
 1603              		.loc 1 399 2 view .LVU523
 1604 0004 6946     		mov	r1, sp
 397:Core/Src/console.c **** 
 1605              		.loc 1 397 2 view .LVU524
 1606 0006 0024     		movs	r4, #0
 1607 0008 0094     		str	r4, [sp]
 1608 000a C1E90144 		strd	r4, r4, [r1, #4]
 1609 000e CC60     		str	r4, [r1, #12]
 399:Core/Src/console.c **** 	ConsoleIoSendString(out);
 1610              		.loc 1 399 2 is_stmt 1 view .LVU525
 1611 0010 FFF7FEFF 		bl	smallItoa.constprop.0
 1612              	.LVL151:
 400:Core/Src/console.c **** 
 1613              		.loc 1 400 2 view .LVU526
 1614 0014 0846     		mov	r0, r1
 1615 0016 FFF7FEFF 		bl	ConsoleIoSendString
 1616              	.LVL152:
 402:Core/Src/console.c **** }
 1617              		.loc 1 402 2 view .LVU527
 403:Core/Src/console.c **** // ConsoleUtilHexCharToInt
 1618              		.loc 1 403 1 is_stmt 0 view .LVU528
 1619 001a 2046     		mov	r0, r4
 1620 001c 04B0     		add	sp, sp, #16
 1621              		.cfi_def_cfa_offset 8
 1622              		@ sp needed
 1623 001e 10BD     		pop	{r4, pc}
 1624              		.cfi_endproc
 1625              	.LFE12:
 1627              		.section	.text.ConsoleSendString,"ax",%progbits
 1628              		.align	1
 1629              		.p2align 2,,3
 1630              		.global	ConsoleSendString
 1631              		.syntax unified
 1632              		.thumb
 1633              		.thumb_func
 1635              	ConsoleSendString:
 1636              	.LVL153:
 1637              	.LFB15:
 455:Core/Src/console.c **** }
 456:Core/Src/console.c **** // ConsoleSendString
 457:Core/Src/console.c **** // Send a null terminated string to the console.
 458:Core/Src/console.c **** // This is a light wrapper around ConsoleIoSendString. It uses the same
 459:Core/Src/console.c **** // API convention as the rest of the top level ConsoleSendX APIs 
 460:Core/Src/console.c **** // while exposing this functionality at the top level so 
 461:Core/Src/console.c **** // that the lower level consoleIo module doesn't need to be
ARM GAS  /var/folders/lp/x54gwt890xv47sdkqj1k04q40000gn/T//cczx2gXV.s 			page 46


 462:Core/Src/console.c **** // a dependency.
 463:Core/Src/console.c **** eCommandResult_T ConsoleSendString(const char *buffer)
 464:Core/Src/console.c **** {
 1638              		.loc 1 464 1 is_stmt 1 view -0
 1639              		.cfi_startproc
 1640              		@ args = 0, pretend = 0, frame = 0
 1641              		@ frame_needed = 0, uses_anonymous_args = 0
 465:Core/Src/console.c **** 	ConsoleIoSendString(buffer);
 1642              		.loc 1 465 2 view .LVU530
 464:Core/Src/console.c **** 	ConsoleIoSendString(buffer);
 1643              		.loc 1 464 1 is_stmt 0 view .LVU531
 1644 0000 08B5     		push	{r3, lr}
 1645              		.cfi_def_cfa_offset 8
 1646              		.cfi_offset 3, -8
 1647              		.cfi_offset 14, -4
 1648              		.loc 1 465 2 view .LVU532
 1649 0002 FFF7FEFF 		bl	ConsoleIoSendString
 1650              	.LVL154:
 466:Core/Src/console.c **** 	return COMMAND_SUCCESS;
 1651              		.loc 1 466 2 is_stmt 1 view .LVU533
 467:Core/Src/console.c **** }
 1652              		.loc 1 467 1 is_stmt 0 view .LVU534
 1653 0006 0020     		movs	r0, #0
 1654 0008 08BD     		pop	{r3, pc}
 1655              		.cfi_endproc
 1656              	.LFE15:
 1658 000a 00BF     		.section	.text.ConsoleSendLine,"ax",%progbits
 1659              		.align	1
 1660              		.p2align 2,,3
 1661              		.global	ConsoleSendLine
 1662              		.syntax unified
 1663              		.thumb
 1664              		.thumb_func
 1666              	ConsoleSendLine:
 1667              	.LVL155:
 1668              	.LFB16:
 468:Core/Src/console.c **** 
 469:Core/Src/console.c **** // ConsoleSendLine
 470:Core/Src/console.c **** // Send a null terminated string to the console followed by a line ending.
 471:Core/Src/console.c **** eCommandResult_T ConsoleSendLine(const char *buffer)
 472:Core/Src/console.c **** {
 1669              		.loc 1 472 1 is_stmt 1 view -0
 1670              		.cfi_startproc
 1671              		@ args = 0, pretend = 0, frame = 0
 1672              		@ frame_needed = 0, uses_anonymous_args = 0
 473:Core/Src/console.c **** 	ConsoleIoSendString(buffer);
 1673              		.loc 1 473 2 view .LVU536
 472:Core/Src/console.c **** 	ConsoleIoSendString(buffer);
 1674              		.loc 1 472 1 is_stmt 0 view .LVU537
 1675 0000 08B5     		push	{r3, lr}
 1676              		.cfi_def_cfa_offset 8
 1677              		.cfi_offset 3, -8
 1678              		.cfi_offset 14, -4
 1679              		.loc 1 473 2 view .LVU538
 1680 0002 FFF7FEFF 		bl	ConsoleIoSendString
 1681              	.LVL156:
 474:Core/Src/console.c **** 	ConsoleIoSendString(STR_ENDLINE);
ARM GAS  /var/folders/lp/x54gwt890xv47sdkqj1k04q40000gn/T//cczx2gXV.s 			page 47


 1682              		.loc 1 474 2 is_stmt 1 view .LVU539
 1683 0006 0248     		ldr	r0, .L156
 1684 0008 FFF7FEFF 		bl	ConsoleIoSendString
 1685              	.LVL157:
 475:Core/Src/console.c **** 	return COMMAND_SUCCESS;
 1686              		.loc 1 475 2 view .LVU540
 476:Core/Src/console.c **** }...
 1687              		.loc 1 476 1 is_stmt 0 view .LVU541
 1688 000c 0020     		movs	r0, #0
 1689 000e 08BD     		pop	{r3, pc}
 1690              	.L157:
 1691              		.align	2
 1692              	.L156:
 1693 0010 48000000 		.word	.LC1
 1694              		.cfi_endproc
 1695              	.LFE16:
 1697              		.global	mReceiveBufferNeedsChecking
 1698              		.section	.bss.mReceiveBufferNeedsChecking,"aw",%nobits
 1701              	mReceiveBufferNeedsChecking:
 1702 0000 00       		.space	1
 1703              		.global	mReceivedSoFar
 1704              		.section	.bss.mReceivedSoFar,"aw",%nobits
 1705              		.align	2
 1708              	mReceivedSoFar:
 1709 0000 00000000 		.space	4
 1710              		.global	mReceiveBuffer
 1711              		.section	.bss.mReceiveBuffer,"aw",%nobits
 1712              		.align	2
 1715              	mReceiveBuffer:
 1716 0000 00000000 		.space	256
 1716      00000000 
 1716      00000000 
 1716      00000000 
 1716      00000000 
 1717              		.text
 1718              	.Letext0:
 1719              		.file 2 "/Users/jr/Library/Application Support/Code/User/globalStorage/bmd.stm32-for-vscode/@xpack
 1720              		.file 3 "/Users/jr/Library/Application Support/Code/User/globalStorage/bmd.stm32-for-vscode/@xpack
 1721              		.file 4 "/Users/jr/Library/Application Support/Code/User/globalStorage/bmd.stm32-for-vscode/@xpack
 1722              		.file 5 "Core/Inc/console.h"
 1723              		.file 6 "Core/Inc/consoleIo.h"
 1724              		.file 7 "Core/Inc/consoleCommands.h"
 1725              		.file 8 "/Users/jr/Library/Application Support/Code/User/globalStorage/bmd.stm32-for-vscode/@xpack
 1726              		.file 9 "/Users/jr/Library/Application Support/Code/User/globalStorage/bmd.stm32-for-vscode/@xpack
 1727              		.file 10 "<built-in>"
ARM GAS  /var/folders/lp/x54gwt890xv47sdkqj1k04q40000gn/T//cczx2gXV.s 			page 48

