ARM GAS  /var/folders/0z/tsy30v1j4xl4_7kw94k978ww0000gn/T//ccgWSgGA.s 			page 1


   1              		.cpu cortex-m4
   2              		.arch armv7e-m
   3              		.fpu fpv4-sp-d16
   4              		.eabi_attribute 27, 1
   5              		.eabi_attribute 28, 1
   6              		.eabi_attribute 20, 1
   7              		.eabi_attribute 21, 1
   8              		.eabi_attribute 23, 3
   9              		.eabi_attribute 24, 1
  10              		.eabi_attribute 25, 1
  11              		.eabi_attribute 26, 1
  12              		.eabi_attribute 30, 1
  13              		.eabi_attribute 34, 1
  14              		.eabi_attribute 18, 4
  15              		.file	"exc7200.c"
  16              		.text
  17              	.Ltext0:
  18              		.cfi_sections	.debug_frame
  19              		.section	.text.exc7200_Reset,"ax",%progbits
  20              		.align	1
  21              		.global	exc7200_Reset
  22              		.syntax unified
  23              		.thumb
  24              		.thumb_func
  26              	exc7200_Reset:
  27              	.LVL0:
  28              	.LFB1:
  29              		.file 1 "Drivers/BSP/Components/exc7200/exc7200.c"
   1:Drivers/BSP/Components/exc7200/exc7200.c **** /**
   2:Drivers/BSP/Components/exc7200/exc7200.c ****   ******************************************************************************
   3:Drivers/BSP/Components/exc7200/exc7200.c ****   * @file    exc7200.c
   4:Drivers/BSP/Components/exc7200/exc7200.c ****   * @author  MCD Application Team
   5:Drivers/BSP/Components/exc7200/exc7200.c ****   * @version V1.0.1
   6:Drivers/BSP/Components/exc7200/exc7200.c ****   * @date    21-September-2015
   7:Drivers/BSP/Components/exc7200/exc7200.c ****   * @brief   This file provides a set of functions needed to manage the EXC7200
   8:Drivers/BSP/Components/exc7200/exc7200.c ****   *          Touch-screen controller.
   9:Drivers/BSP/Components/exc7200/exc7200.c ****   ******************************************************************************
  10:Drivers/BSP/Components/exc7200/exc7200.c ****   * @attention
  11:Drivers/BSP/Components/exc7200/exc7200.c ****   *
  12:Drivers/BSP/Components/exc7200/exc7200.c ****   * <h2><center>&copy; COPYRIGHT(c) 2015 STMicroelectronics</center></h2>
  13:Drivers/BSP/Components/exc7200/exc7200.c ****   *
  14:Drivers/BSP/Components/exc7200/exc7200.c ****   * Redistribution and use in source and binary forms, with or without modification,
  15:Drivers/BSP/Components/exc7200/exc7200.c ****   * are permitted provided that the following conditions are met:
  16:Drivers/BSP/Components/exc7200/exc7200.c ****   *   1. Redistributions of source code must retain the above copyright notice,
  17:Drivers/BSP/Components/exc7200/exc7200.c ****   *      this list of conditions and the following disclaimer.
  18:Drivers/BSP/Components/exc7200/exc7200.c ****   *   2. Redistributions in binary form must reproduce the above copyright notice,
  19:Drivers/BSP/Components/exc7200/exc7200.c ****   *      this list of conditions and the following disclaimer in the documentation
  20:Drivers/BSP/Components/exc7200/exc7200.c ****   *      and/or other materials provided with the distribution.
  21:Drivers/BSP/Components/exc7200/exc7200.c ****   *   3. Neither the name of STMicroelectronics nor the names of its contributors
  22:Drivers/BSP/Components/exc7200/exc7200.c ****   *      may be used to endorse or promote products derived from this software
  23:Drivers/BSP/Components/exc7200/exc7200.c ****   *      without specific prior written permission.
  24:Drivers/BSP/Components/exc7200/exc7200.c ****   *
  25:Drivers/BSP/Components/exc7200/exc7200.c ****   * THIS SOFTWARE IS PROVIDED BY THE COPYRIGHT HOLDERS AND CONTRIBUTORS "AS IS"
  26:Drivers/BSP/Components/exc7200/exc7200.c ****   * AND ANY EXPRESS OR IMPLIED WARRANTIES, INCLUDING, BUT NOT LIMITED TO, THE
  27:Drivers/BSP/Components/exc7200/exc7200.c ****   * IMPLIED WARRANTIES OF MERCHANTABILITY AND FITNESS FOR A PARTICULAR PURPOSE ARE
  28:Drivers/BSP/Components/exc7200/exc7200.c ****   * DISCLAIMED. IN NO EVENT SHALL THE COPYRIGHT HOLDER OR CONTRIBUTORS BE LIABLE
  29:Drivers/BSP/Components/exc7200/exc7200.c ****   * FOR ANY DIRECT, INDIRECT, INCIDENTAL, SPECIAL, EXEMPLARY, OR CONSEQUENTIAL
ARM GAS  /var/folders/0z/tsy30v1j4xl4_7kw94k978ww0000gn/T//ccgWSgGA.s 			page 2


  30:Drivers/BSP/Components/exc7200/exc7200.c ****   * DAMAGES (INCLUDING, BUT NOT LIMITED TO, PROCUREMENT OF SUBSTITUTE GOODS OR
  31:Drivers/BSP/Components/exc7200/exc7200.c ****   * SERVICES; LOSS OF USE, DATA, OR PROFITS; OR BUSINESS INTERRUPTION) HOWEVER
  32:Drivers/BSP/Components/exc7200/exc7200.c ****   * CAUSED AND ON ANY THEORY OF LIABILITY, WHETHER IN CONTRACT, STRICT LIABILITY,
  33:Drivers/BSP/Components/exc7200/exc7200.c ****   * OR TORT (INCLUDING NEGLIGENCE OR OTHERWISE) ARISING IN ANY WAY OUT OF THE USE
  34:Drivers/BSP/Components/exc7200/exc7200.c ****   * OF THIS SOFTWARE, EVEN IF ADVISED OF THE POSSIBILITY OF SUCH DAMAGE.
  35:Drivers/BSP/Components/exc7200/exc7200.c ****   *
  36:Drivers/BSP/Components/exc7200/exc7200.c ****   ******************************************************************************
  37:Drivers/BSP/Components/exc7200/exc7200.c ****   */  
  38:Drivers/BSP/Components/exc7200/exc7200.c **** 
  39:Drivers/BSP/Components/exc7200/exc7200.c **** /* Includes ------------------------------------------------------------------*/
  40:Drivers/BSP/Components/exc7200/exc7200.c **** #include "exc7200.h"
  41:Drivers/BSP/Components/exc7200/exc7200.c **** 
  42:Drivers/BSP/Components/exc7200/exc7200.c **** /** @addtogroup BSP
  43:Drivers/BSP/Components/exc7200/exc7200.c ****   * @{
  44:Drivers/BSP/Components/exc7200/exc7200.c ****   */
  45:Drivers/BSP/Components/exc7200/exc7200.c **** 
  46:Drivers/BSP/Components/exc7200/exc7200.c **** /** @addtogroup Component
  47:Drivers/BSP/Components/exc7200/exc7200.c ****   * @{
  48:Drivers/BSP/Components/exc7200/exc7200.c ****   */ 
  49:Drivers/BSP/Components/exc7200/exc7200.c ****   
  50:Drivers/BSP/Components/exc7200/exc7200.c **** /** @defgroup EXC7200
  51:Drivers/BSP/Components/exc7200/exc7200.c ****   * @{
  52:Drivers/BSP/Components/exc7200/exc7200.c ****   */   
  53:Drivers/BSP/Components/exc7200/exc7200.c ****   
  54:Drivers/BSP/Components/exc7200/exc7200.c **** /* Private typedef -----------------------------------------------------------*/
  55:Drivers/BSP/Components/exc7200/exc7200.c **** 
  56:Drivers/BSP/Components/exc7200/exc7200.c **** /** @defgroup EXC7200_Private_Types_Definitions
  57:Drivers/BSP/Components/exc7200/exc7200.c ****   * @{
  58:Drivers/BSP/Components/exc7200/exc7200.c ****   */ 
  59:Drivers/BSP/Components/exc7200/exc7200.c ****  
  60:Drivers/BSP/Components/exc7200/exc7200.c **** /* Private define ------------------------------------------------------------*/
  61:Drivers/BSP/Components/exc7200/exc7200.c **** 
  62:Drivers/BSP/Components/exc7200/exc7200.c **** /** @defgroup EXC7200_Private_Defines
  63:Drivers/BSP/Components/exc7200/exc7200.c ****   * @{
  64:Drivers/BSP/Components/exc7200/exc7200.c ****   */ 
  65:Drivers/BSP/Components/exc7200/exc7200.c ****   
  66:Drivers/BSP/Components/exc7200/exc7200.c **** /* Private macro -------------------------------------------------------------*/
  67:Drivers/BSP/Components/exc7200/exc7200.c **** 
  68:Drivers/BSP/Components/exc7200/exc7200.c **** /** @defgroup EXC7200_Private_Macros
  69:Drivers/BSP/Components/exc7200/exc7200.c ****   * @{
  70:Drivers/BSP/Components/exc7200/exc7200.c ****   */ 
  71:Drivers/BSP/Components/exc7200/exc7200.c ****   
  72:Drivers/BSP/Components/exc7200/exc7200.c **** /* Private variables ---------------------------------------------------------*/
  73:Drivers/BSP/Components/exc7200/exc7200.c **** 
  74:Drivers/BSP/Components/exc7200/exc7200.c **** /** @defgroup EXC7200_Private_Variables
  75:Drivers/BSP/Components/exc7200/exc7200.c ****   * @{
  76:Drivers/BSP/Components/exc7200/exc7200.c ****   */ 
  77:Drivers/BSP/Components/exc7200/exc7200.c ****   
  78:Drivers/BSP/Components/exc7200/exc7200.c **** /* Touch screen driver structure initialization */  
  79:Drivers/BSP/Components/exc7200/exc7200.c **** TS_DrvTypeDef exc7200_ts_drv = 
  80:Drivers/BSP/Components/exc7200/exc7200.c **** {
  81:Drivers/BSP/Components/exc7200/exc7200.c ****   exc7200_Init,
  82:Drivers/BSP/Components/exc7200/exc7200.c ****   exc7200_ReadID,
  83:Drivers/BSP/Components/exc7200/exc7200.c ****   exc7200_Reset,
  84:Drivers/BSP/Components/exc7200/exc7200.c ****   
  85:Drivers/BSP/Components/exc7200/exc7200.c ****   exc7200_TS_Start,
  86:Drivers/BSP/Components/exc7200/exc7200.c ****   exc7200_TS_DetectTouch,
ARM GAS  /var/folders/0z/tsy30v1j4xl4_7kw94k978ww0000gn/T//ccgWSgGA.s 			page 3


  87:Drivers/BSP/Components/exc7200/exc7200.c ****   exc7200_TS_GetXY,
  88:Drivers/BSP/Components/exc7200/exc7200.c ****   
  89:Drivers/BSP/Components/exc7200/exc7200.c ****   exc7200_TS_EnableIT,
  90:Drivers/BSP/Components/exc7200/exc7200.c ****   exc7200_TS_ClearIT,
  91:Drivers/BSP/Components/exc7200/exc7200.c ****   exc7200_TS_ITStatus,
  92:Drivers/BSP/Components/exc7200/exc7200.c ****   exc7200_TS_DisableIT,
  93:Drivers/BSP/Components/exc7200/exc7200.c **** };
  94:Drivers/BSP/Components/exc7200/exc7200.c **** 
  95:Drivers/BSP/Components/exc7200/exc7200.c **** uint8_t aBufferTS[10];
  96:Drivers/BSP/Components/exc7200/exc7200.c **** 
  97:Drivers/BSP/Components/exc7200/exc7200.c **** /**
  98:Drivers/BSP/Components/exc7200/exc7200.c ****   * @}
  99:Drivers/BSP/Components/exc7200/exc7200.c ****   */ 
 100:Drivers/BSP/Components/exc7200/exc7200.c ****     
 101:Drivers/BSP/Components/exc7200/exc7200.c **** /* Private function prototypes -----------------------------------------------*/
 102:Drivers/BSP/Components/exc7200/exc7200.c **** 
 103:Drivers/BSP/Components/exc7200/exc7200.c **** /** @defgroup exc7200_Private_Function_Prototypes
 104:Drivers/BSP/Components/exc7200/exc7200.c ****   * @{
 105:Drivers/BSP/Components/exc7200/exc7200.c ****   */
 106:Drivers/BSP/Components/exc7200/exc7200.c **** 
 107:Drivers/BSP/Components/exc7200/exc7200.c **** /* Private functions ---------------------------------------------------------*/
 108:Drivers/BSP/Components/exc7200/exc7200.c **** 
 109:Drivers/BSP/Components/exc7200/exc7200.c **** /** @defgroup exc7200_Private_Functions
 110:Drivers/BSP/Components/exc7200/exc7200.c ****   * @{
 111:Drivers/BSP/Components/exc7200/exc7200.c ****   */
 112:Drivers/BSP/Components/exc7200/exc7200.c **** 
 113:Drivers/BSP/Components/exc7200/exc7200.c **** /**
 114:Drivers/BSP/Components/exc7200/exc7200.c ****   * @brief  Initialize the exc7200 and configure the needed hardware resources
 115:Drivers/BSP/Components/exc7200/exc7200.c ****   * @param  DeviceAddr: Device address on communication Bus.
 116:Drivers/BSP/Components/exc7200/exc7200.c ****   * @retval None
 117:Drivers/BSP/Components/exc7200/exc7200.c ****   */
 118:Drivers/BSP/Components/exc7200/exc7200.c **** void exc7200_Init(uint16_t DeviceAddr)
 119:Drivers/BSP/Components/exc7200/exc7200.c **** {
 120:Drivers/BSP/Components/exc7200/exc7200.c ****   /* Initialize IO BUS layer */
 121:Drivers/BSP/Components/exc7200/exc7200.c ****   IOE_Init(); 
 122:Drivers/BSP/Components/exc7200/exc7200.c ****   
 123:Drivers/BSP/Components/exc7200/exc7200.c **** }
 124:Drivers/BSP/Components/exc7200/exc7200.c ****  
 125:Drivers/BSP/Components/exc7200/exc7200.c **** /**
 126:Drivers/BSP/Components/exc7200/exc7200.c ****   * @brief  Reset the exc7200 by Software.
 127:Drivers/BSP/Components/exc7200/exc7200.c ****   * @param  DeviceAddr: Device address on communication Bus.  
 128:Drivers/BSP/Components/exc7200/exc7200.c ****   * @retval None
 129:Drivers/BSP/Components/exc7200/exc7200.c ****   */
 130:Drivers/BSP/Components/exc7200/exc7200.c **** void exc7200_Reset(uint16_t DeviceAddr)
 131:Drivers/BSP/Components/exc7200/exc7200.c **** {
  30              		.loc 1 131 1 view -0
  31              		.cfi_startproc
  32              		@ args = 0, pretend = 0, frame = 0
  33              		@ frame_needed = 0, uses_anonymous_args = 0
  34              		@ link register save eliminated.
 132:Drivers/BSP/Components/exc7200/exc7200.c **** 
 133:Drivers/BSP/Components/exc7200/exc7200.c **** }
  35              		.loc 1 133 1 view .LVU1
  36 0000 7047     		bx	lr
  37              		.cfi_endproc
  38              	.LFE1:
  40              		.section	.text.exc7200_ReadID,"ax",%progbits
ARM GAS  /var/folders/0z/tsy30v1j4xl4_7kw94k978ww0000gn/T//ccgWSgGA.s 			page 4


  41              		.align	1
  42              		.global	exc7200_ReadID
  43              		.syntax unified
  44              		.thumb
  45              		.thumb_func
  47              	exc7200_ReadID:
  48              	.LVL1:
  49              	.LFB2:
 134:Drivers/BSP/Components/exc7200/exc7200.c **** 
 135:Drivers/BSP/Components/exc7200/exc7200.c **** /**
 136:Drivers/BSP/Components/exc7200/exc7200.c ****   * @brief  Read the exc7200 IO Expander device ID.
 137:Drivers/BSP/Components/exc7200/exc7200.c ****   * @param  DeviceAddr: Device address on communication Bus.  
 138:Drivers/BSP/Components/exc7200/exc7200.c ****   * @retval The Device ID (two bytes).
 139:Drivers/BSP/Components/exc7200/exc7200.c ****   */
 140:Drivers/BSP/Components/exc7200/exc7200.c **** uint16_t exc7200_ReadID(uint16_t DeviceAddr)
 141:Drivers/BSP/Components/exc7200/exc7200.c **** {
  50              		.loc 1 141 1 view -0
  51              		.cfi_startproc
  52              		@ args = 0, pretend = 0, frame = 0
  53              		@ frame_needed = 0, uses_anonymous_args = 0
  54              		@ link register save eliminated.
 142:Drivers/BSP/Components/exc7200/exc7200.c ****   return 0;
  55              		.loc 1 142 3 view .LVU3
 143:Drivers/BSP/Components/exc7200/exc7200.c **** }
  56              		.loc 1 143 1 is_stmt 0 view .LVU4
  57 0000 0020     		movs	r0, #0
  58              	.LVL2:
  59              		.loc 1 143 1 view .LVU5
  60 0002 7047     		bx	lr
  61              		.cfi_endproc
  62              	.LFE2:
  64              		.section	.text.exc7200_TS_Start,"ax",%progbits
  65              		.align	1
  66              		.global	exc7200_TS_Start
  67              		.syntax unified
  68              		.thumb
  69              		.thumb_func
  71              	exc7200_TS_Start:
  72              	.LVL3:
  73              	.LFB3:
 144:Drivers/BSP/Components/exc7200/exc7200.c **** 
 145:Drivers/BSP/Components/exc7200/exc7200.c **** /**
 146:Drivers/BSP/Components/exc7200/exc7200.c ****   * @brief  Configures the touch Screen Controller (Single point detection)
 147:Drivers/BSP/Components/exc7200/exc7200.c ****   * @param  DeviceAddr: Device address on communication Bus.
 148:Drivers/BSP/Components/exc7200/exc7200.c ****   * @retval None.
 149:Drivers/BSP/Components/exc7200/exc7200.c ****   */
 150:Drivers/BSP/Components/exc7200/exc7200.c **** void exc7200_TS_Start(uint16_t DeviceAddr)
 151:Drivers/BSP/Components/exc7200/exc7200.c **** {
  74              		.loc 1 151 1 is_stmt 1 view -0
  75              		.cfi_startproc
  76              		@ args = 0, pretend = 0, frame = 0
  77              		@ frame_needed = 0, uses_anonymous_args = 0
  78              		@ link register save eliminated.
 152:Drivers/BSP/Components/exc7200/exc7200.c **** }
  79              		.loc 1 152 1 view .LVU7
  80 0000 7047     		bx	lr
  81              		.cfi_endproc
ARM GAS  /var/folders/0z/tsy30v1j4xl4_7kw94k978ww0000gn/T//ccgWSgGA.s 			page 5


  82              	.LFE3:
  84              		.section	.text.exc7200_TS_EnableIT,"ax",%progbits
  85              		.align	1
  86              		.global	exc7200_TS_EnableIT
  87              		.syntax unified
  88              		.thumb
  89              		.thumb_func
  91              	exc7200_TS_EnableIT:
  92              	.LVL4:
  93              	.LFB6:
 153:Drivers/BSP/Components/exc7200/exc7200.c **** 
 154:Drivers/BSP/Components/exc7200/exc7200.c **** /**
 155:Drivers/BSP/Components/exc7200/exc7200.c ****   * @brief  Return if there is touch detected or not.
 156:Drivers/BSP/Components/exc7200/exc7200.c ****   * @param  DeviceAddr: Device address on communication Bus.
 157:Drivers/BSP/Components/exc7200/exc7200.c ****   * @retval Touch detected state.
 158:Drivers/BSP/Components/exc7200/exc7200.c ****   */
 159:Drivers/BSP/Components/exc7200/exc7200.c **** uint8_t exc7200_TS_DetectTouch(uint16_t DeviceAddr)
 160:Drivers/BSP/Components/exc7200/exc7200.c **** {
 161:Drivers/BSP/Components/exc7200/exc7200.c ****   /* Read TS data : Send I2C Slave address + 1 Bit0=1 for:read */
 162:Drivers/BSP/Components/exc7200/exc7200.c ****   IOE_ReadMultiple(DeviceAddr | 1, EXC7200_READ_CMD, aBufferTS, 10);  
 163:Drivers/BSP/Components/exc7200/exc7200.c **** 
 164:Drivers/BSP/Components/exc7200/exc7200.c ****   /* check for first byte */
 165:Drivers/BSP/Components/exc7200/exc7200.c ****   if (aBufferTS[1]==0x83)
 166:Drivers/BSP/Components/exc7200/exc7200.c ****   {	
 167:Drivers/BSP/Components/exc7200/exc7200.c ****     return 1;
 168:Drivers/BSP/Components/exc7200/exc7200.c ****   }
 169:Drivers/BSP/Components/exc7200/exc7200.c ****   
 170:Drivers/BSP/Components/exc7200/exc7200.c ****   return 0;
 171:Drivers/BSP/Components/exc7200/exc7200.c **** }
 172:Drivers/BSP/Components/exc7200/exc7200.c **** 
 173:Drivers/BSP/Components/exc7200/exc7200.c **** /**
 174:Drivers/BSP/Components/exc7200/exc7200.c ****   * @brief  Get the touch screen X and Y positions values
 175:Drivers/BSP/Components/exc7200/exc7200.c ****   * @param  DeviceAddr: Device address on communication Bus.
 176:Drivers/BSP/Components/exc7200/exc7200.c ****   * @param  X: Pointer to X position value
 177:Drivers/BSP/Components/exc7200/exc7200.c ****   * @param  Y: Pointer to Y position value   
 178:Drivers/BSP/Components/exc7200/exc7200.c ****   * @retval None.
 179:Drivers/BSP/Components/exc7200/exc7200.c ****   */
 180:Drivers/BSP/Components/exc7200/exc7200.c **** void exc7200_TS_GetXY(uint16_t DeviceAddr, uint16_t *X, uint16_t *Y)
 181:Drivers/BSP/Components/exc7200/exc7200.c **** {
 182:Drivers/BSP/Components/exc7200/exc7200.c ****   /* Calculate positions */
 183:Drivers/BSP/Components/exc7200/exc7200.c ****   *X = (((aBufferTS[3]&0x00ff) << 4) | ((aBufferTS[2]&0x00f0) >> 4)) << 1;
 184:Drivers/BSP/Components/exc7200/exc7200.c ****   *Y = (((aBufferTS[5]&0x00ff) << 4) | ((aBufferTS[4]&0x00f0) >> 4)) << 1;
 185:Drivers/BSP/Components/exc7200/exc7200.c ****   
 186:Drivers/BSP/Components/exc7200/exc7200.c ****   /* Dummy Read to deactivate read mode */
 187:Drivers/BSP/Components/exc7200/exc7200.c ****   IOE_ReadMultiple(DeviceAddr, EXC7200_READ_CMD, aBufferTS, 10);    
 188:Drivers/BSP/Components/exc7200/exc7200.c **** }
 189:Drivers/BSP/Components/exc7200/exc7200.c **** 
 190:Drivers/BSP/Components/exc7200/exc7200.c **** /**
 191:Drivers/BSP/Components/exc7200/exc7200.c ****   * @brief  Configure the selected source to generate a global interrupt or not
 192:Drivers/BSP/Components/exc7200/exc7200.c ****   * @param  DeviceAddr: Device address on communication Bus.  
 193:Drivers/BSP/Components/exc7200/exc7200.c ****   * @retval None
 194:Drivers/BSP/Components/exc7200/exc7200.c ****   */
 195:Drivers/BSP/Components/exc7200/exc7200.c **** void exc7200_TS_EnableIT(uint16_t DeviceAddr)
 196:Drivers/BSP/Components/exc7200/exc7200.c **** {  
  94              		.loc 1 196 1 view -0
  95              		.cfi_startproc
  96              		@ args = 0, pretend = 0, frame = 0
ARM GAS  /var/folders/0z/tsy30v1j4xl4_7kw94k978ww0000gn/T//ccgWSgGA.s 			page 6


  97              		@ frame_needed = 0, uses_anonymous_args = 0
  98              		@ link register save eliminated.
 197:Drivers/BSP/Components/exc7200/exc7200.c **** }
  99              		.loc 1 197 1 view .LVU9
 100 0000 7047     		bx	lr
 101              		.cfi_endproc
 102              	.LFE6:
 104              		.section	.text.exc7200_TS_DisableIT,"ax",%progbits
 105              		.align	1
 106              		.global	exc7200_TS_DisableIT
 107              		.syntax unified
 108              		.thumb
 109              		.thumb_func
 111              	exc7200_TS_DisableIT:
 112              	.LVL5:
 113              	.LFB7:
 198:Drivers/BSP/Components/exc7200/exc7200.c **** 
 199:Drivers/BSP/Components/exc7200/exc7200.c **** /**
 200:Drivers/BSP/Components/exc7200/exc7200.c ****   * @brief  Configure the selected source to generate a global interrupt or not
 201:Drivers/BSP/Components/exc7200/exc7200.c ****   * @param  DeviceAddr: Device address on communication Bus.    
 202:Drivers/BSP/Components/exc7200/exc7200.c ****   * @retval None
 203:Drivers/BSP/Components/exc7200/exc7200.c ****   */
 204:Drivers/BSP/Components/exc7200/exc7200.c **** void exc7200_TS_DisableIT(uint16_t DeviceAddr)
 205:Drivers/BSP/Components/exc7200/exc7200.c **** {
 114              		.loc 1 205 1 view -0
 115              		.cfi_startproc
 116              		@ args = 0, pretend = 0, frame = 0
 117              		@ frame_needed = 0, uses_anonymous_args = 0
 118              		@ link register save eliminated.
 206:Drivers/BSP/Components/exc7200/exc7200.c **** }
 119              		.loc 1 206 1 view .LVU11
 120 0000 7047     		bx	lr
 121              		.cfi_endproc
 122              	.LFE7:
 124              		.section	.text.exc7200_TS_ITStatus,"ax",%progbits
 125              		.align	1
 126              		.global	exc7200_TS_ITStatus
 127              		.syntax unified
 128              		.thumb
 129              		.thumb_func
 131              	exc7200_TS_ITStatus:
 132              	.LVL6:
 133              	.LFB8:
 207:Drivers/BSP/Components/exc7200/exc7200.c **** 
 208:Drivers/BSP/Components/exc7200/exc7200.c **** /**
 209:Drivers/BSP/Components/exc7200/exc7200.c ****   * @brief  Configure the selected source to generate a global interrupt or not
 210:Drivers/BSP/Components/exc7200/exc7200.c ****   * @param  DeviceAddr: Device address on communication Bus.    
 211:Drivers/BSP/Components/exc7200/exc7200.c ****   * @retval TS interrupts status
 212:Drivers/BSP/Components/exc7200/exc7200.c ****   */
 213:Drivers/BSP/Components/exc7200/exc7200.c **** uint8_t exc7200_TS_ITStatus(uint16_t DeviceAddr)
 214:Drivers/BSP/Components/exc7200/exc7200.c **** {
 134              		.loc 1 214 1 view -0
 135              		.cfi_startproc
 136              		@ args = 0, pretend = 0, frame = 0
 137              		@ frame_needed = 0, uses_anonymous_args = 0
 138              		@ link register save eliminated.
 215:Drivers/BSP/Components/exc7200/exc7200.c ****   return 0;
ARM GAS  /var/folders/0z/tsy30v1j4xl4_7kw94k978ww0000gn/T//ccgWSgGA.s 			page 7


 139              		.loc 1 215 3 view .LVU13
 216:Drivers/BSP/Components/exc7200/exc7200.c **** }
 140              		.loc 1 216 1 is_stmt 0 view .LVU14
 141 0000 0020     		movs	r0, #0
 142              	.LVL7:
 143              		.loc 1 216 1 view .LVU15
 144 0002 7047     		bx	lr
 145              		.cfi_endproc
 146              	.LFE8:
 148              		.section	.text.exc7200_TS_ClearIT,"ax",%progbits
 149              		.align	1
 150              		.global	exc7200_TS_ClearIT
 151              		.syntax unified
 152              		.thumb
 153              		.thumb_func
 155              	exc7200_TS_ClearIT:
 156              	.LVL8:
 157              	.LFB9:
 217:Drivers/BSP/Components/exc7200/exc7200.c **** 
 218:Drivers/BSP/Components/exc7200/exc7200.c **** /**
 219:Drivers/BSP/Components/exc7200/exc7200.c ****   * @brief  Configure the selected source to generate a global interrupt or not
 220:Drivers/BSP/Components/exc7200/exc7200.c ****   * @param  DeviceAddr: Device address on communication Bus.  
 221:Drivers/BSP/Components/exc7200/exc7200.c ****   * @retval None
 222:Drivers/BSP/Components/exc7200/exc7200.c ****   */
 223:Drivers/BSP/Components/exc7200/exc7200.c **** void exc7200_TS_ClearIT(uint16_t DeviceAddr)
 224:Drivers/BSP/Components/exc7200/exc7200.c **** {
 158              		.loc 1 224 1 is_stmt 1 view -0
 159              		.cfi_startproc
 160              		@ args = 0, pretend = 0, frame = 0
 161              		@ frame_needed = 0, uses_anonymous_args = 0
 162              		@ link register save eliminated.
 225:Drivers/BSP/Components/exc7200/exc7200.c **** }
 163              		.loc 1 225 1 view .LVU17
 164 0000 7047     		bx	lr
 165              		.cfi_endproc
 166              	.LFE9:
 168              		.section	.text.exc7200_Init,"ax",%progbits
 169              		.align	1
 170              		.global	exc7200_Init
 171              		.syntax unified
 172              		.thumb
 173              		.thumb_func
 175              	exc7200_Init:
 176              	.LVL9:
 177              	.LFB0:
 119:Drivers/BSP/Components/exc7200/exc7200.c ****   /* Initialize IO BUS layer */
 178              		.loc 1 119 1 view -0
 179              		.cfi_startproc
 180              		@ args = 0, pretend = 0, frame = 0
 181              		@ frame_needed = 0, uses_anonymous_args = 0
 119:Drivers/BSP/Components/exc7200/exc7200.c ****   /* Initialize IO BUS layer */
 182              		.loc 1 119 1 is_stmt 0 view .LVU19
 183 0000 08B5     		push	{r3, lr}
 184              		.cfi_def_cfa_offset 8
 185              		.cfi_offset 3, -8
 186              		.cfi_offset 14, -4
 121:Drivers/BSP/Components/exc7200/exc7200.c ****   
ARM GAS  /var/folders/0z/tsy30v1j4xl4_7kw94k978ww0000gn/T//ccgWSgGA.s 			page 8


 187              		.loc 1 121 3 is_stmt 1 view .LVU20
 188 0002 FFF7FEFF 		bl	IOE_Init
 189              	.LVL10:
 123:Drivers/BSP/Components/exc7200/exc7200.c ****  
 190              		.loc 1 123 1 is_stmt 0 view .LVU21
 191 0006 08BD     		pop	{r3, pc}
 192              		.cfi_endproc
 193              	.LFE0:
 195              		.section	.text.exc7200_TS_DetectTouch,"ax",%progbits
 196              		.align	1
 197              		.global	exc7200_TS_DetectTouch
 198              		.syntax unified
 199              		.thumb
 200              		.thumb_func
 202              	exc7200_TS_DetectTouch:
 203              	.LVL11:
 204              	.LFB4:
 160:Drivers/BSP/Components/exc7200/exc7200.c ****   /* Read TS data : Send I2C Slave address + 1 Bit0=1 for:read */
 205              		.loc 1 160 1 is_stmt 1 view -0
 206              		.cfi_startproc
 207              		@ args = 0, pretend = 0, frame = 0
 208              		@ frame_needed = 0, uses_anonymous_args = 0
 160:Drivers/BSP/Components/exc7200/exc7200.c ****   /* Read TS data : Send I2C Slave address + 1 Bit0=1 for:read */
 209              		.loc 1 160 1 is_stmt 0 view .LVU23
 210 0000 10B5     		push	{r4, lr}
 211              		.cfi_def_cfa_offset 8
 212              		.cfi_offset 4, -8
 213              		.cfi_offset 14, -4
 162:Drivers/BSP/Components/exc7200/exc7200.c **** 
 214              		.loc 1 162 3 is_stmt 1 view .LVU24
 215 0002 084C     		ldr	r4, .L14
 216 0004 40F00100 		orr	r0, r0, #1
 217              	.LVL12:
 162:Drivers/BSP/Components/exc7200/exc7200.c **** 
 218              		.loc 1 162 3 is_stmt 0 view .LVU25
 219 0008 0A23     		movs	r3, #10
 220 000a 2246     		mov	r2, r4
 221 000c 0921     		movs	r1, #9
 222 000e C0B2     		uxtb	r0, r0
 223 0010 FFF7FEFF 		bl	IOE_ReadMultiple
 224              	.LVL13:
 165:Drivers/BSP/Components/exc7200/exc7200.c ****   {	
 225              		.loc 1 165 3 is_stmt 1 view .LVU26
 165:Drivers/BSP/Components/exc7200/exc7200.c ****   {	
 226              		.loc 1 165 16 is_stmt 0 view .LVU27
 227 0014 6378     		ldrb	r3, [r4, #1]	@ zero_extendqisi2
 165:Drivers/BSP/Components/exc7200/exc7200.c ****   {	
 228              		.loc 1 165 6 view .LVU28
 229 0016 832B     		cmp	r3, #131
 230 0018 01D0     		beq	.L12
 170:Drivers/BSP/Components/exc7200/exc7200.c **** }
 231              		.loc 1 170 10 view .LVU29
 232 001a 0020     		movs	r0, #0
 233              	.L11:
 171:Drivers/BSP/Components/exc7200/exc7200.c **** 
 234              		.loc 1 171 1 view .LVU30
 235 001c 10BD     		pop	{r4, pc}
ARM GAS  /var/folders/0z/tsy30v1j4xl4_7kw94k978ww0000gn/T//ccgWSgGA.s 			page 9


 236              	.L12:
 167:Drivers/BSP/Components/exc7200/exc7200.c ****   }
 237              		.loc 1 167 12 view .LVU31
 238 001e 0120     		movs	r0, #1
 239 0020 FCE7     		b	.L11
 240              	.L15:
 241 0022 00BF     		.align	2
 242              	.L14:
 243 0024 00000000 		.word	.LANCHOR0
 244              		.cfi_endproc
 245              	.LFE4:
 247              		.section	.text.exc7200_TS_GetXY,"ax",%progbits
 248              		.align	1
 249              		.global	exc7200_TS_GetXY
 250              		.syntax unified
 251              		.thumb
 252              		.thumb_func
 254              	exc7200_TS_GetXY:
 255              	.LVL14:
 256              	.LFB5:
 181:Drivers/BSP/Components/exc7200/exc7200.c ****   /* Calculate positions */
 257              		.loc 1 181 1 is_stmt 1 view -0
 258              		.cfi_startproc
 259              		@ args = 0, pretend = 0, frame = 0
 260              		@ frame_needed = 0, uses_anonymous_args = 0
 181:Drivers/BSP/Components/exc7200/exc7200.c ****   /* Calculate positions */
 261              		.loc 1 181 1 is_stmt 0 view .LVU33
 262 0000 08B5     		push	{r3, lr}
 263              		.cfi_def_cfa_offset 8
 264              		.cfi_offset 3, -8
 265              		.cfi_offset 14, -4
 266 0002 9446     		mov	ip, r2
 183:Drivers/BSP/Components/exc7200/exc7200.c ****   *Y = (((aBufferTS[5]&0x00ff) << 4) | ((aBufferTS[4]&0x00f0) >> 4)) << 1;
 267              		.loc 1 183 3 is_stmt 1 view .LVU34
 183:Drivers/BSP/Components/exc7200/exc7200.c ****   *Y = (((aBufferTS[5]&0x00ff) << 4) | ((aBufferTS[4]&0x00f0) >> 4)) << 1;
 268              		.loc 1 183 20 is_stmt 0 view .LVU35
 269 0004 0B4A     		ldr	r2, .L18
 270              	.LVL15:
 183:Drivers/BSP/Components/exc7200/exc7200.c ****   *Y = (((aBufferTS[5]&0x00ff) << 4) | ((aBufferTS[4]&0x00f0) >> 4)) << 1;
 271              		.loc 1 183 20 view .LVU36
 272 0006 92F803E0 		ldrb	lr, [r2, #3]	@ zero_extendqisi2
 183:Drivers/BSP/Components/exc7200/exc7200.c ****   *Y = (((aBufferTS[5]&0x00ff) << 4) | ((aBufferTS[4]&0x00f0) >> 4)) << 1;
 273              		.loc 1 183 51 view .LVU37
 274 000a 9378     		ldrb	r3, [r2, #2]	@ zero_extendqisi2
 183:Drivers/BSP/Components/exc7200/exc7200.c ****   *Y = (((aBufferTS[5]&0x00ff) << 4) | ((aBufferTS[4]&0x00f0) >> 4)) << 1;
 275              		.loc 1 183 63 view .LVU38
 276 000c 1B09     		lsrs	r3, r3, #4
 183:Drivers/BSP/Components/exc7200/exc7200.c ****   *Y = (((aBufferTS[5]&0x00ff) << 4) | ((aBufferTS[4]&0x00f0) >> 4)) << 1;
 277              		.loc 1 183 38 view .LVU39
 278 000e 43EA0E13 		orr	r3, r3, lr, lsl #4
 183:Drivers/BSP/Components/exc7200/exc7200.c ****   *Y = (((aBufferTS[5]&0x00ff) << 4) | ((aBufferTS[4]&0x00f0) >> 4)) << 1;
 279              		.loc 1 183 70 view .LVU40
 280 0012 5B00     		lsls	r3, r3, #1
 183:Drivers/BSP/Components/exc7200/exc7200.c ****   *Y = (((aBufferTS[5]&0x00ff) << 4) | ((aBufferTS[4]&0x00f0) >> 4)) << 1;
 281              		.loc 1 183 6 view .LVU41
 282 0014 0B80     		strh	r3, [r1]	@ movhi
 184:Drivers/BSP/Components/exc7200/exc7200.c ****   
ARM GAS  /var/folders/0z/tsy30v1j4xl4_7kw94k978ww0000gn/T//ccgWSgGA.s 			page 10


 283              		.loc 1 184 3 is_stmt 1 view .LVU42
 184:Drivers/BSP/Components/exc7200/exc7200.c ****   
 284              		.loc 1 184 20 is_stmt 0 view .LVU43
 285 0016 5179     		ldrb	r1, [r2, #5]	@ zero_extendqisi2
 286              	.LVL16:
 184:Drivers/BSP/Components/exc7200/exc7200.c ****   
 287              		.loc 1 184 51 view .LVU44
 288 0018 1379     		ldrb	r3, [r2, #4]	@ zero_extendqisi2
 184:Drivers/BSP/Components/exc7200/exc7200.c ****   
 289              		.loc 1 184 63 view .LVU45
 290 001a 1B09     		lsrs	r3, r3, #4
 184:Drivers/BSP/Components/exc7200/exc7200.c ****   
 291              		.loc 1 184 38 view .LVU46
 292 001c 43EA0113 		orr	r3, r3, r1, lsl #4
 184:Drivers/BSP/Components/exc7200/exc7200.c ****   
 293              		.loc 1 184 70 view .LVU47
 294 0020 5B00     		lsls	r3, r3, #1
 184:Drivers/BSP/Components/exc7200/exc7200.c ****   
 295              		.loc 1 184 6 view .LVU48
 296 0022 ACF80030 		strh	r3, [ip]	@ movhi
 187:Drivers/BSP/Components/exc7200/exc7200.c **** }
 297              		.loc 1 187 3 is_stmt 1 view .LVU49
 298 0026 0A23     		movs	r3, #10
 299 0028 0921     		movs	r1, #9
 300 002a C0B2     		uxtb	r0, r0
 301              	.LVL17:
 187:Drivers/BSP/Components/exc7200/exc7200.c **** }
 302              		.loc 1 187 3 is_stmt 0 view .LVU50
 303 002c FFF7FEFF 		bl	IOE_ReadMultiple
 304              	.LVL18:
 188:Drivers/BSP/Components/exc7200/exc7200.c **** 
 305              		.loc 1 188 1 view .LVU51
 306 0030 08BD     		pop	{r3, pc}
 307              	.L19:
 308 0032 00BF     		.align	2
 309              	.L18:
 310 0034 00000000 		.word	.LANCHOR0
 311              		.cfi_endproc
 312              	.LFE5:
 314              		.global	aBufferTS
 315              		.global	exc7200_ts_drv
 316              		.section	.bss.aBufferTS,"aw",%nobits
 317              		.align	2
 318              		.set	.LANCHOR0,. + 0
 321              	aBufferTS:
 322 0000 00000000 		.space	10
 322      00000000 
 322      0000
 323              		.section	.data.exc7200_ts_drv,"aw"
 324              		.align	2
 327              	exc7200_ts_drv:
 328 0000 00000000 		.word	exc7200_Init
 329 0004 00000000 		.word	exc7200_ReadID
 330 0008 00000000 		.word	exc7200_Reset
 331 000c 00000000 		.word	exc7200_TS_Start
 332 0010 00000000 		.word	exc7200_TS_DetectTouch
 333 0014 00000000 		.word	exc7200_TS_GetXY
ARM GAS  /var/folders/0z/tsy30v1j4xl4_7kw94k978ww0000gn/T//ccgWSgGA.s 			page 11


 334 0018 00000000 		.word	exc7200_TS_EnableIT
 335 001c 00000000 		.word	exc7200_TS_ClearIT
 336 0020 00000000 		.word	exc7200_TS_ITStatus
 337 0024 00000000 		.word	exc7200_TS_DisableIT
 338              		.text
 339              	.Letext0:
 340              		.file 2 "/Users/johannes/Library/Application Support/Code/User/globalStorage/bmd.stm32-for-vscode/
 341              		.file 3 "/Users/johannes/Library/Application Support/Code/User/globalStorage/bmd.stm32-for-vscode/
 342              		.file 4 "Drivers/BSP/Components/exc7200/../Common/ts.h"
 343              		.file 5 "Drivers/BSP/Components/exc7200/exc7200.h"
ARM GAS  /var/folders/0z/tsy30v1j4xl4_7kw94k978ww0000gn/T//ccgWSgGA.s 			page 12

