ARM GAS  /var/folders/0z/tsy30v1j4xl4_7kw94k978ww0000gn/T//cc4iOLfX.s 			page 1


   1              		.cpu cortex-m4
   2              		.arch armv7e-m
   3              		.fpu fpv4-sp-d16
   4              		.eabi_attribute 27, 1
   5              		.eabi_attribute 28, 1
   6              		.eabi_attribute 20, 1
   7              		.eabi_attribute 21, 1
   8              		.eabi_attribute 23, 3
   9              		.eabi_attribute 24, 1
  10              		.eabi_attribute 25, 1
  11              		.eabi_attribute 26, 1
  12              		.eabi_attribute 30, 2
  13              		.eabi_attribute 34, 1
  14              		.eabi_attribute 18, 4
  15              		.file	"filters.c"
  16              		.text
  17              	.Ltext0:
  18              		.cfi_sections	.debug_frame
  19              		.section	.text.SVF_LP_init,"ax",%progbits
  20              		.align	1
  21              		.p2align 2,,3
  22              		.global	SVF_LP_init
  23              		.syntax unified
  24              		.thumb
  25              		.thumb_func
  27              	SVF_LP_init:
  28              	.LVL0:
  29              	.LFB3:
  30              		.file 1 "Core/Src/filters.c"
   1:Core/Src/filters.c **** 
   2:Core/Src/filters.c **** #include "helper_functions.h"
   3:Core/Src/filters.c **** #include "filters.h"
   4:Core/Src/filters.c **** #include "CONSTS.h"
   5:Core/Src/filters.c **** #include "ladder_filter.h"
   6:Core/Src/filters.c **** #include "lut_tan.h"
   7:Core/Src/filters.c **** 
   8:Core/Src/filters.c **** 
   9:Core/Src/filters.c **** ZDFLP_t lp_L ;
  10:Core/Src/filters.c **** ZDFLP_t lp_R ;
  11:Core/Src/filters.c **** 
  12:Core/Src/filters.c **** void SVF_LP_init(ZDFLP_t * filter){
  31              		.loc 1 12 35 view -0
  32              		.cfi_startproc
  33              		@ args = 0, pretend = 0, frame = 0
  34              		@ frame_needed = 0, uses_anonymous_args = 0
  35              		@ link register save eliminated.
  13:Core/Src/filters.c ****     filter->s1 = 0.0f;
  36              		.loc 1 13 5 view .LVU1
  37              		.loc 1 13 16 is_stmt 0 view .LVU2
  38 0000 0023     		movs	r3, #0
  14:Core/Src/filters.c ****     filter->s2 = 0.0f;
  15:Core/Src/filters.c ****     filter->r = 0.65f;           // slight resonance
  39              		.loc 1 15 15 view .LVU3
  40 0002 DFF81CC0 		ldr	ip, .L3+8
  16:Core/Src/filters.c ****     filter->cutoff = 1200;
  41              		.loc 1 16 20 view .LVU4
  42 0006 0449     		ldr	r1, .L3
ARM GAS  /var/folders/0z/tsy30v1j4xl4_7kw94k978ww0000gn/T//cc4iOLfX.s 			page 2


  17:Core/Src/filters.c ****     filter->g = 0.11;
  43              		.loc 1 17 15 view .LVU5
  44 0008 044A     		ldr	r2, .L3+4
  13:Core/Src/filters.c ****     filter->s2 = 0.0f;
  45              		.loc 1 13 16 view .LVU6
  46 000a 0360     		str	r3, [r0]	@ float
  14:Core/Src/filters.c ****     filter->r = 0.65f;           // slight resonance
  47              		.loc 1 14 5 is_stmt 1 view .LVU7
  14:Core/Src/filters.c ****     filter->r = 0.65f;           // slight resonance
  48              		.loc 1 14 16 is_stmt 0 view .LVU8
  49 000c 4360     		str	r3, [r0, #4]	@ float
  15:Core/Src/filters.c ****     filter->cutoff = 1200;
  50              		.loc 1 15 5 is_stmt 1 view .LVU9
  15:Core/Src/filters.c ****     filter->cutoff = 1200;
  51              		.loc 1 15 15 is_stmt 0 view .LVU10
  52 000e C0F808C0 		str	ip, [r0, #8]	@ float
  16:Core/Src/filters.c ****     filter->g = 0.11;
  53              		.loc 1 16 5 is_stmt 1 view .LVU11
  16:Core/Src/filters.c ****     filter->g = 0.11;
  54              		.loc 1 16 20 is_stmt 0 view .LVU12
  55 0012 C160     		str	r1, [r0, #12]	@ float
  56              		.loc 1 17 5 is_stmt 1 view .LVU13
  57              		.loc 1 17 15 is_stmt 0 view .LVU14
  58 0014 0261     		str	r2, [r0, #16]	@ float
  18:Core/Src/filters.c **** }
  59              		.loc 1 18 1 view .LVU15
  60 0016 7047     		bx	lr
  61              	.L4:
  62              		.align	2
  63              	.L3:
  64 0018 00009644 		.word	1150681088
  65 001c AE47E13D 		.word	1038174126
  66 0020 6666263F 		.word	1059481190
  67              		.cfi_endproc
  68              	.LFE3:
  70              		.global	__aeabi_f2d
  71              		.global	__aeabi_dmul
  72              		.global	__aeabi_d2f
  73              		.section	.text.freq_to_g,"ax",%progbits
  74              		.align	1
  75              		.p2align 2,,3
  76              		.global	freq_to_g
  77              		.syntax unified
  78              		.thumb
  79              		.thumb_func
  81              	freq_to_g:
  82              	.LVL1:
  83              	.LFB4:
  19:Core/Src/filters.c **** 
  20:Core/Src/filters.c **** float freq_to_g(float freq) // calculate g coefficient for SVF
  21:Core/Src/filters.c **** {
  84              		.loc 1 21 1 is_stmt 1 view -0
  85              		.cfi_startproc
  86              		@ args = 0, pretend = 0, frame = 0
  87              		@ frame_needed = 0, uses_anonymous_args = 0
  22:Core/Src/filters.c **** 	return interp_lin_lut(LUT_TAN_SIZE * (PI* freq * TS), LUT_TAN_SIZE, tan_lut);
  88              		.loc 1 22 2 view .LVU17
ARM GAS  /var/folders/0z/tsy30v1j4xl4_7kw94k978ww0000gn/T//cc4iOLfX.s 			page 3


  21:Core/Src/filters.c **** 	return interp_lin_lut(LUT_TAN_SIZE * (PI* freq * TS), LUT_TAN_SIZE, tan_lut);
  89              		.loc 1 21 1 is_stmt 0 view .LVU18
  90 0000 08B5     		push	{r3, lr}
  91              		.cfi_def_cfa_offset 8
  92              		.cfi_offset 3, -8
  93              		.cfi_offset 14, -4
  21:Core/Src/filters.c **** 	return interp_lin_lut(LUT_TAN_SIZE * (PI* freq * TS), LUT_TAN_SIZE, tan_lut);
  94              		.loc 1 21 1 view .LVU19
  95 0002 10EE100A 		vmov	r0, s0
  96              		.loc 1 22 42 view .LVU20
  97 0006 FFF7FEFF 		bl	__aeabi_f2d
  98              	.LVL2:
  99              		.loc 1 22 42 view .LVU21
 100 000a 0FA3     		adr	r3, .L7+8
 101 000c D3E90023 		ldrd	r2, [r3]
 102 0010 FFF7FEFF 		bl	__aeabi_dmul
 103              	.LVL3:
 104              		.loc 1 22 49 view .LVU22
 105 0014 0EA3     		adr	r3, .L7+16
 106 0016 D3E90023 		ldrd	r2, [r3]
 107 001a FFF7FEFF 		bl	__aeabi_dmul
 108              	.LVL4:
 109              		.loc 1 22 37 view .LVU23
 110 001e 084B     		ldr	r3, .L7
 111 0020 0022     		movs	r2, #0
 112 0022 FFF7FEFF 		bl	__aeabi_dmul
 113              	.LVL5:
 114              		.loc 1 22 9 view .LVU24
 115 0026 FFF7FEFF 		bl	__aeabi_d2f
 116              	.LVL6:
  23:Core/Src/filters.c ****     //return 0;
  24:Core/Src/filters.c **** }
 117              		.loc 1 24 1 view .LVU25
 118 002a BDE80840 		pop	{r3, lr}
 119              		.cfi_restore 14
 120              		.cfi_restore 3
 121              		.cfi_def_cfa_offset 0
  22:Core/Src/filters.c ****     //return 0;
 122              		.loc 1 22 9 view .LVU26
 123 002e 00EE100A 		vmov	s0, r0
 124 0032 0449     		ldr	r1, .L7+4
 125 0034 4FF40060 		mov	r0, #2048
 126 0038 FFF7FEBF 		b	interp_lin_lut
 127              	.LVL7:
 128              	.L8:
 129 003c AFF30080 		.align	3
 130              	.L7:
 131 0040 0000A040 		.word	1084227584
 132 0044 00000000 		.word	tan_lut
 133 0048 EA2E4454 		.word	1413754602
 134 004c FB210940 		.word	1074340347
 135 0050 000000C0 		.word	-1073741824
 136 0054 F8C6F73E 		.word	1056425720
 137              		.cfi_endproc
 138              	.LFE4:
 140              		.section	.text.SVF_LP_compute,"ax",%progbits
 141              		.align	1
ARM GAS  /var/folders/0z/tsy30v1j4xl4_7kw94k978ww0000gn/T//cc4iOLfX.s 			page 4


 142              		.p2align 2,,3
 143              		.global	SVF_LP_compute
 144              		.syntax unified
 145              		.thumb
 146              		.thumb_func
 148              	SVF_LP_compute:
 149              	.LVL8:
 150              	.LFB5:
  25:Core/Src/filters.c **** 
  26:Core/Src/filters.c **** /* Zero-delay feedback SVF in LP mode*/
  27:Core/Src/filters.c **** float SVF_LP_compute(ZDFLP_t *f, float sample)
  28:Core/Src/filters.c **** {
 151              		.loc 1 28 1 is_stmt 1 view -0
 152              		.cfi_startproc
 153              		@ args = 0, pretend = 0, frame = 0
 154              		@ frame_needed = 0, uses_anonymous_args = 0
 155              		@ link register save eliminated.
  29:Core/Src/filters.c **** 	float bp, lp, hp;
 156              		.loc 1 29 2 view .LVU28
  30:Core/Src/filters.c ****     // float f->g = freq_to_g(f->cutoff);
  31:Core/Src/filters.c ****     hp = (sample - 2.0f * f->r * f->s1 - f->g * f->s1 - f->s2) / (1.0f + 2.0f * f->r * f->g + f->g 
 157              		.loc 1 31 5 view .LVU29
 158              		.loc 1 31 25 is_stmt 0 view .LVU30
 159 0000 D0ED027A 		vldr.32	s15, [r0, #8]
 160              		.loc 1 31 35 view .LVU31
 161 0004 90ED007A 		vldr.32	s14, [r0]
 162              		.loc 1 31 25 view .LVU32
 163 0008 77EEA75A 		vadd.f32	s11, s15, s15
 164              		.loc 1 31 18 view .LVU33
 165 000c F0EE406A 		vmov.f32	s13, s0
 166              		.loc 1 31 43 view .LVU34
 167 0010 D0ED047A 		vldr.32	s15, [r0, #16]
 168              		.loc 1 31 58 view .LVU35
 169 0014 90ED010A 		vldr.32	s0, [r0, #4]
 170              	.LVL9:
 171              		.loc 1 31 18 view .LVU36
 172 0018 E5EEC76A 		vfms.f32	s13, s11, s14
 173              	.LVL10:
 174              		.loc 1 31 72 view .LVU37
 175 001c B7EE006A 		vmov.f32	s12, #1.0e+0
 176 0020 A5EEA76A 		vfma.f32	s12, s11, s15
 177              		.loc 1 31 40 view .LVU38
 178 0024 E7EE676A 		vfms.f32	s13, s14, s15
 179              		.loc 1 31 93 view .LVU39
 180 0028 A7EEA76A 		vfma.f32	s12, s15, s15
 181              		.loc 1 31 55 view .LVU40
 182 002c 76EEC06A 		vsub.f32	s13, s13, s0
 183              		.loc 1 31 8 view .LVU41
 184 0030 C6EE865A 		vdiv.f32	s11, s13, s12
 185              	.LVL11:
  32:Core/Src/filters.c ****     bp = f->g * hp + f->s1;
 186              		.loc 1 32 5 is_stmt 1 view .LVU42
 187              		.loc 1 32 8 is_stmt 0 view .LVU43
 188 0034 A7EEA57A 		vfma.f32	s14, s15, s11
 189              	.LVL12:
  33:Core/Src/filters.c **** 	f->s1 = f->g * hp + bp; // state in 1st trapezoidal integrator
 190              		.loc 1 33 2 is_stmt 1 view .LVU44
ARM GAS  /var/folders/0z/tsy30v1j4xl4_7kw94k978ww0000gn/T//cc4iOLfX.s 			page 5


  34:Core/Src/filters.c **** 	lp = f->g * bp + f->s2;
 191              		.loc 1 34 5 is_stmt 0 view .LVU45
 192 0038 A7EE870A 		vfma.f32	s0, s15, s14
  33:Core/Src/filters.c **** 	f->s1 = f->g * hp + bp; // state in 1st trapezoidal integrator
 193              		.loc 1 33 20 view .LVU46
 194 003c B0EE476A 		vmov.f32	s12, s14
  35:Core/Src/filters.c **** 	f->s2 = f->g * bp + lp; // state in 2nd trapezoidal integrator
 195              		.loc 1 35 20 view .LVU47
 196 0040 F0EE406A 		vmov.f32	s13, s0
  33:Core/Src/filters.c **** 	f->s1 = f->g * hp + bp; // state in 1st trapezoidal integrator
 197              		.loc 1 33 20 view .LVU48
 198 0044 A7EEA56A 		vfma.f32	s12, s15, s11
 199              		.loc 1 35 20 view .LVU49
 200 0048 E7EE876A 		vfma.f32	s13, s15, s14
  33:Core/Src/filters.c **** 	f->s1 = f->g * hp + bp; // state in 1st trapezoidal integrator
 201              		.loc 1 33 8 view .LVU50
 202 004c 80ED006A 		vstr.32	s12, [r0]
  34:Core/Src/filters.c **** 	lp = f->g * bp + f->s2;
 203              		.loc 1 34 2 is_stmt 1 view .LVU51
 204              	.LVL13:
 205              		.loc 1 35 2 view .LVU52
 206              		.loc 1 35 8 is_stmt 0 view .LVU53
 207 0050 C0ED016A 		vstr.32	s13, [r0, #4]
  36:Core/Src/filters.c **** 	return lp;
 208              		.loc 1 36 2 is_stmt 1 view .LVU54
  37:Core/Src/filters.c **** }...
 209              		.loc 1 37 1 is_stmt 0 view .LVU55
 210 0054 7047     		bx	lr
 211              		.cfi_endproc
 212              	.LFE5:
 214              		.global	lp_R
 215              		.global	lp_L
 216 0056 00BF     		.section	.bss.lp_L,"aw",%nobits
 217              		.align	2
 220              	lp_L:
 221 0000 00000000 		.space	20
 221      00000000 
 221      00000000 
 221      00000000 
 221      00000000 
 222              		.section	.bss.lp_R,"aw",%nobits
 223              		.align	2
 226              	lp_R:
 227 0000 00000000 		.space	20
 227      00000000 
 227      00000000 
 227      00000000 
 227      00000000 
 228              		.text
 229              	.Letext0:
 230              		.file 2 "/Users/johannes/Library/Application Support/Code/User/globalStorage/bmd.stm32-for-vscode/
 231              		.file 3 "/Users/johannes/Library/Application Support/Code/User/globalStorage/bmd.stm32-for-vscode/
 232              		.file 4 "Core/Inc/filters.h"
 233              		.file 5 "Core/Inc/lut_tan.h"
 234              		.file 6 "Core/Inc/helper_functions.h"
ARM GAS  /var/folders/0z/tsy30v1j4xl4_7kw94k978ww0000gn/T//cc4iOLfX.s 			page 6

