ARM GAS  /var/folders/lp/x54gwt890xv47sdkqj1k04q40000gn/T//ccvI5lTw.s 			page 1


   1              		.cpu cortex-m4
   2              		.arch armv7e-m
   3              		.fpu fpv4-sp-d16
   4              		.eabi_attribute 27, 1
   5              		.eabi_attribute 28, 1
   6              		.eabi_attribute 20, 1
   7              		.eabi_attribute 21, 1
   8              		.eabi_attribute 23, 3
   9              		.eabi_attribute 24, 1
  10              		.eabi_attribute 25, 1
  11              		.eabi_attribute 26, 1
  12              		.eabi_attribute 30, 2
  13              		.eabi_attribute 34, 1
  14              		.eabi_attribute 18, 4
  15              		.file	"gpio.c"
  16              		.text
  17              	.Ltext0:
  18              		.cfi_sections	.debug_frame
  19              		.file 1 "Core/Src/gpio.c"
  20              		.section	.text.MX_GPIO_Init,"ax",%progbits
  21              		.align	1
  22              		.p2align 2,,3
  23              		.global	MX_GPIO_Init
  24              		.syntax unified
  25              		.thumb
  26              		.thumb_func
  28              	MX_GPIO_Init:
  29              	.LFB242:
   1:Core/Src/gpio.c **** /* USER CODE BEGIN Header */
   2:Core/Src/gpio.c **** /**
   3:Core/Src/gpio.c ****   ******************************************************************************
   4:Core/Src/gpio.c ****   * @file    gpio.c
   5:Core/Src/gpio.c ****   * @brief   This file provides code for the configuration
   6:Core/Src/gpio.c ****   *          of all used GPIO pins.
   7:Core/Src/gpio.c ****   ******************************************************************************
   8:Core/Src/gpio.c ****   * @attention
   9:Core/Src/gpio.c ****   *
  10:Core/Src/gpio.c ****   * Copyright (c) 2023 STMicroelectronics.
  11:Core/Src/gpio.c ****   * All rights reserved.
  12:Core/Src/gpio.c ****   *
  13:Core/Src/gpio.c ****   * This software is licensed under terms that can be found in the LICENSE file
  14:Core/Src/gpio.c ****   * in the root directory of this software component.
  15:Core/Src/gpio.c ****   * If no LICENSE file comes with this software, it is provided AS-IS.
  16:Core/Src/gpio.c ****   *
  17:Core/Src/gpio.c ****   ******************************************************************************
  18:Core/Src/gpio.c ****   */
  19:Core/Src/gpio.c **** /* USER CODE END Header */
  20:Core/Src/gpio.c **** 
  21:Core/Src/gpio.c **** /* Includes ------------------------------------------------------------------*/
  22:Core/Src/gpio.c **** #include "gpio.h"
  23:Core/Src/gpio.c **** 
  24:Core/Src/gpio.c **** /* USER CODE BEGIN 0 */
  25:Core/Src/gpio.c **** #include "st7789v.h"
  26:Core/Src/gpio.c **** /* USER CODE END 0 */
  27:Core/Src/gpio.c **** 
  28:Core/Src/gpio.c **** /*----------------------------------------------------------------------------*/
  29:Core/Src/gpio.c **** /* Configure GPIO                                                             */
ARM GAS  /var/folders/lp/x54gwt890xv47sdkqj1k04q40000gn/T//ccvI5lTw.s 			page 2


  30:Core/Src/gpio.c **** /*----------------------------------------------------------------------------*/
  31:Core/Src/gpio.c **** /* USER CODE BEGIN 1 */
  32:Core/Src/gpio.c **** 
  33:Core/Src/gpio.c **** /* USER CODE END 1 */
  34:Core/Src/gpio.c **** 
  35:Core/Src/gpio.c **** /** Configure pins as
  36:Core/Src/gpio.c ****         * Analog
  37:Core/Src/gpio.c ****         * Input
  38:Core/Src/gpio.c ****         * Output
  39:Core/Src/gpio.c ****         * EVENT_OUT
  40:Core/Src/gpio.c ****         * EXTI
  41:Core/Src/gpio.c ****      PC3   ------> I2S2_SD
  42:Core/Src/gpio.c ****      PB10   ------> I2S2_CK
  43:Core/Src/gpio.c **** */
  44:Core/Src/gpio.c **** void MX_GPIO_Init(void)
  45:Core/Src/gpio.c **** {
  30              		.loc 1 45 1 view -0
  31              		.cfi_startproc
  32              		@ args = 0, pretend = 0, frame = 48
  33              		@ frame_needed = 0, uses_anonymous_args = 0
  46:Core/Src/gpio.c **** 
  47:Core/Src/gpio.c ****   GPIO_InitTypeDef GPIO_InitStruct = {0};
  34              		.loc 1 47 3 view .LVU1
  45:Core/Src/gpio.c **** 
  35              		.loc 1 45 1 is_stmt 0 view .LVU2
  36 0000 2DE9F04F 		push	{r4, r5, r6, r7, r8, r9, r10, fp, lr}
  37              		.cfi_def_cfa_offset 36
  38              		.cfi_offset 4, -36
  39              		.cfi_offset 5, -32
  40              		.cfi_offset 6, -28
  41              		.cfi_offset 7, -24
  42              		.cfi_offset 8, -20
  43              		.cfi_offset 9, -16
  44              		.cfi_offset 10, -12
  45              		.cfi_offset 11, -8
  46              		.cfi_offset 14, -4
  47              		.loc 1 47 20 view .LVU3
  48 0004 0024     		movs	r4, #0
  45:Core/Src/gpio.c **** 
  49              		.loc 1 45 1 view .LVU4
  50 0006 8DB0     		sub	sp, sp, #52
  51              		.cfi_def_cfa_offset 88
  52              		.loc 1 47 20 view .LVU5
  53 0008 CDE90644 		strd	r4, r4, [sp, #24]
  54 000c CDE90844 		strd	r4, r4, [sp, #32]
  55              	.LBB2:
  48:Core/Src/gpio.c **** 
  49:Core/Src/gpio.c ****   /* GPIO Ports Clock Enable */
  50:Core/Src/gpio.c ****   __HAL_RCC_GPIOE_CLK_ENABLE();
  56              		.loc 1 50 3 view .LVU6
  57 0010 784B     		ldr	r3, .L4
  58 0012 0094     		str	r4, [sp]
  59              	.LBE2:
  47:Core/Src/gpio.c **** 
  60              		.loc 1 47 20 view .LVU7
  61 0014 0A94     		str	r4, [sp, #40]
  62              		.loc 1 50 3 is_stmt 1 view .LVU8
ARM GAS  /var/folders/lp/x54gwt890xv47sdkqj1k04q40000gn/T//ccvI5lTw.s 			page 3


  63              	.LBB3:
  64              		.loc 1 50 3 view .LVU9
  65              		.loc 1 50 3 view .LVU10
  66 0016 1A6B     		ldr	r2, [r3, #48]
  67              	.LBE3:
  51:Core/Src/gpio.c ****   __HAL_RCC_GPIOC_CLK_ENABLE();
  52:Core/Src/gpio.c ****   __HAL_RCC_GPIOH_CLK_ENABLE();
  53:Core/Src/gpio.c ****   __HAL_RCC_GPIOA_CLK_ENABLE();
  54:Core/Src/gpio.c ****   __HAL_RCC_GPIOB_CLK_ENABLE();
  55:Core/Src/gpio.c ****   __HAL_RCC_GPIOD_CLK_ENABLE();
  56:Core/Src/gpio.c **** 
  57:Core/Src/gpio.c ****   /*Configure GPIO pin Output Level */
  58:Core/Src/gpio.c ****   HAL_GPIO_WritePin(CS_I2C_SPI_GPIO_Port, CS_I2C_SPI_Pin, GPIO_PIN_RESET);
  68              		.loc 1 58 3 is_stmt 0 view .LVU11
  69 0018 774F     		ldr	r7, .L4+4
  59:Core/Src/gpio.c **** 
  60:Core/Src/gpio.c ****   /*Configure GPIO pin Output Level */
  61:Core/Src/gpio.c ****   HAL_GPIO_WritePin(OTG_FS_PowerSwitchOn_GPIO_Port, OTG_FS_PowerSwitchOn_Pin, GPIO_PIN_SET);
  70              		.loc 1 61 3 view .LVU12
  71 001a DFF8E481 		ldr	r8, .L4+12
  62:Core/Src/gpio.c **** 
  63:Core/Src/gpio.c ****   /*Configure GPIO pin Output Level */
  64:Core/Src/gpio.c ****   HAL_GPIO_WritePin(GPIOD, LD4_Pin|LD3_Pin|LD5_Pin|LD6_Pin
  72              		.loc 1 64 3 view .LVU13
  73 001e DFF8E491 		ldr	r9, .L4+16
  65:Core/Src/gpio.c ****                           |Audio_RST_Pin, GPIO_PIN_RESET);
  66:Core/Src/gpio.c **** 
  67:Core/Src/gpio.c ****   /*Configure GPIO pin Output Level */
  68:Core/Src/gpio.c ****   HAL_GPIO_WritePin(CS_I2C_SPI_GPIO_Port, ST7789V_DC_PIN | ST7789V_RST_PIN, GPIO_PIN_RESET);
  69:Core/Src/gpio.c **** 
  70:Core/Src/gpio.c ****   /*Configure GPIO pin Output Level */
  71:Core/Src/gpio.c ****   HAL_GPIO_WritePin(ST7789V_CS_PORT, ST7789V_CS_PIN, GPIO_PIN_SET);
  74              		.loc 1 71 3 view .LVU14
  75 0022 764E     		ldr	r6, .L4+8
  76              	.LBB4:
  50:Core/Src/gpio.c ****   __HAL_RCC_GPIOC_CLK_ENABLE();
  77              		.loc 1 50 3 view .LVU15
  78 0024 42F01002 		orr	r2, r2, #16
  79 0028 1A63     		str	r2, [r3, #48]
  50:Core/Src/gpio.c ****   __HAL_RCC_GPIOC_CLK_ENABLE();
  80              		.loc 1 50 3 is_stmt 1 view .LVU16
  81 002a 1A6B     		ldr	r2, [r3, #48]
  82 002c 02F01002 		and	r2, r2, #16
  83 0030 0092     		str	r2, [sp]
  50:Core/Src/gpio.c ****   __HAL_RCC_GPIOC_CLK_ENABLE();
  84              		.loc 1 50 3 view .LVU17
  85 0032 009A     		ldr	r2, [sp]
  86              	.LBE4:
  50:Core/Src/gpio.c ****   __HAL_RCC_GPIOC_CLK_ENABLE();
  87              		.loc 1 50 3 view .LVU18
  51:Core/Src/gpio.c ****   __HAL_RCC_GPIOH_CLK_ENABLE();
  88              		.loc 1 51 3 view .LVU19
  89              	.LBB5:
  51:Core/Src/gpio.c ****   __HAL_RCC_GPIOH_CLK_ENABLE();
  90              		.loc 1 51 3 view .LVU20
  91 0034 0194     		str	r4, [sp, #4]
  51:Core/Src/gpio.c ****   __HAL_RCC_GPIOH_CLK_ENABLE();
ARM GAS  /var/folders/lp/x54gwt890xv47sdkqj1k04q40000gn/T//ccvI5lTw.s 			page 4


  92              		.loc 1 51 3 view .LVU21
  93 0036 1A6B     		ldr	r2, [r3, #48]
  94 0038 42F00402 		orr	r2, r2, #4
  95 003c 1A63     		str	r2, [r3, #48]
  51:Core/Src/gpio.c ****   __HAL_RCC_GPIOH_CLK_ENABLE();
  96              		.loc 1 51 3 view .LVU22
  97 003e 1A6B     		ldr	r2, [r3, #48]
  98 0040 02F00402 		and	r2, r2, #4
  99 0044 0192     		str	r2, [sp, #4]
  51:Core/Src/gpio.c ****   __HAL_RCC_GPIOH_CLK_ENABLE();
 100              		.loc 1 51 3 view .LVU23
 101 0046 019A     		ldr	r2, [sp, #4]
 102              	.LBE5:
  51:Core/Src/gpio.c ****   __HAL_RCC_GPIOH_CLK_ENABLE();
 103              		.loc 1 51 3 view .LVU24
  52:Core/Src/gpio.c ****   __HAL_RCC_GPIOA_CLK_ENABLE();
 104              		.loc 1 52 3 view .LVU25
 105              	.LBB6:
  52:Core/Src/gpio.c ****   __HAL_RCC_GPIOA_CLK_ENABLE();
 106              		.loc 1 52 3 view .LVU26
 107 0048 0294     		str	r4, [sp, #8]
  52:Core/Src/gpio.c ****   __HAL_RCC_GPIOA_CLK_ENABLE();
 108              		.loc 1 52 3 view .LVU27
 109 004a 1A6B     		ldr	r2, [r3, #48]
 110 004c 42F08002 		orr	r2, r2, #128
 111 0050 1A63     		str	r2, [r3, #48]
  52:Core/Src/gpio.c ****   __HAL_RCC_GPIOA_CLK_ENABLE();
 112              		.loc 1 52 3 view .LVU28
 113 0052 1A6B     		ldr	r2, [r3, #48]
 114 0054 02F08002 		and	r2, r2, #128
 115 0058 0292     		str	r2, [sp, #8]
  52:Core/Src/gpio.c ****   __HAL_RCC_GPIOA_CLK_ENABLE();
 116              		.loc 1 52 3 view .LVU29
 117 005a 029A     		ldr	r2, [sp, #8]
 118              	.LBE6:
  52:Core/Src/gpio.c ****   __HAL_RCC_GPIOA_CLK_ENABLE();
 119              		.loc 1 52 3 view .LVU30
  53:Core/Src/gpio.c ****   __HAL_RCC_GPIOB_CLK_ENABLE();
 120              		.loc 1 53 3 view .LVU31
 121              	.LBB7:
  53:Core/Src/gpio.c ****   __HAL_RCC_GPIOB_CLK_ENABLE();
 122              		.loc 1 53 3 view .LVU32
 123 005c 0394     		str	r4, [sp, #12]
  53:Core/Src/gpio.c ****   __HAL_RCC_GPIOB_CLK_ENABLE();
 124              		.loc 1 53 3 view .LVU33
 125 005e 1A6B     		ldr	r2, [r3, #48]
 126 0060 42F00102 		orr	r2, r2, #1
 127 0064 1A63     		str	r2, [r3, #48]
  53:Core/Src/gpio.c ****   __HAL_RCC_GPIOB_CLK_ENABLE();
 128              		.loc 1 53 3 view .LVU34
 129 0066 1A6B     		ldr	r2, [r3, #48]
 130 0068 02F00102 		and	r2, r2, #1
 131 006c 0392     		str	r2, [sp, #12]
  53:Core/Src/gpio.c ****   __HAL_RCC_GPIOB_CLK_ENABLE();
 132              		.loc 1 53 3 view .LVU35
 133 006e 039A     		ldr	r2, [sp, #12]
 134              	.LBE7:
ARM GAS  /var/folders/lp/x54gwt890xv47sdkqj1k04q40000gn/T//ccvI5lTw.s 			page 5


  53:Core/Src/gpio.c ****   __HAL_RCC_GPIOB_CLK_ENABLE();
 135              		.loc 1 53 3 view .LVU36
  54:Core/Src/gpio.c ****   __HAL_RCC_GPIOD_CLK_ENABLE();
 136              		.loc 1 54 3 view .LVU37
 137              	.LBB8:
  54:Core/Src/gpio.c ****   __HAL_RCC_GPIOD_CLK_ENABLE();
 138              		.loc 1 54 3 view .LVU38
 139 0070 0494     		str	r4, [sp, #16]
  54:Core/Src/gpio.c ****   __HAL_RCC_GPIOD_CLK_ENABLE();
 140              		.loc 1 54 3 view .LVU39
 141 0072 1A6B     		ldr	r2, [r3, #48]
 142 0074 42F00202 		orr	r2, r2, #2
 143 0078 1A63     		str	r2, [r3, #48]
  54:Core/Src/gpio.c ****   __HAL_RCC_GPIOD_CLK_ENABLE();
 144              		.loc 1 54 3 view .LVU40
 145 007a 1A6B     		ldr	r2, [r3, #48]
 146 007c 02F00202 		and	r2, r2, #2
 147 0080 0492     		str	r2, [sp, #16]
  54:Core/Src/gpio.c ****   __HAL_RCC_GPIOD_CLK_ENABLE();
 148              		.loc 1 54 3 view .LVU41
 149 0082 049A     		ldr	r2, [sp, #16]
 150              	.LBE8:
  54:Core/Src/gpio.c ****   __HAL_RCC_GPIOD_CLK_ENABLE();
 151              		.loc 1 54 3 view .LVU42
  55:Core/Src/gpio.c **** 
 152              		.loc 1 55 3 view .LVU43
 153              	.LBB9:
  55:Core/Src/gpio.c **** 
 154              		.loc 1 55 3 view .LVU44
 155 0084 0594     		str	r4, [sp, #20]
  55:Core/Src/gpio.c **** 
 156              		.loc 1 55 3 view .LVU45
 157 0086 1A6B     		ldr	r2, [r3, #48]
 158 0088 42F00802 		orr	r2, r2, #8
 159 008c 1A63     		str	r2, [r3, #48]
  55:Core/Src/gpio.c **** 
 160              		.loc 1 55 3 view .LVU46
 161 008e 1B6B     		ldr	r3, [r3, #48]
 162 0090 03F00803 		and	r3, r3, #8
 163 0094 0593     		str	r3, [sp, #20]
  55:Core/Src/gpio.c **** 
 164              		.loc 1 55 3 view .LVU47
 165              	.LBE9:
  58:Core/Src/gpio.c **** 
 166              		.loc 1 58 3 is_stmt 0 view .LVU48
 167 0096 2246     		mov	r2, r4
 168 0098 3846     		mov	r0, r7
 169 009a 0821     		movs	r1, #8
 170              	.LBB10:
  55:Core/Src/gpio.c **** 
 171              		.loc 1 55 3 view .LVU49
 172 009c 059B     		ldr	r3, [sp, #20]
 173              	.LBE10:
  55:Core/Src/gpio.c **** 
 174              		.loc 1 55 3 is_stmt 1 view .LVU50
  58:Core/Src/gpio.c **** 
 175              		.loc 1 58 3 view .LVU51
ARM GAS  /var/folders/lp/x54gwt890xv47sdkqj1k04q40000gn/T//ccvI5lTw.s 			page 6


 176 009e FFF7FEFF 		bl	HAL_GPIO_WritePin
 177              	.LVL0:
  61:Core/Src/gpio.c **** 
 178              		.loc 1 61 3 view .LVU52
 179 00a2 0122     		movs	r2, #1
 180 00a4 1146     		mov	r1, r2
 181 00a6 4046     		mov	r0, r8
 182 00a8 FFF7FEFF 		bl	HAL_GPIO_WritePin
 183              	.LVL1:
  64:Core/Src/gpio.c ****                           |Audio_RST_Pin, GPIO_PIN_RESET);
 184              		.loc 1 64 3 view .LVU53
 185 00ac 2246     		mov	r2, r4
 186 00ae 4846     		mov	r0, r9
 187 00b0 4FF21001 		movw	r1, #61456
 188 00b4 FFF7FEFF 		bl	HAL_GPIO_WritePin
 189              	.LVL2:
  68:Core/Src/gpio.c **** 
 190              		.loc 1 68 3 view .LVU54
 191 00b8 2246     		mov	r2, r4
 192 00ba 3846     		mov	r0, r7
 193 00bc 0A21     		movs	r1, #10
 194 00be FFF7FEFF 		bl	HAL_GPIO_WritePin
 195              	.LVL3:
 196              		.loc 1 71 3 view .LVU55
 197 00c2 0122     		movs	r2, #1
 198 00c4 3046     		mov	r0, r6
 199 00c6 0421     		movs	r1, #4
 200 00c8 FFF7FEFF 		bl	HAL_GPIO_WritePin
 201              	.LVL4:
  72:Core/Src/gpio.c **** 
  73:Core/Src/gpio.c ****   /*Configure GPIO pins : PAPin PAPin */
  74:Core/Src/gpio.c ****   GPIO_InitStruct.Pin = ST7789V_DC_PIN | ST7789V_RST_PIN;
 202              		.loc 1 74 3 view .LVU56
  75:Core/Src/gpio.c ****   GPIO_InitStruct.Mode = GPIO_MODE_OUTPUT_PP;
 203              		.loc 1 75 24 is_stmt 0 view .LVU57
 204 00cc 0125     		movs	r5, #1
 205 00ce 0A23     		movs	r3, #10
  76:Core/Src/gpio.c ****   GPIO_InitStruct.Pull = GPIO_NOPULL;
  77:Core/Src/gpio.c ****   GPIO_InitStruct.Speed = GPIO_SPEED_FREQ_LOW;
  78:Core/Src/gpio.c ****   HAL_GPIO_Init(GPIOA, &GPIO_InitStruct);
 206              		.loc 1 78 3 view .LVU58
 207 00d0 06A9     		add	r1, sp, #24
 208 00d2 3046     		mov	r0, r6
  75:Core/Src/gpio.c ****   GPIO_InitStruct.Mode = GPIO_MODE_OUTPUT_PP;
 209              		.loc 1 75 24 view .LVU59
 210 00d4 CDE90635 		strd	r3, r5, [sp, #24]
  76:Core/Src/gpio.c ****   GPIO_InitStruct.Pull = GPIO_NOPULL;
 211              		.loc 1 76 3 is_stmt 1 view .LVU60
  77:Core/Src/gpio.c ****   HAL_GPIO_Init(GPIOA, &GPIO_InitStruct);
 212              		.loc 1 77 3 view .LVU61
 213              		.loc 1 78 3 view .LVU62
  77:Core/Src/gpio.c ****   HAL_GPIO_Init(GPIOA, &GPIO_InitStruct);
 214              		.loc 1 77 25 is_stmt 0 view .LVU63
 215 00d8 CDE90844 		strd	r4, r4, [sp, #32]
 216              		.loc 1 78 3 view .LVU64
 217 00dc FFF7FEFF 		bl	HAL_GPIO_Init
 218              	.LVL5:
ARM GAS  /var/folders/lp/x54gwt890xv47sdkqj1k04q40000gn/T//ccvI5lTw.s 			page 7


  79:Core/Src/gpio.c **** 
  80:Core/Src/gpio.c ****   /*Configure GPIO pin : PtPin */
  81:Core/Src/gpio.c ****   GPIO_InitStruct.Pin = ST7789V_CS_PIN;
 219              		.loc 1 81 3 is_stmt 1 view .LVU65
 220              		.loc 1 81 23 is_stmt 0 view .LVU66
 221 00e0 0423     		movs	r3, #4
  82:Core/Src/gpio.c ****   GPIO_InitStruct.Mode = GPIO_MODE_OUTPUT_PP;
  83:Core/Src/gpio.c ****   GPIO_InitStruct.Pull = GPIO_NOPULL;
  84:Core/Src/gpio.c ****   GPIO_InitStruct.Speed = GPIO_SPEED_FREQ_LOW;
  85:Core/Src/gpio.c ****   HAL_GPIO_Init(ST7789V_CS_PORT, &GPIO_InitStruct);
 222              		.loc 1 85 3 view .LVU67
 223 00e2 06A9     		add	r1, sp, #24
 224 00e4 3046     		mov	r0, r6
  81:Core/Src/gpio.c ****   GPIO_InitStruct.Mode = GPIO_MODE_OUTPUT_PP;
 225              		.loc 1 81 23 view .LVU68
 226 00e6 0693     		str	r3, [sp, #24]
  82:Core/Src/gpio.c ****   GPIO_InitStruct.Mode = GPIO_MODE_OUTPUT_PP;
 227              		.loc 1 82 3 is_stmt 1 view .LVU69
  83:Core/Src/gpio.c ****   GPIO_InitStruct.Speed = GPIO_SPEED_FREQ_LOW;
 228              		.loc 1 83 3 view .LVU70
  84:Core/Src/gpio.c ****   HAL_GPIO_Init(ST7789V_CS_PORT, &GPIO_InitStruct);
 229              		.loc 1 84 3 view .LVU71
 230              		.loc 1 85 3 view .LVU72
  86:Core/Src/gpio.c **** 
  87:Core/Src/gpio.c ****   /*Configure GPIO pin : PtPin */
  88:Core/Src/gpio.c ****   GPIO_InitStruct.Pin = CS_I2C_SPI_Pin;
 231              		.loc 1 88 23 is_stmt 0 view .LVU73
 232 00e8 4FF0080A 		mov	r10, #8
  83:Core/Src/gpio.c ****   GPIO_InitStruct.Speed = GPIO_SPEED_FREQ_LOW;
 233              		.loc 1 83 24 view .LVU74
 234 00ec CDE90754 		strd	r5, r4, [sp, #28]
  84:Core/Src/gpio.c ****   HAL_GPIO_Init(ST7789V_CS_PORT, &GPIO_InitStruct);
 235              		.loc 1 84 25 view .LVU75
 236 00f0 0994     		str	r4, [sp, #36]
  85:Core/Src/gpio.c **** 
 237              		.loc 1 85 3 view .LVU76
 238 00f2 FFF7FEFF 		bl	HAL_GPIO_Init
 239              	.LVL6:
 240              		.loc 1 88 3 is_stmt 1 view .LVU77
  89:Core/Src/gpio.c ****   GPIO_InitStruct.Mode = GPIO_MODE_OUTPUT_PP;
  90:Core/Src/gpio.c ****   GPIO_InitStruct.Pull = GPIO_NOPULL;
  91:Core/Src/gpio.c ****   GPIO_InitStruct.Speed = GPIO_SPEED_FREQ_LOW;
  92:Core/Src/gpio.c ****   HAL_GPIO_Init(CS_I2C_SPI_GPIO_Port, &GPIO_InitStruct);
 241              		.loc 1 92 3 is_stmt 0 view .LVU78
 242 00f6 06A9     		add	r1, sp, #24
 243 00f8 3846     		mov	r0, r7
  88:Core/Src/gpio.c ****   GPIO_InitStruct.Mode = GPIO_MODE_OUTPUT_PP;
 244              		.loc 1 88 23 view .LVU79
 245 00fa CDF818A0 		str	r10, [sp, #24]
  89:Core/Src/gpio.c ****   GPIO_InitStruct.Mode = GPIO_MODE_OUTPUT_PP;
 246              		.loc 1 89 3 is_stmt 1 view .LVU80
  90:Core/Src/gpio.c ****   GPIO_InitStruct.Speed = GPIO_SPEED_FREQ_LOW;
 247              		.loc 1 90 3 view .LVU81
  91:Core/Src/gpio.c ****   HAL_GPIO_Init(CS_I2C_SPI_GPIO_Port, &GPIO_InitStruct);
 248              		.loc 1 91 3 view .LVU82
 249              		.loc 1 92 3 view .LVU83
  90:Core/Src/gpio.c ****   GPIO_InitStruct.Speed = GPIO_SPEED_FREQ_LOW;
ARM GAS  /var/folders/lp/x54gwt890xv47sdkqj1k04q40000gn/T//ccvI5lTw.s 			page 8


 250              		.loc 1 90 24 is_stmt 0 view .LVU84
 251 00fe CDE90754 		strd	r5, r4, [sp, #28]
  91:Core/Src/gpio.c ****   HAL_GPIO_Init(CS_I2C_SPI_GPIO_Port, &GPIO_InitStruct);
 252              		.loc 1 91 25 view .LVU85
 253 0102 0994     		str	r4, [sp, #36]
 254              		.loc 1 92 3 view .LVU86
 255 0104 FFF7FEFF 		bl	HAL_GPIO_Init
 256              	.LVL7:
  93:Core/Src/gpio.c **** 
  94:Core/Src/gpio.c ****   /*Configure GPIO pin : PtPin */
  95:Core/Src/gpio.c ****   GPIO_InitStruct.Pin = OTG_FS_PowerSwitchOn_Pin;
 257              		.loc 1 95 3 is_stmt 1 view .LVU87
  96:Core/Src/gpio.c ****   GPIO_InitStruct.Mode = GPIO_MODE_OUTPUT_PP;
  97:Core/Src/gpio.c ****   GPIO_InitStruct.Pull = GPIO_NOPULL;
  98:Core/Src/gpio.c ****   GPIO_InitStruct.Speed = GPIO_SPEED_FREQ_LOW;
  99:Core/Src/gpio.c ****   HAL_GPIO_Init(OTG_FS_PowerSwitchOn_GPIO_Port, &GPIO_InitStruct);
 258              		.loc 1 99 3 is_stmt 0 view .LVU88
 259 0108 06A9     		add	r1, sp, #24
 260 010a 4046     		mov	r0, r8
 100:Core/Src/gpio.c **** 
 101:Core/Src/gpio.c ****   /*Configure GPIO pin : PtPin */
 102:Core/Src/gpio.c ****   GPIO_InitStruct.Pin = PDM_OUT_Pin;
 103:Core/Src/gpio.c ****   GPIO_InitStruct.Mode = GPIO_MODE_AF_PP;
 261              		.loc 1 103 24 view .LVU89
 262 010c 4FF0020B 		mov	fp, #2
  96:Core/Src/gpio.c ****   GPIO_InitStruct.Mode = GPIO_MODE_OUTPUT_PP;
 263              		.loc 1 96 24 view .LVU90
 264 0110 CDE90655 		strd	r5, r5, [sp, #24]
  97:Core/Src/gpio.c ****   GPIO_InitStruct.Speed = GPIO_SPEED_FREQ_LOW;
 265              		.loc 1 97 3 is_stmt 1 view .LVU91
  98:Core/Src/gpio.c ****   HAL_GPIO_Init(OTG_FS_PowerSwitchOn_GPIO_Port, &GPIO_InitStruct);
 266              		.loc 1 98 25 is_stmt 0 view .LVU92
 267 0114 CDE90844 		strd	r4, r4, [sp, #32]
  99:Core/Src/gpio.c **** 
 268              		.loc 1 99 3 is_stmt 1 view .LVU93
 269 0118 FFF7FEFF 		bl	HAL_GPIO_Init
 270              	.LVL8:
 102:Core/Src/gpio.c ****   GPIO_InitStruct.Mode = GPIO_MODE_AF_PP;
 271              		.loc 1 102 3 view .LVU94
 102:Core/Src/gpio.c ****   GPIO_InitStruct.Mode = GPIO_MODE_AF_PP;
 272              		.loc 1 102 23 is_stmt 0 view .LVU95
 273 011c CDF818A0 		str	r10, [sp, #24]
 274              		.loc 1 103 3 is_stmt 1 view .LVU96
 104:Core/Src/gpio.c ****   GPIO_InitStruct.Pull = GPIO_NOPULL;
 105:Core/Src/gpio.c ****   GPIO_InitStruct.Speed = GPIO_SPEED_FREQ_LOW;
 106:Core/Src/gpio.c ****   GPIO_InitStruct.Alternate = GPIO_AF5_SPI2;
 107:Core/Src/gpio.c ****   HAL_GPIO_Init(PDM_OUT_GPIO_Port, &GPIO_InitStruct);
 275              		.loc 1 107 3 is_stmt 0 view .LVU97
 276 0120 4046     		mov	r0, r8
 106:Core/Src/gpio.c ****   HAL_GPIO_Init(PDM_OUT_GPIO_Port, &GPIO_InitStruct);
 277              		.loc 1 106 29 view .LVU98
 278 0122 4FF0050A 		mov	r10, #5
 279              		.loc 1 107 3 view .LVU99
 280 0126 06A9     		add	r1, sp, #24
 108:Core/Src/gpio.c **** 
 109:Core/Src/gpio.c ****   /*Configure GPIO pin : PtPin */
 110:Core/Src/gpio.c ****   GPIO_InitStruct.Pin = B1_Pin;
ARM GAS  /var/folders/lp/x54gwt890xv47sdkqj1k04q40000gn/T//ccvI5lTw.s 			page 9


 111:Core/Src/gpio.c ****   GPIO_InitStruct.Mode = GPIO_MODE_EVT_RISING;
 112:Core/Src/gpio.c ****   GPIO_InitStruct.Pull = GPIO_NOPULL;
 113:Core/Src/gpio.c ****   HAL_GPIO_Init(B1_GPIO_Port, &GPIO_InitStruct);
 114:Core/Src/gpio.c **** 
 115:Core/Src/gpio.c ****   /*Configure GPIO pin : PtPin */
 116:Core/Src/gpio.c ****   GPIO_InitStruct.Pin = BOOT1_Pin;
 117:Core/Src/gpio.c ****   GPIO_InitStruct.Mode = GPIO_MODE_INPUT;
 118:Core/Src/gpio.c ****   GPIO_InitStruct.Pull = GPIO_NOPULL;
 119:Core/Src/gpio.c ****   HAL_GPIO_Init(BOOT1_GPIO_Port, &GPIO_InitStruct);
 281              		.loc 1 119 3 view .LVU100
 282 0128 A8F58068 		sub	r8, r8, #1024
 105:Core/Src/gpio.c ****   GPIO_InitStruct.Alternate = GPIO_AF5_SPI2;
 283              		.loc 1 105 25 view .LVU101
 284 012c CDE90844 		strd	r4, r4, [sp, #32]
 103:Core/Src/gpio.c ****   GPIO_InitStruct.Pull = GPIO_NOPULL;
 285              		.loc 1 103 24 view .LVU102
 286 0130 CDF81CB0 		str	fp, [sp, #28]
 104:Core/Src/gpio.c ****   GPIO_InitStruct.Speed = GPIO_SPEED_FREQ_LOW;
 287              		.loc 1 104 3 is_stmt 1 view .LVU103
 105:Core/Src/gpio.c ****   GPIO_InitStruct.Alternate = GPIO_AF5_SPI2;
 288              		.loc 1 105 3 view .LVU104
 106:Core/Src/gpio.c ****   HAL_GPIO_Init(PDM_OUT_GPIO_Port, &GPIO_InitStruct);
 289              		.loc 1 106 3 view .LVU105
 106:Core/Src/gpio.c ****   HAL_GPIO_Init(PDM_OUT_GPIO_Port, &GPIO_InitStruct);
 290              		.loc 1 106 29 is_stmt 0 view .LVU106
 291 0134 CDF828A0 		str	r10, [sp, #40]
 107:Core/Src/gpio.c **** 
 292              		.loc 1 107 3 is_stmt 1 view .LVU107
 293 0138 FFF7FEFF 		bl	HAL_GPIO_Init
 294              	.LVL9:
 110:Core/Src/gpio.c ****   GPIO_InitStruct.Mode = GPIO_MODE_EVT_RISING;
 295              		.loc 1 110 3 view .LVU108
 111:Core/Src/gpio.c ****   GPIO_InitStruct.Pull = GPIO_NOPULL;
 296              		.loc 1 111 3 view .LVU109
 113:Core/Src/gpio.c **** 
 297              		.loc 1 113 3 is_stmt 0 view .LVU110
 298 013c 06A9     		add	r1, sp, #24
 299 013e 3046     		mov	r0, r6
 110:Core/Src/gpio.c ****   GPIO_InitStruct.Mode = GPIO_MODE_EVT_RISING;
 300              		.loc 1 110 23 view .LVU111
 301 0140 0122     		movs	r2, #1
 302 0142 4FF49013 		mov	r3, #1179648
 303 0146 CDE90623 		strd	r2, [sp, #24]
 112:Core/Src/gpio.c ****   HAL_GPIO_Init(B1_GPIO_Port, &GPIO_InitStruct);
 304              		.loc 1 112 3 is_stmt 1 view .LVU112
 113:Core/Src/gpio.c **** 
 305              		.loc 1 113 3 view .LVU113
 112:Core/Src/gpio.c ****   HAL_GPIO_Init(B1_GPIO_Port, &GPIO_InitStruct);
 306              		.loc 1 112 24 is_stmt 0 view .LVU114
 307 014a 0894     		str	r4, [sp, #32]
 113:Core/Src/gpio.c **** 
 308              		.loc 1 113 3 view .LVU115
 309 014c FFF7FEFF 		bl	HAL_GPIO_Init
 310              	.LVL10:
 116:Core/Src/gpio.c ****   GPIO_InitStruct.Mode = GPIO_MODE_INPUT;
 311              		.loc 1 116 3 is_stmt 1 view .LVU116
 117:Core/Src/gpio.c ****   GPIO_InitStruct.Pull = GPIO_NOPULL;
ARM GAS  /var/folders/lp/x54gwt890xv47sdkqj1k04q40000gn/T//ccvI5lTw.s 			page 10


 312              		.loc 1 117 3 view .LVU117
 116:Core/Src/gpio.c ****   GPIO_InitStruct.Mode = GPIO_MODE_INPUT;
 313              		.loc 1 116 23 is_stmt 0 view .LVU118
 314 0150 0422     		movs	r2, #4
 315              		.loc 1 119 3 view .LVU119
 316 0152 06A9     		add	r1, sp, #24
 317 0154 4046     		mov	r0, r8
 116:Core/Src/gpio.c ****   GPIO_InitStruct.Mode = GPIO_MODE_INPUT;
 318              		.loc 1 116 23 view .LVU120
 319 0156 0023     		movs	r3, #0
 320 0158 CDE90623 		strd	r2, [sp, #24]
 118:Core/Src/gpio.c ****   HAL_GPIO_Init(BOOT1_GPIO_Port, &GPIO_InitStruct);
 321              		.loc 1 118 3 is_stmt 1 view .LVU121
 322              		.loc 1 119 3 view .LVU122
 118:Core/Src/gpio.c ****   HAL_GPIO_Init(BOOT1_GPIO_Port, &GPIO_InitStruct);
 323              		.loc 1 118 24 is_stmt 0 view .LVU123
 324 015c 0894     		str	r4, [sp, #32]
 325              		.loc 1 119 3 view .LVU124
 326 015e FFF7FEFF 		bl	HAL_GPIO_Init
 327              	.LVL11:
 120:Core/Src/gpio.c **** 
 121:Core/Src/gpio.c ****   /*Configure GPIO pin : PtPin */
 122:Core/Src/gpio.c ****   GPIO_InitStruct.Pin = CLK_IN_Pin;
 328              		.loc 1 122 3 is_stmt 1 view .LVU125
 329              		.loc 1 122 23 is_stmt 0 view .LVU126
 330 0162 4FF48063 		mov	r3, #1024
 123:Core/Src/gpio.c ****   GPIO_InitStruct.Mode = GPIO_MODE_AF_PP;
 124:Core/Src/gpio.c ****   GPIO_InitStruct.Pull = GPIO_NOPULL;
 125:Core/Src/gpio.c ****   GPIO_InitStruct.Speed = GPIO_SPEED_FREQ_LOW;
 126:Core/Src/gpio.c ****   GPIO_InitStruct.Alternate = GPIO_AF5_SPI2;
 127:Core/Src/gpio.c ****   HAL_GPIO_Init(CLK_IN_GPIO_Port, &GPIO_InitStruct);
 331              		.loc 1 127 3 view .LVU127
 332 0166 06A9     		add	r1, sp, #24
 333 0168 4046     		mov	r0, r8
 122:Core/Src/gpio.c ****   GPIO_InitStruct.Mode = GPIO_MODE_AF_PP;
 334              		.loc 1 122 23 view .LVU128
 335 016a 0693     		str	r3, [sp, #24]
 123:Core/Src/gpio.c ****   GPIO_InitStruct.Mode = GPIO_MODE_AF_PP;
 336              		.loc 1 123 3 is_stmt 1 view .LVU129
 124:Core/Src/gpio.c ****   GPIO_InitStruct.Speed = GPIO_SPEED_FREQ_LOW;
 337              		.loc 1 124 3 view .LVU130
 125:Core/Src/gpio.c ****   GPIO_InitStruct.Alternate = GPIO_AF5_SPI2;
 338              		.loc 1 125 3 view .LVU131
 126:Core/Src/gpio.c ****   HAL_GPIO_Init(CLK_IN_GPIO_Port, &GPIO_InitStruct);
 339              		.loc 1 126 3 view .LVU132
 340              		.loc 1 127 3 view .LVU133
 125:Core/Src/gpio.c ****   GPIO_InitStruct.Alternate = GPIO_AF5_SPI2;
 341              		.loc 1 125 25 is_stmt 0 view .LVU134
 342 016c CDE90844 		strd	r4, r4, [sp, #32]
 123:Core/Src/gpio.c ****   GPIO_InitStruct.Pull = GPIO_NOPULL;
 343              		.loc 1 123 24 view .LVU135
 344 0170 CDF81CB0 		str	fp, [sp, #28]
 126:Core/Src/gpio.c ****   HAL_GPIO_Init(CLK_IN_GPIO_Port, &GPIO_InitStruct);
 345              		.loc 1 126 29 view .LVU136
 346 0174 CDF828A0 		str	r10, [sp, #40]
 347              		.loc 1 127 3 view .LVU137
 348 0178 FFF7FEFF 		bl	HAL_GPIO_Init
ARM GAS  /var/folders/lp/x54gwt890xv47sdkqj1k04q40000gn/T//ccvI5lTw.s 			page 11


 349              	.LVL12:
 128:Core/Src/gpio.c **** 
 129:Core/Src/gpio.c ****   /*Configure GPIO pins : PDPin PDPin PDPin PDPin
 130:Core/Src/gpio.c ****                            PDPin */
 131:Core/Src/gpio.c ****   GPIO_InitStruct.Pin = LD4_Pin|LD3_Pin|LD5_Pin|LD6_Pin
 350              		.loc 1 131 3 is_stmt 1 view .LVU138
 351              		.loc 1 131 23 is_stmt 0 view .LVU139
 352 017c 4FF21003 		movw	r3, #61456
 132:Core/Src/gpio.c ****                           |Audio_RST_Pin;
 133:Core/Src/gpio.c ****   GPIO_InitStruct.Mode = GPIO_MODE_OUTPUT_PP;
 134:Core/Src/gpio.c ****   GPIO_InitStruct.Pull = GPIO_NOPULL;
 135:Core/Src/gpio.c ****   GPIO_InitStruct.Speed = GPIO_SPEED_FREQ_LOW;
 136:Core/Src/gpio.c ****   HAL_GPIO_Init(GPIOD, &GPIO_InitStruct);
 353              		.loc 1 136 3 view .LVU140
 354 0180 06A9     		add	r1, sp, #24
 355 0182 4846     		mov	r0, r9
 131:Core/Src/gpio.c ****                           |Audio_RST_Pin;
 356              		.loc 1 131 23 view .LVU141
 357 0184 0693     		str	r3, [sp, #24]
 133:Core/Src/gpio.c ****   GPIO_InitStruct.Pull = GPIO_NOPULL;
 358              		.loc 1 133 3 is_stmt 1 view .LVU142
 134:Core/Src/gpio.c ****   GPIO_InitStruct.Speed = GPIO_SPEED_FREQ_LOW;
 359              		.loc 1 134 3 view .LVU143
 135:Core/Src/gpio.c ****   HAL_GPIO_Init(GPIOD, &GPIO_InitStruct);
 360              		.loc 1 135 3 view .LVU144
 361              		.loc 1 136 3 view .LVU145
 134:Core/Src/gpio.c ****   GPIO_InitStruct.Speed = GPIO_SPEED_FREQ_LOW;
 362              		.loc 1 134 24 is_stmt 0 view .LVU146
 363 0186 CDE90754 		strd	r5, r4, [sp, #28]
 135:Core/Src/gpio.c ****   HAL_GPIO_Init(GPIOD, &GPIO_InitStruct);
 364              		.loc 1 135 25 view .LVU147
 365 018a 0994     		str	r4, [sp, #36]
 366              		.loc 1 136 3 view .LVU148
 367 018c FFF7FEFF 		bl	HAL_GPIO_Init
 368              	.LVL13:
 137:Core/Src/gpio.c **** 
 138:Core/Src/gpio.c ****   /*Configure GPIO pin : PtPin */
 139:Core/Src/gpio.c ****   GPIO_InitStruct.Pin = OTG_FS_OverCurrent_Pin;
 369              		.loc 1 139 3 is_stmt 1 view .LVU149
 140:Core/Src/gpio.c ****   GPIO_InitStruct.Mode = GPIO_MODE_INPUT;
 370              		.loc 1 140 3 view .LVU150
 141:Core/Src/gpio.c ****   GPIO_InitStruct.Pull = GPIO_NOPULL;
 142:Core/Src/gpio.c ****   HAL_GPIO_Init(OTG_FS_OverCurrent_GPIO_Port, &GPIO_InitStruct);
 371              		.loc 1 142 3 is_stmt 0 view .LVU151
 372 0190 4846     		mov	r0, r9
 373 0192 06A9     		add	r1, sp, #24
 139:Core/Src/gpio.c ****   GPIO_InitStruct.Mode = GPIO_MODE_INPUT;
 374              		.loc 1 139 23 view .LVU152
 375 0194 2022     		movs	r2, #32
 376 0196 0023     		movs	r3, #0
 377 0198 CDE90623 		strd	r2, [sp, #24]
 141:Core/Src/gpio.c ****   GPIO_InitStruct.Pull = GPIO_NOPULL;
 378              		.loc 1 141 3 is_stmt 1 view .LVU153
 379              		.loc 1 142 3 view .LVU154
 141:Core/Src/gpio.c ****   GPIO_InitStruct.Pull = GPIO_NOPULL;
 380              		.loc 1 141 24 is_stmt 0 view .LVU155
 381 019c 0894     		str	r4, [sp, #32]
ARM GAS  /var/folders/lp/x54gwt890xv47sdkqj1k04q40000gn/T//ccvI5lTw.s 			page 12


 382              		.loc 1 142 3 view .LVU156
 383 019e FFF7FEFF 		bl	HAL_GPIO_Init
 384              	.LVL14:
 143:Core/Src/gpio.c **** 
 144:Core/Src/gpio.c ****   /*Configure GPIO pin : PtPin */
 145:Core/Src/gpio.c ****   GPIO_InitStruct.Pin = MEMS_INT2_Pin;
 385              		.loc 1 145 3 is_stmt 1 view .LVU157
 146:Core/Src/gpio.c ****   GPIO_InitStruct.Mode = GPIO_MODE_EVT_RISING;
 386              		.loc 1 146 3 view .LVU158
 147:Core/Src/gpio.c ****   GPIO_InitStruct.Pull = GPIO_NOPULL;
 148:Core/Src/gpio.c ****   HAL_GPIO_Init(MEMS_INT2_GPIO_Port, &GPIO_InitStruct);
 387              		.loc 1 148 3 is_stmt 0 view .LVU159
 388 01a2 3846     		mov	r0, r7
 389 01a4 06A9     		add	r1, sp, #24
 145:Core/Src/gpio.c ****   GPIO_InitStruct.Mode = GPIO_MODE_EVT_RISING;
 390              		.loc 1 145 23 view .LVU160
 391 01a6 0222     		movs	r2, #2
 392 01a8 4FF49013 		mov	r3, #1179648
 393 01ac CDE90623 		strd	r2, [sp, #24]
 147:Core/Src/gpio.c ****   GPIO_InitStruct.Pull = GPIO_NOPULL;
 394              		.loc 1 147 3 is_stmt 1 view .LVU161
 395              		.loc 1 148 3 view .LVU162
 147:Core/Src/gpio.c ****   GPIO_InitStruct.Pull = GPIO_NOPULL;
 396              		.loc 1 147 24 is_stmt 0 view .LVU163
 397 01b0 0894     		str	r4, [sp, #32]
 398              		.loc 1 148 3 view .LVU164
 399 01b2 FFF7FEFF 		bl	HAL_GPIO_Init
 400              	.LVL15:
 149:Core/Src/gpio.c **** 
 150:Core/Src/gpio.c ****   /*Configure GPIO pin : PA0 */
 151:Core/Src/gpio.c ****   GPIO_InitStruct.Pin = GPIO_PIN_0;
 401              		.loc 1 151 3 is_stmt 1 view .LVU165
 152:Core/Src/gpio.c ****   GPIO_InitStruct.Mode = GPIO_MODE_IT_RISING;
 402              		.loc 1 152 3 view .LVU166
 153:Core/Src/gpio.c ****   GPIO_InitStruct.Pull = GPIO_NOPULL;
 154:Core/Src/gpio.c ****   HAL_GPIO_Init(GPIOA, &GPIO_InitStruct);
 403              		.loc 1 154 3 is_stmt 0 view .LVU167
 404 01b6 3046     		mov	r0, r6
 405 01b8 06A9     		add	r1, sp, #24
 151:Core/Src/gpio.c ****   GPIO_InitStruct.Mode = GPIO_MODE_IT_RISING;
 406              		.loc 1 151 23 view .LVU168
 407 01ba 0122     		movs	r2, #1
 408 01bc 4FF48813 		mov	r3, #1114112
 409 01c0 CDE90623 		strd	r2, [sp, #24]
 153:Core/Src/gpio.c ****   GPIO_InitStruct.Pull = GPIO_NOPULL;
 410              		.loc 1 153 3 is_stmt 1 view .LVU169
 411              		.loc 1 154 3 view .LVU170
 153:Core/Src/gpio.c ****   GPIO_InitStruct.Pull = GPIO_NOPULL;
 412              		.loc 1 153 24 is_stmt 0 view .LVU171
 413 01c4 0894     		str	r4, [sp, #32]
 414              		.loc 1 154 3 view .LVU172
 415 01c6 FFF7FEFF 		bl	HAL_GPIO_Init
 416              	.LVL16:
 155:Core/Src/gpio.c **** 
 156:Core/Src/gpio.c ****   /*Configure GPIO pin : PB7 */
 157:Core/Src/gpio.c ****   GPIO_InitStruct.Pin = GPIO_PIN_7;
 417              		.loc 1 157 3 is_stmt 1 view .LVU173
ARM GAS  /var/folders/lp/x54gwt890xv47sdkqj1k04q40000gn/T//ccvI5lTw.s 			page 13


 158:Core/Src/gpio.c ****   GPIO_InitStruct.Mode = GPIO_MODE_INPUT;
 418              		.loc 1 158 3 view .LVU174
 157:Core/Src/gpio.c ****   GPIO_InitStruct.Mode = GPIO_MODE_INPUT;
 419              		.loc 1 157 23 is_stmt 0 view .LVU175
 420 01ca 0023     		movs	r3, #0
 159:Core/Src/gpio.c ****   GPIO_InitStruct.Pull = GPIO_PULLUP;
 160:Core/Src/gpio.c ****   HAL_GPIO_Init(GPIOB, &GPIO_InitStruct);
 421              		.loc 1 160 3 view .LVU176
 422 01cc 06A9     		add	r1, sp, #24
 423 01ce 4046     		mov	r0, r8
 157:Core/Src/gpio.c ****   GPIO_InitStruct.Mode = GPIO_MODE_INPUT;
 424              		.loc 1 157 23 view .LVU177
 425 01d0 8022     		movs	r2, #128
 426 01d2 CDE90623 		strd	r2, [sp, #24]
 159:Core/Src/gpio.c ****   GPIO_InitStruct.Pull = GPIO_PULLUP;
 427              		.loc 1 159 3 is_stmt 1 view .LVU178
 428              		.loc 1 160 3 view .LVU179
 159:Core/Src/gpio.c ****   GPIO_InitStruct.Pull = GPIO_PULLUP;
 429              		.loc 1 159 24 is_stmt 0 view .LVU180
 430 01d6 0895     		str	r5, [sp, #32]
 431              		.loc 1 160 3 view .LVU181
 432 01d8 FFF7FEFF 		bl	HAL_GPIO_Init
 433              	.LVL17:
 161:Core/Src/gpio.c **** 
 162:Core/Src/gpio.c ****   /* EXTI interrupt init*/
 163:Core/Src/gpio.c ****   HAL_NVIC_SetPriority(EXTI0_IRQn, 0, 0);
 434              		.loc 1 163 3 is_stmt 1 view .LVU182
 435 01dc 2246     		mov	r2, r4
 436 01de 2146     		mov	r1, r4
 437 01e0 0620     		movs	r0, #6
 438 01e2 FFF7FEFF 		bl	HAL_NVIC_SetPriority
 439              	.LVL18:
 164:Core/Src/gpio.c ****   HAL_NVIC_EnableIRQ(EXTI0_IRQn);
 440              		.loc 1 164 3 view .LVU183
 441 01e6 0620     		movs	r0, #6
 442 01e8 FFF7FEFF 		bl	HAL_NVIC_EnableIRQ
 443              	.LVL19:
 165:Core/Src/gpio.c **** 
 166:Core/Src/gpio.c **** }
 444              		.loc 1 166 1 is_stmt 0 view .LVU184
 445 01ec 0DB0     		add	sp, sp, #52
 446              		.cfi_def_cfa_offset 36
 447              		@ sp needed
 448 01ee BDE8F08F 		pop	{r4, r5, r6, r7, r8, r9, r10, fp, pc}
 449              	.L5:
 450 01f2 00BF     		.align	2
 451              	.L4:
 452 01f4 00380240 		.word	1073887232
 453 01f8 00100240 		.word	1073876992
 454 01fc 00000240 		.word	1073872896
 455 0200 00080240 		.word	1073874944
 456 0204 000C0240 		.word	1073875968
 457              		.cfi_endproc
 458              	.LFE242:
 460              		.text
 461              	.Letext0:
 462              		.file 2 "Drivers/CMSIS/Device/ST/STM32F4xx/Include/stm32f407xx.h"
ARM GAS  /var/folders/lp/x54gwt890xv47sdkqj1k04q40000gn/T//ccvI5lTw.s 			page 14


 463              		.file 3 "/Users/jr/Library/Application Support/Code/User/globalStorage/bmd.stm32-for-vscode/@xpack
 464              		.file 4 "/Users/jr/Library/Application Support/Code/User/globalStorage/bmd.stm32-for-vscode/@xpack
 465              		.file 5 "Drivers/STM32F4xx_HAL_Driver/Inc/stm32f4xx_hal_gpio.h"
 466              		.file 6 "Drivers/STM32F4xx_HAL_Driver/Inc/stm32f4xx_hal_cortex.h"
ARM GAS  /var/folders/lp/x54gwt890xv47sdkqj1k04q40000gn/T//ccvI5lTw.s 			page 15

