ARM GAS  /var/folders/0z/tsy30v1j4xl4_7kw94k978ww0000gn/T//cc5olIsQ.s 			page 1


   1              		.cpu cortex-m4
   2              		.arch armv7e-m
   3              		.fpu fpv4-sp-d16
   4              		.eabi_attribute 27, 1
   5              		.eabi_attribute 28, 1
   6              		.eabi_attribute 20, 1
   7              		.eabi_attribute 21, 1
   8              		.eabi_attribute 23, 3
   9              		.eabi_attribute 24, 1
  10              		.eabi_attribute 25, 1
  11              		.eabi_attribute 26, 1
  12              		.eabi_attribute 30, 1
  13              		.eabi_attribute 34, 1
  14              		.eabi_attribute 18, 4
  15              		.file	"helper_functions.c"
  16              		.text
  17              	.Ltext0:
  18              		.cfi_sections	.debug_frame
  19              		.section	.text.interp_lin_lut,"ax",%progbits
  20              		.align	1
  21              		.global	interp_lin_lut
  22              		.syntax unified
  23              		.thumb
  24              		.thumb_func
  26              	interp_lin_lut:
  27              	.LVL0:
  28              	.LFB3:
  29              		.file 1 "Core/Src/helper_functions.c"
   1:Core/Src/helper_functions.c **** /**
   2:Core/Src/helper_functions.c ****  * @file helper_functions.c
   3:Core/Src/helper_functions.c ****  * @author johannes regnier
   4:Core/Src/helper_functions.c ****  * @brief Various math tools 
   5:Core/Src/helper_functions.c ****  * @version 0.1
   6:Core/Src/helper_functions.c ****  * @date 2023-12-30
   7:Core/Src/helper_functions.c ****  * 
   8:Core/Src/helper_functions.c ****  * @copyright Copyright (c) 2023
   9:Core/Src/helper_functions.c ****  * 
  10:Core/Src/helper_functions.c ****  */
  11:Core/Src/helper_functions.c **** 
  12:Core/Src/helper_functions.c **** #include "helper_functions.h"
  13:Core/Src/helper_functions.c **** 
  14:Core/Src/helper_functions.c **** 
  15:Core/Src/helper_functions.c **** 
  16:Core/Src/helper_functions.c **** /**
  17:Core/Src/helper_functions.c ****  * @brief Linear interpolation within a given lookup table. Useful for wavetable oscillators.
  18:Core/Src/helper_functions.c ****  * 
  19:Core/Src/helper_functions.c ****  * @param index 
  20:Core/Src/helper_functions.c ****  * @param table_size 
  21:Core/Src/helper_functions.c ****  * @param table 
  22:Core/Src/helper_functions.c ****  * @return float 
  23:Core/Src/helper_functions.c ****  */
  24:Core/Src/helper_functions.c **** float interp_lin_lut(float index, uint16_t table_size, const float *table){
  30              		.loc 1 24 75 view -0
  31              		.cfi_startproc
  32              		@ args = 0, pretend = 0, frame = 0
  33              		@ frame_needed = 0, uses_anonymous_args = 0
  34              		@ link register save eliminated.
ARM GAS  /var/folders/0z/tsy30v1j4xl4_7kw94k978ww0000gn/T//cc5olIsQ.s 			page 2


  25:Core/Src/helper_functions.c ****     float diff;
  35              		.loc 1 25 5 view .LVU1
  26:Core/Src/helper_functions.c ****     uint32_t trunc = (uint32_t)index; // truncate the index but don't overwrite
  36              		.loc 1 26 5 view .LVU2
  37              		.loc 1 26 14 is_stmt 0 view .LVU3
  38 0000 FCEEC07A 		vcvt.u32.f32	s15, s0
  39 0004 17EE903A 		vmov	r3, s15	@ int
  40              	.LVL1:
  27:Core/Src/helper_functions.c ****     float frac = index - trunc; // get the fractional part
  41              		.loc 1 27 5 is_stmt 1 view .LVU4
  42              		.loc 1 27 24 is_stmt 0 view .LVU5
  43 0008 F8EE677A 		vcvt.f32.u32	s15, s15
  44              		.loc 1 27 11 view .LVU6
  45 000c 70EE677A 		vsub.f32	s15, s0, s15
  46              	.LVL2:
  28:Core/Src/helper_functions.c **** 
  29:Core/Src/helper_functions.c ****     while (trunc > table_size)
  47              		.loc 1 29 5 is_stmt 1 view .LVU7
  48              		.loc 1 29 11 is_stmt 0 view .LVU8
  49 0010 00E0     		b	.L2
  50              	.L3:
  30:Core/Src/helper_functions.c ****         trunc = trunc - table_size;
  51              		.loc 1 30 9 is_stmt 1 view .LVU9
  52              		.loc 1 30 15 is_stmt 0 view .LVU10
  53 0012 1B1A     		subs	r3, r3, r0
  54              	.LVL3:
  55              	.L2:
  29:Core/Src/helper_functions.c ****         trunc = trunc - table_size;
  56              		.loc 1 29 18 is_stmt 1 view .LVU11
  57 0014 9842     		cmp	r0, r3
  58 0016 FCD3     		bcc	.L3
  31:Core/Src/helper_functions.c **** 
  32:Core/Src/helper_functions.c ****     if (trunc == table_size-1) 
  59              		.loc 1 32 5 view .LVU12
  60              		.loc 1 32 28 is_stmt 0 view .LVU13
  61 0018 0138     		subs	r0, r0, #1
  62              	.LVL4:
  63              		.loc 1 32 8 view .LVU14
  64 001a 9842     		cmp	r0, r3
  65 001c 13D0     		beq	.L6
  33:Core/Src/helper_functions.c ****         diff = table[0] - table[trunc]; // wrap
  34:Core/Src/helper_functions.c ****     else
  35:Core/Src/helper_functions.c ****         diff = table[trunc+1] - table[trunc]; // no need to wrap
  66              		.loc 1 35 9 is_stmt 1 view .LVU15
  67              		.loc 1 35 21 is_stmt 0 view .LVU16
  68 001e 5A1C     		adds	r2, r3, #1
  69 0020 01EB8202 		add	r2, r1, r2, lsl #2
  70 0024 92ED007A 		vldr.32	s14, [r2]
  71              		.loc 1 35 38 view .LVU17
  72 0028 01EB8302 		add	r2, r1, r3, lsl #2
  73 002c D2ED006A 		vldr.32	s13, [r2]
  74              		.loc 1 35 14 view .LVU18
  75 0030 37EE667A 		vsub.f32	s14, s14, s13
  76              	.LVL5:
  77              	.L5:
  36:Core/Src/helper_functions.c **** 
  37:Core/Src/helper_functions.c ****     // get the interpolated output
ARM GAS  /var/folders/0z/tsy30v1j4xl4_7kw94k978ww0000gn/T//cc5olIsQ.s 			page 3


  38:Core/Src/helper_functions.c ****     return table[trunc] + (diff * frac);
  78              		.loc 1 38 5 is_stmt 1 view .LVU19
  79              		.loc 1 38 17 is_stmt 0 view .LVU20
  80 0034 01EB8301 		add	r1, r1, r3, lsl #2
  81              	.LVL6:
  82              		.loc 1 38 17 view .LVU21
  83 0038 91ED000A 		vldr.32	s0, [r1]
  84              	.LVL7:
  85              		.loc 1 38 33 view .LVU22
  86 003c 67EE277A 		vmul.f32	s15, s14, s15
  87              	.LVL8:
  39:Core/Src/helper_functions.c **** }
  88              		.loc 1 39 1 view .LVU23
  89 0040 30EE270A 		vadd.f32	s0, s0, s15
  90 0044 7047     		bx	lr
  91              	.LVL9:
  92              	.L6:
  33:Core/Src/helper_functions.c ****         diff = table[0] - table[trunc]; // wrap
  93              		.loc 1 33 9 is_stmt 1 view .LVU24
  33:Core/Src/helper_functions.c ****         diff = table[0] - table[trunc]; // wrap
  94              		.loc 1 33 21 is_stmt 0 view .LVU25
  95 0046 91ED007A 		vldr.32	s14, [r1]
  33:Core/Src/helper_functions.c ****         diff = table[0] - table[trunc]; // wrap
  96              		.loc 1 33 32 view .LVU26
  97 004a 01EB8302 		add	r2, r1, r3, lsl #2
  98 004e D2ED006A 		vldr.32	s13, [r2]
  33:Core/Src/helper_functions.c ****         diff = table[0] - table[trunc]; // wrap
  99              		.loc 1 33 14 view .LVU27
 100 0052 37EE667A 		vsub.f32	s14, s14, s13
 101              	.LVL10:
  33:Core/Src/helper_functions.c ****         diff = table[0] - table[trunc]; // wrap
 102              		.loc 1 33 14 view .LVU28
 103 0056 EDE7     		b	.L5
 104              		.cfi_endproc
 105              	.LFE3:
 107              		.section	.text.clip,"ax",%progbits
 108              		.align	1
 109              		.global	clip
 110              		.syntax unified
 111              		.thumb
 112              		.thumb_func
 114              	clip:
 115              	.LVL11:
 116              	.LFB4:
  40:Core/Src/helper_functions.c **** 
  41:Core/Src/helper_functions.c **** /**
  42:Core/Src/helper_functions.c ****  * @brief Constrain input value between lower and upper limits
  43:Core/Src/helper_functions.c ****  * 
  44:Core/Src/helper_functions.c ****  * @param input 
  45:Core/Src/helper_functions.c ****  * @param lower 
  46:Core/Src/helper_functions.c ****  * @param upper 
  47:Core/Src/helper_functions.c ****  * @return float 
  48:Core/Src/helper_functions.c ****  */
  49:Core/Src/helper_functions.c **** float clip(float input, float lower, float upper) {
 117              		.loc 1 49 51 is_stmt 1 view -0
 118              		.cfi_startproc
 119              		@ args = 0, pretend = 0, frame = 0
ARM GAS  /var/folders/0z/tsy30v1j4xl4_7kw94k978ww0000gn/T//cc5olIsQ.s 			page 4


 120              		@ frame_needed = 0, uses_anonymous_args = 0
 121              		@ link register save eliminated.
 122              		.loc 1 49 51 is_stmt 0 view .LVU30
 123 0000 F0EE407A 		vmov.f32	s15, s0
 124 0004 B0EE410A 		vmov.f32	s0, s2
 125              	.LVL12:
  50:Core/Src/helper_functions.c ****         return max(lower, min(input, upper));
 126              		.loc 1 50 9 is_stmt 1 view .LVU31
 127              		.loc 1 50 16 is_stmt 0 view .LVU32
 128 0008 F4EEC17A 		vcmpe.f32	s15, s2
 129 000c F1EE10FA 		vmrs	APSR_nzcv, FPSCR
 130 0010 01D5     		bpl	.L8
 131 0012 B0EE670A 		vmov.f32	s0, s15
 132              	.L8:
 133              		.loc 1 50 16 discriminator 4 view .LVU33
 134 0016 B4EEE00A 		vcmpe.f32	s0, s1
 135 001a F1EE10FA 		vmrs	APSR_nzcv, FPSCR
 136 001e 01D5     		bpl	.L10
 137              		.loc 1 50 16 view .LVU34
 138 0020 B0EE600A 		vmov.f32	s0, s1
 139              	.L10:
  51:Core/Src/helper_functions.c **** }
 140              		.loc 1 51 1 discriminator 12 view .LVU35
 141 0024 7047     		bx	lr
 142              		.cfi_endproc
 143              	.LFE4:
 145              		.text
 146              	.Letext0:
 147              		.file 2 "/Users/johannes/Library/Application Support/Code/User/globalStorage/bmd.stm32-for-vscode/
 148              		.file 3 "/Users/johannes/Library/Application Support/Code/User/globalStorage/bmd.stm32-for-vscode/
ARM GAS  /var/folders/0z/tsy30v1j4xl4_7kw94k978ww0000gn/T//cc5olIsQ.s 			page 5


DEFINED SYMBOLS
                            *ABS*:0000000000000000 helper_functions.c
/var/folders/0z/tsy30v1j4xl4_7kw94k978ww0000gn/T//cc5olIsQ.s:20     .text.interp_lin_lut:0000000000000000 $t
/var/folders/0z/tsy30v1j4xl4_7kw94k978ww0000gn/T//cc5olIsQ.s:26     .text.interp_lin_lut:0000000000000000 interp_lin_lut
/var/folders/0z/tsy30v1j4xl4_7kw94k978ww0000gn/T//cc5olIsQ.s:108    .text.clip:0000000000000000 $t
/var/folders/0z/tsy30v1j4xl4_7kw94k978ww0000gn/T//cc5olIsQ.s:114    .text.clip:0000000000000000 clip

NO UNDEFINED SYMBOLS
