ARM GAS  /var/folders/0z/tsy30v1j4xl4_7kw94k978ww0000gn/T//ccbvGzqb.s 			page 1


   1              		.cpu cortex-m4
   2              		.arch armv7e-m
   3              		.fpu fpv4-sp-d16
   4              		.eabi_attribute 27, 1
   5              		.eabi_attribute 28, 1
   6              		.eabi_attribute 20, 1
   7              		.eabi_attribute 21, 1
   8              		.eabi_attribute 23, 3
   9              		.eabi_attribute 24, 1
  10              		.eabi_attribute 25, 1
  11              		.eabi_attribute 26, 1
  12              		.eabi_attribute 30, 2
  13              		.eabi_attribute 34, 1
  14              		.eabi_attribute 18, 4
  15              		.file	"helper_functions.c"
  16              		.text
  17              	.Ltext0:
  18              		.cfi_sections	.debug_frame
  19              		.section	.text.interp_lin_lut,"ax",%progbits
  20              		.align	1
  21              		.p2align 2,,3
  22              		.global	interp_lin_lut
  23              		.syntax unified
  24              		.thumb
  25              		.thumb_func
  27              	interp_lin_lut:
  28              	.LVL0:
  29              	.LFB3:
  30              		.file 1 "Core/Src/helper_functions.c"
   1:Core/Src/helper_functions.c **** /**
   2:Core/Src/helper_functions.c ****  * @file helper_functions.c
   3:Core/Src/helper_functions.c ****  * @author johannes regnier
   4:Core/Src/helper_functions.c ****  * @brief Various math tools 
   5:Core/Src/helper_functions.c ****  * @version 0.1
   6:Core/Src/helper_functions.c ****  * @date 2023-12-30
   7:Core/Src/helper_functions.c ****  * 
   8:Core/Src/helper_functions.c ****  * @copyright Copyright (c) 2023
   9:Core/Src/helper_functions.c ****  * 
  10:Core/Src/helper_functions.c ****  */
  11:Core/Src/helper_functions.c **** 
  12:Core/Src/helper_functions.c **** #include "helper_functions.h"
  13:Core/Src/helper_functions.c **** 
  14:Core/Src/helper_functions.c **** 
  15:Core/Src/helper_functions.c **** 
  16:Core/Src/helper_functions.c **** /**
  17:Core/Src/helper_functions.c ****  * @brief Linear interpolation within a given lookup table. Useful for wavetable oscillators.
  18:Core/Src/helper_functions.c ****  * 
  19:Core/Src/helper_functions.c ****  * @param index 
  20:Core/Src/helper_functions.c ****  * @param table_size 
  21:Core/Src/helper_functions.c ****  * @param table 
  22:Core/Src/helper_functions.c ****  * @return float 
  23:Core/Src/helper_functions.c ****  */
  24:Core/Src/helper_functions.c **** float interp_lin_lut(float index, uint16_t table_size, const float *table){
  31              		.loc 1 24 75 view -0
  32              		.cfi_startproc
  33              		@ args = 0, pretend = 0, frame = 0
  34              		@ frame_needed = 0, uses_anonymous_args = 0
ARM GAS  /var/folders/0z/tsy30v1j4xl4_7kw94k978ww0000gn/T//ccbvGzqb.s 			page 2


  35              		@ link register save eliminated.
  25:Core/Src/helper_functions.c ****     float diff;
  36              		.loc 1 25 5 view .LVU1
  26:Core/Src/helper_functions.c ****     uint32_t trunc = (uint32_t)index; // truncate the index but don't overwrite
  37              		.loc 1 26 5 view .LVU2
  38              		.loc 1 26 14 is_stmt 0 view .LVU3
  39 0000 FCEEC07A 		vcvt.u32.f32	s15, s0
  40 0004 17EE903A 		vmov	r3, s15	@ int
  41              	.LVL1:
  27:Core/Src/helper_functions.c ****     float frac = index - trunc; // get the fractional part
  42              		.loc 1 27 5 is_stmt 1 view .LVU4
  43              		.loc 1 27 24 is_stmt 0 view .LVU5
  44 0008 F8EE677A 		vcvt.f32.u32	s15, s15
  28:Core/Src/helper_functions.c **** 
  29:Core/Src/helper_functions.c ****     while (trunc > table_size)
  45              		.loc 1 29 18 view .LVU6
  46 000c 8342     		cmp	r3, r0
  27:Core/Src/helper_functions.c ****     float frac = index - trunc; // get the fractional part
  47              		.loc 1 27 11 view .LVU7
  48 000e 70EE677A 		vsub.f32	s15, s0, s15
  49              	.LVL2:
  50              		.loc 1 29 5 is_stmt 1 view .LVU8
  51              		.loc 1 29 18 view .LVU9
  52 0012 02D9     		bls	.L2
  53              	.L3:
  30:Core/Src/helper_functions.c ****         trunc = trunc - table_size;
  54              		.loc 1 30 9 view .LVU10
  55              		.loc 1 30 15 is_stmt 0 view .LVU11
  56 0014 1B1A     		subs	r3, r3, r0
  57              	.LVL3:
  29:Core/Src/helper_functions.c ****         trunc = trunc - table_size;
  58              		.loc 1 29 18 is_stmt 1 view .LVU12
  59 0016 8342     		cmp	r3, r0
  60 0018 FCD8     		bhi	.L3
  61              	.L2:
  31:Core/Src/helper_functions.c **** 
  32:Core/Src/helper_functions.c ****     if (trunc == table_size-1) 
  62              		.loc 1 32 5 view .LVU13
  63              		.loc 1 32 28 is_stmt 0 view .LVU14
  64 001a 0138     		subs	r0, r0, #1
  65              	.LVL4:
  66              		.loc 1 32 8 view .LVU15
  67 001c 9842     		cmp	r0, r3
  68 001e 0BD0     		beq	.L8
  33:Core/Src/helper_functions.c ****         diff = table[0] - table[trunc]; // wrap
  34:Core/Src/helper_functions.c ****     else
  35:Core/Src/helper_functions.c ****         diff = table[trunc+1] - table[trunc]; // no need to wrap
  69              		.loc 1 35 9 is_stmt 1 view .LVU16
  70              		.loc 1 35 21 is_stmt 0 view .LVU17
  71 0020 0133     		adds	r3, r3, #1
  72              	.LVL5:
  73              		.loc 1 35 38 view .LVU18
  74 0022 01EB8301 		add	r1, r1, r3, lsl #2
  75              	.LVL6:
  76              		.loc 1 35 38 view .LVU19
  77 0026 11ED010A 		vldr.32	s0, [r1, #-4]
  78              	.LVL7:
ARM GAS  /var/folders/0z/tsy30v1j4xl4_7kw94k978ww0000gn/T//ccbvGzqb.s 			page 3


  79              		.loc 1 35 14 view .LVU20
  80 002a 91ED007A 		vldr.32	s14, [r1]
  81 002e 37EE407A 		vsub.f32	s14, s14, s0
  82              	.LVL8:
  36:Core/Src/helper_functions.c **** 
  37:Core/Src/helper_functions.c ****     // get the interpolated output
  38:Core/Src/helper_functions.c ****     return table[trunc] + (diff * frac);
  83              		.loc 1 38 5 is_stmt 1 view .LVU21
  39:Core/Src/helper_functions.c **** }
  84              		.loc 1 39 1 is_stmt 0 view .LVU22
  85 0032 A7EE270A 		vfma.f32	s0, s14, s15
  86 0036 7047     		bx	lr
  87              	.LVL9:
  88              	.L8:
  33:Core/Src/helper_functions.c ****         diff = table[0] - table[trunc]; // wrap
  89              		.loc 1 33 9 is_stmt 1 view .LVU23
  33:Core/Src/helper_functions.c ****         diff = table[0] - table[trunc]; // wrap
  90              		.loc 1 33 32 is_stmt 0 view .LVU24
  91 0038 01EB8303 		add	r3, r1, r3, lsl #2
  92              	.LVL10:
  33:Core/Src/helper_functions.c ****         diff = table[0] - table[trunc]; // wrap
  93              		.loc 1 33 32 view .LVU25
  94 003c 93ED000A 		vldr.32	s0, [r3]
  95              	.LVL11:
  33:Core/Src/helper_functions.c ****         diff = table[0] - table[trunc]; // wrap
  96              		.loc 1 33 14 view .LVU26
  97 0040 91ED007A 		vldr.32	s14, [r1]
  98 0044 37EE407A 		vsub.f32	s14, s14, s0
  99              	.LVL12:
  38:Core/Src/helper_functions.c **** }
 100              		.loc 1 38 5 is_stmt 1 view .LVU27
 101              		.loc 1 39 1 is_stmt 0 view .LVU28
 102 0048 A7EE270A 		vfma.f32	s0, s14, s15
 103 004c 7047     		bx	lr
 104              		.cfi_endproc
 105              	.LFE3:
 107 004e 00BF     		.section	.text.clip,"ax",%progbits
 108              		.align	1
 109              		.p2align 2,,3
 110              		.global	clip
 111              		.syntax unified
 112              		.thumb
 113              		.thumb_func
 115              	clip:
 116              	.LVL13:
 117              	.LFB4:
  40:Core/Src/helper_functions.c **** 
  41:Core/Src/helper_functions.c **** /**
  42:Core/Src/helper_functions.c ****  * @brief Constrain input value between lower and upper limits
  43:Core/Src/helper_functions.c ****  * 
  44:Core/Src/helper_functions.c ****  * @param input 
  45:Core/Src/helper_functions.c ****  * @param lower 
  46:Core/Src/helper_functions.c ****  * @param upper 
  47:Core/Src/helper_functions.c ****  * @return float 
  48:Core/Src/helper_functions.c ****  */
  49:Core/Src/helper_functions.c **** float clip(float input, float lower, float upper) {
 118              		.loc 1 49 51 is_stmt 1 view -0
ARM GAS  /var/folders/0z/tsy30v1j4xl4_7kw94k978ww0000gn/T//ccbvGzqb.s 			page 4


 119              		.cfi_startproc
 120              		@ args = 0, pretend = 0, frame = 0
 121              		@ frame_needed = 0, uses_anonymous_args = 0
 122              		@ link register save eliminated.
  50:Core/Src/helper_functions.c ****         return max(lower, min(input, upper));
 123              		.loc 1 50 9 view .LVU30
 124              		.loc 1 50 16 is_stmt 0 view .LVU31
 125 0000 B4EEC10A 		vcmpe.f32	s0, s2
 126 0004 F1EE10FA 		vmrs	APSR_nzcv, FPSCR
 127 0008 58BF     		it	pl
 128 000a B0EE410A 		vmovpl.f32	s0, s2
 129              	.LVL14:
 130              		.loc 1 50 16 view .LVU32
 131 000e B4EEE00A 		vcmpe.f32	s0, s1
 132 0012 F1EE10FA 		vmrs	APSR_nzcv, FPSCR
  51:Core/Src/helper_functions.c **** }
 133              		.loc 1 51 1 view .LVU33
 134 0016 48BF     		it	mi
 135 0018 B0EE600A 		vmovmi.f32	s0, s1
 136 001c 7047     		bx	lr
 137              		.cfi_endproc
 138              	.LFE4:
 140 001e 00BF     		.text
 141              	.Letext0:
 142              		.file 2 "/Users/johannes/Library/Application Support/Code/User/globalStorage/bmd.stm32-for-vscode/
 143              		.file 3 "/Users/johannes/Library/Application Support/Code/User/globalStorage/bmd.stm32-for-vscode/
ARM GAS  /var/folders/0z/tsy30v1j4xl4_7kw94k978ww0000gn/T//ccbvGzqb.s 			page 5


DEFINED SYMBOLS
                            *ABS*:0000000000000000 helper_functions.c
/var/folders/0z/tsy30v1j4xl4_7kw94k978ww0000gn/T//ccbvGzqb.s:20     .text.interp_lin_lut:0000000000000000 $t
/var/folders/0z/tsy30v1j4xl4_7kw94k978ww0000gn/T//ccbvGzqb.s:27     .text.interp_lin_lut:0000000000000000 interp_lin_lut
/var/folders/0z/tsy30v1j4xl4_7kw94k978ww0000gn/T//ccbvGzqb.s:108    .text.clip:0000000000000000 $t
/var/folders/0z/tsy30v1j4xl4_7kw94k978ww0000gn/T//ccbvGzqb.s:115    .text.clip:0000000000000000 clip

NO UNDEFINED SYMBOLS
