ARM GAS  /var/folders/0z/tsy30v1j4xl4_7kw94k978ww0000gn/T//ccWGlR0I.s 			page 1


   1              		.cpu cortex-m4
   2              		.arch armv7e-m
   3              		.fpu fpv4-sp-d16
   4              		.eabi_attribute 27, 1
   5              		.eabi_attribute 28, 1
   6              		.eabi_attribute 20, 1
   7              		.eabi_attribute 21, 1
   8              		.eabi_attribute 23, 3
   9              		.eabi_attribute 24, 1
  10              		.eabi_attribute 25, 1
  11              		.eabi_attribute 26, 1
  12              		.eabi_attribute 30, 1
  13              		.eabi_attribute 34, 1
  14              		.eabi_attribute 18, 4
  15              		.file	"i2s.c"
  16              		.text
  17              	.Ltext0:
  18              		.cfi_sections	.debug_frame
  19              		.section	.text.MX_I2S3_Init,"ax",%progbits
  20              		.align	1
  21              		.global	MX_I2S3_Init
  22              		.syntax unified
  23              		.thumb
  24              		.thumb_func
  26              	MX_I2S3_Init:
  27              	.LFB133:
  28              		.file 1 "Core/Src/i2s.c"
   1:Core/Src/i2s.c **** /* USER CODE BEGIN Header */
   2:Core/Src/i2s.c **** /**
   3:Core/Src/i2s.c ****   ******************************************************************************
   4:Core/Src/i2s.c ****   * @file    i2s.c
   5:Core/Src/i2s.c ****   * @brief   This file provides code for the configuration
   6:Core/Src/i2s.c ****   *          of the I2S instances.
   7:Core/Src/i2s.c ****   ******************************************************************************
   8:Core/Src/i2s.c ****   * @attention
   9:Core/Src/i2s.c ****   *
  10:Core/Src/i2s.c ****   * Copyright (c) 2023 STMicroelectronics.
  11:Core/Src/i2s.c ****   * All rights reserved.
  12:Core/Src/i2s.c ****   *
  13:Core/Src/i2s.c ****   * This software is licensed under terms that can be found in the LICENSE file
  14:Core/Src/i2s.c ****   * in the root directory of this software component.
  15:Core/Src/i2s.c ****   * If no LICENSE file comes with this software, it is provided AS-IS.
  16:Core/Src/i2s.c ****   *
  17:Core/Src/i2s.c ****   ******************************************************************************
  18:Core/Src/i2s.c ****   */
  19:Core/Src/i2s.c **** /* USER CODE END Header */
  20:Core/Src/i2s.c **** /* Includes ------------------------------------------------------------------*/
  21:Core/Src/i2s.c **** #include "i2s.h"
  22:Core/Src/i2s.c **** 
  23:Core/Src/i2s.c **** /* USER CODE BEGIN 0 */
  24:Core/Src/i2s.c **** 
  25:Core/Src/i2s.c **** /* USER CODE END 0 */
  26:Core/Src/i2s.c **** 
  27:Core/Src/i2s.c **** I2S_HandleTypeDef hi2s3;
  28:Core/Src/i2s.c **** 
  29:Core/Src/i2s.c **** /* I2S3 init function */
  30:Core/Src/i2s.c **** void MX_I2S3_Init(void)
ARM GAS  /var/folders/0z/tsy30v1j4xl4_7kw94k978ww0000gn/T//ccWGlR0I.s 			page 2


  31:Core/Src/i2s.c **** {
  29              		.loc 1 31 1 view -0
  30              		.cfi_startproc
  31              		@ args = 0, pretend = 0, frame = 0
  32              		@ frame_needed = 0, uses_anonymous_args = 0
  33 0000 08B5     		push	{r3, lr}
  34              		.cfi_def_cfa_offset 8
  35              		.cfi_offset 3, -8
  36              		.cfi_offset 14, -4
  32:Core/Src/i2s.c **** 
  33:Core/Src/i2s.c ****   /* USER CODE BEGIN I2S3_Init 0 */
  34:Core/Src/i2s.c **** 
  35:Core/Src/i2s.c ****   /* USER CODE END I2S3_Init 0 */
  36:Core/Src/i2s.c **** 
  37:Core/Src/i2s.c ****   /* USER CODE BEGIN I2S3_Init 1 */
  38:Core/Src/i2s.c **** 
  39:Core/Src/i2s.c ****   /* USER CODE END I2S3_Init 1 */
  40:Core/Src/i2s.c ****   hi2s3.Instance = SPI3;
  37              		.loc 1 40 3 view .LVU1
  38              		.loc 1 40 18 is_stmt 0 view .LVU2
  39 0002 0B48     		ldr	r0, .L5
  40 0004 0B4B     		ldr	r3, .L5+4
  41 0006 0360     		str	r3, [r0]
  41:Core/Src/i2s.c ****   hi2s3.Init.Mode = I2S_MODE_MASTER_TX;
  42              		.loc 1 41 3 is_stmt 1 view .LVU3
  43              		.loc 1 41 19 is_stmt 0 view .LVU4
  44 0008 4FF40072 		mov	r2, #512
  45 000c 4260     		str	r2, [r0, #4]
  42:Core/Src/i2s.c ****   hi2s3.Init.Standard = I2S_STANDARD_PHILIPS;
  46              		.loc 1 42 3 is_stmt 1 view .LVU5
  47              		.loc 1 42 23 is_stmt 0 view .LVU6
  48 000e 0023     		movs	r3, #0
  49 0010 8360     		str	r3, [r0, #8]
  43:Core/Src/i2s.c ****   hi2s3.Init.DataFormat = I2S_DATAFORMAT_16B;
  50              		.loc 1 43 3 is_stmt 1 view .LVU7
  51              		.loc 1 43 25 is_stmt 0 view .LVU8
  52 0012 C360     		str	r3, [r0, #12]
  44:Core/Src/i2s.c ****   hi2s3.Init.MCLKOutput = I2S_MCLKOUTPUT_ENABLE;
  53              		.loc 1 44 3 is_stmt 1 view .LVU9
  54              		.loc 1 44 25 is_stmt 0 view .LVU10
  55 0014 0261     		str	r2, [r0, #16]
  45:Core/Src/i2s.c ****   hi2s3.Init.AudioFreq = I2S_AUDIOFREQ_48K;
  56              		.loc 1 45 3 is_stmt 1 view .LVU11
  57              		.loc 1 45 24 is_stmt 0 view .LVU12
  58 0016 4BF68032 		movw	r2, #48000
  59 001a 4261     		str	r2, [r0, #20]
  46:Core/Src/i2s.c ****   hi2s3.Init.CPOL = I2S_CPOL_LOW;
  60              		.loc 1 46 3 is_stmt 1 view .LVU13
  61              		.loc 1 46 19 is_stmt 0 view .LVU14
  62 001c 8361     		str	r3, [r0, #24]
  47:Core/Src/i2s.c ****   hi2s3.Init.ClockSource = I2S_CLOCK_PLL;
  63              		.loc 1 47 3 is_stmt 1 view .LVU15
  64              		.loc 1 47 26 is_stmt 0 view .LVU16
  65 001e C361     		str	r3, [r0, #28]
  48:Core/Src/i2s.c ****   hi2s3.Init.FullDuplexMode = I2S_FULLDUPLEXMODE_DISABLE;
  66              		.loc 1 48 3 is_stmt 1 view .LVU17
  67              		.loc 1 48 29 is_stmt 0 view .LVU18
ARM GAS  /var/folders/0z/tsy30v1j4xl4_7kw94k978ww0000gn/T//ccWGlR0I.s 			page 3


  68 0020 0362     		str	r3, [r0, #32]
  49:Core/Src/i2s.c ****   if (HAL_I2S_Init(&hi2s3) != HAL_OK)
  69              		.loc 1 49 3 is_stmt 1 view .LVU19
  70              		.loc 1 49 7 is_stmt 0 view .LVU20
  71 0022 FFF7FEFF 		bl	HAL_I2S_Init
  72              	.LVL0:
  73              		.loc 1 49 6 view .LVU21
  74 0026 00B9     		cbnz	r0, .L4
  75              	.L1:
  50:Core/Src/i2s.c ****   {
  51:Core/Src/i2s.c ****     Error_Handler();
  52:Core/Src/i2s.c ****   }
  53:Core/Src/i2s.c ****   /* USER CODE BEGIN I2S3_Init 2 */
  54:Core/Src/i2s.c **** 
  55:Core/Src/i2s.c ****   /* USER CODE END I2S3_Init 2 */
  56:Core/Src/i2s.c **** 
  57:Core/Src/i2s.c **** }
  76              		.loc 1 57 1 view .LVU22
  77 0028 08BD     		pop	{r3, pc}
  78              	.L4:
  51:Core/Src/i2s.c ****   }
  79              		.loc 1 51 5 is_stmt 1 view .LVU23
  80 002a FFF7FEFF 		bl	Error_Handler
  81              	.LVL1:
  82              		.loc 1 57 1 is_stmt 0 view .LVU24
  83 002e FBE7     		b	.L1
  84              	.L6:
  85              		.align	2
  86              	.L5:
  87 0030 00000000 		.word	.LANCHOR0
  88 0034 003C0040 		.word	1073757184
  89              		.cfi_endproc
  90              	.LFE133:
  92              		.section	.text.HAL_I2S_MspInit,"ax",%progbits
  93              		.align	1
  94              		.global	HAL_I2S_MspInit
  95              		.syntax unified
  96              		.thumb
  97              		.thumb_func
  99              	HAL_I2S_MspInit:
 100              	.LVL2:
 101              	.LFB134:
  58:Core/Src/i2s.c **** 
  59:Core/Src/i2s.c **** void HAL_I2S_MspInit(I2S_HandleTypeDef* i2sHandle)
  60:Core/Src/i2s.c **** {
 102              		.loc 1 60 1 is_stmt 1 view -0
 103              		.cfi_startproc
 104              		@ args = 0, pretend = 0, frame = 48
 105              		@ frame_needed = 0, uses_anonymous_args = 0
 106              		.loc 1 60 1 is_stmt 0 view .LVU26
 107 0000 70B5     		push	{r4, r5, r6, lr}
 108              		.cfi_def_cfa_offset 16
 109              		.cfi_offset 4, -16
 110              		.cfi_offset 5, -12
 111              		.cfi_offset 6, -8
 112              		.cfi_offset 14, -4
 113 0002 8CB0     		sub	sp, sp, #48
ARM GAS  /var/folders/0z/tsy30v1j4xl4_7kw94k978ww0000gn/T//ccWGlR0I.s 			page 4


 114              		.cfi_def_cfa_offset 64
  61:Core/Src/i2s.c **** 
  62:Core/Src/i2s.c ****   GPIO_InitTypeDef GPIO_InitStruct = {0};
 115              		.loc 1 62 3 is_stmt 1 view .LVU27
 116              		.loc 1 62 20 is_stmt 0 view .LVU28
 117 0004 0023     		movs	r3, #0
 118 0006 0793     		str	r3, [sp, #28]
 119 0008 0893     		str	r3, [sp, #32]
 120 000a 0993     		str	r3, [sp, #36]
 121 000c 0A93     		str	r3, [sp, #40]
 122 000e 0B93     		str	r3, [sp, #44]
  63:Core/Src/i2s.c ****   RCC_PeriphCLKInitTypeDef PeriphClkInitStruct = {0};
 123              		.loc 1 63 3 is_stmt 1 view .LVU29
 124              		.loc 1 63 28 is_stmt 0 view .LVU30
 125 0010 0393     		str	r3, [sp, #12]
 126 0012 0493     		str	r3, [sp, #16]
 127 0014 0593     		str	r3, [sp, #20]
 128 0016 0693     		str	r3, [sp, #24]
  64:Core/Src/i2s.c ****   if(i2sHandle->Instance==SPI3)
 129              		.loc 1 64 3 is_stmt 1 view .LVU31
 130              		.loc 1 64 15 is_stmt 0 view .LVU32
 131 0018 0268     		ldr	r2, [r0]
 132              		.loc 1 64 5 view .LVU33
 133 001a 254B     		ldr	r3, .L13
 134 001c 9A42     		cmp	r2, r3
 135 001e 01D0     		beq	.L11
 136              	.LVL3:
 137              	.L7:
  65:Core/Src/i2s.c ****   {
  66:Core/Src/i2s.c ****   /* USER CODE BEGIN SPI3_MspInit 0 */
  67:Core/Src/i2s.c **** 
  68:Core/Src/i2s.c ****   /* USER CODE END SPI3_MspInit 0 */
  69:Core/Src/i2s.c **** 
  70:Core/Src/i2s.c ****   /** Initializes the peripherals clock
  71:Core/Src/i2s.c ****   */
  72:Core/Src/i2s.c ****     PeriphClkInitStruct.PeriphClockSelection = RCC_PERIPHCLK_I2S;
  73:Core/Src/i2s.c ****     PeriphClkInitStruct.PLLI2S.PLLI2SN = 197;
  74:Core/Src/i2s.c ****     PeriphClkInitStruct.PLLI2S.PLLI2SR = 2;
  75:Core/Src/i2s.c ****     if (HAL_RCCEx_PeriphCLKConfig(&PeriphClkInitStruct) != HAL_OK)
  76:Core/Src/i2s.c ****     {
  77:Core/Src/i2s.c ****       Error_Handler();
  78:Core/Src/i2s.c ****     }
  79:Core/Src/i2s.c **** 
  80:Core/Src/i2s.c ****     /* I2S3 clock enable */
  81:Core/Src/i2s.c ****     __HAL_RCC_SPI3_CLK_ENABLE();
  82:Core/Src/i2s.c **** 
  83:Core/Src/i2s.c ****     __HAL_RCC_GPIOA_CLK_ENABLE();
  84:Core/Src/i2s.c ****     __HAL_RCC_GPIOC_CLK_ENABLE();
  85:Core/Src/i2s.c ****     /**I2S3 GPIO Configuration
  86:Core/Src/i2s.c ****     PA4     ------> I2S3_WS
  87:Core/Src/i2s.c ****     PC7     ------> I2S3_MCK
  88:Core/Src/i2s.c ****     PC10     ------> I2S3_CK
  89:Core/Src/i2s.c ****     PC12     ------> I2S3_SD
  90:Core/Src/i2s.c ****     */
  91:Core/Src/i2s.c ****     GPIO_InitStruct.Pin = I2S3_WS_Pin;
  92:Core/Src/i2s.c ****     GPIO_InitStruct.Mode = GPIO_MODE_AF_PP;
  93:Core/Src/i2s.c ****     GPIO_InitStruct.Pull = GPIO_NOPULL;
ARM GAS  /var/folders/0z/tsy30v1j4xl4_7kw94k978ww0000gn/T//ccWGlR0I.s 			page 5


  94:Core/Src/i2s.c ****     GPIO_InitStruct.Speed = GPIO_SPEED_FREQ_LOW;
  95:Core/Src/i2s.c ****     GPIO_InitStruct.Alternate = GPIO_AF6_SPI3;
  96:Core/Src/i2s.c ****     HAL_GPIO_Init(I2S3_WS_GPIO_Port, &GPIO_InitStruct);
  97:Core/Src/i2s.c **** 
  98:Core/Src/i2s.c ****     GPIO_InitStruct.Pin = I2S3_MCK_Pin|I2S3_SCK_Pin|I2S3_SD_Pin;
  99:Core/Src/i2s.c ****     GPIO_InitStruct.Mode = GPIO_MODE_AF_PP;
 100:Core/Src/i2s.c ****     GPIO_InitStruct.Pull = GPIO_NOPULL;
 101:Core/Src/i2s.c ****     GPIO_InitStruct.Speed = GPIO_SPEED_FREQ_LOW;
 102:Core/Src/i2s.c ****     GPIO_InitStruct.Alternate = GPIO_AF6_SPI3;
 103:Core/Src/i2s.c ****     HAL_GPIO_Init(GPIOC, &GPIO_InitStruct);
 104:Core/Src/i2s.c **** 
 105:Core/Src/i2s.c ****   /* USER CODE BEGIN SPI3_MspInit 1 */
 106:Core/Src/i2s.c **** 
 107:Core/Src/i2s.c ****   /* USER CODE END SPI3_MspInit 1 */
 108:Core/Src/i2s.c ****   }
 109:Core/Src/i2s.c **** }
 138              		.loc 1 109 1 view .LVU34
 139 0020 0CB0     		add	sp, sp, #48
 140              		.cfi_remember_state
 141              		.cfi_def_cfa_offset 16
 142              		@ sp needed
 143 0022 70BD     		pop	{r4, r5, r6, pc}
 144              	.LVL4:
 145              	.L11:
 146              		.cfi_restore_state
  72:Core/Src/i2s.c ****     PeriphClkInitStruct.PLLI2S.PLLI2SN = 197;
 147              		.loc 1 72 5 is_stmt 1 view .LVU35
  72:Core/Src/i2s.c ****     PeriphClkInitStruct.PLLI2S.PLLI2SN = 197;
 148              		.loc 1 72 46 is_stmt 0 view .LVU36
 149 0024 0123     		movs	r3, #1
 150 0026 0393     		str	r3, [sp, #12]
  73:Core/Src/i2s.c ****     PeriphClkInitStruct.PLLI2S.PLLI2SR = 2;
 151              		.loc 1 73 5 is_stmt 1 view .LVU37
  73:Core/Src/i2s.c ****     PeriphClkInitStruct.PLLI2S.PLLI2SR = 2;
 152              		.loc 1 73 40 is_stmt 0 view .LVU38
 153 0028 C523     		movs	r3, #197
 154 002a 0493     		str	r3, [sp, #16]
  74:Core/Src/i2s.c ****     if (HAL_RCCEx_PeriphCLKConfig(&PeriphClkInitStruct) != HAL_OK)
 155              		.loc 1 74 5 is_stmt 1 view .LVU39
  74:Core/Src/i2s.c ****     if (HAL_RCCEx_PeriphCLKConfig(&PeriphClkInitStruct) != HAL_OK)
 156              		.loc 1 74 40 is_stmt 0 view .LVU40
 157 002c 0223     		movs	r3, #2
 158 002e 0593     		str	r3, [sp, #20]
  75:Core/Src/i2s.c ****     {
 159              		.loc 1 75 5 is_stmt 1 view .LVU41
  75:Core/Src/i2s.c ****     {
 160              		.loc 1 75 9 is_stmt 0 view .LVU42
 161 0030 03A8     		add	r0, sp, #12
 162              	.LVL5:
  75:Core/Src/i2s.c ****     {
 163              		.loc 1 75 9 view .LVU43
 164 0032 FFF7FEFF 		bl	HAL_RCCEx_PeriphCLKConfig
 165              	.LVL6:
  75:Core/Src/i2s.c ****     {
 166              		.loc 1 75 8 view .LVU44
 167 0036 0028     		cmp	r0, #0
 168 0038 37D1     		bne	.L12
ARM GAS  /var/folders/0z/tsy30v1j4xl4_7kw94k978ww0000gn/T//ccWGlR0I.s 			page 6


 169              	.L9:
  81:Core/Src/i2s.c **** 
 170              		.loc 1 81 5 is_stmt 1 view .LVU45
 171              	.LBB2:
  81:Core/Src/i2s.c **** 
 172              		.loc 1 81 5 view .LVU46
 173 003a 0024     		movs	r4, #0
 174 003c 0094     		str	r4, [sp]
  81:Core/Src/i2s.c **** 
 175              		.loc 1 81 5 view .LVU47
 176 003e 1D4B     		ldr	r3, .L13+4
 177 0040 1A6C     		ldr	r2, [r3, #64]
 178 0042 42F40042 		orr	r2, r2, #32768
 179 0046 1A64     		str	r2, [r3, #64]
  81:Core/Src/i2s.c **** 
 180              		.loc 1 81 5 view .LVU48
 181 0048 1A6C     		ldr	r2, [r3, #64]
 182 004a 02F40042 		and	r2, r2, #32768
 183 004e 0092     		str	r2, [sp]
  81:Core/Src/i2s.c **** 
 184              		.loc 1 81 5 view .LVU49
 185 0050 009A     		ldr	r2, [sp]
 186              	.LBE2:
  81:Core/Src/i2s.c **** 
 187              		.loc 1 81 5 view .LVU50
  83:Core/Src/i2s.c ****     __HAL_RCC_GPIOC_CLK_ENABLE();
 188              		.loc 1 83 5 view .LVU51
 189              	.LBB3:
  83:Core/Src/i2s.c ****     __HAL_RCC_GPIOC_CLK_ENABLE();
 190              		.loc 1 83 5 view .LVU52
 191 0052 0194     		str	r4, [sp, #4]
  83:Core/Src/i2s.c ****     __HAL_RCC_GPIOC_CLK_ENABLE();
 192              		.loc 1 83 5 view .LVU53
 193 0054 1A6B     		ldr	r2, [r3, #48]
 194 0056 42F00102 		orr	r2, r2, #1
 195 005a 1A63     		str	r2, [r3, #48]
  83:Core/Src/i2s.c ****     __HAL_RCC_GPIOC_CLK_ENABLE();
 196              		.loc 1 83 5 view .LVU54
 197 005c 1A6B     		ldr	r2, [r3, #48]
 198 005e 02F00102 		and	r2, r2, #1
 199 0062 0192     		str	r2, [sp, #4]
  83:Core/Src/i2s.c ****     __HAL_RCC_GPIOC_CLK_ENABLE();
 200              		.loc 1 83 5 view .LVU55
 201 0064 019A     		ldr	r2, [sp, #4]
 202              	.LBE3:
  83:Core/Src/i2s.c ****     __HAL_RCC_GPIOC_CLK_ENABLE();
 203              		.loc 1 83 5 view .LVU56
  84:Core/Src/i2s.c ****     /**I2S3 GPIO Configuration
 204              		.loc 1 84 5 view .LVU57
 205              	.LBB4:
  84:Core/Src/i2s.c ****     /**I2S3 GPIO Configuration
 206              		.loc 1 84 5 view .LVU58
 207 0066 0294     		str	r4, [sp, #8]
  84:Core/Src/i2s.c ****     /**I2S3 GPIO Configuration
 208              		.loc 1 84 5 view .LVU59
 209 0068 1A6B     		ldr	r2, [r3, #48]
 210 006a 42F00402 		orr	r2, r2, #4
ARM GAS  /var/folders/0z/tsy30v1j4xl4_7kw94k978ww0000gn/T//ccWGlR0I.s 			page 7


 211 006e 1A63     		str	r2, [r3, #48]
  84:Core/Src/i2s.c ****     /**I2S3 GPIO Configuration
 212              		.loc 1 84 5 view .LVU60
 213 0070 1B6B     		ldr	r3, [r3, #48]
 214 0072 03F00403 		and	r3, r3, #4
 215 0076 0293     		str	r3, [sp, #8]
  84:Core/Src/i2s.c ****     /**I2S3 GPIO Configuration
 216              		.loc 1 84 5 view .LVU61
 217 0078 029B     		ldr	r3, [sp, #8]
 218              	.LBE4:
  84:Core/Src/i2s.c ****     /**I2S3 GPIO Configuration
 219              		.loc 1 84 5 view .LVU62
  91:Core/Src/i2s.c ****     GPIO_InitStruct.Mode = GPIO_MODE_AF_PP;
 220              		.loc 1 91 5 view .LVU63
  91:Core/Src/i2s.c ****     GPIO_InitStruct.Mode = GPIO_MODE_AF_PP;
 221              		.loc 1 91 25 is_stmt 0 view .LVU64
 222 007a 1023     		movs	r3, #16
 223 007c 0793     		str	r3, [sp, #28]
  92:Core/Src/i2s.c ****     GPIO_InitStruct.Pull = GPIO_NOPULL;
 224              		.loc 1 92 5 is_stmt 1 view .LVU65
  92:Core/Src/i2s.c ****     GPIO_InitStruct.Pull = GPIO_NOPULL;
 225              		.loc 1 92 26 is_stmt 0 view .LVU66
 226 007e 0226     		movs	r6, #2
 227 0080 0896     		str	r6, [sp, #32]
  93:Core/Src/i2s.c ****     GPIO_InitStruct.Speed = GPIO_SPEED_FREQ_LOW;
 228              		.loc 1 93 5 is_stmt 1 view .LVU67
  93:Core/Src/i2s.c ****     GPIO_InitStruct.Speed = GPIO_SPEED_FREQ_LOW;
 229              		.loc 1 93 26 is_stmt 0 view .LVU68
 230 0082 0994     		str	r4, [sp, #36]
  94:Core/Src/i2s.c ****     GPIO_InitStruct.Alternate = GPIO_AF6_SPI3;
 231              		.loc 1 94 5 is_stmt 1 view .LVU69
  94:Core/Src/i2s.c ****     GPIO_InitStruct.Alternate = GPIO_AF6_SPI3;
 232              		.loc 1 94 27 is_stmt 0 view .LVU70
 233 0084 0A94     		str	r4, [sp, #40]
  95:Core/Src/i2s.c ****     HAL_GPIO_Init(I2S3_WS_GPIO_Port, &GPIO_InitStruct);
 234              		.loc 1 95 5 is_stmt 1 view .LVU71
  95:Core/Src/i2s.c ****     HAL_GPIO_Init(I2S3_WS_GPIO_Port, &GPIO_InitStruct);
 235              		.loc 1 95 31 is_stmt 0 view .LVU72
 236 0086 0625     		movs	r5, #6
 237 0088 0B95     		str	r5, [sp, #44]
  96:Core/Src/i2s.c **** 
 238              		.loc 1 96 5 is_stmt 1 view .LVU73
 239 008a 07A9     		add	r1, sp, #28
 240 008c 0A48     		ldr	r0, .L13+8
 241 008e FFF7FEFF 		bl	HAL_GPIO_Init
 242              	.LVL7:
  98:Core/Src/i2s.c ****     GPIO_InitStruct.Mode = GPIO_MODE_AF_PP;
 243              		.loc 1 98 5 view .LVU74
  98:Core/Src/i2s.c ****     GPIO_InitStruct.Mode = GPIO_MODE_AF_PP;
 244              		.loc 1 98 25 is_stmt 0 view .LVU75
 245 0092 4FF4A453 		mov	r3, #5248
 246 0096 0793     		str	r3, [sp, #28]
  99:Core/Src/i2s.c ****     GPIO_InitStruct.Pull = GPIO_NOPULL;
 247              		.loc 1 99 5 is_stmt 1 view .LVU76
  99:Core/Src/i2s.c ****     GPIO_InitStruct.Pull = GPIO_NOPULL;
 248              		.loc 1 99 26 is_stmt 0 view .LVU77
 249 0098 0896     		str	r6, [sp, #32]
ARM GAS  /var/folders/0z/tsy30v1j4xl4_7kw94k978ww0000gn/T//ccWGlR0I.s 			page 8


 100:Core/Src/i2s.c ****     GPIO_InitStruct.Speed = GPIO_SPEED_FREQ_LOW;
 250              		.loc 1 100 5 is_stmt 1 view .LVU78
 100:Core/Src/i2s.c ****     GPIO_InitStruct.Speed = GPIO_SPEED_FREQ_LOW;
 251              		.loc 1 100 26 is_stmt 0 view .LVU79
 252 009a 0994     		str	r4, [sp, #36]
 101:Core/Src/i2s.c ****     GPIO_InitStruct.Alternate = GPIO_AF6_SPI3;
 253              		.loc 1 101 5 is_stmt 1 view .LVU80
 101:Core/Src/i2s.c ****     GPIO_InitStruct.Alternate = GPIO_AF6_SPI3;
 254              		.loc 1 101 27 is_stmt 0 view .LVU81
 255 009c 0A94     		str	r4, [sp, #40]
 102:Core/Src/i2s.c ****     HAL_GPIO_Init(GPIOC, &GPIO_InitStruct);
 256              		.loc 1 102 5 is_stmt 1 view .LVU82
 102:Core/Src/i2s.c ****     HAL_GPIO_Init(GPIOC, &GPIO_InitStruct);
 257              		.loc 1 102 31 is_stmt 0 view .LVU83
 258 009e 0B95     		str	r5, [sp, #44]
 103:Core/Src/i2s.c **** 
 259              		.loc 1 103 5 is_stmt 1 view .LVU84
 260 00a0 07A9     		add	r1, sp, #28
 261 00a2 0648     		ldr	r0, .L13+12
 262 00a4 FFF7FEFF 		bl	HAL_GPIO_Init
 263              	.LVL8:
 264              		.loc 1 109 1 is_stmt 0 view .LVU85
 265 00a8 BAE7     		b	.L7
 266              	.L12:
  77:Core/Src/i2s.c ****     }
 267              		.loc 1 77 7 is_stmt 1 view .LVU86
 268 00aa FFF7FEFF 		bl	Error_Handler
 269              	.LVL9:
 270 00ae C4E7     		b	.L9
 271              	.L14:
 272              		.align	2
 273              	.L13:
 274 00b0 003C0040 		.word	1073757184
 275 00b4 00380240 		.word	1073887232
 276 00b8 00000240 		.word	1073872896
 277 00bc 00080240 		.word	1073874944
 278              		.cfi_endproc
 279              	.LFE134:
 281              		.section	.text.HAL_I2S_MspDeInit,"ax",%progbits
 282              		.align	1
 283              		.global	HAL_I2S_MspDeInit
 284              		.syntax unified
 285              		.thumb
 286              		.thumb_func
 288              	HAL_I2S_MspDeInit:
 289              	.LVL10:
 290              	.LFB135:
 110:Core/Src/i2s.c **** 
 111:Core/Src/i2s.c **** void HAL_I2S_MspDeInit(I2S_HandleTypeDef* i2sHandle)
 112:Core/Src/i2s.c **** {
 291              		.loc 1 112 1 view -0
 292              		.cfi_startproc
 293              		@ args = 0, pretend = 0, frame = 0
 294              		@ frame_needed = 0, uses_anonymous_args = 0
 295              		.loc 1 112 1 is_stmt 0 view .LVU88
 296 0000 08B5     		push	{r3, lr}
 297              		.cfi_def_cfa_offset 8
ARM GAS  /var/folders/0z/tsy30v1j4xl4_7kw94k978ww0000gn/T//ccWGlR0I.s 			page 9


 298              		.cfi_offset 3, -8
 299              		.cfi_offset 14, -4
 113:Core/Src/i2s.c **** 
 114:Core/Src/i2s.c ****   if(i2sHandle->Instance==SPI3)
 300              		.loc 1 114 3 is_stmt 1 view .LVU89
 301              		.loc 1 114 15 is_stmt 0 view .LVU90
 302 0002 0268     		ldr	r2, [r0]
 303              		.loc 1 114 5 view .LVU91
 304 0004 094B     		ldr	r3, .L19
 305 0006 9A42     		cmp	r2, r3
 306 0008 00D0     		beq	.L18
 307              	.LVL11:
 308              	.L15:
 115:Core/Src/i2s.c ****   {
 116:Core/Src/i2s.c ****   /* USER CODE BEGIN SPI3_MspDeInit 0 */
 117:Core/Src/i2s.c **** 
 118:Core/Src/i2s.c ****   /* USER CODE END SPI3_MspDeInit 0 */
 119:Core/Src/i2s.c ****     /* Peripheral clock disable */
 120:Core/Src/i2s.c ****     __HAL_RCC_SPI3_CLK_DISABLE();
 121:Core/Src/i2s.c **** 
 122:Core/Src/i2s.c ****     /**I2S3 GPIO Configuration
 123:Core/Src/i2s.c ****     PA4     ------> I2S3_WS
 124:Core/Src/i2s.c ****     PC7     ------> I2S3_MCK
 125:Core/Src/i2s.c ****     PC10     ------> I2S3_CK
 126:Core/Src/i2s.c ****     PC12     ------> I2S3_SD
 127:Core/Src/i2s.c ****     */
 128:Core/Src/i2s.c ****     HAL_GPIO_DeInit(I2S3_WS_GPIO_Port, I2S3_WS_Pin);
 129:Core/Src/i2s.c **** 
 130:Core/Src/i2s.c ****     HAL_GPIO_DeInit(GPIOC, I2S3_MCK_Pin|I2S3_SCK_Pin|I2S3_SD_Pin);
 131:Core/Src/i2s.c **** 
 132:Core/Src/i2s.c ****   /* USER CODE BEGIN SPI3_MspDeInit 1 */
 133:Core/Src/i2s.c **** 
 134:Core/Src/i2s.c ****   /* USER CODE END SPI3_MspDeInit 1 */
 135:Core/Src/i2s.c ****   }
 136:Core/Src/i2s.c **** }
 309              		.loc 1 136 1 view .LVU92
 310 000a 08BD     		pop	{r3, pc}
 311              	.LVL12:
 312              	.L18:
 120:Core/Src/i2s.c **** 
 313              		.loc 1 120 5 is_stmt 1 view .LVU93
 314 000c 084A     		ldr	r2, .L19+4
 315 000e 136C     		ldr	r3, [r2, #64]
 316 0010 23F40043 		bic	r3, r3, #32768
 317 0014 1364     		str	r3, [r2, #64]
 128:Core/Src/i2s.c **** 
 318              		.loc 1 128 5 view .LVU94
 319 0016 1021     		movs	r1, #16
 320 0018 0648     		ldr	r0, .L19+8
 321              	.LVL13:
 128:Core/Src/i2s.c **** 
 322              		.loc 1 128 5 is_stmt 0 view .LVU95
 323 001a FFF7FEFF 		bl	HAL_GPIO_DeInit
 324              	.LVL14:
 130:Core/Src/i2s.c **** 
 325              		.loc 1 130 5 is_stmt 1 view .LVU96
 326 001e 4FF4A451 		mov	r1, #5248
ARM GAS  /var/folders/0z/tsy30v1j4xl4_7kw94k978ww0000gn/T//ccWGlR0I.s 			page 10


 327 0022 0548     		ldr	r0, .L19+12
 328 0024 FFF7FEFF 		bl	HAL_GPIO_DeInit
 329              	.LVL15:
 330              		.loc 1 136 1 is_stmt 0 view .LVU97
 331 0028 EFE7     		b	.L15
 332              	.L20:
 333 002a 00BF     		.align	2
 334              	.L19:
 335 002c 003C0040 		.word	1073757184
 336 0030 00380240 		.word	1073887232
 337 0034 00000240 		.word	1073872896
 338 0038 00080240 		.word	1073874944
 339              		.cfi_endproc
 340              	.LFE135:
 342              		.global	hi2s3
 343              		.section	.bss.hi2s3,"aw",%nobits
 344              		.align	2
 345              		.set	.LANCHOR0,. + 0
 348              	hi2s3:
 349 0000 00000000 		.space	72
 349      00000000 
 349      00000000 
 349      00000000 
 349      00000000 
 350              		.text
 351              	.Letext0:
 352              		.file 2 "/Users/johannes/Library/Application Support/Code/User/globalStorage/bmd.stm32-for-vscode/
 353              		.file 3 "/Users/johannes/Library/Application Support/Code/User/globalStorage/bmd.stm32-for-vscode/
 354              		.file 4 "Drivers/CMSIS/Device/ST/STM32F4xx/Include/stm32f407xx.h"
 355              		.file 5 "Drivers/STM32F4xx_HAL_Driver/Inc/stm32f4xx_hal_def.h"
 356              		.file 6 "Drivers/STM32F4xx_HAL_Driver/Inc/stm32f4xx_hal_rcc_ex.h"
 357              		.file 7 "Drivers/STM32F4xx_HAL_Driver/Inc/stm32f4xx_hal_gpio.h"
 358              		.file 8 "Drivers/STM32F4xx_HAL_Driver/Inc/stm32f4xx_hal_dma.h"
 359              		.file 9 "Drivers/STM32F4xx_HAL_Driver/Inc/stm32f4xx_hal_i2s.h"
 360              		.file 10 "Core/Inc/envelope.h"
 361              		.file 11 "Core/Inc/i2s.h"
 362              		.file 12 "Core/Inc/main.h"
ARM GAS  /var/folders/0z/tsy30v1j4xl4_7kw94k978ww0000gn/T//ccWGlR0I.s 			page 11

