ARM GAS  /var/folders/0z/tsy30v1j4xl4_7kw94k978ww0000gn/T//ccRlqNXm.s 			page 1


   1              		.cpu cortex-m4
   2              		.arch armv7e-m
   3              		.fpu fpv4-sp-d16
   4              		.eabi_attribute 27, 1
   5              		.eabi_attribute 28, 1
   6              		.eabi_attribute 20, 1
   7              		.eabi_attribute 21, 1
   8              		.eabi_attribute 23, 3
   9              		.eabi_attribute 24, 1
  10              		.eabi_attribute 25, 1
  11              		.eabi_attribute 26, 1
  12              		.eabi_attribute 30, 1
  13              		.eabi_attribute 34, 1
  14              		.eabi_attribute 18, 4
  15              		.file	"ili9325.c"
  16              		.text
  17              	.Ltext0:
  18              		.cfi_sections	.debug_frame
  19              		.section	.text.ili9325_GetLcdPixelWidth,"ax",%progbits
  20              		.align	1
  21              		.global	ili9325_GetLcdPixelWidth
  22              		.syntax unified
  23              		.thumb
  24              		.thumb_func
  26              	ili9325_GetLcdPixelWidth:
  27              	.LFB3:
  28              		.file 1 "Drivers/BSP/Components/ili9325/ili9325.c"
   1:Drivers/BSP/Components/ili9325/ili9325.c **** /**
   2:Drivers/BSP/Components/ili9325/ili9325.c ****   ******************************************************************************
   3:Drivers/BSP/Components/ili9325/ili9325.c ****   * @file    ili9325.c
   4:Drivers/BSP/Components/ili9325/ili9325.c ****   * @author  MCD Application Team
   5:Drivers/BSP/Components/ili9325/ili9325.c ****   * @version V1.2.3
   6:Drivers/BSP/Components/ili9325/ili9325.c ****   * @date    03-May-2016
   7:Drivers/BSP/Components/ili9325/ili9325.c ****   * @brief   This file includes the LCD driver for ILI9325 LCD.
   8:Drivers/BSP/Components/ili9325/ili9325.c ****   ******************************************************************************
   9:Drivers/BSP/Components/ili9325/ili9325.c ****   * @attention
  10:Drivers/BSP/Components/ili9325/ili9325.c ****   *
  11:Drivers/BSP/Components/ili9325/ili9325.c ****   * <h2><center>&copy; COPYRIGHT(c) 2016 STMicroelectronics</center></h2>
  12:Drivers/BSP/Components/ili9325/ili9325.c ****   *
  13:Drivers/BSP/Components/ili9325/ili9325.c ****   * Redistribution and use in source and binary forms, with or without modification,
  14:Drivers/BSP/Components/ili9325/ili9325.c ****   * are permitted provided that the following conditions are met:
  15:Drivers/BSP/Components/ili9325/ili9325.c ****   *   1. Redistributions of source code must retain the above copyright notice,
  16:Drivers/BSP/Components/ili9325/ili9325.c ****   *      this list of conditions and the following disclaimer.
  17:Drivers/BSP/Components/ili9325/ili9325.c ****   *   2. Redistributions in binary form must reproduce the above copyright notice,
  18:Drivers/BSP/Components/ili9325/ili9325.c ****   *      this list of conditions and the following disclaimer in the documentation
  19:Drivers/BSP/Components/ili9325/ili9325.c ****   *      and/or other materials provided with the distribution.
  20:Drivers/BSP/Components/ili9325/ili9325.c ****   *   3. Neither the name of STMicroelectronics nor the names of its contributors
  21:Drivers/BSP/Components/ili9325/ili9325.c ****   *      may be used to endorse or promote products derived from this software
  22:Drivers/BSP/Components/ili9325/ili9325.c ****   *      without specific prior written permission.
  23:Drivers/BSP/Components/ili9325/ili9325.c ****   *
  24:Drivers/BSP/Components/ili9325/ili9325.c ****   * THIS SOFTWARE IS PROVIDED BY THE COPYRIGHT HOLDERS AND CONTRIBUTORS "AS IS"
  25:Drivers/BSP/Components/ili9325/ili9325.c ****   * AND ANY EXPRESS OR IMPLIED WARRANTIES, INCLUDING, BUT NOT LIMITED TO, THE
  26:Drivers/BSP/Components/ili9325/ili9325.c ****   * IMPLIED WARRANTIES OF MERCHANTABILITY AND FITNESS FOR A PARTICULAR PURPOSE ARE
  27:Drivers/BSP/Components/ili9325/ili9325.c ****   * DISCLAIMED. IN NO EVENT SHALL THE COPYRIGHT HOLDER OR CONTRIBUTORS BE LIABLE
  28:Drivers/BSP/Components/ili9325/ili9325.c ****   * FOR ANY DIRECT, INDIRECT, INCIDENTAL, SPECIAL, EXEMPLARY, OR CONSEQUENTIAL
  29:Drivers/BSP/Components/ili9325/ili9325.c ****   * DAMAGES (INCLUDING, BUT NOT LIMITED TO, PROCUREMENT OF SUBSTITUTE GOODS OR
  30:Drivers/BSP/Components/ili9325/ili9325.c ****   * SERVICES; LOSS OF USE, DATA, OR PROFITS; OR BUSINESS INTERRUPTION) HOWEVER
ARM GAS  /var/folders/0z/tsy30v1j4xl4_7kw94k978ww0000gn/T//ccRlqNXm.s 			page 2


  31:Drivers/BSP/Components/ili9325/ili9325.c ****   * CAUSED AND ON ANY THEORY OF LIABILITY, WHETHER IN CONTRACT, STRICT LIABILITY,
  32:Drivers/BSP/Components/ili9325/ili9325.c ****   * OR TORT (INCLUDING NEGLIGENCE OR OTHERWISE) ARISING IN ANY WAY OUT OF THE USE
  33:Drivers/BSP/Components/ili9325/ili9325.c ****   * OF THIS SOFTWARE, EVEN IF ADVISED OF THE POSSIBILITY OF SUCH DAMAGE.
  34:Drivers/BSP/Components/ili9325/ili9325.c ****   *
  35:Drivers/BSP/Components/ili9325/ili9325.c ****   ******************************************************************************
  36:Drivers/BSP/Components/ili9325/ili9325.c ****   */ 
  37:Drivers/BSP/Components/ili9325/ili9325.c **** 
  38:Drivers/BSP/Components/ili9325/ili9325.c **** /* Includes ------------------------------------------------------------------*/
  39:Drivers/BSP/Components/ili9325/ili9325.c **** #include "ili9325.h"
  40:Drivers/BSP/Components/ili9325/ili9325.c **** 
  41:Drivers/BSP/Components/ili9325/ili9325.c **** /** @addtogroup BSP
  42:Drivers/BSP/Components/ili9325/ili9325.c ****   * @{
  43:Drivers/BSP/Components/ili9325/ili9325.c ****   */ 
  44:Drivers/BSP/Components/ili9325/ili9325.c **** 
  45:Drivers/BSP/Components/ili9325/ili9325.c **** /** @addtogroup Components
  46:Drivers/BSP/Components/ili9325/ili9325.c ****   * @{
  47:Drivers/BSP/Components/ili9325/ili9325.c ****   */ 
  48:Drivers/BSP/Components/ili9325/ili9325.c ****   
  49:Drivers/BSP/Components/ili9325/ili9325.c **** /** @addtogroup ili9325
  50:Drivers/BSP/Components/ili9325/ili9325.c ****   * @brief     This file provides a set of functions needed to drive the 
  51:Drivers/BSP/Components/ili9325/ili9325.c ****   *            ILI9325 LCD.
  52:Drivers/BSP/Components/ili9325/ili9325.c ****   * @{
  53:Drivers/BSP/Components/ili9325/ili9325.c ****   */
  54:Drivers/BSP/Components/ili9325/ili9325.c **** 
  55:Drivers/BSP/Components/ili9325/ili9325.c **** /** @defgroup ILI9325_Private_TypesDefinitions
  56:Drivers/BSP/Components/ili9325/ili9325.c ****   * @{
  57:Drivers/BSP/Components/ili9325/ili9325.c ****   */ 
  58:Drivers/BSP/Components/ili9325/ili9325.c **** 
  59:Drivers/BSP/Components/ili9325/ili9325.c **** /**
  60:Drivers/BSP/Components/ili9325/ili9325.c ****   * @}
  61:Drivers/BSP/Components/ili9325/ili9325.c ****   */ 
  62:Drivers/BSP/Components/ili9325/ili9325.c **** 
  63:Drivers/BSP/Components/ili9325/ili9325.c **** /** @defgroup ILI9325_Private_Defines
  64:Drivers/BSP/Components/ili9325/ili9325.c ****   * @{
  65:Drivers/BSP/Components/ili9325/ili9325.c ****   */
  66:Drivers/BSP/Components/ili9325/ili9325.c **** 
  67:Drivers/BSP/Components/ili9325/ili9325.c **** /**
  68:Drivers/BSP/Components/ili9325/ili9325.c ****   * @}
  69:Drivers/BSP/Components/ili9325/ili9325.c ****   */ 
  70:Drivers/BSP/Components/ili9325/ili9325.c ****   
  71:Drivers/BSP/Components/ili9325/ili9325.c **** /** @defgroup ILI9325_Private_Macros
  72:Drivers/BSP/Components/ili9325/ili9325.c ****   * @{
  73:Drivers/BSP/Components/ili9325/ili9325.c ****   */
  74:Drivers/BSP/Components/ili9325/ili9325.c ****      
  75:Drivers/BSP/Components/ili9325/ili9325.c **** /**
  76:Drivers/BSP/Components/ili9325/ili9325.c ****   * @}
  77:Drivers/BSP/Components/ili9325/ili9325.c ****   */  
  78:Drivers/BSP/Components/ili9325/ili9325.c **** 
  79:Drivers/BSP/Components/ili9325/ili9325.c **** /** @defgroup ILI9325_Private_Variables
  80:Drivers/BSP/Components/ili9325/ili9325.c ****   * @{
  81:Drivers/BSP/Components/ili9325/ili9325.c ****   */ 
  82:Drivers/BSP/Components/ili9325/ili9325.c **** LCD_DrvTypeDef   ili9325_drv = 
  83:Drivers/BSP/Components/ili9325/ili9325.c **** {
  84:Drivers/BSP/Components/ili9325/ili9325.c ****   ili9325_Init,
  85:Drivers/BSP/Components/ili9325/ili9325.c ****   ili9325_ReadID,
  86:Drivers/BSP/Components/ili9325/ili9325.c ****   ili9325_DisplayOn,
  87:Drivers/BSP/Components/ili9325/ili9325.c ****   ili9325_DisplayOff,
ARM GAS  /var/folders/0z/tsy30v1j4xl4_7kw94k978ww0000gn/T//ccRlqNXm.s 			page 3


  88:Drivers/BSP/Components/ili9325/ili9325.c ****   ili9325_SetCursor,
  89:Drivers/BSP/Components/ili9325/ili9325.c ****   ili9325_WritePixel,
  90:Drivers/BSP/Components/ili9325/ili9325.c ****   ili9325_ReadPixel,
  91:Drivers/BSP/Components/ili9325/ili9325.c ****   ili9325_SetDisplayWindow,
  92:Drivers/BSP/Components/ili9325/ili9325.c ****   ili9325_DrawHLine,
  93:Drivers/BSP/Components/ili9325/ili9325.c ****   ili9325_DrawVLine,
  94:Drivers/BSP/Components/ili9325/ili9325.c ****   ili9325_GetLcdPixelWidth,
  95:Drivers/BSP/Components/ili9325/ili9325.c ****   ili9325_GetLcdPixelHeight,
  96:Drivers/BSP/Components/ili9325/ili9325.c ****   ili9325_DrawBitmap,
  97:Drivers/BSP/Components/ili9325/ili9325.c ****   ili9325_DrawRGBImage,  
  98:Drivers/BSP/Components/ili9325/ili9325.c **** };
  99:Drivers/BSP/Components/ili9325/ili9325.c **** 
 100:Drivers/BSP/Components/ili9325/ili9325.c **** static uint16_t ArrayRGB[320] = {0};
 101:Drivers/BSP/Components/ili9325/ili9325.c **** /**
 102:Drivers/BSP/Components/ili9325/ili9325.c ****   * @}
 103:Drivers/BSP/Components/ili9325/ili9325.c ****   */ 
 104:Drivers/BSP/Components/ili9325/ili9325.c ****   
 105:Drivers/BSP/Components/ili9325/ili9325.c **** /** @defgroup ILI9325_Private_FunctionPrototypes
 106:Drivers/BSP/Components/ili9325/ili9325.c ****   * @{
 107:Drivers/BSP/Components/ili9325/ili9325.c ****   */
 108:Drivers/BSP/Components/ili9325/ili9325.c **** 
 109:Drivers/BSP/Components/ili9325/ili9325.c **** /**
 110:Drivers/BSP/Components/ili9325/ili9325.c ****   * @}
 111:Drivers/BSP/Components/ili9325/ili9325.c ****   */ 
 112:Drivers/BSP/Components/ili9325/ili9325.c ****   
 113:Drivers/BSP/Components/ili9325/ili9325.c **** /** @defgroup ILI9325_Private_Functions
 114:Drivers/BSP/Components/ili9325/ili9325.c ****   * @{
 115:Drivers/BSP/Components/ili9325/ili9325.c ****   */   
 116:Drivers/BSP/Components/ili9325/ili9325.c **** 
 117:Drivers/BSP/Components/ili9325/ili9325.c **** /**
 118:Drivers/BSP/Components/ili9325/ili9325.c ****   * @brief  Initialize the ILI9325 LCD Component.
 119:Drivers/BSP/Components/ili9325/ili9325.c ****   * @param  None
 120:Drivers/BSP/Components/ili9325/ili9325.c ****   * @retval None
 121:Drivers/BSP/Components/ili9325/ili9325.c ****   */
 122:Drivers/BSP/Components/ili9325/ili9325.c **** void ili9325_Init(void)
 123:Drivers/BSP/Components/ili9325/ili9325.c **** {  
 124:Drivers/BSP/Components/ili9325/ili9325.c ****   /* Initialize ILI9325 low level bus layer ----------------------------------*/
 125:Drivers/BSP/Components/ili9325/ili9325.c ****   LCD_IO_Init();
 126:Drivers/BSP/Components/ili9325/ili9325.c ****   
 127:Drivers/BSP/Components/ili9325/ili9325.c ****   /* Start Initial Sequence --------------------------------------------------*/
 128:Drivers/BSP/Components/ili9325/ili9325.c ****   ili9325_WriteReg(LCD_REG_0, 0x0001); /* Start internal OSC. */
 129:Drivers/BSP/Components/ili9325/ili9325.c ****   ili9325_WriteReg(LCD_REG_1, 0x0100); /* Set SS and SM bit */
 130:Drivers/BSP/Components/ili9325/ili9325.c ****   ili9325_WriteReg(LCD_REG_2, 0x0700); /* Set 1 line inversion */
 131:Drivers/BSP/Components/ili9325/ili9325.c ****   ili9325_WriteReg(LCD_REG_3, 0x1018); /* Set GRAM write direction and BGR=1. */
 132:Drivers/BSP/Components/ili9325/ili9325.c ****   ili9325_WriteReg(LCD_REG_4, 0x0000); /* Resize register */
 133:Drivers/BSP/Components/ili9325/ili9325.c ****   ili9325_WriteReg(LCD_REG_8, 0x0202); /* Set the back porch and front porch */
 134:Drivers/BSP/Components/ili9325/ili9325.c ****   ili9325_WriteReg(LCD_REG_9, 0x0000); /* Set non-display area refresh cycle ISC[3:0] */
 135:Drivers/BSP/Components/ili9325/ili9325.c ****   ili9325_WriteReg(LCD_REG_10, 0x0000); /* FMARK function */
 136:Drivers/BSP/Components/ili9325/ili9325.c ****   ili9325_WriteReg(LCD_REG_12, 0x0000); /* RGB interface setting */
 137:Drivers/BSP/Components/ili9325/ili9325.c ****   ili9325_WriteReg(LCD_REG_13, 0x0000); /* Frame marker Position */
 138:Drivers/BSP/Components/ili9325/ili9325.c ****   ili9325_WriteReg(LCD_REG_15, 0x0000); /* RGB interface polarity */
 139:Drivers/BSP/Components/ili9325/ili9325.c ****   
 140:Drivers/BSP/Components/ili9325/ili9325.c ****   /* Power On sequence -------------------------------------------------------*/
 141:Drivers/BSP/Components/ili9325/ili9325.c ****   ili9325_WriteReg(LCD_REG_16, 0x0000); /* SAP, BT[3:0], AP, DSTB, SLP, STB */
 142:Drivers/BSP/Components/ili9325/ili9325.c ****   ili9325_WriteReg(LCD_REG_17, 0x0000); /* DC1[2:0], DC0[2:0], VC[2:0] */
 143:Drivers/BSP/Components/ili9325/ili9325.c ****   ili9325_WriteReg(LCD_REG_18, 0x0000); /* VREG1OUT voltage */
 144:Drivers/BSP/Components/ili9325/ili9325.c ****   ili9325_WriteReg(LCD_REG_19, 0x0000); /* VDV[4:0] for VCOM amplitude */
ARM GAS  /var/folders/0z/tsy30v1j4xl4_7kw94k978ww0000gn/T//ccRlqNXm.s 			page 4


 145:Drivers/BSP/Components/ili9325/ili9325.c ****   
 146:Drivers/BSP/Components/ili9325/ili9325.c ****   ili9325_WriteReg(LCD_REG_16, 0x17B0); /* SAP, BT[3:0], AP, DSTB, SLP, STB */
 147:Drivers/BSP/Components/ili9325/ili9325.c ****   ili9325_WriteReg(LCD_REG_17, 0x0137); /* DC1[2:0], DC0[2:0], VC[2:0] */
 148:Drivers/BSP/Components/ili9325/ili9325.c ****   
 149:Drivers/BSP/Components/ili9325/ili9325.c ****   ili9325_WriteReg(LCD_REG_18, 0x0139); /* VREG1OUT voltage */
 150:Drivers/BSP/Components/ili9325/ili9325.c ****   
 151:Drivers/BSP/Components/ili9325/ili9325.c ****   ili9325_WriteReg(LCD_REG_19, 0x1d00); /* VDV[4:0] for VCOM amplitude */
 152:Drivers/BSP/Components/ili9325/ili9325.c ****   ili9325_WriteReg(LCD_REG_41, 0x0013); /* VCM[4:0] for VCOMH */
 153:Drivers/BSP/Components/ili9325/ili9325.c ****   
 154:Drivers/BSP/Components/ili9325/ili9325.c ****   ili9325_WriteReg(LCD_REG_32, 0x0000); /* GRAM horizontal Address */
 155:Drivers/BSP/Components/ili9325/ili9325.c ****   ili9325_WriteReg(LCD_REG_33, 0x0000); /* GRAM Vertical Address */
 156:Drivers/BSP/Components/ili9325/ili9325.c ****   
 157:Drivers/BSP/Components/ili9325/ili9325.c ****   /* Adjust the Gamma Curve (ILI9325) ----------------------------------------*/
 158:Drivers/BSP/Components/ili9325/ili9325.c ****   ili9325_WriteReg(LCD_REG_48, 0x0007);
 159:Drivers/BSP/Components/ili9325/ili9325.c ****   ili9325_WriteReg(LCD_REG_49, 0x0302);
 160:Drivers/BSP/Components/ili9325/ili9325.c ****   ili9325_WriteReg(LCD_REG_50, 0x0105);
 161:Drivers/BSP/Components/ili9325/ili9325.c ****   ili9325_WriteReg(LCD_REG_53, 0x0206);
 162:Drivers/BSP/Components/ili9325/ili9325.c ****   ili9325_WriteReg(LCD_REG_54, 0x0808);
 163:Drivers/BSP/Components/ili9325/ili9325.c ****   ili9325_WriteReg(LCD_REG_55, 0x0206);
 164:Drivers/BSP/Components/ili9325/ili9325.c ****   ili9325_WriteReg(LCD_REG_56, 0x0504);
 165:Drivers/BSP/Components/ili9325/ili9325.c ****   ili9325_WriteReg(LCD_REG_57, 0x0007);
 166:Drivers/BSP/Components/ili9325/ili9325.c ****   ili9325_WriteReg(LCD_REG_60, 0x0105);
 167:Drivers/BSP/Components/ili9325/ili9325.c ****   ili9325_WriteReg(LCD_REG_61, 0x0808);
 168:Drivers/BSP/Components/ili9325/ili9325.c ****   
 169:Drivers/BSP/Components/ili9325/ili9325.c ****   /* Set GRAM area -----------------------------------------------------------*/
 170:Drivers/BSP/Components/ili9325/ili9325.c ****   ili9325_WriteReg(LCD_REG_80, 0x0000); /* Horizontal GRAM Start Address */
 171:Drivers/BSP/Components/ili9325/ili9325.c ****   ili9325_WriteReg(LCD_REG_81, 0x00EF); /* Horizontal GRAM End Address */
 172:Drivers/BSP/Components/ili9325/ili9325.c ****   ili9325_WriteReg(LCD_REG_82, 0x0000); /* Vertical GRAM Start Address */
 173:Drivers/BSP/Components/ili9325/ili9325.c ****   ili9325_WriteReg(LCD_REG_83, 0x013F); /* Vertical GRAM End Address */
 174:Drivers/BSP/Components/ili9325/ili9325.c ****   
 175:Drivers/BSP/Components/ili9325/ili9325.c ****   ili9325_WriteReg(LCD_REG_96,  0xA700); /* Gate Scan Line(GS=1, scan direction is G320~G1) */
 176:Drivers/BSP/Components/ili9325/ili9325.c ****   ili9325_WriteReg(LCD_REG_97,  0x0001); /* NDL,VLE, REV */
 177:Drivers/BSP/Components/ili9325/ili9325.c ****   ili9325_WriteReg(LCD_REG_106, 0x0000); /* set scrolling line */
 178:Drivers/BSP/Components/ili9325/ili9325.c ****   
 179:Drivers/BSP/Components/ili9325/ili9325.c ****   /* Partial Display Control -------------------------------------------------*/
 180:Drivers/BSP/Components/ili9325/ili9325.c ****   ili9325_WriteReg(LCD_REG_128, 0x0000);
 181:Drivers/BSP/Components/ili9325/ili9325.c ****   ili9325_WriteReg(LCD_REG_129, 0x0000);
 182:Drivers/BSP/Components/ili9325/ili9325.c ****   ili9325_WriteReg(LCD_REG_130, 0x0000);
 183:Drivers/BSP/Components/ili9325/ili9325.c ****   ili9325_WriteReg(LCD_REG_131, 0x0000);
 184:Drivers/BSP/Components/ili9325/ili9325.c ****   ili9325_WriteReg(LCD_REG_132, 0x0000);
 185:Drivers/BSP/Components/ili9325/ili9325.c ****   ili9325_WriteReg(LCD_REG_133, 0x0000);
 186:Drivers/BSP/Components/ili9325/ili9325.c ****   
 187:Drivers/BSP/Components/ili9325/ili9325.c ****   /* Panel Control -----------------------------------------------------------*/
 188:Drivers/BSP/Components/ili9325/ili9325.c ****   ili9325_WriteReg(LCD_REG_144, 0x0010);
 189:Drivers/BSP/Components/ili9325/ili9325.c ****   ili9325_WriteReg(LCD_REG_146, 0x0000);
 190:Drivers/BSP/Components/ili9325/ili9325.c ****   ili9325_WriteReg(LCD_REG_147, 0x0003);
 191:Drivers/BSP/Components/ili9325/ili9325.c ****   ili9325_WriteReg(LCD_REG_149, 0x0110);
 192:Drivers/BSP/Components/ili9325/ili9325.c ****   ili9325_WriteReg(LCD_REG_151, 0x0000);
 193:Drivers/BSP/Components/ili9325/ili9325.c ****   ili9325_WriteReg(LCD_REG_152, 0x0000);
 194:Drivers/BSP/Components/ili9325/ili9325.c ****   
 195:Drivers/BSP/Components/ili9325/ili9325.c ****   /* set GRAM write direction and BGR = 1 */
 196:Drivers/BSP/Components/ili9325/ili9325.c ****   /* I/D=00 (Horizontal : increment, Vertical : decrement) */
 197:Drivers/BSP/Components/ili9325/ili9325.c ****   /* AM=1 (address is updated in vertical writing direction) */
 198:Drivers/BSP/Components/ili9325/ili9325.c ****   ili9325_WriteReg(LCD_REG_3, 0x1018);
 199:Drivers/BSP/Components/ili9325/ili9325.c ****   
 200:Drivers/BSP/Components/ili9325/ili9325.c ****   /* 262K color and display ON */ 
 201:Drivers/BSP/Components/ili9325/ili9325.c ****   ili9325_WriteReg(LCD_REG_7, 0x0173);    
ARM GAS  /var/folders/0z/tsy30v1j4xl4_7kw94k978ww0000gn/T//ccRlqNXm.s 			page 5


 202:Drivers/BSP/Components/ili9325/ili9325.c ****   
 203:Drivers/BSP/Components/ili9325/ili9325.c ****   /* Set the Cursor */ 
 204:Drivers/BSP/Components/ili9325/ili9325.c ****   ili9325_SetCursor(0, 0);
 205:Drivers/BSP/Components/ili9325/ili9325.c ****   
 206:Drivers/BSP/Components/ili9325/ili9325.c ****   /* Prepare to write GRAM */
 207:Drivers/BSP/Components/ili9325/ili9325.c ****   LCD_IO_WriteReg(LCD_REG_34);
 208:Drivers/BSP/Components/ili9325/ili9325.c **** }
 209:Drivers/BSP/Components/ili9325/ili9325.c **** 
 210:Drivers/BSP/Components/ili9325/ili9325.c **** /**
 211:Drivers/BSP/Components/ili9325/ili9325.c ****   * @brief  Enables the Display.
 212:Drivers/BSP/Components/ili9325/ili9325.c ****   * @param  None
 213:Drivers/BSP/Components/ili9325/ili9325.c ****   * @retval None
 214:Drivers/BSP/Components/ili9325/ili9325.c ****   */
 215:Drivers/BSP/Components/ili9325/ili9325.c **** void ili9325_DisplayOn(void)
 216:Drivers/BSP/Components/ili9325/ili9325.c **** {
 217:Drivers/BSP/Components/ili9325/ili9325.c ****   /* Power On sequence -------------------------------------------------------*/
 218:Drivers/BSP/Components/ili9325/ili9325.c ****   ili9325_WriteReg(LCD_REG_16, 0x0000); /* SAP, BT[3:0], AP, DSTB, SLP, STB */
 219:Drivers/BSP/Components/ili9325/ili9325.c ****   ili9325_WriteReg(LCD_REG_17, 0x0000); /* DC1[2:0], DC0[2:0], VC[2:0] */
 220:Drivers/BSP/Components/ili9325/ili9325.c ****   ili9325_WriteReg(LCD_REG_18, 0x0000); /* VREG1OUT voltage */
 221:Drivers/BSP/Components/ili9325/ili9325.c ****   ili9325_WriteReg(LCD_REG_19, 0x0000); /* VDV[4:0] for VCOM amplitude*/
 222:Drivers/BSP/Components/ili9325/ili9325.c **** 
 223:Drivers/BSP/Components/ili9325/ili9325.c ****   ili9325_WriteReg(LCD_REG_16, 0x17B0); /* SAP, BT[3:0], AP, DSTB, SLP, STB */
 224:Drivers/BSP/Components/ili9325/ili9325.c ****   ili9325_WriteReg(LCD_REG_17, 0x0137); /* DC1[2:0], DC0[2:0], VC[2:0] */
 225:Drivers/BSP/Components/ili9325/ili9325.c **** 
 226:Drivers/BSP/Components/ili9325/ili9325.c ****   ili9325_WriteReg(LCD_REG_18, 0x0139); /* VREG1OUT voltage */
 227:Drivers/BSP/Components/ili9325/ili9325.c **** 
 228:Drivers/BSP/Components/ili9325/ili9325.c ****   ili9325_WriteReg(LCD_REG_19, 0x1d00); /* VDV[4:0] for VCOM amplitude */
 229:Drivers/BSP/Components/ili9325/ili9325.c ****   ili9325_WriteReg(LCD_REG_41, 0x0013); /* VCM[4:0] for VCOMH */
 230:Drivers/BSP/Components/ili9325/ili9325.c ****  
 231:Drivers/BSP/Components/ili9325/ili9325.c ****   /* Display On */
 232:Drivers/BSP/Components/ili9325/ili9325.c ****   ili9325_WriteReg(LCD_REG_7, 0x0173); /* 262K color and display ON */
 233:Drivers/BSP/Components/ili9325/ili9325.c **** }
 234:Drivers/BSP/Components/ili9325/ili9325.c **** 
 235:Drivers/BSP/Components/ili9325/ili9325.c **** /**
 236:Drivers/BSP/Components/ili9325/ili9325.c ****   * @brief  Disables the Display.
 237:Drivers/BSP/Components/ili9325/ili9325.c ****   * @param  None
 238:Drivers/BSP/Components/ili9325/ili9325.c ****   * @retval None
 239:Drivers/BSP/Components/ili9325/ili9325.c ****   */
 240:Drivers/BSP/Components/ili9325/ili9325.c **** void ili9325_DisplayOff(void)
 241:Drivers/BSP/Components/ili9325/ili9325.c **** {
 242:Drivers/BSP/Components/ili9325/ili9325.c ****   /* Power Off sequence ------------------------------------------------------*/
 243:Drivers/BSP/Components/ili9325/ili9325.c ****   ili9325_WriteReg(LCD_REG_16, 0x0000); /* SAP, BT[3:0], AP, DSTB, SLP, STB */
 244:Drivers/BSP/Components/ili9325/ili9325.c ****   ili9325_WriteReg(LCD_REG_17, 0x0000); /* DC1[2:0], DC0[2:0], VC[2:0] */
 245:Drivers/BSP/Components/ili9325/ili9325.c ****   ili9325_WriteReg(LCD_REG_18, 0x0000); /* VREG1OUT voltage */
 246:Drivers/BSP/Components/ili9325/ili9325.c ****   ili9325_WriteReg(LCD_REG_19, 0x0000); /* VDV[4:0] for VCOM amplitude*/
 247:Drivers/BSP/Components/ili9325/ili9325.c ****   
 248:Drivers/BSP/Components/ili9325/ili9325.c ****   ili9325_WriteReg(LCD_REG_41, 0x0000); /* VCM[4:0] for VCOMH */
 249:Drivers/BSP/Components/ili9325/ili9325.c ****   
 250:Drivers/BSP/Components/ili9325/ili9325.c ****   /* Display Off */
 251:Drivers/BSP/Components/ili9325/ili9325.c ****   ili9325_WriteReg(LCD_REG_7, 0x0); 
 252:Drivers/BSP/Components/ili9325/ili9325.c **** }
 253:Drivers/BSP/Components/ili9325/ili9325.c **** 
 254:Drivers/BSP/Components/ili9325/ili9325.c **** /**
 255:Drivers/BSP/Components/ili9325/ili9325.c ****   * @brief  Get the LCD pixel Width.
 256:Drivers/BSP/Components/ili9325/ili9325.c ****   * @param  None
 257:Drivers/BSP/Components/ili9325/ili9325.c ****   * @retval The Lcd Pixel Width
 258:Drivers/BSP/Components/ili9325/ili9325.c ****   */
ARM GAS  /var/folders/0z/tsy30v1j4xl4_7kw94k978ww0000gn/T//ccRlqNXm.s 			page 6


 259:Drivers/BSP/Components/ili9325/ili9325.c **** uint16_t ili9325_GetLcdPixelWidth(void)
 260:Drivers/BSP/Components/ili9325/ili9325.c **** {
  29              		.loc 1 260 1 view -0
  30              		.cfi_startproc
  31              		@ args = 0, pretend = 0, frame = 0
  32              		@ frame_needed = 0, uses_anonymous_args = 0
  33              		@ link register save eliminated.
 261:Drivers/BSP/Components/ili9325/ili9325.c ****  return (uint16_t)320;
  34              		.loc 1 261 2 view .LVU1
 262:Drivers/BSP/Components/ili9325/ili9325.c **** }
  35              		.loc 1 262 1 is_stmt 0 view .LVU2
  36 0000 4FF4A070 		mov	r0, #320
  37 0004 7047     		bx	lr
  38              		.cfi_endproc
  39              	.LFE3:
  41              		.section	.text.ili9325_GetLcdPixelHeight,"ax",%progbits
  42              		.align	1
  43              		.global	ili9325_GetLcdPixelHeight
  44              		.syntax unified
  45              		.thumb
  46              		.thumb_func
  48              	ili9325_GetLcdPixelHeight:
  49              	.LFB4:
 263:Drivers/BSP/Components/ili9325/ili9325.c **** 
 264:Drivers/BSP/Components/ili9325/ili9325.c **** /**
 265:Drivers/BSP/Components/ili9325/ili9325.c ****   * @brief  Get the LCD pixel Height.
 266:Drivers/BSP/Components/ili9325/ili9325.c ****   * @param  None
 267:Drivers/BSP/Components/ili9325/ili9325.c ****   * @retval The Lcd Pixel Height
 268:Drivers/BSP/Components/ili9325/ili9325.c ****   */
 269:Drivers/BSP/Components/ili9325/ili9325.c **** uint16_t ili9325_GetLcdPixelHeight(void)
 270:Drivers/BSP/Components/ili9325/ili9325.c **** {
  50              		.loc 1 270 1 is_stmt 1 view -0
  51              		.cfi_startproc
  52              		@ args = 0, pretend = 0, frame = 0
  53              		@ frame_needed = 0, uses_anonymous_args = 0
  54              		@ link register save eliminated.
 271:Drivers/BSP/Components/ili9325/ili9325.c ****  return (uint16_t)240;
  55              		.loc 1 271 2 view .LVU4
 272:Drivers/BSP/Components/ili9325/ili9325.c **** }
  56              		.loc 1 272 1 is_stmt 0 view .LVU5
  57 0000 F020     		movs	r0, #240
  58 0002 7047     		bx	lr
  59              		.cfi_endproc
  60              	.LFE4:
  62              		.section	.text.ili9325_WriteReg,"ax",%progbits
  63              		.align	1
  64              		.global	ili9325_WriteReg
  65              		.syntax unified
  66              		.thumb
  67              		.thumb_func
  69              	ili9325_WriteReg:
  70              	.LVL0:
  71              	.LFB9:
 273:Drivers/BSP/Components/ili9325/ili9325.c **** 
 274:Drivers/BSP/Components/ili9325/ili9325.c **** /**
 275:Drivers/BSP/Components/ili9325/ili9325.c ****   * @brief  Get the ILI9325 ID.
 276:Drivers/BSP/Components/ili9325/ili9325.c ****   * @param  None
ARM GAS  /var/folders/0z/tsy30v1j4xl4_7kw94k978ww0000gn/T//ccRlqNXm.s 			page 7


 277:Drivers/BSP/Components/ili9325/ili9325.c ****   * @retval The ILI9325 ID 
 278:Drivers/BSP/Components/ili9325/ili9325.c ****   */
 279:Drivers/BSP/Components/ili9325/ili9325.c **** uint16_t ili9325_ReadID(void)
 280:Drivers/BSP/Components/ili9325/ili9325.c **** {
 281:Drivers/BSP/Components/ili9325/ili9325.c ****   LCD_IO_Init(); 
 282:Drivers/BSP/Components/ili9325/ili9325.c ****   return (ili9325_ReadReg(0x00));
 283:Drivers/BSP/Components/ili9325/ili9325.c **** }
 284:Drivers/BSP/Components/ili9325/ili9325.c **** 
 285:Drivers/BSP/Components/ili9325/ili9325.c **** /**
 286:Drivers/BSP/Components/ili9325/ili9325.c ****   * @brief  Set Cursor position.
 287:Drivers/BSP/Components/ili9325/ili9325.c ****   * @param  Xpos: specifies the X position.
 288:Drivers/BSP/Components/ili9325/ili9325.c ****   * @param  Ypos: specifies the Y position.
 289:Drivers/BSP/Components/ili9325/ili9325.c ****   * @retval None
 290:Drivers/BSP/Components/ili9325/ili9325.c ****   */
 291:Drivers/BSP/Components/ili9325/ili9325.c **** void ili9325_SetCursor(uint16_t Xpos, uint16_t Ypos)
 292:Drivers/BSP/Components/ili9325/ili9325.c **** {
 293:Drivers/BSP/Components/ili9325/ili9325.c ****   ili9325_WriteReg(LCD_REG_32, Ypos);
 294:Drivers/BSP/Components/ili9325/ili9325.c ****   ili9325_WriteReg(LCD_REG_33, (ILI9325_LCD_PIXEL_WIDTH - 1 - Xpos));      
 295:Drivers/BSP/Components/ili9325/ili9325.c **** }
 296:Drivers/BSP/Components/ili9325/ili9325.c **** 
 297:Drivers/BSP/Components/ili9325/ili9325.c **** /**
 298:Drivers/BSP/Components/ili9325/ili9325.c ****   * @brief  Write pixel.   
 299:Drivers/BSP/Components/ili9325/ili9325.c ****   * @param  Xpos: specifies the X position.
 300:Drivers/BSP/Components/ili9325/ili9325.c ****   * @param  Ypos: specifies the Y position.
 301:Drivers/BSP/Components/ili9325/ili9325.c ****   * @param  RGBCode: the RGB pixel color
 302:Drivers/BSP/Components/ili9325/ili9325.c ****   * @retval None
 303:Drivers/BSP/Components/ili9325/ili9325.c ****   */
 304:Drivers/BSP/Components/ili9325/ili9325.c **** void ili9325_WritePixel(uint16_t Xpos, uint16_t Ypos, uint16_t RGBCode)
 305:Drivers/BSP/Components/ili9325/ili9325.c **** {
 306:Drivers/BSP/Components/ili9325/ili9325.c ****   /* Set Cursor */
 307:Drivers/BSP/Components/ili9325/ili9325.c ****   ili9325_SetCursor(Xpos, Ypos);
 308:Drivers/BSP/Components/ili9325/ili9325.c ****   
 309:Drivers/BSP/Components/ili9325/ili9325.c ****   /* Prepare to write GRAM */
 310:Drivers/BSP/Components/ili9325/ili9325.c ****   LCD_IO_WriteReg(LCD_REG_34);
 311:Drivers/BSP/Components/ili9325/ili9325.c **** 
 312:Drivers/BSP/Components/ili9325/ili9325.c ****   /* Write 16-bit GRAM Reg */
 313:Drivers/BSP/Components/ili9325/ili9325.c ****   LCD_IO_WriteMultipleData((uint8_t*)&RGBCode, 2);
 314:Drivers/BSP/Components/ili9325/ili9325.c **** }
 315:Drivers/BSP/Components/ili9325/ili9325.c **** 
 316:Drivers/BSP/Components/ili9325/ili9325.c **** /**
 317:Drivers/BSP/Components/ili9325/ili9325.c ****   * @brief  Read pixel.
 318:Drivers/BSP/Components/ili9325/ili9325.c ****   * @param  None
 319:Drivers/BSP/Components/ili9325/ili9325.c ****   * @retval The RGB pixel color
 320:Drivers/BSP/Components/ili9325/ili9325.c ****   */
 321:Drivers/BSP/Components/ili9325/ili9325.c **** uint16_t ili9325_ReadPixel(uint16_t Xpos, uint16_t Ypos)
 322:Drivers/BSP/Components/ili9325/ili9325.c **** {
 323:Drivers/BSP/Components/ili9325/ili9325.c ****   /* Set Cursor */
 324:Drivers/BSP/Components/ili9325/ili9325.c ****   ili9325_SetCursor(Xpos, Ypos);
 325:Drivers/BSP/Components/ili9325/ili9325.c ****   
 326:Drivers/BSP/Components/ili9325/ili9325.c ****   /* Read 16-bit Reg */
 327:Drivers/BSP/Components/ili9325/ili9325.c ****   return (LCD_IO_ReadData(LCD_REG_34));
 328:Drivers/BSP/Components/ili9325/ili9325.c **** }
 329:Drivers/BSP/Components/ili9325/ili9325.c **** 
 330:Drivers/BSP/Components/ili9325/ili9325.c **** /**
 331:Drivers/BSP/Components/ili9325/ili9325.c ****   * @brief  Writes to the selected LCD register.
 332:Drivers/BSP/Components/ili9325/ili9325.c ****   * @param  LCDReg: Address of the selected register.
 333:Drivers/BSP/Components/ili9325/ili9325.c ****   * @param  LCDRegValue: Value to write to the selected register.
ARM GAS  /var/folders/0z/tsy30v1j4xl4_7kw94k978ww0000gn/T//ccRlqNXm.s 			page 8


 334:Drivers/BSP/Components/ili9325/ili9325.c ****   * @retval None
 335:Drivers/BSP/Components/ili9325/ili9325.c ****   */
 336:Drivers/BSP/Components/ili9325/ili9325.c **** void ili9325_WriteReg(uint8_t LCDReg, uint16_t LCDRegValue)
 337:Drivers/BSP/Components/ili9325/ili9325.c **** {
  72              		.loc 1 337 1 is_stmt 1 view -0
  73              		.cfi_startproc
  74              		@ args = 0, pretend = 0, frame = 8
  75              		@ frame_needed = 0, uses_anonymous_args = 0
  76              		.loc 1 337 1 is_stmt 0 view .LVU7
  77 0000 00B5     		push	{lr}
  78              		.cfi_def_cfa_offset 4
  79              		.cfi_offset 14, -4
  80 0002 83B0     		sub	sp, sp, #12
  81              		.cfi_def_cfa_offset 16
  82 0004 ADF80610 		strh	r1, [sp, #6]	@ movhi
 338:Drivers/BSP/Components/ili9325/ili9325.c ****   LCD_IO_WriteReg(LCDReg);
  83              		.loc 1 338 3 is_stmt 1 view .LVU8
  84 0008 FFF7FEFF 		bl	LCD_IO_WriteReg
  85              	.LVL1:
 339:Drivers/BSP/Components/ili9325/ili9325.c ****   
 340:Drivers/BSP/Components/ili9325/ili9325.c ****   /* Write 16-bit GRAM Reg */
 341:Drivers/BSP/Components/ili9325/ili9325.c ****   LCD_IO_WriteMultipleData((uint8_t*)&LCDRegValue, 2);
  86              		.loc 1 341 3 view .LVU9
  87 000c 0221     		movs	r1, #2
  88 000e 0DF10600 		add	r0, sp, #6
  89 0012 FFF7FEFF 		bl	LCD_IO_WriteMultipleData
  90              	.LVL2:
 342:Drivers/BSP/Components/ili9325/ili9325.c **** }
  91              		.loc 1 342 1 is_stmt 0 view .LVU10
  92 0016 03B0     		add	sp, sp, #12
  93              		.cfi_def_cfa_offset 4
  94              		@ sp needed
  95 0018 5DF804FB 		ldr	pc, [sp], #4
  96              		.cfi_endproc
  97              	.LFE9:
  99              		.section	.text.ili9325_DisplayOn,"ax",%progbits
 100              		.align	1
 101              		.global	ili9325_DisplayOn
 102              		.syntax unified
 103              		.thumb
 104              		.thumb_func
 106              	ili9325_DisplayOn:
 107              	.LFB1:
 216:Drivers/BSP/Components/ili9325/ili9325.c ****   /* Power On sequence -------------------------------------------------------*/
 108              		.loc 1 216 1 is_stmt 1 view -0
 109              		.cfi_startproc
 110              		@ args = 0, pretend = 0, frame = 0
 111              		@ frame_needed = 0, uses_anonymous_args = 0
 112 0000 08B5     		push	{r3, lr}
 113              		.cfi_def_cfa_offset 8
 114              		.cfi_offset 3, -8
 115              		.cfi_offset 14, -4
 218:Drivers/BSP/Components/ili9325/ili9325.c ****   ili9325_WriteReg(LCD_REG_17, 0x0000); /* DC1[2:0], DC0[2:0], VC[2:0] */
 116              		.loc 1 218 3 view .LVU12
 117 0002 0021     		movs	r1, #0
 118 0004 1020     		movs	r0, #16
 119 0006 FFF7FEFF 		bl	ili9325_WriteReg
ARM GAS  /var/folders/0z/tsy30v1j4xl4_7kw94k978ww0000gn/T//ccRlqNXm.s 			page 9


 120              	.LVL3:
 219:Drivers/BSP/Components/ili9325/ili9325.c ****   ili9325_WriteReg(LCD_REG_18, 0x0000); /* VREG1OUT voltage */
 121              		.loc 1 219 3 view .LVU13
 122 000a 0021     		movs	r1, #0
 123 000c 1120     		movs	r0, #17
 124 000e FFF7FEFF 		bl	ili9325_WriteReg
 125              	.LVL4:
 220:Drivers/BSP/Components/ili9325/ili9325.c ****   ili9325_WriteReg(LCD_REG_19, 0x0000); /* VDV[4:0] for VCOM amplitude*/
 126              		.loc 1 220 3 view .LVU14
 127 0012 0021     		movs	r1, #0
 128 0014 1220     		movs	r0, #18
 129 0016 FFF7FEFF 		bl	ili9325_WriteReg
 130              	.LVL5:
 221:Drivers/BSP/Components/ili9325/ili9325.c **** 
 131              		.loc 1 221 3 view .LVU15
 132 001a 0021     		movs	r1, #0
 133 001c 1320     		movs	r0, #19
 134 001e FFF7FEFF 		bl	ili9325_WriteReg
 135              	.LVL6:
 223:Drivers/BSP/Components/ili9325/ili9325.c ****   ili9325_WriteReg(LCD_REG_17, 0x0137); /* DC1[2:0], DC0[2:0], VC[2:0] */
 136              		.loc 1 223 3 view .LVU16
 137 0022 41F2B071 		movw	r1, #6064
 138 0026 1020     		movs	r0, #16
 139 0028 FFF7FEFF 		bl	ili9325_WriteReg
 140              	.LVL7:
 224:Drivers/BSP/Components/ili9325/ili9325.c **** 
 141              		.loc 1 224 3 view .LVU17
 142 002c 40F23711 		movw	r1, #311
 143 0030 1120     		movs	r0, #17
 144 0032 FFF7FEFF 		bl	ili9325_WriteReg
 145              	.LVL8:
 226:Drivers/BSP/Components/ili9325/ili9325.c **** 
 146              		.loc 1 226 3 view .LVU18
 147 0036 40F23911 		movw	r1, #313
 148 003a 1220     		movs	r0, #18
 149 003c FFF7FEFF 		bl	ili9325_WriteReg
 150              	.LVL9:
 228:Drivers/BSP/Components/ili9325/ili9325.c ****   ili9325_WriteReg(LCD_REG_41, 0x0013); /* VCM[4:0] for VCOMH */
 151              		.loc 1 228 3 view .LVU19
 152 0040 4FF4E851 		mov	r1, #7424
 153 0044 1320     		movs	r0, #19
 154 0046 FFF7FEFF 		bl	ili9325_WriteReg
 155              	.LVL10:
 229:Drivers/BSP/Components/ili9325/ili9325.c ****  
 156              		.loc 1 229 3 view .LVU20
 157 004a 1321     		movs	r1, #19
 158 004c 2920     		movs	r0, #41
 159 004e FFF7FEFF 		bl	ili9325_WriteReg
 160              	.LVL11:
 232:Drivers/BSP/Components/ili9325/ili9325.c **** }
 161              		.loc 1 232 3 view .LVU21
 162 0052 40F27311 		movw	r1, #371
 163 0056 0720     		movs	r0, #7
 164 0058 FFF7FEFF 		bl	ili9325_WriteReg
 165              	.LVL12:
 233:Drivers/BSP/Components/ili9325/ili9325.c **** 
 166              		.loc 1 233 1 is_stmt 0 view .LVU22
ARM GAS  /var/folders/0z/tsy30v1j4xl4_7kw94k978ww0000gn/T//ccRlqNXm.s 			page 10


 167 005c 08BD     		pop	{r3, pc}
 168              		.cfi_endproc
 169              	.LFE1:
 171              		.section	.text.ili9325_DisplayOff,"ax",%progbits
 172              		.align	1
 173              		.global	ili9325_DisplayOff
 174              		.syntax unified
 175              		.thumb
 176              		.thumb_func
 178              	ili9325_DisplayOff:
 179              	.LFB2:
 241:Drivers/BSP/Components/ili9325/ili9325.c ****   /* Power Off sequence ------------------------------------------------------*/
 180              		.loc 1 241 1 is_stmt 1 view -0
 181              		.cfi_startproc
 182              		@ args = 0, pretend = 0, frame = 0
 183              		@ frame_needed = 0, uses_anonymous_args = 0
 184 0000 08B5     		push	{r3, lr}
 185              		.cfi_def_cfa_offset 8
 186              		.cfi_offset 3, -8
 187              		.cfi_offset 14, -4
 243:Drivers/BSP/Components/ili9325/ili9325.c ****   ili9325_WriteReg(LCD_REG_17, 0x0000); /* DC1[2:0], DC0[2:0], VC[2:0] */
 188              		.loc 1 243 3 view .LVU24
 189 0002 0021     		movs	r1, #0
 190 0004 1020     		movs	r0, #16
 191 0006 FFF7FEFF 		bl	ili9325_WriteReg
 192              	.LVL13:
 244:Drivers/BSP/Components/ili9325/ili9325.c ****   ili9325_WriteReg(LCD_REG_18, 0x0000); /* VREG1OUT voltage */
 193              		.loc 1 244 3 view .LVU25
 194 000a 0021     		movs	r1, #0
 195 000c 1120     		movs	r0, #17
 196 000e FFF7FEFF 		bl	ili9325_WriteReg
 197              	.LVL14:
 245:Drivers/BSP/Components/ili9325/ili9325.c ****   ili9325_WriteReg(LCD_REG_19, 0x0000); /* VDV[4:0] for VCOM amplitude*/
 198              		.loc 1 245 3 view .LVU26
 199 0012 0021     		movs	r1, #0
 200 0014 1220     		movs	r0, #18
 201 0016 FFF7FEFF 		bl	ili9325_WriteReg
 202              	.LVL15:
 246:Drivers/BSP/Components/ili9325/ili9325.c ****   
 203              		.loc 1 246 3 view .LVU27
 204 001a 0021     		movs	r1, #0
 205 001c 1320     		movs	r0, #19
 206 001e FFF7FEFF 		bl	ili9325_WriteReg
 207              	.LVL16:
 248:Drivers/BSP/Components/ili9325/ili9325.c ****   
 208              		.loc 1 248 3 view .LVU28
 209 0022 0021     		movs	r1, #0
 210 0024 2920     		movs	r0, #41
 211 0026 FFF7FEFF 		bl	ili9325_WriteReg
 212              	.LVL17:
 251:Drivers/BSP/Components/ili9325/ili9325.c **** }
 213              		.loc 1 251 3 view .LVU29
 214 002a 0021     		movs	r1, #0
 215 002c 0720     		movs	r0, #7
 216 002e FFF7FEFF 		bl	ili9325_WriteReg
 217              	.LVL18:
 252:Drivers/BSP/Components/ili9325/ili9325.c **** 
ARM GAS  /var/folders/0z/tsy30v1j4xl4_7kw94k978ww0000gn/T//ccRlqNXm.s 			page 11


 218              		.loc 1 252 1 is_stmt 0 view .LVU30
 219 0032 08BD     		pop	{r3, pc}
 220              		.cfi_endproc
 221              	.LFE2:
 223              		.section	.text.ili9325_SetCursor,"ax",%progbits
 224              		.align	1
 225              		.global	ili9325_SetCursor
 226              		.syntax unified
 227              		.thumb
 228              		.thumb_func
 230              	ili9325_SetCursor:
 231              	.LVL19:
 232              	.LFB6:
 292:Drivers/BSP/Components/ili9325/ili9325.c ****   ili9325_WriteReg(LCD_REG_32, Ypos);
 233              		.loc 1 292 1 is_stmt 1 view -0
 234              		.cfi_startproc
 235              		@ args = 0, pretend = 0, frame = 0
 236              		@ frame_needed = 0, uses_anonymous_args = 0
 292:Drivers/BSP/Components/ili9325/ili9325.c ****   ili9325_WriteReg(LCD_REG_32, Ypos);
 237              		.loc 1 292 1 is_stmt 0 view .LVU32
 238 0000 10B5     		push	{r4, lr}
 239              		.cfi_def_cfa_offset 8
 240              		.cfi_offset 4, -8
 241              		.cfi_offset 14, -4
 242 0002 0446     		mov	r4, r0
 293:Drivers/BSP/Components/ili9325/ili9325.c ****   ili9325_WriteReg(LCD_REG_33, (ILI9325_LCD_PIXEL_WIDTH - 1 - Xpos));      
 243              		.loc 1 293 3 is_stmt 1 view .LVU33
 244 0004 2020     		movs	r0, #32
 245              	.LVL20:
 293:Drivers/BSP/Components/ili9325/ili9325.c ****   ili9325_WriteReg(LCD_REG_33, (ILI9325_LCD_PIXEL_WIDTH - 1 - Xpos));      
 246              		.loc 1 293 3 is_stmt 0 view .LVU34
 247 0006 FFF7FEFF 		bl	ili9325_WriteReg
 248              	.LVL21:
 294:Drivers/BSP/Components/ili9325/ili9325.c **** }
 249              		.loc 1 294 3 is_stmt 1 view .LVU35
 250 000a C4F59F71 		rsb	r1, r4, #318
 251 000e 0131     		adds	r1, r1, #1
 252 0010 89B2     		uxth	r1, r1
 253 0012 2120     		movs	r0, #33
 254 0014 FFF7FEFF 		bl	ili9325_WriteReg
 255              	.LVL22:
 295:Drivers/BSP/Components/ili9325/ili9325.c **** 
 256              		.loc 1 295 1 is_stmt 0 view .LVU36
 257 0018 10BD     		pop	{r4, pc}
 258              		.cfi_endproc
 259              	.LFE6:
 261              		.section	.text.ili9325_WritePixel,"ax",%progbits
 262              		.align	1
 263              		.global	ili9325_WritePixel
 264              		.syntax unified
 265              		.thumb
 266              		.thumb_func
 268              	ili9325_WritePixel:
 269              	.LVL23:
 270              	.LFB7:
 305:Drivers/BSP/Components/ili9325/ili9325.c ****   /* Set Cursor */
 271              		.loc 1 305 1 is_stmt 1 view -0
ARM GAS  /var/folders/0z/tsy30v1j4xl4_7kw94k978ww0000gn/T//ccRlqNXm.s 			page 12


 272              		.cfi_startproc
 273              		@ args = 0, pretend = 0, frame = 8
 274              		@ frame_needed = 0, uses_anonymous_args = 0
 305:Drivers/BSP/Components/ili9325/ili9325.c ****   /* Set Cursor */
 275              		.loc 1 305 1 is_stmt 0 view .LVU38
 276 0000 00B5     		push	{lr}
 277              		.cfi_def_cfa_offset 4
 278              		.cfi_offset 14, -4
 279 0002 83B0     		sub	sp, sp, #12
 280              		.cfi_def_cfa_offset 16
 281 0004 ADF80620 		strh	r2, [sp, #6]	@ movhi
 307:Drivers/BSP/Components/ili9325/ili9325.c ****   
 282              		.loc 1 307 3 is_stmt 1 view .LVU39
 283 0008 FFF7FEFF 		bl	ili9325_SetCursor
 284              	.LVL24:
 310:Drivers/BSP/Components/ili9325/ili9325.c **** 
 285              		.loc 1 310 3 view .LVU40
 286 000c 2220     		movs	r0, #34
 287 000e FFF7FEFF 		bl	LCD_IO_WriteReg
 288              	.LVL25:
 313:Drivers/BSP/Components/ili9325/ili9325.c **** }
 289              		.loc 1 313 3 view .LVU41
 290 0012 0221     		movs	r1, #2
 291 0014 0DF10600 		add	r0, sp, #6
 292 0018 FFF7FEFF 		bl	LCD_IO_WriteMultipleData
 293              	.LVL26:
 314:Drivers/BSP/Components/ili9325/ili9325.c **** 
 294              		.loc 1 314 1 is_stmt 0 view .LVU42
 295 001c 03B0     		add	sp, sp, #12
 296              		.cfi_def_cfa_offset 4
 297              		@ sp needed
 298 001e 5DF804FB 		ldr	pc, [sp], #4
 299              		.cfi_endproc
 300              	.LFE7:
 302              		.section	.text.ili9325_ReadPixel,"ax",%progbits
 303              		.align	1
 304              		.global	ili9325_ReadPixel
 305              		.syntax unified
 306              		.thumb
 307              		.thumb_func
 309              	ili9325_ReadPixel:
 310              	.LVL27:
 311              	.LFB8:
 322:Drivers/BSP/Components/ili9325/ili9325.c ****   /* Set Cursor */
 312              		.loc 1 322 1 is_stmt 1 view -0
 313              		.cfi_startproc
 314              		@ args = 0, pretend = 0, frame = 0
 315              		@ frame_needed = 0, uses_anonymous_args = 0
 322:Drivers/BSP/Components/ili9325/ili9325.c ****   /* Set Cursor */
 316              		.loc 1 322 1 is_stmt 0 view .LVU44
 317 0000 08B5     		push	{r3, lr}
 318              		.cfi_def_cfa_offset 8
 319              		.cfi_offset 3, -8
 320              		.cfi_offset 14, -4
 324:Drivers/BSP/Components/ili9325/ili9325.c ****   
 321              		.loc 1 324 3 is_stmt 1 view .LVU45
 322 0002 FFF7FEFF 		bl	ili9325_SetCursor
ARM GAS  /var/folders/0z/tsy30v1j4xl4_7kw94k978ww0000gn/T//ccRlqNXm.s 			page 13


 323              	.LVL28:
 327:Drivers/BSP/Components/ili9325/ili9325.c **** }
 324              		.loc 1 327 3 view .LVU46
 327:Drivers/BSP/Components/ili9325/ili9325.c **** }
 325              		.loc 1 327 11 is_stmt 0 view .LVU47
 326 0006 2220     		movs	r0, #34
 327 0008 FFF7FEFF 		bl	LCD_IO_ReadData
 328              	.LVL29:
 328:Drivers/BSP/Components/ili9325/ili9325.c **** 
 329              		.loc 1 328 1 view .LVU48
 330 000c 08BD     		pop	{r3, pc}
 331              		.cfi_endproc
 332              	.LFE8:
 334              		.section	.text.ili9325_DrawHLine,"ax",%progbits
 335              		.align	1
 336              		.global	ili9325_DrawHLine
 337              		.syntax unified
 338              		.thumb
 339              		.thumb_func
 341              	ili9325_DrawHLine:
 342              	.LVL30:
 343              	.LFB12:
 343:Drivers/BSP/Components/ili9325/ili9325.c **** 
 344:Drivers/BSP/Components/ili9325/ili9325.c **** /**
 345:Drivers/BSP/Components/ili9325/ili9325.c ****   * @brief  Reads the selected LCD Register.
 346:Drivers/BSP/Components/ili9325/ili9325.c ****   * @param  LCDReg: address of the selected register.
 347:Drivers/BSP/Components/ili9325/ili9325.c ****   * @retval LCD Register Value.
 348:Drivers/BSP/Components/ili9325/ili9325.c ****   */
 349:Drivers/BSP/Components/ili9325/ili9325.c **** uint16_t ili9325_ReadReg(uint8_t LCDReg)
 350:Drivers/BSP/Components/ili9325/ili9325.c **** { 
 351:Drivers/BSP/Components/ili9325/ili9325.c ****   /* Read 16-bit Reg */
 352:Drivers/BSP/Components/ili9325/ili9325.c ****   return (LCD_IO_ReadData(LCDReg));
 353:Drivers/BSP/Components/ili9325/ili9325.c **** }
 354:Drivers/BSP/Components/ili9325/ili9325.c **** 
 355:Drivers/BSP/Components/ili9325/ili9325.c **** /**
 356:Drivers/BSP/Components/ili9325/ili9325.c ****   * @brief  Sets a display window
 357:Drivers/BSP/Components/ili9325/ili9325.c ****   * @param  Xpos:   specifies the X bottom left position.
 358:Drivers/BSP/Components/ili9325/ili9325.c ****   * @param  Ypos:   specifies the Y bottom left position.
 359:Drivers/BSP/Components/ili9325/ili9325.c ****   * @param  Height: display window height.
 360:Drivers/BSP/Components/ili9325/ili9325.c ****   * @param  Width:  display window width.
 361:Drivers/BSP/Components/ili9325/ili9325.c ****   * @retval None
 362:Drivers/BSP/Components/ili9325/ili9325.c ****   */
 363:Drivers/BSP/Components/ili9325/ili9325.c **** void ili9325_SetDisplayWindow(uint16_t Xpos, uint16_t Ypos, uint16_t Width, uint16_t Height)
 364:Drivers/BSP/Components/ili9325/ili9325.c **** {
 365:Drivers/BSP/Components/ili9325/ili9325.c ****   /* Horizontal GRAM Start Address */
 366:Drivers/BSP/Components/ili9325/ili9325.c ****   ili9325_WriteReg(LCD_REG_80, (Ypos));
 367:Drivers/BSP/Components/ili9325/ili9325.c ****   /* Horizontal GRAM End Address */
 368:Drivers/BSP/Components/ili9325/ili9325.c ****   ili9325_WriteReg(LCD_REG_81, (Ypos + Height - 1));
 369:Drivers/BSP/Components/ili9325/ili9325.c ****   
 370:Drivers/BSP/Components/ili9325/ili9325.c ****   /* Vertical GRAM Start Address */
 371:Drivers/BSP/Components/ili9325/ili9325.c ****   ili9325_WriteReg(LCD_REG_82, ILI9325_LCD_PIXEL_WIDTH - Xpos - Width);
 372:Drivers/BSP/Components/ili9325/ili9325.c ****   /* Vertical GRAM End Address */
 373:Drivers/BSP/Components/ili9325/ili9325.c ****   ili9325_WriteReg(LCD_REG_83, ILI9325_LCD_PIXEL_WIDTH - Xpos - 1);  
 374:Drivers/BSP/Components/ili9325/ili9325.c **** }
 375:Drivers/BSP/Components/ili9325/ili9325.c **** 
 376:Drivers/BSP/Components/ili9325/ili9325.c **** /**
 377:Drivers/BSP/Components/ili9325/ili9325.c ****   * @brief  Draw vertical line.
ARM GAS  /var/folders/0z/tsy30v1j4xl4_7kw94k978ww0000gn/T//ccRlqNXm.s 			page 14


 378:Drivers/BSP/Components/ili9325/ili9325.c ****   * @param  RGBCode: Specifies the RGB color   
 379:Drivers/BSP/Components/ili9325/ili9325.c ****   * @param  Xpos:     specifies the X position.
 380:Drivers/BSP/Components/ili9325/ili9325.c ****   * @param  Ypos:     specifies the Y position.
 381:Drivers/BSP/Components/ili9325/ili9325.c ****   * @param  Length:   specifies the Line length.  
 382:Drivers/BSP/Components/ili9325/ili9325.c ****   * @retval None
 383:Drivers/BSP/Components/ili9325/ili9325.c ****   */
 384:Drivers/BSP/Components/ili9325/ili9325.c **** void ili9325_DrawHLine(uint16_t RGBCode, uint16_t Xpos, uint16_t Ypos, uint16_t Length)
 385:Drivers/BSP/Components/ili9325/ili9325.c **** {
 344              		.loc 1 385 1 is_stmt 1 view -0
 345              		.cfi_startproc
 346              		@ args = 0, pretend = 0, frame = 0
 347              		@ frame_needed = 0, uses_anonymous_args = 0
 348              		.loc 1 385 1 is_stmt 0 view .LVU50
 349 0000 38B5     		push	{r3, r4, r5, lr}
 350              		.cfi_def_cfa_offset 16
 351              		.cfi_offset 3, -16
 352              		.cfi_offset 4, -12
 353              		.cfi_offset 5, -8
 354              		.cfi_offset 14, -4
 355 0002 0546     		mov	r5, r0
 356 0004 0846     		mov	r0, r1
 357              	.LVL31:
 358              		.loc 1 385 1 view .LVU51
 359 0006 1C46     		mov	r4, r3
 386:Drivers/BSP/Components/ili9325/ili9325.c ****   uint16_t counter = 0;
 360              		.loc 1 386 3 is_stmt 1 view .LVU52
 361              	.LVL32:
 387:Drivers/BSP/Components/ili9325/ili9325.c ****   
 388:Drivers/BSP/Components/ili9325/ili9325.c ****   /* Set Cursor */
 389:Drivers/BSP/Components/ili9325/ili9325.c ****   ili9325_SetCursor(Xpos, Ypos); 
 362              		.loc 1 389 3 view .LVU53
 363 0008 1146     		mov	r1, r2
 364              	.LVL33:
 365              		.loc 1 389 3 is_stmt 0 view .LVU54
 366 000a FFF7FEFF 		bl	ili9325_SetCursor
 367              	.LVL34:
 390:Drivers/BSP/Components/ili9325/ili9325.c ****   
 391:Drivers/BSP/Components/ili9325/ili9325.c ****   /* Prepare to write GRAM */
 392:Drivers/BSP/Components/ili9325/ili9325.c ****   LCD_IO_WriteReg(LCD_REG_34);
 368              		.loc 1 392 3 is_stmt 1 view .LVU55
 369 000e 2220     		movs	r0, #34
 370 0010 FFF7FEFF 		bl	LCD_IO_WriteReg
 371              	.LVL35:
 393:Drivers/BSP/Components/ili9325/ili9325.c **** 
 394:Drivers/BSP/Components/ili9325/ili9325.c ****   /* Sent a complete line */
 395:Drivers/BSP/Components/ili9325/ili9325.c ****   for(counter = 0; counter < Length; counter++)
 372              		.loc 1 395 3 view .LVU56
 373              		.loc 1 395 15 is_stmt 0 view .LVU57
 374 0014 0022     		movs	r2, #0
 375              		.loc 1 395 3 view .LVU58
 376 0016 04E0     		b	.L16
 377              	.LVL36:
 378              	.L17:
 396:Drivers/BSP/Components/ili9325/ili9325.c ****   {
 397:Drivers/BSP/Components/ili9325/ili9325.c ****     ArrayRGB[counter] = RGBCode;
 379              		.loc 1 397 5 is_stmt 1 discriminator 3 view .LVU59
 380              		.loc 1 397 23 is_stmt 0 discriminator 3 view .LVU60
ARM GAS  /var/folders/0z/tsy30v1j4xl4_7kw94k978ww0000gn/T//ccRlqNXm.s 			page 15


 381 0018 0549     		ldr	r1, .L19
 382 001a 21F81250 		strh	r5, [r1, r2, lsl #1]	@ movhi
 395:Drivers/BSP/Components/ili9325/ili9325.c ****   {
 383              		.loc 1 395 45 is_stmt 1 discriminator 3 view .LVU61
 384 001e 0132     		adds	r2, r2, #1
 385              	.LVL37:
 395:Drivers/BSP/Components/ili9325/ili9325.c ****   {
 386              		.loc 1 395 45 is_stmt 0 discriminator 3 view .LVU62
 387 0020 92B2     		uxth	r2, r2
 388              	.LVL38:
 389              	.L16:
 395:Drivers/BSP/Components/ili9325/ili9325.c ****   {
 390              		.loc 1 395 28 is_stmt 1 discriminator 1 view .LVU63
 391 0022 A242     		cmp	r2, r4
 392 0024 F8D3     		bcc	.L17
 398:Drivers/BSP/Components/ili9325/ili9325.c ****   }  
 399:Drivers/BSP/Components/ili9325/ili9325.c **** 
 400:Drivers/BSP/Components/ili9325/ili9325.c ****   LCD_IO_WriteMultipleData((uint8_t*)&ArrayRGB[0], Length * 2);
 393              		.loc 1 400 3 view .LVU64
 394 0026 6100     		lsls	r1, r4, #1
 395 0028 0148     		ldr	r0, .L19
 396 002a FFF7FEFF 		bl	LCD_IO_WriteMultipleData
 397              	.LVL39:
 401:Drivers/BSP/Components/ili9325/ili9325.c **** }
 398              		.loc 1 401 1 is_stmt 0 view .LVU65
 399 002e 38BD     		pop	{r3, r4, r5, pc}
 400              	.L20:
 401              		.align	2
 402              	.L19:
 403 0030 00000000 		.word	.LANCHOR0
 404              		.cfi_endproc
 405              	.LFE12:
 407              		.section	.text.ili9325_DrawRGBImage,"ax",%progbits
 408              		.align	1
 409              		.global	ili9325_DrawRGBImage
 410              		.syntax unified
 411              		.thumb
 412              		.thumb_func
 414              	ili9325_DrawRGBImage:
 415              	.LVL40:
 416              	.LFB15:
 402:Drivers/BSP/Components/ili9325/ili9325.c **** 
 403:Drivers/BSP/Components/ili9325/ili9325.c **** /**
 404:Drivers/BSP/Components/ili9325/ili9325.c ****   * @brief  Draw vertical line.
 405:Drivers/BSP/Components/ili9325/ili9325.c ****   * @param  RGBCode: Specifies the RGB color    
 406:Drivers/BSP/Components/ili9325/ili9325.c ****   * @param  Xpos:     specifies the X position.
 407:Drivers/BSP/Components/ili9325/ili9325.c ****   * @param  Ypos:     specifies the Y position.
 408:Drivers/BSP/Components/ili9325/ili9325.c ****   * @param  Length:   specifies the Line length.  
 409:Drivers/BSP/Components/ili9325/ili9325.c ****   * @retval None
 410:Drivers/BSP/Components/ili9325/ili9325.c ****   */
 411:Drivers/BSP/Components/ili9325/ili9325.c **** void ili9325_DrawVLine(uint16_t RGBCode, uint16_t Xpos, uint16_t Ypos, uint16_t Length)
 412:Drivers/BSP/Components/ili9325/ili9325.c **** {
 413:Drivers/BSP/Components/ili9325/ili9325.c ****   uint16_t counter = 0;
 414:Drivers/BSP/Components/ili9325/ili9325.c **** 
 415:Drivers/BSP/Components/ili9325/ili9325.c ****   /* set GRAM write direction and BGR = 1 */
 416:Drivers/BSP/Components/ili9325/ili9325.c ****   /* I/D=00 (Horizontal : increment, Vertical : decrement) */
 417:Drivers/BSP/Components/ili9325/ili9325.c ****   /* AM=1 (address is updated in vertical writing direction) */
ARM GAS  /var/folders/0z/tsy30v1j4xl4_7kw94k978ww0000gn/T//ccRlqNXm.s 			page 16


 418:Drivers/BSP/Components/ili9325/ili9325.c ****   ili9325_WriteReg(LCD_REG_3, 0x1010);
 419:Drivers/BSP/Components/ili9325/ili9325.c ****   
 420:Drivers/BSP/Components/ili9325/ili9325.c ****   /* Set Cursor */
 421:Drivers/BSP/Components/ili9325/ili9325.c ****   ili9325_SetCursor(Xpos, Ypos);
 422:Drivers/BSP/Components/ili9325/ili9325.c ****   
 423:Drivers/BSP/Components/ili9325/ili9325.c ****   /* Prepare to write GRAM */
 424:Drivers/BSP/Components/ili9325/ili9325.c ****   LCD_IO_WriteReg(LCD_REG_34);
 425:Drivers/BSP/Components/ili9325/ili9325.c **** 
 426:Drivers/BSP/Components/ili9325/ili9325.c ****   /* Fill a complete vertical line */
 427:Drivers/BSP/Components/ili9325/ili9325.c ****   for(counter = 0; counter < Length; counter++)
 428:Drivers/BSP/Components/ili9325/ili9325.c ****   {
 429:Drivers/BSP/Components/ili9325/ili9325.c ****     ArrayRGB[counter] = RGBCode;
 430:Drivers/BSP/Components/ili9325/ili9325.c ****   }
 431:Drivers/BSP/Components/ili9325/ili9325.c ****   
 432:Drivers/BSP/Components/ili9325/ili9325.c ****   /* Write 16-bit GRAM Reg */
 433:Drivers/BSP/Components/ili9325/ili9325.c ****   LCD_IO_WriteMultipleData((uint8_t*)&ArrayRGB[0], Length * 2);
 434:Drivers/BSP/Components/ili9325/ili9325.c ****   
 435:Drivers/BSP/Components/ili9325/ili9325.c ****   /* set GRAM write direction and BGR = 1 */
 436:Drivers/BSP/Components/ili9325/ili9325.c ****   /* I/D=00 (Horizontal : increment, Vertical : decrement) */
 437:Drivers/BSP/Components/ili9325/ili9325.c ****   /* AM=1 (address is updated in vertical writing direction) */
 438:Drivers/BSP/Components/ili9325/ili9325.c ****   ili9325_WriteReg(LCD_REG_3, 0x1018);  
 439:Drivers/BSP/Components/ili9325/ili9325.c **** }
 440:Drivers/BSP/Components/ili9325/ili9325.c **** 
 441:Drivers/BSP/Components/ili9325/ili9325.c **** /**
 442:Drivers/BSP/Components/ili9325/ili9325.c ****   * @brief  Displays a bitmap picture.
 443:Drivers/BSP/Components/ili9325/ili9325.c ****   * @param  BmpAddress: Bmp picture address.
 444:Drivers/BSP/Components/ili9325/ili9325.c ****   * @param  Xpos: Bmp X position in the LCD
 445:Drivers/BSP/Components/ili9325/ili9325.c ****   * @param  Ypos: Bmp Y position in the LCD    
 446:Drivers/BSP/Components/ili9325/ili9325.c ****   * @retval None
 447:Drivers/BSP/Components/ili9325/ili9325.c ****   */
 448:Drivers/BSP/Components/ili9325/ili9325.c **** void ili9325_DrawBitmap(uint16_t Xpos, uint16_t Ypos, uint8_t *pbmp)
 449:Drivers/BSP/Components/ili9325/ili9325.c **** {
 450:Drivers/BSP/Components/ili9325/ili9325.c ****   uint32_t index = 0, size = 0;
 451:Drivers/BSP/Components/ili9325/ili9325.c ****   /* Read bitmap size */
 452:Drivers/BSP/Components/ili9325/ili9325.c ****   size = *(volatile uint16_t *) (pbmp + 2);
 453:Drivers/BSP/Components/ili9325/ili9325.c ****   size |= (*(volatile uint16_t *) (pbmp + 4)) << 16;
 454:Drivers/BSP/Components/ili9325/ili9325.c ****   /* Get bitmap data address offset */
 455:Drivers/BSP/Components/ili9325/ili9325.c ****   index = *(volatile uint16_t *) (pbmp + 10);
 456:Drivers/BSP/Components/ili9325/ili9325.c ****   index |= (*(volatile uint16_t *) (pbmp + 12)) << 16;
 457:Drivers/BSP/Components/ili9325/ili9325.c ****   size = (size - index)/2;
 458:Drivers/BSP/Components/ili9325/ili9325.c ****   pbmp += index;
 459:Drivers/BSP/Components/ili9325/ili9325.c ****   /* Set GRAM write direction and BGR = 1 */
 460:Drivers/BSP/Components/ili9325/ili9325.c ****   /* I/D=00 (Horizontal : decrement, Vertical : decrement) */
 461:Drivers/BSP/Components/ili9325/ili9325.c ****   /* AM=1 (address is updated in vertical writing direction) */
 462:Drivers/BSP/Components/ili9325/ili9325.c ****   ili9325_WriteReg(LCD_REG_3, 0x1008);
 463:Drivers/BSP/Components/ili9325/ili9325.c **** 
 464:Drivers/BSP/Components/ili9325/ili9325.c ****   /* Set Cursor */
 465:Drivers/BSP/Components/ili9325/ili9325.c ****   ili9325_SetCursor(Xpos, Ypos);  
 466:Drivers/BSP/Components/ili9325/ili9325.c ****   
 467:Drivers/BSP/Components/ili9325/ili9325.c ****   /* Prepare to write GRAM */
 468:Drivers/BSP/Components/ili9325/ili9325.c ****   LCD_IO_WriteReg(LCD_REG_34);
 469:Drivers/BSP/Components/ili9325/ili9325.c ****  
 470:Drivers/BSP/Components/ili9325/ili9325.c ****   LCD_IO_WriteMultipleData((uint8_t*)pbmp, size*2);
 471:Drivers/BSP/Components/ili9325/ili9325.c ****  
 472:Drivers/BSP/Components/ili9325/ili9325.c ****   /* Set GRAM write direction and BGR = 1 */
 473:Drivers/BSP/Components/ili9325/ili9325.c ****   /* I/D = 01 (Horizontal : increment, Vertical : decrement) */
 474:Drivers/BSP/Components/ili9325/ili9325.c ****   /* AM = 1 (address is updated in vertical writing direction) */
ARM GAS  /var/folders/0z/tsy30v1j4xl4_7kw94k978ww0000gn/T//ccRlqNXm.s 			page 17


 475:Drivers/BSP/Components/ili9325/ili9325.c ****   ili9325_WriteReg(LCD_REG_3, 0x1018);
 476:Drivers/BSP/Components/ili9325/ili9325.c **** }
 477:Drivers/BSP/Components/ili9325/ili9325.c **** 
 478:Drivers/BSP/Components/ili9325/ili9325.c **** /**
 479:Drivers/BSP/Components/ili9325/ili9325.c ****   * @brief  Displays picture.
 480:Drivers/BSP/Components/ili9325/ili9325.c ****   * @param  pdata: picture address.
 481:Drivers/BSP/Components/ili9325/ili9325.c ****   * @param  Xpos: Image X position in the LCD
 482:Drivers/BSP/Components/ili9325/ili9325.c ****   * @param  Ypos: Image Y position in the LCD
 483:Drivers/BSP/Components/ili9325/ili9325.c ****   * @param  Xsize: Image X size in the LCD
 484:Drivers/BSP/Components/ili9325/ili9325.c ****   * @param  Ysize: Image Y size in the LCD
 485:Drivers/BSP/Components/ili9325/ili9325.c ****   * @retval None
 486:Drivers/BSP/Components/ili9325/ili9325.c ****   */
 487:Drivers/BSP/Components/ili9325/ili9325.c **** void ili9325_DrawRGBImage(uint16_t Xpos, uint16_t Ypos, uint16_t Xsize, uint16_t Ysize, uint8_t *pd
 488:Drivers/BSP/Components/ili9325/ili9325.c **** {
 417              		.loc 1 488 1 is_stmt 1 view -0
 418              		.cfi_startproc
 419              		@ args = 4, pretend = 0, frame = 0
 420              		@ frame_needed = 0, uses_anonymous_args = 0
 421              		.loc 1 488 1 is_stmt 0 view .LVU67
 422 0000 10B5     		push	{r4, lr}
 423              		.cfi_def_cfa_offset 8
 424              		.cfi_offset 4, -8
 425              		.cfi_offset 14, -4
 489:Drivers/BSP/Components/ili9325/ili9325.c ****   uint32_t size = 0;
 426              		.loc 1 489 3 is_stmt 1 view .LVU68
 427              	.LVL41:
 490:Drivers/BSP/Components/ili9325/ili9325.c **** 
 491:Drivers/BSP/Components/ili9325/ili9325.c ****   size = (Xsize * Ysize);
 428              		.loc 1 491 3 view .LVU69
 429              		.loc 1 491 17 is_stmt 0 view .LVU70
 430 0002 03FB02F4 		mul	r4, r3, r2
 431              	.LVL42:
 492:Drivers/BSP/Components/ili9325/ili9325.c **** 
 493:Drivers/BSP/Components/ili9325/ili9325.c ****   /* Set Cursor */
 494:Drivers/BSP/Components/ili9325/ili9325.c ****   ili9325_SetCursor(Xpos, Ypos);  
 432              		.loc 1 494 3 is_stmt 1 view .LVU71
 433 0006 FFF7FEFF 		bl	ili9325_SetCursor
 434              	.LVL43:
 495:Drivers/BSP/Components/ili9325/ili9325.c ****   
 496:Drivers/BSP/Components/ili9325/ili9325.c ****   /* Prepare to write GRAM */
 497:Drivers/BSP/Components/ili9325/ili9325.c ****   LCD_IO_WriteReg(LCD_REG_34);
 435              		.loc 1 497 3 view .LVU72
 436 000a 2220     		movs	r0, #34
 437 000c FFF7FEFF 		bl	LCD_IO_WriteReg
 438              	.LVL44:
 498:Drivers/BSP/Components/ili9325/ili9325.c ****  
 499:Drivers/BSP/Components/ili9325/ili9325.c ****   LCD_IO_WriteMultipleData((uint8_t*)pdata, size*2);
 439              		.loc 1 499 3 view .LVU73
 440 0010 6100     		lsls	r1, r4, #1
 441 0012 0298     		ldr	r0, [sp, #8]
 442 0014 FFF7FEFF 		bl	LCD_IO_WriteMultipleData
 443              	.LVL45:
 500:Drivers/BSP/Components/ili9325/ili9325.c **** }
 444              		.loc 1 500 1 is_stmt 0 view .LVU74
 445 0018 10BD     		pop	{r4, pc}
 446              		.loc 1 500 1 view .LVU75
 447              		.cfi_endproc
ARM GAS  /var/folders/0z/tsy30v1j4xl4_7kw94k978ww0000gn/T//ccRlqNXm.s 			page 18


 448              	.LFE15:
 450              		.section	.text.ili9325_Init,"ax",%progbits
 451              		.align	1
 452              		.global	ili9325_Init
 453              		.syntax unified
 454              		.thumb
 455              		.thumb_func
 457              	ili9325_Init:
 458              	.LFB0:
 123:Drivers/BSP/Components/ili9325/ili9325.c ****   /* Initialize ILI9325 low level bus layer ----------------------------------*/
 459              		.loc 1 123 1 is_stmt 1 view -0
 460              		.cfi_startproc
 461              		@ args = 0, pretend = 0, frame = 0
 462              		@ frame_needed = 0, uses_anonymous_args = 0
 463 0000 08B5     		push	{r3, lr}
 464              		.cfi_def_cfa_offset 8
 465              		.cfi_offset 3, -8
 466              		.cfi_offset 14, -4
 125:Drivers/BSP/Components/ili9325/ili9325.c ****   
 467              		.loc 1 125 3 view .LVU77
 468 0002 FFF7FEFF 		bl	LCD_IO_Init
 469              	.LVL46:
 128:Drivers/BSP/Components/ili9325/ili9325.c ****   ili9325_WriteReg(LCD_REG_1, 0x0100); /* Set SS and SM bit */
 470              		.loc 1 128 3 view .LVU78
 471 0006 0121     		movs	r1, #1
 472 0008 0020     		movs	r0, #0
 473 000a FFF7FEFF 		bl	ili9325_WriteReg
 474              	.LVL47:
 129:Drivers/BSP/Components/ili9325/ili9325.c ****   ili9325_WriteReg(LCD_REG_2, 0x0700); /* Set 1 line inversion */
 475              		.loc 1 129 3 view .LVU79
 476 000e 4FF48071 		mov	r1, #256
 477 0012 0120     		movs	r0, #1
 478 0014 FFF7FEFF 		bl	ili9325_WriteReg
 479              	.LVL48:
 130:Drivers/BSP/Components/ili9325/ili9325.c ****   ili9325_WriteReg(LCD_REG_3, 0x1018); /* Set GRAM write direction and BGR=1. */
 480              		.loc 1 130 3 view .LVU80
 481 0018 4FF4E061 		mov	r1, #1792
 482 001c 0220     		movs	r0, #2
 483 001e FFF7FEFF 		bl	ili9325_WriteReg
 484              	.LVL49:
 131:Drivers/BSP/Components/ili9325/ili9325.c ****   ili9325_WriteReg(LCD_REG_4, 0x0000); /* Resize register */
 485              		.loc 1 131 3 view .LVU81
 486 0022 41F21801 		movw	r1, #4120
 487 0026 0320     		movs	r0, #3
 488 0028 FFF7FEFF 		bl	ili9325_WriteReg
 489              	.LVL50:
 132:Drivers/BSP/Components/ili9325/ili9325.c ****   ili9325_WriteReg(LCD_REG_8, 0x0202); /* Set the back porch and front porch */
 490              		.loc 1 132 3 view .LVU82
 491 002c 0021     		movs	r1, #0
 492 002e 0420     		movs	r0, #4
 493 0030 FFF7FEFF 		bl	ili9325_WriteReg
 494              	.LVL51:
 133:Drivers/BSP/Components/ili9325/ili9325.c ****   ili9325_WriteReg(LCD_REG_9, 0x0000); /* Set non-display area refresh cycle ISC[3:0] */
 495              		.loc 1 133 3 view .LVU83
 496 0034 40F20221 		movw	r1, #514
 497 0038 0820     		movs	r0, #8
 498 003a FFF7FEFF 		bl	ili9325_WriteReg
ARM GAS  /var/folders/0z/tsy30v1j4xl4_7kw94k978ww0000gn/T//ccRlqNXm.s 			page 19


 499              	.LVL52:
 134:Drivers/BSP/Components/ili9325/ili9325.c ****   ili9325_WriteReg(LCD_REG_10, 0x0000); /* FMARK function */
 500              		.loc 1 134 3 view .LVU84
 501 003e 0021     		movs	r1, #0
 502 0040 0920     		movs	r0, #9
 503 0042 FFF7FEFF 		bl	ili9325_WriteReg
 504              	.LVL53:
 135:Drivers/BSP/Components/ili9325/ili9325.c ****   ili9325_WriteReg(LCD_REG_12, 0x0000); /* RGB interface setting */
 505              		.loc 1 135 3 view .LVU85
 506 0046 0021     		movs	r1, #0
 507 0048 0A20     		movs	r0, #10
 508 004a FFF7FEFF 		bl	ili9325_WriteReg
 509              	.LVL54:
 136:Drivers/BSP/Components/ili9325/ili9325.c ****   ili9325_WriteReg(LCD_REG_13, 0x0000); /* Frame marker Position */
 510              		.loc 1 136 3 view .LVU86
 511 004e 0021     		movs	r1, #0
 512 0050 0C20     		movs	r0, #12
 513 0052 FFF7FEFF 		bl	ili9325_WriteReg
 514              	.LVL55:
 137:Drivers/BSP/Components/ili9325/ili9325.c ****   ili9325_WriteReg(LCD_REG_15, 0x0000); /* RGB interface polarity */
 515              		.loc 1 137 3 view .LVU87
 516 0056 0021     		movs	r1, #0
 517 0058 0D20     		movs	r0, #13
 518 005a FFF7FEFF 		bl	ili9325_WriteReg
 519              	.LVL56:
 138:Drivers/BSP/Components/ili9325/ili9325.c ****   
 520              		.loc 1 138 3 view .LVU88
 521 005e 0021     		movs	r1, #0
 522 0060 0F20     		movs	r0, #15
 523 0062 FFF7FEFF 		bl	ili9325_WriteReg
 524              	.LVL57:
 141:Drivers/BSP/Components/ili9325/ili9325.c ****   ili9325_WriteReg(LCD_REG_17, 0x0000); /* DC1[2:0], DC0[2:0], VC[2:0] */
 525              		.loc 1 141 3 view .LVU89
 526 0066 0021     		movs	r1, #0
 527 0068 1020     		movs	r0, #16
 528 006a FFF7FEFF 		bl	ili9325_WriteReg
 529              	.LVL58:
 142:Drivers/BSP/Components/ili9325/ili9325.c ****   ili9325_WriteReg(LCD_REG_18, 0x0000); /* VREG1OUT voltage */
 530              		.loc 1 142 3 view .LVU90
 531 006e 0021     		movs	r1, #0
 532 0070 1120     		movs	r0, #17
 533 0072 FFF7FEFF 		bl	ili9325_WriteReg
 534              	.LVL59:
 143:Drivers/BSP/Components/ili9325/ili9325.c ****   ili9325_WriteReg(LCD_REG_19, 0x0000); /* VDV[4:0] for VCOM amplitude */
 535              		.loc 1 143 3 view .LVU91
 536 0076 0021     		movs	r1, #0
 537 0078 1220     		movs	r0, #18
 538 007a FFF7FEFF 		bl	ili9325_WriteReg
 539              	.LVL60:
 144:Drivers/BSP/Components/ili9325/ili9325.c ****   
 540              		.loc 1 144 3 view .LVU92
 541 007e 0021     		movs	r1, #0
 542 0080 1320     		movs	r0, #19
 543 0082 FFF7FEFF 		bl	ili9325_WriteReg
 544              	.LVL61:
 146:Drivers/BSP/Components/ili9325/ili9325.c ****   ili9325_WriteReg(LCD_REG_17, 0x0137); /* DC1[2:0], DC0[2:0], VC[2:0] */
 545              		.loc 1 146 3 view .LVU93
ARM GAS  /var/folders/0z/tsy30v1j4xl4_7kw94k978ww0000gn/T//ccRlqNXm.s 			page 20


 546 0086 41F2B071 		movw	r1, #6064
 547 008a 1020     		movs	r0, #16
 548 008c FFF7FEFF 		bl	ili9325_WriteReg
 549              	.LVL62:
 147:Drivers/BSP/Components/ili9325/ili9325.c ****   
 550              		.loc 1 147 3 view .LVU94
 551 0090 40F23711 		movw	r1, #311
 552 0094 1120     		movs	r0, #17
 553 0096 FFF7FEFF 		bl	ili9325_WriteReg
 554              	.LVL63:
 149:Drivers/BSP/Components/ili9325/ili9325.c ****   
 555              		.loc 1 149 3 view .LVU95
 556 009a 40F23911 		movw	r1, #313
 557 009e 1220     		movs	r0, #18
 558 00a0 FFF7FEFF 		bl	ili9325_WriteReg
 559              	.LVL64:
 151:Drivers/BSP/Components/ili9325/ili9325.c ****   ili9325_WriteReg(LCD_REG_41, 0x0013); /* VCM[4:0] for VCOMH */
 560              		.loc 1 151 3 view .LVU96
 561 00a4 4FF4E851 		mov	r1, #7424
 562 00a8 1320     		movs	r0, #19
 563 00aa FFF7FEFF 		bl	ili9325_WriteReg
 564              	.LVL65:
 152:Drivers/BSP/Components/ili9325/ili9325.c ****   
 565              		.loc 1 152 3 view .LVU97
 566 00ae 1321     		movs	r1, #19
 567 00b0 2920     		movs	r0, #41
 568 00b2 FFF7FEFF 		bl	ili9325_WriteReg
 569              	.LVL66:
 154:Drivers/BSP/Components/ili9325/ili9325.c ****   ili9325_WriteReg(LCD_REG_33, 0x0000); /* GRAM Vertical Address */
 570              		.loc 1 154 3 view .LVU98
 571 00b6 0021     		movs	r1, #0
 572 00b8 2020     		movs	r0, #32
 573 00ba FFF7FEFF 		bl	ili9325_WriteReg
 574              	.LVL67:
 155:Drivers/BSP/Components/ili9325/ili9325.c ****   
 575              		.loc 1 155 3 view .LVU99
 576 00be 0021     		movs	r1, #0
 577 00c0 2120     		movs	r0, #33
 578 00c2 FFF7FEFF 		bl	ili9325_WriteReg
 579              	.LVL68:
 158:Drivers/BSP/Components/ili9325/ili9325.c ****   ili9325_WriteReg(LCD_REG_49, 0x0302);
 580              		.loc 1 158 3 view .LVU100
 581 00c6 0721     		movs	r1, #7
 582 00c8 3020     		movs	r0, #48
 583 00ca FFF7FEFF 		bl	ili9325_WriteReg
 584              	.LVL69:
 159:Drivers/BSP/Components/ili9325/ili9325.c ****   ili9325_WriteReg(LCD_REG_50, 0x0105);
 585              		.loc 1 159 3 view .LVU101
 586 00ce 40F20231 		movw	r1, #770
 587 00d2 3120     		movs	r0, #49
 588 00d4 FFF7FEFF 		bl	ili9325_WriteReg
 589              	.LVL70:
 160:Drivers/BSP/Components/ili9325/ili9325.c ****   ili9325_WriteReg(LCD_REG_53, 0x0206);
 590              		.loc 1 160 3 view .LVU102
 591 00d8 40F20511 		movw	r1, #261
 592 00dc 3220     		movs	r0, #50
 593 00de FFF7FEFF 		bl	ili9325_WriteReg
ARM GAS  /var/folders/0z/tsy30v1j4xl4_7kw94k978ww0000gn/T//ccRlqNXm.s 			page 21


 594              	.LVL71:
 161:Drivers/BSP/Components/ili9325/ili9325.c ****   ili9325_WriteReg(LCD_REG_54, 0x0808);
 595              		.loc 1 161 3 view .LVU103
 596 00e2 40F20621 		movw	r1, #518
 597 00e6 3520     		movs	r0, #53
 598 00e8 FFF7FEFF 		bl	ili9325_WriteReg
 599              	.LVL72:
 162:Drivers/BSP/Components/ili9325/ili9325.c ****   ili9325_WriteReg(LCD_REG_55, 0x0206);
 600              		.loc 1 162 3 view .LVU104
 601 00ec 40F60801 		movw	r1, #2056
 602 00f0 3620     		movs	r0, #54
 603 00f2 FFF7FEFF 		bl	ili9325_WriteReg
 604              	.LVL73:
 163:Drivers/BSP/Components/ili9325/ili9325.c ****   ili9325_WriteReg(LCD_REG_56, 0x0504);
 605              		.loc 1 163 3 view .LVU105
 606 00f6 40F20621 		movw	r1, #518
 607 00fa 3720     		movs	r0, #55
 608 00fc FFF7FEFF 		bl	ili9325_WriteReg
 609              	.LVL74:
 164:Drivers/BSP/Components/ili9325/ili9325.c ****   ili9325_WriteReg(LCD_REG_57, 0x0007);
 610              		.loc 1 164 3 view .LVU106
 611 0100 40F20451 		movw	r1, #1284
 612 0104 3820     		movs	r0, #56
 613 0106 FFF7FEFF 		bl	ili9325_WriteReg
 614              	.LVL75:
 165:Drivers/BSP/Components/ili9325/ili9325.c ****   ili9325_WriteReg(LCD_REG_60, 0x0105);
 615              		.loc 1 165 3 view .LVU107
 616 010a 0721     		movs	r1, #7
 617 010c 3920     		movs	r0, #57
 618 010e FFF7FEFF 		bl	ili9325_WriteReg
 619              	.LVL76:
 166:Drivers/BSP/Components/ili9325/ili9325.c ****   ili9325_WriteReg(LCD_REG_61, 0x0808);
 620              		.loc 1 166 3 view .LVU108
 621 0112 40F20511 		movw	r1, #261
 622 0116 3C20     		movs	r0, #60
 623 0118 FFF7FEFF 		bl	ili9325_WriteReg
 624              	.LVL77:
 167:Drivers/BSP/Components/ili9325/ili9325.c ****   
 625              		.loc 1 167 3 view .LVU109
 626 011c 40F60801 		movw	r1, #2056
 627 0120 3D20     		movs	r0, #61
 628 0122 FFF7FEFF 		bl	ili9325_WriteReg
 629              	.LVL78:
 170:Drivers/BSP/Components/ili9325/ili9325.c ****   ili9325_WriteReg(LCD_REG_81, 0x00EF); /* Horizontal GRAM End Address */
 630              		.loc 1 170 3 view .LVU110
 631 0126 0021     		movs	r1, #0
 632 0128 5020     		movs	r0, #80
 633 012a FFF7FEFF 		bl	ili9325_WriteReg
 634              	.LVL79:
 171:Drivers/BSP/Components/ili9325/ili9325.c ****   ili9325_WriteReg(LCD_REG_82, 0x0000); /* Vertical GRAM Start Address */
 635              		.loc 1 171 3 view .LVU111
 636 012e EF21     		movs	r1, #239
 637 0130 5120     		movs	r0, #81
 638 0132 FFF7FEFF 		bl	ili9325_WriteReg
 639              	.LVL80:
 172:Drivers/BSP/Components/ili9325/ili9325.c ****   ili9325_WriteReg(LCD_REG_83, 0x013F); /* Vertical GRAM End Address */
 640              		.loc 1 172 3 view .LVU112
ARM GAS  /var/folders/0z/tsy30v1j4xl4_7kw94k978ww0000gn/T//ccRlqNXm.s 			page 22


 641 0136 0021     		movs	r1, #0
 642 0138 5220     		movs	r0, #82
 643 013a FFF7FEFF 		bl	ili9325_WriteReg
 644              	.LVL81:
 173:Drivers/BSP/Components/ili9325/ili9325.c ****   
 645              		.loc 1 173 3 view .LVU113
 646 013e 40F23F11 		movw	r1, #319
 647 0142 5320     		movs	r0, #83
 648 0144 FFF7FEFF 		bl	ili9325_WriteReg
 649              	.LVL82:
 175:Drivers/BSP/Components/ili9325/ili9325.c ****   ili9325_WriteReg(LCD_REG_97,  0x0001); /* NDL,VLE, REV */
 650              		.loc 1 175 3 view .LVU114
 651 0148 4FF42741 		mov	r1, #42752
 652 014c 6020     		movs	r0, #96
 653 014e FFF7FEFF 		bl	ili9325_WriteReg
 654              	.LVL83:
 176:Drivers/BSP/Components/ili9325/ili9325.c ****   ili9325_WriteReg(LCD_REG_106, 0x0000); /* set scrolling line */
 655              		.loc 1 176 3 view .LVU115
 656 0152 0121     		movs	r1, #1
 657 0154 6120     		movs	r0, #97
 658 0156 FFF7FEFF 		bl	ili9325_WriteReg
 659              	.LVL84:
 177:Drivers/BSP/Components/ili9325/ili9325.c ****   
 660              		.loc 1 177 3 view .LVU116
 661 015a 0021     		movs	r1, #0
 662 015c 6A20     		movs	r0, #106
 663 015e FFF7FEFF 		bl	ili9325_WriteReg
 664              	.LVL85:
 180:Drivers/BSP/Components/ili9325/ili9325.c ****   ili9325_WriteReg(LCD_REG_129, 0x0000);
 665              		.loc 1 180 3 view .LVU117
 666 0162 0021     		movs	r1, #0
 667 0164 8020     		movs	r0, #128
 668 0166 FFF7FEFF 		bl	ili9325_WriteReg
 669              	.LVL86:
 181:Drivers/BSP/Components/ili9325/ili9325.c ****   ili9325_WriteReg(LCD_REG_130, 0x0000);
 670              		.loc 1 181 3 view .LVU118
 671 016a 0021     		movs	r1, #0
 672 016c 8120     		movs	r0, #129
 673 016e FFF7FEFF 		bl	ili9325_WriteReg
 674              	.LVL87:
 182:Drivers/BSP/Components/ili9325/ili9325.c ****   ili9325_WriteReg(LCD_REG_131, 0x0000);
 675              		.loc 1 182 3 view .LVU119
 676 0172 0021     		movs	r1, #0
 677 0174 8220     		movs	r0, #130
 678 0176 FFF7FEFF 		bl	ili9325_WriteReg
 679              	.LVL88:
 183:Drivers/BSP/Components/ili9325/ili9325.c ****   ili9325_WriteReg(LCD_REG_132, 0x0000);
 680              		.loc 1 183 3 view .LVU120
 681 017a 0021     		movs	r1, #0
 682 017c 8320     		movs	r0, #131
 683 017e FFF7FEFF 		bl	ili9325_WriteReg
 684              	.LVL89:
 184:Drivers/BSP/Components/ili9325/ili9325.c ****   ili9325_WriteReg(LCD_REG_133, 0x0000);
 685              		.loc 1 184 3 view .LVU121
 686 0182 0021     		movs	r1, #0
 687 0184 8420     		movs	r0, #132
 688 0186 FFF7FEFF 		bl	ili9325_WriteReg
ARM GAS  /var/folders/0z/tsy30v1j4xl4_7kw94k978ww0000gn/T//ccRlqNXm.s 			page 23


 689              	.LVL90:
 185:Drivers/BSP/Components/ili9325/ili9325.c ****   
 690              		.loc 1 185 3 view .LVU122
 691 018a 0021     		movs	r1, #0
 692 018c 8520     		movs	r0, #133
 693 018e FFF7FEFF 		bl	ili9325_WriteReg
 694              	.LVL91:
 188:Drivers/BSP/Components/ili9325/ili9325.c ****   ili9325_WriteReg(LCD_REG_146, 0x0000);
 695              		.loc 1 188 3 view .LVU123
 696 0192 1021     		movs	r1, #16
 697 0194 9020     		movs	r0, #144
 698 0196 FFF7FEFF 		bl	ili9325_WriteReg
 699              	.LVL92:
 189:Drivers/BSP/Components/ili9325/ili9325.c ****   ili9325_WriteReg(LCD_REG_147, 0x0003);
 700              		.loc 1 189 3 view .LVU124
 701 019a 0021     		movs	r1, #0
 702 019c 9220     		movs	r0, #146
 703 019e FFF7FEFF 		bl	ili9325_WriteReg
 704              	.LVL93:
 190:Drivers/BSP/Components/ili9325/ili9325.c ****   ili9325_WriteReg(LCD_REG_149, 0x0110);
 705              		.loc 1 190 3 view .LVU125
 706 01a2 0321     		movs	r1, #3
 707 01a4 9320     		movs	r0, #147
 708 01a6 FFF7FEFF 		bl	ili9325_WriteReg
 709              	.LVL94:
 191:Drivers/BSP/Components/ili9325/ili9325.c ****   ili9325_WriteReg(LCD_REG_151, 0x0000);
 710              		.loc 1 191 3 view .LVU126
 711 01aa 4FF48871 		mov	r1, #272
 712 01ae 9520     		movs	r0, #149
 713 01b0 FFF7FEFF 		bl	ili9325_WriteReg
 714              	.LVL95:
 192:Drivers/BSP/Components/ili9325/ili9325.c ****   ili9325_WriteReg(LCD_REG_152, 0x0000);
 715              		.loc 1 192 3 view .LVU127
 716 01b4 0021     		movs	r1, #0
 717 01b6 9720     		movs	r0, #151
 718 01b8 FFF7FEFF 		bl	ili9325_WriteReg
 719              	.LVL96:
 193:Drivers/BSP/Components/ili9325/ili9325.c ****   
 720              		.loc 1 193 3 view .LVU128
 721 01bc 0021     		movs	r1, #0
 722 01be 9820     		movs	r0, #152
 723 01c0 FFF7FEFF 		bl	ili9325_WriteReg
 724              	.LVL97:
 198:Drivers/BSP/Components/ili9325/ili9325.c ****   
 725              		.loc 1 198 3 view .LVU129
 726 01c4 41F21801 		movw	r1, #4120
 727 01c8 0320     		movs	r0, #3
 728 01ca FFF7FEFF 		bl	ili9325_WriteReg
 729              	.LVL98:
 201:Drivers/BSP/Components/ili9325/ili9325.c ****   
 730              		.loc 1 201 3 view .LVU130
 731 01ce 40F27311 		movw	r1, #371
 732 01d2 0720     		movs	r0, #7
 733 01d4 FFF7FEFF 		bl	ili9325_WriteReg
 734              	.LVL99:
 204:Drivers/BSP/Components/ili9325/ili9325.c ****   
 735              		.loc 1 204 3 view .LVU131
ARM GAS  /var/folders/0z/tsy30v1j4xl4_7kw94k978ww0000gn/T//ccRlqNXm.s 			page 24


 736 01d8 0021     		movs	r1, #0
 737 01da 0846     		mov	r0, r1
 738 01dc FFF7FEFF 		bl	ili9325_SetCursor
 739              	.LVL100:
 207:Drivers/BSP/Components/ili9325/ili9325.c **** }
 740              		.loc 1 207 3 view .LVU132
 741 01e0 2220     		movs	r0, #34
 742 01e2 FFF7FEFF 		bl	LCD_IO_WriteReg
 743              	.LVL101:
 208:Drivers/BSP/Components/ili9325/ili9325.c **** 
 744              		.loc 1 208 1 is_stmt 0 view .LVU133
 745 01e6 08BD     		pop	{r3, pc}
 746              		.cfi_endproc
 747              	.LFE0:
 749              		.section	.text.ili9325_SetDisplayWindow,"ax",%progbits
 750              		.align	1
 751              		.global	ili9325_SetDisplayWindow
 752              		.syntax unified
 753              		.thumb
 754              		.thumb_func
 756              	ili9325_SetDisplayWindow:
 757              	.LVL102:
 758              	.LFB11:
 364:Drivers/BSP/Components/ili9325/ili9325.c ****   /* Horizontal GRAM Start Address */
 759              		.loc 1 364 1 is_stmt 1 view -0
 760              		.cfi_startproc
 761              		@ args = 0, pretend = 0, frame = 0
 762              		@ frame_needed = 0, uses_anonymous_args = 0
 364:Drivers/BSP/Components/ili9325/ili9325.c ****   /* Horizontal GRAM Start Address */
 763              		.loc 1 364 1 is_stmt 0 view .LVU135
 764 0000 F8B5     		push	{r3, r4, r5, r6, r7, lr}
 765              		.cfi_def_cfa_offset 24
 766              		.cfi_offset 3, -24
 767              		.cfi_offset 4, -20
 768              		.cfi_offset 5, -16
 769              		.cfi_offset 6, -12
 770              		.cfi_offset 7, -8
 771              		.cfi_offset 14, -4
 772 0002 0646     		mov	r6, r0
 773 0004 0D46     		mov	r5, r1
 774 0006 1446     		mov	r4, r2
 775 0008 1F46     		mov	r7, r3
 366:Drivers/BSP/Components/ili9325/ili9325.c ****   /* Horizontal GRAM End Address */
 776              		.loc 1 366 3 is_stmt 1 view .LVU136
 777 000a 5020     		movs	r0, #80
 778              	.LVL103:
 366:Drivers/BSP/Components/ili9325/ili9325.c ****   /* Horizontal GRAM End Address */
 779              		.loc 1 366 3 is_stmt 0 view .LVU137
 780 000c FFF7FEFF 		bl	ili9325_WriteReg
 781              	.LVL104:
 368:Drivers/BSP/Components/ili9325/ili9325.c ****   
 782              		.loc 1 368 3 is_stmt 1 view .LVU138
 368:Drivers/BSP/Components/ili9325/ili9325.c ****   
 783              		.loc 1 368 38 is_stmt 0 view .LVU139
 784 0010 E919     		adds	r1, r5, r7
 785 0012 89B2     		uxth	r1, r1
 368:Drivers/BSP/Components/ili9325/ili9325.c ****   
ARM GAS  /var/folders/0z/tsy30v1j4xl4_7kw94k978ww0000gn/T//ccRlqNXm.s 			page 25


 786              		.loc 1 368 3 view .LVU140
 787 0014 0139     		subs	r1, r1, #1
 788 0016 89B2     		uxth	r1, r1
 789 0018 5120     		movs	r0, #81
 790 001a FFF7FEFF 		bl	ili9325_WriteReg
 791              	.LVL105:
 371:Drivers/BSP/Components/ili9325/ili9325.c ****   /* Vertical GRAM End Address */
 792              		.loc 1 371 3 is_stmt 1 view .LVU141
 371:Drivers/BSP/Components/ili9325/ili9325.c ****   /* Vertical GRAM End Address */
 793              		.loc 1 371 63 is_stmt 0 view .LVU142
 794 001e 3119     		adds	r1, r6, r4
 795 0020 89B2     		uxth	r1, r1
 371:Drivers/BSP/Components/ili9325/ili9325.c ****   /* Vertical GRAM End Address */
 796              		.loc 1 371 3 view .LVU143
 797 0022 C1F5A071 		rsb	r1, r1, #320
 798 0026 89B2     		uxth	r1, r1
 799 0028 5220     		movs	r0, #82
 800 002a FFF7FEFF 		bl	ili9325_WriteReg
 801              	.LVL106:
 373:Drivers/BSP/Components/ili9325/ili9325.c **** }
 802              		.loc 1 373 3 is_stmt 1 view .LVU144
 803 002e C6F59F71 		rsb	r1, r6, #318
 804 0032 0131     		adds	r1, r1, #1
 805 0034 89B2     		uxth	r1, r1
 806 0036 5320     		movs	r0, #83
 807 0038 FFF7FEFF 		bl	ili9325_WriteReg
 808              	.LVL107:
 374:Drivers/BSP/Components/ili9325/ili9325.c **** 
 809              		.loc 1 374 1 is_stmt 0 view .LVU145
 810 003c F8BD     		pop	{r3, r4, r5, r6, r7, pc}
 811              		.cfi_endproc
 812              	.LFE11:
 814              		.section	.text.ili9325_DrawVLine,"ax",%progbits
 815              		.align	1
 816              		.global	ili9325_DrawVLine
 817              		.syntax unified
 818              		.thumb
 819              		.thumb_func
 821              	ili9325_DrawVLine:
 822              	.LVL108:
 823              	.LFB13:
 412:Drivers/BSP/Components/ili9325/ili9325.c ****   uint16_t counter = 0;
 824              		.loc 1 412 1 is_stmt 1 view -0
 825              		.cfi_startproc
 826              		@ args = 0, pretend = 0, frame = 0
 827              		@ frame_needed = 0, uses_anonymous_args = 0
 412:Drivers/BSP/Components/ili9325/ili9325.c ****   uint16_t counter = 0;
 828              		.loc 1 412 1 is_stmt 0 view .LVU147
 829 0000 F8B5     		push	{r3, r4, r5, r6, r7, lr}
 830              		.cfi_def_cfa_offset 24
 831              		.cfi_offset 3, -24
 832              		.cfi_offset 4, -20
 833              		.cfi_offset 5, -16
 834              		.cfi_offset 6, -12
 835              		.cfi_offset 7, -8
 836              		.cfi_offset 14, -4
 837 0002 0546     		mov	r5, r0
ARM GAS  /var/folders/0z/tsy30v1j4xl4_7kw94k978ww0000gn/T//ccRlqNXm.s 			page 26


 838 0004 0E46     		mov	r6, r1
 839 0006 1746     		mov	r7, r2
 840 0008 1C46     		mov	r4, r3
 413:Drivers/BSP/Components/ili9325/ili9325.c **** 
 841              		.loc 1 413 3 is_stmt 1 view .LVU148
 842              	.LVL109:
 418:Drivers/BSP/Components/ili9325/ili9325.c ****   
 843              		.loc 1 418 3 view .LVU149
 844 000a 41F21001 		movw	r1, #4112
 845              	.LVL110:
 418:Drivers/BSP/Components/ili9325/ili9325.c ****   
 846              		.loc 1 418 3 is_stmt 0 view .LVU150
 847 000e 0320     		movs	r0, #3
 848              	.LVL111:
 418:Drivers/BSP/Components/ili9325/ili9325.c ****   
 849              		.loc 1 418 3 view .LVU151
 850 0010 FFF7FEFF 		bl	ili9325_WriteReg
 851              	.LVL112:
 421:Drivers/BSP/Components/ili9325/ili9325.c ****   
 852              		.loc 1 421 3 is_stmt 1 view .LVU152
 853 0014 3946     		mov	r1, r7
 854 0016 3046     		mov	r0, r6
 855 0018 FFF7FEFF 		bl	ili9325_SetCursor
 856              	.LVL113:
 424:Drivers/BSP/Components/ili9325/ili9325.c **** 
 857              		.loc 1 424 3 view .LVU153
 858 001c 2220     		movs	r0, #34
 859 001e FFF7FEFF 		bl	LCD_IO_WriteReg
 860              	.LVL114:
 427:Drivers/BSP/Components/ili9325/ili9325.c ****   {
 861              		.loc 1 427 3 view .LVU154
 427:Drivers/BSP/Components/ili9325/ili9325.c ****   {
 862              		.loc 1 427 15 is_stmt 0 view .LVU155
 863 0022 0022     		movs	r2, #0
 427:Drivers/BSP/Components/ili9325/ili9325.c ****   {
 864              		.loc 1 427 3 view .LVU156
 865 0024 04E0     		b	.L28
 866              	.LVL115:
 867              	.L29:
 429:Drivers/BSP/Components/ili9325/ili9325.c ****   }
 868              		.loc 1 429 5 is_stmt 1 discriminator 3 view .LVU157
 429:Drivers/BSP/Components/ili9325/ili9325.c ****   }
 869              		.loc 1 429 23 is_stmt 0 discriminator 3 view .LVU158
 870 0026 0849     		ldr	r1, .L31
 871 0028 21F81250 		strh	r5, [r1, r2, lsl #1]	@ movhi
 427:Drivers/BSP/Components/ili9325/ili9325.c ****   {
 872              		.loc 1 427 45 is_stmt 1 discriminator 3 view .LVU159
 873 002c 0132     		adds	r2, r2, #1
 874              	.LVL116:
 427:Drivers/BSP/Components/ili9325/ili9325.c ****   {
 875              		.loc 1 427 45 is_stmt 0 discriminator 3 view .LVU160
 876 002e 92B2     		uxth	r2, r2
 877              	.LVL117:
 878              	.L28:
 427:Drivers/BSP/Components/ili9325/ili9325.c ****   {
 879              		.loc 1 427 28 is_stmt 1 discriminator 1 view .LVU161
 880 0030 A242     		cmp	r2, r4
ARM GAS  /var/folders/0z/tsy30v1j4xl4_7kw94k978ww0000gn/T//ccRlqNXm.s 			page 27


 881 0032 F8D3     		bcc	.L29
 433:Drivers/BSP/Components/ili9325/ili9325.c ****   
 882              		.loc 1 433 3 view .LVU162
 883 0034 6100     		lsls	r1, r4, #1
 884 0036 0448     		ldr	r0, .L31
 885 0038 FFF7FEFF 		bl	LCD_IO_WriteMultipleData
 886              	.LVL118:
 438:Drivers/BSP/Components/ili9325/ili9325.c **** }
 887              		.loc 1 438 3 view .LVU163
 888 003c 41F21801 		movw	r1, #4120
 889 0040 0320     		movs	r0, #3
 890 0042 FFF7FEFF 		bl	ili9325_WriteReg
 891              	.LVL119:
 439:Drivers/BSP/Components/ili9325/ili9325.c **** 
 892              		.loc 1 439 1 is_stmt 0 view .LVU164
 893 0046 F8BD     		pop	{r3, r4, r5, r6, r7, pc}
 894              	.L32:
 895              		.align	2
 896              	.L31:
 897 0048 00000000 		.word	.LANCHOR0
 898              		.cfi_endproc
 899              	.LFE13:
 901              		.section	.text.ili9325_DrawBitmap,"ax",%progbits
 902              		.align	1
 903              		.global	ili9325_DrawBitmap
 904              		.syntax unified
 905              		.thumb
 906              		.thumb_func
 908              	ili9325_DrawBitmap:
 909              	.LVL120:
 910              	.LFB14:
 449:Drivers/BSP/Components/ili9325/ili9325.c ****   uint32_t index = 0, size = 0;
 911              		.loc 1 449 1 is_stmt 1 view -0
 912              		.cfi_startproc
 913              		@ args = 0, pretend = 0, frame = 0
 914              		@ frame_needed = 0, uses_anonymous_args = 0
 449:Drivers/BSP/Components/ili9325/ili9325.c ****   uint32_t index = 0, size = 0;
 915              		.loc 1 449 1 is_stmt 0 view .LVU166
 916 0000 F8B5     		push	{r3, r4, r5, r6, r7, lr}
 917              		.cfi_def_cfa_offset 24
 918              		.cfi_offset 3, -24
 919              		.cfi_offset 4, -20
 920              		.cfi_offset 5, -16
 921              		.cfi_offset 6, -12
 922              		.cfi_offset 7, -8
 923              		.cfi_offset 14, -4
 924 0002 0646     		mov	r6, r0
 925 0004 0F46     		mov	r7, r1
 450:Drivers/BSP/Components/ili9325/ili9325.c ****   /* Read bitmap size */
 926              		.loc 1 450 3 is_stmt 1 view .LVU167
 927              	.LVL121:
 452:Drivers/BSP/Components/ili9325/ili9325.c ****   size |= (*(volatile uint16_t *) (pbmp + 4)) << 16;
 928              		.loc 1 452 3 view .LVU168
 452:Drivers/BSP/Components/ili9325/ili9325.c ****   size |= (*(volatile uint16_t *) (pbmp + 4)) << 16;
 929              		.loc 1 452 10 is_stmt 0 view .LVU169
 930 0006 5588     		ldrh	r5, [r2, #2]
 931 0008 ADB2     		uxth	r5, r5
ARM GAS  /var/folders/0z/tsy30v1j4xl4_7kw94k978ww0000gn/T//ccRlqNXm.s 			page 28


 932              	.LVL122:
 453:Drivers/BSP/Components/ili9325/ili9325.c ****   /* Get bitmap data address offset */
 933              		.loc 1 453 3 is_stmt 1 view .LVU170
 453:Drivers/BSP/Components/ili9325/ili9325.c ****   /* Get bitmap data address offset */
 934              		.loc 1 453 12 is_stmt 0 view .LVU171
 935 000a 9388     		ldrh	r3, [r2, #4]
 453:Drivers/BSP/Components/ili9325/ili9325.c ****   /* Get bitmap data address offset */
 936              		.loc 1 453 8 view .LVU172
 937 000c 45EA0345 		orr	r5, r5, r3, lsl #16
 938              	.LVL123:
 455:Drivers/BSP/Components/ili9325/ili9325.c ****   index |= (*(volatile uint16_t *) (pbmp + 12)) << 16;
 939              		.loc 1 455 3 is_stmt 1 view .LVU173
 455:Drivers/BSP/Components/ili9325/ili9325.c ****   index |= (*(volatile uint16_t *) (pbmp + 12)) << 16;
 940              		.loc 1 455 11 is_stmt 0 view .LVU174
 941 0010 5389     		ldrh	r3, [r2, #10]
 942 0012 9BB2     		uxth	r3, r3
 943              	.LVL124:
 456:Drivers/BSP/Components/ili9325/ili9325.c ****   size = (size - index)/2;
 944              		.loc 1 456 3 is_stmt 1 view .LVU175
 456:Drivers/BSP/Components/ili9325/ili9325.c ****   size = (size - index)/2;
 945              		.loc 1 456 13 is_stmt 0 view .LVU176
 946 0014 9189     		ldrh	r1, [r2, #12]
 947              	.LVL125:
 456:Drivers/BSP/Components/ili9325/ili9325.c ****   size = (size - index)/2;
 948              		.loc 1 456 9 view .LVU177
 949 0016 43EA0143 		orr	r3, r3, r1, lsl #16
 950              	.LVL126:
 457:Drivers/BSP/Components/ili9325/ili9325.c ****   pbmp += index;
 951              		.loc 1 457 3 is_stmt 1 view .LVU178
 457:Drivers/BSP/Components/ili9325/ili9325.c ****   pbmp += index;
 952              		.loc 1 457 16 is_stmt 0 view .LVU179
 953 001a ED1A     		subs	r5, r5, r3
 954              	.LVL127:
 458:Drivers/BSP/Components/ili9325/ili9325.c ****   /* Set GRAM write direction and BGR = 1 */
 955              		.loc 1 458 3 is_stmt 1 view .LVU180
 458:Drivers/BSP/Components/ili9325/ili9325.c ****   /* Set GRAM write direction and BGR = 1 */
 956              		.loc 1 458 8 is_stmt 0 view .LVU181
 957 001c D418     		adds	r4, r2, r3
 958              	.LVL128:
 462:Drivers/BSP/Components/ili9325/ili9325.c **** 
 959              		.loc 1 462 3 is_stmt 1 view .LVU182
 960 001e 41F20801 		movw	r1, #4104
 961 0022 0320     		movs	r0, #3
 962              	.LVL129:
 462:Drivers/BSP/Components/ili9325/ili9325.c **** 
 963              		.loc 1 462 3 is_stmt 0 view .LVU183
 964 0024 FFF7FEFF 		bl	ili9325_WriteReg
 965              	.LVL130:
 465:Drivers/BSP/Components/ili9325/ili9325.c ****   
 966              		.loc 1 465 3 is_stmt 1 view .LVU184
 967 0028 3946     		mov	r1, r7
 968 002a 3046     		mov	r0, r6
 969 002c FFF7FEFF 		bl	ili9325_SetCursor
 970              	.LVL131:
 468:Drivers/BSP/Components/ili9325/ili9325.c ****  
 971              		.loc 1 468 3 view .LVU185
 972 0030 2220     		movs	r0, #34
ARM GAS  /var/folders/0z/tsy30v1j4xl4_7kw94k978ww0000gn/T//ccRlqNXm.s 			page 29


 973 0032 FFF7FEFF 		bl	LCD_IO_WriteReg
 974              	.LVL132:
 470:Drivers/BSP/Components/ili9325/ili9325.c ****  
 975              		.loc 1 470 3 view .LVU186
 976 0036 25F00101 		bic	r1, r5, #1
 977 003a 2046     		mov	r0, r4
 978 003c FFF7FEFF 		bl	LCD_IO_WriteMultipleData
 979              	.LVL133:
 475:Drivers/BSP/Components/ili9325/ili9325.c **** }
 980              		.loc 1 475 3 view .LVU187
 981 0040 41F21801 		movw	r1, #4120
 982 0044 0320     		movs	r0, #3
 983 0046 FFF7FEFF 		bl	ili9325_WriteReg
 984              	.LVL134:
 476:Drivers/BSP/Components/ili9325/ili9325.c **** 
 985              		.loc 1 476 1 is_stmt 0 view .LVU188
 986 004a F8BD     		pop	{r3, r4, r5, r6, r7, pc}
 476:Drivers/BSP/Components/ili9325/ili9325.c **** 
 987              		.loc 1 476 1 view .LVU189
 988              		.cfi_endproc
 989              	.LFE14:
 991              		.section	.text.ili9325_ReadReg,"ax",%progbits
 992              		.align	1
 993              		.global	ili9325_ReadReg
 994              		.syntax unified
 995              		.thumb
 996              		.thumb_func
 998              	ili9325_ReadReg:
 999              	.LVL135:
 1000              	.LFB10:
 350:Drivers/BSP/Components/ili9325/ili9325.c ****   /* Read 16-bit Reg */
 1001              		.loc 1 350 1 is_stmt 1 view -0
 1002              		.cfi_startproc
 1003              		@ args = 0, pretend = 0, frame = 0
 1004              		@ frame_needed = 0, uses_anonymous_args = 0
 350:Drivers/BSP/Components/ili9325/ili9325.c ****   /* Read 16-bit Reg */
 1005              		.loc 1 350 1 is_stmt 0 view .LVU191
 1006 0000 08B5     		push	{r3, lr}
 1007              		.cfi_def_cfa_offset 8
 1008              		.cfi_offset 3, -8
 1009              		.cfi_offset 14, -4
 352:Drivers/BSP/Components/ili9325/ili9325.c **** }
 1010              		.loc 1 352 3 is_stmt 1 view .LVU192
 352:Drivers/BSP/Components/ili9325/ili9325.c **** }
 1011              		.loc 1 352 11 is_stmt 0 view .LVU193
 1012 0002 FFF7FEFF 		bl	LCD_IO_ReadData
 1013              	.LVL136:
 353:Drivers/BSP/Components/ili9325/ili9325.c **** 
 1014              		.loc 1 353 1 view .LVU194
 1015 0006 08BD     		pop	{r3, pc}
 1016              		.cfi_endproc
 1017              	.LFE10:
 1019              		.section	.text.ili9325_ReadID,"ax",%progbits
 1020              		.align	1
 1021              		.global	ili9325_ReadID
 1022              		.syntax unified
 1023              		.thumb
ARM GAS  /var/folders/0z/tsy30v1j4xl4_7kw94k978ww0000gn/T//ccRlqNXm.s 			page 30


 1024              		.thumb_func
 1026              	ili9325_ReadID:
 1027              	.LFB5:
 280:Drivers/BSP/Components/ili9325/ili9325.c ****   LCD_IO_Init(); 
 1028              		.loc 1 280 1 is_stmt 1 view -0
 1029              		.cfi_startproc
 1030              		@ args = 0, pretend = 0, frame = 0
 1031              		@ frame_needed = 0, uses_anonymous_args = 0
 1032 0000 08B5     		push	{r3, lr}
 1033              		.cfi_def_cfa_offset 8
 1034              		.cfi_offset 3, -8
 1035              		.cfi_offset 14, -4
 281:Drivers/BSP/Components/ili9325/ili9325.c ****   return (ili9325_ReadReg(0x00));
 1036              		.loc 1 281 3 view .LVU196
 1037 0002 FFF7FEFF 		bl	LCD_IO_Init
 1038              	.LVL137:
 282:Drivers/BSP/Components/ili9325/ili9325.c **** }
 1039              		.loc 1 282 3 view .LVU197
 282:Drivers/BSP/Components/ili9325/ili9325.c **** }
 1040              		.loc 1 282 11 is_stmt 0 view .LVU198
 1041 0006 0020     		movs	r0, #0
 1042 0008 FFF7FEFF 		bl	ili9325_ReadReg
 1043              	.LVL138:
 283:Drivers/BSP/Components/ili9325/ili9325.c **** 
 1044              		.loc 1 283 1 view .LVU199
 1045 000c 08BD     		pop	{r3, pc}
 1046              		.cfi_endproc
 1047              	.LFE5:
 1049              		.global	ili9325_drv
 1050              		.section	.bss.ArrayRGB,"aw",%nobits
 1051              		.align	2
 1052              		.set	.LANCHOR0,. + 0
 1055              	ArrayRGB:
 1056 0000 00000000 		.space	640
 1056      00000000 
 1056      00000000 
 1056      00000000 
 1056      00000000 
 1057              		.section	.data.ili9325_drv,"aw"
 1058              		.align	2
 1061              	ili9325_drv:
 1062 0000 00000000 		.word	ili9325_Init
 1063 0004 00000000 		.word	ili9325_ReadID
 1064 0008 00000000 		.word	ili9325_DisplayOn
 1065 000c 00000000 		.word	ili9325_DisplayOff
 1066 0010 00000000 		.word	ili9325_SetCursor
 1067 0014 00000000 		.word	ili9325_WritePixel
 1068 0018 00000000 		.word	ili9325_ReadPixel
 1069 001c 00000000 		.word	ili9325_SetDisplayWindow
 1070 0020 00000000 		.word	ili9325_DrawHLine
 1071 0024 00000000 		.word	ili9325_DrawVLine
 1072 0028 00000000 		.word	ili9325_GetLcdPixelWidth
 1073 002c 00000000 		.word	ili9325_GetLcdPixelHeight
 1074 0030 00000000 		.word	ili9325_DrawBitmap
 1075 0034 00000000 		.word	ili9325_DrawRGBImage
 1076              		.text
 1077              	.Letext0:
ARM GAS  /var/folders/0z/tsy30v1j4xl4_7kw94k978ww0000gn/T//ccRlqNXm.s 			page 31


 1078              		.file 2 "/Users/johannes/Library/Application Support/Code/User/globalStorage/bmd.stm32-for-vscode/
 1079              		.file 3 "/Users/johannes/Library/Application Support/Code/User/globalStorage/bmd.stm32-for-vscode/
 1080              		.file 4 "Drivers/BSP/Components/ili9325/../Common/lcd.h"
 1081              		.file 5 "Drivers/BSP/Components/ili9325/ili9325.h"
ARM GAS  /var/folders/0z/tsy30v1j4xl4_7kw94k978ww0000gn/T//ccRlqNXm.s 			page 32

