ARM GAS  /var/folders/0z/tsy30v1j4xl4_7kw94k978ww0000gn/T//cc3ICnnZ.s 			page 1


   1              		.cpu cortex-m4
   2              		.arch armv7e-m
   3              		.fpu fpv4-sp-d16
   4              		.eabi_attribute 27, 1
   5              		.eabi_attribute 28, 1
   6              		.eabi_attribute 20, 1
   7              		.eabi_attribute 21, 1
   8              		.eabi_attribute 23, 3
   9              		.eabi_attribute 24, 1
  10              		.eabi_attribute 25, 1
  11              		.eabi_attribute 26, 1
  12              		.eabi_attribute 30, 2
  13              		.eabi_attribute 34, 1
  14              		.eabi_attribute 18, 4
  15              		.file	"ili9341.c"
  16              		.text
  17              	.Ltext0:
  18              		.cfi_sections	.debug_frame
  19              		.section	.text.ili9341_GetLcdPixelWidth,"ax",%progbits
  20              		.align	1
  21              		.p2align 2,,3
  22              		.global	ili9341_GetLcdPixelWidth
  23              		.syntax unified
  24              		.thumb
  25              		.thumb_func
  27              	ili9341_GetLcdPixelWidth:
  28              	.LFB7:
  29              		.file 1 "Drivers/BSP/Components/ili9341/ili9341.c"
   1:Drivers/BSP/Components/ili9341/ili9341.c **** /**
   2:Drivers/BSP/Components/ili9341/ili9341.c ****   ******************************************************************************
   3:Drivers/BSP/Components/ili9341/ili9341.c ****   * @file    ili9341.c
   4:Drivers/BSP/Components/ili9341/ili9341.c ****   * @author  MCD Application Team
   5:Drivers/BSP/Components/ili9341/ili9341.c ****   * @version V1.0.2
   6:Drivers/BSP/Components/ili9341/ili9341.c ****   * @date    02-December-2014
   7:Drivers/BSP/Components/ili9341/ili9341.c ****   * @brief   This file includes the LCD driver for ILI9341 LCD.
   8:Drivers/BSP/Components/ili9341/ili9341.c ****   ******************************************************************************
   9:Drivers/BSP/Components/ili9341/ili9341.c ****   * @attention
  10:Drivers/BSP/Components/ili9341/ili9341.c ****   *
  11:Drivers/BSP/Components/ili9341/ili9341.c ****   * <h2><center>&copy; COPYRIGHT(c) 2014 STMicroelectronics</center></h2>
  12:Drivers/BSP/Components/ili9341/ili9341.c ****   *
  13:Drivers/BSP/Components/ili9341/ili9341.c ****   * Redistribution and use in source and binary forms, with or without modification,
  14:Drivers/BSP/Components/ili9341/ili9341.c ****   * are permitted provided that the following conditions are met:
  15:Drivers/BSP/Components/ili9341/ili9341.c ****   *   1. Redistributions of source code must retain the above copyright notice,
  16:Drivers/BSP/Components/ili9341/ili9341.c ****   *      this list of conditions and the following disclaimer.
  17:Drivers/BSP/Components/ili9341/ili9341.c ****   *   2. Redistributions in binary form must reproduce the above copyright notice,
  18:Drivers/BSP/Components/ili9341/ili9341.c ****   *      this list of conditions and the following disclaimer in the documentation
  19:Drivers/BSP/Components/ili9341/ili9341.c ****   *      and/or other materials provided with the distribution.
  20:Drivers/BSP/Components/ili9341/ili9341.c ****   *   3. Neither the name of STMicroelectronics nor the names of its contributors
  21:Drivers/BSP/Components/ili9341/ili9341.c ****   *      may be used to endorse or promote products derived from this software
  22:Drivers/BSP/Components/ili9341/ili9341.c ****   *      without specific prior written permission.
  23:Drivers/BSP/Components/ili9341/ili9341.c ****   *
  24:Drivers/BSP/Components/ili9341/ili9341.c ****   * THIS SOFTWARE IS PROVIDED BY THE COPYRIGHT HOLDERS AND CONTRIBUTORS "AS IS"
  25:Drivers/BSP/Components/ili9341/ili9341.c ****   * AND ANY EXPRESS OR IMPLIED WARRANTIES, INCLUDING, BUT NOT LIMITED TO, THE
  26:Drivers/BSP/Components/ili9341/ili9341.c ****   * IMPLIED WARRANTIES OF MERCHANTABILITY AND FITNESS FOR A PARTICULAR PURPOSE ARE
  27:Drivers/BSP/Components/ili9341/ili9341.c ****   * DISCLAIMED. IN NO EVENT SHALL THE COPYRIGHT HOLDER OR CONTRIBUTORS BE LIABLE
  28:Drivers/BSP/Components/ili9341/ili9341.c ****   * FOR ANY DIRECT, INDIRECT, INCIDENTAL, SPECIAL, EXEMPLARY, OR CONSEQUENTIAL
  29:Drivers/BSP/Components/ili9341/ili9341.c ****   * DAMAGES (INCLUDING, BUT NOT LIMITED TO, PROCUREMENT OF SUBSTITUTE GOODS OR
ARM GAS  /var/folders/0z/tsy30v1j4xl4_7kw94k978ww0000gn/T//cc3ICnnZ.s 			page 2


  30:Drivers/BSP/Components/ili9341/ili9341.c ****   * SERVICES; LOSS OF USE, DATA, OR PROFITS; OR BUSINESS INTERRUPTION) HOWEVER
  31:Drivers/BSP/Components/ili9341/ili9341.c ****   * CAUSED AND ON ANY THEORY OF LIABILITY, WHETHER IN CONTRACT, STRICT LIABILITY,
  32:Drivers/BSP/Components/ili9341/ili9341.c ****   * OR TORT (INCLUDING NEGLIGENCE OR OTHERWISE) ARISING IN ANY WAY OUT OF THE USE
  33:Drivers/BSP/Components/ili9341/ili9341.c ****   * OF THIS SOFTWARE, EVEN IF ADVISED OF THE POSSIBILITY OF SUCH DAMAGE.
  34:Drivers/BSP/Components/ili9341/ili9341.c ****   *
  35:Drivers/BSP/Components/ili9341/ili9341.c ****   ******************************************************************************
  36:Drivers/BSP/Components/ili9341/ili9341.c ****   */ 
  37:Drivers/BSP/Components/ili9341/ili9341.c **** 
  38:Drivers/BSP/Components/ili9341/ili9341.c **** /* Includes ------------------------------------------------------------------*/
  39:Drivers/BSP/Components/ili9341/ili9341.c **** #include "ili9341.h"
  40:Drivers/BSP/Components/ili9341/ili9341.c **** 
  41:Drivers/BSP/Components/ili9341/ili9341.c **** /** @addtogroup BSP
  42:Drivers/BSP/Components/ili9341/ili9341.c ****   * @{
  43:Drivers/BSP/Components/ili9341/ili9341.c ****   */ 
  44:Drivers/BSP/Components/ili9341/ili9341.c **** 
  45:Drivers/BSP/Components/ili9341/ili9341.c **** /** @addtogroup Components
  46:Drivers/BSP/Components/ili9341/ili9341.c ****   * @{
  47:Drivers/BSP/Components/ili9341/ili9341.c ****   */ 
  48:Drivers/BSP/Components/ili9341/ili9341.c ****   
  49:Drivers/BSP/Components/ili9341/ili9341.c **** /** @addtogroup ILI9341
  50:Drivers/BSP/Components/ili9341/ili9341.c ****   * @brief This file provides a set of functions needed to drive the 
  51:Drivers/BSP/Components/ili9341/ili9341.c ****   *        ILI9341 LCD.
  52:Drivers/BSP/Components/ili9341/ili9341.c ****   * @{
  53:Drivers/BSP/Components/ili9341/ili9341.c ****   */
  54:Drivers/BSP/Components/ili9341/ili9341.c **** 
  55:Drivers/BSP/Components/ili9341/ili9341.c **** /** @defgroup ILI9341_Private_TypesDefinitions
  56:Drivers/BSP/Components/ili9341/ili9341.c ****   * @{
  57:Drivers/BSP/Components/ili9341/ili9341.c ****   */ 
  58:Drivers/BSP/Components/ili9341/ili9341.c **** /**
  59:Drivers/BSP/Components/ili9341/ili9341.c ****   * @}
  60:Drivers/BSP/Components/ili9341/ili9341.c ****   */ 
  61:Drivers/BSP/Components/ili9341/ili9341.c **** 
  62:Drivers/BSP/Components/ili9341/ili9341.c **** /** @defgroup ILI9341_Private_Defines
  63:Drivers/BSP/Components/ili9341/ili9341.c ****   * @{
  64:Drivers/BSP/Components/ili9341/ili9341.c ****   */
  65:Drivers/BSP/Components/ili9341/ili9341.c **** /**
  66:Drivers/BSP/Components/ili9341/ili9341.c ****   * @}
  67:Drivers/BSP/Components/ili9341/ili9341.c ****   */ 
  68:Drivers/BSP/Components/ili9341/ili9341.c ****   
  69:Drivers/BSP/Components/ili9341/ili9341.c **** /** @defgroup ILI9341_Private_Macros
  70:Drivers/BSP/Components/ili9341/ili9341.c ****   * @{
  71:Drivers/BSP/Components/ili9341/ili9341.c ****   */
  72:Drivers/BSP/Components/ili9341/ili9341.c **** /**
  73:Drivers/BSP/Components/ili9341/ili9341.c ****   * @}
  74:Drivers/BSP/Components/ili9341/ili9341.c ****   */  
  75:Drivers/BSP/Components/ili9341/ili9341.c **** 
  76:Drivers/BSP/Components/ili9341/ili9341.c **** /** @defgroup ILI9341_Private_Variables
  77:Drivers/BSP/Components/ili9341/ili9341.c ****   * @{
  78:Drivers/BSP/Components/ili9341/ili9341.c ****   */ 
  79:Drivers/BSP/Components/ili9341/ili9341.c **** 
  80:Drivers/BSP/Components/ili9341/ili9341.c **** LCD_DrvTypeDef   ili9341_drv = 
  81:Drivers/BSP/Components/ili9341/ili9341.c **** {
  82:Drivers/BSP/Components/ili9341/ili9341.c ****   ili9341_Init,
  83:Drivers/BSP/Components/ili9341/ili9341.c ****   ili9341_ReadID,
  84:Drivers/BSP/Components/ili9341/ili9341.c ****   ili9341_DisplayOn,
  85:Drivers/BSP/Components/ili9341/ili9341.c ****   ili9341_DisplayOff,
  86:Drivers/BSP/Components/ili9341/ili9341.c ****   0,
ARM GAS  /var/folders/0z/tsy30v1j4xl4_7kw94k978ww0000gn/T//cc3ICnnZ.s 			page 3


  87:Drivers/BSP/Components/ili9341/ili9341.c ****   0,
  88:Drivers/BSP/Components/ili9341/ili9341.c ****   0,
  89:Drivers/BSP/Components/ili9341/ili9341.c ****   0,
  90:Drivers/BSP/Components/ili9341/ili9341.c ****   0,
  91:Drivers/BSP/Components/ili9341/ili9341.c ****   0,
  92:Drivers/BSP/Components/ili9341/ili9341.c ****   ili9341_GetLcdPixelWidth,
  93:Drivers/BSP/Components/ili9341/ili9341.c ****   ili9341_GetLcdPixelHeight,
  94:Drivers/BSP/Components/ili9341/ili9341.c ****   0,
  95:Drivers/BSP/Components/ili9341/ili9341.c ****   0,    
  96:Drivers/BSP/Components/ili9341/ili9341.c **** };
  97:Drivers/BSP/Components/ili9341/ili9341.c **** 
  98:Drivers/BSP/Components/ili9341/ili9341.c **** /**
  99:Drivers/BSP/Components/ili9341/ili9341.c ****   * @}
 100:Drivers/BSP/Components/ili9341/ili9341.c ****   */ 
 101:Drivers/BSP/Components/ili9341/ili9341.c ****   
 102:Drivers/BSP/Components/ili9341/ili9341.c **** /** @defgroup ILI9341_Private_FunctionPrototypes
 103:Drivers/BSP/Components/ili9341/ili9341.c ****   * @{
 104:Drivers/BSP/Components/ili9341/ili9341.c ****   */
 105:Drivers/BSP/Components/ili9341/ili9341.c **** 
 106:Drivers/BSP/Components/ili9341/ili9341.c **** /**
 107:Drivers/BSP/Components/ili9341/ili9341.c ****   * @}
 108:Drivers/BSP/Components/ili9341/ili9341.c ****   */ 
 109:Drivers/BSP/Components/ili9341/ili9341.c ****   
 110:Drivers/BSP/Components/ili9341/ili9341.c **** /** @defgroup ILI9341_Private_Functions
 111:Drivers/BSP/Components/ili9341/ili9341.c ****   * @{
 112:Drivers/BSP/Components/ili9341/ili9341.c ****   */   
 113:Drivers/BSP/Components/ili9341/ili9341.c **** 
 114:Drivers/BSP/Components/ili9341/ili9341.c **** /**
 115:Drivers/BSP/Components/ili9341/ili9341.c ****   * @brief  Power on the LCD.
 116:Drivers/BSP/Components/ili9341/ili9341.c ****   * @param  None
 117:Drivers/BSP/Components/ili9341/ili9341.c ****   * @retval None
 118:Drivers/BSP/Components/ili9341/ili9341.c ****   */
 119:Drivers/BSP/Components/ili9341/ili9341.c **** void ili9341_Init(void)
 120:Drivers/BSP/Components/ili9341/ili9341.c **** {
 121:Drivers/BSP/Components/ili9341/ili9341.c ****   /* Initialize ILI9341 low level bus layer ----------------------------------*/
 122:Drivers/BSP/Components/ili9341/ili9341.c ****   LCD_IO_Init();
 123:Drivers/BSP/Components/ili9341/ili9341.c ****   
 124:Drivers/BSP/Components/ili9341/ili9341.c ****   /* Configure LCD */
 125:Drivers/BSP/Components/ili9341/ili9341.c ****   ili9341_WriteReg(0xCA);
 126:Drivers/BSP/Components/ili9341/ili9341.c ****   ili9341_WriteData(0xC3);
 127:Drivers/BSP/Components/ili9341/ili9341.c ****   ili9341_WriteData(0x08);
 128:Drivers/BSP/Components/ili9341/ili9341.c ****   ili9341_WriteData(0x50);
 129:Drivers/BSP/Components/ili9341/ili9341.c ****   ili9341_WriteReg(LCD_POWERB);
 130:Drivers/BSP/Components/ili9341/ili9341.c ****   ili9341_WriteData(0x00);
 131:Drivers/BSP/Components/ili9341/ili9341.c ****   ili9341_WriteData(0xC1);
 132:Drivers/BSP/Components/ili9341/ili9341.c ****   ili9341_WriteData(0x30);
 133:Drivers/BSP/Components/ili9341/ili9341.c ****   ili9341_WriteReg(LCD_POWER_SEQ);
 134:Drivers/BSP/Components/ili9341/ili9341.c ****   ili9341_WriteData(0x64);
 135:Drivers/BSP/Components/ili9341/ili9341.c ****   ili9341_WriteData(0x03);
 136:Drivers/BSP/Components/ili9341/ili9341.c ****   ili9341_WriteData(0x12);
 137:Drivers/BSP/Components/ili9341/ili9341.c ****   ili9341_WriteData(0x81);
 138:Drivers/BSP/Components/ili9341/ili9341.c ****   ili9341_WriteReg(LCD_DTCA);
 139:Drivers/BSP/Components/ili9341/ili9341.c ****   ili9341_WriteData(0x85);
 140:Drivers/BSP/Components/ili9341/ili9341.c ****   ili9341_WriteData(0x00);
 141:Drivers/BSP/Components/ili9341/ili9341.c ****   ili9341_WriteData(0x78);
 142:Drivers/BSP/Components/ili9341/ili9341.c ****   ili9341_WriteReg(LCD_POWERA);
 143:Drivers/BSP/Components/ili9341/ili9341.c ****   ili9341_WriteData(0x39);
ARM GAS  /var/folders/0z/tsy30v1j4xl4_7kw94k978ww0000gn/T//cc3ICnnZ.s 			page 4


 144:Drivers/BSP/Components/ili9341/ili9341.c ****   ili9341_WriteData(0x2C);
 145:Drivers/BSP/Components/ili9341/ili9341.c ****   ili9341_WriteData(0x00);
 146:Drivers/BSP/Components/ili9341/ili9341.c ****   ili9341_WriteData(0x34);
 147:Drivers/BSP/Components/ili9341/ili9341.c ****   ili9341_WriteData(0x02);
 148:Drivers/BSP/Components/ili9341/ili9341.c ****   ili9341_WriteReg(LCD_PRC);
 149:Drivers/BSP/Components/ili9341/ili9341.c ****   ili9341_WriteData(0x20);
 150:Drivers/BSP/Components/ili9341/ili9341.c ****   ili9341_WriteReg(LCD_DTCB);
 151:Drivers/BSP/Components/ili9341/ili9341.c ****   ili9341_WriteData(0x00);
 152:Drivers/BSP/Components/ili9341/ili9341.c ****   ili9341_WriteData(0x00);
 153:Drivers/BSP/Components/ili9341/ili9341.c ****   ili9341_WriteReg(LCD_FRMCTR1);
 154:Drivers/BSP/Components/ili9341/ili9341.c ****   ili9341_WriteData(0x00);
 155:Drivers/BSP/Components/ili9341/ili9341.c ****   ili9341_WriteData(0x1B);
 156:Drivers/BSP/Components/ili9341/ili9341.c ****   ili9341_WriteReg(LCD_DFC);
 157:Drivers/BSP/Components/ili9341/ili9341.c ****   ili9341_WriteData(0x0A);
 158:Drivers/BSP/Components/ili9341/ili9341.c ****   ili9341_WriteData(0xA2);
 159:Drivers/BSP/Components/ili9341/ili9341.c ****   ili9341_WriteReg(LCD_POWER1);
 160:Drivers/BSP/Components/ili9341/ili9341.c ****   ili9341_WriteData(0x10);
 161:Drivers/BSP/Components/ili9341/ili9341.c ****   ili9341_WriteReg(LCD_POWER2);
 162:Drivers/BSP/Components/ili9341/ili9341.c ****   ili9341_WriteData(0x10);
 163:Drivers/BSP/Components/ili9341/ili9341.c ****   ili9341_WriteReg(LCD_VCOM1);
 164:Drivers/BSP/Components/ili9341/ili9341.c ****   ili9341_WriteData(0x45);
 165:Drivers/BSP/Components/ili9341/ili9341.c ****   ili9341_WriteData(0x15);
 166:Drivers/BSP/Components/ili9341/ili9341.c ****   ili9341_WriteReg(LCD_VCOM2);
 167:Drivers/BSP/Components/ili9341/ili9341.c ****   ili9341_WriteData(0x90);
 168:Drivers/BSP/Components/ili9341/ili9341.c ****   ili9341_WriteReg(LCD_MAC);
 169:Drivers/BSP/Components/ili9341/ili9341.c ****   ili9341_WriteData(0xC8);
 170:Drivers/BSP/Components/ili9341/ili9341.c ****   ili9341_WriteReg(LCD_3GAMMA_EN);
 171:Drivers/BSP/Components/ili9341/ili9341.c ****   ili9341_WriteData(0x00);
 172:Drivers/BSP/Components/ili9341/ili9341.c ****   ili9341_WriteReg(LCD_RGB_INTERFACE);
 173:Drivers/BSP/Components/ili9341/ili9341.c ****   ili9341_WriteData(0xC2);
 174:Drivers/BSP/Components/ili9341/ili9341.c ****   ili9341_WriteReg(LCD_DFC);
 175:Drivers/BSP/Components/ili9341/ili9341.c ****   ili9341_WriteData(0x0A);
 176:Drivers/BSP/Components/ili9341/ili9341.c ****   ili9341_WriteData(0xA7);
 177:Drivers/BSP/Components/ili9341/ili9341.c ****   ili9341_WriteData(0x27);
 178:Drivers/BSP/Components/ili9341/ili9341.c ****   ili9341_WriteData(0x04);
 179:Drivers/BSP/Components/ili9341/ili9341.c ****   
 180:Drivers/BSP/Components/ili9341/ili9341.c ****   /* Colomn address set */
 181:Drivers/BSP/Components/ili9341/ili9341.c ****   ili9341_WriteReg(LCD_COLUMN_ADDR);
 182:Drivers/BSP/Components/ili9341/ili9341.c ****   ili9341_WriteData(0x00);
 183:Drivers/BSP/Components/ili9341/ili9341.c ****   ili9341_WriteData(0x00);
 184:Drivers/BSP/Components/ili9341/ili9341.c ****   ili9341_WriteData(0x00);
 185:Drivers/BSP/Components/ili9341/ili9341.c ****   ili9341_WriteData(0xEF);
 186:Drivers/BSP/Components/ili9341/ili9341.c ****   /* Page address set */
 187:Drivers/BSP/Components/ili9341/ili9341.c ****   ili9341_WriteReg(LCD_PAGE_ADDR);
 188:Drivers/BSP/Components/ili9341/ili9341.c ****   ili9341_WriteData(0x00);
 189:Drivers/BSP/Components/ili9341/ili9341.c ****   ili9341_WriteData(0x00);
 190:Drivers/BSP/Components/ili9341/ili9341.c ****   ili9341_WriteData(0x01);
 191:Drivers/BSP/Components/ili9341/ili9341.c ****   ili9341_WriteData(0x3F);
 192:Drivers/BSP/Components/ili9341/ili9341.c ****   ili9341_WriteReg(LCD_INTERFACE);
 193:Drivers/BSP/Components/ili9341/ili9341.c ****   ili9341_WriteData(0x01);
 194:Drivers/BSP/Components/ili9341/ili9341.c ****   ili9341_WriteData(0x00);
 195:Drivers/BSP/Components/ili9341/ili9341.c ****   ili9341_WriteData(0x06);
 196:Drivers/BSP/Components/ili9341/ili9341.c ****   
 197:Drivers/BSP/Components/ili9341/ili9341.c ****   ili9341_WriteReg(LCD_GRAM);
 198:Drivers/BSP/Components/ili9341/ili9341.c ****   LCD_Delay(200);
 199:Drivers/BSP/Components/ili9341/ili9341.c ****   
 200:Drivers/BSP/Components/ili9341/ili9341.c ****   ili9341_WriteReg(LCD_GAMMA);
ARM GAS  /var/folders/0z/tsy30v1j4xl4_7kw94k978ww0000gn/T//cc3ICnnZ.s 			page 5


 201:Drivers/BSP/Components/ili9341/ili9341.c ****   ili9341_WriteData(0x01);
 202:Drivers/BSP/Components/ili9341/ili9341.c ****   
 203:Drivers/BSP/Components/ili9341/ili9341.c ****   ili9341_WriteReg(LCD_PGAMMA);
 204:Drivers/BSP/Components/ili9341/ili9341.c ****   ili9341_WriteData(0x0F);
 205:Drivers/BSP/Components/ili9341/ili9341.c ****   ili9341_WriteData(0x29);
 206:Drivers/BSP/Components/ili9341/ili9341.c ****   ili9341_WriteData(0x24);
 207:Drivers/BSP/Components/ili9341/ili9341.c ****   ili9341_WriteData(0x0C);
 208:Drivers/BSP/Components/ili9341/ili9341.c ****   ili9341_WriteData(0x0E);
 209:Drivers/BSP/Components/ili9341/ili9341.c ****   ili9341_WriteData(0x09);
 210:Drivers/BSP/Components/ili9341/ili9341.c ****   ili9341_WriteData(0x4E);
 211:Drivers/BSP/Components/ili9341/ili9341.c ****   ili9341_WriteData(0x78);
 212:Drivers/BSP/Components/ili9341/ili9341.c ****   ili9341_WriteData(0x3C);
 213:Drivers/BSP/Components/ili9341/ili9341.c ****   ili9341_WriteData(0x09);
 214:Drivers/BSP/Components/ili9341/ili9341.c ****   ili9341_WriteData(0x13);
 215:Drivers/BSP/Components/ili9341/ili9341.c ****   ili9341_WriteData(0x05);
 216:Drivers/BSP/Components/ili9341/ili9341.c ****   ili9341_WriteData(0x17);
 217:Drivers/BSP/Components/ili9341/ili9341.c ****   ili9341_WriteData(0x11);
 218:Drivers/BSP/Components/ili9341/ili9341.c ****   ili9341_WriteData(0x00);
 219:Drivers/BSP/Components/ili9341/ili9341.c ****   ili9341_WriteReg(LCD_NGAMMA);
 220:Drivers/BSP/Components/ili9341/ili9341.c ****   ili9341_WriteData(0x00);
 221:Drivers/BSP/Components/ili9341/ili9341.c ****   ili9341_WriteData(0x16);
 222:Drivers/BSP/Components/ili9341/ili9341.c ****   ili9341_WriteData(0x1B);
 223:Drivers/BSP/Components/ili9341/ili9341.c ****   ili9341_WriteData(0x04);
 224:Drivers/BSP/Components/ili9341/ili9341.c ****   ili9341_WriteData(0x11);
 225:Drivers/BSP/Components/ili9341/ili9341.c ****   ili9341_WriteData(0x07);
 226:Drivers/BSP/Components/ili9341/ili9341.c ****   ili9341_WriteData(0x31);
 227:Drivers/BSP/Components/ili9341/ili9341.c ****   ili9341_WriteData(0x33);
 228:Drivers/BSP/Components/ili9341/ili9341.c ****   ili9341_WriteData(0x42);
 229:Drivers/BSP/Components/ili9341/ili9341.c ****   ili9341_WriteData(0x05);
 230:Drivers/BSP/Components/ili9341/ili9341.c ****   ili9341_WriteData(0x0C);
 231:Drivers/BSP/Components/ili9341/ili9341.c ****   ili9341_WriteData(0x0A);
 232:Drivers/BSP/Components/ili9341/ili9341.c ****   ili9341_WriteData(0x28);
 233:Drivers/BSP/Components/ili9341/ili9341.c ****   ili9341_WriteData(0x2F);
 234:Drivers/BSP/Components/ili9341/ili9341.c ****   ili9341_WriteData(0x0F);
 235:Drivers/BSP/Components/ili9341/ili9341.c ****   
 236:Drivers/BSP/Components/ili9341/ili9341.c ****   ili9341_WriteReg(LCD_SLEEP_OUT);
 237:Drivers/BSP/Components/ili9341/ili9341.c ****   LCD_Delay(200);
 238:Drivers/BSP/Components/ili9341/ili9341.c ****   ili9341_WriteReg(LCD_DISPLAY_ON);
 239:Drivers/BSP/Components/ili9341/ili9341.c ****   /* GRAM start writing */
 240:Drivers/BSP/Components/ili9341/ili9341.c ****   ili9341_WriteReg(LCD_GRAM);
 241:Drivers/BSP/Components/ili9341/ili9341.c **** }
 242:Drivers/BSP/Components/ili9341/ili9341.c **** 
 243:Drivers/BSP/Components/ili9341/ili9341.c **** /**
 244:Drivers/BSP/Components/ili9341/ili9341.c ****   * @brief  Disables the Display.
 245:Drivers/BSP/Components/ili9341/ili9341.c ****   * @param  None
 246:Drivers/BSP/Components/ili9341/ili9341.c ****   * @retval LCD Register Value.
 247:Drivers/BSP/Components/ili9341/ili9341.c ****   */
 248:Drivers/BSP/Components/ili9341/ili9341.c **** uint16_t ili9341_ReadID(void)
 249:Drivers/BSP/Components/ili9341/ili9341.c **** {
 250:Drivers/BSP/Components/ili9341/ili9341.c ****   LCD_IO_Init();
 251:Drivers/BSP/Components/ili9341/ili9341.c ****   return ((uint16_t)ili9341_ReadData(LCD_READ_ID4, LCD_READ_ID4_SIZE));
 252:Drivers/BSP/Components/ili9341/ili9341.c **** }
 253:Drivers/BSP/Components/ili9341/ili9341.c **** 
 254:Drivers/BSP/Components/ili9341/ili9341.c **** /**
 255:Drivers/BSP/Components/ili9341/ili9341.c ****   * @brief  Enables the Display.
 256:Drivers/BSP/Components/ili9341/ili9341.c ****   * @param  None
 257:Drivers/BSP/Components/ili9341/ili9341.c ****   * @retval None
ARM GAS  /var/folders/0z/tsy30v1j4xl4_7kw94k978ww0000gn/T//cc3ICnnZ.s 			page 6


 258:Drivers/BSP/Components/ili9341/ili9341.c ****   */
 259:Drivers/BSP/Components/ili9341/ili9341.c **** void ili9341_DisplayOn(void)
 260:Drivers/BSP/Components/ili9341/ili9341.c **** {
 261:Drivers/BSP/Components/ili9341/ili9341.c ****   /* Display On */
 262:Drivers/BSP/Components/ili9341/ili9341.c ****   ili9341_WriteReg(LCD_DISPLAY_ON);
 263:Drivers/BSP/Components/ili9341/ili9341.c **** }
 264:Drivers/BSP/Components/ili9341/ili9341.c **** 
 265:Drivers/BSP/Components/ili9341/ili9341.c **** /**
 266:Drivers/BSP/Components/ili9341/ili9341.c ****   * @brief  Disables the Display.
 267:Drivers/BSP/Components/ili9341/ili9341.c ****   * @param  None
 268:Drivers/BSP/Components/ili9341/ili9341.c ****   * @retval None
 269:Drivers/BSP/Components/ili9341/ili9341.c ****   */
 270:Drivers/BSP/Components/ili9341/ili9341.c **** void ili9341_DisplayOff(void)
 271:Drivers/BSP/Components/ili9341/ili9341.c **** {
 272:Drivers/BSP/Components/ili9341/ili9341.c ****   /* Display Off */
 273:Drivers/BSP/Components/ili9341/ili9341.c ****   ili9341_WriteReg(LCD_DISPLAY_OFF);
 274:Drivers/BSP/Components/ili9341/ili9341.c **** }
 275:Drivers/BSP/Components/ili9341/ili9341.c **** 
 276:Drivers/BSP/Components/ili9341/ili9341.c **** /**
 277:Drivers/BSP/Components/ili9341/ili9341.c ****   * @brief  Writes  to the selected LCD register.
 278:Drivers/BSP/Components/ili9341/ili9341.c ****   * @param  LCD_Reg: address of the selected register.
 279:Drivers/BSP/Components/ili9341/ili9341.c ****   * @retval None
 280:Drivers/BSP/Components/ili9341/ili9341.c ****   */
 281:Drivers/BSP/Components/ili9341/ili9341.c **** void ili9341_WriteReg(uint8_t LCD_Reg)
 282:Drivers/BSP/Components/ili9341/ili9341.c **** {
 283:Drivers/BSP/Components/ili9341/ili9341.c ****   LCD_IO_WriteReg(LCD_Reg);
 284:Drivers/BSP/Components/ili9341/ili9341.c **** }
 285:Drivers/BSP/Components/ili9341/ili9341.c **** 
 286:Drivers/BSP/Components/ili9341/ili9341.c **** /**
 287:Drivers/BSP/Components/ili9341/ili9341.c ****   * @brief  Writes data to the selected LCD register.
 288:Drivers/BSP/Components/ili9341/ili9341.c ****   * @param  LCD_Reg: address of the selected register.
 289:Drivers/BSP/Components/ili9341/ili9341.c ****   * @retval None
 290:Drivers/BSP/Components/ili9341/ili9341.c ****   */
 291:Drivers/BSP/Components/ili9341/ili9341.c **** void ili9341_WriteData(uint16_t RegValue)
 292:Drivers/BSP/Components/ili9341/ili9341.c **** {
 293:Drivers/BSP/Components/ili9341/ili9341.c ****   LCD_IO_WriteData(RegValue);
 294:Drivers/BSP/Components/ili9341/ili9341.c **** }
 295:Drivers/BSP/Components/ili9341/ili9341.c **** 
 296:Drivers/BSP/Components/ili9341/ili9341.c **** /**
 297:Drivers/BSP/Components/ili9341/ili9341.c ****   * @brief  Reads the selected LCD Register.
 298:Drivers/BSP/Components/ili9341/ili9341.c ****   * @param  RegValue: Address of the register to read
 299:Drivers/BSP/Components/ili9341/ili9341.c ****   * @param  ReadSize: Number of bytes to read
 300:Drivers/BSP/Components/ili9341/ili9341.c ****   * @retval LCD Register Value.
 301:Drivers/BSP/Components/ili9341/ili9341.c ****   */
 302:Drivers/BSP/Components/ili9341/ili9341.c **** uint32_t ili9341_ReadData(uint16_t RegValue, uint8_t ReadSize)
 303:Drivers/BSP/Components/ili9341/ili9341.c **** {
 304:Drivers/BSP/Components/ili9341/ili9341.c ****   /* Read a max of 4 bytes */
 305:Drivers/BSP/Components/ili9341/ili9341.c ****   return (LCD_IO_ReadData(RegValue, ReadSize));
 306:Drivers/BSP/Components/ili9341/ili9341.c **** }
 307:Drivers/BSP/Components/ili9341/ili9341.c **** 
 308:Drivers/BSP/Components/ili9341/ili9341.c **** /**
 309:Drivers/BSP/Components/ili9341/ili9341.c ****   * @brief  Get LCD PIXEL WIDTH.
 310:Drivers/BSP/Components/ili9341/ili9341.c ****   * @param  None
 311:Drivers/BSP/Components/ili9341/ili9341.c ****   * @retval LCD PIXEL WIDTH.
 312:Drivers/BSP/Components/ili9341/ili9341.c ****   */
 313:Drivers/BSP/Components/ili9341/ili9341.c **** uint16_t ili9341_GetLcdPixelWidth(void)
 314:Drivers/BSP/Components/ili9341/ili9341.c **** {
ARM GAS  /var/folders/0z/tsy30v1j4xl4_7kw94k978ww0000gn/T//cc3ICnnZ.s 			page 7


  30              		.loc 1 314 1 view -0
  31              		.cfi_startproc
  32              		@ args = 0, pretend = 0, frame = 0
  33              		@ frame_needed = 0, uses_anonymous_args = 0
  34              		@ link register save eliminated.
 315:Drivers/BSP/Components/ili9341/ili9341.c ****   /* Return LCD PIXEL WIDTH */
 316:Drivers/BSP/Components/ili9341/ili9341.c ****   return ILI9341_LCD_PIXEL_WIDTH;
  35              		.loc 1 316 3 view .LVU1
 317:Drivers/BSP/Components/ili9341/ili9341.c **** }
  36              		.loc 1 317 1 is_stmt 0 view .LVU2
  37 0000 F020     		movs	r0, #240
  38 0002 7047     		bx	lr
  39              		.cfi_endproc
  40              	.LFE7:
  42              		.section	.text.ili9341_GetLcdPixelHeight,"ax",%progbits
  43              		.align	1
  44              		.p2align 2,,3
  45              		.global	ili9341_GetLcdPixelHeight
  46              		.syntax unified
  47              		.thumb
  48              		.thumb_func
  50              	ili9341_GetLcdPixelHeight:
  51              	.LFB8:
 318:Drivers/BSP/Components/ili9341/ili9341.c **** 
 319:Drivers/BSP/Components/ili9341/ili9341.c **** /**
 320:Drivers/BSP/Components/ili9341/ili9341.c ****   * @brief  Get LCD PIXEL HEIGHT.
 321:Drivers/BSP/Components/ili9341/ili9341.c ****   * @param  None
 322:Drivers/BSP/Components/ili9341/ili9341.c ****   * @retval LCD PIXEL HEIGHT.
 323:Drivers/BSP/Components/ili9341/ili9341.c ****   */
 324:Drivers/BSP/Components/ili9341/ili9341.c **** uint16_t ili9341_GetLcdPixelHeight(void)
 325:Drivers/BSP/Components/ili9341/ili9341.c **** {
  52              		.loc 1 325 1 is_stmt 1 view -0
  53              		.cfi_startproc
  54              		@ args = 0, pretend = 0, frame = 0
  55              		@ frame_needed = 0, uses_anonymous_args = 0
  56              		@ link register save eliminated.
 326:Drivers/BSP/Components/ili9341/ili9341.c ****   /* Return LCD PIXEL HEIGHT */
 327:Drivers/BSP/Components/ili9341/ili9341.c ****   return ILI9341_LCD_PIXEL_HEIGHT;
  57              		.loc 1 327 3 view .LVU4
 328:Drivers/BSP/Components/ili9341/ili9341.c **** }
  58              		.loc 1 328 1 is_stmt 0 view .LVU5
  59 0000 4FF4A070 		mov	r0, #320
  60 0004 7047     		bx	lr
  61              		.cfi_endproc
  62              	.LFE8:
  64 0006 00BF     		.section	.text.ili9341_DisplayOn,"ax",%progbits
  65              		.align	1
  66              		.p2align 2,,3
  67              		.global	ili9341_DisplayOn
  68              		.syntax unified
  69              		.thumb
  70              		.thumb_func
  72              	ili9341_DisplayOn:
  73              	.LFB2:
 260:Drivers/BSP/Components/ili9341/ili9341.c ****   /* Display On */
  74              		.loc 1 260 1 is_stmt 1 view -0
  75              		.cfi_startproc
ARM GAS  /var/folders/0z/tsy30v1j4xl4_7kw94k978ww0000gn/T//cc3ICnnZ.s 			page 8


  76              		@ args = 0, pretend = 0, frame = 0
  77              		@ frame_needed = 0, uses_anonymous_args = 0
  78              		@ link register save eliminated.
 262:Drivers/BSP/Components/ili9341/ili9341.c **** }
  79              		.loc 1 262 3 view .LVU7
  80              	.LVL0:
  81              	.LBB220:
  82              	.LBI220:
 281:Drivers/BSP/Components/ili9341/ili9341.c **** {
  83              		.loc 1 281 6 view .LVU8
  84              	.LBB221:
 283:Drivers/BSP/Components/ili9341/ili9341.c **** }
  85              		.loc 1 283 3 view .LVU9
  86 0000 2920     		movs	r0, #41
  87 0002 FFF7FEBF 		b	LCD_IO_WriteReg
  88              	.LVL1:
  89              	.LBE221:
  90              	.LBE220:
  91              		.cfi_endproc
  92              	.LFE2:
  94 0006 00BF     		.section	.text.ili9341_DisplayOff,"ax",%progbits
  95              		.align	1
  96              		.p2align 2,,3
  97              		.global	ili9341_DisplayOff
  98              		.syntax unified
  99              		.thumb
 100              		.thumb_func
 102              	ili9341_DisplayOff:
 103              	.LFB3:
 271:Drivers/BSP/Components/ili9341/ili9341.c ****   /* Display Off */
 104              		.loc 1 271 1 view -0
 105              		.cfi_startproc
 106              		@ args = 0, pretend = 0, frame = 0
 107              		@ frame_needed = 0, uses_anonymous_args = 0
 108              		@ link register save eliminated.
 273:Drivers/BSP/Components/ili9341/ili9341.c **** }
 109              		.loc 1 273 3 view .LVU11
 110              	.LVL2:
 111              	.LBB222:
 112              	.LBI222:
 281:Drivers/BSP/Components/ili9341/ili9341.c **** {
 113              		.loc 1 281 6 view .LVU12
 114              	.LBB223:
 283:Drivers/BSP/Components/ili9341/ili9341.c **** }
 115              		.loc 1 283 3 view .LVU13
 116 0000 2820     		movs	r0, #40
 117 0002 FFF7FEBF 		b	LCD_IO_WriteReg
 118              	.LVL3:
 119              	.LBE223:
 120              	.LBE222:
 121              		.cfi_endproc
 122              	.LFE3:
 124 0006 00BF     		.section	.text.ili9341_Init,"ax",%progbits
 125              		.align	1
 126              		.p2align 2,,3
 127              		.global	ili9341_Init
 128              		.syntax unified
ARM GAS  /var/folders/0z/tsy30v1j4xl4_7kw94k978ww0000gn/T//cc3ICnnZ.s 			page 9


 129              		.thumb
 130              		.thumb_func
 132              	ili9341_Init:
 133              	.LFB0:
 120:Drivers/BSP/Components/ili9341/ili9341.c ****   /* Initialize ILI9341 low level bus layer ----------------------------------*/
 134              		.loc 1 120 1 view -0
 135              		.cfi_startproc
 136              		@ args = 0, pretend = 0, frame = 0
 137              		@ frame_needed = 0, uses_anonymous_args = 0
 122:Drivers/BSP/Components/ili9341/ili9341.c ****   
 138              		.loc 1 122 3 view .LVU15
 120:Drivers/BSP/Components/ili9341/ili9341.c ****   /* Initialize ILI9341 low level bus layer ----------------------------------*/
 139              		.loc 1 120 1 is_stmt 0 view .LVU16
 140 0000 08B5     		push	{r3, lr}
 141              		.cfi_def_cfa_offset 8
 142              		.cfi_offset 3, -8
 143              		.cfi_offset 14, -4
 122:Drivers/BSP/Components/ili9341/ili9341.c ****   
 144              		.loc 1 122 3 view .LVU17
 145 0002 FFF7FEFF 		bl	LCD_IO_Init
 146              	.LVL4:
 125:Drivers/BSP/Components/ili9341/ili9341.c ****   ili9341_WriteData(0xC3);
 147              		.loc 1 125 3 is_stmt 1 view .LVU18
 148              	.LBB224:
 149              	.LBI224:
 281:Drivers/BSP/Components/ili9341/ili9341.c **** {
 150              		.loc 1 281 6 view .LVU19
 151              	.LBB225:
 283:Drivers/BSP/Components/ili9341/ili9341.c **** }
 152              		.loc 1 283 3 view .LVU20
 153 0006 CA20     		movs	r0, #202
 154 0008 FFF7FEFF 		bl	LCD_IO_WriteReg
 155              	.LVL5:
 283:Drivers/BSP/Components/ili9341/ili9341.c **** }
 156              		.loc 1 283 3 is_stmt 0 view .LVU21
 157              	.LBE225:
 158              	.LBE224:
 126:Drivers/BSP/Components/ili9341/ili9341.c ****   ili9341_WriteData(0x08);
 159              		.loc 1 126 3 is_stmt 1 view .LVU22
 160              	.LBB226:
 161              	.LBI226:
 291:Drivers/BSP/Components/ili9341/ili9341.c **** {
 162              		.loc 1 291 6 view .LVU23
 163              	.LBB227:
 293:Drivers/BSP/Components/ili9341/ili9341.c **** }
 164              		.loc 1 293 3 view .LVU24
 165 000c C320     		movs	r0, #195
 166 000e FFF7FEFF 		bl	LCD_IO_WriteData
 167              	.LVL6:
 293:Drivers/BSP/Components/ili9341/ili9341.c **** }
 168              		.loc 1 293 3 is_stmt 0 view .LVU25
 169              	.LBE227:
 170              	.LBE226:
 127:Drivers/BSP/Components/ili9341/ili9341.c ****   ili9341_WriteData(0x50);
 171              		.loc 1 127 3 is_stmt 1 view .LVU26
 172              	.LBB228:
 173              	.LBI228:
ARM GAS  /var/folders/0z/tsy30v1j4xl4_7kw94k978ww0000gn/T//cc3ICnnZ.s 			page 10


 291:Drivers/BSP/Components/ili9341/ili9341.c **** {
 174              		.loc 1 291 6 view .LVU27
 175              	.LBB229:
 293:Drivers/BSP/Components/ili9341/ili9341.c **** }
 176              		.loc 1 293 3 view .LVU28
 177 0012 0820     		movs	r0, #8
 178 0014 FFF7FEFF 		bl	LCD_IO_WriteData
 179              	.LVL7:
 293:Drivers/BSP/Components/ili9341/ili9341.c **** }
 180              		.loc 1 293 3 is_stmt 0 view .LVU29
 181              	.LBE229:
 182              	.LBE228:
 128:Drivers/BSP/Components/ili9341/ili9341.c ****   ili9341_WriteReg(LCD_POWERB);
 183              		.loc 1 128 3 is_stmt 1 view .LVU30
 184              	.LBB230:
 185              	.LBI230:
 291:Drivers/BSP/Components/ili9341/ili9341.c **** {
 186              		.loc 1 291 6 view .LVU31
 187              	.LBB231:
 293:Drivers/BSP/Components/ili9341/ili9341.c **** }
 188              		.loc 1 293 3 view .LVU32
 189 0018 5020     		movs	r0, #80
 190 001a FFF7FEFF 		bl	LCD_IO_WriteData
 191              	.LVL8:
 293:Drivers/BSP/Components/ili9341/ili9341.c **** }
 192              		.loc 1 293 3 is_stmt 0 view .LVU33
 193              	.LBE231:
 194              	.LBE230:
 129:Drivers/BSP/Components/ili9341/ili9341.c ****   ili9341_WriteData(0x00);
 195              		.loc 1 129 3 is_stmt 1 view .LVU34
 196              	.LBB232:
 197              	.LBI232:
 281:Drivers/BSP/Components/ili9341/ili9341.c **** {
 198              		.loc 1 281 6 view .LVU35
 199              	.LBB233:
 283:Drivers/BSP/Components/ili9341/ili9341.c **** }
 200              		.loc 1 283 3 view .LVU36
 201 001e CF20     		movs	r0, #207
 202 0020 FFF7FEFF 		bl	LCD_IO_WriteReg
 203              	.LVL9:
 283:Drivers/BSP/Components/ili9341/ili9341.c **** }
 204              		.loc 1 283 3 is_stmt 0 view .LVU37
 205              	.LBE233:
 206              	.LBE232:
 130:Drivers/BSP/Components/ili9341/ili9341.c ****   ili9341_WriteData(0xC1);
 207              		.loc 1 130 3 is_stmt 1 view .LVU38
 208              	.LBB234:
 209              	.LBI234:
 291:Drivers/BSP/Components/ili9341/ili9341.c **** {
 210              		.loc 1 291 6 view .LVU39
 211              	.LBB235:
 293:Drivers/BSP/Components/ili9341/ili9341.c **** }
 212              		.loc 1 293 3 view .LVU40
 213 0024 0020     		movs	r0, #0
 214 0026 FFF7FEFF 		bl	LCD_IO_WriteData
 215              	.LVL10:
 293:Drivers/BSP/Components/ili9341/ili9341.c **** }
ARM GAS  /var/folders/0z/tsy30v1j4xl4_7kw94k978ww0000gn/T//cc3ICnnZ.s 			page 11


 216              		.loc 1 293 3 is_stmt 0 view .LVU41
 217              	.LBE235:
 218              	.LBE234:
 131:Drivers/BSP/Components/ili9341/ili9341.c ****   ili9341_WriteData(0x30);
 219              		.loc 1 131 3 is_stmt 1 view .LVU42
 220              	.LBB236:
 221              	.LBI236:
 291:Drivers/BSP/Components/ili9341/ili9341.c **** {
 222              		.loc 1 291 6 view .LVU43
 223              	.LBB237:
 293:Drivers/BSP/Components/ili9341/ili9341.c **** }
 224              		.loc 1 293 3 view .LVU44
 225 002a C120     		movs	r0, #193
 226 002c FFF7FEFF 		bl	LCD_IO_WriteData
 227              	.LVL11:
 293:Drivers/BSP/Components/ili9341/ili9341.c **** }
 228              		.loc 1 293 3 is_stmt 0 view .LVU45
 229              	.LBE237:
 230              	.LBE236:
 132:Drivers/BSP/Components/ili9341/ili9341.c ****   ili9341_WriteReg(LCD_POWER_SEQ);
 231              		.loc 1 132 3 is_stmt 1 view .LVU46
 232              	.LBB238:
 233              	.LBI238:
 291:Drivers/BSP/Components/ili9341/ili9341.c **** {
 234              		.loc 1 291 6 view .LVU47
 235              	.LBB239:
 293:Drivers/BSP/Components/ili9341/ili9341.c **** }
 236              		.loc 1 293 3 view .LVU48
 237 0030 3020     		movs	r0, #48
 238 0032 FFF7FEFF 		bl	LCD_IO_WriteData
 239              	.LVL12:
 293:Drivers/BSP/Components/ili9341/ili9341.c **** }
 240              		.loc 1 293 3 is_stmt 0 view .LVU49
 241              	.LBE239:
 242              	.LBE238:
 133:Drivers/BSP/Components/ili9341/ili9341.c ****   ili9341_WriteData(0x64);
 243              		.loc 1 133 3 is_stmt 1 view .LVU50
 244              	.LBB240:
 245              	.LBI240:
 281:Drivers/BSP/Components/ili9341/ili9341.c **** {
 246              		.loc 1 281 6 view .LVU51
 247              	.LBB241:
 283:Drivers/BSP/Components/ili9341/ili9341.c **** }
 248              		.loc 1 283 3 view .LVU52
 249 0036 ED20     		movs	r0, #237
 250 0038 FFF7FEFF 		bl	LCD_IO_WriteReg
 251              	.LVL13:
 283:Drivers/BSP/Components/ili9341/ili9341.c **** }
 252              		.loc 1 283 3 is_stmt 0 view .LVU53
 253              	.LBE241:
 254              	.LBE240:
 134:Drivers/BSP/Components/ili9341/ili9341.c ****   ili9341_WriteData(0x03);
 255              		.loc 1 134 3 is_stmt 1 view .LVU54
 256              	.LBB242:
 257              	.LBI242:
 291:Drivers/BSP/Components/ili9341/ili9341.c **** {
 258              		.loc 1 291 6 view .LVU55
ARM GAS  /var/folders/0z/tsy30v1j4xl4_7kw94k978ww0000gn/T//cc3ICnnZ.s 			page 12


 259              	.LBB243:
 293:Drivers/BSP/Components/ili9341/ili9341.c **** }
 260              		.loc 1 293 3 view .LVU56
 261 003c 6420     		movs	r0, #100
 262 003e FFF7FEFF 		bl	LCD_IO_WriteData
 263              	.LVL14:
 293:Drivers/BSP/Components/ili9341/ili9341.c **** }
 264              		.loc 1 293 3 is_stmt 0 view .LVU57
 265              	.LBE243:
 266              	.LBE242:
 135:Drivers/BSP/Components/ili9341/ili9341.c ****   ili9341_WriteData(0x12);
 267              		.loc 1 135 3 is_stmt 1 view .LVU58
 268              	.LBB244:
 269              	.LBI244:
 291:Drivers/BSP/Components/ili9341/ili9341.c **** {
 270              		.loc 1 291 6 view .LVU59
 271              	.LBB245:
 293:Drivers/BSP/Components/ili9341/ili9341.c **** }
 272              		.loc 1 293 3 view .LVU60
 273 0042 0320     		movs	r0, #3
 274 0044 FFF7FEFF 		bl	LCD_IO_WriteData
 275              	.LVL15:
 293:Drivers/BSP/Components/ili9341/ili9341.c **** }
 276              		.loc 1 293 3 is_stmt 0 view .LVU61
 277              	.LBE245:
 278              	.LBE244:
 136:Drivers/BSP/Components/ili9341/ili9341.c ****   ili9341_WriteData(0x81);
 279              		.loc 1 136 3 is_stmt 1 view .LVU62
 280              	.LBB246:
 281              	.LBI246:
 291:Drivers/BSP/Components/ili9341/ili9341.c **** {
 282              		.loc 1 291 6 view .LVU63
 283              	.LBB247:
 293:Drivers/BSP/Components/ili9341/ili9341.c **** }
 284              		.loc 1 293 3 view .LVU64
 285 0048 1220     		movs	r0, #18
 286 004a FFF7FEFF 		bl	LCD_IO_WriteData
 287              	.LVL16:
 293:Drivers/BSP/Components/ili9341/ili9341.c **** }
 288              		.loc 1 293 3 is_stmt 0 view .LVU65
 289              	.LBE247:
 290              	.LBE246:
 137:Drivers/BSP/Components/ili9341/ili9341.c ****   ili9341_WriteReg(LCD_DTCA);
 291              		.loc 1 137 3 is_stmt 1 view .LVU66
 292              	.LBB248:
 293              	.LBI248:
 291:Drivers/BSP/Components/ili9341/ili9341.c **** {
 294              		.loc 1 291 6 view .LVU67
 295              	.LBB249:
 293:Drivers/BSP/Components/ili9341/ili9341.c **** }
 296              		.loc 1 293 3 view .LVU68
 297 004e 8120     		movs	r0, #129
 298 0050 FFF7FEFF 		bl	LCD_IO_WriteData
 299              	.LVL17:
 293:Drivers/BSP/Components/ili9341/ili9341.c **** }
 300              		.loc 1 293 3 is_stmt 0 view .LVU69
 301              	.LBE249:
ARM GAS  /var/folders/0z/tsy30v1j4xl4_7kw94k978ww0000gn/T//cc3ICnnZ.s 			page 13


 302              	.LBE248:
 138:Drivers/BSP/Components/ili9341/ili9341.c ****   ili9341_WriteData(0x85);
 303              		.loc 1 138 3 is_stmt 1 view .LVU70
 304              	.LBB250:
 305              	.LBI250:
 281:Drivers/BSP/Components/ili9341/ili9341.c **** {
 306              		.loc 1 281 6 view .LVU71
 307              	.LBB251:
 283:Drivers/BSP/Components/ili9341/ili9341.c **** }
 308              		.loc 1 283 3 view .LVU72
 309 0054 E820     		movs	r0, #232
 310 0056 FFF7FEFF 		bl	LCD_IO_WriteReg
 311              	.LVL18:
 283:Drivers/BSP/Components/ili9341/ili9341.c **** }
 312              		.loc 1 283 3 is_stmt 0 view .LVU73
 313              	.LBE251:
 314              	.LBE250:
 139:Drivers/BSP/Components/ili9341/ili9341.c ****   ili9341_WriteData(0x00);
 315              		.loc 1 139 3 is_stmt 1 view .LVU74
 316              	.LBB252:
 317              	.LBI252:
 291:Drivers/BSP/Components/ili9341/ili9341.c **** {
 318              		.loc 1 291 6 view .LVU75
 319              	.LBB253:
 293:Drivers/BSP/Components/ili9341/ili9341.c **** }
 320              		.loc 1 293 3 view .LVU76
 321 005a 8520     		movs	r0, #133
 322 005c FFF7FEFF 		bl	LCD_IO_WriteData
 323              	.LVL19:
 293:Drivers/BSP/Components/ili9341/ili9341.c **** }
 324              		.loc 1 293 3 is_stmt 0 view .LVU77
 325              	.LBE253:
 326              	.LBE252:
 140:Drivers/BSP/Components/ili9341/ili9341.c ****   ili9341_WriteData(0x78);
 327              		.loc 1 140 3 is_stmt 1 view .LVU78
 328              	.LBB254:
 329              	.LBI254:
 291:Drivers/BSP/Components/ili9341/ili9341.c **** {
 330              		.loc 1 291 6 view .LVU79
 331              	.LBB255:
 293:Drivers/BSP/Components/ili9341/ili9341.c **** }
 332              		.loc 1 293 3 view .LVU80
 333 0060 0020     		movs	r0, #0
 334 0062 FFF7FEFF 		bl	LCD_IO_WriteData
 335              	.LVL20:
 293:Drivers/BSP/Components/ili9341/ili9341.c **** }
 336              		.loc 1 293 3 is_stmt 0 view .LVU81
 337              	.LBE255:
 338              	.LBE254:
 141:Drivers/BSP/Components/ili9341/ili9341.c ****   ili9341_WriteReg(LCD_POWERA);
 339              		.loc 1 141 3 is_stmt 1 view .LVU82
 340              	.LBB256:
 341              	.LBI256:
 291:Drivers/BSP/Components/ili9341/ili9341.c **** {
 342              		.loc 1 291 6 view .LVU83
 343              	.LBB257:
 293:Drivers/BSP/Components/ili9341/ili9341.c **** }
ARM GAS  /var/folders/0z/tsy30v1j4xl4_7kw94k978ww0000gn/T//cc3ICnnZ.s 			page 14


 344              		.loc 1 293 3 view .LVU84
 345 0066 7820     		movs	r0, #120
 346 0068 FFF7FEFF 		bl	LCD_IO_WriteData
 347              	.LVL21:
 293:Drivers/BSP/Components/ili9341/ili9341.c **** }
 348              		.loc 1 293 3 is_stmt 0 view .LVU85
 349              	.LBE257:
 350              	.LBE256:
 142:Drivers/BSP/Components/ili9341/ili9341.c ****   ili9341_WriteData(0x39);
 351              		.loc 1 142 3 is_stmt 1 view .LVU86
 352              	.LBB258:
 353              	.LBI258:
 281:Drivers/BSP/Components/ili9341/ili9341.c **** {
 354              		.loc 1 281 6 view .LVU87
 355              	.LBB259:
 283:Drivers/BSP/Components/ili9341/ili9341.c **** }
 356              		.loc 1 283 3 view .LVU88
 357 006c CB20     		movs	r0, #203
 358 006e FFF7FEFF 		bl	LCD_IO_WriteReg
 359              	.LVL22:
 283:Drivers/BSP/Components/ili9341/ili9341.c **** }
 360              		.loc 1 283 3 is_stmt 0 view .LVU89
 361              	.LBE259:
 362              	.LBE258:
 143:Drivers/BSP/Components/ili9341/ili9341.c ****   ili9341_WriteData(0x2C);
 363              		.loc 1 143 3 is_stmt 1 view .LVU90
 364              	.LBB260:
 365              	.LBI260:
 291:Drivers/BSP/Components/ili9341/ili9341.c **** {
 366              		.loc 1 291 6 view .LVU91
 367              	.LBB261:
 293:Drivers/BSP/Components/ili9341/ili9341.c **** }
 368              		.loc 1 293 3 view .LVU92
 369 0072 3920     		movs	r0, #57
 370 0074 FFF7FEFF 		bl	LCD_IO_WriteData
 371              	.LVL23:
 293:Drivers/BSP/Components/ili9341/ili9341.c **** }
 372              		.loc 1 293 3 is_stmt 0 view .LVU93
 373              	.LBE261:
 374              	.LBE260:
 144:Drivers/BSP/Components/ili9341/ili9341.c ****   ili9341_WriteData(0x00);
 375              		.loc 1 144 3 is_stmt 1 view .LVU94
 376              	.LBB262:
 377              	.LBI262:
 291:Drivers/BSP/Components/ili9341/ili9341.c **** {
 378              		.loc 1 291 6 view .LVU95
 379              	.LBB263:
 293:Drivers/BSP/Components/ili9341/ili9341.c **** }
 380              		.loc 1 293 3 view .LVU96
 381 0078 2C20     		movs	r0, #44
 382 007a FFF7FEFF 		bl	LCD_IO_WriteData
 383              	.LVL24:
 293:Drivers/BSP/Components/ili9341/ili9341.c **** }
 384              		.loc 1 293 3 is_stmt 0 view .LVU97
 385              	.LBE263:
 386              	.LBE262:
 145:Drivers/BSP/Components/ili9341/ili9341.c ****   ili9341_WriteData(0x34);
ARM GAS  /var/folders/0z/tsy30v1j4xl4_7kw94k978ww0000gn/T//cc3ICnnZ.s 			page 15


 387              		.loc 1 145 3 is_stmt 1 view .LVU98
 388              	.LBB264:
 389              	.LBI264:
 291:Drivers/BSP/Components/ili9341/ili9341.c **** {
 390              		.loc 1 291 6 view .LVU99
 391              	.LBB265:
 293:Drivers/BSP/Components/ili9341/ili9341.c **** }
 392              		.loc 1 293 3 view .LVU100
 393 007e 0020     		movs	r0, #0
 394 0080 FFF7FEFF 		bl	LCD_IO_WriteData
 395              	.LVL25:
 293:Drivers/BSP/Components/ili9341/ili9341.c **** }
 396              		.loc 1 293 3 is_stmt 0 view .LVU101
 397              	.LBE265:
 398              	.LBE264:
 146:Drivers/BSP/Components/ili9341/ili9341.c ****   ili9341_WriteData(0x02);
 399              		.loc 1 146 3 is_stmt 1 view .LVU102
 400              	.LBB266:
 401              	.LBI266:
 291:Drivers/BSP/Components/ili9341/ili9341.c **** {
 402              		.loc 1 291 6 view .LVU103
 403              	.LBB267:
 293:Drivers/BSP/Components/ili9341/ili9341.c **** }
 404              		.loc 1 293 3 view .LVU104
 405 0084 3420     		movs	r0, #52
 406 0086 FFF7FEFF 		bl	LCD_IO_WriteData
 407              	.LVL26:
 293:Drivers/BSP/Components/ili9341/ili9341.c **** }
 408              		.loc 1 293 3 is_stmt 0 view .LVU105
 409              	.LBE267:
 410              	.LBE266:
 147:Drivers/BSP/Components/ili9341/ili9341.c ****   ili9341_WriteReg(LCD_PRC);
 411              		.loc 1 147 3 is_stmt 1 view .LVU106
 412              	.LBB268:
 413              	.LBI268:
 291:Drivers/BSP/Components/ili9341/ili9341.c **** {
 414              		.loc 1 291 6 view .LVU107
 415              	.LBB269:
 293:Drivers/BSP/Components/ili9341/ili9341.c **** }
 416              		.loc 1 293 3 view .LVU108
 417 008a 0220     		movs	r0, #2
 418 008c FFF7FEFF 		bl	LCD_IO_WriteData
 419              	.LVL27:
 293:Drivers/BSP/Components/ili9341/ili9341.c **** }
 420              		.loc 1 293 3 is_stmt 0 view .LVU109
 421              	.LBE269:
 422              	.LBE268:
 148:Drivers/BSP/Components/ili9341/ili9341.c ****   ili9341_WriteData(0x20);
 423              		.loc 1 148 3 is_stmt 1 view .LVU110
 424              	.LBB270:
 425              	.LBI270:
 281:Drivers/BSP/Components/ili9341/ili9341.c **** {
 426              		.loc 1 281 6 view .LVU111
 427              	.LBB271:
 283:Drivers/BSP/Components/ili9341/ili9341.c **** }
 428              		.loc 1 283 3 view .LVU112
 429 0090 F720     		movs	r0, #247
ARM GAS  /var/folders/0z/tsy30v1j4xl4_7kw94k978ww0000gn/T//cc3ICnnZ.s 			page 16


 430 0092 FFF7FEFF 		bl	LCD_IO_WriteReg
 431              	.LVL28:
 283:Drivers/BSP/Components/ili9341/ili9341.c **** }
 432              		.loc 1 283 3 is_stmt 0 view .LVU113
 433              	.LBE271:
 434              	.LBE270:
 149:Drivers/BSP/Components/ili9341/ili9341.c ****   ili9341_WriteReg(LCD_DTCB);
 435              		.loc 1 149 3 is_stmt 1 view .LVU114
 436              	.LBB272:
 437              	.LBI272:
 291:Drivers/BSP/Components/ili9341/ili9341.c **** {
 438              		.loc 1 291 6 view .LVU115
 439              	.LBB273:
 293:Drivers/BSP/Components/ili9341/ili9341.c **** }
 440              		.loc 1 293 3 view .LVU116
 441 0096 2020     		movs	r0, #32
 442 0098 FFF7FEFF 		bl	LCD_IO_WriteData
 443              	.LVL29:
 293:Drivers/BSP/Components/ili9341/ili9341.c **** }
 444              		.loc 1 293 3 is_stmt 0 view .LVU117
 445              	.LBE273:
 446              	.LBE272:
 150:Drivers/BSP/Components/ili9341/ili9341.c ****   ili9341_WriteData(0x00);
 447              		.loc 1 150 3 is_stmt 1 view .LVU118
 448              	.LBB274:
 449              	.LBI274:
 281:Drivers/BSP/Components/ili9341/ili9341.c **** {
 450              		.loc 1 281 6 view .LVU119
 451              	.LBB275:
 283:Drivers/BSP/Components/ili9341/ili9341.c **** }
 452              		.loc 1 283 3 view .LVU120
 453 009c EA20     		movs	r0, #234
 454 009e FFF7FEFF 		bl	LCD_IO_WriteReg
 455              	.LVL30:
 283:Drivers/BSP/Components/ili9341/ili9341.c **** }
 456              		.loc 1 283 3 is_stmt 0 view .LVU121
 457              	.LBE275:
 458              	.LBE274:
 151:Drivers/BSP/Components/ili9341/ili9341.c ****   ili9341_WriteData(0x00);
 459              		.loc 1 151 3 is_stmt 1 view .LVU122
 460              	.LBB276:
 461              	.LBI276:
 291:Drivers/BSP/Components/ili9341/ili9341.c **** {
 462              		.loc 1 291 6 view .LVU123
 463              	.LBB277:
 293:Drivers/BSP/Components/ili9341/ili9341.c **** }
 464              		.loc 1 293 3 view .LVU124
 465 00a2 0020     		movs	r0, #0
 466 00a4 FFF7FEFF 		bl	LCD_IO_WriteData
 467              	.LVL31:
 293:Drivers/BSP/Components/ili9341/ili9341.c **** }
 468              		.loc 1 293 3 is_stmt 0 view .LVU125
 469              	.LBE277:
 470              	.LBE276:
 152:Drivers/BSP/Components/ili9341/ili9341.c ****   ili9341_WriteReg(LCD_FRMCTR1);
 471              		.loc 1 152 3 is_stmt 1 view .LVU126
 472              	.LBB278:
ARM GAS  /var/folders/0z/tsy30v1j4xl4_7kw94k978ww0000gn/T//cc3ICnnZ.s 			page 17


 473              	.LBI278:
 291:Drivers/BSP/Components/ili9341/ili9341.c **** {
 474              		.loc 1 291 6 view .LVU127
 475              	.LBB279:
 293:Drivers/BSP/Components/ili9341/ili9341.c **** }
 476              		.loc 1 293 3 view .LVU128
 477 00a8 0020     		movs	r0, #0
 478 00aa FFF7FEFF 		bl	LCD_IO_WriteData
 479              	.LVL32:
 293:Drivers/BSP/Components/ili9341/ili9341.c **** }
 480              		.loc 1 293 3 is_stmt 0 view .LVU129
 481              	.LBE279:
 482              	.LBE278:
 153:Drivers/BSP/Components/ili9341/ili9341.c ****   ili9341_WriteData(0x00);
 483              		.loc 1 153 3 is_stmt 1 view .LVU130
 484              	.LBB280:
 485              	.LBI280:
 281:Drivers/BSP/Components/ili9341/ili9341.c **** {
 486              		.loc 1 281 6 view .LVU131
 487              	.LBB281:
 283:Drivers/BSP/Components/ili9341/ili9341.c **** }
 488              		.loc 1 283 3 view .LVU132
 489 00ae B120     		movs	r0, #177
 490 00b0 FFF7FEFF 		bl	LCD_IO_WriteReg
 491              	.LVL33:
 283:Drivers/BSP/Components/ili9341/ili9341.c **** }
 492              		.loc 1 283 3 is_stmt 0 view .LVU133
 493              	.LBE281:
 494              	.LBE280:
 154:Drivers/BSP/Components/ili9341/ili9341.c ****   ili9341_WriteData(0x1B);
 495              		.loc 1 154 3 is_stmt 1 view .LVU134
 496              	.LBB282:
 497              	.LBI282:
 291:Drivers/BSP/Components/ili9341/ili9341.c **** {
 498              		.loc 1 291 6 view .LVU135
 499              	.LBB283:
 293:Drivers/BSP/Components/ili9341/ili9341.c **** }
 500              		.loc 1 293 3 view .LVU136
 501 00b4 0020     		movs	r0, #0
 502 00b6 FFF7FEFF 		bl	LCD_IO_WriteData
 503              	.LVL34:
 293:Drivers/BSP/Components/ili9341/ili9341.c **** }
 504              		.loc 1 293 3 is_stmt 0 view .LVU137
 505              	.LBE283:
 506              	.LBE282:
 155:Drivers/BSP/Components/ili9341/ili9341.c ****   ili9341_WriteReg(LCD_DFC);
 507              		.loc 1 155 3 is_stmt 1 view .LVU138
 508              	.LBB284:
 509              	.LBI284:
 291:Drivers/BSP/Components/ili9341/ili9341.c **** {
 510              		.loc 1 291 6 view .LVU139
 511              	.LBB285:
 293:Drivers/BSP/Components/ili9341/ili9341.c **** }
 512              		.loc 1 293 3 view .LVU140
 513 00ba 1B20     		movs	r0, #27
 514 00bc FFF7FEFF 		bl	LCD_IO_WriteData
 515              	.LVL35:
ARM GAS  /var/folders/0z/tsy30v1j4xl4_7kw94k978ww0000gn/T//cc3ICnnZ.s 			page 18


 293:Drivers/BSP/Components/ili9341/ili9341.c **** }
 516              		.loc 1 293 3 is_stmt 0 view .LVU141
 517              	.LBE285:
 518              	.LBE284:
 156:Drivers/BSP/Components/ili9341/ili9341.c ****   ili9341_WriteData(0x0A);
 519              		.loc 1 156 3 is_stmt 1 view .LVU142
 520              	.LBB286:
 521              	.LBI286:
 281:Drivers/BSP/Components/ili9341/ili9341.c **** {
 522              		.loc 1 281 6 view .LVU143
 523              	.LBB287:
 283:Drivers/BSP/Components/ili9341/ili9341.c **** }
 524              		.loc 1 283 3 view .LVU144
 525 00c0 B620     		movs	r0, #182
 526 00c2 FFF7FEFF 		bl	LCD_IO_WriteReg
 527              	.LVL36:
 283:Drivers/BSP/Components/ili9341/ili9341.c **** }
 528              		.loc 1 283 3 is_stmt 0 view .LVU145
 529              	.LBE287:
 530              	.LBE286:
 157:Drivers/BSP/Components/ili9341/ili9341.c ****   ili9341_WriteData(0xA2);
 531              		.loc 1 157 3 is_stmt 1 view .LVU146
 532              	.LBB288:
 533              	.LBI288:
 291:Drivers/BSP/Components/ili9341/ili9341.c **** {
 534              		.loc 1 291 6 view .LVU147
 535              	.LBB289:
 293:Drivers/BSP/Components/ili9341/ili9341.c **** }
 536              		.loc 1 293 3 view .LVU148
 537 00c6 0A20     		movs	r0, #10
 538 00c8 FFF7FEFF 		bl	LCD_IO_WriteData
 539              	.LVL37:
 293:Drivers/BSP/Components/ili9341/ili9341.c **** }
 540              		.loc 1 293 3 is_stmt 0 view .LVU149
 541              	.LBE289:
 542              	.LBE288:
 158:Drivers/BSP/Components/ili9341/ili9341.c ****   ili9341_WriteReg(LCD_POWER1);
 543              		.loc 1 158 3 is_stmt 1 view .LVU150
 544              	.LBB290:
 545              	.LBI290:
 291:Drivers/BSP/Components/ili9341/ili9341.c **** {
 546              		.loc 1 291 6 view .LVU151
 547              	.LBB291:
 293:Drivers/BSP/Components/ili9341/ili9341.c **** }
 548              		.loc 1 293 3 view .LVU152
 549 00cc A220     		movs	r0, #162
 550 00ce FFF7FEFF 		bl	LCD_IO_WriteData
 551              	.LVL38:
 293:Drivers/BSP/Components/ili9341/ili9341.c **** }
 552              		.loc 1 293 3 is_stmt 0 view .LVU153
 553              	.LBE291:
 554              	.LBE290:
 159:Drivers/BSP/Components/ili9341/ili9341.c ****   ili9341_WriteData(0x10);
 555              		.loc 1 159 3 is_stmt 1 view .LVU154
 556              	.LBB292:
 557              	.LBI292:
 281:Drivers/BSP/Components/ili9341/ili9341.c **** {
ARM GAS  /var/folders/0z/tsy30v1j4xl4_7kw94k978ww0000gn/T//cc3ICnnZ.s 			page 19


 558              		.loc 1 281 6 view .LVU155
 559              	.LBB293:
 283:Drivers/BSP/Components/ili9341/ili9341.c **** }
 560              		.loc 1 283 3 view .LVU156
 561 00d2 C020     		movs	r0, #192
 562 00d4 FFF7FEFF 		bl	LCD_IO_WriteReg
 563              	.LVL39:
 283:Drivers/BSP/Components/ili9341/ili9341.c **** }
 564              		.loc 1 283 3 is_stmt 0 view .LVU157
 565              	.LBE293:
 566              	.LBE292:
 160:Drivers/BSP/Components/ili9341/ili9341.c ****   ili9341_WriteReg(LCD_POWER2);
 567              		.loc 1 160 3 is_stmt 1 view .LVU158
 568              	.LBB294:
 569              	.LBI294:
 291:Drivers/BSP/Components/ili9341/ili9341.c **** {
 570              		.loc 1 291 6 view .LVU159
 571              	.LBB295:
 293:Drivers/BSP/Components/ili9341/ili9341.c **** }
 572              		.loc 1 293 3 view .LVU160
 573 00d8 1020     		movs	r0, #16
 574 00da FFF7FEFF 		bl	LCD_IO_WriteData
 575              	.LVL40:
 293:Drivers/BSP/Components/ili9341/ili9341.c **** }
 576              		.loc 1 293 3 is_stmt 0 view .LVU161
 577              	.LBE295:
 578              	.LBE294:
 161:Drivers/BSP/Components/ili9341/ili9341.c ****   ili9341_WriteData(0x10);
 579              		.loc 1 161 3 is_stmt 1 view .LVU162
 580              	.LBB296:
 581              	.LBI296:
 281:Drivers/BSP/Components/ili9341/ili9341.c **** {
 582              		.loc 1 281 6 view .LVU163
 583              	.LBB297:
 283:Drivers/BSP/Components/ili9341/ili9341.c **** }
 584              		.loc 1 283 3 view .LVU164
 585 00de C120     		movs	r0, #193
 586 00e0 FFF7FEFF 		bl	LCD_IO_WriteReg
 587              	.LVL41:
 283:Drivers/BSP/Components/ili9341/ili9341.c **** }
 588              		.loc 1 283 3 is_stmt 0 view .LVU165
 589              	.LBE297:
 590              	.LBE296:
 162:Drivers/BSP/Components/ili9341/ili9341.c ****   ili9341_WriteReg(LCD_VCOM1);
 591              		.loc 1 162 3 is_stmt 1 view .LVU166
 592              	.LBB298:
 593              	.LBI298:
 291:Drivers/BSP/Components/ili9341/ili9341.c **** {
 594              		.loc 1 291 6 view .LVU167
 595              	.LBB299:
 293:Drivers/BSP/Components/ili9341/ili9341.c **** }
 596              		.loc 1 293 3 view .LVU168
 597 00e4 1020     		movs	r0, #16
 598 00e6 FFF7FEFF 		bl	LCD_IO_WriteData
 599              	.LVL42:
 293:Drivers/BSP/Components/ili9341/ili9341.c **** }
 600              		.loc 1 293 3 is_stmt 0 view .LVU169
ARM GAS  /var/folders/0z/tsy30v1j4xl4_7kw94k978ww0000gn/T//cc3ICnnZ.s 			page 20


 601              	.LBE299:
 602              	.LBE298:
 163:Drivers/BSP/Components/ili9341/ili9341.c ****   ili9341_WriteData(0x45);
 603              		.loc 1 163 3 is_stmt 1 view .LVU170
 604              	.LBB300:
 605              	.LBI300:
 281:Drivers/BSP/Components/ili9341/ili9341.c **** {
 606              		.loc 1 281 6 view .LVU171
 607              	.LBB301:
 283:Drivers/BSP/Components/ili9341/ili9341.c **** }
 608              		.loc 1 283 3 view .LVU172
 609 00ea C520     		movs	r0, #197
 610 00ec FFF7FEFF 		bl	LCD_IO_WriteReg
 611              	.LVL43:
 283:Drivers/BSP/Components/ili9341/ili9341.c **** }
 612              		.loc 1 283 3 is_stmt 0 view .LVU173
 613              	.LBE301:
 614              	.LBE300:
 164:Drivers/BSP/Components/ili9341/ili9341.c ****   ili9341_WriteData(0x15);
 615              		.loc 1 164 3 is_stmt 1 view .LVU174
 616              	.LBB302:
 617              	.LBI302:
 291:Drivers/BSP/Components/ili9341/ili9341.c **** {
 618              		.loc 1 291 6 view .LVU175
 619              	.LBB303:
 293:Drivers/BSP/Components/ili9341/ili9341.c **** }
 620              		.loc 1 293 3 view .LVU176
 621 00f0 4520     		movs	r0, #69
 622 00f2 FFF7FEFF 		bl	LCD_IO_WriteData
 623              	.LVL44:
 293:Drivers/BSP/Components/ili9341/ili9341.c **** }
 624              		.loc 1 293 3 is_stmt 0 view .LVU177
 625              	.LBE303:
 626              	.LBE302:
 165:Drivers/BSP/Components/ili9341/ili9341.c ****   ili9341_WriteReg(LCD_VCOM2);
 627              		.loc 1 165 3 is_stmt 1 view .LVU178
 628              	.LBB304:
 629              	.LBI304:
 291:Drivers/BSP/Components/ili9341/ili9341.c **** {
 630              		.loc 1 291 6 view .LVU179
 631              	.LBB305:
 293:Drivers/BSP/Components/ili9341/ili9341.c **** }
 632              		.loc 1 293 3 view .LVU180
 633 00f6 1520     		movs	r0, #21
 634 00f8 FFF7FEFF 		bl	LCD_IO_WriteData
 635              	.LVL45:
 293:Drivers/BSP/Components/ili9341/ili9341.c **** }
 636              		.loc 1 293 3 is_stmt 0 view .LVU181
 637              	.LBE305:
 638              	.LBE304:
 166:Drivers/BSP/Components/ili9341/ili9341.c ****   ili9341_WriteData(0x90);
 639              		.loc 1 166 3 is_stmt 1 view .LVU182
 640              	.LBB306:
 641              	.LBI306:
 281:Drivers/BSP/Components/ili9341/ili9341.c **** {
 642              		.loc 1 281 6 view .LVU183
 643              	.LBB307:
ARM GAS  /var/folders/0z/tsy30v1j4xl4_7kw94k978ww0000gn/T//cc3ICnnZ.s 			page 21


 283:Drivers/BSP/Components/ili9341/ili9341.c **** }
 644              		.loc 1 283 3 view .LVU184
 645 00fc C720     		movs	r0, #199
 646 00fe FFF7FEFF 		bl	LCD_IO_WriteReg
 647              	.LVL46:
 283:Drivers/BSP/Components/ili9341/ili9341.c **** }
 648              		.loc 1 283 3 is_stmt 0 view .LVU185
 649              	.LBE307:
 650              	.LBE306:
 167:Drivers/BSP/Components/ili9341/ili9341.c ****   ili9341_WriteReg(LCD_MAC);
 651              		.loc 1 167 3 is_stmt 1 view .LVU186
 652              	.LBB308:
 653              	.LBI308:
 291:Drivers/BSP/Components/ili9341/ili9341.c **** {
 654              		.loc 1 291 6 view .LVU187
 655              	.LBB309:
 293:Drivers/BSP/Components/ili9341/ili9341.c **** }
 656              		.loc 1 293 3 view .LVU188
 657 0102 9020     		movs	r0, #144
 658 0104 FFF7FEFF 		bl	LCD_IO_WriteData
 659              	.LVL47:
 293:Drivers/BSP/Components/ili9341/ili9341.c **** }
 660              		.loc 1 293 3 is_stmt 0 view .LVU189
 661              	.LBE309:
 662              	.LBE308:
 168:Drivers/BSP/Components/ili9341/ili9341.c ****   ili9341_WriteData(0xC8);
 663              		.loc 1 168 3 is_stmt 1 view .LVU190
 664              	.LBB310:
 665              	.LBI310:
 281:Drivers/BSP/Components/ili9341/ili9341.c **** {
 666              		.loc 1 281 6 view .LVU191
 667              	.LBB311:
 283:Drivers/BSP/Components/ili9341/ili9341.c **** }
 668              		.loc 1 283 3 view .LVU192
 669 0108 3620     		movs	r0, #54
 670 010a FFF7FEFF 		bl	LCD_IO_WriteReg
 671              	.LVL48:
 283:Drivers/BSP/Components/ili9341/ili9341.c **** }
 672              		.loc 1 283 3 is_stmt 0 view .LVU193
 673              	.LBE311:
 674              	.LBE310:
 169:Drivers/BSP/Components/ili9341/ili9341.c ****   ili9341_WriteReg(LCD_3GAMMA_EN);
 675              		.loc 1 169 3 is_stmt 1 view .LVU194
 676              	.LBB312:
 677              	.LBI312:
 291:Drivers/BSP/Components/ili9341/ili9341.c **** {
 678              		.loc 1 291 6 view .LVU195
 679              	.LBB313:
 293:Drivers/BSP/Components/ili9341/ili9341.c **** }
 680              		.loc 1 293 3 view .LVU196
 681 010e C820     		movs	r0, #200
 682 0110 FFF7FEFF 		bl	LCD_IO_WriteData
 683              	.LVL49:
 293:Drivers/BSP/Components/ili9341/ili9341.c **** }
 684              		.loc 1 293 3 is_stmt 0 view .LVU197
 685              	.LBE313:
 686              	.LBE312:
ARM GAS  /var/folders/0z/tsy30v1j4xl4_7kw94k978ww0000gn/T//cc3ICnnZ.s 			page 22


 170:Drivers/BSP/Components/ili9341/ili9341.c ****   ili9341_WriteData(0x00);
 687              		.loc 1 170 3 is_stmt 1 view .LVU198
 688              	.LBB314:
 689              	.LBI314:
 281:Drivers/BSP/Components/ili9341/ili9341.c **** {
 690              		.loc 1 281 6 view .LVU199
 691              	.LBB315:
 283:Drivers/BSP/Components/ili9341/ili9341.c **** }
 692              		.loc 1 283 3 view .LVU200
 693 0114 F220     		movs	r0, #242
 694 0116 FFF7FEFF 		bl	LCD_IO_WriteReg
 695              	.LVL50:
 283:Drivers/BSP/Components/ili9341/ili9341.c **** }
 696              		.loc 1 283 3 is_stmt 0 view .LVU201
 697              	.LBE315:
 698              	.LBE314:
 171:Drivers/BSP/Components/ili9341/ili9341.c ****   ili9341_WriteReg(LCD_RGB_INTERFACE);
 699              		.loc 1 171 3 is_stmt 1 view .LVU202
 700              	.LBB316:
 701              	.LBI316:
 291:Drivers/BSP/Components/ili9341/ili9341.c **** {
 702              		.loc 1 291 6 view .LVU203
 703              	.LBB317:
 293:Drivers/BSP/Components/ili9341/ili9341.c **** }
 704              		.loc 1 293 3 view .LVU204
 705 011a 0020     		movs	r0, #0
 706 011c FFF7FEFF 		bl	LCD_IO_WriteData
 707              	.LVL51:
 293:Drivers/BSP/Components/ili9341/ili9341.c **** }
 708              		.loc 1 293 3 is_stmt 0 view .LVU205
 709              	.LBE317:
 710              	.LBE316:
 172:Drivers/BSP/Components/ili9341/ili9341.c ****   ili9341_WriteData(0xC2);
 711              		.loc 1 172 3 is_stmt 1 view .LVU206
 712              	.LBB318:
 713              	.LBI318:
 281:Drivers/BSP/Components/ili9341/ili9341.c **** {
 714              		.loc 1 281 6 view .LVU207
 715              	.LBB319:
 283:Drivers/BSP/Components/ili9341/ili9341.c **** }
 716              		.loc 1 283 3 view .LVU208
 717 0120 B020     		movs	r0, #176
 718 0122 FFF7FEFF 		bl	LCD_IO_WriteReg
 719              	.LVL52:
 283:Drivers/BSP/Components/ili9341/ili9341.c **** }
 720              		.loc 1 283 3 is_stmt 0 view .LVU209
 721              	.LBE319:
 722              	.LBE318:
 173:Drivers/BSP/Components/ili9341/ili9341.c ****   ili9341_WriteReg(LCD_DFC);
 723              		.loc 1 173 3 is_stmt 1 view .LVU210
 724              	.LBB320:
 725              	.LBI320:
 291:Drivers/BSP/Components/ili9341/ili9341.c **** {
 726              		.loc 1 291 6 view .LVU211
 727              	.LBB321:
 293:Drivers/BSP/Components/ili9341/ili9341.c **** }
 728              		.loc 1 293 3 view .LVU212
ARM GAS  /var/folders/0z/tsy30v1j4xl4_7kw94k978ww0000gn/T//cc3ICnnZ.s 			page 23


 729 0126 C220     		movs	r0, #194
 730 0128 FFF7FEFF 		bl	LCD_IO_WriteData
 731              	.LVL53:
 293:Drivers/BSP/Components/ili9341/ili9341.c **** }
 732              		.loc 1 293 3 is_stmt 0 view .LVU213
 733              	.LBE321:
 734              	.LBE320:
 174:Drivers/BSP/Components/ili9341/ili9341.c ****   ili9341_WriteData(0x0A);
 735              		.loc 1 174 3 is_stmt 1 view .LVU214
 736              	.LBB322:
 737              	.LBI322:
 281:Drivers/BSP/Components/ili9341/ili9341.c **** {
 738              		.loc 1 281 6 view .LVU215
 739              	.LBB323:
 283:Drivers/BSP/Components/ili9341/ili9341.c **** }
 740              		.loc 1 283 3 view .LVU216
 741 012c B620     		movs	r0, #182
 742 012e FFF7FEFF 		bl	LCD_IO_WriteReg
 743              	.LVL54:
 283:Drivers/BSP/Components/ili9341/ili9341.c **** }
 744              		.loc 1 283 3 is_stmt 0 view .LVU217
 745              	.LBE323:
 746              	.LBE322:
 175:Drivers/BSP/Components/ili9341/ili9341.c ****   ili9341_WriteData(0xA7);
 747              		.loc 1 175 3 is_stmt 1 view .LVU218
 748              	.LBB324:
 749              	.LBI324:
 291:Drivers/BSP/Components/ili9341/ili9341.c **** {
 750              		.loc 1 291 6 view .LVU219
 751              	.LBB325:
 293:Drivers/BSP/Components/ili9341/ili9341.c **** }
 752              		.loc 1 293 3 view .LVU220
 753 0132 0A20     		movs	r0, #10
 754 0134 FFF7FEFF 		bl	LCD_IO_WriteData
 755              	.LVL55:
 293:Drivers/BSP/Components/ili9341/ili9341.c **** }
 756              		.loc 1 293 3 is_stmt 0 view .LVU221
 757              	.LBE325:
 758              	.LBE324:
 176:Drivers/BSP/Components/ili9341/ili9341.c ****   ili9341_WriteData(0x27);
 759              		.loc 1 176 3 is_stmt 1 view .LVU222
 760              	.LBB326:
 761              	.LBI326:
 291:Drivers/BSP/Components/ili9341/ili9341.c **** {
 762              		.loc 1 291 6 view .LVU223
 763              	.LBB327:
 293:Drivers/BSP/Components/ili9341/ili9341.c **** }
 764              		.loc 1 293 3 view .LVU224
 765 0138 A720     		movs	r0, #167
 766 013a FFF7FEFF 		bl	LCD_IO_WriteData
 767              	.LVL56:
 293:Drivers/BSP/Components/ili9341/ili9341.c **** }
 768              		.loc 1 293 3 is_stmt 0 view .LVU225
 769              	.LBE327:
 770              	.LBE326:
 177:Drivers/BSP/Components/ili9341/ili9341.c ****   ili9341_WriteData(0x04);
 771              		.loc 1 177 3 is_stmt 1 view .LVU226
ARM GAS  /var/folders/0z/tsy30v1j4xl4_7kw94k978ww0000gn/T//cc3ICnnZ.s 			page 24


 772              	.LBB328:
 773              	.LBI328:
 291:Drivers/BSP/Components/ili9341/ili9341.c **** {
 774              		.loc 1 291 6 view .LVU227
 775              	.LBB329:
 293:Drivers/BSP/Components/ili9341/ili9341.c **** }
 776              		.loc 1 293 3 view .LVU228
 777 013e 2720     		movs	r0, #39
 778 0140 FFF7FEFF 		bl	LCD_IO_WriteData
 779              	.LVL57:
 293:Drivers/BSP/Components/ili9341/ili9341.c **** }
 780              		.loc 1 293 3 is_stmt 0 view .LVU229
 781              	.LBE329:
 782              	.LBE328:
 178:Drivers/BSP/Components/ili9341/ili9341.c ****   
 783              		.loc 1 178 3 is_stmt 1 view .LVU230
 784              	.LBB330:
 785              	.LBI330:
 291:Drivers/BSP/Components/ili9341/ili9341.c **** {
 786              		.loc 1 291 6 view .LVU231
 787              	.LBB331:
 293:Drivers/BSP/Components/ili9341/ili9341.c **** }
 788              		.loc 1 293 3 view .LVU232
 789 0144 0420     		movs	r0, #4
 790 0146 FFF7FEFF 		bl	LCD_IO_WriteData
 791              	.LVL58:
 293:Drivers/BSP/Components/ili9341/ili9341.c **** }
 792              		.loc 1 293 3 is_stmt 0 view .LVU233
 793              	.LBE331:
 794              	.LBE330:
 181:Drivers/BSP/Components/ili9341/ili9341.c ****   ili9341_WriteData(0x00);
 795              		.loc 1 181 3 is_stmt 1 view .LVU234
 796              	.LBB332:
 797              	.LBI332:
 281:Drivers/BSP/Components/ili9341/ili9341.c **** {
 798              		.loc 1 281 6 view .LVU235
 799              	.LBB333:
 283:Drivers/BSP/Components/ili9341/ili9341.c **** }
 800              		.loc 1 283 3 view .LVU236
 801 014a 2A20     		movs	r0, #42
 802 014c FFF7FEFF 		bl	LCD_IO_WriteReg
 803              	.LVL59:
 283:Drivers/BSP/Components/ili9341/ili9341.c **** }
 804              		.loc 1 283 3 is_stmt 0 view .LVU237
 805              	.LBE333:
 806              	.LBE332:
 182:Drivers/BSP/Components/ili9341/ili9341.c ****   ili9341_WriteData(0x00);
 807              		.loc 1 182 3 is_stmt 1 view .LVU238
 808              	.LBB334:
 809              	.LBI334:
 291:Drivers/BSP/Components/ili9341/ili9341.c **** {
 810              		.loc 1 291 6 view .LVU239
 811              	.LBB335:
 293:Drivers/BSP/Components/ili9341/ili9341.c **** }
 812              		.loc 1 293 3 view .LVU240
 813 0150 0020     		movs	r0, #0
 814 0152 FFF7FEFF 		bl	LCD_IO_WriteData
ARM GAS  /var/folders/0z/tsy30v1j4xl4_7kw94k978ww0000gn/T//cc3ICnnZ.s 			page 25


 815              	.LVL60:
 293:Drivers/BSP/Components/ili9341/ili9341.c **** }
 816              		.loc 1 293 3 is_stmt 0 view .LVU241
 817              	.LBE335:
 818              	.LBE334:
 183:Drivers/BSP/Components/ili9341/ili9341.c ****   ili9341_WriteData(0x00);
 819              		.loc 1 183 3 is_stmt 1 view .LVU242
 820              	.LBB336:
 821              	.LBI336:
 291:Drivers/BSP/Components/ili9341/ili9341.c **** {
 822              		.loc 1 291 6 view .LVU243
 823              	.LBB337:
 293:Drivers/BSP/Components/ili9341/ili9341.c **** }
 824              		.loc 1 293 3 view .LVU244
 825 0156 0020     		movs	r0, #0
 826 0158 FFF7FEFF 		bl	LCD_IO_WriteData
 827              	.LVL61:
 293:Drivers/BSP/Components/ili9341/ili9341.c **** }
 828              		.loc 1 293 3 is_stmt 0 view .LVU245
 829              	.LBE337:
 830              	.LBE336:
 184:Drivers/BSP/Components/ili9341/ili9341.c ****   ili9341_WriteData(0xEF);
 831              		.loc 1 184 3 is_stmt 1 view .LVU246
 832              	.LBB338:
 833              	.LBI338:
 291:Drivers/BSP/Components/ili9341/ili9341.c **** {
 834              		.loc 1 291 6 view .LVU247
 835              	.LBB339:
 293:Drivers/BSP/Components/ili9341/ili9341.c **** }
 836              		.loc 1 293 3 view .LVU248
 837 015c 0020     		movs	r0, #0
 838 015e FFF7FEFF 		bl	LCD_IO_WriteData
 839              	.LVL62:
 293:Drivers/BSP/Components/ili9341/ili9341.c **** }
 840              		.loc 1 293 3 is_stmt 0 view .LVU249
 841              	.LBE339:
 842              	.LBE338:
 185:Drivers/BSP/Components/ili9341/ili9341.c ****   /* Page address set */
 843              		.loc 1 185 3 is_stmt 1 view .LVU250
 844              	.LBB340:
 845              	.LBI340:
 291:Drivers/BSP/Components/ili9341/ili9341.c **** {
 846              		.loc 1 291 6 view .LVU251
 847              	.LBB341:
 293:Drivers/BSP/Components/ili9341/ili9341.c **** }
 848              		.loc 1 293 3 view .LVU252
 849 0162 EF20     		movs	r0, #239
 850 0164 FFF7FEFF 		bl	LCD_IO_WriteData
 851              	.LVL63:
 293:Drivers/BSP/Components/ili9341/ili9341.c **** }
 852              		.loc 1 293 3 is_stmt 0 view .LVU253
 853              	.LBE341:
 854              	.LBE340:
 187:Drivers/BSP/Components/ili9341/ili9341.c ****   ili9341_WriteData(0x00);
 855              		.loc 1 187 3 is_stmt 1 view .LVU254
 856              	.LBB342:
 857              	.LBI342:
ARM GAS  /var/folders/0z/tsy30v1j4xl4_7kw94k978ww0000gn/T//cc3ICnnZ.s 			page 26


 281:Drivers/BSP/Components/ili9341/ili9341.c **** {
 858              		.loc 1 281 6 view .LVU255
 859              	.LBB343:
 283:Drivers/BSP/Components/ili9341/ili9341.c **** }
 860              		.loc 1 283 3 view .LVU256
 861 0168 2B20     		movs	r0, #43
 862 016a FFF7FEFF 		bl	LCD_IO_WriteReg
 863              	.LVL64:
 283:Drivers/BSP/Components/ili9341/ili9341.c **** }
 864              		.loc 1 283 3 is_stmt 0 view .LVU257
 865              	.LBE343:
 866              	.LBE342:
 188:Drivers/BSP/Components/ili9341/ili9341.c ****   ili9341_WriteData(0x00);
 867              		.loc 1 188 3 is_stmt 1 view .LVU258
 868              	.LBB344:
 869              	.LBI344:
 291:Drivers/BSP/Components/ili9341/ili9341.c **** {
 870              		.loc 1 291 6 view .LVU259
 871              	.LBB345:
 293:Drivers/BSP/Components/ili9341/ili9341.c **** }
 872              		.loc 1 293 3 view .LVU260
 873 016e 0020     		movs	r0, #0
 874 0170 FFF7FEFF 		bl	LCD_IO_WriteData
 875              	.LVL65:
 293:Drivers/BSP/Components/ili9341/ili9341.c **** }
 876              		.loc 1 293 3 is_stmt 0 view .LVU261
 877              	.LBE345:
 878              	.LBE344:
 189:Drivers/BSP/Components/ili9341/ili9341.c ****   ili9341_WriteData(0x01);
 879              		.loc 1 189 3 is_stmt 1 view .LVU262
 880              	.LBB346:
 881              	.LBI346:
 291:Drivers/BSP/Components/ili9341/ili9341.c **** {
 882              		.loc 1 291 6 view .LVU263
 883              	.LBB347:
 293:Drivers/BSP/Components/ili9341/ili9341.c **** }
 884              		.loc 1 293 3 view .LVU264
 885 0174 0020     		movs	r0, #0
 886 0176 FFF7FEFF 		bl	LCD_IO_WriteData
 887              	.LVL66:
 293:Drivers/BSP/Components/ili9341/ili9341.c **** }
 888              		.loc 1 293 3 is_stmt 0 view .LVU265
 889              	.LBE347:
 890              	.LBE346:
 190:Drivers/BSP/Components/ili9341/ili9341.c ****   ili9341_WriteData(0x3F);
 891              		.loc 1 190 3 is_stmt 1 view .LVU266
 892              	.LBB348:
 893              	.LBI348:
 291:Drivers/BSP/Components/ili9341/ili9341.c **** {
 894              		.loc 1 291 6 view .LVU267
 895              	.LBB349:
 293:Drivers/BSP/Components/ili9341/ili9341.c **** }
 896              		.loc 1 293 3 view .LVU268
 897 017a 0120     		movs	r0, #1
 898 017c FFF7FEFF 		bl	LCD_IO_WriteData
 899              	.LVL67:
 293:Drivers/BSP/Components/ili9341/ili9341.c **** }
ARM GAS  /var/folders/0z/tsy30v1j4xl4_7kw94k978ww0000gn/T//cc3ICnnZ.s 			page 27


 900              		.loc 1 293 3 is_stmt 0 view .LVU269
 901              	.LBE349:
 902              	.LBE348:
 191:Drivers/BSP/Components/ili9341/ili9341.c ****   ili9341_WriteReg(LCD_INTERFACE);
 903              		.loc 1 191 3 is_stmt 1 view .LVU270
 904              	.LBB350:
 905              	.LBI350:
 291:Drivers/BSP/Components/ili9341/ili9341.c **** {
 906              		.loc 1 291 6 view .LVU271
 907              	.LBB351:
 293:Drivers/BSP/Components/ili9341/ili9341.c **** }
 908              		.loc 1 293 3 view .LVU272
 909 0180 3F20     		movs	r0, #63
 910 0182 FFF7FEFF 		bl	LCD_IO_WriteData
 911              	.LVL68:
 293:Drivers/BSP/Components/ili9341/ili9341.c **** }
 912              		.loc 1 293 3 is_stmt 0 view .LVU273
 913              	.LBE351:
 914              	.LBE350:
 192:Drivers/BSP/Components/ili9341/ili9341.c ****   ili9341_WriteData(0x01);
 915              		.loc 1 192 3 is_stmt 1 view .LVU274
 916              	.LBB352:
 917              	.LBI352:
 281:Drivers/BSP/Components/ili9341/ili9341.c **** {
 918              		.loc 1 281 6 view .LVU275
 919              	.LBB353:
 283:Drivers/BSP/Components/ili9341/ili9341.c **** }
 920              		.loc 1 283 3 view .LVU276
 921 0186 F620     		movs	r0, #246
 922 0188 FFF7FEFF 		bl	LCD_IO_WriteReg
 923              	.LVL69:
 283:Drivers/BSP/Components/ili9341/ili9341.c **** }
 924              		.loc 1 283 3 is_stmt 0 view .LVU277
 925              	.LBE353:
 926              	.LBE352:
 193:Drivers/BSP/Components/ili9341/ili9341.c ****   ili9341_WriteData(0x00);
 927              		.loc 1 193 3 is_stmt 1 view .LVU278
 928              	.LBB354:
 929              	.LBI354:
 291:Drivers/BSP/Components/ili9341/ili9341.c **** {
 930              		.loc 1 291 6 view .LVU279
 931              	.LBB355:
 293:Drivers/BSP/Components/ili9341/ili9341.c **** }
 932              		.loc 1 293 3 view .LVU280
 933 018c 0120     		movs	r0, #1
 934 018e FFF7FEFF 		bl	LCD_IO_WriteData
 935              	.LVL70:
 293:Drivers/BSP/Components/ili9341/ili9341.c **** }
 936              		.loc 1 293 3 is_stmt 0 view .LVU281
 937              	.LBE355:
 938              	.LBE354:
 194:Drivers/BSP/Components/ili9341/ili9341.c ****   ili9341_WriteData(0x06);
 939              		.loc 1 194 3 is_stmt 1 view .LVU282
 940              	.LBB356:
 941              	.LBI356:
 291:Drivers/BSP/Components/ili9341/ili9341.c **** {
 942              		.loc 1 291 6 view .LVU283
ARM GAS  /var/folders/0z/tsy30v1j4xl4_7kw94k978ww0000gn/T//cc3ICnnZ.s 			page 28


 943              	.LBB357:
 293:Drivers/BSP/Components/ili9341/ili9341.c **** }
 944              		.loc 1 293 3 view .LVU284
 945 0192 0020     		movs	r0, #0
 946 0194 FFF7FEFF 		bl	LCD_IO_WriteData
 947              	.LVL71:
 293:Drivers/BSP/Components/ili9341/ili9341.c **** }
 948              		.loc 1 293 3 is_stmt 0 view .LVU285
 949              	.LBE357:
 950              	.LBE356:
 195:Drivers/BSP/Components/ili9341/ili9341.c ****   
 951              		.loc 1 195 3 is_stmt 1 view .LVU286
 952              	.LBB358:
 953              	.LBI358:
 291:Drivers/BSP/Components/ili9341/ili9341.c **** {
 954              		.loc 1 291 6 view .LVU287
 955              	.LBB359:
 293:Drivers/BSP/Components/ili9341/ili9341.c **** }
 956              		.loc 1 293 3 view .LVU288
 957 0198 0620     		movs	r0, #6
 958 019a FFF7FEFF 		bl	LCD_IO_WriteData
 959              	.LVL72:
 293:Drivers/BSP/Components/ili9341/ili9341.c **** }
 960              		.loc 1 293 3 is_stmt 0 view .LVU289
 961              	.LBE359:
 962              	.LBE358:
 197:Drivers/BSP/Components/ili9341/ili9341.c ****   LCD_Delay(200);
 963              		.loc 1 197 3 is_stmt 1 view .LVU290
 964              	.LBB360:
 965              	.LBI360:
 281:Drivers/BSP/Components/ili9341/ili9341.c **** {
 966              		.loc 1 281 6 view .LVU291
 967              	.LBB361:
 283:Drivers/BSP/Components/ili9341/ili9341.c **** }
 968              		.loc 1 283 3 view .LVU292
 969 019e 2C20     		movs	r0, #44
 970 01a0 FFF7FEFF 		bl	LCD_IO_WriteReg
 971              	.LVL73:
 283:Drivers/BSP/Components/ili9341/ili9341.c **** }
 972              		.loc 1 283 3 is_stmt 0 view .LVU293
 973              	.LBE361:
 974              	.LBE360:
 198:Drivers/BSP/Components/ili9341/ili9341.c ****   
 975              		.loc 1 198 3 is_stmt 1 view .LVU294
 976 01a4 C820     		movs	r0, #200
 977 01a6 FFF7FEFF 		bl	LCD_Delay
 978              	.LVL74:
 200:Drivers/BSP/Components/ili9341/ili9341.c ****   ili9341_WriteData(0x01);
 979              		.loc 1 200 3 view .LVU295
 980              	.LBB362:
 981              	.LBI362:
 281:Drivers/BSP/Components/ili9341/ili9341.c **** {
 982              		.loc 1 281 6 view .LVU296
 983              	.LBB363:
 283:Drivers/BSP/Components/ili9341/ili9341.c **** }
 984              		.loc 1 283 3 view .LVU297
 985 01aa 2620     		movs	r0, #38
ARM GAS  /var/folders/0z/tsy30v1j4xl4_7kw94k978ww0000gn/T//cc3ICnnZ.s 			page 29


 986 01ac FFF7FEFF 		bl	LCD_IO_WriteReg
 987              	.LVL75:
 283:Drivers/BSP/Components/ili9341/ili9341.c **** }
 988              		.loc 1 283 3 is_stmt 0 view .LVU298
 989              	.LBE363:
 990              	.LBE362:
 201:Drivers/BSP/Components/ili9341/ili9341.c ****   
 991              		.loc 1 201 3 is_stmt 1 view .LVU299
 992              	.LBB364:
 993              	.LBI364:
 291:Drivers/BSP/Components/ili9341/ili9341.c **** {
 994              		.loc 1 291 6 view .LVU300
 995              	.LBB365:
 293:Drivers/BSP/Components/ili9341/ili9341.c **** }
 996              		.loc 1 293 3 view .LVU301
 997 01b0 0120     		movs	r0, #1
 998 01b2 FFF7FEFF 		bl	LCD_IO_WriteData
 999              	.LVL76:
 293:Drivers/BSP/Components/ili9341/ili9341.c **** }
 1000              		.loc 1 293 3 is_stmt 0 view .LVU302
 1001              	.LBE365:
 1002              	.LBE364:
 203:Drivers/BSP/Components/ili9341/ili9341.c ****   ili9341_WriteData(0x0F);
 1003              		.loc 1 203 3 is_stmt 1 view .LVU303
 1004              	.LBB366:
 1005              	.LBI366:
 281:Drivers/BSP/Components/ili9341/ili9341.c **** {
 1006              		.loc 1 281 6 view .LVU304
 1007              	.LBB367:
 283:Drivers/BSP/Components/ili9341/ili9341.c **** }
 1008              		.loc 1 283 3 view .LVU305
 1009 01b6 E020     		movs	r0, #224
 1010 01b8 FFF7FEFF 		bl	LCD_IO_WriteReg
 1011              	.LVL77:
 283:Drivers/BSP/Components/ili9341/ili9341.c **** }
 1012              		.loc 1 283 3 is_stmt 0 view .LVU306
 1013              	.LBE367:
 1014              	.LBE366:
 204:Drivers/BSP/Components/ili9341/ili9341.c ****   ili9341_WriteData(0x29);
 1015              		.loc 1 204 3 is_stmt 1 view .LVU307
 1016              	.LBB368:
 1017              	.LBI368:
 291:Drivers/BSP/Components/ili9341/ili9341.c **** {
 1018              		.loc 1 291 6 view .LVU308
 1019              	.LBB369:
 293:Drivers/BSP/Components/ili9341/ili9341.c **** }
 1020              		.loc 1 293 3 view .LVU309
 1021 01bc 0F20     		movs	r0, #15
 1022 01be FFF7FEFF 		bl	LCD_IO_WriteData
 1023              	.LVL78:
 293:Drivers/BSP/Components/ili9341/ili9341.c **** }
 1024              		.loc 1 293 3 is_stmt 0 view .LVU310
 1025              	.LBE369:
 1026              	.LBE368:
 205:Drivers/BSP/Components/ili9341/ili9341.c ****   ili9341_WriteData(0x24);
 1027              		.loc 1 205 3 is_stmt 1 view .LVU311
 1028              	.LBB370:
ARM GAS  /var/folders/0z/tsy30v1j4xl4_7kw94k978ww0000gn/T//cc3ICnnZ.s 			page 30


 1029              	.LBI370:
 291:Drivers/BSP/Components/ili9341/ili9341.c **** {
 1030              		.loc 1 291 6 view .LVU312
 1031              	.LBB371:
 293:Drivers/BSP/Components/ili9341/ili9341.c **** }
 1032              		.loc 1 293 3 view .LVU313
 1033 01c2 2920     		movs	r0, #41
 1034 01c4 FFF7FEFF 		bl	LCD_IO_WriteData
 1035              	.LVL79:
 293:Drivers/BSP/Components/ili9341/ili9341.c **** }
 1036              		.loc 1 293 3 is_stmt 0 view .LVU314
 1037              	.LBE371:
 1038              	.LBE370:
 206:Drivers/BSP/Components/ili9341/ili9341.c ****   ili9341_WriteData(0x0C);
 1039              		.loc 1 206 3 is_stmt 1 view .LVU315
 1040              	.LBB372:
 1041              	.LBI372:
 291:Drivers/BSP/Components/ili9341/ili9341.c **** {
 1042              		.loc 1 291 6 view .LVU316
 1043              	.LBB373:
 293:Drivers/BSP/Components/ili9341/ili9341.c **** }
 1044              		.loc 1 293 3 view .LVU317
 1045 01c8 2420     		movs	r0, #36
 1046 01ca FFF7FEFF 		bl	LCD_IO_WriteData
 1047              	.LVL80:
 293:Drivers/BSP/Components/ili9341/ili9341.c **** }
 1048              		.loc 1 293 3 is_stmt 0 view .LVU318
 1049              	.LBE373:
 1050              	.LBE372:
 207:Drivers/BSP/Components/ili9341/ili9341.c ****   ili9341_WriteData(0x0E);
 1051              		.loc 1 207 3 is_stmt 1 view .LVU319
 1052              	.LBB374:
 1053              	.LBI374:
 291:Drivers/BSP/Components/ili9341/ili9341.c **** {
 1054              		.loc 1 291 6 view .LVU320
 1055              	.LBB375:
 293:Drivers/BSP/Components/ili9341/ili9341.c **** }
 1056              		.loc 1 293 3 view .LVU321
 1057 01ce 0C20     		movs	r0, #12
 1058 01d0 FFF7FEFF 		bl	LCD_IO_WriteData
 1059              	.LVL81:
 293:Drivers/BSP/Components/ili9341/ili9341.c **** }
 1060              		.loc 1 293 3 is_stmt 0 view .LVU322
 1061              	.LBE375:
 1062              	.LBE374:
 208:Drivers/BSP/Components/ili9341/ili9341.c ****   ili9341_WriteData(0x09);
 1063              		.loc 1 208 3 is_stmt 1 view .LVU323
 1064              	.LBB376:
 1065              	.LBI376:
 291:Drivers/BSP/Components/ili9341/ili9341.c **** {
 1066              		.loc 1 291 6 view .LVU324
 1067              	.LBB377:
 293:Drivers/BSP/Components/ili9341/ili9341.c **** }
 1068              		.loc 1 293 3 view .LVU325
 1069 01d4 0E20     		movs	r0, #14
 1070 01d6 FFF7FEFF 		bl	LCD_IO_WriteData
 1071              	.LVL82:
ARM GAS  /var/folders/0z/tsy30v1j4xl4_7kw94k978ww0000gn/T//cc3ICnnZ.s 			page 31


 293:Drivers/BSP/Components/ili9341/ili9341.c **** }
 1072              		.loc 1 293 3 is_stmt 0 view .LVU326
 1073              	.LBE377:
 1074              	.LBE376:
 209:Drivers/BSP/Components/ili9341/ili9341.c ****   ili9341_WriteData(0x4E);
 1075              		.loc 1 209 3 is_stmt 1 view .LVU327
 1076              	.LBB378:
 1077              	.LBI378:
 291:Drivers/BSP/Components/ili9341/ili9341.c **** {
 1078              		.loc 1 291 6 view .LVU328
 1079              	.LBB379:
 293:Drivers/BSP/Components/ili9341/ili9341.c **** }
 1080              		.loc 1 293 3 view .LVU329
 1081 01da 0920     		movs	r0, #9
 1082 01dc FFF7FEFF 		bl	LCD_IO_WriteData
 1083              	.LVL83:
 293:Drivers/BSP/Components/ili9341/ili9341.c **** }
 1084              		.loc 1 293 3 is_stmt 0 view .LVU330
 1085              	.LBE379:
 1086              	.LBE378:
 210:Drivers/BSP/Components/ili9341/ili9341.c ****   ili9341_WriteData(0x78);
 1087              		.loc 1 210 3 is_stmt 1 view .LVU331
 1088              	.LBB380:
 1089              	.LBI380:
 291:Drivers/BSP/Components/ili9341/ili9341.c **** {
 1090              		.loc 1 291 6 view .LVU332
 1091              	.LBB381:
 293:Drivers/BSP/Components/ili9341/ili9341.c **** }
 1092              		.loc 1 293 3 view .LVU333
 1093 01e0 4E20     		movs	r0, #78
 1094 01e2 FFF7FEFF 		bl	LCD_IO_WriteData
 1095              	.LVL84:
 293:Drivers/BSP/Components/ili9341/ili9341.c **** }
 1096              		.loc 1 293 3 is_stmt 0 view .LVU334
 1097              	.LBE381:
 1098              	.LBE380:
 211:Drivers/BSP/Components/ili9341/ili9341.c ****   ili9341_WriteData(0x3C);
 1099              		.loc 1 211 3 is_stmt 1 view .LVU335
 1100              	.LBB382:
 1101              	.LBI382:
 291:Drivers/BSP/Components/ili9341/ili9341.c **** {
 1102              		.loc 1 291 6 view .LVU336
 1103              	.LBB383:
 293:Drivers/BSP/Components/ili9341/ili9341.c **** }
 1104              		.loc 1 293 3 view .LVU337
 1105 01e6 7820     		movs	r0, #120
 1106 01e8 FFF7FEFF 		bl	LCD_IO_WriteData
 1107              	.LVL85:
 293:Drivers/BSP/Components/ili9341/ili9341.c **** }
 1108              		.loc 1 293 3 is_stmt 0 view .LVU338
 1109              	.LBE383:
 1110              	.LBE382:
 212:Drivers/BSP/Components/ili9341/ili9341.c ****   ili9341_WriteData(0x09);
 1111              		.loc 1 212 3 is_stmt 1 view .LVU339
 1112              	.LBB384:
 1113              	.LBI384:
 291:Drivers/BSP/Components/ili9341/ili9341.c **** {
ARM GAS  /var/folders/0z/tsy30v1j4xl4_7kw94k978ww0000gn/T//cc3ICnnZ.s 			page 32


 1114              		.loc 1 291 6 view .LVU340
 1115              	.LBB385:
 293:Drivers/BSP/Components/ili9341/ili9341.c **** }
 1116              		.loc 1 293 3 view .LVU341
 1117 01ec 3C20     		movs	r0, #60
 1118 01ee FFF7FEFF 		bl	LCD_IO_WriteData
 1119              	.LVL86:
 293:Drivers/BSP/Components/ili9341/ili9341.c **** }
 1120              		.loc 1 293 3 is_stmt 0 view .LVU342
 1121              	.LBE385:
 1122              	.LBE384:
 213:Drivers/BSP/Components/ili9341/ili9341.c ****   ili9341_WriteData(0x13);
 1123              		.loc 1 213 3 is_stmt 1 view .LVU343
 1124              	.LBB386:
 1125              	.LBI386:
 291:Drivers/BSP/Components/ili9341/ili9341.c **** {
 1126              		.loc 1 291 6 view .LVU344
 1127              	.LBB387:
 293:Drivers/BSP/Components/ili9341/ili9341.c **** }
 1128              		.loc 1 293 3 view .LVU345
 1129 01f2 0920     		movs	r0, #9
 1130 01f4 FFF7FEFF 		bl	LCD_IO_WriteData
 1131              	.LVL87:
 293:Drivers/BSP/Components/ili9341/ili9341.c **** }
 1132              		.loc 1 293 3 is_stmt 0 view .LVU346
 1133              	.LBE387:
 1134              	.LBE386:
 214:Drivers/BSP/Components/ili9341/ili9341.c ****   ili9341_WriteData(0x05);
 1135              		.loc 1 214 3 is_stmt 1 view .LVU347
 1136              	.LBB388:
 1137              	.LBI388:
 291:Drivers/BSP/Components/ili9341/ili9341.c **** {
 1138              		.loc 1 291 6 view .LVU348
 1139              	.LBB389:
 293:Drivers/BSP/Components/ili9341/ili9341.c **** }
 1140              		.loc 1 293 3 view .LVU349
 1141 01f8 1320     		movs	r0, #19
 1142 01fa FFF7FEFF 		bl	LCD_IO_WriteData
 1143              	.LVL88:
 293:Drivers/BSP/Components/ili9341/ili9341.c **** }
 1144              		.loc 1 293 3 is_stmt 0 view .LVU350
 1145              	.LBE389:
 1146              	.LBE388:
 215:Drivers/BSP/Components/ili9341/ili9341.c ****   ili9341_WriteData(0x17);
 1147              		.loc 1 215 3 is_stmt 1 view .LVU351
 1148              	.LBB390:
 1149              	.LBI390:
 291:Drivers/BSP/Components/ili9341/ili9341.c **** {
 1150              		.loc 1 291 6 view .LVU352
 1151              	.LBB391:
 293:Drivers/BSP/Components/ili9341/ili9341.c **** }
 1152              		.loc 1 293 3 view .LVU353
 1153 01fe 0520     		movs	r0, #5
 1154 0200 FFF7FEFF 		bl	LCD_IO_WriteData
 1155              	.LVL89:
 293:Drivers/BSP/Components/ili9341/ili9341.c **** }
 1156              		.loc 1 293 3 is_stmt 0 view .LVU354
ARM GAS  /var/folders/0z/tsy30v1j4xl4_7kw94k978ww0000gn/T//cc3ICnnZ.s 			page 33


 1157              	.LBE391:
 1158              	.LBE390:
 216:Drivers/BSP/Components/ili9341/ili9341.c ****   ili9341_WriteData(0x11);
 1159              		.loc 1 216 3 is_stmt 1 view .LVU355
 1160              	.LBB392:
 1161              	.LBI392:
 291:Drivers/BSP/Components/ili9341/ili9341.c **** {
 1162              		.loc 1 291 6 view .LVU356
 1163              	.LBB393:
 293:Drivers/BSP/Components/ili9341/ili9341.c **** }
 1164              		.loc 1 293 3 view .LVU357
 1165 0204 1720     		movs	r0, #23
 1166 0206 FFF7FEFF 		bl	LCD_IO_WriteData
 1167              	.LVL90:
 293:Drivers/BSP/Components/ili9341/ili9341.c **** }
 1168              		.loc 1 293 3 is_stmt 0 view .LVU358
 1169              	.LBE393:
 1170              	.LBE392:
 217:Drivers/BSP/Components/ili9341/ili9341.c ****   ili9341_WriteData(0x00);
 1171              		.loc 1 217 3 is_stmt 1 view .LVU359
 1172              	.LBB394:
 1173              	.LBI394:
 291:Drivers/BSP/Components/ili9341/ili9341.c **** {
 1174              		.loc 1 291 6 view .LVU360
 1175              	.LBB395:
 293:Drivers/BSP/Components/ili9341/ili9341.c **** }
 1176              		.loc 1 293 3 view .LVU361
 1177 020a 1120     		movs	r0, #17
 1178 020c FFF7FEFF 		bl	LCD_IO_WriteData
 1179              	.LVL91:
 293:Drivers/BSP/Components/ili9341/ili9341.c **** }
 1180              		.loc 1 293 3 is_stmt 0 view .LVU362
 1181              	.LBE395:
 1182              	.LBE394:
 218:Drivers/BSP/Components/ili9341/ili9341.c ****   ili9341_WriteReg(LCD_NGAMMA);
 1183              		.loc 1 218 3 is_stmt 1 view .LVU363
 1184              	.LBB396:
 1185              	.LBI396:
 291:Drivers/BSP/Components/ili9341/ili9341.c **** {
 1186              		.loc 1 291 6 view .LVU364
 1187              	.LBB397:
 293:Drivers/BSP/Components/ili9341/ili9341.c **** }
 1188              		.loc 1 293 3 view .LVU365
 1189 0210 0020     		movs	r0, #0
 1190 0212 FFF7FEFF 		bl	LCD_IO_WriteData
 1191              	.LVL92:
 293:Drivers/BSP/Components/ili9341/ili9341.c **** }
 1192              		.loc 1 293 3 is_stmt 0 view .LVU366
 1193              	.LBE397:
 1194              	.LBE396:
 219:Drivers/BSP/Components/ili9341/ili9341.c ****   ili9341_WriteData(0x00);
 1195              		.loc 1 219 3 is_stmt 1 view .LVU367
 1196              	.LBB398:
 1197              	.LBI398:
 281:Drivers/BSP/Components/ili9341/ili9341.c **** {
 1198              		.loc 1 281 6 view .LVU368
 1199              	.LBB399:
ARM GAS  /var/folders/0z/tsy30v1j4xl4_7kw94k978ww0000gn/T//cc3ICnnZ.s 			page 34


 283:Drivers/BSP/Components/ili9341/ili9341.c **** }
 1200              		.loc 1 283 3 view .LVU369
 1201 0216 E120     		movs	r0, #225
 1202 0218 FFF7FEFF 		bl	LCD_IO_WriteReg
 1203              	.LVL93:
 283:Drivers/BSP/Components/ili9341/ili9341.c **** }
 1204              		.loc 1 283 3 is_stmt 0 view .LVU370
 1205              	.LBE399:
 1206              	.LBE398:
 220:Drivers/BSP/Components/ili9341/ili9341.c ****   ili9341_WriteData(0x16);
 1207              		.loc 1 220 3 is_stmt 1 view .LVU371
 1208              	.LBB400:
 1209              	.LBI400:
 291:Drivers/BSP/Components/ili9341/ili9341.c **** {
 1210              		.loc 1 291 6 view .LVU372
 1211              	.LBB401:
 293:Drivers/BSP/Components/ili9341/ili9341.c **** }
 1212              		.loc 1 293 3 view .LVU373
 1213 021c 0020     		movs	r0, #0
 1214 021e FFF7FEFF 		bl	LCD_IO_WriteData
 1215              	.LVL94:
 293:Drivers/BSP/Components/ili9341/ili9341.c **** }
 1216              		.loc 1 293 3 is_stmt 0 view .LVU374
 1217              	.LBE401:
 1218              	.LBE400:
 221:Drivers/BSP/Components/ili9341/ili9341.c ****   ili9341_WriteData(0x1B);
 1219              		.loc 1 221 3 is_stmt 1 view .LVU375
 1220              	.LBB402:
 1221              	.LBI402:
 291:Drivers/BSP/Components/ili9341/ili9341.c **** {
 1222              		.loc 1 291 6 view .LVU376
 1223              	.LBB403:
 293:Drivers/BSP/Components/ili9341/ili9341.c **** }
 1224              		.loc 1 293 3 view .LVU377
 1225 0222 1620     		movs	r0, #22
 1226 0224 FFF7FEFF 		bl	LCD_IO_WriteData
 1227              	.LVL95:
 293:Drivers/BSP/Components/ili9341/ili9341.c **** }
 1228              		.loc 1 293 3 is_stmt 0 view .LVU378
 1229              	.LBE403:
 1230              	.LBE402:
 222:Drivers/BSP/Components/ili9341/ili9341.c ****   ili9341_WriteData(0x04);
 1231              		.loc 1 222 3 is_stmt 1 view .LVU379
 1232              	.LBB404:
 1233              	.LBI404:
 291:Drivers/BSP/Components/ili9341/ili9341.c **** {
 1234              		.loc 1 291 6 view .LVU380
 1235              	.LBB405:
 293:Drivers/BSP/Components/ili9341/ili9341.c **** }
 1236              		.loc 1 293 3 view .LVU381
 1237 0228 1B20     		movs	r0, #27
 1238 022a FFF7FEFF 		bl	LCD_IO_WriteData
 1239              	.LVL96:
 293:Drivers/BSP/Components/ili9341/ili9341.c **** }
 1240              		.loc 1 293 3 is_stmt 0 view .LVU382
 1241              	.LBE405:
 1242              	.LBE404:
ARM GAS  /var/folders/0z/tsy30v1j4xl4_7kw94k978ww0000gn/T//cc3ICnnZ.s 			page 35


 223:Drivers/BSP/Components/ili9341/ili9341.c ****   ili9341_WriteData(0x11);
 1243              		.loc 1 223 3 is_stmt 1 view .LVU383
 1244              	.LBB406:
 1245              	.LBI406:
 291:Drivers/BSP/Components/ili9341/ili9341.c **** {
 1246              		.loc 1 291 6 view .LVU384
 1247              	.LBB407:
 293:Drivers/BSP/Components/ili9341/ili9341.c **** }
 1248              		.loc 1 293 3 view .LVU385
 1249 022e 0420     		movs	r0, #4
 1250 0230 FFF7FEFF 		bl	LCD_IO_WriteData
 1251              	.LVL97:
 293:Drivers/BSP/Components/ili9341/ili9341.c **** }
 1252              		.loc 1 293 3 is_stmt 0 view .LVU386
 1253              	.LBE407:
 1254              	.LBE406:
 224:Drivers/BSP/Components/ili9341/ili9341.c ****   ili9341_WriteData(0x07);
 1255              		.loc 1 224 3 is_stmt 1 view .LVU387
 1256              	.LBB408:
 1257              	.LBI408:
 291:Drivers/BSP/Components/ili9341/ili9341.c **** {
 1258              		.loc 1 291 6 view .LVU388
 1259              	.LBB409:
 293:Drivers/BSP/Components/ili9341/ili9341.c **** }
 1260              		.loc 1 293 3 view .LVU389
 1261 0234 1120     		movs	r0, #17
 1262 0236 FFF7FEFF 		bl	LCD_IO_WriteData
 1263              	.LVL98:
 293:Drivers/BSP/Components/ili9341/ili9341.c **** }
 1264              		.loc 1 293 3 is_stmt 0 view .LVU390
 1265              	.LBE409:
 1266              	.LBE408:
 225:Drivers/BSP/Components/ili9341/ili9341.c ****   ili9341_WriteData(0x31);
 1267              		.loc 1 225 3 is_stmt 1 view .LVU391
 1268              	.LBB410:
 1269              	.LBI410:
 291:Drivers/BSP/Components/ili9341/ili9341.c **** {
 1270              		.loc 1 291 6 view .LVU392
 1271              	.LBB411:
 293:Drivers/BSP/Components/ili9341/ili9341.c **** }
 1272              		.loc 1 293 3 view .LVU393
 1273 023a 0720     		movs	r0, #7
 1274 023c FFF7FEFF 		bl	LCD_IO_WriteData
 1275              	.LVL99:
 293:Drivers/BSP/Components/ili9341/ili9341.c **** }
 1276              		.loc 1 293 3 is_stmt 0 view .LVU394
 1277              	.LBE411:
 1278              	.LBE410:
 226:Drivers/BSP/Components/ili9341/ili9341.c ****   ili9341_WriteData(0x33);
 1279              		.loc 1 226 3 is_stmt 1 view .LVU395
 1280              	.LBB412:
 1281              	.LBI412:
 291:Drivers/BSP/Components/ili9341/ili9341.c **** {
 1282              		.loc 1 291 6 view .LVU396
 1283              	.LBB413:
 293:Drivers/BSP/Components/ili9341/ili9341.c **** }
 1284              		.loc 1 293 3 view .LVU397
ARM GAS  /var/folders/0z/tsy30v1j4xl4_7kw94k978ww0000gn/T//cc3ICnnZ.s 			page 36


 1285 0240 3120     		movs	r0, #49
 1286 0242 FFF7FEFF 		bl	LCD_IO_WriteData
 1287              	.LVL100:
 293:Drivers/BSP/Components/ili9341/ili9341.c **** }
 1288              		.loc 1 293 3 is_stmt 0 view .LVU398
 1289              	.LBE413:
 1290              	.LBE412:
 227:Drivers/BSP/Components/ili9341/ili9341.c ****   ili9341_WriteData(0x42);
 1291              		.loc 1 227 3 is_stmt 1 view .LVU399
 1292              	.LBB414:
 1293              	.LBI414:
 291:Drivers/BSP/Components/ili9341/ili9341.c **** {
 1294              		.loc 1 291 6 view .LVU400
 1295              	.LBB415:
 293:Drivers/BSP/Components/ili9341/ili9341.c **** }
 1296              		.loc 1 293 3 view .LVU401
 1297 0246 3320     		movs	r0, #51
 1298 0248 FFF7FEFF 		bl	LCD_IO_WriteData
 1299              	.LVL101:
 293:Drivers/BSP/Components/ili9341/ili9341.c **** }
 1300              		.loc 1 293 3 is_stmt 0 view .LVU402
 1301              	.LBE415:
 1302              	.LBE414:
 228:Drivers/BSP/Components/ili9341/ili9341.c ****   ili9341_WriteData(0x05);
 1303              		.loc 1 228 3 is_stmt 1 view .LVU403
 1304              	.LBB416:
 1305              	.LBI416:
 291:Drivers/BSP/Components/ili9341/ili9341.c **** {
 1306              		.loc 1 291 6 view .LVU404
 1307              	.LBB417:
 293:Drivers/BSP/Components/ili9341/ili9341.c **** }
 1308              		.loc 1 293 3 view .LVU405
 1309 024c 4220     		movs	r0, #66
 1310 024e FFF7FEFF 		bl	LCD_IO_WriteData
 1311              	.LVL102:
 293:Drivers/BSP/Components/ili9341/ili9341.c **** }
 1312              		.loc 1 293 3 is_stmt 0 view .LVU406
 1313              	.LBE417:
 1314              	.LBE416:
 229:Drivers/BSP/Components/ili9341/ili9341.c ****   ili9341_WriteData(0x0C);
 1315              		.loc 1 229 3 is_stmt 1 view .LVU407
 1316              	.LBB418:
 1317              	.LBI418:
 291:Drivers/BSP/Components/ili9341/ili9341.c **** {
 1318              		.loc 1 291 6 view .LVU408
 1319              	.LBB419:
 293:Drivers/BSP/Components/ili9341/ili9341.c **** }
 1320              		.loc 1 293 3 view .LVU409
 1321 0252 0520     		movs	r0, #5
 1322 0254 FFF7FEFF 		bl	LCD_IO_WriteData
 1323              	.LVL103:
 293:Drivers/BSP/Components/ili9341/ili9341.c **** }
 1324              		.loc 1 293 3 is_stmt 0 view .LVU410
 1325              	.LBE419:
 1326              	.LBE418:
 230:Drivers/BSP/Components/ili9341/ili9341.c ****   ili9341_WriteData(0x0A);
 1327              		.loc 1 230 3 is_stmt 1 view .LVU411
ARM GAS  /var/folders/0z/tsy30v1j4xl4_7kw94k978ww0000gn/T//cc3ICnnZ.s 			page 37


 1328              	.LBB420:
 1329              	.LBI420:
 291:Drivers/BSP/Components/ili9341/ili9341.c **** {
 1330              		.loc 1 291 6 view .LVU412
 1331              	.LBB421:
 293:Drivers/BSP/Components/ili9341/ili9341.c **** }
 1332              		.loc 1 293 3 view .LVU413
 1333 0258 0C20     		movs	r0, #12
 1334 025a FFF7FEFF 		bl	LCD_IO_WriteData
 1335              	.LVL104:
 293:Drivers/BSP/Components/ili9341/ili9341.c **** }
 1336              		.loc 1 293 3 is_stmt 0 view .LVU414
 1337              	.LBE421:
 1338              	.LBE420:
 231:Drivers/BSP/Components/ili9341/ili9341.c ****   ili9341_WriteData(0x28);
 1339              		.loc 1 231 3 is_stmt 1 view .LVU415
 1340              	.LBB422:
 1341              	.LBI422:
 291:Drivers/BSP/Components/ili9341/ili9341.c **** {
 1342              		.loc 1 291 6 view .LVU416
 1343              	.LBB423:
 293:Drivers/BSP/Components/ili9341/ili9341.c **** }
 1344              		.loc 1 293 3 view .LVU417
 1345 025e 0A20     		movs	r0, #10
 1346 0260 FFF7FEFF 		bl	LCD_IO_WriteData
 1347              	.LVL105:
 293:Drivers/BSP/Components/ili9341/ili9341.c **** }
 1348              		.loc 1 293 3 is_stmt 0 view .LVU418
 1349              	.LBE423:
 1350              	.LBE422:
 232:Drivers/BSP/Components/ili9341/ili9341.c ****   ili9341_WriteData(0x2F);
 1351              		.loc 1 232 3 is_stmt 1 view .LVU419
 1352              	.LBB424:
 1353              	.LBI424:
 291:Drivers/BSP/Components/ili9341/ili9341.c **** {
 1354              		.loc 1 291 6 view .LVU420
 1355              	.LBB425:
 293:Drivers/BSP/Components/ili9341/ili9341.c **** }
 1356              		.loc 1 293 3 view .LVU421
 1357 0264 2820     		movs	r0, #40
 1358 0266 FFF7FEFF 		bl	LCD_IO_WriteData
 1359              	.LVL106:
 293:Drivers/BSP/Components/ili9341/ili9341.c **** }
 1360              		.loc 1 293 3 is_stmt 0 view .LVU422
 1361              	.LBE425:
 1362              	.LBE424:
 233:Drivers/BSP/Components/ili9341/ili9341.c ****   ili9341_WriteData(0x0F);
 1363              		.loc 1 233 3 is_stmt 1 view .LVU423
 1364              	.LBB426:
 1365              	.LBI426:
 291:Drivers/BSP/Components/ili9341/ili9341.c **** {
 1366              		.loc 1 291 6 view .LVU424
 1367              	.LBB427:
 293:Drivers/BSP/Components/ili9341/ili9341.c **** }
 1368              		.loc 1 293 3 view .LVU425
 1369 026a 2F20     		movs	r0, #47
 1370 026c FFF7FEFF 		bl	LCD_IO_WriteData
ARM GAS  /var/folders/0z/tsy30v1j4xl4_7kw94k978ww0000gn/T//cc3ICnnZ.s 			page 38


 1371              	.LVL107:
 293:Drivers/BSP/Components/ili9341/ili9341.c **** }
 1372              		.loc 1 293 3 is_stmt 0 view .LVU426
 1373              	.LBE427:
 1374              	.LBE426:
 234:Drivers/BSP/Components/ili9341/ili9341.c ****   
 1375              		.loc 1 234 3 is_stmt 1 view .LVU427
 1376              	.LBB428:
 1377              	.LBI428:
 291:Drivers/BSP/Components/ili9341/ili9341.c **** {
 1378              		.loc 1 291 6 view .LVU428
 1379              	.LBB429:
 293:Drivers/BSP/Components/ili9341/ili9341.c **** }
 1380              		.loc 1 293 3 view .LVU429
 1381 0270 0F20     		movs	r0, #15
 1382 0272 FFF7FEFF 		bl	LCD_IO_WriteData
 1383              	.LVL108:
 293:Drivers/BSP/Components/ili9341/ili9341.c **** }
 1384              		.loc 1 293 3 is_stmt 0 view .LVU430
 1385              	.LBE429:
 1386              	.LBE428:
 236:Drivers/BSP/Components/ili9341/ili9341.c ****   LCD_Delay(200);
 1387              		.loc 1 236 3 is_stmt 1 view .LVU431
 1388              	.LBB430:
 1389              	.LBI430:
 281:Drivers/BSP/Components/ili9341/ili9341.c **** {
 1390              		.loc 1 281 6 view .LVU432
 1391              	.LBB431:
 283:Drivers/BSP/Components/ili9341/ili9341.c **** }
 1392              		.loc 1 283 3 view .LVU433
 1393 0276 1120     		movs	r0, #17
 1394 0278 FFF7FEFF 		bl	LCD_IO_WriteReg
 1395              	.LVL109:
 283:Drivers/BSP/Components/ili9341/ili9341.c **** }
 1396              		.loc 1 283 3 is_stmt 0 view .LVU434
 1397              	.LBE431:
 1398              	.LBE430:
 237:Drivers/BSP/Components/ili9341/ili9341.c ****   ili9341_WriteReg(LCD_DISPLAY_ON);
 1399              		.loc 1 237 3 is_stmt 1 view .LVU435
 1400 027c C820     		movs	r0, #200
 1401 027e FFF7FEFF 		bl	LCD_Delay
 1402              	.LVL110:
 238:Drivers/BSP/Components/ili9341/ili9341.c ****   /* GRAM start writing */
 1403              		.loc 1 238 3 view .LVU436
 1404              	.LBB432:
 1405              	.LBI432:
 281:Drivers/BSP/Components/ili9341/ili9341.c **** {
 1406              		.loc 1 281 6 view .LVU437
 1407              	.LBB433:
 283:Drivers/BSP/Components/ili9341/ili9341.c **** }
 1408              		.loc 1 283 3 view .LVU438
 1409 0282 2920     		movs	r0, #41
 1410 0284 FFF7FEFF 		bl	LCD_IO_WriteReg
 1411              	.LVL111:
 283:Drivers/BSP/Components/ili9341/ili9341.c **** }
 1412              		.loc 1 283 3 is_stmt 0 view .LVU439
 1413              	.LBE433:
ARM GAS  /var/folders/0z/tsy30v1j4xl4_7kw94k978ww0000gn/T//cc3ICnnZ.s 			page 39


 1414              	.LBE432:
 240:Drivers/BSP/Components/ili9341/ili9341.c **** }
 1415              		.loc 1 240 3 is_stmt 1 view .LVU440
 1416              	.LBB434:
 1417              	.LBI434:
 281:Drivers/BSP/Components/ili9341/ili9341.c **** {
 1418              		.loc 1 281 6 view .LVU441
 1419              	.LBB435:
 283:Drivers/BSP/Components/ili9341/ili9341.c **** }
 1420              		.loc 1 283 3 view .LVU442
 1421              	.LBE435:
 1422              	.LBE434:
 241:Drivers/BSP/Components/ili9341/ili9341.c **** 
 1423              		.loc 1 241 1 is_stmt 0 view .LVU443
 1424 0288 BDE80840 		pop	{r3, lr}
 1425              		.cfi_restore 14
 1426              		.cfi_restore 3
 1427              		.cfi_def_cfa_offset 0
 1428              	.LBB437:
 1429              	.LBB436:
 283:Drivers/BSP/Components/ili9341/ili9341.c **** }
 1430              		.loc 1 283 3 view .LVU444
 1431 028c 2C20     		movs	r0, #44
 1432 028e FFF7FEBF 		b	LCD_IO_WriteReg
 1433              	.LVL112:
 1434              	.LBE436:
 1435              	.LBE437:
 1436              		.cfi_endproc
 1437              	.LFE0:
 1439 0292 00BF     		.section	.text.ili9341_ReadID,"ax",%progbits
 1440              		.align	1
 1441              		.p2align 2,,3
 1442              		.global	ili9341_ReadID
 1443              		.syntax unified
 1444              		.thumb
 1445              		.thumb_func
 1447              	ili9341_ReadID:
 1448              	.LFB1:
 249:Drivers/BSP/Components/ili9341/ili9341.c ****   LCD_IO_Init();
 1449              		.loc 1 249 1 is_stmt 1 view -0
 1450              		.cfi_startproc
 1451              		@ args = 0, pretend = 0, frame = 0
 1452              		@ frame_needed = 0, uses_anonymous_args = 0
 250:Drivers/BSP/Components/ili9341/ili9341.c ****   return ((uint16_t)ili9341_ReadData(LCD_READ_ID4, LCD_READ_ID4_SIZE));
 1453              		.loc 1 250 3 view .LVU446
 249:Drivers/BSP/Components/ili9341/ili9341.c ****   LCD_IO_Init();
 1454              		.loc 1 249 1 is_stmt 0 view .LVU447
 1455 0000 08B5     		push	{r3, lr}
 1456              		.cfi_def_cfa_offset 8
 1457              		.cfi_offset 3, -8
 1458              		.cfi_offset 14, -4
 250:Drivers/BSP/Components/ili9341/ili9341.c ****   return ((uint16_t)ili9341_ReadData(LCD_READ_ID4, LCD_READ_ID4_SIZE));
 1459              		.loc 1 250 3 view .LVU448
 1460 0002 FFF7FEFF 		bl	LCD_IO_Init
 1461              	.LVL113:
 251:Drivers/BSP/Components/ili9341/ili9341.c **** }
 1462              		.loc 1 251 3 is_stmt 1 view .LVU449
ARM GAS  /var/folders/0z/tsy30v1j4xl4_7kw94k978ww0000gn/T//cc3ICnnZ.s 			page 40


 1463              	.LBB438:
 1464              	.LBI438:
 302:Drivers/BSP/Components/ili9341/ili9341.c **** {
 1465              		.loc 1 302 10 view .LVU450
 1466              	.LBB439:
 305:Drivers/BSP/Components/ili9341/ili9341.c **** }
 1467              		.loc 1 305 3 view .LVU451
 305:Drivers/BSP/Components/ili9341/ili9341.c **** }
 1468              		.loc 1 305 11 is_stmt 0 view .LVU452
 1469 0006 0321     		movs	r1, #3
 1470 0008 D320     		movs	r0, #211
 1471 000a FFF7FEFF 		bl	LCD_IO_ReadData
 1472              	.LVL114:
 305:Drivers/BSP/Components/ili9341/ili9341.c **** }
 1473              		.loc 1 305 11 view .LVU453
 1474              	.LBE439:
 1475              	.LBE438:
 252:Drivers/BSP/Components/ili9341/ili9341.c **** 
 1476              		.loc 1 252 1 view .LVU454
 1477 000e 80B2     		uxth	r0, r0
 1478 0010 08BD     		pop	{r3, pc}
 1479              		.cfi_endproc
 1480              	.LFE1:
 1482 0012 00BF     		.section	.text.ili9341_WriteReg,"ax",%progbits
 1483              		.align	1
 1484              		.p2align 2,,3
 1485              		.global	ili9341_WriteReg
 1486              		.syntax unified
 1487              		.thumb
 1488              		.thumb_func
 1490              	ili9341_WriteReg:
 1491              	.LVL115:
 1492              	.LFB4:
 282:Drivers/BSP/Components/ili9341/ili9341.c ****   LCD_IO_WriteReg(LCD_Reg);
 1493              		.loc 1 282 1 is_stmt 1 view -0
 1494              		.cfi_startproc
 1495              		@ args = 0, pretend = 0, frame = 0
 1496              		@ frame_needed = 0, uses_anonymous_args = 0
 1497              		@ link register save eliminated.
 283:Drivers/BSP/Components/ili9341/ili9341.c **** }
 1498              		.loc 1 283 3 view .LVU456
 1499 0000 FFF7FEBF 		b	LCD_IO_WriteReg
 1500              	.LVL116:
 283:Drivers/BSP/Components/ili9341/ili9341.c **** }
 1501              		.loc 1 283 3 is_stmt 0 view .LVU457
 1502              		.cfi_endproc
 1503              	.LFE4:
 1505              		.section	.text.ili9341_WriteData,"ax",%progbits
 1506              		.align	1
 1507              		.p2align 2,,3
 1508              		.global	ili9341_WriteData
 1509              		.syntax unified
 1510              		.thumb
 1511              		.thumb_func
 1513              	ili9341_WriteData:
 1514              	.LVL117:
 1515              	.LFB5:
ARM GAS  /var/folders/0z/tsy30v1j4xl4_7kw94k978ww0000gn/T//cc3ICnnZ.s 			page 41


 292:Drivers/BSP/Components/ili9341/ili9341.c ****   LCD_IO_WriteData(RegValue);
 1516              		.loc 1 292 1 is_stmt 1 view -0
 1517              		.cfi_startproc
 1518              		@ args = 0, pretend = 0, frame = 0
 1519              		@ frame_needed = 0, uses_anonymous_args = 0
 1520              		@ link register save eliminated.
 293:Drivers/BSP/Components/ili9341/ili9341.c **** }
 1521              		.loc 1 293 3 view .LVU459
 1522 0000 FFF7FEBF 		b	LCD_IO_WriteData
 1523              	.LVL118:
 293:Drivers/BSP/Components/ili9341/ili9341.c **** }
 1524              		.loc 1 293 3 is_stmt 0 view .LVU460
 1525              		.cfi_endproc
 1526              	.LFE5:
 1528              		.section	.text.ili9341_ReadData,"ax",%progbits
 1529              		.align	1
 1530              		.p2align 2,,3
 1531              		.global	ili9341_ReadData
 1532              		.syntax unified
 1533              		.thumb
 1534              		.thumb_func
 1536              	ili9341_ReadData:
 1537              	.LVL119:
 1538              	.LFB6:
 303:Drivers/BSP/Components/ili9341/ili9341.c ****   /* Read a max of 4 bytes */
 1539              		.loc 1 303 1 is_stmt 1 view -0
 1540              		.cfi_startproc
 1541              		@ args = 0, pretend = 0, frame = 0
 1542              		@ frame_needed = 0, uses_anonymous_args = 0
 1543              		@ link register save eliminated.
 305:Drivers/BSP/Components/ili9341/ili9341.c **** }
 1544              		.loc 1 305 3 view .LVU462
 305:Drivers/BSP/Components/ili9341/ili9341.c **** }
 1545              		.loc 1 305 11 is_stmt 0 view .LVU463
 1546 0000 FFF7FEBF 		b	LCD_IO_ReadData
 1547              	.LVL120:
 305:Drivers/BSP/Components/ili9341/ili9341.c **** }
 1548              		.loc 1 305 11 view .LVU464
 1549              		.cfi_endproc
 1550              	.LFE6:
 1552              		.global	ili9341_drv
 1553              		.section	.data.ili9341_drv,"aw"
 1554              		.align	2
 1557              	ili9341_drv:
 1558 0000 00000000 		.word	ili9341_Init
 1559 0004 00000000 		.word	ili9341_ReadID
 1560 0008 00000000 		.word	ili9341_DisplayOn
 1561 000c 00000000 		.word	ili9341_DisplayOff
 1562 0010 00000000 		.word	0
 1563 0014 00000000 		.word	0
 1564 0018 00000000 		.word	0
 1565 001c 00000000 		.word	0
 1566 0020 00000000 		.word	0
 1567 0024 00000000 		.word	0
 1568 0028 00000000 		.word	ili9341_GetLcdPixelWidth
 1569 002c 00000000 		.word	ili9341_GetLcdPixelHeight
 1570 0030 00000000 		.word	0
ARM GAS  /var/folders/0z/tsy30v1j4xl4_7kw94k978ww0000gn/T//cc3ICnnZ.s 			page 42


 1571 0034 00000000 		.word	0
 1572              		.text
 1573              	.Letext0:
 1574              		.file 2 "/Users/johannes/Library/Application Support/Code/User/globalStorage/bmd.stm32-for-vscode/
 1575              		.file 3 "/Users/johannes/Library/Application Support/Code/User/globalStorage/bmd.stm32-for-vscode/
 1576              		.file 4 "Drivers/BSP/Components/ili9341/../Common/lcd.h"
 1577              		.file 5 "Drivers/BSP/Components/ili9341/ili9341.h"
ARM GAS  /var/folders/0z/tsy30v1j4xl4_7kw94k978ww0000gn/T//cc3ICnnZ.s 			page 43

