ARM GAS  /var/folders/0z/tsy30v1j4xl4_7kw94k978ww0000gn/T//ccE5hoFH.s 			page 1


   1              		.cpu cortex-m4
   2              		.arch armv7e-m
   3              		.fpu fpv4-sp-d16
   4              		.eabi_attribute 27, 1
   5              		.eabi_attribute 28, 1
   6              		.eabi_attribute 20, 1
   7              		.eabi_attribute 21, 1
   8              		.eabi_attribute 23, 3
   9              		.eabi_attribute 24, 1
  10              		.eabi_attribute 25, 1
  11              		.eabi_attribute 26, 1
  12              		.eabi_attribute 30, 2
  13              		.eabi_attribute 34, 1
  14              		.eabi_attribute 18, 4
  15              		.file	"lan8742.c"
  16              		.text
  17              	.Ltext0:
  18              		.cfi_sections	.debug_frame
  19              		.section	.text.LAN8742_RegisterBusIO,"ax",%progbits
  20              		.align	1
  21              		.p2align 2,,3
  22              		.global	LAN8742_RegisterBusIO
  23              		.syntax unified
  24              		.thumb
  25              		.thumb_func
  27              	LAN8742_RegisterBusIO:
  28              	.LVL0:
  29              	.LFB0:
  30              		.file 1 "Drivers/BSP/Components/lan8742/lan8742.c"
   1:Drivers/BSP/Components/lan8742/lan8742.c **** /** 
   2:Drivers/BSP/Components/lan8742/lan8742.c ****   ******************************************************************************
   3:Drivers/BSP/Components/lan8742/lan8742.c ****   * @file    lan8742.c
   4:Drivers/BSP/Components/lan8742/lan8742.c ****   * @author  MCD Application Team
   5:Drivers/BSP/Components/lan8742/lan8742.c ****   * @brief   This file provides a set of functions needed to manage the LAN742
   6:Drivers/BSP/Components/lan8742/lan8742.c ****   *          PHY devices.
   7:Drivers/BSP/Components/lan8742/lan8742.c ****   ******************************************************************************
   8:Drivers/BSP/Components/lan8742/lan8742.c ****   * @attention
   9:Drivers/BSP/Components/lan8742/lan8742.c ****   *
  10:Drivers/BSP/Components/lan8742/lan8742.c ****   * <h2><center>&copy; Copyright (c) 2017 STMicroelectronics.
  11:Drivers/BSP/Components/lan8742/lan8742.c ****   * All rights reserved.</center></h2>
  12:Drivers/BSP/Components/lan8742/lan8742.c ****   *
  13:Drivers/BSP/Components/lan8742/lan8742.c ****   * This software component is licensed by ST under BSD 3-Clause license,
  14:Drivers/BSP/Components/lan8742/lan8742.c ****   * the "License"; You may not use this file except in compliance with the
  15:Drivers/BSP/Components/lan8742/lan8742.c ****   * License. You may obtain a copy of the License at:
  16:Drivers/BSP/Components/lan8742/lan8742.c ****   *                        opensource.org/licenses/BSD-3-Clause
  17:Drivers/BSP/Components/lan8742/lan8742.c ****   *
  18:Drivers/BSP/Components/lan8742/lan8742.c ****   ******************************************************************************
  19:Drivers/BSP/Components/lan8742/lan8742.c ****   */  
  20:Drivers/BSP/Components/lan8742/lan8742.c **** 
  21:Drivers/BSP/Components/lan8742/lan8742.c **** /* Includes ------------------------------------------------------------------*/
  22:Drivers/BSP/Components/lan8742/lan8742.c **** #include "lan8742.h"
  23:Drivers/BSP/Components/lan8742/lan8742.c **** 
  24:Drivers/BSP/Components/lan8742/lan8742.c **** /** @addtogroup BSP
  25:Drivers/BSP/Components/lan8742/lan8742.c ****   * @{
  26:Drivers/BSP/Components/lan8742/lan8742.c ****   */
  27:Drivers/BSP/Components/lan8742/lan8742.c **** 
  28:Drivers/BSP/Components/lan8742/lan8742.c **** /** @addtogroup Component
ARM GAS  /var/folders/0z/tsy30v1j4xl4_7kw94k978ww0000gn/T//ccE5hoFH.s 			page 2


  29:Drivers/BSP/Components/lan8742/lan8742.c ****   * @{
  30:Drivers/BSP/Components/lan8742/lan8742.c ****   */ 
  31:Drivers/BSP/Components/lan8742/lan8742.c ****   
  32:Drivers/BSP/Components/lan8742/lan8742.c **** /** @defgroup LAN8742 LAN8742
  33:Drivers/BSP/Components/lan8742/lan8742.c ****   * @{
  34:Drivers/BSP/Components/lan8742/lan8742.c ****   */   
  35:Drivers/BSP/Components/lan8742/lan8742.c ****   
  36:Drivers/BSP/Components/lan8742/lan8742.c **** /* Private typedef -----------------------------------------------------------*/
  37:Drivers/BSP/Components/lan8742/lan8742.c **** /* Private define ------------------------------------------------------------*/
  38:Drivers/BSP/Components/lan8742/lan8742.c **** /** @defgroup LAN8742_Private_Defines LAN8742 Private Defines
  39:Drivers/BSP/Components/lan8742/lan8742.c ****   * @{
  40:Drivers/BSP/Components/lan8742/lan8742.c ****   */
  41:Drivers/BSP/Components/lan8742/lan8742.c **** #define LAN8742_SW_RESET_TO    ((uint32_t)500U)
  42:Drivers/BSP/Components/lan8742/lan8742.c **** #define LAN8742_INIT_TO        ((uint32_t)2000U)
  43:Drivers/BSP/Components/lan8742/lan8742.c **** #define LAN8742_MAX_DEV_ADDR   ((uint32_t)31U)
  44:Drivers/BSP/Components/lan8742/lan8742.c **** /**
  45:Drivers/BSP/Components/lan8742/lan8742.c ****   * @}
  46:Drivers/BSP/Components/lan8742/lan8742.c ****   */
  47:Drivers/BSP/Components/lan8742/lan8742.c ****  
  48:Drivers/BSP/Components/lan8742/lan8742.c **** /* Private macro -------------------------------------------------------------*/
  49:Drivers/BSP/Components/lan8742/lan8742.c **** /* Private variables ---------------------------------------------------------*/
  50:Drivers/BSP/Components/lan8742/lan8742.c **** /* Private function prototypes -----------------------------------------------*/
  51:Drivers/BSP/Components/lan8742/lan8742.c **** /* Private functions ---------------------------------------------------------*/
  52:Drivers/BSP/Components/lan8742/lan8742.c **** /** @defgroup LAN8742_Private_Functions LAN8742 Private Functions
  53:Drivers/BSP/Components/lan8742/lan8742.c ****   * @{
  54:Drivers/BSP/Components/lan8742/lan8742.c ****   */
  55:Drivers/BSP/Components/lan8742/lan8742.c ****     
  56:Drivers/BSP/Components/lan8742/lan8742.c **** /**
  57:Drivers/BSP/Components/lan8742/lan8742.c ****   * @brief  Register IO functions to component object
  58:Drivers/BSP/Components/lan8742/lan8742.c ****   * @param  pObj: device object  of LAN8742_Object_t. 
  59:Drivers/BSP/Components/lan8742/lan8742.c ****   * @param  ioctx: holds device IO functions.  
  60:Drivers/BSP/Components/lan8742/lan8742.c ****   * @retval LAN8742_STATUS_OK  if OK
  61:Drivers/BSP/Components/lan8742/lan8742.c ****   *         LAN8742_STATUS_ERROR if missing mandatory function
  62:Drivers/BSP/Components/lan8742/lan8742.c ****   */
  63:Drivers/BSP/Components/lan8742/lan8742.c **** int32_t  LAN8742_RegisterBusIO(lan8742_Object_t *pObj, lan8742_IOCtx_t *ioctx)
  64:Drivers/BSP/Components/lan8742/lan8742.c **** {
  31              		.loc 1 64 1 view -0
  32              		.cfi_startproc
  33              		@ args = 0, pretend = 0, frame = 0
  34              		@ frame_needed = 0, uses_anonymous_args = 0
  35              		@ link register save eliminated.
  65:Drivers/BSP/Components/lan8742/lan8742.c ****   if(!pObj || !ioctx->ReadReg || !ioctx->WriteReg || !ioctx->GetTick)
  36              		.loc 1 65 3 view .LVU1
  37              		.loc 1 65 5 is_stmt 0 view .LVU2
  38 0000 80B1     		cbz	r0, .L5
  39              		.loc 1 65 21 discriminator 1 view .LVU3
  40 0002 CB68     		ldr	r3, [r1, #12]
  41              		.loc 1 65 12 discriminator 1 view .LVU4
  42 0004 73B1     		cbz	r3, .L5
  43              		.loc 1 65 40 discriminator 2 view .LVU5
  44 0006 8A68     		ldr	r2, [r1, #8]
  45              		.loc 1 65 31 discriminator 2 view .LVU6
  46 0008 62B1     		cbz	r2, .L5
  64:Drivers/BSP/Components/lan8742/lan8742.c ****   if(!pObj || !ioctx->ReadReg || !ioctx->WriteReg || !ioctx->GetTick)
  47              		.loc 1 64 1 discriminator 3 view .LVU7
  48 000a 30B4     		push	{r4, r5}
  49              		.cfi_def_cfa_offset 8
ARM GAS  /var/folders/0z/tsy30v1j4xl4_7kw94k978ww0000gn/T//ccE5hoFH.s 			page 3


  50              		.cfi_offset 4, -8
  51              		.cfi_offset 5, -4
  52              		.loc 1 65 60 discriminator 3 view .LVU8
  53 000c 0C69     		ldr	r4, [r1, #16]
  54              		.loc 1 65 51 discriminator 3 view .LVU9
  55 000e 64B1     		cbz	r4, .L6
  66:Drivers/BSP/Components/lan8742/lan8742.c ****   {
  67:Drivers/BSP/Components/lan8742/lan8742.c ****     return LAN8742_STATUS_ERROR;
  68:Drivers/BSP/Components/lan8742/lan8742.c ****   }
  69:Drivers/BSP/Components/lan8742/lan8742.c ****   
  70:Drivers/BSP/Components/lan8742/lan8742.c ****   pObj->IO.Init = ioctx->Init;
  56              		.loc 1 70 3 is_stmt 1 view .LVU10
  57              		.loc 1 70 24 is_stmt 0 view .LVU11
  58 0010 D1E90051 		ldrd	r5, r1, [r1]
  59              	.LVL1:
  71:Drivers/BSP/Components/lan8742/lan8742.c ****   pObj->IO.DeInit = ioctx->DeInit;
  60              		.loc 1 71 3 is_stmt 1 view .LVU12
  72:Drivers/BSP/Components/lan8742/lan8742.c ****   pObj->IO.ReadReg = ioctx->ReadReg;
  73:Drivers/BSP/Components/lan8742/lan8742.c ****   pObj->IO.WriteReg = ioctx->WriteReg;
  61              		.loc 1 73 21 is_stmt 0 view .LVU13
  62 0014 C0E90423 		strd	r2, r3, [r0, #16]
  74:Drivers/BSP/Components/lan8742/lan8742.c ****   pObj->IO.GetTick = ioctx->GetTick;
  63              		.loc 1 74 3 is_stmt 1 view .LVU14
  70:Drivers/BSP/Components/lan8742/lan8742.c ****   pObj->IO.DeInit = ioctx->DeInit;
  64              		.loc 1 70 17 is_stmt 0 view .LVU15
  65 0018 C0E90251 		strd	r5, r1, [r0, #8]
  66              		.loc 1 74 20 view .LVU16
  67 001c 8461     		str	r4, [r0, #24]
  75:Drivers/BSP/Components/lan8742/lan8742.c ****   
  76:Drivers/BSP/Components/lan8742/lan8742.c ****   return LAN8742_STATUS_OK;
  68              		.loc 1 76 3 is_stmt 1 view .LVU17
  69              		.loc 1 76 10 is_stmt 0 view .LVU18
  70 001e 0020     		movs	r0, #0
  71              	.LVL2:
  72              	.L1:
  77:Drivers/BSP/Components/lan8742/lan8742.c **** }
  73              		.loc 1 77 1 view .LVU19
  74 0020 30BC     		pop	{r4, r5}
  75              		.cfi_restore 5
  76              		.cfi_restore 4
  77              		.cfi_def_cfa_offset 0
  78 0022 7047     		bx	lr
  79              	.LVL3:
  80              	.L5:
  67:Drivers/BSP/Components/lan8742/lan8742.c ****   }
  81              		.loc 1 67 12 view .LVU20
  82 0024 4FF0FF30 		mov	r0, #-1
  83              	.LVL4:
  84              		.loc 1 77 1 view .LVU21
  85 0028 7047     		bx	lr
  86              	.LVL5:
  87              	.L6:
  88              		.cfi_def_cfa_offset 8
  89              		.cfi_offset 4, -8
  90              		.cfi_offset 5, -4
  67:Drivers/BSP/Components/lan8742/lan8742.c ****   }
  91              		.loc 1 67 12 view .LVU22
ARM GAS  /var/folders/0z/tsy30v1j4xl4_7kw94k978ww0000gn/T//ccE5hoFH.s 			page 4


  92 002a 4FF0FF30 		mov	r0, #-1
  93              	.LVL6:
  67:Drivers/BSP/Components/lan8742/lan8742.c ****   }
  94              		.loc 1 67 12 view .LVU23
  95 002e F7E7     		b	.L1
  96              		.cfi_endproc
  97              	.LFE0:
  99              		.section	.text.LAN8742_Init,"ax",%progbits
 100              		.align	1
 101              		.p2align 2,,3
 102              		.global	LAN8742_Init
 103              		.syntax unified
 104              		.thumb
 105              		.thumb_func
 107              	LAN8742_Init:
 108              	.LVL7:
 109              	.LFB1:
  78:Drivers/BSP/Components/lan8742/lan8742.c **** 
  79:Drivers/BSP/Components/lan8742/lan8742.c **** /**
  80:Drivers/BSP/Components/lan8742/lan8742.c ****   * @brief  Initialize the lan8742 and configure the needed hardware resources
  81:Drivers/BSP/Components/lan8742/lan8742.c ****   * @param  pObj: device object LAN8742_Object_t. 
  82:Drivers/BSP/Components/lan8742/lan8742.c ****   * @retval LAN8742_STATUS_OK  if OK
  83:Drivers/BSP/Components/lan8742/lan8742.c ****   *         LAN8742_STATUS_ADDRESS_ERROR if cannot find device address
  84:Drivers/BSP/Components/lan8742/lan8742.c ****   *         LAN8742_STATUS_READ_ERROR if connot read register
  85:Drivers/BSP/Components/lan8742/lan8742.c ****   *         LAN8742_STATUS_WRITE_ERROR if connot write to register
  86:Drivers/BSP/Components/lan8742/lan8742.c ****   *         LAN8742_STATUS_RESET_TIMEOUT if cannot perform a software reset
  87:Drivers/BSP/Components/lan8742/lan8742.c ****   */
  88:Drivers/BSP/Components/lan8742/lan8742.c ****  int32_t LAN8742_Init(lan8742_Object_t *pObj)
  89:Drivers/BSP/Components/lan8742/lan8742.c ****  {
 110              		.loc 1 89 2 is_stmt 1 view -0
 111              		.cfi_startproc
 112              		@ args = 0, pretend = 0, frame = 8
 113              		@ frame_needed = 0, uses_anonymous_args = 0
  90:Drivers/BSP/Components/lan8742/lan8742.c ****    uint32_t tickstart = 0, regvalue = 0, addr = 0;
 114              		.loc 1 90 4 view .LVU25
  89:Drivers/BSP/Components/lan8742/lan8742.c ****    uint32_t tickstart = 0, regvalue = 0, addr = 0;
 115              		.loc 1 89 2 is_stmt 0 view .LVU26
 116 0000 70B5     		push	{r4, r5, r6, lr}
 117              		.cfi_def_cfa_offset 16
 118              		.cfi_offset 4, -16
 119              		.cfi_offset 5, -12
 120              		.cfi_offset 6, -8
 121              		.cfi_offset 14, -4
  91:Drivers/BSP/Components/lan8742/lan8742.c ****    int32_t status = LAN8742_STATUS_OK;
  92:Drivers/BSP/Components/lan8742/lan8742.c ****    
  93:Drivers/BSP/Components/lan8742/lan8742.c ****    if(pObj->Is_Initialized == 0)
 122              		.loc 1 93 11 view .LVU27
 123 0002 4468     		ldr	r4, [r0, #4]
  89:Drivers/BSP/Components/lan8742/lan8742.c ****    uint32_t tickstart = 0, regvalue = 0, addr = 0;
 124              		.loc 1 89 2 view .LVU28
 125 0004 82B0     		sub	sp, sp, #8
 126              		.cfi_def_cfa_offset 24
  90:Drivers/BSP/Components/lan8742/lan8742.c ****    int32_t status = LAN8742_STATUS_OK;
 127              		.loc 1 90 28 view .LVU29
 128 0006 0023     		movs	r3, #0
  89:Drivers/BSP/Components/lan8742/lan8742.c ****    uint32_t tickstart = 0, regvalue = 0, addr = 0;
 129              		.loc 1 89 2 view .LVU30
ARM GAS  /var/folders/0z/tsy30v1j4xl4_7kw94k978ww0000gn/T//ccE5hoFH.s 			page 5


 130 0008 0546     		mov	r5, r0
  90:Drivers/BSP/Components/lan8742/lan8742.c ****    int32_t status = LAN8742_STATUS_OK;
 131              		.loc 1 90 28 view .LVU31
 132 000a 0193     		str	r3, [sp, #4]
 133              	.LVL8:
  91:Drivers/BSP/Components/lan8742/lan8742.c ****    int32_t status = LAN8742_STATUS_OK;
 134              		.loc 1 91 4 is_stmt 1 view .LVU32
 135              		.loc 1 93 4 view .LVU33
 136              		.loc 1 93 6 is_stmt 0 view .LVU34
 137 000c 002C     		cmp	r4, #0
 138 000e 47D1     		bne	.L24
  94:Drivers/BSP/Components/lan8742/lan8742.c ****    {
  95:Drivers/BSP/Components/lan8742/lan8742.c ****      if(pObj->IO.Init != 0)
 139              		.loc 1 95 6 is_stmt 1 view .LVU35
 140              		.loc 1 95 17 is_stmt 0 view .LVU36
 141 0010 8368     		ldr	r3, [r0, #8]
 142              		.loc 1 95 8 view .LVU37
 143 0012 03B1     		cbz	r3, .L15
  96:Drivers/BSP/Components/lan8742/lan8742.c ****      {
  97:Drivers/BSP/Components/lan8742/lan8742.c ****        /* GPIO and Clocks initialization */
  98:Drivers/BSP/Components/lan8742/lan8742.c ****        pObj->IO.Init();
 144              		.loc 1 98 8 is_stmt 1 view .LVU38
 145 0014 9847     		blx	r3
 146              	.LVL9:
 147              	.L15:
  99:Drivers/BSP/Components/lan8742/lan8742.c ****      }
 100:Drivers/BSP/Components/lan8742/lan8742.c ****    
 101:Drivers/BSP/Components/lan8742/lan8742.c ****      /* for later check */
 102:Drivers/BSP/Components/lan8742/lan8742.c ****      pObj->DevAddr = LAN8742_MAX_DEV_ADDR + 1;
 148              		.loc 1 102 6 view .LVU39
 149              		.loc 1 102 20 is_stmt 0 view .LVU40
 150 0016 2023     		movs	r3, #32
 151 0018 2B60     		str	r3, [r5]
 103:Drivers/BSP/Components/lan8742/lan8742.c ****    
 104:Drivers/BSP/Components/lan8742/lan8742.c ****      /* Get the device address from special mode register */  
 105:Drivers/BSP/Components/lan8742/lan8742.c ****      for(addr = 0; addr <= LAN8742_MAX_DEV_ADDR; addr ++)
 152              		.loc 1 105 6 is_stmt 1 view .LVU41
 153              		.loc 1 105 25 view .LVU42
  91:Drivers/BSP/Components/lan8742/lan8742.c ****    
 154              		.loc 1 91 12 is_stmt 0 view .LVU43
 155 001a 0026     		movs	r6, #0
 156 001c 07E0     		b	.L18
 157              	.LVL10:
 158              	.L37:
 106:Drivers/BSP/Components/lan8742/lan8742.c ****      {
 107:Drivers/BSP/Components/lan8742/lan8742.c ****        if(pObj->IO.ReadReg(addr, LAN8742_SMR, &regvalue) < 0)
 108:Drivers/BSP/Components/lan8742/lan8742.c ****        { 
 109:Drivers/BSP/Components/lan8742/lan8742.c ****          status = LAN8742_STATUS_READ_ERROR;
 110:Drivers/BSP/Components/lan8742/lan8742.c ****          /* Can't read from this device address 
 111:Drivers/BSP/Components/lan8742/lan8742.c ****             continue with next address */
 112:Drivers/BSP/Components/lan8742/lan8742.c ****          continue;
 113:Drivers/BSP/Components/lan8742/lan8742.c ****        }
 114:Drivers/BSP/Components/lan8742/lan8742.c ****      
 115:Drivers/BSP/Components/lan8742/lan8742.c ****        if((regvalue & LAN8742_SMR_PHY_ADDR) == addr)
 159              		.loc 1 115 21 view .LVU44
 160 001e 019B     		ldr	r3, [sp, #4]
 161 0020 03F01F03 		and	r3, r3, #31
ARM GAS  /var/folders/0z/tsy30v1j4xl4_7kw94k978ww0000gn/T//ccE5hoFH.s 			page 6


 162              		.loc 1 115 10 view .LVU45
 163 0024 A342     		cmp	r3, r4
 164 0026 16D0     		beq	.L35
 105:Drivers/BSP/Components/lan8742/lan8742.c ****      {
 165              		.loc 1 105 55 discriminator 2 view .LVU46
 166 0028 0134     		adds	r4, r4, #1
 167              	.LVL11:
 105:Drivers/BSP/Components/lan8742/lan8742.c ****      {
 168              		.loc 1 105 25 is_stmt 1 discriminator 2 view .LVU47
 169 002a 202C     		cmp	r4, #32
 170 002c 0BD0     		beq	.L36
 171              	.LVL12:
 172              	.L18:
 107:Drivers/BSP/Components/lan8742/lan8742.c ****        { 
 173              		.loc 1 107 8 view .LVU48
 107:Drivers/BSP/Components/lan8742/lan8742.c ****        { 
 174              		.loc 1 107 11 is_stmt 0 view .LVU49
 175 002e 6B69     		ldr	r3, [r5, #20]
 176 0030 2046     		mov	r0, r4
 177 0032 01AA     		add	r2, sp, #4
 178 0034 1221     		movs	r1, #18
 179 0036 9847     		blx	r3
 180              	.LVL13:
 181              		.loc 1 115 8 is_stmt 1 view .LVU50
 105:Drivers/BSP/Components/lan8742/lan8742.c ****      {
 182              		.loc 1 105 55 view .LVU51
 107:Drivers/BSP/Components/lan8742/lan8742.c ****        { 
 183              		.loc 1 107 10 is_stmt 0 view .LVU52
 184 0038 0028     		cmp	r0, #0
 185 003a F0DA     		bge	.L37
 105:Drivers/BSP/Components/lan8742/lan8742.c ****      {
 186              		.loc 1 105 55 view .LVU53
 187 003c 0134     		adds	r4, r4, #1
 188              	.LVL14:
 105:Drivers/BSP/Components/lan8742/lan8742.c ****      {
 189              		.loc 1 105 25 is_stmt 1 view .LVU54
 190 003e 202C     		cmp	r4, #32
 109:Drivers/BSP/Components/lan8742/lan8742.c ****          /* Can't read from this device address 
 191              		.loc 1 109 17 is_stmt 0 view .LVU55
 192 0040 6FF00406 		mvn	r6, #4
 105:Drivers/BSP/Components/lan8742/lan8742.c ****      {
 193              		.loc 1 105 25 view .LVU56
 194 0044 F3D1     		bne	.L18
 195              	.L36:
 196              	.LVL15:
 116:Drivers/BSP/Components/lan8742/lan8742.c ****        {
 117:Drivers/BSP/Components/lan8742/lan8742.c ****          pObj->DevAddr = addr;
 118:Drivers/BSP/Components/lan8742/lan8742.c ****          status = LAN8742_STATUS_OK;
 119:Drivers/BSP/Components/lan8742/lan8742.c ****          break;
 120:Drivers/BSP/Components/lan8742/lan8742.c ****        }
 121:Drivers/BSP/Components/lan8742/lan8742.c ****      }
 122:Drivers/BSP/Components/lan8742/lan8742.c ****    
 123:Drivers/BSP/Components/lan8742/lan8742.c ****      if(pObj->DevAddr > LAN8742_MAX_DEV_ADDR)
 197              		.loc 1 123 6 is_stmt 1 view .LVU57
 198              		.loc 1 123 13 is_stmt 0 view .LVU58
 199 0046 2C68     		ldr	r4, [r5]
 200              	.LVL16:
ARM GAS  /var/folders/0z/tsy30v1j4xl4_7kw94k978ww0000gn/T//ccE5hoFH.s 			page 7


 201              		.loc 1 123 8 view .LVU59
 202 0048 1F2C     		cmp	r4, #31
 203 004a 38D9     		bls	.L38
 124:Drivers/BSP/Components/lan8742/lan8742.c ****      {
 125:Drivers/BSP/Components/lan8742/lan8742.c ****        status = LAN8742_STATUS_ADDRESS_ERROR;
 204              		.loc 1 125 15 view .LVU60
 205 004c 6FF00206 		mvn	r6, #2
 206              	.LVL17:
 126:Drivers/BSP/Components/lan8742/lan8742.c ****      }
 127:Drivers/BSP/Components/lan8742/lan8742.c ****      
 128:Drivers/BSP/Components/lan8742/lan8742.c ****      /* if device address is matched */
 129:Drivers/BSP/Components/lan8742/lan8742.c ****      if(status == LAN8742_STATUS_OK)
 130:Drivers/BSP/Components/lan8742/lan8742.c ****      {
 131:Drivers/BSP/Components/lan8742/lan8742.c ****        /* set a software reset  */
 132:Drivers/BSP/Components/lan8742/lan8742.c ****        if(pObj->IO.WriteReg(pObj->DevAddr, LAN8742_BCR, LAN8742_BCR_SOFT_RESET) >= 0)
 133:Drivers/BSP/Components/lan8742/lan8742.c ****        { 
 134:Drivers/BSP/Components/lan8742/lan8742.c ****          /* get software reset status */
 135:Drivers/BSP/Components/lan8742/lan8742.c ****          if(pObj->IO.ReadReg(pObj->DevAddr, LAN8742_BCR, &regvalue) >= 0)
 136:Drivers/BSP/Components/lan8742/lan8742.c ****          { 
 137:Drivers/BSP/Components/lan8742/lan8742.c ****            tickstart = pObj->IO.GetTick();
 138:Drivers/BSP/Components/lan8742/lan8742.c ****            
 139:Drivers/BSP/Components/lan8742/lan8742.c ****            /* wait until software reset is done or timeout occured  */
 140:Drivers/BSP/Components/lan8742/lan8742.c ****            while(regvalue & LAN8742_BCR_SOFT_RESET)
 141:Drivers/BSP/Components/lan8742/lan8742.c ****            {
 142:Drivers/BSP/Components/lan8742/lan8742.c ****              if((pObj->IO.GetTick() - tickstart) <= LAN8742_SW_RESET_TO)
 143:Drivers/BSP/Components/lan8742/lan8742.c ****              {
 144:Drivers/BSP/Components/lan8742/lan8742.c ****                if(pObj->IO.ReadReg(pObj->DevAddr, LAN8742_BCR, &regvalue) < 0)
 145:Drivers/BSP/Components/lan8742/lan8742.c ****                { 
 146:Drivers/BSP/Components/lan8742/lan8742.c ****                  status = LAN8742_STATUS_READ_ERROR;
 147:Drivers/BSP/Components/lan8742/lan8742.c ****                  break;
 148:Drivers/BSP/Components/lan8742/lan8742.c ****                }
 149:Drivers/BSP/Components/lan8742/lan8742.c ****              }
 150:Drivers/BSP/Components/lan8742/lan8742.c ****              else
 151:Drivers/BSP/Components/lan8742/lan8742.c ****              {
 152:Drivers/BSP/Components/lan8742/lan8742.c ****                status = LAN8742_STATUS_RESET_TIMEOUT;
 153:Drivers/BSP/Components/lan8742/lan8742.c ****                break;
 154:Drivers/BSP/Components/lan8742/lan8742.c ****              }
 155:Drivers/BSP/Components/lan8742/lan8742.c ****            } 
 156:Drivers/BSP/Components/lan8742/lan8742.c ****          }
 157:Drivers/BSP/Components/lan8742/lan8742.c ****          else
 158:Drivers/BSP/Components/lan8742/lan8742.c ****          {
 159:Drivers/BSP/Components/lan8742/lan8742.c ****            status = LAN8742_STATUS_READ_ERROR;
 160:Drivers/BSP/Components/lan8742/lan8742.c ****          }
 161:Drivers/BSP/Components/lan8742/lan8742.c ****        }
 162:Drivers/BSP/Components/lan8742/lan8742.c ****        else
 163:Drivers/BSP/Components/lan8742/lan8742.c ****        {
 164:Drivers/BSP/Components/lan8742/lan8742.c ****          status = LAN8742_STATUS_WRITE_ERROR;
 165:Drivers/BSP/Components/lan8742/lan8742.c ****        }
 166:Drivers/BSP/Components/lan8742/lan8742.c ****      }
 167:Drivers/BSP/Components/lan8742/lan8742.c ****    }
 168:Drivers/BSP/Components/lan8742/lan8742.c ****       
 169:Drivers/BSP/Components/lan8742/lan8742.c ****    if(status == LAN8742_STATUS_OK)
 170:Drivers/BSP/Components/lan8742/lan8742.c ****    {
 171:Drivers/BSP/Components/lan8742/lan8742.c ****      tickstart =  pObj->IO.GetTick();
 172:Drivers/BSP/Components/lan8742/lan8742.c ****      
 173:Drivers/BSP/Components/lan8742/lan8742.c ****      /* Wait for 2s to perform initialization */
 174:Drivers/BSP/Components/lan8742/lan8742.c ****      while((pObj->IO.GetTick() - tickstart) <= LAN8742_INIT_TO)
ARM GAS  /var/folders/0z/tsy30v1j4xl4_7kw94k978ww0000gn/T//ccE5hoFH.s 			page 8


 175:Drivers/BSP/Components/lan8742/lan8742.c ****      {
 176:Drivers/BSP/Components/lan8742/lan8742.c ****      }
 177:Drivers/BSP/Components/lan8742/lan8742.c ****      pObj->Is_Initialized = 1;
 178:Drivers/BSP/Components/lan8742/lan8742.c ****    }
 179:Drivers/BSP/Components/lan8742/lan8742.c ****    
 180:Drivers/BSP/Components/lan8742/lan8742.c ****    return status;
 181:Drivers/BSP/Components/lan8742/lan8742.c ****  }
 207              		.loc 1 181 2 view .LVU61
 208 0050 3046     		mov	r0, r6
 209 0052 02B0     		add	sp, sp, #8
 210              		.cfi_remember_state
 211              		.cfi_def_cfa_offset 16
 212              		@ sp needed
 213 0054 70BD     		pop	{r4, r5, r6, pc}
 214              	.LVL18:
 215              	.L35:
 216              		.cfi_restore_state
 117:Drivers/BSP/Components/lan8742/lan8742.c ****          status = LAN8742_STATUS_OK;
 217              		.loc 1 117 10 is_stmt 1 view .LVU62
 117:Drivers/BSP/Components/lan8742/lan8742.c ****          status = LAN8742_STATUS_OK;
 218              		.loc 1 117 24 is_stmt 0 view .LVU63
 219 0056 2C60     		str	r4, [r5]
 118:Drivers/BSP/Components/lan8742/lan8742.c ****          break;
 220              		.loc 1 118 10 is_stmt 1 view .LVU64
 221              	.LVL19:
 119:Drivers/BSP/Components/lan8742/lan8742.c ****        }
 222              		.loc 1 119 10 view .LVU65
 123:Drivers/BSP/Components/lan8742/lan8742.c ****      {
 223              		.loc 1 123 6 view .LVU66
 224              	.L17:
 132:Drivers/BSP/Components/lan8742/lan8742.c ****        { 
 225              		.loc 1 132 8 view .LVU67
 132:Drivers/BSP/Components/lan8742/lan8742.c ****        { 
 226              		.loc 1 132 11 is_stmt 0 view .LVU68
 227 0058 2B69     		ldr	r3, [r5, #16]
 228 005a 4FF40042 		mov	r2, #32768
 229 005e 2046     		mov	r0, r4
 230 0060 0021     		movs	r1, #0
 231 0062 9847     		blx	r3
 232              	.LVL20:
 132:Drivers/BSP/Components/lan8742/lan8742.c ****        { 
 233              		.loc 1 132 10 view .LVU69
 234 0064 0028     		cmp	r0, #0
 235 0066 2DDB     		blt	.L27
 135:Drivers/BSP/Components/lan8742/lan8742.c ****          { 
 236              		.loc 1 135 10 is_stmt 1 view .LVU70
 135:Drivers/BSP/Components/lan8742/lan8742.c ****          { 
 237              		.loc 1 135 13 is_stmt 0 view .LVU71
 238 0068 6B69     		ldr	r3, [r5, #20]
 239 006a 2868     		ldr	r0, [r5]
 240 006c 01AA     		add	r2, sp, #4
 241 006e 0021     		movs	r1, #0
 242 0070 9847     		blx	r3
 243              	.LVL21:
 135:Drivers/BSP/Components/lan8742/lan8742.c ****          { 
 244              		.loc 1 135 12 view .LVU72
 245 0072 0028     		cmp	r0, #0
ARM GAS  /var/folders/0z/tsy30v1j4xl4_7kw94k978ww0000gn/T//ccE5hoFH.s 			page 9


 246 0074 2CDB     		blt	.L22
 137:Drivers/BSP/Components/lan8742/lan8742.c ****            
 247              		.loc 1 137 12 is_stmt 1 view .LVU73
 137:Drivers/BSP/Components/lan8742/lan8742.c ****            
 248              		.loc 1 137 24 is_stmt 0 view .LVU74
 249 0076 AB69     		ldr	r3, [r5, #24]
 250 0078 9847     		blx	r3
 251              	.LVL22:
 252 007a 0446     		mov	r4, r0
 253              	.LVL23:
 140:Drivers/BSP/Components/lan8742/lan8742.c ****            {
 254              		.loc 1 140 12 is_stmt 1 view .LVU75
 140:Drivers/BSP/Components/lan8742/lan8742.c ****            {
 255              		.loc 1 140 17 is_stmt 0 view .LVU76
 256 007c 0DE0     		b	.L21
 257              	.LVL24:
 258              	.L23:
 142:Drivers/BSP/Components/lan8742/lan8742.c ****              {
 259              		.loc 1 142 18 view .LVU77
 260 007e AB69     		ldr	r3, [r5, #24]
 261 0080 9847     		blx	r3
 262              	.LVL25:
 144:Drivers/BSP/Components/lan8742/lan8742.c ****                { 
 263              		.loc 1 144 16 is_stmt 1 view .LVU78
 142:Drivers/BSP/Components/lan8742/lan8742.c ****              {
 264              		.loc 1 142 37 is_stmt 0 view .LVU79
 265 0082 001B     		subs	r0, r0, r4
 142:Drivers/BSP/Components/lan8742/lan8742.c ****              {
 266              		.loc 1 142 16 view .LVU80
 267 0084 B0F5FA7F 		cmp	r0, #500
 144:Drivers/BSP/Components/lan8742/lan8742.c ****                { 
 268              		.loc 1 144 19 view .LVU81
 269 0088 01AA     		add	r2, sp, #4
 270 008a 4FF00001 		mov	r1, #0
 142:Drivers/BSP/Components/lan8742/lan8742.c ****              {
 271              		.loc 1 142 16 view .LVU82
 272 008e 1CD8     		bhi	.L28
 144:Drivers/BSP/Components/lan8742/lan8742.c ****                { 
 273              		.loc 1 144 19 view .LVU83
 274 0090 6B69     		ldr	r3, [r5, #20]
 275 0092 2868     		ldr	r0, [r5]
 276 0094 9847     		blx	r3
 277              	.LVL26:
 144:Drivers/BSP/Components/lan8742/lan8742.c ****                { 
 278              		.loc 1 144 18 view .LVU84
 279 0096 0028     		cmp	r0, #0
 280 0098 1ADB     		blt	.L22
 281              	.L21:
 142:Drivers/BSP/Components/lan8742/lan8742.c ****              {
 282              		.loc 1 142 14 is_stmt 1 view .LVU85
 140:Drivers/BSP/Components/lan8742/lan8742.c ****            {
 283              		.loc 1 140 18 view .LVU86
 140:Drivers/BSP/Components/lan8742/lan8742.c ****            {
 284              		.loc 1 140 27 is_stmt 0 view .LVU87
 285 009a 019B     		ldr	r3, [sp, #4]
 140:Drivers/BSP/Components/lan8742/lan8742.c ****            {
 286              		.loc 1 140 18 view .LVU88
ARM GAS  /var/folders/0z/tsy30v1j4xl4_7kw94k978ww0000gn/T//ccE5hoFH.s 			page 10


 287 009c 1B04     		lsls	r3, r3, #16
 288 009e EED4     		bmi	.L23
 289              	.LVL27:
 290              	.L24:
 171:Drivers/BSP/Components/lan8742/lan8742.c ****      
 291              		.loc 1 171 6 is_stmt 1 view .LVU89
 171:Drivers/BSP/Components/lan8742/lan8742.c ****      
 292              		.loc 1 171 19 is_stmt 0 view .LVU90
 293 00a0 AB69     		ldr	r3, [r5, #24]
 294 00a2 9847     		blx	r3
 295              	.LVL28:
 296 00a4 0446     		mov	r4, r0
 297              	.LVL29:
 174:Drivers/BSP/Components/lan8742/lan8742.c ****      {
 298              		.loc 1 174 6 is_stmt 1 view .LVU91
 299              	.L14:
 176:Drivers/BSP/Components/lan8742/lan8742.c ****      pObj->Is_Initialized = 1;
 300              		.loc 1 176 6 discriminator 1 view .LVU92
 174:Drivers/BSP/Components/lan8742/lan8742.c ****      {
 301              		.loc 1 174 45 discriminator 1 view .LVU93
 174:Drivers/BSP/Components/lan8742/lan8742.c ****      {
 302              		.loc 1 174 13 is_stmt 0 discriminator 1 view .LVU94
 303 00a6 AB69     		ldr	r3, [r5, #24]
 304 00a8 9847     		blx	r3
 305              	.LVL30:
 174:Drivers/BSP/Components/lan8742/lan8742.c ****      {
 306              		.loc 1 174 32 discriminator 1 view .LVU95
 307 00aa 031B     		subs	r3, r0, r4
 174:Drivers/BSP/Components/lan8742/lan8742.c ****      {
 308              		.loc 1 174 45 discriminator 1 view .LVU96
 309 00ac B3F5FA6F 		cmp	r3, #2000
 310 00b0 F9D9     		bls	.L14
 177:Drivers/BSP/Components/lan8742/lan8742.c ****    }
 311              		.loc 1 177 6 is_stmt 1 view .LVU97
 177:Drivers/BSP/Components/lan8742/lan8742.c ****    }
 312              		.loc 1 177 27 is_stmt 0 view .LVU98
 313 00b2 0123     		movs	r3, #1
 314 00b4 6B60     		str	r3, [r5, #4]
 315 00b6 0026     		movs	r6, #0
 316              	.LVL31:
 317              	.L12:
 318              		.loc 1 181 2 view .LVU99
 319 00b8 3046     		mov	r0, r6
 320 00ba 02B0     		add	sp, sp, #8
 321              		.cfi_remember_state
 322              		.cfi_def_cfa_offset 16
 323              		@ sp needed
 324 00bc 70BD     		pop	{r4, r5, r6, pc}
 325              	.LVL32:
 326              	.L38:
 327              		.cfi_restore_state
 129:Drivers/BSP/Components/lan8742/lan8742.c ****      {
 328              		.loc 1 129 6 is_stmt 1 view .LVU100
 129:Drivers/BSP/Components/lan8742/lan8742.c ****      {
 329              		.loc 1 129 8 is_stmt 0 view .LVU101
 330 00be 002E     		cmp	r6, #0
 331 00c0 FAD1     		bne	.L12
ARM GAS  /var/folders/0z/tsy30v1j4xl4_7kw94k978ww0000gn/T//ccE5hoFH.s 			page 11


 332 00c2 C9E7     		b	.L17
 333              	.LVL33:
 334              	.L27:
 164:Drivers/BSP/Components/lan8742/lan8742.c ****        }
 335              		.loc 1 164 17 view .LVU102
 336 00c4 6FF00306 		mvn	r6, #3
 337 00c8 F6E7     		b	.L12
 338              	.LVL34:
 339              	.L28:
 152:Drivers/BSP/Components/lan8742/lan8742.c ****                break;
 340              		.loc 1 152 23 view .LVU103
 341 00ca 6FF00106 		mvn	r6, #1
 180:Drivers/BSP/Components/lan8742/lan8742.c ****  }
 342              		.loc 1 180 4 is_stmt 1 view .LVU104
 180:Drivers/BSP/Components/lan8742/lan8742.c ****  }
 343              		.loc 1 180 11 is_stmt 0 view .LVU105
 344 00ce F3E7     		b	.L12
 345              	.LVL35:
 346              	.L22:
 159:Drivers/BSP/Components/lan8742/lan8742.c ****          }
 347              		.loc 1 159 19 view .LVU106
 348 00d0 6FF00406 		mvn	r6, #4
 349 00d4 F0E7     		b	.L12
 350              		.cfi_endproc
 351              	.LFE1:
 353 00d6 00BF     		.section	.text.LAN8742_DeInit,"ax",%progbits
 354              		.align	1
 355              		.p2align 2,,3
 356              		.global	LAN8742_DeInit
 357              		.syntax unified
 358              		.thumb
 359              		.thumb_func
 361              	LAN8742_DeInit:
 362              	.LVL36:
 363              	.LFB2:
 182:Drivers/BSP/Components/lan8742/lan8742.c **** 
 183:Drivers/BSP/Components/lan8742/lan8742.c **** /**
 184:Drivers/BSP/Components/lan8742/lan8742.c ****   * @brief  De-Initialize the lan8742 and it's hardware resources
 185:Drivers/BSP/Components/lan8742/lan8742.c ****   * @param  pObj: device object LAN8742_Object_t. 
 186:Drivers/BSP/Components/lan8742/lan8742.c ****   * @retval None
 187:Drivers/BSP/Components/lan8742/lan8742.c ****   */
 188:Drivers/BSP/Components/lan8742/lan8742.c **** int32_t LAN8742_DeInit(lan8742_Object_t *pObj)
 189:Drivers/BSP/Components/lan8742/lan8742.c **** {
 364              		.loc 1 189 1 is_stmt 1 view -0
 365              		.cfi_startproc
 366              		@ args = 0, pretend = 0, frame = 0
 367              		@ frame_needed = 0, uses_anonymous_args = 0
 190:Drivers/BSP/Components/lan8742/lan8742.c ****   if(pObj->Is_Initialized)
 368              		.loc 1 190 3 view .LVU108
 189:Drivers/BSP/Components/lan8742/lan8742.c ****   if(pObj->Is_Initialized)
 369              		.loc 1 189 1 is_stmt 0 view .LVU109
 370 0000 10B5     		push	{r4, lr}
 371              		.cfi_def_cfa_offset 8
 372              		.cfi_offset 4, -8
 373              		.cfi_offset 14, -4
 189:Drivers/BSP/Components/lan8742/lan8742.c ****   if(pObj->Is_Initialized)
 374              		.loc 1 189 1 view .LVU110
ARM GAS  /var/folders/0z/tsy30v1j4xl4_7kw94k978ww0000gn/T//ccE5hoFH.s 			page 12


 375 0002 0446     		mov	r4, r0
 376              		.loc 1 190 5 view .LVU111
 377 0004 4068     		ldr	r0, [r0, #4]
 378              	.LVL37:
 379              		.loc 1 190 5 view .LVU112
 380 0006 30B1     		cbz	r0, .L39
 191:Drivers/BSP/Components/lan8742/lan8742.c ****   {
 192:Drivers/BSP/Components/lan8742/lan8742.c ****     if(pObj->IO.DeInit != 0)
 381              		.loc 1 192 5 is_stmt 1 view .LVU113
 382              		.loc 1 192 16 is_stmt 0 view .LVU114
 383 0008 E368     		ldr	r3, [r4, #12]
 384              		.loc 1 192 7 view .LVU115
 385 000a 13B1     		cbz	r3, .L42
 193:Drivers/BSP/Components/lan8742/lan8742.c ****     {
 194:Drivers/BSP/Components/lan8742/lan8742.c ****       if(pObj->IO.DeInit() < 0)
 386              		.loc 1 194 7 is_stmt 1 view .LVU116
 387              		.loc 1 194 10 is_stmt 0 view .LVU117
 388 000c 9847     		blx	r3
 389              	.LVL38:
 390              		.loc 1 194 9 view .LVU118
 391 000e 0028     		cmp	r0, #0
 392 0010 02DB     		blt	.L45
 393              	.L42:
 195:Drivers/BSP/Components/lan8742/lan8742.c ****       {
 196:Drivers/BSP/Components/lan8742/lan8742.c ****         return LAN8742_STATUS_ERROR;
 197:Drivers/BSP/Components/lan8742/lan8742.c ****       }
 198:Drivers/BSP/Components/lan8742/lan8742.c ****     }
 199:Drivers/BSP/Components/lan8742/lan8742.c ****   
 200:Drivers/BSP/Components/lan8742/lan8742.c ****     pObj->Is_Initialized = 0;  
 394              		.loc 1 200 5 is_stmt 1 view .LVU119
 395              		.loc 1 200 26 is_stmt 0 view .LVU120
 396 0012 0020     		movs	r0, #0
 397 0014 6060     		str	r0, [r4, #4]
 398              	.L39:
 201:Drivers/BSP/Components/lan8742/lan8742.c ****   }
 202:Drivers/BSP/Components/lan8742/lan8742.c ****   
 203:Drivers/BSP/Components/lan8742/lan8742.c ****   return LAN8742_STATUS_OK;
 204:Drivers/BSP/Components/lan8742/lan8742.c **** }
 399              		.loc 1 204 1 view .LVU121
 400 0016 10BD     		pop	{r4, pc}
 401              	.LVL39:
 402              	.L45:
 196:Drivers/BSP/Components/lan8742/lan8742.c ****       }
 403              		.loc 1 196 16 view .LVU122
 404 0018 4FF0FF30 		mov	r0, #-1
 405              		.loc 1 204 1 view .LVU123
 406 001c 10BD     		pop	{r4, pc}
 407              		.loc 1 204 1 view .LVU124
 408              		.cfi_endproc
 409              	.LFE2:
 411 001e 00BF     		.section	.text.LAN8742_DisablePowerDownMode,"ax",%progbits
 412              		.align	1
 413              		.p2align 2,,3
 414              		.global	LAN8742_DisablePowerDownMode
 415              		.syntax unified
 416              		.thumb
 417              		.thumb_func
ARM GAS  /var/folders/0z/tsy30v1j4xl4_7kw94k978ww0000gn/T//ccE5hoFH.s 			page 13


 419              	LAN8742_DisablePowerDownMode:
 420              	.LVL40:
 421              	.LFB3:
 205:Drivers/BSP/Components/lan8742/lan8742.c **** 
 206:Drivers/BSP/Components/lan8742/lan8742.c **** /**
 207:Drivers/BSP/Components/lan8742/lan8742.c ****   * @brief  Disable the LAN8742 power down mode.
 208:Drivers/BSP/Components/lan8742/lan8742.c ****   * @param  pObj: device object LAN8742_Object_t.  
 209:Drivers/BSP/Components/lan8742/lan8742.c ****   * @retval LAN8742_STATUS_OK  if OK
 210:Drivers/BSP/Components/lan8742/lan8742.c ****   *         LAN8742_STATUS_READ_ERROR if connot read register
 211:Drivers/BSP/Components/lan8742/lan8742.c ****   *         LAN8742_STATUS_WRITE_ERROR if connot write to register
 212:Drivers/BSP/Components/lan8742/lan8742.c ****   */
 213:Drivers/BSP/Components/lan8742/lan8742.c **** int32_t LAN8742_DisablePowerDownMode(lan8742_Object_t *pObj)
 214:Drivers/BSP/Components/lan8742/lan8742.c **** {
 422              		.loc 1 214 1 is_stmt 1 view -0
 423              		.cfi_startproc
 424              		@ args = 0, pretend = 0, frame = 8
 425              		@ frame_needed = 0, uses_anonymous_args = 0
 215:Drivers/BSP/Components/lan8742/lan8742.c ****   uint32_t readval = 0;
 426              		.loc 1 215 3 view .LVU126
 214:Drivers/BSP/Components/lan8742/lan8742.c ****   uint32_t readval = 0;
 427              		.loc 1 214 1 is_stmt 0 view .LVU127
 428 0000 30B5     		push	{r4, r5, lr}
 429              		.cfi_def_cfa_offset 12
 430              		.cfi_offset 4, -12
 431              		.cfi_offset 5, -8
 432              		.cfi_offset 14, -4
 433 0002 83B0     		sub	sp, sp, #12
 434              		.cfi_def_cfa_offset 24
 435              		.loc 1 215 12 view .LVU128
 436 0004 0025     		movs	r5, #0
 216:Drivers/BSP/Components/lan8742/lan8742.c ****   int32_t status = LAN8742_STATUS_OK;
 217:Drivers/BSP/Components/lan8742/lan8742.c ****   
 218:Drivers/BSP/Components/lan8742/lan8742.c ****   if(pObj->IO.ReadReg(pObj->DevAddr, LAN8742_BCR, &readval) >= 0)
 437              		.loc 1 218 6 view .LVU129
 438 0006 4369     		ldr	r3, [r0, #20]
 215:Drivers/BSP/Components/lan8742/lan8742.c ****   int32_t status = LAN8742_STATUS_OK;
 439              		.loc 1 215 12 view .LVU130
 440 0008 0195     		str	r5, [sp, #4]
 216:Drivers/BSP/Components/lan8742/lan8742.c ****   int32_t status = LAN8742_STATUS_OK;
 441              		.loc 1 216 3 is_stmt 1 view .LVU131
 442              	.LVL41:
 443              		.loc 1 218 3 view .LVU132
 214:Drivers/BSP/Components/lan8742/lan8742.c ****   uint32_t readval = 0;
 444              		.loc 1 214 1 is_stmt 0 view .LVU133
 445 000a 0446     		mov	r4, r0
 446              		.loc 1 218 6 view .LVU134
 447 000c 01AA     		add	r2, sp, #4
 448 000e 0068     		ldr	r0, [r0]
 449              	.LVL42:
 450              		.loc 1 218 6 view .LVU135
 451 0010 2946     		mov	r1, r5
 452 0012 9847     		blx	r3
 453              	.LVL43:
 454              		.loc 1 218 5 view .LVU136
 455 0014 A842     		cmp	r0, r5
 456 0016 0EDB     		blt	.L48
 219:Drivers/BSP/Components/lan8742/lan8742.c ****   {
ARM GAS  /var/folders/0z/tsy30v1j4xl4_7kw94k978ww0000gn/T//ccE5hoFH.s 			page 14


 220:Drivers/BSP/Components/lan8742/lan8742.c ****     readval &= ~LAN8742_BCR_POWER_DOWN;
 457              		.loc 1 220 5 is_stmt 1 view .LVU137
 458              		.loc 1 220 13 is_stmt 0 view .LVU138
 459 0018 019A     		ldr	r2, [sp, #4]
 221:Drivers/BSP/Components/lan8742/lan8742.c ****   
 222:Drivers/BSP/Components/lan8742/lan8742.c ****     /* Apply configuration */
 223:Drivers/BSP/Components/lan8742/lan8742.c ****     if(pObj->IO.WriteReg(pObj->DevAddr, LAN8742_BCR, readval) < 0)
 460              		.loc 1 223 8 view .LVU139
 461 001a 2369     		ldr	r3, [r4, #16]
 462 001c 2068     		ldr	r0, [r4]
 220:Drivers/BSP/Components/lan8742/lan8742.c ****   
 463              		.loc 1 220 13 view .LVU140
 464 001e 22F40062 		bic	r2, r2, #2048
 465 0022 0192     		str	r2, [sp, #4]
 466              		.loc 1 223 5 is_stmt 1 view .LVU141
 467              		.loc 1 223 8 is_stmt 0 view .LVU142
 468 0024 2946     		mov	r1, r5
 469 0026 9847     		blx	r3
 470              	.LVL44:
 224:Drivers/BSP/Components/lan8742/lan8742.c ****     {
 225:Drivers/BSP/Components/lan8742/lan8742.c ****       status =  LAN8742_STATUS_WRITE_ERROR;
 471              		.loc 1 225 14 view .LVU143
 472 0028 A842     		cmp	r0, r5
 473 002a ACBF     		ite	ge
 474 002c 2846     		movge	r0, r5
 475 002e 6FF00300 		mvnlt	r0, #3
 476              	.L46:
 226:Drivers/BSP/Components/lan8742/lan8742.c ****     }
 227:Drivers/BSP/Components/lan8742/lan8742.c ****   }
 228:Drivers/BSP/Components/lan8742/lan8742.c ****   else
 229:Drivers/BSP/Components/lan8742/lan8742.c ****   {
 230:Drivers/BSP/Components/lan8742/lan8742.c ****     status = LAN8742_STATUS_READ_ERROR;
 231:Drivers/BSP/Components/lan8742/lan8742.c ****   }
 232:Drivers/BSP/Components/lan8742/lan8742.c ****    
 233:Drivers/BSP/Components/lan8742/lan8742.c ****   return status;
 234:Drivers/BSP/Components/lan8742/lan8742.c **** }
 477              		.loc 1 234 1 view .LVU144
 478 0032 03B0     		add	sp, sp, #12
 479              		.cfi_remember_state
 480              		.cfi_def_cfa_offset 12
 481              		@ sp needed
 482 0034 30BD     		pop	{r4, r5, pc}
 483              	.LVL45:
 484              	.L48:
 485              		.cfi_restore_state
 230:Drivers/BSP/Components/lan8742/lan8742.c ****   }
 486              		.loc 1 230 12 view .LVU145
 487 0036 6FF00400 		mvn	r0, #4
 488 003a FAE7     		b	.L46
 489              		.cfi_endproc
 490              	.LFE3:
 492              		.section	.text.LAN8742_EnablePowerDownMode,"ax",%progbits
 493              		.align	1
 494              		.p2align 2,,3
 495              		.global	LAN8742_EnablePowerDownMode
 496              		.syntax unified
 497              		.thumb
ARM GAS  /var/folders/0z/tsy30v1j4xl4_7kw94k978ww0000gn/T//ccE5hoFH.s 			page 15


 498              		.thumb_func
 500              	LAN8742_EnablePowerDownMode:
 501              	.LVL46:
 502              	.LFB4:
 235:Drivers/BSP/Components/lan8742/lan8742.c **** 
 236:Drivers/BSP/Components/lan8742/lan8742.c **** /**
 237:Drivers/BSP/Components/lan8742/lan8742.c ****   * @brief  Enable the LAN8742 power down mode.
 238:Drivers/BSP/Components/lan8742/lan8742.c ****   * @param  pObj: device object LAN8742_Object_t.  
 239:Drivers/BSP/Components/lan8742/lan8742.c ****   * @retval LAN8742_STATUS_OK  if OK
 240:Drivers/BSP/Components/lan8742/lan8742.c ****   *         LAN8742_STATUS_READ_ERROR if connot read register
 241:Drivers/BSP/Components/lan8742/lan8742.c ****   *         LAN8742_STATUS_WRITE_ERROR if connot write to register
 242:Drivers/BSP/Components/lan8742/lan8742.c ****   */
 243:Drivers/BSP/Components/lan8742/lan8742.c **** int32_t LAN8742_EnablePowerDownMode(lan8742_Object_t *pObj)
 244:Drivers/BSP/Components/lan8742/lan8742.c **** {
 503              		.loc 1 244 1 is_stmt 1 view -0
 504              		.cfi_startproc
 505              		@ args = 0, pretend = 0, frame = 8
 506              		@ frame_needed = 0, uses_anonymous_args = 0
 245:Drivers/BSP/Components/lan8742/lan8742.c ****   uint32_t readval = 0;
 507              		.loc 1 245 3 view .LVU147
 244:Drivers/BSP/Components/lan8742/lan8742.c ****   uint32_t readval = 0;
 508              		.loc 1 244 1 is_stmt 0 view .LVU148
 509 0000 30B5     		push	{r4, r5, lr}
 510              		.cfi_def_cfa_offset 12
 511              		.cfi_offset 4, -12
 512              		.cfi_offset 5, -8
 513              		.cfi_offset 14, -4
 514 0002 83B0     		sub	sp, sp, #12
 515              		.cfi_def_cfa_offset 24
 516              		.loc 1 245 12 view .LVU149
 517 0004 0025     		movs	r5, #0
 246:Drivers/BSP/Components/lan8742/lan8742.c ****   int32_t status = LAN8742_STATUS_OK;
 247:Drivers/BSP/Components/lan8742/lan8742.c ****   
 248:Drivers/BSP/Components/lan8742/lan8742.c ****   if(pObj->IO.ReadReg(pObj->DevAddr, LAN8742_BCR, &readval) >= 0)
 518              		.loc 1 248 6 view .LVU150
 519 0006 4369     		ldr	r3, [r0, #20]
 245:Drivers/BSP/Components/lan8742/lan8742.c ****   int32_t status = LAN8742_STATUS_OK;
 520              		.loc 1 245 12 view .LVU151
 521 0008 0195     		str	r5, [sp, #4]
 246:Drivers/BSP/Components/lan8742/lan8742.c ****   int32_t status = LAN8742_STATUS_OK;
 522              		.loc 1 246 3 is_stmt 1 view .LVU152
 523              	.LVL47:
 524              		.loc 1 248 3 view .LVU153
 244:Drivers/BSP/Components/lan8742/lan8742.c ****   uint32_t readval = 0;
 525              		.loc 1 244 1 is_stmt 0 view .LVU154
 526 000a 0446     		mov	r4, r0
 527              		.loc 1 248 6 view .LVU155
 528 000c 01AA     		add	r2, sp, #4
 529 000e 0068     		ldr	r0, [r0]
 530              	.LVL48:
 531              		.loc 1 248 6 view .LVU156
 532 0010 2946     		mov	r1, r5
 533 0012 9847     		blx	r3
 534              	.LVL49:
 535              		.loc 1 248 5 view .LVU157
 536 0014 A842     		cmp	r0, r5
 537 0016 0EDB     		blt	.L53
ARM GAS  /var/folders/0z/tsy30v1j4xl4_7kw94k978ww0000gn/T//ccE5hoFH.s 			page 16


 249:Drivers/BSP/Components/lan8742/lan8742.c ****   {
 250:Drivers/BSP/Components/lan8742/lan8742.c ****     readval |= LAN8742_BCR_POWER_DOWN;
 538              		.loc 1 250 5 is_stmt 1 view .LVU158
 539              		.loc 1 250 13 is_stmt 0 view .LVU159
 540 0018 019A     		ldr	r2, [sp, #4]
 251:Drivers/BSP/Components/lan8742/lan8742.c ****   
 252:Drivers/BSP/Components/lan8742/lan8742.c ****     /* Apply configuration */
 253:Drivers/BSP/Components/lan8742/lan8742.c ****     if(pObj->IO.WriteReg(pObj->DevAddr, LAN8742_BCR, readval) < 0)
 541              		.loc 1 253 8 view .LVU160
 542 001a 2369     		ldr	r3, [r4, #16]
 543 001c 2068     		ldr	r0, [r4]
 250:Drivers/BSP/Components/lan8742/lan8742.c ****   
 544              		.loc 1 250 13 view .LVU161
 545 001e 42F40062 		orr	r2, r2, #2048
 546 0022 0192     		str	r2, [sp, #4]
 547              		.loc 1 253 5 is_stmt 1 view .LVU162
 548              		.loc 1 253 8 is_stmt 0 view .LVU163
 549 0024 2946     		mov	r1, r5
 550 0026 9847     		blx	r3
 551              	.LVL50:
 254:Drivers/BSP/Components/lan8742/lan8742.c ****     {
 255:Drivers/BSP/Components/lan8742/lan8742.c ****       status =  LAN8742_STATUS_WRITE_ERROR;
 552              		.loc 1 255 14 view .LVU164
 553 0028 A842     		cmp	r0, r5
 554 002a ACBF     		ite	ge
 555 002c 2846     		movge	r0, r5
 556 002e 6FF00300 		mvnlt	r0, #3
 557              	.L51:
 256:Drivers/BSP/Components/lan8742/lan8742.c ****     }
 257:Drivers/BSP/Components/lan8742/lan8742.c ****   }
 258:Drivers/BSP/Components/lan8742/lan8742.c ****   else
 259:Drivers/BSP/Components/lan8742/lan8742.c ****   {
 260:Drivers/BSP/Components/lan8742/lan8742.c ****     status = LAN8742_STATUS_READ_ERROR;
 261:Drivers/BSP/Components/lan8742/lan8742.c ****   }
 262:Drivers/BSP/Components/lan8742/lan8742.c ****    
 263:Drivers/BSP/Components/lan8742/lan8742.c ****   return status;
 264:Drivers/BSP/Components/lan8742/lan8742.c **** }
 558              		.loc 1 264 1 view .LVU165
 559 0032 03B0     		add	sp, sp, #12
 560              		.cfi_remember_state
 561              		.cfi_def_cfa_offset 12
 562              		@ sp needed
 563 0034 30BD     		pop	{r4, r5, pc}
 564              	.LVL51:
 565              	.L53:
 566              		.cfi_restore_state
 260:Drivers/BSP/Components/lan8742/lan8742.c ****   }
 567              		.loc 1 260 12 view .LVU166
 568 0036 6FF00400 		mvn	r0, #4
 569 003a FAE7     		b	.L51
 570              		.cfi_endproc
 571              	.LFE4:
 573              		.section	.text.LAN8742_StartAutoNego,"ax",%progbits
 574              		.align	1
 575              		.p2align 2,,3
 576              		.global	LAN8742_StartAutoNego
 577              		.syntax unified
ARM GAS  /var/folders/0z/tsy30v1j4xl4_7kw94k978ww0000gn/T//ccE5hoFH.s 			page 17


 578              		.thumb
 579              		.thumb_func
 581              	LAN8742_StartAutoNego:
 582              	.LVL52:
 583              	.LFB5:
 265:Drivers/BSP/Components/lan8742/lan8742.c **** 
 266:Drivers/BSP/Components/lan8742/lan8742.c **** /**
 267:Drivers/BSP/Components/lan8742/lan8742.c ****   * @brief  Start the auto negotiation process.
 268:Drivers/BSP/Components/lan8742/lan8742.c ****   * @param  pObj: device object LAN8742_Object_t.  
 269:Drivers/BSP/Components/lan8742/lan8742.c ****   * @retval LAN8742_STATUS_OK  if OK
 270:Drivers/BSP/Components/lan8742/lan8742.c ****   *         LAN8742_STATUS_READ_ERROR if connot read register
 271:Drivers/BSP/Components/lan8742/lan8742.c ****   *         LAN8742_STATUS_WRITE_ERROR if connot write to register
 272:Drivers/BSP/Components/lan8742/lan8742.c ****   */
 273:Drivers/BSP/Components/lan8742/lan8742.c **** int32_t LAN8742_StartAutoNego(lan8742_Object_t *pObj)
 274:Drivers/BSP/Components/lan8742/lan8742.c **** {
 584              		.loc 1 274 1 is_stmt 1 view -0
 585              		.cfi_startproc
 586              		@ args = 0, pretend = 0, frame = 8
 587              		@ frame_needed = 0, uses_anonymous_args = 0
 275:Drivers/BSP/Components/lan8742/lan8742.c ****   uint32_t readval = 0;
 588              		.loc 1 275 3 view .LVU168
 274:Drivers/BSP/Components/lan8742/lan8742.c ****   uint32_t readval = 0;
 589              		.loc 1 274 1 is_stmt 0 view .LVU169
 590 0000 30B5     		push	{r4, r5, lr}
 591              		.cfi_def_cfa_offset 12
 592              		.cfi_offset 4, -12
 593              		.cfi_offset 5, -8
 594              		.cfi_offset 14, -4
 595 0002 83B0     		sub	sp, sp, #12
 596              		.cfi_def_cfa_offset 24
 597              		.loc 1 275 12 view .LVU170
 598 0004 0025     		movs	r5, #0
 276:Drivers/BSP/Components/lan8742/lan8742.c ****   int32_t status = LAN8742_STATUS_OK;
 277:Drivers/BSP/Components/lan8742/lan8742.c ****   
 278:Drivers/BSP/Components/lan8742/lan8742.c ****   if(pObj->IO.ReadReg(pObj->DevAddr, LAN8742_BCR, &readval) >= 0)
 599              		.loc 1 278 6 view .LVU171
 600 0006 4369     		ldr	r3, [r0, #20]
 275:Drivers/BSP/Components/lan8742/lan8742.c ****   int32_t status = LAN8742_STATUS_OK;
 601              		.loc 1 275 12 view .LVU172
 602 0008 0195     		str	r5, [sp, #4]
 276:Drivers/BSP/Components/lan8742/lan8742.c ****   int32_t status = LAN8742_STATUS_OK;
 603              		.loc 1 276 3 is_stmt 1 view .LVU173
 604              	.LVL53:
 605              		.loc 1 278 3 view .LVU174
 274:Drivers/BSP/Components/lan8742/lan8742.c ****   uint32_t readval = 0;
 606              		.loc 1 274 1 is_stmt 0 view .LVU175
 607 000a 0446     		mov	r4, r0
 608              		.loc 1 278 6 view .LVU176
 609 000c 01AA     		add	r2, sp, #4
 610 000e 0068     		ldr	r0, [r0]
 611              	.LVL54:
 612              		.loc 1 278 6 view .LVU177
 613 0010 2946     		mov	r1, r5
 614 0012 9847     		blx	r3
 615              	.LVL55:
 616              		.loc 1 278 5 view .LVU178
 617 0014 A842     		cmp	r0, r5
ARM GAS  /var/folders/0z/tsy30v1j4xl4_7kw94k978ww0000gn/T//ccE5hoFH.s 			page 18


 618 0016 0EDB     		blt	.L58
 279:Drivers/BSP/Components/lan8742/lan8742.c ****   {
 280:Drivers/BSP/Components/lan8742/lan8742.c ****     readval |= LAN8742_BCR_AUTONEGO_EN;
 619              		.loc 1 280 5 is_stmt 1 view .LVU179
 620              		.loc 1 280 13 is_stmt 0 view .LVU180
 621 0018 019A     		ldr	r2, [sp, #4]
 281:Drivers/BSP/Components/lan8742/lan8742.c ****   
 282:Drivers/BSP/Components/lan8742/lan8742.c ****     /* Apply configuration */
 283:Drivers/BSP/Components/lan8742/lan8742.c ****     if(pObj->IO.WriteReg(pObj->DevAddr, LAN8742_BCR, readval) < 0)
 622              		.loc 1 283 8 view .LVU181
 623 001a 2369     		ldr	r3, [r4, #16]
 624 001c 2068     		ldr	r0, [r4]
 280:Drivers/BSP/Components/lan8742/lan8742.c ****   
 625              		.loc 1 280 13 view .LVU182
 626 001e 42F48052 		orr	r2, r2, #4096
 627 0022 0192     		str	r2, [sp, #4]
 628              		.loc 1 283 5 is_stmt 1 view .LVU183
 629              		.loc 1 283 8 is_stmt 0 view .LVU184
 630 0024 2946     		mov	r1, r5
 631 0026 9847     		blx	r3
 632              	.LVL56:
 284:Drivers/BSP/Components/lan8742/lan8742.c ****     {
 285:Drivers/BSP/Components/lan8742/lan8742.c ****       status =  LAN8742_STATUS_WRITE_ERROR;
 633              		.loc 1 285 14 view .LVU185
 634 0028 A842     		cmp	r0, r5
 635 002a ACBF     		ite	ge
 636 002c 2846     		movge	r0, r5
 637 002e 6FF00300 		mvnlt	r0, #3
 638              	.L56:
 286:Drivers/BSP/Components/lan8742/lan8742.c ****     }
 287:Drivers/BSP/Components/lan8742/lan8742.c ****   }
 288:Drivers/BSP/Components/lan8742/lan8742.c ****   else
 289:Drivers/BSP/Components/lan8742/lan8742.c ****   {
 290:Drivers/BSP/Components/lan8742/lan8742.c ****     status = LAN8742_STATUS_READ_ERROR;
 291:Drivers/BSP/Components/lan8742/lan8742.c ****   }
 292:Drivers/BSP/Components/lan8742/lan8742.c ****    
 293:Drivers/BSP/Components/lan8742/lan8742.c ****   return status;
 294:Drivers/BSP/Components/lan8742/lan8742.c **** }
 639              		.loc 1 294 1 view .LVU186
 640 0032 03B0     		add	sp, sp, #12
 641              		.cfi_remember_state
 642              		.cfi_def_cfa_offset 12
 643              		@ sp needed
 644 0034 30BD     		pop	{r4, r5, pc}
 645              	.LVL57:
 646              	.L58:
 647              		.cfi_restore_state
 290:Drivers/BSP/Components/lan8742/lan8742.c ****   }
 648              		.loc 1 290 12 view .LVU187
 649 0036 6FF00400 		mvn	r0, #4
 650 003a FAE7     		b	.L56
 651              		.cfi_endproc
 652              	.LFE5:
 654              		.section	.text.LAN8742_GetLinkState,"ax",%progbits
 655              		.align	1
 656              		.p2align 2,,3
 657              		.global	LAN8742_GetLinkState
ARM GAS  /var/folders/0z/tsy30v1j4xl4_7kw94k978ww0000gn/T//ccE5hoFH.s 			page 19


 658              		.syntax unified
 659              		.thumb
 660              		.thumb_func
 662              	LAN8742_GetLinkState:
 663              	.LVL58:
 664              	.LFB6:
 295:Drivers/BSP/Components/lan8742/lan8742.c **** 
 296:Drivers/BSP/Components/lan8742/lan8742.c **** /**
 297:Drivers/BSP/Components/lan8742/lan8742.c ****   * @brief  Get the link state of LAN8742 device.
 298:Drivers/BSP/Components/lan8742/lan8742.c ****   * @param  pObj: Pointer to device object. 
 299:Drivers/BSP/Components/lan8742/lan8742.c ****   * @param  pLinkState: Pointer to link state
 300:Drivers/BSP/Components/lan8742/lan8742.c ****   * @retval LAN8742_STATUS_LINK_DOWN  if link is down
 301:Drivers/BSP/Components/lan8742/lan8742.c ****   *         LAN8742_STATUS_AUTONEGO_NOTDONE if Auto nego not completed 
 302:Drivers/BSP/Components/lan8742/lan8742.c ****   *         LAN8742_STATUS_100MBITS_FULLDUPLEX if 100Mb/s FD
 303:Drivers/BSP/Components/lan8742/lan8742.c ****   *         LAN8742_STATUS_100MBITS_HALFDUPLEX if 100Mb/s HD
 304:Drivers/BSP/Components/lan8742/lan8742.c ****   *         LAN8742_STATUS_10MBITS_FULLDUPLEX  if 10Mb/s FD
 305:Drivers/BSP/Components/lan8742/lan8742.c ****   *         LAN8742_STATUS_10MBITS_HALFDUPLEX  if 10Mb/s HD       
 306:Drivers/BSP/Components/lan8742/lan8742.c ****   *         LAN8742_STATUS_READ_ERROR if connot read register
 307:Drivers/BSP/Components/lan8742/lan8742.c ****   *         LAN8742_STATUS_WRITE_ERROR if connot write to register
 308:Drivers/BSP/Components/lan8742/lan8742.c ****   */
 309:Drivers/BSP/Components/lan8742/lan8742.c **** int32_t LAN8742_GetLinkState(lan8742_Object_t *pObj)
 310:Drivers/BSP/Components/lan8742/lan8742.c **** {
 665              		.loc 1 310 1 is_stmt 1 view -0
 666              		.cfi_startproc
 667              		@ args = 0, pretend = 0, frame = 8
 668              		@ frame_needed = 0, uses_anonymous_args = 0
 311:Drivers/BSP/Components/lan8742/lan8742.c ****   uint32_t readval = 0;
 669              		.loc 1 311 3 view .LVU189
 310:Drivers/BSP/Components/lan8742/lan8742.c ****   uint32_t readval = 0;
 670              		.loc 1 310 1 is_stmt 0 view .LVU190
 671 0000 30B5     		push	{r4, r5, lr}
 672              		.cfi_def_cfa_offset 12
 673              		.cfi_offset 4, -12
 674              		.cfi_offset 5, -8
 675              		.cfi_offset 14, -4
 676 0002 83B0     		sub	sp, sp, #12
 677              		.cfi_def_cfa_offset 24
 678              		.loc 1 311 12 view .LVU191
 679 0004 0025     		movs	r5, #0
 312:Drivers/BSP/Components/lan8742/lan8742.c ****   
 313:Drivers/BSP/Components/lan8742/lan8742.c ****   /* Read Status register  */
 314:Drivers/BSP/Components/lan8742/lan8742.c ****   if(pObj->IO.ReadReg(pObj->DevAddr, LAN8742_BSR, &readval) < 0)
 680              		.loc 1 314 6 view .LVU192
 681 0006 4369     		ldr	r3, [r0, #20]
 311:Drivers/BSP/Components/lan8742/lan8742.c ****   
 682              		.loc 1 311 12 view .LVU193
 683 0008 0195     		str	r5, [sp, #4]
 684              		.loc 1 314 3 is_stmt 1 view .LVU194
 310:Drivers/BSP/Components/lan8742/lan8742.c ****   uint32_t readval = 0;
 685              		.loc 1 310 1 is_stmt 0 view .LVU195
 686 000a 0446     		mov	r4, r0
 687              		.loc 1 314 6 view .LVU196
 688 000c 01AA     		add	r2, sp, #4
 689 000e 0068     		ldr	r0, [r0]
 690              	.LVL59:
 691              		.loc 1 314 6 view .LVU197
 692 0010 0121     		movs	r1, #1
ARM GAS  /var/folders/0z/tsy30v1j4xl4_7kw94k978ww0000gn/T//ccE5hoFH.s 			page 20


 693 0012 9847     		blx	r3
 694              	.LVL60:
 695              		.loc 1 314 5 view .LVU198
 696 0014 A842     		cmp	r0, r5
 697 0016 3DDB     		blt	.L64
 315:Drivers/BSP/Components/lan8742/lan8742.c ****   {
 316:Drivers/BSP/Components/lan8742/lan8742.c ****     return LAN8742_STATUS_READ_ERROR;
 317:Drivers/BSP/Components/lan8742/lan8742.c ****   }
 318:Drivers/BSP/Components/lan8742/lan8742.c ****   
 319:Drivers/BSP/Components/lan8742/lan8742.c ****   /* Read Status register again */
 320:Drivers/BSP/Components/lan8742/lan8742.c ****   if(pObj->IO.ReadReg(pObj->DevAddr, LAN8742_BSR, &readval) < 0)
 698              		.loc 1 320 3 is_stmt 1 view .LVU199
 699              		.loc 1 320 6 is_stmt 0 view .LVU200
 700 0018 6369     		ldr	r3, [r4, #20]
 701 001a 2068     		ldr	r0, [r4]
 702 001c 01AA     		add	r2, sp, #4
 703 001e 0121     		movs	r1, #1
 704 0020 9847     		blx	r3
 705              	.LVL61:
 706              		.loc 1 320 5 view .LVU201
 707 0022 0028     		cmp	r0, #0
 708 0024 36DB     		blt	.L64
 321:Drivers/BSP/Components/lan8742/lan8742.c ****   {
 322:Drivers/BSP/Components/lan8742/lan8742.c ****     return LAN8742_STATUS_READ_ERROR;
 323:Drivers/BSP/Components/lan8742/lan8742.c ****   }
 324:Drivers/BSP/Components/lan8742/lan8742.c ****   
 325:Drivers/BSP/Components/lan8742/lan8742.c ****   if((readval & LAN8742_BSR_LINK_STATUS) == 0)
 709              		.loc 1 325 3 is_stmt 1 view .LVU202
 710              		.loc 1 325 15 is_stmt 0 view .LVU203
 711 0026 019B     		ldr	r3, [sp, #4]
 712              		.loc 1 325 5 view .LVU204
 713 0028 5B07     		lsls	r3, r3, #29
 714 002a 2AD5     		bpl	.L72
 326:Drivers/BSP/Components/lan8742/lan8742.c ****   {
 327:Drivers/BSP/Components/lan8742/lan8742.c ****     /* Return Link Down status */
 328:Drivers/BSP/Components/lan8742/lan8742.c ****     return LAN8742_STATUS_LINK_DOWN;    
 329:Drivers/BSP/Components/lan8742/lan8742.c ****   }
 330:Drivers/BSP/Components/lan8742/lan8742.c ****   
 331:Drivers/BSP/Components/lan8742/lan8742.c ****   /* Check Auto negotiaition */
 332:Drivers/BSP/Components/lan8742/lan8742.c ****   if(pObj->IO.ReadReg(pObj->DevAddr, LAN8742_BCR, &readval) < 0)
 715              		.loc 1 332 3 is_stmt 1 view .LVU205
 716              		.loc 1 332 6 is_stmt 0 view .LVU206
 717 002c 6369     		ldr	r3, [r4, #20]
 718 002e 2068     		ldr	r0, [r4]
 719 0030 01AA     		add	r2, sp, #4
 720 0032 2946     		mov	r1, r5
 721 0034 9847     		blx	r3
 722              	.LVL62:
 723              		.loc 1 332 5 view .LVU207
 724 0036 0028     		cmp	r0, #0
 725 0038 2CDB     		blt	.L64
 333:Drivers/BSP/Components/lan8742/lan8742.c ****   {
 334:Drivers/BSP/Components/lan8742/lan8742.c ****     return LAN8742_STATUS_READ_ERROR;
 335:Drivers/BSP/Components/lan8742/lan8742.c ****   }
 336:Drivers/BSP/Components/lan8742/lan8742.c ****   
 337:Drivers/BSP/Components/lan8742/lan8742.c ****   if((readval & LAN8742_BCR_AUTONEGO_EN) != LAN8742_BCR_AUTONEGO_EN)
 726              		.loc 1 337 3 is_stmt 1 view .LVU208
ARM GAS  /var/folders/0z/tsy30v1j4xl4_7kw94k978ww0000gn/T//ccE5hoFH.s 			page 21


 727              		.loc 1 337 15 is_stmt 0 view .LVU209
 728 003a 019B     		ldr	r3, [sp, #4]
 729              		.loc 1 337 5 view .LVU210
 730 003c DD04     		lsls	r5, r3, #19
 731 003e 14D5     		bpl	.L87
 338:Drivers/BSP/Components/lan8742/lan8742.c ****   {
 339:Drivers/BSP/Components/lan8742/lan8742.c ****     if(((readval & LAN8742_BCR_SPEED_SELECT) == LAN8742_BCR_SPEED_SELECT) && ((readval & LAN8742_BC
 340:Drivers/BSP/Components/lan8742/lan8742.c ****     {
 341:Drivers/BSP/Components/lan8742/lan8742.c ****       return LAN8742_STATUS_100MBITS_FULLDUPLEX;
 342:Drivers/BSP/Components/lan8742/lan8742.c ****     }
 343:Drivers/BSP/Components/lan8742/lan8742.c ****     else if ((readval & LAN8742_BCR_SPEED_SELECT) == LAN8742_BCR_SPEED_SELECT)
 344:Drivers/BSP/Components/lan8742/lan8742.c ****     {
 345:Drivers/BSP/Components/lan8742/lan8742.c ****       return LAN8742_STATUS_100MBITS_HALFDUPLEX;
 346:Drivers/BSP/Components/lan8742/lan8742.c ****     }        
 347:Drivers/BSP/Components/lan8742/lan8742.c ****     else if ((readval & LAN8742_BCR_DUPLEX_MODE) == LAN8742_BCR_DUPLEX_MODE)
 348:Drivers/BSP/Components/lan8742/lan8742.c ****     {
 349:Drivers/BSP/Components/lan8742/lan8742.c ****       return LAN8742_STATUS_10MBITS_FULLDUPLEX;
 350:Drivers/BSP/Components/lan8742/lan8742.c ****     }
 351:Drivers/BSP/Components/lan8742/lan8742.c ****     else
 352:Drivers/BSP/Components/lan8742/lan8742.c ****     {
 353:Drivers/BSP/Components/lan8742/lan8742.c ****       return LAN8742_STATUS_10MBITS_HALFDUPLEX;
 354:Drivers/BSP/Components/lan8742/lan8742.c ****     }  		
 355:Drivers/BSP/Components/lan8742/lan8742.c ****   }
 356:Drivers/BSP/Components/lan8742/lan8742.c ****   else /* Auto Nego enabled */
 357:Drivers/BSP/Components/lan8742/lan8742.c ****   {
 358:Drivers/BSP/Components/lan8742/lan8742.c ****     if(pObj->IO.ReadReg(pObj->DevAddr, LAN8742_PHYSCSR, &readval) < 0)
 732              		.loc 1 358 5 is_stmt 1 view .LVU211
 733              		.loc 1 358 8 is_stmt 0 view .LVU212
 734 0040 6369     		ldr	r3, [r4, #20]
 735 0042 2068     		ldr	r0, [r4]
 736 0044 01AA     		add	r2, sp, #4
 737 0046 1F21     		movs	r1, #31
 738 0048 9847     		blx	r3
 739              	.LVL63:
 740              		.loc 1 358 7 view .LVU213
 741 004a 0028     		cmp	r0, #0
 742 004c 22DB     		blt	.L64
 359:Drivers/BSP/Components/lan8742/lan8742.c ****     {
 360:Drivers/BSP/Components/lan8742/lan8742.c ****       return LAN8742_STATUS_READ_ERROR;
 361:Drivers/BSP/Components/lan8742/lan8742.c ****     }
 362:Drivers/BSP/Components/lan8742/lan8742.c ****     
 363:Drivers/BSP/Components/lan8742/lan8742.c ****     /* Check if auto nego not done */
 364:Drivers/BSP/Components/lan8742/lan8742.c ****     if((readval & LAN8742_PHYSCSR_AUTONEGO_DONE) == 0)
 743              		.loc 1 364 5 is_stmt 1 view .LVU214
 744              		.loc 1 364 17 is_stmt 0 view .LVU215
 745 004e 019B     		ldr	r3, [sp, #4]
 746              		.loc 1 364 7 view .LVU216
 747 0050 DA04     		lsls	r2, r3, #19
 748 0052 1DD5     		bpl	.L73
 365:Drivers/BSP/Components/lan8742/lan8742.c ****     {
 366:Drivers/BSP/Components/lan8742/lan8742.c ****       return LAN8742_STATUS_AUTONEGO_NOTDONE;
 367:Drivers/BSP/Components/lan8742/lan8742.c ****     }
 368:Drivers/BSP/Components/lan8742/lan8742.c ****     
 369:Drivers/BSP/Components/lan8742/lan8742.c ****     if((readval & LAN8742_PHYSCSR_HCDSPEEDMASK) == LAN8742_PHYSCSR_100BTX_FD)
 749              		.loc 1 369 5 is_stmt 1 view .LVU217
 750              		.loc 1 369 17 is_stmt 0 view .LVU218
 751 0054 03F01C03 		and	r3, r3, #28
ARM GAS  /var/folders/0z/tsy30v1j4xl4_7kw94k978ww0000gn/T//ccE5hoFH.s 			page 22


 752              		.loc 1 369 7 view .LVU219
 753 0058 182B     		cmp	r3, #24
 754 005a 17D0     		beq	.L69
 370:Drivers/BSP/Components/lan8742/lan8742.c ****     {
 371:Drivers/BSP/Components/lan8742/lan8742.c ****       return LAN8742_STATUS_100MBITS_FULLDUPLEX;
 372:Drivers/BSP/Components/lan8742/lan8742.c ****     }
 373:Drivers/BSP/Components/lan8742/lan8742.c ****     else if ((readval & LAN8742_PHYSCSR_HCDSPEEDMASK) == LAN8742_PHYSCSR_100BTX_HD)
 755              		.loc 1 373 10 is_stmt 1 view .LVU220
 756              		.loc 1 373 13 is_stmt 0 view .LVU221
 757 005c 082B     		cmp	r3, #8
 758 005e 13D0     		beq	.L70
 374:Drivers/BSP/Components/lan8742/lan8742.c ****     {
 375:Drivers/BSP/Components/lan8742/lan8742.c ****       return LAN8742_STATUS_100MBITS_HALFDUPLEX;
 376:Drivers/BSP/Components/lan8742/lan8742.c ****     }
 377:Drivers/BSP/Components/lan8742/lan8742.c ****     else if ((readval & LAN8742_PHYSCSR_HCDSPEEDMASK) == LAN8742_PHYSCSR_10BT_FD)
 759              		.loc 1 377 10 is_stmt 1 view .LVU222
 760              		.loc 1 377 13 is_stmt 0 view .LVU223
 761 0060 142B     		cmp	r3, #20
 762 0062 0BD1     		bne	.L68
 763              	.L71:
 349:Drivers/BSP/Components/lan8742/lan8742.c ****     }
 764              		.loc 1 349 14 view .LVU224
 765 0064 0420     		movs	r0, #4
 378:Drivers/BSP/Components/lan8742/lan8742.c ****     {
 379:Drivers/BSP/Components/lan8742/lan8742.c ****       return LAN8742_STATUS_10MBITS_FULLDUPLEX;
 380:Drivers/BSP/Components/lan8742/lan8742.c ****     }
 381:Drivers/BSP/Components/lan8742/lan8742.c ****     else
 382:Drivers/BSP/Components/lan8742/lan8742.c ****     {
 383:Drivers/BSP/Components/lan8742/lan8742.c ****       return LAN8742_STATUS_10MBITS_HALFDUPLEX;
 384:Drivers/BSP/Components/lan8742/lan8742.c ****     }				
 385:Drivers/BSP/Components/lan8742/lan8742.c ****   }
 386:Drivers/BSP/Components/lan8742/lan8742.c **** }
 766              		.loc 1 386 1 view .LVU225
 767 0066 03B0     		add	sp, sp, #12
 768              		.cfi_remember_state
 769              		.cfi_def_cfa_offset 12
 770              		@ sp needed
 771 0068 30BD     		pop	{r4, r5, pc}
 772              	.LVL64:
 773              	.L87:
 774              		.cfi_restore_state
 339:Drivers/BSP/Components/lan8742/lan8742.c ****     {
 775              		.loc 1 339 5 is_stmt 1 view .LVU226
 339:Drivers/BSP/Components/lan8742/lan8742.c ****     {
 776              		.loc 1 339 75 is_stmt 0 view .LVU227
 777 006a 03F40452 		and	r2, r3, #8448
 339:Drivers/BSP/Components/lan8742/lan8742.c ****     {
 778              		.loc 1 339 7 view .LVU228
 779 006e B2F5045F 		cmp	r2, #8448
 780 0072 0BD0     		beq	.L69
 343:Drivers/BSP/Components/lan8742/lan8742.c ****     {
 781              		.loc 1 343 10 is_stmt 1 view .LVU229
 343:Drivers/BSP/Components/lan8742/lan8742.c ****     {
 782              		.loc 1 343 13 is_stmt 0 view .LVU230
 783 0074 9804     		lsls	r0, r3, #18
 784 0076 07D4     		bmi	.L70
 347:Drivers/BSP/Components/lan8742/lan8742.c ****     {
ARM GAS  /var/folders/0z/tsy30v1j4xl4_7kw94k978ww0000gn/T//ccE5hoFH.s 			page 23


 785              		.loc 1 347 10 is_stmt 1 view .LVU231
 347:Drivers/BSP/Components/lan8742/lan8742.c ****     {
 786              		.loc 1 347 13 is_stmt 0 view .LVU232
 787 0078 D905     		lsls	r1, r3, #23
 788 007a F3D4     		bmi	.L71
 789              	.L68:
 353:Drivers/BSP/Components/lan8742/lan8742.c ****     }  		
 790              		.loc 1 353 7 is_stmt 1 view .LVU233
 353:Drivers/BSP/Components/lan8742/lan8742.c ****     }  		
 791              		.loc 1 353 14 is_stmt 0 view .LVU234
 792 007c 0520     		movs	r0, #5
 793              	.L61:
 794              		.loc 1 386 1 view .LVU235
 795 007e 03B0     		add	sp, sp, #12
 796              		.cfi_remember_state
 797              		.cfi_def_cfa_offset 12
 798              		@ sp needed
 799 0080 30BD     		pop	{r4, r5, pc}
 800              	.LVL65:
 801              	.L72:
 802              		.cfi_restore_state
 328:Drivers/BSP/Components/lan8742/lan8742.c ****   }
 803              		.loc 1 328 12 view .LVU236
 804 0082 0120     		movs	r0, #1
 805              		.loc 1 386 1 view .LVU237
 806 0084 03B0     		add	sp, sp, #12
 807              		.cfi_remember_state
 808              		.cfi_def_cfa_offset 12
 809              		@ sp needed
 810 0086 30BD     		pop	{r4, r5, pc}
 811              	.LVL66:
 812              	.L70:
 813              		.cfi_restore_state
 345:Drivers/BSP/Components/lan8742/lan8742.c ****     }        
 814              		.loc 1 345 14 view .LVU238
 815 0088 0320     		movs	r0, #3
 816 008a F8E7     		b	.L61
 817              	.L69:
 341:Drivers/BSP/Components/lan8742/lan8742.c ****     }
 818              		.loc 1 341 14 view .LVU239
 819 008c 0220     		movs	r0, #2
 820 008e F6E7     		b	.L61
 821              	.L73:
 366:Drivers/BSP/Components/lan8742/lan8742.c ****     }
 822              		.loc 1 366 14 view .LVU240
 823 0090 0620     		movs	r0, #6
 824 0092 F4E7     		b	.L61
 825              	.L64:
 316:Drivers/BSP/Components/lan8742/lan8742.c ****   }
 826              		.loc 1 316 12 view .LVU241
 827 0094 6FF00400 		mvn	r0, #4
 828 0098 F1E7     		b	.L61
 829              		.cfi_endproc
 830              	.LFE6:
 832 009a 00BF     		.section	.text.LAN8742_SetLinkState,"ax",%progbits
 833              		.align	1
 834              		.p2align 2,,3
ARM GAS  /var/folders/0z/tsy30v1j4xl4_7kw94k978ww0000gn/T//ccE5hoFH.s 			page 24


 835              		.global	LAN8742_SetLinkState
 836              		.syntax unified
 837              		.thumb
 838              		.thumb_func
 840              	LAN8742_SetLinkState:
 841              	.LVL67:
 842              	.LFB7:
 387:Drivers/BSP/Components/lan8742/lan8742.c **** 
 388:Drivers/BSP/Components/lan8742/lan8742.c **** /**
 389:Drivers/BSP/Components/lan8742/lan8742.c ****   * @brief  Set the link state of LAN8742 device.
 390:Drivers/BSP/Components/lan8742/lan8742.c ****   * @param  pObj: Pointer to device object. 
 391:Drivers/BSP/Components/lan8742/lan8742.c ****   * @param  pLinkState: link state can be one of the following
 392:Drivers/BSP/Components/lan8742/lan8742.c ****   *         LAN8742_STATUS_100MBITS_FULLDUPLEX if 100Mb/s FD
 393:Drivers/BSP/Components/lan8742/lan8742.c ****   *         LAN8742_STATUS_100MBITS_HALFDUPLEX if 100Mb/s HD
 394:Drivers/BSP/Components/lan8742/lan8742.c ****   *         LAN8742_STATUS_10MBITS_FULLDUPLEX  if 10Mb/s FD
 395:Drivers/BSP/Components/lan8742/lan8742.c ****   *         LAN8742_STATUS_10MBITS_HALFDUPLEX  if 10Mb/s HD   
 396:Drivers/BSP/Components/lan8742/lan8742.c ****   * @retval LAN8742_STATUS_OK  if OK
 397:Drivers/BSP/Components/lan8742/lan8742.c ****   *         LAN8742_STATUS_ERROR  if parameter error  
 398:Drivers/BSP/Components/lan8742/lan8742.c ****   *         LAN8742_STATUS_READ_ERROR if connot read register
 399:Drivers/BSP/Components/lan8742/lan8742.c ****   *         LAN8742_STATUS_WRITE_ERROR if connot write to register
 400:Drivers/BSP/Components/lan8742/lan8742.c ****   */
 401:Drivers/BSP/Components/lan8742/lan8742.c **** int32_t LAN8742_SetLinkState(lan8742_Object_t *pObj, uint32_t LinkState)
 402:Drivers/BSP/Components/lan8742/lan8742.c **** {
 843              		.loc 1 402 1 is_stmt 1 view -0
 844              		.cfi_startproc
 845              		@ args = 0, pretend = 0, frame = 8
 846              		@ frame_needed = 0, uses_anonymous_args = 0
 403:Drivers/BSP/Components/lan8742/lan8742.c ****   uint32_t bcrvalue = 0;
 847              		.loc 1 403 3 view .LVU243
 402:Drivers/BSP/Components/lan8742/lan8742.c ****   uint32_t bcrvalue = 0;
 848              		.loc 1 402 1 is_stmt 0 view .LVU244
 849 0000 30B5     		push	{r4, r5, lr}
 850              		.cfi_def_cfa_offset 12
 851              		.cfi_offset 4, -12
 852              		.cfi_offset 5, -8
 853              		.cfi_offset 14, -4
 854 0002 0446     		mov	r4, r0
 855 0004 83B0     		sub	sp, sp, #12
 856              		.cfi_def_cfa_offset 24
 857              		.loc 1 403 12 view .LVU245
 858 0006 0023     		movs	r3, #0
 859 0008 0193     		str	r3, [sp, #4]
 404:Drivers/BSP/Components/lan8742/lan8742.c ****   int32_t status = LAN8742_STATUS_OK;
 860              		.loc 1 404 3 is_stmt 1 view .LVU246
 861              	.LVL68:
 405:Drivers/BSP/Components/lan8742/lan8742.c ****   
 406:Drivers/BSP/Components/lan8742/lan8742.c ****   if(pObj->IO.ReadReg(pObj->DevAddr, LAN8742_BCR, &bcrvalue) >= 0)
 862              		.loc 1 406 3 view .LVU247
 863              		.loc 1 406 6 is_stmt 0 view .LVU248
 864 000a 0068     		ldr	r0, [r0]
 865              	.LVL69:
 402:Drivers/BSP/Components/lan8742/lan8742.c ****   uint32_t bcrvalue = 0;
 866              		.loc 1 402 1 view .LVU249
 867 000c 0D46     		mov	r5, r1
 868              		.loc 1 406 6 view .LVU250
 869 000e 01AA     		add	r2, sp, #4
 870 0010 1946     		mov	r1, r3
ARM GAS  /var/folders/0z/tsy30v1j4xl4_7kw94k978ww0000gn/T//ccE5hoFH.s 			page 25


 871              	.LVL70:
 872              		.loc 1 406 6 view .LVU251
 873 0012 6369     		ldr	r3, [r4, #20]
 874 0014 9847     		blx	r3
 875              	.LVL71:
 876              		.loc 1 406 5 view .LVU252
 877 0016 0028     		cmp	r0, #0
 878 0018 1FDB     		blt	.L93
 407:Drivers/BSP/Components/lan8742/lan8742.c ****   {
 408:Drivers/BSP/Components/lan8742/lan8742.c ****     /* Disable link config (Auto nego, speed and duplex) */
 409:Drivers/BSP/Components/lan8742/lan8742.c ****     bcrvalue &= ~(LAN8742_BCR_AUTONEGO_EN | LAN8742_BCR_SPEED_SELECT | LAN8742_BCR_DUPLEX_MODE);
 879              		.loc 1 409 5 is_stmt 1 view .LVU253
 880              		.loc 1 409 14 is_stmt 0 view .LVU254
 881 001a 019A     		ldr	r2, [sp, #4]
 410:Drivers/BSP/Components/lan8742/lan8742.c ****     
 411:Drivers/BSP/Components/lan8742/lan8742.c ****     if(LinkState == LAN8742_STATUS_100MBITS_FULLDUPLEX)
 882              		.loc 1 411 7 view .LVU255
 883 001c 022D     		cmp	r5, #2
 409:Drivers/BSP/Components/lan8742/lan8742.c ****     
 884              		.loc 1 409 14 view .LVU256
 885 001e 22F44452 		bic	r2, r2, #12544
 886              		.loc 1 411 5 is_stmt 1 view .LVU257
 887              		.loc 1 411 7 is_stmt 0 view .LVU258
 888 0022 14D0     		beq	.L97
 412:Drivers/BSP/Components/lan8742/lan8742.c ****     {
 413:Drivers/BSP/Components/lan8742/lan8742.c ****       bcrvalue |= (LAN8742_BCR_SPEED_SELECT | LAN8742_BCR_DUPLEX_MODE);
 414:Drivers/BSP/Components/lan8742/lan8742.c ****     }
 415:Drivers/BSP/Components/lan8742/lan8742.c ****     else if (LinkState == LAN8742_STATUS_100MBITS_HALFDUPLEX)
 889              		.loc 1 415 10 is_stmt 1 view .LVU259
 890              		.loc 1 415 13 is_stmt 0 view .LVU260
 891 0024 032D     		cmp	r5, #3
 892 0026 0FD0     		beq	.L98
 416:Drivers/BSP/Components/lan8742/lan8742.c ****     {
 417:Drivers/BSP/Components/lan8742/lan8742.c ****       bcrvalue |= LAN8742_BCR_SPEED_SELECT;
 418:Drivers/BSP/Components/lan8742/lan8742.c ****     }
 419:Drivers/BSP/Components/lan8742/lan8742.c ****     else if (LinkState == LAN8742_STATUS_10MBITS_FULLDUPLEX)
 893              		.loc 1 419 10 is_stmt 1 view .LVU261
 894              		.loc 1 419 13 is_stmt 0 view .LVU262
 895 0028 042D     		cmp	r5, #4
 896 002a 13D1     		bne	.L94
 420:Drivers/BSP/Components/lan8742/lan8742.c ****     {
 421:Drivers/BSP/Components/lan8742/lan8742.c ****       bcrvalue |= LAN8742_BCR_DUPLEX_MODE;
 897              		.loc 1 421 7 is_stmt 1 view .LVU263
 898              		.loc 1 421 16 is_stmt 0 view .LVU264
 899 002c 42F48072 		orr	r2, r2, #256
 422:Drivers/BSP/Components/lan8742/lan8742.c ****     }
 423:Drivers/BSP/Components/lan8742/lan8742.c ****     else
 424:Drivers/BSP/Components/lan8742/lan8742.c ****     {
 425:Drivers/BSP/Components/lan8742/lan8742.c ****       /* Wrong link status parameter */
 426:Drivers/BSP/Components/lan8742/lan8742.c ****       status = LAN8742_STATUS_ERROR;
 427:Drivers/BSP/Components/lan8742/lan8742.c ****     }	
 428:Drivers/BSP/Components/lan8742/lan8742.c ****   }
 429:Drivers/BSP/Components/lan8742/lan8742.c ****   else
 430:Drivers/BSP/Components/lan8742/lan8742.c ****   {
 431:Drivers/BSP/Components/lan8742/lan8742.c ****     status = LAN8742_STATUS_READ_ERROR;
 432:Drivers/BSP/Components/lan8742/lan8742.c ****   }
 433:Drivers/BSP/Components/lan8742/lan8742.c ****   
ARM GAS  /var/folders/0z/tsy30v1j4xl4_7kw94k978ww0000gn/T//ccE5hoFH.s 			page 26


 434:Drivers/BSP/Components/lan8742/lan8742.c ****   if(status == LAN8742_STATUS_OK)
 900              		.loc 1 434 3 is_stmt 1 view .LVU265
 901              	.L91:
 435:Drivers/BSP/Components/lan8742/lan8742.c ****   {
 436:Drivers/BSP/Components/lan8742/lan8742.c ****     /* Apply configuration */
 437:Drivers/BSP/Components/lan8742/lan8742.c ****     if(pObj->IO.WriteReg(pObj->DevAddr, LAN8742_BCR, bcrvalue) < 0)
 902              		.loc 1 437 8 is_stmt 0 view .LVU266
 903 0030 2369     		ldr	r3, [r4, #16]
 904 0032 2068     		ldr	r0, [r4]
 413:Drivers/BSP/Components/lan8742/lan8742.c ****     }
 905              		.loc 1 413 16 view .LVU267
 906 0034 0192     		str	r2, [sp, #4]
 907              		.loc 1 437 5 is_stmt 1 view .LVU268
 908              		.loc 1 437 8 is_stmt 0 view .LVU269
 909 0036 0021     		movs	r1, #0
 910 0038 9847     		blx	r3
 911              	.LVL72:
 438:Drivers/BSP/Components/lan8742/lan8742.c ****     {
 439:Drivers/BSP/Components/lan8742/lan8742.c ****       status = LAN8742_STATUS_WRITE_ERROR;
 912              		.loc 1 439 14 view .LVU270
 913 003a 0028     		cmp	r0, #0
 914 003c ACBF     		ite	ge
 915 003e 0020     		movge	r0, #0
 916 0040 6FF00300 		mvnlt	r0, #3
 917              	.L88:
 440:Drivers/BSP/Components/lan8742/lan8742.c ****     }
 441:Drivers/BSP/Components/lan8742/lan8742.c ****   }
 442:Drivers/BSP/Components/lan8742/lan8742.c ****   
 443:Drivers/BSP/Components/lan8742/lan8742.c ****   return status;
 444:Drivers/BSP/Components/lan8742/lan8742.c **** }
 918              		.loc 1 444 1 view .LVU271
 919 0044 03B0     		add	sp, sp, #12
 920              		.cfi_remember_state
 921              		.cfi_def_cfa_offset 12
 922              		@ sp needed
 923 0046 30BD     		pop	{r4, r5, pc}
 924              	.LVL73:
 925              	.L98:
 926              		.cfi_restore_state
 417:Drivers/BSP/Components/lan8742/lan8742.c ****     }
 927              		.loc 1 417 7 is_stmt 1 view .LVU272
 417:Drivers/BSP/Components/lan8742/lan8742.c ****     }
 928              		.loc 1 417 16 is_stmt 0 view .LVU273
 929 0048 42F40052 		orr	r2, r2, #8192
 434:Drivers/BSP/Components/lan8742/lan8742.c ****   {
 930              		.loc 1 434 3 is_stmt 1 view .LVU274
 931 004c F0E7     		b	.L91
 932              	.L97:
 413:Drivers/BSP/Components/lan8742/lan8742.c ****     }
 933              		.loc 1 413 7 view .LVU275
 413:Drivers/BSP/Components/lan8742/lan8742.c ****     }
 934              		.loc 1 413 16 is_stmt 0 view .LVU276
 935 004e 42F40452 		orr	r2, r2, #8448
 434:Drivers/BSP/Components/lan8742/lan8742.c ****   {
 936              		.loc 1 434 3 is_stmt 1 view .LVU277
 937 0052 EDE7     		b	.L91
 938              	.L94:
ARM GAS  /var/folders/0z/tsy30v1j4xl4_7kw94k978ww0000gn/T//ccE5hoFH.s 			page 27


 426:Drivers/BSP/Components/lan8742/lan8742.c ****     }	
 939              		.loc 1 426 14 is_stmt 0 view .LVU278
 940 0054 4FF0FF30 		mov	r0, #-1
 941 0058 F4E7     		b	.L88
 942              	.L93:
 431:Drivers/BSP/Components/lan8742/lan8742.c ****   }
 943              		.loc 1 431 12 view .LVU279
 944 005a 6FF00400 		mvn	r0, #4
 945 005e F1E7     		b	.L88
 946              		.cfi_endproc
 947              	.LFE7:
 949              		.section	.text.LAN8742_EnableLoopbackMode,"ax",%progbits
 950              		.align	1
 951              		.p2align 2,,3
 952              		.global	LAN8742_EnableLoopbackMode
 953              		.syntax unified
 954              		.thumb
 955              		.thumb_func
 957              	LAN8742_EnableLoopbackMode:
 958              	.LVL74:
 959              	.LFB8:
 445:Drivers/BSP/Components/lan8742/lan8742.c **** 
 446:Drivers/BSP/Components/lan8742/lan8742.c **** /**
 447:Drivers/BSP/Components/lan8742/lan8742.c ****   * @brief  Enable loopback mode.
 448:Drivers/BSP/Components/lan8742/lan8742.c ****   * @param  pObj: Pointer to device object. 
 449:Drivers/BSP/Components/lan8742/lan8742.c ****   * @retval LAN8742_STATUS_OK  if OK
 450:Drivers/BSP/Components/lan8742/lan8742.c ****   *         LAN8742_STATUS_READ_ERROR if connot read register
 451:Drivers/BSP/Components/lan8742/lan8742.c ****   *         LAN8742_STATUS_WRITE_ERROR if connot write to register
 452:Drivers/BSP/Components/lan8742/lan8742.c ****   */
 453:Drivers/BSP/Components/lan8742/lan8742.c **** int32_t LAN8742_EnableLoopbackMode(lan8742_Object_t *pObj)
 454:Drivers/BSP/Components/lan8742/lan8742.c **** {
 960              		.loc 1 454 1 is_stmt 1 view -0
 961              		.cfi_startproc
 962              		@ args = 0, pretend = 0, frame = 8
 963              		@ frame_needed = 0, uses_anonymous_args = 0
 455:Drivers/BSP/Components/lan8742/lan8742.c ****   uint32_t readval = 0;
 964              		.loc 1 455 3 view .LVU281
 454:Drivers/BSP/Components/lan8742/lan8742.c ****   uint32_t readval = 0;
 965              		.loc 1 454 1 is_stmt 0 view .LVU282
 966 0000 30B5     		push	{r4, r5, lr}
 967              		.cfi_def_cfa_offset 12
 968              		.cfi_offset 4, -12
 969              		.cfi_offset 5, -8
 970              		.cfi_offset 14, -4
 971 0002 83B0     		sub	sp, sp, #12
 972              		.cfi_def_cfa_offset 24
 973              		.loc 1 455 12 view .LVU283
 974 0004 0025     		movs	r5, #0
 456:Drivers/BSP/Components/lan8742/lan8742.c ****   int32_t status = LAN8742_STATUS_OK;
 457:Drivers/BSP/Components/lan8742/lan8742.c ****   
 458:Drivers/BSP/Components/lan8742/lan8742.c ****   if(pObj->IO.ReadReg(pObj->DevAddr, LAN8742_BCR, &readval) >= 0)
 975              		.loc 1 458 6 view .LVU284
 976 0006 4369     		ldr	r3, [r0, #20]
 455:Drivers/BSP/Components/lan8742/lan8742.c ****   int32_t status = LAN8742_STATUS_OK;
 977              		.loc 1 455 12 view .LVU285
 978 0008 0195     		str	r5, [sp, #4]
 456:Drivers/BSP/Components/lan8742/lan8742.c ****   int32_t status = LAN8742_STATUS_OK;
ARM GAS  /var/folders/0z/tsy30v1j4xl4_7kw94k978ww0000gn/T//ccE5hoFH.s 			page 28


 979              		.loc 1 456 3 is_stmt 1 view .LVU286
 980              	.LVL75:
 981              		.loc 1 458 3 view .LVU287
 454:Drivers/BSP/Components/lan8742/lan8742.c ****   uint32_t readval = 0;
 982              		.loc 1 454 1 is_stmt 0 view .LVU288
 983 000a 0446     		mov	r4, r0
 984              		.loc 1 458 6 view .LVU289
 985 000c 01AA     		add	r2, sp, #4
 986 000e 0068     		ldr	r0, [r0]
 987              	.LVL76:
 988              		.loc 1 458 6 view .LVU290
 989 0010 2946     		mov	r1, r5
 990 0012 9847     		blx	r3
 991              	.LVL77:
 992              		.loc 1 458 5 view .LVU291
 993 0014 A842     		cmp	r0, r5
 994 0016 0EDB     		blt	.L101
 459:Drivers/BSP/Components/lan8742/lan8742.c ****   {
 460:Drivers/BSP/Components/lan8742/lan8742.c ****     readval |= LAN8742_BCR_LOOPBACK;
 995              		.loc 1 460 5 is_stmt 1 view .LVU292
 996              		.loc 1 460 13 is_stmt 0 view .LVU293
 997 0018 019A     		ldr	r2, [sp, #4]
 461:Drivers/BSP/Components/lan8742/lan8742.c ****     
 462:Drivers/BSP/Components/lan8742/lan8742.c ****     /* Apply configuration */
 463:Drivers/BSP/Components/lan8742/lan8742.c ****     if(pObj->IO.WriteReg(pObj->DevAddr, LAN8742_BCR, readval) < 0)
 998              		.loc 1 463 8 view .LVU294
 999 001a 2369     		ldr	r3, [r4, #16]
 1000 001c 2068     		ldr	r0, [r4]
 460:Drivers/BSP/Components/lan8742/lan8742.c ****     
 1001              		.loc 1 460 13 view .LVU295
 1002 001e 42F48042 		orr	r2, r2, #16384
 1003 0022 0192     		str	r2, [sp, #4]
 1004              		.loc 1 463 5 is_stmt 1 view .LVU296
 1005              		.loc 1 463 8 is_stmt 0 view .LVU297
 1006 0024 2946     		mov	r1, r5
 1007 0026 9847     		blx	r3
 1008              	.LVL78:
 464:Drivers/BSP/Components/lan8742/lan8742.c ****     {
 465:Drivers/BSP/Components/lan8742/lan8742.c ****       status = LAN8742_STATUS_WRITE_ERROR;
 1009              		.loc 1 465 14 view .LVU298
 1010 0028 A842     		cmp	r0, r5
 1011 002a ACBF     		ite	ge
 1012 002c 2846     		movge	r0, r5
 1013 002e 6FF00300 		mvnlt	r0, #3
 1014              	.L99:
 466:Drivers/BSP/Components/lan8742/lan8742.c ****     }
 467:Drivers/BSP/Components/lan8742/lan8742.c ****   }
 468:Drivers/BSP/Components/lan8742/lan8742.c ****   else
 469:Drivers/BSP/Components/lan8742/lan8742.c ****   {
 470:Drivers/BSP/Components/lan8742/lan8742.c ****     status = LAN8742_STATUS_READ_ERROR;
 471:Drivers/BSP/Components/lan8742/lan8742.c ****   }
 472:Drivers/BSP/Components/lan8742/lan8742.c ****   
 473:Drivers/BSP/Components/lan8742/lan8742.c ****   return status;
 474:Drivers/BSP/Components/lan8742/lan8742.c **** }
 1015              		.loc 1 474 1 view .LVU299
 1016 0032 03B0     		add	sp, sp, #12
 1017              		.cfi_remember_state
ARM GAS  /var/folders/0z/tsy30v1j4xl4_7kw94k978ww0000gn/T//ccE5hoFH.s 			page 29


 1018              		.cfi_def_cfa_offset 12
 1019              		@ sp needed
 1020 0034 30BD     		pop	{r4, r5, pc}
 1021              	.LVL79:
 1022              	.L101:
 1023              		.cfi_restore_state
 470:Drivers/BSP/Components/lan8742/lan8742.c ****   }
 1024              		.loc 1 470 12 view .LVU300
 1025 0036 6FF00400 		mvn	r0, #4
 1026 003a FAE7     		b	.L99
 1027              		.cfi_endproc
 1028              	.LFE8:
 1030              		.section	.text.LAN8742_DisableLoopbackMode,"ax",%progbits
 1031              		.align	1
 1032              		.p2align 2,,3
 1033              		.global	LAN8742_DisableLoopbackMode
 1034              		.syntax unified
 1035              		.thumb
 1036              		.thumb_func
 1038              	LAN8742_DisableLoopbackMode:
 1039              	.LVL80:
 1040              	.LFB9:
 475:Drivers/BSP/Components/lan8742/lan8742.c **** 
 476:Drivers/BSP/Components/lan8742/lan8742.c **** /**
 477:Drivers/BSP/Components/lan8742/lan8742.c ****   * @brief  Disable loopback mode.
 478:Drivers/BSP/Components/lan8742/lan8742.c ****   * @param  pObj: Pointer to device object. 
 479:Drivers/BSP/Components/lan8742/lan8742.c ****   * @retval LAN8742_STATUS_OK  if OK
 480:Drivers/BSP/Components/lan8742/lan8742.c ****   *         LAN8742_STATUS_READ_ERROR if connot read register
 481:Drivers/BSP/Components/lan8742/lan8742.c ****   *         LAN8742_STATUS_WRITE_ERROR if connot write to register
 482:Drivers/BSP/Components/lan8742/lan8742.c ****   */
 483:Drivers/BSP/Components/lan8742/lan8742.c **** int32_t LAN8742_DisableLoopbackMode(lan8742_Object_t *pObj)
 484:Drivers/BSP/Components/lan8742/lan8742.c **** {
 1041              		.loc 1 484 1 is_stmt 1 view -0
 1042              		.cfi_startproc
 1043              		@ args = 0, pretend = 0, frame = 8
 1044              		@ frame_needed = 0, uses_anonymous_args = 0
 485:Drivers/BSP/Components/lan8742/lan8742.c ****   uint32_t readval = 0;
 1045              		.loc 1 485 3 view .LVU302
 484:Drivers/BSP/Components/lan8742/lan8742.c ****   uint32_t readval = 0;
 1046              		.loc 1 484 1 is_stmt 0 view .LVU303
 1047 0000 30B5     		push	{r4, r5, lr}
 1048              		.cfi_def_cfa_offset 12
 1049              		.cfi_offset 4, -12
 1050              		.cfi_offset 5, -8
 1051              		.cfi_offset 14, -4
 1052 0002 83B0     		sub	sp, sp, #12
 1053              		.cfi_def_cfa_offset 24
 1054              		.loc 1 485 12 view .LVU304
 1055 0004 0025     		movs	r5, #0
 486:Drivers/BSP/Components/lan8742/lan8742.c ****   int32_t status = LAN8742_STATUS_OK;
 487:Drivers/BSP/Components/lan8742/lan8742.c ****   
 488:Drivers/BSP/Components/lan8742/lan8742.c ****   if(pObj->IO.ReadReg(pObj->DevAddr, LAN8742_BCR, &readval) >= 0)
 1056              		.loc 1 488 6 view .LVU305
 1057 0006 4369     		ldr	r3, [r0, #20]
 485:Drivers/BSP/Components/lan8742/lan8742.c ****   int32_t status = LAN8742_STATUS_OK;
 1058              		.loc 1 485 12 view .LVU306
 1059 0008 0195     		str	r5, [sp, #4]
ARM GAS  /var/folders/0z/tsy30v1j4xl4_7kw94k978ww0000gn/T//ccE5hoFH.s 			page 30


 486:Drivers/BSP/Components/lan8742/lan8742.c ****   int32_t status = LAN8742_STATUS_OK;
 1060              		.loc 1 486 3 is_stmt 1 view .LVU307
 1061              	.LVL81:
 1062              		.loc 1 488 3 view .LVU308
 484:Drivers/BSP/Components/lan8742/lan8742.c ****   uint32_t readval = 0;
 1063              		.loc 1 484 1 is_stmt 0 view .LVU309
 1064 000a 0446     		mov	r4, r0
 1065              		.loc 1 488 6 view .LVU310
 1066 000c 01AA     		add	r2, sp, #4
 1067 000e 0068     		ldr	r0, [r0]
 1068              	.LVL82:
 1069              		.loc 1 488 6 view .LVU311
 1070 0010 2946     		mov	r1, r5
 1071 0012 9847     		blx	r3
 1072              	.LVL83:
 1073              		.loc 1 488 5 view .LVU312
 1074 0014 A842     		cmp	r0, r5
 1075 0016 0EDB     		blt	.L106
 489:Drivers/BSP/Components/lan8742/lan8742.c ****   {
 490:Drivers/BSP/Components/lan8742/lan8742.c ****     readval &= ~LAN8742_BCR_LOOPBACK;
 1076              		.loc 1 490 5 is_stmt 1 view .LVU313
 1077              		.loc 1 490 13 is_stmt 0 view .LVU314
 1078 0018 019A     		ldr	r2, [sp, #4]
 491:Drivers/BSP/Components/lan8742/lan8742.c ****   
 492:Drivers/BSP/Components/lan8742/lan8742.c ****     /* Apply configuration */
 493:Drivers/BSP/Components/lan8742/lan8742.c ****     if(pObj->IO.WriteReg(pObj->DevAddr, LAN8742_BCR, readval) < 0)
 1079              		.loc 1 493 8 view .LVU315
 1080 001a 2369     		ldr	r3, [r4, #16]
 1081 001c 2068     		ldr	r0, [r4]
 490:Drivers/BSP/Components/lan8742/lan8742.c ****   
 1082              		.loc 1 490 13 view .LVU316
 1083 001e 22F48042 		bic	r2, r2, #16384
 1084 0022 0192     		str	r2, [sp, #4]
 1085              		.loc 1 493 5 is_stmt 1 view .LVU317
 1086              		.loc 1 493 8 is_stmt 0 view .LVU318
 1087 0024 2946     		mov	r1, r5
 1088 0026 9847     		blx	r3
 1089              	.LVL84:
 494:Drivers/BSP/Components/lan8742/lan8742.c ****     {
 495:Drivers/BSP/Components/lan8742/lan8742.c ****       status =  LAN8742_STATUS_WRITE_ERROR;
 1090              		.loc 1 495 14 view .LVU319
 1091 0028 A842     		cmp	r0, r5
 1092 002a ACBF     		ite	ge
 1093 002c 2846     		movge	r0, r5
 1094 002e 6FF00300 		mvnlt	r0, #3
 1095              	.L104:
 496:Drivers/BSP/Components/lan8742/lan8742.c ****     }
 497:Drivers/BSP/Components/lan8742/lan8742.c ****   }
 498:Drivers/BSP/Components/lan8742/lan8742.c ****   else
 499:Drivers/BSP/Components/lan8742/lan8742.c ****   {
 500:Drivers/BSP/Components/lan8742/lan8742.c ****     status = LAN8742_STATUS_READ_ERROR;
 501:Drivers/BSP/Components/lan8742/lan8742.c ****   }
 502:Drivers/BSP/Components/lan8742/lan8742.c ****    
 503:Drivers/BSP/Components/lan8742/lan8742.c ****   return status;
 504:Drivers/BSP/Components/lan8742/lan8742.c **** }
 1096              		.loc 1 504 1 view .LVU320
 1097 0032 03B0     		add	sp, sp, #12
ARM GAS  /var/folders/0z/tsy30v1j4xl4_7kw94k978ww0000gn/T//ccE5hoFH.s 			page 31


 1098              		.cfi_remember_state
 1099              		.cfi_def_cfa_offset 12
 1100              		@ sp needed
 1101 0034 30BD     		pop	{r4, r5, pc}
 1102              	.LVL85:
 1103              	.L106:
 1104              		.cfi_restore_state
 500:Drivers/BSP/Components/lan8742/lan8742.c ****   }
 1105              		.loc 1 500 12 view .LVU321
 1106 0036 6FF00400 		mvn	r0, #4
 1107 003a FAE7     		b	.L104
 1108              		.cfi_endproc
 1109              	.LFE9:
 1111              		.section	.text.LAN8742_EnableIT,"ax",%progbits
 1112              		.align	1
 1113              		.p2align 2,,3
 1114              		.global	LAN8742_EnableIT
 1115              		.syntax unified
 1116              		.thumb
 1117              		.thumb_func
 1119              	LAN8742_EnableIT:
 1120              	.LVL86:
 1121              	.LFB10:
 505:Drivers/BSP/Components/lan8742/lan8742.c **** 
 506:Drivers/BSP/Components/lan8742/lan8742.c **** /**
 507:Drivers/BSP/Components/lan8742/lan8742.c ****   * @brief  Enable IT source.
 508:Drivers/BSP/Components/lan8742/lan8742.c ****   * @param  pObj: Pointer to device object. 
 509:Drivers/BSP/Components/lan8742/lan8742.c ****   * @param  Interrupt: IT source to be enabled
 510:Drivers/BSP/Components/lan8742/lan8742.c ****   *         should be a value or a combination of the following:
 511:Drivers/BSP/Components/lan8742/lan8742.c ****   *         LAN8742_WOL_IT                     
 512:Drivers/BSP/Components/lan8742/lan8742.c ****   *         LAN8742_ENERGYON_IT                
 513:Drivers/BSP/Components/lan8742/lan8742.c ****   *         LAN8742_AUTONEGO_COMPLETE_IT       
 514:Drivers/BSP/Components/lan8742/lan8742.c ****   *         LAN8742_REMOTE_FAULT_IT            
 515:Drivers/BSP/Components/lan8742/lan8742.c ****   *         LAN8742_LINK_DOWN_IT               
 516:Drivers/BSP/Components/lan8742/lan8742.c ****   *         LAN8742_AUTONEGO_LP_ACK_IT         
 517:Drivers/BSP/Components/lan8742/lan8742.c ****   *         LAN8742_PARALLEL_DETECTION_FAULT_IT
 518:Drivers/BSP/Components/lan8742/lan8742.c ****   *         LAN8742_AUTONEGO_PAGE_RECEIVED_IT
 519:Drivers/BSP/Components/lan8742/lan8742.c ****   * @retval LAN8742_STATUS_OK  if OK
 520:Drivers/BSP/Components/lan8742/lan8742.c ****   *         LAN8742_STATUS_READ_ERROR if connot read register
 521:Drivers/BSP/Components/lan8742/lan8742.c ****   *         LAN8742_STATUS_WRITE_ERROR if connot write to register
 522:Drivers/BSP/Components/lan8742/lan8742.c ****   */
 523:Drivers/BSP/Components/lan8742/lan8742.c **** int32_t LAN8742_EnableIT(lan8742_Object_t *pObj, uint32_t Interrupt)
 524:Drivers/BSP/Components/lan8742/lan8742.c **** {
 1122              		.loc 1 524 1 is_stmt 1 view -0
 1123              		.cfi_startproc
 1124              		@ args = 0, pretend = 0, frame = 8
 1125              		@ frame_needed = 0, uses_anonymous_args = 0
 525:Drivers/BSP/Components/lan8742/lan8742.c ****   uint32_t readval = 0;
 1126              		.loc 1 525 3 view .LVU323
 524:Drivers/BSP/Components/lan8742/lan8742.c ****   uint32_t readval = 0;
 1127              		.loc 1 524 1 is_stmt 0 view .LVU324
 1128 0000 30B5     		push	{r4, r5, lr}
 1129              		.cfi_def_cfa_offset 12
 1130              		.cfi_offset 4, -12
 1131              		.cfi_offset 5, -8
 1132              		.cfi_offset 14, -4
 1133 0002 0446     		mov	r4, r0
ARM GAS  /var/folders/0z/tsy30v1j4xl4_7kw94k978ww0000gn/T//ccE5hoFH.s 			page 32


 1134 0004 83B0     		sub	sp, sp, #12
 1135              		.cfi_def_cfa_offset 24
 1136              		.loc 1 525 12 view .LVU325
 1137 0006 0022     		movs	r2, #0
 1138 0008 0192     		str	r2, [sp, #4]
 526:Drivers/BSP/Components/lan8742/lan8742.c ****   int32_t status = LAN8742_STATUS_OK;
 1139              		.loc 1 526 3 is_stmt 1 view .LVU326
 1140              	.LVL87:
 527:Drivers/BSP/Components/lan8742/lan8742.c ****   
 528:Drivers/BSP/Components/lan8742/lan8742.c ****   if(pObj->IO.ReadReg(pObj->DevAddr, LAN8742_IMR, &readval) >= 0)
 1141              		.loc 1 528 3 view .LVU327
 1142              		.loc 1 528 6 is_stmt 0 view .LVU328
 1143 000a 0068     		ldr	r0, [r0]
 1144              	.LVL88:
 1145              		.loc 1 528 6 view .LVU329
 1146 000c 6369     		ldr	r3, [r4, #20]
 524:Drivers/BSP/Components/lan8742/lan8742.c ****   uint32_t readval = 0;
 1147              		.loc 1 524 1 view .LVU330
 1148 000e 0D46     		mov	r5, r1
 1149              		.loc 1 528 6 view .LVU331
 1150 0010 01AA     		add	r2, sp, #4
 1151 0012 1E21     		movs	r1, #30
 1152              	.LVL89:
 1153              		.loc 1 528 6 view .LVU332
 1154 0014 9847     		blx	r3
 1155              	.LVL90:
 1156              		.loc 1 528 5 view .LVU333
 1157 0016 0028     		cmp	r0, #0
 1158 0018 0DDB     		blt	.L111
 529:Drivers/BSP/Components/lan8742/lan8742.c ****   {
 530:Drivers/BSP/Components/lan8742/lan8742.c ****     readval |= Interrupt;
 1159              		.loc 1 530 5 is_stmt 1 view .LVU334
 1160              		.loc 1 530 13 is_stmt 0 view .LVU335
 1161 001a 019A     		ldr	r2, [sp, #4]
 531:Drivers/BSP/Components/lan8742/lan8742.c ****   
 532:Drivers/BSP/Components/lan8742/lan8742.c ****     /* Apply configuration */
 533:Drivers/BSP/Components/lan8742/lan8742.c ****     if(pObj->IO.WriteReg(pObj->DevAddr, LAN8742_IMR, readval) < 0)
 1162              		.loc 1 533 8 view .LVU336
 1163 001c 2369     		ldr	r3, [r4, #16]
 1164 001e 2068     		ldr	r0, [r4]
 530:Drivers/BSP/Components/lan8742/lan8742.c ****   
 1165              		.loc 1 530 13 view .LVU337
 1166 0020 2A43     		orrs	r2, r2, r5
 1167 0022 0192     		str	r2, [sp, #4]
 1168              		.loc 1 533 5 is_stmt 1 view .LVU338
 1169              		.loc 1 533 8 is_stmt 0 view .LVU339
 1170 0024 1E21     		movs	r1, #30
 1171 0026 9847     		blx	r3
 1172              	.LVL91:
 534:Drivers/BSP/Components/lan8742/lan8742.c ****     {
 535:Drivers/BSP/Components/lan8742/lan8742.c ****       status =  LAN8742_STATUS_WRITE_ERROR;
 1173              		.loc 1 535 14 view .LVU340
 1174 0028 0028     		cmp	r0, #0
 1175 002a ACBF     		ite	ge
 1176 002c 0020     		movge	r0, #0
 1177 002e 6FF00300 		mvnlt	r0, #3
 1178              	.L109:
ARM GAS  /var/folders/0z/tsy30v1j4xl4_7kw94k978ww0000gn/T//ccE5hoFH.s 			page 33


 536:Drivers/BSP/Components/lan8742/lan8742.c ****     }
 537:Drivers/BSP/Components/lan8742/lan8742.c ****   }
 538:Drivers/BSP/Components/lan8742/lan8742.c ****   else
 539:Drivers/BSP/Components/lan8742/lan8742.c ****   {
 540:Drivers/BSP/Components/lan8742/lan8742.c ****     status = LAN8742_STATUS_READ_ERROR;
 541:Drivers/BSP/Components/lan8742/lan8742.c ****   }
 542:Drivers/BSP/Components/lan8742/lan8742.c ****    
 543:Drivers/BSP/Components/lan8742/lan8742.c ****   return status;
 544:Drivers/BSP/Components/lan8742/lan8742.c **** }
 1179              		.loc 1 544 1 view .LVU341
 1180 0032 03B0     		add	sp, sp, #12
 1181              		.cfi_remember_state
 1182              		.cfi_def_cfa_offset 12
 1183              		@ sp needed
 1184 0034 30BD     		pop	{r4, r5, pc}
 1185              	.LVL92:
 1186              	.L111:
 1187              		.cfi_restore_state
 540:Drivers/BSP/Components/lan8742/lan8742.c ****   }
 1188              		.loc 1 540 12 view .LVU342
 1189 0036 6FF00400 		mvn	r0, #4
 1190 003a FAE7     		b	.L109
 1191              		.cfi_endproc
 1192              	.LFE10:
 1194              		.section	.text.LAN8742_DisableIT,"ax",%progbits
 1195              		.align	1
 1196              		.p2align 2,,3
 1197              		.global	LAN8742_DisableIT
 1198              		.syntax unified
 1199              		.thumb
 1200              		.thumb_func
 1202              	LAN8742_DisableIT:
 1203              	.LVL93:
 1204              	.LFB11:
 545:Drivers/BSP/Components/lan8742/lan8742.c **** 
 546:Drivers/BSP/Components/lan8742/lan8742.c **** /**
 547:Drivers/BSP/Components/lan8742/lan8742.c ****   * @brief  Disable IT source.
 548:Drivers/BSP/Components/lan8742/lan8742.c ****   * @param  pObj: Pointer to device object. 
 549:Drivers/BSP/Components/lan8742/lan8742.c ****   * @param  Interrupt: IT source to be disabled
 550:Drivers/BSP/Components/lan8742/lan8742.c ****   *         should be a value or a combination of the following:
 551:Drivers/BSP/Components/lan8742/lan8742.c ****   *         LAN8742_WOL_IT                     
 552:Drivers/BSP/Components/lan8742/lan8742.c ****   *         LAN8742_ENERGYON_IT                
 553:Drivers/BSP/Components/lan8742/lan8742.c ****   *         LAN8742_AUTONEGO_COMPLETE_IT       
 554:Drivers/BSP/Components/lan8742/lan8742.c ****   *         LAN8742_REMOTE_FAULT_IT            
 555:Drivers/BSP/Components/lan8742/lan8742.c ****   *         LAN8742_LINK_DOWN_IT               
 556:Drivers/BSP/Components/lan8742/lan8742.c ****   *         LAN8742_AUTONEGO_LP_ACK_IT         
 557:Drivers/BSP/Components/lan8742/lan8742.c ****   *         LAN8742_PARALLEL_DETECTION_FAULT_IT
 558:Drivers/BSP/Components/lan8742/lan8742.c ****   *         LAN8742_AUTONEGO_PAGE_RECEIVED_IT
 559:Drivers/BSP/Components/lan8742/lan8742.c ****   * @retval LAN8742_STATUS_OK  if OK
 560:Drivers/BSP/Components/lan8742/lan8742.c ****   *         LAN8742_STATUS_READ_ERROR if connot read register
 561:Drivers/BSP/Components/lan8742/lan8742.c ****   *         LAN8742_STATUS_WRITE_ERROR if connot write to register
 562:Drivers/BSP/Components/lan8742/lan8742.c ****   */
 563:Drivers/BSP/Components/lan8742/lan8742.c **** int32_t LAN8742_DisableIT(lan8742_Object_t *pObj, uint32_t Interrupt)
 564:Drivers/BSP/Components/lan8742/lan8742.c **** {
 1205              		.loc 1 564 1 is_stmt 1 view -0
 1206              		.cfi_startproc
 1207              		@ args = 0, pretend = 0, frame = 8
ARM GAS  /var/folders/0z/tsy30v1j4xl4_7kw94k978ww0000gn/T//ccE5hoFH.s 			page 34


 1208              		@ frame_needed = 0, uses_anonymous_args = 0
 565:Drivers/BSP/Components/lan8742/lan8742.c ****   uint32_t readval = 0;
 1209              		.loc 1 565 3 view .LVU344
 564:Drivers/BSP/Components/lan8742/lan8742.c ****   uint32_t readval = 0;
 1210              		.loc 1 564 1 is_stmt 0 view .LVU345
 1211 0000 30B5     		push	{r4, r5, lr}
 1212              		.cfi_def_cfa_offset 12
 1213              		.cfi_offset 4, -12
 1214              		.cfi_offset 5, -8
 1215              		.cfi_offset 14, -4
 1216 0002 0446     		mov	r4, r0
 1217 0004 83B0     		sub	sp, sp, #12
 1218              		.cfi_def_cfa_offset 24
 1219              		.loc 1 565 12 view .LVU346
 1220 0006 0022     		movs	r2, #0
 1221 0008 0192     		str	r2, [sp, #4]
 566:Drivers/BSP/Components/lan8742/lan8742.c ****   int32_t status = LAN8742_STATUS_OK;
 1222              		.loc 1 566 3 is_stmt 1 view .LVU347
 1223              	.LVL94:
 567:Drivers/BSP/Components/lan8742/lan8742.c ****   
 568:Drivers/BSP/Components/lan8742/lan8742.c ****   if(pObj->IO.ReadReg(pObj->DevAddr, LAN8742_IMR, &readval) >= 0)
 1224              		.loc 1 568 3 view .LVU348
 1225              		.loc 1 568 6 is_stmt 0 view .LVU349
 1226 000a 0068     		ldr	r0, [r0]
 1227              	.LVL95:
 1228              		.loc 1 568 6 view .LVU350
 1229 000c 6369     		ldr	r3, [r4, #20]
 564:Drivers/BSP/Components/lan8742/lan8742.c ****   uint32_t readval = 0;
 1230              		.loc 1 564 1 view .LVU351
 1231 000e 0D46     		mov	r5, r1
 1232              		.loc 1 568 6 view .LVU352
 1233 0010 01AA     		add	r2, sp, #4
 1234 0012 1E21     		movs	r1, #30
 1235              	.LVL96:
 1236              		.loc 1 568 6 view .LVU353
 1237 0014 9847     		blx	r3
 1238              	.LVL97:
 1239              		.loc 1 568 5 view .LVU354
 1240 0016 0028     		cmp	r0, #0
 1241 0018 0EDB     		blt	.L116
 569:Drivers/BSP/Components/lan8742/lan8742.c ****   {
 570:Drivers/BSP/Components/lan8742/lan8742.c ****     readval &= ~Interrupt;
 1242              		.loc 1 570 5 is_stmt 1 view .LVU355
 1243              		.loc 1 570 13 is_stmt 0 view .LVU356
 1244 001a 019A     		ldr	r2, [sp, #4]
 571:Drivers/BSP/Components/lan8742/lan8742.c ****   
 572:Drivers/BSP/Components/lan8742/lan8742.c ****     /* Apply configuration */
 573:Drivers/BSP/Components/lan8742/lan8742.c ****     if(pObj->IO.WriteReg(pObj->DevAddr, LAN8742_IMR, readval) < 0)
 1245              		.loc 1 573 8 view .LVU357
 1246 001c 2369     		ldr	r3, [r4, #16]
 1247 001e 2068     		ldr	r0, [r4]
 570:Drivers/BSP/Components/lan8742/lan8742.c ****   
 1248              		.loc 1 570 13 view .LVU358
 1249 0020 22EA0502 		bic	r2, r2, r5
 1250 0024 0192     		str	r2, [sp, #4]
 1251              		.loc 1 573 5 is_stmt 1 view .LVU359
 1252              		.loc 1 573 8 is_stmt 0 view .LVU360
ARM GAS  /var/folders/0z/tsy30v1j4xl4_7kw94k978ww0000gn/T//ccE5hoFH.s 			page 35


 1253 0026 1E21     		movs	r1, #30
 1254 0028 9847     		blx	r3
 1255              	.LVL98:
 574:Drivers/BSP/Components/lan8742/lan8742.c ****     {
 575:Drivers/BSP/Components/lan8742/lan8742.c ****       status = LAN8742_STATUS_WRITE_ERROR;
 1256              		.loc 1 575 14 view .LVU361
 1257 002a 0028     		cmp	r0, #0
 1258 002c ACBF     		ite	ge
 1259 002e 0020     		movge	r0, #0
 1260 0030 6FF00300 		mvnlt	r0, #3
 1261              	.L114:
 576:Drivers/BSP/Components/lan8742/lan8742.c ****     }
 577:Drivers/BSP/Components/lan8742/lan8742.c ****   }
 578:Drivers/BSP/Components/lan8742/lan8742.c ****   else
 579:Drivers/BSP/Components/lan8742/lan8742.c ****   {
 580:Drivers/BSP/Components/lan8742/lan8742.c ****     status = LAN8742_STATUS_READ_ERROR;
 581:Drivers/BSP/Components/lan8742/lan8742.c ****   }
 582:Drivers/BSP/Components/lan8742/lan8742.c ****    
 583:Drivers/BSP/Components/lan8742/lan8742.c ****   return status;
 584:Drivers/BSP/Components/lan8742/lan8742.c **** }
 1262              		.loc 1 584 1 view .LVU362
 1263 0034 03B0     		add	sp, sp, #12
 1264              		.cfi_remember_state
 1265              		.cfi_def_cfa_offset 12
 1266              		@ sp needed
 1267 0036 30BD     		pop	{r4, r5, pc}
 1268              	.LVL99:
 1269              	.L116:
 1270              		.cfi_restore_state
 580:Drivers/BSP/Components/lan8742/lan8742.c ****   }
 1271              		.loc 1 580 12 view .LVU363
 1272 0038 6FF00400 		mvn	r0, #4
 1273 003c FAE7     		b	.L114
 1274              		.cfi_endproc
 1275              	.LFE11:
 1277 003e 00BF     		.section	.text.LAN8742_ClearIT,"ax",%progbits
 1278              		.align	1
 1279              		.p2align 2,,3
 1280              		.global	LAN8742_ClearIT
 1281              		.syntax unified
 1282              		.thumb
 1283              		.thumb_func
 1285              	LAN8742_ClearIT:
 1286              	.LVL100:
 1287              	.LFB12:
 585:Drivers/BSP/Components/lan8742/lan8742.c **** 
 586:Drivers/BSP/Components/lan8742/lan8742.c **** /**
 587:Drivers/BSP/Components/lan8742/lan8742.c ****   * @brief  Clear IT flag.
 588:Drivers/BSP/Components/lan8742/lan8742.c ****   * @param  pObj: Pointer to device object. 
 589:Drivers/BSP/Components/lan8742/lan8742.c ****   * @param  Interrupt: IT flag to be cleared
 590:Drivers/BSP/Components/lan8742/lan8742.c ****   *         should be a value or a combination of the following:
 591:Drivers/BSP/Components/lan8742/lan8742.c ****   *         LAN8742_WOL_IT                     
 592:Drivers/BSP/Components/lan8742/lan8742.c ****   *         LAN8742_ENERGYON_IT                
 593:Drivers/BSP/Components/lan8742/lan8742.c ****   *         LAN8742_AUTONEGO_COMPLETE_IT       
 594:Drivers/BSP/Components/lan8742/lan8742.c ****   *         LAN8742_REMOTE_FAULT_IT            
 595:Drivers/BSP/Components/lan8742/lan8742.c ****   *         LAN8742_LINK_DOWN_IT               
 596:Drivers/BSP/Components/lan8742/lan8742.c ****   *         LAN8742_AUTONEGO_LP_ACK_IT         
ARM GAS  /var/folders/0z/tsy30v1j4xl4_7kw94k978ww0000gn/T//ccE5hoFH.s 			page 36


 597:Drivers/BSP/Components/lan8742/lan8742.c ****   *         LAN8742_PARALLEL_DETECTION_FAULT_IT
 598:Drivers/BSP/Components/lan8742/lan8742.c ****   *         LAN8742_AUTONEGO_PAGE_RECEIVED_IT
 599:Drivers/BSP/Components/lan8742/lan8742.c ****   * @retval LAN8742_STATUS_OK  if OK
 600:Drivers/BSP/Components/lan8742/lan8742.c ****   *         LAN8742_STATUS_READ_ERROR if connot read register
 601:Drivers/BSP/Components/lan8742/lan8742.c ****   */
 602:Drivers/BSP/Components/lan8742/lan8742.c **** int32_t  LAN8742_ClearIT(lan8742_Object_t *pObj, uint32_t Interrupt)
 603:Drivers/BSP/Components/lan8742/lan8742.c **** {
 1288              		.loc 1 603 1 is_stmt 1 view -0
 1289              		.cfi_startproc
 1290              		@ args = 0, pretend = 0, frame = 8
 1291              		@ frame_needed = 0, uses_anonymous_args = 0
 604:Drivers/BSP/Components/lan8742/lan8742.c ****   uint32_t readval = 0;
 1292              		.loc 1 604 3 view .LVU365
 603:Drivers/BSP/Components/lan8742/lan8742.c ****   uint32_t readval = 0;
 1293              		.loc 1 603 1 is_stmt 0 view .LVU366
 1294 0000 00B5     		push	{lr}
 1295              		.cfi_def_cfa_offset 4
 1296              		.cfi_offset 14, -4
 1297 0002 83B0     		sub	sp, sp, #12
 1298              		.cfi_def_cfa_offset 16
 1299              		.loc 1 604 12 view .LVU367
 1300 0004 0022     		movs	r2, #0
 605:Drivers/BSP/Components/lan8742/lan8742.c ****   int32_t status = LAN8742_STATUS_OK;  
 606:Drivers/BSP/Components/lan8742/lan8742.c ****   
 607:Drivers/BSP/Components/lan8742/lan8742.c ****   if(pObj->IO.ReadReg(pObj->DevAddr, LAN8742_ISFR, &readval) < 0)
 1301              		.loc 1 607 6 view .LVU368
 1302 0006 4369     		ldr	r3, [r0, #20]
 604:Drivers/BSP/Components/lan8742/lan8742.c ****   int32_t status = LAN8742_STATUS_OK;  
 1303              		.loc 1 604 12 view .LVU369
 1304 0008 0192     		str	r2, [sp, #4]
 605:Drivers/BSP/Components/lan8742/lan8742.c ****   int32_t status = LAN8742_STATUS_OK;  
 1305              		.loc 1 605 3 is_stmt 1 view .LVU370
 1306              	.LVL101:
 1307              		.loc 1 607 3 view .LVU371
 1308              		.loc 1 607 6 is_stmt 0 view .LVU372
 1309 000a 1D21     		movs	r1, #29
 1310              	.LVL102:
 1311              		.loc 1 607 6 view .LVU373
 1312 000c 01AA     		add	r2, sp, #4
 1313 000e 0068     		ldr	r0, [r0]
 1314              	.LVL103:
 1315              		.loc 1 607 6 view .LVU374
 1316 0010 9847     		blx	r3
 1317              	.LVL104:
 608:Drivers/BSP/Components/lan8742/lan8742.c ****   {
 609:Drivers/BSP/Components/lan8742/lan8742.c ****     status =  LAN8742_STATUS_READ_ERROR;
 1318              		.loc 1 609 12 view .LVU375
 1319 0012 0028     		cmp	r0, #0
 610:Drivers/BSP/Components/lan8742/lan8742.c ****   }
 611:Drivers/BSP/Components/lan8742/lan8742.c ****   
 612:Drivers/BSP/Components/lan8742/lan8742.c ****   return status;
 613:Drivers/BSP/Components/lan8742/lan8742.c **** }
 1320              		.loc 1 613 1 view .LVU376
 1321 0014 B4BF     		ite	lt
 1322 0016 6FF00400 		mvnlt	r0, #4
 1323 001a 0020     		movge	r0, #0
 1324 001c 03B0     		add	sp, sp, #12
ARM GAS  /var/folders/0z/tsy30v1j4xl4_7kw94k978ww0000gn/T//ccE5hoFH.s 			page 37


 1325              		.cfi_def_cfa_offset 4
 1326              		@ sp needed
 1327 001e 5DF804FB 		ldr	pc, [sp], #4
 1328              		.cfi_endproc
 1329              	.LFE12:
 1331 0022 00BF     		.section	.text.LAN8742_GetITStatus,"ax",%progbits
 1332              		.align	1
 1333              		.p2align 2,,3
 1334              		.global	LAN8742_GetITStatus
 1335              		.syntax unified
 1336              		.thumb
 1337              		.thumb_func
 1339              	LAN8742_GetITStatus:
 1340              	.LVL105:
 1341              	.LFB13:
 614:Drivers/BSP/Components/lan8742/lan8742.c **** 
 615:Drivers/BSP/Components/lan8742/lan8742.c **** /**
 616:Drivers/BSP/Components/lan8742/lan8742.c ****   * @brief  Get IT Flag status.
 617:Drivers/BSP/Components/lan8742/lan8742.c ****   * @param  pObj: Pointer to device object. 
 618:Drivers/BSP/Components/lan8742/lan8742.c ****   * @param  Interrupt: IT Flag to be checked, 
 619:Drivers/BSP/Components/lan8742/lan8742.c ****   *         should be a value or a combination of the following:
 620:Drivers/BSP/Components/lan8742/lan8742.c ****   *         LAN8742_WOL_IT                     
 621:Drivers/BSP/Components/lan8742/lan8742.c ****   *         LAN8742_ENERGYON_IT                
 622:Drivers/BSP/Components/lan8742/lan8742.c ****   *         LAN8742_AUTONEGO_COMPLETE_IT       
 623:Drivers/BSP/Components/lan8742/lan8742.c ****   *         LAN8742_REMOTE_FAULT_IT            
 624:Drivers/BSP/Components/lan8742/lan8742.c ****   *         LAN8742_LINK_DOWN_IT               
 625:Drivers/BSP/Components/lan8742/lan8742.c ****   *         LAN8742_AUTONEGO_LP_ACK_IT         
 626:Drivers/BSP/Components/lan8742/lan8742.c ****   *         LAN8742_PARALLEL_DETECTION_FAULT_IT
 627:Drivers/BSP/Components/lan8742/lan8742.c ****   *         LAN8742_AUTONEGO_PAGE_RECEIVED_IT  
 628:Drivers/BSP/Components/lan8742/lan8742.c ****   * @retval 1 IT flag is SET
 629:Drivers/BSP/Components/lan8742/lan8742.c ****   *         0 IT flag is RESET
 630:Drivers/BSP/Components/lan8742/lan8742.c ****   *         LAN8742_STATUS_READ_ERROR if connot read register
 631:Drivers/BSP/Components/lan8742/lan8742.c ****   */
 632:Drivers/BSP/Components/lan8742/lan8742.c **** int32_t LAN8742_GetITStatus(lan8742_Object_t *pObj, uint32_t Interrupt)
 633:Drivers/BSP/Components/lan8742/lan8742.c **** {
 1342              		.loc 1 633 1 is_stmt 1 view -0
 1343              		.cfi_startproc
 1344              		@ args = 0, pretend = 0, frame = 8
 1345              		@ frame_needed = 0, uses_anonymous_args = 0
 634:Drivers/BSP/Components/lan8742/lan8742.c ****   uint32_t readval = 0;
 1346              		.loc 1 634 3 view .LVU378
 633:Drivers/BSP/Components/lan8742/lan8742.c ****   uint32_t readval = 0;
 1347              		.loc 1 633 1 is_stmt 0 view .LVU379
 1348 0000 30B5     		push	{r4, r5, lr}
 1349              		.cfi_def_cfa_offset 12
 1350              		.cfi_offset 4, -12
 1351              		.cfi_offset 5, -8
 1352              		.cfi_offset 14, -4
 1353 0002 83B0     		sub	sp, sp, #12
 1354              		.cfi_def_cfa_offset 24
 1355              		.loc 1 634 12 view .LVU380
 1356 0004 0022     		movs	r2, #0
 635:Drivers/BSP/Components/lan8742/lan8742.c ****   int32_t status = 0;
 636:Drivers/BSP/Components/lan8742/lan8742.c **** 
 637:Drivers/BSP/Components/lan8742/lan8742.c ****   if(pObj->IO.ReadReg(pObj->DevAddr, LAN8742_ISFR, &readval) >= 0)
 1357              		.loc 1 637 6 view .LVU381
 1358 0006 4569     		ldr	r5, [r0, #20]
ARM GAS  /var/folders/0z/tsy30v1j4xl4_7kw94k978ww0000gn/T//ccE5hoFH.s 			page 38


 634:Drivers/BSP/Components/lan8742/lan8742.c ****   int32_t status = 0;
 1359              		.loc 1 634 12 view .LVU382
 1360 0008 0192     		str	r2, [sp, #4]
 635:Drivers/BSP/Components/lan8742/lan8742.c ****   int32_t status = 0;
 1361              		.loc 1 635 3 is_stmt 1 view .LVU383
 1362              	.LVL106:
 1363              		.loc 1 637 3 view .LVU384
 1364              		.loc 1 637 6 is_stmt 0 view .LVU385
 1365 000a 0068     		ldr	r0, [r0]
 1366              	.LVL107:
 633:Drivers/BSP/Components/lan8742/lan8742.c ****   uint32_t readval = 0;
 1367              		.loc 1 633 1 view .LVU386
 1368 000c 0C46     		mov	r4, r1
 1369              		.loc 1 637 6 view .LVU387
 1370 000e 01AA     		add	r2, sp, #4
 1371 0010 1D21     		movs	r1, #29
 1372              	.LVL108:
 1373              		.loc 1 637 6 view .LVU388
 1374 0012 A847     		blx	r5
 1375              	.LVL109:
 1376              		.loc 1 637 5 view .LVU389
 1377 0014 0028     		cmp	r0, #0
 1378 0016 07DB     		blt	.L125
 638:Drivers/BSP/Components/lan8742/lan8742.c ****   {
 639:Drivers/BSP/Components/lan8742/lan8742.c ****     status = ((readval & Interrupt) == Interrupt);
 1379              		.loc 1 639 5 is_stmt 1 view .LVU390
 1380              		.loc 1 639 24 is_stmt 0 view .LVU391
 1381 0018 019B     		ldr	r3, [sp, #4]
 1382              		.loc 1 639 37 view .LVU392
 1383 001a 34EA0303 		bics	r3, r4, r3
 1384 001e 0CBF     		ite	eq
 1385 0020 0120     		moveq	r0, #1
 1386 0022 0020     		movne	r0, #0
 1387              	.LVL110:
 1388              	.L123:
 640:Drivers/BSP/Components/lan8742/lan8742.c ****   }
 641:Drivers/BSP/Components/lan8742/lan8742.c ****   else
 642:Drivers/BSP/Components/lan8742/lan8742.c ****   {
 643:Drivers/BSP/Components/lan8742/lan8742.c ****     status = LAN8742_STATUS_READ_ERROR;
 644:Drivers/BSP/Components/lan8742/lan8742.c ****   }
 645:Drivers/BSP/Components/lan8742/lan8742.c **** 	
 646:Drivers/BSP/Components/lan8742/lan8742.c ****   return status;
 647:Drivers/BSP/Components/lan8742/lan8742.c **** }
 1389              		.loc 1 647 1 view .LVU393
 1390 0024 03B0     		add	sp, sp, #12
 1391              		.cfi_remember_state
 1392              		.cfi_def_cfa_offset 12
 1393              		@ sp needed
 1394 0026 30BD     		pop	{r4, r5, pc}
 1395              	.LVL111:
 1396              	.L125:
 1397              		.cfi_restore_state
 643:Drivers/BSP/Components/lan8742/lan8742.c ****   }
 1398              		.loc 1 643 12 view .LVU394
 1399 0028 6FF00400 		mvn	r0, #4
 1400              	.LVL112:
 646:Drivers/BSP/Components/lan8742/lan8742.c **** }
ARM GAS  /var/folders/0z/tsy30v1j4xl4_7kw94k978ww0000gn/T//ccE5hoFH.s 			page 39


 1401              		.loc 1 646 3 is_stmt 1 view .LVU395
 646:Drivers/BSP/Components/lan8742/lan8742.c **** }
 1402              		.loc 1 646 10 is_stmt 0 view .LVU396
 1403 002c FAE7     		b	.L123
 1404              		.cfi_endproc
 1405              	.LFE13:
 1407 002e 00BF     		.text
 1408              	.Letext0:
 1409              		.file 2 "/Users/johannes/Library/Application Support/Code/User/globalStorage/bmd.stm32-for-vscode/
 1410              		.file 3 "/Users/johannes/Library/Application Support/Code/User/globalStorage/bmd.stm32-for-vscode/
 1411              		.file 4 "Drivers/BSP/Components/lan8742/lan8742.h"
ARM GAS  /var/folders/0z/tsy30v1j4xl4_7kw94k978ww0000gn/T//ccE5hoFH.s 			page 40


DEFINED SYMBOLS
                            *ABS*:0000000000000000 lan8742.c
/var/folders/0z/tsy30v1j4xl4_7kw94k978ww0000gn/T//ccE5hoFH.s:20     .text.LAN8742_RegisterBusIO:0000000000000000 $t
/var/folders/0z/tsy30v1j4xl4_7kw94k978ww0000gn/T//ccE5hoFH.s:27     .text.LAN8742_RegisterBusIO:0000000000000000 LAN8742_RegisterBusIO
/var/folders/0z/tsy30v1j4xl4_7kw94k978ww0000gn/T//ccE5hoFH.s:100    .text.LAN8742_Init:0000000000000000 $t
/var/folders/0z/tsy30v1j4xl4_7kw94k978ww0000gn/T//ccE5hoFH.s:107    .text.LAN8742_Init:0000000000000000 LAN8742_Init
/var/folders/0z/tsy30v1j4xl4_7kw94k978ww0000gn/T//ccE5hoFH.s:354    .text.LAN8742_DeInit:0000000000000000 $t
/var/folders/0z/tsy30v1j4xl4_7kw94k978ww0000gn/T//ccE5hoFH.s:361    .text.LAN8742_DeInit:0000000000000000 LAN8742_DeInit
/var/folders/0z/tsy30v1j4xl4_7kw94k978ww0000gn/T//ccE5hoFH.s:412    .text.LAN8742_DisablePowerDownMode:0000000000000000 $t
/var/folders/0z/tsy30v1j4xl4_7kw94k978ww0000gn/T//ccE5hoFH.s:419    .text.LAN8742_DisablePowerDownMode:0000000000000000 LAN8742_DisablePowerDownMode
/var/folders/0z/tsy30v1j4xl4_7kw94k978ww0000gn/T//ccE5hoFH.s:493    .text.LAN8742_EnablePowerDownMode:0000000000000000 $t
/var/folders/0z/tsy30v1j4xl4_7kw94k978ww0000gn/T//ccE5hoFH.s:500    .text.LAN8742_EnablePowerDownMode:0000000000000000 LAN8742_EnablePowerDownMode
/var/folders/0z/tsy30v1j4xl4_7kw94k978ww0000gn/T//ccE5hoFH.s:574    .text.LAN8742_StartAutoNego:0000000000000000 $t
/var/folders/0z/tsy30v1j4xl4_7kw94k978ww0000gn/T//ccE5hoFH.s:581    .text.LAN8742_StartAutoNego:0000000000000000 LAN8742_StartAutoNego
/var/folders/0z/tsy30v1j4xl4_7kw94k978ww0000gn/T//ccE5hoFH.s:655    .text.LAN8742_GetLinkState:0000000000000000 $t
/var/folders/0z/tsy30v1j4xl4_7kw94k978ww0000gn/T//ccE5hoFH.s:662    .text.LAN8742_GetLinkState:0000000000000000 LAN8742_GetLinkState
/var/folders/0z/tsy30v1j4xl4_7kw94k978ww0000gn/T//ccE5hoFH.s:833    .text.LAN8742_SetLinkState:0000000000000000 $t
/var/folders/0z/tsy30v1j4xl4_7kw94k978ww0000gn/T//ccE5hoFH.s:840    .text.LAN8742_SetLinkState:0000000000000000 LAN8742_SetLinkState
/var/folders/0z/tsy30v1j4xl4_7kw94k978ww0000gn/T//ccE5hoFH.s:950    .text.LAN8742_EnableLoopbackMode:0000000000000000 $t
/var/folders/0z/tsy30v1j4xl4_7kw94k978ww0000gn/T//ccE5hoFH.s:957    .text.LAN8742_EnableLoopbackMode:0000000000000000 LAN8742_EnableLoopbackMode
/var/folders/0z/tsy30v1j4xl4_7kw94k978ww0000gn/T//ccE5hoFH.s:1031   .text.LAN8742_DisableLoopbackMode:0000000000000000 $t
/var/folders/0z/tsy30v1j4xl4_7kw94k978ww0000gn/T//ccE5hoFH.s:1038   .text.LAN8742_DisableLoopbackMode:0000000000000000 LAN8742_DisableLoopbackMode
/var/folders/0z/tsy30v1j4xl4_7kw94k978ww0000gn/T//ccE5hoFH.s:1112   .text.LAN8742_EnableIT:0000000000000000 $t
/var/folders/0z/tsy30v1j4xl4_7kw94k978ww0000gn/T//ccE5hoFH.s:1119   .text.LAN8742_EnableIT:0000000000000000 LAN8742_EnableIT
/var/folders/0z/tsy30v1j4xl4_7kw94k978ww0000gn/T//ccE5hoFH.s:1195   .text.LAN8742_DisableIT:0000000000000000 $t
/var/folders/0z/tsy30v1j4xl4_7kw94k978ww0000gn/T//ccE5hoFH.s:1202   .text.LAN8742_DisableIT:0000000000000000 LAN8742_DisableIT
/var/folders/0z/tsy30v1j4xl4_7kw94k978ww0000gn/T//ccE5hoFH.s:1278   .text.LAN8742_ClearIT:0000000000000000 $t
/var/folders/0z/tsy30v1j4xl4_7kw94k978ww0000gn/T//ccE5hoFH.s:1285   .text.LAN8742_ClearIT:0000000000000000 LAN8742_ClearIT
/var/folders/0z/tsy30v1j4xl4_7kw94k978ww0000gn/T//ccE5hoFH.s:1332   .text.LAN8742_GetITStatus:0000000000000000 $t
/var/folders/0z/tsy30v1j4xl4_7kw94k978ww0000gn/T//ccE5hoFH.s:1339   .text.LAN8742_GetITStatus:0000000000000000 LAN8742_GetITStatus

NO UNDEFINED SYMBOLS
