ARM GAS  /var/folders/0z/tsy30v1j4xl4_7kw94k978ww0000gn/T//ccKzZMzk.s 			page 1


   1              		.cpu cortex-m4
   2              		.arch armv7e-m
   3              		.fpu fpv4-sp-d16
   4              		.eabi_attribute 27, 1
   5              		.eabi_attribute 28, 1
   6              		.eabi_attribute 20, 1
   7              		.eabi_attribute 21, 1
   8              		.eabi_attribute 23, 3
   9              		.eabi_attribute 24, 1
  10              		.eabi_attribute 25, 1
  11              		.eabi_attribute 26, 1
  12              		.eabi_attribute 30, 2
  13              		.eabi_attribute 34, 1
  14              		.eabi_attribute 18, 4
  15              		.file	"lan8742.c"
  16              		.text
  17              	.Ltext0:
  18              		.cfi_sections	.debug_frame
  19              		.section	.text.LAN8742_RegisterBusIO,"ax",%progbits
  20              		.align	1
  21              		.p2align 2,,3
  22              		.global	LAN8742_RegisterBusIO
  23              		.syntax unified
  24              		.thumb
  25              		.thumb_func
  27              	LAN8742_RegisterBusIO:
  28              	.LVL0:
  29              	.LFB0:
  30              		.file 1 "Drivers/BSP/Components/lan8742/lan8742.c"
   1:Drivers/BSP/Components/lan8742/lan8742.c **** /** 
   2:Drivers/BSP/Components/lan8742/lan8742.c ****   ******************************************************************************
   3:Drivers/BSP/Components/lan8742/lan8742.c ****   * @file    lan8742.c
   4:Drivers/BSP/Components/lan8742/lan8742.c ****   * @author  MCD Application Team
   5:Drivers/BSP/Components/lan8742/lan8742.c ****   * @brief   This file provides a set of functions needed to manage the LAN742
   6:Drivers/BSP/Components/lan8742/lan8742.c ****   *          PHY devices.
   7:Drivers/BSP/Components/lan8742/lan8742.c ****   ******************************************************************************
   8:Drivers/BSP/Components/lan8742/lan8742.c ****   * @attention
   9:Drivers/BSP/Components/lan8742/lan8742.c ****   *
  10:Drivers/BSP/Components/lan8742/lan8742.c ****   * <h2><center>&copy; Copyright (c) 2017 STMicroelectronics.
  11:Drivers/BSP/Components/lan8742/lan8742.c ****   * All rights reserved.</center></h2>
  12:Drivers/BSP/Components/lan8742/lan8742.c ****   *
  13:Drivers/BSP/Components/lan8742/lan8742.c ****   * This software component is licensed by ST under BSD 3-Clause license,
  14:Drivers/BSP/Components/lan8742/lan8742.c ****   * the "License"; You may not use this file except in compliance with the
  15:Drivers/BSP/Components/lan8742/lan8742.c ****   * License. You may obtain a copy of the License at:
  16:Drivers/BSP/Components/lan8742/lan8742.c ****   *                        opensource.org/licenses/BSD-3-Clause
  17:Drivers/BSP/Components/lan8742/lan8742.c ****   *
  18:Drivers/BSP/Components/lan8742/lan8742.c ****   ******************************************************************************
  19:Drivers/BSP/Components/lan8742/lan8742.c ****   */  
  20:Drivers/BSP/Components/lan8742/lan8742.c **** 
  21:Drivers/BSP/Components/lan8742/lan8742.c **** /* Includes ------------------------------------------------------------------*/
  22:Drivers/BSP/Components/lan8742/lan8742.c **** #include "lan8742.h"
  23:Drivers/BSP/Components/lan8742/lan8742.c **** 
  24:Drivers/BSP/Components/lan8742/lan8742.c **** /** @addtogroup BSP
  25:Drivers/BSP/Components/lan8742/lan8742.c ****   * @{
  26:Drivers/BSP/Components/lan8742/lan8742.c ****   */
  27:Drivers/BSP/Components/lan8742/lan8742.c **** 
  28:Drivers/BSP/Components/lan8742/lan8742.c **** /** @addtogroup Component
ARM GAS  /var/folders/0z/tsy30v1j4xl4_7kw94k978ww0000gn/T//ccKzZMzk.s 			page 2


  29:Drivers/BSP/Components/lan8742/lan8742.c ****   * @{
  30:Drivers/BSP/Components/lan8742/lan8742.c ****   */ 
  31:Drivers/BSP/Components/lan8742/lan8742.c ****   
  32:Drivers/BSP/Components/lan8742/lan8742.c **** /** @defgroup LAN8742 LAN8742
  33:Drivers/BSP/Components/lan8742/lan8742.c ****   * @{
  34:Drivers/BSP/Components/lan8742/lan8742.c ****   */   
  35:Drivers/BSP/Components/lan8742/lan8742.c ****   
  36:Drivers/BSP/Components/lan8742/lan8742.c **** /* Private typedef -----------------------------------------------------------*/
  37:Drivers/BSP/Components/lan8742/lan8742.c **** /* Private define ------------------------------------------------------------*/
  38:Drivers/BSP/Components/lan8742/lan8742.c **** /** @defgroup LAN8742_Private_Defines LAN8742 Private Defines
  39:Drivers/BSP/Components/lan8742/lan8742.c ****   * @{
  40:Drivers/BSP/Components/lan8742/lan8742.c ****   */
  41:Drivers/BSP/Components/lan8742/lan8742.c **** #define LAN8742_SW_RESET_TO    ((uint32_t)500U)
  42:Drivers/BSP/Components/lan8742/lan8742.c **** #define LAN8742_INIT_TO        ((uint32_t)2000U)
  43:Drivers/BSP/Components/lan8742/lan8742.c **** #define LAN8742_MAX_DEV_ADDR   ((uint32_t)31U)
  44:Drivers/BSP/Components/lan8742/lan8742.c **** /**
  45:Drivers/BSP/Components/lan8742/lan8742.c ****   * @}
  46:Drivers/BSP/Components/lan8742/lan8742.c ****   */
  47:Drivers/BSP/Components/lan8742/lan8742.c ****  
  48:Drivers/BSP/Components/lan8742/lan8742.c **** /* Private macro -------------------------------------------------------------*/
  49:Drivers/BSP/Components/lan8742/lan8742.c **** /* Private variables ---------------------------------------------------------*/
  50:Drivers/BSP/Components/lan8742/lan8742.c **** /* Private function prototypes -----------------------------------------------*/
  51:Drivers/BSP/Components/lan8742/lan8742.c **** /* Private functions ---------------------------------------------------------*/
  52:Drivers/BSP/Components/lan8742/lan8742.c **** /** @defgroup LAN8742_Private_Functions LAN8742 Private Functions
  53:Drivers/BSP/Components/lan8742/lan8742.c ****   * @{
  54:Drivers/BSP/Components/lan8742/lan8742.c ****   */
  55:Drivers/BSP/Components/lan8742/lan8742.c ****     
  56:Drivers/BSP/Components/lan8742/lan8742.c **** /**
  57:Drivers/BSP/Components/lan8742/lan8742.c ****   * @brief  Register IO functions to component object
  58:Drivers/BSP/Components/lan8742/lan8742.c ****   * @param  pObj: device object  of LAN8742_Object_t. 
  59:Drivers/BSP/Components/lan8742/lan8742.c ****   * @param  ioctx: holds device IO functions.  
  60:Drivers/BSP/Components/lan8742/lan8742.c ****   * @retval LAN8742_STATUS_OK  if OK
  61:Drivers/BSP/Components/lan8742/lan8742.c ****   *         LAN8742_STATUS_ERROR if missing mandatory function
  62:Drivers/BSP/Components/lan8742/lan8742.c ****   */
  63:Drivers/BSP/Components/lan8742/lan8742.c **** int32_t  LAN8742_RegisterBusIO(lan8742_Object_t *pObj, lan8742_IOCtx_t *ioctx)
  64:Drivers/BSP/Components/lan8742/lan8742.c **** {
  31              		.loc 1 64 1 view -0
  32              		.cfi_startproc
  33              		@ args = 0, pretend = 0, frame = 0
  34              		@ frame_needed = 0, uses_anonymous_args = 0
  35              		@ link register save eliminated.
  65:Drivers/BSP/Components/lan8742/lan8742.c ****   if(!pObj || !ioctx->ReadReg || !ioctx->WriteReg || !ioctx->GetTick)
  36              		.loc 1 65 3 view .LVU1
  37              		.loc 1 65 5 is_stmt 0 view .LVU2
  38 0000 80B1     		cbz	r0, .L5
  39              		.loc 1 65 21 discriminator 1 view .LVU3
  40 0002 CB68     		ldr	r3, [r1, #12]
  41              		.loc 1 65 12 discriminator 1 view .LVU4
  42 0004 73B1     		cbz	r3, .L5
  43              		.loc 1 65 40 discriminator 2 view .LVU5
  44 0006 8A68     		ldr	r2, [r1, #8]
  45              		.loc 1 65 31 discriminator 2 view .LVU6
  46 0008 62B1     		cbz	r2, .L5
  64:Drivers/BSP/Components/lan8742/lan8742.c ****   if(!pObj || !ioctx->ReadReg || !ioctx->WriteReg || !ioctx->GetTick)
  47              		.loc 1 64 1 discriminator 3 view .LVU7
  48 000a 30B4     		push	{r4, r5}
  49              		.cfi_def_cfa_offset 8
ARM GAS  /var/folders/0z/tsy30v1j4xl4_7kw94k978ww0000gn/T//ccKzZMzk.s 			page 3


  50              		.cfi_offset 4, -8
  51              		.cfi_offset 5, -4
  52              		.loc 1 65 60 discriminator 3 view .LVU8
  53 000c 0C69     		ldr	r4, [r1, #16]
  54              		.loc 1 65 51 discriminator 3 view .LVU9
  55 000e 64B1     		cbz	r4, .L6
  66:Drivers/BSP/Components/lan8742/lan8742.c ****   {
  67:Drivers/BSP/Components/lan8742/lan8742.c ****     return LAN8742_STATUS_ERROR;
  68:Drivers/BSP/Components/lan8742/lan8742.c ****   }
  69:Drivers/BSP/Components/lan8742/lan8742.c ****   
  70:Drivers/BSP/Components/lan8742/lan8742.c ****   pObj->IO.Init = ioctx->Init;
  56              		.loc 1 70 3 is_stmt 1 view .LVU10
  57              		.loc 1 70 17 is_stmt 0 view .LVU11
  58 0010 0D68     		ldr	r5, [r1]
  71:Drivers/BSP/Components/lan8742/lan8742.c ****   pObj->IO.DeInit = ioctx->DeInit;
  59              		.loc 1 71 26 view .LVU12
  60 0012 4968     		ldr	r1, [r1, #4]
  61              	.LVL1:
  70:Drivers/BSP/Components/lan8742/lan8742.c ****   pObj->IO.DeInit = ioctx->DeInit;
  62              		.loc 1 70 17 view .LVU13
  63 0014 8560     		str	r5, [r0, #8]
  64              		.loc 1 71 3 is_stmt 1 view .LVU14
  72:Drivers/BSP/Components/lan8742/lan8742.c ****   pObj->IO.ReadReg = ioctx->ReadReg;
  73:Drivers/BSP/Components/lan8742/lan8742.c ****   pObj->IO.WriteReg = ioctx->WriteReg;
  65              		.loc 1 73 21 is_stmt 0 view .LVU15
  66 0016 C0E90423 		strd	r2, r3, [r0, #16]
  71:Drivers/BSP/Components/lan8742/lan8742.c ****   pObj->IO.ReadReg = ioctx->ReadReg;
  67              		.loc 1 71 19 view .LVU16
  68 001a C160     		str	r1, [r0, #12]
  72:Drivers/BSP/Components/lan8742/lan8742.c ****   pObj->IO.ReadReg = ioctx->ReadReg;
  69              		.loc 1 72 3 is_stmt 1 view .LVU17
  74:Drivers/BSP/Components/lan8742/lan8742.c ****   pObj->IO.GetTick = ioctx->GetTick;
  70              		.loc 1 74 3 view .LVU18
  71              		.loc 1 74 20 is_stmt 0 view .LVU19
  72 001c 8461     		str	r4, [r0, #24]
  75:Drivers/BSP/Components/lan8742/lan8742.c ****   
  76:Drivers/BSP/Components/lan8742/lan8742.c ****   return LAN8742_STATUS_OK;
  73              		.loc 1 76 3 is_stmt 1 view .LVU20
  74              		.loc 1 76 10 is_stmt 0 view .LVU21
  75 001e 0020     		movs	r0, #0
  76              	.LVL2:
  77              	.L1:
  77:Drivers/BSP/Components/lan8742/lan8742.c **** }
  78              		.loc 1 77 1 view .LVU22
  79 0020 30BC     		pop	{r4, r5}
  80              		.cfi_restore 5
  81              		.cfi_restore 4
  82              		.cfi_def_cfa_offset 0
  83 0022 7047     		bx	lr
  84              	.LVL3:
  85              	.L5:
  67:Drivers/BSP/Components/lan8742/lan8742.c ****   }
  86              		.loc 1 67 12 view .LVU23
  87 0024 4FF0FF30 		mov	r0, #-1
  88              	.LVL4:
  89              		.loc 1 77 1 view .LVU24
  90 0028 7047     		bx	lr
ARM GAS  /var/folders/0z/tsy30v1j4xl4_7kw94k978ww0000gn/T//ccKzZMzk.s 			page 4


  91              	.LVL5:
  92              	.L6:
  93              		.cfi_def_cfa_offset 8
  94              		.cfi_offset 4, -8
  95              		.cfi_offset 5, -4
  67:Drivers/BSP/Components/lan8742/lan8742.c ****   }
  96              		.loc 1 67 12 view .LVU25
  97 002a 4FF0FF30 		mov	r0, #-1
  98              	.LVL6:
  67:Drivers/BSP/Components/lan8742/lan8742.c ****   }
  99              		.loc 1 67 12 view .LVU26
 100 002e F7E7     		b	.L1
 101              		.cfi_endproc
 102              	.LFE0:
 104              		.section	.text.LAN8742_Init,"ax",%progbits
 105              		.align	1
 106              		.p2align 2,,3
 107              		.global	LAN8742_Init
 108              		.syntax unified
 109              		.thumb
 110              		.thumb_func
 112              	LAN8742_Init:
 113              	.LVL7:
 114              	.LFB1:
  78:Drivers/BSP/Components/lan8742/lan8742.c **** 
  79:Drivers/BSP/Components/lan8742/lan8742.c **** /**
  80:Drivers/BSP/Components/lan8742/lan8742.c ****   * @brief  Initialize the lan8742 and configure the needed hardware resources
  81:Drivers/BSP/Components/lan8742/lan8742.c ****   * @param  pObj: device object LAN8742_Object_t. 
  82:Drivers/BSP/Components/lan8742/lan8742.c ****   * @retval LAN8742_STATUS_OK  if OK
  83:Drivers/BSP/Components/lan8742/lan8742.c ****   *         LAN8742_STATUS_ADDRESS_ERROR if cannot find device address
  84:Drivers/BSP/Components/lan8742/lan8742.c ****   *         LAN8742_STATUS_READ_ERROR if connot read register
  85:Drivers/BSP/Components/lan8742/lan8742.c ****   *         LAN8742_STATUS_WRITE_ERROR if connot write to register
  86:Drivers/BSP/Components/lan8742/lan8742.c ****   *         LAN8742_STATUS_RESET_TIMEOUT if cannot perform a software reset
  87:Drivers/BSP/Components/lan8742/lan8742.c ****   */
  88:Drivers/BSP/Components/lan8742/lan8742.c ****  int32_t LAN8742_Init(lan8742_Object_t *pObj)
  89:Drivers/BSP/Components/lan8742/lan8742.c ****  {
 115              		.loc 1 89 2 is_stmt 1 view -0
 116              		.cfi_startproc
 117              		@ args = 0, pretend = 0, frame = 8
 118              		@ frame_needed = 0, uses_anonymous_args = 0
  90:Drivers/BSP/Components/lan8742/lan8742.c ****    uint32_t tickstart = 0, regvalue = 0, addr = 0;
 119              		.loc 1 90 4 view .LVU28
  89:Drivers/BSP/Components/lan8742/lan8742.c ****    uint32_t tickstart = 0, regvalue = 0, addr = 0;
 120              		.loc 1 89 2 is_stmt 0 view .LVU29
 121 0000 70B5     		push	{r4, r5, r6, lr}
 122              		.cfi_def_cfa_offset 16
 123              		.cfi_offset 4, -16
 124              		.cfi_offset 5, -12
 125              		.cfi_offset 6, -8
 126              		.cfi_offset 14, -4
  91:Drivers/BSP/Components/lan8742/lan8742.c ****    int32_t status = LAN8742_STATUS_OK;
  92:Drivers/BSP/Components/lan8742/lan8742.c ****    
  93:Drivers/BSP/Components/lan8742/lan8742.c ****    if(pObj->Is_Initialized == 0)
 127              		.loc 1 93 11 view .LVU30
 128 0002 4468     		ldr	r4, [r0, #4]
  89:Drivers/BSP/Components/lan8742/lan8742.c ****    uint32_t tickstart = 0, regvalue = 0, addr = 0;
 129              		.loc 1 89 2 view .LVU31
ARM GAS  /var/folders/0z/tsy30v1j4xl4_7kw94k978ww0000gn/T//ccKzZMzk.s 			page 5


 130 0004 82B0     		sub	sp, sp, #8
 131              		.cfi_def_cfa_offset 24
  90:Drivers/BSP/Components/lan8742/lan8742.c ****    int32_t status = LAN8742_STATUS_OK;
 132              		.loc 1 90 28 view .LVU32
 133 0006 0023     		movs	r3, #0
  89:Drivers/BSP/Components/lan8742/lan8742.c ****    uint32_t tickstart = 0, regvalue = 0, addr = 0;
 134              		.loc 1 89 2 view .LVU33
 135 0008 0546     		mov	r5, r0
  90:Drivers/BSP/Components/lan8742/lan8742.c ****    int32_t status = LAN8742_STATUS_OK;
 136              		.loc 1 90 28 view .LVU34
 137 000a 0193     		str	r3, [sp, #4]
 138              	.LVL8:
  91:Drivers/BSP/Components/lan8742/lan8742.c ****    int32_t status = LAN8742_STATUS_OK;
 139              		.loc 1 91 4 is_stmt 1 view .LVU35
 140              		.loc 1 93 4 view .LVU36
 141              		.loc 1 93 6 is_stmt 0 view .LVU37
 142 000c 002C     		cmp	r4, #0
 143 000e 47D1     		bne	.L24
  94:Drivers/BSP/Components/lan8742/lan8742.c ****    {
  95:Drivers/BSP/Components/lan8742/lan8742.c ****      if(pObj->IO.Init != 0)
 144              		.loc 1 95 6 is_stmt 1 view .LVU38
 145              		.loc 1 95 17 is_stmt 0 view .LVU39
 146 0010 8368     		ldr	r3, [r0, #8]
 147              		.loc 1 95 8 view .LVU40
 148 0012 03B1     		cbz	r3, .L15
  96:Drivers/BSP/Components/lan8742/lan8742.c ****      {
  97:Drivers/BSP/Components/lan8742/lan8742.c ****        /* GPIO and Clocks initialization */
  98:Drivers/BSP/Components/lan8742/lan8742.c ****        pObj->IO.Init();
 149              		.loc 1 98 8 is_stmt 1 view .LVU41
 150 0014 9847     		blx	r3
 151              	.LVL9:
 152              	.L15:
  99:Drivers/BSP/Components/lan8742/lan8742.c ****      }
 100:Drivers/BSP/Components/lan8742/lan8742.c ****    
 101:Drivers/BSP/Components/lan8742/lan8742.c ****      /* for later check */
 102:Drivers/BSP/Components/lan8742/lan8742.c ****      pObj->DevAddr = LAN8742_MAX_DEV_ADDR + 1;
 153              		.loc 1 102 6 view .LVU42
 154              		.loc 1 102 20 is_stmt 0 view .LVU43
 155 0016 2023     		movs	r3, #32
 156 0018 2B60     		str	r3, [r5]
 103:Drivers/BSP/Components/lan8742/lan8742.c ****    
 104:Drivers/BSP/Components/lan8742/lan8742.c ****      /* Get the device address from special mode register */  
 105:Drivers/BSP/Components/lan8742/lan8742.c ****      for(addr = 0; addr <= LAN8742_MAX_DEV_ADDR; addr ++)
 157              		.loc 1 105 6 is_stmt 1 view .LVU44
 158              		.loc 1 105 25 view .LVU45
  91:Drivers/BSP/Components/lan8742/lan8742.c ****    
 159              		.loc 1 91 12 is_stmt 0 view .LVU46
 160 001a 0026     		movs	r6, #0
 161 001c 07E0     		b	.L18
 162              	.LVL10:
 163              	.L37:
 106:Drivers/BSP/Components/lan8742/lan8742.c ****      {
 107:Drivers/BSP/Components/lan8742/lan8742.c ****        if(pObj->IO.ReadReg(addr, LAN8742_SMR, &regvalue) < 0)
 108:Drivers/BSP/Components/lan8742/lan8742.c ****        { 
 109:Drivers/BSP/Components/lan8742/lan8742.c ****          status = LAN8742_STATUS_READ_ERROR;
 110:Drivers/BSP/Components/lan8742/lan8742.c ****          /* Can't read from this device address 
 111:Drivers/BSP/Components/lan8742/lan8742.c ****             continue with next address */
ARM GAS  /var/folders/0z/tsy30v1j4xl4_7kw94k978ww0000gn/T//ccKzZMzk.s 			page 6


 112:Drivers/BSP/Components/lan8742/lan8742.c ****          continue;
 113:Drivers/BSP/Components/lan8742/lan8742.c ****        }
 114:Drivers/BSP/Components/lan8742/lan8742.c ****      
 115:Drivers/BSP/Components/lan8742/lan8742.c ****        if((regvalue & LAN8742_SMR_PHY_ADDR) == addr)
 164              		.loc 1 115 21 view .LVU47
 165 001e 019B     		ldr	r3, [sp, #4]
 166 0020 03F01F03 		and	r3, r3, #31
 167              		.loc 1 115 10 view .LVU48
 168 0024 A342     		cmp	r3, r4
 169 0026 16D0     		beq	.L35
 105:Drivers/BSP/Components/lan8742/lan8742.c ****      {
 170              		.loc 1 105 55 discriminator 2 view .LVU49
 171 0028 0134     		adds	r4, r4, #1
 172              	.LVL11:
 105:Drivers/BSP/Components/lan8742/lan8742.c ****      {
 173              		.loc 1 105 25 is_stmt 1 discriminator 2 view .LVU50
 174 002a 202C     		cmp	r4, #32
 175 002c 0BD0     		beq	.L36
 176              	.LVL12:
 177              	.L18:
 107:Drivers/BSP/Components/lan8742/lan8742.c ****        { 
 178              		.loc 1 107 8 view .LVU51
 107:Drivers/BSP/Components/lan8742/lan8742.c ****        { 
 179              		.loc 1 107 11 is_stmt 0 view .LVU52
 180 002e 6B69     		ldr	r3, [r5, #20]
 181 0030 2046     		mov	r0, r4
 182 0032 01AA     		add	r2, sp, #4
 183 0034 1221     		movs	r1, #18
 184 0036 9847     		blx	r3
 185              	.LVL13:
 186              		.loc 1 115 8 is_stmt 1 view .LVU53
 105:Drivers/BSP/Components/lan8742/lan8742.c ****      {
 187              		.loc 1 105 55 view .LVU54
 107:Drivers/BSP/Components/lan8742/lan8742.c ****        { 
 188              		.loc 1 107 10 is_stmt 0 view .LVU55
 189 0038 0028     		cmp	r0, #0
 190 003a F0DA     		bge	.L37
 105:Drivers/BSP/Components/lan8742/lan8742.c ****      {
 191              		.loc 1 105 55 view .LVU56
 192 003c 0134     		adds	r4, r4, #1
 193              	.LVL14:
 105:Drivers/BSP/Components/lan8742/lan8742.c ****      {
 194              		.loc 1 105 25 is_stmt 1 view .LVU57
 195 003e 202C     		cmp	r4, #32
 109:Drivers/BSP/Components/lan8742/lan8742.c ****          /* Can't read from this device address 
 196              		.loc 1 109 17 is_stmt 0 view .LVU58
 197 0040 6FF00406 		mvn	r6, #4
 105:Drivers/BSP/Components/lan8742/lan8742.c ****      {
 198              		.loc 1 105 25 view .LVU59
 199 0044 F3D1     		bne	.L18
 200              	.L36:
 201              	.LVL15:
 116:Drivers/BSP/Components/lan8742/lan8742.c ****        {
 117:Drivers/BSP/Components/lan8742/lan8742.c ****          pObj->DevAddr = addr;
 118:Drivers/BSP/Components/lan8742/lan8742.c ****          status = LAN8742_STATUS_OK;
 119:Drivers/BSP/Components/lan8742/lan8742.c ****          break;
 120:Drivers/BSP/Components/lan8742/lan8742.c ****        }
ARM GAS  /var/folders/0z/tsy30v1j4xl4_7kw94k978ww0000gn/T//ccKzZMzk.s 			page 7


 121:Drivers/BSP/Components/lan8742/lan8742.c ****      }
 122:Drivers/BSP/Components/lan8742/lan8742.c ****    
 123:Drivers/BSP/Components/lan8742/lan8742.c ****      if(pObj->DevAddr > LAN8742_MAX_DEV_ADDR)
 202              		.loc 1 123 6 is_stmt 1 view .LVU60
 203              		.loc 1 123 13 is_stmt 0 view .LVU61
 204 0046 2C68     		ldr	r4, [r5]
 205              	.LVL16:
 206              		.loc 1 123 8 view .LVU62
 207 0048 1F2C     		cmp	r4, #31
 208 004a 38D9     		bls	.L38
 124:Drivers/BSP/Components/lan8742/lan8742.c ****      {
 125:Drivers/BSP/Components/lan8742/lan8742.c ****        status = LAN8742_STATUS_ADDRESS_ERROR;
 209              		.loc 1 125 15 view .LVU63
 210 004c 6FF00206 		mvn	r6, #2
 211              	.LVL17:
 126:Drivers/BSP/Components/lan8742/lan8742.c ****      }
 127:Drivers/BSP/Components/lan8742/lan8742.c ****      
 128:Drivers/BSP/Components/lan8742/lan8742.c ****      /* if device address is matched */
 129:Drivers/BSP/Components/lan8742/lan8742.c ****      if(status == LAN8742_STATUS_OK)
 130:Drivers/BSP/Components/lan8742/lan8742.c ****      {
 131:Drivers/BSP/Components/lan8742/lan8742.c ****        /* set a software reset  */
 132:Drivers/BSP/Components/lan8742/lan8742.c ****        if(pObj->IO.WriteReg(pObj->DevAddr, LAN8742_BCR, LAN8742_BCR_SOFT_RESET) >= 0)
 133:Drivers/BSP/Components/lan8742/lan8742.c ****        { 
 134:Drivers/BSP/Components/lan8742/lan8742.c ****          /* get software reset status */
 135:Drivers/BSP/Components/lan8742/lan8742.c ****          if(pObj->IO.ReadReg(pObj->DevAddr, LAN8742_BCR, &regvalue) >= 0)
 136:Drivers/BSP/Components/lan8742/lan8742.c ****          { 
 137:Drivers/BSP/Components/lan8742/lan8742.c ****            tickstart = pObj->IO.GetTick();
 138:Drivers/BSP/Components/lan8742/lan8742.c ****            
 139:Drivers/BSP/Components/lan8742/lan8742.c ****            /* wait until software reset is done or timeout occured  */
 140:Drivers/BSP/Components/lan8742/lan8742.c ****            while(regvalue & LAN8742_BCR_SOFT_RESET)
 141:Drivers/BSP/Components/lan8742/lan8742.c ****            {
 142:Drivers/BSP/Components/lan8742/lan8742.c ****              if((pObj->IO.GetTick() - tickstart) <= LAN8742_SW_RESET_TO)
 143:Drivers/BSP/Components/lan8742/lan8742.c ****              {
 144:Drivers/BSP/Components/lan8742/lan8742.c ****                if(pObj->IO.ReadReg(pObj->DevAddr, LAN8742_BCR, &regvalue) < 0)
 145:Drivers/BSP/Components/lan8742/lan8742.c ****                { 
 146:Drivers/BSP/Components/lan8742/lan8742.c ****                  status = LAN8742_STATUS_READ_ERROR;
 147:Drivers/BSP/Components/lan8742/lan8742.c ****                  break;
 148:Drivers/BSP/Components/lan8742/lan8742.c ****                }
 149:Drivers/BSP/Components/lan8742/lan8742.c ****              }
 150:Drivers/BSP/Components/lan8742/lan8742.c ****              else
 151:Drivers/BSP/Components/lan8742/lan8742.c ****              {
 152:Drivers/BSP/Components/lan8742/lan8742.c ****                status = LAN8742_STATUS_RESET_TIMEOUT;
 153:Drivers/BSP/Components/lan8742/lan8742.c ****                break;
 154:Drivers/BSP/Components/lan8742/lan8742.c ****              }
 155:Drivers/BSP/Components/lan8742/lan8742.c ****            } 
 156:Drivers/BSP/Components/lan8742/lan8742.c ****          }
 157:Drivers/BSP/Components/lan8742/lan8742.c ****          else
 158:Drivers/BSP/Components/lan8742/lan8742.c ****          {
 159:Drivers/BSP/Components/lan8742/lan8742.c ****            status = LAN8742_STATUS_READ_ERROR;
 160:Drivers/BSP/Components/lan8742/lan8742.c ****          }
 161:Drivers/BSP/Components/lan8742/lan8742.c ****        }
 162:Drivers/BSP/Components/lan8742/lan8742.c ****        else
 163:Drivers/BSP/Components/lan8742/lan8742.c ****        {
 164:Drivers/BSP/Components/lan8742/lan8742.c ****          status = LAN8742_STATUS_WRITE_ERROR;
 165:Drivers/BSP/Components/lan8742/lan8742.c ****        }
 166:Drivers/BSP/Components/lan8742/lan8742.c ****      }
 167:Drivers/BSP/Components/lan8742/lan8742.c ****    }
ARM GAS  /var/folders/0z/tsy30v1j4xl4_7kw94k978ww0000gn/T//ccKzZMzk.s 			page 8


 168:Drivers/BSP/Components/lan8742/lan8742.c ****       
 169:Drivers/BSP/Components/lan8742/lan8742.c ****    if(status == LAN8742_STATUS_OK)
 170:Drivers/BSP/Components/lan8742/lan8742.c ****    {
 171:Drivers/BSP/Components/lan8742/lan8742.c ****      tickstart =  pObj->IO.GetTick();
 172:Drivers/BSP/Components/lan8742/lan8742.c ****      
 173:Drivers/BSP/Components/lan8742/lan8742.c ****      /* Wait for 2s to perform initialization */
 174:Drivers/BSP/Components/lan8742/lan8742.c ****      while((pObj->IO.GetTick() - tickstart) <= LAN8742_INIT_TO)
 175:Drivers/BSP/Components/lan8742/lan8742.c ****      {
 176:Drivers/BSP/Components/lan8742/lan8742.c ****      }
 177:Drivers/BSP/Components/lan8742/lan8742.c ****      pObj->Is_Initialized = 1;
 178:Drivers/BSP/Components/lan8742/lan8742.c ****    }
 179:Drivers/BSP/Components/lan8742/lan8742.c ****    
 180:Drivers/BSP/Components/lan8742/lan8742.c ****    return status;
 181:Drivers/BSP/Components/lan8742/lan8742.c ****  }
 212              		.loc 1 181 2 view .LVU64
 213 0050 3046     		mov	r0, r6
 214 0052 02B0     		add	sp, sp, #8
 215              		.cfi_remember_state
 216              		.cfi_def_cfa_offset 16
 217              		@ sp needed
 218 0054 70BD     		pop	{r4, r5, r6, pc}
 219              	.LVL18:
 220              	.L35:
 221              		.cfi_restore_state
 117:Drivers/BSP/Components/lan8742/lan8742.c ****          status = LAN8742_STATUS_OK;
 222              		.loc 1 117 10 is_stmt 1 view .LVU65
 117:Drivers/BSP/Components/lan8742/lan8742.c ****          status = LAN8742_STATUS_OK;
 223              		.loc 1 117 24 is_stmt 0 view .LVU66
 224 0056 2C60     		str	r4, [r5]
 118:Drivers/BSP/Components/lan8742/lan8742.c ****          break;
 225              		.loc 1 118 10 is_stmt 1 view .LVU67
 226              	.LVL19:
 119:Drivers/BSP/Components/lan8742/lan8742.c ****        }
 227              		.loc 1 119 10 view .LVU68
 123:Drivers/BSP/Components/lan8742/lan8742.c ****      {
 228              		.loc 1 123 6 view .LVU69
 229              	.L17:
 132:Drivers/BSP/Components/lan8742/lan8742.c ****        { 
 230              		.loc 1 132 8 view .LVU70
 132:Drivers/BSP/Components/lan8742/lan8742.c ****        { 
 231              		.loc 1 132 11 is_stmt 0 view .LVU71
 232 0058 2B69     		ldr	r3, [r5, #16]
 233 005a 4FF40042 		mov	r2, #32768
 234 005e 2046     		mov	r0, r4
 235 0060 0021     		movs	r1, #0
 236 0062 9847     		blx	r3
 237              	.LVL20:
 132:Drivers/BSP/Components/lan8742/lan8742.c ****        { 
 238              		.loc 1 132 10 view .LVU72
 239 0064 0028     		cmp	r0, #0
 240 0066 2DDB     		blt	.L27
 135:Drivers/BSP/Components/lan8742/lan8742.c ****          { 
 241              		.loc 1 135 10 is_stmt 1 view .LVU73
 135:Drivers/BSP/Components/lan8742/lan8742.c ****          { 
 242              		.loc 1 135 13 is_stmt 0 view .LVU74
 243 0068 6B69     		ldr	r3, [r5, #20]
 244 006a 2868     		ldr	r0, [r5]
ARM GAS  /var/folders/0z/tsy30v1j4xl4_7kw94k978ww0000gn/T//ccKzZMzk.s 			page 9


 245 006c 01AA     		add	r2, sp, #4
 246 006e 0021     		movs	r1, #0
 247 0070 9847     		blx	r3
 248              	.LVL21:
 135:Drivers/BSP/Components/lan8742/lan8742.c ****          { 
 249              		.loc 1 135 12 view .LVU75
 250 0072 0028     		cmp	r0, #0
 251 0074 2CDB     		blt	.L22
 137:Drivers/BSP/Components/lan8742/lan8742.c ****            
 252              		.loc 1 137 12 is_stmt 1 view .LVU76
 137:Drivers/BSP/Components/lan8742/lan8742.c ****            
 253              		.loc 1 137 24 is_stmt 0 view .LVU77
 254 0076 AB69     		ldr	r3, [r5, #24]
 255 0078 9847     		blx	r3
 256              	.LVL22:
 257 007a 0446     		mov	r4, r0
 258              	.LVL23:
 140:Drivers/BSP/Components/lan8742/lan8742.c ****            {
 259              		.loc 1 140 12 is_stmt 1 view .LVU78
 140:Drivers/BSP/Components/lan8742/lan8742.c ****            {
 260              		.loc 1 140 17 is_stmt 0 view .LVU79
 261 007c 0DE0     		b	.L21
 262              	.LVL24:
 263              	.L23:
 142:Drivers/BSP/Components/lan8742/lan8742.c ****              {
 264              		.loc 1 142 18 view .LVU80
 265 007e AB69     		ldr	r3, [r5, #24]
 266 0080 9847     		blx	r3
 267              	.LVL25:
 144:Drivers/BSP/Components/lan8742/lan8742.c ****                { 
 268              		.loc 1 144 16 is_stmt 1 view .LVU81
 142:Drivers/BSP/Components/lan8742/lan8742.c ****              {
 269              		.loc 1 142 37 is_stmt 0 view .LVU82
 270 0082 001B     		subs	r0, r0, r4
 142:Drivers/BSP/Components/lan8742/lan8742.c ****              {
 271              		.loc 1 142 16 view .LVU83
 272 0084 B0F5FA7F 		cmp	r0, #500
 144:Drivers/BSP/Components/lan8742/lan8742.c ****                { 
 273              		.loc 1 144 19 view .LVU84
 274 0088 01AA     		add	r2, sp, #4
 275 008a 4FF00001 		mov	r1, #0
 142:Drivers/BSP/Components/lan8742/lan8742.c ****              {
 276              		.loc 1 142 16 view .LVU85
 277 008e 1CD8     		bhi	.L28
 144:Drivers/BSP/Components/lan8742/lan8742.c ****                { 
 278              		.loc 1 144 19 view .LVU86
 279 0090 6B69     		ldr	r3, [r5, #20]
 280 0092 2868     		ldr	r0, [r5]
 281 0094 9847     		blx	r3
 282              	.LVL26:
 144:Drivers/BSP/Components/lan8742/lan8742.c ****                { 
 283              		.loc 1 144 18 view .LVU87
 284 0096 0028     		cmp	r0, #0
 285 0098 1ADB     		blt	.L22
 286              	.L21:
 142:Drivers/BSP/Components/lan8742/lan8742.c ****              {
 287              		.loc 1 142 14 is_stmt 1 view .LVU88
ARM GAS  /var/folders/0z/tsy30v1j4xl4_7kw94k978ww0000gn/T//ccKzZMzk.s 			page 10


 140:Drivers/BSP/Components/lan8742/lan8742.c ****            {
 288              		.loc 1 140 18 view .LVU89
 140:Drivers/BSP/Components/lan8742/lan8742.c ****            {
 289              		.loc 1 140 27 is_stmt 0 view .LVU90
 290 009a 019B     		ldr	r3, [sp, #4]
 140:Drivers/BSP/Components/lan8742/lan8742.c ****            {
 291              		.loc 1 140 18 view .LVU91
 292 009c 1B04     		lsls	r3, r3, #16
 293 009e EED4     		bmi	.L23
 294              	.LVL27:
 295              	.L24:
 171:Drivers/BSP/Components/lan8742/lan8742.c ****      
 296              		.loc 1 171 6 is_stmt 1 view .LVU92
 171:Drivers/BSP/Components/lan8742/lan8742.c ****      
 297              		.loc 1 171 19 is_stmt 0 view .LVU93
 298 00a0 AB69     		ldr	r3, [r5, #24]
 299 00a2 9847     		blx	r3
 300              	.LVL28:
 301 00a4 0446     		mov	r4, r0
 302              	.LVL29:
 174:Drivers/BSP/Components/lan8742/lan8742.c ****      {
 303              		.loc 1 174 6 is_stmt 1 view .LVU94
 304              	.L14:
 176:Drivers/BSP/Components/lan8742/lan8742.c ****      pObj->Is_Initialized = 1;
 305              		.loc 1 176 6 discriminator 1 view .LVU95
 174:Drivers/BSP/Components/lan8742/lan8742.c ****      {
 306              		.loc 1 174 45 discriminator 1 view .LVU96
 174:Drivers/BSP/Components/lan8742/lan8742.c ****      {
 307              		.loc 1 174 13 is_stmt 0 discriminator 1 view .LVU97
 308 00a6 AB69     		ldr	r3, [r5, #24]
 309 00a8 9847     		blx	r3
 310              	.LVL30:
 174:Drivers/BSP/Components/lan8742/lan8742.c ****      {
 311              		.loc 1 174 32 discriminator 1 view .LVU98
 312 00aa 031B     		subs	r3, r0, r4
 174:Drivers/BSP/Components/lan8742/lan8742.c ****      {
 313              		.loc 1 174 45 discriminator 1 view .LVU99
 314 00ac B3F5FA6F 		cmp	r3, #2000
 315 00b0 F9D9     		bls	.L14
 177:Drivers/BSP/Components/lan8742/lan8742.c ****    }
 316              		.loc 1 177 6 is_stmt 1 view .LVU100
 177:Drivers/BSP/Components/lan8742/lan8742.c ****    }
 317              		.loc 1 177 27 is_stmt 0 view .LVU101
 318 00b2 0123     		movs	r3, #1
 319 00b4 6B60     		str	r3, [r5, #4]
 320 00b6 0026     		movs	r6, #0
 321              	.LVL31:
 322              	.L12:
 323              		.loc 1 181 2 view .LVU102
 324 00b8 3046     		mov	r0, r6
 325 00ba 02B0     		add	sp, sp, #8
 326              		.cfi_remember_state
 327              		.cfi_def_cfa_offset 16
 328              		@ sp needed
 329 00bc 70BD     		pop	{r4, r5, r6, pc}
 330              	.LVL32:
 331              	.L38:
ARM GAS  /var/folders/0z/tsy30v1j4xl4_7kw94k978ww0000gn/T//ccKzZMzk.s 			page 11


 332              		.cfi_restore_state
 129:Drivers/BSP/Components/lan8742/lan8742.c ****      {
 333              		.loc 1 129 6 is_stmt 1 view .LVU103
 129:Drivers/BSP/Components/lan8742/lan8742.c ****      {
 334              		.loc 1 129 8 is_stmt 0 view .LVU104
 335 00be 002E     		cmp	r6, #0
 336 00c0 FAD1     		bne	.L12
 337 00c2 C9E7     		b	.L17
 338              	.LVL33:
 339              	.L27:
 164:Drivers/BSP/Components/lan8742/lan8742.c ****        }
 340              		.loc 1 164 17 view .LVU105
 341 00c4 6FF00306 		mvn	r6, #3
 342 00c8 F6E7     		b	.L12
 343              	.LVL34:
 344              	.L28:
 152:Drivers/BSP/Components/lan8742/lan8742.c ****                break;
 345              		.loc 1 152 23 view .LVU106
 346 00ca 6FF00106 		mvn	r6, #1
 180:Drivers/BSP/Components/lan8742/lan8742.c ****  }
 347              		.loc 1 180 4 is_stmt 1 view .LVU107
 180:Drivers/BSP/Components/lan8742/lan8742.c ****  }
 348              		.loc 1 180 11 is_stmt 0 view .LVU108
 349 00ce F3E7     		b	.L12
 350              	.LVL35:
 351              	.L22:
 159:Drivers/BSP/Components/lan8742/lan8742.c ****          }
 352              		.loc 1 159 19 view .LVU109
 353 00d0 6FF00406 		mvn	r6, #4
 354 00d4 F0E7     		b	.L12
 355              		.cfi_endproc
 356              	.LFE1:
 358 00d6 00BF     		.section	.text.LAN8742_DeInit,"ax",%progbits
 359              		.align	1
 360              		.p2align 2,,3
 361              		.global	LAN8742_DeInit
 362              		.syntax unified
 363              		.thumb
 364              		.thumb_func
 366              	LAN8742_DeInit:
 367              	.LVL36:
 368              	.LFB2:
 182:Drivers/BSP/Components/lan8742/lan8742.c **** 
 183:Drivers/BSP/Components/lan8742/lan8742.c **** /**
 184:Drivers/BSP/Components/lan8742/lan8742.c ****   * @brief  De-Initialize the lan8742 and it's hardware resources
 185:Drivers/BSP/Components/lan8742/lan8742.c ****   * @param  pObj: device object LAN8742_Object_t. 
 186:Drivers/BSP/Components/lan8742/lan8742.c ****   * @retval None
 187:Drivers/BSP/Components/lan8742/lan8742.c ****   */
 188:Drivers/BSP/Components/lan8742/lan8742.c **** int32_t LAN8742_DeInit(lan8742_Object_t *pObj)
 189:Drivers/BSP/Components/lan8742/lan8742.c **** {
 369              		.loc 1 189 1 is_stmt 1 view -0
 370              		.cfi_startproc
 371              		@ args = 0, pretend = 0, frame = 0
 372              		@ frame_needed = 0, uses_anonymous_args = 0
 190:Drivers/BSP/Components/lan8742/lan8742.c ****   if(pObj->Is_Initialized)
 373              		.loc 1 190 3 view .LVU111
 189:Drivers/BSP/Components/lan8742/lan8742.c ****   if(pObj->Is_Initialized)
ARM GAS  /var/folders/0z/tsy30v1j4xl4_7kw94k978ww0000gn/T//ccKzZMzk.s 			page 12


 374              		.loc 1 189 1 is_stmt 0 view .LVU112
 375 0000 10B5     		push	{r4, lr}
 376              		.cfi_def_cfa_offset 8
 377              		.cfi_offset 4, -8
 378              		.cfi_offset 14, -4
 189:Drivers/BSP/Components/lan8742/lan8742.c ****   if(pObj->Is_Initialized)
 379              		.loc 1 189 1 view .LVU113
 380 0002 0446     		mov	r4, r0
 381              		.loc 1 190 5 view .LVU114
 382 0004 4068     		ldr	r0, [r0, #4]
 383              	.LVL37:
 384              		.loc 1 190 5 view .LVU115
 385 0006 30B1     		cbz	r0, .L39
 191:Drivers/BSP/Components/lan8742/lan8742.c ****   {
 192:Drivers/BSP/Components/lan8742/lan8742.c ****     if(pObj->IO.DeInit != 0)
 386              		.loc 1 192 5 is_stmt 1 view .LVU116
 387              		.loc 1 192 16 is_stmt 0 view .LVU117
 388 0008 E368     		ldr	r3, [r4, #12]
 389              		.loc 1 192 7 view .LVU118
 390 000a 13B1     		cbz	r3, .L42
 193:Drivers/BSP/Components/lan8742/lan8742.c ****     {
 194:Drivers/BSP/Components/lan8742/lan8742.c ****       if(pObj->IO.DeInit() < 0)
 391              		.loc 1 194 7 is_stmt 1 view .LVU119
 392              		.loc 1 194 10 is_stmt 0 view .LVU120
 393 000c 9847     		blx	r3
 394              	.LVL38:
 395              		.loc 1 194 9 view .LVU121
 396 000e 0028     		cmp	r0, #0
 397 0010 02DB     		blt	.L45
 398              	.L42:
 195:Drivers/BSP/Components/lan8742/lan8742.c ****       {
 196:Drivers/BSP/Components/lan8742/lan8742.c ****         return LAN8742_STATUS_ERROR;
 197:Drivers/BSP/Components/lan8742/lan8742.c ****       }
 198:Drivers/BSP/Components/lan8742/lan8742.c ****     }
 199:Drivers/BSP/Components/lan8742/lan8742.c ****   
 200:Drivers/BSP/Components/lan8742/lan8742.c ****     pObj->Is_Initialized = 0;  
 399              		.loc 1 200 5 is_stmt 1 view .LVU122
 400              		.loc 1 200 26 is_stmt 0 view .LVU123
 401 0012 0020     		movs	r0, #0
 402 0014 6060     		str	r0, [r4, #4]
 403              	.L39:
 201:Drivers/BSP/Components/lan8742/lan8742.c ****   }
 202:Drivers/BSP/Components/lan8742/lan8742.c ****   
 203:Drivers/BSP/Components/lan8742/lan8742.c ****   return LAN8742_STATUS_OK;
 204:Drivers/BSP/Components/lan8742/lan8742.c **** }
 404              		.loc 1 204 1 view .LVU124
 405 0016 10BD     		pop	{r4, pc}
 406              	.LVL39:
 407              	.L45:
 196:Drivers/BSP/Components/lan8742/lan8742.c ****       }
 408              		.loc 1 196 16 view .LVU125
 409 0018 4FF0FF30 		mov	r0, #-1
 410              		.loc 1 204 1 view .LVU126
 411 001c 10BD     		pop	{r4, pc}
 412              		.loc 1 204 1 view .LVU127
 413              		.cfi_endproc
 414              	.LFE2:
ARM GAS  /var/folders/0z/tsy30v1j4xl4_7kw94k978ww0000gn/T//ccKzZMzk.s 			page 13


 416 001e 00BF     		.section	.text.LAN8742_DisablePowerDownMode,"ax",%progbits
 417              		.align	1
 418              		.p2align 2,,3
 419              		.global	LAN8742_DisablePowerDownMode
 420              		.syntax unified
 421              		.thumb
 422              		.thumb_func
 424              	LAN8742_DisablePowerDownMode:
 425              	.LVL40:
 426              	.LFB3:
 205:Drivers/BSP/Components/lan8742/lan8742.c **** 
 206:Drivers/BSP/Components/lan8742/lan8742.c **** /**
 207:Drivers/BSP/Components/lan8742/lan8742.c ****   * @brief  Disable the LAN8742 power down mode.
 208:Drivers/BSP/Components/lan8742/lan8742.c ****   * @param  pObj: device object LAN8742_Object_t.  
 209:Drivers/BSP/Components/lan8742/lan8742.c ****   * @retval LAN8742_STATUS_OK  if OK
 210:Drivers/BSP/Components/lan8742/lan8742.c ****   *         LAN8742_STATUS_READ_ERROR if connot read register
 211:Drivers/BSP/Components/lan8742/lan8742.c ****   *         LAN8742_STATUS_WRITE_ERROR if connot write to register
 212:Drivers/BSP/Components/lan8742/lan8742.c ****   */
 213:Drivers/BSP/Components/lan8742/lan8742.c **** int32_t LAN8742_DisablePowerDownMode(lan8742_Object_t *pObj)
 214:Drivers/BSP/Components/lan8742/lan8742.c **** {
 427              		.loc 1 214 1 is_stmt 1 view -0
 428              		.cfi_startproc
 429              		@ args = 0, pretend = 0, frame = 8
 430              		@ frame_needed = 0, uses_anonymous_args = 0
 215:Drivers/BSP/Components/lan8742/lan8742.c ****   uint32_t readval = 0;
 431              		.loc 1 215 3 view .LVU129
 214:Drivers/BSP/Components/lan8742/lan8742.c ****   uint32_t readval = 0;
 432              		.loc 1 214 1 is_stmt 0 view .LVU130
 433 0000 30B5     		push	{r4, r5, lr}
 434              		.cfi_def_cfa_offset 12
 435              		.cfi_offset 4, -12
 436              		.cfi_offset 5, -8
 437              		.cfi_offset 14, -4
 438 0002 83B0     		sub	sp, sp, #12
 439              		.cfi_def_cfa_offset 24
 440              		.loc 1 215 12 view .LVU131
 441 0004 0025     		movs	r5, #0
 216:Drivers/BSP/Components/lan8742/lan8742.c ****   int32_t status = LAN8742_STATUS_OK;
 217:Drivers/BSP/Components/lan8742/lan8742.c ****   
 218:Drivers/BSP/Components/lan8742/lan8742.c ****   if(pObj->IO.ReadReg(pObj->DevAddr, LAN8742_BCR, &readval) >= 0)
 442              		.loc 1 218 6 view .LVU132
 443 0006 4369     		ldr	r3, [r0, #20]
 215:Drivers/BSP/Components/lan8742/lan8742.c ****   int32_t status = LAN8742_STATUS_OK;
 444              		.loc 1 215 12 view .LVU133
 445 0008 0195     		str	r5, [sp, #4]
 216:Drivers/BSP/Components/lan8742/lan8742.c ****   int32_t status = LAN8742_STATUS_OK;
 446              		.loc 1 216 3 is_stmt 1 view .LVU134
 447              	.LVL41:
 448              		.loc 1 218 3 view .LVU135
 214:Drivers/BSP/Components/lan8742/lan8742.c ****   uint32_t readval = 0;
 449              		.loc 1 214 1 is_stmt 0 view .LVU136
 450 000a 0446     		mov	r4, r0
 451              		.loc 1 218 6 view .LVU137
 452 000c 01AA     		add	r2, sp, #4
 453 000e 0068     		ldr	r0, [r0]
 454              	.LVL42:
 455              		.loc 1 218 6 view .LVU138
ARM GAS  /var/folders/0z/tsy30v1j4xl4_7kw94k978ww0000gn/T//ccKzZMzk.s 			page 14


 456 0010 2946     		mov	r1, r5
 457 0012 9847     		blx	r3
 458              	.LVL43:
 459              		.loc 1 218 5 view .LVU139
 460 0014 A842     		cmp	r0, r5
 461 0016 0EDB     		blt	.L48
 219:Drivers/BSP/Components/lan8742/lan8742.c ****   {
 220:Drivers/BSP/Components/lan8742/lan8742.c ****     readval &= ~LAN8742_BCR_POWER_DOWN;
 462              		.loc 1 220 5 is_stmt 1 view .LVU140
 463              		.loc 1 220 13 is_stmt 0 view .LVU141
 464 0018 019A     		ldr	r2, [sp, #4]
 221:Drivers/BSP/Components/lan8742/lan8742.c ****   
 222:Drivers/BSP/Components/lan8742/lan8742.c ****     /* Apply configuration */
 223:Drivers/BSP/Components/lan8742/lan8742.c ****     if(pObj->IO.WriteReg(pObj->DevAddr, LAN8742_BCR, readval) < 0)
 465              		.loc 1 223 8 view .LVU142
 466 001a 2369     		ldr	r3, [r4, #16]
 467 001c 2068     		ldr	r0, [r4]
 220:Drivers/BSP/Components/lan8742/lan8742.c ****   
 468              		.loc 1 220 13 view .LVU143
 469 001e 22F40062 		bic	r2, r2, #2048
 470 0022 0192     		str	r2, [sp, #4]
 471              		.loc 1 223 5 is_stmt 1 view .LVU144
 472              		.loc 1 223 8 is_stmt 0 view .LVU145
 473 0024 2946     		mov	r1, r5
 474 0026 9847     		blx	r3
 475              	.LVL44:
 224:Drivers/BSP/Components/lan8742/lan8742.c ****     {
 225:Drivers/BSP/Components/lan8742/lan8742.c ****       status =  LAN8742_STATUS_WRITE_ERROR;
 476              		.loc 1 225 14 view .LVU146
 477 0028 A842     		cmp	r0, r5
 478 002a ACBF     		ite	ge
 479 002c 2846     		movge	r0, r5
 480 002e 6FF00300 		mvnlt	r0, #3
 481              	.L46:
 226:Drivers/BSP/Components/lan8742/lan8742.c ****     }
 227:Drivers/BSP/Components/lan8742/lan8742.c ****   }
 228:Drivers/BSP/Components/lan8742/lan8742.c ****   else
 229:Drivers/BSP/Components/lan8742/lan8742.c ****   {
 230:Drivers/BSP/Components/lan8742/lan8742.c ****     status = LAN8742_STATUS_READ_ERROR;
 231:Drivers/BSP/Components/lan8742/lan8742.c ****   }
 232:Drivers/BSP/Components/lan8742/lan8742.c ****    
 233:Drivers/BSP/Components/lan8742/lan8742.c ****   return status;
 234:Drivers/BSP/Components/lan8742/lan8742.c **** }
 482              		.loc 1 234 1 view .LVU147
 483 0032 03B0     		add	sp, sp, #12
 484              		.cfi_remember_state
 485              		.cfi_def_cfa_offset 12
 486              		@ sp needed
 487 0034 30BD     		pop	{r4, r5, pc}
 488              	.LVL45:
 489              	.L48:
 490              		.cfi_restore_state
 230:Drivers/BSP/Components/lan8742/lan8742.c ****   }
 491              		.loc 1 230 12 view .LVU148
 492 0036 6FF00400 		mvn	r0, #4
 493 003a FAE7     		b	.L46
 494              		.cfi_endproc
ARM GAS  /var/folders/0z/tsy30v1j4xl4_7kw94k978ww0000gn/T//ccKzZMzk.s 			page 15


 495              	.LFE3:
 497              		.section	.text.LAN8742_EnablePowerDownMode,"ax",%progbits
 498              		.align	1
 499              		.p2align 2,,3
 500              		.global	LAN8742_EnablePowerDownMode
 501              		.syntax unified
 502              		.thumb
 503              		.thumb_func
 505              	LAN8742_EnablePowerDownMode:
 506              	.LVL46:
 507              	.LFB4:
 235:Drivers/BSP/Components/lan8742/lan8742.c **** 
 236:Drivers/BSP/Components/lan8742/lan8742.c **** /**
 237:Drivers/BSP/Components/lan8742/lan8742.c ****   * @brief  Enable the LAN8742 power down mode.
 238:Drivers/BSP/Components/lan8742/lan8742.c ****   * @param  pObj: device object LAN8742_Object_t.  
 239:Drivers/BSP/Components/lan8742/lan8742.c ****   * @retval LAN8742_STATUS_OK  if OK
 240:Drivers/BSP/Components/lan8742/lan8742.c ****   *         LAN8742_STATUS_READ_ERROR if connot read register
 241:Drivers/BSP/Components/lan8742/lan8742.c ****   *         LAN8742_STATUS_WRITE_ERROR if connot write to register
 242:Drivers/BSP/Components/lan8742/lan8742.c ****   */
 243:Drivers/BSP/Components/lan8742/lan8742.c **** int32_t LAN8742_EnablePowerDownMode(lan8742_Object_t *pObj)
 244:Drivers/BSP/Components/lan8742/lan8742.c **** {
 508              		.loc 1 244 1 is_stmt 1 view -0
 509              		.cfi_startproc
 510              		@ args = 0, pretend = 0, frame = 8
 511              		@ frame_needed = 0, uses_anonymous_args = 0
 245:Drivers/BSP/Components/lan8742/lan8742.c ****   uint32_t readval = 0;
 512              		.loc 1 245 3 view .LVU150
 244:Drivers/BSP/Components/lan8742/lan8742.c ****   uint32_t readval = 0;
 513              		.loc 1 244 1 is_stmt 0 view .LVU151
 514 0000 30B5     		push	{r4, r5, lr}
 515              		.cfi_def_cfa_offset 12
 516              		.cfi_offset 4, -12
 517              		.cfi_offset 5, -8
 518              		.cfi_offset 14, -4
 519 0002 83B0     		sub	sp, sp, #12
 520              		.cfi_def_cfa_offset 24
 521              		.loc 1 245 12 view .LVU152
 522 0004 0025     		movs	r5, #0
 246:Drivers/BSP/Components/lan8742/lan8742.c ****   int32_t status = LAN8742_STATUS_OK;
 247:Drivers/BSP/Components/lan8742/lan8742.c ****   
 248:Drivers/BSP/Components/lan8742/lan8742.c ****   if(pObj->IO.ReadReg(pObj->DevAddr, LAN8742_BCR, &readval) >= 0)
 523              		.loc 1 248 6 view .LVU153
 524 0006 4369     		ldr	r3, [r0, #20]
 245:Drivers/BSP/Components/lan8742/lan8742.c ****   int32_t status = LAN8742_STATUS_OK;
 525              		.loc 1 245 12 view .LVU154
 526 0008 0195     		str	r5, [sp, #4]
 246:Drivers/BSP/Components/lan8742/lan8742.c ****   int32_t status = LAN8742_STATUS_OK;
 527              		.loc 1 246 3 is_stmt 1 view .LVU155
 528              	.LVL47:
 529              		.loc 1 248 3 view .LVU156
 244:Drivers/BSP/Components/lan8742/lan8742.c ****   uint32_t readval = 0;
 530              		.loc 1 244 1 is_stmt 0 view .LVU157
 531 000a 0446     		mov	r4, r0
 532              		.loc 1 248 6 view .LVU158
 533 000c 01AA     		add	r2, sp, #4
 534 000e 0068     		ldr	r0, [r0]
 535              	.LVL48:
ARM GAS  /var/folders/0z/tsy30v1j4xl4_7kw94k978ww0000gn/T//ccKzZMzk.s 			page 16


 536              		.loc 1 248 6 view .LVU159
 537 0010 2946     		mov	r1, r5
 538 0012 9847     		blx	r3
 539              	.LVL49:
 540              		.loc 1 248 5 view .LVU160
 541 0014 A842     		cmp	r0, r5
 542 0016 0EDB     		blt	.L53
 249:Drivers/BSP/Components/lan8742/lan8742.c ****   {
 250:Drivers/BSP/Components/lan8742/lan8742.c ****     readval |= LAN8742_BCR_POWER_DOWN;
 543              		.loc 1 250 5 is_stmt 1 view .LVU161
 544              		.loc 1 250 13 is_stmt 0 view .LVU162
 545 0018 019A     		ldr	r2, [sp, #4]
 251:Drivers/BSP/Components/lan8742/lan8742.c ****   
 252:Drivers/BSP/Components/lan8742/lan8742.c ****     /* Apply configuration */
 253:Drivers/BSP/Components/lan8742/lan8742.c ****     if(pObj->IO.WriteReg(pObj->DevAddr, LAN8742_BCR, readval) < 0)
 546              		.loc 1 253 8 view .LVU163
 547 001a 2369     		ldr	r3, [r4, #16]
 548 001c 2068     		ldr	r0, [r4]
 250:Drivers/BSP/Components/lan8742/lan8742.c ****   
 549              		.loc 1 250 13 view .LVU164
 550 001e 42F40062 		orr	r2, r2, #2048
 551 0022 0192     		str	r2, [sp, #4]
 552              		.loc 1 253 5 is_stmt 1 view .LVU165
 553              		.loc 1 253 8 is_stmt 0 view .LVU166
 554 0024 2946     		mov	r1, r5
 555 0026 9847     		blx	r3
 556              	.LVL50:
 254:Drivers/BSP/Components/lan8742/lan8742.c ****     {
 255:Drivers/BSP/Components/lan8742/lan8742.c ****       status =  LAN8742_STATUS_WRITE_ERROR;
 557              		.loc 1 255 14 view .LVU167
 558 0028 A842     		cmp	r0, r5
 559 002a ACBF     		ite	ge
 560 002c 2846     		movge	r0, r5
 561 002e 6FF00300 		mvnlt	r0, #3
 562              	.L51:
 256:Drivers/BSP/Components/lan8742/lan8742.c ****     }
 257:Drivers/BSP/Components/lan8742/lan8742.c ****   }
 258:Drivers/BSP/Components/lan8742/lan8742.c ****   else
 259:Drivers/BSP/Components/lan8742/lan8742.c ****   {
 260:Drivers/BSP/Components/lan8742/lan8742.c ****     status = LAN8742_STATUS_READ_ERROR;
 261:Drivers/BSP/Components/lan8742/lan8742.c ****   }
 262:Drivers/BSP/Components/lan8742/lan8742.c ****    
 263:Drivers/BSP/Components/lan8742/lan8742.c ****   return status;
 264:Drivers/BSP/Components/lan8742/lan8742.c **** }
 563              		.loc 1 264 1 view .LVU168
 564 0032 03B0     		add	sp, sp, #12
 565              		.cfi_remember_state
 566              		.cfi_def_cfa_offset 12
 567              		@ sp needed
 568 0034 30BD     		pop	{r4, r5, pc}
 569              	.LVL51:
 570              	.L53:
 571              		.cfi_restore_state
 260:Drivers/BSP/Components/lan8742/lan8742.c ****   }
 572              		.loc 1 260 12 view .LVU169
 573 0036 6FF00400 		mvn	r0, #4
 574 003a FAE7     		b	.L51
ARM GAS  /var/folders/0z/tsy30v1j4xl4_7kw94k978ww0000gn/T//ccKzZMzk.s 			page 17


 575              		.cfi_endproc
 576              	.LFE4:
 578              		.section	.text.LAN8742_StartAutoNego,"ax",%progbits
 579              		.align	1
 580              		.p2align 2,,3
 581              		.global	LAN8742_StartAutoNego
 582              		.syntax unified
 583              		.thumb
 584              		.thumb_func
 586              	LAN8742_StartAutoNego:
 587              	.LVL52:
 588              	.LFB5:
 265:Drivers/BSP/Components/lan8742/lan8742.c **** 
 266:Drivers/BSP/Components/lan8742/lan8742.c **** /**
 267:Drivers/BSP/Components/lan8742/lan8742.c ****   * @brief  Start the auto negotiation process.
 268:Drivers/BSP/Components/lan8742/lan8742.c ****   * @param  pObj: device object LAN8742_Object_t.  
 269:Drivers/BSP/Components/lan8742/lan8742.c ****   * @retval LAN8742_STATUS_OK  if OK
 270:Drivers/BSP/Components/lan8742/lan8742.c ****   *         LAN8742_STATUS_READ_ERROR if connot read register
 271:Drivers/BSP/Components/lan8742/lan8742.c ****   *         LAN8742_STATUS_WRITE_ERROR if connot write to register
 272:Drivers/BSP/Components/lan8742/lan8742.c ****   */
 273:Drivers/BSP/Components/lan8742/lan8742.c **** int32_t LAN8742_StartAutoNego(lan8742_Object_t *pObj)
 274:Drivers/BSP/Components/lan8742/lan8742.c **** {
 589              		.loc 1 274 1 is_stmt 1 view -0
 590              		.cfi_startproc
 591              		@ args = 0, pretend = 0, frame = 8
 592              		@ frame_needed = 0, uses_anonymous_args = 0
 275:Drivers/BSP/Components/lan8742/lan8742.c ****   uint32_t readval = 0;
 593              		.loc 1 275 3 view .LVU171
 274:Drivers/BSP/Components/lan8742/lan8742.c ****   uint32_t readval = 0;
 594              		.loc 1 274 1 is_stmt 0 view .LVU172
 595 0000 30B5     		push	{r4, r5, lr}
 596              		.cfi_def_cfa_offset 12
 597              		.cfi_offset 4, -12
 598              		.cfi_offset 5, -8
 599              		.cfi_offset 14, -4
 600 0002 83B0     		sub	sp, sp, #12
 601              		.cfi_def_cfa_offset 24
 602              		.loc 1 275 12 view .LVU173
 603 0004 0025     		movs	r5, #0
 276:Drivers/BSP/Components/lan8742/lan8742.c ****   int32_t status = LAN8742_STATUS_OK;
 277:Drivers/BSP/Components/lan8742/lan8742.c ****   
 278:Drivers/BSP/Components/lan8742/lan8742.c ****   if(pObj->IO.ReadReg(pObj->DevAddr, LAN8742_BCR, &readval) >= 0)
 604              		.loc 1 278 6 view .LVU174
 605 0006 4369     		ldr	r3, [r0, #20]
 275:Drivers/BSP/Components/lan8742/lan8742.c ****   int32_t status = LAN8742_STATUS_OK;
 606              		.loc 1 275 12 view .LVU175
 607 0008 0195     		str	r5, [sp, #4]
 276:Drivers/BSP/Components/lan8742/lan8742.c ****   int32_t status = LAN8742_STATUS_OK;
 608              		.loc 1 276 3 is_stmt 1 view .LVU176
 609              	.LVL53:
 610              		.loc 1 278 3 view .LVU177
 274:Drivers/BSP/Components/lan8742/lan8742.c ****   uint32_t readval = 0;
 611              		.loc 1 274 1 is_stmt 0 view .LVU178
 612 000a 0446     		mov	r4, r0
 613              		.loc 1 278 6 view .LVU179
 614 000c 01AA     		add	r2, sp, #4
 615 000e 0068     		ldr	r0, [r0]
ARM GAS  /var/folders/0z/tsy30v1j4xl4_7kw94k978ww0000gn/T//ccKzZMzk.s 			page 18


 616              	.LVL54:
 617              		.loc 1 278 6 view .LVU180
 618 0010 2946     		mov	r1, r5
 619 0012 9847     		blx	r3
 620              	.LVL55:
 621              		.loc 1 278 5 view .LVU181
 622 0014 A842     		cmp	r0, r5
 623 0016 0EDB     		blt	.L58
 279:Drivers/BSP/Components/lan8742/lan8742.c ****   {
 280:Drivers/BSP/Components/lan8742/lan8742.c ****     readval |= LAN8742_BCR_AUTONEGO_EN;
 624              		.loc 1 280 5 is_stmt 1 view .LVU182
 625              		.loc 1 280 13 is_stmt 0 view .LVU183
 626 0018 019A     		ldr	r2, [sp, #4]
 281:Drivers/BSP/Components/lan8742/lan8742.c ****   
 282:Drivers/BSP/Components/lan8742/lan8742.c ****     /* Apply configuration */
 283:Drivers/BSP/Components/lan8742/lan8742.c ****     if(pObj->IO.WriteReg(pObj->DevAddr, LAN8742_BCR, readval) < 0)
 627              		.loc 1 283 8 view .LVU184
 628 001a 2369     		ldr	r3, [r4, #16]
 629 001c 2068     		ldr	r0, [r4]
 280:Drivers/BSP/Components/lan8742/lan8742.c ****   
 630              		.loc 1 280 13 view .LVU185
 631 001e 42F48052 		orr	r2, r2, #4096
 632 0022 0192     		str	r2, [sp, #4]
 633              		.loc 1 283 5 is_stmt 1 view .LVU186
 634              		.loc 1 283 8 is_stmt 0 view .LVU187
 635 0024 2946     		mov	r1, r5
 636 0026 9847     		blx	r3
 637              	.LVL56:
 284:Drivers/BSP/Components/lan8742/lan8742.c ****     {
 285:Drivers/BSP/Components/lan8742/lan8742.c ****       status =  LAN8742_STATUS_WRITE_ERROR;
 638              		.loc 1 285 14 view .LVU188
 639 0028 A842     		cmp	r0, r5
 640 002a ACBF     		ite	ge
 641 002c 2846     		movge	r0, r5
 642 002e 6FF00300 		mvnlt	r0, #3
 643              	.L56:
 286:Drivers/BSP/Components/lan8742/lan8742.c ****     }
 287:Drivers/BSP/Components/lan8742/lan8742.c ****   }
 288:Drivers/BSP/Components/lan8742/lan8742.c ****   else
 289:Drivers/BSP/Components/lan8742/lan8742.c ****   {
 290:Drivers/BSP/Components/lan8742/lan8742.c ****     status = LAN8742_STATUS_READ_ERROR;
 291:Drivers/BSP/Components/lan8742/lan8742.c ****   }
 292:Drivers/BSP/Components/lan8742/lan8742.c ****    
 293:Drivers/BSP/Components/lan8742/lan8742.c ****   return status;
 294:Drivers/BSP/Components/lan8742/lan8742.c **** }
 644              		.loc 1 294 1 view .LVU189
 645 0032 03B0     		add	sp, sp, #12
 646              		.cfi_remember_state
 647              		.cfi_def_cfa_offset 12
 648              		@ sp needed
 649 0034 30BD     		pop	{r4, r5, pc}
 650              	.LVL57:
 651              	.L58:
 652              		.cfi_restore_state
 290:Drivers/BSP/Components/lan8742/lan8742.c ****   }
 653              		.loc 1 290 12 view .LVU190
 654 0036 6FF00400 		mvn	r0, #4
ARM GAS  /var/folders/0z/tsy30v1j4xl4_7kw94k978ww0000gn/T//ccKzZMzk.s 			page 19


 655 003a FAE7     		b	.L56
 656              		.cfi_endproc
 657              	.LFE5:
 659              		.section	.text.LAN8742_GetLinkState,"ax",%progbits
 660              		.align	1
 661              		.p2align 2,,3
 662              		.global	LAN8742_GetLinkState
 663              		.syntax unified
 664              		.thumb
 665              		.thumb_func
 667              	LAN8742_GetLinkState:
 668              	.LVL58:
 669              	.LFB6:
 295:Drivers/BSP/Components/lan8742/lan8742.c **** 
 296:Drivers/BSP/Components/lan8742/lan8742.c **** /**
 297:Drivers/BSP/Components/lan8742/lan8742.c ****   * @brief  Get the link state of LAN8742 device.
 298:Drivers/BSP/Components/lan8742/lan8742.c ****   * @param  pObj: Pointer to device object. 
 299:Drivers/BSP/Components/lan8742/lan8742.c ****   * @param  pLinkState: Pointer to link state
 300:Drivers/BSP/Components/lan8742/lan8742.c ****   * @retval LAN8742_STATUS_LINK_DOWN  if link is down
 301:Drivers/BSP/Components/lan8742/lan8742.c ****   *         LAN8742_STATUS_AUTONEGO_NOTDONE if Auto nego not completed 
 302:Drivers/BSP/Components/lan8742/lan8742.c ****   *         LAN8742_STATUS_100MBITS_FULLDUPLEX if 100Mb/s FD
 303:Drivers/BSP/Components/lan8742/lan8742.c ****   *         LAN8742_STATUS_100MBITS_HALFDUPLEX if 100Mb/s HD
 304:Drivers/BSP/Components/lan8742/lan8742.c ****   *         LAN8742_STATUS_10MBITS_FULLDUPLEX  if 10Mb/s FD
 305:Drivers/BSP/Components/lan8742/lan8742.c ****   *         LAN8742_STATUS_10MBITS_HALFDUPLEX  if 10Mb/s HD       
 306:Drivers/BSP/Components/lan8742/lan8742.c ****   *         LAN8742_STATUS_READ_ERROR if connot read register
 307:Drivers/BSP/Components/lan8742/lan8742.c ****   *         LAN8742_STATUS_WRITE_ERROR if connot write to register
 308:Drivers/BSP/Components/lan8742/lan8742.c ****   */
 309:Drivers/BSP/Components/lan8742/lan8742.c **** int32_t LAN8742_GetLinkState(lan8742_Object_t *pObj)
 310:Drivers/BSP/Components/lan8742/lan8742.c **** {
 670              		.loc 1 310 1 is_stmt 1 view -0
 671              		.cfi_startproc
 672              		@ args = 0, pretend = 0, frame = 8
 673              		@ frame_needed = 0, uses_anonymous_args = 0
 311:Drivers/BSP/Components/lan8742/lan8742.c ****   uint32_t readval = 0;
 674              		.loc 1 311 3 view .LVU192
 310:Drivers/BSP/Components/lan8742/lan8742.c ****   uint32_t readval = 0;
 675              		.loc 1 310 1 is_stmt 0 view .LVU193
 676 0000 30B5     		push	{r4, r5, lr}
 677              		.cfi_def_cfa_offset 12
 678              		.cfi_offset 4, -12
 679              		.cfi_offset 5, -8
 680              		.cfi_offset 14, -4
 681 0002 83B0     		sub	sp, sp, #12
 682              		.cfi_def_cfa_offset 24
 683              		.loc 1 311 12 view .LVU194
 684 0004 0025     		movs	r5, #0
 312:Drivers/BSP/Components/lan8742/lan8742.c ****   
 313:Drivers/BSP/Components/lan8742/lan8742.c ****   /* Read Status register  */
 314:Drivers/BSP/Components/lan8742/lan8742.c ****   if(pObj->IO.ReadReg(pObj->DevAddr, LAN8742_BSR, &readval) < 0)
 685              		.loc 1 314 6 view .LVU195
 686 0006 4369     		ldr	r3, [r0, #20]
 311:Drivers/BSP/Components/lan8742/lan8742.c ****   
 687              		.loc 1 311 12 view .LVU196
 688 0008 0195     		str	r5, [sp, #4]
 689              		.loc 1 314 3 is_stmt 1 view .LVU197
 310:Drivers/BSP/Components/lan8742/lan8742.c ****   uint32_t readval = 0;
 690              		.loc 1 310 1 is_stmt 0 view .LVU198
ARM GAS  /var/folders/0z/tsy30v1j4xl4_7kw94k978ww0000gn/T//ccKzZMzk.s 			page 20


 691 000a 0446     		mov	r4, r0
 692              		.loc 1 314 6 view .LVU199
 693 000c 01AA     		add	r2, sp, #4
 694 000e 0068     		ldr	r0, [r0]
 695              	.LVL59:
 696              		.loc 1 314 6 view .LVU200
 697 0010 0121     		movs	r1, #1
 698 0012 9847     		blx	r3
 699              	.LVL60:
 700              		.loc 1 314 5 view .LVU201
 701 0014 A842     		cmp	r0, r5
 702 0016 3DDB     		blt	.L64
 315:Drivers/BSP/Components/lan8742/lan8742.c ****   {
 316:Drivers/BSP/Components/lan8742/lan8742.c ****     return LAN8742_STATUS_READ_ERROR;
 317:Drivers/BSP/Components/lan8742/lan8742.c ****   }
 318:Drivers/BSP/Components/lan8742/lan8742.c ****   
 319:Drivers/BSP/Components/lan8742/lan8742.c ****   /* Read Status register again */
 320:Drivers/BSP/Components/lan8742/lan8742.c ****   if(pObj->IO.ReadReg(pObj->DevAddr, LAN8742_BSR, &readval) < 0)
 703              		.loc 1 320 3 is_stmt 1 view .LVU202
 704              		.loc 1 320 6 is_stmt 0 view .LVU203
 705 0018 6369     		ldr	r3, [r4, #20]
 706 001a 2068     		ldr	r0, [r4]
 707 001c 01AA     		add	r2, sp, #4
 708 001e 0121     		movs	r1, #1
 709 0020 9847     		blx	r3
 710              	.LVL61:
 711              		.loc 1 320 5 view .LVU204
 712 0022 0028     		cmp	r0, #0
 713 0024 36DB     		blt	.L64
 321:Drivers/BSP/Components/lan8742/lan8742.c ****   {
 322:Drivers/BSP/Components/lan8742/lan8742.c ****     return LAN8742_STATUS_READ_ERROR;
 323:Drivers/BSP/Components/lan8742/lan8742.c ****   }
 324:Drivers/BSP/Components/lan8742/lan8742.c ****   
 325:Drivers/BSP/Components/lan8742/lan8742.c ****   if((readval & LAN8742_BSR_LINK_STATUS) == 0)
 714              		.loc 1 325 3 is_stmt 1 view .LVU205
 715              		.loc 1 325 15 is_stmt 0 view .LVU206
 716 0026 019B     		ldr	r3, [sp, #4]
 717              		.loc 1 325 5 view .LVU207
 718 0028 5B07     		lsls	r3, r3, #29
 719 002a 2AD5     		bpl	.L72
 326:Drivers/BSP/Components/lan8742/lan8742.c ****   {
 327:Drivers/BSP/Components/lan8742/lan8742.c ****     /* Return Link Down status */
 328:Drivers/BSP/Components/lan8742/lan8742.c ****     return LAN8742_STATUS_LINK_DOWN;    
 329:Drivers/BSP/Components/lan8742/lan8742.c ****   }
 330:Drivers/BSP/Components/lan8742/lan8742.c ****   
 331:Drivers/BSP/Components/lan8742/lan8742.c ****   /* Check Auto negotiaition */
 332:Drivers/BSP/Components/lan8742/lan8742.c ****   if(pObj->IO.ReadReg(pObj->DevAddr, LAN8742_BCR, &readval) < 0)
 720              		.loc 1 332 3 is_stmt 1 view .LVU208
 721              		.loc 1 332 6 is_stmt 0 view .LVU209
 722 002c 6369     		ldr	r3, [r4, #20]
 723 002e 2068     		ldr	r0, [r4]
 724 0030 01AA     		add	r2, sp, #4
 725 0032 2946     		mov	r1, r5
 726 0034 9847     		blx	r3
 727              	.LVL62:
 728              		.loc 1 332 5 view .LVU210
 729 0036 0028     		cmp	r0, #0
ARM GAS  /var/folders/0z/tsy30v1j4xl4_7kw94k978ww0000gn/T//ccKzZMzk.s 			page 21


 730 0038 2CDB     		blt	.L64
 333:Drivers/BSP/Components/lan8742/lan8742.c ****   {
 334:Drivers/BSP/Components/lan8742/lan8742.c ****     return LAN8742_STATUS_READ_ERROR;
 335:Drivers/BSP/Components/lan8742/lan8742.c ****   }
 336:Drivers/BSP/Components/lan8742/lan8742.c ****   
 337:Drivers/BSP/Components/lan8742/lan8742.c ****   if((readval & LAN8742_BCR_AUTONEGO_EN) != LAN8742_BCR_AUTONEGO_EN)
 731              		.loc 1 337 3 is_stmt 1 view .LVU211
 732              		.loc 1 337 15 is_stmt 0 view .LVU212
 733 003a 019B     		ldr	r3, [sp, #4]
 734              		.loc 1 337 5 view .LVU213
 735 003c DD04     		lsls	r5, r3, #19
 736 003e 14D5     		bpl	.L87
 338:Drivers/BSP/Components/lan8742/lan8742.c ****   {
 339:Drivers/BSP/Components/lan8742/lan8742.c ****     if(((readval & LAN8742_BCR_SPEED_SELECT) == LAN8742_BCR_SPEED_SELECT) && ((readval & LAN8742_BC
 340:Drivers/BSP/Components/lan8742/lan8742.c ****     {
 341:Drivers/BSP/Components/lan8742/lan8742.c ****       return LAN8742_STATUS_100MBITS_FULLDUPLEX;
 342:Drivers/BSP/Components/lan8742/lan8742.c ****     }
 343:Drivers/BSP/Components/lan8742/lan8742.c ****     else if ((readval & LAN8742_BCR_SPEED_SELECT) == LAN8742_BCR_SPEED_SELECT)
 344:Drivers/BSP/Components/lan8742/lan8742.c ****     {
 345:Drivers/BSP/Components/lan8742/lan8742.c ****       return LAN8742_STATUS_100MBITS_HALFDUPLEX;
 346:Drivers/BSP/Components/lan8742/lan8742.c ****     }        
 347:Drivers/BSP/Components/lan8742/lan8742.c ****     else if ((readval & LAN8742_BCR_DUPLEX_MODE) == LAN8742_BCR_DUPLEX_MODE)
 348:Drivers/BSP/Components/lan8742/lan8742.c ****     {
 349:Drivers/BSP/Components/lan8742/lan8742.c ****       return LAN8742_STATUS_10MBITS_FULLDUPLEX;
 350:Drivers/BSP/Components/lan8742/lan8742.c ****     }
 351:Drivers/BSP/Components/lan8742/lan8742.c ****     else
 352:Drivers/BSP/Components/lan8742/lan8742.c ****     {
 353:Drivers/BSP/Components/lan8742/lan8742.c ****       return LAN8742_STATUS_10MBITS_HALFDUPLEX;
 354:Drivers/BSP/Components/lan8742/lan8742.c ****     }  		
 355:Drivers/BSP/Components/lan8742/lan8742.c ****   }
 356:Drivers/BSP/Components/lan8742/lan8742.c ****   else /* Auto Nego enabled */
 357:Drivers/BSP/Components/lan8742/lan8742.c ****   {
 358:Drivers/BSP/Components/lan8742/lan8742.c ****     if(pObj->IO.ReadReg(pObj->DevAddr, LAN8742_PHYSCSR, &readval) < 0)
 737              		.loc 1 358 5 is_stmt 1 view .LVU214
 738              		.loc 1 358 8 is_stmt 0 view .LVU215
 739 0040 6369     		ldr	r3, [r4, #20]
 740 0042 2068     		ldr	r0, [r4]
 741 0044 01AA     		add	r2, sp, #4
 742 0046 1F21     		movs	r1, #31
 743 0048 9847     		blx	r3
 744              	.LVL63:
 745              		.loc 1 358 7 view .LVU216
 746 004a 0028     		cmp	r0, #0
 747 004c 22DB     		blt	.L64
 359:Drivers/BSP/Components/lan8742/lan8742.c ****     {
 360:Drivers/BSP/Components/lan8742/lan8742.c ****       return LAN8742_STATUS_READ_ERROR;
 361:Drivers/BSP/Components/lan8742/lan8742.c ****     }
 362:Drivers/BSP/Components/lan8742/lan8742.c ****     
 363:Drivers/BSP/Components/lan8742/lan8742.c ****     /* Check if auto nego not done */
 364:Drivers/BSP/Components/lan8742/lan8742.c ****     if((readval & LAN8742_PHYSCSR_AUTONEGO_DONE) == 0)
 748              		.loc 1 364 5 is_stmt 1 view .LVU217
 749              		.loc 1 364 17 is_stmt 0 view .LVU218
 750 004e 019B     		ldr	r3, [sp, #4]
 751              		.loc 1 364 7 view .LVU219
 752 0050 DA04     		lsls	r2, r3, #19
 753 0052 1DD5     		bpl	.L73
 365:Drivers/BSP/Components/lan8742/lan8742.c ****     {
ARM GAS  /var/folders/0z/tsy30v1j4xl4_7kw94k978ww0000gn/T//ccKzZMzk.s 			page 22


 366:Drivers/BSP/Components/lan8742/lan8742.c ****       return LAN8742_STATUS_AUTONEGO_NOTDONE;
 367:Drivers/BSP/Components/lan8742/lan8742.c ****     }
 368:Drivers/BSP/Components/lan8742/lan8742.c ****     
 369:Drivers/BSP/Components/lan8742/lan8742.c ****     if((readval & LAN8742_PHYSCSR_HCDSPEEDMASK) == LAN8742_PHYSCSR_100BTX_FD)
 754              		.loc 1 369 5 is_stmt 1 view .LVU220
 755              		.loc 1 369 17 is_stmt 0 view .LVU221
 756 0054 03F01C03 		and	r3, r3, #28
 757              		.loc 1 369 7 view .LVU222
 758 0058 182B     		cmp	r3, #24
 759 005a 17D0     		beq	.L69
 370:Drivers/BSP/Components/lan8742/lan8742.c ****     {
 371:Drivers/BSP/Components/lan8742/lan8742.c ****       return LAN8742_STATUS_100MBITS_FULLDUPLEX;
 372:Drivers/BSP/Components/lan8742/lan8742.c ****     }
 373:Drivers/BSP/Components/lan8742/lan8742.c ****     else if ((readval & LAN8742_PHYSCSR_HCDSPEEDMASK) == LAN8742_PHYSCSR_100BTX_HD)
 760              		.loc 1 373 10 is_stmt 1 view .LVU223
 761              		.loc 1 373 13 is_stmt 0 view .LVU224
 762 005c 082B     		cmp	r3, #8
 763 005e 13D0     		beq	.L70
 374:Drivers/BSP/Components/lan8742/lan8742.c ****     {
 375:Drivers/BSP/Components/lan8742/lan8742.c ****       return LAN8742_STATUS_100MBITS_HALFDUPLEX;
 376:Drivers/BSP/Components/lan8742/lan8742.c ****     }
 377:Drivers/BSP/Components/lan8742/lan8742.c ****     else if ((readval & LAN8742_PHYSCSR_HCDSPEEDMASK) == LAN8742_PHYSCSR_10BT_FD)
 764              		.loc 1 377 10 is_stmt 1 view .LVU225
 765              		.loc 1 377 13 is_stmt 0 view .LVU226
 766 0060 142B     		cmp	r3, #20
 767 0062 0BD1     		bne	.L68
 768              	.L71:
 349:Drivers/BSP/Components/lan8742/lan8742.c ****     }
 769              		.loc 1 349 14 view .LVU227
 770 0064 0420     		movs	r0, #4
 378:Drivers/BSP/Components/lan8742/lan8742.c ****     {
 379:Drivers/BSP/Components/lan8742/lan8742.c ****       return LAN8742_STATUS_10MBITS_FULLDUPLEX;
 380:Drivers/BSP/Components/lan8742/lan8742.c ****     }
 381:Drivers/BSP/Components/lan8742/lan8742.c ****     else
 382:Drivers/BSP/Components/lan8742/lan8742.c ****     {
 383:Drivers/BSP/Components/lan8742/lan8742.c ****       return LAN8742_STATUS_10MBITS_HALFDUPLEX;
 384:Drivers/BSP/Components/lan8742/lan8742.c ****     }				
 385:Drivers/BSP/Components/lan8742/lan8742.c ****   }
 386:Drivers/BSP/Components/lan8742/lan8742.c **** }
 771              		.loc 1 386 1 view .LVU228
 772 0066 03B0     		add	sp, sp, #12
 773              		.cfi_remember_state
 774              		.cfi_def_cfa_offset 12
 775              		@ sp needed
 776 0068 30BD     		pop	{r4, r5, pc}
 777              	.LVL64:
 778              	.L87:
 779              		.cfi_restore_state
 339:Drivers/BSP/Components/lan8742/lan8742.c ****     {
 780              		.loc 1 339 5 is_stmt 1 view .LVU229
 339:Drivers/BSP/Components/lan8742/lan8742.c ****     {
 781              		.loc 1 339 75 is_stmt 0 view .LVU230
 782 006a 03F40452 		and	r2, r3, #8448
 339:Drivers/BSP/Components/lan8742/lan8742.c ****     {
 783              		.loc 1 339 7 view .LVU231
 784 006e B2F5045F 		cmp	r2, #8448
 785 0072 0BD0     		beq	.L69
ARM GAS  /var/folders/0z/tsy30v1j4xl4_7kw94k978ww0000gn/T//ccKzZMzk.s 			page 23


 343:Drivers/BSP/Components/lan8742/lan8742.c ****     {
 786              		.loc 1 343 10 is_stmt 1 view .LVU232
 343:Drivers/BSP/Components/lan8742/lan8742.c ****     {
 787              		.loc 1 343 13 is_stmt 0 view .LVU233
 788 0074 9804     		lsls	r0, r3, #18
 789 0076 07D4     		bmi	.L70
 347:Drivers/BSP/Components/lan8742/lan8742.c ****     {
 790              		.loc 1 347 10 is_stmt 1 view .LVU234
 347:Drivers/BSP/Components/lan8742/lan8742.c ****     {
 791              		.loc 1 347 13 is_stmt 0 view .LVU235
 792 0078 D905     		lsls	r1, r3, #23
 793 007a F3D4     		bmi	.L71
 794              	.L68:
 353:Drivers/BSP/Components/lan8742/lan8742.c ****     }  		
 795              		.loc 1 353 7 is_stmt 1 view .LVU236
 353:Drivers/BSP/Components/lan8742/lan8742.c ****     }  		
 796              		.loc 1 353 14 is_stmt 0 view .LVU237
 797 007c 0520     		movs	r0, #5
 798              	.L61:
 799              		.loc 1 386 1 view .LVU238
 800 007e 03B0     		add	sp, sp, #12
 801              		.cfi_remember_state
 802              		.cfi_def_cfa_offset 12
 803              		@ sp needed
 804 0080 30BD     		pop	{r4, r5, pc}
 805              	.LVL65:
 806              	.L72:
 807              		.cfi_restore_state
 328:Drivers/BSP/Components/lan8742/lan8742.c ****   }
 808              		.loc 1 328 12 view .LVU239
 809 0082 0120     		movs	r0, #1
 810              		.loc 1 386 1 view .LVU240
 811 0084 03B0     		add	sp, sp, #12
 812              		.cfi_remember_state
 813              		.cfi_def_cfa_offset 12
 814              		@ sp needed
 815 0086 30BD     		pop	{r4, r5, pc}
 816              	.LVL66:
 817              	.L70:
 818              		.cfi_restore_state
 345:Drivers/BSP/Components/lan8742/lan8742.c ****     }        
 819              		.loc 1 345 14 view .LVU241
 820 0088 0320     		movs	r0, #3
 821 008a F8E7     		b	.L61
 822              	.L69:
 341:Drivers/BSP/Components/lan8742/lan8742.c ****     }
 823              		.loc 1 341 14 view .LVU242
 824 008c 0220     		movs	r0, #2
 825 008e F6E7     		b	.L61
 826              	.L73:
 366:Drivers/BSP/Components/lan8742/lan8742.c ****     }
 827              		.loc 1 366 14 view .LVU243
 828 0090 0620     		movs	r0, #6
 829 0092 F4E7     		b	.L61
 830              	.L64:
 316:Drivers/BSP/Components/lan8742/lan8742.c ****   }
 831              		.loc 1 316 12 view .LVU244
ARM GAS  /var/folders/0z/tsy30v1j4xl4_7kw94k978ww0000gn/T//ccKzZMzk.s 			page 24


 832 0094 6FF00400 		mvn	r0, #4
 833 0098 F1E7     		b	.L61
 834              		.cfi_endproc
 835              	.LFE6:
 837 009a 00BF     		.section	.text.LAN8742_SetLinkState,"ax",%progbits
 838              		.align	1
 839              		.p2align 2,,3
 840              		.global	LAN8742_SetLinkState
 841              		.syntax unified
 842              		.thumb
 843              		.thumb_func
 845              	LAN8742_SetLinkState:
 846              	.LVL67:
 847              	.LFB7:
 387:Drivers/BSP/Components/lan8742/lan8742.c **** 
 388:Drivers/BSP/Components/lan8742/lan8742.c **** /**
 389:Drivers/BSP/Components/lan8742/lan8742.c ****   * @brief  Set the link state of LAN8742 device.
 390:Drivers/BSP/Components/lan8742/lan8742.c ****   * @param  pObj: Pointer to device object. 
 391:Drivers/BSP/Components/lan8742/lan8742.c ****   * @param  pLinkState: link state can be one of the following
 392:Drivers/BSP/Components/lan8742/lan8742.c ****   *         LAN8742_STATUS_100MBITS_FULLDUPLEX if 100Mb/s FD
 393:Drivers/BSP/Components/lan8742/lan8742.c ****   *         LAN8742_STATUS_100MBITS_HALFDUPLEX if 100Mb/s HD
 394:Drivers/BSP/Components/lan8742/lan8742.c ****   *         LAN8742_STATUS_10MBITS_FULLDUPLEX  if 10Mb/s FD
 395:Drivers/BSP/Components/lan8742/lan8742.c ****   *         LAN8742_STATUS_10MBITS_HALFDUPLEX  if 10Mb/s HD   
 396:Drivers/BSP/Components/lan8742/lan8742.c ****   * @retval LAN8742_STATUS_OK  if OK
 397:Drivers/BSP/Components/lan8742/lan8742.c ****   *         LAN8742_STATUS_ERROR  if parameter error  
 398:Drivers/BSP/Components/lan8742/lan8742.c ****   *         LAN8742_STATUS_READ_ERROR if connot read register
 399:Drivers/BSP/Components/lan8742/lan8742.c ****   *         LAN8742_STATUS_WRITE_ERROR if connot write to register
 400:Drivers/BSP/Components/lan8742/lan8742.c ****   */
 401:Drivers/BSP/Components/lan8742/lan8742.c **** int32_t LAN8742_SetLinkState(lan8742_Object_t *pObj, uint32_t LinkState)
 402:Drivers/BSP/Components/lan8742/lan8742.c **** {
 848              		.loc 1 402 1 is_stmt 1 view -0
 849              		.cfi_startproc
 850              		@ args = 0, pretend = 0, frame = 8
 851              		@ frame_needed = 0, uses_anonymous_args = 0
 403:Drivers/BSP/Components/lan8742/lan8742.c ****   uint32_t bcrvalue = 0;
 852              		.loc 1 403 3 view .LVU246
 402:Drivers/BSP/Components/lan8742/lan8742.c ****   uint32_t bcrvalue = 0;
 853              		.loc 1 402 1 is_stmt 0 view .LVU247
 854 0000 30B5     		push	{r4, r5, lr}
 855              		.cfi_def_cfa_offset 12
 856              		.cfi_offset 4, -12
 857              		.cfi_offset 5, -8
 858              		.cfi_offset 14, -4
 859 0002 0446     		mov	r4, r0
 860 0004 83B0     		sub	sp, sp, #12
 861              		.cfi_def_cfa_offset 24
 862              		.loc 1 403 12 view .LVU248
 863 0006 0023     		movs	r3, #0
 864 0008 0193     		str	r3, [sp, #4]
 404:Drivers/BSP/Components/lan8742/lan8742.c ****   int32_t status = LAN8742_STATUS_OK;
 865              		.loc 1 404 3 is_stmt 1 view .LVU249
 866              	.LVL68:
 405:Drivers/BSP/Components/lan8742/lan8742.c ****   
 406:Drivers/BSP/Components/lan8742/lan8742.c ****   if(pObj->IO.ReadReg(pObj->DevAddr, LAN8742_BCR, &bcrvalue) >= 0)
 867              		.loc 1 406 3 view .LVU250
 868              		.loc 1 406 6 is_stmt 0 view .LVU251
 869 000a 0068     		ldr	r0, [r0]
ARM GAS  /var/folders/0z/tsy30v1j4xl4_7kw94k978ww0000gn/T//ccKzZMzk.s 			page 25


 870              	.LVL69:
 402:Drivers/BSP/Components/lan8742/lan8742.c ****   uint32_t bcrvalue = 0;
 871              		.loc 1 402 1 view .LVU252
 872 000c 0D46     		mov	r5, r1
 873              		.loc 1 406 6 view .LVU253
 874 000e 01AA     		add	r2, sp, #4
 875 0010 1946     		mov	r1, r3
 876              	.LVL70:
 877              		.loc 1 406 6 view .LVU254
 878 0012 6369     		ldr	r3, [r4, #20]
 879 0014 9847     		blx	r3
 880              	.LVL71:
 881              		.loc 1 406 5 view .LVU255
 882 0016 0028     		cmp	r0, #0
 883 0018 1FDB     		blt	.L93
 407:Drivers/BSP/Components/lan8742/lan8742.c ****   {
 408:Drivers/BSP/Components/lan8742/lan8742.c ****     /* Disable link config (Auto nego, speed and duplex) */
 409:Drivers/BSP/Components/lan8742/lan8742.c ****     bcrvalue &= ~(LAN8742_BCR_AUTONEGO_EN | LAN8742_BCR_SPEED_SELECT | LAN8742_BCR_DUPLEX_MODE);
 884              		.loc 1 409 5 is_stmt 1 view .LVU256
 885              		.loc 1 409 14 is_stmt 0 view .LVU257
 886 001a 019A     		ldr	r2, [sp, #4]
 410:Drivers/BSP/Components/lan8742/lan8742.c ****     
 411:Drivers/BSP/Components/lan8742/lan8742.c ****     if(LinkState == LAN8742_STATUS_100MBITS_FULLDUPLEX)
 887              		.loc 1 411 7 view .LVU258
 888 001c 022D     		cmp	r5, #2
 409:Drivers/BSP/Components/lan8742/lan8742.c ****     
 889              		.loc 1 409 14 view .LVU259
 890 001e 22F44452 		bic	r2, r2, #12544
 891              		.loc 1 411 5 is_stmt 1 view .LVU260
 892              		.loc 1 411 7 is_stmt 0 view .LVU261
 893 0022 14D0     		beq	.L97
 412:Drivers/BSP/Components/lan8742/lan8742.c ****     {
 413:Drivers/BSP/Components/lan8742/lan8742.c ****       bcrvalue |= (LAN8742_BCR_SPEED_SELECT | LAN8742_BCR_DUPLEX_MODE);
 414:Drivers/BSP/Components/lan8742/lan8742.c ****     }
 415:Drivers/BSP/Components/lan8742/lan8742.c ****     else if (LinkState == LAN8742_STATUS_100MBITS_HALFDUPLEX)
 894              		.loc 1 415 10 is_stmt 1 view .LVU262
 895              		.loc 1 415 13 is_stmt 0 view .LVU263
 896 0024 032D     		cmp	r5, #3
 897 0026 0FD0     		beq	.L98
 416:Drivers/BSP/Components/lan8742/lan8742.c ****     {
 417:Drivers/BSP/Components/lan8742/lan8742.c ****       bcrvalue |= LAN8742_BCR_SPEED_SELECT;
 418:Drivers/BSP/Components/lan8742/lan8742.c ****     }
 419:Drivers/BSP/Components/lan8742/lan8742.c ****     else if (LinkState == LAN8742_STATUS_10MBITS_FULLDUPLEX)
 898              		.loc 1 419 10 is_stmt 1 view .LVU264
 899              		.loc 1 419 13 is_stmt 0 view .LVU265
 900 0028 042D     		cmp	r5, #4
 901 002a 13D1     		bne	.L94
 420:Drivers/BSP/Components/lan8742/lan8742.c ****     {
 421:Drivers/BSP/Components/lan8742/lan8742.c ****       bcrvalue |= LAN8742_BCR_DUPLEX_MODE;
 902              		.loc 1 421 7 is_stmt 1 view .LVU266
 903              		.loc 1 421 16 is_stmt 0 view .LVU267
 904 002c 42F48072 		orr	r2, r2, #256
 422:Drivers/BSP/Components/lan8742/lan8742.c ****     }
 423:Drivers/BSP/Components/lan8742/lan8742.c ****     else
 424:Drivers/BSP/Components/lan8742/lan8742.c ****     {
 425:Drivers/BSP/Components/lan8742/lan8742.c ****       /* Wrong link status parameter */
 426:Drivers/BSP/Components/lan8742/lan8742.c ****       status = LAN8742_STATUS_ERROR;
ARM GAS  /var/folders/0z/tsy30v1j4xl4_7kw94k978ww0000gn/T//ccKzZMzk.s 			page 26


 427:Drivers/BSP/Components/lan8742/lan8742.c ****     }	
 428:Drivers/BSP/Components/lan8742/lan8742.c ****   }
 429:Drivers/BSP/Components/lan8742/lan8742.c ****   else
 430:Drivers/BSP/Components/lan8742/lan8742.c ****   {
 431:Drivers/BSP/Components/lan8742/lan8742.c ****     status = LAN8742_STATUS_READ_ERROR;
 432:Drivers/BSP/Components/lan8742/lan8742.c ****   }
 433:Drivers/BSP/Components/lan8742/lan8742.c ****   
 434:Drivers/BSP/Components/lan8742/lan8742.c ****   if(status == LAN8742_STATUS_OK)
 905              		.loc 1 434 3 is_stmt 1 view .LVU268
 906              	.L91:
 435:Drivers/BSP/Components/lan8742/lan8742.c ****   {
 436:Drivers/BSP/Components/lan8742/lan8742.c ****     /* Apply configuration */
 437:Drivers/BSP/Components/lan8742/lan8742.c ****     if(pObj->IO.WriteReg(pObj->DevAddr, LAN8742_BCR, bcrvalue) < 0)
 907              		.loc 1 437 8 is_stmt 0 view .LVU269
 908 0030 2369     		ldr	r3, [r4, #16]
 909 0032 2068     		ldr	r0, [r4]
 413:Drivers/BSP/Components/lan8742/lan8742.c ****     }
 910              		.loc 1 413 16 view .LVU270
 911 0034 0192     		str	r2, [sp, #4]
 912              		.loc 1 437 5 is_stmt 1 view .LVU271
 913              		.loc 1 437 8 is_stmt 0 view .LVU272
 914 0036 0021     		movs	r1, #0
 915 0038 9847     		blx	r3
 916              	.LVL72:
 438:Drivers/BSP/Components/lan8742/lan8742.c ****     {
 439:Drivers/BSP/Components/lan8742/lan8742.c ****       status = LAN8742_STATUS_WRITE_ERROR;
 917              		.loc 1 439 14 view .LVU273
 918 003a 0028     		cmp	r0, #0
 919 003c ACBF     		ite	ge
 920 003e 0020     		movge	r0, #0
 921 0040 6FF00300 		mvnlt	r0, #3
 922              	.L88:
 440:Drivers/BSP/Components/lan8742/lan8742.c ****     }
 441:Drivers/BSP/Components/lan8742/lan8742.c ****   }
 442:Drivers/BSP/Components/lan8742/lan8742.c ****   
 443:Drivers/BSP/Components/lan8742/lan8742.c ****   return status;
 444:Drivers/BSP/Components/lan8742/lan8742.c **** }
 923              		.loc 1 444 1 view .LVU274
 924 0044 03B0     		add	sp, sp, #12
 925              		.cfi_remember_state
 926              		.cfi_def_cfa_offset 12
 927              		@ sp needed
 928 0046 30BD     		pop	{r4, r5, pc}
 929              	.LVL73:
 930              	.L98:
 931              		.cfi_restore_state
 417:Drivers/BSP/Components/lan8742/lan8742.c ****     }
 932              		.loc 1 417 7 is_stmt 1 view .LVU275
 417:Drivers/BSP/Components/lan8742/lan8742.c ****     }
 933              		.loc 1 417 16 is_stmt 0 view .LVU276
 934 0048 42F40052 		orr	r2, r2, #8192
 434:Drivers/BSP/Components/lan8742/lan8742.c ****   {
 935              		.loc 1 434 3 is_stmt 1 view .LVU277
 936 004c F0E7     		b	.L91
 937              	.L97:
 413:Drivers/BSP/Components/lan8742/lan8742.c ****     }
 938              		.loc 1 413 7 view .LVU278
ARM GAS  /var/folders/0z/tsy30v1j4xl4_7kw94k978ww0000gn/T//ccKzZMzk.s 			page 27


 413:Drivers/BSP/Components/lan8742/lan8742.c ****     }
 939              		.loc 1 413 16 is_stmt 0 view .LVU279
 940 004e 42F40452 		orr	r2, r2, #8448
 434:Drivers/BSP/Components/lan8742/lan8742.c ****   {
 941              		.loc 1 434 3 is_stmt 1 view .LVU280
 942 0052 EDE7     		b	.L91
 943              	.L94:
 426:Drivers/BSP/Components/lan8742/lan8742.c ****     }	
 944              		.loc 1 426 14 is_stmt 0 view .LVU281
 945 0054 4FF0FF30 		mov	r0, #-1
 946 0058 F4E7     		b	.L88
 947              	.L93:
 431:Drivers/BSP/Components/lan8742/lan8742.c ****   }
 948              		.loc 1 431 12 view .LVU282
 949 005a 6FF00400 		mvn	r0, #4
 950 005e F1E7     		b	.L88
 951              		.cfi_endproc
 952              	.LFE7:
 954              		.section	.text.LAN8742_EnableLoopbackMode,"ax",%progbits
 955              		.align	1
 956              		.p2align 2,,3
 957              		.global	LAN8742_EnableLoopbackMode
 958              		.syntax unified
 959              		.thumb
 960              		.thumb_func
 962              	LAN8742_EnableLoopbackMode:
 963              	.LVL74:
 964              	.LFB8:
 445:Drivers/BSP/Components/lan8742/lan8742.c **** 
 446:Drivers/BSP/Components/lan8742/lan8742.c **** /**
 447:Drivers/BSP/Components/lan8742/lan8742.c ****   * @brief  Enable loopback mode.
 448:Drivers/BSP/Components/lan8742/lan8742.c ****   * @param  pObj: Pointer to device object. 
 449:Drivers/BSP/Components/lan8742/lan8742.c ****   * @retval LAN8742_STATUS_OK  if OK
 450:Drivers/BSP/Components/lan8742/lan8742.c ****   *         LAN8742_STATUS_READ_ERROR if connot read register
 451:Drivers/BSP/Components/lan8742/lan8742.c ****   *         LAN8742_STATUS_WRITE_ERROR if connot write to register
 452:Drivers/BSP/Components/lan8742/lan8742.c ****   */
 453:Drivers/BSP/Components/lan8742/lan8742.c **** int32_t LAN8742_EnableLoopbackMode(lan8742_Object_t *pObj)
 454:Drivers/BSP/Components/lan8742/lan8742.c **** {
 965              		.loc 1 454 1 is_stmt 1 view -0
 966              		.cfi_startproc
 967              		@ args = 0, pretend = 0, frame = 8
 968              		@ frame_needed = 0, uses_anonymous_args = 0
 455:Drivers/BSP/Components/lan8742/lan8742.c ****   uint32_t readval = 0;
 969              		.loc 1 455 3 view .LVU284
 454:Drivers/BSP/Components/lan8742/lan8742.c ****   uint32_t readval = 0;
 970              		.loc 1 454 1 is_stmt 0 view .LVU285
 971 0000 30B5     		push	{r4, r5, lr}
 972              		.cfi_def_cfa_offset 12
 973              		.cfi_offset 4, -12
 974              		.cfi_offset 5, -8
 975              		.cfi_offset 14, -4
 976 0002 83B0     		sub	sp, sp, #12
 977              		.cfi_def_cfa_offset 24
 978              		.loc 1 455 12 view .LVU286
 979 0004 0025     		movs	r5, #0
 456:Drivers/BSP/Components/lan8742/lan8742.c ****   int32_t status = LAN8742_STATUS_OK;
 457:Drivers/BSP/Components/lan8742/lan8742.c ****   
ARM GAS  /var/folders/0z/tsy30v1j4xl4_7kw94k978ww0000gn/T//ccKzZMzk.s 			page 28


 458:Drivers/BSP/Components/lan8742/lan8742.c ****   if(pObj->IO.ReadReg(pObj->DevAddr, LAN8742_BCR, &readval) >= 0)
 980              		.loc 1 458 6 view .LVU287
 981 0006 4369     		ldr	r3, [r0, #20]
 455:Drivers/BSP/Components/lan8742/lan8742.c ****   int32_t status = LAN8742_STATUS_OK;
 982              		.loc 1 455 12 view .LVU288
 983 0008 0195     		str	r5, [sp, #4]
 456:Drivers/BSP/Components/lan8742/lan8742.c ****   int32_t status = LAN8742_STATUS_OK;
 984              		.loc 1 456 3 is_stmt 1 view .LVU289
 985              	.LVL75:
 986              		.loc 1 458 3 view .LVU290
 454:Drivers/BSP/Components/lan8742/lan8742.c ****   uint32_t readval = 0;
 987              		.loc 1 454 1 is_stmt 0 view .LVU291
 988 000a 0446     		mov	r4, r0
 989              		.loc 1 458 6 view .LVU292
 990 000c 01AA     		add	r2, sp, #4
 991 000e 0068     		ldr	r0, [r0]
 992              	.LVL76:
 993              		.loc 1 458 6 view .LVU293
 994 0010 2946     		mov	r1, r5
 995 0012 9847     		blx	r3
 996              	.LVL77:
 997              		.loc 1 458 5 view .LVU294
 998 0014 A842     		cmp	r0, r5
 999 0016 0EDB     		blt	.L101
 459:Drivers/BSP/Components/lan8742/lan8742.c ****   {
 460:Drivers/BSP/Components/lan8742/lan8742.c ****     readval |= LAN8742_BCR_LOOPBACK;
 1000              		.loc 1 460 5 is_stmt 1 view .LVU295
 1001              		.loc 1 460 13 is_stmt 0 view .LVU296
 1002 0018 019A     		ldr	r2, [sp, #4]
 461:Drivers/BSP/Components/lan8742/lan8742.c ****     
 462:Drivers/BSP/Components/lan8742/lan8742.c ****     /* Apply configuration */
 463:Drivers/BSP/Components/lan8742/lan8742.c ****     if(pObj->IO.WriteReg(pObj->DevAddr, LAN8742_BCR, readval) < 0)
 1003              		.loc 1 463 8 view .LVU297
 1004 001a 2369     		ldr	r3, [r4, #16]
 1005 001c 2068     		ldr	r0, [r4]
 460:Drivers/BSP/Components/lan8742/lan8742.c ****     
 1006              		.loc 1 460 13 view .LVU298
 1007 001e 42F48042 		orr	r2, r2, #16384
 1008 0022 0192     		str	r2, [sp, #4]
 1009              		.loc 1 463 5 is_stmt 1 view .LVU299
 1010              		.loc 1 463 8 is_stmt 0 view .LVU300
 1011 0024 2946     		mov	r1, r5
 1012 0026 9847     		blx	r3
 1013              	.LVL78:
 464:Drivers/BSP/Components/lan8742/lan8742.c ****     {
 465:Drivers/BSP/Components/lan8742/lan8742.c ****       status = LAN8742_STATUS_WRITE_ERROR;
 1014              		.loc 1 465 14 view .LVU301
 1015 0028 A842     		cmp	r0, r5
 1016 002a ACBF     		ite	ge
 1017 002c 2846     		movge	r0, r5
 1018 002e 6FF00300 		mvnlt	r0, #3
 1019              	.L99:
 466:Drivers/BSP/Components/lan8742/lan8742.c ****     }
 467:Drivers/BSP/Components/lan8742/lan8742.c ****   }
 468:Drivers/BSP/Components/lan8742/lan8742.c ****   else
 469:Drivers/BSP/Components/lan8742/lan8742.c ****   {
 470:Drivers/BSP/Components/lan8742/lan8742.c ****     status = LAN8742_STATUS_READ_ERROR;
ARM GAS  /var/folders/0z/tsy30v1j4xl4_7kw94k978ww0000gn/T//ccKzZMzk.s 			page 29


 471:Drivers/BSP/Components/lan8742/lan8742.c ****   }
 472:Drivers/BSP/Components/lan8742/lan8742.c ****   
 473:Drivers/BSP/Components/lan8742/lan8742.c ****   return status;
 474:Drivers/BSP/Components/lan8742/lan8742.c **** }
 1020              		.loc 1 474 1 view .LVU302
 1021 0032 03B0     		add	sp, sp, #12
 1022              		.cfi_remember_state
 1023              		.cfi_def_cfa_offset 12
 1024              		@ sp needed
 1025 0034 30BD     		pop	{r4, r5, pc}
 1026              	.LVL79:
 1027              	.L101:
 1028              		.cfi_restore_state
 470:Drivers/BSP/Components/lan8742/lan8742.c ****   }
 1029              		.loc 1 470 12 view .LVU303
 1030 0036 6FF00400 		mvn	r0, #4
 1031 003a FAE7     		b	.L99
 1032              		.cfi_endproc
 1033              	.LFE8:
 1035              		.section	.text.LAN8742_DisableLoopbackMode,"ax",%progbits
 1036              		.align	1
 1037              		.p2align 2,,3
 1038              		.global	LAN8742_DisableLoopbackMode
 1039              		.syntax unified
 1040              		.thumb
 1041              		.thumb_func
 1043              	LAN8742_DisableLoopbackMode:
 1044              	.LVL80:
 1045              	.LFB9:
 475:Drivers/BSP/Components/lan8742/lan8742.c **** 
 476:Drivers/BSP/Components/lan8742/lan8742.c **** /**
 477:Drivers/BSP/Components/lan8742/lan8742.c ****   * @brief  Disable loopback mode.
 478:Drivers/BSP/Components/lan8742/lan8742.c ****   * @param  pObj: Pointer to device object. 
 479:Drivers/BSP/Components/lan8742/lan8742.c ****   * @retval LAN8742_STATUS_OK  if OK
 480:Drivers/BSP/Components/lan8742/lan8742.c ****   *         LAN8742_STATUS_READ_ERROR if connot read register
 481:Drivers/BSP/Components/lan8742/lan8742.c ****   *         LAN8742_STATUS_WRITE_ERROR if connot write to register
 482:Drivers/BSP/Components/lan8742/lan8742.c ****   */
 483:Drivers/BSP/Components/lan8742/lan8742.c **** int32_t LAN8742_DisableLoopbackMode(lan8742_Object_t *pObj)
 484:Drivers/BSP/Components/lan8742/lan8742.c **** {
 1046              		.loc 1 484 1 is_stmt 1 view -0
 1047              		.cfi_startproc
 1048              		@ args = 0, pretend = 0, frame = 8
 1049              		@ frame_needed = 0, uses_anonymous_args = 0
 485:Drivers/BSP/Components/lan8742/lan8742.c ****   uint32_t readval = 0;
 1050              		.loc 1 485 3 view .LVU305
 484:Drivers/BSP/Components/lan8742/lan8742.c ****   uint32_t readval = 0;
 1051              		.loc 1 484 1 is_stmt 0 view .LVU306
 1052 0000 30B5     		push	{r4, r5, lr}
 1053              		.cfi_def_cfa_offset 12
 1054              		.cfi_offset 4, -12
 1055              		.cfi_offset 5, -8
 1056              		.cfi_offset 14, -4
 1057 0002 83B0     		sub	sp, sp, #12
 1058              		.cfi_def_cfa_offset 24
 1059              		.loc 1 485 12 view .LVU307
 1060 0004 0025     		movs	r5, #0
 486:Drivers/BSP/Components/lan8742/lan8742.c ****   int32_t status = LAN8742_STATUS_OK;
ARM GAS  /var/folders/0z/tsy30v1j4xl4_7kw94k978ww0000gn/T//ccKzZMzk.s 			page 30


 487:Drivers/BSP/Components/lan8742/lan8742.c ****   
 488:Drivers/BSP/Components/lan8742/lan8742.c ****   if(pObj->IO.ReadReg(pObj->DevAddr, LAN8742_BCR, &readval) >= 0)
 1061              		.loc 1 488 6 view .LVU308
 1062 0006 4369     		ldr	r3, [r0, #20]
 485:Drivers/BSP/Components/lan8742/lan8742.c ****   int32_t status = LAN8742_STATUS_OK;
 1063              		.loc 1 485 12 view .LVU309
 1064 0008 0195     		str	r5, [sp, #4]
 486:Drivers/BSP/Components/lan8742/lan8742.c ****   int32_t status = LAN8742_STATUS_OK;
 1065              		.loc 1 486 3 is_stmt 1 view .LVU310
 1066              	.LVL81:
 1067              		.loc 1 488 3 view .LVU311
 484:Drivers/BSP/Components/lan8742/lan8742.c ****   uint32_t readval = 0;
 1068              		.loc 1 484 1 is_stmt 0 view .LVU312
 1069 000a 0446     		mov	r4, r0
 1070              		.loc 1 488 6 view .LVU313
 1071 000c 01AA     		add	r2, sp, #4
 1072 000e 0068     		ldr	r0, [r0]
 1073              	.LVL82:
 1074              		.loc 1 488 6 view .LVU314
 1075 0010 2946     		mov	r1, r5
 1076 0012 9847     		blx	r3
 1077              	.LVL83:
 1078              		.loc 1 488 5 view .LVU315
 1079 0014 A842     		cmp	r0, r5
 1080 0016 0EDB     		blt	.L106
 489:Drivers/BSP/Components/lan8742/lan8742.c ****   {
 490:Drivers/BSP/Components/lan8742/lan8742.c ****     readval &= ~LAN8742_BCR_LOOPBACK;
 1081              		.loc 1 490 5 is_stmt 1 view .LVU316
 1082              		.loc 1 490 13 is_stmt 0 view .LVU317
 1083 0018 019A     		ldr	r2, [sp, #4]
 491:Drivers/BSP/Components/lan8742/lan8742.c ****   
 492:Drivers/BSP/Components/lan8742/lan8742.c ****     /* Apply configuration */
 493:Drivers/BSP/Components/lan8742/lan8742.c ****     if(pObj->IO.WriteReg(pObj->DevAddr, LAN8742_BCR, readval) < 0)
 1084              		.loc 1 493 8 view .LVU318
 1085 001a 2369     		ldr	r3, [r4, #16]
 1086 001c 2068     		ldr	r0, [r4]
 490:Drivers/BSP/Components/lan8742/lan8742.c ****   
 1087              		.loc 1 490 13 view .LVU319
 1088 001e 22F48042 		bic	r2, r2, #16384
 1089 0022 0192     		str	r2, [sp, #4]
 1090              		.loc 1 493 5 is_stmt 1 view .LVU320
 1091              		.loc 1 493 8 is_stmt 0 view .LVU321
 1092 0024 2946     		mov	r1, r5
 1093 0026 9847     		blx	r3
 1094              	.LVL84:
 494:Drivers/BSP/Components/lan8742/lan8742.c ****     {
 495:Drivers/BSP/Components/lan8742/lan8742.c ****       status =  LAN8742_STATUS_WRITE_ERROR;
 1095              		.loc 1 495 14 view .LVU322
 1096 0028 A842     		cmp	r0, r5
 1097 002a ACBF     		ite	ge
 1098 002c 2846     		movge	r0, r5
 1099 002e 6FF00300 		mvnlt	r0, #3
 1100              	.L104:
 496:Drivers/BSP/Components/lan8742/lan8742.c ****     }
 497:Drivers/BSP/Components/lan8742/lan8742.c ****   }
 498:Drivers/BSP/Components/lan8742/lan8742.c ****   else
 499:Drivers/BSP/Components/lan8742/lan8742.c ****   {
ARM GAS  /var/folders/0z/tsy30v1j4xl4_7kw94k978ww0000gn/T//ccKzZMzk.s 			page 31


 500:Drivers/BSP/Components/lan8742/lan8742.c ****     status = LAN8742_STATUS_READ_ERROR;
 501:Drivers/BSP/Components/lan8742/lan8742.c ****   }
 502:Drivers/BSP/Components/lan8742/lan8742.c ****    
 503:Drivers/BSP/Components/lan8742/lan8742.c ****   return status;
 504:Drivers/BSP/Components/lan8742/lan8742.c **** }
 1101              		.loc 1 504 1 view .LVU323
 1102 0032 03B0     		add	sp, sp, #12
 1103              		.cfi_remember_state
 1104              		.cfi_def_cfa_offset 12
 1105              		@ sp needed
 1106 0034 30BD     		pop	{r4, r5, pc}
 1107              	.LVL85:
 1108              	.L106:
 1109              		.cfi_restore_state
 500:Drivers/BSP/Components/lan8742/lan8742.c ****   }
 1110              		.loc 1 500 12 view .LVU324
 1111 0036 6FF00400 		mvn	r0, #4
 1112 003a FAE7     		b	.L104
 1113              		.cfi_endproc
 1114              	.LFE9:
 1116              		.section	.text.LAN8742_EnableIT,"ax",%progbits
 1117              		.align	1
 1118              		.p2align 2,,3
 1119              		.global	LAN8742_EnableIT
 1120              		.syntax unified
 1121              		.thumb
 1122              		.thumb_func
 1124              	LAN8742_EnableIT:
 1125              	.LVL86:
 1126              	.LFB10:
 505:Drivers/BSP/Components/lan8742/lan8742.c **** 
 506:Drivers/BSP/Components/lan8742/lan8742.c **** /**
 507:Drivers/BSP/Components/lan8742/lan8742.c ****   * @brief  Enable IT source.
 508:Drivers/BSP/Components/lan8742/lan8742.c ****   * @param  pObj: Pointer to device object. 
 509:Drivers/BSP/Components/lan8742/lan8742.c ****   * @param  Interrupt: IT source to be enabled
 510:Drivers/BSP/Components/lan8742/lan8742.c ****   *         should be a value or a combination of the following:
 511:Drivers/BSP/Components/lan8742/lan8742.c ****   *         LAN8742_WOL_IT                     
 512:Drivers/BSP/Components/lan8742/lan8742.c ****   *         LAN8742_ENERGYON_IT                
 513:Drivers/BSP/Components/lan8742/lan8742.c ****   *         LAN8742_AUTONEGO_COMPLETE_IT       
 514:Drivers/BSP/Components/lan8742/lan8742.c ****   *         LAN8742_REMOTE_FAULT_IT            
 515:Drivers/BSP/Components/lan8742/lan8742.c ****   *         LAN8742_LINK_DOWN_IT               
 516:Drivers/BSP/Components/lan8742/lan8742.c ****   *         LAN8742_AUTONEGO_LP_ACK_IT         
 517:Drivers/BSP/Components/lan8742/lan8742.c ****   *         LAN8742_PARALLEL_DETECTION_FAULT_IT
 518:Drivers/BSP/Components/lan8742/lan8742.c ****   *         LAN8742_AUTONEGO_PAGE_RECEIVED_IT
 519:Drivers/BSP/Components/lan8742/lan8742.c ****   * @retval LAN8742_STATUS_OK  if OK
 520:Drivers/BSP/Components/lan8742/lan8742.c ****   *         LAN8742_STATUS_READ_ERROR if connot read register
 521:Drivers/BSP/Components/lan8742/lan8742.c ****   *         LAN8742_STATUS_WRITE_ERROR if connot write to register
 522:Drivers/BSP/Components/lan8742/lan8742.c ****   */
 523:Drivers/BSP/Components/lan8742/lan8742.c **** int32_t LAN8742_EnableIT(lan8742_Object_t *pObj, uint32_t Interrupt)
 524:Drivers/BSP/Components/lan8742/lan8742.c **** {
 1127              		.loc 1 524 1 is_stmt 1 view -0
 1128              		.cfi_startproc
 1129              		@ args = 0, pretend = 0, frame = 8
 1130              		@ frame_needed = 0, uses_anonymous_args = 0
 525:Drivers/BSP/Components/lan8742/lan8742.c ****   uint32_t readval = 0;
 1131              		.loc 1 525 3 view .LVU326
 524:Drivers/BSP/Components/lan8742/lan8742.c ****   uint32_t readval = 0;
ARM GAS  /var/folders/0z/tsy30v1j4xl4_7kw94k978ww0000gn/T//ccKzZMzk.s 			page 32


 1132              		.loc 1 524 1 is_stmt 0 view .LVU327
 1133 0000 30B5     		push	{r4, r5, lr}
 1134              		.cfi_def_cfa_offset 12
 1135              		.cfi_offset 4, -12
 1136              		.cfi_offset 5, -8
 1137              		.cfi_offset 14, -4
 1138 0002 0446     		mov	r4, r0
 1139 0004 83B0     		sub	sp, sp, #12
 1140              		.cfi_def_cfa_offset 24
 1141              		.loc 1 525 12 view .LVU328
 1142 0006 0022     		movs	r2, #0
 1143 0008 0192     		str	r2, [sp, #4]
 526:Drivers/BSP/Components/lan8742/lan8742.c ****   int32_t status = LAN8742_STATUS_OK;
 1144              		.loc 1 526 3 is_stmt 1 view .LVU329
 1145              	.LVL87:
 527:Drivers/BSP/Components/lan8742/lan8742.c ****   
 528:Drivers/BSP/Components/lan8742/lan8742.c ****   if(pObj->IO.ReadReg(pObj->DevAddr, LAN8742_IMR, &readval) >= 0)
 1146              		.loc 1 528 3 view .LVU330
 1147              		.loc 1 528 6 is_stmt 0 view .LVU331
 1148 000a 0068     		ldr	r0, [r0]
 1149              	.LVL88:
 1150              		.loc 1 528 6 view .LVU332
 1151 000c 6369     		ldr	r3, [r4, #20]
 524:Drivers/BSP/Components/lan8742/lan8742.c ****   uint32_t readval = 0;
 1152              		.loc 1 524 1 view .LVU333
 1153 000e 0D46     		mov	r5, r1
 1154              		.loc 1 528 6 view .LVU334
 1155 0010 01AA     		add	r2, sp, #4
 1156 0012 1E21     		movs	r1, #30
 1157              	.LVL89:
 1158              		.loc 1 528 6 view .LVU335
 1159 0014 9847     		blx	r3
 1160              	.LVL90:
 1161              		.loc 1 528 5 view .LVU336
 1162 0016 0028     		cmp	r0, #0
 1163 0018 0DDB     		blt	.L111
 529:Drivers/BSP/Components/lan8742/lan8742.c ****   {
 530:Drivers/BSP/Components/lan8742/lan8742.c ****     readval |= Interrupt;
 1164              		.loc 1 530 5 is_stmt 1 view .LVU337
 1165              		.loc 1 530 13 is_stmt 0 view .LVU338
 1166 001a 019A     		ldr	r2, [sp, #4]
 531:Drivers/BSP/Components/lan8742/lan8742.c ****   
 532:Drivers/BSP/Components/lan8742/lan8742.c ****     /* Apply configuration */
 533:Drivers/BSP/Components/lan8742/lan8742.c ****     if(pObj->IO.WriteReg(pObj->DevAddr, LAN8742_IMR, readval) < 0)
 1167              		.loc 1 533 8 view .LVU339
 1168 001c 2369     		ldr	r3, [r4, #16]
 1169 001e 2068     		ldr	r0, [r4]
 530:Drivers/BSP/Components/lan8742/lan8742.c ****   
 1170              		.loc 1 530 13 view .LVU340
 1171 0020 2A43     		orrs	r2, r2, r5
 1172 0022 0192     		str	r2, [sp, #4]
 1173              		.loc 1 533 5 is_stmt 1 view .LVU341
 1174              		.loc 1 533 8 is_stmt 0 view .LVU342
 1175 0024 1E21     		movs	r1, #30
 1176 0026 9847     		blx	r3
 1177              	.LVL91:
 534:Drivers/BSP/Components/lan8742/lan8742.c ****     {
ARM GAS  /var/folders/0z/tsy30v1j4xl4_7kw94k978ww0000gn/T//ccKzZMzk.s 			page 33


 535:Drivers/BSP/Components/lan8742/lan8742.c ****       status =  LAN8742_STATUS_WRITE_ERROR;
 1178              		.loc 1 535 14 view .LVU343
 1179 0028 0028     		cmp	r0, #0
 1180 002a ACBF     		ite	ge
 1181 002c 0020     		movge	r0, #0
 1182 002e 6FF00300 		mvnlt	r0, #3
 1183              	.L109:
 536:Drivers/BSP/Components/lan8742/lan8742.c ****     }
 537:Drivers/BSP/Components/lan8742/lan8742.c ****   }
 538:Drivers/BSP/Components/lan8742/lan8742.c ****   else
 539:Drivers/BSP/Components/lan8742/lan8742.c ****   {
 540:Drivers/BSP/Components/lan8742/lan8742.c ****     status = LAN8742_STATUS_READ_ERROR;
 541:Drivers/BSP/Components/lan8742/lan8742.c ****   }
 542:Drivers/BSP/Components/lan8742/lan8742.c ****    
 543:Drivers/BSP/Components/lan8742/lan8742.c ****   return status;
 544:Drivers/BSP/Components/lan8742/lan8742.c **** }
 1184              		.loc 1 544 1 view .LVU344
 1185 0032 03B0     		add	sp, sp, #12
 1186              		.cfi_remember_state
 1187              		.cfi_def_cfa_offset 12
 1188              		@ sp needed
 1189 0034 30BD     		pop	{r4, r5, pc}
 1190              	.LVL92:
 1191              	.L111:
 1192              		.cfi_restore_state
 540:Drivers/BSP/Components/lan8742/lan8742.c ****   }
 1193              		.loc 1 540 12 view .LVU345
 1194 0036 6FF00400 		mvn	r0, #4
 1195 003a FAE7     		b	.L109
 1196              		.cfi_endproc
 1197              	.LFE10:
 1199              		.section	.text.LAN8742_DisableIT,"ax",%progbits
 1200              		.align	1
 1201              		.p2align 2,,3
 1202              		.global	LAN8742_DisableIT
 1203              		.syntax unified
 1204              		.thumb
 1205              		.thumb_func
 1207              	LAN8742_DisableIT:
 1208              	.LVL93:
 1209              	.LFB11:
 545:Drivers/BSP/Components/lan8742/lan8742.c **** 
 546:Drivers/BSP/Components/lan8742/lan8742.c **** /**
 547:Drivers/BSP/Components/lan8742/lan8742.c ****   * @brief  Disable IT source.
 548:Drivers/BSP/Components/lan8742/lan8742.c ****   * @param  pObj: Pointer to device object. 
 549:Drivers/BSP/Components/lan8742/lan8742.c ****   * @param  Interrupt: IT source to be disabled
 550:Drivers/BSP/Components/lan8742/lan8742.c ****   *         should be a value or a combination of the following:
 551:Drivers/BSP/Components/lan8742/lan8742.c ****   *         LAN8742_WOL_IT                     
 552:Drivers/BSP/Components/lan8742/lan8742.c ****   *         LAN8742_ENERGYON_IT                
 553:Drivers/BSP/Components/lan8742/lan8742.c ****   *         LAN8742_AUTONEGO_COMPLETE_IT       
 554:Drivers/BSP/Components/lan8742/lan8742.c ****   *         LAN8742_REMOTE_FAULT_IT            
 555:Drivers/BSP/Components/lan8742/lan8742.c ****   *         LAN8742_LINK_DOWN_IT               
 556:Drivers/BSP/Components/lan8742/lan8742.c ****   *         LAN8742_AUTONEGO_LP_ACK_IT         
 557:Drivers/BSP/Components/lan8742/lan8742.c ****   *         LAN8742_PARALLEL_DETECTION_FAULT_IT
 558:Drivers/BSP/Components/lan8742/lan8742.c ****   *         LAN8742_AUTONEGO_PAGE_RECEIVED_IT
 559:Drivers/BSP/Components/lan8742/lan8742.c ****   * @retval LAN8742_STATUS_OK  if OK
 560:Drivers/BSP/Components/lan8742/lan8742.c ****   *         LAN8742_STATUS_READ_ERROR if connot read register
ARM GAS  /var/folders/0z/tsy30v1j4xl4_7kw94k978ww0000gn/T//ccKzZMzk.s 			page 34


 561:Drivers/BSP/Components/lan8742/lan8742.c ****   *         LAN8742_STATUS_WRITE_ERROR if connot write to register
 562:Drivers/BSP/Components/lan8742/lan8742.c ****   */
 563:Drivers/BSP/Components/lan8742/lan8742.c **** int32_t LAN8742_DisableIT(lan8742_Object_t *pObj, uint32_t Interrupt)
 564:Drivers/BSP/Components/lan8742/lan8742.c **** {
 1210              		.loc 1 564 1 is_stmt 1 view -0
 1211              		.cfi_startproc
 1212              		@ args = 0, pretend = 0, frame = 8
 1213              		@ frame_needed = 0, uses_anonymous_args = 0
 565:Drivers/BSP/Components/lan8742/lan8742.c ****   uint32_t readval = 0;
 1214              		.loc 1 565 3 view .LVU347
 564:Drivers/BSP/Components/lan8742/lan8742.c ****   uint32_t readval = 0;
 1215              		.loc 1 564 1 is_stmt 0 view .LVU348
 1216 0000 30B5     		push	{r4, r5, lr}
 1217              		.cfi_def_cfa_offset 12
 1218              		.cfi_offset 4, -12
 1219              		.cfi_offset 5, -8
 1220              		.cfi_offset 14, -4
 1221 0002 0446     		mov	r4, r0
 1222 0004 83B0     		sub	sp, sp, #12
 1223              		.cfi_def_cfa_offset 24
 1224              		.loc 1 565 12 view .LVU349
 1225 0006 0022     		movs	r2, #0
 1226 0008 0192     		str	r2, [sp, #4]
 566:Drivers/BSP/Components/lan8742/lan8742.c ****   int32_t status = LAN8742_STATUS_OK;
 1227              		.loc 1 566 3 is_stmt 1 view .LVU350
 1228              	.LVL94:
 567:Drivers/BSP/Components/lan8742/lan8742.c ****   
 568:Drivers/BSP/Components/lan8742/lan8742.c ****   if(pObj->IO.ReadReg(pObj->DevAddr, LAN8742_IMR, &readval) >= 0)
 1229              		.loc 1 568 3 view .LVU351
 1230              		.loc 1 568 6 is_stmt 0 view .LVU352
 1231 000a 0068     		ldr	r0, [r0]
 1232              	.LVL95:
 1233              		.loc 1 568 6 view .LVU353
 1234 000c 6369     		ldr	r3, [r4, #20]
 564:Drivers/BSP/Components/lan8742/lan8742.c ****   uint32_t readval = 0;
 1235              		.loc 1 564 1 view .LVU354
 1236 000e 0D46     		mov	r5, r1
 1237              		.loc 1 568 6 view .LVU355
 1238 0010 01AA     		add	r2, sp, #4
 1239 0012 1E21     		movs	r1, #30
 1240              	.LVL96:
 1241              		.loc 1 568 6 view .LVU356
 1242 0014 9847     		blx	r3
 1243              	.LVL97:
 1244              		.loc 1 568 5 view .LVU357
 1245 0016 0028     		cmp	r0, #0
 1246 0018 0EDB     		blt	.L116
 569:Drivers/BSP/Components/lan8742/lan8742.c ****   {
 570:Drivers/BSP/Components/lan8742/lan8742.c ****     readval &= ~Interrupt;
 1247              		.loc 1 570 5 is_stmt 1 view .LVU358
 1248              		.loc 1 570 13 is_stmt 0 view .LVU359
 1249 001a 019A     		ldr	r2, [sp, #4]
 571:Drivers/BSP/Components/lan8742/lan8742.c ****   
 572:Drivers/BSP/Components/lan8742/lan8742.c ****     /* Apply configuration */
 573:Drivers/BSP/Components/lan8742/lan8742.c ****     if(pObj->IO.WriteReg(pObj->DevAddr, LAN8742_IMR, readval) < 0)
 1250              		.loc 1 573 8 view .LVU360
 1251 001c 2369     		ldr	r3, [r4, #16]
ARM GAS  /var/folders/0z/tsy30v1j4xl4_7kw94k978ww0000gn/T//ccKzZMzk.s 			page 35


 1252 001e 2068     		ldr	r0, [r4]
 570:Drivers/BSP/Components/lan8742/lan8742.c ****   
 1253              		.loc 1 570 13 view .LVU361
 1254 0020 22EA0502 		bic	r2, r2, r5
 1255 0024 0192     		str	r2, [sp, #4]
 1256              		.loc 1 573 5 is_stmt 1 view .LVU362
 1257              		.loc 1 573 8 is_stmt 0 view .LVU363
 1258 0026 1E21     		movs	r1, #30
 1259 0028 9847     		blx	r3
 1260              	.LVL98:
 574:Drivers/BSP/Components/lan8742/lan8742.c ****     {
 575:Drivers/BSP/Components/lan8742/lan8742.c ****       status = LAN8742_STATUS_WRITE_ERROR;
 1261              		.loc 1 575 14 view .LVU364
 1262 002a 0028     		cmp	r0, #0
 1263 002c ACBF     		ite	ge
 1264 002e 0020     		movge	r0, #0
 1265 0030 6FF00300 		mvnlt	r0, #3
 1266              	.L114:
 576:Drivers/BSP/Components/lan8742/lan8742.c ****     }
 577:Drivers/BSP/Components/lan8742/lan8742.c ****   }
 578:Drivers/BSP/Components/lan8742/lan8742.c ****   else
 579:Drivers/BSP/Components/lan8742/lan8742.c ****   {
 580:Drivers/BSP/Components/lan8742/lan8742.c ****     status = LAN8742_STATUS_READ_ERROR;
 581:Drivers/BSP/Components/lan8742/lan8742.c ****   }
 582:Drivers/BSP/Components/lan8742/lan8742.c ****    
 583:Drivers/BSP/Components/lan8742/lan8742.c ****   return status;
 584:Drivers/BSP/Components/lan8742/lan8742.c **** }
 1267              		.loc 1 584 1 view .LVU365
 1268 0034 03B0     		add	sp, sp, #12
 1269              		.cfi_remember_state
 1270              		.cfi_def_cfa_offset 12
 1271              		@ sp needed
 1272 0036 30BD     		pop	{r4, r5, pc}
 1273              	.LVL99:
 1274              	.L116:
 1275              		.cfi_restore_state
 580:Drivers/BSP/Components/lan8742/lan8742.c ****   }
 1276              		.loc 1 580 12 view .LVU366
 1277 0038 6FF00400 		mvn	r0, #4
 1278 003c FAE7     		b	.L114
 1279              		.cfi_endproc
 1280              	.LFE11:
 1282 003e 00BF     		.section	.text.LAN8742_ClearIT,"ax",%progbits
 1283              		.align	1
 1284              		.p2align 2,,3
 1285              		.global	LAN8742_ClearIT
 1286              		.syntax unified
 1287              		.thumb
 1288              		.thumb_func
 1290              	LAN8742_ClearIT:
 1291              	.LVL100:
 1292              	.LFB12:
 585:Drivers/BSP/Components/lan8742/lan8742.c **** 
 586:Drivers/BSP/Components/lan8742/lan8742.c **** /**
 587:Drivers/BSP/Components/lan8742/lan8742.c ****   * @brief  Clear IT flag.
 588:Drivers/BSP/Components/lan8742/lan8742.c ****   * @param  pObj: Pointer to device object. 
 589:Drivers/BSP/Components/lan8742/lan8742.c ****   * @param  Interrupt: IT flag to be cleared
ARM GAS  /var/folders/0z/tsy30v1j4xl4_7kw94k978ww0000gn/T//ccKzZMzk.s 			page 36


 590:Drivers/BSP/Components/lan8742/lan8742.c ****   *         should be a value or a combination of the following:
 591:Drivers/BSP/Components/lan8742/lan8742.c ****   *         LAN8742_WOL_IT                     
 592:Drivers/BSP/Components/lan8742/lan8742.c ****   *         LAN8742_ENERGYON_IT                
 593:Drivers/BSP/Components/lan8742/lan8742.c ****   *         LAN8742_AUTONEGO_COMPLETE_IT       
 594:Drivers/BSP/Components/lan8742/lan8742.c ****   *         LAN8742_REMOTE_FAULT_IT            
 595:Drivers/BSP/Components/lan8742/lan8742.c ****   *         LAN8742_LINK_DOWN_IT               
 596:Drivers/BSP/Components/lan8742/lan8742.c ****   *         LAN8742_AUTONEGO_LP_ACK_IT         
 597:Drivers/BSP/Components/lan8742/lan8742.c ****   *         LAN8742_PARALLEL_DETECTION_FAULT_IT
 598:Drivers/BSP/Components/lan8742/lan8742.c ****   *         LAN8742_AUTONEGO_PAGE_RECEIVED_IT
 599:Drivers/BSP/Components/lan8742/lan8742.c ****   * @retval LAN8742_STATUS_OK  if OK
 600:Drivers/BSP/Components/lan8742/lan8742.c ****   *         LAN8742_STATUS_READ_ERROR if connot read register
 601:Drivers/BSP/Components/lan8742/lan8742.c ****   */
 602:Drivers/BSP/Components/lan8742/lan8742.c **** int32_t  LAN8742_ClearIT(lan8742_Object_t *pObj, uint32_t Interrupt)
 603:Drivers/BSP/Components/lan8742/lan8742.c **** {
 1293              		.loc 1 603 1 is_stmt 1 view -0
 1294              		.cfi_startproc
 1295              		@ args = 0, pretend = 0, frame = 8
 1296              		@ frame_needed = 0, uses_anonymous_args = 0
 604:Drivers/BSP/Components/lan8742/lan8742.c ****   uint32_t readval = 0;
 1297              		.loc 1 604 3 view .LVU368
 603:Drivers/BSP/Components/lan8742/lan8742.c ****   uint32_t readval = 0;
 1298              		.loc 1 603 1 is_stmt 0 view .LVU369
 1299 0000 00B5     		push	{lr}
 1300              		.cfi_def_cfa_offset 4
 1301              		.cfi_offset 14, -4
 1302 0002 83B0     		sub	sp, sp, #12
 1303              		.cfi_def_cfa_offset 16
 1304              		.loc 1 604 12 view .LVU370
 1305 0004 0022     		movs	r2, #0
 605:Drivers/BSP/Components/lan8742/lan8742.c ****   int32_t status = LAN8742_STATUS_OK;  
 606:Drivers/BSP/Components/lan8742/lan8742.c ****   
 607:Drivers/BSP/Components/lan8742/lan8742.c ****   if(pObj->IO.ReadReg(pObj->DevAddr, LAN8742_ISFR, &readval) < 0)
 1306              		.loc 1 607 6 view .LVU371
 1307 0006 4369     		ldr	r3, [r0, #20]
 604:Drivers/BSP/Components/lan8742/lan8742.c ****   int32_t status = LAN8742_STATUS_OK;  
 1308              		.loc 1 604 12 view .LVU372
 1309 0008 0192     		str	r2, [sp, #4]
 605:Drivers/BSP/Components/lan8742/lan8742.c ****   int32_t status = LAN8742_STATUS_OK;  
 1310              		.loc 1 605 3 is_stmt 1 view .LVU373
 1311              	.LVL101:
 1312              		.loc 1 607 3 view .LVU374
 1313              		.loc 1 607 6 is_stmt 0 view .LVU375
 1314 000a 1D21     		movs	r1, #29
 1315              	.LVL102:
 1316              		.loc 1 607 6 view .LVU376
 1317 000c 01AA     		add	r2, sp, #4
 1318 000e 0068     		ldr	r0, [r0]
 1319              	.LVL103:
 1320              		.loc 1 607 6 view .LVU377
 1321 0010 9847     		blx	r3
 1322              	.LVL104:
 608:Drivers/BSP/Components/lan8742/lan8742.c ****   {
 609:Drivers/BSP/Components/lan8742/lan8742.c ****     status =  LAN8742_STATUS_READ_ERROR;
 1323              		.loc 1 609 12 view .LVU378
 1324 0012 0028     		cmp	r0, #0
 610:Drivers/BSP/Components/lan8742/lan8742.c ****   }
 611:Drivers/BSP/Components/lan8742/lan8742.c ****   
ARM GAS  /var/folders/0z/tsy30v1j4xl4_7kw94k978ww0000gn/T//ccKzZMzk.s 			page 37


 612:Drivers/BSP/Components/lan8742/lan8742.c ****   return status;
 613:Drivers/BSP/Components/lan8742/lan8742.c **** }
 1325              		.loc 1 613 1 view .LVU379
 1326 0014 B4BF     		ite	lt
 1327 0016 6FF00400 		mvnlt	r0, #4
 1328 001a 0020     		movge	r0, #0
 1329 001c 03B0     		add	sp, sp, #12
 1330              		.cfi_def_cfa_offset 4
 1331              		@ sp needed
 1332 001e 5DF804FB 		ldr	pc, [sp], #4
 1333              		.cfi_endproc
 1334              	.LFE12:
 1336 0022 00BF     		.section	.text.LAN8742_GetITStatus,"ax",%progbits
 1337              		.align	1
 1338              		.p2align 2,,3
 1339              		.global	LAN8742_GetITStatus
 1340              		.syntax unified
 1341              		.thumb
 1342              		.thumb_func
 1344              	LAN8742_GetITStatus:
 1345              	.LVL105:
 1346              	.LFB13:
 614:Drivers/BSP/Components/lan8742/lan8742.c **** 
 615:Drivers/BSP/Components/lan8742/lan8742.c **** /**
 616:Drivers/BSP/Components/lan8742/lan8742.c ****   * @brief  Get IT Flag status.
 617:Drivers/BSP/Components/lan8742/lan8742.c ****   * @param  pObj: Pointer to device object. 
 618:Drivers/BSP/Components/lan8742/lan8742.c ****   * @param  Interrupt: IT Flag to be checked, 
 619:Drivers/BSP/Components/lan8742/lan8742.c ****   *         should be a value or a combination of the following:
 620:Drivers/BSP/Components/lan8742/lan8742.c ****   *         LAN8742_WOL_IT                     
 621:Drivers/BSP/Components/lan8742/lan8742.c ****   *         LAN8742_ENERGYON_IT                
 622:Drivers/BSP/Components/lan8742/lan8742.c ****   *         LAN8742_AUTONEGO_COMPLETE_IT       
 623:Drivers/BSP/Components/lan8742/lan8742.c ****   *         LAN8742_REMOTE_FAULT_IT            
 624:Drivers/BSP/Components/lan8742/lan8742.c ****   *         LAN8742_LINK_DOWN_IT               
 625:Drivers/BSP/Components/lan8742/lan8742.c ****   *         LAN8742_AUTONEGO_LP_ACK_IT         
 626:Drivers/BSP/Components/lan8742/lan8742.c ****   *         LAN8742_PARALLEL_DETECTION_FAULT_IT
 627:Drivers/BSP/Components/lan8742/lan8742.c ****   *         LAN8742_AUTONEGO_PAGE_RECEIVED_IT  
 628:Drivers/BSP/Components/lan8742/lan8742.c ****   * @retval 1 IT flag is SET
 629:Drivers/BSP/Components/lan8742/lan8742.c ****   *         0 IT flag is RESET
 630:Drivers/BSP/Components/lan8742/lan8742.c ****   *         LAN8742_STATUS_READ_ERROR if connot read register
 631:Drivers/BSP/Components/lan8742/lan8742.c ****   */
 632:Drivers/BSP/Components/lan8742/lan8742.c **** int32_t LAN8742_GetITStatus(lan8742_Object_t *pObj, uint32_t Interrupt)
 633:Drivers/BSP/Components/lan8742/lan8742.c **** {
 1347              		.loc 1 633 1 is_stmt 1 view -0
 1348              		.cfi_startproc
 1349              		@ args = 0, pretend = 0, frame = 8
 1350              		@ frame_needed = 0, uses_anonymous_args = 0
 634:Drivers/BSP/Components/lan8742/lan8742.c ****   uint32_t readval = 0;
 1351              		.loc 1 634 3 view .LVU381
 633:Drivers/BSP/Components/lan8742/lan8742.c ****   uint32_t readval = 0;
 1352              		.loc 1 633 1 is_stmt 0 view .LVU382
 1353 0000 30B5     		push	{r4, r5, lr}
 1354              		.cfi_def_cfa_offset 12
 1355              		.cfi_offset 4, -12
 1356              		.cfi_offset 5, -8
 1357              		.cfi_offset 14, -4
 1358 0002 83B0     		sub	sp, sp, #12
 1359              		.cfi_def_cfa_offset 24
ARM GAS  /var/folders/0z/tsy30v1j4xl4_7kw94k978ww0000gn/T//ccKzZMzk.s 			page 38


 1360              		.loc 1 634 12 view .LVU383
 1361 0004 0022     		movs	r2, #0
 635:Drivers/BSP/Components/lan8742/lan8742.c ****   int32_t status = 0;
 636:Drivers/BSP/Components/lan8742/lan8742.c **** 
 637:Drivers/BSP/Components/lan8742/lan8742.c ****   if(pObj->IO.ReadReg(pObj->DevAddr, LAN8742_ISFR, &readval) >= 0)
 1362              		.loc 1 637 6 view .LVU384
 1363 0006 4569     		ldr	r5, [r0, #20]
 634:Drivers/BSP/Components/lan8742/lan8742.c ****   int32_t status = 0;
 1364              		.loc 1 634 12 view .LVU385
 1365 0008 0192     		str	r2, [sp, #4]
 635:Drivers/BSP/Components/lan8742/lan8742.c ****   int32_t status = 0;
 1366              		.loc 1 635 3 is_stmt 1 view .LVU386
 1367              	.LVL106:
 1368              		.loc 1 637 3 view .LVU387
 1369              		.loc 1 637 6 is_stmt 0 view .LVU388
 1370 000a 0068     		ldr	r0, [r0]
 1371              	.LVL107:
 633:Drivers/BSP/Components/lan8742/lan8742.c ****   uint32_t readval = 0;
 1372              		.loc 1 633 1 view .LVU389
 1373 000c 0C46     		mov	r4, r1
 1374              		.loc 1 637 6 view .LVU390
 1375 000e 01AA     		add	r2, sp, #4
 1376 0010 1D21     		movs	r1, #29
 1377              	.LVL108:
 1378              		.loc 1 637 6 view .LVU391
 1379 0012 A847     		blx	r5
 1380              	.LVL109:
 1381              		.loc 1 637 5 view .LVU392
 1382 0014 0028     		cmp	r0, #0
 1383 0016 07DB     		blt	.L125
 638:Drivers/BSP/Components/lan8742/lan8742.c ****   {
 639:Drivers/BSP/Components/lan8742/lan8742.c ****     status = ((readval & Interrupt) == Interrupt);
 1384              		.loc 1 639 5 is_stmt 1 view .LVU393
 1385              		.loc 1 639 24 is_stmt 0 view .LVU394
 1386 0018 019B     		ldr	r3, [sp, #4]
 1387              		.loc 1 639 37 view .LVU395
 1388 001a 34EA0303 		bics	r3, r4, r3
 1389 001e 0CBF     		ite	eq
 1390 0020 0120     		moveq	r0, #1
 1391 0022 0020     		movne	r0, #0
 1392              	.LVL110:
 1393              	.L123:
 640:Drivers/BSP/Components/lan8742/lan8742.c ****   }
 641:Drivers/BSP/Components/lan8742/lan8742.c ****   else
 642:Drivers/BSP/Components/lan8742/lan8742.c ****   {
 643:Drivers/BSP/Components/lan8742/lan8742.c ****     status = LAN8742_STATUS_READ_ERROR;
 644:Drivers/BSP/Components/lan8742/lan8742.c ****   }
 645:Drivers/BSP/Components/lan8742/lan8742.c **** 	
 646:Drivers/BSP/Components/lan8742/lan8742.c ****   return status;
 647:Drivers/BSP/Components/lan8742/lan8742.c **** }
 1394              		.loc 1 647 1 view .LVU396
 1395 0024 03B0     		add	sp, sp, #12
 1396              		.cfi_remember_state
 1397              		.cfi_def_cfa_offset 12
 1398              		@ sp needed
 1399 0026 30BD     		pop	{r4, r5, pc}
 1400              	.LVL111:
ARM GAS  /var/folders/0z/tsy30v1j4xl4_7kw94k978ww0000gn/T//ccKzZMzk.s 			page 39


 1401              	.L125:
 1402              		.cfi_restore_state
 643:Drivers/BSP/Components/lan8742/lan8742.c ****   }
 1403              		.loc 1 643 12 view .LVU397
 1404 0028 6FF00400 		mvn	r0, #4
 1405              	.LVL112:
 646:Drivers/BSP/Components/lan8742/lan8742.c **** }
 1406              		.loc 1 646 3 is_stmt 1 view .LVU398
 646:Drivers/BSP/Components/lan8742/lan8742.c **** }
 1407              		.loc 1 646 10 is_stmt 0 view .LVU399
 1408 002c FAE7     		b	.L123
 1409              		.cfi_endproc
 1410              	.LFE13:
 1412 002e 00BF     		.text
 1413              	.Letext0:
 1414              		.file 2 "/Users/johannes/Library/Application Support/Code/User/globalStorage/bmd.stm32-for-vscode/
 1415              		.file 3 "/Users/johannes/Library/Application Support/Code/User/globalStorage/bmd.stm32-for-vscode/
 1416              		.file 4 "Drivers/BSP/Components/lan8742/lan8742.h"
ARM GAS  /var/folders/0z/tsy30v1j4xl4_7kw94k978ww0000gn/T//ccKzZMzk.s 			page 40

