ARM GAS  /var/folders/0z/tsy30v1j4xl4_7kw94k978ww0000gn/T//ccYjfEBV.s 			page 1


   1              		.cpu cortex-m4
   2              		.arch armv7e-m
   3              		.fpu fpv4-sp-d16
   4              		.eabi_attribute 27, 1
   5              		.eabi_attribute 28, 1
   6              		.eabi_attribute 23, 1
   7              		.eabi_attribute 24, 1
   8              		.eabi_attribute 25, 1
   9              		.eabi_attribute 26, 1
  10              		.eabi_attribute 30, 2
  11              		.eabi_attribute 34, 1
  12              		.eabi_attribute 18, 4
  13              		.file	"lis302dl.c"
  14              		.text
  15              	.Ltext0:
  16              		.cfi_sections	.debug_frame
  17              		.section	.text.LIS302DL_DeInit,"ax",%progbits
  18              		.align	1
  19              		.p2align 2,,3
  20              		.global	LIS302DL_DeInit
  21              		.syntax unified
  22              		.thumb
  23              		.thumb_func
  25              	LIS302DL_DeInit:
  26              	.LFB1:
  27              		.file 1 "Drivers/BSP/Components/lis302dl/lis302dl.c"
   1:Drivers/BSP/Components/lis302dl/lis302dl.c **** /**
   2:Drivers/BSP/Components/lis302dl/lis302dl.c ****   ******************************************************************************
   3:Drivers/BSP/Components/lis302dl/lis302dl.c ****   * @file    lis302dl.c
   4:Drivers/BSP/Components/lis302dl/lis302dl.c ****   * @author  MCD Application Team
   5:Drivers/BSP/Components/lis302dl/lis302dl.c ****   * @version V2.0.0
   6:Drivers/BSP/Components/lis302dl/lis302dl.c ****   * @date    03-August-2015
   7:Drivers/BSP/Components/lis302dl/lis302dl.c ****   * @brief   This file provides a set of functions needed to manage the LIS302DL
   8:Drivers/BSP/Components/lis302dl/lis302dl.c ****   *          MEMS accelerometer.
   9:Drivers/BSP/Components/lis302dl/lis302dl.c ****   ******************************************************************************
  10:Drivers/BSP/Components/lis302dl/lis302dl.c ****   * @attention
  11:Drivers/BSP/Components/lis302dl/lis302dl.c ****   *
  12:Drivers/BSP/Components/lis302dl/lis302dl.c ****   * <h2><center>&copy; COPYRIGHT(c) 2015 STMicroelectronics</center></h2>
  13:Drivers/BSP/Components/lis302dl/lis302dl.c ****   *
  14:Drivers/BSP/Components/lis302dl/lis302dl.c ****   * Redistribution and use in source and binary forms, with or without modification,
  15:Drivers/BSP/Components/lis302dl/lis302dl.c ****   * are permitted provided that the following conditions are met:
  16:Drivers/BSP/Components/lis302dl/lis302dl.c ****   *   1. Redistributions of source code must retain the above copyright notice,
  17:Drivers/BSP/Components/lis302dl/lis302dl.c ****   *      this list of conditions and the following disclaimer.
  18:Drivers/BSP/Components/lis302dl/lis302dl.c ****   *   2. Redistributions in binary form must reproduce the above copyright notice,
  19:Drivers/BSP/Components/lis302dl/lis302dl.c ****   *      this list of conditions and the following disclaimer in the documentation
  20:Drivers/BSP/Components/lis302dl/lis302dl.c ****   *      and/or other materials provided with the distribution.
  21:Drivers/BSP/Components/lis302dl/lis302dl.c ****   *   3. Neither the name of STMicroelectronics nor the names of its contributors
  22:Drivers/BSP/Components/lis302dl/lis302dl.c ****   *      may be used to endorse or promote products derived from this software
  23:Drivers/BSP/Components/lis302dl/lis302dl.c ****   *      without specific prior written permission.
  24:Drivers/BSP/Components/lis302dl/lis302dl.c ****   *
  25:Drivers/BSP/Components/lis302dl/lis302dl.c ****   * THIS SOFTWARE IS PROVIDED BY THE COPYRIGHT HOLDERS AND CONTRIBUTORS "AS IS"
  26:Drivers/BSP/Components/lis302dl/lis302dl.c ****   * AND ANY EXPRESS OR IMPLIED WARRANTIES, INCLUDING, BUT NOT LIMITED TO, THE
  27:Drivers/BSP/Components/lis302dl/lis302dl.c ****   * IMPLIED WARRANTIES OF MERCHANTABILITY AND FITNESS FOR A PARTICULAR PURPOSE ARE
  28:Drivers/BSP/Components/lis302dl/lis302dl.c ****   * DISCLAIMED. IN NO EVENT SHALL THE COPYRIGHT HOLDER OR CONTRIBUTORS BE LIABLE
  29:Drivers/BSP/Components/lis302dl/lis302dl.c ****   * FOR ANY DIRECT, INDIRECT, INCIDENTAL, SPECIAL, EXEMPLARY, OR CONSEQUENTIAL
  30:Drivers/BSP/Components/lis302dl/lis302dl.c ****   * DAMAGES (INCLUDING, BUT NOT LIMITED TO, PROCUREMENT OF SUBSTITUTE GOODS OR
  31:Drivers/BSP/Components/lis302dl/lis302dl.c ****   * SERVICES; LOSS OF USE, DATA, OR PROFITS; OR BUSINESS INTERRUPTION) HOWEVER
ARM GAS  /var/folders/0z/tsy30v1j4xl4_7kw94k978ww0000gn/T//ccYjfEBV.s 			page 2


  32:Drivers/BSP/Components/lis302dl/lis302dl.c ****   * CAUSED AND ON ANY THEORY OF LIABILITY, WHETHER IN CONTRACT, STRICT LIABILITY,
  33:Drivers/BSP/Components/lis302dl/lis302dl.c ****   * OR TORT (INCLUDING NEGLIGENCE OR OTHERWISE) ARISING IN ANY WAY OUT OF THE USE
  34:Drivers/BSP/Components/lis302dl/lis302dl.c ****   * OF THIS SOFTWARE, EVEN IF ADVISED OF THE POSSIBILITY OF SUCH DAMAGE.
  35:Drivers/BSP/Components/lis302dl/lis302dl.c ****   *
  36:Drivers/BSP/Components/lis302dl/lis302dl.c ****   ******************************************************************************
  37:Drivers/BSP/Components/lis302dl/lis302dl.c ****   */ 
  38:Drivers/BSP/Components/lis302dl/lis302dl.c **** 
  39:Drivers/BSP/Components/lis302dl/lis302dl.c **** /* Includes ------------------------------------------------------------------*/
  40:Drivers/BSP/Components/lis302dl/lis302dl.c **** #include "lis302dl.h"
  41:Drivers/BSP/Components/lis302dl/lis302dl.c **** 
  42:Drivers/BSP/Components/lis302dl/lis302dl.c **** /** @addtogroup BSP
  43:Drivers/BSP/Components/lis302dl/lis302dl.c ****   * @{
  44:Drivers/BSP/Components/lis302dl/lis302dl.c ****   */ 
  45:Drivers/BSP/Components/lis302dl/lis302dl.c **** 
  46:Drivers/BSP/Components/lis302dl/lis302dl.c **** /** @addtogroup Components
  47:Drivers/BSP/Components/lis302dl/lis302dl.c ****   * @{
  48:Drivers/BSP/Components/lis302dl/lis302dl.c ****   */ 
  49:Drivers/BSP/Components/lis302dl/lis302dl.c **** 
  50:Drivers/BSP/Components/lis302dl/lis302dl.c **** /** @addtogroup LIS302DL
  51:Drivers/BSP/Components/lis302dl/lis302dl.c ****   * @brief  This file includes the motion sensor driver for LIS302DL motion sensor 
  52:Drivers/BSP/Components/lis302dl/lis302dl.c ****   *         devices.
  53:Drivers/BSP/Components/lis302dl/lis302dl.c ****   * @{
  54:Drivers/BSP/Components/lis302dl/lis302dl.c ****   */
  55:Drivers/BSP/Components/lis302dl/lis302dl.c **** 
  56:Drivers/BSP/Components/lis302dl/lis302dl.c **** 
  57:Drivers/BSP/Components/lis302dl/lis302dl.c **** /** @defgroup LIS302DL_Private_TypesDefinitions
  58:Drivers/BSP/Components/lis302dl/lis302dl.c ****   * @{
  59:Drivers/BSP/Components/lis302dl/lis302dl.c ****   */
  60:Drivers/BSP/Components/lis302dl/lis302dl.c **** 
  61:Drivers/BSP/Components/lis302dl/lis302dl.c **** /**
  62:Drivers/BSP/Components/lis302dl/lis302dl.c ****   * @}
  63:Drivers/BSP/Components/lis302dl/lis302dl.c ****   */
  64:Drivers/BSP/Components/lis302dl/lis302dl.c **** 
  65:Drivers/BSP/Components/lis302dl/lis302dl.c **** /** @defgroup LIS302DL_Private_Defines
  66:Drivers/BSP/Components/lis302dl/lis302dl.c ****   * @{
  67:Drivers/BSP/Components/lis302dl/lis302dl.c ****   */
  68:Drivers/BSP/Components/lis302dl/lis302dl.c **** 
  69:Drivers/BSP/Components/lis302dl/lis302dl.c **** /**
  70:Drivers/BSP/Components/lis302dl/lis302dl.c ****   * @}
  71:Drivers/BSP/Components/lis302dl/lis302dl.c ****   */
  72:Drivers/BSP/Components/lis302dl/lis302dl.c **** 
  73:Drivers/BSP/Components/lis302dl/lis302dl.c **** /** @defgroup LIS302DL_Private_Macros
  74:Drivers/BSP/Components/lis302dl/lis302dl.c ****   * @{
  75:Drivers/BSP/Components/lis302dl/lis302dl.c ****   */
  76:Drivers/BSP/Components/lis302dl/lis302dl.c **** 
  77:Drivers/BSP/Components/lis302dl/lis302dl.c **** /**
  78:Drivers/BSP/Components/lis302dl/lis302dl.c ****   * @}
  79:Drivers/BSP/Components/lis302dl/lis302dl.c ****   */ 
  80:Drivers/BSP/Components/lis302dl/lis302dl.c ****   
  81:Drivers/BSP/Components/lis302dl/lis302dl.c **** /** @defgroup LIS302DL_Private_Variables
  82:Drivers/BSP/Components/lis302dl/lis302dl.c ****   * @{
  83:Drivers/BSP/Components/lis302dl/lis302dl.c ****   */
  84:Drivers/BSP/Components/lis302dl/lis302dl.c **** 
  85:Drivers/BSP/Components/lis302dl/lis302dl.c **** ACCELERO_DrvTypeDef Lis302dlDrv =
  86:Drivers/BSP/Components/lis302dl/lis302dl.c **** {
  87:Drivers/BSP/Components/lis302dl/lis302dl.c ****   LIS302DL_Init,
  88:Drivers/BSP/Components/lis302dl/lis302dl.c ****   LIS302DL_DeInit,
ARM GAS  /var/folders/0z/tsy30v1j4xl4_7kw94k978ww0000gn/T//ccYjfEBV.s 			page 3


  89:Drivers/BSP/Components/lis302dl/lis302dl.c ****   LIS302DL_ReadID,
  90:Drivers/BSP/Components/lis302dl/lis302dl.c ****   LIS302DL_RebootCmd,
  91:Drivers/BSP/Components/lis302dl/lis302dl.c ****   LIS302DL_Click_IntConfig,
  92:Drivers/BSP/Components/lis302dl/lis302dl.c ****   0,
  93:Drivers/BSP/Components/lis302dl/lis302dl.c ****   0,
  94:Drivers/BSP/Components/lis302dl/lis302dl.c ****   0,
  95:Drivers/BSP/Components/lis302dl/lis302dl.c ****   0,
  96:Drivers/BSP/Components/lis302dl/lis302dl.c ****   LIS302DL_Click_IntClear,
  97:Drivers/BSP/Components/lis302dl/lis302dl.c ****   LIS302DL_FilterConfig,
  98:Drivers/BSP/Components/lis302dl/lis302dl.c ****   0,
  99:Drivers/BSP/Components/lis302dl/lis302dl.c ****   LIS302DL_ReadACC,
 100:Drivers/BSP/Components/lis302dl/lis302dl.c **** };
 101:Drivers/BSP/Components/lis302dl/lis302dl.c **** 
 102:Drivers/BSP/Components/lis302dl/lis302dl.c **** /**
 103:Drivers/BSP/Components/lis302dl/lis302dl.c ****   * @}
 104:Drivers/BSP/Components/lis302dl/lis302dl.c ****   */
 105:Drivers/BSP/Components/lis302dl/lis302dl.c **** 
 106:Drivers/BSP/Components/lis302dl/lis302dl.c **** /** @defgroup LIS302DL_Private_FunctionPrototypes
 107:Drivers/BSP/Components/lis302dl/lis302dl.c ****   * @{
 108:Drivers/BSP/Components/lis302dl/lis302dl.c ****   */
 109:Drivers/BSP/Components/lis302dl/lis302dl.c **** 
 110:Drivers/BSP/Components/lis302dl/lis302dl.c **** /**
 111:Drivers/BSP/Components/lis302dl/lis302dl.c ****   * @}
 112:Drivers/BSP/Components/lis302dl/lis302dl.c ****   */
 113:Drivers/BSP/Components/lis302dl/lis302dl.c **** 
 114:Drivers/BSP/Components/lis302dl/lis302dl.c **** /** @defgroup LIS302DL_Private_Functions
 115:Drivers/BSP/Components/lis302dl/lis302dl.c ****   * @{
 116:Drivers/BSP/Components/lis302dl/lis302dl.c ****   */
 117:Drivers/BSP/Components/lis302dl/lis302dl.c **** 
 118:Drivers/BSP/Components/lis302dl/lis302dl.c **** /**
 119:Drivers/BSP/Components/lis302dl/lis302dl.c ****   * @brief  Set LIS302DL Initialization.
 120:Drivers/BSP/Components/lis302dl/lis302dl.c ****   * @param  InitStruct: contains mask of different init parameters
 121:Drivers/BSP/Components/lis302dl/lis302dl.c ****   * @retval None
 122:Drivers/BSP/Components/lis302dl/lis302dl.c ****   */
 123:Drivers/BSP/Components/lis302dl/lis302dl.c **** void LIS302DL_Init(uint16_t InitStruct)
 124:Drivers/BSP/Components/lis302dl/lis302dl.c **** {
 125:Drivers/BSP/Components/lis302dl/lis302dl.c ****   uint8_t ctrl = 0x00;
 126:Drivers/BSP/Components/lis302dl/lis302dl.c ****   
 127:Drivers/BSP/Components/lis302dl/lis302dl.c ****   /* Configure the low level interface */
 128:Drivers/BSP/Components/lis302dl/lis302dl.c ****   ACCELERO_IO_Init();
 129:Drivers/BSP/Components/lis302dl/lis302dl.c **** 
 130:Drivers/BSP/Components/lis302dl/lis302dl.c ****   ctrl = (uint8_t) InitStruct;
 131:Drivers/BSP/Components/lis302dl/lis302dl.c **** 
 132:Drivers/BSP/Components/lis302dl/lis302dl.c ****   /* Write value to MEMS CTRL_REG1 register */
 133:Drivers/BSP/Components/lis302dl/lis302dl.c ****   ACCELERO_IO_Write(&ctrl, LIS302DL_CTRL_REG1_ADDR, 1);
 134:Drivers/BSP/Components/lis302dl/lis302dl.c **** }
 135:Drivers/BSP/Components/lis302dl/lis302dl.c **** 
 136:Drivers/BSP/Components/lis302dl/lis302dl.c **** /**
 137:Drivers/BSP/Components/lis302dl/lis302dl.c ****   * @brief  LIS302DL De-Initialization.
 138:Drivers/BSP/Components/lis302dl/lis302dl.c ****   * @param  None
 139:Drivers/BSP/Components/lis302dl/lis302dl.c ****   * @retval None.
 140:Drivers/BSP/Components/lis302dl/lis302dl.c ****   */
 141:Drivers/BSP/Components/lis302dl/lis302dl.c **** void LIS302DL_DeInit(void)
 142:Drivers/BSP/Components/lis302dl/lis302dl.c **** {
  28              		.loc 1 142 1 view -0
  29              		.cfi_startproc
  30              		@ args = 0, pretend = 0, frame = 0
ARM GAS  /var/folders/0z/tsy30v1j4xl4_7kw94k978ww0000gn/T//ccYjfEBV.s 			page 4


  31              		@ frame_needed = 0, uses_anonymous_args = 0
  32              		@ link register save eliminated.
 143:Drivers/BSP/Components/lis302dl/lis302dl.c ****   
 144:Drivers/BSP/Components/lis302dl/lis302dl.c **** }
  33              		.loc 1 144 1 view .LVU1
  34 0000 7047     		bx	lr
  35              		.cfi_endproc
  36              	.LFE1:
  38 0002 00BF     		.section	.text.LIS302DL_Init,"ax",%progbits
  39              		.align	1
  40              		.p2align 2,,3
  41              		.global	LIS302DL_Init
  42              		.syntax unified
  43              		.thumb
  44              		.thumb_func
  46              	LIS302DL_Init:
  47              	.LVL0:
  48              	.LFB0:
 124:Drivers/BSP/Components/lis302dl/lis302dl.c ****   uint8_t ctrl = 0x00;
  49              		.loc 1 124 1 view -0
  50              		.cfi_startproc
  51              		@ args = 0, pretend = 0, frame = 8
  52              		@ frame_needed = 0, uses_anonymous_args = 0
 125:Drivers/BSP/Components/lis302dl/lis302dl.c ****   
  53              		.loc 1 125 3 view .LVU3
 124:Drivers/BSP/Components/lis302dl/lis302dl.c ****   uint8_t ctrl = 0x00;
  54              		.loc 1 124 1 is_stmt 0 view .LVU4
  55 0000 10B5     		push	{r4, lr}
  56              		.cfi_def_cfa_offset 8
  57              		.cfi_offset 4, -8
  58              		.cfi_offset 14, -4
  59 0002 82B0     		sub	sp, sp, #8
  60              		.cfi_def_cfa_offset 16
 125:Drivers/BSP/Components/lis302dl/lis302dl.c ****   
  61              		.loc 1 125 11 view .LVU5
  62 0004 0023     		movs	r3, #0
 124:Drivers/BSP/Components/lis302dl/lis302dl.c ****   uint8_t ctrl = 0x00;
  63              		.loc 1 124 1 view .LVU6
  64 0006 0446     		mov	r4, r0
 125:Drivers/BSP/Components/lis302dl/lis302dl.c ****   
  65              		.loc 1 125 11 view .LVU7
  66 0008 8DF80730 		strb	r3, [sp, #7]
 128:Drivers/BSP/Components/lis302dl/lis302dl.c **** 
  67              		.loc 1 128 3 is_stmt 1 view .LVU8
  68 000c FFF7FEFF 		bl	ACCELERO_IO_Init
  69              	.LVL1:
 130:Drivers/BSP/Components/lis302dl/lis302dl.c **** 
  70              		.loc 1 130 3 view .LVU9
 133:Drivers/BSP/Components/lis302dl/lis302dl.c **** }
  71              		.loc 1 133 3 is_stmt 0 view .LVU10
  72 0010 0122     		movs	r2, #1
  73 0012 2021     		movs	r1, #32
  74 0014 0DF10700 		add	r0, sp, #7
 130:Drivers/BSP/Components/lis302dl/lis302dl.c **** 
  75              		.loc 1 130 10 view .LVU11
  76 0018 8DF80740 		strb	r4, [sp, #7]
 133:Drivers/BSP/Components/lis302dl/lis302dl.c **** }
ARM GAS  /var/folders/0z/tsy30v1j4xl4_7kw94k978ww0000gn/T//ccYjfEBV.s 			page 5


  77              		.loc 1 133 3 is_stmt 1 view .LVU12
  78 001c FFF7FEFF 		bl	ACCELERO_IO_Write
  79              	.LVL2:
 134:Drivers/BSP/Components/lis302dl/lis302dl.c **** 
  80              		.loc 1 134 1 is_stmt 0 view .LVU13
  81 0020 02B0     		add	sp, sp, #8
  82              		.cfi_def_cfa_offset 8
  83              		@ sp needed
  84 0022 10BD     		pop	{r4, pc}
  85              		.cfi_endproc
  86              	.LFE0:
  88              		.section	.text.LIS302DL_ReadID,"ax",%progbits
  89              		.align	1
  90              		.p2align 2,,3
  91              		.global	LIS302DL_ReadID
  92              		.syntax unified
  93              		.thumb
  94              		.thumb_func
  96              	LIS302DL_ReadID:
  97              	.LFB2:
 145:Drivers/BSP/Components/lis302dl/lis302dl.c **** 
 146:Drivers/BSP/Components/lis302dl/lis302dl.c **** /**
 147:Drivers/BSP/Components/lis302dl/lis302dl.c ****   * @brief  Read LIS302DL device ID.
 148:Drivers/BSP/Components/lis302dl/lis302dl.c ****   * @param  None
 149:Drivers/BSP/Components/lis302dl/lis302dl.c ****   * @retval The Device ID (two bytes).
 150:Drivers/BSP/Components/lis302dl/lis302dl.c ****   */
 151:Drivers/BSP/Components/lis302dl/lis302dl.c **** uint8_t LIS302DL_ReadID(void)
 152:Drivers/BSP/Components/lis302dl/lis302dl.c **** {
  98              		.loc 1 152 1 is_stmt 1 view -0
  99              		.cfi_startproc
 100              		@ args = 0, pretend = 0, frame = 8
 101              		@ frame_needed = 0, uses_anonymous_args = 0
 153:Drivers/BSP/Components/lis302dl/lis302dl.c ****   uint8_t tmp = 0;
 102              		.loc 1 153 3 view .LVU15
 152:Drivers/BSP/Components/lis302dl/lis302dl.c ****   uint8_t tmp = 0;
 103              		.loc 1 152 1 is_stmt 0 view .LVU16
 104 0000 00B5     		push	{lr}
 105              		.cfi_def_cfa_offset 4
 106              		.cfi_offset 14, -4
 107 0002 83B0     		sub	sp, sp, #12
 108              		.cfi_def_cfa_offset 16
 109              		.loc 1 153 11 view .LVU17
 110 0004 0023     		movs	r3, #0
 111 0006 8DF80730 		strb	r3, [sp, #7]
 154:Drivers/BSP/Components/lis302dl/lis302dl.c **** 
 155:Drivers/BSP/Components/lis302dl/lis302dl.c ****   /* Configure the low level interface */
 156:Drivers/BSP/Components/lis302dl/lis302dl.c ****   ACCELERO_IO_Init();
 112              		.loc 1 156 3 is_stmt 1 view .LVU18
 113 000a FFF7FEFF 		bl	ACCELERO_IO_Init
 114              	.LVL3:
 157:Drivers/BSP/Components/lis302dl/lis302dl.c **** 
 158:Drivers/BSP/Components/lis302dl/lis302dl.c ****   /* Read WHO_AM_I register */
 159:Drivers/BSP/Components/lis302dl/lis302dl.c ****   ACCELERO_IO_Read(&tmp, LIS302DL_WHO_AM_I_ADDR, 1);
 115              		.loc 1 159 3 view .LVU19
 116 000e 0DF10700 		add	r0, sp, #7
 117 0012 0122     		movs	r2, #1
 118 0014 0F21     		movs	r1, #15
ARM GAS  /var/folders/0z/tsy30v1j4xl4_7kw94k978ww0000gn/T//ccYjfEBV.s 			page 6


 119 0016 FFF7FEFF 		bl	ACCELERO_IO_Read
 120              	.LVL4:
 160:Drivers/BSP/Components/lis302dl/lis302dl.c ****   
 161:Drivers/BSP/Components/lis302dl/lis302dl.c ****   /* Return the ID */
 162:Drivers/BSP/Components/lis302dl/lis302dl.c ****   return (uint16_t)tmp;
 121              		.loc 1 162 3 view .LVU20
 163:Drivers/BSP/Components/lis302dl/lis302dl.c **** }
 122              		.loc 1 163 1 is_stmt 0 view .LVU21
 123 001a 9DF80700 		ldrb	r0, [sp, #7]	@ zero_extendqisi2
 124 001e 03B0     		add	sp, sp, #12
 125              		.cfi_def_cfa_offset 4
 126              		@ sp needed
 127 0020 5DF804FB 		ldr	pc, [sp], #4
 128              		.cfi_endproc
 129              	.LFE2:
 131              		.section	.text.LIS302DL_FilterConfig,"ax",%progbits
 132              		.align	1
 133              		.p2align 2,,3
 134              		.global	LIS302DL_FilterConfig
 135              		.syntax unified
 136              		.thumb
 137              		.thumb_func
 139              	LIS302DL_FilterConfig:
 140              	.LVL5:
 141              	.LFB3:
 164:Drivers/BSP/Components/lis302dl/lis302dl.c **** 
 165:Drivers/BSP/Components/lis302dl/lis302dl.c **** /**
 166:Drivers/BSP/Components/lis302dl/lis302dl.c ****   * @brief  Set LIS302DL Internal High Pass Filter configuration.
 167:Drivers/BSP/Components/lis302dl/lis302dl.c ****   * @param  FilterStruct: contains data for filter config
 168:Drivers/BSP/Components/lis302dl/lis302dl.c ****   * @retval None
 169:Drivers/BSP/Components/lis302dl/lis302dl.c ****   */
 170:Drivers/BSP/Components/lis302dl/lis302dl.c **** void LIS302DL_FilterConfig(uint8_t FilterStruct)
 171:Drivers/BSP/Components/lis302dl/lis302dl.c **** {
 142              		.loc 1 171 1 is_stmt 1 view -0
 143              		.cfi_startproc
 144              		@ args = 0, pretend = 0, frame = 8
 145              		@ frame_needed = 0, uses_anonymous_args = 0
 172:Drivers/BSP/Components/lis302dl/lis302dl.c ****   uint8_t ctrl = 0x00;
 146              		.loc 1 172 3 view .LVU23
 171:Drivers/BSP/Components/lis302dl/lis302dl.c ****   uint8_t ctrl = 0x00;
 147              		.loc 1 171 1 is_stmt 0 view .LVU24
 148 0000 10B5     		push	{r4, lr}
 149              		.cfi_def_cfa_offset 8
 150              		.cfi_offset 4, -8
 151              		.cfi_offset 14, -4
 152 0002 82B0     		sub	sp, sp, #8
 153              		.cfi_def_cfa_offset 16
 154              		.loc 1 172 11 view .LVU25
 155 0004 0023     		movs	r3, #0
 171:Drivers/BSP/Components/lis302dl/lis302dl.c ****   uint8_t ctrl = 0x00;
 156              		.loc 1 171 1 view .LVU26
 157 0006 0446     		mov	r4, r0
 173:Drivers/BSP/Components/lis302dl/lis302dl.c ****   
 174:Drivers/BSP/Components/lis302dl/lis302dl.c ****   /* Read CTRL_REG2 register */
 175:Drivers/BSP/Components/lis302dl/lis302dl.c ****   ACCELERO_IO_Read(&ctrl, LIS302DL_CTRL_REG2_ADDR, 1);
 158              		.loc 1 175 3 view .LVU27
 159 0008 0122     		movs	r2, #1
ARM GAS  /var/folders/0z/tsy30v1j4xl4_7kw94k978ww0000gn/T//ccYjfEBV.s 			page 7


 160 000a 0DF10700 		add	r0, sp, #7
 161              	.LVL6:
 162              		.loc 1 175 3 view .LVU28
 163 000e 2121     		movs	r1, #33
 172:Drivers/BSP/Components/lis302dl/lis302dl.c ****   
 164              		.loc 1 172 11 view .LVU29
 165 0010 8DF80730 		strb	r3, [sp, #7]
 166              		.loc 1 175 3 is_stmt 1 view .LVU30
 167 0014 FFF7FEFF 		bl	ACCELERO_IO_Read
 168              	.LVL7:
 176:Drivers/BSP/Components/lis302dl/lis302dl.c **** 
 177:Drivers/BSP/Components/lis302dl/lis302dl.c ****   /* Clear high pass filter cut-off level, interrupt and data selection bits */
 178:Drivers/BSP/Components/lis302dl/lis302dl.c ****   ctrl &= (uint8_t)~(LIS302DL_FILTEREDDATASELECTION_OUTPUTREGISTER | \
 169              		.loc 1 178 3 view .LVU31
 179:Drivers/BSP/Components/lis302dl/lis302dl.c ****                      LIS302DL_HIGHPASSFILTER_LEVEL_3 | \
 180:Drivers/BSP/Components/lis302dl/lis302dl.c ****                      LIS302DL_HIGHPASSFILTERINTERRUPT_1_2);
 181:Drivers/BSP/Components/lis302dl/lis302dl.c **** 
 182:Drivers/BSP/Components/lis302dl/lis302dl.c ****   ctrl |= FilterStruct;
 170              		.loc 1 182 3 view .LVU32
 178:Drivers/BSP/Components/lis302dl/lis302dl.c ****                      LIS302DL_HIGHPASSFILTER_LEVEL_3 | \
 171              		.loc 1 178 8 is_stmt 0 view .LVU33
 172 0018 9DF80730 		ldrb	r3, [sp, #7]	@ zero_extendqisi2
 173 001c 23F02F03 		bic	r3, r3, #47
 174              		.loc 1 182 8 view .LVU34
 175 0020 1C43     		orrs	r4, r4, r3
 183:Drivers/BSP/Components/lis302dl/lis302dl.c ****   
 184:Drivers/BSP/Components/lis302dl/lis302dl.c ****   /* Write value to MEMS CTRL_REG2 register */
 185:Drivers/BSP/Components/lis302dl/lis302dl.c ****   ACCELERO_IO_Write(&ctrl, LIS302DL_CTRL_REG2_ADDR, 1);
 176              		.loc 1 185 3 view .LVU35
 177 0022 0122     		movs	r2, #1
 178 0024 2121     		movs	r1, #33
 179 0026 0DF10700 		add	r0, sp, #7
 182:Drivers/BSP/Components/lis302dl/lis302dl.c ****   
 180              		.loc 1 182 8 view .LVU36
 181 002a 8DF80740 		strb	r4, [sp, #7]
 182              		.loc 1 185 3 is_stmt 1 view .LVU37
 183 002e FFF7FEFF 		bl	ACCELERO_IO_Write
 184              	.LVL8:
 186:Drivers/BSP/Components/lis302dl/lis302dl.c **** }
 185              		.loc 1 186 1 is_stmt 0 view .LVU38
 186 0032 02B0     		add	sp, sp, #8
 187              		.cfi_def_cfa_offset 8
 188              		@ sp needed
 189 0034 10BD     		pop	{r4, pc}
 190              		.cfi_endproc
 191              	.LFE3:
 193 0036 00BF     		.section	.text.LIS302DL_Click_IntClear,"ax",%progbits
 194              		.align	1
 195              		.p2align 2,,3
 196              		.global	LIS302DL_Click_IntClear
 197              		.syntax unified
 198              		.thumb
 199              		.thumb_func
 201              	LIS302DL_Click_IntClear:
 202              	.LFB6:
 187:Drivers/BSP/Components/lis302dl/lis302dl.c **** 
 188:Drivers/BSP/Components/lis302dl/lis302dl.c **** /**
ARM GAS  /var/folders/0z/tsy30v1j4xl4_7kw94k978ww0000gn/T//ccYjfEBV.s 			page 8


 189:Drivers/BSP/Components/lis302dl/lis302dl.c ****   * @brief  Set LIS302DL Interrupt configuration.
 190:Drivers/BSP/Components/lis302dl/lis302dl.c ****   * @param  LIS302DL_InterruptConfig_TypeDef: pointer to a LIS302DL_InterruptConfig_TypeDef 
 191:Drivers/BSP/Components/lis302dl/lis302dl.c ****   *         structure that contains the configuration setting for the LIS302DL Interrupt.
 192:Drivers/BSP/Components/lis302dl/lis302dl.c ****   * @retval None
 193:Drivers/BSP/Components/lis302dl/lis302dl.c ****   */
 194:Drivers/BSP/Components/lis302dl/lis302dl.c **** void LIS302DL_InterruptConfig(LIS302DL_InterruptConfigTypeDef *LIS302DL_IntConfigStruct)
 195:Drivers/BSP/Components/lis302dl/lis302dl.c **** {
 196:Drivers/BSP/Components/lis302dl/lis302dl.c ****   uint8_t ctrl = 0x00;
 197:Drivers/BSP/Components/lis302dl/lis302dl.c ****   
 198:Drivers/BSP/Components/lis302dl/lis302dl.c ****   /* Read CLICK_CFG register */
 199:Drivers/BSP/Components/lis302dl/lis302dl.c ****   ACCELERO_IO_Read(&ctrl, LIS302DL_CLICK_CFG_REG_ADDR, 1);
 200:Drivers/BSP/Components/lis302dl/lis302dl.c ****   
 201:Drivers/BSP/Components/lis302dl/lis302dl.c ****   /* Configure latch Interrupt request, click interrupts and double click interrupts */            
 202:Drivers/BSP/Components/lis302dl/lis302dl.c ****   ctrl = (uint8_t)(LIS302DL_IntConfigStruct->Latch_Request| \
 203:Drivers/BSP/Components/lis302dl/lis302dl.c ****                    LIS302DL_IntConfigStruct->SingleClick_Axes | \
 204:Drivers/BSP/Components/lis302dl/lis302dl.c ****                    LIS302DL_IntConfigStruct->DoubleClick_Axes);
 205:Drivers/BSP/Components/lis302dl/lis302dl.c ****   
 206:Drivers/BSP/Components/lis302dl/lis302dl.c ****   /* Write value to MEMS CLICK_CFG register */
 207:Drivers/BSP/Components/lis302dl/lis302dl.c ****   ACCELERO_IO_Write(&ctrl, LIS302DL_CLICK_CFG_REG_ADDR, 1);
 208:Drivers/BSP/Components/lis302dl/lis302dl.c **** }
 209:Drivers/BSP/Components/lis302dl/lis302dl.c **** 
 210:Drivers/BSP/Components/lis302dl/lis302dl.c **** /**
 211:Drivers/BSP/Components/lis302dl/lis302dl.c ****   * @brief  Set LIS302DL Interrupt configuration
 212:Drivers/BSP/Components/lis302dl/lis302dl.c ****   * @param  None
 213:Drivers/BSP/Components/lis302dl/lis302dl.c ****   * @retval None
 214:Drivers/BSP/Components/lis302dl/lis302dl.c ****   */
 215:Drivers/BSP/Components/lis302dl/lis302dl.c **** void LIS302DL_Click_IntConfig(void)
 216:Drivers/BSP/Components/lis302dl/lis302dl.c **** {
 217:Drivers/BSP/Components/lis302dl/lis302dl.c ****   uint8_t ctrl = 0x00;
 218:Drivers/BSP/Components/lis302dl/lis302dl.c ****   LIS302DL_InterruptConfigTypeDef   LIS302DL_InterruptStruct;
 219:Drivers/BSP/Components/lis302dl/lis302dl.c ****   
 220:Drivers/BSP/Components/lis302dl/lis302dl.c ****   ACCELERO_IO_ITConfig();
 221:Drivers/BSP/Components/lis302dl/lis302dl.c ****   
 222:Drivers/BSP/Components/lis302dl/lis302dl.c ****   /* Set configuration of Internal High Pass Filter of LIS302DL */
 223:Drivers/BSP/Components/lis302dl/lis302dl.c ****   LIS302DL_InterruptStruct.Latch_Request = LIS302DL_INTERRUPTREQUEST_LATCHED;
 224:Drivers/BSP/Components/lis302dl/lis302dl.c ****   LIS302DL_InterruptStruct.SingleClick_Axes = LIS302DL_CLICKINTERRUPT_Z_ENABLE;
 225:Drivers/BSP/Components/lis302dl/lis302dl.c ****   LIS302DL_InterruptStruct.DoubleClick_Axes = LIS302DL_DOUBLECLICKINTERRUPT_Z_ENABLE;
 226:Drivers/BSP/Components/lis302dl/lis302dl.c ****   LIS302DL_InterruptConfig(&LIS302DL_InterruptStruct);
 227:Drivers/BSP/Components/lis302dl/lis302dl.c ****   
 228:Drivers/BSP/Components/lis302dl/lis302dl.c ****   /* Configure Interrupt control register: enable Click interrupt on INT1 and
 229:Drivers/BSP/Components/lis302dl/lis302dl.c ****   INT2 on Z axis high event */
 230:Drivers/BSP/Components/lis302dl/lis302dl.c ****   ctrl = 0x3F;
 231:Drivers/BSP/Components/lis302dl/lis302dl.c ****   ACCELERO_IO_Write(&ctrl, LIS302DL_CTRL_REG3_ADDR, 1);
 232:Drivers/BSP/Components/lis302dl/lis302dl.c ****   
 233:Drivers/BSP/Components/lis302dl/lis302dl.c ****   /* Enable Interrupt generation on click on Z axis */
 234:Drivers/BSP/Components/lis302dl/lis302dl.c ****   ctrl = 0x50;
 235:Drivers/BSP/Components/lis302dl/lis302dl.c ****   ACCELERO_IO_Write(&ctrl, LIS302DL_CLICK_CFG_REG_ADDR, 1);
 236:Drivers/BSP/Components/lis302dl/lis302dl.c ****   
 237:Drivers/BSP/Components/lis302dl/lis302dl.c ****   /* Configure Click Threshold on X/Y axis (10 x 0.5g) */
 238:Drivers/BSP/Components/lis302dl/lis302dl.c ****   ctrl = 0xAA;
 239:Drivers/BSP/Components/lis302dl/lis302dl.c ****   ACCELERO_IO_Write(&ctrl, LIS302DL_CLICK_THSY_X_REG_ADDR, 1);
 240:Drivers/BSP/Components/lis302dl/lis302dl.c ****   
 241:Drivers/BSP/Components/lis302dl/lis302dl.c ****   /* Configure Click Threshold on Z axis (10 x 0.5g) */
 242:Drivers/BSP/Components/lis302dl/lis302dl.c ****   ctrl = 0x0A;
 243:Drivers/BSP/Components/lis302dl/lis302dl.c ****   ACCELERO_IO_Write(&ctrl, LIS302DL_CLICK_THSZ_REG_ADDR, 1);
 244:Drivers/BSP/Components/lis302dl/lis302dl.c ****   
 245:Drivers/BSP/Components/lis302dl/lis302dl.c ****   /* Enable interrupt on Y axis high event */
ARM GAS  /var/folders/0z/tsy30v1j4xl4_7kw94k978ww0000gn/T//ccYjfEBV.s 			page 9


 246:Drivers/BSP/Components/lis302dl/lis302dl.c ****   ctrl = 0x4C;
 247:Drivers/BSP/Components/lis302dl/lis302dl.c ****   ACCELERO_IO_Write(&ctrl, LIS302DL_FF_WU_CFG1_REG_ADDR, 1);
 248:Drivers/BSP/Components/lis302dl/lis302dl.c ****   
 249:Drivers/BSP/Components/lis302dl/lis302dl.c ****   /* Configure Time Limit */
 250:Drivers/BSP/Components/lis302dl/lis302dl.c ****   ctrl = 0x03;
 251:Drivers/BSP/Components/lis302dl/lis302dl.c ****   ACCELERO_IO_Write(&ctrl, LIS302DL_CLICK_TIMELIMIT_REG_ADDR, 1);
 252:Drivers/BSP/Components/lis302dl/lis302dl.c ****   
 253:Drivers/BSP/Components/lis302dl/lis302dl.c ****   /* Configure Latency */
 254:Drivers/BSP/Components/lis302dl/lis302dl.c ****   ctrl = 0x7F;
 255:Drivers/BSP/Components/lis302dl/lis302dl.c ****   ACCELERO_IO_Write(&ctrl, LIS302DL_CLICK_LATENCY_REG_ADDR, 1);
 256:Drivers/BSP/Components/lis302dl/lis302dl.c ****   
 257:Drivers/BSP/Components/lis302dl/lis302dl.c ****   /* Configure Click Window */
 258:Drivers/BSP/Components/lis302dl/lis302dl.c ****   ctrl = 0x7F;
 259:Drivers/BSP/Components/lis302dl/lis302dl.c ****   ACCELERO_IO_Write(&ctrl, LIS302DL_CLICK_WINDOW_REG_ADDR, 1);
 260:Drivers/BSP/Components/lis302dl/lis302dl.c **** }
 261:Drivers/BSP/Components/lis302dl/lis302dl.c **** 
 262:Drivers/BSP/Components/lis302dl/lis302dl.c **** /**
 263:Drivers/BSP/Components/lis302dl/lis302dl.c ****   * @brief  Clear LIS302DL click Interrupt 
 264:Drivers/BSP/Components/lis302dl/lis302dl.c ****   * @param  None
 265:Drivers/BSP/Components/lis302dl/lis302dl.c ****   * @retval None
 266:Drivers/BSP/Components/lis302dl/lis302dl.c ****   */
 267:Drivers/BSP/Components/lis302dl/lis302dl.c **** void LIS302DL_Click_IntClear(void)
 268:Drivers/BSP/Components/lis302dl/lis302dl.c **** {
 203              		.loc 1 268 1 is_stmt 1 view -0
 204              		.cfi_startproc
 205              		@ args = 0, pretend = 0, frame = 16
 206              		@ frame_needed = 0, uses_anonymous_args = 0
 269:Drivers/BSP/Components/lis302dl/lis302dl.c ****   uint8_t buffer[6], clickreg = 0;
 207              		.loc 1 269 3 view .LVU40
 268:Drivers/BSP/Components/lis302dl/lis302dl.c ****   uint8_t buffer[6], clickreg = 0;
 208              		.loc 1 268 1 is_stmt 0 view .LVU41
 209 0000 00B5     		push	{lr}
 210              		.cfi_def_cfa_offset 4
 211              		.cfi_offset 14, -4
 212 0002 85B0     		sub	sp, sp, #20
 213              		.cfi_def_cfa_offset 24
 214              		.loc 1 269 22 view .LVU42
 215 0004 0023     		movs	r3, #0
 270:Drivers/BSP/Components/lis302dl/lis302dl.c **** 
 271:Drivers/BSP/Components/lis302dl/lis302dl.c ****   /* Read click and status registers if the available MEMS Accelerometer is LIS302DL */
 272:Drivers/BSP/Components/lis302dl/lis302dl.c ****   ACCELERO_IO_Read(&clickreg, LIS302DL_CLICK_SRC_REG_ADDR, 1); 
 216              		.loc 1 272 3 view .LVU43
 217 0006 0DF10700 		add	r0, sp, #7
 218 000a 0122     		movs	r2, #1
 219 000c 3921     		movs	r1, #57
 269:Drivers/BSP/Components/lis302dl/lis302dl.c **** 
 220              		.loc 1 269 22 view .LVU44
 221 000e 8DF80730 		strb	r3, [sp, #7]
 222              		.loc 1 272 3 is_stmt 1 view .LVU45
 223 0012 FFF7FEFF 		bl	ACCELERO_IO_Read
 224              	.LVL9:
 273:Drivers/BSP/Components/lis302dl/lis302dl.c ****   ACCELERO_IO_Read(buffer, LIS302DL_STATUS_REG_ADDR, 6);
 225              		.loc 1 273 3 view .LVU46
 226 0016 0622     		movs	r2, #6
 227 0018 2721     		movs	r1, #39
 228 001a 02A8     		add	r0, sp, #8
 229 001c FFF7FEFF 		bl	ACCELERO_IO_Read
ARM GAS  /var/folders/0z/tsy30v1j4xl4_7kw94k978ww0000gn/T//ccYjfEBV.s 			page 10


 230              	.LVL10:
 274:Drivers/BSP/Components/lis302dl/lis302dl.c **** }
 231              		.loc 1 274 1 is_stmt 0 view .LVU47
 232 0020 05B0     		add	sp, sp, #20
 233              		.cfi_def_cfa_offset 4
 234              		@ sp needed
 235 0022 5DF804FB 		ldr	pc, [sp], #4
 236              		.cfi_endproc
 237              	.LFE6:
 239 0026 00BF     		.section	.text.LIS302DL_RebootCmd,"ax",%progbits
 240              		.align	1
 241              		.p2align 2,,3
 242              		.global	LIS302DL_RebootCmd
 243              		.syntax unified
 244              		.thumb
 245              		.thumb_func
 247              	LIS302DL_RebootCmd:
 248              	.LFB10:
 275:Drivers/BSP/Components/lis302dl/lis302dl.c **** 
 276:Drivers/BSP/Components/lis302dl/lis302dl.c **** /**
 277:Drivers/BSP/Components/lis302dl/lis302dl.c ****   * @brief  Change the lowpower mode for LIS302DL
 278:Drivers/BSP/Components/lis302dl/lis302dl.c ****   * @param  LowPowerMode: New state for the low power mode.
 279:Drivers/BSP/Components/lis302dl/lis302dl.c ****   *   This parameter can be one of the following values:
 280:Drivers/BSP/Components/lis302dl/lis302dl.c ****   *     @arg LIS302DL_LOWPOWERMODE_POWERDOWN: Power down mode
 281:Drivers/BSP/Components/lis302dl/lis302dl.c ****   *     @arg LIS302DL_LOWPOWERMODE_ACTIVE: Active mode  
 282:Drivers/BSP/Components/lis302dl/lis302dl.c ****   * @retval None
 283:Drivers/BSP/Components/lis302dl/lis302dl.c ****   */
 284:Drivers/BSP/Components/lis302dl/lis302dl.c **** void LIS302DL_LowpowerCmd(uint8_t LowPowerMode)
 285:Drivers/BSP/Components/lis302dl/lis302dl.c **** {
 286:Drivers/BSP/Components/lis302dl/lis302dl.c ****   uint8_t tmpreg;
 287:Drivers/BSP/Components/lis302dl/lis302dl.c ****   
 288:Drivers/BSP/Components/lis302dl/lis302dl.c ****   /* Read CTRL_REG1 register */
 289:Drivers/BSP/Components/lis302dl/lis302dl.c ****   ACCELERO_IO_Read(&tmpreg, LIS302DL_CTRL_REG1_ADDR, 1);
 290:Drivers/BSP/Components/lis302dl/lis302dl.c ****   
 291:Drivers/BSP/Components/lis302dl/lis302dl.c ****   /* Set new low power mode configuration */
 292:Drivers/BSP/Components/lis302dl/lis302dl.c ****   tmpreg &= (uint8_t)~LIS302DL_LOWPOWERMODE_ACTIVE;
 293:Drivers/BSP/Components/lis302dl/lis302dl.c ****   tmpreg |= LowPowerMode;
 294:Drivers/BSP/Components/lis302dl/lis302dl.c ****   
 295:Drivers/BSP/Components/lis302dl/lis302dl.c ****   /* Write value to MEMS CTRL_REG1 register */
 296:Drivers/BSP/Components/lis302dl/lis302dl.c ****   ACCELERO_IO_Write(&tmpreg, LIS302DL_CTRL_REG1_ADDR, 1);
 297:Drivers/BSP/Components/lis302dl/lis302dl.c **** }
 298:Drivers/BSP/Components/lis302dl/lis302dl.c **** 
 299:Drivers/BSP/Components/lis302dl/lis302dl.c **** /**
 300:Drivers/BSP/Components/lis302dl/lis302dl.c ****   * @brief  Data Rate command 
 301:Drivers/BSP/Components/lis302dl/lis302dl.c ****   * @param  DataRateValue: Data rate value
 302:Drivers/BSP/Components/lis302dl/lis302dl.c ****   *   This parameter can be one of the following values:
 303:Drivers/BSP/Components/lis302dl/lis302dl.c ****   *     @arg LIS302DL_DATARATE_100: 100 Hz output data rate 
 304:Drivers/BSP/Components/lis302dl/lis302dl.c ****   *     @arg LIS302DL_DATARATE_400: 400 Hz output data rate    
 305:Drivers/BSP/Components/lis302dl/lis302dl.c ****   * @retval None
 306:Drivers/BSP/Components/lis302dl/lis302dl.c ****   */
 307:Drivers/BSP/Components/lis302dl/lis302dl.c **** void LIS302DL_DataRateCmd(uint8_t DataRateValue)
 308:Drivers/BSP/Components/lis302dl/lis302dl.c **** {
 309:Drivers/BSP/Components/lis302dl/lis302dl.c ****   uint8_t tmpreg;
 310:Drivers/BSP/Components/lis302dl/lis302dl.c ****   
 311:Drivers/BSP/Components/lis302dl/lis302dl.c ****   /* Read CTRL_REG1 register */
 312:Drivers/BSP/Components/lis302dl/lis302dl.c ****   ACCELERO_IO_Read(&tmpreg, LIS302DL_CTRL_REG1_ADDR, 1);
 313:Drivers/BSP/Components/lis302dl/lis302dl.c ****   
ARM GAS  /var/folders/0z/tsy30v1j4xl4_7kw94k978ww0000gn/T//ccYjfEBV.s 			page 11


 314:Drivers/BSP/Components/lis302dl/lis302dl.c ****   /* Set new Data rate configuration */
 315:Drivers/BSP/Components/lis302dl/lis302dl.c ****   tmpreg &= (uint8_t)~LIS302DL_DATARATE_400;
 316:Drivers/BSP/Components/lis302dl/lis302dl.c ****   tmpreg |= DataRateValue;
 317:Drivers/BSP/Components/lis302dl/lis302dl.c ****   
 318:Drivers/BSP/Components/lis302dl/lis302dl.c ****   /* Write value to MEMS CTRL_REG1 register */
 319:Drivers/BSP/Components/lis302dl/lis302dl.c ****   ACCELERO_IO_Write(&tmpreg, LIS302DL_CTRL_REG1_ADDR, 1);
 320:Drivers/BSP/Components/lis302dl/lis302dl.c **** }
 321:Drivers/BSP/Components/lis302dl/lis302dl.c **** 
 322:Drivers/BSP/Components/lis302dl/lis302dl.c **** /**
 323:Drivers/BSP/Components/lis302dl/lis302dl.c ****   * @brief  Change the Full Scale of LIS302DL
 324:Drivers/BSP/Components/lis302dl/lis302dl.c ****   * @param  FS_value: new full scale value. 
 325:Drivers/BSP/Components/lis302dl/lis302dl.c ****   *   This parameter can be one of the following values:
 326:Drivers/BSP/Components/lis302dl/lis302dl.c ****   *     @arg LIS302DL_FULLSCALE_2_3: +-2.3g
 327:Drivers/BSP/Components/lis302dl/lis302dl.c ****   *     @arg LIS302DL_FULLSCALE_9_2: +-9.2g   
 328:Drivers/BSP/Components/lis302dl/lis302dl.c ****   * @retval None
 329:Drivers/BSP/Components/lis302dl/lis302dl.c ****   */
 330:Drivers/BSP/Components/lis302dl/lis302dl.c **** void LIS302DL_FullScaleCmd(uint8_t FS_value)
 331:Drivers/BSP/Components/lis302dl/lis302dl.c **** {
 332:Drivers/BSP/Components/lis302dl/lis302dl.c ****   uint8_t tmpreg;
 333:Drivers/BSP/Components/lis302dl/lis302dl.c ****   
 334:Drivers/BSP/Components/lis302dl/lis302dl.c ****   /* Read CTRL_REG1 register */
 335:Drivers/BSP/Components/lis302dl/lis302dl.c ****   ACCELERO_IO_Read(&tmpreg, LIS302DL_CTRL_REG1_ADDR, 1);
 336:Drivers/BSP/Components/lis302dl/lis302dl.c ****   
 337:Drivers/BSP/Components/lis302dl/lis302dl.c ****   /* Set new full scale configuration */
 338:Drivers/BSP/Components/lis302dl/lis302dl.c ****   tmpreg &= (uint8_t)~LIS302DL_FULLSCALE_9_2;
 339:Drivers/BSP/Components/lis302dl/lis302dl.c ****   tmpreg |= FS_value;
 340:Drivers/BSP/Components/lis302dl/lis302dl.c ****   
 341:Drivers/BSP/Components/lis302dl/lis302dl.c ****   /* Write value to MEMS CTRL_REG1 register */
 342:Drivers/BSP/Components/lis302dl/lis302dl.c ****   ACCELERO_IO_Write(&tmpreg, LIS302DL_CTRL_REG1_ADDR, 1);
 343:Drivers/BSP/Components/lis302dl/lis302dl.c **** }
 344:Drivers/BSP/Components/lis302dl/lis302dl.c **** 
 345:Drivers/BSP/Components/lis302dl/lis302dl.c **** /**
 346:Drivers/BSP/Components/lis302dl/lis302dl.c ****   * @brief  Reboot memory content of LIS302DL.
 347:Drivers/BSP/Components/lis302dl/lis302dl.c ****   * @param  None
 348:Drivers/BSP/Components/lis302dl/lis302dl.c ****   * @retval None
 349:Drivers/BSP/Components/lis302dl/lis302dl.c ****   */
 350:Drivers/BSP/Components/lis302dl/lis302dl.c **** void LIS302DL_RebootCmd(void)
 351:Drivers/BSP/Components/lis302dl/lis302dl.c **** {
 249              		.loc 1 351 1 is_stmt 1 view -0
 250              		.cfi_startproc
 251              		@ args = 0, pretend = 0, frame = 8
 252              		@ frame_needed = 0, uses_anonymous_args = 0
 352:Drivers/BSP/Components/lis302dl/lis302dl.c ****   uint8_t tmpreg;
 253              		.loc 1 352 3 view .LVU49
 353:Drivers/BSP/Components/lis302dl/lis302dl.c ****   /* Read CTRL_REG2 register */
 354:Drivers/BSP/Components/lis302dl/lis302dl.c ****   ACCELERO_IO_Read(&tmpreg, LIS302DL_CTRL_REG2_ADDR, 1);
 254              		.loc 1 354 3 view .LVU50
 351:Drivers/BSP/Components/lis302dl/lis302dl.c ****   uint8_t tmpreg;
 255              		.loc 1 351 1 is_stmt 0 view .LVU51
 256 0000 00B5     		push	{lr}
 257              		.cfi_def_cfa_offset 4
 258              		.cfi_offset 14, -4
 259 0002 83B0     		sub	sp, sp, #12
 260              		.cfi_def_cfa_offset 16
 261              		.loc 1 354 3 view .LVU52
 262 0004 0DF10700 		add	r0, sp, #7
 263 0008 0122     		movs	r2, #1
ARM GAS  /var/folders/0z/tsy30v1j4xl4_7kw94k978ww0000gn/T//ccYjfEBV.s 			page 12


 264 000a 2121     		movs	r1, #33
 265 000c FFF7FEFF 		bl	ACCELERO_IO_Read
 266              	.LVL11:
 355:Drivers/BSP/Components/lis302dl/lis302dl.c ****   
 356:Drivers/BSP/Components/lis302dl/lis302dl.c ****   /* Enable or Disable the reboot memory */
 357:Drivers/BSP/Components/lis302dl/lis302dl.c ****   tmpreg |= LIS302DL_BOOT_REBOOTMEMORY;
 267              		.loc 1 357 3 is_stmt 1 view .LVU53
 268              		.loc 1 357 10 is_stmt 0 view .LVU54
 269 0010 9DF80730 		ldrb	r3, [sp, #7]	@ zero_extendqisi2
 358:Drivers/BSP/Components/lis302dl/lis302dl.c ****   
 359:Drivers/BSP/Components/lis302dl/lis302dl.c ****   /* Write value to MEMS CTRL_REG2 register */
 360:Drivers/BSP/Components/lis302dl/lis302dl.c ****   ACCELERO_IO_Write(&tmpreg, LIS302DL_CTRL_REG2_ADDR, 1);
 270              		.loc 1 360 3 view .LVU55
 271 0014 0122     		movs	r2, #1
 357:Drivers/BSP/Components/lis302dl/lis302dl.c ****   
 272              		.loc 1 357 10 view .LVU56
 273 0016 43F04003 		orr	r3, r3, #64
 274              		.loc 1 360 3 view .LVU57
 275 001a 2121     		movs	r1, #33
 276 001c 0DF10700 		add	r0, sp, #7
 357:Drivers/BSP/Components/lis302dl/lis302dl.c ****   
 277              		.loc 1 357 10 view .LVU58
 278 0020 8DF80730 		strb	r3, [sp, #7]
 279              		.loc 1 360 3 is_stmt 1 view .LVU59
 280 0024 FFF7FEFF 		bl	ACCELERO_IO_Write
 281              	.LVL12:
 361:Drivers/BSP/Components/lis302dl/lis302dl.c **** }
 282              		.loc 1 361 1 is_stmt 0 view .LVU60
 283 0028 03B0     		add	sp, sp, #12
 284              		.cfi_def_cfa_offset 4
 285              		@ sp needed
 286 002a 5DF804FB 		ldr	pc, [sp], #4
 287              		.cfi_endproc
 288              	.LFE10:
 290 002e 00BF     		.section	.text.LIS302DL_ReadACC,"ax",%progbits
 291              		.align	1
 292              		.p2align 2,,3
 293              		.global	LIS302DL_ReadACC
 294              		.syntax unified
 295              		.thumb
 296              		.thumb_func
 298              	LIS302DL_ReadACC:
 299              	.LVL13:
 300              	.LFB11:
 362:Drivers/BSP/Components/lis302dl/lis302dl.c **** 
 363:Drivers/BSP/Components/lis302dl/lis302dl.c **** /**
 364:Drivers/BSP/Components/lis302dl/lis302dl.c ****   * @brief  Read LIS302DL output register, and calculate the acceleration 
 365:Drivers/BSP/Components/lis302dl/lis302dl.c ****   *         ACC[mg]=SENSITIVITY* (out_h*256+out_l)/16 (12 bit rappresentation)
 366:Drivers/BSP/Components/lis302dl/lis302dl.c ****   * @param  pfData: Data out pointer
 367:Drivers/BSP/Components/lis302dl/lis302dl.c ****   * @retval None
 368:Drivers/BSP/Components/lis302dl/lis302dl.c ****   */
 369:Drivers/BSP/Components/lis302dl/lis302dl.c **** void LIS302DL_ReadACC(int16_t *pData)
 370:Drivers/BSP/Components/lis302dl/lis302dl.c **** {
 301              		.loc 1 370 1 is_stmt 1 view -0
 302              		.cfi_startproc
 303              		@ args = 0, pretend = 0, frame = 16
 304              		@ frame_needed = 0, uses_anonymous_args = 0
ARM GAS  /var/folders/0z/tsy30v1j4xl4_7kw94k978ww0000gn/T//ccYjfEBV.s 			page 13


 371:Drivers/BSP/Components/lis302dl/lis302dl.c ****   int8_t buffer[6];
 305              		.loc 1 371 3 view .LVU62
 372:Drivers/BSP/Components/lis302dl/lis302dl.c ****   int16_t pnRawData[3];
 306              		.loc 1 372 3 view .LVU63
 373:Drivers/BSP/Components/lis302dl/lis302dl.c ****   uint8_t sensitivity = LIS302DL_SENSITIVITY_2_3G;
 307              		.loc 1 373 3 view .LVU64
 374:Drivers/BSP/Components/lis302dl/lis302dl.c ****   uint8_t crtl, i = 0x00;
 308              		.loc 1 374 3 view .LVU65
 375:Drivers/BSP/Components/lis302dl/lis302dl.c ****   
 376:Drivers/BSP/Components/lis302dl/lis302dl.c ****   ACCELERO_IO_Read(&crtl, LIS302DL_CTRL_REG1_ADDR, 1);
 309              		.loc 1 376 3 view .LVU66
 370:Drivers/BSP/Components/lis302dl/lis302dl.c ****   int8_t buffer[6];
 310              		.loc 1 370 1 is_stmt 0 view .LVU67
 311 0000 10B5     		push	{r4, lr}
 312              		.cfi_def_cfa_offset 8
 313              		.cfi_offset 4, -8
 314              		.cfi_offset 14, -4
 315 0002 84B0     		sub	sp, sp, #16
 316              		.cfi_def_cfa_offset 24
 370:Drivers/BSP/Components/lis302dl/lis302dl.c ****   int8_t buffer[6];
 317              		.loc 1 370 1 view .LVU68
 318 0004 0446     		mov	r4, r0
 319              		.loc 1 376 3 view .LVU69
 320 0006 0122     		movs	r2, #1
 321 0008 0DF10700 		add	r0, sp, #7
 322              	.LVL14:
 323              		.loc 1 376 3 view .LVU70
 324 000c 2021     		movs	r1, #32
 325 000e FFF7FEFF 		bl	ACCELERO_IO_Read
 326              	.LVL15:
 377:Drivers/BSP/Components/lis302dl/lis302dl.c ****   ACCELERO_IO_Read((uint8_t*)buffer, LIS302DL_OUT_X_ADDR, 6);
 327              		.loc 1 377 3 is_stmt 1 view .LVU71
 328 0012 02A8     		add	r0, sp, #8
 329 0014 0622     		movs	r2, #6
 330 0016 2921     		movs	r1, #41
 331 0018 FFF7FEFF 		bl	ACCELERO_IO_Read
 332              	.LVL16:
 378:Drivers/BSP/Components/lis302dl/lis302dl.c ****   
 379:Drivers/BSP/Components/lis302dl/lis302dl.c ****   for(i=0; i<3; i++)
 333              		.loc 1 379 3 view .LVU72
 334              		.loc 1 379 13 view .LVU73
 380:Drivers/BSP/Components/lis302dl/lis302dl.c ****   {
 381:Drivers/BSP/Components/lis302dl/lis302dl.c ****     pnRawData[i] = buffer[2*i];
 335              		.loc 1 381 5 view .LVU74
 382:Drivers/BSP/Components/lis302dl/lis302dl.c ****   }
 383:Drivers/BSP/Components/lis302dl/lis302dl.c ****   
 384:Drivers/BSP/Components/lis302dl/lis302dl.c ****   switch(crtl & LIS302DL_FULLSCALE_9_2) 
 336              		.loc 1 384 3 is_stmt 0 view .LVU75
 337 001c 9DF80700 		ldrb	r0, [sp, #7]	@ zero_extendqisi2
 381:Drivers/BSP/Components/lis302dl/lis302dl.c ****   }
 338              		.loc 1 381 26 view .LVU76
 339 0020 9DF90810 		ldrsb	r1, [sp, #8]
 379:Drivers/BSP/Components/lis302dl/lis302dl.c ****   {
 340              		.loc 1 379 18 is_stmt 1 view .LVU77
 341              	.LVL17:
 379:Drivers/BSP/Components/lis302dl/lis302dl.c ****   {
 342              		.loc 1 379 13 view .LVU78
ARM GAS  /var/folders/0z/tsy30v1j4xl4_7kw94k978ww0000gn/T//ccYjfEBV.s 			page 14


 381:Drivers/BSP/Components/lis302dl/lis302dl.c ****   }
 343              		.loc 1 381 5 view .LVU79
 381:Drivers/BSP/Components/lis302dl/lis302dl.c ****   }
 344              		.loc 1 381 26 is_stmt 0 view .LVU80
 345 0024 9DF90A20 		ldrsb	r2, [sp, #10]
 379:Drivers/BSP/Components/lis302dl/lis302dl.c ****   {
 346              		.loc 1 379 18 is_stmt 1 view .LVU81
 347              	.LVL18:
 379:Drivers/BSP/Components/lis302dl/lis302dl.c ****   {
 348              		.loc 1 379 13 view .LVU82
 381:Drivers/BSP/Components/lis302dl/lis302dl.c ****   }
 349              		.loc 1 381 5 view .LVU83
 381:Drivers/BSP/Components/lis302dl/lis302dl.c ****   }
 350              		.loc 1 381 26 is_stmt 0 view .LVU84
 351 0028 9DF90C30 		ldrsb	r3, [sp, #12]
 379:Drivers/BSP/Components/lis302dl/lis302dl.c ****   {
 352              		.loc 1 379 18 is_stmt 1 view .LVU85
 353              	.LVL19:
 379:Drivers/BSP/Components/lis302dl/lis302dl.c ****   {
 354              		.loc 1 379 13 view .LVU86
 355              		.loc 1 384 3 view .LVU87
 356 002c 10F0200F 		tst	r0, #32
 357 0030 0CBF     		ite	eq
 358 0032 1220     		moveq	r0, #18
 359 0034 4820     		movne	r0, #72
 360              	.LVL20:
 385:Drivers/BSP/Components/lis302dl/lis302dl.c ****   {
 386:Drivers/BSP/Components/lis302dl/lis302dl.c ****     /* FS bit = 0 ==> Sensitivity typical value = 18milligals/digit*/ 
 387:Drivers/BSP/Components/lis302dl/lis302dl.c ****   case LIS302DL_FULLSCALE_2_3:
 388:Drivers/BSP/Components/lis302dl/lis302dl.c ****     sensitivity = LIS302DL_SENSITIVITY_2_3G;
 389:Drivers/BSP/Components/lis302dl/lis302dl.c ****     break;
 390:Drivers/BSP/Components/lis302dl/lis302dl.c ****     
 391:Drivers/BSP/Components/lis302dl/lis302dl.c ****     /* FS bit = 1 ==> Sensitivity typical value = 72milligals/digit*/ 
 392:Drivers/BSP/Components/lis302dl/lis302dl.c ****   case LIS302DL_FULLSCALE_9_2:
 393:Drivers/BSP/Components/lis302dl/lis302dl.c ****     sensitivity = LIS302DL_SENSITIVITY_9_2G;
 394:Drivers/BSP/Components/lis302dl/lis302dl.c ****     break;
 395:Drivers/BSP/Components/lis302dl/lis302dl.c ****     
 396:Drivers/BSP/Components/lis302dl/lis302dl.c ****   default:
 397:Drivers/BSP/Components/lis302dl/lis302dl.c ****     break;
 398:Drivers/BSP/Components/lis302dl/lis302dl.c ****   }
 399:Drivers/BSP/Components/lis302dl/lis302dl.c ****   
 400:Drivers/BSP/Components/lis302dl/lis302dl.c ****   /* Obtain the mg value for the three axis */
 401:Drivers/BSP/Components/lis302dl/lis302dl.c ****   for(i=0; i<3; i++)
 361              		.loc 1 401 3 view .LVU88
 362              		.loc 1 401 13 view .LVU89
 402:Drivers/BSP/Components/lis302dl/lis302dl.c ****   {
 403:Drivers/BSP/Components/lis302dl/lis302dl.c ****     pData[i]=(pnRawData[i] * sensitivity);
 363              		.loc 1 403 5 view .LVU90
 364              		.loc 1 403 13 is_stmt 0 view .LVU91
 365 0036 11FB00F1 		smulbb	r1, r1, r0
 366 003a 12FB00F2 		smulbb	r2, r2, r0
 367 003e 13FB00F3 		smulbb	r3, r3, r0
 368 0042 2180     		strh	r1, [r4]	@ movhi
 401:Drivers/BSP/Components/lis302dl/lis302dl.c ****   {
 369              		.loc 1 401 18 is_stmt 1 view .LVU92
 370              	.LVL21:
 401:Drivers/BSP/Components/lis302dl/lis302dl.c ****   {
ARM GAS  /var/folders/0z/tsy30v1j4xl4_7kw94k978ww0000gn/T//ccYjfEBV.s 			page 15


 371              		.loc 1 401 13 view .LVU93
 372              		.loc 1 403 5 view .LVU94
 373              		.loc 1 403 13 is_stmt 0 view .LVU95
 374 0044 6280     		strh	r2, [r4, #2]	@ movhi
 401:Drivers/BSP/Components/lis302dl/lis302dl.c ****   {
 375              		.loc 1 401 18 is_stmt 1 view .LVU96
 376              	.LVL22:
 401:Drivers/BSP/Components/lis302dl/lis302dl.c ****   {
 377              		.loc 1 401 13 view .LVU97
 378              		.loc 1 403 5 view .LVU98
 379              		.loc 1 403 13 is_stmt 0 view .LVU99
 380 0046 A380     		strh	r3, [r4, #4]	@ movhi
 401:Drivers/BSP/Components/lis302dl/lis302dl.c ****   {
 381              		.loc 1 401 18 is_stmt 1 view .LVU100
 382              	.LVL23:
 401:Drivers/BSP/Components/lis302dl/lis302dl.c ****   {
 383              		.loc 1 401 13 view .LVU101
 404:Drivers/BSP/Components/lis302dl/lis302dl.c ****   }
 405:Drivers/BSP/Components/lis302dl/lis302dl.c **** }
 384              		.loc 1 405 1 is_stmt 0 view .LVU102
 385 0048 04B0     		add	sp, sp, #16
 386              		.cfi_def_cfa_offset 8
 387              		@ sp needed
 388 004a 10BD     		pop	{r4, pc}
 389              		.loc 1 405 1 view .LVU103
 390              		.cfi_endproc
 391              	.LFE11:
 393              		.section	.text.LIS302DL_Click_IntConfig,"ax",%progbits
 394              		.align	1
 395              		.p2align 2,,3
 396              		.global	LIS302DL_Click_IntConfig
 397              		.syntax unified
 398              		.thumb
 399              		.thumb_func
 401              	LIS302DL_Click_IntConfig:
 402              	.LFB5:
 216:Drivers/BSP/Components/lis302dl/lis302dl.c ****   uint8_t ctrl = 0x00;
 403              		.loc 1 216 1 is_stmt 1 view -0
 404              		.cfi_startproc
 405              		@ args = 0, pretend = 0, frame = 8
 406              		@ frame_needed = 0, uses_anonymous_args = 0
 217:Drivers/BSP/Components/lis302dl/lis302dl.c ****   LIS302DL_InterruptConfigTypeDef   LIS302DL_InterruptStruct;
 407              		.loc 1 217 3 view .LVU105
 216:Drivers/BSP/Components/lis302dl/lis302dl.c ****   uint8_t ctrl = 0x00;
 408              		.loc 1 216 1 is_stmt 0 view .LVU106
 409 0000 30B5     		push	{r4, r5, lr}
 410              		.cfi_def_cfa_offset 12
 411              		.cfi_offset 4, -12
 412              		.cfi_offset 5, -8
 413              		.cfi_offset 14, -4
 414 0002 83B0     		sub	sp, sp, #12
 415              		.cfi_def_cfa_offset 24
 217:Drivers/BSP/Components/lis302dl/lis302dl.c ****   LIS302DL_InterruptConfigTypeDef   LIS302DL_InterruptStruct;
 416              		.loc 1 217 11 view .LVU107
 417 0004 0024     		movs	r4, #0
 418 0006 8DF80640 		strb	r4, [sp, #6]
 218:Drivers/BSP/Components/lis302dl/lis302dl.c ****   
ARM GAS  /var/folders/0z/tsy30v1j4xl4_7kw94k978ww0000gn/T//ccYjfEBV.s 			page 16


 419              		.loc 1 218 3 is_stmt 1 view .LVU108
 220:Drivers/BSP/Components/lis302dl/lis302dl.c ****   
 420              		.loc 1 220 3 view .LVU109
 421 000a FFF7FEFF 		bl	ACCELERO_IO_ITConfig
 422              	.LVL24:
 223:Drivers/BSP/Components/lis302dl/lis302dl.c ****   LIS302DL_InterruptStruct.SingleClick_Axes = LIS302DL_CLICKINTERRUPT_Z_ENABLE;
 423              		.loc 1 223 3 view .LVU110
 224:Drivers/BSP/Components/lis302dl/lis302dl.c ****   LIS302DL_InterruptStruct.DoubleClick_Axes = LIS302DL_DOUBLECLICKINTERRUPT_Z_ENABLE;
 424              		.loc 1 224 3 view .LVU111
 225:Drivers/BSP/Components/lis302dl/lis302dl.c ****   LIS302DL_InterruptConfig(&LIS302DL_InterruptStruct);
 425              		.loc 1 225 3 view .LVU112
 226:Drivers/BSP/Components/lis302dl/lis302dl.c ****   
 426              		.loc 1 226 3 view .LVU113
 427              	.LBB4:
 428              	.LBI4:
 194:Drivers/BSP/Components/lis302dl/lis302dl.c **** {
 429              		.loc 1 194 6 view .LVU114
 430              	.LBB5:
 196:Drivers/BSP/Components/lis302dl/lis302dl.c ****   
 431              		.loc 1 196 3 view .LVU115
 199:Drivers/BSP/Components/lis302dl/lis302dl.c ****   
 432              		.loc 1 199 3 is_stmt 0 view .LVU116
 433 000e 0DF10700 		add	r0, sp, #7
 434 0012 0122     		movs	r2, #1
 435 0014 3821     		movs	r1, #56
 196:Drivers/BSP/Components/lis302dl/lis302dl.c ****   
 436              		.loc 1 196 11 view .LVU117
 437 0016 8DF80740 		strb	r4, [sp, #7]
 199:Drivers/BSP/Components/lis302dl/lis302dl.c ****   
 438              		.loc 1 199 3 is_stmt 1 view .LVU118
 439 001a FFF7FEFF 		bl	ACCELERO_IO_Read
 440              	.LVL25:
 202:Drivers/BSP/Components/lis302dl/lis302dl.c ****                    LIS302DL_IntConfigStruct->SingleClick_Axes | \
 441              		.loc 1 202 3 view .LVU119
 202:Drivers/BSP/Components/lis302dl/lis302dl.c ****                    LIS302DL_IntConfigStruct->SingleClick_Axes | \
 442              		.loc 1 202 8 is_stmt 0 view .LVU120
 443 001e 7023     		movs	r3, #112
 207:Drivers/BSP/Components/lis302dl/lis302dl.c **** }
 444              		.loc 1 207 3 view .LVU121
 445 0020 0DF10700 		add	r0, sp, #7
 446 0024 0122     		movs	r2, #1
 447 0026 3821     		movs	r1, #56
 202:Drivers/BSP/Components/lis302dl/lis302dl.c ****                    LIS302DL_IntConfigStruct->SingleClick_Axes | \
 448              		.loc 1 202 8 view .LVU122
 449 0028 8DF80730 		strb	r3, [sp, #7]
 207:Drivers/BSP/Components/lis302dl/lis302dl.c **** }
 450              		.loc 1 207 3 is_stmt 1 view .LVU123
 451              	.LBE5:
 452              	.LBE4:
 230:Drivers/BSP/Components/lis302dl/lis302dl.c ****   ACCELERO_IO_Write(&ctrl, LIS302DL_CTRL_REG3_ADDR, 1);
 453              		.loc 1 230 8 is_stmt 0 view .LVU124
 454 002c 3F25     		movs	r5, #63
 455              	.LBB7:
 456              	.LBB6:
 207:Drivers/BSP/Components/lis302dl/lis302dl.c **** }
 457              		.loc 1 207 3 view .LVU125
 458 002e FFF7FEFF 		bl	ACCELERO_IO_Write
ARM GAS  /var/folders/0z/tsy30v1j4xl4_7kw94k978ww0000gn/T//ccYjfEBV.s 			page 17


 459              	.LVL26:
 207:Drivers/BSP/Components/lis302dl/lis302dl.c **** }
 460              		.loc 1 207 3 view .LVU126
 461              	.LBE6:
 462              	.LBE7:
 230:Drivers/BSP/Components/lis302dl/lis302dl.c ****   ACCELERO_IO_Write(&ctrl, LIS302DL_CTRL_REG3_ADDR, 1);
 463              		.loc 1 230 3 is_stmt 1 view .LVU127
 231:Drivers/BSP/Components/lis302dl/lis302dl.c ****   
 464              		.loc 1 231 3 is_stmt 0 view .LVU128
 465 0032 0DF10600 		add	r0, sp, #6
 466 0036 0122     		movs	r2, #1
 467 0038 2221     		movs	r1, #34
 230:Drivers/BSP/Components/lis302dl/lis302dl.c ****   ACCELERO_IO_Write(&ctrl, LIS302DL_CTRL_REG3_ADDR, 1);
 468              		.loc 1 230 8 view .LVU129
 469 003a 8DF80650 		strb	r5, [sp, #6]
 231:Drivers/BSP/Components/lis302dl/lis302dl.c ****   
 470              		.loc 1 231 3 is_stmt 1 view .LVU130
 471 003e FFF7FEFF 		bl	ACCELERO_IO_Write
 472              	.LVL27:
 234:Drivers/BSP/Components/lis302dl/lis302dl.c ****   ACCELERO_IO_Write(&ctrl, LIS302DL_CLICK_CFG_REG_ADDR, 1);
 473              		.loc 1 234 3 view .LVU131
 235:Drivers/BSP/Components/lis302dl/lis302dl.c ****   
 474              		.loc 1 235 3 is_stmt 0 view .LVU132
 475 0042 0DF10600 		add	r0, sp, #6
 234:Drivers/BSP/Components/lis302dl/lis302dl.c ****   ACCELERO_IO_Write(&ctrl, LIS302DL_CLICK_CFG_REG_ADDR, 1);
 476              		.loc 1 234 8 view .LVU133
 477 0046 5023     		movs	r3, #80
 235:Drivers/BSP/Components/lis302dl/lis302dl.c ****   
 478              		.loc 1 235 3 view .LVU134
 479 0048 0122     		movs	r2, #1
 480 004a 3821     		movs	r1, #56
 234:Drivers/BSP/Components/lis302dl/lis302dl.c ****   ACCELERO_IO_Write(&ctrl, LIS302DL_CLICK_CFG_REG_ADDR, 1);
 481              		.loc 1 234 8 view .LVU135
 482 004c 8DF80630 		strb	r3, [sp, #6]
 235:Drivers/BSP/Components/lis302dl/lis302dl.c ****   
 483              		.loc 1 235 3 is_stmt 1 view .LVU136
 484 0050 FFF7FEFF 		bl	ACCELERO_IO_Write
 485              	.LVL28:
 238:Drivers/BSP/Components/lis302dl/lis302dl.c ****   ACCELERO_IO_Write(&ctrl, LIS302DL_CLICK_THSY_X_REG_ADDR, 1);
 486              		.loc 1 238 3 view .LVU137
 239:Drivers/BSP/Components/lis302dl/lis302dl.c ****   
 487              		.loc 1 239 3 is_stmt 0 view .LVU138
 488 0054 0DF10600 		add	r0, sp, #6
 238:Drivers/BSP/Components/lis302dl/lis302dl.c ****   ACCELERO_IO_Write(&ctrl, LIS302DL_CLICK_THSY_X_REG_ADDR, 1);
 489              		.loc 1 238 8 view .LVU139
 490 0058 AA23     		movs	r3, #170
 239:Drivers/BSP/Components/lis302dl/lis302dl.c ****   
 491              		.loc 1 239 3 view .LVU140
 492 005a 0122     		movs	r2, #1
 493 005c 3B21     		movs	r1, #59
 238:Drivers/BSP/Components/lis302dl/lis302dl.c ****   ACCELERO_IO_Write(&ctrl, LIS302DL_CLICK_THSY_X_REG_ADDR, 1);
 494              		.loc 1 238 8 view .LVU141
 495 005e 8DF80630 		strb	r3, [sp, #6]
 239:Drivers/BSP/Components/lis302dl/lis302dl.c ****   
 496              		.loc 1 239 3 is_stmt 1 view .LVU142
 497 0062 FFF7FEFF 		bl	ACCELERO_IO_Write
 498              	.LVL29:
ARM GAS  /var/folders/0z/tsy30v1j4xl4_7kw94k978ww0000gn/T//ccYjfEBV.s 			page 18


 242:Drivers/BSP/Components/lis302dl/lis302dl.c ****   ACCELERO_IO_Write(&ctrl, LIS302DL_CLICK_THSZ_REG_ADDR, 1);
 499              		.loc 1 242 3 view .LVU143
 243:Drivers/BSP/Components/lis302dl/lis302dl.c ****   
 500              		.loc 1 243 3 is_stmt 0 view .LVU144
 501 0066 0DF10600 		add	r0, sp, #6
 242:Drivers/BSP/Components/lis302dl/lis302dl.c ****   ACCELERO_IO_Write(&ctrl, LIS302DL_CLICK_THSZ_REG_ADDR, 1);
 502              		.loc 1 242 8 view .LVU145
 503 006a 0A23     		movs	r3, #10
 243:Drivers/BSP/Components/lis302dl/lis302dl.c ****   
 504              		.loc 1 243 3 view .LVU146
 505 006c 0122     		movs	r2, #1
 506 006e 3C21     		movs	r1, #60
 242:Drivers/BSP/Components/lis302dl/lis302dl.c ****   ACCELERO_IO_Write(&ctrl, LIS302DL_CLICK_THSZ_REG_ADDR, 1);
 507              		.loc 1 242 8 view .LVU147
 508 0070 8DF80630 		strb	r3, [sp, #6]
 243:Drivers/BSP/Components/lis302dl/lis302dl.c ****   
 509              		.loc 1 243 3 is_stmt 1 view .LVU148
 510 0074 FFF7FEFF 		bl	ACCELERO_IO_Write
 511              	.LVL30:
 246:Drivers/BSP/Components/lis302dl/lis302dl.c ****   ACCELERO_IO_Write(&ctrl, LIS302DL_FF_WU_CFG1_REG_ADDR, 1);
 512              		.loc 1 246 3 view .LVU149
 247:Drivers/BSP/Components/lis302dl/lis302dl.c ****   
 513              		.loc 1 247 3 is_stmt 0 view .LVU150
 514 0078 0DF10600 		add	r0, sp, #6
 246:Drivers/BSP/Components/lis302dl/lis302dl.c ****   ACCELERO_IO_Write(&ctrl, LIS302DL_FF_WU_CFG1_REG_ADDR, 1);
 515              		.loc 1 246 8 view .LVU151
 516 007c 4C23     		movs	r3, #76
 247:Drivers/BSP/Components/lis302dl/lis302dl.c ****   
 517              		.loc 1 247 3 view .LVU152
 518 007e 0122     		movs	r2, #1
 519 0080 3021     		movs	r1, #48
 246:Drivers/BSP/Components/lis302dl/lis302dl.c ****   ACCELERO_IO_Write(&ctrl, LIS302DL_FF_WU_CFG1_REG_ADDR, 1);
 520              		.loc 1 246 8 view .LVU153
 521 0082 8DF80630 		strb	r3, [sp, #6]
 247:Drivers/BSP/Components/lis302dl/lis302dl.c ****   
 522              		.loc 1 247 3 is_stmt 1 view .LVU154
 523 0086 FFF7FEFF 		bl	ACCELERO_IO_Write
 524              	.LVL31:
 250:Drivers/BSP/Components/lis302dl/lis302dl.c ****   ACCELERO_IO_Write(&ctrl, LIS302DL_CLICK_TIMELIMIT_REG_ADDR, 1);
 525              		.loc 1 250 3 view .LVU155
 250:Drivers/BSP/Components/lis302dl/lis302dl.c ****   ACCELERO_IO_Write(&ctrl, LIS302DL_CLICK_TIMELIMIT_REG_ADDR, 1);
 526              		.loc 1 250 8 is_stmt 0 view .LVU156
 527 008a 0323     		movs	r3, #3
 251:Drivers/BSP/Components/lis302dl/lis302dl.c ****   
 528              		.loc 1 251 3 view .LVU157
 529 008c 0DF10600 		add	r0, sp, #6
 530 0090 0122     		movs	r2, #1
 531 0092 3D21     		movs	r1, #61
 250:Drivers/BSP/Components/lis302dl/lis302dl.c ****   ACCELERO_IO_Write(&ctrl, LIS302DL_CLICK_TIMELIMIT_REG_ADDR, 1);
 532              		.loc 1 250 8 view .LVU158
 533 0094 8DF80630 		strb	r3, [sp, #6]
 251:Drivers/BSP/Components/lis302dl/lis302dl.c ****   
 534              		.loc 1 251 3 is_stmt 1 view .LVU159
 254:Drivers/BSP/Components/lis302dl/lis302dl.c ****   ACCELERO_IO_Write(&ctrl, LIS302DL_CLICK_LATENCY_REG_ADDR, 1);
 535              		.loc 1 254 8 is_stmt 0 view .LVU160
 536 0098 7F24     		movs	r4, #127
 251:Drivers/BSP/Components/lis302dl/lis302dl.c ****   
ARM GAS  /var/folders/0z/tsy30v1j4xl4_7kw94k978ww0000gn/T//ccYjfEBV.s 			page 19


 537              		.loc 1 251 3 view .LVU161
 538 009a FFF7FEFF 		bl	ACCELERO_IO_Write
 539              	.LVL32:
 254:Drivers/BSP/Components/lis302dl/lis302dl.c ****   ACCELERO_IO_Write(&ctrl, LIS302DL_CLICK_LATENCY_REG_ADDR, 1);
 540              		.loc 1 254 3 is_stmt 1 view .LVU162
 255:Drivers/BSP/Components/lis302dl/lis302dl.c ****   
 541              		.loc 1 255 3 is_stmt 0 view .LVU163
 542 009e 0DF10600 		add	r0, sp, #6
 543 00a2 0122     		movs	r2, #1
 544 00a4 3E21     		movs	r1, #62
 254:Drivers/BSP/Components/lis302dl/lis302dl.c ****   ACCELERO_IO_Write(&ctrl, LIS302DL_CLICK_LATENCY_REG_ADDR, 1);
 545              		.loc 1 254 8 view .LVU164
 546 00a6 8DF80640 		strb	r4, [sp, #6]
 255:Drivers/BSP/Components/lis302dl/lis302dl.c ****   
 547              		.loc 1 255 3 is_stmt 1 view .LVU165
 548 00aa FFF7FEFF 		bl	ACCELERO_IO_Write
 549              	.LVL33:
 258:Drivers/BSP/Components/lis302dl/lis302dl.c ****   ACCELERO_IO_Write(&ctrl, LIS302DL_CLICK_WINDOW_REG_ADDR, 1);
 550              		.loc 1 258 3 view .LVU166
 259:Drivers/BSP/Components/lis302dl/lis302dl.c **** }
 551              		.loc 1 259 3 is_stmt 0 view .LVU167
 552 00ae 0122     		movs	r2, #1
 553 00b0 2946     		mov	r1, r5
 554 00b2 0DF10600 		add	r0, sp, #6
 258:Drivers/BSP/Components/lis302dl/lis302dl.c ****   ACCELERO_IO_Write(&ctrl, LIS302DL_CLICK_WINDOW_REG_ADDR, 1);
 555              		.loc 1 258 8 view .LVU168
 556 00b6 8DF80640 		strb	r4, [sp, #6]
 259:Drivers/BSP/Components/lis302dl/lis302dl.c **** }
 557              		.loc 1 259 3 is_stmt 1 view .LVU169
 558 00ba FFF7FEFF 		bl	ACCELERO_IO_Write
 559              	.LVL34:
 260:Drivers/BSP/Components/lis302dl/lis302dl.c **** 
 560              		.loc 1 260 1 is_stmt 0 view .LVU170
 561 00be 03B0     		add	sp, sp, #12
 562              		.cfi_def_cfa_offset 12
 563              		@ sp needed
 564 00c0 30BD     		pop	{r4, r5, pc}
 565              		.cfi_endproc
 566              	.LFE5:
 568 00c2 00BF     		.section	.text.LIS302DL_InterruptConfig,"ax",%progbits
 569              		.align	1
 570              		.p2align 2,,3
 571              		.global	LIS302DL_InterruptConfig
 572              		.syntax unified
 573              		.thumb
 574              		.thumb_func
 576              	LIS302DL_InterruptConfig:
 577              	.LVL35:
 578              	.LFB4:
 195:Drivers/BSP/Components/lis302dl/lis302dl.c ****   uint8_t ctrl = 0x00;
 579              		.loc 1 195 1 is_stmt 1 view -0
 580              		.cfi_startproc
 581              		@ args = 0, pretend = 0, frame = 8
 582              		@ frame_needed = 0, uses_anonymous_args = 0
 196:Drivers/BSP/Components/lis302dl/lis302dl.c ****   
 583              		.loc 1 196 3 view .LVU172
 195:Drivers/BSP/Components/lis302dl/lis302dl.c ****   uint8_t ctrl = 0x00;
ARM GAS  /var/folders/0z/tsy30v1j4xl4_7kw94k978ww0000gn/T//ccYjfEBV.s 			page 20


 584              		.loc 1 195 1 is_stmt 0 view .LVU173
 585 0000 10B5     		push	{r4, lr}
 586              		.cfi_def_cfa_offset 8
 587              		.cfi_offset 4, -8
 588              		.cfi_offset 14, -4
 589 0002 0446     		mov	r4, r0
 590 0004 82B0     		sub	sp, sp, #8
 591              		.cfi_def_cfa_offset 16
 199:Drivers/BSP/Components/lis302dl/lis302dl.c ****   
 592              		.loc 1 199 3 view .LVU174
 593 0006 0DF10700 		add	r0, sp, #7
 594              	.LVL36:
 196:Drivers/BSP/Components/lis302dl/lis302dl.c ****   
 595              		.loc 1 196 11 view .LVU175
 596 000a 0023     		movs	r3, #0
 199:Drivers/BSP/Components/lis302dl/lis302dl.c ****   
 597              		.loc 1 199 3 view .LVU176
 598 000c 0122     		movs	r2, #1
 599 000e 3821     		movs	r1, #56
 196:Drivers/BSP/Components/lis302dl/lis302dl.c ****   
 600              		.loc 1 196 11 view .LVU177
 601 0010 8DF80730 		strb	r3, [sp, #7]
 199:Drivers/BSP/Components/lis302dl/lis302dl.c ****   
 602              		.loc 1 199 3 is_stmt 1 view .LVU178
 603 0014 FFF7FEFF 		bl	ACCELERO_IO_Read
 604              	.LVL37:
 202:Drivers/BSP/Components/lis302dl/lis302dl.c ****                    LIS302DL_IntConfigStruct->SingleClick_Axes | \
 605              		.loc 1 202 3 view .LVU179
 202:Drivers/BSP/Components/lis302dl/lis302dl.c ****                    LIS302DL_IntConfigStruct->SingleClick_Axes | \
 606              		.loc 1 202 10 is_stmt 0 view .LVU180
 607 0018 6178     		ldrb	r1, [r4, #1]	@ zero_extendqisi2
 608 001a 2378     		ldrb	r3, [r4]	@ zero_extendqisi2
 609 001c A278     		ldrb	r2, [r4, #2]	@ zero_extendqisi2
 610 001e 0B43     		orrs	r3, r3, r1
 611 0020 1343     		orrs	r3, r3, r2
 207:Drivers/BSP/Components/lis302dl/lis302dl.c **** }
 612              		.loc 1 207 3 view .LVU181
 613 0022 3821     		movs	r1, #56
 614 0024 0122     		movs	r2, #1
 615 0026 0DF10700 		add	r0, sp, #7
 202:Drivers/BSP/Components/lis302dl/lis302dl.c ****                    LIS302DL_IntConfigStruct->SingleClick_Axes | \
 616              		.loc 1 202 8 view .LVU182
 617 002a 8DF80730 		strb	r3, [sp, #7]
 207:Drivers/BSP/Components/lis302dl/lis302dl.c **** }
 618              		.loc 1 207 3 is_stmt 1 view .LVU183
 619 002e FFF7FEFF 		bl	ACCELERO_IO_Write
 620              	.LVL38:
 208:Drivers/BSP/Components/lis302dl/lis302dl.c **** 
 621              		.loc 1 208 1 is_stmt 0 view .LVU184
 622 0032 02B0     		add	sp, sp, #8
 623              		.cfi_def_cfa_offset 8
 624              		@ sp needed
 625 0034 10BD     		pop	{r4, pc}
 208:Drivers/BSP/Components/lis302dl/lis302dl.c **** 
 626              		.loc 1 208 1 view .LVU185
 627              		.cfi_endproc
 628              	.LFE4:
ARM GAS  /var/folders/0z/tsy30v1j4xl4_7kw94k978ww0000gn/T//ccYjfEBV.s 			page 21


 630 0036 00BF     		.section	.text.LIS302DL_LowpowerCmd,"ax",%progbits
 631              		.align	1
 632              		.p2align 2,,3
 633              		.global	LIS302DL_LowpowerCmd
 634              		.syntax unified
 635              		.thumb
 636              		.thumb_func
 638              	LIS302DL_LowpowerCmd:
 639              	.LVL39:
 640              	.LFB7:
 285:Drivers/BSP/Components/lis302dl/lis302dl.c ****   uint8_t tmpreg;
 641              		.loc 1 285 1 is_stmt 1 view -0
 642              		.cfi_startproc
 643              		@ args = 0, pretend = 0, frame = 8
 644              		@ frame_needed = 0, uses_anonymous_args = 0
 286:Drivers/BSP/Components/lis302dl/lis302dl.c ****   
 645              		.loc 1 286 3 view .LVU187
 289:Drivers/BSP/Components/lis302dl/lis302dl.c ****   
 646              		.loc 1 289 3 view .LVU188
 285:Drivers/BSP/Components/lis302dl/lis302dl.c ****   uint8_t tmpreg;
 647              		.loc 1 285 1 is_stmt 0 view .LVU189
 648 0000 10B5     		push	{r4, lr}
 649              		.cfi_def_cfa_offset 8
 650              		.cfi_offset 4, -8
 651              		.cfi_offset 14, -4
 652 0002 82B0     		sub	sp, sp, #8
 653              		.cfi_def_cfa_offset 16
 285:Drivers/BSP/Components/lis302dl/lis302dl.c ****   uint8_t tmpreg;
 654              		.loc 1 285 1 view .LVU190
 655 0004 0446     		mov	r4, r0
 289:Drivers/BSP/Components/lis302dl/lis302dl.c ****   
 656              		.loc 1 289 3 view .LVU191
 657 0006 0122     		movs	r2, #1
 658 0008 0DF10700 		add	r0, sp, #7
 659              	.LVL40:
 289:Drivers/BSP/Components/lis302dl/lis302dl.c ****   
 660              		.loc 1 289 3 view .LVU192
 661 000c 2021     		movs	r1, #32
 662 000e FFF7FEFF 		bl	ACCELERO_IO_Read
 663              	.LVL41:
 292:Drivers/BSP/Components/lis302dl/lis302dl.c ****   tmpreg |= LowPowerMode;
 664              		.loc 1 292 3 is_stmt 1 view .LVU193
 293:Drivers/BSP/Components/lis302dl/lis302dl.c ****   
 665              		.loc 1 293 3 view .LVU194
 292:Drivers/BSP/Components/lis302dl/lis302dl.c ****   tmpreg |= LowPowerMode;
 666              		.loc 1 292 10 is_stmt 0 view .LVU195
 667 0012 9DF80730 		ldrb	r3, [sp, #7]	@ zero_extendqisi2
 668 0016 23F04003 		bic	r3, r3, #64
 293:Drivers/BSP/Components/lis302dl/lis302dl.c ****   
 669              		.loc 1 293 10 view .LVU196
 670 001a 1C43     		orrs	r4, r4, r3
 296:Drivers/BSP/Components/lis302dl/lis302dl.c **** }
 671              		.loc 1 296 3 view .LVU197
 672 001c 0122     		movs	r2, #1
 673 001e 2021     		movs	r1, #32
 674 0020 0DF10700 		add	r0, sp, #7
 293:Drivers/BSP/Components/lis302dl/lis302dl.c ****   
ARM GAS  /var/folders/0z/tsy30v1j4xl4_7kw94k978ww0000gn/T//ccYjfEBV.s 			page 22


 675              		.loc 1 293 10 view .LVU198
 676 0024 8DF80740 		strb	r4, [sp, #7]
 296:Drivers/BSP/Components/lis302dl/lis302dl.c **** }
 677              		.loc 1 296 3 is_stmt 1 view .LVU199
 678 0028 FFF7FEFF 		bl	ACCELERO_IO_Write
 679              	.LVL42:
 297:Drivers/BSP/Components/lis302dl/lis302dl.c **** 
 680              		.loc 1 297 1 is_stmt 0 view .LVU200
 681 002c 02B0     		add	sp, sp, #8
 682              		.cfi_def_cfa_offset 8
 683              		@ sp needed
 684 002e 10BD     		pop	{r4, pc}
 685              		.cfi_endproc
 686              	.LFE7:
 688              		.section	.text.LIS302DL_DataRateCmd,"ax",%progbits
 689              		.align	1
 690              		.p2align 2,,3
 691              		.global	LIS302DL_DataRateCmd
 692              		.syntax unified
 693              		.thumb
 694              		.thumb_func
 696              	LIS302DL_DataRateCmd:
 697              	.LVL43:
 698              	.LFB8:
 308:Drivers/BSP/Components/lis302dl/lis302dl.c ****   uint8_t tmpreg;
 699              		.loc 1 308 1 is_stmt 1 view -0
 700              		.cfi_startproc
 701              		@ args = 0, pretend = 0, frame = 8
 702              		@ frame_needed = 0, uses_anonymous_args = 0
 309:Drivers/BSP/Components/lis302dl/lis302dl.c ****   
 703              		.loc 1 309 3 view .LVU202
 312:Drivers/BSP/Components/lis302dl/lis302dl.c ****   
 704              		.loc 1 312 3 view .LVU203
 308:Drivers/BSP/Components/lis302dl/lis302dl.c ****   uint8_t tmpreg;
 705              		.loc 1 308 1 is_stmt 0 view .LVU204
 706 0000 10B5     		push	{r4, lr}
 707              		.cfi_def_cfa_offset 8
 708              		.cfi_offset 4, -8
 709              		.cfi_offset 14, -4
 710 0002 82B0     		sub	sp, sp, #8
 711              		.cfi_def_cfa_offset 16
 308:Drivers/BSP/Components/lis302dl/lis302dl.c ****   uint8_t tmpreg;
 712              		.loc 1 308 1 view .LVU205
 713 0004 0446     		mov	r4, r0
 312:Drivers/BSP/Components/lis302dl/lis302dl.c ****   
 714              		.loc 1 312 3 view .LVU206
 715 0006 0122     		movs	r2, #1
 716 0008 0DF10700 		add	r0, sp, #7
 717              	.LVL44:
 312:Drivers/BSP/Components/lis302dl/lis302dl.c ****   
 718              		.loc 1 312 3 view .LVU207
 719 000c 2021     		movs	r1, #32
 720 000e FFF7FEFF 		bl	ACCELERO_IO_Read
 721              	.LVL45:
 315:Drivers/BSP/Components/lis302dl/lis302dl.c ****   tmpreg |= DataRateValue;
 722              		.loc 1 315 3 is_stmt 1 view .LVU208
 316:Drivers/BSP/Components/lis302dl/lis302dl.c ****   
ARM GAS  /var/folders/0z/tsy30v1j4xl4_7kw94k978ww0000gn/T//ccYjfEBV.s 			page 23


 723              		.loc 1 316 3 view .LVU209
 315:Drivers/BSP/Components/lis302dl/lis302dl.c ****   tmpreg |= DataRateValue;
 724              		.loc 1 315 10 is_stmt 0 view .LVU210
 725 0012 9DF80730 		ldrb	r3, [sp, #7]	@ zero_extendqisi2
 726 0016 03F07F03 		and	r3, r3, #127
 316:Drivers/BSP/Components/lis302dl/lis302dl.c ****   
 727              		.loc 1 316 10 view .LVU211
 728 001a 1C43     		orrs	r4, r4, r3
 319:Drivers/BSP/Components/lis302dl/lis302dl.c **** }
 729              		.loc 1 319 3 view .LVU212
 730 001c 0122     		movs	r2, #1
 731 001e 2021     		movs	r1, #32
 732 0020 0DF10700 		add	r0, sp, #7
 316:Drivers/BSP/Components/lis302dl/lis302dl.c ****   
 733              		.loc 1 316 10 view .LVU213
 734 0024 8DF80740 		strb	r4, [sp, #7]
 319:Drivers/BSP/Components/lis302dl/lis302dl.c **** }
 735              		.loc 1 319 3 is_stmt 1 view .LVU214
 736 0028 FFF7FEFF 		bl	ACCELERO_IO_Write
 737              	.LVL46:
 320:Drivers/BSP/Components/lis302dl/lis302dl.c **** 
 738              		.loc 1 320 1 is_stmt 0 view .LVU215
 739 002c 02B0     		add	sp, sp, #8
 740              		.cfi_def_cfa_offset 8
 741              		@ sp needed
 742 002e 10BD     		pop	{r4, pc}
 743              		.cfi_endproc
 744              	.LFE8:
 746              		.section	.text.LIS302DL_FullScaleCmd,"ax",%progbits
 747              		.align	1
 748              		.p2align 2,,3
 749              		.global	LIS302DL_FullScaleCmd
 750              		.syntax unified
 751              		.thumb
 752              		.thumb_func
 754              	LIS302DL_FullScaleCmd:
 755              	.LVL47:
 756              	.LFB9:
 331:Drivers/BSP/Components/lis302dl/lis302dl.c ****   uint8_t tmpreg;
 757              		.loc 1 331 1 is_stmt 1 view -0
 758              		.cfi_startproc
 759              		@ args = 0, pretend = 0, frame = 8
 760              		@ frame_needed = 0, uses_anonymous_args = 0
 332:Drivers/BSP/Components/lis302dl/lis302dl.c ****   
 761              		.loc 1 332 3 view .LVU217
 335:Drivers/BSP/Components/lis302dl/lis302dl.c ****   
 762              		.loc 1 335 3 view .LVU218
 331:Drivers/BSP/Components/lis302dl/lis302dl.c ****   uint8_t tmpreg;
 763              		.loc 1 331 1 is_stmt 0 view .LVU219
 764 0000 10B5     		push	{r4, lr}
 765              		.cfi_def_cfa_offset 8
 766              		.cfi_offset 4, -8
 767              		.cfi_offset 14, -4
 768 0002 82B0     		sub	sp, sp, #8
 769              		.cfi_def_cfa_offset 16
 331:Drivers/BSP/Components/lis302dl/lis302dl.c ****   uint8_t tmpreg;
 770              		.loc 1 331 1 view .LVU220
ARM GAS  /var/folders/0z/tsy30v1j4xl4_7kw94k978ww0000gn/T//ccYjfEBV.s 			page 24


 771 0004 0446     		mov	r4, r0
 335:Drivers/BSP/Components/lis302dl/lis302dl.c ****   
 772              		.loc 1 335 3 view .LVU221
 773 0006 0122     		movs	r2, #1
 774 0008 0DF10700 		add	r0, sp, #7
 775              	.LVL48:
 335:Drivers/BSP/Components/lis302dl/lis302dl.c ****   
 776              		.loc 1 335 3 view .LVU222
 777 000c 2021     		movs	r1, #32
 778 000e FFF7FEFF 		bl	ACCELERO_IO_Read
 779              	.LVL49:
 338:Drivers/BSP/Components/lis302dl/lis302dl.c ****   tmpreg |= FS_value;
 780              		.loc 1 338 3 is_stmt 1 view .LVU223
 339:Drivers/BSP/Components/lis302dl/lis302dl.c ****   
 781              		.loc 1 339 3 view .LVU224
 338:Drivers/BSP/Components/lis302dl/lis302dl.c ****   tmpreg |= FS_value;
 782              		.loc 1 338 10 is_stmt 0 view .LVU225
 783 0012 9DF80730 		ldrb	r3, [sp, #7]	@ zero_extendqisi2
 784 0016 23F02003 		bic	r3, r3, #32
 339:Drivers/BSP/Components/lis302dl/lis302dl.c ****   
 785              		.loc 1 339 10 view .LVU226
 786 001a 1C43     		orrs	r4, r4, r3
 342:Drivers/BSP/Components/lis302dl/lis302dl.c **** }
 787              		.loc 1 342 3 view .LVU227
 788 001c 0122     		movs	r2, #1
 789 001e 2021     		movs	r1, #32
 790 0020 0DF10700 		add	r0, sp, #7
 339:Drivers/BSP/Components/lis302dl/lis302dl.c ****   
 791              		.loc 1 339 10 view .LVU228
 792 0024 8DF80740 		strb	r4, [sp, #7]
 342:Drivers/BSP/Components/lis302dl/lis302dl.c **** }
 793              		.loc 1 342 3 is_stmt 1 view .LVU229
 794 0028 FFF7FEFF 		bl	ACCELERO_IO_Write
 795              	.LVL50:
 343:Drivers/BSP/Components/lis302dl/lis302dl.c **** 
 796              		.loc 1 343 1 is_stmt 0 view .LVU230
 797 002c 02B0     		add	sp, sp, #8
 798              		.cfi_def_cfa_offset 8
 799              		@ sp needed
 800 002e 10BD     		pop	{r4, pc}
 801              		.cfi_endproc
 802              	.LFE9:
 804              		.global	Lis302dlDrv
 805              		.section	.data.Lis302dlDrv,"aw"
 806              		.align	2
 809              	Lis302dlDrv:
 810 0000 00000000 		.word	LIS302DL_Init
 811 0004 00000000 		.word	LIS302DL_DeInit
 812 0008 00000000 		.word	LIS302DL_ReadID
 813 000c 00000000 		.word	LIS302DL_RebootCmd
 814 0010 00000000 		.word	LIS302DL_Click_IntConfig
 815 0014 00000000 		.word	0
 816 0018 00000000 		.word	0
 817 001c 00000000 		.word	0
 818 0020 00000000 		.word	0
 819 0024 00000000 		.word	LIS302DL_Click_IntClear
 820 0028 00000000 		.word	LIS302DL_FilterConfig
ARM GAS  /var/folders/0z/tsy30v1j4xl4_7kw94k978ww0000gn/T//ccYjfEBV.s 			page 25


 821 002c 00000000 		.word	0
 822 0030 00000000 		.word	LIS302DL_ReadACC
 823              		.text
 824              	.Letext0:
 825              		.file 2 "/Users/johannes/Library/Application Support/Code/User/globalStorage/bmd.stm32-for-vscode/
 826              		.file 3 "/Users/johannes/Library/Application Support/Code/User/globalStorage/bmd.stm32-for-vscode/
 827              		.file 4 "Drivers/BSP/Components/lis302dl/../Common/accelero.h"
 828              		.file 5 "Drivers/BSP/Components/lis302dl/lis302dl.h"
ARM GAS  /var/folders/0z/tsy30v1j4xl4_7kw94k978ww0000gn/T//ccYjfEBV.s 			page 26

