ARM GAS  /var/folders/0z/tsy30v1j4xl4_7kw94k978ww0000gn/T//ccRAWizm.s 			page 1


   1              		.cpu cortex-m4
   2              		.arch armv7e-m
   3              		.fpu fpv4-sp-d16
   4              		.eabi_attribute 27, 1
   5              		.eabi_attribute 28, 1
   6              		.eabi_attribute 20, 1
   7              		.eabi_attribute 21, 1
   8              		.eabi_attribute 23, 3
   9              		.eabi_attribute 24, 1
  10              		.eabi_attribute 25, 1
  11              		.eabi_attribute 26, 1
  12              		.eabi_attribute 30, 1
  13              		.eabi_attribute 34, 1
  14              		.eabi_attribute 18, 4
  15              		.file	"lis3dsh.c"
  16              		.text
  17              	.Ltext0:
  18              		.cfi_sections	.debug_frame
  19              		.section	.text.LIS3DSH_DeInit,"ax",%progbits
  20              		.align	1
  21              		.global	LIS3DSH_DeInit
  22              		.syntax unified
  23              		.thumb
  24              		.thumb_func
  26              	LIS3DSH_DeInit:
  27              	.LFB1:
  28              		.file 1 "Drivers/BSP/Components/lis3dsh/lis3dsh.c"
   1:Drivers/BSP/Components/lis3dsh/lis3dsh.c **** /**
   2:Drivers/BSP/Components/lis3dsh/lis3dsh.c ****   ******************************************************************************
   3:Drivers/BSP/Components/lis3dsh/lis3dsh.c ****   * @file    lis3dsh.c
   4:Drivers/BSP/Components/lis3dsh/lis3dsh.c ****   * @author  MCD Application Team
   5:Drivers/BSP/Components/lis3dsh/lis3dsh.c ****   * @version V2.0.0
   6:Drivers/BSP/Components/lis3dsh/lis3dsh.c ****   * @date    03-August-2015
   7:Drivers/BSP/Components/lis3dsh/lis3dsh.c ****   * @brief   This file provides a set of functions needed to manage the LIS3DSH
   8:Drivers/BSP/Components/lis3dsh/lis3dsh.c ****   *          MEMS Accelerometer.
   9:Drivers/BSP/Components/lis3dsh/lis3dsh.c ****   ******************************************************************************
  10:Drivers/BSP/Components/lis3dsh/lis3dsh.c ****   * @attention
  11:Drivers/BSP/Components/lis3dsh/lis3dsh.c ****   *
  12:Drivers/BSP/Components/lis3dsh/lis3dsh.c ****   * <h2><center>&copy; COPYRIGHT(c) 2015 STMicroelectronics</center></h2>
  13:Drivers/BSP/Components/lis3dsh/lis3dsh.c ****   *
  14:Drivers/BSP/Components/lis3dsh/lis3dsh.c ****   * Redistribution and use in source and binary forms, with or without modification,
  15:Drivers/BSP/Components/lis3dsh/lis3dsh.c ****   * are permitted provided that the following conditions are met:
  16:Drivers/BSP/Components/lis3dsh/lis3dsh.c ****   *   1. Redistributions of source code must retain the above copyright notice,
  17:Drivers/BSP/Components/lis3dsh/lis3dsh.c ****   *      this list of conditions and the following disclaimer.
  18:Drivers/BSP/Components/lis3dsh/lis3dsh.c ****   *   2. Redistributions in binary form must reproduce the above copyright notice,
  19:Drivers/BSP/Components/lis3dsh/lis3dsh.c ****   *      this list of conditions and the following disclaimer in the documentation
  20:Drivers/BSP/Components/lis3dsh/lis3dsh.c ****   *      and/or other materials provided with the distribution.
  21:Drivers/BSP/Components/lis3dsh/lis3dsh.c ****   *   3. Neither the name of STMicroelectronics nor the names of its contributors
  22:Drivers/BSP/Components/lis3dsh/lis3dsh.c ****   *      may be used to endorse or promote products derived from this software
  23:Drivers/BSP/Components/lis3dsh/lis3dsh.c ****   *      without specific prior written permission.
  24:Drivers/BSP/Components/lis3dsh/lis3dsh.c ****   *
  25:Drivers/BSP/Components/lis3dsh/lis3dsh.c ****   * THIS SOFTWARE IS PROVIDED BY THE COPYRIGHT HOLDERS AND CONTRIBUTORS "AS IS"
  26:Drivers/BSP/Components/lis3dsh/lis3dsh.c ****   * AND ANY EXPRESS OR IMPLIED WARRANTIES, INCLUDING, BUT NOT LIMITED TO, THE
  27:Drivers/BSP/Components/lis3dsh/lis3dsh.c ****   * IMPLIED WARRANTIES OF MERCHANTABILITY AND FITNESS FOR A PARTICULAR PURPOSE ARE
  28:Drivers/BSP/Components/lis3dsh/lis3dsh.c ****   * DISCLAIMED. IN NO EVENT SHALL THE COPYRIGHT HOLDER OR CONTRIBUTORS BE LIABLE
  29:Drivers/BSP/Components/lis3dsh/lis3dsh.c ****   * FOR ANY DIRECT, INDIRECT, INCIDENTAL, SPECIAL, EXEMPLARY, OR CONSEQUENTIAL
  30:Drivers/BSP/Components/lis3dsh/lis3dsh.c ****   * DAMAGES (INCLUDING, BUT NOT LIMITED TO, PROCUREMENT OF SUBSTITUTE GOODS OR
ARM GAS  /var/folders/0z/tsy30v1j4xl4_7kw94k978ww0000gn/T//ccRAWizm.s 			page 2


  31:Drivers/BSP/Components/lis3dsh/lis3dsh.c ****   * SERVICES; LOSS OF USE, DATA, OR PROFITS; OR BUSINESS INTERRUPTION) HOWEVER
  32:Drivers/BSP/Components/lis3dsh/lis3dsh.c ****   * CAUSED AND ON ANY THEORY OF LIABILITY, WHETHER IN CONTRACT, STRICT LIABILITY,
  33:Drivers/BSP/Components/lis3dsh/lis3dsh.c ****   * OR TORT (INCLUDING NEGLIGENCE OR OTHERWISE) ARISING IN ANY WAY OUT OF THE USE
  34:Drivers/BSP/Components/lis3dsh/lis3dsh.c ****   * OF THIS SOFTWARE, EVEN IF ADVISED OF THE POSSIBILITY OF SUCH DAMAGE.
  35:Drivers/BSP/Components/lis3dsh/lis3dsh.c ****   *
  36:Drivers/BSP/Components/lis3dsh/lis3dsh.c ****   ******************************************************************************
  37:Drivers/BSP/Components/lis3dsh/lis3dsh.c ****   */
  38:Drivers/BSP/Components/lis3dsh/lis3dsh.c **** 
  39:Drivers/BSP/Components/lis3dsh/lis3dsh.c **** /* Includes ------------------------------------------------------------------*/
  40:Drivers/BSP/Components/lis3dsh/lis3dsh.c **** #include "lis3dsh.h"
  41:Drivers/BSP/Components/lis3dsh/lis3dsh.c **** 
  42:Drivers/BSP/Components/lis3dsh/lis3dsh.c **** /** @addtogroup BSP
  43:Drivers/BSP/Components/lis3dsh/lis3dsh.c ****   * @{
  44:Drivers/BSP/Components/lis3dsh/lis3dsh.c ****   */ 
  45:Drivers/BSP/Components/lis3dsh/lis3dsh.c **** 
  46:Drivers/BSP/Components/lis3dsh/lis3dsh.c **** /** @addtogroup Components
  47:Drivers/BSP/Components/lis3dsh/lis3dsh.c ****   * @{
  48:Drivers/BSP/Components/lis3dsh/lis3dsh.c ****   */ 
  49:Drivers/BSP/Components/lis3dsh/lis3dsh.c **** 
  50:Drivers/BSP/Components/lis3dsh/lis3dsh.c **** /** @addtogroup LIS3DSH
  51:Drivers/BSP/Components/lis3dsh/lis3dsh.c ****   * @brief  This file includes the motion sensor driver for LIS3DSH motion sensor 
  52:Drivers/BSP/Components/lis3dsh/lis3dsh.c ****   *         devices.
  53:Drivers/BSP/Components/lis3dsh/lis3dsh.c ****   * @{
  54:Drivers/BSP/Components/lis3dsh/lis3dsh.c ****   */
  55:Drivers/BSP/Components/lis3dsh/lis3dsh.c **** 
  56:Drivers/BSP/Components/lis3dsh/lis3dsh.c **** /** @defgroup LIS3DSH_Private_TypesDefinitions
  57:Drivers/BSP/Components/lis3dsh/lis3dsh.c ****   * @{
  58:Drivers/BSP/Components/lis3dsh/lis3dsh.c ****   */
  59:Drivers/BSP/Components/lis3dsh/lis3dsh.c **** 
  60:Drivers/BSP/Components/lis3dsh/lis3dsh.c **** /**
  61:Drivers/BSP/Components/lis3dsh/lis3dsh.c ****   * @}
  62:Drivers/BSP/Components/lis3dsh/lis3dsh.c ****   */
  63:Drivers/BSP/Components/lis3dsh/lis3dsh.c **** 
  64:Drivers/BSP/Components/lis3dsh/lis3dsh.c **** /** @defgroup LIS3DSH_Private_Defines
  65:Drivers/BSP/Components/lis3dsh/lis3dsh.c ****   * @{
  66:Drivers/BSP/Components/lis3dsh/lis3dsh.c ****   */
  67:Drivers/BSP/Components/lis3dsh/lis3dsh.c **** 
  68:Drivers/BSP/Components/lis3dsh/lis3dsh.c **** /**
  69:Drivers/BSP/Components/lis3dsh/lis3dsh.c ****   * @}
  70:Drivers/BSP/Components/lis3dsh/lis3dsh.c ****   */
  71:Drivers/BSP/Components/lis3dsh/lis3dsh.c **** 
  72:Drivers/BSP/Components/lis3dsh/lis3dsh.c **** /** @defgroup LIS3DSH_Private_Macros
  73:Drivers/BSP/Components/lis3dsh/lis3dsh.c ****   * @{
  74:Drivers/BSP/Components/lis3dsh/lis3dsh.c ****   */
  75:Drivers/BSP/Components/lis3dsh/lis3dsh.c **** 
  76:Drivers/BSP/Components/lis3dsh/lis3dsh.c **** /**
  77:Drivers/BSP/Components/lis3dsh/lis3dsh.c ****   * @}
  78:Drivers/BSP/Components/lis3dsh/lis3dsh.c ****   */ 
  79:Drivers/BSP/Components/lis3dsh/lis3dsh.c ****   
  80:Drivers/BSP/Components/lis3dsh/lis3dsh.c **** /** @defgroup LIS3DSH_Private_Variables
  81:Drivers/BSP/Components/lis3dsh/lis3dsh.c ****   * @{
  82:Drivers/BSP/Components/lis3dsh/lis3dsh.c ****   */
  83:Drivers/BSP/Components/lis3dsh/lis3dsh.c **** ACCELERO_DrvTypeDef Lis3dshDrv =
  84:Drivers/BSP/Components/lis3dsh/lis3dsh.c **** {
  85:Drivers/BSP/Components/lis3dsh/lis3dsh.c ****   LIS3DSH_Init,
  86:Drivers/BSP/Components/lis3dsh/lis3dsh.c ****   LIS3DSH_DeInit,
  87:Drivers/BSP/Components/lis3dsh/lis3dsh.c ****   LIS3DSH_ReadID,
ARM GAS  /var/folders/0z/tsy30v1j4xl4_7kw94k978ww0000gn/T//ccRAWizm.s 			page 3


  88:Drivers/BSP/Components/lis3dsh/lis3dsh.c ****   LIS3DSH_RebootCmd,
  89:Drivers/BSP/Components/lis3dsh/lis3dsh.c ****   LIS3DSH_Click_IntConfig,
  90:Drivers/BSP/Components/lis3dsh/lis3dsh.c ****   0,
  91:Drivers/BSP/Components/lis3dsh/lis3dsh.c ****   0,
  92:Drivers/BSP/Components/lis3dsh/lis3dsh.c ****   0,
  93:Drivers/BSP/Components/lis3dsh/lis3dsh.c ****   0,
  94:Drivers/BSP/Components/lis3dsh/lis3dsh.c ****   0,
  95:Drivers/BSP/Components/lis3dsh/lis3dsh.c ****   0,
  96:Drivers/BSP/Components/lis3dsh/lis3dsh.c ****   0,
  97:Drivers/BSP/Components/lis3dsh/lis3dsh.c ****   LIS3DSH_ReadACC,
  98:Drivers/BSP/Components/lis3dsh/lis3dsh.c **** };
  99:Drivers/BSP/Components/lis3dsh/lis3dsh.c **** 
 100:Drivers/BSP/Components/lis3dsh/lis3dsh.c **** /**
 101:Drivers/BSP/Components/lis3dsh/lis3dsh.c ****   * @}
 102:Drivers/BSP/Components/lis3dsh/lis3dsh.c ****   */
 103:Drivers/BSP/Components/lis3dsh/lis3dsh.c **** 
 104:Drivers/BSP/Components/lis3dsh/lis3dsh.c **** /** @defgroup LIS3DSH_Private_FunctionPrototypes
 105:Drivers/BSP/Components/lis3dsh/lis3dsh.c ****   * @{
 106:Drivers/BSP/Components/lis3dsh/lis3dsh.c ****   */
 107:Drivers/BSP/Components/lis3dsh/lis3dsh.c ****   
 108:Drivers/BSP/Components/lis3dsh/lis3dsh.c **** /**
 109:Drivers/BSP/Components/lis3dsh/lis3dsh.c ****   * @}
 110:Drivers/BSP/Components/lis3dsh/lis3dsh.c ****   */
 111:Drivers/BSP/Components/lis3dsh/lis3dsh.c **** 
 112:Drivers/BSP/Components/lis3dsh/lis3dsh.c **** /** @defgroup LIS3DSH_Private_Functions
 113:Drivers/BSP/Components/lis3dsh/lis3dsh.c ****   * @{
 114:Drivers/BSP/Components/lis3dsh/lis3dsh.c ****   */
 115:Drivers/BSP/Components/lis3dsh/lis3dsh.c **** 
 116:Drivers/BSP/Components/lis3dsh/lis3dsh.c **** /**
 117:Drivers/BSP/Components/lis3dsh/lis3dsh.c ****   * @brief  Set LIS3DSH Initialization.
 118:Drivers/BSP/Components/lis3dsh/lis3dsh.c ****   * @param  InitStruct: contains mask of different init parameters
 119:Drivers/BSP/Components/lis3dsh/lis3dsh.c ****   * @retval None
 120:Drivers/BSP/Components/lis3dsh/lis3dsh.c ****   */
 121:Drivers/BSP/Components/lis3dsh/lis3dsh.c **** void LIS3DSH_Init(uint16_t InitStruct)
 122:Drivers/BSP/Components/lis3dsh/lis3dsh.c **** {
 123:Drivers/BSP/Components/lis3dsh/lis3dsh.c ****   uint8_t ctrl = 0x00;
 124:Drivers/BSP/Components/lis3dsh/lis3dsh.c ****   
 125:Drivers/BSP/Components/lis3dsh/lis3dsh.c ****   /* Configure the low level interface */
 126:Drivers/BSP/Components/lis3dsh/lis3dsh.c ****   ACCELERO_IO_Init();
 127:Drivers/BSP/Components/lis3dsh/lis3dsh.c **** 
 128:Drivers/BSP/Components/lis3dsh/lis3dsh.c ****   /* Configure MEMS: power mode(ODR) and axes enable */
 129:Drivers/BSP/Components/lis3dsh/lis3dsh.c ****   ctrl = (uint8_t) (InitStruct);
 130:Drivers/BSP/Components/lis3dsh/lis3dsh.c ****   
 131:Drivers/BSP/Components/lis3dsh/lis3dsh.c ****   /* Write value to MEMS CTRL_REG4 register */
 132:Drivers/BSP/Components/lis3dsh/lis3dsh.c ****   ACCELERO_IO_Write(&ctrl, LIS3DSH_CTRL_REG4_ADDR, 1);
 133:Drivers/BSP/Components/lis3dsh/lis3dsh.c ****   
 134:Drivers/BSP/Components/lis3dsh/lis3dsh.c ****   /* Configure MEMS: full scale and self test */
 135:Drivers/BSP/Components/lis3dsh/lis3dsh.c ****   ctrl = (uint8_t) (InitStruct >> 8);
 136:Drivers/BSP/Components/lis3dsh/lis3dsh.c ****   
 137:Drivers/BSP/Components/lis3dsh/lis3dsh.c ****   /* Write value to MEMS CTRL_REG5 register */
 138:Drivers/BSP/Components/lis3dsh/lis3dsh.c ****   ACCELERO_IO_Write(&ctrl, LIS3DSH_CTRL_REG5_ADDR, 1);
 139:Drivers/BSP/Components/lis3dsh/lis3dsh.c **** }
 140:Drivers/BSP/Components/lis3dsh/lis3dsh.c **** 
 141:Drivers/BSP/Components/lis3dsh/lis3dsh.c **** /**
 142:Drivers/BSP/Components/lis3dsh/lis3dsh.c ****   * @brief  LIS3DSH De-Initialization.
 143:Drivers/BSP/Components/lis3dsh/lis3dsh.c ****   * @param  None
 144:Drivers/BSP/Components/lis3dsh/lis3dsh.c ****   * @retval None.
ARM GAS  /var/folders/0z/tsy30v1j4xl4_7kw94k978ww0000gn/T//ccRAWizm.s 			page 4


 145:Drivers/BSP/Components/lis3dsh/lis3dsh.c ****   */
 146:Drivers/BSP/Components/lis3dsh/lis3dsh.c **** void LIS3DSH_DeInit(void)
 147:Drivers/BSP/Components/lis3dsh/lis3dsh.c **** {
  29              		.loc 1 147 1 view -0
  30              		.cfi_startproc
  31              		@ args = 0, pretend = 0, frame = 0
  32              		@ frame_needed = 0, uses_anonymous_args = 0
  33              		@ link register save eliminated.
 148:Drivers/BSP/Components/lis3dsh/lis3dsh.c ****   
 149:Drivers/BSP/Components/lis3dsh/lis3dsh.c **** }
  34              		.loc 1 149 1 view .LVU1
  35 0000 7047     		bx	lr
  36              		.cfi_endproc
  37              	.LFE1:
  39              		.section	.text.LIS3DSH_Init,"ax",%progbits
  40              		.align	1
  41              		.global	LIS3DSH_Init
  42              		.syntax unified
  43              		.thumb
  44              		.thumb_func
  46              	LIS3DSH_Init:
  47              	.LVL0:
  48              	.LFB0:
 122:Drivers/BSP/Components/lis3dsh/lis3dsh.c ****   uint8_t ctrl = 0x00;
  49              		.loc 1 122 1 view -0
  50              		.cfi_startproc
  51              		@ args = 0, pretend = 0, frame = 8
  52              		@ frame_needed = 0, uses_anonymous_args = 0
 122:Drivers/BSP/Components/lis3dsh/lis3dsh.c ****   uint8_t ctrl = 0x00;
  53              		.loc 1 122 1 is_stmt 0 view .LVU3
  54 0000 10B5     		push	{r4, lr}
  55              		.cfi_def_cfa_offset 8
  56              		.cfi_offset 4, -8
  57              		.cfi_offset 14, -4
  58 0002 82B0     		sub	sp, sp, #8
  59              		.cfi_def_cfa_offset 16
  60 0004 0446     		mov	r4, r0
 123:Drivers/BSP/Components/lis3dsh/lis3dsh.c ****   
  61              		.loc 1 123 3 is_stmt 1 view .LVU4
 123:Drivers/BSP/Components/lis3dsh/lis3dsh.c ****   
  62              		.loc 1 123 11 is_stmt 0 view .LVU5
  63 0006 0023     		movs	r3, #0
  64 0008 8DF80730 		strb	r3, [sp, #7]
 126:Drivers/BSP/Components/lis3dsh/lis3dsh.c **** 
  65              		.loc 1 126 3 is_stmt 1 view .LVU6
  66 000c FFF7FEFF 		bl	ACCELERO_IO_Init
  67              	.LVL1:
 129:Drivers/BSP/Components/lis3dsh/lis3dsh.c ****   
  68              		.loc 1 129 3 view .LVU7
 129:Drivers/BSP/Components/lis3dsh/lis3dsh.c ****   
  69              		.loc 1 129 8 is_stmt 0 view .LVU8
  70 0010 8DF80740 		strb	r4, [sp, #7]
 132:Drivers/BSP/Components/lis3dsh/lis3dsh.c ****   
  71              		.loc 1 132 3 is_stmt 1 view .LVU9
  72 0014 0122     		movs	r2, #1
  73 0016 2021     		movs	r1, #32
  74 0018 0DF10700 		add	r0, sp, #7
ARM GAS  /var/folders/0z/tsy30v1j4xl4_7kw94k978ww0000gn/T//ccRAWizm.s 			page 5


  75 001c FFF7FEFF 		bl	ACCELERO_IO_Write
  76              	.LVL2:
 135:Drivers/BSP/Components/lis3dsh/lis3dsh.c ****   
  77              		.loc 1 135 3 view .LVU10
 135:Drivers/BSP/Components/lis3dsh/lis3dsh.c ****   
  78              		.loc 1 135 10 is_stmt 0 view .LVU11
  79 0020 240A     		lsrs	r4, r4, #8
 135:Drivers/BSP/Components/lis3dsh/lis3dsh.c ****   
  80              		.loc 1 135 8 view .LVU12
  81 0022 8DF80740 		strb	r4, [sp, #7]
 138:Drivers/BSP/Components/lis3dsh/lis3dsh.c **** }
  82              		.loc 1 138 3 is_stmt 1 view .LVU13
  83 0026 0122     		movs	r2, #1
  84 0028 2421     		movs	r1, #36
  85 002a 0DF10700 		add	r0, sp, #7
  86 002e FFF7FEFF 		bl	ACCELERO_IO_Write
  87              	.LVL3:
 139:Drivers/BSP/Components/lis3dsh/lis3dsh.c **** 
  88              		.loc 1 139 1 is_stmt 0 view .LVU14
  89 0032 02B0     		add	sp, sp, #8
  90              		.cfi_def_cfa_offset 8
  91              		@ sp needed
  92 0034 10BD     		pop	{r4, pc}
  93              		.cfi_endproc
  94              	.LFE0:
  96              		.section	.text.LIS3DSH_ReadID,"ax",%progbits
  97              		.align	1
  98              		.global	LIS3DSH_ReadID
  99              		.syntax unified
 100              		.thumb
 101              		.thumb_func
 103              	LIS3DSH_ReadID:
 104              	.LFB2:
 150:Drivers/BSP/Components/lis3dsh/lis3dsh.c **** 
 151:Drivers/BSP/Components/lis3dsh/lis3dsh.c **** /**
 152:Drivers/BSP/Components/lis3dsh/lis3dsh.c ****   * @brief  Read LIS3DSH device ID.
 153:Drivers/BSP/Components/lis3dsh/lis3dsh.c ****   * @param  None
 154:Drivers/BSP/Components/lis3dsh/lis3dsh.c ****   * @retval The Device ID (two bytes).
 155:Drivers/BSP/Components/lis3dsh/lis3dsh.c ****   */
 156:Drivers/BSP/Components/lis3dsh/lis3dsh.c **** uint8_t LIS3DSH_ReadID(void)
 157:Drivers/BSP/Components/lis3dsh/lis3dsh.c **** {
 105              		.loc 1 157 1 is_stmt 1 view -0
 106              		.cfi_startproc
 107              		@ args = 0, pretend = 0, frame = 8
 108              		@ frame_needed = 0, uses_anonymous_args = 0
 109 0000 00B5     		push	{lr}
 110              		.cfi_def_cfa_offset 4
 111              		.cfi_offset 14, -4
 112 0002 83B0     		sub	sp, sp, #12
 113              		.cfi_def_cfa_offset 16
 158:Drivers/BSP/Components/lis3dsh/lis3dsh.c ****   uint8_t tmp = 0;
 114              		.loc 1 158 3 view .LVU16
 115              		.loc 1 158 11 is_stmt 0 view .LVU17
 116 0004 0023     		movs	r3, #0
 117 0006 8DF80730 		strb	r3, [sp, #7]
 159:Drivers/BSP/Components/lis3dsh/lis3dsh.c **** 
 160:Drivers/BSP/Components/lis3dsh/lis3dsh.c ****   /* Configure the low level interface */
ARM GAS  /var/folders/0z/tsy30v1j4xl4_7kw94k978ww0000gn/T//ccRAWizm.s 			page 6


 161:Drivers/BSP/Components/lis3dsh/lis3dsh.c ****   ACCELERO_IO_Init();
 118              		.loc 1 161 3 is_stmt 1 view .LVU18
 119 000a FFF7FEFF 		bl	ACCELERO_IO_Init
 120              	.LVL4:
 162:Drivers/BSP/Components/lis3dsh/lis3dsh.c **** 
 163:Drivers/BSP/Components/lis3dsh/lis3dsh.c ****   /* Read WHO_AM_I register */
 164:Drivers/BSP/Components/lis3dsh/lis3dsh.c ****   ACCELERO_IO_Read(&tmp, LIS3DSH_WHO_AM_I_ADDR, 1);
 121              		.loc 1 164 3 view .LVU19
 122 000e 0122     		movs	r2, #1
 123 0010 0F21     		movs	r1, #15
 124 0012 0DF10700 		add	r0, sp, #7
 125 0016 FFF7FEFF 		bl	ACCELERO_IO_Read
 126              	.LVL5:
 165:Drivers/BSP/Components/lis3dsh/lis3dsh.c ****   
 166:Drivers/BSP/Components/lis3dsh/lis3dsh.c ****   /* Return the ID */
 167:Drivers/BSP/Components/lis3dsh/lis3dsh.c ****   return (uint16_t)tmp;
 127              		.loc 1 167 3 view .LVU20
 168:Drivers/BSP/Components/lis3dsh/lis3dsh.c **** }
 128              		.loc 1 168 1 is_stmt 0 view .LVU21
 129 001a 9DF80700 		ldrb	r0, [sp, #7]	@ zero_extendqisi2
 130 001e 03B0     		add	sp, sp, #12
 131              		.cfi_def_cfa_offset 4
 132              		@ sp needed
 133 0020 5DF804FB 		ldr	pc, [sp], #4
 134              		.cfi_endproc
 135              	.LFE2:
 137              		.section	.text.LIS3DSH_RebootCmd,"ax",%progbits
 138              		.align	1
 139              		.global	LIS3DSH_RebootCmd
 140              		.syntax unified
 141              		.thumb
 142              		.thumb_func
 144              	LIS3DSH_RebootCmd:
 145              	.LFB8:
 169:Drivers/BSP/Components/lis3dsh/lis3dsh.c **** 
 170:Drivers/BSP/Components/lis3dsh/lis3dsh.c **** /**
 171:Drivers/BSP/Components/lis3dsh/lis3dsh.c ****   * @brief  Set LIS3DSH Interrupt configuration
 172:Drivers/BSP/Components/lis3dsh/lis3dsh.c ****   * @param  LIS3DSH_InterruptConfig_TypeDef: pointer to a LIS3DSH_InterruptConfig_TypeDef 
 173:Drivers/BSP/Components/lis3dsh/lis3dsh.c ****   *         structure that contains the configuration setting for the LIS3DSH Interrupt.
 174:Drivers/BSP/Components/lis3dsh/lis3dsh.c ****   * @retval None
 175:Drivers/BSP/Components/lis3dsh/lis3dsh.c ****   */
 176:Drivers/BSP/Components/lis3dsh/lis3dsh.c **** void LIS3DSH_InterruptConfig(LIS3DSH_InterruptConfigTypeDef *LIS3DSH_IntConfigStruct)
 177:Drivers/BSP/Components/lis3dsh/lis3dsh.c **** {
 178:Drivers/BSP/Components/lis3dsh/lis3dsh.c ****   uint8_t ctrl = 0x00;
 179:Drivers/BSP/Components/lis3dsh/lis3dsh.c ****   
 180:Drivers/BSP/Components/lis3dsh/lis3dsh.c ****   /* Configure Interrupt Selection , Request and Signal */                   
 181:Drivers/BSP/Components/lis3dsh/lis3dsh.c ****   ctrl = (uint8_t)(LIS3DSH_IntConfigStruct->Interrupt_Selection_Enable | \
 182:Drivers/BSP/Components/lis3dsh/lis3dsh.c ****                    LIS3DSH_IntConfigStruct->Interrupt_Request | \
 183:Drivers/BSP/Components/lis3dsh/lis3dsh.c ****                    LIS3DSH_IntConfigStruct->Interrupt_Signal);
 184:Drivers/BSP/Components/lis3dsh/lis3dsh.c ****   
 185:Drivers/BSP/Components/lis3dsh/lis3dsh.c ****   /* Write value to MEMS CTRL_REG3 register */
 186:Drivers/BSP/Components/lis3dsh/lis3dsh.c ****   ACCELERO_IO_Write(&ctrl, LIS3DSH_CTRL_REG3_ADDR, 1);
 187:Drivers/BSP/Components/lis3dsh/lis3dsh.c ****   
 188:Drivers/BSP/Components/lis3dsh/lis3dsh.c ****   /* Configure State Machine 1 */                   
 189:Drivers/BSP/Components/lis3dsh/lis3dsh.c ****   ctrl = (uint8_t)(LIS3DSH_IntConfigStruct->State_Machine1_Enable | \
 190:Drivers/BSP/Components/lis3dsh/lis3dsh.c ****                    LIS3DSH_IntConfigStruct->State_Machine1_Interrupt);
 191:Drivers/BSP/Components/lis3dsh/lis3dsh.c ****   
ARM GAS  /var/folders/0z/tsy30v1j4xl4_7kw94k978ww0000gn/T//ccRAWizm.s 			page 7


 192:Drivers/BSP/Components/lis3dsh/lis3dsh.c ****   /* Write value to MEMS CTRL_REG1 register */
 193:Drivers/BSP/Components/lis3dsh/lis3dsh.c ****   ACCELERO_IO_Write(&ctrl, LIS3DSH_CTRL_REG1_ADDR, 1);
 194:Drivers/BSP/Components/lis3dsh/lis3dsh.c ****   
 195:Drivers/BSP/Components/lis3dsh/lis3dsh.c ****   /* Configure State Machine 2 */                   
 196:Drivers/BSP/Components/lis3dsh/lis3dsh.c ****   ctrl = (uint8_t)(LIS3DSH_IntConfigStruct->State_Machine2_Enable | \
 197:Drivers/BSP/Components/lis3dsh/lis3dsh.c ****                    LIS3DSH_IntConfigStruct->State_Machine2_Interrupt);
 198:Drivers/BSP/Components/lis3dsh/lis3dsh.c ****   
 199:Drivers/BSP/Components/lis3dsh/lis3dsh.c ****   /* Write value to MEMS CTRL_REG2 register */
 200:Drivers/BSP/Components/lis3dsh/lis3dsh.c ****   ACCELERO_IO_Write(&ctrl, LIS3DSH_CTRL_REG2_ADDR, 1);
 201:Drivers/BSP/Components/lis3dsh/lis3dsh.c **** }
 202:Drivers/BSP/Components/lis3dsh/lis3dsh.c **** 
 203:Drivers/BSP/Components/lis3dsh/lis3dsh.c **** /**
 204:Drivers/BSP/Components/lis3dsh/lis3dsh.c ****   * @brief  Set LIS3DSH for click detection
 205:Drivers/BSP/Components/lis3dsh/lis3dsh.c ****   * @param  None
 206:Drivers/BSP/Components/lis3dsh/lis3dsh.c ****   * @retval None
 207:Drivers/BSP/Components/lis3dsh/lis3dsh.c ****   */
 208:Drivers/BSP/Components/lis3dsh/lis3dsh.c **** void LIS3DSH_Click_IntConfig(void)
 209:Drivers/BSP/Components/lis3dsh/lis3dsh.c **** {
 210:Drivers/BSP/Components/lis3dsh/lis3dsh.c ****   uint8_t ctrl = 0x00;
 211:Drivers/BSP/Components/lis3dsh/lis3dsh.c ****   LIS3DSH_InterruptConfigTypeDef   LIS3DSH_InterruptStruct; 
 212:Drivers/BSP/Components/lis3dsh/lis3dsh.c **** 
 213:Drivers/BSP/Components/lis3dsh/lis3dsh.c ****   ACCELERO_IO_ITConfig();
 214:Drivers/BSP/Components/lis3dsh/lis3dsh.c **** 
 215:Drivers/BSP/Components/lis3dsh/lis3dsh.c ****   /* Set LIS3DSH Interrupt configuration */
 216:Drivers/BSP/Components/lis3dsh/lis3dsh.c ****   LIS3DSH_InterruptStruct.Interrupt_Selection_Enable = LIS3DSH_INTERRUPT_2_ENABLE;
 217:Drivers/BSP/Components/lis3dsh/lis3dsh.c ****   LIS3DSH_InterruptStruct.Interrupt_Request = LIS3DSH_INTERRUPT_REQUEST_LATCHED;
 218:Drivers/BSP/Components/lis3dsh/lis3dsh.c ****   LIS3DSH_InterruptStruct.Interrupt_Signal = LIS3DSH_INTERRUPT_SIGNAL_HIGH;
 219:Drivers/BSP/Components/lis3dsh/lis3dsh.c ****   LIS3DSH_InterruptStruct.State_Machine1_Enable = LIS3DSH_SM_DISABLE;
 220:Drivers/BSP/Components/lis3dsh/lis3dsh.c ****   LIS3DSH_InterruptStruct.State_Machine2_Enable = LIS3DSH_SM_ENABLE;
 221:Drivers/BSP/Components/lis3dsh/lis3dsh.c ****   LIS3DSH_InterruptStruct.State_Machine2_Interrupt = LIS3DSH_SM_INT1;
 222:Drivers/BSP/Components/lis3dsh/lis3dsh.c ****   LIS3DSH_InterruptConfig(&LIS3DSH_InterruptStruct);
 223:Drivers/BSP/Components/lis3dsh/lis3dsh.c ****     
 224:Drivers/BSP/Components/lis3dsh/lis3dsh.c ****   /* Set LIS3DSH State Machines configuration */
 225:Drivers/BSP/Components/lis3dsh/lis3dsh.c ****   ctrl=0x03; 
 226:Drivers/BSP/Components/lis3dsh/lis3dsh.c ****   ACCELERO_IO_Write(&ctrl, LIS3DSH_TIM2_1_L_ADDR,1);
 227:Drivers/BSP/Components/lis3dsh/lis3dsh.c ****   ctrl=0xC8; 
 228:Drivers/BSP/Components/lis3dsh/lis3dsh.c ****   ACCELERO_IO_Write(&ctrl, LIS3DSH_TIM1_1_L_ADDR,1);
 229:Drivers/BSP/Components/lis3dsh/lis3dsh.c ****   ctrl=0x45; 
 230:Drivers/BSP/Components/lis3dsh/lis3dsh.c ****   ACCELERO_IO_Write(&ctrl, LIS3DSH_THRS2_1_ADDR,1);
 231:Drivers/BSP/Components/lis3dsh/lis3dsh.c ****   ctrl=0xFC; 
 232:Drivers/BSP/Components/lis3dsh/lis3dsh.c ****   ACCELERO_IO_Write(&ctrl, LIS3DSH_MASK1_A_ADDR,1);
 233:Drivers/BSP/Components/lis3dsh/lis3dsh.c ****   ctrl=0xA1; 
 234:Drivers/BSP/Components/lis3dsh/lis3dsh.c ****   ACCELERO_IO_Write(&ctrl, LIS3DSH_SETT1_ADDR,1);
 235:Drivers/BSP/Components/lis3dsh/lis3dsh.c ****   ctrl=0x01; 
 236:Drivers/BSP/Components/lis3dsh/lis3dsh.c ****   ACCELERO_IO_Write(&ctrl, LIS3DSH_PR1_ADDR,1);
 237:Drivers/BSP/Components/lis3dsh/lis3dsh.c **** 
 238:Drivers/BSP/Components/lis3dsh/lis3dsh.c ****   ACCELERO_IO_Write(&ctrl, LIS3DSH_SETT2_ADDR,1);
 239:Drivers/BSP/Components/lis3dsh/lis3dsh.c ****   
 240:Drivers/BSP/Components/lis3dsh/lis3dsh.c ****   /* Configure State Machine 2 to detect single click */
 241:Drivers/BSP/Components/lis3dsh/lis3dsh.c ****   ACCELERO_IO_Write(&ctrl, LIS3DSH_ST2_1_ADDR,1);
 242:Drivers/BSP/Components/lis3dsh/lis3dsh.c ****   ctrl=0x06; 
 243:Drivers/BSP/Components/lis3dsh/lis3dsh.c ****   ACCELERO_IO_Write(&ctrl, LIS3DSH_ST2_2_ADDR,1);
 244:Drivers/BSP/Components/lis3dsh/lis3dsh.c ****   ctrl=0x28; 
 245:Drivers/BSP/Components/lis3dsh/lis3dsh.c ****   ACCELERO_IO_Write(&ctrl, LIS3DSH_ST2_3_ADDR,1);
 246:Drivers/BSP/Components/lis3dsh/lis3dsh.c ****   ctrl=0x11; 
 247:Drivers/BSP/Components/lis3dsh/lis3dsh.c ****   ACCELERO_IO_Write(&ctrl, LIS3DSH_ST2_4_ADDR,1);
 248:Drivers/BSP/Components/lis3dsh/lis3dsh.c **** }
ARM GAS  /var/folders/0z/tsy30v1j4xl4_7kw94k978ww0000gn/T//ccRAWizm.s 			page 8


 249:Drivers/BSP/Components/lis3dsh/lis3dsh.c **** 
 250:Drivers/BSP/Components/lis3dsh/lis3dsh.c **** /**
 251:Drivers/BSP/Components/lis3dsh/lis3dsh.c ****   * @brief  Change the lowpower mode for LIS3DSH.
 252:Drivers/BSP/Components/lis3dsh/lis3dsh.c ****   * @param  LowPowerMode: new state for the lowpower mode.
 253:Drivers/BSP/Components/lis3dsh/lis3dsh.c ****   *   This parameter can be one of the following values:
 254:Drivers/BSP/Components/lis3dsh/lis3dsh.c ****   *     @arg LIS3DSH_DATARATE_POWERDOWN: Power down mode
 255:Drivers/BSP/Components/lis3dsh/lis3dsh.c ****   *     @arg LIS3DSH_DATARATE_3_125: Normal mode. ODR: 3.125 Hz
 256:Drivers/BSP/Components/lis3dsh/lis3dsh.c ****   *     @arg LIS3DSH_DATARATE_6_25: Normal mode. ODR: 6.25 Hz
 257:Drivers/BSP/Components/lis3dsh/lis3dsh.c ****   *     @arg LIS3DSH_DATARATE_12_5: Normal mode. ODR: 12.5 Hz
 258:Drivers/BSP/Components/lis3dsh/lis3dsh.c ****   *     @arg LIS3DSH_DATARATE_25: Normal mode. ODR: 25 Hz
 259:Drivers/BSP/Components/lis3dsh/lis3dsh.c ****   *     @arg LIS3DSH_DATARATE_50: Normal mode. ODR: 50 Hz
 260:Drivers/BSP/Components/lis3dsh/lis3dsh.c ****   *     @arg LIS3DSH_DATARATE_100: Normal mode. ODR: 100 Hz
 261:Drivers/BSP/Components/lis3dsh/lis3dsh.c ****   *     @arg LIS3DSH_DATARATE_400: Normal mode. ODR: 400 Hz
 262:Drivers/BSP/Components/lis3dsh/lis3dsh.c ****   *     @arg LIS3DSH_DATARATE_800: Normal mode. ODR: 800 Hz
 263:Drivers/BSP/Components/lis3dsh/lis3dsh.c ****   *     @arg LIS3DSH_DATARATE_1600: Normal mode. ODR: 1600 Hz
 264:Drivers/BSP/Components/lis3dsh/lis3dsh.c ****   * @retval None
 265:Drivers/BSP/Components/lis3dsh/lis3dsh.c ****   */
 266:Drivers/BSP/Components/lis3dsh/lis3dsh.c **** void LIS3DSH_ODR_LowpowerCmd(uint8_t ODR_LowPowerMode)
 267:Drivers/BSP/Components/lis3dsh/lis3dsh.c **** {
 268:Drivers/BSP/Components/lis3dsh/lis3dsh.c ****   uint8_t tmpreg;
 269:Drivers/BSP/Components/lis3dsh/lis3dsh.c ****   
 270:Drivers/BSP/Components/lis3dsh/lis3dsh.c ****   /* Read CTRL_REG4 register */
 271:Drivers/BSP/Components/lis3dsh/lis3dsh.c ****   ACCELERO_IO_Read(&tmpreg, LIS3DSH_CTRL_REG4_ADDR, 1);
 272:Drivers/BSP/Components/lis3dsh/lis3dsh.c ****   
 273:Drivers/BSP/Components/lis3dsh/lis3dsh.c ****   /* Set new low power mode configuration */
 274:Drivers/BSP/Components/lis3dsh/lis3dsh.c ****   tmpreg &= (uint8_t)~LIS3DSH_DATARATE_100;
 275:Drivers/BSP/Components/lis3dsh/lis3dsh.c ****   tmpreg |= ODR_LowPowerMode;
 276:Drivers/BSP/Components/lis3dsh/lis3dsh.c ****   
 277:Drivers/BSP/Components/lis3dsh/lis3dsh.c ****   /* Write value to MEMS CTRL_REG4 register */
 278:Drivers/BSP/Components/lis3dsh/lis3dsh.c ****   ACCELERO_IO_Write(&tmpreg, LIS3DSH_CTRL_REG4_ADDR, 1);
 279:Drivers/BSP/Components/lis3dsh/lis3dsh.c **** }
 280:Drivers/BSP/Components/lis3dsh/lis3dsh.c **** 
 281:Drivers/BSP/Components/lis3dsh/lis3dsh.c **** /**
 282:Drivers/BSP/Components/lis3dsh/lis3dsh.c ****   * @brief  Data Rate command. 
 283:Drivers/BSP/Components/lis3dsh/lis3dsh.c ****   * @param  DataRateValue: Data rate value.
 284:Drivers/BSP/Components/lis3dsh/lis3dsh.c ****   *   This parameter can be one of the following values:
 285:Drivers/BSP/Components/lis3dsh/lis3dsh.c ****   *     @arg LIS3DSH_DATARATE_3_125: 3.125 Hz output data rate 
 286:Drivers/BSP/Components/lis3dsh/lis3dsh.c ****   *     @arg LIS3DSH_DATARATE_6_25: 6.25 Hz output data rate
 287:Drivers/BSP/Components/lis3dsh/lis3dsh.c ****   *     @arg LIS3DSH_DATARATE_12_5: 12.5  Hz output data rate
 288:Drivers/BSP/Components/lis3dsh/lis3dsh.c ****   *     @arg LIS3DSH_DATARATE_25: 25 Hz output data rate
 289:Drivers/BSP/Components/lis3dsh/lis3dsh.c ****   *     @arg LIS3DSH_DATARATE_50: 50 Hz output data rate 
 290:Drivers/BSP/Components/lis3dsh/lis3dsh.c ****   *     @arg LIS3DSH_DATARATE_100: 100 Hz output data rate
 291:Drivers/BSP/Components/lis3dsh/lis3dsh.c ****   *     @arg LIS3DSH_DATARATE_400: 400 Hz output data rate 
 292:Drivers/BSP/Components/lis3dsh/lis3dsh.c ****   *     @arg LIS3DSH_DATARATE_800: 800 Hz output data rate
 293:Drivers/BSP/Components/lis3dsh/lis3dsh.c ****   *     @arg LIS3DSH_DATARATE_1600: 1600 Hz output data rate
 294:Drivers/BSP/Components/lis3dsh/lis3dsh.c ****   * @retval None
 295:Drivers/BSP/Components/lis3dsh/lis3dsh.c ****   */
 296:Drivers/BSP/Components/lis3dsh/lis3dsh.c **** void LIS3DSH_DataRateCmd(uint8_t DataRateValue)
 297:Drivers/BSP/Components/lis3dsh/lis3dsh.c **** {
 298:Drivers/BSP/Components/lis3dsh/lis3dsh.c ****   uint8_t tmpreg;
 299:Drivers/BSP/Components/lis3dsh/lis3dsh.c ****   
 300:Drivers/BSP/Components/lis3dsh/lis3dsh.c ****   /* Read CTRL_REG4 register */
 301:Drivers/BSP/Components/lis3dsh/lis3dsh.c ****   ACCELERO_IO_Read(&tmpreg, LIS3DSH_CTRL_REG4_ADDR, 1);
 302:Drivers/BSP/Components/lis3dsh/lis3dsh.c ****   
 303:Drivers/BSP/Components/lis3dsh/lis3dsh.c ****   /* Set new data rate configuration from 100 to 400Hz */
 304:Drivers/BSP/Components/lis3dsh/lis3dsh.c ****   tmpreg &= (uint8_t)~LIS3DSH_DATARATE_400; 
 305:Drivers/BSP/Components/lis3dsh/lis3dsh.c ****   tmpreg |= DataRateValue;
ARM GAS  /var/folders/0z/tsy30v1j4xl4_7kw94k978ww0000gn/T//ccRAWizm.s 			page 9


 306:Drivers/BSP/Components/lis3dsh/lis3dsh.c ****   
 307:Drivers/BSP/Components/lis3dsh/lis3dsh.c ****   /* Write value to MEMS CTRL_REG4 register */
 308:Drivers/BSP/Components/lis3dsh/lis3dsh.c ****   ACCELERO_IO_Write(&tmpreg, LIS3DSH_CTRL_REG4_ADDR, 1);
 309:Drivers/BSP/Components/lis3dsh/lis3dsh.c **** }
 310:Drivers/BSP/Components/lis3dsh/lis3dsh.c **** 
 311:Drivers/BSP/Components/lis3dsh/lis3dsh.c **** /**
 312:Drivers/BSP/Components/lis3dsh/lis3dsh.c ****   * @brief  Change the Full Scale of LIS3DSH.
 313:Drivers/BSP/Components/lis3dsh/lis3dsh.c ****   * @param  FS_value: new full scale value. 
 314:Drivers/BSP/Components/lis3dsh/lis3dsh.c ****   *   This parameter can be one of the following values:
 315:Drivers/BSP/Components/lis3dsh/lis3dsh.c ****   *     @arg LIS3DSH_FULLSCALE_2: +-2g
 316:Drivers/BSP/Components/lis3dsh/lis3dsh.c ****   *     @arg LIS3DSH_FULLSCALE_4: +-4g
 317:Drivers/BSP/Components/lis3dsh/lis3dsh.c ****   *     @arg LIS3DSH_FULLSCALE_6: +-6g
 318:Drivers/BSP/Components/lis3dsh/lis3dsh.c ****   *     @arg LIS3DSH_FULLSCALE_8: +-8g
 319:Drivers/BSP/Components/lis3dsh/lis3dsh.c ****   *     @arg LIS3DSH_FULLSCALE_16: +-16g
 320:Drivers/BSP/Components/lis3dsh/lis3dsh.c ****   * @retval None
 321:Drivers/BSP/Components/lis3dsh/lis3dsh.c ****   */
 322:Drivers/BSP/Components/lis3dsh/lis3dsh.c **** void LIS3DSH_FullScaleCmd(uint8_t FS_value)
 323:Drivers/BSP/Components/lis3dsh/lis3dsh.c **** {
 324:Drivers/BSP/Components/lis3dsh/lis3dsh.c ****   uint8_t tmpreg;
 325:Drivers/BSP/Components/lis3dsh/lis3dsh.c ****   
 326:Drivers/BSP/Components/lis3dsh/lis3dsh.c ****   /* Read CTRL_REG5 register */
 327:Drivers/BSP/Components/lis3dsh/lis3dsh.c ****   ACCELERO_IO_Read(&tmpreg, LIS3DSH_CTRL_REG5_ADDR, 1);
 328:Drivers/BSP/Components/lis3dsh/lis3dsh.c ****   
 329:Drivers/BSP/Components/lis3dsh/lis3dsh.c ****   /* Set new full scale configuration */
 330:Drivers/BSP/Components/lis3dsh/lis3dsh.c ****   tmpreg &= (uint8_t)~LIS3DSH_FULLSCALE_16;
 331:Drivers/BSP/Components/lis3dsh/lis3dsh.c ****   tmpreg |= FS_value;
 332:Drivers/BSP/Components/lis3dsh/lis3dsh.c ****   
 333:Drivers/BSP/Components/lis3dsh/lis3dsh.c ****   /* Write value to MEMS CTRL_REG5 register */
 334:Drivers/BSP/Components/lis3dsh/lis3dsh.c ****   ACCELERO_IO_Write(&tmpreg, LIS3DSH_CTRL_REG5_ADDR, 1);
 335:Drivers/BSP/Components/lis3dsh/lis3dsh.c **** }
 336:Drivers/BSP/Components/lis3dsh/lis3dsh.c **** 
 337:Drivers/BSP/Components/lis3dsh/lis3dsh.c **** /**
 338:Drivers/BSP/Components/lis3dsh/lis3dsh.c ****   * @brief  Reboot memory content of LIS3DSH.
 339:Drivers/BSP/Components/lis3dsh/lis3dsh.c ****   * @param  None
 340:Drivers/BSP/Components/lis3dsh/lis3dsh.c ****   * @retval None
 341:Drivers/BSP/Components/lis3dsh/lis3dsh.c ****   */
 342:Drivers/BSP/Components/lis3dsh/lis3dsh.c **** void LIS3DSH_RebootCmd(void)
 343:Drivers/BSP/Components/lis3dsh/lis3dsh.c **** {
 146              		.loc 1 343 1 is_stmt 1 view -0
 147              		.cfi_startproc
 148              		@ args = 0, pretend = 0, frame = 8
 149              		@ frame_needed = 0, uses_anonymous_args = 0
 150 0000 00B5     		push	{lr}
 151              		.cfi_def_cfa_offset 4
 152              		.cfi_offset 14, -4
 153 0002 83B0     		sub	sp, sp, #12
 154              		.cfi_def_cfa_offset 16
 344:Drivers/BSP/Components/lis3dsh/lis3dsh.c ****   uint8_t tmpreg;
 155              		.loc 1 344 3 view .LVU23
 345:Drivers/BSP/Components/lis3dsh/lis3dsh.c ****   /* Read CTRL_REG6 register */
 346:Drivers/BSP/Components/lis3dsh/lis3dsh.c ****   ACCELERO_IO_Read(&tmpreg, LIS3DSH_CTRL_REG6_ADDR, 1);
 156              		.loc 1 346 3 view .LVU24
 157 0004 0122     		movs	r2, #1
 158 0006 2521     		movs	r1, #37
 159 0008 0DF10700 		add	r0, sp, #7
 160 000c FFF7FEFF 		bl	ACCELERO_IO_Read
 161              	.LVL6:
ARM GAS  /var/folders/0z/tsy30v1j4xl4_7kw94k978ww0000gn/T//ccRAWizm.s 			page 10


 347:Drivers/BSP/Components/lis3dsh/lis3dsh.c ****   
 348:Drivers/BSP/Components/lis3dsh/lis3dsh.c ****   /* Enable or Disable the reboot memory */
 349:Drivers/BSP/Components/lis3dsh/lis3dsh.c ****   tmpreg |= LIS3DSH_BOOT_FORCED;
 162              		.loc 1 349 3 view .LVU25
 163              		.loc 1 349 10 is_stmt 0 view .LVU26
 164 0010 9DF80730 		ldrb	r3, [sp, #7]	@ zero_extendqisi2
 165 0014 63F07F03 		orn	r3, r3, #127
 166 0018 8DF80730 		strb	r3, [sp, #7]
 350:Drivers/BSP/Components/lis3dsh/lis3dsh.c ****   
 351:Drivers/BSP/Components/lis3dsh/lis3dsh.c ****   /* Write value to MEMS CTRL_REG6 register */
 352:Drivers/BSP/Components/lis3dsh/lis3dsh.c ****   ACCELERO_IO_Write(&tmpreg, LIS3DSH_CTRL_REG6_ADDR, 1);
 167              		.loc 1 352 3 is_stmt 1 view .LVU27
 168 001c 0122     		movs	r2, #1
 169 001e 2521     		movs	r1, #37
 170 0020 0DF10700 		add	r0, sp, #7
 171 0024 FFF7FEFF 		bl	ACCELERO_IO_Write
 172              	.LVL7:
 353:Drivers/BSP/Components/lis3dsh/lis3dsh.c **** }
 173              		.loc 1 353 1 is_stmt 0 view .LVU28
 174 0028 03B0     		add	sp, sp, #12
 175              		.cfi_def_cfa_offset 4
 176              		@ sp needed
 177 002a 5DF804FB 		ldr	pc, [sp], #4
 178              		.cfi_endproc
 179              	.LFE8:
 181              		.section	.text.LIS3DSH_ReadACC,"ax",%progbits
 182              		.align	1
 183              		.global	LIS3DSH_ReadACC
 184              		.syntax unified
 185              		.thumb
 186              		.thumb_func
 188              	LIS3DSH_ReadACC:
 189              	.LVL8:
 190              	.LFB9:
 354:Drivers/BSP/Components/lis3dsh/lis3dsh.c **** 
 355:Drivers/BSP/Components/lis3dsh/lis3dsh.c **** /**
 356:Drivers/BSP/Components/lis3dsh/lis3dsh.c ****   * @brief  Read LIS3DSH output register, and calculate the acceleration 
 357:Drivers/BSP/Components/lis3dsh/lis3dsh.c ****   *         ACC[mg]=SENSITIVITY* (out_h*256+out_l)/16 (12 bit representation).
 358:Drivers/BSP/Components/lis3dsh/lis3dsh.c ****   * @param  pointer on floating buffer.
 359:Drivers/BSP/Components/lis3dsh/lis3dsh.c ****   * @retval None
 360:Drivers/BSP/Components/lis3dsh/lis3dsh.c ****   */
 361:Drivers/BSP/Components/lis3dsh/lis3dsh.c **** void LIS3DSH_ReadACC(int16_t *pData)
 362:Drivers/BSP/Components/lis3dsh/lis3dsh.c **** {
 191              		.loc 1 362 1 is_stmt 1 view -0
 192              		.cfi_startproc
 193              		@ args = 0, pretend = 0, frame = 16
 194              		@ frame_needed = 0, uses_anonymous_args = 0
 195              		.loc 1 362 1 is_stmt 0 view .LVU30
 196 0000 10B5     		push	{r4, lr}
 197              		.cfi_def_cfa_offset 8
 198              		.cfi_offset 4, -8
 199              		.cfi_offset 14, -4
 200 0002 84B0     		sub	sp, sp, #16
 201              		.cfi_def_cfa_offset 24
 202 0004 0446     		mov	r4, r0
 363:Drivers/BSP/Components/lis3dsh/lis3dsh.c ****   int8_t buffer[6];
 203              		.loc 1 363 3 is_stmt 1 view .LVU31
ARM GAS  /var/folders/0z/tsy30v1j4xl4_7kw94k978ww0000gn/T//ccRAWizm.s 			page 11


 364:Drivers/BSP/Components/lis3dsh/lis3dsh.c ****   uint8_t crtl, i = 0x00;
 204              		.loc 1 364 3 view .LVU32
 205              	.LVL9:
 365:Drivers/BSP/Components/lis3dsh/lis3dsh.c ****   float sensitivity = LIS3DSH_SENSITIVITY_0_06G;
 206              		.loc 1 365 3 view .LVU33
 366:Drivers/BSP/Components/lis3dsh/lis3dsh.c ****   float valueinfloat = 0;
 207              		.loc 1 366 3 view .LVU34
 367:Drivers/BSP/Components/lis3dsh/lis3dsh.c ****   
 368:Drivers/BSP/Components/lis3dsh/lis3dsh.c ****   ACCELERO_IO_Read(&crtl, LIS3DSH_CTRL_REG5_ADDR, 1);  
 208              		.loc 1 368 3 view .LVU35
 209 0006 0122     		movs	r2, #1
 210 0008 2421     		movs	r1, #36
 211 000a 0DF10700 		add	r0, sp, #7
 212              	.LVL10:
 213              		.loc 1 368 3 is_stmt 0 view .LVU36
 214 000e FFF7FEFF 		bl	ACCELERO_IO_Read
 215              	.LVL11:
 369:Drivers/BSP/Components/lis3dsh/lis3dsh.c ****   ACCELERO_IO_Read((uint8_t*)&buffer[0], LIS3DSH_OUT_X_L_ADDR, 1);
 216              		.loc 1 369 3 is_stmt 1 view .LVU37
 217 0012 0122     		movs	r2, #1
 218 0014 2821     		movs	r1, #40
 219 0016 02A8     		add	r0, sp, #8
 220 0018 FFF7FEFF 		bl	ACCELERO_IO_Read
 221              	.LVL12:
 370:Drivers/BSP/Components/lis3dsh/lis3dsh.c ****   ACCELERO_IO_Read((uint8_t*)&buffer[1], LIS3DSH_OUT_X_H_ADDR, 1);
 222              		.loc 1 370 3 view .LVU38
 223 001c 0122     		movs	r2, #1
 224 001e 2921     		movs	r1, #41
 225 0020 0DF10900 		add	r0, sp, #9
 226 0024 FFF7FEFF 		bl	ACCELERO_IO_Read
 227              	.LVL13:
 371:Drivers/BSP/Components/lis3dsh/lis3dsh.c ****   ACCELERO_IO_Read((uint8_t*)&buffer[2], LIS3DSH_OUT_Y_L_ADDR, 1);
 228              		.loc 1 371 3 view .LVU39
 229 0028 0122     		movs	r2, #1
 230 002a 2A21     		movs	r1, #42
 231 002c 0DF10A00 		add	r0, sp, #10
 232 0030 FFF7FEFF 		bl	ACCELERO_IO_Read
 233              	.LVL14:
 372:Drivers/BSP/Components/lis3dsh/lis3dsh.c ****   ACCELERO_IO_Read((uint8_t*)&buffer[3], LIS3DSH_OUT_Y_H_ADDR, 1);
 234              		.loc 1 372 3 view .LVU40
 235 0034 0122     		movs	r2, #1
 236 0036 2B21     		movs	r1, #43
 237 0038 0DF10B00 		add	r0, sp, #11
 238 003c FFF7FEFF 		bl	ACCELERO_IO_Read
 239              	.LVL15:
 373:Drivers/BSP/Components/lis3dsh/lis3dsh.c ****   ACCELERO_IO_Read((uint8_t*)&buffer[4], LIS3DSH_OUT_Z_L_ADDR, 1);
 240              		.loc 1 373 3 view .LVU41
 241 0040 0122     		movs	r2, #1
 242 0042 2C21     		movs	r1, #44
 243 0044 03A8     		add	r0, sp, #12
 244 0046 FFF7FEFF 		bl	ACCELERO_IO_Read
 245              	.LVL16:
 374:Drivers/BSP/Components/lis3dsh/lis3dsh.c ****   ACCELERO_IO_Read((uint8_t*)&buffer[5], LIS3DSH_OUT_Z_H_ADDR, 1);
 246              		.loc 1 374 3 view .LVU42
 247 004a 0122     		movs	r2, #1
 248 004c 2D21     		movs	r1, #45
 249 004e 0DF10D00 		add	r0, sp, #13
ARM GAS  /var/folders/0z/tsy30v1j4xl4_7kw94k978ww0000gn/T//ccRAWizm.s 			page 12


 250 0052 FFF7FEFF 		bl	ACCELERO_IO_Read
 251              	.LVL17:
 375:Drivers/BSP/Components/lis3dsh/lis3dsh.c ****   
 376:Drivers/BSP/Components/lis3dsh/lis3dsh.c ****   switch(crtl & LIS3DSH__FULLSCALE_SELECTION) 
 252              		.loc 1 376 3 view .LVU43
 253              		.loc 1 376 15 is_stmt 0 view .LVU44
 254 0056 9DF80730 		ldrb	r3, [sp, #7]	@ zero_extendqisi2
 255              		.loc 1 376 3 view .LVU45
 256 005a 03F03803 		and	r3, r3, #56
 257 005e 083B     		subs	r3, r3, #8
 258 0060 182B     		cmp	r3, #24
 259 0062 0ED8     		bhi	.L9
 260 0064 DFE803F0 		tbb	[pc, r3]
 261              	.L11:
 262 0068 1A       		.byte	(.L17-.L11)/2
 263 0069 0D       		.byte	(.L9-.L11)/2
 264 006a 0D       		.byte	(.L9-.L11)/2
 265 006b 0D       		.byte	(.L9-.L11)/2
 266 006c 0D       		.byte	(.L9-.L11)/2
 267 006d 0D       		.byte	(.L9-.L11)/2
 268 006e 0D       		.byte	(.L9-.L11)/2
 269 006f 0D       		.byte	(.L9-.L11)/2
 270 0070 11       		.byte	(.L13-.L11)/2
 271 0071 0D       		.byte	(.L9-.L11)/2
 272 0072 0D       		.byte	(.L9-.L11)/2
 273 0073 0D       		.byte	(.L9-.L11)/2
 274 0074 0D       		.byte	(.L9-.L11)/2
 275 0075 0D       		.byte	(.L9-.L11)/2
 276 0076 0D       		.byte	(.L9-.L11)/2
 277 0077 0D       		.byte	(.L9-.L11)/2
 278 0078 14       		.byte	(.L12-.L11)/2
 279 0079 0D       		.byte	(.L9-.L11)/2
 280 007a 0D       		.byte	(.L9-.L11)/2
 281 007b 0D       		.byte	(.L9-.L11)/2
 282 007c 0D       		.byte	(.L9-.L11)/2
 283 007d 0D       		.byte	(.L9-.L11)/2
 284 007e 0D       		.byte	(.L9-.L11)/2
 285 007f 0D       		.byte	(.L9-.L11)/2
 286 0080 17       		.byte	(.L10-.L11)/2
 287 0081 00       		.p2align 1
 288              	.L9:
 289 0082 9FED177A 		vldr.32	s14, .L19
 290              	.LVL18:
 291              	.L14:
 377:Drivers/BSP/Components/lis3dsh/lis3dsh.c ****   {
 378:Drivers/BSP/Components/lis3dsh/lis3dsh.c ****     /* FS bit = 000 ==> Sensitivity typical value = 0.06milligals/digit */ 
 379:Drivers/BSP/Components/lis3dsh/lis3dsh.c ****   case LIS3DSH_FULLSCALE_2:
 380:Drivers/BSP/Components/lis3dsh/lis3dsh.c ****     sensitivity = LIS3DSH_SENSITIVITY_0_06G;
 381:Drivers/BSP/Components/lis3dsh/lis3dsh.c ****     break;
 382:Drivers/BSP/Components/lis3dsh/lis3dsh.c ****     
 383:Drivers/BSP/Components/lis3dsh/lis3dsh.c ****     /* FS bit = 001 ==> Sensitivity typical value = 0.12milligals/digit */ 
 384:Drivers/BSP/Components/lis3dsh/lis3dsh.c ****   case LIS3DSH_FULLSCALE_4:
 385:Drivers/BSP/Components/lis3dsh/lis3dsh.c ****     sensitivity = LIS3DSH_SENSITIVITY_0_12G;
 386:Drivers/BSP/Components/lis3dsh/lis3dsh.c ****     break;
 387:Drivers/BSP/Components/lis3dsh/lis3dsh.c ****     
 388:Drivers/BSP/Components/lis3dsh/lis3dsh.c ****     /* FS bit = 010 ==> Sensitivity typical value = 0.18milligals/digit */ 
 389:Drivers/BSP/Components/lis3dsh/lis3dsh.c ****   case LIS3DSH_FULLSCALE_6:
ARM GAS  /var/folders/0z/tsy30v1j4xl4_7kw94k978ww0000gn/T//ccRAWizm.s 			page 13


 390:Drivers/BSP/Components/lis3dsh/lis3dsh.c ****     sensitivity = LIS3DSH_SENSITIVITY_0_18G;
 391:Drivers/BSP/Components/lis3dsh/lis3dsh.c ****     break;
 392:Drivers/BSP/Components/lis3dsh/lis3dsh.c ****     
 393:Drivers/BSP/Components/lis3dsh/lis3dsh.c ****     /* FS bit = 011 ==> Sensitivity typical value = 0.24milligals/digit */ 
 394:Drivers/BSP/Components/lis3dsh/lis3dsh.c ****   case LIS3DSH_FULLSCALE_8:
 395:Drivers/BSP/Components/lis3dsh/lis3dsh.c ****     sensitivity = LIS3DSH_SENSITIVITY_0_24G;
 396:Drivers/BSP/Components/lis3dsh/lis3dsh.c ****     break;
 397:Drivers/BSP/Components/lis3dsh/lis3dsh.c ****     
 398:Drivers/BSP/Components/lis3dsh/lis3dsh.c ****     /* FS bit = 100 ==> Sensitivity typical value = 0.73milligals/digit */ 
 399:Drivers/BSP/Components/lis3dsh/lis3dsh.c ****   case LIS3DSH_FULLSCALE_16:
 400:Drivers/BSP/Components/lis3dsh/lis3dsh.c ****     sensitivity = LIS3DSH_SENSITIVITY_0_73G;
 401:Drivers/BSP/Components/lis3dsh/lis3dsh.c ****     break;
 402:Drivers/BSP/Components/lis3dsh/lis3dsh.c ****     
 403:Drivers/BSP/Components/lis3dsh/lis3dsh.c ****   default:
 404:Drivers/BSP/Components/lis3dsh/lis3dsh.c ****     break;
 405:Drivers/BSP/Components/lis3dsh/lis3dsh.c ****   }
 406:Drivers/BSP/Components/lis3dsh/lis3dsh.c ****   
 407:Drivers/BSP/Components/lis3dsh/lis3dsh.c ****   /* Obtain the mg value for the three axis */
 408:Drivers/BSP/Components/lis3dsh/lis3dsh.c ****   for(i=0; i<3; i++)
 292              		.loc 1 408 3 is_stmt 1 view .LVU46
 293              		.loc 1 408 8 is_stmt 0 view .LVU47
 294 0086 0022     		movs	r2, #0
 295              		.loc 1 408 3 view .LVU48
 296 0088 25E0     		b	.L15
 297              	.LVL19:
 298              	.L13:
 390:Drivers/BSP/Components/lis3dsh/lis3dsh.c ****     break;
 299              		.loc 1 390 5 is_stmt 1 view .LVU49
 391:Drivers/BSP/Components/lis3dsh/lis3dsh.c ****     
 300              		.loc 1 391 5 view .LVU50
 390:Drivers/BSP/Components/lis3dsh/lis3dsh.c ****     break;
 301              		.loc 1 390 17 is_stmt 0 view .LVU51
 302 008a 9FED167A 		vldr.32	s14, .L19+4
 391:Drivers/BSP/Components/lis3dsh/lis3dsh.c ****     
 303              		.loc 1 391 5 view .LVU52
 304 008e FAE7     		b	.L14
 305              	.LVL20:
 306              	.L12:
 395:Drivers/BSP/Components/lis3dsh/lis3dsh.c ****     break;
 307              		.loc 1 395 5 is_stmt 1 view .LVU53
 396:Drivers/BSP/Components/lis3dsh/lis3dsh.c ****     
 308              		.loc 1 396 5 view .LVU54
 395:Drivers/BSP/Components/lis3dsh/lis3dsh.c ****     break;
 309              		.loc 1 395 17 is_stmt 0 view .LVU55
 310 0090 9FED157A 		vldr.32	s14, .L19+8
 396:Drivers/BSP/Components/lis3dsh/lis3dsh.c ****     
 311              		.loc 1 396 5 view .LVU56
 312 0094 F7E7     		b	.L14
 313              	.LVL21:
 314              	.L10:
 400:Drivers/BSP/Components/lis3dsh/lis3dsh.c ****     break;
 315              		.loc 1 400 5 is_stmt 1 view .LVU57
 401:Drivers/BSP/Components/lis3dsh/lis3dsh.c ****     
 316              		.loc 1 401 5 view .LVU58
 400:Drivers/BSP/Components/lis3dsh/lis3dsh.c ****     break;
 317              		.loc 1 400 17 is_stmt 0 view .LVU59
 318 0096 9FED157A 		vldr.32	s14, .L19+12
ARM GAS  /var/folders/0z/tsy30v1j4xl4_7kw94k978ww0000gn/T//ccRAWizm.s 			page 14


 401:Drivers/BSP/Components/lis3dsh/lis3dsh.c ****     
 319              		.loc 1 401 5 view .LVU60
 320 009a F4E7     		b	.L14
 321              	.LVL22:
 322              	.L17:
 385:Drivers/BSP/Components/lis3dsh/lis3dsh.c ****     break;
 323              		.loc 1 385 17 view .LVU61
 324 009c 9FED147A 		vldr.32	s14, .L19+16
 325 00a0 F1E7     		b	.L14
 326              	.LVL23:
 327              	.L16:
 409:Drivers/BSP/Components/lis3dsh/lis3dsh.c ****   {
 410:Drivers/BSP/Components/lis3dsh/lis3dsh.c ****     valueinfloat = ((buffer[2*i+1] << 8) + buffer[2*i]) * sensitivity;
 328              		.loc 1 410 5 is_stmt 1 discriminator 3 view .LVU62
 329              		.loc 1 410 30 is_stmt 0 discriminator 3 view .LVU63
 330 00a2 5300     		lsls	r3, r2, #1
 331              		.loc 1 410 28 discriminator 3 view .LVU64
 332 00a4 03F11101 		add	r1, r3, #17
 333 00a8 6944     		add	r1, sp, r1
 334 00aa 11F9081C 		ldrsb	r1, [r1, #-8]
 335              		.loc 1 410 50 discriminator 3 view .LVU65
 336 00ae 1033     		adds	r3, r3, #16
 337 00b0 6B44     		add	r3, sp, r3
 338 00b2 13F9083C 		ldrsb	r3, [r3, #-8]
 339              		.loc 1 410 42 discriminator 3 view .LVU66
 340 00b6 03EB0123 		add	r3, r3, r1, lsl #8
 341 00ba 07EE903A 		vmov	s15, r3	@ int
 342              		.loc 1 410 57 discriminator 3 view .LVU67
 343 00be F8EEE77A 		vcvt.f32.s32	s15, s15
 344              		.loc 1 410 18 discriminator 3 view .LVU68
 345 00c2 67EE877A 		vmul.f32	s15, s15, s14
 346              	.LVL24:
 411:Drivers/BSP/Components/lis3dsh/lis3dsh.c ****     pData[i] = (int16_t)valueinfloat;
 347              		.loc 1 411 5 is_stmt 1 discriminator 3 view .LVU69
 348              		.loc 1 411 16 is_stmt 0 discriminator 3 view .LVU70
 349 00c6 FDEEE77A 		vcvt.s32.f32	s15, s15
 350              	.LVL25:
 351              		.loc 1 411 14 discriminator 3 view .LVU71
 352 00ca 17EE903A 		vmov	r3, s15	@ int
 353              	.LVL26:
 354              		.loc 1 411 14 discriminator 3 view .LVU72
 355 00ce 24F81230 		strh	r3, [r4, r2, lsl #1]	@ movhi
 356              	.LVL27:
 408:Drivers/BSP/Components/lis3dsh/lis3dsh.c ****   {
 357              		.loc 1 408 18 is_stmt 1 discriminator 3 view .LVU73
 358 00d2 0132     		adds	r2, r2, #1
 359              	.LVL28:
 408:Drivers/BSP/Components/lis3dsh/lis3dsh.c ****   {
 360              		.loc 1 408 18 is_stmt 0 discriminator 3 view .LVU74
 361 00d4 D2B2     		uxtb	r2, r2
 362              	.LVL29:
 363              	.L15:
 408:Drivers/BSP/Components/lis3dsh/lis3dsh.c ****   {
 364              		.loc 1 408 13 is_stmt 1 discriminator 1 view .LVU75
 365 00d6 022A     		cmp	r2, #2
 366 00d8 E3D9     		bls	.L16
 412:Drivers/BSP/Components/lis3dsh/lis3dsh.c ****   }
ARM GAS  /var/folders/0z/tsy30v1j4xl4_7kw94k978ww0000gn/T//ccRAWizm.s 			page 15


 413:Drivers/BSP/Components/lis3dsh/lis3dsh.c **** }
 367              		.loc 1 413 1 is_stmt 0 view .LVU76
 368 00da 04B0     		add	sp, sp, #16
 369              		.cfi_def_cfa_offset 8
 370              		@ sp needed
 371 00dc 10BD     		pop	{r4, pc}
 372              	.LVL30:
 373              	.L20:
 374              		.loc 1 413 1 view .LVU77
 375 00de 00BF     		.align	2
 376              	.L19:
 377 00e0 8FC2753D 		.word	1031127695
 378 00e4 EC51383E 		.word	1043878380
 379 00e8 8FC2753E 		.word	1047904911
 380 00ec 48E13A3F 		.word	1060823368
 381 00f0 8FC2F53D 		.word	1039516303
 382              		.cfi_endproc
 383              	.LFE9:
 385              		.section	.text.LIS3DSH_InterruptConfig,"ax",%progbits
 386              		.align	1
 387              		.global	LIS3DSH_InterruptConfig
 388              		.syntax unified
 389              		.thumb
 390              		.thumb_func
 392              	LIS3DSH_InterruptConfig:
 393              	.LVL31:
 394              	.LFB3:
 177:Drivers/BSP/Components/lis3dsh/lis3dsh.c ****   uint8_t ctrl = 0x00;
 395              		.loc 1 177 1 is_stmt 1 view -0
 396              		.cfi_startproc
 397              		@ args = 0, pretend = 0, frame = 8
 398              		@ frame_needed = 0, uses_anonymous_args = 0
 177:Drivers/BSP/Components/lis3dsh/lis3dsh.c ****   uint8_t ctrl = 0x00;
 399              		.loc 1 177 1 is_stmt 0 view .LVU79
 400 0000 10B5     		push	{r4, lr}
 401              		.cfi_def_cfa_offset 8
 402              		.cfi_offset 4, -8
 403              		.cfi_offset 14, -4
 404 0002 82B0     		sub	sp, sp, #8
 405              		.cfi_def_cfa_offset 16
 406 0004 0446     		mov	r4, r0
 178:Drivers/BSP/Components/lis3dsh/lis3dsh.c ****   
 407              		.loc 1 178 3 is_stmt 1 view .LVU80
 178:Drivers/BSP/Components/lis3dsh/lis3dsh.c ****   
 408              		.loc 1 178 11 is_stmt 0 view .LVU81
 409 0006 0023     		movs	r3, #0
 410 0008 8DF80730 		strb	r3, [sp, #7]
 181:Drivers/BSP/Components/lis3dsh/lis3dsh.c ****                    LIS3DSH_IntConfigStruct->Interrupt_Request | \
 411              		.loc 1 181 3 is_stmt 1 view .LVU82
 181:Drivers/BSP/Components/lis3dsh/lis3dsh.c ****                    LIS3DSH_IntConfigStruct->Interrupt_Request | \
 412              		.loc 1 181 43 is_stmt 0 view .LVU83
 413 000c 4278     		ldrb	r2, [r0, #1]	@ zero_extendqisi2
 182:Drivers/BSP/Components/lis3dsh/lis3dsh.c ****                    LIS3DSH_IntConfigStruct->Interrupt_Signal);
 414              		.loc 1 182 43 view .LVU84
 415 000e 0178     		ldrb	r1, [r0]	@ zero_extendqisi2
 183:Drivers/BSP/Components/lis3dsh/lis3dsh.c ****   
 416              		.loc 1 183 43 view .LVU85
ARM GAS  /var/folders/0z/tsy30v1j4xl4_7kw94k978ww0000gn/T//ccRAWizm.s 			page 16


 417 0010 8378     		ldrb	r3, [r0, #2]	@ zero_extendqisi2
 181:Drivers/BSP/Components/lis3dsh/lis3dsh.c ****                    LIS3DSH_IntConfigStruct->Interrupt_Request | \
 418              		.loc 1 181 10 view .LVU86
 419 0012 0A43     		orrs	r2, r2, r1
 420 0014 1343     		orrs	r3, r3, r2
 181:Drivers/BSP/Components/lis3dsh/lis3dsh.c ****                    LIS3DSH_IntConfigStruct->Interrupt_Request | \
 421              		.loc 1 181 8 view .LVU87
 422 0016 8DF80730 		strb	r3, [sp, #7]
 186:Drivers/BSP/Components/lis3dsh/lis3dsh.c ****   
 423              		.loc 1 186 3 is_stmt 1 view .LVU88
 424 001a 0122     		movs	r2, #1
 425 001c 2321     		movs	r1, #35
 426 001e 0DF10700 		add	r0, sp, #7
 427              	.LVL32:
 186:Drivers/BSP/Components/lis3dsh/lis3dsh.c ****   
 428              		.loc 1 186 3 is_stmt 0 view .LVU89
 429 0022 FFF7FEFF 		bl	ACCELERO_IO_Write
 430              	.LVL33:
 189:Drivers/BSP/Components/lis3dsh/lis3dsh.c ****                    LIS3DSH_IntConfigStruct->State_Machine1_Interrupt);
 431              		.loc 1 189 3 is_stmt 1 view .LVU90
 189:Drivers/BSP/Components/lis3dsh/lis3dsh.c ****                    LIS3DSH_IntConfigStruct->State_Machine1_Interrupt);
 432              		.loc 1 189 43 is_stmt 0 view .LVU91
 433 0026 E378     		ldrb	r3, [r4, #3]	@ zero_extendqisi2
 190:Drivers/BSP/Components/lis3dsh/lis3dsh.c ****   
 434              		.loc 1 190 43 view .LVU92
 435 0028 2279     		ldrb	r2, [r4, #4]	@ zero_extendqisi2
 189:Drivers/BSP/Components/lis3dsh/lis3dsh.c ****                    LIS3DSH_IntConfigStruct->State_Machine1_Interrupt);
 436              		.loc 1 189 10 view .LVU93
 437 002a 1343     		orrs	r3, r3, r2
 189:Drivers/BSP/Components/lis3dsh/lis3dsh.c ****                    LIS3DSH_IntConfigStruct->State_Machine1_Interrupt);
 438              		.loc 1 189 8 view .LVU94
 439 002c 8DF80730 		strb	r3, [sp, #7]
 193:Drivers/BSP/Components/lis3dsh/lis3dsh.c ****   
 440              		.loc 1 193 3 is_stmt 1 view .LVU95
 441 0030 0122     		movs	r2, #1
 442 0032 2121     		movs	r1, #33
 443 0034 0DF10700 		add	r0, sp, #7
 444 0038 FFF7FEFF 		bl	ACCELERO_IO_Write
 445              	.LVL34:
 196:Drivers/BSP/Components/lis3dsh/lis3dsh.c ****                    LIS3DSH_IntConfigStruct->State_Machine2_Interrupt);
 446              		.loc 1 196 3 view .LVU96
 196:Drivers/BSP/Components/lis3dsh/lis3dsh.c ****                    LIS3DSH_IntConfigStruct->State_Machine2_Interrupt);
 447              		.loc 1 196 43 is_stmt 0 view .LVU97
 448 003c 6379     		ldrb	r3, [r4, #5]	@ zero_extendqisi2
 197:Drivers/BSP/Components/lis3dsh/lis3dsh.c ****   
 449              		.loc 1 197 43 view .LVU98
 450 003e A279     		ldrb	r2, [r4, #6]	@ zero_extendqisi2
 196:Drivers/BSP/Components/lis3dsh/lis3dsh.c ****                    LIS3DSH_IntConfigStruct->State_Machine2_Interrupt);
 451              		.loc 1 196 10 view .LVU99
 452 0040 1343     		orrs	r3, r3, r2
 196:Drivers/BSP/Components/lis3dsh/lis3dsh.c ****                    LIS3DSH_IntConfigStruct->State_Machine2_Interrupt);
 453              		.loc 1 196 8 view .LVU100
 454 0042 8DF80730 		strb	r3, [sp, #7]
 200:Drivers/BSP/Components/lis3dsh/lis3dsh.c **** }
 455              		.loc 1 200 3 is_stmt 1 view .LVU101
 456 0046 0122     		movs	r2, #1
 457 0048 2221     		movs	r1, #34
ARM GAS  /var/folders/0z/tsy30v1j4xl4_7kw94k978ww0000gn/T//ccRAWizm.s 			page 17


 458 004a 0DF10700 		add	r0, sp, #7
 459 004e FFF7FEFF 		bl	ACCELERO_IO_Write
 460              	.LVL35:
 201:Drivers/BSP/Components/lis3dsh/lis3dsh.c **** 
 461              		.loc 1 201 1 is_stmt 0 view .LVU102
 462 0052 02B0     		add	sp, sp, #8
 463              		.cfi_def_cfa_offset 8
 464              		@ sp needed
 465 0054 10BD     		pop	{r4, pc}
 201:Drivers/BSP/Components/lis3dsh/lis3dsh.c **** 
 466              		.loc 1 201 1 view .LVU103
 467              		.cfi_endproc
 468              	.LFE3:
 470              		.section	.text.LIS3DSH_Click_IntConfig,"ax",%progbits
 471              		.align	1
 472              		.global	LIS3DSH_Click_IntConfig
 473              		.syntax unified
 474              		.thumb
 475              		.thumb_func
 477              	LIS3DSH_Click_IntConfig:
 478              	.LFB4:
 209:Drivers/BSP/Components/lis3dsh/lis3dsh.c ****   uint8_t ctrl = 0x00;
 479              		.loc 1 209 1 is_stmt 1 view -0
 480              		.cfi_startproc
 481              		@ args = 0, pretend = 0, frame = 8
 482              		@ frame_needed = 0, uses_anonymous_args = 0
 483 0000 30B5     		push	{r4, r5, lr}
 484              		.cfi_def_cfa_offset 12
 485              		.cfi_offset 4, -12
 486              		.cfi_offset 5, -8
 487              		.cfi_offset 14, -4
 488 0002 83B0     		sub	sp, sp, #12
 489              		.cfi_def_cfa_offset 24
 210:Drivers/BSP/Components/lis3dsh/lis3dsh.c ****   LIS3DSH_InterruptConfigTypeDef   LIS3DSH_InterruptStruct; 
 490              		.loc 1 210 3 view .LVU105
 210:Drivers/BSP/Components/lis3dsh/lis3dsh.c ****   LIS3DSH_InterruptConfigTypeDef   LIS3DSH_InterruptStruct; 
 491              		.loc 1 210 11 is_stmt 0 view .LVU106
 492 0004 0025     		movs	r5, #0
 493 0006 8DF80750 		strb	r5, [sp, #7]
 211:Drivers/BSP/Components/lis3dsh/lis3dsh.c **** 
 494              		.loc 1 211 3 is_stmt 1 view .LVU107
 213:Drivers/BSP/Components/lis3dsh/lis3dsh.c **** 
 495              		.loc 1 213 3 view .LVU108
 496 000a FFF7FEFF 		bl	ACCELERO_IO_ITConfig
 497              	.LVL36:
 216:Drivers/BSP/Components/lis3dsh/lis3dsh.c ****   LIS3DSH_InterruptStruct.Interrupt_Request = LIS3DSH_INTERRUPT_REQUEST_LATCHED;
 498              		.loc 1 216 3 view .LVU109
 216:Drivers/BSP/Components/lis3dsh/lis3dsh.c ****   LIS3DSH_InterruptStruct.Interrupt_Request = LIS3DSH_INTERRUPT_REQUEST_LATCHED;
 499              		.loc 1 216 54 is_stmt 0 view .LVU110
 500 000e 8DF80150 		strb	r5, [sp, #1]
 217:Drivers/BSP/Components/lis3dsh/lis3dsh.c ****   LIS3DSH_InterruptStruct.Interrupt_Signal = LIS3DSH_INTERRUPT_SIGNAL_HIGH;
 501              		.loc 1 217 3 is_stmt 1 view .LVU111
 217:Drivers/BSP/Components/lis3dsh/lis3dsh.c ****   LIS3DSH_InterruptStruct.Interrupt_Signal = LIS3DSH_INTERRUPT_SIGNAL_HIGH;
 502              		.loc 1 217 45 is_stmt 0 view .LVU112
 503 0012 8DF80050 		strb	r5, [sp]
 218:Drivers/BSP/Components/lis3dsh/lis3dsh.c ****   LIS3DSH_InterruptStruct.State_Machine1_Enable = LIS3DSH_SM_DISABLE;
 504              		.loc 1 218 3 is_stmt 1 view .LVU113
ARM GAS  /var/folders/0z/tsy30v1j4xl4_7kw94k978ww0000gn/T//ccRAWizm.s 			page 18


 218:Drivers/BSP/Components/lis3dsh/lis3dsh.c ****   LIS3DSH_InterruptStruct.State_Machine1_Enable = LIS3DSH_SM_DISABLE;
 505              		.loc 1 218 44 is_stmt 0 view .LVU114
 506 0016 4023     		movs	r3, #64
 507 0018 8DF80230 		strb	r3, [sp, #2]
 219:Drivers/BSP/Components/lis3dsh/lis3dsh.c ****   LIS3DSH_InterruptStruct.State_Machine2_Enable = LIS3DSH_SM_ENABLE;
 508              		.loc 1 219 3 is_stmt 1 view .LVU115
 219:Drivers/BSP/Components/lis3dsh/lis3dsh.c ****   LIS3DSH_InterruptStruct.State_Machine2_Enable = LIS3DSH_SM_ENABLE;
 509              		.loc 1 219 49 is_stmt 0 view .LVU116
 510 001c 8DF80350 		strb	r5, [sp, #3]
 220:Drivers/BSP/Components/lis3dsh/lis3dsh.c ****   LIS3DSH_InterruptStruct.State_Machine2_Interrupt = LIS3DSH_SM_INT1;
 511              		.loc 1 220 3 is_stmt 1 view .LVU117
 220:Drivers/BSP/Components/lis3dsh/lis3dsh.c ****   LIS3DSH_InterruptStruct.State_Machine2_Interrupt = LIS3DSH_SM_INT1;
 512              		.loc 1 220 49 is_stmt 0 view .LVU118
 513 0020 0124     		movs	r4, #1
 514 0022 8DF80540 		strb	r4, [sp, #5]
 221:Drivers/BSP/Components/lis3dsh/lis3dsh.c ****   LIS3DSH_InterruptConfig(&LIS3DSH_InterruptStruct);
 515              		.loc 1 221 3 is_stmt 1 view .LVU119
 221:Drivers/BSP/Components/lis3dsh/lis3dsh.c ****   LIS3DSH_InterruptConfig(&LIS3DSH_InterruptStruct);
 516              		.loc 1 221 52 is_stmt 0 view .LVU120
 517 0026 8DF80650 		strb	r5, [sp, #6]
 222:Drivers/BSP/Components/lis3dsh/lis3dsh.c ****     
 518              		.loc 1 222 3 is_stmt 1 view .LVU121
 519 002a 6846     		mov	r0, sp
 520 002c FFF7FEFF 		bl	LIS3DSH_InterruptConfig
 521              	.LVL37:
 225:Drivers/BSP/Components/lis3dsh/lis3dsh.c ****   ACCELERO_IO_Write(&ctrl, LIS3DSH_TIM2_1_L_ADDR,1);
 522              		.loc 1 225 3 view .LVU122
 225:Drivers/BSP/Components/lis3dsh/lis3dsh.c ****   ACCELERO_IO_Write(&ctrl, LIS3DSH_TIM2_1_L_ADDR,1);
 523              		.loc 1 225 7 is_stmt 0 view .LVU123
 524 0030 0323     		movs	r3, #3
 525 0032 8DF80730 		strb	r3, [sp, #7]
 226:Drivers/BSP/Components/lis3dsh/lis3dsh.c ****   ctrl=0xC8; 
 526              		.loc 1 226 3 is_stmt 1 view .LVU124
 527 0036 2246     		mov	r2, r4
 528 0038 5221     		movs	r1, #82
 529 003a 0DF10700 		add	r0, sp, #7
 530 003e FFF7FEFF 		bl	ACCELERO_IO_Write
 531              	.LVL38:
 227:Drivers/BSP/Components/lis3dsh/lis3dsh.c ****   ACCELERO_IO_Write(&ctrl, LIS3DSH_TIM1_1_L_ADDR,1);
 532              		.loc 1 227 3 view .LVU125
 227:Drivers/BSP/Components/lis3dsh/lis3dsh.c ****   ACCELERO_IO_Write(&ctrl, LIS3DSH_TIM1_1_L_ADDR,1);
 533              		.loc 1 227 7 is_stmt 0 view .LVU126
 534 0042 C823     		movs	r3, #200
 535 0044 8DF80730 		strb	r3, [sp, #7]
 228:Drivers/BSP/Components/lis3dsh/lis3dsh.c ****   ctrl=0x45; 
 536              		.loc 1 228 3 is_stmt 1 view .LVU127
 537 0048 2246     		mov	r2, r4
 538 004a 5421     		movs	r1, #84
 539 004c 0DF10700 		add	r0, sp, #7
 540 0050 FFF7FEFF 		bl	ACCELERO_IO_Write
 541              	.LVL39:
 229:Drivers/BSP/Components/lis3dsh/lis3dsh.c ****   ACCELERO_IO_Write(&ctrl, LIS3DSH_THRS2_1_ADDR,1);
 542              		.loc 1 229 3 view .LVU128
 229:Drivers/BSP/Components/lis3dsh/lis3dsh.c ****   ACCELERO_IO_Write(&ctrl, LIS3DSH_THRS2_1_ADDR,1);
 543              		.loc 1 229 7 is_stmt 0 view .LVU129
 544 0054 4523     		movs	r3, #69
 545 0056 8DF80730 		strb	r3, [sp, #7]
ARM GAS  /var/folders/0z/tsy30v1j4xl4_7kw94k978ww0000gn/T//ccRAWizm.s 			page 19


 230:Drivers/BSP/Components/lis3dsh/lis3dsh.c ****   ctrl=0xFC; 
 546              		.loc 1 230 3 is_stmt 1 view .LVU130
 547 005a 2246     		mov	r2, r4
 548 005c 5621     		movs	r1, #86
 549 005e 0DF10700 		add	r0, sp, #7
 550 0062 FFF7FEFF 		bl	ACCELERO_IO_Write
 551              	.LVL40:
 231:Drivers/BSP/Components/lis3dsh/lis3dsh.c ****   ACCELERO_IO_Write(&ctrl, LIS3DSH_MASK1_A_ADDR,1);
 552              		.loc 1 231 3 view .LVU131
 231:Drivers/BSP/Components/lis3dsh/lis3dsh.c ****   ACCELERO_IO_Write(&ctrl, LIS3DSH_MASK1_A_ADDR,1);
 553              		.loc 1 231 7 is_stmt 0 view .LVU132
 554 0066 FC23     		movs	r3, #252
 555 0068 8DF80730 		strb	r3, [sp, #7]
 232:Drivers/BSP/Components/lis3dsh/lis3dsh.c ****   ctrl=0xA1; 
 556              		.loc 1 232 3 is_stmt 1 view .LVU133
 557 006c 2246     		mov	r2, r4
 558 006e 5A21     		movs	r1, #90
 559 0070 0DF10700 		add	r0, sp, #7
 560 0074 FFF7FEFF 		bl	ACCELERO_IO_Write
 561              	.LVL41:
 233:Drivers/BSP/Components/lis3dsh/lis3dsh.c ****   ACCELERO_IO_Write(&ctrl, LIS3DSH_SETT1_ADDR,1);
 562              		.loc 1 233 3 view .LVU134
 233:Drivers/BSP/Components/lis3dsh/lis3dsh.c ****   ACCELERO_IO_Write(&ctrl, LIS3DSH_SETT1_ADDR,1);
 563              		.loc 1 233 7 is_stmt 0 view .LVU135
 564 0078 A123     		movs	r3, #161
 565 007a 8DF80730 		strb	r3, [sp, #7]
 234:Drivers/BSP/Components/lis3dsh/lis3dsh.c ****   ctrl=0x01; 
 566              		.loc 1 234 3 is_stmt 1 view .LVU136
 567 007e 2246     		mov	r2, r4
 568 0080 5B21     		movs	r1, #91
 569 0082 0DF10700 		add	r0, sp, #7
 570 0086 FFF7FEFF 		bl	ACCELERO_IO_Write
 571              	.LVL42:
 235:Drivers/BSP/Components/lis3dsh/lis3dsh.c ****   ACCELERO_IO_Write(&ctrl, LIS3DSH_PR1_ADDR,1);
 572              		.loc 1 235 3 view .LVU137
 235:Drivers/BSP/Components/lis3dsh/lis3dsh.c ****   ACCELERO_IO_Write(&ctrl, LIS3DSH_PR1_ADDR,1);
 573              		.loc 1 235 7 is_stmt 0 view .LVU138
 574 008a 8DF80740 		strb	r4, [sp, #7]
 236:Drivers/BSP/Components/lis3dsh/lis3dsh.c **** 
 575              		.loc 1 236 3 is_stmt 1 view .LVU139
 576 008e 2246     		mov	r2, r4
 577 0090 5C21     		movs	r1, #92
 578 0092 0DF10700 		add	r0, sp, #7
 579 0096 FFF7FEFF 		bl	ACCELERO_IO_Write
 580              	.LVL43:
 238:Drivers/BSP/Components/lis3dsh/lis3dsh.c ****   
 581              		.loc 1 238 3 view .LVU140
 582 009a 2246     		mov	r2, r4
 583 009c 7B21     		movs	r1, #123
 584 009e 0DF10700 		add	r0, sp, #7
 585 00a2 FFF7FEFF 		bl	ACCELERO_IO_Write
 586              	.LVL44:
 241:Drivers/BSP/Components/lis3dsh/lis3dsh.c ****   ctrl=0x06; 
 587              		.loc 1 241 3 view .LVU141
 588 00a6 2246     		mov	r2, r4
 589 00a8 6021     		movs	r1, #96
 590 00aa 0DF10700 		add	r0, sp, #7
ARM GAS  /var/folders/0z/tsy30v1j4xl4_7kw94k978ww0000gn/T//ccRAWizm.s 			page 20


 591 00ae FFF7FEFF 		bl	ACCELERO_IO_Write
 592              	.LVL45:
 242:Drivers/BSP/Components/lis3dsh/lis3dsh.c ****   ACCELERO_IO_Write(&ctrl, LIS3DSH_ST2_2_ADDR,1);
 593              		.loc 1 242 3 view .LVU142
 242:Drivers/BSP/Components/lis3dsh/lis3dsh.c ****   ACCELERO_IO_Write(&ctrl, LIS3DSH_ST2_2_ADDR,1);
 594              		.loc 1 242 7 is_stmt 0 view .LVU143
 595 00b2 0623     		movs	r3, #6
 596 00b4 8DF80730 		strb	r3, [sp, #7]
 243:Drivers/BSP/Components/lis3dsh/lis3dsh.c ****   ctrl=0x28; 
 597              		.loc 1 243 3 is_stmt 1 view .LVU144
 598 00b8 2246     		mov	r2, r4
 599 00ba 6121     		movs	r1, #97
 600 00bc 0DF10700 		add	r0, sp, #7
 601 00c0 FFF7FEFF 		bl	ACCELERO_IO_Write
 602              	.LVL46:
 244:Drivers/BSP/Components/lis3dsh/lis3dsh.c ****   ACCELERO_IO_Write(&ctrl, LIS3DSH_ST2_3_ADDR,1);
 603              		.loc 1 244 3 view .LVU145
 244:Drivers/BSP/Components/lis3dsh/lis3dsh.c ****   ACCELERO_IO_Write(&ctrl, LIS3DSH_ST2_3_ADDR,1);
 604              		.loc 1 244 7 is_stmt 0 view .LVU146
 605 00c4 2823     		movs	r3, #40
 606 00c6 8DF80730 		strb	r3, [sp, #7]
 245:Drivers/BSP/Components/lis3dsh/lis3dsh.c ****   ctrl=0x11; 
 607              		.loc 1 245 3 is_stmt 1 view .LVU147
 608 00ca 2246     		mov	r2, r4
 609 00cc 6221     		movs	r1, #98
 610 00ce 0DF10700 		add	r0, sp, #7
 611 00d2 FFF7FEFF 		bl	ACCELERO_IO_Write
 612              	.LVL47:
 246:Drivers/BSP/Components/lis3dsh/lis3dsh.c ****   ACCELERO_IO_Write(&ctrl, LIS3DSH_ST2_4_ADDR,1);
 613              		.loc 1 246 3 view .LVU148
 246:Drivers/BSP/Components/lis3dsh/lis3dsh.c ****   ACCELERO_IO_Write(&ctrl, LIS3DSH_ST2_4_ADDR,1);
 614              		.loc 1 246 7 is_stmt 0 view .LVU149
 615 00d6 1123     		movs	r3, #17
 616 00d8 8DF80730 		strb	r3, [sp, #7]
 247:Drivers/BSP/Components/lis3dsh/lis3dsh.c **** }
 617              		.loc 1 247 3 is_stmt 1 view .LVU150
 618 00dc 2246     		mov	r2, r4
 619 00de 6321     		movs	r1, #99
 620 00e0 0DF10700 		add	r0, sp, #7
 621 00e4 FFF7FEFF 		bl	ACCELERO_IO_Write
 622              	.LVL48:
 248:Drivers/BSP/Components/lis3dsh/lis3dsh.c **** 
 623              		.loc 1 248 1 is_stmt 0 view .LVU151
 624 00e8 03B0     		add	sp, sp, #12
 625              		.cfi_def_cfa_offset 12
 626              		@ sp needed
 627 00ea 30BD     		pop	{r4, r5, pc}
 628              		.cfi_endproc
 629              	.LFE4:
 631              		.section	.text.LIS3DSH_ODR_LowpowerCmd,"ax",%progbits
 632              		.align	1
 633              		.global	LIS3DSH_ODR_LowpowerCmd
 634              		.syntax unified
 635              		.thumb
 636              		.thumb_func
 638              	LIS3DSH_ODR_LowpowerCmd:
 639              	.LVL49:
ARM GAS  /var/folders/0z/tsy30v1j4xl4_7kw94k978ww0000gn/T//ccRAWizm.s 			page 21


 640              	.LFB5:
 267:Drivers/BSP/Components/lis3dsh/lis3dsh.c ****   uint8_t tmpreg;
 641              		.loc 1 267 1 is_stmt 1 view -0
 642              		.cfi_startproc
 643              		@ args = 0, pretend = 0, frame = 8
 644              		@ frame_needed = 0, uses_anonymous_args = 0
 267:Drivers/BSP/Components/lis3dsh/lis3dsh.c ****   uint8_t tmpreg;
 645              		.loc 1 267 1 is_stmt 0 view .LVU153
 646 0000 10B5     		push	{r4, lr}
 647              		.cfi_def_cfa_offset 8
 648              		.cfi_offset 4, -8
 649              		.cfi_offset 14, -4
 650 0002 82B0     		sub	sp, sp, #8
 651              		.cfi_def_cfa_offset 16
 652 0004 0446     		mov	r4, r0
 268:Drivers/BSP/Components/lis3dsh/lis3dsh.c ****   
 653              		.loc 1 268 3 is_stmt 1 view .LVU154
 271:Drivers/BSP/Components/lis3dsh/lis3dsh.c ****   
 654              		.loc 1 271 3 view .LVU155
 655 0006 0122     		movs	r2, #1
 656 0008 2021     		movs	r1, #32
 657 000a 0DF10700 		add	r0, sp, #7
 658              	.LVL50:
 271:Drivers/BSP/Components/lis3dsh/lis3dsh.c ****   
 659              		.loc 1 271 3 is_stmt 0 view .LVU156
 660 000e FFF7FEFF 		bl	ACCELERO_IO_Read
 661              	.LVL51:
 274:Drivers/BSP/Components/lis3dsh/lis3dsh.c ****   tmpreg |= ODR_LowPowerMode;
 662              		.loc 1 274 3 is_stmt 1 view .LVU157
 274:Drivers/BSP/Components/lis3dsh/lis3dsh.c ****   tmpreg |= ODR_LowPowerMode;
 663              		.loc 1 274 10 is_stmt 0 view .LVU158
 664 0012 9DF80730 		ldrb	r3, [sp, #7]	@ zero_extendqisi2
 665 0016 03F09F03 		and	r3, r3, #159
 666 001a 8DF80730 		strb	r3, [sp, #7]
 275:Drivers/BSP/Components/lis3dsh/lis3dsh.c ****   
 667              		.loc 1 275 3 is_stmt 1 view .LVU159
 275:Drivers/BSP/Components/lis3dsh/lis3dsh.c ****   
 668              		.loc 1 275 10 is_stmt 0 view .LVU160
 669 001e 2343     		orrs	r3, r3, r4
 670 0020 8DF80730 		strb	r3, [sp, #7]
 278:Drivers/BSP/Components/lis3dsh/lis3dsh.c **** }
 671              		.loc 1 278 3 is_stmt 1 view .LVU161
 672 0024 0122     		movs	r2, #1
 673 0026 2021     		movs	r1, #32
 674 0028 0DF10700 		add	r0, sp, #7
 675 002c FFF7FEFF 		bl	ACCELERO_IO_Write
 676              	.LVL52:
 279:Drivers/BSP/Components/lis3dsh/lis3dsh.c **** 
 677              		.loc 1 279 1 is_stmt 0 view .LVU162
 678 0030 02B0     		add	sp, sp, #8
 679              		.cfi_def_cfa_offset 8
 680              		@ sp needed
 681 0032 10BD     		pop	{r4, pc}
 682              		.cfi_endproc
 683              	.LFE5:
 685              		.section	.text.LIS3DSH_DataRateCmd,"ax",%progbits
 686              		.align	1
ARM GAS  /var/folders/0z/tsy30v1j4xl4_7kw94k978ww0000gn/T//ccRAWizm.s 			page 22


 687              		.global	LIS3DSH_DataRateCmd
 688              		.syntax unified
 689              		.thumb
 690              		.thumb_func
 692              	LIS3DSH_DataRateCmd:
 693              	.LVL53:
 694              	.LFB6:
 297:Drivers/BSP/Components/lis3dsh/lis3dsh.c ****   uint8_t tmpreg;
 695              		.loc 1 297 1 is_stmt 1 view -0
 696              		.cfi_startproc
 697              		@ args = 0, pretend = 0, frame = 8
 698              		@ frame_needed = 0, uses_anonymous_args = 0
 297:Drivers/BSP/Components/lis3dsh/lis3dsh.c ****   uint8_t tmpreg;
 699              		.loc 1 297 1 is_stmt 0 view .LVU164
 700 0000 10B5     		push	{r4, lr}
 701              		.cfi_def_cfa_offset 8
 702              		.cfi_offset 4, -8
 703              		.cfi_offset 14, -4
 704 0002 82B0     		sub	sp, sp, #8
 705              		.cfi_def_cfa_offset 16
 706 0004 0446     		mov	r4, r0
 298:Drivers/BSP/Components/lis3dsh/lis3dsh.c ****   
 707              		.loc 1 298 3 is_stmt 1 view .LVU165
 301:Drivers/BSP/Components/lis3dsh/lis3dsh.c ****   
 708              		.loc 1 301 3 view .LVU166
 709 0006 0122     		movs	r2, #1
 710 0008 2021     		movs	r1, #32
 711 000a 0DF10700 		add	r0, sp, #7
 712              	.LVL54:
 301:Drivers/BSP/Components/lis3dsh/lis3dsh.c ****   
 713              		.loc 1 301 3 is_stmt 0 view .LVU167
 714 000e FFF7FEFF 		bl	ACCELERO_IO_Read
 715              	.LVL55:
 304:Drivers/BSP/Components/lis3dsh/lis3dsh.c ****   tmpreg |= DataRateValue;
 716              		.loc 1 304 3 is_stmt 1 view .LVU168
 304:Drivers/BSP/Components/lis3dsh/lis3dsh.c ****   tmpreg |= DataRateValue;
 717              		.loc 1 304 10 is_stmt 0 view .LVU169
 718 0012 9DF80730 		ldrb	r3, [sp, #7]	@ zero_extendqisi2
 719 0016 03F08F03 		and	r3, r3, #143
 720 001a 8DF80730 		strb	r3, [sp, #7]
 305:Drivers/BSP/Components/lis3dsh/lis3dsh.c ****   
 721              		.loc 1 305 3 is_stmt 1 view .LVU170
 305:Drivers/BSP/Components/lis3dsh/lis3dsh.c ****   
 722              		.loc 1 305 10 is_stmt 0 view .LVU171
 723 001e 2343     		orrs	r3, r3, r4
 724 0020 8DF80730 		strb	r3, [sp, #7]
 308:Drivers/BSP/Components/lis3dsh/lis3dsh.c **** }
 725              		.loc 1 308 3 is_stmt 1 view .LVU172
 726 0024 0122     		movs	r2, #1
 727 0026 2021     		movs	r1, #32
 728 0028 0DF10700 		add	r0, sp, #7
 729 002c FFF7FEFF 		bl	ACCELERO_IO_Write
 730              	.LVL56:
 309:Drivers/BSP/Components/lis3dsh/lis3dsh.c **** 
 731              		.loc 1 309 1 is_stmt 0 view .LVU173
 732 0030 02B0     		add	sp, sp, #8
 733              		.cfi_def_cfa_offset 8
ARM GAS  /var/folders/0z/tsy30v1j4xl4_7kw94k978ww0000gn/T//ccRAWizm.s 			page 23


 734              		@ sp needed
 735 0032 10BD     		pop	{r4, pc}
 736              		.cfi_endproc
 737              	.LFE6:
 739              		.section	.text.LIS3DSH_FullScaleCmd,"ax",%progbits
 740              		.align	1
 741              		.global	LIS3DSH_FullScaleCmd
 742              		.syntax unified
 743              		.thumb
 744              		.thumb_func
 746              	LIS3DSH_FullScaleCmd:
 747              	.LVL57:
 748              	.LFB7:
 323:Drivers/BSP/Components/lis3dsh/lis3dsh.c ****   uint8_t tmpreg;
 749              		.loc 1 323 1 is_stmt 1 view -0
 750              		.cfi_startproc
 751              		@ args = 0, pretend = 0, frame = 8
 752              		@ frame_needed = 0, uses_anonymous_args = 0
 323:Drivers/BSP/Components/lis3dsh/lis3dsh.c ****   uint8_t tmpreg;
 753              		.loc 1 323 1 is_stmt 0 view .LVU175
 754 0000 10B5     		push	{r4, lr}
 755              		.cfi_def_cfa_offset 8
 756              		.cfi_offset 4, -8
 757              		.cfi_offset 14, -4
 758 0002 82B0     		sub	sp, sp, #8
 759              		.cfi_def_cfa_offset 16
 760 0004 0446     		mov	r4, r0
 324:Drivers/BSP/Components/lis3dsh/lis3dsh.c ****   
 761              		.loc 1 324 3 is_stmt 1 view .LVU176
 327:Drivers/BSP/Components/lis3dsh/lis3dsh.c ****   
 762              		.loc 1 327 3 view .LVU177
 763 0006 0122     		movs	r2, #1
 764 0008 2421     		movs	r1, #36
 765 000a 0DF10700 		add	r0, sp, #7
 766              	.LVL58:
 327:Drivers/BSP/Components/lis3dsh/lis3dsh.c ****   
 767              		.loc 1 327 3 is_stmt 0 view .LVU178
 768 000e FFF7FEFF 		bl	ACCELERO_IO_Read
 769              	.LVL59:
 330:Drivers/BSP/Components/lis3dsh/lis3dsh.c ****   tmpreg |= FS_value;
 770              		.loc 1 330 3 is_stmt 1 view .LVU179
 330:Drivers/BSP/Components/lis3dsh/lis3dsh.c ****   tmpreg |= FS_value;
 771              		.loc 1 330 10 is_stmt 0 view .LVU180
 772 0012 9DF80730 		ldrb	r3, [sp, #7]	@ zero_extendqisi2
 773 0016 03F0DF03 		and	r3, r3, #223
 774 001a 8DF80730 		strb	r3, [sp, #7]
 331:Drivers/BSP/Components/lis3dsh/lis3dsh.c ****   
 775              		.loc 1 331 3 is_stmt 1 view .LVU181
 331:Drivers/BSP/Components/lis3dsh/lis3dsh.c ****   
 776              		.loc 1 331 10 is_stmt 0 view .LVU182
 777 001e 2343     		orrs	r3, r3, r4
 778 0020 8DF80730 		strb	r3, [sp, #7]
 334:Drivers/BSP/Components/lis3dsh/lis3dsh.c **** }
 779              		.loc 1 334 3 is_stmt 1 view .LVU183
 780 0024 0122     		movs	r2, #1
 781 0026 2421     		movs	r1, #36
 782 0028 0DF10700 		add	r0, sp, #7
ARM GAS  /var/folders/0z/tsy30v1j4xl4_7kw94k978ww0000gn/T//ccRAWizm.s 			page 24


 783 002c FFF7FEFF 		bl	ACCELERO_IO_Write
 784              	.LVL60:
 335:Drivers/BSP/Components/lis3dsh/lis3dsh.c **** 
 785              		.loc 1 335 1 is_stmt 0 view .LVU184
 786 0030 02B0     		add	sp, sp, #8
 787              		.cfi_def_cfa_offset 8
 788              		@ sp needed
 789 0032 10BD     		pop	{r4, pc}
 790              		.cfi_endproc
 791              	.LFE7:
 793              		.global	Lis3dshDrv
 794              		.section	.data.Lis3dshDrv,"aw"
 795              		.align	2
 798              	Lis3dshDrv:
 799 0000 00000000 		.word	LIS3DSH_Init
 800 0004 00000000 		.word	LIS3DSH_DeInit
 801 0008 00000000 		.word	LIS3DSH_ReadID
 802 000c 00000000 		.word	LIS3DSH_RebootCmd
 803 0010 00000000 		.word	LIS3DSH_Click_IntConfig
 804 0014 00000000 		.word	0
 805 0018 00000000 		.word	0
 806 001c 00000000 		.word	0
 807 0020 00000000 		.word	0
 808 0024 00000000 		.word	0
 809 0028 00000000 		.word	0
 810 002c 00000000 		.word	0
 811 0030 00000000 		.word	LIS3DSH_ReadACC
 812              		.text
 813              	.Letext0:
 814              		.file 2 "/Users/johannes/Library/Application Support/Code/User/globalStorage/bmd.stm32-for-vscode/
 815              		.file 3 "/Users/johannes/Library/Application Support/Code/User/globalStorage/bmd.stm32-for-vscode/
 816              		.file 4 "Drivers/BSP/Components/lis3dsh/../Common/accelero.h"
 817              		.file 5 "Drivers/BSP/Components/lis3dsh/lis3dsh.h"
ARM GAS  /var/folders/0z/tsy30v1j4xl4_7kw94k978ww0000gn/T//ccRAWizm.s 			page 25


DEFINED SYMBOLS
                            *ABS*:0000000000000000 lis3dsh.c
/var/folders/0z/tsy30v1j4xl4_7kw94k978ww0000gn/T//ccRAWizm.s:20     .text.LIS3DSH_DeInit:0000000000000000 $t
/var/folders/0z/tsy30v1j4xl4_7kw94k978ww0000gn/T//ccRAWizm.s:26     .text.LIS3DSH_DeInit:0000000000000000 LIS3DSH_DeInit
/var/folders/0z/tsy30v1j4xl4_7kw94k978ww0000gn/T//ccRAWizm.s:40     .text.LIS3DSH_Init:0000000000000000 $t
/var/folders/0z/tsy30v1j4xl4_7kw94k978ww0000gn/T//ccRAWizm.s:46     .text.LIS3DSH_Init:0000000000000000 LIS3DSH_Init
/var/folders/0z/tsy30v1j4xl4_7kw94k978ww0000gn/T//ccRAWizm.s:97     .text.LIS3DSH_ReadID:0000000000000000 $t
/var/folders/0z/tsy30v1j4xl4_7kw94k978ww0000gn/T//ccRAWizm.s:103    .text.LIS3DSH_ReadID:0000000000000000 LIS3DSH_ReadID
/var/folders/0z/tsy30v1j4xl4_7kw94k978ww0000gn/T//ccRAWizm.s:138    .text.LIS3DSH_RebootCmd:0000000000000000 $t
/var/folders/0z/tsy30v1j4xl4_7kw94k978ww0000gn/T//ccRAWizm.s:144    .text.LIS3DSH_RebootCmd:0000000000000000 LIS3DSH_RebootCmd
/var/folders/0z/tsy30v1j4xl4_7kw94k978ww0000gn/T//ccRAWizm.s:182    .text.LIS3DSH_ReadACC:0000000000000000 $t
/var/folders/0z/tsy30v1j4xl4_7kw94k978ww0000gn/T//ccRAWizm.s:188    .text.LIS3DSH_ReadACC:0000000000000000 LIS3DSH_ReadACC
/var/folders/0z/tsy30v1j4xl4_7kw94k978ww0000gn/T//ccRAWizm.s:262    .text.LIS3DSH_ReadACC:0000000000000068 $d
/var/folders/0z/tsy30v1j4xl4_7kw94k978ww0000gn/T//ccRAWizm.s:377    .text.LIS3DSH_ReadACC:00000000000000e0 $d
/var/folders/0z/tsy30v1j4xl4_7kw94k978ww0000gn/T//ccRAWizm.s:386    .text.LIS3DSH_InterruptConfig:0000000000000000 $t
/var/folders/0z/tsy30v1j4xl4_7kw94k978ww0000gn/T//ccRAWizm.s:392    .text.LIS3DSH_InterruptConfig:0000000000000000 LIS3DSH_InterruptConfig
/var/folders/0z/tsy30v1j4xl4_7kw94k978ww0000gn/T//ccRAWizm.s:471    .text.LIS3DSH_Click_IntConfig:0000000000000000 $t
/var/folders/0z/tsy30v1j4xl4_7kw94k978ww0000gn/T//ccRAWizm.s:477    .text.LIS3DSH_Click_IntConfig:0000000000000000 LIS3DSH_Click_IntConfig
/var/folders/0z/tsy30v1j4xl4_7kw94k978ww0000gn/T//ccRAWizm.s:632    .text.LIS3DSH_ODR_LowpowerCmd:0000000000000000 $t
/var/folders/0z/tsy30v1j4xl4_7kw94k978ww0000gn/T//ccRAWizm.s:638    .text.LIS3DSH_ODR_LowpowerCmd:0000000000000000 LIS3DSH_ODR_LowpowerCmd
/var/folders/0z/tsy30v1j4xl4_7kw94k978ww0000gn/T//ccRAWizm.s:686    .text.LIS3DSH_DataRateCmd:0000000000000000 $t
/var/folders/0z/tsy30v1j4xl4_7kw94k978ww0000gn/T//ccRAWizm.s:692    .text.LIS3DSH_DataRateCmd:0000000000000000 LIS3DSH_DataRateCmd
/var/folders/0z/tsy30v1j4xl4_7kw94k978ww0000gn/T//ccRAWizm.s:740    .text.LIS3DSH_FullScaleCmd:0000000000000000 $t
/var/folders/0z/tsy30v1j4xl4_7kw94k978ww0000gn/T//ccRAWizm.s:746    .text.LIS3DSH_FullScaleCmd:0000000000000000 LIS3DSH_FullScaleCmd
/var/folders/0z/tsy30v1j4xl4_7kw94k978ww0000gn/T//ccRAWizm.s:798    .data.Lis3dshDrv:0000000000000000 Lis3dshDrv
/var/folders/0z/tsy30v1j4xl4_7kw94k978ww0000gn/T//ccRAWizm.s:795    .data.Lis3dshDrv:0000000000000000 $d
/var/folders/0z/tsy30v1j4xl4_7kw94k978ww0000gn/T//ccRAWizm.s:287    .text.LIS3DSH_ReadACC:0000000000000081 $d
/var/folders/0z/tsy30v1j4xl4_7kw94k978ww0000gn/T//ccRAWizm.s:287    .text.LIS3DSH_ReadACC:0000000000000082 $t

UNDEFINED SYMBOLS
ACCELERO_IO_Init
ACCELERO_IO_Write
ACCELERO_IO_Read
ACCELERO_IO_ITConfig
