ARM GAS  /var/folders/0z/tsy30v1j4xl4_7kw94k978ww0000gn/T//ccG3jHmf.s 			page 1


   1              		.cpu cortex-m4
   2              		.arch armv7e-m
   3              		.fpu fpv4-sp-d16
   4              		.eabi_attribute 27, 1
   5              		.eabi_attribute 28, 1
   6              		.eabi_attribute 23, 1
   7              		.eabi_attribute 24, 1
   8              		.eabi_attribute 25, 1
   9              		.eabi_attribute 26, 1
  10              		.eabi_attribute 30, 2
  11              		.eabi_attribute 34, 1
  12              		.eabi_attribute 18, 4
  13              		.file	"lis3dsh.c"
  14              		.text
  15              	.Ltext0:
  16              		.cfi_sections	.debug_frame
  17              		.section	.text.LIS3DSH_DeInit,"ax",%progbits
  18              		.align	1
  19              		.p2align 2,,3
  20              		.global	LIS3DSH_DeInit
  21              		.syntax unified
  22              		.thumb
  23              		.thumb_func
  25              	LIS3DSH_DeInit:
  26              	.LFB1:
  27              		.file 1 "Drivers/BSP/Components/lis3dsh/lis3dsh.c"
   1:Drivers/BSP/Components/lis3dsh/lis3dsh.c **** /**
   2:Drivers/BSP/Components/lis3dsh/lis3dsh.c ****   ******************************************************************************
   3:Drivers/BSP/Components/lis3dsh/lis3dsh.c ****   * @file    lis3dsh.c
   4:Drivers/BSP/Components/lis3dsh/lis3dsh.c ****   * @author  MCD Application Team
   5:Drivers/BSP/Components/lis3dsh/lis3dsh.c ****   * @version V2.0.0
   6:Drivers/BSP/Components/lis3dsh/lis3dsh.c ****   * @date    03-August-2015
   7:Drivers/BSP/Components/lis3dsh/lis3dsh.c ****   * @brief   This file provides a set of functions needed to manage the LIS3DSH
   8:Drivers/BSP/Components/lis3dsh/lis3dsh.c ****   *          MEMS Accelerometer.
   9:Drivers/BSP/Components/lis3dsh/lis3dsh.c ****   ******************************************************************************
  10:Drivers/BSP/Components/lis3dsh/lis3dsh.c ****   * @attention
  11:Drivers/BSP/Components/lis3dsh/lis3dsh.c ****   *
  12:Drivers/BSP/Components/lis3dsh/lis3dsh.c ****   * <h2><center>&copy; COPYRIGHT(c) 2015 STMicroelectronics</center></h2>
  13:Drivers/BSP/Components/lis3dsh/lis3dsh.c ****   *
  14:Drivers/BSP/Components/lis3dsh/lis3dsh.c ****   * Redistribution and use in source and binary forms, with or without modification,
  15:Drivers/BSP/Components/lis3dsh/lis3dsh.c ****   * are permitted provided that the following conditions are met:
  16:Drivers/BSP/Components/lis3dsh/lis3dsh.c ****   *   1. Redistributions of source code must retain the above copyright notice,
  17:Drivers/BSP/Components/lis3dsh/lis3dsh.c ****   *      this list of conditions and the following disclaimer.
  18:Drivers/BSP/Components/lis3dsh/lis3dsh.c ****   *   2. Redistributions in binary form must reproduce the above copyright notice,
  19:Drivers/BSP/Components/lis3dsh/lis3dsh.c ****   *      this list of conditions and the following disclaimer in the documentation
  20:Drivers/BSP/Components/lis3dsh/lis3dsh.c ****   *      and/or other materials provided with the distribution.
  21:Drivers/BSP/Components/lis3dsh/lis3dsh.c ****   *   3. Neither the name of STMicroelectronics nor the names of its contributors
  22:Drivers/BSP/Components/lis3dsh/lis3dsh.c ****   *      may be used to endorse or promote products derived from this software
  23:Drivers/BSP/Components/lis3dsh/lis3dsh.c ****   *      without specific prior written permission.
  24:Drivers/BSP/Components/lis3dsh/lis3dsh.c ****   *
  25:Drivers/BSP/Components/lis3dsh/lis3dsh.c ****   * THIS SOFTWARE IS PROVIDED BY THE COPYRIGHT HOLDERS AND CONTRIBUTORS "AS IS"
  26:Drivers/BSP/Components/lis3dsh/lis3dsh.c ****   * AND ANY EXPRESS OR IMPLIED WARRANTIES, INCLUDING, BUT NOT LIMITED TO, THE
  27:Drivers/BSP/Components/lis3dsh/lis3dsh.c ****   * IMPLIED WARRANTIES OF MERCHANTABILITY AND FITNESS FOR A PARTICULAR PURPOSE ARE
  28:Drivers/BSP/Components/lis3dsh/lis3dsh.c ****   * DISCLAIMED. IN NO EVENT SHALL THE COPYRIGHT HOLDER OR CONTRIBUTORS BE LIABLE
  29:Drivers/BSP/Components/lis3dsh/lis3dsh.c ****   * FOR ANY DIRECT, INDIRECT, INCIDENTAL, SPECIAL, EXEMPLARY, OR CONSEQUENTIAL
  30:Drivers/BSP/Components/lis3dsh/lis3dsh.c ****   * DAMAGES (INCLUDING, BUT NOT LIMITED TO, PROCUREMENT OF SUBSTITUTE GOODS OR
  31:Drivers/BSP/Components/lis3dsh/lis3dsh.c ****   * SERVICES; LOSS OF USE, DATA, OR PROFITS; OR BUSINESS INTERRUPTION) HOWEVER
ARM GAS  /var/folders/0z/tsy30v1j4xl4_7kw94k978ww0000gn/T//ccG3jHmf.s 			page 2


  32:Drivers/BSP/Components/lis3dsh/lis3dsh.c ****   * CAUSED AND ON ANY THEORY OF LIABILITY, WHETHER IN CONTRACT, STRICT LIABILITY,
  33:Drivers/BSP/Components/lis3dsh/lis3dsh.c ****   * OR TORT (INCLUDING NEGLIGENCE OR OTHERWISE) ARISING IN ANY WAY OUT OF THE USE
  34:Drivers/BSP/Components/lis3dsh/lis3dsh.c ****   * OF THIS SOFTWARE, EVEN IF ADVISED OF THE POSSIBILITY OF SUCH DAMAGE.
  35:Drivers/BSP/Components/lis3dsh/lis3dsh.c ****   *
  36:Drivers/BSP/Components/lis3dsh/lis3dsh.c ****   ******************************************************************************
  37:Drivers/BSP/Components/lis3dsh/lis3dsh.c ****   */
  38:Drivers/BSP/Components/lis3dsh/lis3dsh.c **** 
  39:Drivers/BSP/Components/lis3dsh/lis3dsh.c **** /* Includes ------------------------------------------------------------------*/
  40:Drivers/BSP/Components/lis3dsh/lis3dsh.c **** #include "lis3dsh.h"
  41:Drivers/BSP/Components/lis3dsh/lis3dsh.c **** 
  42:Drivers/BSP/Components/lis3dsh/lis3dsh.c **** /** @addtogroup BSP
  43:Drivers/BSP/Components/lis3dsh/lis3dsh.c ****   * @{
  44:Drivers/BSP/Components/lis3dsh/lis3dsh.c ****   */ 
  45:Drivers/BSP/Components/lis3dsh/lis3dsh.c **** 
  46:Drivers/BSP/Components/lis3dsh/lis3dsh.c **** /** @addtogroup Components
  47:Drivers/BSP/Components/lis3dsh/lis3dsh.c ****   * @{
  48:Drivers/BSP/Components/lis3dsh/lis3dsh.c ****   */ 
  49:Drivers/BSP/Components/lis3dsh/lis3dsh.c **** 
  50:Drivers/BSP/Components/lis3dsh/lis3dsh.c **** /** @addtogroup LIS3DSH
  51:Drivers/BSP/Components/lis3dsh/lis3dsh.c ****   * @brief  This file includes the motion sensor driver for LIS3DSH motion sensor 
  52:Drivers/BSP/Components/lis3dsh/lis3dsh.c ****   *         devices.
  53:Drivers/BSP/Components/lis3dsh/lis3dsh.c ****   * @{
  54:Drivers/BSP/Components/lis3dsh/lis3dsh.c ****   */
  55:Drivers/BSP/Components/lis3dsh/lis3dsh.c **** 
  56:Drivers/BSP/Components/lis3dsh/lis3dsh.c **** /** @defgroup LIS3DSH_Private_TypesDefinitions
  57:Drivers/BSP/Components/lis3dsh/lis3dsh.c ****   * @{
  58:Drivers/BSP/Components/lis3dsh/lis3dsh.c ****   */
  59:Drivers/BSP/Components/lis3dsh/lis3dsh.c **** 
  60:Drivers/BSP/Components/lis3dsh/lis3dsh.c **** /**
  61:Drivers/BSP/Components/lis3dsh/lis3dsh.c ****   * @}
  62:Drivers/BSP/Components/lis3dsh/lis3dsh.c ****   */
  63:Drivers/BSP/Components/lis3dsh/lis3dsh.c **** 
  64:Drivers/BSP/Components/lis3dsh/lis3dsh.c **** /** @defgroup LIS3DSH_Private_Defines
  65:Drivers/BSP/Components/lis3dsh/lis3dsh.c ****   * @{
  66:Drivers/BSP/Components/lis3dsh/lis3dsh.c ****   */
  67:Drivers/BSP/Components/lis3dsh/lis3dsh.c **** 
  68:Drivers/BSP/Components/lis3dsh/lis3dsh.c **** /**
  69:Drivers/BSP/Components/lis3dsh/lis3dsh.c ****   * @}
  70:Drivers/BSP/Components/lis3dsh/lis3dsh.c ****   */
  71:Drivers/BSP/Components/lis3dsh/lis3dsh.c **** 
  72:Drivers/BSP/Components/lis3dsh/lis3dsh.c **** /** @defgroup LIS3DSH_Private_Macros
  73:Drivers/BSP/Components/lis3dsh/lis3dsh.c ****   * @{
  74:Drivers/BSP/Components/lis3dsh/lis3dsh.c ****   */
  75:Drivers/BSP/Components/lis3dsh/lis3dsh.c **** 
  76:Drivers/BSP/Components/lis3dsh/lis3dsh.c **** /**
  77:Drivers/BSP/Components/lis3dsh/lis3dsh.c ****   * @}
  78:Drivers/BSP/Components/lis3dsh/lis3dsh.c ****   */ 
  79:Drivers/BSP/Components/lis3dsh/lis3dsh.c ****   
  80:Drivers/BSP/Components/lis3dsh/lis3dsh.c **** /** @defgroup LIS3DSH_Private_Variables
  81:Drivers/BSP/Components/lis3dsh/lis3dsh.c ****   * @{
  82:Drivers/BSP/Components/lis3dsh/lis3dsh.c ****   */
  83:Drivers/BSP/Components/lis3dsh/lis3dsh.c **** ACCELERO_DrvTypeDef Lis3dshDrv =
  84:Drivers/BSP/Components/lis3dsh/lis3dsh.c **** {
  85:Drivers/BSP/Components/lis3dsh/lis3dsh.c ****   LIS3DSH_Init,
  86:Drivers/BSP/Components/lis3dsh/lis3dsh.c ****   LIS3DSH_DeInit,
  87:Drivers/BSP/Components/lis3dsh/lis3dsh.c ****   LIS3DSH_ReadID,
  88:Drivers/BSP/Components/lis3dsh/lis3dsh.c ****   LIS3DSH_RebootCmd,
ARM GAS  /var/folders/0z/tsy30v1j4xl4_7kw94k978ww0000gn/T//ccG3jHmf.s 			page 3


  89:Drivers/BSP/Components/lis3dsh/lis3dsh.c ****   LIS3DSH_Click_IntConfig,
  90:Drivers/BSP/Components/lis3dsh/lis3dsh.c ****   0,
  91:Drivers/BSP/Components/lis3dsh/lis3dsh.c ****   0,
  92:Drivers/BSP/Components/lis3dsh/lis3dsh.c ****   0,
  93:Drivers/BSP/Components/lis3dsh/lis3dsh.c ****   0,
  94:Drivers/BSP/Components/lis3dsh/lis3dsh.c ****   0,
  95:Drivers/BSP/Components/lis3dsh/lis3dsh.c ****   0,
  96:Drivers/BSP/Components/lis3dsh/lis3dsh.c ****   0,
  97:Drivers/BSP/Components/lis3dsh/lis3dsh.c ****   LIS3DSH_ReadACC,
  98:Drivers/BSP/Components/lis3dsh/lis3dsh.c **** };
  99:Drivers/BSP/Components/lis3dsh/lis3dsh.c **** 
 100:Drivers/BSP/Components/lis3dsh/lis3dsh.c **** /**
 101:Drivers/BSP/Components/lis3dsh/lis3dsh.c ****   * @}
 102:Drivers/BSP/Components/lis3dsh/lis3dsh.c ****   */
 103:Drivers/BSP/Components/lis3dsh/lis3dsh.c **** 
 104:Drivers/BSP/Components/lis3dsh/lis3dsh.c **** /** @defgroup LIS3DSH_Private_FunctionPrototypes
 105:Drivers/BSP/Components/lis3dsh/lis3dsh.c ****   * @{
 106:Drivers/BSP/Components/lis3dsh/lis3dsh.c ****   */
 107:Drivers/BSP/Components/lis3dsh/lis3dsh.c ****   
 108:Drivers/BSP/Components/lis3dsh/lis3dsh.c **** /**
 109:Drivers/BSP/Components/lis3dsh/lis3dsh.c ****   * @}
 110:Drivers/BSP/Components/lis3dsh/lis3dsh.c ****   */
 111:Drivers/BSP/Components/lis3dsh/lis3dsh.c **** 
 112:Drivers/BSP/Components/lis3dsh/lis3dsh.c **** /** @defgroup LIS3DSH_Private_Functions
 113:Drivers/BSP/Components/lis3dsh/lis3dsh.c ****   * @{
 114:Drivers/BSP/Components/lis3dsh/lis3dsh.c ****   */
 115:Drivers/BSP/Components/lis3dsh/lis3dsh.c **** 
 116:Drivers/BSP/Components/lis3dsh/lis3dsh.c **** /**
 117:Drivers/BSP/Components/lis3dsh/lis3dsh.c ****   * @brief  Set LIS3DSH Initialization.
 118:Drivers/BSP/Components/lis3dsh/lis3dsh.c ****   * @param  InitStruct: contains mask of different init parameters
 119:Drivers/BSP/Components/lis3dsh/lis3dsh.c ****   * @retval None
 120:Drivers/BSP/Components/lis3dsh/lis3dsh.c ****   */
 121:Drivers/BSP/Components/lis3dsh/lis3dsh.c **** void LIS3DSH_Init(uint16_t InitStruct)
 122:Drivers/BSP/Components/lis3dsh/lis3dsh.c **** {
 123:Drivers/BSP/Components/lis3dsh/lis3dsh.c ****   uint8_t ctrl = 0x00;
 124:Drivers/BSP/Components/lis3dsh/lis3dsh.c ****   
 125:Drivers/BSP/Components/lis3dsh/lis3dsh.c ****   /* Configure the low level interface */
 126:Drivers/BSP/Components/lis3dsh/lis3dsh.c ****   ACCELERO_IO_Init();
 127:Drivers/BSP/Components/lis3dsh/lis3dsh.c **** 
 128:Drivers/BSP/Components/lis3dsh/lis3dsh.c ****   /* Configure MEMS: power mode(ODR) and axes enable */
 129:Drivers/BSP/Components/lis3dsh/lis3dsh.c ****   ctrl = (uint8_t) (InitStruct);
 130:Drivers/BSP/Components/lis3dsh/lis3dsh.c ****   
 131:Drivers/BSP/Components/lis3dsh/lis3dsh.c ****   /* Write value to MEMS CTRL_REG4 register */
 132:Drivers/BSP/Components/lis3dsh/lis3dsh.c ****   ACCELERO_IO_Write(&ctrl, LIS3DSH_CTRL_REG4_ADDR, 1);
 133:Drivers/BSP/Components/lis3dsh/lis3dsh.c ****   
 134:Drivers/BSP/Components/lis3dsh/lis3dsh.c ****   /* Configure MEMS: full scale and self test */
 135:Drivers/BSP/Components/lis3dsh/lis3dsh.c ****   ctrl = (uint8_t) (InitStruct >> 8);
 136:Drivers/BSP/Components/lis3dsh/lis3dsh.c ****   
 137:Drivers/BSP/Components/lis3dsh/lis3dsh.c ****   /* Write value to MEMS CTRL_REG5 register */
 138:Drivers/BSP/Components/lis3dsh/lis3dsh.c ****   ACCELERO_IO_Write(&ctrl, LIS3DSH_CTRL_REG5_ADDR, 1);
 139:Drivers/BSP/Components/lis3dsh/lis3dsh.c **** }
 140:Drivers/BSP/Components/lis3dsh/lis3dsh.c **** 
 141:Drivers/BSP/Components/lis3dsh/lis3dsh.c **** /**
 142:Drivers/BSP/Components/lis3dsh/lis3dsh.c ****   * @brief  LIS3DSH De-Initialization.
 143:Drivers/BSP/Components/lis3dsh/lis3dsh.c ****   * @param  None
 144:Drivers/BSP/Components/lis3dsh/lis3dsh.c ****   * @retval None.
 145:Drivers/BSP/Components/lis3dsh/lis3dsh.c ****   */
ARM GAS  /var/folders/0z/tsy30v1j4xl4_7kw94k978ww0000gn/T//ccG3jHmf.s 			page 4


 146:Drivers/BSP/Components/lis3dsh/lis3dsh.c **** void LIS3DSH_DeInit(void)
 147:Drivers/BSP/Components/lis3dsh/lis3dsh.c **** {
  28              		.loc 1 147 1 view -0
  29              		.cfi_startproc
  30              		@ args = 0, pretend = 0, frame = 0
  31              		@ frame_needed = 0, uses_anonymous_args = 0
  32              		@ link register save eliminated.
 148:Drivers/BSP/Components/lis3dsh/lis3dsh.c ****   
 149:Drivers/BSP/Components/lis3dsh/lis3dsh.c **** }
  33              		.loc 1 149 1 view .LVU1
  34 0000 7047     		bx	lr
  35              		.cfi_endproc
  36              	.LFE1:
  38 0002 00BF     		.section	.text.LIS3DSH_Init,"ax",%progbits
  39              		.align	1
  40              		.p2align 2,,3
  41              		.global	LIS3DSH_Init
  42              		.syntax unified
  43              		.thumb
  44              		.thumb_func
  46              	LIS3DSH_Init:
  47              	.LVL0:
  48              	.LFB0:
 122:Drivers/BSP/Components/lis3dsh/lis3dsh.c ****   uint8_t ctrl = 0x00;
  49              		.loc 1 122 1 view -0
  50              		.cfi_startproc
  51              		@ args = 0, pretend = 0, frame = 8
  52              		@ frame_needed = 0, uses_anonymous_args = 0
 123:Drivers/BSP/Components/lis3dsh/lis3dsh.c ****   
  53              		.loc 1 123 3 view .LVU3
 122:Drivers/BSP/Components/lis3dsh/lis3dsh.c ****   uint8_t ctrl = 0x00;
  54              		.loc 1 122 1 is_stmt 0 view .LVU4
  55 0000 10B5     		push	{r4, lr}
  56              		.cfi_def_cfa_offset 8
  57              		.cfi_offset 4, -8
  58              		.cfi_offset 14, -4
  59 0002 82B0     		sub	sp, sp, #8
  60              		.cfi_def_cfa_offset 16
 123:Drivers/BSP/Components/lis3dsh/lis3dsh.c ****   
  61              		.loc 1 123 11 view .LVU5
  62 0004 0023     		movs	r3, #0
 122:Drivers/BSP/Components/lis3dsh/lis3dsh.c ****   uint8_t ctrl = 0x00;
  63              		.loc 1 122 1 view .LVU6
  64 0006 0446     		mov	r4, r0
 123:Drivers/BSP/Components/lis3dsh/lis3dsh.c ****   
  65              		.loc 1 123 11 view .LVU7
  66 0008 8DF80730 		strb	r3, [sp, #7]
 126:Drivers/BSP/Components/lis3dsh/lis3dsh.c **** 
  67              		.loc 1 126 3 is_stmt 1 view .LVU8
  68 000c FFF7FEFF 		bl	ACCELERO_IO_Init
  69              	.LVL1:
 129:Drivers/BSP/Components/lis3dsh/lis3dsh.c ****   
  70              		.loc 1 129 3 view .LVU9
 132:Drivers/BSP/Components/lis3dsh/lis3dsh.c ****   
  71              		.loc 1 132 3 is_stmt 0 view .LVU10
  72 0010 0DF10700 		add	r0, sp, #7
  73 0014 0122     		movs	r2, #1
ARM GAS  /var/folders/0z/tsy30v1j4xl4_7kw94k978ww0000gn/T//ccG3jHmf.s 			page 5


  74 0016 2021     		movs	r1, #32
 129:Drivers/BSP/Components/lis3dsh/lis3dsh.c ****   
  75              		.loc 1 129 10 view .LVU11
  76 0018 8DF80740 		strb	r4, [sp, #7]
 132:Drivers/BSP/Components/lis3dsh/lis3dsh.c ****   
  77              		.loc 1 132 3 is_stmt 1 view .LVU12
  78 001c FFF7FEFF 		bl	ACCELERO_IO_Write
  79              	.LVL2:
 135:Drivers/BSP/Components/lis3dsh/lis3dsh.c ****   
  80              		.loc 1 135 3 view .LVU13
 135:Drivers/BSP/Components/lis3dsh/lis3dsh.c ****   
  81              		.loc 1 135 10 is_stmt 0 view .LVU14
  82 0020 240A     		lsrs	r4, r4, #8
 138:Drivers/BSP/Components/lis3dsh/lis3dsh.c **** }
  83              		.loc 1 138 3 view .LVU15
  84 0022 0122     		movs	r2, #1
  85 0024 2421     		movs	r1, #36
  86 0026 0DF10700 		add	r0, sp, #7
 135:Drivers/BSP/Components/lis3dsh/lis3dsh.c ****   
  87              		.loc 1 135 10 view .LVU16
  88 002a 8DF80740 		strb	r4, [sp, #7]
 138:Drivers/BSP/Components/lis3dsh/lis3dsh.c **** }
  89              		.loc 1 138 3 is_stmt 1 view .LVU17
  90 002e FFF7FEFF 		bl	ACCELERO_IO_Write
  91              	.LVL3:
 139:Drivers/BSP/Components/lis3dsh/lis3dsh.c **** 
  92              		.loc 1 139 1 is_stmt 0 view .LVU18
  93 0032 02B0     		add	sp, sp, #8
  94              		.cfi_def_cfa_offset 8
  95              		@ sp needed
  96 0034 10BD     		pop	{r4, pc}
  97              		.cfi_endproc
  98              	.LFE0:
 100 0036 00BF     		.section	.text.LIS3DSH_ReadID,"ax",%progbits
 101              		.align	1
 102              		.p2align 2,,3
 103              		.global	LIS3DSH_ReadID
 104              		.syntax unified
 105              		.thumb
 106              		.thumb_func
 108              	LIS3DSH_ReadID:
 109              	.LFB2:
 150:Drivers/BSP/Components/lis3dsh/lis3dsh.c **** 
 151:Drivers/BSP/Components/lis3dsh/lis3dsh.c **** /**
 152:Drivers/BSP/Components/lis3dsh/lis3dsh.c ****   * @brief  Read LIS3DSH device ID.
 153:Drivers/BSP/Components/lis3dsh/lis3dsh.c ****   * @param  None
 154:Drivers/BSP/Components/lis3dsh/lis3dsh.c ****   * @retval The Device ID (two bytes).
 155:Drivers/BSP/Components/lis3dsh/lis3dsh.c ****   */
 156:Drivers/BSP/Components/lis3dsh/lis3dsh.c **** uint8_t LIS3DSH_ReadID(void)
 157:Drivers/BSP/Components/lis3dsh/lis3dsh.c **** {
 110              		.loc 1 157 1 is_stmt 1 view -0
 111              		.cfi_startproc
 112              		@ args = 0, pretend = 0, frame = 8
 113              		@ frame_needed = 0, uses_anonymous_args = 0
 158:Drivers/BSP/Components/lis3dsh/lis3dsh.c ****   uint8_t tmp = 0;
 114              		.loc 1 158 3 view .LVU20
 157:Drivers/BSP/Components/lis3dsh/lis3dsh.c ****   uint8_t tmp = 0;
ARM GAS  /var/folders/0z/tsy30v1j4xl4_7kw94k978ww0000gn/T//ccG3jHmf.s 			page 6


 115              		.loc 1 157 1 is_stmt 0 view .LVU21
 116 0000 00B5     		push	{lr}
 117              		.cfi_def_cfa_offset 4
 118              		.cfi_offset 14, -4
 119 0002 83B0     		sub	sp, sp, #12
 120              		.cfi_def_cfa_offset 16
 121              		.loc 1 158 11 view .LVU22
 122 0004 0023     		movs	r3, #0
 123 0006 8DF80730 		strb	r3, [sp, #7]
 159:Drivers/BSP/Components/lis3dsh/lis3dsh.c **** 
 160:Drivers/BSP/Components/lis3dsh/lis3dsh.c ****   /* Configure the low level interface */
 161:Drivers/BSP/Components/lis3dsh/lis3dsh.c ****   ACCELERO_IO_Init();
 124              		.loc 1 161 3 is_stmt 1 view .LVU23
 125 000a FFF7FEFF 		bl	ACCELERO_IO_Init
 126              	.LVL4:
 162:Drivers/BSP/Components/lis3dsh/lis3dsh.c **** 
 163:Drivers/BSP/Components/lis3dsh/lis3dsh.c ****   /* Read WHO_AM_I register */
 164:Drivers/BSP/Components/lis3dsh/lis3dsh.c ****   ACCELERO_IO_Read(&tmp, LIS3DSH_WHO_AM_I_ADDR, 1);
 127              		.loc 1 164 3 view .LVU24
 128 000e 0DF10700 		add	r0, sp, #7
 129 0012 0122     		movs	r2, #1
 130 0014 0F21     		movs	r1, #15
 131 0016 FFF7FEFF 		bl	ACCELERO_IO_Read
 132              	.LVL5:
 165:Drivers/BSP/Components/lis3dsh/lis3dsh.c ****   
 166:Drivers/BSP/Components/lis3dsh/lis3dsh.c ****   /* Return the ID */
 167:Drivers/BSP/Components/lis3dsh/lis3dsh.c ****   return (uint16_t)tmp;
 133              		.loc 1 167 3 view .LVU25
 168:Drivers/BSP/Components/lis3dsh/lis3dsh.c **** }
 134              		.loc 1 168 1 is_stmt 0 view .LVU26
 135 001a 9DF80700 		ldrb	r0, [sp, #7]	@ zero_extendqisi2
 136 001e 03B0     		add	sp, sp, #12
 137              		.cfi_def_cfa_offset 4
 138              		@ sp needed
 139 0020 5DF804FB 		ldr	pc, [sp], #4
 140              		.cfi_endproc
 141              	.LFE2:
 143              		.section	.text.LIS3DSH_RebootCmd,"ax",%progbits
 144              		.align	1
 145              		.p2align 2,,3
 146              		.global	LIS3DSH_RebootCmd
 147              		.syntax unified
 148              		.thumb
 149              		.thumb_func
 151              	LIS3DSH_RebootCmd:
 152              	.LFB8:
 169:Drivers/BSP/Components/lis3dsh/lis3dsh.c **** 
 170:Drivers/BSP/Components/lis3dsh/lis3dsh.c **** /**
 171:Drivers/BSP/Components/lis3dsh/lis3dsh.c ****   * @brief  Set LIS3DSH Interrupt configuration
 172:Drivers/BSP/Components/lis3dsh/lis3dsh.c ****   * @param  LIS3DSH_InterruptConfig_TypeDef: pointer to a LIS3DSH_InterruptConfig_TypeDef 
 173:Drivers/BSP/Components/lis3dsh/lis3dsh.c ****   *         structure that contains the configuration setting for the LIS3DSH Interrupt.
 174:Drivers/BSP/Components/lis3dsh/lis3dsh.c ****   * @retval None
 175:Drivers/BSP/Components/lis3dsh/lis3dsh.c ****   */
 176:Drivers/BSP/Components/lis3dsh/lis3dsh.c **** void LIS3DSH_InterruptConfig(LIS3DSH_InterruptConfigTypeDef *LIS3DSH_IntConfigStruct)
 177:Drivers/BSP/Components/lis3dsh/lis3dsh.c **** {
 178:Drivers/BSP/Components/lis3dsh/lis3dsh.c ****   uint8_t ctrl = 0x00;
 179:Drivers/BSP/Components/lis3dsh/lis3dsh.c ****   
ARM GAS  /var/folders/0z/tsy30v1j4xl4_7kw94k978ww0000gn/T//ccG3jHmf.s 			page 7


 180:Drivers/BSP/Components/lis3dsh/lis3dsh.c ****   /* Configure Interrupt Selection , Request and Signal */                   
 181:Drivers/BSP/Components/lis3dsh/lis3dsh.c ****   ctrl = (uint8_t)(LIS3DSH_IntConfigStruct->Interrupt_Selection_Enable | \
 182:Drivers/BSP/Components/lis3dsh/lis3dsh.c ****                    LIS3DSH_IntConfigStruct->Interrupt_Request | \
 183:Drivers/BSP/Components/lis3dsh/lis3dsh.c ****                    LIS3DSH_IntConfigStruct->Interrupt_Signal);
 184:Drivers/BSP/Components/lis3dsh/lis3dsh.c ****   
 185:Drivers/BSP/Components/lis3dsh/lis3dsh.c ****   /* Write value to MEMS CTRL_REG3 register */
 186:Drivers/BSP/Components/lis3dsh/lis3dsh.c ****   ACCELERO_IO_Write(&ctrl, LIS3DSH_CTRL_REG3_ADDR, 1);
 187:Drivers/BSP/Components/lis3dsh/lis3dsh.c ****   
 188:Drivers/BSP/Components/lis3dsh/lis3dsh.c ****   /* Configure State Machine 1 */                   
 189:Drivers/BSP/Components/lis3dsh/lis3dsh.c ****   ctrl = (uint8_t)(LIS3DSH_IntConfigStruct->State_Machine1_Enable | \
 190:Drivers/BSP/Components/lis3dsh/lis3dsh.c ****                    LIS3DSH_IntConfigStruct->State_Machine1_Interrupt);
 191:Drivers/BSP/Components/lis3dsh/lis3dsh.c ****   
 192:Drivers/BSP/Components/lis3dsh/lis3dsh.c ****   /* Write value to MEMS CTRL_REG1 register */
 193:Drivers/BSP/Components/lis3dsh/lis3dsh.c ****   ACCELERO_IO_Write(&ctrl, LIS3DSH_CTRL_REG1_ADDR, 1);
 194:Drivers/BSP/Components/lis3dsh/lis3dsh.c ****   
 195:Drivers/BSP/Components/lis3dsh/lis3dsh.c ****   /* Configure State Machine 2 */                   
 196:Drivers/BSP/Components/lis3dsh/lis3dsh.c ****   ctrl = (uint8_t)(LIS3DSH_IntConfigStruct->State_Machine2_Enable | \
 197:Drivers/BSP/Components/lis3dsh/lis3dsh.c ****                    LIS3DSH_IntConfigStruct->State_Machine2_Interrupt);
 198:Drivers/BSP/Components/lis3dsh/lis3dsh.c ****   
 199:Drivers/BSP/Components/lis3dsh/lis3dsh.c ****   /* Write value to MEMS CTRL_REG2 register */
 200:Drivers/BSP/Components/lis3dsh/lis3dsh.c ****   ACCELERO_IO_Write(&ctrl, LIS3DSH_CTRL_REG2_ADDR, 1);
 201:Drivers/BSP/Components/lis3dsh/lis3dsh.c **** }
 202:Drivers/BSP/Components/lis3dsh/lis3dsh.c **** 
 203:Drivers/BSP/Components/lis3dsh/lis3dsh.c **** /**
 204:Drivers/BSP/Components/lis3dsh/lis3dsh.c ****   * @brief  Set LIS3DSH for click detection
 205:Drivers/BSP/Components/lis3dsh/lis3dsh.c ****   * @param  None
 206:Drivers/BSP/Components/lis3dsh/lis3dsh.c ****   * @retval None
 207:Drivers/BSP/Components/lis3dsh/lis3dsh.c ****   */
 208:Drivers/BSP/Components/lis3dsh/lis3dsh.c **** void LIS3DSH_Click_IntConfig(void)
 209:Drivers/BSP/Components/lis3dsh/lis3dsh.c **** {
 210:Drivers/BSP/Components/lis3dsh/lis3dsh.c ****   uint8_t ctrl = 0x00;
 211:Drivers/BSP/Components/lis3dsh/lis3dsh.c ****   LIS3DSH_InterruptConfigTypeDef   LIS3DSH_InterruptStruct; 
 212:Drivers/BSP/Components/lis3dsh/lis3dsh.c **** 
 213:Drivers/BSP/Components/lis3dsh/lis3dsh.c ****   ACCELERO_IO_ITConfig();
 214:Drivers/BSP/Components/lis3dsh/lis3dsh.c **** 
 215:Drivers/BSP/Components/lis3dsh/lis3dsh.c ****   /* Set LIS3DSH Interrupt configuration */
 216:Drivers/BSP/Components/lis3dsh/lis3dsh.c ****   LIS3DSH_InterruptStruct.Interrupt_Selection_Enable = LIS3DSH_INTERRUPT_2_ENABLE;
 217:Drivers/BSP/Components/lis3dsh/lis3dsh.c ****   LIS3DSH_InterruptStruct.Interrupt_Request = LIS3DSH_INTERRUPT_REQUEST_LATCHED;
 218:Drivers/BSP/Components/lis3dsh/lis3dsh.c ****   LIS3DSH_InterruptStruct.Interrupt_Signal = LIS3DSH_INTERRUPT_SIGNAL_HIGH;
 219:Drivers/BSP/Components/lis3dsh/lis3dsh.c ****   LIS3DSH_InterruptStruct.State_Machine1_Enable = LIS3DSH_SM_DISABLE;
 220:Drivers/BSP/Components/lis3dsh/lis3dsh.c ****   LIS3DSH_InterruptStruct.State_Machine2_Enable = LIS3DSH_SM_ENABLE;
 221:Drivers/BSP/Components/lis3dsh/lis3dsh.c ****   LIS3DSH_InterruptStruct.State_Machine2_Interrupt = LIS3DSH_SM_INT1;
 222:Drivers/BSP/Components/lis3dsh/lis3dsh.c ****   LIS3DSH_InterruptConfig(&LIS3DSH_InterruptStruct);
 223:Drivers/BSP/Components/lis3dsh/lis3dsh.c ****     
 224:Drivers/BSP/Components/lis3dsh/lis3dsh.c ****   /* Set LIS3DSH State Machines configuration */
 225:Drivers/BSP/Components/lis3dsh/lis3dsh.c ****   ctrl=0x03; 
 226:Drivers/BSP/Components/lis3dsh/lis3dsh.c ****   ACCELERO_IO_Write(&ctrl, LIS3DSH_TIM2_1_L_ADDR,1);
 227:Drivers/BSP/Components/lis3dsh/lis3dsh.c ****   ctrl=0xC8; 
 228:Drivers/BSP/Components/lis3dsh/lis3dsh.c ****   ACCELERO_IO_Write(&ctrl, LIS3DSH_TIM1_1_L_ADDR,1);
 229:Drivers/BSP/Components/lis3dsh/lis3dsh.c ****   ctrl=0x45; 
 230:Drivers/BSP/Components/lis3dsh/lis3dsh.c ****   ACCELERO_IO_Write(&ctrl, LIS3DSH_THRS2_1_ADDR,1);
 231:Drivers/BSP/Components/lis3dsh/lis3dsh.c ****   ctrl=0xFC; 
 232:Drivers/BSP/Components/lis3dsh/lis3dsh.c ****   ACCELERO_IO_Write(&ctrl, LIS3DSH_MASK1_A_ADDR,1);
 233:Drivers/BSP/Components/lis3dsh/lis3dsh.c ****   ctrl=0xA1; 
 234:Drivers/BSP/Components/lis3dsh/lis3dsh.c ****   ACCELERO_IO_Write(&ctrl, LIS3DSH_SETT1_ADDR,1);
 235:Drivers/BSP/Components/lis3dsh/lis3dsh.c ****   ctrl=0x01; 
 236:Drivers/BSP/Components/lis3dsh/lis3dsh.c ****   ACCELERO_IO_Write(&ctrl, LIS3DSH_PR1_ADDR,1);
ARM GAS  /var/folders/0z/tsy30v1j4xl4_7kw94k978ww0000gn/T//ccG3jHmf.s 			page 8


 237:Drivers/BSP/Components/lis3dsh/lis3dsh.c **** 
 238:Drivers/BSP/Components/lis3dsh/lis3dsh.c ****   ACCELERO_IO_Write(&ctrl, LIS3DSH_SETT2_ADDR,1);
 239:Drivers/BSP/Components/lis3dsh/lis3dsh.c ****   
 240:Drivers/BSP/Components/lis3dsh/lis3dsh.c ****   /* Configure State Machine 2 to detect single click */
 241:Drivers/BSP/Components/lis3dsh/lis3dsh.c ****   ACCELERO_IO_Write(&ctrl, LIS3DSH_ST2_1_ADDR,1);
 242:Drivers/BSP/Components/lis3dsh/lis3dsh.c ****   ctrl=0x06; 
 243:Drivers/BSP/Components/lis3dsh/lis3dsh.c ****   ACCELERO_IO_Write(&ctrl, LIS3DSH_ST2_2_ADDR,1);
 244:Drivers/BSP/Components/lis3dsh/lis3dsh.c ****   ctrl=0x28; 
 245:Drivers/BSP/Components/lis3dsh/lis3dsh.c ****   ACCELERO_IO_Write(&ctrl, LIS3DSH_ST2_3_ADDR,1);
 246:Drivers/BSP/Components/lis3dsh/lis3dsh.c ****   ctrl=0x11; 
 247:Drivers/BSP/Components/lis3dsh/lis3dsh.c ****   ACCELERO_IO_Write(&ctrl, LIS3DSH_ST2_4_ADDR,1);
 248:Drivers/BSP/Components/lis3dsh/lis3dsh.c **** }
 249:Drivers/BSP/Components/lis3dsh/lis3dsh.c **** 
 250:Drivers/BSP/Components/lis3dsh/lis3dsh.c **** /**
 251:Drivers/BSP/Components/lis3dsh/lis3dsh.c ****   * @brief  Change the lowpower mode for LIS3DSH.
 252:Drivers/BSP/Components/lis3dsh/lis3dsh.c ****   * @param  LowPowerMode: new state for the lowpower mode.
 253:Drivers/BSP/Components/lis3dsh/lis3dsh.c ****   *   This parameter can be one of the following values:
 254:Drivers/BSP/Components/lis3dsh/lis3dsh.c ****   *     @arg LIS3DSH_DATARATE_POWERDOWN: Power down mode
 255:Drivers/BSP/Components/lis3dsh/lis3dsh.c ****   *     @arg LIS3DSH_DATARATE_3_125: Normal mode. ODR: 3.125 Hz
 256:Drivers/BSP/Components/lis3dsh/lis3dsh.c ****   *     @arg LIS3DSH_DATARATE_6_25: Normal mode. ODR: 6.25 Hz
 257:Drivers/BSP/Components/lis3dsh/lis3dsh.c ****   *     @arg LIS3DSH_DATARATE_12_5: Normal mode. ODR: 12.5 Hz
 258:Drivers/BSP/Components/lis3dsh/lis3dsh.c ****   *     @arg LIS3DSH_DATARATE_25: Normal mode. ODR: 25 Hz
 259:Drivers/BSP/Components/lis3dsh/lis3dsh.c ****   *     @arg LIS3DSH_DATARATE_50: Normal mode. ODR: 50 Hz
 260:Drivers/BSP/Components/lis3dsh/lis3dsh.c ****   *     @arg LIS3DSH_DATARATE_100: Normal mode. ODR: 100 Hz
 261:Drivers/BSP/Components/lis3dsh/lis3dsh.c ****   *     @arg LIS3DSH_DATARATE_400: Normal mode. ODR: 400 Hz
 262:Drivers/BSP/Components/lis3dsh/lis3dsh.c ****   *     @arg LIS3DSH_DATARATE_800: Normal mode. ODR: 800 Hz
 263:Drivers/BSP/Components/lis3dsh/lis3dsh.c ****   *     @arg LIS3DSH_DATARATE_1600: Normal mode. ODR: 1600 Hz
 264:Drivers/BSP/Components/lis3dsh/lis3dsh.c ****   * @retval None
 265:Drivers/BSP/Components/lis3dsh/lis3dsh.c ****   */
 266:Drivers/BSP/Components/lis3dsh/lis3dsh.c **** void LIS3DSH_ODR_LowpowerCmd(uint8_t ODR_LowPowerMode)
 267:Drivers/BSP/Components/lis3dsh/lis3dsh.c **** {
 268:Drivers/BSP/Components/lis3dsh/lis3dsh.c ****   uint8_t tmpreg;
 269:Drivers/BSP/Components/lis3dsh/lis3dsh.c ****   
 270:Drivers/BSP/Components/lis3dsh/lis3dsh.c ****   /* Read CTRL_REG4 register */
 271:Drivers/BSP/Components/lis3dsh/lis3dsh.c ****   ACCELERO_IO_Read(&tmpreg, LIS3DSH_CTRL_REG4_ADDR, 1);
 272:Drivers/BSP/Components/lis3dsh/lis3dsh.c ****   
 273:Drivers/BSP/Components/lis3dsh/lis3dsh.c ****   /* Set new low power mode configuration */
 274:Drivers/BSP/Components/lis3dsh/lis3dsh.c ****   tmpreg &= (uint8_t)~LIS3DSH_DATARATE_100;
 275:Drivers/BSP/Components/lis3dsh/lis3dsh.c ****   tmpreg |= ODR_LowPowerMode;
 276:Drivers/BSP/Components/lis3dsh/lis3dsh.c ****   
 277:Drivers/BSP/Components/lis3dsh/lis3dsh.c ****   /* Write value to MEMS CTRL_REG4 register */
 278:Drivers/BSP/Components/lis3dsh/lis3dsh.c ****   ACCELERO_IO_Write(&tmpreg, LIS3DSH_CTRL_REG4_ADDR, 1);
 279:Drivers/BSP/Components/lis3dsh/lis3dsh.c **** }
 280:Drivers/BSP/Components/lis3dsh/lis3dsh.c **** 
 281:Drivers/BSP/Components/lis3dsh/lis3dsh.c **** /**
 282:Drivers/BSP/Components/lis3dsh/lis3dsh.c ****   * @brief  Data Rate command. 
 283:Drivers/BSP/Components/lis3dsh/lis3dsh.c ****   * @param  DataRateValue: Data rate value.
 284:Drivers/BSP/Components/lis3dsh/lis3dsh.c ****   *   This parameter can be one of the following values:
 285:Drivers/BSP/Components/lis3dsh/lis3dsh.c ****   *     @arg LIS3DSH_DATARATE_3_125: 3.125 Hz output data rate 
 286:Drivers/BSP/Components/lis3dsh/lis3dsh.c ****   *     @arg LIS3DSH_DATARATE_6_25: 6.25 Hz output data rate
 287:Drivers/BSP/Components/lis3dsh/lis3dsh.c ****   *     @arg LIS3DSH_DATARATE_12_5: 12.5  Hz output data rate
 288:Drivers/BSP/Components/lis3dsh/lis3dsh.c ****   *     @arg LIS3DSH_DATARATE_25: 25 Hz output data rate
 289:Drivers/BSP/Components/lis3dsh/lis3dsh.c ****   *     @arg LIS3DSH_DATARATE_50: 50 Hz output data rate 
 290:Drivers/BSP/Components/lis3dsh/lis3dsh.c ****   *     @arg LIS3DSH_DATARATE_100: 100 Hz output data rate
 291:Drivers/BSP/Components/lis3dsh/lis3dsh.c ****   *     @arg LIS3DSH_DATARATE_400: 400 Hz output data rate 
 292:Drivers/BSP/Components/lis3dsh/lis3dsh.c ****   *     @arg LIS3DSH_DATARATE_800: 800 Hz output data rate
 293:Drivers/BSP/Components/lis3dsh/lis3dsh.c ****   *     @arg LIS3DSH_DATARATE_1600: 1600 Hz output data rate
ARM GAS  /var/folders/0z/tsy30v1j4xl4_7kw94k978ww0000gn/T//ccG3jHmf.s 			page 9


 294:Drivers/BSP/Components/lis3dsh/lis3dsh.c ****   * @retval None
 295:Drivers/BSP/Components/lis3dsh/lis3dsh.c ****   */
 296:Drivers/BSP/Components/lis3dsh/lis3dsh.c **** void LIS3DSH_DataRateCmd(uint8_t DataRateValue)
 297:Drivers/BSP/Components/lis3dsh/lis3dsh.c **** {
 298:Drivers/BSP/Components/lis3dsh/lis3dsh.c ****   uint8_t tmpreg;
 299:Drivers/BSP/Components/lis3dsh/lis3dsh.c ****   
 300:Drivers/BSP/Components/lis3dsh/lis3dsh.c ****   /* Read CTRL_REG4 register */
 301:Drivers/BSP/Components/lis3dsh/lis3dsh.c ****   ACCELERO_IO_Read(&tmpreg, LIS3DSH_CTRL_REG4_ADDR, 1);
 302:Drivers/BSP/Components/lis3dsh/lis3dsh.c ****   
 303:Drivers/BSP/Components/lis3dsh/lis3dsh.c ****   /* Set new data rate configuration from 100 to 400Hz */
 304:Drivers/BSP/Components/lis3dsh/lis3dsh.c ****   tmpreg &= (uint8_t)~LIS3DSH_DATARATE_400; 
 305:Drivers/BSP/Components/lis3dsh/lis3dsh.c ****   tmpreg |= DataRateValue;
 306:Drivers/BSP/Components/lis3dsh/lis3dsh.c ****   
 307:Drivers/BSP/Components/lis3dsh/lis3dsh.c ****   /* Write value to MEMS CTRL_REG4 register */
 308:Drivers/BSP/Components/lis3dsh/lis3dsh.c ****   ACCELERO_IO_Write(&tmpreg, LIS3DSH_CTRL_REG4_ADDR, 1);
 309:Drivers/BSP/Components/lis3dsh/lis3dsh.c **** }
 310:Drivers/BSP/Components/lis3dsh/lis3dsh.c **** 
 311:Drivers/BSP/Components/lis3dsh/lis3dsh.c **** /**
 312:Drivers/BSP/Components/lis3dsh/lis3dsh.c ****   * @brief  Change the Full Scale of LIS3DSH.
 313:Drivers/BSP/Components/lis3dsh/lis3dsh.c ****   * @param  FS_value: new full scale value. 
 314:Drivers/BSP/Components/lis3dsh/lis3dsh.c ****   *   This parameter can be one of the following values:
 315:Drivers/BSP/Components/lis3dsh/lis3dsh.c ****   *     @arg LIS3DSH_FULLSCALE_2: +-2g
 316:Drivers/BSP/Components/lis3dsh/lis3dsh.c ****   *     @arg LIS3DSH_FULLSCALE_4: +-4g
 317:Drivers/BSP/Components/lis3dsh/lis3dsh.c ****   *     @arg LIS3DSH_FULLSCALE_6: +-6g
 318:Drivers/BSP/Components/lis3dsh/lis3dsh.c ****   *     @arg LIS3DSH_FULLSCALE_8: +-8g
 319:Drivers/BSP/Components/lis3dsh/lis3dsh.c ****   *     @arg LIS3DSH_FULLSCALE_16: +-16g
 320:Drivers/BSP/Components/lis3dsh/lis3dsh.c ****   * @retval None
 321:Drivers/BSP/Components/lis3dsh/lis3dsh.c ****   */
 322:Drivers/BSP/Components/lis3dsh/lis3dsh.c **** void LIS3DSH_FullScaleCmd(uint8_t FS_value)
 323:Drivers/BSP/Components/lis3dsh/lis3dsh.c **** {
 324:Drivers/BSP/Components/lis3dsh/lis3dsh.c ****   uint8_t tmpreg;
 325:Drivers/BSP/Components/lis3dsh/lis3dsh.c ****   
 326:Drivers/BSP/Components/lis3dsh/lis3dsh.c ****   /* Read CTRL_REG5 register */
 327:Drivers/BSP/Components/lis3dsh/lis3dsh.c ****   ACCELERO_IO_Read(&tmpreg, LIS3DSH_CTRL_REG5_ADDR, 1);
 328:Drivers/BSP/Components/lis3dsh/lis3dsh.c ****   
 329:Drivers/BSP/Components/lis3dsh/lis3dsh.c ****   /* Set new full scale configuration */
 330:Drivers/BSP/Components/lis3dsh/lis3dsh.c ****   tmpreg &= (uint8_t)~LIS3DSH_FULLSCALE_16;
 331:Drivers/BSP/Components/lis3dsh/lis3dsh.c ****   tmpreg |= FS_value;
 332:Drivers/BSP/Components/lis3dsh/lis3dsh.c ****   
 333:Drivers/BSP/Components/lis3dsh/lis3dsh.c ****   /* Write value to MEMS CTRL_REG5 register */
 334:Drivers/BSP/Components/lis3dsh/lis3dsh.c ****   ACCELERO_IO_Write(&tmpreg, LIS3DSH_CTRL_REG5_ADDR, 1);
 335:Drivers/BSP/Components/lis3dsh/lis3dsh.c **** }
 336:Drivers/BSP/Components/lis3dsh/lis3dsh.c **** 
 337:Drivers/BSP/Components/lis3dsh/lis3dsh.c **** /**
 338:Drivers/BSP/Components/lis3dsh/lis3dsh.c ****   * @brief  Reboot memory content of LIS3DSH.
 339:Drivers/BSP/Components/lis3dsh/lis3dsh.c ****   * @param  None
 340:Drivers/BSP/Components/lis3dsh/lis3dsh.c ****   * @retval None
 341:Drivers/BSP/Components/lis3dsh/lis3dsh.c ****   */
 342:Drivers/BSP/Components/lis3dsh/lis3dsh.c **** void LIS3DSH_RebootCmd(void)
 343:Drivers/BSP/Components/lis3dsh/lis3dsh.c **** {
 153              		.loc 1 343 1 is_stmt 1 view -0
 154              		.cfi_startproc
 155              		@ args = 0, pretend = 0, frame = 8
 156              		@ frame_needed = 0, uses_anonymous_args = 0
 344:Drivers/BSP/Components/lis3dsh/lis3dsh.c ****   uint8_t tmpreg;
 157              		.loc 1 344 3 view .LVU28
 345:Drivers/BSP/Components/lis3dsh/lis3dsh.c ****   /* Read CTRL_REG6 register */
ARM GAS  /var/folders/0z/tsy30v1j4xl4_7kw94k978ww0000gn/T//ccG3jHmf.s 			page 10


 346:Drivers/BSP/Components/lis3dsh/lis3dsh.c ****   ACCELERO_IO_Read(&tmpreg, LIS3DSH_CTRL_REG6_ADDR, 1);
 158              		.loc 1 346 3 view .LVU29
 343:Drivers/BSP/Components/lis3dsh/lis3dsh.c ****   uint8_t tmpreg;
 159              		.loc 1 343 1 is_stmt 0 view .LVU30
 160 0000 00B5     		push	{lr}
 161              		.cfi_def_cfa_offset 4
 162              		.cfi_offset 14, -4
 163 0002 83B0     		sub	sp, sp, #12
 164              		.cfi_def_cfa_offset 16
 165              		.loc 1 346 3 view .LVU31
 166 0004 0DF10700 		add	r0, sp, #7
 167 0008 0122     		movs	r2, #1
 168 000a 2521     		movs	r1, #37
 169 000c FFF7FEFF 		bl	ACCELERO_IO_Read
 170              	.LVL6:
 347:Drivers/BSP/Components/lis3dsh/lis3dsh.c ****   
 348:Drivers/BSP/Components/lis3dsh/lis3dsh.c ****   /* Enable or Disable the reboot memory */
 349:Drivers/BSP/Components/lis3dsh/lis3dsh.c ****   tmpreg |= LIS3DSH_BOOT_FORCED;
 171              		.loc 1 349 3 is_stmt 1 view .LVU32
 172              		.loc 1 349 10 is_stmt 0 view .LVU33
 173 0010 9DF80730 		ldrb	r3, [sp, #7]	@ zero_extendqisi2
 350:Drivers/BSP/Components/lis3dsh/lis3dsh.c ****   
 351:Drivers/BSP/Components/lis3dsh/lis3dsh.c ****   /* Write value to MEMS CTRL_REG6 register */
 352:Drivers/BSP/Components/lis3dsh/lis3dsh.c ****   ACCELERO_IO_Write(&tmpreg, LIS3DSH_CTRL_REG6_ADDR, 1);
 174              		.loc 1 352 3 view .LVU34
 175 0014 0122     		movs	r2, #1
 349:Drivers/BSP/Components/lis3dsh/lis3dsh.c ****   
 176              		.loc 1 349 10 view .LVU35
 177 0016 63F07F03 		orn	r3, r3, #127
 178              		.loc 1 352 3 view .LVU36
 179 001a 2521     		movs	r1, #37
 180 001c 0DF10700 		add	r0, sp, #7
 349:Drivers/BSP/Components/lis3dsh/lis3dsh.c ****   
 181              		.loc 1 349 10 view .LVU37
 182 0020 8DF80730 		strb	r3, [sp, #7]
 183              		.loc 1 352 3 is_stmt 1 view .LVU38
 184 0024 FFF7FEFF 		bl	ACCELERO_IO_Write
 185              	.LVL7:
 353:Drivers/BSP/Components/lis3dsh/lis3dsh.c **** }
 186              		.loc 1 353 1 is_stmt 0 view .LVU39
 187 0028 03B0     		add	sp, sp, #12
 188              		.cfi_def_cfa_offset 4
 189              		@ sp needed
 190 002a 5DF804FB 		ldr	pc, [sp], #4
 191              		.cfi_endproc
 192              	.LFE8:
 194 002e 00BF     		.section	.text.LIS3DSH_ReadACC,"ax",%progbits
 195              		.align	1
 196              		.p2align 2,,3
 197              		.global	LIS3DSH_ReadACC
 198              		.syntax unified
 199              		.thumb
 200              		.thumb_func
 202              	LIS3DSH_ReadACC:
 203              	.LVL8:
 204              	.LFB9:
 354:Drivers/BSP/Components/lis3dsh/lis3dsh.c **** 
ARM GAS  /var/folders/0z/tsy30v1j4xl4_7kw94k978ww0000gn/T//ccG3jHmf.s 			page 11


 355:Drivers/BSP/Components/lis3dsh/lis3dsh.c **** /**
 356:Drivers/BSP/Components/lis3dsh/lis3dsh.c ****   * @brief  Read LIS3DSH output register, and calculate the acceleration 
 357:Drivers/BSP/Components/lis3dsh/lis3dsh.c ****   *         ACC[mg]=SENSITIVITY* (out_h*256+out_l)/16 (12 bit representation).
 358:Drivers/BSP/Components/lis3dsh/lis3dsh.c ****   * @param  pointer on floating buffer.
 359:Drivers/BSP/Components/lis3dsh/lis3dsh.c ****   * @retval None
 360:Drivers/BSP/Components/lis3dsh/lis3dsh.c ****   */
 361:Drivers/BSP/Components/lis3dsh/lis3dsh.c **** void LIS3DSH_ReadACC(int16_t *pData)
 362:Drivers/BSP/Components/lis3dsh/lis3dsh.c **** {
 205              		.loc 1 362 1 is_stmt 1 view -0
 206              		.cfi_startproc
 207              		@ args = 0, pretend = 0, frame = 16
 208              		@ frame_needed = 0, uses_anonymous_args = 0
 363:Drivers/BSP/Components/lis3dsh/lis3dsh.c ****   int8_t buffer[6];
 209              		.loc 1 363 3 view .LVU41
 364:Drivers/BSP/Components/lis3dsh/lis3dsh.c ****   uint8_t crtl, i = 0x00;
 210              		.loc 1 364 3 view .LVU42
 365:Drivers/BSP/Components/lis3dsh/lis3dsh.c ****   float sensitivity = LIS3DSH_SENSITIVITY_0_06G;
 211              		.loc 1 365 3 view .LVU43
 366:Drivers/BSP/Components/lis3dsh/lis3dsh.c ****   float valueinfloat = 0;
 212              		.loc 1 366 3 view .LVU44
 367:Drivers/BSP/Components/lis3dsh/lis3dsh.c ****   
 368:Drivers/BSP/Components/lis3dsh/lis3dsh.c ****   ACCELERO_IO_Read(&crtl, LIS3DSH_CTRL_REG5_ADDR, 1);  
 213              		.loc 1 368 3 view .LVU45
 362:Drivers/BSP/Components/lis3dsh/lis3dsh.c ****   int8_t buffer[6];
 214              		.loc 1 362 1 is_stmt 0 view .LVU46
 215 0000 10B5     		push	{r4, lr}
 216              		.cfi_def_cfa_offset 8
 217              		.cfi_offset 4, -8
 218              		.cfi_offset 14, -4
 219 0002 84B0     		sub	sp, sp, #16
 220              		.cfi_def_cfa_offset 24
 362:Drivers/BSP/Components/lis3dsh/lis3dsh.c ****   int8_t buffer[6];
 221              		.loc 1 362 1 view .LVU47
 222 0004 0446     		mov	r4, r0
 223              		.loc 1 368 3 view .LVU48
 224 0006 0122     		movs	r2, #1
 225 0008 0DF10700 		add	r0, sp, #7
 226              	.LVL9:
 227              		.loc 1 368 3 view .LVU49
 228 000c 2421     		movs	r1, #36
 229 000e FFF7FEFF 		bl	ACCELERO_IO_Read
 230              	.LVL10:
 369:Drivers/BSP/Components/lis3dsh/lis3dsh.c ****   ACCELERO_IO_Read((uint8_t*)&buffer[0], LIS3DSH_OUT_X_L_ADDR, 1);
 231              		.loc 1 369 3 is_stmt 1 view .LVU50
 232 0012 02A8     		add	r0, sp, #8
 233 0014 0122     		movs	r2, #1
 234 0016 2821     		movs	r1, #40
 235 0018 FFF7FEFF 		bl	ACCELERO_IO_Read
 236              	.LVL11:
 370:Drivers/BSP/Components/lis3dsh/lis3dsh.c ****   ACCELERO_IO_Read((uint8_t*)&buffer[1], LIS3DSH_OUT_X_H_ADDR, 1);
 237              		.loc 1 370 3 view .LVU51
 238 001c 0DF10900 		add	r0, sp, #9
 239 0020 0122     		movs	r2, #1
 240 0022 2921     		movs	r1, #41
 241 0024 FFF7FEFF 		bl	ACCELERO_IO_Read
 242              	.LVL12:
 371:Drivers/BSP/Components/lis3dsh/lis3dsh.c ****   ACCELERO_IO_Read((uint8_t*)&buffer[2], LIS3DSH_OUT_Y_L_ADDR, 1);
ARM GAS  /var/folders/0z/tsy30v1j4xl4_7kw94k978ww0000gn/T//ccG3jHmf.s 			page 12


 243              		.loc 1 371 3 view .LVU52
 244 0028 0DF10A00 		add	r0, sp, #10
 245 002c 0122     		movs	r2, #1
 246 002e 2A21     		movs	r1, #42
 247 0030 FFF7FEFF 		bl	ACCELERO_IO_Read
 248              	.LVL13:
 372:Drivers/BSP/Components/lis3dsh/lis3dsh.c ****   ACCELERO_IO_Read((uint8_t*)&buffer[3], LIS3DSH_OUT_Y_H_ADDR, 1);
 249              		.loc 1 372 3 view .LVU53
 250 0034 0DF10B00 		add	r0, sp, #11
 251 0038 0122     		movs	r2, #1
 252 003a 2B21     		movs	r1, #43
 253 003c FFF7FEFF 		bl	ACCELERO_IO_Read
 254              	.LVL14:
 373:Drivers/BSP/Components/lis3dsh/lis3dsh.c ****   ACCELERO_IO_Read((uint8_t*)&buffer[4], LIS3DSH_OUT_Z_L_ADDR, 1);
 255              		.loc 1 373 3 view .LVU54
 256 0040 03A8     		add	r0, sp, #12
 257 0042 0122     		movs	r2, #1
 258 0044 2C21     		movs	r1, #44
 259 0046 FFF7FEFF 		bl	ACCELERO_IO_Read
 260              	.LVL15:
 374:Drivers/BSP/Components/lis3dsh/lis3dsh.c ****   ACCELERO_IO_Read((uint8_t*)&buffer[5], LIS3DSH_OUT_Z_H_ADDR, 1);
 261              		.loc 1 374 3 view .LVU55
 262 004a 0122     		movs	r2, #1
 263 004c 0DF10D00 		add	r0, sp, #13
 264 0050 2D21     		movs	r1, #45
 265 0052 FFF7FEFF 		bl	ACCELERO_IO_Read
 266              	.LVL16:
 375:Drivers/BSP/Components/lis3dsh/lis3dsh.c ****   
 376:Drivers/BSP/Components/lis3dsh/lis3dsh.c ****   switch(crtl & LIS3DSH__FULLSCALE_SELECTION) 
 267              		.loc 1 376 3 view .LVU56
 268 0056 9DF80730 		ldrb	r3, [sp, #7]	@ zero_extendqisi2
 377:Drivers/BSP/Components/lis3dsh/lis3dsh.c ****   {
 378:Drivers/BSP/Components/lis3dsh/lis3dsh.c ****     /* FS bit = 000 ==> Sensitivity typical value = 0.06milligals/digit */ 
 379:Drivers/BSP/Components/lis3dsh/lis3dsh.c ****   case LIS3DSH_FULLSCALE_2:
 380:Drivers/BSP/Components/lis3dsh/lis3dsh.c ****     sensitivity = LIS3DSH_SENSITIVITY_0_06G;
 381:Drivers/BSP/Components/lis3dsh/lis3dsh.c ****     break;
 382:Drivers/BSP/Components/lis3dsh/lis3dsh.c ****     
 383:Drivers/BSP/Components/lis3dsh/lis3dsh.c ****     /* FS bit = 001 ==> Sensitivity typical value = 0.12milligals/digit */ 
 384:Drivers/BSP/Components/lis3dsh/lis3dsh.c ****   case LIS3DSH_FULLSCALE_4:
 385:Drivers/BSP/Components/lis3dsh/lis3dsh.c ****     sensitivity = LIS3DSH_SENSITIVITY_0_12G;
 386:Drivers/BSP/Components/lis3dsh/lis3dsh.c ****     break;
 387:Drivers/BSP/Components/lis3dsh/lis3dsh.c ****     
 388:Drivers/BSP/Components/lis3dsh/lis3dsh.c ****     /* FS bit = 010 ==> Sensitivity typical value = 0.18milligals/digit */ 
 389:Drivers/BSP/Components/lis3dsh/lis3dsh.c ****   case LIS3DSH_FULLSCALE_6:
 390:Drivers/BSP/Components/lis3dsh/lis3dsh.c ****     sensitivity = LIS3DSH_SENSITIVITY_0_18G;
 391:Drivers/BSP/Components/lis3dsh/lis3dsh.c ****     break;
 392:Drivers/BSP/Components/lis3dsh/lis3dsh.c ****     
 393:Drivers/BSP/Components/lis3dsh/lis3dsh.c ****     /* FS bit = 011 ==> Sensitivity typical value = 0.24milligals/digit */ 
 394:Drivers/BSP/Components/lis3dsh/lis3dsh.c ****   case LIS3DSH_FULLSCALE_8:
 395:Drivers/BSP/Components/lis3dsh/lis3dsh.c ****     sensitivity = LIS3DSH_SENSITIVITY_0_24G;
 396:Drivers/BSP/Components/lis3dsh/lis3dsh.c ****     break;
 397:Drivers/BSP/Components/lis3dsh/lis3dsh.c ****     
 398:Drivers/BSP/Components/lis3dsh/lis3dsh.c ****     /* FS bit = 100 ==> Sensitivity typical value = 0.73milligals/digit */ 
 399:Drivers/BSP/Components/lis3dsh/lis3dsh.c ****   case LIS3DSH_FULLSCALE_16:
 400:Drivers/BSP/Components/lis3dsh/lis3dsh.c ****     sensitivity = LIS3DSH_SENSITIVITY_0_73G;
 401:Drivers/BSP/Components/lis3dsh/lis3dsh.c ****     break;
 402:Drivers/BSP/Components/lis3dsh/lis3dsh.c ****     
ARM GAS  /var/folders/0z/tsy30v1j4xl4_7kw94k978ww0000gn/T//ccG3jHmf.s 			page 13


 403:Drivers/BSP/Components/lis3dsh/lis3dsh.c ****   default:
 404:Drivers/BSP/Components/lis3dsh/lis3dsh.c ****     break;
 405:Drivers/BSP/Components/lis3dsh/lis3dsh.c ****   }
 406:Drivers/BSP/Components/lis3dsh/lis3dsh.c ****   
 407:Drivers/BSP/Components/lis3dsh/lis3dsh.c ****   /* Obtain the mg value for the three axis */
 408:Drivers/BSP/Components/lis3dsh/lis3dsh.c ****   for(i=0; i<3; i++)
 409:Drivers/BSP/Components/lis3dsh/lis3dsh.c ****   {
 410:Drivers/BSP/Components/lis3dsh/lis3dsh.c ****     valueinfloat = ((buffer[2*i+1] << 8) + buffer[2*i]) * sensitivity;
 269              		.loc 1 410 28 is_stmt 0 view .LVU57
 270 005a 9DF90900 		ldrsb	r0, [sp, #9]
 271 005e 9DF90B10 		ldrsb	r1, [sp, #11]
 272 0062 03F03803 		and	r3, r3, #56
 273 0066 083B     		subs	r3, r3, #8
 274 0068 DBB2     		uxtb	r3, r3
 275 006a 182B     		cmp	r3, #24
 276 006c 96BF     		itet	ls
 277 006e 1C4A     		ldrls	r2, .L13
 376:Drivers/BSP/Components/lis3dsh/lis3dsh.c ****   {
 278              		.loc 1 376 15 view .LVU58
 279 0070 9FED1C6A 		vldrhi.32	s12, .L13+4
 280 0074 02EB8303 		addls	r3, r2, r3, lsl #2
 281              		.loc 1 410 50 view .LVU59
 282 0078 9DF90820 		ldrsb	r2, [sp, #8]
 283 007c 98BF     		it	ls
 284 007e 93ED006A 		vldrls.32	s12, [r3]
 285              	.LVL17:
 408:Drivers/BSP/Components/lis3dsh/lis3dsh.c ****   {
 286              		.loc 1 408 3 is_stmt 1 view .LVU60
 408:Drivers/BSP/Components/lis3dsh/lis3dsh.c ****   {
 287              		.loc 1 408 13 view .LVU61
 288              		.loc 1 410 5 view .LVU62
 411:Drivers/BSP/Components/lis3dsh/lis3dsh.c ****     pData[i] = (int16_t)valueinfloat;
 289              		.loc 1 411 5 view .LVU63
 410:Drivers/BSP/Components/lis3dsh/lis3dsh.c ****     pData[i] = (int16_t)valueinfloat;
 290              		.loc 1 410 50 is_stmt 0 view .LVU64
 291 0082 9DF90A30 		ldrsb	r3, [sp, #10]
 410:Drivers/BSP/Components/lis3dsh/lis3dsh.c ****     pData[i] = (int16_t)valueinfloat;
 292              		.loc 1 410 42 view .LVU65
 293 0086 02EB0022 		add	r2, r2, r0, lsl #8
 294 008a 03EB0123 		add	r3, r3, r1, lsl #8
 295 008e 06EE902A 		vmov	s13, r2	@ int
 296 0092 07EE103A 		vmov	s14, r3	@ int
 410:Drivers/BSP/Components/lis3dsh/lis3dsh.c ****     pData[i] = (int16_t)valueinfloat;
 297              		.loc 1 410 28 view .LVU66
 298 0096 9DF90D20 		ldrsb	r2, [sp, #13]
 410:Drivers/BSP/Components/lis3dsh/lis3dsh.c ****     pData[i] = (int16_t)valueinfloat;
 299              		.loc 1 410 50 view .LVU67
 300 009a 9DF90C30 		ldrsb	r3, [sp, #12]
 410:Drivers/BSP/Components/lis3dsh/lis3dsh.c ****     pData[i] = (int16_t)valueinfloat;
 301              		.loc 1 410 57 view .LVU68
 302 009e F8EEE66A 		vcvt.f32.s32	s13, s13
 410:Drivers/BSP/Components/lis3dsh/lis3dsh.c ****     pData[i] = (int16_t)valueinfloat;
 303              		.loc 1 410 42 view .LVU69
 304 00a2 03EB0223 		add	r3, r3, r2, lsl #8
 410:Drivers/BSP/Components/lis3dsh/lis3dsh.c ****     pData[i] = (int16_t)valueinfloat;
 305              		.loc 1 410 18 view .LVU70
 306 00a6 66EE866A 		vmul.f32	s13, s13, s12
ARM GAS  /var/folders/0z/tsy30v1j4xl4_7kw94k978ww0000gn/T//ccG3jHmf.s 			page 14


 410:Drivers/BSP/Components/lis3dsh/lis3dsh.c ****     pData[i] = (int16_t)valueinfloat;
 307              		.loc 1 410 42 view .LVU71
 308 00aa 07EE903A 		vmov	s15, r3	@ int
 410:Drivers/BSP/Components/lis3dsh/lis3dsh.c ****     pData[i] = (int16_t)valueinfloat;
 309              		.loc 1 410 57 view .LVU72
 310 00ae B8EEC77A 		vcvt.f32.s32	s14, s14
 311              		.loc 1 411 16 view .LVU73
 312 00b2 FDEEE66A 		vcvt.s32.f32	s13, s13
 410:Drivers/BSP/Components/lis3dsh/lis3dsh.c ****     pData[i] = (int16_t)valueinfloat;
 313              		.loc 1 410 18 view .LVU74
 314 00b6 27EE067A 		vmul.f32	s14, s14, s12
 410:Drivers/BSP/Components/lis3dsh/lis3dsh.c ****     pData[i] = (int16_t)valueinfloat;
 315              		.loc 1 410 57 view .LVU75
 316 00ba F8EEE77A 		vcvt.f32.s32	s15, s15
 317              		.loc 1 411 16 view .LVU76
 318 00be 16EE903A 		vmov	r3, s13	@ int
 410:Drivers/BSP/Components/lis3dsh/lis3dsh.c ****     pData[i] = (int16_t)valueinfloat;
 319              		.loc 1 410 18 view .LVU77
 320 00c2 67EE867A 		vmul.f32	s15, s15, s12
 321              		.loc 1 411 16 view .LVU78
 322 00c6 BDEEC77A 		vcvt.s32.f32	s14, s14
 323 00ca FDEEE77A 		vcvt.s32.f32	s15, s15
 324 00ce 2380     		strh	r3, [r4]	@ movhi
 408:Drivers/BSP/Components/lis3dsh/lis3dsh.c ****   {
 325              		.loc 1 408 18 is_stmt 1 view .LVU79
 326              	.LVL18:
 408:Drivers/BSP/Components/lis3dsh/lis3dsh.c ****   {
 327              		.loc 1 408 13 view .LVU80
 410:Drivers/BSP/Components/lis3dsh/lis3dsh.c ****     pData[i] = (int16_t)valueinfloat;
 328              		.loc 1 410 5 view .LVU81
 329              		.loc 1 411 5 view .LVU82
 330              		.loc 1 411 16 is_stmt 0 view .LVU83
 331 00d0 17EE103A 		vmov	r3, s14	@ int
 332 00d4 6380     		strh	r3, [r4, #2]	@ movhi
 408:Drivers/BSP/Components/lis3dsh/lis3dsh.c ****   {
 333              		.loc 1 408 18 is_stmt 1 view .LVU84
 334              	.LVL19:
 408:Drivers/BSP/Components/lis3dsh/lis3dsh.c ****   {
 335              		.loc 1 408 13 view .LVU85
 410:Drivers/BSP/Components/lis3dsh/lis3dsh.c ****     pData[i] = (int16_t)valueinfloat;
 336              		.loc 1 410 5 view .LVU86
 337              		.loc 1 411 5 view .LVU87
 338              		.loc 1 411 16 is_stmt 0 view .LVU88
 339 00d6 17EE903A 		vmov	r3, s15	@ int
 340 00da A380     		strh	r3, [r4, #4]	@ movhi
 408:Drivers/BSP/Components/lis3dsh/lis3dsh.c ****   {
 341              		.loc 1 408 18 is_stmt 1 view .LVU89
 342              	.LVL20:
 408:Drivers/BSP/Components/lis3dsh/lis3dsh.c ****   {
 343              		.loc 1 408 13 view .LVU90
 412:Drivers/BSP/Components/lis3dsh/lis3dsh.c ****   }
 413:Drivers/BSP/Components/lis3dsh/lis3dsh.c **** }
 344              		.loc 1 413 1 is_stmt 0 view .LVU91
 345 00dc 04B0     		add	sp, sp, #16
 346              		.cfi_def_cfa_offset 8
 347              		@ sp needed
 348 00de 10BD     		pop	{r4, pc}
ARM GAS  /var/folders/0z/tsy30v1j4xl4_7kw94k978ww0000gn/T//ccG3jHmf.s 			page 15


 349              	.LVL21:
 350              	.L14:
 351              		.loc 1 413 1 view .LVU92
 352              		.align	2
 353              	.L13:
 354 00e0 00000000 		.word	.LANCHOR0
 355 00e4 8FC2753D 		.word	1031127695
 356              		.cfi_endproc
 357              	.LFE9:
 359              		.section	.text.LIS3DSH_Click_IntConfig,"ax",%progbits
 360              		.align	1
 361              		.p2align 2,,3
 362              		.global	LIS3DSH_Click_IntConfig
 363              		.syntax unified
 364              		.thumb
 365              		.thumb_func
 367              	LIS3DSH_Click_IntConfig:
 368              	.LFB4:
 209:Drivers/BSP/Components/lis3dsh/lis3dsh.c ****   uint8_t ctrl = 0x00;
 369              		.loc 1 209 1 is_stmt 1 view -0
 370              		.cfi_startproc
 371              		@ args = 0, pretend = 0, frame = 16
 372              		@ frame_needed = 0, uses_anonymous_args = 0
 210:Drivers/BSP/Components/lis3dsh/lis3dsh.c ****   LIS3DSH_InterruptConfigTypeDef   LIS3DSH_InterruptStruct; 
 373              		.loc 1 210 3 view .LVU94
 209:Drivers/BSP/Components/lis3dsh/lis3dsh.c ****   uint8_t ctrl = 0x00;
 374              		.loc 1 209 1 is_stmt 0 view .LVU95
 375 0000 10B5     		push	{r4, lr}
 376              		.cfi_def_cfa_offset 8
 377              		.cfi_offset 4, -8
 378              		.cfi_offset 14, -4
 379 0002 84B0     		sub	sp, sp, #16
 380              		.cfi_def_cfa_offset 24
 210:Drivers/BSP/Components/lis3dsh/lis3dsh.c ****   LIS3DSH_InterruptConfigTypeDef   LIS3DSH_InterruptStruct; 
 381              		.loc 1 210 11 view .LVU96
 382 0004 0023     		movs	r3, #0
 383 0006 8DF80630 		strb	r3, [sp, #6]
 211:Drivers/BSP/Components/lis3dsh/lis3dsh.c **** 
 384              		.loc 1 211 3 is_stmt 1 view .LVU97
 213:Drivers/BSP/Components/lis3dsh/lis3dsh.c **** 
 385              		.loc 1 213 3 view .LVU98
 386 000a FFF7FEFF 		bl	ACCELERO_IO_ITConfig
 387              	.LVL22:
 216:Drivers/BSP/Components/lis3dsh/lis3dsh.c ****   LIS3DSH_InterruptStruct.Interrupt_Request = LIS3DSH_INTERRUPT_REQUEST_LATCHED;
 388              		.loc 1 216 3 view .LVU99
 217:Drivers/BSP/Components/lis3dsh/lis3dsh.c ****   LIS3DSH_InterruptStruct.Interrupt_Signal = LIS3DSH_INTERRUPT_SIGNAL_HIGH;
 389              		.loc 1 217 3 view .LVU100
 218:Drivers/BSP/Components/lis3dsh/lis3dsh.c ****   LIS3DSH_InterruptStruct.State_Machine1_Enable = LIS3DSH_SM_DISABLE;
 390              		.loc 1 218 3 view .LVU101
 219:Drivers/BSP/Components/lis3dsh/lis3dsh.c ****   LIS3DSH_InterruptStruct.State_Machine2_Enable = LIS3DSH_SM_ENABLE;
 391              		.loc 1 219 3 view .LVU102
 220:Drivers/BSP/Components/lis3dsh/lis3dsh.c ****   LIS3DSH_InterruptStruct.State_Machine2_Interrupt = LIS3DSH_SM_INT1;
 392              		.loc 1 220 3 view .LVU103
 221:Drivers/BSP/Components/lis3dsh/lis3dsh.c ****   LIS3DSH_InterruptConfig(&LIS3DSH_InterruptStruct);
 393              		.loc 1 221 3 view .LVU104
 222:Drivers/BSP/Components/lis3dsh/lis3dsh.c ****     
 394              		.loc 1 222 3 view .LVU105
ARM GAS  /var/folders/0z/tsy30v1j4xl4_7kw94k978ww0000gn/T//ccG3jHmf.s 			page 16


 395              	.LBB4:
 396              	.LBI4:
 176:Drivers/BSP/Components/lis3dsh/lis3dsh.c **** {
 397              		.loc 1 176 6 view .LVU106
 398              	.LBB5:
 178:Drivers/BSP/Components/lis3dsh/lis3dsh.c ****   
 399              		.loc 1 178 3 view .LVU107
 181:Drivers/BSP/Components/lis3dsh/lis3dsh.c ****                    LIS3DSH_IntConfigStruct->Interrupt_Request | \
 400              		.loc 1 181 3 view .LVU108
 186:Drivers/BSP/Components/lis3dsh/lis3dsh.c ****   
 401              		.loc 1 186 3 is_stmt 0 view .LVU109
 402 000e 0122     		movs	r2, #1
 196:Drivers/BSP/Components/lis3dsh/lis3dsh.c ****                    LIS3DSH_IntConfigStruct->State_Machine2_Interrupt);
 403              		.loc 1 196 8 view .LVU110
 404 0010 1446     		mov	r4, r2
 186:Drivers/BSP/Components/lis3dsh/lis3dsh.c ****   
 405              		.loc 1 186 3 view .LVU111
 406 0012 0DF10700 		add	r0, sp, #7
 181:Drivers/BSP/Components/lis3dsh/lis3dsh.c ****                    LIS3DSH_IntConfigStruct->Interrupt_Request | \
 407              		.loc 1 181 8 view .LVU112
 408 0016 4023     		movs	r3, #64
 186:Drivers/BSP/Components/lis3dsh/lis3dsh.c ****   
 409              		.loc 1 186 3 view .LVU113
 410 0018 2321     		movs	r1, #35
 181:Drivers/BSP/Components/lis3dsh/lis3dsh.c ****                    LIS3DSH_IntConfigStruct->Interrupt_Request | \
 411              		.loc 1 181 8 view .LVU114
 412 001a 8DF80730 		strb	r3, [sp, #7]
 186:Drivers/BSP/Components/lis3dsh/lis3dsh.c ****   
 413              		.loc 1 186 3 is_stmt 1 view .LVU115
 414 001e FFF7FEFF 		bl	ACCELERO_IO_Write
 415              	.LVL23:
 189:Drivers/BSP/Components/lis3dsh/lis3dsh.c ****                    LIS3DSH_IntConfigStruct->State_Machine1_Interrupt);
 416              		.loc 1 189 3 view .LVU116
 189:Drivers/BSP/Components/lis3dsh/lis3dsh.c ****                    LIS3DSH_IntConfigStruct->State_Machine1_Interrupt);
 417              		.loc 1 189 8 is_stmt 0 view .LVU117
 418 0022 9DF80C30 		ldrb	r3, [sp, #12]	@ zero_extendqisi2
 419 0026 8DF80730 		strb	r3, [sp, #7]
 193:Drivers/BSP/Components/lis3dsh/lis3dsh.c ****   
 420              		.loc 1 193 3 is_stmt 1 view .LVU118
 421 002a 2246     		mov	r2, r4
 422 002c 0DF10700 		add	r0, sp, #7
 423 0030 2121     		movs	r1, #33
 424 0032 FFF7FEFF 		bl	ACCELERO_IO_Write
 425              	.LVL24:
 196:Drivers/BSP/Components/lis3dsh/lis3dsh.c ****                    LIS3DSH_IntConfigStruct->State_Machine2_Interrupt);
 426              		.loc 1 196 3 view .LVU119
 200:Drivers/BSP/Components/lis3dsh/lis3dsh.c **** }
 427              		.loc 1 200 3 is_stmt 0 view .LVU120
 428 0036 2246     		mov	r2, r4
 429 0038 0DF10700 		add	r0, sp, #7
 430 003c 2221     		movs	r1, #34
 196:Drivers/BSP/Components/lis3dsh/lis3dsh.c ****                    LIS3DSH_IntConfigStruct->State_Machine2_Interrupt);
 431              		.loc 1 196 8 view .LVU121
 432 003e 8DF80740 		strb	r4, [sp, #7]
 200:Drivers/BSP/Components/lis3dsh/lis3dsh.c **** }
 433              		.loc 1 200 3 is_stmt 1 view .LVU122
 434 0042 FFF7FEFF 		bl	ACCELERO_IO_Write
ARM GAS  /var/folders/0z/tsy30v1j4xl4_7kw94k978ww0000gn/T//ccG3jHmf.s 			page 17


 435              	.LVL25:
 200:Drivers/BSP/Components/lis3dsh/lis3dsh.c **** }
 436              		.loc 1 200 3 is_stmt 0 view .LVU123
 437              	.LBE5:
 438              	.LBE4:
 225:Drivers/BSP/Components/lis3dsh/lis3dsh.c ****   ACCELERO_IO_Write(&ctrl, LIS3DSH_TIM2_1_L_ADDR,1);
 439              		.loc 1 225 3 is_stmt 1 view .LVU124
 226:Drivers/BSP/Components/lis3dsh/lis3dsh.c ****   ctrl=0xC8; 
 440              		.loc 1 226 3 is_stmt 0 view .LVU125
 441 0046 2246     		mov	r2, r4
 442 0048 0DF10600 		add	r0, sp, #6
 225:Drivers/BSP/Components/lis3dsh/lis3dsh.c ****   ACCELERO_IO_Write(&ctrl, LIS3DSH_TIM2_1_L_ADDR,1);
 443              		.loc 1 225 7 view .LVU126
 444 004c 0323     		movs	r3, #3
 226:Drivers/BSP/Components/lis3dsh/lis3dsh.c ****   ctrl=0xC8; 
 445              		.loc 1 226 3 view .LVU127
 446 004e 5221     		movs	r1, #82
 225:Drivers/BSP/Components/lis3dsh/lis3dsh.c ****   ACCELERO_IO_Write(&ctrl, LIS3DSH_TIM2_1_L_ADDR,1);
 447              		.loc 1 225 7 view .LVU128
 448 0050 8DF80630 		strb	r3, [sp, #6]
 226:Drivers/BSP/Components/lis3dsh/lis3dsh.c ****   ctrl=0xC8; 
 449              		.loc 1 226 3 is_stmt 1 view .LVU129
 450 0054 FFF7FEFF 		bl	ACCELERO_IO_Write
 451              	.LVL26:
 227:Drivers/BSP/Components/lis3dsh/lis3dsh.c ****   ACCELERO_IO_Write(&ctrl, LIS3DSH_TIM1_1_L_ADDR,1);
 452              		.loc 1 227 3 view .LVU130
 228:Drivers/BSP/Components/lis3dsh/lis3dsh.c ****   ctrl=0x45; 
 453              		.loc 1 228 3 is_stmt 0 view .LVU131
 454 0058 2246     		mov	r2, r4
 455 005a 0DF10600 		add	r0, sp, #6
 227:Drivers/BSP/Components/lis3dsh/lis3dsh.c ****   ACCELERO_IO_Write(&ctrl, LIS3DSH_TIM1_1_L_ADDR,1);
 456              		.loc 1 227 7 view .LVU132
 457 005e C823     		movs	r3, #200
 228:Drivers/BSP/Components/lis3dsh/lis3dsh.c ****   ctrl=0x45; 
 458              		.loc 1 228 3 view .LVU133
 459 0060 5421     		movs	r1, #84
 227:Drivers/BSP/Components/lis3dsh/lis3dsh.c ****   ACCELERO_IO_Write(&ctrl, LIS3DSH_TIM1_1_L_ADDR,1);
 460              		.loc 1 227 7 view .LVU134
 461 0062 8DF80630 		strb	r3, [sp, #6]
 228:Drivers/BSP/Components/lis3dsh/lis3dsh.c ****   ctrl=0x45; 
 462              		.loc 1 228 3 is_stmt 1 view .LVU135
 463 0066 FFF7FEFF 		bl	ACCELERO_IO_Write
 464              	.LVL27:
 229:Drivers/BSP/Components/lis3dsh/lis3dsh.c ****   ACCELERO_IO_Write(&ctrl, LIS3DSH_THRS2_1_ADDR,1);
 465              		.loc 1 229 3 view .LVU136
 230:Drivers/BSP/Components/lis3dsh/lis3dsh.c ****   ctrl=0xFC; 
 466              		.loc 1 230 3 is_stmt 0 view .LVU137
 467 006a 2246     		mov	r2, r4
 468 006c 0DF10600 		add	r0, sp, #6
 229:Drivers/BSP/Components/lis3dsh/lis3dsh.c ****   ACCELERO_IO_Write(&ctrl, LIS3DSH_THRS2_1_ADDR,1);
 469              		.loc 1 229 7 view .LVU138
 470 0070 4523     		movs	r3, #69
 230:Drivers/BSP/Components/lis3dsh/lis3dsh.c ****   ctrl=0xFC; 
 471              		.loc 1 230 3 view .LVU139
 472 0072 5621     		movs	r1, #86
 229:Drivers/BSP/Components/lis3dsh/lis3dsh.c ****   ACCELERO_IO_Write(&ctrl, LIS3DSH_THRS2_1_ADDR,1);
 473              		.loc 1 229 7 view .LVU140
ARM GAS  /var/folders/0z/tsy30v1j4xl4_7kw94k978ww0000gn/T//ccG3jHmf.s 			page 18


 474 0074 8DF80630 		strb	r3, [sp, #6]
 230:Drivers/BSP/Components/lis3dsh/lis3dsh.c ****   ctrl=0xFC; 
 475              		.loc 1 230 3 is_stmt 1 view .LVU141
 476 0078 FFF7FEFF 		bl	ACCELERO_IO_Write
 477              	.LVL28:
 231:Drivers/BSP/Components/lis3dsh/lis3dsh.c ****   ACCELERO_IO_Write(&ctrl, LIS3DSH_MASK1_A_ADDR,1);
 478              		.loc 1 231 3 view .LVU142
 232:Drivers/BSP/Components/lis3dsh/lis3dsh.c ****   ctrl=0xA1; 
 479              		.loc 1 232 3 is_stmt 0 view .LVU143
 480 007c 2246     		mov	r2, r4
 481 007e 0DF10600 		add	r0, sp, #6
 231:Drivers/BSP/Components/lis3dsh/lis3dsh.c ****   ACCELERO_IO_Write(&ctrl, LIS3DSH_MASK1_A_ADDR,1);
 482              		.loc 1 231 7 view .LVU144
 483 0082 FC23     		movs	r3, #252
 232:Drivers/BSP/Components/lis3dsh/lis3dsh.c ****   ctrl=0xA1; 
 484              		.loc 1 232 3 view .LVU145
 485 0084 5A21     		movs	r1, #90
 231:Drivers/BSP/Components/lis3dsh/lis3dsh.c ****   ACCELERO_IO_Write(&ctrl, LIS3DSH_MASK1_A_ADDR,1);
 486              		.loc 1 231 7 view .LVU146
 487 0086 8DF80630 		strb	r3, [sp, #6]
 232:Drivers/BSP/Components/lis3dsh/lis3dsh.c ****   ctrl=0xA1; 
 488              		.loc 1 232 3 is_stmt 1 view .LVU147
 489 008a FFF7FEFF 		bl	ACCELERO_IO_Write
 490              	.LVL29:
 233:Drivers/BSP/Components/lis3dsh/lis3dsh.c ****   ACCELERO_IO_Write(&ctrl, LIS3DSH_SETT1_ADDR,1);
 491              		.loc 1 233 3 view .LVU148
 233:Drivers/BSP/Components/lis3dsh/lis3dsh.c ****   ACCELERO_IO_Write(&ctrl, LIS3DSH_SETT1_ADDR,1);
 492              		.loc 1 233 7 is_stmt 0 view .LVU149
 493 008e A123     		movs	r3, #161
 234:Drivers/BSP/Components/lis3dsh/lis3dsh.c ****   ctrl=0x01; 
 494              		.loc 1 234 3 view .LVU150
 495 0090 2246     		mov	r2, r4
 496 0092 0DF10600 		add	r0, sp, #6
 497 0096 5B21     		movs	r1, #91
 233:Drivers/BSP/Components/lis3dsh/lis3dsh.c ****   ACCELERO_IO_Write(&ctrl, LIS3DSH_SETT1_ADDR,1);
 498              		.loc 1 233 7 view .LVU151
 499 0098 8DF80630 		strb	r3, [sp, #6]
 234:Drivers/BSP/Components/lis3dsh/lis3dsh.c ****   ctrl=0x01; 
 500              		.loc 1 234 3 is_stmt 1 view .LVU152
 501 009c FFF7FEFF 		bl	ACCELERO_IO_Write
 502              	.LVL30:
 235:Drivers/BSP/Components/lis3dsh/lis3dsh.c ****   ACCELERO_IO_Write(&ctrl, LIS3DSH_PR1_ADDR,1);
 503              		.loc 1 235 3 view .LVU153
 236:Drivers/BSP/Components/lis3dsh/lis3dsh.c **** 
 504              		.loc 1 236 3 is_stmt 0 view .LVU154
 505 00a0 0DF10600 		add	r0, sp, #6
 506 00a4 2246     		mov	r2, r4
 507 00a6 5C21     		movs	r1, #92
 235:Drivers/BSP/Components/lis3dsh/lis3dsh.c ****   ACCELERO_IO_Write(&ctrl, LIS3DSH_PR1_ADDR,1);
 508              		.loc 1 235 7 view .LVU155
 509 00a8 8DF80640 		strb	r4, [sp, #6]
 236:Drivers/BSP/Components/lis3dsh/lis3dsh.c **** 
 510              		.loc 1 236 3 is_stmt 1 view .LVU156
 511 00ac FFF7FEFF 		bl	ACCELERO_IO_Write
 512              	.LVL31:
 238:Drivers/BSP/Components/lis3dsh/lis3dsh.c ****   
 513              		.loc 1 238 3 view .LVU157
ARM GAS  /var/folders/0z/tsy30v1j4xl4_7kw94k978ww0000gn/T//ccG3jHmf.s 			page 19


 514 00b0 2246     		mov	r2, r4
 515 00b2 0DF10600 		add	r0, sp, #6
 516 00b6 7B21     		movs	r1, #123
 517 00b8 FFF7FEFF 		bl	ACCELERO_IO_Write
 518              	.LVL32:
 241:Drivers/BSP/Components/lis3dsh/lis3dsh.c ****   ctrl=0x06; 
 519              		.loc 1 241 3 view .LVU158
 520 00bc 2246     		mov	r2, r4
 521 00be 0DF10600 		add	r0, sp, #6
 522 00c2 6021     		movs	r1, #96
 523 00c4 FFF7FEFF 		bl	ACCELERO_IO_Write
 524              	.LVL33:
 242:Drivers/BSP/Components/lis3dsh/lis3dsh.c ****   ACCELERO_IO_Write(&ctrl, LIS3DSH_ST2_2_ADDR,1);
 525              		.loc 1 242 3 view .LVU159
 243:Drivers/BSP/Components/lis3dsh/lis3dsh.c ****   ctrl=0x28; 
 526              		.loc 1 243 3 is_stmt 0 view .LVU160
 527 00c8 2246     		mov	r2, r4
 528 00ca 0DF10600 		add	r0, sp, #6
 242:Drivers/BSP/Components/lis3dsh/lis3dsh.c ****   ACCELERO_IO_Write(&ctrl, LIS3DSH_ST2_2_ADDR,1);
 529              		.loc 1 242 7 view .LVU161
 530 00ce 0623     		movs	r3, #6
 243:Drivers/BSP/Components/lis3dsh/lis3dsh.c ****   ctrl=0x28; 
 531              		.loc 1 243 3 view .LVU162
 532 00d0 6121     		movs	r1, #97
 242:Drivers/BSP/Components/lis3dsh/lis3dsh.c ****   ACCELERO_IO_Write(&ctrl, LIS3DSH_ST2_2_ADDR,1);
 533              		.loc 1 242 7 view .LVU163
 534 00d2 8DF80630 		strb	r3, [sp, #6]
 243:Drivers/BSP/Components/lis3dsh/lis3dsh.c ****   ctrl=0x28; 
 535              		.loc 1 243 3 is_stmt 1 view .LVU164
 536 00d6 FFF7FEFF 		bl	ACCELERO_IO_Write
 537              	.LVL34:
 244:Drivers/BSP/Components/lis3dsh/lis3dsh.c ****   ACCELERO_IO_Write(&ctrl, LIS3DSH_ST2_3_ADDR,1);
 538              		.loc 1 244 3 view .LVU165
 245:Drivers/BSP/Components/lis3dsh/lis3dsh.c ****   ctrl=0x11; 
 539              		.loc 1 245 3 is_stmt 0 view .LVU166
 540 00da 2246     		mov	r2, r4
 541 00dc 0DF10600 		add	r0, sp, #6
 244:Drivers/BSP/Components/lis3dsh/lis3dsh.c ****   ACCELERO_IO_Write(&ctrl, LIS3DSH_ST2_3_ADDR,1);
 542              		.loc 1 244 7 view .LVU167
 543 00e0 2823     		movs	r3, #40
 245:Drivers/BSP/Components/lis3dsh/lis3dsh.c ****   ctrl=0x11; 
 544              		.loc 1 245 3 view .LVU168
 545 00e2 6221     		movs	r1, #98
 244:Drivers/BSP/Components/lis3dsh/lis3dsh.c ****   ACCELERO_IO_Write(&ctrl, LIS3DSH_ST2_3_ADDR,1);
 546              		.loc 1 244 7 view .LVU169
 547 00e4 8DF80630 		strb	r3, [sp, #6]
 245:Drivers/BSP/Components/lis3dsh/lis3dsh.c ****   ctrl=0x11; 
 548              		.loc 1 245 3 is_stmt 1 view .LVU170
 549 00e8 FFF7FEFF 		bl	ACCELERO_IO_Write
 550              	.LVL35:
 246:Drivers/BSP/Components/lis3dsh/lis3dsh.c ****   ACCELERO_IO_Write(&ctrl, LIS3DSH_ST2_4_ADDR,1);
 551              		.loc 1 246 3 view .LVU171
 246:Drivers/BSP/Components/lis3dsh/lis3dsh.c ****   ACCELERO_IO_Write(&ctrl, LIS3DSH_ST2_4_ADDR,1);
 552              		.loc 1 246 7 is_stmt 0 view .LVU172
 553 00ec 1123     		movs	r3, #17
 247:Drivers/BSP/Components/lis3dsh/lis3dsh.c **** }
 554              		.loc 1 247 3 view .LVU173
ARM GAS  /var/folders/0z/tsy30v1j4xl4_7kw94k978ww0000gn/T//ccG3jHmf.s 			page 20


 555 00ee 2246     		mov	r2, r4
 556 00f0 6321     		movs	r1, #99
 557 00f2 0DF10600 		add	r0, sp, #6
 246:Drivers/BSP/Components/lis3dsh/lis3dsh.c ****   ACCELERO_IO_Write(&ctrl, LIS3DSH_ST2_4_ADDR,1);
 558              		.loc 1 246 7 view .LVU174
 559 00f6 8DF80630 		strb	r3, [sp, #6]
 247:Drivers/BSP/Components/lis3dsh/lis3dsh.c **** }
 560              		.loc 1 247 3 is_stmt 1 view .LVU175
 561 00fa FFF7FEFF 		bl	ACCELERO_IO_Write
 562              	.LVL36:
 248:Drivers/BSP/Components/lis3dsh/lis3dsh.c **** 
 563              		.loc 1 248 1 is_stmt 0 view .LVU176
 564 00fe 04B0     		add	sp, sp, #16
 565              		.cfi_def_cfa_offset 8
 566              		@ sp needed
 567 0100 10BD     		pop	{r4, pc}
 568              		.cfi_endproc
 569              	.LFE4:
 571 0102 00BF     		.section	.text.LIS3DSH_InterruptConfig,"ax",%progbits
 572              		.align	1
 573              		.p2align 2,,3
 574              		.global	LIS3DSH_InterruptConfig
 575              		.syntax unified
 576              		.thumb
 577              		.thumb_func
 579              	LIS3DSH_InterruptConfig:
 580              	.LVL37:
 581              	.LFB3:
 177:Drivers/BSP/Components/lis3dsh/lis3dsh.c ****   uint8_t ctrl = 0x00;
 582              		.loc 1 177 1 is_stmt 1 view -0
 583              		.cfi_startproc
 584              		@ args = 0, pretend = 0, frame = 8
 585              		@ frame_needed = 0, uses_anonymous_args = 0
 178:Drivers/BSP/Components/lis3dsh/lis3dsh.c ****   
 586              		.loc 1 178 3 view .LVU178
 181:Drivers/BSP/Components/lis3dsh/lis3dsh.c ****                    LIS3DSH_IntConfigStruct->Interrupt_Request | \
 587              		.loc 1 181 3 view .LVU179
 177:Drivers/BSP/Components/lis3dsh/lis3dsh.c ****   uint8_t ctrl = 0x00;
 588              		.loc 1 177 1 is_stmt 0 view .LVU180
 589 0000 10B5     		push	{r4, lr}
 590              		.cfi_def_cfa_offset 8
 591              		.cfi_offset 4, -8
 592              		.cfi_offset 14, -4
 181:Drivers/BSP/Components/lis3dsh/lis3dsh.c ****                    LIS3DSH_IntConfigStruct->Interrupt_Request | \
 593              		.loc 1 181 10 view .LVU181
 594 0002 0178     		ldrb	r1, [r0]	@ zero_extendqisi2
 595 0004 4378     		ldrb	r3, [r0, #1]	@ zero_extendqisi2
 596 0006 8278     		ldrb	r2, [r0, #2]	@ zero_extendqisi2
 177:Drivers/BSP/Components/lis3dsh/lis3dsh.c ****   uint8_t ctrl = 0x00;
 597              		.loc 1 177 1 view .LVU182
 598 0008 82B0     		sub	sp, sp, #8
 599              		.cfi_def_cfa_offset 16
 177:Drivers/BSP/Components/lis3dsh/lis3dsh.c ****   uint8_t ctrl = 0x00;
 600              		.loc 1 177 1 view .LVU183
 601 000a 0446     		mov	r4, r0
 181:Drivers/BSP/Components/lis3dsh/lis3dsh.c ****                    LIS3DSH_IntConfigStruct->Interrupt_Request | \
 602              		.loc 1 181 10 view .LVU184
ARM GAS  /var/folders/0z/tsy30v1j4xl4_7kw94k978ww0000gn/T//ccG3jHmf.s 			page 21


 603 000c 0B43     		orrs	r3, r3, r1
 604 000e 1343     		orrs	r3, r3, r2
 186:Drivers/BSP/Components/lis3dsh/lis3dsh.c ****   
 605              		.loc 1 186 3 view .LVU185
 606 0010 0DF10700 		add	r0, sp, #7
 607              	.LVL38:
 186:Drivers/BSP/Components/lis3dsh/lis3dsh.c ****   
 608              		.loc 1 186 3 view .LVU186
 609 0014 0122     		movs	r2, #1
 610 0016 2321     		movs	r1, #35
 181:Drivers/BSP/Components/lis3dsh/lis3dsh.c ****                    LIS3DSH_IntConfigStruct->Interrupt_Request | \
 611              		.loc 1 181 8 view .LVU187
 612 0018 8DF80730 		strb	r3, [sp, #7]
 186:Drivers/BSP/Components/lis3dsh/lis3dsh.c ****   
 613              		.loc 1 186 3 is_stmt 1 view .LVU188
 614 001c FFF7FEFF 		bl	ACCELERO_IO_Write
 615              	.LVL39:
 189:Drivers/BSP/Components/lis3dsh/lis3dsh.c ****                    LIS3DSH_IntConfigStruct->State_Machine1_Interrupt);
 616              		.loc 1 189 3 view .LVU189
 189:Drivers/BSP/Components/lis3dsh/lis3dsh.c ****                    LIS3DSH_IntConfigStruct->State_Machine1_Interrupt);
 617              		.loc 1 189 10 is_stmt 0 view .LVU190
 618 0020 2179     		ldrb	r1, [r4, #4]	@ zero_extendqisi2
 619 0022 E378     		ldrb	r3, [r4, #3]	@ zero_extendqisi2
 193:Drivers/BSP/Components/lis3dsh/lis3dsh.c ****   
 620              		.loc 1 193 3 view .LVU191
 621 0024 0DF10700 		add	r0, sp, #7
 189:Drivers/BSP/Components/lis3dsh/lis3dsh.c ****                    LIS3DSH_IntConfigStruct->State_Machine1_Interrupt);
 622              		.loc 1 189 10 view .LVU192
 623 0028 0B43     		orrs	r3, r3, r1
 193:Drivers/BSP/Components/lis3dsh/lis3dsh.c ****   
 624              		.loc 1 193 3 view .LVU193
 625 002a 0122     		movs	r2, #1
 626 002c 2121     		movs	r1, #33
 189:Drivers/BSP/Components/lis3dsh/lis3dsh.c ****                    LIS3DSH_IntConfigStruct->State_Machine1_Interrupt);
 627              		.loc 1 189 8 view .LVU194
 628 002e 8DF80730 		strb	r3, [sp, #7]
 193:Drivers/BSP/Components/lis3dsh/lis3dsh.c ****   
 629              		.loc 1 193 3 is_stmt 1 view .LVU195
 630 0032 FFF7FEFF 		bl	ACCELERO_IO_Write
 631              	.LVL40:
 196:Drivers/BSP/Components/lis3dsh/lis3dsh.c ****                    LIS3DSH_IntConfigStruct->State_Machine2_Interrupt);
 632              		.loc 1 196 3 view .LVU196
 196:Drivers/BSP/Components/lis3dsh/lis3dsh.c ****                    LIS3DSH_IntConfigStruct->State_Machine2_Interrupt);
 633              		.loc 1 196 10 is_stmt 0 view .LVU197
 634 0036 A179     		ldrb	r1, [r4, #6]	@ zero_extendqisi2
 635 0038 6379     		ldrb	r3, [r4, #5]	@ zero_extendqisi2
 200:Drivers/BSP/Components/lis3dsh/lis3dsh.c **** }
 636              		.loc 1 200 3 view .LVU198
 637 003a 0122     		movs	r2, #1
 196:Drivers/BSP/Components/lis3dsh/lis3dsh.c ****                    LIS3DSH_IntConfigStruct->State_Machine2_Interrupt);
 638              		.loc 1 196 10 view .LVU199
 639 003c 0B43     		orrs	r3, r3, r1
 200:Drivers/BSP/Components/lis3dsh/lis3dsh.c **** }
 640              		.loc 1 200 3 view .LVU200
 641 003e 0DF10700 		add	r0, sp, #7
 642 0042 2221     		movs	r1, #34
 196:Drivers/BSP/Components/lis3dsh/lis3dsh.c ****                    LIS3DSH_IntConfigStruct->State_Machine2_Interrupt);
ARM GAS  /var/folders/0z/tsy30v1j4xl4_7kw94k978ww0000gn/T//ccG3jHmf.s 			page 22


 643              		.loc 1 196 8 view .LVU201
 644 0044 8DF80730 		strb	r3, [sp, #7]
 200:Drivers/BSP/Components/lis3dsh/lis3dsh.c **** }
 645              		.loc 1 200 3 is_stmt 1 view .LVU202
 646 0048 FFF7FEFF 		bl	ACCELERO_IO_Write
 647              	.LVL41:
 201:Drivers/BSP/Components/lis3dsh/lis3dsh.c **** 
 648              		.loc 1 201 1 is_stmt 0 view .LVU203
 649 004c 02B0     		add	sp, sp, #8
 650              		.cfi_def_cfa_offset 8
 651              		@ sp needed
 652 004e 10BD     		pop	{r4, pc}
 201:Drivers/BSP/Components/lis3dsh/lis3dsh.c **** 
 653              		.loc 1 201 1 view .LVU204
 654              		.cfi_endproc
 655              	.LFE3:
 657              		.section	.text.LIS3DSH_ODR_LowpowerCmd,"ax",%progbits
 658              		.align	1
 659              		.p2align 2,,3
 660              		.global	LIS3DSH_ODR_LowpowerCmd
 661              		.syntax unified
 662              		.thumb
 663              		.thumb_func
 665              	LIS3DSH_ODR_LowpowerCmd:
 666              	.LVL42:
 667              	.LFB5:
 267:Drivers/BSP/Components/lis3dsh/lis3dsh.c ****   uint8_t tmpreg;
 668              		.loc 1 267 1 is_stmt 1 view -0
 669              		.cfi_startproc
 670              		@ args = 0, pretend = 0, frame = 8
 671              		@ frame_needed = 0, uses_anonymous_args = 0
 268:Drivers/BSP/Components/lis3dsh/lis3dsh.c ****   
 672              		.loc 1 268 3 view .LVU206
 271:Drivers/BSP/Components/lis3dsh/lis3dsh.c ****   
 673              		.loc 1 271 3 view .LVU207
 267:Drivers/BSP/Components/lis3dsh/lis3dsh.c ****   uint8_t tmpreg;
 674              		.loc 1 267 1 is_stmt 0 view .LVU208
 675 0000 10B5     		push	{r4, lr}
 676              		.cfi_def_cfa_offset 8
 677              		.cfi_offset 4, -8
 678              		.cfi_offset 14, -4
 679 0002 82B0     		sub	sp, sp, #8
 680              		.cfi_def_cfa_offset 16
 267:Drivers/BSP/Components/lis3dsh/lis3dsh.c ****   uint8_t tmpreg;
 681              		.loc 1 267 1 view .LVU209
 682 0004 0446     		mov	r4, r0
 271:Drivers/BSP/Components/lis3dsh/lis3dsh.c ****   
 683              		.loc 1 271 3 view .LVU210
 684 0006 0122     		movs	r2, #1
 685 0008 0DF10700 		add	r0, sp, #7
 686              	.LVL43:
 271:Drivers/BSP/Components/lis3dsh/lis3dsh.c ****   
 687              		.loc 1 271 3 view .LVU211
 688 000c 2021     		movs	r1, #32
 689 000e FFF7FEFF 		bl	ACCELERO_IO_Read
 690              	.LVL44:
 274:Drivers/BSP/Components/lis3dsh/lis3dsh.c ****   tmpreg |= ODR_LowPowerMode;
ARM GAS  /var/folders/0z/tsy30v1j4xl4_7kw94k978ww0000gn/T//ccG3jHmf.s 			page 23


 691              		.loc 1 274 3 is_stmt 1 view .LVU212
 275:Drivers/BSP/Components/lis3dsh/lis3dsh.c ****   
 692              		.loc 1 275 3 view .LVU213
 274:Drivers/BSP/Components/lis3dsh/lis3dsh.c ****   tmpreg |= ODR_LowPowerMode;
 693              		.loc 1 274 10 is_stmt 0 view .LVU214
 694 0012 9DF80730 		ldrb	r3, [sp, #7]	@ zero_extendqisi2
 695 0016 23F06003 		bic	r3, r3, #96
 275:Drivers/BSP/Components/lis3dsh/lis3dsh.c ****   
 696              		.loc 1 275 10 view .LVU215
 697 001a 1C43     		orrs	r4, r4, r3
 278:Drivers/BSP/Components/lis3dsh/lis3dsh.c **** }
 698              		.loc 1 278 3 view .LVU216
 699 001c 0122     		movs	r2, #1
 700 001e 2021     		movs	r1, #32
 701 0020 0DF10700 		add	r0, sp, #7
 275:Drivers/BSP/Components/lis3dsh/lis3dsh.c ****   
 702              		.loc 1 275 10 view .LVU217
 703 0024 8DF80740 		strb	r4, [sp, #7]
 278:Drivers/BSP/Components/lis3dsh/lis3dsh.c **** }
 704              		.loc 1 278 3 is_stmt 1 view .LVU218
 705 0028 FFF7FEFF 		bl	ACCELERO_IO_Write
 706              	.LVL45:
 279:Drivers/BSP/Components/lis3dsh/lis3dsh.c **** 
 707              		.loc 1 279 1 is_stmt 0 view .LVU219
 708 002c 02B0     		add	sp, sp, #8
 709              		.cfi_def_cfa_offset 8
 710              		@ sp needed
 711 002e 10BD     		pop	{r4, pc}
 712              		.cfi_endproc
 713              	.LFE5:
 715              		.section	.text.LIS3DSH_DataRateCmd,"ax",%progbits
 716              		.align	1
 717              		.p2align 2,,3
 718              		.global	LIS3DSH_DataRateCmd
 719              		.syntax unified
 720              		.thumb
 721              		.thumb_func
 723              	LIS3DSH_DataRateCmd:
 724              	.LVL46:
 725              	.LFB6:
 297:Drivers/BSP/Components/lis3dsh/lis3dsh.c ****   uint8_t tmpreg;
 726              		.loc 1 297 1 is_stmt 1 view -0
 727              		.cfi_startproc
 728              		@ args = 0, pretend = 0, frame = 8
 729              		@ frame_needed = 0, uses_anonymous_args = 0
 298:Drivers/BSP/Components/lis3dsh/lis3dsh.c ****   
 730              		.loc 1 298 3 view .LVU221
 301:Drivers/BSP/Components/lis3dsh/lis3dsh.c ****   
 731              		.loc 1 301 3 view .LVU222
 297:Drivers/BSP/Components/lis3dsh/lis3dsh.c ****   uint8_t tmpreg;
 732              		.loc 1 297 1 is_stmt 0 view .LVU223
 733 0000 10B5     		push	{r4, lr}
 734              		.cfi_def_cfa_offset 8
 735              		.cfi_offset 4, -8
 736              		.cfi_offset 14, -4
 737 0002 82B0     		sub	sp, sp, #8
 738              		.cfi_def_cfa_offset 16
ARM GAS  /var/folders/0z/tsy30v1j4xl4_7kw94k978ww0000gn/T//ccG3jHmf.s 			page 24


 297:Drivers/BSP/Components/lis3dsh/lis3dsh.c ****   uint8_t tmpreg;
 739              		.loc 1 297 1 view .LVU224
 740 0004 0446     		mov	r4, r0
 301:Drivers/BSP/Components/lis3dsh/lis3dsh.c ****   
 741              		.loc 1 301 3 view .LVU225
 742 0006 0122     		movs	r2, #1
 743 0008 0DF10700 		add	r0, sp, #7
 744              	.LVL47:
 301:Drivers/BSP/Components/lis3dsh/lis3dsh.c ****   
 745              		.loc 1 301 3 view .LVU226
 746 000c 2021     		movs	r1, #32
 747 000e FFF7FEFF 		bl	ACCELERO_IO_Read
 748              	.LVL48:
 304:Drivers/BSP/Components/lis3dsh/lis3dsh.c ****   tmpreg |= DataRateValue;
 749              		.loc 1 304 3 is_stmt 1 view .LVU227
 305:Drivers/BSP/Components/lis3dsh/lis3dsh.c ****   
 750              		.loc 1 305 3 view .LVU228
 304:Drivers/BSP/Components/lis3dsh/lis3dsh.c ****   tmpreg |= DataRateValue;
 751              		.loc 1 304 10 is_stmt 0 view .LVU229
 752 0012 9DF80730 		ldrb	r3, [sp, #7]	@ zero_extendqisi2
 753 0016 23F07003 		bic	r3, r3, #112
 305:Drivers/BSP/Components/lis3dsh/lis3dsh.c ****   
 754              		.loc 1 305 10 view .LVU230
 755 001a 1C43     		orrs	r4, r4, r3
 308:Drivers/BSP/Components/lis3dsh/lis3dsh.c **** }
 756              		.loc 1 308 3 view .LVU231
 757 001c 0122     		movs	r2, #1
 758 001e 2021     		movs	r1, #32
 759 0020 0DF10700 		add	r0, sp, #7
 305:Drivers/BSP/Components/lis3dsh/lis3dsh.c ****   
 760              		.loc 1 305 10 view .LVU232
 761 0024 8DF80740 		strb	r4, [sp, #7]
 308:Drivers/BSP/Components/lis3dsh/lis3dsh.c **** }
 762              		.loc 1 308 3 is_stmt 1 view .LVU233
 763 0028 FFF7FEFF 		bl	ACCELERO_IO_Write
 764              	.LVL49:
 309:Drivers/BSP/Components/lis3dsh/lis3dsh.c **** 
 765              		.loc 1 309 1 is_stmt 0 view .LVU234
 766 002c 02B0     		add	sp, sp, #8
 767              		.cfi_def_cfa_offset 8
 768              		@ sp needed
 769 002e 10BD     		pop	{r4, pc}
 770              		.cfi_endproc
 771              	.LFE6:
 773              		.section	.text.LIS3DSH_FullScaleCmd,"ax",%progbits
 774              		.align	1
 775              		.p2align 2,,3
 776              		.global	LIS3DSH_FullScaleCmd
 777              		.syntax unified
 778              		.thumb
 779              		.thumb_func
 781              	LIS3DSH_FullScaleCmd:
 782              	.LVL50:
 783              	.LFB7:
 323:Drivers/BSP/Components/lis3dsh/lis3dsh.c ****   uint8_t tmpreg;
 784              		.loc 1 323 1 is_stmt 1 view -0
 785              		.cfi_startproc
ARM GAS  /var/folders/0z/tsy30v1j4xl4_7kw94k978ww0000gn/T//ccG3jHmf.s 			page 25


 786              		@ args = 0, pretend = 0, frame = 8
 787              		@ frame_needed = 0, uses_anonymous_args = 0
 324:Drivers/BSP/Components/lis3dsh/lis3dsh.c ****   
 788              		.loc 1 324 3 view .LVU236
 327:Drivers/BSP/Components/lis3dsh/lis3dsh.c ****   
 789              		.loc 1 327 3 view .LVU237
 323:Drivers/BSP/Components/lis3dsh/lis3dsh.c ****   uint8_t tmpreg;
 790              		.loc 1 323 1 is_stmt 0 view .LVU238
 791 0000 10B5     		push	{r4, lr}
 792              		.cfi_def_cfa_offset 8
 793              		.cfi_offset 4, -8
 794              		.cfi_offset 14, -4
 795 0002 82B0     		sub	sp, sp, #8
 796              		.cfi_def_cfa_offset 16
 323:Drivers/BSP/Components/lis3dsh/lis3dsh.c ****   uint8_t tmpreg;
 797              		.loc 1 323 1 view .LVU239
 798 0004 0446     		mov	r4, r0
 327:Drivers/BSP/Components/lis3dsh/lis3dsh.c ****   
 799              		.loc 1 327 3 view .LVU240
 800 0006 0122     		movs	r2, #1
 801 0008 0DF10700 		add	r0, sp, #7
 802              	.LVL51:
 327:Drivers/BSP/Components/lis3dsh/lis3dsh.c ****   
 803              		.loc 1 327 3 view .LVU241
 804 000c 2421     		movs	r1, #36
 805 000e FFF7FEFF 		bl	ACCELERO_IO_Read
 806              	.LVL52:
 330:Drivers/BSP/Components/lis3dsh/lis3dsh.c ****   tmpreg |= FS_value;
 807              		.loc 1 330 3 is_stmt 1 view .LVU242
 331:Drivers/BSP/Components/lis3dsh/lis3dsh.c ****   
 808              		.loc 1 331 3 view .LVU243
 330:Drivers/BSP/Components/lis3dsh/lis3dsh.c ****   tmpreg |= FS_value;
 809              		.loc 1 330 10 is_stmt 0 view .LVU244
 810 0012 9DF80730 		ldrb	r3, [sp, #7]	@ zero_extendqisi2
 811 0016 23F02003 		bic	r3, r3, #32
 331:Drivers/BSP/Components/lis3dsh/lis3dsh.c ****   
 812              		.loc 1 331 10 view .LVU245
 813 001a 1C43     		orrs	r4, r4, r3
 334:Drivers/BSP/Components/lis3dsh/lis3dsh.c **** }
 814              		.loc 1 334 3 view .LVU246
 815 001c 0122     		movs	r2, #1
 816 001e 2421     		movs	r1, #36
 817 0020 0DF10700 		add	r0, sp, #7
 331:Drivers/BSP/Components/lis3dsh/lis3dsh.c ****   
 818              		.loc 1 331 10 view .LVU247
 819 0024 8DF80740 		strb	r4, [sp, #7]
 334:Drivers/BSP/Components/lis3dsh/lis3dsh.c **** }
 820              		.loc 1 334 3 is_stmt 1 view .LVU248
 821 0028 FFF7FEFF 		bl	ACCELERO_IO_Write
 822              	.LVL53:
 335:Drivers/BSP/Components/lis3dsh/lis3dsh.c **** 
 823              		.loc 1 335 1 is_stmt 0 view .LVU249
 824 002c 02B0     		add	sp, sp, #8
 825              		.cfi_def_cfa_offset 8
 826              		@ sp needed
 827 002e 10BD     		pop	{r4, pc}
 828              		.cfi_endproc
ARM GAS  /var/folders/0z/tsy30v1j4xl4_7kw94k978ww0000gn/T//ccG3jHmf.s 			page 26


 829              	.LFE7:
 831              		.global	Lis3dshDrv
 832              		.section	.data.Lis3dshDrv,"aw"
 833              		.align	2
 836              	Lis3dshDrv:
 837 0000 00000000 		.word	LIS3DSH_Init
 838 0004 00000000 		.word	LIS3DSH_DeInit
 839 0008 00000000 		.word	LIS3DSH_ReadID
 840 000c 00000000 		.word	LIS3DSH_RebootCmd
 841 0010 00000000 		.word	LIS3DSH_Click_IntConfig
 842 0014 00000000 		.word	0
 843 0018 00000000 		.word	0
 844 001c 00000000 		.word	0
 845 0020 00000000 		.word	0
 846 0024 00000000 		.word	0
 847 0028 00000000 		.word	0
 848 002c 00000000 		.word	0
 849 0030 00000000 		.word	LIS3DSH_ReadACC
 850              		.section	.rodata.CSWTCH.14,"a"
 851              		.align	2
 852              		.set	.LANCHOR0,. + 0
 855              	CSWTCH.14:
 856 0000 8FC2F53D 		.word	1039516303
 857 0004 8FC2753D 		.word	1031127695
 858 0008 8FC2753D 		.word	1031127695
 859 000c 8FC2753D 		.word	1031127695
 860 0010 8FC2753D 		.word	1031127695
 861 0014 8FC2753D 		.word	1031127695
 862 0018 8FC2753D 		.word	1031127695
 863 001c 8FC2753D 		.word	1031127695
 864 0020 EC51383E 		.word	1043878380
 865 0024 8FC2753D 		.word	1031127695
 866 0028 8FC2753D 		.word	1031127695
 867 002c 8FC2753D 		.word	1031127695
 868 0030 8FC2753D 		.word	1031127695
 869 0034 8FC2753D 		.word	1031127695
 870 0038 8FC2753D 		.word	1031127695
 871 003c 8FC2753D 		.word	1031127695
 872 0040 8FC2753E 		.word	1047904911
 873 0044 8FC2753D 		.word	1031127695
 874 0048 8FC2753D 		.word	1031127695
 875 004c 8FC2753D 		.word	1031127695
 876 0050 8FC2753D 		.word	1031127695
 877 0054 8FC2753D 		.word	1031127695
 878 0058 8FC2753D 		.word	1031127695
 879 005c 8FC2753D 		.word	1031127695
 880 0060 48E13A3F 		.word	1060823368
 881              		.text
 882              	.Letext0:
 883              		.file 2 "/Users/johannes/Library/Application Support/Code/User/globalStorage/bmd.stm32-for-vscode/
 884              		.file 3 "/Users/johannes/Library/Application Support/Code/User/globalStorage/bmd.stm32-for-vscode/
 885              		.file 4 "Drivers/BSP/Components/lis3dsh/../Common/accelero.h"
 886              		.file 5 "Drivers/BSP/Components/lis3dsh/lis3dsh.h"
ARM GAS  /var/folders/0z/tsy30v1j4xl4_7kw94k978ww0000gn/T//ccG3jHmf.s 			page 27

