ARM GAS  /var/folders/lp/x54gwt890xv47sdkqj1k04q40000gn/T//ccSWsFYs.s 			page 1


   1              		.cpu cortex-m4
   2              		.arch armv7e-m
   3              		.fpu fpv4-sp-d16
   4              		.eabi_attribute 27, 1
   5              		.eabi_attribute 28, 1
   6              		.eabi_attribute 20, 1
   7              		.eabi_attribute 21, 1
   8              		.eabi_attribute 23, 3
   9              		.eabi_attribute 24, 1
  10              		.eabi_attribute 25, 1
  11              		.eabi_attribute 26, 1
  12              		.eabi_attribute 30, 2
  13              		.eabi_attribute 34, 1
  14              		.eabi_attribute 18, 4
  15              		.file	"lis302dl.c"
  16              		.text
  17              	.Ltext0:
  18              		.cfi_sections	.debug_frame
  19              		.file 1 "Drivers/BSP/Components/lis302dl/lis302dl.c"
  20              		.section	.text.LIS302DL_DeInit,"ax",%progbits
  21              		.align	1
  22              		.p2align 2,,3
  23              		.global	LIS302DL_DeInit
  24              		.syntax unified
  25              		.thumb
  26              		.thumb_func
  28              	LIS302DL_DeInit:
  29              	.LFB1:
   1:Drivers/BSP/Components/lis302dl/lis302dl.c **** /**
   2:Drivers/BSP/Components/lis302dl/lis302dl.c ****   ******************************************************************************
   3:Drivers/BSP/Components/lis302dl/lis302dl.c ****   * @file    lis302dl.c
   4:Drivers/BSP/Components/lis302dl/lis302dl.c ****   * @author  MCD Application Team
   5:Drivers/BSP/Components/lis302dl/lis302dl.c ****   * @version V2.0.0
   6:Drivers/BSP/Components/lis302dl/lis302dl.c ****   * @date    03-August-2015
   7:Drivers/BSP/Components/lis302dl/lis302dl.c ****   * @brief   This file provides a set of functions needed to manage the LIS302DL
   8:Drivers/BSP/Components/lis302dl/lis302dl.c ****   *          MEMS accelerometer.
   9:Drivers/BSP/Components/lis302dl/lis302dl.c ****   ******************************************************************************
  10:Drivers/BSP/Components/lis302dl/lis302dl.c ****   * @attention
  11:Drivers/BSP/Components/lis302dl/lis302dl.c ****   *
  12:Drivers/BSP/Components/lis302dl/lis302dl.c ****   * <h2><center>&copy; COPYRIGHT(c) 2015 STMicroelectronics</center></h2>
  13:Drivers/BSP/Components/lis302dl/lis302dl.c ****   *
  14:Drivers/BSP/Components/lis302dl/lis302dl.c ****   * Redistribution and use in source and binary forms, with or without modification,
  15:Drivers/BSP/Components/lis302dl/lis302dl.c ****   * are permitted provided that the following conditions are met:
  16:Drivers/BSP/Components/lis302dl/lis302dl.c ****   *   1. Redistributions of source code must retain the above copyright notice,
  17:Drivers/BSP/Components/lis302dl/lis302dl.c ****   *      this list of conditions and the following disclaimer.
  18:Drivers/BSP/Components/lis302dl/lis302dl.c ****   *   2. Redistributions in binary form must reproduce the above copyright notice,
  19:Drivers/BSP/Components/lis302dl/lis302dl.c ****   *      this list of conditions and the following disclaimer in the documentation
  20:Drivers/BSP/Components/lis302dl/lis302dl.c ****   *      and/or other materials provided with the distribution.
  21:Drivers/BSP/Components/lis302dl/lis302dl.c ****   *   3. Neither the name of STMicroelectronics nor the names of its contributors
  22:Drivers/BSP/Components/lis302dl/lis302dl.c ****   *      may be used to endorse or promote products derived from this software
  23:Drivers/BSP/Components/lis302dl/lis302dl.c ****   *      without specific prior written permission.
  24:Drivers/BSP/Components/lis302dl/lis302dl.c ****   *
  25:Drivers/BSP/Components/lis302dl/lis302dl.c ****   * THIS SOFTWARE IS PROVIDED BY THE COPYRIGHT HOLDERS AND CONTRIBUTORS "AS IS"
  26:Drivers/BSP/Components/lis302dl/lis302dl.c ****   * AND ANY EXPRESS OR IMPLIED WARRANTIES, INCLUDING, BUT NOT LIMITED TO, THE
  27:Drivers/BSP/Components/lis302dl/lis302dl.c ****   * IMPLIED WARRANTIES OF MERCHANTABILITY AND FITNESS FOR A PARTICULAR PURPOSE ARE
  28:Drivers/BSP/Components/lis302dl/lis302dl.c ****   * DISCLAIMED. IN NO EVENT SHALL THE COPYRIGHT HOLDER OR CONTRIBUTORS BE LIABLE
  29:Drivers/BSP/Components/lis302dl/lis302dl.c ****   * FOR ANY DIRECT, INDIRECT, INCIDENTAL, SPECIAL, EXEMPLARY, OR CONSEQUENTIAL
ARM GAS  /var/folders/lp/x54gwt890xv47sdkqj1k04q40000gn/T//ccSWsFYs.s 			page 2


  30:Drivers/BSP/Components/lis302dl/lis302dl.c ****   * DAMAGES (INCLUDING, BUT NOT LIMITED TO, PROCUREMENT OF SUBSTITUTE GOODS OR
  31:Drivers/BSP/Components/lis302dl/lis302dl.c ****   * SERVICES; LOSS OF USE, DATA, OR PROFITS; OR BUSINESS INTERRUPTION) HOWEVER
  32:Drivers/BSP/Components/lis302dl/lis302dl.c ****   * CAUSED AND ON ANY THEORY OF LIABILITY, WHETHER IN CONTRACT, STRICT LIABILITY,
  33:Drivers/BSP/Components/lis302dl/lis302dl.c ****   * OR TORT (INCLUDING NEGLIGENCE OR OTHERWISE) ARISING IN ANY WAY OUT OF THE USE
  34:Drivers/BSP/Components/lis302dl/lis302dl.c ****   * OF THIS SOFTWARE, EVEN IF ADVISED OF THE POSSIBILITY OF SUCH DAMAGE.
  35:Drivers/BSP/Components/lis302dl/lis302dl.c ****   *
  36:Drivers/BSP/Components/lis302dl/lis302dl.c ****   ******************************************************************************
  37:Drivers/BSP/Components/lis302dl/lis302dl.c ****   */ 
  38:Drivers/BSP/Components/lis302dl/lis302dl.c **** 
  39:Drivers/BSP/Components/lis302dl/lis302dl.c **** /* Includes ------------------------------------------------------------------*/
  40:Drivers/BSP/Components/lis302dl/lis302dl.c **** #include "lis302dl.h"
  41:Drivers/BSP/Components/lis302dl/lis302dl.c **** 
  42:Drivers/BSP/Components/lis302dl/lis302dl.c **** /** @addtogroup BSP
  43:Drivers/BSP/Components/lis302dl/lis302dl.c ****   * @{
  44:Drivers/BSP/Components/lis302dl/lis302dl.c ****   */ 
  45:Drivers/BSP/Components/lis302dl/lis302dl.c **** 
  46:Drivers/BSP/Components/lis302dl/lis302dl.c **** /** @addtogroup Components
  47:Drivers/BSP/Components/lis302dl/lis302dl.c ****   * @{
  48:Drivers/BSP/Components/lis302dl/lis302dl.c ****   */ 
  49:Drivers/BSP/Components/lis302dl/lis302dl.c **** 
  50:Drivers/BSP/Components/lis302dl/lis302dl.c **** /** @addtogroup LIS302DL
  51:Drivers/BSP/Components/lis302dl/lis302dl.c ****   * @brief  This file includes the motion sensor driver for LIS302DL motion sensor 
  52:Drivers/BSP/Components/lis302dl/lis302dl.c ****   *         devices.
  53:Drivers/BSP/Components/lis302dl/lis302dl.c ****   * @{
  54:Drivers/BSP/Components/lis302dl/lis302dl.c ****   */
  55:Drivers/BSP/Components/lis302dl/lis302dl.c **** 
  56:Drivers/BSP/Components/lis302dl/lis302dl.c **** 
  57:Drivers/BSP/Components/lis302dl/lis302dl.c **** /** @defgroup LIS302DL_Private_TypesDefinitions
  58:Drivers/BSP/Components/lis302dl/lis302dl.c ****   * @{
  59:Drivers/BSP/Components/lis302dl/lis302dl.c ****   */
  60:Drivers/BSP/Components/lis302dl/lis302dl.c **** 
  61:Drivers/BSP/Components/lis302dl/lis302dl.c **** /**
  62:Drivers/BSP/Components/lis302dl/lis302dl.c ****   * @}
  63:Drivers/BSP/Components/lis302dl/lis302dl.c ****   */
  64:Drivers/BSP/Components/lis302dl/lis302dl.c **** 
  65:Drivers/BSP/Components/lis302dl/lis302dl.c **** /** @defgroup LIS302DL_Private_Defines
  66:Drivers/BSP/Components/lis302dl/lis302dl.c ****   * @{
  67:Drivers/BSP/Components/lis302dl/lis302dl.c ****   */
  68:Drivers/BSP/Components/lis302dl/lis302dl.c **** 
  69:Drivers/BSP/Components/lis302dl/lis302dl.c **** /**
  70:Drivers/BSP/Components/lis302dl/lis302dl.c ****   * @}
  71:Drivers/BSP/Components/lis302dl/lis302dl.c ****   */
  72:Drivers/BSP/Components/lis302dl/lis302dl.c **** 
  73:Drivers/BSP/Components/lis302dl/lis302dl.c **** /** @defgroup LIS302DL_Private_Macros
  74:Drivers/BSP/Components/lis302dl/lis302dl.c ****   * @{
  75:Drivers/BSP/Components/lis302dl/lis302dl.c ****   */
  76:Drivers/BSP/Components/lis302dl/lis302dl.c **** 
  77:Drivers/BSP/Components/lis302dl/lis302dl.c **** /**
  78:Drivers/BSP/Components/lis302dl/lis302dl.c ****   * @}
  79:Drivers/BSP/Components/lis302dl/lis302dl.c ****   */ 
  80:Drivers/BSP/Components/lis302dl/lis302dl.c ****   
  81:Drivers/BSP/Components/lis302dl/lis302dl.c **** /** @defgroup LIS302DL_Private_Variables
  82:Drivers/BSP/Components/lis302dl/lis302dl.c ****   * @{
  83:Drivers/BSP/Components/lis302dl/lis302dl.c ****   */
  84:Drivers/BSP/Components/lis302dl/lis302dl.c **** 
  85:Drivers/BSP/Components/lis302dl/lis302dl.c **** ACCELERO_DrvTypeDef Lis302dlDrv =
  86:Drivers/BSP/Components/lis302dl/lis302dl.c **** {
ARM GAS  /var/folders/lp/x54gwt890xv47sdkqj1k04q40000gn/T//ccSWsFYs.s 			page 3


  87:Drivers/BSP/Components/lis302dl/lis302dl.c ****   LIS302DL_Init,
  88:Drivers/BSP/Components/lis302dl/lis302dl.c ****   LIS302DL_DeInit,
  89:Drivers/BSP/Components/lis302dl/lis302dl.c ****   LIS302DL_ReadID,
  90:Drivers/BSP/Components/lis302dl/lis302dl.c ****   LIS302DL_RebootCmd,
  91:Drivers/BSP/Components/lis302dl/lis302dl.c ****   LIS302DL_Click_IntConfig,
  92:Drivers/BSP/Components/lis302dl/lis302dl.c ****   0,
  93:Drivers/BSP/Components/lis302dl/lis302dl.c ****   0,
  94:Drivers/BSP/Components/lis302dl/lis302dl.c ****   0,
  95:Drivers/BSP/Components/lis302dl/lis302dl.c ****   0,
  96:Drivers/BSP/Components/lis302dl/lis302dl.c ****   LIS302DL_Click_IntClear,
  97:Drivers/BSP/Components/lis302dl/lis302dl.c ****   LIS302DL_FilterConfig,
  98:Drivers/BSP/Components/lis302dl/lis302dl.c ****   0,
  99:Drivers/BSP/Components/lis302dl/lis302dl.c ****   LIS302DL_ReadACC,
 100:Drivers/BSP/Components/lis302dl/lis302dl.c **** };
 101:Drivers/BSP/Components/lis302dl/lis302dl.c **** 
 102:Drivers/BSP/Components/lis302dl/lis302dl.c **** /**
 103:Drivers/BSP/Components/lis302dl/lis302dl.c ****   * @}
 104:Drivers/BSP/Components/lis302dl/lis302dl.c ****   */
 105:Drivers/BSP/Components/lis302dl/lis302dl.c **** 
 106:Drivers/BSP/Components/lis302dl/lis302dl.c **** /** @defgroup LIS302DL_Private_FunctionPrototypes
 107:Drivers/BSP/Components/lis302dl/lis302dl.c ****   * @{
 108:Drivers/BSP/Components/lis302dl/lis302dl.c ****   */
 109:Drivers/BSP/Components/lis302dl/lis302dl.c **** 
 110:Drivers/BSP/Components/lis302dl/lis302dl.c **** /**
 111:Drivers/BSP/Components/lis302dl/lis302dl.c ****   * @}
 112:Drivers/BSP/Components/lis302dl/lis302dl.c ****   */
 113:Drivers/BSP/Components/lis302dl/lis302dl.c **** 
 114:Drivers/BSP/Components/lis302dl/lis302dl.c **** /** @defgroup LIS302DL_Private_Functions
 115:Drivers/BSP/Components/lis302dl/lis302dl.c ****   * @{
 116:Drivers/BSP/Components/lis302dl/lis302dl.c ****   */
 117:Drivers/BSP/Components/lis302dl/lis302dl.c **** 
 118:Drivers/BSP/Components/lis302dl/lis302dl.c **** /**
 119:Drivers/BSP/Components/lis302dl/lis302dl.c ****   * @brief  Set LIS302DL Initialization.
 120:Drivers/BSP/Components/lis302dl/lis302dl.c ****   * @param  InitStruct: contains mask of different init parameters
 121:Drivers/BSP/Components/lis302dl/lis302dl.c ****   * @retval None
 122:Drivers/BSP/Components/lis302dl/lis302dl.c ****   */
 123:Drivers/BSP/Components/lis302dl/lis302dl.c **** void LIS302DL_Init(uint16_t InitStruct)
 124:Drivers/BSP/Components/lis302dl/lis302dl.c **** {
 125:Drivers/BSP/Components/lis302dl/lis302dl.c ****   uint8_t ctrl = 0x00;
 126:Drivers/BSP/Components/lis302dl/lis302dl.c ****   
 127:Drivers/BSP/Components/lis302dl/lis302dl.c ****   /* Configure the low level interface */
 128:Drivers/BSP/Components/lis302dl/lis302dl.c ****   ACCELERO_IO_Init();
 129:Drivers/BSP/Components/lis302dl/lis302dl.c **** 
 130:Drivers/BSP/Components/lis302dl/lis302dl.c ****   ctrl = (uint8_t) InitStruct;
 131:Drivers/BSP/Components/lis302dl/lis302dl.c **** 
 132:Drivers/BSP/Components/lis302dl/lis302dl.c ****   /* Write value to MEMS CTRL_REG1 register */
 133:Drivers/BSP/Components/lis302dl/lis302dl.c ****   ACCELERO_IO_Write(&ctrl, LIS302DL_CTRL_REG1_ADDR, 1);
 134:Drivers/BSP/Components/lis302dl/lis302dl.c **** }
 135:Drivers/BSP/Components/lis302dl/lis302dl.c **** 
 136:Drivers/BSP/Components/lis302dl/lis302dl.c **** /**
 137:Drivers/BSP/Components/lis302dl/lis302dl.c ****   * @brief  LIS302DL De-Initialization.
 138:Drivers/BSP/Components/lis302dl/lis302dl.c ****   * @param  None
 139:Drivers/BSP/Components/lis302dl/lis302dl.c ****   * @retval None.
 140:Drivers/BSP/Components/lis302dl/lis302dl.c ****   */
 141:Drivers/BSP/Components/lis302dl/lis302dl.c **** void LIS302DL_DeInit(void)
 142:Drivers/BSP/Components/lis302dl/lis302dl.c **** {
  30              		.loc 1 142 1 view -0
ARM GAS  /var/folders/lp/x54gwt890xv47sdkqj1k04q40000gn/T//ccSWsFYs.s 			page 4


  31              		.cfi_startproc
  32              		@ args = 0, pretend = 0, frame = 0
  33              		@ frame_needed = 0, uses_anonymous_args = 0
  34              		@ link register save eliminated.
 143:Drivers/BSP/Components/lis302dl/lis302dl.c ****   
 144:Drivers/BSP/Components/lis302dl/lis302dl.c **** }
  35              		.loc 1 144 1 view .LVU1
  36 0000 7047     		bx	lr
  37              		.cfi_endproc
  38              	.LFE1:
  40 0002 00BF     		.section	.text.LIS302DL_Init,"ax",%progbits
  41              		.align	1
  42              		.p2align 2,,3
  43              		.global	LIS302DL_Init
  44              		.syntax unified
  45              		.thumb
  46              		.thumb_func
  48              	LIS302DL_Init:
  49              	.LVL0:
  50              	.LFB0:
 124:Drivers/BSP/Components/lis302dl/lis302dl.c ****   uint8_t ctrl = 0x00;
  51              		.loc 1 124 1 view -0
  52              		.cfi_startproc
  53              		@ args = 0, pretend = 0, frame = 8
  54              		@ frame_needed = 0, uses_anonymous_args = 0
 125:Drivers/BSP/Components/lis302dl/lis302dl.c ****   
  55              		.loc 1 125 3 view .LVU3
 124:Drivers/BSP/Components/lis302dl/lis302dl.c ****   uint8_t ctrl = 0x00;
  56              		.loc 1 124 1 is_stmt 0 view .LVU4
  57 0000 10B5     		push	{r4, lr}
  58              		.cfi_def_cfa_offset 8
  59              		.cfi_offset 4, -8
  60              		.cfi_offset 14, -4
  61 0002 82B0     		sub	sp, sp, #8
  62              		.cfi_def_cfa_offset 16
 125:Drivers/BSP/Components/lis302dl/lis302dl.c ****   
  63              		.loc 1 125 11 view .LVU5
  64 0004 0023     		movs	r3, #0
 124:Drivers/BSP/Components/lis302dl/lis302dl.c ****   uint8_t ctrl = 0x00;
  65              		.loc 1 124 1 view .LVU6
  66 0006 0446     		mov	r4, r0
 125:Drivers/BSP/Components/lis302dl/lis302dl.c ****   
  67              		.loc 1 125 11 view .LVU7
  68 0008 8DF80730 		strb	r3, [sp, #7]
 128:Drivers/BSP/Components/lis302dl/lis302dl.c **** 
  69              		.loc 1 128 3 is_stmt 1 view .LVU8
  70 000c FFF7FEFF 		bl	ACCELERO_IO_Init
  71              	.LVL1:
 130:Drivers/BSP/Components/lis302dl/lis302dl.c **** 
  72              		.loc 1 130 3 view .LVU9
 133:Drivers/BSP/Components/lis302dl/lis302dl.c **** }
  73              		.loc 1 133 3 is_stmt 0 view .LVU10
  74 0010 0122     		movs	r2, #1
  75 0012 2021     		movs	r1, #32
  76 0014 0DF10700 		add	r0, sp, #7
 130:Drivers/BSP/Components/lis302dl/lis302dl.c **** 
  77              		.loc 1 130 10 view .LVU11
ARM GAS  /var/folders/lp/x54gwt890xv47sdkqj1k04q40000gn/T//ccSWsFYs.s 			page 5


  78 0018 8DF80740 		strb	r4, [sp, #7]
 133:Drivers/BSP/Components/lis302dl/lis302dl.c **** }
  79              		.loc 1 133 3 is_stmt 1 view .LVU12
  80 001c FFF7FEFF 		bl	ACCELERO_IO_Write
  81              	.LVL2:
 134:Drivers/BSP/Components/lis302dl/lis302dl.c **** 
  82              		.loc 1 134 1 is_stmt 0 view .LVU13
  83 0020 02B0     		add	sp, sp, #8
  84              		.cfi_def_cfa_offset 8
  85              		@ sp needed
  86 0022 10BD     		pop	{r4, pc}
 134:Drivers/BSP/Components/lis302dl/lis302dl.c **** 
  87              		.loc 1 134 1 view .LVU14
  88              		.cfi_endproc
  89              	.LFE0:
  91              		.section	.text.LIS302DL_ReadID,"ax",%progbits
  92              		.align	1
  93              		.p2align 2,,3
  94              		.global	LIS302DL_ReadID
  95              		.syntax unified
  96              		.thumb
  97              		.thumb_func
  99              	LIS302DL_ReadID:
 100              	.LFB2:
 145:Drivers/BSP/Components/lis302dl/lis302dl.c **** 
 146:Drivers/BSP/Components/lis302dl/lis302dl.c **** /**
 147:Drivers/BSP/Components/lis302dl/lis302dl.c ****   * @brief  Read LIS302DL device ID.
 148:Drivers/BSP/Components/lis302dl/lis302dl.c ****   * @param  None
 149:Drivers/BSP/Components/lis302dl/lis302dl.c ****   * @retval The Device ID (two bytes).
 150:Drivers/BSP/Components/lis302dl/lis302dl.c ****   */
 151:Drivers/BSP/Components/lis302dl/lis302dl.c **** uint8_t LIS302DL_ReadID(void)
 152:Drivers/BSP/Components/lis302dl/lis302dl.c **** {
 101              		.loc 1 152 1 is_stmt 1 view -0
 102              		.cfi_startproc
 103              		@ args = 0, pretend = 0, frame = 8
 104              		@ frame_needed = 0, uses_anonymous_args = 0
 153:Drivers/BSP/Components/lis302dl/lis302dl.c ****   uint8_t tmp = 0;
 105              		.loc 1 153 3 view .LVU16
 152:Drivers/BSP/Components/lis302dl/lis302dl.c ****   uint8_t tmp = 0;
 106              		.loc 1 152 1 is_stmt 0 view .LVU17
 107 0000 00B5     		push	{lr}
 108              		.cfi_def_cfa_offset 4
 109              		.cfi_offset 14, -4
 110 0002 83B0     		sub	sp, sp, #12
 111              		.cfi_def_cfa_offset 16
 112              		.loc 1 153 11 view .LVU18
 113 0004 0023     		movs	r3, #0
 114 0006 8DF80730 		strb	r3, [sp, #7]
 154:Drivers/BSP/Components/lis302dl/lis302dl.c **** 
 155:Drivers/BSP/Components/lis302dl/lis302dl.c ****   /* Configure the low level interface */
 156:Drivers/BSP/Components/lis302dl/lis302dl.c ****   ACCELERO_IO_Init();
 115              		.loc 1 156 3 is_stmt 1 view .LVU19
 116 000a FFF7FEFF 		bl	ACCELERO_IO_Init
 117              	.LVL3:
 157:Drivers/BSP/Components/lis302dl/lis302dl.c **** 
 158:Drivers/BSP/Components/lis302dl/lis302dl.c ****   /* Read WHO_AM_I register */
 159:Drivers/BSP/Components/lis302dl/lis302dl.c ****   ACCELERO_IO_Read(&tmp, LIS302DL_WHO_AM_I_ADDR, 1);
ARM GAS  /var/folders/lp/x54gwt890xv47sdkqj1k04q40000gn/T//ccSWsFYs.s 			page 6


 118              		.loc 1 159 3 view .LVU20
 119 000e 0DF10700 		add	r0, sp, #7
 120 0012 0122     		movs	r2, #1
 121 0014 0F21     		movs	r1, #15
 122 0016 FFF7FEFF 		bl	ACCELERO_IO_Read
 123              	.LVL4:
 160:Drivers/BSP/Components/lis302dl/lis302dl.c ****   
 161:Drivers/BSP/Components/lis302dl/lis302dl.c ****   /* Return the ID */
 162:Drivers/BSP/Components/lis302dl/lis302dl.c ****   return (uint16_t)tmp;
 124              		.loc 1 162 3 view .LVU21
 163:Drivers/BSP/Components/lis302dl/lis302dl.c **** }
 125              		.loc 1 163 1 is_stmt 0 view .LVU22
 126 001a 9DF80700 		ldrb	r0, [sp, #7]	@ zero_extendqisi2
 127 001e 03B0     		add	sp, sp, #12
 128              		.cfi_def_cfa_offset 4
 129              		@ sp needed
 130 0020 5DF804FB 		ldr	pc, [sp], #4
 131              		.cfi_endproc
 132              	.LFE2:
 134              		.section	.text.LIS302DL_FilterConfig,"ax",%progbits
 135              		.align	1
 136              		.p2align 2,,3
 137              		.global	LIS302DL_FilterConfig
 138              		.syntax unified
 139              		.thumb
 140              		.thumb_func
 142              	LIS302DL_FilterConfig:
 143              	.LVL5:
 144              	.LFB3:
 164:Drivers/BSP/Components/lis302dl/lis302dl.c **** 
 165:Drivers/BSP/Components/lis302dl/lis302dl.c **** /**
 166:Drivers/BSP/Components/lis302dl/lis302dl.c ****   * @brief  Set LIS302DL Internal High Pass Filter configuration.
 167:Drivers/BSP/Components/lis302dl/lis302dl.c ****   * @param  FilterStruct: contains data for filter config
 168:Drivers/BSP/Components/lis302dl/lis302dl.c ****   * @retval None
 169:Drivers/BSP/Components/lis302dl/lis302dl.c ****   */
 170:Drivers/BSP/Components/lis302dl/lis302dl.c **** void LIS302DL_FilterConfig(uint8_t FilterStruct)
 171:Drivers/BSP/Components/lis302dl/lis302dl.c **** {
 145              		.loc 1 171 1 is_stmt 1 view -0
 146              		.cfi_startproc
 147              		@ args = 0, pretend = 0, frame = 8
 148              		@ frame_needed = 0, uses_anonymous_args = 0
 172:Drivers/BSP/Components/lis302dl/lis302dl.c ****   uint8_t ctrl = 0x00;
 149              		.loc 1 172 3 view .LVU24
 171:Drivers/BSP/Components/lis302dl/lis302dl.c ****   uint8_t ctrl = 0x00;
 150              		.loc 1 171 1 is_stmt 0 view .LVU25
 151 0000 10B5     		push	{r4, lr}
 152              		.cfi_def_cfa_offset 8
 153              		.cfi_offset 4, -8
 154              		.cfi_offset 14, -4
 155 0002 82B0     		sub	sp, sp, #8
 156              		.cfi_def_cfa_offset 16
 157              		.loc 1 172 11 view .LVU26
 158 0004 0023     		movs	r3, #0
 173:Drivers/BSP/Components/lis302dl/lis302dl.c ****   
 174:Drivers/BSP/Components/lis302dl/lis302dl.c ****   /* Read CTRL_REG2 register */
 175:Drivers/BSP/Components/lis302dl/lis302dl.c ****   ACCELERO_IO_Read(&ctrl, LIS302DL_CTRL_REG2_ADDR, 1);
 159              		.loc 1 175 3 view .LVU27
ARM GAS  /var/folders/lp/x54gwt890xv47sdkqj1k04q40000gn/T//ccSWsFYs.s 			page 7


 160 0006 0122     		movs	r2, #1
 161 0008 2121     		movs	r1, #33
 171:Drivers/BSP/Components/lis302dl/lis302dl.c ****   uint8_t ctrl = 0x00;
 162              		.loc 1 171 1 view .LVU28
 163 000a 0446     		mov	r4, r0
 164              		.loc 1 175 3 view .LVU29
 165 000c 0DF10700 		add	r0, sp, #7
 166              	.LVL6:
 172:Drivers/BSP/Components/lis302dl/lis302dl.c ****   
 167              		.loc 1 172 11 view .LVU30
 168 0010 8DF80730 		strb	r3, [sp, #7]
 169              		.loc 1 175 3 is_stmt 1 view .LVU31
 170 0014 FFF7FEFF 		bl	ACCELERO_IO_Read
 171              	.LVL7:
 176:Drivers/BSP/Components/lis302dl/lis302dl.c **** 
 177:Drivers/BSP/Components/lis302dl/lis302dl.c ****   /* Clear high pass filter cut-off level, interrupt and data selection bits */
 178:Drivers/BSP/Components/lis302dl/lis302dl.c ****   ctrl &= (uint8_t)~(LIS302DL_FILTEREDDATASELECTION_OUTPUTREGISTER | \
 172              		.loc 1 178 3 view .LVU32
 179:Drivers/BSP/Components/lis302dl/lis302dl.c ****                      LIS302DL_HIGHPASSFILTER_LEVEL_3 | \
 180:Drivers/BSP/Components/lis302dl/lis302dl.c ****                      LIS302DL_HIGHPASSFILTERINTERRUPT_1_2);
 181:Drivers/BSP/Components/lis302dl/lis302dl.c **** 
 182:Drivers/BSP/Components/lis302dl/lis302dl.c ****   ctrl |= FilterStruct;
 173              		.loc 1 182 3 view .LVU33
 178:Drivers/BSP/Components/lis302dl/lis302dl.c ****                      LIS302DL_HIGHPASSFILTER_LEVEL_3 | \
 174              		.loc 1 178 8 is_stmt 0 view .LVU34
 175 0018 9DF80730 		ldrb	r3, [sp, #7]	@ zero_extendqisi2
 176 001c 23F02F03 		bic	r3, r3, #47
 177              		.loc 1 182 8 view .LVU35
 178 0020 1C43     		orrs	r4, r4, r3
 179              	.LVL8:
 183:Drivers/BSP/Components/lis302dl/lis302dl.c ****   
 184:Drivers/BSP/Components/lis302dl/lis302dl.c ****   /* Write value to MEMS CTRL_REG2 register */
 185:Drivers/BSP/Components/lis302dl/lis302dl.c ****   ACCELERO_IO_Write(&ctrl, LIS302DL_CTRL_REG2_ADDR, 1);
 180              		.loc 1 185 3 view .LVU36
 181 0022 0122     		movs	r2, #1
 182 0024 2121     		movs	r1, #33
 183 0026 0DF10700 		add	r0, sp, #7
 182:Drivers/BSP/Components/lis302dl/lis302dl.c ****   
 184              		.loc 1 182 8 view .LVU37
 185 002a 8DF80740 		strb	r4, [sp, #7]
 186              		.loc 1 185 3 is_stmt 1 view .LVU38
 187 002e FFF7FEFF 		bl	ACCELERO_IO_Write
 188              	.LVL9:
 186:Drivers/BSP/Components/lis302dl/lis302dl.c **** }
 189              		.loc 1 186 1 is_stmt 0 view .LVU39
 190 0032 02B0     		add	sp, sp, #8
 191              		.cfi_def_cfa_offset 8
 192              		@ sp needed
 193 0034 10BD     		pop	{r4, pc}
 194              		.cfi_endproc
 195              	.LFE3:
 197 0036 00BF     		.section	.text.LIS302DL_Click_IntClear,"ax",%progbits
 198              		.align	1
 199              		.p2align 2,,3
 200              		.global	LIS302DL_Click_IntClear
 201              		.syntax unified
 202              		.thumb
ARM GAS  /var/folders/lp/x54gwt890xv47sdkqj1k04q40000gn/T//ccSWsFYs.s 			page 8


 203              		.thumb_func
 205              	LIS302DL_Click_IntClear:
 206              	.LFB6:
 187:Drivers/BSP/Components/lis302dl/lis302dl.c **** 
 188:Drivers/BSP/Components/lis302dl/lis302dl.c **** /**
 189:Drivers/BSP/Components/lis302dl/lis302dl.c ****   * @brief  Set LIS302DL Interrupt configuration.
 190:Drivers/BSP/Components/lis302dl/lis302dl.c ****   * @param  LIS302DL_InterruptConfig_TypeDef: pointer to a LIS302DL_InterruptConfig_TypeDef 
 191:Drivers/BSP/Components/lis302dl/lis302dl.c ****   *         structure that contains the configuration setting for the LIS302DL Interrupt.
 192:Drivers/BSP/Components/lis302dl/lis302dl.c ****   * @retval None
 193:Drivers/BSP/Components/lis302dl/lis302dl.c ****   */
 194:Drivers/BSP/Components/lis302dl/lis302dl.c **** void LIS302DL_InterruptConfig(LIS302DL_InterruptConfigTypeDef *LIS302DL_IntConfigStruct)
 195:Drivers/BSP/Components/lis302dl/lis302dl.c **** {
 196:Drivers/BSP/Components/lis302dl/lis302dl.c ****   uint8_t ctrl = 0x00;
 197:Drivers/BSP/Components/lis302dl/lis302dl.c ****   
 198:Drivers/BSP/Components/lis302dl/lis302dl.c ****   /* Read CLICK_CFG register */
 199:Drivers/BSP/Components/lis302dl/lis302dl.c ****   ACCELERO_IO_Read(&ctrl, LIS302DL_CLICK_CFG_REG_ADDR, 1);
 200:Drivers/BSP/Components/lis302dl/lis302dl.c ****   
 201:Drivers/BSP/Components/lis302dl/lis302dl.c ****   /* Configure latch Interrupt request, click interrupts and double click interrupts */            
 202:Drivers/BSP/Components/lis302dl/lis302dl.c ****   ctrl = (uint8_t)(LIS302DL_IntConfigStruct->Latch_Request| \
 203:Drivers/BSP/Components/lis302dl/lis302dl.c ****                    LIS302DL_IntConfigStruct->SingleClick_Axes | \
 204:Drivers/BSP/Components/lis302dl/lis302dl.c ****                    LIS302DL_IntConfigStruct->DoubleClick_Axes);
 205:Drivers/BSP/Components/lis302dl/lis302dl.c ****   
 206:Drivers/BSP/Components/lis302dl/lis302dl.c ****   /* Write value to MEMS CLICK_CFG register */
 207:Drivers/BSP/Components/lis302dl/lis302dl.c ****   ACCELERO_IO_Write(&ctrl, LIS302DL_CLICK_CFG_REG_ADDR, 1);
 208:Drivers/BSP/Components/lis302dl/lis302dl.c **** }
 209:Drivers/BSP/Components/lis302dl/lis302dl.c **** 
 210:Drivers/BSP/Components/lis302dl/lis302dl.c **** /**
 211:Drivers/BSP/Components/lis302dl/lis302dl.c ****   * @brief  Set LIS302DL Interrupt configuration
 212:Drivers/BSP/Components/lis302dl/lis302dl.c ****   * @param  None
 213:Drivers/BSP/Components/lis302dl/lis302dl.c ****   * @retval None
 214:Drivers/BSP/Components/lis302dl/lis302dl.c ****   */
 215:Drivers/BSP/Components/lis302dl/lis302dl.c **** void LIS302DL_Click_IntConfig(void)
 216:Drivers/BSP/Components/lis302dl/lis302dl.c **** {
 217:Drivers/BSP/Components/lis302dl/lis302dl.c ****   uint8_t ctrl = 0x00;
 218:Drivers/BSP/Components/lis302dl/lis302dl.c ****   LIS302DL_InterruptConfigTypeDef   LIS302DL_InterruptStruct;
 219:Drivers/BSP/Components/lis302dl/lis302dl.c ****   
 220:Drivers/BSP/Components/lis302dl/lis302dl.c ****   ACCELERO_IO_ITConfig();
 221:Drivers/BSP/Components/lis302dl/lis302dl.c ****   
 222:Drivers/BSP/Components/lis302dl/lis302dl.c ****   /* Set configuration of Internal High Pass Filter of LIS302DL */
 223:Drivers/BSP/Components/lis302dl/lis302dl.c ****   LIS302DL_InterruptStruct.Latch_Request = LIS302DL_INTERRUPTREQUEST_LATCHED;
 224:Drivers/BSP/Components/lis302dl/lis302dl.c ****   LIS302DL_InterruptStruct.SingleClick_Axes = LIS302DL_CLICKINTERRUPT_Z_ENABLE;
 225:Drivers/BSP/Components/lis302dl/lis302dl.c ****   LIS302DL_InterruptStruct.DoubleClick_Axes = LIS302DL_DOUBLECLICKINTERRUPT_Z_ENABLE;
 226:Drivers/BSP/Components/lis302dl/lis302dl.c ****   LIS302DL_InterruptConfig(&LIS302DL_InterruptStruct);
 227:Drivers/BSP/Components/lis302dl/lis302dl.c ****   
 228:Drivers/BSP/Components/lis302dl/lis302dl.c ****   /* Configure Interrupt control register: enable Click interrupt on INT1 and
 229:Drivers/BSP/Components/lis302dl/lis302dl.c ****   INT2 on Z axis high event */
 230:Drivers/BSP/Components/lis302dl/lis302dl.c ****   ctrl = 0x3F;
 231:Drivers/BSP/Components/lis302dl/lis302dl.c ****   ACCELERO_IO_Write(&ctrl, LIS302DL_CTRL_REG3_ADDR, 1);
 232:Drivers/BSP/Components/lis302dl/lis302dl.c ****   
 233:Drivers/BSP/Components/lis302dl/lis302dl.c ****   /* Enable Interrupt generation on click on Z axis */
 234:Drivers/BSP/Components/lis302dl/lis302dl.c ****   ctrl = 0x50;
 235:Drivers/BSP/Components/lis302dl/lis302dl.c ****   ACCELERO_IO_Write(&ctrl, LIS302DL_CLICK_CFG_REG_ADDR, 1);
 236:Drivers/BSP/Components/lis302dl/lis302dl.c ****   
 237:Drivers/BSP/Components/lis302dl/lis302dl.c ****   /* Configure Click Threshold on X/Y axis (10 x 0.5g) */
 238:Drivers/BSP/Components/lis302dl/lis302dl.c ****   ctrl = 0xAA;
 239:Drivers/BSP/Components/lis302dl/lis302dl.c ****   ACCELERO_IO_Write(&ctrl, LIS302DL_CLICK_THSY_X_REG_ADDR, 1);
 240:Drivers/BSP/Components/lis302dl/lis302dl.c ****   
ARM GAS  /var/folders/lp/x54gwt890xv47sdkqj1k04q40000gn/T//ccSWsFYs.s 			page 9


 241:Drivers/BSP/Components/lis302dl/lis302dl.c ****   /* Configure Click Threshold on Z axis (10 x 0.5g) */
 242:Drivers/BSP/Components/lis302dl/lis302dl.c ****   ctrl = 0x0A;
 243:Drivers/BSP/Components/lis302dl/lis302dl.c ****   ACCELERO_IO_Write(&ctrl, LIS302DL_CLICK_THSZ_REG_ADDR, 1);
 244:Drivers/BSP/Components/lis302dl/lis302dl.c ****   
 245:Drivers/BSP/Components/lis302dl/lis302dl.c ****   /* Enable interrupt on Y axis high event */
 246:Drivers/BSP/Components/lis302dl/lis302dl.c ****   ctrl = 0x4C;
 247:Drivers/BSP/Components/lis302dl/lis302dl.c ****   ACCELERO_IO_Write(&ctrl, LIS302DL_FF_WU_CFG1_REG_ADDR, 1);
 248:Drivers/BSP/Components/lis302dl/lis302dl.c ****   
 249:Drivers/BSP/Components/lis302dl/lis302dl.c ****   /* Configure Time Limit */
 250:Drivers/BSP/Components/lis302dl/lis302dl.c ****   ctrl = 0x03;
 251:Drivers/BSP/Components/lis302dl/lis302dl.c ****   ACCELERO_IO_Write(&ctrl, LIS302DL_CLICK_TIMELIMIT_REG_ADDR, 1);
 252:Drivers/BSP/Components/lis302dl/lis302dl.c ****   
 253:Drivers/BSP/Components/lis302dl/lis302dl.c ****   /* Configure Latency */
 254:Drivers/BSP/Components/lis302dl/lis302dl.c ****   ctrl = 0x7F;
 255:Drivers/BSP/Components/lis302dl/lis302dl.c ****   ACCELERO_IO_Write(&ctrl, LIS302DL_CLICK_LATENCY_REG_ADDR, 1);
 256:Drivers/BSP/Components/lis302dl/lis302dl.c ****   
 257:Drivers/BSP/Components/lis302dl/lis302dl.c ****   /* Configure Click Window */
 258:Drivers/BSP/Components/lis302dl/lis302dl.c ****   ctrl = 0x7F;
 259:Drivers/BSP/Components/lis302dl/lis302dl.c ****   ACCELERO_IO_Write(&ctrl, LIS302DL_CLICK_WINDOW_REG_ADDR, 1);
 260:Drivers/BSP/Components/lis302dl/lis302dl.c **** }
 261:Drivers/BSP/Components/lis302dl/lis302dl.c **** 
 262:Drivers/BSP/Components/lis302dl/lis302dl.c **** /**
 263:Drivers/BSP/Components/lis302dl/lis302dl.c ****   * @brief  Clear LIS302DL click Interrupt 
 264:Drivers/BSP/Components/lis302dl/lis302dl.c ****   * @param  None
 265:Drivers/BSP/Components/lis302dl/lis302dl.c ****   * @retval None
 266:Drivers/BSP/Components/lis302dl/lis302dl.c ****   */
 267:Drivers/BSP/Components/lis302dl/lis302dl.c **** void LIS302DL_Click_IntClear(void)
 268:Drivers/BSP/Components/lis302dl/lis302dl.c **** {
 207              		.loc 1 268 1 is_stmt 1 view -0
 208              		.cfi_startproc
 209              		@ args = 0, pretend = 0, frame = 16
 210              		@ frame_needed = 0, uses_anonymous_args = 0
 269:Drivers/BSP/Components/lis302dl/lis302dl.c ****   uint8_t buffer[6], clickreg = 0;
 211              		.loc 1 269 3 view .LVU41
 268:Drivers/BSP/Components/lis302dl/lis302dl.c ****   uint8_t buffer[6], clickreg = 0;
 212              		.loc 1 268 1 is_stmt 0 view .LVU42
 213 0000 00B5     		push	{lr}
 214              		.cfi_def_cfa_offset 4
 215              		.cfi_offset 14, -4
 216 0002 85B0     		sub	sp, sp, #20
 217              		.cfi_def_cfa_offset 24
 218              		.loc 1 269 22 view .LVU43
 219 0004 0023     		movs	r3, #0
 270:Drivers/BSP/Components/lis302dl/lis302dl.c **** 
 271:Drivers/BSP/Components/lis302dl/lis302dl.c ****   /* Read click and status registers if the available MEMS Accelerometer is LIS302DL */
 272:Drivers/BSP/Components/lis302dl/lis302dl.c ****   ACCELERO_IO_Read(&clickreg, LIS302DL_CLICK_SRC_REG_ADDR, 1); 
 220              		.loc 1 272 3 view .LVU44
 221 0006 0DF10700 		add	r0, sp, #7
 222 000a 0122     		movs	r2, #1
 223 000c 3921     		movs	r1, #57
 269:Drivers/BSP/Components/lis302dl/lis302dl.c **** 
 224              		.loc 1 269 22 view .LVU45
 225 000e 8DF80730 		strb	r3, [sp, #7]
 226              		.loc 1 272 3 is_stmt 1 view .LVU46
 227 0012 FFF7FEFF 		bl	ACCELERO_IO_Read
 228              	.LVL10:
 273:Drivers/BSP/Components/lis302dl/lis302dl.c ****   ACCELERO_IO_Read(buffer, LIS302DL_STATUS_REG_ADDR, 6);
ARM GAS  /var/folders/lp/x54gwt890xv47sdkqj1k04q40000gn/T//ccSWsFYs.s 			page 10


 229              		.loc 1 273 3 view .LVU47
 230 0016 0622     		movs	r2, #6
 231 0018 2721     		movs	r1, #39
 232 001a 02A8     		add	r0, sp, #8
 233 001c FFF7FEFF 		bl	ACCELERO_IO_Read
 234              	.LVL11:
 274:Drivers/BSP/Components/lis302dl/lis302dl.c **** }
 235              		.loc 1 274 1 is_stmt 0 view .LVU48
 236 0020 05B0     		add	sp, sp, #20
 237              		.cfi_def_cfa_offset 4
 238              		@ sp needed
 239 0022 5DF804FB 		ldr	pc, [sp], #4
 240              		.cfi_endproc
 241              	.LFE6:
 243 0026 00BF     		.section	.text.LIS302DL_RebootCmd,"ax",%progbits
 244              		.align	1
 245              		.p2align 2,,3
 246              		.global	LIS302DL_RebootCmd
 247              		.syntax unified
 248              		.thumb
 249              		.thumb_func
 251              	LIS302DL_RebootCmd:
 252              	.LFB10:
 275:Drivers/BSP/Components/lis302dl/lis302dl.c **** 
 276:Drivers/BSP/Components/lis302dl/lis302dl.c **** /**
 277:Drivers/BSP/Components/lis302dl/lis302dl.c ****   * @brief  Change the lowpower mode for LIS302DL
 278:Drivers/BSP/Components/lis302dl/lis302dl.c ****   * @param  LowPowerMode: New state for the low power mode.
 279:Drivers/BSP/Components/lis302dl/lis302dl.c ****   *   This parameter can be one of the following values:
 280:Drivers/BSP/Components/lis302dl/lis302dl.c ****   *     @arg LIS302DL_LOWPOWERMODE_POWERDOWN: Power down mode
 281:Drivers/BSP/Components/lis302dl/lis302dl.c ****   *     @arg LIS302DL_LOWPOWERMODE_ACTIVE: Active mode  
 282:Drivers/BSP/Components/lis302dl/lis302dl.c ****   * @retval None
 283:Drivers/BSP/Components/lis302dl/lis302dl.c ****   */
 284:Drivers/BSP/Components/lis302dl/lis302dl.c **** void LIS302DL_LowpowerCmd(uint8_t LowPowerMode)
 285:Drivers/BSP/Components/lis302dl/lis302dl.c **** {
 286:Drivers/BSP/Components/lis302dl/lis302dl.c ****   uint8_t tmpreg;
 287:Drivers/BSP/Components/lis302dl/lis302dl.c ****   
 288:Drivers/BSP/Components/lis302dl/lis302dl.c ****   /* Read CTRL_REG1 register */
 289:Drivers/BSP/Components/lis302dl/lis302dl.c ****   ACCELERO_IO_Read(&tmpreg, LIS302DL_CTRL_REG1_ADDR, 1);
 290:Drivers/BSP/Components/lis302dl/lis302dl.c ****   
 291:Drivers/BSP/Components/lis302dl/lis302dl.c ****   /* Set new low power mode configuration */
 292:Drivers/BSP/Components/lis302dl/lis302dl.c ****   tmpreg &= (uint8_t)~LIS302DL_LOWPOWERMODE_ACTIVE;
 293:Drivers/BSP/Components/lis302dl/lis302dl.c ****   tmpreg |= LowPowerMode;
 294:Drivers/BSP/Components/lis302dl/lis302dl.c ****   
 295:Drivers/BSP/Components/lis302dl/lis302dl.c ****   /* Write value to MEMS CTRL_REG1 register */
 296:Drivers/BSP/Components/lis302dl/lis302dl.c ****   ACCELERO_IO_Write(&tmpreg, LIS302DL_CTRL_REG1_ADDR, 1);
 297:Drivers/BSP/Components/lis302dl/lis302dl.c **** }
 298:Drivers/BSP/Components/lis302dl/lis302dl.c **** 
 299:Drivers/BSP/Components/lis302dl/lis302dl.c **** /**
 300:Drivers/BSP/Components/lis302dl/lis302dl.c ****   * @brief  Data Rate command 
 301:Drivers/BSP/Components/lis302dl/lis302dl.c ****   * @param  DataRateValue: Data rate value
 302:Drivers/BSP/Components/lis302dl/lis302dl.c ****   *   This parameter can be one of the following values:
 303:Drivers/BSP/Components/lis302dl/lis302dl.c ****   *     @arg LIS302DL_DATARATE_100: 100 Hz output data rate 
 304:Drivers/BSP/Components/lis302dl/lis302dl.c ****   *     @arg LIS302DL_DATARATE_400: 400 Hz output data rate    
 305:Drivers/BSP/Components/lis302dl/lis302dl.c ****   * @retval None
 306:Drivers/BSP/Components/lis302dl/lis302dl.c ****   */
 307:Drivers/BSP/Components/lis302dl/lis302dl.c **** void LIS302DL_DataRateCmd(uint8_t DataRateValue)
 308:Drivers/BSP/Components/lis302dl/lis302dl.c **** {
ARM GAS  /var/folders/lp/x54gwt890xv47sdkqj1k04q40000gn/T//ccSWsFYs.s 			page 11


 309:Drivers/BSP/Components/lis302dl/lis302dl.c ****   uint8_t tmpreg;
 310:Drivers/BSP/Components/lis302dl/lis302dl.c ****   
 311:Drivers/BSP/Components/lis302dl/lis302dl.c ****   /* Read CTRL_REG1 register */
 312:Drivers/BSP/Components/lis302dl/lis302dl.c ****   ACCELERO_IO_Read(&tmpreg, LIS302DL_CTRL_REG1_ADDR, 1);
 313:Drivers/BSP/Components/lis302dl/lis302dl.c ****   
 314:Drivers/BSP/Components/lis302dl/lis302dl.c ****   /* Set new Data rate configuration */
 315:Drivers/BSP/Components/lis302dl/lis302dl.c ****   tmpreg &= (uint8_t)~LIS302DL_DATARATE_400;
 316:Drivers/BSP/Components/lis302dl/lis302dl.c ****   tmpreg |= DataRateValue;
 317:Drivers/BSP/Components/lis302dl/lis302dl.c ****   
 318:Drivers/BSP/Components/lis302dl/lis302dl.c ****   /* Write value to MEMS CTRL_REG1 register */
 319:Drivers/BSP/Components/lis302dl/lis302dl.c ****   ACCELERO_IO_Write(&tmpreg, LIS302DL_CTRL_REG1_ADDR, 1);
 320:Drivers/BSP/Components/lis302dl/lis302dl.c **** }
 321:Drivers/BSP/Components/lis302dl/lis302dl.c **** 
 322:Drivers/BSP/Components/lis302dl/lis302dl.c **** /**
 323:Drivers/BSP/Components/lis302dl/lis302dl.c ****   * @brief  Change the Full Scale of LIS302DL
 324:Drivers/BSP/Components/lis302dl/lis302dl.c ****   * @param  FS_value: new full scale value. 
 325:Drivers/BSP/Components/lis302dl/lis302dl.c ****   *   This parameter can be one of the following values:
 326:Drivers/BSP/Components/lis302dl/lis302dl.c ****   *     @arg LIS302DL_FULLSCALE_2_3: +-2.3g
 327:Drivers/BSP/Components/lis302dl/lis302dl.c ****   *     @arg LIS302DL_FULLSCALE_9_2: +-9.2g   
 328:Drivers/BSP/Components/lis302dl/lis302dl.c ****   * @retval None
 329:Drivers/BSP/Components/lis302dl/lis302dl.c ****   */
 330:Drivers/BSP/Components/lis302dl/lis302dl.c **** void LIS302DL_FullScaleCmd(uint8_t FS_value)
 331:Drivers/BSP/Components/lis302dl/lis302dl.c **** {
 332:Drivers/BSP/Components/lis302dl/lis302dl.c ****   uint8_t tmpreg;
 333:Drivers/BSP/Components/lis302dl/lis302dl.c ****   
 334:Drivers/BSP/Components/lis302dl/lis302dl.c ****   /* Read CTRL_REG1 register */
 335:Drivers/BSP/Components/lis302dl/lis302dl.c ****   ACCELERO_IO_Read(&tmpreg, LIS302DL_CTRL_REG1_ADDR, 1);
 336:Drivers/BSP/Components/lis302dl/lis302dl.c ****   
 337:Drivers/BSP/Components/lis302dl/lis302dl.c ****   /* Set new full scale configuration */
 338:Drivers/BSP/Components/lis302dl/lis302dl.c ****   tmpreg &= (uint8_t)~LIS302DL_FULLSCALE_9_2;
 339:Drivers/BSP/Components/lis302dl/lis302dl.c ****   tmpreg |= FS_value;
 340:Drivers/BSP/Components/lis302dl/lis302dl.c ****   
 341:Drivers/BSP/Components/lis302dl/lis302dl.c ****   /* Write value to MEMS CTRL_REG1 register */
 342:Drivers/BSP/Components/lis302dl/lis302dl.c ****   ACCELERO_IO_Write(&tmpreg, LIS302DL_CTRL_REG1_ADDR, 1);
 343:Drivers/BSP/Components/lis302dl/lis302dl.c **** }
 344:Drivers/BSP/Components/lis302dl/lis302dl.c **** 
 345:Drivers/BSP/Components/lis302dl/lis302dl.c **** /**
 346:Drivers/BSP/Components/lis302dl/lis302dl.c ****   * @brief  Reboot memory content of LIS302DL.
 347:Drivers/BSP/Components/lis302dl/lis302dl.c ****   * @param  None
 348:Drivers/BSP/Components/lis302dl/lis302dl.c ****   * @retval None
 349:Drivers/BSP/Components/lis302dl/lis302dl.c ****   */
 350:Drivers/BSP/Components/lis302dl/lis302dl.c **** void LIS302DL_RebootCmd(void)
 351:Drivers/BSP/Components/lis302dl/lis302dl.c **** {
 253              		.loc 1 351 1 is_stmt 1 view -0
 254              		.cfi_startproc
 255              		@ args = 0, pretend = 0, frame = 8
 256              		@ frame_needed = 0, uses_anonymous_args = 0
 352:Drivers/BSP/Components/lis302dl/lis302dl.c ****   uint8_t tmpreg;
 257              		.loc 1 352 3 view .LVU50
 353:Drivers/BSP/Components/lis302dl/lis302dl.c ****   /* Read CTRL_REG2 register */
 354:Drivers/BSP/Components/lis302dl/lis302dl.c ****   ACCELERO_IO_Read(&tmpreg, LIS302DL_CTRL_REG2_ADDR, 1);
 258              		.loc 1 354 3 view .LVU51
 351:Drivers/BSP/Components/lis302dl/lis302dl.c ****   uint8_t tmpreg;
 259              		.loc 1 351 1 is_stmt 0 view .LVU52
 260 0000 00B5     		push	{lr}
 261              		.cfi_def_cfa_offset 4
 262              		.cfi_offset 14, -4
ARM GAS  /var/folders/lp/x54gwt890xv47sdkqj1k04q40000gn/T//ccSWsFYs.s 			page 12


 263 0002 83B0     		sub	sp, sp, #12
 264              		.cfi_def_cfa_offset 16
 265              		.loc 1 354 3 view .LVU53
 266 0004 0DF10700 		add	r0, sp, #7
 267 0008 0122     		movs	r2, #1
 268 000a 2121     		movs	r1, #33
 269 000c FFF7FEFF 		bl	ACCELERO_IO_Read
 270              	.LVL12:
 355:Drivers/BSP/Components/lis302dl/lis302dl.c ****   
 356:Drivers/BSP/Components/lis302dl/lis302dl.c ****   /* Enable or Disable the reboot memory */
 357:Drivers/BSP/Components/lis302dl/lis302dl.c ****   tmpreg |= LIS302DL_BOOT_REBOOTMEMORY;
 271              		.loc 1 357 3 is_stmt 1 view .LVU54
 272              		.loc 1 357 10 is_stmt 0 view .LVU55
 273 0010 9DF80730 		ldrb	r3, [sp, #7]	@ zero_extendqisi2
 358:Drivers/BSP/Components/lis302dl/lis302dl.c ****   
 359:Drivers/BSP/Components/lis302dl/lis302dl.c ****   /* Write value to MEMS CTRL_REG2 register */
 360:Drivers/BSP/Components/lis302dl/lis302dl.c ****   ACCELERO_IO_Write(&tmpreg, LIS302DL_CTRL_REG2_ADDR, 1);
 274              		.loc 1 360 3 view .LVU56
 275 0014 0122     		movs	r2, #1
 357:Drivers/BSP/Components/lis302dl/lis302dl.c ****   
 276              		.loc 1 357 10 view .LVU57
 277 0016 43F04003 		orr	r3, r3, #64
 278              		.loc 1 360 3 view .LVU58
 279 001a 2121     		movs	r1, #33
 280 001c 0DF10700 		add	r0, sp, #7
 357:Drivers/BSP/Components/lis302dl/lis302dl.c ****   
 281              		.loc 1 357 10 view .LVU59
 282 0020 8DF80730 		strb	r3, [sp, #7]
 283              		.loc 1 360 3 is_stmt 1 view .LVU60
 284 0024 FFF7FEFF 		bl	ACCELERO_IO_Write
 285              	.LVL13:
 361:Drivers/BSP/Components/lis302dl/lis302dl.c **** }
 286              		.loc 1 361 1 is_stmt 0 view .LVU61
 287 0028 03B0     		add	sp, sp, #12
 288              		.cfi_def_cfa_offset 4
 289              		@ sp needed
 290 002a 5DF804FB 		ldr	pc, [sp], #4
 291              		.cfi_endproc
 292              	.LFE10:
 294 002e 00BF     		.section	.text.LIS302DL_ReadACC,"ax",%progbits
 295              		.align	1
 296              		.p2align 2,,3
 297              		.global	LIS302DL_ReadACC
 298              		.syntax unified
 299              		.thumb
 300              		.thumb_func
 302              	LIS302DL_ReadACC:
 303              	.LVL14:
 304              	.LFB11:
 362:Drivers/BSP/Components/lis302dl/lis302dl.c **** 
 363:Drivers/BSP/Components/lis302dl/lis302dl.c **** /**
 364:Drivers/BSP/Components/lis302dl/lis302dl.c ****   * @brief  Read LIS302DL output register, and calculate the acceleration 
 365:Drivers/BSP/Components/lis302dl/lis302dl.c ****   *         ACC[mg]=SENSITIVITY* (out_h*256+out_l)/16 (12 bit rappresentation)
 366:Drivers/BSP/Components/lis302dl/lis302dl.c ****   * @param  pfData: Data out pointer
 367:Drivers/BSP/Components/lis302dl/lis302dl.c ****   * @retval None
 368:Drivers/BSP/Components/lis302dl/lis302dl.c ****   */
 369:Drivers/BSP/Components/lis302dl/lis302dl.c **** void LIS302DL_ReadACC(int16_t *pData)
ARM GAS  /var/folders/lp/x54gwt890xv47sdkqj1k04q40000gn/T//ccSWsFYs.s 			page 13


 370:Drivers/BSP/Components/lis302dl/lis302dl.c **** {
 305              		.loc 1 370 1 is_stmt 1 view -0
 306              		.cfi_startproc
 307              		@ args = 0, pretend = 0, frame = 16
 308              		@ frame_needed = 0, uses_anonymous_args = 0
 371:Drivers/BSP/Components/lis302dl/lis302dl.c ****   int8_t buffer[6];
 309              		.loc 1 371 3 view .LVU63
 372:Drivers/BSP/Components/lis302dl/lis302dl.c ****   int16_t pnRawData[3];
 310              		.loc 1 372 3 view .LVU64
 373:Drivers/BSP/Components/lis302dl/lis302dl.c ****   uint8_t sensitivity = LIS302DL_SENSITIVITY_2_3G;
 311              		.loc 1 373 3 view .LVU65
 374:Drivers/BSP/Components/lis302dl/lis302dl.c ****   uint8_t crtl, i = 0x00;
 312              		.loc 1 374 3 view .LVU66
 375:Drivers/BSP/Components/lis302dl/lis302dl.c ****   
 376:Drivers/BSP/Components/lis302dl/lis302dl.c ****   ACCELERO_IO_Read(&crtl, LIS302DL_CTRL_REG1_ADDR, 1);
 313              		.loc 1 376 3 view .LVU67
 370:Drivers/BSP/Components/lis302dl/lis302dl.c ****   int8_t buffer[6];
 314              		.loc 1 370 1 is_stmt 0 view .LVU68
 315 0000 10B5     		push	{r4, lr}
 316              		.cfi_def_cfa_offset 8
 317              		.cfi_offset 4, -8
 318              		.cfi_offset 14, -4
 319 0002 84B0     		sub	sp, sp, #16
 320              		.cfi_def_cfa_offset 24
 370:Drivers/BSP/Components/lis302dl/lis302dl.c ****   int8_t buffer[6];
 321              		.loc 1 370 1 view .LVU69
 322 0004 0446     		mov	r4, r0
 323              		.loc 1 376 3 view .LVU70
 324 0006 0122     		movs	r2, #1
 325 0008 0DF10700 		add	r0, sp, #7
 326              	.LVL15:
 327              		.loc 1 376 3 view .LVU71
 328 000c 2021     		movs	r1, #32
 329 000e FFF7FEFF 		bl	ACCELERO_IO_Read
 330              	.LVL16:
 377:Drivers/BSP/Components/lis302dl/lis302dl.c ****   ACCELERO_IO_Read((uint8_t*)buffer, LIS302DL_OUT_X_ADDR, 6);
 331              		.loc 1 377 3 is_stmt 1 view .LVU72
 332 0012 02A8     		add	r0, sp, #8
 333 0014 0622     		movs	r2, #6
 334 0016 2921     		movs	r1, #41
 335 0018 FFF7FEFF 		bl	ACCELERO_IO_Read
 336              	.LVL17:
 378:Drivers/BSP/Components/lis302dl/lis302dl.c ****   
 379:Drivers/BSP/Components/lis302dl/lis302dl.c ****   for(i=0; i<3; i++)
 337              		.loc 1 379 3 view .LVU73
 338              		.loc 1 379 13 discriminator 1 view .LVU74
 380:Drivers/BSP/Components/lis302dl/lis302dl.c ****   {
 381:Drivers/BSP/Components/lis302dl/lis302dl.c ****     pnRawData[i] = buffer[2*i];
 339              		.loc 1 381 5 view .LVU75
 382:Drivers/BSP/Components/lis302dl/lis302dl.c ****   }
 383:Drivers/BSP/Components/lis302dl/lis302dl.c ****   
 384:Drivers/BSP/Components/lis302dl/lis302dl.c ****   switch(crtl & LIS302DL_FULLSCALE_9_2) 
 340              		.loc 1 384 3 is_stmt 0 view .LVU76
 341 001c 9DF80700 		ldrb	r0, [sp, #7]	@ zero_extendqisi2
 381:Drivers/BSP/Components/lis302dl/lis302dl.c ****   }
 342              		.loc 1 381 26 view .LVU77
 343 0020 9DF90810 		ldrsb	r1, [sp, #8]
ARM GAS  /var/folders/lp/x54gwt890xv47sdkqj1k04q40000gn/T//ccSWsFYs.s 			page 14


 379:Drivers/BSP/Components/lis302dl/lis302dl.c ****   {
 344              		.loc 1 379 18 is_stmt 1 discriminator 3 view .LVU78
 345              	.LVL18:
 379:Drivers/BSP/Components/lis302dl/lis302dl.c ****   {
 346              		.loc 1 379 13 discriminator 1 view .LVU79
 381:Drivers/BSP/Components/lis302dl/lis302dl.c ****   }
 347              		.loc 1 381 5 view .LVU80
 381:Drivers/BSP/Components/lis302dl/lis302dl.c ****   }
 348              		.loc 1 381 26 is_stmt 0 view .LVU81
 349 0024 9DF90A20 		ldrsb	r2, [sp, #10]
 379:Drivers/BSP/Components/lis302dl/lis302dl.c ****   {
 350              		.loc 1 379 18 is_stmt 1 discriminator 3 view .LVU82
 351              	.LVL19:
 379:Drivers/BSP/Components/lis302dl/lis302dl.c ****   {
 352              		.loc 1 379 13 discriminator 1 view .LVU83
 381:Drivers/BSP/Components/lis302dl/lis302dl.c ****   }
 353              		.loc 1 381 5 view .LVU84
 381:Drivers/BSP/Components/lis302dl/lis302dl.c ****   }
 354              		.loc 1 381 26 is_stmt 0 view .LVU85
 355 0028 9DF90C30 		ldrsb	r3, [sp, #12]
 379:Drivers/BSP/Components/lis302dl/lis302dl.c ****   {
 356              		.loc 1 379 18 is_stmt 1 discriminator 3 view .LVU86
 357              	.LVL20:
 379:Drivers/BSP/Components/lis302dl/lis302dl.c ****   {
 358              		.loc 1 379 13 discriminator 1 view .LVU87
 359              		.loc 1 384 3 view .LVU88
 360 002c 10F0200F 		tst	r0, #32
 361 0030 14BF     		ite	ne
 362 0032 4820     		movne	r0, #72
 363 0034 1220     		moveq	r0, #18
 364              	.LVL21:
 385:Drivers/BSP/Components/lis302dl/lis302dl.c ****   {
 386:Drivers/BSP/Components/lis302dl/lis302dl.c ****     /* FS bit = 0 ==> Sensitivity typical value = 18milligals/digit*/ 
 387:Drivers/BSP/Components/lis302dl/lis302dl.c ****   case LIS302DL_FULLSCALE_2_3:
 388:Drivers/BSP/Components/lis302dl/lis302dl.c ****     sensitivity = LIS302DL_SENSITIVITY_2_3G;
 389:Drivers/BSP/Components/lis302dl/lis302dl.c ****     break;
 390:Drivers/BSP/Components/lis302dl/lis302dl.c ****     
 391:Drivers/BSP/Components/lis302dl/lis302dl.c ****     /* FS bit = 1 ==> Sensitivity typical value = 72milligals/digit*/ 
 392:Drivers/BSP/Components/lis302dl/lis302dl.c ****   case LIS302DL_FULLSCALE_9_2:
 393:Drivers/BSP/Components/lis302dl/lis302dl.c ****     sensitivity = LIS302DL_SENSITIVITY_9_2G;
 394:Drivers/BSP/Components/lis302dl/lis302dl.c ****     break;
 395:Drivers/BSP/Components/lis302dl/lis302dl.c ****     
 396:Drivers/BSP/Components/lis302dl/lis302dl.c ****   default:
 397:Drivers/BSP/Components/lis302dl/lis302dl.c ****     break;
 398:Drivers/BSP/Components/lis302dl/lis302dl.c ****   }
 399:Drivers/BSP/Components/lis302dl/lis302dl.c ****   
 400:Drivers/BSP/Components/lis302dl/lis302dl.c ****   /* Obtain the mg value for the three axis */
 401:Drivers/BSP/Components/lis302dl/lis302dl.c ****   for(i=0; i<3; i++)
 365              		.loc 1 401 3 view .LVU89
 366              		.loc 1 401 13 discriminator 1 view .LVU90
 402:Drivers/BSP/Components/lis302dl/lis302dl.c ****   {
 403:Drivers/BSP/Components/lis302dl/lis302dl.c ****     pData[i]=(pnRawData[i] * sensitivity);
 367              		.loc 1 403 5 view .LVU91
 368              		.loc 1 403 13 is_stmt 0 view .LVU92
 369 0036 11FB00F1 		smulbb	r1, r1, r0
 370 003a 12FB00F2 		smulbb	r2, r2, r0
 371 003e 13FB00F3 		smulbb	r3, r3, r0
ARM GAS  /var/folders/lp/x54gwt890xv47sdkqj1k04q40000gn/T//ccSWsFYs.s 			page 15


 372 0042 2180     		strh	r1, [r4]	@ movhi
 401:Drivers/BSP/Components/lis302dl/lis302dl.c ****   {
 373              		.loc 1 401 18 is_stmt 1 discriminator 3 view .LVU93
 374              	.LVL22:
 401:Drivers/BSP/Components/lis302dl/lis302dl.c ****   {
 375              		.loc 1 401 13 discriminator 1 view .LVU94
 376              		.loc 1 403 5 view .LVU95
 377              		.loc 1 403 13 is_stmt 0 view .LVU96
 378 0044 6280     		strh	r2, [r4, #2]	@ movhi
 401:Drivers/BSP/Components/lis302dl/lis302dl.c ****   {
 379              		.loc 1 401 18 is_stmt 1 discriminator 3 view .LVU97
 380              	.LVL23:
 401:Drivers/BSP/Components/lis302dl/lis302dl.c ****   {
 381              		.loc 1 401 13 discriminator 1 view .LVU98
 382              		.loc 1 403 5 view .LVU99
 383              		.loc 1 403 13 is_stmt 0 view .LVU100
 384 0046 A380     		strh	r3, [r4, #4]	@ movhi
 401:Drivers/BSP/Components/lis302dl/lis302dl.c ****   {
 385              		.loc 1 401 18 is_stmt 1 discriminator 3 view .LVU101
 386              	.LVL24:
 401:Drivers/BSP/Components/lis302dl/lis302dl.c ****   {
 387              		.loc 1 401 13 discriminator 1 view .LVU102
 404:Drivers/BSP/Components/lis302dl/lis302dl.c ****   }
 405:Drivers/BSP/Components/lis302dl/lis302dl.c **** }
 388              		.loc 1 405 1 is_stmt 0 view .LVU103
 389 0048 04B0     		add	sp, sp, #16
 390              		.cfi_def_cfa_offset 8
 391              		@ sp needed
 392 004a 10BD     		pop	{r4, pc}
 393              		.loc 1 405 1 view .LVU104
 394              		.cfi_endproc
 395              	.LFE11:
 397              		.section	.text.LIS302DL_Click_IntConfig,"ax",%progbits
 398              		.align	1
 399              		.p2align 2,,3
 400              		.global	LIS302DL_Click_IntConfig
 401              		.syntax unified
 402              		.thumb
 403              		.thumb_func
 405              	LIS302DL_Click_IntConfig:
 406              	.LFB5:
 216:Drivers/BSP/Components/lis302dl/lis302dl.c ****   uint8_t ctrl = 0x00;
 407              		.loc 1 216 1 is_stmt 1 view -0
 408              		.cfi_startproc
 409              		@ args = 0, pretend = 0, frame = 8
 410              		@ frame_needed = 0, uses_anonymous_args = 0
 217:Drivers/BSP/Components/lis302dl/lis302dl.c ****   LIS302DL_InterruptConfigTypeDef   LIS302DL_InterruptStruct;
 411              		.loc 1 217 3 view .LVU106
 216:Drivers/BSP/Components/lis302dl/lis302dl.c ****   uint8_t ctrl = 0x00;
 412              		.loc 1 216 1 is_stmt 0 view .LVU107
 413 0000 30B5     		push	{r4, r5, lr}
 414              		.cfi_def_cfa_offset 12
 415              		.cfi_offset 4, -12
 416              		.cfi_offset 5, -8
 417              		.cfi_offset 14, -4
 418 0002 83B0     		sub	sp, sp, #12
 419              		.cfi_def_cfa_offset 24
ARM GAS  /var/folders/lp/x54gwt890xv47sdkqj1k04q40000gn/T//ccSWsFYs.s 			page 16


 217:Drivers/BSP/Components/lis302dl/lis302dl.c ****   LIS302DL_InterruptConfigTypeDef   LIS302DL_InterruptStruct;
 420              		.loc 1 217 11 view .LVU108
 421 0004 0024     		movs	r4, #0
 422 0006 8DF80640 		strb	r4, [sp, #6]
 218:Drivers/BSP/Components/lis302dl/lis302dl.c ****   
 423              		.loc 1 218 3 is_stmt 1 view .LVU109
 220:Drivers/BSP/Components/lis302dl/lis302dl.c ****   
 424              		.loc 1 220 3 view .LVU110
 425 000a FFF7FEFF 		bl	ACCELERO_IO_ITConfig
 426              	.LVL25:
 223:Drivers/BSP/Components/lis302dl/lis302dl.c ****   LIS302DL_InterruptStruct.SingleClick_Axes = LIS302DL_CLICKINTERRUPT_Z_ENABLE;
 427              		.loc 1 223 3 view .LVU111
 224:Drivers/BSP/Components/lis302dl/lis302dl.c ****   LIS302DL_InterruptStruct.DoubleClick_Axes = LIS302DL_DOUBLECLICKINTERRUPT_Z_ENABLE;
 428              		.loc 1 224 3 view .LVU112
 225:Drivers/BSP/Components/lis302dl/lis302dl.c ****   LIS302DL_InterruptConfig(&LIS302DL_InterruptStruct);
 429              		.loc 1 225 3 view .LVU113
 226:Drivers/BSP/Components/lis302dl/lis302dl.c ****   
 430              		.loc 1 226 3 view .LVU114
 431              	.LBB4:
 432              	.LBI4:
 194:Drivers/BSP/Components/lis302dl/lis302dl.c **** {
 433              		.loc 1 194 6 view .LVU115
 434              	.LBB5:
 196:Drivers/BSP/Components/lis302dl/lis302dl.c ****   
 435              		.loc 1 196 3 view .LVU116
 199:Drivers/BSP/Components/lis302dl/lis302dl.c ****   
 436              		.loc 1 199 3 is_stmt 0 view .LVU117
 437 000e 0DF10700 		add	r0, sp, #7
 438 0012 0122     		movs	r2, #1
 439 0014 3821     		movs	r1, #56
 196:Drivers/BSP/Components/lis302dl/lis302dl.c ****   
 440              		.loc 1 196 11 view .LVU118
 441 0016 8DF80740 		strb	r4, [sp, #7]
 199:Drivers/BSP/Components/lis302dl/lis302dl.c ****   
 442              		.loc 1 199 3 is_stmt 1 view .LVU119
 443 001a FFF7FEFF 		bl	ACCELERO_IO_Read
 444              	.LVL26:
 202:Drivers/BSP/Components/lis302dl/lis302dl.c ****                    LIS302DL_IntConfigStruct->SingleClick_Axes | \
 445              		.loc 1 202 3 view .LVU120
 202:Drivers/BSP/Components/lis302dl/lis302dl.c ****                    LIS302DL_IntConfigStruct->SingleClick_Axes | \
 446              		.loc 1 202 8 is_stmt 0 view .LVU121
 447 001e 7023     		movs	r3, #112
 207:Drivers/BSP/Components/lis302dl/lis302dl.c **** }
 448              		.loc 1 207 3 view .LVU122
 449 0020 0DF10700 		add	r0, sp, #7
 450 0024 0122     		movs	r2, #1
 451 0026 3821     		movs	r1, #56
 202:Drivers/BSP/Components/lis302dl/lis302dl.c ****                    LIS302DL_IntConfigStruct->SingleClick_Axes | \
 452              		.loc 1 202 8 view .LVU123
 453 0028 8DF80730 		strb	r3, [sp, #7]
 207:Drivers/BSP/Components/lis302dl/lis302dl.c **** }
 454              		.loc 1 207 3 is_stmt 1 view .LVU124
 455              	.LBE5:
 456              	.LBE4:
 230:Drivers/BSP/Components/lis302dl/lis302dl.c ****   ACCELERO_IO_Write(&ctrl, LIS302DL_CTRL_REG3_ADDR, 1);
 457              		.loc 1 230 8 is_stmt 0 view .LVU125
 458 002c 3F25     		movs	r5, #63
ARM GAS  /var/folders/lp/x54gwt890xv47sdkqj1k04q40000gn/T//ccSWsFYs.s 			page 17


 459              	.LBB7:
 460              	.LBB6:
 207:Drivers/BSP/Components/lis302dl/lis302dl.c **** }
 461              		.loc 1 207 3 view .LVU126
 462 002e FFF7FEFF 		bl	ACCELERO_IO_Write
 463              	.LVL27:
 207:Drivers/BSP/Components/lis302dl/lis302dl.c **** }
 464              		.loc 1 207 3 view .LVU127
 465              	.LBE6:
 466              	.LBE7:
 230:Drivers/BSP/Components/lis302dl/lis302dl.c ****   ACCELERO_IO_Write(&ctrl, LIS302DL_CTRL_REG3_ADDR, 1);
 467              		.loc 1 230 3 is_stmt 1 view .LVU128
 231:Drivers/BSP/Components/lis302dl/lis302dl.c ****   
 468              		.loc 1 231 3 is_stmt 0 view .LVU129
 469 0032 0DF10600 		add	r0, sp, #6
 470 0036 0122     		movs	r2, #1
 471 0038 2221     		movs	r1, #34
 230:Drivers/BSP/Components/lis302dl/lis302dl.c ****   ACCELERO_IO_Write(&ctrl, LIS302DL_CTRL_REG3_ADDR, 1);
 472              		.loc 1 230 8 view .LVU130
 473 003a 8DF80650 		strb	r5, [sp, #6]
 231:Drivers/BSP/Components/lis302dl/lis302dl.c ****   
 474              		.loc 1 231 3 is_stmt 1 view .LVU131
 475 003e FFF7FEFF 		bl	ACCELERO_IO_Write
 476              	.LVL28:
 234:Drivers/BSP/Components/lis302dl/lis302dl.c ****   ACCELERO_IO_Write(&ctrl, LIS302DL_CLICK_CFG_REG_ADDR, 1);
 477              		.loc 1 234 3 view .LVU132
 234:Drivers/BSP/Components/lis302dl/lis302dl.c ****   ACCELERO_IO_Write(&ctrl, LIS302DL_CLICK_CFG_REG_ADDR, 1);
 478              		.loc 1 234 8 is_stmt 0 view .LVU133
 479 0042 5023     		movs	r3, #80
 235:Drivers/BSP/Components/lis302dl/lis302dl.c ****   
 480              		.loc 1 235 3 view .LVU134
 481 0044 0DF10600 		add	r0, sp, #6
 482 0048 0122     		movs	r2, #1
 483 004a 3821     		movs	r1, #56
 234:Drivers/BSP/Components/lis302dl/lis302dl.c ****   ACCELERO_IO_Write(&ctrl, LIS302DL_CLICK_CFG_REG_ADDR, 1);
 484              		.loc 1 234 8 view .LVU135
 485 004c 8DF80630 		strb	r3, [sp, #6]
 235:Drivers/BSP/Components/lis302dl/lis302dl.c ****   
 486              		.loc 1 235 3 is_stmt 1 view .LVU136
 487 0050 FFF7FEFF 		bl	ACCELERO_IO_Write
 488              	.LVL29:
 238:Drivers/BSP/Components/lis302dl/lis302dl.c ****   ACCELERO_IO_Write(&ctrl, LIS302DL_CLICK_THSY_X_REG_ADDR, 1);
 489              		.loc 1 238 3 view .LVU137
 238:Drivers/BSP/Components/lis302dl/lis302dl.c ****   ACCELERO_IO_Write(&ctrl, LIS302DL_CLICK_THSY_X_REG_ADDR, 1);
 490              		.loc 1 238 8 is_stmt 0 view .LVU138
 491 0054 AA23     		movs	r3, #170
 239:Drivers/BSP/Components/lis302dl/lis302dl.c ****   
 492              		.loc 1 239 3 view .LVU139
 493 0056 0DF10600 		add	r0, sp, #6
 494 005a 0122     		movs	r2, #1
 495 005c 3B21     		movs	r1, #59
 238:Drivers/BSP/Components/lis302dl/lis302dl.c ****   ACCELERO_IO_Write(&ctrl, LIS302DL_CLICK_THSY_X_REG_ADDR, 1);
 496              		.loc 1 238 8 view .LVU140
 497 005e 8DF80630 		strb	r3, [sp, #6]
 239:Drivers/BSP/Components/lis302dl/lis302dl.c ****   
 498              		.loc 1 239 3 is_stmt 1 view .LVU141
 499 0062 FFF7FEFF 		bl	ACCELERO_IO_Write
ARM GAS  /var/folders/lp/x54gwt890xv47sdkqj1k04q40000gn/T//ccSWsFYs.s 			page 18


 500              	.LVL30:
 242:Drivers/BSP/Components/lis302dl/lis302dl.c ****   ACCELERO_IO_Write(&ctrl, LIS302DL_CLICK_THSZ_REG_ADDR, 1);
 501              		.loc 1 242 3 view .LVU142
 242:Drivers/BSP/Components/lis302dl/lis302dl.c ****   ACCELERO_IO_Write(&ctrl, LIS302DL_CLICK_THSZ_REG_ADDR, 1);
 502              		.loc 1 242 8 is_stmt 0 view .LVU143
 503 0066 0A23     		movs	r3, #10
 243:Drivers/BSP/Components/lis302dl/lis302dl.c ****   
 504              		.loc 1 243 3 view .LVU144
 505 0068 0DF10600 		add	r0, sp, #6
 506 006c 0122     		movs	r2, #1
 507 006e 3C21     		movs	r1, #60
 242:Drivers/BSP/Components/lis302dl/lis302dl.c ****   ACCELERO_IO_Write(&ctrl, LIS302DL_CLICK_THSZ_REG_ADDR, 1);
 508              		.loc 1 242 8 view .LVU145
 509 0070 8DF80630 		strb	r3, [sp, #6]
 243:Drivers/BSP/Components/lis302dl/lis302dl.c ****   
 510              		.loc 1 243 3 is_stmt 1 view .LVU146
 511 0074 FFF7FEFF 		bl	ACCELERO_IO_Write
 512              	.LVL31:
 246:Drivers/BSP/Components/lis302dl/lis302dl.c ****   ACCELERO_IO_Write(&ctrl, LIS302DL_FF_WU_CFG1_REG_ADDR, 1);
 513              		.loc 1 246 3 view .LVU147
 246:Drivers/BSP/Components/lis302dl/lis302dl.c ****   ACCELERO_IO_Write(&ctrl, LIS302DL_FF_WU_CFG1_REG_ADDR, 1);
 514              		.loc 1 246 8 is_stmt 0 view .LVU148
 515 0078 4C23     		movs	r3, #76
 247:Drivers/BSP/Components/lis302dl/lis302dl.c ****   
 516              		.loc 1 247 3 view .LVU149
 517 007a 0DF10600 		add	r0, sp, #6
 518 007e 0122     		movs	r2, #1
 519 0080 3021     		movs	r1, #48
 246:Drivers/BSP/Components/lis302dl/lis302dl.c ****   ACCELERO_IO_Write(&ctrl, LIS302DL_FF_WU_CFG1_REG_ADDR, 1);
 520              		.loc 1 246 8 view .LVU150
 521 0082 8DF80630 		strb	r3, [sp, #6]
 247:Drivers/BSP/Components/lis302dl/lis302dl.c ****   
 522              		.loc 1 247 3 is_stmt 1 view .LVU151
 523 0086 FFF7FEFF 		bl	ACCELERO_IO_Write
 524              	.LVL32:
 250:Drivers/BSP/Components/lis302dl/lis302dl.c ****   ACCELERO_IO_Write(&ctrl, LIS302DL_CLICK_TIMELIMIT_REG_ADDR, 1);
 525              		.loc 1 250 3 view .LVU152
 250:Drivers/BSP/Components/lis302dl/lis302dl.c ****   ACCELERO_IO_Write(&ctrl, LIS302DL_CLICK_TIMELIMIT_REG_ADDR, 1);
 526              		.loc 1 250 8 is_stmt 0 view .LVU153
 527 008a 0323     		movs	r3, #3
 251:Drivers/BSP/Components/lis302dl/lis302dl.c ****   
 528              		.loc 1 251 3 view .LVU154
 529 008c 0DF10600 		add	r0, sp, #6
 530 0090 0122     		movs	r2, #1
 531 0092 3D21     		movs	r1, #61
 250:Drivers/BSP/Components/lis302dl/lis302dl.c ****   ACCELERO_IO_Write(&ctrl, LIS302DL_CLICK_TIMELIMIT_REG_ADDR, 1);
 532              		.loc 1 250 8 view .LVU155
 533 0094 8DF80630 		strb	r3, [sp, #6]
 251:Drivers/BSP/Components/lis302dl/lis302dl.c ****   
 534              		.loc 1 251 3 is_stmt 1 view .LVU156
 254:Drivers/BSP/Components/lis302dl/lis302dl.c ****   ACCELERO_IO_Write(&ctrl, LIS302DL_CLICK_LATENCY_REG_ADDR, 1);
 535              		.loc 1 254 8 is_stmt 0 view .LVU157
 536 0098 7F24     		movs	r4, #127
 251:Drivers/BSP/Components/lis302dl/lis302dl.c ****   
 537              		.loc 1 251 3 view .LVU158
 538 009a FFF7FEFF 		bl	ACCELERO_IO_Write
 539              	.LVL33:
ARM GAS  /var/folders/lp/x54gwt890xv47sdkqj1k04q40000gn/T//ccSWsFYs.s 			page 19


 254:Drivers/BSP/Components/lis302dl/lis302dl.c ****   ACCELERO_IO_Write(&ctrl, LIS302DL_CLICK_LATENCY_REG_ADDR, 1);
 540              		.loc 1 254 3 is_stmt 1 view .LVU159
 255:Drivers/BSP/Components/lis302dl/lis302dl.c ****   
 541              		.loc 1 255 3 is_stmt 0 view .LVU160
 542 009e 0DF10600 		add	r0, sp, #6
 543 00a2 0122     		movs	r2, #1
 544 00a4 3E21     		movs	r1, #62
 254:Drivers/BSP/Components/lis302dl/lis302dl.c ****   ACCELERO_IO_Write(&ctrl, LIS302DL_CLICK_LATENCY_REG_ADDR, 1);
 545              		.loc 1 254 8 view .LVU161
 546 00a6 8DF80640 		strb	r4, [sp, #6]
 255:Drivers/BSP/Components/lis302dl/lis302dl.c ****   
 547              		.loc 1 255 3 is_stmt 1 view .LVU162
 548 00aa FFF7FEFF 		bl	ACCELERO_IO_Write
 549              	.LVL34:
 258:Drivers/BSP/Components/lis302dl/lis302dl.c ****   ACCELERO_IO_Write(&ctrl, LIS302DL_CLICK_WINDOW_REG_ADDR, 1);
 550              		.loc 1 258 3 view .LVU163
 259:Drivers/BSP/Components/lis302dl/lis302dl.c **** }
 551              		.loc 1 259 3 is_stmt 0 view .LVU164
 552 00ae 0122     		movs	r2, #1
 553 00b0 2946     		mov	r1, r5
 554 00b2 0DF10600 		add	r0, sp, #6
 258:Drivers/BSP/Components/lis302dl/lis302dl.c ****   ACCELERO_IO_Write(&ctrl, LIS302DL_CLICK_WINDOW_REG_ADDR, 1);
 555              		.loc 1 258 8 view .LVU165
 556 00b6 8DF80640 		strb	r4, [sp, #6]
 259:Drivers/BSP/Components/lis302dl/lis302dl.c **** }
 557              		.loc 1 259 3 is_stmt 1 view .LVU166
 558 00ba FFF7FEFF 		bl	ACCELERO_IO_Write
 559              	.LVL35:
 260:Drivers/BSP/Components/lis302dl/lis302dl.c **** 
 560              		.loc 1 260 1 is_stmt 0 view .LVU167
 561 00be 03B0     		add	sp, sp, #12
 562              		.cfi_def_cfa_offset 12
 563              		@ sp needed
 564 00c0 30BD     		pop	{r4, r5, pc}
 565              		.cfi_endproc
 566              	.LFE5:
 568 00c2 00BF     		.section	.text.LIS302DL_InterruptConfig,"ax",%progbits
 569              		.align	1
 570              		.p2align 2,,3
 571              		.global	LIS302DL_InterruptConfig
 572              		.syntax unified
 573              		.thumb
 574              		.thumb_func
 576              	LIS302DL_InterruptConfig:
 577              	.LVL36:
 578              	.LFB4:
 195:Drivers/BSP/Components/lis302dl/lis302dl.c ****   uint8_t ctrl = 0x00;
 579              		.loc 1 195 1 is_stmt 1 view -0
 580              		.cfi_startproc
 581              		@ args = 0, pretend = 0, frame = 8
 582              		@ frame_needed = 0, uses_anonymous_args = 0
 196:Drivers/BSP/Components/lis302dl/lis302dl.c ****   
 583              		.loc 1 196 3 view .LVU169
 195:Drivers/BSP/Components/lis302dl/lis302dl.c ****   uint8_t ctrl = 0x00;
 584              		.loc 1 195 1 is_stmt 0 view .LVU170
 585 0000 10B5     		push	{r4, lr}
 586              		.cfi_def_cfa_offset 8
ARM GAS  /var/folders/lp/x54gwt890xv47sdkqj1k04q40000gn/T//ccSWsFYs.s 			page 20


 587              		.cfi_offset 4, -8
 588              		.cfi_offset 14, -4
 589 0002 0446     		mov	r4, r0
 590 0004 82B0     		sub	sp, sp, #8
 591              		.cfi_def_cfa_offset 16
 196:Drivers/BSP/Components/lis302dl/lis302dl.c ****   
 592              		.loc 1 196 11 view .LVU171
 593 0006 0023     		movs	r3, #0
 199:Drivers/BSP/Components/lis302dl/lis302dl.c ****   
 594              		.loc 1 199 3 view .LVU172
 595 0008 0DF10700 		add	r0, sp, #7
 596              	.LVL37:
 199:Drivers/BSP/Components/lis302dl/lis302dl.c ****   
 597              		.loc 1 199 3 view .LVU173
 598 000c 0122     		movs	r2, #1
 599 000e 3821     		movs	r1, #56
 196:Drivers/BSP/Components/lis302dl/lis302dl.c ****   
 600              		.loc 1 196 11 view .LVU174
 601 0010 8DF80730 		strb	r3, [sp, #7]
 199:Drivers/BSP/Components/lis302dl/lis302dl.c ****   
 602              		.loc 1 199 3 is_stmt 1 view .LVU175
 603 0014 FFF7FEFF 		bl	ACCELERO_IO_Read
 604              	.LVL38:
 202:Drivers/BSP/Components/lis302dl/lis302dl.c ****                    LIS302DL_IntConfigStruct->SingleClick_Axes | \
 605              		.loc 1 202 3 view .LVU176
 202:Drivers/BSP/Components/lis302dl/lis302dl.c ****                    LIS302DL_IntConfigStruct->SingleClick_Axes | \
 606              		.loc 1 202 10 is_stmt 0 view .LVU177
 607 0018 94F801C0 		ldrb	ip, [r4, #1]	@ zero_extendqisi2
 608 001c 2378     		ldrb	r3, [r4]	@ zero_extendqisi2
 609 001e A478     		ldrb	r4, [r4, #2]	@ zero_extendqisi2
 610              	.LVL39:
 202:Drivers/BSP/Components/lis302dl/lis302dl.c ****                    LIS302DL_IntConfigStruct->SingleClick_Axes | \
 611              		.loc 1 202 10 view .LVU178
 612 0020 43EA0C03 		orr	r3, r3, ip
 613 0024 2343     		orrs	r3, r3, r4
 207:Drivers/BSP/Components/lis302dl/lis302dl.c **** }
 614              		.loc 1 207 3 view .LVU179
 615 0026 0122     		movs	r2, #1
 616 0028 3821     		movs	r1, #56
 617 002a 0DF10700 		add	r0, sp, #7
 202:Drivers/BSP/Components/lis302dl/lis302dl.c ****                    LIS302DL_IntConfigStruct->SingleClick_Axes | \
 618              		.loc 1 202 8 view .LVU180
 619 002e 8DF80730 		strb	r3, [sp, #7]
 207:Drivers/BSP/Components/lis302dl/lis302dl.c **** }
 620              		.loc 1 207 3 is_stmt 1 view .LVU181
 621 0032 FFF7FEFF 		bl	ACCELERO_IO_Write
 622              	.LVL40:
 208:Drivers/BSP/Components/lis302dl/lis302dl.c **** 
 623              		.loc 1 208 1 is_stmt 0 view .LVU182
 624 0036 02B0     		add	sp, sp, #8
 625              		.cfi_def_cfa_offset 8
 626              		@ sp needed
 627 0038 10BD     		pop	{r4, pc}
 628              		.cfi_endproc
 629              	.LFE4:
 631 003a 00BF     		.section	.text.LIS302DL_LowpowerCmd,"ax",%progbits
 632              		.align	1
ARM GAS  /var/folders/lp/x54gwt890xv47sdkqj1k04q40000gn/T//ccSWsFYs.s 			page 21


 633              		.p2align 2,,3
 634              		.global	LIS302DL_LowpowerCmd
 635              		.syntax unified
 636              		.thumb
 637              		.thumb_func
 639              	LIS302DL_LowpowerCmd:
 640              	.LVL41:
 641              	.LFB7:
 285:Drivers/BSP/Components/lis302dl/lis302dl.c ****   uint8_t tmpreg;
 642              		.loc 1 285 1 is_stmt 1 view -0
 643              		.cfi_startproc
 644              		@ args = 0, pretend = 0, frame = 8
 645              		@ frame_needed = 0, uses_anonymous_args = 0
 286:Drivers/BSP/Components/lis302dl/lis302dl.c ****   
 646              		.loc 1 286 3 view .LVU184
 289:Drivers/BSP/Components/lis302dl/lis302dl.c ****   
 647              		.loc 1 289 3 view .LVU185
 285:Drivers/BSP/Components/lis302dl/lis302dl.c ****   uint8_t tmpreg;
 648              		.loc 1 285 1 is_stmt 0 view .LVU186
 649 0000 10B5     		push	{r4, lr}
 650              		.cfi_def_cfa_offset 8
 651              		.cfi_offset 4, -8
 652              		.cfi_offset 14, -4
 653 0002 82B0     		sub	sp, sp, #8
 654              		.cfi_def_cfa_offset 16
 285:Drivers/BSP/Components/lis302dl/lis302dl.c ****   uint8_t tmpreg;
 655              		.loc 1 285 1 view .LVU187
 656 0004 0446     		mov	r4, r0
 289:Drivers/BSP/Components/lis302dl/lis302dl.c ****   
 657              		.loc 1 289 3 view .LVU188
 658 0006 0122     		movs	r2, #1
 659 0008 0DF10700 		add	r0, sp, #7
 660              	.LVL42:
 289:Drivers/BSP/Components/lis302dl/lis302dl.c ****   
 661              		.loc 1 289 3 view .LVU189
 662 000c 2021     		movs	r1, #32
 663 000e FFF7FEFF 		bl	ACCELERO_IO_Read
 664              	.LVL43:
 292:Drivers/BSP/Components/lis302dl/lis302dl.c ****   tmpreg |= LowPowerMode;
 665              		.loc 1 292 3 is_stmt 1 view .LVU190
 293:Drivers/BSP/Components/lis302dl/lis302dl.c ****   
 666              		.loc 1 293 3 view .LVU191
 292:Drivers/BSP/Components/lis302dl/lis302dl.c ****   tmpreg |= LowPowerMode;
 667              		.loc 1 292 10 is_stmt 0 view .LVU192
 668 0012 9DF80730 		ldrb	r3, [sp, #7]	@ zero_extendqisi2
 669 0016 23F04003 		bic	r3, r3, #64
 293:Drivers/BSP/Components/lis302dl/lis302dl.c ****   
 670              		.loc 1 293 10 view .LVU193
 671 001a 1C43     		orrs	r4, r4, r3
 672              	.LVL44:
 296:Drivers/BSP/Components/lis302dl/lis302dl.c **** }
 673              		.loc 1 296 3 view .LVU194
 674 001c 0122     		movs	r2, #1
 675 001e 2021     		movs	r1, #32
 676 0020 0DF10700 		add	r0, sp, #7
 293:Drivers/BSP/Components/lis302dl/lis302dl.c ****   
 677              		.loc 1 293 10 view .LVU195
ARM GAS  /var/folders/lp/x54gwt890xv47sdkqj1k04q40000gn/T//ccSWsFYs.s 			page 22


 678 0024 8DF80740 		strb	r4, [sp, #7]
 296:Drivers/BSP/Components/lis302dl/lis302dl.c **** }
 679              		.loc 1 296 3 is_stmt 1 view .LVU196
 680 0028 FFF7FEFF 		bl	ACCELERO_IO_Write
 681              	.LVL45:
 297:Drivers/BSP/Components/lis302dl/lis302dl.c **** 
 682              		.loc 1 297 1 is_stmt 0 view .LVU197
 683 002c 02B0     		add	sp, sp, #8
 684              		.cfi_def_cfa_offset 8
 685              		@ sp needed
 686 002e 10BD     		pop	{r4, pc}
 687              		.cfi_endproc
 688              	.LFE7:
 690              		.section	.text.LIS302DL_DataRateCmd,"ax",%progbits
 691              		.align	1
 692              		.p2align 2,,3
 693              		.global	LIS302DL_DataRateCmd
 694              		.syntax unified
 695              		.thumb
 696              		.thumb_func
 698              	LIS302DL_DataRateCmd:
 699              	.LVL46:
 700              	.LFB8:
 308:Drivers/BSP/Components/lis302dl/lis302dl.c ****   uint8_t tmpreg;
 701              		.loc 1 308 1 is_stmt 1 view -0
 702              		.cfi_startproc
 703              		@ args = 0, pretend = 0, frame = 8
 704              		@ frame_needed = 0, uses_anonymous_args = 0
 309:Drivers/BSP/Components/lis302dl/lis302dl.c ****   
 705              		.loc 1 309 3 view .LVU199
 312:Drivers/BSP/Components/lis302dl/lis302dl.c ****   
 706              		.loc 1 312 3 view .LVU200
 308:Drivers/BSP/Components/lis302dl/lis302dl.c ****   uint8_t tmpreg;
 707              		.loc 1 308 1 is_stmt 0 view .LVU201
 708 0000 10B5     		push	{r4, lr}
 709              		.cfi_def_cfa_offset 8
 710              		.cfi_offset 4, -8
 711              		.cfi_offset 14, -4
 712 0002 82B0     		sub	sp, sp, #8
 713              		.cfi_def_cfa_offset 16
 308:Drivers/BSP/Components/lis302dl/lis302dl.c ****   uint8_t tmpreg;
 714              		.loc 1 308 1 view .LVU202
 715 0004 0446     		mov	r4, r0
 312:Drivers/BSP/Components/lis302dl/lis302dl.c ****   
 716              		.loc 1 312 3 view .LVU203
 717 0006 0122     		movs	r2, #1
 718 0008 0DF10700 		add	r0, sp, #7
 719              	.LVL47:
 312:Drivers/BSP/Components/lis302dl/lis302dl.c ****   
 720              		.loc 1 312 3 view .LVU204
 721 000c 2021     		movs	r1, #32
 722 000e FFF7FEFF 		bl	ACCELERO_IO_Read
 723              	.LVL48:
 315:Drivers/BSP/Components/lis302dl/lis302dl.c ****   tmpreg |= DataRateValue;
 724              		.loc 1 315 3 is_stmt 1 view .LVU205
 316:Drivers/BSP/Components/lis302dl/lis302dl.c ****   
 725              		.loc 1 316 3 view .LVU206
ARM GAS  /var/folders/lp/x54gwt890xv47sdkqj1k04q40000gn/T//ccSWsFYs.s 			page 23


 315:Drivers/BSP/Components/lis302dl/lis302dl.c ****   tmpreg |= DataRateValue;
 726              		.loc 1 315 10 is_stmt 0 view .LVU207
 727 0012 9DF80730 		ldrb	r3, [sp, #7]	@ zero_extendqisi2
 728 0016 03F07F03 		and	r3, r3, #127
 316:Drivers/BSP/Components/lis302dl/lis302dl.c ****   
 729              		.loc 1 316 10 view .LVU208
 730 001a 1C43     		orrs	r4, r4, r3
 731              	.LVL49:
 319:Drivers/BSP/Components/lis302dl/lis302dl.c **** }
 732              		.loc 1 319 3 view .LVU209
 733 001c 0122     		movs	r2, #1
 734 001e 2021     		movs	r1, #32
 735 0020 0DF10700 		add	r0, sp, #7
 316:Drivers/BSP/Components/lis302dl/lis302dl.c ****   
 736              		.loc 1 316 10 view .LVU210
 737 0024 8DF80740 		strb	r4, [sp, #7]
 319:Drivers/BSP/Components/lis302dl/lis302dl.c **** }
 738              		.loc 1 319 3 is_stmt 1 view .LVU211
 739 0028 FFF7FEFF 		bl	ACCELERO_IO_Write
 740              	.LVL50:
 320:Drivers/BSP/Components/lis302dl/lis302dl.c **** 
 741              		.loc 1 320 1 is_stmt 0 view .LVU212
 742 002c 02B0     		add	sp, sp, #8
 743              		.cfi_def_cfa_offset 8
 744              		@ sp needed
 745 002e 10BD     		pop	{r4, pc}
 746              		.cfi_endproc
 747              	.LFE8:
 749              		.section	.text.LIS302DL_FullScaleCmd,"ax",%progbits
 750              		.align	1
 751              		.p2align 2,,3
 752              		.global	LIS302DL_FullScaleCmd
 753              		.syntax unified
 754              		.thumb
 755              		.thumb_func
 757              	LIS302DL_FullScaleCmd:
 758              	.LVL51:
 759              	.LFB9:
 331:Drivers/BSP/Components/lis302dl/lis302dl.c ****   uint8_t tmpreg;
 760              		.loc 1 331 1 is_stmt 1 view -0
 761              		.cfi_startproc
 762              		@ args = 0, pretend = 0, frame = 8
 763              		@ frame_needed = 0, uses_anonymous_args = 0
 332:Drivers/BSP/Components/lis302dl/lis302dl.c ****   
 764              		.loc 1 332 3 view .LVU214
 335:Drivers/BSP/Components/lis302dl/lis302dl.c ****   
 765              		.loc 1 335 3 view .LVU215
 331:Drivers/BSP/Components/lis302dl/lis302dl.c ****   uint8_t tmpreg;
 766              		.loc 1 331 1 is_stmt 0 view .LVU216
 767 0000 10B5     		push	{r4, lr}
 768              		.cfi_def_cfa_offset 8
 769              		.cfi_offset 4, -8
 770              		.cfi_offset 14, -4
 771 0002 82B0     		sub	sp, sp, #8
 772              		.cfi_def_cfa_offset 16
 331:Drivers/BSP/Components/lis302dl/lis302dl.c ****   uint8_t tmpreg;
 773              		.loc 1 331 1 view .LVU217
ARM GAS  /var/folders/lp/x54gwt890xv47sdkqj1k04q40000gn/T//ccSWsFYs.s 			page 24


 774 0004 0446     		mov	r4, r0
 335:Drivers/BSP/Components/lis302dl/lis302dl.c ****   
 775              		.loc 1 335 3 view .LVU218
 776 0006 0122     		movs	r2, #1
 777 0008 0DF10700 		add	r0, sp, #7
 778              	.LVL52:
 335:Drivers/BSP/Components/lis302dl/lis302dl.c ****   
 779              		.loc 1 335 3 view .LVU219
 780 000c 2021     		movs	r1, #32
 781 000e FFF7FEFF 		bl	ACCELERO_IO_Read
 782              	.LVL53:
 338:Drivers/BSP/Components/lis302dl/lis302dl.c ****   tmpreg |= FS_value;
 783              		.loc 1 338 3 is_stmt 1 view .LVU220
 339:Drivers/BSP/Components/lis302dl/lis302dl.c ****   
 784              		.loc 1 339 3 view .LVU221
 338:Drivers/BSP/Components/lis302dl/lis302dl.c ****   tmpreg |= FS_value;
 785              		.loc 1 338 10 is_stmt 0 view .LVU222
 786 0012 9DF80730 		ldrb	r3, [sp, #7]	@ zero_extendqisi2
 787 0016 23F02003 		bic	r3, r3, #32
 339:Drivers/BSP/Components/lis302dl/lis302dl.c ****   
 788              		.loc 1 339 10 view .LVU223
 789 001a 1C43     		orrs	r4, r4, r3
 790              	.LVL54:
 342:Drivers/BSP/Components/lis302dl/lis302dl.c **** }
 791              		.loc 1 342 3 view .LVU224
 792 001c 0122     		movs	r2, #1
 793 001e 2021     		movs	r1, #32
 794 0020 0DF10700 		add	r0, sp, #7
 339:Drivers/BSP/Components/lis302dl/lis302dl.c ****   
 795              		.loc 1 339 10 view .LVU225
 796 0024 8DF80740 		strb	r4, [sp, #7]
 342:Drivers/BSP/Components/lis302dl/lis302dl.c **** }
 797              		.loc 1 342 3 is_stmt 1 view .LVU226
 798 0028 FFF7FEFF 		bl	ACCELERO_IO_Write
 799              	.LVL55:
 343:Drivers/BSP/Components/lis302dl/lis302dl.c **** 
 800              		.loc 1 343 1 is_stmt 0 view .LVU227
 801 002c 02B0     		add	sp, sp, #8
 802              		.cfi_def_cfa_offset 8
 803              		@ sp needed
 804 002e 10BD     		pop	{r4, pc}
 805              		.cfi_endproc
 806              	.LFE9:
 808              		.global	Lis302dlDrv
 809              		.section	.data.Lis302dlDrv,"aw"
 810              		.align	2
 813              	Lis302dlDrv:
 814 0000 00000000 		.word	LIS302DL_Init
 815 0004 00000000 		.word	LIS302DL_DeInit
 816 0008 00000000 		.word	LIS302DL_ReadID
 817 000c 00000000 		.word	LIS302DL_RebootCmd
 818 0010 00000000 		.word	LIS302DL_Click_IntConfig
 819 0014 00000000 		.word	0
 820 0018 00000000 		.word	0
 821 001c 00000000 		.word	0
 822 0020 00000000 		.word	0
 823 0024 00000000 		.word	LIS302DL_Click_IntClear
ARM GAS  /var/folders/lp/x54gwt890xv47sdkqj1k04q40000gn/T//ccSWsFYs.s 			page 25


 824 0028 00000000 		.word	LIS302DL_FilterConfig
 825 002c 00000000 		.word	0
 826 0030 00000000 		.word	LIS302DL_ReadACC
 827              		.text
 828              	.Letext0:
 829              		.file 2 "/Users/jr/Library/Application Support/Code/User/globalStorage/bmd.stm32-for-vscode/@xpack
 830              		.file 3 "/Users/jr/Library/Application Support/Code/User/globalStorage/bmd.stm32-for-vscode/@xpack
 831              		.file 4 "Drivers/BSP/Components/lis302dl/../Common/accelero.h"
 832              		.file 5 "Drivers/BSP/Components/lis302dl/lis302dl.h"
ARM GAS  /var/folders/lp/x54gwt890xv47sdkqj1k04q40000gn/T//ccSWsFYs.s 			page 26


DEFINED SYMBOLS
                            *ABS*:00000000 lis302dl.c
/var/folders/lp/x54gwt890xv47sdkqj1k04q40000gn/T//ccSWsFYs.s:21     .text.LIS302DL_DeInit:00000000 $t
/var/folders/lp/x54gwt890xv47sdkqj1k04q40000gn/T//ccSWsFYs.s:28     .text.LIS302DL_DeInit:00000000 LIS302DL_DeInit
/var/folders/lp/x54gwt890xv47sdkqj1k04q40000gn/T//ccSWsFYs.s:41     .text.LIS302DL_Init:00000000 $t
/var/folders/lp/x54gwt890xv47sdkqj1k04q40000gn/T//ccSWsFYs.s:48     .text.LIS302DL_Init:00000000 LIS302DL_Init
/var/folders/lp/x54gwt890xv47sdkqj1k04q40000gn/T//ccSWsFYs.s:92     .text.LIS302DL_ReadID:00000000 $t
/var/folders/lp/x54gwt890xv47sdkqj1k04q40000gn/T//ccSWsFYs.s:99     .text.LIS302DL_ReadID:00000000 LIS302DL_ReadID
/var/folders/lp/x54gwt890xv47sdkqj1k04q40000gn/T//ccSWsFYs.s:135    .text.LIS302DL_FilterConfig:00000000 $t
/var/folders/lp/x54gwt890xv47sdkqj1k04q40000gn/T//ccSWsFYs.s:142    .text.LIS302DL_FilterConfig:00000000 LIS302DL_FilterConfig
/var/folders/lp/x54gwt890xv47sdkqj1k04q40000gn/T//ccSWsFYs.s:198    .text.LIS302DL_Click_IntClear:00000000 $t
/var/folders/lp/x54gwt890xv47sdkqj1k04q40000gn/T//ccSWsFYs.s:205    .text.LIS302DL_Click_IntClear:00000000 LIS302DL_Click_IntClear
/var/folders/lp/x54gwt890xv47sdkqj1k04q40000gn/T//ccSWsFYs.s:244    .text.LIS302DL_RebootCmd:00000000 $t
/var/folders/lp/x54gwt890xv47sdkqj1k04q40000gn/T//ccSWsFYs.s:251    .text.LIS302DL_RebootCmd:00000000 LIS302DL_RebootCmd
/var/folders/lp/x54gwt890xv47sdkqj1k04q40000gn/T//ccSWsFYs.s:295    .text.LIS302DL_ReadACC:00000000 $t
/var/folders/lp/x54gwt890xv47sdkqj1k04q40000gn/T//ccSWsFYs.s:302    .text.LIS302DL_ReadACC:00000000 LIS302DL_ReadACC
/var/folders/lp/x54gwt890xv47sdkqj1k04q40000gn/T//ccSWsFYs.s:398    .text.LIS302DL_Click_IntConfig:00000000 $t
/var/folders/lp/x54gwt890xv47sdkqj1k04q40000gn/T//ccSWsFYs.s:405    .text.LIS302DL_Click_IntConfig:00000000 LIS302DL_Click_IntConfig
/var/folders/lp/x54gwt890xv47sdkqj1k04q40000gn/T//ccSWsFYs.s:569    .text.LIS302DL_InterruptConfig:00000000 $t
/var/folders/lp/x54gwt890xv47sdkqj1k04q40000gn/T//ccSWsFYs.s:576    .text.LIS302DL_InterruptConfig:00000000 LIS302DL_InterruptConfig
/var/folders/lp/x54gwt890xv47sdkqj1k04q40000gn/T//ccSWsFYs.s:632    .text.LIS302DL_LowpowerCmd:00000000 $t
/var/folders/lp/x54gwt890xv47sdkqj1k04q40000gn/T//ccSWsFYs.s:639    .text.LIS302DL_LowpowerCmd:00000000 LIS302DL_LowpowerCmd
/var/folders/lp/x54gwt890xv47sdkqj1k04q40000gn/T//ccSWsFYs.s:691    .text.LIS302DL_DataRateCmd:00000000 $t
/var/folders/lp/x54gwt890xv47sdkqj1k04q40000gn/T//ccSWsFYs.s:698    .text.LIS302DL_DataRateCmd:00000000 LIS302DL_DataRateCmd
/var/folders/lp/x54gwt890xv47sdkqj1k04q40000gn/T//ccSWsFYs.s:750    .text.LIS302DL_FullScaleCmd:00000000 $t
/var/folders/lp/x54gwt890xv47sdkqj1k04q40000gn/T//ccSWsFYs.s:757    .text.LIS302DL_FullScaleCmd:00000000 LIS302DL_FullScaleCmd
/var/folders/lp/x54gwt890xv47sdkqj1k04q40000gn/T//ccSWsFYs.s:813    .data.Lis302dlDrv:00000000 Lis302dlDrv
/var/folders/lp/x54gwt890xv47sdkqj1k04q40000gn/T//ccSWsFYs.s:810    .data.Lis302dlDrv:00000000 $d

UNDEFINED SYMBOLS
ACCELERO_IO_Init
ACCELERO_IO_Write
ACCELERO_IO_Read
ACCELERO_IO_ITConfig
