ARM GAS  /var/folders/0z/tsy30v1j4xl4_7kw94k978ww0000gn/T//ccpK988n.s 			page 1


   1              		.cpu cortex-m4
   2              		.arch armv7e-m
   3              		.fpu fpv4-sp-d16
   4              		.eabi_attribute 27, 1
   5              		.eabi_attribute 28, 1
   6              		.eabi_attribute 20, 1
   7              		.eabi_attribute 21, 1
   8              		.eabi_attribute 23, 3
   9              		.eabi_attribute 24, 1
  10              		.eabi_attribute 25, 1
  11              		.eabi_attribute 26, 1
  12              		.eabi_attribute 30, 2
  13              		.eabi_attribute 34, 1
  14              		.eabi_attribute 18, 4
  15              		.file	"lsm303dlhc.c"
  16              		.text
  17              	.Ltext0:
  18              		.cfi_sections	.debug_frame
  19              		.section	.text.LSM303DLHC_AccDeInit,"ax",%progbits
  20              		.align	1
  21              		.p2align 2,,3
  22              		.global	LSM303DLHC_AccDeInit
  23              		.syntax unified
  24              		.thumb
  25              		.thumb_func
  27              	LSM303DLHC_AccDeInit:
  28              	.LFB1:
  29              		.file 1 "Drivers/BSP/Components/lsm303dlhc/lsm303dlhc.c"
   1:Drivers/BSP/Components/lsm303dlhc/lsm303dlhc.c **** /**
   2:Drivers/BSP/Components/lsm303dlhc/lsm303dlhc.c ****   ******************************************************************************
   3:Drivers/BSP/Components/lsm303dlhc/lsm303dlhc.c ****   * @file    lsm303dlhc.c
   4:Drivers/BSP/Components/lsm303dlhc/lsm303dlhc.c ****   * @author  MCD Application Team
   5:Drivers/BSP/Components/lsm303dlhc/lsm303dlhc.c ****   * @version V2.0.0
   6:Drivers/BSP/Components/lsm303dlhc/lsm303dlhc.c ****   * @date    24-June-2015
   7:Drivers/BSP/Components/lsm303dlhc/lsm303dlhc.c ****   * @brief   This file provides a set of functions needed to manage the lsm303dlhc
   8:Drivers/BSP/Components/lsm303dlhc/lsm303dlhc.c ****   *          MEMS accelerometer.
   9:Drivers/BSP/Components/lsm303dlhc/lsm303dlhc.c ****   ******************************************************************************
  10:Drivers/BSP/Components/lsm303dlhc/lsm303dlhc.c ****   * @attention
  11:Drivers/BSP/Components/lsm303dlhc/lsm303dlhc.c ****   *
  12:Drivers/BSP/Components/lsm303dlhc/lsm303dlhc.c ****   * <h2><center>&copy; COPYRIGHT(c) 2015 STMicroelectronics</center></h2>
  13:Drivers/BSP/Components/lsm303dlhc/lsm303dlhc.c ****   *
  14:Drivers/BSP/Components/lsm303dlhc/lsm303dlhc.c ****   * Redistribution and use in source and binary forms, with or without modification,
  15:Drivers/BSP/Components/lsm303dlhc/lsm303dlhc.c ****   * are permitted provided that the following conditions are met:
  16:Drivers/BSP/Components/lsm303dlhc/lsm303dlhc.c ****   *   1. Redistributions of source code must retain the above copyright notice,
  17:Drivers/BSP/Components/lsm303dlhc/lsm303dlhc.c ****   *      this list of conditions and the following disclaimer.
  18:Drivers/BSP/Components/lsm303dlhc/lsm303dlhc.c ****   *   2. Redistributions in binary form must reproduce the above copyright notice,
  19:Drivers/BSP/Components/lsm303dlhc/lsm303dlhc.c ****   *      this list of conditions and the following disclaimer in the documentation
  20:Drivers/BSP/Components/lsm303dlhc/lsm303dlhc.c ****   *      and/or other materials provided with the distribution.
  21:Drivers/BSP/Components/lsm303dlhc/lsm303dlhc.c ****   *   3. Neither the name of STMicroelectronics nor the names of its contributors
  22:Drivers/BSP/Components/lsm303dlhc/lsm303dlhc.c ****   *      may be used to endorse or promote products derived from this software
  23:Drivers/BSP/Components/lsm303dlhc/lsm303dlhc.c ****   *      without specific prior written permission.
  24:Drivers/BSP/Components/lsm303dlhc/lsm303dlhc.c ****   *
  25:Drivers/BSP/Components/lsm303dlhc/lsm303dlhc.c ****   * THIS SOFTWARE IS PROVIDED BY THE COPYRIGHT HOLDERS AND CONTRIBUTORS "AS IS"
  26:Drivers/BSP/Components/lsm303dlhc/lsm303dlhc.c ****   * AND ANY EXPRESS OR IMPLIED WARRANTIES, INCLUDING, BUT NOT LIMITED TO, THE
  27:Drivers/BSP/Components/lsm303dlhc/lsm303dlhc.c ****   * IMPLIED WARRANTIES OF MERCHANTABILITY AND FITNESS FOR A PARTICULAR PURPOSE ARE
  28:Drivers/BSP/Components/lsm303dlhc/lsm303dlhc.c ****   * DISCLAIMED. IN NO EVENT SHALL THE COPYRIGHT HOLDER OR CONTRIBUTORS BE LIABLE
  29:Drivers/BSP/Components/lsm303dlhc/lsm303dlhc.c ****   * FOR ANY DIRECT, INDIRECT, INCIDENTAL, SPECIAL, EXEMPLARY, OR CONSEQUENTIAL
ARM GAS  /var/folders/0z/tsy30v1j4xl4_7kw94k978ww0000gn/T//ccpK988n.s 			page 2


  30:Drivers/BSP/Components/lsm303dlhc/lsm303dlhc.c ****   * DAMAGES (INCLUDING, BUT NOT LIMITED TO, PROCUREMENT OF SUBSTITUTE GOODS OR
  31:Drivers/BSP/Components/lsm303dlhc/lsm303dlhc.c ****   * SERVICES; LOSS OF USE, DATA, OR PROFITS; OR BUSINESS INTERRUPTION) HOWEVER
  32:Drivers/BSP/Components/lsm303dlhc/lsm303dlhc.c ****   * CAUSED AND ON ANY THEORY OF LIABILITY, WHETHER IN CONTRACT, STRICT LIABILITY,
  33:Drivers/BSP/Components/lsm303dlhc/lsm303dlhc.c ****   * OR TORT (INCLUDING NEGLIGENCE OR OTHERWISE) ARISING IN ANY WAY OUT OF THE USE
  34:Drivers/BSP/Components/lsm303dlhc/lsm303dlhc.c ****   * OF THIS SOFTWARE, EVEN IF ADVISED OF THE POSSIBILITY OF SUCH DAMAGE.
  35:Drivers/BSP/Components/lsm303dlhc/lsm303dlhc.c ****   *
  36:Drivers/BSP/Components/lsm303dlhc/lsm303dlhc.c ****   ******************************************************************************
  37:Drivers/BSP/Components/lsm303dlhc/lsm303dlhc.c ****   */
  38:Drivers/BSP/Components/lsm303dlhc/lsm303dlhc.c **** /* Includes ------------------------------------------------------------------*/
  39:Drivers/BSP/Components/lsm303dlhc/lsm303dlhc.c **** #include "lsm303dlhc.h"
  40:Drivers/BSP/Components/lsm303dlhc/lsm303dlhc.c **** 
  41:Drivers/BSP/Components/lsm303dlhc/lsm303dlhc.c **** /** @addtogroup BSP
  42:Drivers/BSP/Components/lsm303dlhc/lsm303dlhc.c ****   * @{
  43:Drivers/BSP/Components/lsm303dlhc/lsm303dlhc.c ****   */ 
  44:Drivers/BSP/Components/lsm303dlhc/lsm303dlhc.c **** 
  45:Drivers/BSP/Components/lsm303dlhc/lsm303dlhc.c **** /** @addtogroup Components
  46:Drivers/BSP/Components/lsm303dlhc/lsm303dlhc.c ****   * @{
  47:Drivers/BSP/Components/lsm303dlhc/lsm303dlhc.c ****   */ 
  48:Drivers/BSP/Components/lsm303dlhc/lsm303dlhc.c **** 
  49:Drivers/BSP/Components/lsm303dlhc/lsm303dlhc.c **** /** @addtogroup LSM303DLHC
  50:Drivers/BSP/Components/lsm303dlhc/lsm303dlhc.c ****   * @{
  51:Drivers/BSP/Components/lsm303dlhc/lsm303dlhc.c ****   */
  52:Drivers/BSP/Components/lsm303dlhc/lsm303dlhc.c **** 
  53:Drivers/BSP/Components/lsm303dlhc/lsm303dlhc.c **** /** @defgroup LSM303DLHC_Private_TypesDefinitions
  54:Drivers/BSP/Components/lsm303dlhc/lsm303dlhc.c ****   * @{
  55:Drivers/BSP/Components/lsm303dlhc/lsm303dlhc.c ****   */
  56:Drivers/BSP/Components/lsm303dlhc/lsm303dlhc.c **** 
  57:Drivers/BSP/Components/lsm303dlhc/lsm303dlhc.c **** /**
  58:Drivers/BSP/Components/lsm303dlhc/lsm303dlhc.c ****   * @}
  59:Drivers/BSP/Components/lsm303dlhc/lsm303dlhc.c ****   */
  60:Drivers/BSP/Components/lsm303dlhc/lsm303dlhc.c **** 
  61:Drivers/BSP/Components/lsm303dlhc/lsm303dlhc.c **** /** @defgroup LSM303DLHC_Private_Defines
  62:Drivers/BSP/Components/lsm303dlhc/lsm303dlhc.c ****   * @{
  63:Drivers/BSP/Components/lsm303dlhc/lsm303dlhc.c ****   */
  64:Drivers/BSP/Components/lsm303dlhc/lsm303dlhc.c **** 
  65:Drivers/BSP/Components/lsm303dlhc/lsm303dlhc.c **** /**
  66:Drivers/BSP/Components/lsm303dlhc/lsm303dlhc.c ****   * @}
  67:Drivers/BSP/Components/lsm303dlhc/lsm303dlhc.c ****   */
  68:Drivers/BSP/Components/lsm303dlhc/lsm303dlhc.c **** 
  69:Drivers/BSP/Components/lsm303dlhc/lsm303dlhc.c **** /** @defgroup LSM303DLHC_Private_Macros
  70:Drivers/BSP/Components/lsm303dlhc/lsm303dlhc.c ****   * @{
  71:Drivers/BSP/Components/lsm303dlhc/lsm303dlhc.c ****   */
  72:Drivers/BSP/Components/lsm303dlhc/lsm303dlhc.c **** 
  73:Drivers/BSP/Components/lsm303dlhc/lsm303dlhc.c **** /**
  74:Drivers/BSP/Components/lsm303dlhc/lsm303dlhc.c ****   * @}
  75:Drivers/BSP/Components/lsm303dlhc/lsm303dlhc.c ****   */ 
  76:Drivers/BSP/Components/lsm303dlhc/lsm303dlhc.c ****   
  77:Drivers/BSP/Components/lsm303dlhc/lsm303dlhc.c **** /** @defgroup LSM303DLHC_Private_Variables
  78:Drivers/BSP/Components/lsm303dlhc/lsm303dlhc.c ****   * @{
  79:Drivers/BSP/Components/lsm303dlhc/lsm303dlhc.c ****   */ 
  80:Drivers/BSP/Components/lsm303dlhc/lsm303dlhc.c **** ACCELERO_DrvTypeDef Lsm303dlhcDrv =
  81:Drivers/BSP/Components/lsm303dlhc/lsm303dlhc.c **** {
  82:Drivers/BSP/Components/lsm303dlhc/lsm303dlhc.c ****   LSM303DLHC_AccInit,
  83:Drivers/BSP/Components/lsm303dlhc/lsm303dlhc.c ****   LSM303DLHC_AccDeInit,
  84:Drivers/BSP/Components/lsm303dlhc/lsm303dlhc.c ****   LSM303DLHC_AccReadID,
  85:Drivers/BSP/Components/lsm303dlhc/lsm303dlhc.c ****   LSM303DLHC_AccRebootCmd,
  86:Drivers/BSP/Components/lsm303dlhc/lsm303dlhc.c ****   0,
ARM GAS  /var/folders/0z/tsy30v1j4xl4_7kw94k978ww0000gn/T//ccpK988n.s 			page 3


  87:Drivers/BSP/Components/lsm303dlhc/lsm303dlhc.c ****   LSM303DLHC_AccZClickITConfig,
  88:Drivers/BSP/Components/lsm303dlhc/lsm303dlhc.c ****   0,
  89:Drivers/BSP/Components/lsm303dlhc/lsm303dlhc.c ****   0,
  90:Drivers/BSP/Components/lsm303dlhc/lsm303dlhc.c ****   0,
  91:Drivers/BSP/Components/lsm303dlhc/lsm303dlhc.c ****   0,
  92:Drivers/BSP/Components/lsm303dlhc/lsm303dlhc.c ****   LSM303DLHC_AccFilterConfig,
  93:Drivers/BSP/Components/lsm303dlhc/lsm303dlhc.c ****   LSM303DLHC_AccFilterCmd,
  94:Drivers/BSP/Components/lsm303dlhc/lsm303dlhc.c ****   LSM303DLHC_AccReadXYZ
  95:Drivers/BSP/Components/lsm303dlhc/lsm303dlhc.c **** };
  96:Drivers/BSP/Components/lsm303dlhc/lsm303dlhc.c **** 
  97:Drivers/BSP/Components/lsm303dlhc/lsm303dlhc.c **** /**
  98:Drivers/BSP/Components/lsm303dlhc/lsm303dlhc.c ****   * @}
  99:Drivers/BSP/Components/lsm303dlhc/lsm303dlhc.c ****   */
 100:Drivers/BSP/Components/lsm303dlhc/lsm303dlhc.c **** 
 101:Drivers/BSP/Components/lsm303dlhc/lsm303dlhc.c **** /** @defgroup LSM303DLHC_Private_Functions
 102:Drivers/BSP/Components/lsm303dlhc/lsm303dlhc.c ****   * @{
 103:Drivers/BSP/Components/lsm303dlhc/lsm303dlhc.c ****   */
 104:Drivers/BSP/Components/lsm303dlhc/lsm303dlhc.c **** 
 105:Drivers/BSP/Components/lsm303dlhc/lsm303dlhc.c **** /**
 106:Drivers/BSP/Components/lsm303dlhc/lsm303dlhc.c ****   * @brief  Set LSM303DLHC Initialization.
 107:Drivers/BSP/Components/lsm303dlhc/lsm303dlhc.c ****   * @param  InitStruct: Init parameters
 108:Drivers/BSP/Components/lsm303dlhc/lsm303dlhc.c ****   * @retval None
 109:Drivers/BSP/Components/lsm303dlhc/lsm303dlhc.c ****   */
 110:Drivers/BSP/Components/lsm303dlhc/lsm303dlhc.c **** void LSM303DLHC_AccInit(uint16_t InitStruct)
 111:Drivers/BSP/Components/lsm303dlhc/lsm303dlhc.c **** {  
 112:Drivers/BSP/Components/lsm303dlhc/lsm303dlhc.c ****   uint8_t ctrl = 0x00;
 113:Drivers/BSP/Components/lsm303dlhc/lsm303dlhc.c ****   
 114:Drivers/BSP/Components/lsm303dlhc/lsm303dlhc.c ****   /*  Low level init */
 115:Drivers/BSP/Components/lsm303dlhc/lsm303dlhc.c ****   COMPASSACCELERO_IO_Init();
 116:Drivers/BSP/Components/lsm303dlhc/lsm303dlhc.c ****   
 117:Drivers/BSP/Components/lsm303dlhc/lsm303dlhc.c ****   /* Write value to ACC MEMS CTRL_REG1 register */
 118:Drivers/BSP/Components/lsm303dlhc/lsm303dlhc.c ****   ctrl = (uint8_t) InitStruct;
 119:Drivers/BSP/Components/lsm303dlhc/lsm303dlhc.c ****   COMPASSACCELERO_IO_Write(ACC_I2C_ADDRESS, LSM303DLHC_CTRL_REG1_A, ctrl);
 120:Drivers/BSP/Components/lsm303dlhc/lsm303dlhc.c ****   
 121:Drivers/BSP/Components/lsm303dlhc/lsm303dlhc.c ****   /* Write value to ACC MEMS CTRL_REG4 register */
 122:Drivers/BSP/Components/lsm303dlhc/lsm303dlhc.c ****   ctrl = (uint8_t) (InitStruct << 8);
 123:Drivers/BSP/Components/lsm303dlhc/lsm303dlhc.c ****   COMPASSACCELERO_IO_Write(ACC_I2C_ADDRESS, LSM303DLHC_CTRL_REG4_A, ctrl);
 124:Drivers/BSP/Components/lsm303dlhc/lsm303dlhc.c **** }
 125:Drivers/BSP/Components/lsm303dlhc/lsm303dlhc.c **** 
 126:Drivers/BSP/Components/lsm303dlhc/lsm303dlhc.c **** /**
 127:Drivers/BSP/Components/lsm303dlhc/lsm303dlhc.c ****   * @brief  LSM303DLHC De-initialization.
 128:Drivers/BSP/Components/lsm303dlhc/lsm303dlhc.c ****   * @param  None
 129:Drivers/BSP/Components/lsm303dlhc/lsm303dlhc.c ****   * @retval None
 130:Drivers/BSP/Components/lsm303dlhc/lsm303dlhc.c ****   */
 131:Drivers/BSP/Components/lsm303dlhc/lsm303dlhc.c **** void LSM303DLHC_AccDeInit(void)
 132:Drivers/BSP/Components/lsm303dlhc/lsm303dlhc.c **** {  
  30              		.loc 1 132 1 view -0
  31              		.cfi_startproc
  32              		@ args = 0, pretend = 0, frame = 0
  33              		@ frame_needed = 0, uses_anonymous_args = 0
  34              		@ link register save eliminated.
 133:Drivers/BSP/Components/lsm303dlhc/lsm303dlhc.c **** }
  35              		.loc 1 133 1 view .LVU1
  36 0000 7047     		bx	lr
  37              		.cfi_endproc
  38              	.LFE1:
  40 0002 00BF     		.section	.text.LSM303DLHC_AccInit,"ax",%progbits
ARM GAS  /var/folders/0z/tsy30v1j4xl4_7kw94k978ww0000gn/T//ccpK988n.s 			page 4


  41              		.align	1
  42              		.p2align 2,,3
  43              		.global	LSM303DLHC_AccInit
  44              		.syntax unified
  45              		.thumb
  46              		.thumb_func
  48              	LSM303DLHC_AccInit:
  49              	.LVL0:
  50              	.LFB0:
 111:Drivers/BSP/Components/lsm303dlhc/lsm303dlhc.c ****   uint8_t ctrl = 0x00;
  51              		.loc 1 111 1 view -0
  52              		.cfi_startproc
  53              		@ args = 0, pretend = 0, frame = 0
  54              		@ frame_needed = 0, uses_anonymous_args = 0
 112:Drivers/BSP/Components/lsm303dlhc/lsm303dlhc.c ****   
  55              		.loc 1 112 3 view .LVU3
 115:Drivers/BSP/Components/lsm303dlhc/lsm303dlhc.c ****   
  56              		.loc 1 115 3 view .LVU4
 111:Drivers/BSP/Components/lsm303dlhc/lsm303dlhc.c ****   uint8_t ctrl = 0x00;
  57              		.loc 1 111 1 is_stmt 0 view .LVU5
  58 0000 10B5     		push	{r4, lr}
  59              		.cfi_def_cfa_offset 8
  60              		.cfi_offset 4, -8
  61              		.cfi_offset 14, -4
 111:Drivers/BSP/Components/lsm303dlhc/lsm303dlhc.c ****   uint8_t ctrl = 0x00;
  62              		.loc 1 111 1 view .LVU6
  63 0002 0446     		mov	r4, r0
 115:Drivers/BSP/Components/lsm303dlhc/lsm303dlhc.c ****   
  64              		.loc 1 115 3 view .LVU7
  65 0004 FFF7FEFF 		bl	COMPASSACCELERO_IO_Init
  66              	.LVL1:
 118:Drivers/BSP/Components/lsm303dlhc/lsm303dlhc.c ****   COMPASSACCELERO_IO_Write(ACC_I2C_ADDRESS, LSM303DLHC_CTRL_REG1_A, ctrl);
  67              		.loc 1 118 3 is_stmt 1 view .LVU8
 119:Drivers/BSP/Components/lsm303dlhc/lsm303dlhc.c ****   
  68              		.loc 1 119 3 view .LVU9
  69 0008 E2B2     		uxtb	r2, r4
  70 000a 2021     		movs	r1, #32
  71 000c 3220     		movs	r0, #50
  72 000e FFF7FEFF 		bl	COMPASSACCELERO_IO_Write
  73              	.LVL2:
 122:Drivers/BSP/Components/lsm303dlhc/lsm303dlhc.c ****   COMPASSACCELERO_IO_Write(ACC_I2C_ADDRESS, LSM303DLHC_CTRL_REG4_A, ctrl);
  74              		.loc 1 122 3 view .LVU10
 123:Drivers/BSP/Components/lsm303dlhc/lsm303dlhc.c **** }
  75              		.loc 1 123 3 view .LVU11
 124:Drivers/BSP/Components/lsm303dlhc/lsm303dlhc.c **** 
  76              		.loc 1 124 1 is_stmt 0 view .LVU12
  77 0012 BDE81040 		pop	{r4, lr}
  78              		.cfi_restore 14
  79              		.cfi_restore 4
  80              		.cfi_def_cfa_offset 0
 123:Drivers/BSP/Components/lsm303dlhc/lsm303dlhc.c **** }
  81              		.loc 1 123 3 view .LVU13
  82 0016 0022     		movs	r2, #0
  83 0018 2321     		movs	r1, #35
  84 001a 3220     		movs	r0, #50
  85 001c FFF7FEBF 		b	COMPASSACCELERO_IO_Write
  86              	.LVL3:
ARM GAS  /var/folders/0z/tsy30v1j4xl4_7kw94k978ww0000gn/T//ccpK988n.s 			page 5


  87              		.cfi_endproc
  88              	.LFE0:
  90              		.section	.text.LSM303DLHC_AccReadID,"ax",%progbits
  91              		.align	1
  92              		.p2align 2,,3
  93              		.global	LSM303DLHC_AccReadID
  94              		.syntax unified
  95              		.thumb
  96              		.thumb_func
  98              	LSM303DLHC_AccReadID:
  99              	.LFB2:
 134:Drivers/BSP/Components/lsm303dlhc/lsm303dlhc.c **** 
 135:Drivers/BSP/Components/lsm303dlhc/lsm303dlhc.c **** /**
 136:Drivers/BSP/Components/lsm303dlhc/lsm303dlhc.c ****   * @brief  Read LSM303DLHC ID.
 137:Drivers/BSP/Components/lsm303dlhc/lsm303dlhc.c ****   * @param  None
 138:Drivers/BSP/Components/lsm303dlhc/lsm303dlhc.c ****   * @retval ID 
 139:Drivers/BSP/Components/lsm303dlhc/lsm303dlhc.c ****   */
 140:Drivers/BSP/Components/lsm303dlhc/lsm303dlhc.c **** uint8_t LSM303DLHC_AccReadID(void)
 141:Drivers/BSP/Components/lsm303dlhc/lsm303dlhc.c **** {  
 100              		.loc 1 141 1 is_stmt 1 view -0
 101              		.cfi_startproc
 102              		@ args = 0, pretend = 0, frame = 0
 103              		@ frame_needed = 0, uses_anonymous_args = 0
 142:Drivers/BSP/Components/lsm303dlhc/lsm303dlhc.c ****   uint8_t ctrl = 0x00;
 104              		.loc 1 142 3 view .LVU15
 105              	.LVL4:
 143:Drivers/BSP/Components/lsm303dlhc/lsm303dlhc.c ****   
 144:Drivers/BSP/Components/lsm303dlhc/lsm303dlhc.c ****   /* Low level init */
 145:Drivers/BSP/Components/lsm303dlhc/lsm303dlhc.c ****   COMPASSACCELERO_IO_Init();
 106              		.loc 1 145 3 view .LVU16
 141:Drivers/BSP/Components/lsm303dlhc/lsm303dlhc.c ****   uint8_t ctrl = 0x00;
 107              		.loc 1 141 1 is_stmt 0 view .LVU17
 108 0000 08B5     		push	{r3, lr}
 109              		.cfi_def_cfa_offset 8
 110              		.cfi_offset 3, -8
 111              		.cfi_offset 14, -4
 112              		.loc 1 145 3 view .LVU18
 113 0002 FFF7FEFF 		bl	COMPASSACCELERO_IO_Init
 114              	.LVL5:
 146:Drivers/BSP/Components/lsm303dlhc/lsm303dlhc.c ****   
 147:Drivers/BSP/Components/lsm303dlhc/lsm303dlhc.c ****   /* Read value at Who am I register address */
 148:Drivers/BSP/Components/lsm303dlhc/lsm303dlhc.c ****   ctrl = COMPASSACCELERO_IO_Read(ACC_I2C_ADDRESS, LSM303DLHC_WHO_AM_I_ADDR);
 115              		.loc 1 148 3 is_stmt 1 view .LVU19
 149:Drivers/BSP/Components/lsm303dlhc/lsm303dlhc.c ****   
 150:Drivers/BSP/Components/lsm303dlhc/lsm303dlhc.c ****   return ctrl;
 151:Drivers/BSP/Components/lsm303dlhc/lsm303dlhc.c **** }
 116              		.loc 1 151 1 is_stmt 0 view .LVU20
 117 0006 BDE80840 		pop	{r3, lr}
 118              		.cfi_restore 14
 119              		.cfi_restore 3
 120              		.cfi_def_cfa_offset 0
 148:Drivers/BSP/Components/lsm303dlhc/lsm303dlhc.c ****   
 121              		.loc 1 148 10 view .LVU21
 122 000a 0F21     		movs	r1, #15
 123 000c 3220     		movs	r0, #50
 124 000e FFF7FEBF 		b	COMPASSACCELERO_IO_Read
 125              	.LVL6:
ARM GAS  /var/folders/0z/tsy30v1j4xl4_7kw94k978ww0000gn/T//ccpK988n.s 			page 6


 126              		.cfi_endproc
 127              	.LFE2:
 129 0012 00BF     		.section	.text.LSM303DLHC_AccRebootCmd,"ax",%progbits
 130              		.align	1
 131              		.p2align 2,,3
 132              		.global	LSM303DLHC_AccRebootCmd
 133              		.syntax unified
 134              		.thumb
 135              		.thumb_func
 137              	LSM303DLHC_AccRebootCmd:
 138              	.LFB3:
 152:Drivers/BSP/Components/lsm303dlhc/lsm303dlhc.c **** 
 153:Drivers/BSP/Components/lsm303dlhc/lsm303dlhc.c **** /**
 154:Drivers/BSP/Components/lsm303dlhc/lsm303dlhc.c ****   * @brief  Reboot memory content of LSM303DLHC
 155:Drivers/BSP/Components/lsm303dlhc/lsm303dlhc.c ****   * @param  None
 156:Drivers/BSP/Components/lsm303dlhc/lsm303dlhc.c ****   * @retval None
 157:Drivers/BSP/Components/lsm303dlhc/lsm303dlhc.c ****   */
 158:Drivers/BSP/Components/lsm303dlhc/lsm303dlhc.c **** void LSM303DLHC_AccRebootCmd(void)
 159:Drivers/BSP/Components/lsm303dlhc/lsm303dlhc.c **** {
 139              		.loc 1 159 1 is_stmt 1 view -0
 140              		.cfi_startproc
 141              		@ args = 0, pretend = 0, frame = 0
 142              		@ frame_needed = 0, uses_anonymous_args = 0
 160:Drivers/BSP/Components/lsm303dlhc/lsm303dlhc.c ****   uint8_t tmpreg;
 143              		.loc 1 160 3 view .LVU23
 161:Drivers/BSP/Components/lsm303dlhc/lsm303dlhc.c ****   
 162:Drivers/BSP/Components/lsm303dlhc/lsm303dlhc.c ****   /* Read CTRL_REG5 register */
 163:Drivers/BSP/Components/lsm303dlhc/lsm303dlhc.c ****   tmpreg = COMPASSACCELERO_IO_Read(ACC_I2C_ADDRESS, LSM303DLHC_CTRL_REG5_A);
 144              		.loc 1 163 3 view .LVU24
 159:Drivers/BSP/Components/lsm303dlhc/lsm303dlhc.c ****   uint8_t tmpreg;
 145              		.loc 1 159 1 is_stmt 0 view .LVU25
 146 0000 08B5     		push	{r3, lr}
 147              		.cfi_def_cfa_offset 8
 148              		.cfi_offset 3, -8
 149              		.cfi_offset 14, -4
 150              		.loc 1 163 12 view .LVU26
 151 0002 2421     		movs	r1, #36
 152 0004 3220     		movs	r0, #50
 153 0006 FFF7FEFF 		bl	COMPASSACCELERO_IO_Read
 154              	.LVL7:
 164:Drivers/BSP/Components/lsm303dlhc/lsm303dlhc.c ****   
 165:Drivers/BSP/Components/lsm303dlhc/lsm303dlhc.c ****   /* Enable or Disable the reboot memory */
 166:Drivers/BSP/Components/lsm303dlhc/lsm303dlhc.c ****   tmpreg |= LSM303DLHC_BOOT_REBOOTMEMORY;
 155              		.loc 1 166 3 is_stmt 1 view .LVU27
 167:Drivers/BSP/Components/lsm303dlhc/lsm303dlhc.c ****   
 168:Drivers/BSP/Components/lsm303dlhc/lsm303dlhc.c ****   /* Write value to ACC MEMS CTRL_REG5 register */
 169:Drivers/BSP/Components/lsm303dlhc/lsm303dlhc.c ****   COMPASSACCELERO_IO_Write(ACC_I2C_ADDRESS, LSM303DLHC_CTRL_REG5_A, tmpreg);
 156              		.loc 1 169 3 view .LVU28
 166:Drivers/BSP/Components/lsm303dlhc/lsm303dlhc.c ****   
 157              		.loc 1 166 10 is_stmt 0 view .LVU29
 158 000a 60F07F00 		orn	r0, r0, #127
 159              	.LVL8:
 160              		.loc 1 169 3 view .LVU30
 161 000e C2B2     		uxtb	r2, r0
 170:Drivers/BSP/Components/lsm303dlhc/lsm303dlhc.c **** }
 162              		.loc 1 170 1 view .LVU31
 163 0010 BDE80840 		pop	{r3, lr}
ARM GAS  /var/folders/0z/tsy30v1j4xl4_7kw94k978ww0000gn/T//ccpK988n.s 			page 7


 164              		.cfi_restore 14
 165              		.cfi_restore 3
 166              		.cfi_def_cfa_offset 0
 169:Drivers/BSP/Components/lsm303dlhc/lsm303dlhc.c **** }
 167              		.loc 1 169 3 view .LVU32
 168 0014 2421     		movs	r1, #36
 169 0016 3220     		movs	r0, #50
 170 0018 FFF7FEBF 		b	COMPASSACCELERO_IO_Write
 171              	.LVL9:
 172              		.cfi_endproc
 173              	.LFE3:
 175              		.section	.text.LSM303DLHC_AccFilterConfig,"ax",%progbits
 176              		.align	1
 177              		.p2align 2,,3
 178              		.global	LSM303DLHC_AccFilterConfig
 179              		.syntax unified
 180              		.thumb
 181              		.thumb_func
 183              	LSM303DLHC_AccFilterConfig:
 184              	.LVL10:
 185              	.LFB4:
 171:Drivers/BSP/Components/lsm303dlhc/lsm303dlhc.c **** 
 172:Drivers/BSP/Components/lsm303dlhc/lsm303dlhc.c **** /**
 173:Drivers/BSP/Components/lsm303dlhc/lsm303dlhc.c ****   * @brief  Set High Pass Filter Modality
 174:Drivers/BSP/Components/lsm303dlhc/lsm303dlhc.c ****   * @param  FilterStruct: contains data for filter config
 175:Drivers/BSP/Components/lsm303dlhc/lsm303dlhc.c ****   * @retval None
 176:Drivers/BSP/Components/lsm303dlhc/lsm303dlhc.c ****   */
 177:Drivers/BSP/Components/lsm303dlhc/lsm303dlhc.c **** void LSM303DLHC_AccFilterConfig(uint8_t FilterStruct) 
 178:Drivers/BSP/Components/lsm303dlhc/lsm303dlhc.c **** {
 186              		.loc 1 178 1 is_stmt 1 view -0
 187              		.cfi_startproc
 188              		@ args = 0, pretend = 0, frame = 0
 189              		@ frame_needed = 0, uses_anonymous_args = 0
 179:Drivers/BSP/Components/lsm303dlhc/lsm303dlhc.c ****   uint8_t tmpreg;
 190              		.loc 1 179 3 view .LVU34
 180:Drivers/BSP/Components/lsm303dlhc/lsm303dlhc.c ****   
 181:Drivers/BSP/Components/lsm303dlhc/lsm303dlhc.c ****   /* Read CTRL_REG2 register */
 182:Drivers/BSP/Components/lsm303dlhc/lsm303dlhc.c ****   tmpreg = COMPASSACCELERO_IO_Read(ACC_I2C_ADDRESS, LSM303DLHC_CTRL_REG2_A);
 191              		.loc 1 182 3 view .LVU35
 178:Drivers/BSP/Components/lsm303dlhc/lsm303dlhc.c ****   uint8_t tmpreg;
 192              		.loc 1 178 1 is_stmt 0 view .LVU36
 193 0000 10B5     		push	{r4, lr}
 194              		.cfi_def_cfa_offset 8
 195              		.cfi_offset 4, -8
 196              		.cfi_offset 14, -4
 197              		.loc 1 182 12 view .LVU37
 198 0002 2121     		movs	r1, #33
 178:Drivers/BSP/Components/lsm303dlhc/lsm303dlhc.c ****   uint8_t tmpreg;
 199              		.loc 1 178 1 view .LVU38
 200 0004 0446     		mov	r4, r0
 201              		.loc 1 182 12 view .LVU39
 202 0006 3220     		movs	r0, #50
 203              	.LVL11:
 204              		.loc 1 182 12 view .LVU40
 205 0008 FFF7FEFF 		bl	COMPASSACCELERO_IO_Read
 206              	.LVL12:
 183:Drivers/BSP/Components/lsm303dlhc/lsm303dlhc.c ****   
ARM GAS  /var/folders/0z/tsy30v1j4xl4_7kw94k978ww0000gn/T//ccpK988n.s 			page 8


 184:Drivers/BSP/Components/lsm303dlhc/lsm303dlhc.c ****   tmpreg &= 0x0C;
 207              		.loc 1 184 3 is_stmt 1 view .LVU41
 208              		.loc 1 184 10 is_stmt 0 view .LVU42
 209 000c 00F00C00 		and	r0, r0, #12
 210              	.LVL13:
 185:Drivers/BSP/Components/lsm303dlhc/lsm303dlhc.c ****   tmpreg |= FilterStruct;
 211              		.loc 1 185 3 is_stmt 1 view .LVU43
 186:Drivers/BSP/Components/lsm303dlhc/lsm303dlhc.c ****   
 187:Drivers/BSP/Components/lsm303dlhc/lsm303dlhc.c ****   /* Write value to ACC MEMS CTRL_REG2 register */
 188:Drivers/BSP/Components/lsm303dlhc/lsm303dlhc.c ****   COMPASSACCELERO_IO_Write(ACC_I2C_ADDRESS, LSM303DLHC_CTRL_REG2_A, tmpreg);
 212              		.loc 1 188 3 view .LVU44
 213 0010 40EA0402 		orr	r2, r0, r4
 214 0014 2121     		movs	r1, #33
 189:Drivers/BSP/Components/lsm303dlhc/lsm303dlhc.c **** }
 215              		.loc 1 189 1 is_stmt 0 view .LVU45
 216 0016 BDE81040 		pop	{r4, lr}
 217              		.cfi_restore 14
 218              		.cfi_restore 4
 219              		.cfi_def_cfa_offset 0
 220              	.LVL14:
 188:Drivers/BSP/Components/lsm303dlhc/lsm303dlhc.c **** }
 221              		.loc 1 188 3 view .LVU46
 222 001a 3220     		movs	r0, #50
 188:Drivers/BSP/Components/lsm303dlhc/lsm303dlhc.c **** }
 223              		.loc 1 188 3 view .LVU47
 224 001c FFF7FEBF 		b	COMPASSACCELERO_IO_Write
 225              	.LVL15:
 226              		.cfi_endproc
 227              	.LFE4:
 229              		.section	.text.LSM303DLHC_AccFilterCmd,"ax",%progbits
 230              		.align	1
 231              		.p2align 2,,3
 232              		.global	LSM303DLHC_AccFilterCmd
 233              		.syntax unified
 234              		.thumb
 235              		.thumb_func
 237              	LSM303DLHC_AccFilterCmd:
 238              	.LVL16:
 239              	.LFB5:
 190:Drivers/BSP/Components/lsm303dlhc/lsm303dlhc.c **** 
 191:Drivers/BSP/Components/lsm303dlhc/lsm303dlhc.c **** /**
 192:Drivers/BSP/Components/lsm303dlhc/lsm303dlhc.c ****   * @brief  Enable or Disable High Pass Filter
 193:Drivers/BSP/Components/lsm303dlhc/lsm303dlhc.c ****   * @param  HighPassFilterState: new state of the High Pass Filter feature.
 194:Drivers/BSP/Components/lsm303dlhc/lsm303dlhc.c ****   *      This parameter can be: 
 195:Drivers/BSP/Components/lsm303dlhc/lsm303dlhc.c ****   *         @arg: LSM303DLHC_HIGHPASSFILTER_DISABLE 
 196:Drivers/BSP/Components/lsm303dlhc/lsm303dlhc.c ****   *         @arg: LSM303DLHC_HIGHPASSFILTER_ENABLE
 197:Drivers/BSP/Components/lsm303dlhc/lsm303dlhc.c ****   * @retval None
 198:Drivers/BSP/Components/lsm303dlhc/lsm303dlhc.c ****   */
 199:Drivers/BSP/Components/lsm303dlhc/lsm303dlhc.c **** void LSM303DLHC_AccFilterCmd(uint8_t HighPassFilterState)
 200:Drivers/BSP/Components/lsm303dlhc/lsm303dlhc.c **** {
 240              		.loc 1 200 1 is_stmt 1 view -0
 241              		.cfi_startproc
 242              		@ args = 0, pretend = 0, frame = 0
 243              		@ frame_needed = 0, uses_anonymous_args = 0
 201:Drivers/BSP/Components/lsm303dlhc/lsm303dlhc.c ****   uint8_t tmpreg;
 244              		.loc 1 201 3 view .LVU49
 202:Drivers/BSP/Components/lsm303dlhc/lsm303dlhc.c ****   
ARM GAS  /var/folders/0z/tsy30v1j4xl4_7kw94k978ww0000gn/T//ccpK988n.s 			page 9


 203:Drivers/BSP/Components/lsm303dlhc/lsm303dlhc.c ****   /* Read CTRL_REG2 register */
 204:Drivers/BSP/Components/lsm303dlhc/lsm303dlhc.c ****   tmpreg = COMPASSACCELERO_IO_Read(ACC_I2C_ADDRESS, LSM303DLHC_CTRL_REG2_A);
 245              		.loc 1 204 3 view .LVU50
 200:Drivers/BSP/Components/lsm303dlhc/lsm303dlhc.c ****   uint8_t tmpreg;
 246              		.loc 1 200 1 is_stmt 0 view .LVU51
 247 0000 10B5     		push	{r4, lr}
 248              		.cfi_def_cfa_offset 8
 249              		.cfi_offset 4, -8
 250              		.cfi_offset 14, -4
 251              		.loc 1 204 12 view .LVU52
 252 0002 2121     		movs	r1, #33
 200:Drivers/BSP/Components/lsm303dlhc/lsm303dlhc.c ****   uint8_t tmpreg;
 253              		.loc 1 200 1 view .LVU53
 254 0004 0446     		mov	r4, r0
 255              		.loc 1 204 12 view .LVU54
 256 0006 3220     		movs	r0, #50
 257              	.LVL17:
 258              		.loc 1 204 12 view .LVU55
 259 0008 FFF7FEFF 		bl	COMPASSACCELERO_IO_Read
 260              	.LVL18:
 205:Drivers/BSP/Components/lsm303dlhc/lsm303dlhc.c ****   
 206:Drivers/BSP/Components/lsm303dlhc/lsm303dlhc.c ****   tmpreg &= 0xF7;
 261              		.loc 1 206 3 is_stmt 1 view .LVU56
 262              		.loc 1 206 10 is_stmt 0 view .LVU57
 263 000c 00F0F700 		and	r0, r0, #247
 264              	.LVL19:
 207:Drivers/BSP/Components/lsm303dlhc/lsm303dlhc.c ****   
 208:Drivers/BSP/Components/lsm303dlhc/lsm303dlhc.c ****   tmpreg |= HighPassFilterState;
 265              		.loc 1 208 3 is_stmt 1 view .LVU58
 209:Drivers/BSP/Components/lsm303dlhc/lsm303dlhc.c ****   
 210:Drivers/BSP/Components/lsm303dlhc/lsm303dlhc.c ****   /* Write value to ACC MEMS CTRL_REG2 register */
 211:Drivers/BSP/Components/lsm303dlhc/lsm303dlhc.c ****   COMPASSACCELERO_IO_Write(ACC_I2C_ADDRESS, LSM303DLHC_CTRL_REG2_A, tmpreg);
 266              		.loc 1 211 3 view .LVU59
 267 0010 40EA0402 		orr	r2, r0, r4
 268 0014 2121     		movs	r1, #33
 212:Drivers/BSP/Components/lsm303dlhc/lsm303dlhc.c **** }
 269              		.loc 1 212 1 is_stmt 0 view .LVU60
 270 0016 BDE81040 		pop	{r4, lr}
 271              		.cfi_restore 14
 272              		.cfi_restore 4
 273              		.cfi_def_cfa_offset 0
 274              	.LVL20:
 211:Drivers/BSP/Components/lsm303dlhc/lsm303dlhc.c **** }
 275              		.loc 1 211 3 view .LVU61
 276 001a 3220     		movs	r0, #50
 211:Drivers/BSP/Components/lsm303dlhc/lsm303dlhc.c **** }
 277              		.loc 1 211 3 view .LVU62
 278 001c FFF7FEBF 		b	COMPASSACCELERO_IO_Write
 279              	.LVL21:
 280              		.cfi_endproc
 281              	.LFE5:
 283              		.section	.text.LSM303DLHC_AccReadXYZ,"ax",%progbits
 284              		.align	1
 285              		.p2align 2,,3
 286              		.global	LSM303DLHC_AccReadXYZ
 287              		.syntax unified
 288              		.thumb
ARM GAS  /var/folders/0z/tsy30v1j4xl4_7kw94k978ww0000gn/T//ccpK988n.s 			page 10


 289              		.thumb_func
 291              	LSM303DLHC_AccReadXYZ:
 292              	.LVL22:
 293              	.LFB6:
 213:Drivers/BSP/Components/lsm303dlhc/lsm303dlhc.c **** 
 214:Drivers/BSP/Components/lsm303dlhc/lsm303dlhc.c **** /**
 215:Drivers/BSP/Components/lsm303dlhc/lsm303dlhc.c ****   * @brief  Read X, Y & Z Acceleration values 
 216:Drivers/BSP/Components/lsm303dlhc/lsm303dlhc.c ****   * @param  pData: Data out pointer
 217:Drivers/BSP/Components/lsm303dlhc/lsm303dlhc.c ****   * @retval None
 218:Drivers/BSP/Components/lsm303dlhc/lsm303dlhc.c ****   */
 219:Drivers/BSP/Components/lsm303dlhc/lsm303dlhc.c **** void LSM303DLHC_AccReadXYZ(int16_t* pData)
 220:Drivers/BSP/Components/lsm303dlhc/lsm303dlhc.c **** {
 294              		.loc 1 220 1 is_stmt 1 view -0
 295              		.cfi_startproc
 296              		@ args = 0, pretend = 0, frame = 0
 297              		@ frame_needed = 0, uses_anonymous_args = 0
 221:Drivers/BSP/Components/lsm303dlhc/lsm303dlhc.c ****   int16_t pnRawData[3];
 298              		.loc 1 221 3 view .LVU64
 222:Drivers/BSP/Components/lsm303dlhc/lsm303dlhc.c ****   uint8_t ctrlx[2]={0,0};
 299              		.loc 1 222 3 view .LVU65
 223:Drivers/BSP/Components/lsm303dlhc/lsm303dlhc.c ****   int8_t buffer[6];
 300              		.loc 1 223 3 view .LVU66
 224:Drivers/BSP/Components/lsm303dlhc/lsm303dlhc.c ****   uint8_t i = 0;
 301              		.loc 1 224 3 view .LVU67
 225:Drivers/BSP/Components/lsm303dlhc/lsm303dlhc.c ****   uint8_t sensitivity = LSM303DLHC_ACC_SENSITIVITY_2G;
 302              		.loc 1 225 3 view .LVU68
 226:Drivers/BSP/Components/lsm303dlhc/lsm303dlhc.c ****   
 227:Drivers/BSP/Components/lsm303dlhc/lsm303dlhc.c ****   /* Read the acceleration control register content */
 228:Drivers/BSP/Components/lsm303dlhc/lsm303dlhc.c ****   ctrlx[0] = COMPASSACCELERO_IO_Read(ACC_I2C_ADDRESS, LSM303DLHC_CTRL_REG4_A);
 303              		.loc 1 228 3 view .LVU69
 220:Drivers/BSP/Components/lsm303dlhc/lsm303dlhc.c ****   int16_t pnRawData[3];
 304              		.loc 1 220 1 is_stmt 0 view .LVU70
 305 0000 2DE9F047 		push	{r4, r5, r6, r7, r8, r9, r10, lr}
 306              		.cfi_def_cfa_offset 32
 307              		.cfi_offset 4, -32
 308              		.cfi_offset 5, -28
 309              		.cfi_offset 6, -24
 310              		.cfi_offset 7, -20
 311              		.cfi_offset 8, -16
 312              		.cfi_offset 9, -12
 313              		.cfi_offset 10, -8
 314              		.cfi_offset 14, -4
 315              		.loc 1 228 14 view .LVU71
 316 0004 2321     		movs	r1, #35
 220:Drivers/BSP/Components/lsm303dlhc/lsm303dlhc.c ****   int16_t pnRawData[3];
 317              		.loc 1 220 1 view .LVU72
 318 0006 0646     		mov	r6, r0
 319              		.loc 1 228 14 view .LVU73
 320 0008 3220     		movs	r0, #50
 321              	.LVL23:
 322              		.loc 1 228 14 view .LVU74
 323 000a FFF7FEFF 		bl	COMPASSACCELERO_IO_Read
 324              	.LVL24:
 229:Drivers/BSP/Components/lsm303dlhc/lsm303dlhc.c ****   ctrlx[1] = COMPASSACCELERO_IO_Read(ACC_I2C_ADDRESS, LSM303DLHC_CTRL_REG5_A);
 325              		.loc 1 229 14 view .LVU75
 326 000e 2421     		movs	r1, #36
 228:Drivers/BSP/Components/lsm303dlhc/lsm303dlhc.c ****   ctrlx[1] = COMPASSACCELERO_IO_Read(ACC_I2C_ADDRESS, LSM303DLHC_CTRL_REG5_A);
ARM GAS  /var/folders/0z/tsy30v1j4xl4_7kw94k978ww0000gn/T//ccpK988n.s 			page 11


 327              		.loc 1 228 14 view .LVU76
 328 0010 0746     		mov	r7, r0
 329              		.loc 1 229 14 view .LVU77
 330 0012 3220     		movs	r0, #50
 331              	.LVL25:
 332              		.loc 1 229 3 is_stmt 1 view .LVU78
 333              		.loc 1 229 14 is_stmt 0 view .LVU79
 334 0014 FFF7FEFF 		bl	COMPASSACCELERO_IO_Read
 335              	.LVL26:
 230:Drivers/BSP/Components/lsm303dlhc/lsm303dlhc.c ****   
 231:Drivers/BSP/Components/lsm303dlhc/lsm303dlhc.c ****   /* Read output register X, Y & Z acceleration */
 232:Drivers/BSP/Components/lsm303dlhc/lsm303dlhc.c ****   buffer[0] = COMPASSACCELERO_IO_Read(ACC_I2C_ADDRESS, LSM303DLHC_OUT_X_L_A); 
 336              		.loc 1 232 3 is_stmt 1 view .LVU80
 337              		.loc 1 232 15 is_stmt 0 view .LVU81
 338 0018 2821     		movs	r1, #40
 339 001a 3220     		movs	r0, #50
 340 001c FFF7FEFF 		bl	COMPASSACCELERO_IO_Read
 341              	.LVL27:
 233:Drivers/BSP/Components/lsm303dlhc/lsm303dlhc.c ****   buffer[1] = COMPASSACCELERO_IO_Read(ACC_I2C_ADDRESS, LSM303DLHC_OUT_X_H_A);
 342              		.loc 1 233 15 view .LVU82
 343 0020 2921     		movs	r1, #41
 232:Drivers/BSP/Components/lsm303dlhc/lsm303dlhc.c ****   buffer[1] = COMPASSACCELERO_IO_Read(ACC_I2C_ADDRESS, LSM303DLHC_OUT_X_H_A);
 344              		.loc 1 232 15 view .LVU83
 345 0022 8046     		mov	r8, r0
 346              		.loc 1 233 15 view .LVU84
 347 0024 3220     		movs	r0, #50
 348 0026 FFF7FEFF 		bl	COMPASSACCELERO_IO_Read
 349              	.LVL28:
 234:Drivers/BSP/Components/lsm303dlhc/lsm303dlhc.c ****   buffer[2] = COMPASSACCELERO_IO_Read(ACC_I2C_ADDRESS, LSM303DLHC_OUT_Y_L_A);
 350              		.loc 1 234 15 view .LVU85
 351 002a 2A21     		movs	r1, #42
 233:Drivers/BSP/Components/lsm303dlhc/lsm303dlhc.c ****   buffer[1] = COMPASSACCELERO_IO_Read(ACC_I2C_ADDRESS, LSM303DLHC_OUT_X_H_A);
 352              		.loc 1 233 15 view .LVU86
 353 002c 4FFA80F9 		sxtb	r9, r0
 354              		.loc 1 234 15 view .LVU87
 355 0030 3220     		movs	r0, #50
 356 0032 FFF7FEFF 		bl	COMPASSACCELERO_IO_Read
 357              	.LVL29:
 235:Drivers/BSP/Components/lsm303dlhc/lsm303dlhc.c ****   buffer[3] = COMPASSACCELERO_IO_Read(ACC_I2C_ADDRESS, LSM303DLHC_OUT_Y_H_A);
 358              		.loc 1 235 15 view .LVU88
 359 0036 2B21     		movs	r1, #43
 234:Drivers/BSP/Components/lsm303dlhc/lsm303dlhc.c ****   buffer[2] = COMPASSACCELERO_IO_Read(ACC_I2C_ADDRESS, LSM303DLHC_OUT_Y_L_A);
 360              		.loc 1 234 15 view .LVU89
 361 0038 44B2     		sxtb	r4, r0
 362              		.loc 1 235 15 view .LVU90
 363 003a 3220     		movs	r0, #50
 364 003c FFF7FEFF 		bl	COMPASSACCELERO_IO_Read
 365              	.LVL30:
 236:Drivers/BSP/Components/lsm303dlhc/lsm303dlhc.c ****   buffer[4] = COMPASSACCELERO_IO_Read(ACC_I2C_ADDRESS, LSM303DLHC_OUT_Z_L_A);
 366              		.loc 1 236 15 view .LVU91
 367 0040 2C21     		movs	r1, #44
 235:Drivers/BSP/Components/lsm303dlhc/lsm303dlhc.c ****   buffer[3] = COMPASSACCELERO_IO_Read(ACC_I2C_ADDRESS, LSM303DLHC_OUT_Y_H_A);
 368              		.loc 1 235 15 view .LVU92
 369 0042 4FFA80FA 		sxtb	r10, r0
 370              		.loc 1 236 15 view .LVU93
 371 0046 3220     		movs	r0, #50
 372 0048 FFF7FEFF 		bl	COMPASSACCELERO_IO_Read
ARM GAS  /var/folders/0z/tsy30v1j4xl4_7kw94k978ww0000gn/T//ccpK988n.s 			page 12


 373              	.LVL31:
 237:Drivers/BSP/Components/lsm303dlhc/lsm303dlhc.c ****   buffer[5] = COMPASSACCELERO_IO_Read(ACC_I2C_ADDRESS, LSM303DLHC_OUT_Z_H_A);
 374              		.loc 1 237 15 view .LVU94
 375 004c 2D21     		movs	r1, #45
 236:Drivers/BSP/Components/lsm303dlhc/lsm303dlhc.c ****   buffer[4] = COMPASSACCELERO_IO_Read(ACC_I2C_ADDRESS, LSM303DLHC_OUT_Z_L_A);
 376              		.loc 1 236 15 view .LVU95
 377 004e 45B2     		sxtb	r5, r0
 378              		.loc 1 237 15 view .LVU96
 379 0050 3220     		movs	r0, #50
 380 0052 FFF7FEFF 		bl	COMPASSACCELERO_IO_Read
 381              	.LVL32:
 238:Drivers/BSP/Components/lsm303dlhc/lsm303dlhc.c ****   
 239:Drivers/BSP/Components/lsm303dlhc/lsm303dlhc.c ****   /* Check in the control register4 the data alignment*/
 240:Drivers/BSP/Components/lsm303dlhc/lsm303dlhc.c ****   if(!(ctrlx[0] & LSM303DLHC_BLE_MSB)) 
 382              		.loc 1 240 5 view .LVU97
 383 0056 7B06     		lsls	r3, r7, #25
 232:Drivers/BSP/Components/lsm303dlhc/lsm303dlhc.c ****   buffer[1] = COMPASSACCELERO_IO_Read(ACC_I2C_ADDRESS, LSM303DLHC_OUT_X_H_A);
 384              		.loc 1 232 15 view .LVU98
 385 0058 4FFA88F8 		sxtb	r8, r8
 233:Drivers/BSP/Components/lsm303dlhc/lsm303dlhc.c ****   buffer[2] = COMPASSACCELERO_IO_Read(ACC_I2C_ADDRESS, LSM303DLHC_OUT_Y_L_A);
 386              		.loc 1 233 3 is_stmt 1 view .LVU99
 234:Drivers/BSP/Components/lsm303dlhc/lsm303dlhc.c ****   buffer[3] = COMPASSACCELERO_IO_Read(ACC_I2C_ADDRESS, LSM303DLHC_OUT_Y_H_A);
 387              		.loc 1 234 3 view .LVU100
 235:Drivers/BSP/Components/lsm303dlhc/lsm303dlhc.c ****   buffer[4] = COMPASSACCELERO_IO_Read(ACC_I2C_ADDRESS, LSM303DLHC_OUT_Z_L_A);
 388              		.loc 1 235 3 view .LVU101
 236:Drivers/BSP/Components/lsm303dlhc/lsm303dlhc.c ****   buffer[5] = COMPASSACCELERO_IO_Read(ACC_I2C_ADDRESS, LSM303DLHC_OUT_Z_H_A);
 389              		.loc 1 236 3 view .LVU102
 237:Drivers/BSP/Components/lsm303dlhc/lsm303dlhc.c ****   
 390              		.loc 1 237 3 view .LVU103
 237:Drivers/BSP/Components/lsm303dlhc/lsm303dlhc.c ****   
 391              		.loc 1 237 15 is_stmt 0 view .LVU104
 392 005c 42B2     		sxtb	r2, r0
 393              		.loc 1 240 3 is_stmt 1 view .LVU105
 394              		.loc 1 240 5 is_stmt 0 view .LVU106
 395 005e 1BD5     		bpl	.L14
 241:Drivers/BSP/Components/lsm303dlhc/lsm303dlhc.c ****   {
 242:Drivers/BSP/Components/lsm303dlhc/lsm303dlhc.c ****     for(i=0; i<3; i++)
 243:Drivers/BSP/Components/lsm303dlhc/lsm303dlhc.c ****     {
 244:Drivers/BSP/Components/lsm303dlhc/lsm303dlhc.c ****       pnRawData[i]=((int16_t)((uint16_t)buffer[2*i+1] << 8) + buffer[2*i]);
 245:Drivers/BSP/Components/lsm303dlhc/lsm303dlhc.c ****     }
 246:Drivers/BSP/Components/lsm303dlhc/lsm303dlhc.c ****   }
 247:Drivers/BSP/Components/lsm303dlhc/lsm303dlhc.c ****   else /* Big Endian Mode */
 248:Drivers/BSP/Components/lsm303dlhc/lsm303dlhc.c ****   {
 249:Drivers/BSP/Components/lsm303dlhc/lsm303dlhc.c ****     for(i=0; i<3; i++)
 396              		.loc 1 249 15 is_stmt 1 view .LVU107
 250:Drivers/BSP/Components/lsm303dlhc/lsm303dlhc.c ****     {
 251:Drivers/BSP/Components/lsm303dlhc/lsm303dlhc.c ****       pnRawData[i]=((int16_t)((uint16_t)buffer[2*i] << 8) + buffer[2*i+1]);
 397              		.loc 1 251 7 view .LVU108
 398 0060 07F03000 		and	r0, r7, #48
 399              		.loc 1 251 59 is_stmt 0 view .LVU109
 400 0064 0AEB0423 		add	r3, r10, r4, lsl #8
 401 0068 02EB0522 		add	r2, r2, r5, lsl #8
 402 006c 09EB0829 		add	r9, r9, r8, lsl #8
 252:Drivers/BSP/Components/lsm303dlhc/lsm303dlhc.c ****     }
 253:Drivers/BSP/Components/lsm303dlhc/lsm303dlhc.c ****   }
 254:Drivers/BSP/Components/lsm303dlhc/lsm303dlhc.c ****   
 255:Drivers/BSP/Components/lsm303dlhc/lsm303dlhc.c ****   /* Normal mode */
ARM GAS  /var/folders/0z/tsy30v1j4xl4_7kw94k978ww0000gn/T//ccpK988n.s 			page 13


 256:Drivers/BSP/Components/lsm303dlhc/lsm303dlhc.c ****   /* Switch the sensitivity value set in the CRTL4 */
 257:Drivers/BSP/Components/lsm303dlhc/lsm303dlhc.c ****   switch(ctrlx[0] & LSM303DLHC_FULLSCALE_16G)
 403              		.loc 1 257 3 view .LVU110
 404 0070 2028     		cmp	r0, #32
 251:Drivers/BSP/Components/lsm303dlhc/lsm303dlhc.c ****     }
 405              		.loc 1 251 59 view .LVU111
 406 0072 9DB2     		uxth	r5, r3
 407 0074 1FFA82FC 		uxth	ip, r2
 408 0078 1FFA89F4 		uxth	r4, r9
 409 007c 0FFA89F1 		sxth	r1, r9
 410              	.LVL33:
 249:Drivers/BSP/Components/lsm303dlhc/lsm303dlhc.c ****     {
 411              		.loc 1 249 20 is_stmt 1 view .LVU112
 249:Drivers/BSP/Components/lsm303dlhc/lsm303dlhc.c ****     {
 412              		.loc 1 249 15 view .LVU113
 251:Drivers/BSP/Components/lsm303dlhc/lsm303dlhc.c ****     }
 413              		.loc 1 251 7 view .LVU114
 251:Drivers/BSP/Components/lsm303dlhc/lsm303dlhc.c ****     }
 414              		.loc 1 251 59 is_stmt 0 view .LVU115
 415 0080 1BB2     		sxth	r3, r3
 416              	.LVL34:
 249:Drivers/BSP/Components/lsm303dlhc/lsm303dlhc.c ****     {
 417              		.loc 1 249 20 is_stmt 1 view .LVU116
 249:Drivers/BSP/Components/lsm303dlhc/lsm303dlhc.c ****     {
 418              		.loc 1 249 15 view .LVU117
 251:Drivers/BSP/Components/lsm303dlhc/lsm303dlhc.c ****     }
 419              		.loc 1 251 7 view .LVU118
 251:Drivers/BSP/Components/lsm303dlhc/lsm303dlhc.c ****     }
 420              		.loc 1 251 59 is_stmt 0 view .LVU119
 421 0082 12B2     		sxth	r2, r2
 422              	.LVL35:
 249:Drivers/BSP/Components/lsm303dlhc/lsm303dlhc.c ****     {
 423              		.loc 1 249 20 is_stmt 1 view .LVU120
 249:Drivers/BSP/Components/lsm303dlhc/lsm303dlhc.c ****     {
 424              		.loc 1 249 15 view .LVU121
 425              		.loc 1 257 3 view .LVU122
 426 0084 19D0     		beq	.L16
 427              	.L21:
 428 0086 3028     		cmp	r0, #48
 429 0088 2FD0     		beq	.L17
 430 008a 1028     		cmp	r0, #16
 431 008c 21D0     		beq	.L20
 432              	.LVL36:
 258:Drivers/BSP/Components/lsm303dlhc/lsm303dlhc.c ****   {
 259:Drivers/BSP/Components/lsm303dlhc/lsm303dlhc.c ****   case LSM303DLHC_FULLSCALE_2G:
 260:Drivers/BSP/Components/lsm303dlhc/lsm303dlhc.c ****     sensitivity = LSM303DLHC_ACC_SENSITIVITY_2G;
 261:Drivers/BSP/Components/lsm303dlhc/lsm303dlhc.c ****     break;
 262:Drivers/BSP/Components/lsm303dlhc/lsm303dlhc.c ****   case LSM303DLHC_FULLSCALE_4G:
 263:Drivers/BSP/Components/lsm303dlhc/lsm303dlhc.c ****     sensitivity = LSM303DLHC_ACC_SENSITIVITY_4G;
 264:Drivers/BSP/Components/lsm303dlhc/lsm303dlhc.c ****     break;
 265:Drivers/BSP/Components/lsm303dlhc/lsm303dlhc.c ****   case LSM303DLHC_FULLSCALE_8G:
 266:Drivers/BSP/Components/lsm303dlhc/lsm303dlhc.c ****     sensitivity = LSM303DLHC_ACC_SENSITIVITY_8G;
 267:Drivers/BSP/Components/lsm303dlhc/lsm303dlhc.c ****     break;
 268:Drivers/BSP/Components/lsm303dlhc/lsm303dlhc.c ****   case LSM303DLHC_FULLSCALE_16G:
 269:Drivers/BSP/Components/lsm303dlhc/lsm303dlhc.c ****     sensitivity = LSM303DLHC_ACC_SENSITIVITY_16G;
 270:Drivers/BSP/Components/lsm303dlhc/lsm303dlhc.c ****     break;
 271:Drivers/BSP/Components/lsm303dlhc/lsm303dlhc.c ****   }
ARM GAS  /var/folders/0z/tsy30v1j4xl4_7kw94k978ww0000gn/T//ccpK988n.s 			page 14


 272:Drivers/BSP/Components/lsm303dlhc/lsm303dlhc.c ****   
 273:Drivers/BSP/Components/lsm303dlhc/lsm303dlhc.c ****   /* Obtain the mg value for the three axis */
 274:Drivers/BSP/Components/lsm303dlhc/lsm303dlhc.c ****   for(i=0; i<3; i++)
 433              		.loc 1 274 3 view .LVU123
 434              		.loc 1 274 13 view .LVU124
 275:Drivers/BSP/Components/lsm303dlhc/lsm303dlhc.c ****   {
 276:Drivers/BSP/Components/lsm303dlhc/lsm303dlhc.c ****     pData[i]=(pnRawData[i] * sensitivity);
 435              		.loc 1 276 5 view .LVU125
 436              		.loc 1 276 13 is_stmt 0 view .LVU126
 437 008e 3180     		strh	r1, [r6]	@ movhi
 274:Drivers/BSP/Components/lsm303dlhc/lsm303dlhc.c ****   {
 438              		.loc 1 274 18 is_stmt 1 view .LVU127
 439              	.LVL37:
 274:Drivers/BSP/Components/lsm303dlhc/lsm303dlhc.c ****   {
 440              		.loc 1 274 13 view .LVU128
 441              		.loc 1 276 5 view .LVU129
 442              		.loc 1 276 13 is_stmt 0 view .LVU130
 443 0090 7380     		strh	r3, [r6, #2]	@ movhi
 274:Drivers/BSP/Components/lsm303dlhc/lsm303dlhc.c ****   {
 444              		.loc 1 274 18 is_stmt 1 view .LVU131
 445              	.LVL38:
 274:Drivers/BSP/Components/lsm303dlhc/lsm303dlhc.c ****   {
 446              		.loc 1 274 13 view .LVU132
 447              		.loc 1 276 5 view .LVU133
 448              		.loc 1 276 13 is_stmt 0 view .LVU134
 449 0092 B280     		strh	r2, [r6, #4]	@ movhi
 274:Drivers/BSP/Components/lsm303dlhc/lsm303dlhc.c ****   {
 450              		.loc 1 274 18 is_stmt 1 view .LVU135
 451              	.LVL39:
 274:Drivers/BSP/Components/lsm303dlhc/lsm303dlhc.c ****   {
 452              		.loc 1 274 13 view .LVU136
 277:Drivers/BSP/Components/lsm303dlhc/lsm303dlhc.c ****   }
 278:Drivers/BSP/Components/lsm303dlhc/lsm303dlhc.c **** }
 453              		.loc 1 278 1 is_stmt 0 view .LVU137
 454 0094 BDE8F087 		pop	{r4, r5, r6, r7, r8, r9, r10, pc}
 455              	.LVL40:
 456              	.L14:
 242:Drivers/BSP/Components/lsm303dlhc/lsm303dlhc.c ****     {
 457              		.loc 1 242 15 is_stmt 1 view .LVU138
 244:Drivers/BSP/Components/lsm303dlhc/lsm303dlhc.c ****     }
 458              		.loc 1 244 7 view .LVU139
 459 0098 07F03000 		and	r0, r7, #48
 244:Drivers/BSP/Components/lsm303dlhc/lsm303dlhc.c ****     }
 460              		.loc 1 244 61 is_stmt 0 view .LVU140
 461 009c 04EB0A23 		add	r3, r4, r10, lsl #8
 462 00a0 05EB0222 		add	r2, r5, r2, lsl #8
 463 00a4 08EB0921 		add	r1, r8, r9, lsl #8
 257:Drivers/BSP/Components/lsm303dlhc/lsm303dlhc.c ****   {
 464              		.loc 1 257 3 view .LVU141
 465 00a8 2028     		cmp	r0, #32
 244:Drivers/BSP/Components/lsm303dlhc/lsm303dlhc.c ****     }
 466              		.loc 1 244 61 view .LVU142
 467 00aa 8CB2     		uxth	r4, r1
 468 00ac 9DB2     		uxth	r5, r3
 469 00ae 1FFA82FC 		uxth	ip, r2
 470 00b2 09B2     		sxth	r1, r1
 471              	.LVL41:
ARM GAS  /var/folders/0z/tsy30v1j4xl4_7kw94k978ww0000gn/T//ccpK988n.s 			page 15


 242:Drivers/BSP/Components/lsm303dlhc/lsm303dlhc.c ****     {
 472              		.loc 1 242 20 is_stmt 1 view .LVU143
 242:Drivers/BSP/Components/lsm303dlhc/lsm303dlhc.c ****     {
 473              		.loc 1 242 15 view .LVU144
 244:Drivers/BSP/Components/lsm303dlhc/lsm303dlhc.c ****     }
 474              		.loc 1 244 7 view .LVU145
 244:Drivers/BSP/Components/lsm303dlhc/lsm303dlhc.c ****     }
 475              		.loc 1 244 61 is_stmt 0 view .LVU146
 476 00b4 1BB2     		sxth	r3, r3
 477              	.LVL42:
 242:Drivers/BSP/Components/lsm303dlhc/lsm303dlhc.c ****     {
 478              		.loc 1 242 20 is_stmt 1 view .LVU147
 242:Drivers/BSP/Components/lsm303dlhc/lsm303dlhc.c ****     {
 479              		.loc 1 242 15 view .LVU148
 244:Drivers/BSP/Components/lsm303dlhc/lsm303dlhc.c ****     }
 480              		.loc 1 244 7 view .LVU149
 244:Drivers/BSP/Components/lsm303dlhc/lsm303dlhc.c ****     }
 481              		.loc 1 244 61 is_stmt 0 view .LVU150
 482 00b6 12B2     		sxth	r2, r2
 483              	.LVL43:
 242:Drivers/BSP/Components/lsm303dlhc/lsm303dlhc.c ****     {
 484              		.loc 1 242 20 is_stmt 1 view .LVU151
 242:Drivers/BSP/Components/lsm303dlhc/lsm303dlhc.c ****     {
 485              		.loc 1 242 15 view .LVU152
 257:Drivers/BSP/Components/lsm303dlhc/lsm303dlhc.c ****   {
 486              		.loc 1 257 3 view .LVU153
 487 00b8 E5D1     		bne	.L21
 488              	.L16:
 266:Drivers/BSP/Components/lsm303dlhc/lsm303dlhc.c ****     break;
 489              		.loc 1 266 5 view .LVU154
 490              	.LVL44:
 267:Drivers/BSP/Components/lsm303dlhc/lsm303dlhc.c ****   case LSM303DLHC_FULLSCALE_16G:
 491              		.loc 1 267 5 view .LVU155
 276:Drivers/BSP/Components/lsm303dlhc/lsm303dlhc.c ****   }
 492              		.loc 1 276 13 is_stmt 0 view .LVU156
 493 00ba A400     		lsls	r4, r4, #2
 494 00bc AB00     		lsls	r3, r5, #2
 495 00be 4FEA8C02 		lsl	r2, ip, #2
 496 00c2 21B2     		sxth	r1, r4
 497 00c4 1BB2     		sxth	r3, r3
 498 00c6 12B2     		sxth	r2, r2
 499              	.LVL45:
 274:Drivers/BSP/Components/lsm303dlhc/lsm303dlhc.c ****   {
 500              		.loc 1 274 3 is_stmt 1 view .LVU157
 274:Drivers/BSP/Components/lsm303dlhc/lsm303dlhc.c ****   {
 501              		.loc 1 274 13 view .LVU158
 276:Drivers/BSP/Components/lsm303dlhc/lsm303dlhc.c ****   }
 502              		.loc 1 276 5 view .LVU159
 276:Drivers/BSP/Components/lsm303dlhc/lsm303dlhc.c ****   }
 503              		.loc 1 276 13 is_stmt 0 view .LVU160
 504 00c8 3180     		strh	r1, [r6]	@ movhi
 274:Drivers/BSP/Components/lsm303dlhc/lsm303dlhc.c ****   {
 505              		.loc 1 274 18 is_stmt 1 view .LVU161
 506              	.LVL46:
 274:Drivers/BSP/Components/lsm303dlhc/lsm303dlhc.c ****   {
 507              		.loc 1 274 13 view .LVU162
 276:Drivers/BSP/Components/lsm303dlhc/lsm303dlhc.c ****   }
ARM GAS  /var/folders/0z/tsy30v1j4xl4_7kw94k978ww0000gn/T//ccpK988n.s 			page 16


 508              		.loc 1 276 5 view .LVU163
 276:Drivers/BSP/Components/lsm303dlhc/lsm303dlhc.c ****   }
 509              		.loc 1 276 13 is_stmt 0 view .LVU164
 510 00ca 7380     		strh	r3, [r6, #2]	@ movhi
 274:Drivers/BSP/Components/lsm303dlhc/lsm303dlhc.c ****   {
 511              		.loc 1 274 18 is_stmt 1 view .LVU165
 512              	.LVL47:
 274:Drivers/BSP/Components/lsm303dlhc/lsm303dlhc.c ****   {
 513              		.loc 1 274 13 view .LVU166
 276:Drivers/BSP/Components/lsm303dlhc/lsm303dlhc.c ****   }
 514              		.loc 1 276 5 view .LVU167
 276:Drivers/BSP/Components/lsm303dlhc/lsm303dlhc.c ****   }
 515              		.loc 1 276 13 is_stmt 0 view .LVU168
 516 00cc B280     		strh	r2, [r6, #4]	@ movhi
 274:Drivers/BSP/Components/lsm303dlhc/lsm303dlhc.c ****   {
 517              		.loc 1 274 18 is_stmt 1 view .LVU169
 518              	.LVL48:
 274:Drivers/BSP/Components/lsm303dlhc/lsm303dlhc.c ****   {
 519              		.loc 1 274 13 view .LVU170
 520              		.loc 1 278 1 is_stmt 0 view .LVU171
 521 00ce BDE8F087 		pop	{r4, r5, r6, r7, r8, r9, r10, pc}
 522              	.LVL49:
 523              	.L20:
 263:Drivers/BSP/Components/lsm303dlhc/lsm303dlhc.c ****     break;
 524              		.loc 1 263 5 is_stmt 1 view .LVU172
 264:Drivers/BSP/Components/lsm303dlhc/lsm303dlhc.c ****   case LSM303DLHC_FULLSCALE_8G:
 525              		.loc 1 264 5 view .LVU173
 276:Drivers/BSP/Components/lsm303dlhc/lsm303dlhc.c ****   }
 526              		.loc 1 276 13 is_stmt 0 view .LVU174
 527 00d2 6400     		lsls	r4, r4, #1
 528 00d4 6B00     		lsls	r3, r5, #1
 529 00d6 4FEA4C02 		lsl	r2, ip, #1
 530 00da 21B2     		sxth	r1, r4
 531 00dc 1BB2     		sxth	r3, r3
 532 00de 12B2     		sxth	r2, r2
 533              	.LVL50:
 274:Drivers/BSP/Components/lsm303dlhc/lsm303dlhc.c ****   {
 534              		.loc 1 274 3 is_stmt 1 view .LVU175
 274:Drivers/BSP/Components/lsm303dlhc/lsm303dlhc.c ****   {
 535              		.loc 1 274 13 view .LVU176
 276:Drivers/BSP/Components/lsm303dlhc/lsm303dlhc.c ****   }
 536              		.loc 1 276 5 view .LVU177
 276:Drivers/BSP/Components/lsm303dlhc/lsm303dlhc.c ****   }
 537              		.loc 1 276 13 is_stmt 0 view .LVU178
 538 00e0 3180     		strh	r1, [r6]	@ movhi
 274:Drivers/BSP/Components/lsm303dlhc/lsm303dlhc.c ****   {
 539              		.loc 1 274 18 is_stmt 1 view .LVU179
 540              	.LVL51:
 274:Drivers/BSP/Components/lsm303dlhc/lsm303dlhc.c ****   {
 541              		.loc 1 274 13 view .LVU180
 276:Drivers/BSP/Components/lsm303dlhc/lsm303dlhc.c ****   }
 542              		.loc 1 276 5 view .LVU181
 276:Drivers/BSP/Components/lsm303dlhc/lsm303dlhc.c ****   }
 543              		.loc 1 276 13 is_stmt 0 view .LVU182
 544 00e2 7380     		strh	r3, [r6, #2]	@ movhi
 274:Drivers/BSP/Components/lsm303dlhc/lsm303dlhc.c ****   {
 545              		.loc 1 274 18 is_stmt 1 view .LVU183
ARM GAS  /var/folders/0z/tsy30v1j4xl4_7kw94k978ww0000gn/T//ccpK988n.s 			page 17


 546              	.LVL52:
 274:Drivers/BSP/Components/lsm303dlhc/lsm303dlhc.c ****   {
 547              		.loc 1 274 13 view .LVU184
 276:Drivers/BSP/Components/lsm303dlhc/lsm303dlhc.c ****   }
 548              		.loc 1 276 5 view .LVU185
 276:Drivers/BSP/Components/lsm303dlhc/lsm303dlhc.c ****   }
 549              		.loc 1 276 13 is_stmt 0 view .LVU186
 550 00e4 B280     		strh	r2, [r6, #4]	@ movhi
 274:Drivers/BSP/Components/lsm303dlhc/lsm303dlhc.c ****   {
 551              		.loc 1 274 18 is_stmt 1 view .LVU187
 552              	.LVL53:
 274:Drivers/BSP/Components/lsm303dlhc/lsm303dlhc.c ****   {
 553              		.loc 1 274 13 view .LVU188
 554              		.loc 1 278 1 is_stmt 0 view .LVU189
 555 00e6 BDE8F087 		pop	{r4, r5, r6, r7, r8, r9, r10, pc}
 556              	.LVL54:
 557              	.L17:
 269:Drivers/BSP/Components/lsm303dlhc/lsm303dlhc.c ****     break;
 558              		.loc 1 269 5 is_stmt 1 view .LVU190
 270:Drivers/BSP/Components/lsm303dlhc/lsm303dlhc.c ****   }
 559              		.loc 1 270 5 view .LVU191
 276:Drivers/BSP/Components/lsm303dlhc/lsm303dlhc.c ****   }
 560              		.loc 1 276 13 is_stmt 0 view .LVU192
 561 00ea 04EB4404 		add	r4, r4, r4, lsl #1
 562 00ee 05EB4505 		add	r5, r5, r5, lsl #1
 563 00f2 0CEB4C02 		add	r2, ip, ip, lsl #1
 564 00f6 A400     		lsls	r4, r4, #2
 565 00f8 AD00     		lsls	r5, r5, #2
 566 00fa 9200     		lsls	r2, r2, #2
 567 00fc 21B2     		sxth	r1, r4
 568 00fe 2BB2     		sxth	r3, r5
 569 0100 12B2     		sxth	r2, r2
 570              	.LVL55:
 274:Drivers/BSP/Components/lsm303dlhc/lsm303dlhc.c ****   {
 571              		.loc 1 274 3 is_stmt 1 view .LVU193
 274:Drivers/BSP/Components/lsm303dlhc/lsm303dlhc.c ****   {
 572              		.loc 1 274 13 view .LVU194
 276:Drivers/BSP/Components/lsm303dlhc/lsm303dlhc.c ****   }
 573              		.loc 1 276 5 view .LVU195
 276:Drivers/BSP/Components/lsm303dlhc/lsm303dlhc.c ****   }
 574              		.loc 1 276 13 is_stmt 0 view .LVU196
 575 0102 3180     		strh	r1, [r6]	@ movhi
 274:Drivers/BSP/Components/lsm303dlhc/lsm303dlhc.c ****   {
 576              		.loc 1 274 18 is_stmt 1 view .LVU197
 577              	.LVL56:
 274:Drivers/BSP/Components/lsm303dlhc/lsm303dlhc.c ****   {
 578              		.loc 1 274 13 view .LVU198
 276:Drivers/BSP/Components/lsm303dlhc/lsm303dlhc.c ****   }
 579              		.loc 1 276 5 view .LVU199
 276:Drivers/BSP/Components/lsm303dlhc/lsm303dlhc.c ****   }
 580              		.loc 1 276 13 is_stmt 0 view .LVU200
 581 0104 7380     		strh	r3, [r6, #2]	@ movhi
 274:Drivers/BSP/Components/lsm303dlhc/lsm303dlhc.c ****   {
 582              		.loc 1 274 18 is_stmt 1 view .LVU201
 583              	.LVL57:
 274:Drivers/BSP/Components/lsm303dlhc/lsm303dlhc.c ****   {
 584              		.loc 1 274 13 view .LVU202
ARM GAS  /var/folders/0z/tsy30v1j4xl4_7kw94k978ww0000gn/T//ccpK988n.s 			page 18


 276:Drivers/BSP/Components/lsm303dlhc/lsm303dlhc.c ****   }
 585              		.loc 1 276 5 view .LVU203
 276:Drivers/BSP/Components/lsm303dlhc/lsm303dlhc.c ****   }
 586              		.loc 1 276 13 is_stmt 0 view .LVU204
 587 0106 B280     		strh	r2, [r6, #4]	@ movhi
 274:Drivers/BSP/Components/lsm303dlhc/lsm303dlhc.c ****   {
 588              		.loc 1 274 18 is_stmt 1 view .LVU205
 589              	.LVL58:
 274:Drivers/BSP/Components/lsm303dlhc/lsm303dlhc.c ****   {
 590              		.loc 1 274 13 view .LVU206
 591              		.loc 1 278 1 is_stmt 0 view .LVU207
 592 0108 BDE8F087 		pop	{r4, r5, r6, r7, r8, r9, r10, pc}
 593              		.loc 1 278 1 view .LVU208
 594              		.cfi_endproc
 595              	.LFE6:
 597              		.section	.text.LSM303DLHC_AccZClickITConfig,"ax",%progbits
 598              		.align	1
 599              		.p2align 2,,3
 600              		.global	LSM303DLHC_AccZClickITConfig
 601              		.syntax unified
 602              		.thumb
 603              		.thumb_func
 605              	LSM303DLHC_AccZClickITConfig:
 606              	.LFB18:
 279:Drivers/BSP/Components/lsm303dlhc/lsm303dlhc.c **** 
 280:Drivers/BSP/Components/lsm303dlhc/lsm303dlhc.c **** /**
 281:Drivers/BSP/Components/lsm303dlhc/lsm303dlhc.c ****   * @brief  Enable or Disable High Pass Filter on CLick
 282:Drivers/BSP/Components/lsm303dlhc/lsm303dlhc.c ****   * @param  HighPassFilterState: new state of the High Pass Filter feature.
 283:Drivers/BSP/Components/lsm303dlhc/lsm303dlhc.c ****   *      This parameter can be: 
 284:Drivers/BSP/Components/lsm303dlhc/lsm303dlhc.c ****   *         @arg: LSM303DLHC_HPF_CLICK_DISABLE 
 285:Drivers/BSP/Components/lsm303dlhc/lsm303dlhc.c ****   *         @arg: LSM303DLHC_HPF_CLICK_ENABLE
 286:Drivers/BSP/Components/lsm303dlhc/lsm303dlhc.c ****   * @retval None
 287:Drivers/BSP/Components/lsm303dlhc/lsm303dlhc.c ****   */
 288:Drivers/BSP/Components/lsm303dlhc/lsm303dlhc.c **** void LSM303DLHC_AccFilterClickCmd(uint8_t HighPassFilterClickState)
 289:Drivers/BSP/Components/lsm303dlhc/lsm303dlhc.c **** {
 290:Drivers/BSP/Components/lsm303dlhc/lsm303dlhc.c ****   uint8_t tmpreg = 0x00;
 291:Drivers/BSP/Components/lsm303dlhc/lsm303dlhc.c ****   
 292:Drivers/BSP/Components/lsm303dlhc/lsm303dlhc.c ****   /* Read CTRL_REG2 register */
 293:Drivers/BSP/Components/lsm303dlhc/lsm303dlhc.c ****   tmpreg = COMPASSACCELERO_IO_Read(ACC_I2C_ADDRESS, LSM303DLHC_CTRL_REG2_A);
 294:Drivers/BSP/Components/lsm303dlhc/lsm303dlhc.c ****   
 295:Drivers/BSP/Components/lsm303dlhc/lsm303dlhc.c ****   tmpreg &= ~(LSM303DLHC_HPF_CLICK_ENABLE);
 296:Drivers/BSP/Components/lsm303dlhc/lsm303dlhc.c ****   
 297:Drivers/BSP/Components/lsm303dlhc/lsm303dlhc.c ****   tmpreg |= HighPassFilterClickState;
 298:Drivers/BSP/Components/lsm303dlhc/lsm303dlhc.c ****   
 299:Drivers/BSP/Components/lsm303dlhc/lsm303dlhc.c ****   /* Write value to ACC MEMS CTRL_REG2 regsister */
 300:Drivers/BSP/Components/lsm303dlhc/lsm303dlhc.c ****   COMPASSACCELERO_IO_Write(ACC_I2C_ADDRESS, LSM303DLHC_CTRL_REG2_A, tmpreg);
 301:Drivers/BSP/Components/lsm303dlhc/lsm303dlhc.c **** }
 302:Drivers/BSP/Components/lsm303dlhc/lsm303dlhc.c **** 
 303:Drivers/BSP/Components/lsm303dlhc/lsm303dlhc.c **** /**
 304:Drivers/BSP/Components/lsm303dlhc/lsm303dlhc.c ****   * @brief Enable LSM303DLHC Interrupt1
 305:Drivers/BSP/Components/lsm303dlhc/lsm303dlhc.c ****   * @param  LSM303DLHC_IT: specifies the LSM303DLHC interrupt source to be enabled.
 306:Drivers/BSP/Components/lsm303dlhc/lsm303dlhc.c ****   *           This parameter can be any combination of the following values: 
 307:Drivers/BSP/Components/lsm303dlhc/lsm303dlhc.c ****   *         @arg   LSM303DLHC_IT1_CLICK
 308:Drivers/BSP/Components/lsm303dlhc/lsm303dlhc.c ****   *         @arg   LSM303DLHC_IT1_AOI1
 309:Drivers/BSP/Components/lsm303dlhc/lsm303dlhc.c ****   *         @arg   LSM303DLHC_IT1_AOI2
 310:Drivers/BSP/Components/lsm303dlhc/lsm303dlhc.c ****   *         @arg   LSM303DLHC_IT1_DRY1
 311:Drivers/BSP/Components/lsm303dlhc/lsm303dlhc.c ****   *         @arg   LSM303DLHC_IT1_DRY2
ARM GAS  /var/folders/0z/tsy30v1j4xl4_7kw94k978ww0000gn/T//ccpK988n.s 			page 19


 312:Drivers/BSP/Components/lsm303dlhc/lsm303dlhc.c ****   *         @arg   LSM303DLHC_IT1_WTM
 313:Drivers/BSP/Components/lsm303dlhc/lsm303dlhc.c ****   *         @arg   LSM303DLHC_IT1_OVERRUN
 314:Drivers/BSP/Components/lsm303dlhc/lsm303dlhc.c ****   * @retval None
 315:Drivers/BSP/Components/lsm303dlhc/lsm303dlhc.c ****   */
 316:Drivers/BSP/Components/lsm303dlhc/lsm303dlhc.c **** void LSM303DLHC_AccIT1Enable(uint8_t LSM303DLHC_IT)
 317:Drivers/BSP/Components/lsm303dlhc/lsm303dlhc.c **** {
 318:Drivers/BSP/Components/lsm303dlhc/lsm303dlhc.c ****   uint8_t tmpval = 0x00;
 319:Drivers/BSP/Components/lsm303dlhc/lsm303dlhc.c ****   
 320:Drivers/BSP/Components/lsm303dlhc/lsm303dlhc.c ****   /* Read CTRL_REG3 register */
 321:Drivers/BSP/Components/lsm303dlhc/lsm303dlhc.c ****   tmpval = COMPASSACCELERO_IO_Read(ACC_I2C_ADDRESS, LSM303DLHC_CTRL_REG3_A);
 322:Drivers/BSP/Components/lsm303dlhc/lsm303dlhc.c ****   
 323:Drivers/BSP/Components/lsm303dlhc/lsm303dlhc.c ****   /* Enable IT1 */
 324:Drivers/BSP/Components/lsm303dlhc/lsm303dlhc.c ****   tmpval |= LSM303DLHC_IT;
 325:Drivers/BSP/Components/lsm303dlhc/lsm303dlhc.c ****   
 326:Drivers/BSP/Components/lsm303dlhc/lsm303dlhc.c ****   /* Write value to MEMS CTRL_REG3 register */
 327:Drivers/BSP/Components/lsm303dlhc/lsm303dlhc.c ****   COMPASSACCELERO_IO_Write(ACC_I2C_ADDRESS, LSM303DLHC_CTRL_REG3_A, tmpval);
 328:Drivers/BSP/Components/lsm303dlhc/lsm303dlhc.c **** }
 329:Drivers/BSP/Components/lsm303dlhc/lsm303dlhc.c **** 
 330:Drivers/BSP/Components/lsm303dlhc/lsm303dlhc.c **** /**
 331:Drivers/BSP/Components/lsm303dlhc/lsm303dlhc.c ****   * @brief Disable LSM303DLHC Interrupt1
 332:Drivers/BSP/Components/lsm303dlhc/lsm303dlhc.c ****   * @param  LSM303DLHC_IT: specifies the LSM303DLHC interrupt source to be disabled.
 333:Drivers/BSP/Components/lsm303dlhc/lsm303dlhc.c ****   *           This parameter can be any combination of the following values: 
 334:Drivers/BSP/Components/lsm303dlhc/lsm303dlhc.c ****   *         @arg   LSM303DLHC_IT1_CLICK
 335:Drivers/BSP/Components/lsm303dlhc/lsm303dlhc.c ****   *         @arg   LSM303DLHC_IT1_AOI1
 336:Drivers/BSP/Components/lsm303dlhc/lsm303dlhc.c ****   *         @arg   LSM303DLHC_IT1_AOI2
 337:Drivers/BSP/Components/lsm303dlhc/lsm303dlhc.c ****   *         @arg   LSM303DLHC_IT1_DRY1
 338:Drivers/BSP/Components/lsm303dlhc/lsm303dlhc.c ****   *         @arg   LSM303DLHC_IT1_DRY2
 339:Drivers/BSP/Components/lsm303dlhc/lsm303dlhc.c ****   *         @arg   LSM303DLHC_IT1_WTM
 340:Drivers/BSP/Components/lsm303dlhc/lsm303dlhc.c ****   *         @arg   LSM303DLHC_IT1_OVERRUN
 341:Drivers/BSP/Components/lsm303dlhc/lsm303dlhc.c ****   * @retval None
 342:Drivers/BSP/Components/lsm303dlhc/lsm303dlhc.c ****   */
 343:Drivers/BSP/Components/lsm303dlhc/lsm303dlhc.c **** void LSM303DLHC_AccIT1Disable(uint8_t LSM303DLHC_IT)
 344:Drivers/BSP/Components/lsm303dlhc/lsm303dlhc.c **** {
 345:Drivers/BSP/Components/lsm303dlhc/lsm303dlhc.c ****   uint8_t tmpval = 0x00;
 346:Drivers/BSP/Components/lsm303dlhc/lsm303dlhc.c ****   
 347:Drivers/BSP/Components/lsm303dlhc/lsm303dlhc.c ****   /* Read CTRL_REG3 register */
 348:Drivers/BSP/Components/lsm303dlhc/lsm303dlhc.c ****   tmpval = COMPASSACCELERO_IO_Read(ACC_I2C_ADDRESS, LSM303DLHC_CTRL_REG3_A);
 349:Drivers/BSP/Components/lsm303dlhc/lsm303dlhc.c ****   
 350:Drivers/BSP/Components/lsm303dlhc/lsm303dlhc.c ****   /* Disable IT1 */
 351:Drivers/BSP/Components/lsm303dlhc/lsm303dlhc.c ****   tmpval &= ~LSM303DLHC_IT;
 352:Drivers/BSP/Components/lsm303dlhc/lsm303dlhc.c ****   
 353:Drivers/BSP/Components/lsm303dlhc/lsm303dlhc.c ****   /* Write value to MEMS CTRL_REG3 register */
 354:Drivers/BSP/Components/lsm303dlhc/lsm303dlhc.c ****   COMPASSACCELERO_IO_Write(ACC_I2C_ADDRESS, LSM303DLHC_CTRL_REG3_A, tmpval);
 355:Drivers/BSP/Components/lsm303dlhc/lsm303dlhc.c **** }
 356:Drivers/BSP/Components/lsm303dlhc/lsm303dlhc.c **** 
 357:Drivers/BSP/Components/lsm303dlhc/lsm303dlhc.c **** /**
 358:Drivers/BSP/Components/lsm303dlhc/lsm303dlhc.c ****   * @brief Enable LSM303DLHC Interrupt2 
 359:Drivers/BSP/Components/lsm303dlhc/lsm303dlhc.c ****   * @param  LSM303DLHC_IT: specifies the LSM303DLHC interrupt source to be enabled.
 360:Drivers/BSP/Components/lsm303dlhc/lsm303dlhc.c ****   *           This parameter can be any combination of the following values: 
 361:Drivers/BSP/Components/lsm303dlhc/lsm303dlhc.c ****   *         @arg   LSM303DLHC_IT2_CLICK
 362:Drivers/BSP/Components/lsm303dlhc/lsm303dlhc.c ****   *         @arg   LSM303DLHC_IT2_INT1
 363:Drivers/BSP/Components/lsm303dlhc/lsm303dlhc.c ****   *         @arg   LSM303DLHC_IT2_INT2
 364:Drivers/BSP/Components/lsm303dlhc/lsm303dlhc.c ****   *         @arg   LSM303DLHC_IT2_BOOT
 365:Drivers/BSP/Components/lsm303dlhc/lsm303dlhc.c ****   *         @arg   LSM303DLHC_IT2_ACT
 366:Drivers/BSP/Components/lsm303dlhc/lsm303dlhc.c ****   *         @arg   LSM303DLHC_IT2_HLACTIVE
 367:Drivers/BSP/Components/lsm303dlhc/lsm303dlhc.c ****   * @retval None
 368:Drivers/BSP/Components/lsm303dlhc/lsm303dlhc.c ****   */
ARM GAS  /var/folders/0z/tsy30v1j4xl4_7kw94k978ww0000gn/T//ccpK988n.s 			page 20


 369:Drivers/BSP/Components/lsm303dlhc/lsm303dlhc.c **** void LSM303DLHC_AccIT2Enable(uint8_t LSM303DLHC_IT)
 370:Drivers/BSP/Components/lsm303dlhc/lsm303dlhc.c **** {
 371:Drivers/BSP/Components/lsm303dlhc/lsm303dlhc.c ****   uint8_t tmpval = 0x00;
 372:Drivers/BSP/Components/lsm303dlhc/lsm303dlhc.c ****   
 373:Drivers/BSP/Components/lsm303dlhc/lsm303dlhc.c ****   /* Read CTRL_REG3 register */
 374:Drivers/BSP/Components/lsm303dlhc/lsm303dlhc.c ****   tmpval = COMPASSACCELERO_IO_Read(ACC_I2C_ADDRESS, LSM303DLHC_CTRL_REG6_A);
 375:Drivers/BSP/Components/lsm303dlhc/lsm303dlhc.c ****   
 376:Drivers/BSP/Components/lsm303dlhc/lsm303dlhc.c ****   /* Enable IT2 */
 377:Drivers/BSP/Components/lsm303dlhc/lsm303dlhc.c ****   tmpval |= LSM303DLHC_IT;
 378:Drivers/BSP/Components/lsm303dlhc/lsm303dlhc.c ****   
 379:Drivers/BSP/Components/lsm303dlhc/lsm303dlhc.c ****   /* Write value to MEMS CTRL_REG3 register */
 380:Drivers/BSP/Components/lsm303dlhc/lsm303dlhc.c ****   COMPASSACCELERO_IO_Write(ACC_I2C_ADDRESS, LSM303DLHC_CTRL_REG6_A, tmpval);
 381:Drivers/BSP/Components/lsm303dlhc/lsm303dlhc.c **** }
 382:Drivers/BSP/Components/lsm303dlhc/lsm303dlhc.c **** 
 383:Drivers/BSP/Components/lsm303dlhc/lsm303dlhc.c **** /**
 384:Drivers/BSP/Components/lsm303dlhc/lsm303dlhc.c ****   * @brief Disable LSM303DLHC Interrupt2
 385:Drivers/BSP/Components/lsm303dlhc/lsm303dlhc.c ****   * @param  LSM303DLHC_IT: specifies the LSM303DLHC interrupt source to be disabled.
 386:Drivers/BSP/Components/lsm303dlhc/lsm303dlhc.c ****   *           This parameter can be any combination of the following values: 
 387:Drivers/BSP/Components/lsm303dlhc/lsm303dlhc.c ****   *         @arg   LSM303DLHC_IT2_CLICK
 388:Drivers/BSP/Components/lsm303dlhc/lsm303dlhc.c ****   *         @arg   LSM303DLHC_IT2_INT1
 389:Drivers/BSP/Components/lsm303dlhc/lsm303dlhc.c ****   *         @arg   LSM303DLHC_IT2_INT2
 390:Drivers/BSP/Components/lsm303dlhc/lsm303dlhc.c ****   *         @arg   LSM303DLHC_IT2_BOOT
 391:Drivers/BSP/Components/lsm303dlhc/lsm303dlhc.c ****   *         @arg   LSM303DLHC_IT2_ACT
 392:Drivers/BSP/Components/lsm303dlhc/lsm303dlhc.c ****   *         @arg   LSM303DLHC_IT2_HLACTIVE
 393:Drivers/BSP/Components/lsm303dlhc/lsm303dlhc.c ****   * @retval None
 394:Drivers/BSP/Components/lsm303dlhc/lsm303dlhc.c ****   */
 395:Drivers/BSP/Components/lsm303dlhc/lsm303dlhc.c **** void LSM303DLHC_AccIT2Disable(uint8_t LSM303DLHC_IT)
 396:Drivers/BSP/Components/lsm303dlhc/lsm303dlhc.c **** {
 397:Drivers/BSP/Components/lsm303dlhc/lsm303dlhc.c ****   uint8_t tmpval = 0x00;
 398:Drivers/BSP/Components/lsm303dlhc/lsm303dlhc.c ****   
 399:Drivers/BSP/Components/lsm303dlhc/lsm303dlhc.c ****   /* Read CTRL_REG3 register */
 400:Drivers/BSP/Components/lsm303dlhc/lsm303dlhc.c ****   tmpval = COMPASSACCELERO_IO_Read(ACC_I2C_ADDRESS, LSM303DLHC_CTRL_REG6_A);
 401:Drivers/BSP/Components/lsm303dlhc/lsm303dlhc.c ****   
 402:Drivers/BSP/Components/lsm303dlhc/lsm303dlhc.c ****   /* Disable IT2 */
 403:Drivers/BSP/Components/lsm303dlhc/lsm303dlhc.c ****   tmpval &= ~LSM303DLHC_IT;
 404:Drivers/BSP/Components/lsm303dlhc/lsm303dlhc.c ****   
 405:Drivers/BSP/Components/lsm303dlhc/lsm303dlhc.c ****   /* Write value to MEMS CTRL_REG3 register */
 406:Drivers/BSP/Components/lsm303dlhc/lsm303dlhc.c ****   COMPASSACCELERO_IO_Write(ACC_I2C_ADDRESS, LSM303DLHC_CTRL_REG6_A, tmpval);
 407:Drivers/BSP/Components/lsm303dlhc/lsm303dlhc.c **** }
 408:Drivers/BSP/Components/lsm303dlhc/lsm303dlhc.c **** 
 409:Drivers/BSP/Components/lsm303dlhc/lsm303dlhc.c **** /**
 410:Drivers/BSP/Components/lsm303dlhc/lsm303dlhc.c ****   * @brief  INT1 interrupt enable
 411:Drivers/BSP/Components/lsm303dlhc/lsm303dlhc.c ****   * @param  ITCombination: Or or And combination
 412:Drivers/BSP/Components/lsm303dlhc/lsm303dlhc.c ****   *         ITAxes: Axes to be enabled 
 413:Drivers/BSP/Components/lsm303dlhc/lsm303dlhc.c ****   * @retval None
 414:Drivers/BSP/Components/lsm303dlhc/lsm303dlhc.c ****   */
 415:Drivers/BSP/Components/lsm303dlhc/lsm303dlhc.c **** void LSM303DLHC_AccINT1InterruptEnable(uint8_t ITCombination, uint8_t ITAxes)
 416:Drivers/BSP/Components/lsm303dlhc/lsm303dlhc.c **** {  
 417:Drivers/BSP/Components/lsm303dlhc/lsm303dlhc.c ****   uint8_t tmpval = 0x00;
 418:Drivers/BSP/Components/lsm303dlhc/lsm303dlhc.c ****   
 419:Drivers/BSP/Components/lsm303dlhc/lsm303dlhc.c ****   /* Read INT1_CFR register */
 420:Drivers/BSP/Components/lsm303dlhc/lsm303dlhc.c ****   tmpval = COMPASSACCELERO_IO_Read(ACC_I2C_ADDRESS, LSM303DLHC_INT1_CFG_A);
 421:Drivers/BSP/Components/lsm303dlhc/lsm303dlhc.c ****   
 422:Drivers/BSP/Components/lsm303dlhc/lsm303dlhc.c ****   /* Enable the selected interrupt */
 423:Drivers/BSP/Components/lsm303dlhc/lsm303dlhc.c ****   tmpval |= (ITAxes | ITCombination);
 424:Drivers/BSP/Components/lsm303dlhc/lsm303dlhc.c ****   
 425:Drivers/BSP/Components/lsm303dlhc/lsm303dlhc.c ****   /* Write value to MEMS INT1_CFR register */
ARM GAS  /var/folders/0z/tsy30v1j4xl4_7kw94k978ww0000gn/T//ccpK988n.s 			page 21


 426:Drivers/BSP/Components/lsm303dlhc/lsm303dlhc.c ****   COMPASSACCELERO_IO_Write(ACC_I2C_ADDRESS, LSM303DLHC_INT1_CFG_A, tmpval);  
 427:Drivers/BSP/Components/lsm303dlhc/lsm303dlhc.c **** }
 428:Drivers/BSP/Components/lsm303dlhc/lsm303dlhc.c **** 
 429:Drivers/BSP/Components/lsm303dlhc/lsm303dlhc.c **** /**
 430:Drivers/BSP/Components/lsm303dlhc/lsm303dlhc.c ****   * @brief  INT1 interrupt disable
 431:Drivers/BSP/Components/lsm303dlhc/lsm303dlhc.c ****   * @param  ITCombination: Or or And combination
 432:Drivers/BSP/Components/lsm303dlhc/lsm303dlhc.c ****   *         ITAxes: Axes to be enabled 
 433:Drivers/BSP/Components/lsm303dlhc/lsm303dlhc.c ****   * @retval None
 434:Drivers/BSP/Components/lsm303dlhc/lsm303dlhc.c ****   */
 435:Drivers/BSP/Components/lsm303dlhc/lsm303dlhc.c **** void LSM303DLHC_AccINT1InterruptDisable(uint8_t ITCombination, uint8_t ITAxes)
 436:Drivers/BSP/Components/lsm303dlhc/lsm303dlhc.c **** {  
 437:Drivers/BSP/Components/lsm303dlhc/lsm303dlhc.c ****   uint8_t tmpval = 0x00;
 438:Drivers/BSP/Components/lsm303dlhc/lsm303dlhc.c ****   
 439:Drivers/BSP/Components/lsm303dlhc/lsm303dlhc.c ****   /* Read INT1_CFR register */
 440:Drivers/BSP/Components/lsm303dlhc/lsm303dlhc.c ****   tmpval = COMPASSACCELERO_IO_Read(ACC_I2C_ADDRESS, LSM303DLHC_INT1_CFG_A);
 441:Drivers/BSP/Components/lsm303dlhc/lsm303dlhc.c ****   
 442:Drivers/BSP/Components/lsm303dlhc/lsm303dlhc.c ****   /* Disable the selected interrupt */
 443:Drivers/BSP/Components/lsm303dlhc/lsm303dlhc.c ****   tmpval &= ~(ITAxes | ITCombination);
 444:Drivers/BSP/Components/lsm303dlhc/lsm303dlhc.c ****   
 445:Drivers/BSP/Components/lsm303dlhc/lsm303dlhc.c ****   /* Write value to MEMS INT1_CFR register */
 446:Drivers/BSP/Components/lsm303dlhc/lsm303dlhc.c ****   COMPASSACCELERO_IO_Write(ACC_I2C_ADDRESS, LSM303DLHC_INT1_CFG_A, tmpval);
 447:Drivers/BSP/Components/lsm303dlhc/lsm303dlhc.c **** }
 448:Drivers/BSP/Components/lsm303dlhc/lsm303dlhc.c **** 
 449:Drivers/BSP/Components/lsm303dlhc/lsm303dlhc.c **** /**
 450:Drivers/BSP/Components/lsm303dlhc/lsm303dlhc.c ****   * @brief  INT2 interrupt enable
 451:Drivers/BSP/Components/lsm303dlhc/lsm303dlhc.c ****   * @param  ITCombination: Or or And combination
 452:Drivers/BSP/Components/lsm303dlhc/lsm303dlhc.c ****   *         ITAxes: axes to be enabled 
 453:Drivers/BSP/Components/lsm303dlhc/lsm303dlhc.c ****   * @retval None
 454:Drivers/BSP/Components/lsm303dlhc/lsm303dlhc.c ****   */
 455:Drivers/BSP/Components/lsm303dlhc/lsm303dlhc.c **** void LSM303DLHC_AccINT2InterruptEnable(uint8_t ITCombination, uint8_t ITAxes)
 456:Drivers/BSP/Components/lsm303dlhc/lsm303dlhc.c **** {  
 457:Drivers/BSP/Components/lsm303dlhc/lsm303dlhc.c ****   uint8_t tmpval = 0x00;
 458:Drivers/BSP/Components/lsm303dlhc/lsm303dlhc.c ****   
 459:Drivers/BSP/Components/lsm303dlhc/lsm303dlhc.c ****   /* Read INT2_CFR register */
 460:Drivers/BSP/Components/lsm303dlhc/lsm303dlhc.c ****   tmpval = COMPASSACCELERO_IO_Read(ACC_I2C_ADDRESS, LSM303DLHC_INT2_CFG_A);
 461:Drivers/BSP/Components/lsm303dlhc/lsm303dlhc.c ****   
 462:Drivers/BSP/Components/lsm303dlhc/lsm303dlhc.c ****   /* Enable the selected interrupt */
 463:Drivers/BSP/Components/lsm303dlhc/lsm303dlhc.c ****   tmpval |= (ITAxes | ITCombination);
 464:Drivers/BSP/Components/lsm303dlhc/lsm303dlhc.c ****   
 465:Drivers/BSP/Components/lsm303dlhc/lsm303dlhc.c ****   /* Write value to MEMS INT2_CFR register */
 466:Drivers/BSP/Components/lsm303dlhc/lsm303dlhc.c ****   COMPASSACCELERO_IO_Write(ACC_I2C_ADDRESS, LSM303DLHC_INT2_CFG_A, tmpval);
 467:Drivers/BSP/Components/lsm303dlhc/lsm303dlhc.c **** }
 468:Drivers/BSP/Components/lsm303dlhc/lsm303dlhc.c **** 
 469:Drivers/BSP/Components/lsm303dlhc/lsm303dlhc.c **** /**
 470:Drivers/BSP/Components/lsm303dlhc/lsm303dlhc.c ****   * @brief  INT2 interrupt config
 471:Drivers/BSP/Components/lsm303dlhc/lsm303dlhc.c ****   * @param  ITCombination: Or or And combination
 472:Drivers/BSP/Components/lsm303dlhc/lsm303dlhc.c ****   *         ITAxes: axes to be enabled 
 473:Drivers/BSP/Components/lsm303dlhc/lsm303dlhc.c ****   * @retval None
 474:Drivers/BSP/Components/lsm303dlhc/lsm303dlhc.c ****   */
 475:Drivers/BSP/Components/lsm303dlhc/lsm303dlhc.c **** void LSM303DLHC_AccINT2InterruptDisable(uint8_t ITCombination, uint8_t ITAxes)
 476:Drivers/BSP/Components/lsm303dlhc/lsm303dlhc.c **** {  
 477:Drivers/BSP/Components/lsm303dlhc/lsm303dlhc.c ****   uint8_t tmpval = 0x00;
 478:Drivers/BSP/Components/lsm303dlhc/lsm303dlhc.c ****   
 479:Drivers/BSP/Components/lsm303dlhc/lsm303dlhc.c ****   /* Read INT2_CFR register */
 480:Drivers/BSP/Components/lsm303dlhc/lsm303dlhc.c ****   tmpval = COMPASSACCELERO_IO_Read(ACC_I2C_ADDRESS, LSM303DLHC_INT2_CFG_A);
 481:Drivers/BSP/Components/lsm303dlhc/lsm303dlhc.c ****   
 482:Drivers/BSP/Components/lsm303dlhc/lsm303dlhc.c ****   /* Disable the selected interrupt */
ARM GAS  /var/folders/0z/tsy30v1j4xl4_7kw94k978ww0000gn/T//ccpK988n.s 			page 22


 483:Drivers/BSP/Components/lsm303dlhc/lsm303dlhc.c ****   tmpval &= ~(ITAxes | ITCombination);
 484:Drivers/BSP/Components/lsm303dlhc/lsm303dlhc.c ****   
 485:Drivers/BSP/Components/lsm303dlhc/lsm303dlhc.c ****   /* Write value to MEMS INT2_CFR register */
 486:Drivers/BSP/Components/lsm303dlhc/lsm303dlhc.c ****   COMPASSACCELERO_IO_Write(ACC_I2C_ADDRESS, LSM303DLHC_INT2_CFG_A, tmpval);
 487:Drivers/BSP/Components/lsm303dlhc/lsm303dlhc.c **** }
 488:Drivers/BSP/Components/lsm303dlhc/lsm303dlhc.c **** 
 489:Drivers/BSP/Components/lsm303dlhc/lsm303dlhc.c **** /**
 490:Drivers/BSP/Components/lsm303dlhc/lsm303dlhc.c ****   * @brief  Click interrupt enable
 491:Drivers/BSP/Components/lsm303dlhc/lsm303dlhc.c ****   * @param  ITClick: the selected interrupt to enable
 492:Drivers/BSP/Components/lsm303dlhc/lsm303dlhc.c ****   * @retval None
 493:Drivers/BSP/Components/lsm303dlhc/lsm303dlhc.c ****   */
 494:Drivers/BSP/Components/lsm303dlhc/lsm303dlhc.c **** void LSM303DLHC_AccClickITEnable(uint8_t ITClick)
 495:Drivers/BSP/Components/lsm303dlhc/lsm303dlhc.c **** {  
 496:Drivers/BSP/Components/lsm303dlhc/lsm303dlhc.c ****   uint8_t tmpval = 0x00;
 497:Drivers/BSP/Components/lsm303dlhc/lsm303dlhc.c ****   
 498:Drivers/BSP/Components/lsm303dlhc/lsm303dlhc.c ****   /* Read CLICK_CFR register */
 499:Drivers/BSP/Components/lsm303dlhc/lsm303dlhc.c ****   tmpval = COMPASSACCELERO_IO_Read(ACC_I2C_ADDRESS, LSM303DLHC_CLICK_CFG_A);
 500:Drivers/BSP/Components/lsm303dlhc/lsm303dlhc.c ****   
 501:Drivers/BSP/Components/lsm303dlhc/lsm303dlhc.c ****   /* Enable the selected interrupt */
 502:Drivers/BSP/Components/lsm303dlhc/lsm303dlhc.c ****   tmpval |= ITClick;
 503:Drivers/BSP/Components/lsm303dlhc/lsm303dlhc.c ****   
 504:Drivers/BSP/Components/lsm303dlhc/lsm303dlhc.c ****   /* Write value to MEMS CLICK CFG register */
 505:Drivers/BSP/Components/lsm303dlhc/lsm303dlhc.c ****   COMPASSACCELERO_IO_Write(ACC_I2C_ADDRESS, LSM303DLHC_CLICK_CFG_A, tmpval);
 506:Drivers/BSP/Components/lsm303dlhc/lsm303dlhc.c ****   
 507:Drivers/BSP/Components/lsm303dlhc/lsm303dlhc.c ****   /* Configure Click Threshold on Z axis */
 508:Drivers/BSP/Components/lsm303dlhc/lsm303dlhc.c ****   tmpval = 0x0A;
 509:Drivers/BSP/Components/lsm303dlhc/lsm303dlhc.c ****   COMPASSACCELERO_IO_Write(ACC_I2C_ADDRESS, LSM303DLHC_CLICK_THS_A, tmpval);
 510:Drivers/BSP/Components/lsm303dlhc/lsm303dlhc.c ****   
 511:Drivers/BSP/Components/lsm303dlhc/lsm303dlhc.c ****   /* Configure Time Limit */
 512:Drivers/BSP/Components/lsm303dlhc/lsm303dlhc.c ****   tmpval = 0x05;
 513:Drivers/BSP/Components/lsm303dlhc/lsm303dlhc.c ****   COMPASSACCELERO_IO_Write(ACC_I2C_ADDRESS, LSM303DLHC_TIME_LIMIT_A, tmpval);
 514:Drivers/BSP/Components/lsm303dlhc/lsm303dlhc.c ****   
 515:Drivers/BSP/Components/lsm303dlhc/lsm303dlhc.c ****   /* Configure Latency */
 516:Drivers/BSP/Components/lsm303dlhc/lsm303dlhc.c ****   COMPASSACCELERO_IO_Write(ACC_I2C_ADDRESS, LSM303DLHC_TIME_LATENCY_A, tmpval);
 517:Drivers/BSP/Components/lsm303dlhc/lsm303dlhc.c ****   
 518:Drivers/BSP/Components/lsm303dlhc/lsm303dlhc.c ****   /* Configure Click Window */
 519:Drivers/BSP/Components/lsm303dlhc/lsm303dlhc.c ****   tmpval = 0x32;
 520:Drivers/BSP/Components/lsm303dlhc/lsm303dlhc.c ****   COMPASSACCELERO_IO_Write(ACC_I2C_ADDRESS, LSM303DLHC_TIME_WINDOW_A, tmpval);
 521:Drivers/BSP/Components/lsm303dlhc/lsm303dlhc.c **** }
 522:Drivers/BSP/Components/lsm303dlhc/lsm303dlhc.c **** 
 523:Drivers/BSP/Components/lsm303dlhc/lsm303dlhc.c **** /**
 524:Drivers/BSP/Components/lsm303dlhc/lsm303dlhc.c ****   * @brief  Click interrupt disable
 525:Drivers/BSP/Components/lsm303dlhc/lsm303dlhc.c ****   * @param  ITClick: the selected click interrupt to disable
 526:Drivers/BSP/Components/lsm303dlhc/lsm303dlhc.c ****   * @retval None
 527:Drivers/BSP/Components/lsm303dlhc/lsm303dlhc.c ****   */
 528:Drivers/BSP/Components/lsm303dlhc/lsm303dlhc.c **** void LSM303DLHC_AccClickITDisable(uint8_t ITClick)
 529:Drivers/BSP/Components/lsm303dlhc/lsm303dlhc.c **** {  
 530:Drivers/BSP/Components/lsm303dlhc/lsm303dlhc.c ****   uint8_t tmpval = 0x00;
 531:Drivers/BSP/Components/lsm303dlhc/lsm303dlhc.c ****   
 532:Drivers/BSP/Components/lsm303dlhc/lsm303dlhc.c ****   /* Read CLICK_CFR register */
 533:Drivers/BSP/Components/lsm303dlhc/lsm303dlhc.c ****   tmpval = COMPASSACCELERO_IO_Read(ACC_I2C_ADDRESS, LSM303DLHC_CLICK_CFG_A);
 534:Drivers/BSP/Components/lsm303dlhc/lsm303dlhc.c ****   
 535:Drivers/BSP/Components/lsm303dlhc/lsm303dlhc.c ****   /* Disable the selected interrupt */
 536:Drivers/BSP/Components/lsm303dlhc/lsm303dlhc.c ****   tmpval &= ~ITClick;
 537:Drivers/BSP/Components/lsm303dlhc/lsm303dlhc.c ****   
 538:Drivers/BSP/Components/lsm303dlhc/lsm303dlhc.c ****   /* Write value to MEMS CLICK_CFR register */
 539:Drivers/BSP/Components/lsm303dlhc/lsm303dlhc.c ****   COMPASSACCELERO_IO_Write(ACC_I2C_ADDRESS, LSM303DLHC_CLICK_CFG_A, tmpval);
ARM GAS  /var/folders/0z/tsy30v1j4xl4_7kw94k978ww0000gn/T//ccpK988n.s 			page 23


 540:Drivers/BSP/Components/lsm303dlhc/lsm303dlhc.c **** }
 541:Drivers/BSP/Components/lsm303dlhc/lsm303dlhc.c **** 
 542:Drivers/BSP/Components/lsm303dlhc/lsm303dlhc.c **** /**
 543:Drivers/BSP/Components/lsm303dlhc/lsm303dlhc.c ****   * @brief  Click on Z axis interrupt config
 544:Drivers/BSP/Components/lsm303dlhc/lsm303dlhc.c ****   * @param  None
 545:Drivers/BSP/Components/lsm303dlhc/lsm303dlhc.c ****   * @retval None
 546:Drivers/BSP/Components/lsm303dlhc/lsm303dlhc.c ****   */
 547:Drivers/BSP/Components/lsm303dlhc/lsm303dlhc.c **** void LSM303DLHC_AccZClickITConfig(void)
 548:Drivers/BSP/Components/lsm303dlhc/lsm303dlhc.c **** {  
 607              		.loc 1 548 1 is_stmt 1 view -0
 608              		.cfi_startproc
 609              		@ args = 0, pretend = 0, frame = 0
 610              		@ frame_needed = 0, uses_anonymous_args = 0
 549:Drivers/BSP/Components/lsm303dlhc/lsm303dlhc.c ****   /* Configure low level IT config */
 550:Drivers/BSP/Components/lsm303dlhc/lsm303dlhc.c ****   COMPASSACCELERO_IO_ITConfig();
 611              		.loc 1 550 3 view .LVU210
 548:Drivers/BSP/Components/lsm303dlhc/lsm303dlhc.c ****   /* Configure low level IT config */
 612              		.loc 1 548 1 is_stmt 0 view .LVU211
 613 0000 08B5     		push	{r3, lr}
 614              		.cfi_def_cfa_offset 8
 615              		.cfi_offset 3, -8
 616              		.cfi_offset 14, -4
 617              		.loc 1 550 3 view .LVU212
 618 0002 FFF7FEFF 		bl	COMPASSACCELERO_IO_ITConfig
 619              	.LVL59:
 551:Drivers/BSP/Components/lsm303dlhc/lsm303dlhc.c ****   
 552:Drivers/BSP/Components/lsm303dlhc/lsm303dlhc.c ****   /* Select click IT as INT1 interrupt */
 553:Drivers/BSP/Components/lsm303dlhc/lsm303dlhc.c ****   LSM303DLHC_AccIT1Enable(LSM303DLHC_IT1_CLICK);
 620              		.loc 1 553 3 is_stmt 1 view .LVU213
 621              	.LBB8:
 622              	.LBI8:
 316:Drivers/BSP/Components/lsm303dlhc/lsm303dlhc.c **** {
 623              		.loc 1 316 6 view .LVU214
 624              	.LBB9:
 318:Drivers/BSP/Components/lsm303dlhc/lsm303dlhc.c ****   
 625              		.loc 1 318 3 view .LVU215
 321:Drivers/BSP/Components/lsm303dlhc/lsm303dlhc.c ****   
 626              		.loc 1 321 3 view .LVU216
 321:Drivers/BSP/Components/lsm303dlhc/lsm303dlhc.c ****   
 627              		.loc 1 321 12 is_stmt 0 view .LVU217
 628 0006 2221     		movs	r1, #34
 629 0008 3220     		movs	r0, #50
 630 000a FFF7FEFF 		bl	COMPASSACCELERO_IO_Read
 631              	.LVL60:
 324:Drivers/BSP/Components/lsm303dlhc/lsm303dlhc.c ****   
 632              		.loc 1 324 3 is_stmt 1 view .LVU218
 327:Drivers/BSP/Components/lsm303dlhc/lsm303dlhc.c **** }
 633              		.loc 1 327 3 view .LVU219
 324:Drivers/BSP/Components/lsm303dlhc/lsm303dlhc.c ****   
 634              		.loc 1 324 10 is_stmt 0 view .LVU220
 635 000e 60F07F00 		orn	r0, r0, #127
 636              	.LVL61:
 327:Drivers/BSP/Components/lsm303dlhc/lsm303dlhc.c **** }
 637              		.loc 1 327 3 view .LVU221
 638 0012 C2B2     		uxtb	r2, r0
 639 0014 2221     		movs	r1, #34
 640 0016 3220     		movs	r0, #50
ARM GAS  /var/folders/0z/tsy30v1j4xl4_7kw94k978ww0000gn/T//ccpK988n.s 			page 24


 641 0018 FFF7FEFF 		bl	COMPASSACCELERO_IO_Write
 642              	.LVL62:
 327:Drivers/BSP/Components/lsm303dlhc/lsm303dlhc.c **** }
 643              		.loc 1 327 3 view .LVU222
 644              	.LBE9:
 645              	.LBE8:
 554:Drivers/BSP/Components/lsm303dlhc/lsm303dlhc.c ****   
 555:Drivers/BSP/Components/lsm303dlhc/lsm303dlhc.c ****   /* Enable High pass filter for click IT */
 556:Drivers/BSP/Components/lsm303dlhc/lsm303dlhc.c ****   LSM303DLHC_AccFilterClickCmd(LSM303DLHC_HPF_CLICK_ENABLE);
 646              		.loc 1 556 3 is_stmt 1 view .LVU223
 647              	.LBB10:
 648              	.LBI10:
 288:Drivers/BSP/Components/lsm303dlhc/lsm303dlhc.c **** {
 649              		.loc 1 288 6 view .LVU224
 650              	.LBB11:
 290:Drivers/BSP/Components/lsm303dlhc/lsm303dlhc.c ****   
 651              		.loc 1 290 3 view .LVU225
 293:Drivers/BSP/Components/lsm303dlhc/lsm303dlhc.c ****   
 652              		.loc 1 293 3 view .LVU226
 293:Drivers/BSP/Components/lsm303dlhc/lsm303dlhc.c ****   
 653              		.loc 1 293 12 is_stmt 0 view .LVU227
 654 001c 2121     		movs	r1, #33
 655 001e 3220     		movs	r0, #50
 656 0020 FFF7FEFF 		bl	COMPASSACCELERO_IO_Read
 657              	.LVL63:
 295:Drivers/BSP/Components/lsm303dlhc/lsm303dlhc.c ****   
 658              		.loc 1 295 3 is_stmt 1 view .LVU228
 295:Drivers/BSP/Components/lsm303dlhc/lsm303dlhc.c ****   
 659              		.loc 1 295 10 is_stmt 0 view .LVU229
 660 0024 00F0FB00 		and	r0, r0, #251
 661              	.LVL64:
 297:Drivers/BSP/Components/lsm303dlhc/lsm303dlhc.c ****   
 662              		.loc 1 297 3 is_stmt 1 view .LVU230
 300:Drivers/BSP/Components/lsm303dlhc/lsm303dlhc.c **** }
 663              		.loc 1 300 3 view .LVU231
 664 0028 40F00402 		orr	r2, r0, #4
 665 002c 2121     		movs	r1, #33
 666 002e 3220     		movs	r0, #50
 667              	.LVL65:
 300:Drivers/BSP/Components/lsm303dlhc/lsm303dlhc.c **** }
 668              		.loc 1 300 3 is_stmt 0 view .LVU232
 669 0030 FFF7FEFF 		bl	COMPASSACCELERO_IO_Write
 670              	.LVL66:
 300:Drivers/BSP/Components/lsm303dlhc/lsm303dlhc.c **** }
 671              		.loc 1 300 3 view .LVU233
 672              	.LBE11:
 673              	.LBE10:
 557:Drivers/BSP/Components/lsm303dlhc/lsm303dlhc.c ****   
 558:Drivers/BSP/Components/lsm303dlhc/lsm303dlhc.c ****   /* Enable simple click IT on Z axis, */
 559:Drivers/BSP/Components/lsm303dlhc/lsm303dlhc.c ****   LSM303DLHC_AccClickITEnable(LSM303DLHC_Z_SINGLE_CLICK);
 674              		.loc 1 559 3 is_stmt 1 view .LVU234
 675              	.LBB12:
 676              	.LBI12:
 494:Drivers/BSP/Components/lsm303dlhc/lsm303dlhc.c **** {  
 677              		.loc 1 494 6 view .LVU235
 678              	.LBB13:
 496:Drivers/BSP/Components/lsm303dlhc/lsm303dlhc.c ****   
ARM GAS  /var/folders/0z/tsy30v1j4xl4_7kw94k978ww0000gn/T//ccpK988n.s 			page 25


 679              		.loc 1 496 3 view .LVU236
 499:Drivers/BSP/Components/lsm303dlhc/lsm303dlhc.c ****   
 680              		.loc 1 499 3 view .LVU237
 499:Drivers/BSP/Components/lsm303dlhc/lsm303dlhc.c ****   
 681              		.loc 1 499 12 is_stmt 0 view .LVU238
 682 0034 3821     		movs	r1, #56
 683 0036 3220     		movs	r0, #50
 684 0038 FFF7FEFF 		bl	COMPASSACCELERO_IO_Read
 685              	.LVL67:
 502:Drivers/BSP/Components/lsm303dlhc/lsm303dlhc.c ****   
 686              		.loc 1 502 3 is_stmt 1 view .LVU239
 505:Drivers/BSP/Components/lsm303dlhc/lsm303dlhc.c ****   
 687              		.loc 1 505 3 view .LVU240
 502:Drivers/BSP/Components/lsm303dlhc/lsm303dlhc.c ****   
 688              		.loc 1 502 10 is_stmt 0 view .LVU241
 689 003c 40F01000 		orr	r0, r0, #16
 690              	.LVL68:
 505:Drivers/BSP/Components/lsm303dlhc/lsm303dlhc.c ****   
 691              		.loc 1 505 3 view .LVU242
 692 0040 C2B2     		uxtb	r2, r0
 693 0042 3821     		movs	r1, #56
 694 0044 3220     		movs	r0, #50
 695 0046 FFF7FEFF 		bl	COMPASSACCELERO_IO_Write
 696              	.LVL69:
 508:Drivers/BSP/Components/lsm303dlhc/lsm303dlhc.c ****   COMPASSACCELERO_IO_Write(ACC_I2C_ADDRESS, LSM303DLHC_CLICK_THS_A, tmpval);
 697              		.loc 1 508 3 is_stmt 1 view .LVU243
 509:Drivers/BSP/Components/lsm303dlhc/lsm303dlhc.c ****   
 698              		.loc 1 509 3 view .LVU244
 699 004a 0A22     		movs	r2, #10
 700 004c 3A21     		movs	r1, #58
 701 004e 3220     		movs	r0, #50
 702 0050 FFF7FEFF 		bl	COMPASSACCELERO_IO_Write
 703              	.LVL70:
 512:Drivers/BSP/Components/lsm303dlhc/lsm303dlhc.c ****   COMPASSACCELERO_IO_Write(ACC_I2C_ADDRESS, LSM303DLHC_TIME_LIMIT_A, tmpval);
 704              		.loc 1 512 3 view .LVU245
 513:Drivers/BSP/Components/lsm303dlhc/lsm303dlhc.c ****   
 705              		.loc 1 513 3 view .LVU246
 706 0054 0522     		movs	r2, #5
 707 0056 3B21     		movs	r1, #59
 708 0058 3220     		movs	r0, #50
 709 005a FFF7FEFF 		bl	COMPASSACCELERO_IO_Write
 710              	.LVL71:
 516:Drivers/BSP/Components/lsm303dlhc/lsm303dlhc.c ****   
 711              		.loc 1 516 3 view .LVU247
 712 005e 0522     		movs	r2, #5
 713 0060 3C21     		movs	r1, #60
 714 0062 3220     		movs	r0, #50
 715 0064 FFF7FEFF 		bl	COMPASSACCELERO_IO_Write
 716              	.LVL72:
 519:Drivers/BSP/Components/lsm303dlhc/lsm303dlhc.c ****   COMPASSACCELERO_IO_Write(ACC_I2C_ADDRESS, LSM303DLHC_TIME_WINDOW_A, tmpval);
 717              		.loc 1 519 3 view .LVU248
 520:Drivers/BSP/Components/lsm303dlhc/lsm303dlhc.c **** }
 718              		.loc 1 520 3 view .LVU249
 719 0068 3222     		movs	r2, #50
 720              	.LBE13:
 721              	.LBE12:
 560:Drivers/BSP/Components/lsm303dlhc/lsm303dlhc.c **** }
ARM GAS  /var/folders/0z/tsy30v1j4xl4_7kw94k978ww0000gn/T//ccpK988n.s 			page 26


 722              		.loc 1 560 1 is_stmt 0 view .LVU250
 723 006a BDE80840 		pop	{r3, lr}
 724              		.cfi_restore 14
 725              		.cfi_restore 3
 726              		.cfi_def_cfa_offset 0
 727              	.LBB15:
 728              	.LBB14:
 520:Drivers/BSP/Components/lsm303dlhc/lsm303dlhc.c **** }
 729              		.loc 1 520 3 view .LVU251
 730 006e 3D21     		movs	r1, #61
 731 0070 1046     		mov	r0, r2
 732 0072 FFF7FEBF 		b	COMPASSACCELERO_IO_Write
 733              	.LVL73:
 734              	.LBE14:
 735              	.LBE15:
 736              		.cfi_endproc
 737              	.LFE18:
 739 0076 00BF     		.section	.text.LSM303DLHC_AccFilterClickCmd,"ax",%progbits
 740              		.align	1
 741              		.p2align 2,,3
 742              		.global	LSM303DLHC_AccFilterClickCmd
 743              		.syntax unified
 744              		.thumb
 745              		.thumb_func
 747              	LSM303DLHC_AccFilterClickCmd:
 748              	.LVL74:
 749              	.LFB7:
 289:Drivers/BSP/Components/lsm303dlhc/lsm303dlhc.c ****   uint8_t tmpreg = 0x00;
 750              		.loc 1 289 1 is_stmt 1 view -0
 751              		.cfi_startproc
 752              		@ args = 0, pretend = 0, frame = 0
 753              		@ frame_needed = 0, uses_anonymous_args = 0
 290:Drivers/BSP/Components/lsm303dlhc/lsm303dlhc.c ****   
 754              		.loc 1 290 3 view .LVU253
 293:Drivers/BSP/Components/lsm303dlhc/lsm303dlhc.c ****   
 755              		.loc 1 293 3 view .LVU254
 289:Drivers/BSP/Components/lsm303dlhc/lsm303dlhc.c ****   uint8_t tmpreg = 0x00;
 756              		.loc 1 289 1 is_stmt 0 view .LVU255
 757 0000 10B5     		push	{r4, lr}
 758              		.cfi_def_cfa_offset 8
 759              		.cfi_offset 4, -8
 760              		.cfi_offset 14, -4
 293:Drivers/BSP/Components/lsm303dlhc/lsm303dlhc.c ****   
 761              		.loc 1 293 12 view .LVU256
 762 0002 2121     		movs	r1, #33
 289:Drivers/BSP/Components/lsm303dlhc/lsm303dlhc.c ****   uint8_t tmpreg = 0x00;
 763              		.loc 1 289 1 view .LVU257
 764 0004 0446     		mov	r4, r0
 293:Drivers/BSP/Components/lsm303dlhc/lsm303dlhc.c ****   
 765              		.loc 1 293 12 view .LVU258
 766 0006 3220     		movs	r0, #50
 767              	.LVL75:
 293:Drivers/BSP/Components/lsm303dlhc/lsm303dlhc.c ****   
 768              		.loc 1 293 12 view .LVU259
 769 0008 FFF7FEFF 		bl	COMPASSACCELERO_IO_Read
 770              	.LVL76:
 295:Drivers/BSP/Components/lsm303dlhc/lsm303dlhc.c ****   
ARM GAS  /var/folders/0z/tsy30v1j4xl4_7kw94k978ww0000gn/T//ccpK988n.s 			page 27


 771              		.loc 1 295 3 is_stmt 1 view .LVU260
 295:Drivers/BSP/Components/lsm303dlhc/lsm303dlhc.c ****   
 772              		.loc 1 295 10 is_stmt 0 view .LVU261
 773 000c 00F0FB00 		and	r0, r0, #251
 774              	.LVL77:
 297:Drivers/BSP/Components/lsm303dlhc/lsm303dlhc.c ****   
 775              		.loc 1 297 3 is_stmt 1 view .LVU262
 300:Drivers/BSP/Components/lsm303dlhc/lsm303dlhc.c **** }
 776              		.loc 1 300 3 view .LVU263
 777 0010 40EA0402 		orr	r2, r0, r4
 778 0014 2121     		movs	r1, #33
 301:Drivers/BSP/Components/lsm303dlhc/lsm303dlhc.c **** 
 779              		.loc 1 301 1 is_stmt 0 view .LVU264
 780 0016 BDE81040 		pop	{r4, lr}
 781              		.cfi_restore 14
 782              		.cfi_restore 4
 783              		.cfi_def_cfa_offset 0
 784              	.LVL78:
 300:Drivers/BSP/Components/lsm303dlhc/lsm303dlhc.c **** }
 785              		.loc 1 300 3 view .LVU265
 786 001a 3220     		movs	r0, #50
 300:Drivers/BSP/Components/lsm303dlhc/lsm303dlhc.c **** }
 787              		.loc 1 300 3 view .LVU266
 788 001c FFF7FEBF 		b	COMPASSACCELERO_IO_Write
 789              	.LVL79:
 790              		.cfi_endproc
 791              	.LFE7:
 793              		.section	.text.LSM303DLHC_AccIT1Enable,"ax",%progbits
 794              		.align	1
 795              		.p2align 2,,3
 796              		.global	LSM303DLHC_AccIT1Enable
 797              		.syntax unified
 798              		.thumb
 799              		.thumb_func
 801              	LSM303DLHC_AccIT1Enable:
 802              	.LVL80:
 803              	.LFB8:
 317:Drivers/BSP/Components/lsm303dlhc/lsm303dlhc.c ****   uint8_t tmpval = 0x00;
 804              		.loc 1 317 1 is_stmt 1 view -0
 805              		.cfi_startproc
 806              		@ args = 0, pretend = 0, frame = 0
 807              		@ frame_needed = 0, uses_anonymous_args = 0
 318:Drivers/BSP/Components/lsm303dlhc/lsm303dlhc.c ****   
 808              		.loc 1 318 3 view .LVU268
 321:Drivers/BSP/Components/lsm303dlhc/lsm303dlhc.c ****   
 809              		.loc 1 321 3 view .LVU269
 317:Drivers/BSP/Components/lsm303dlhc/lsm303dlhc.c ****   uint8_t tmpval = 0x00;
 810              		.loc 1 317 1 is_stmt 0 view .LVU270
 811 0000 10B5     		push	{r4, lr}
 812              		.cfi_def_cfa_offset 8
 813              		.cfi_offset 4, -8
 814              		.cfi_offset 14, -4
 321:Drivers/BSP/Components/lsm303dlhc/lsm303dlhc.c ****   
 815              		.loc 1 321 12 view .LVU271
 816 0002 2221     		movs	r1, #34
 317:Drivers/BSP/Components/lsm303dlhc/lsm303dlhc.c ****   uint8_t tmpval = 0x00;
 817              		.loc 1 317 1 view .LVU272
ARM GAS  /var/folders/0z/tsy30v1j4xl4_7kw94k978ww0000gn/T//ccpK988n.s 			page 28


 818 0004 0446     		mov	r4, r0
 321:Drivers/BSP/Components/lsm303dlhc/lsm303dlhc.c ****   
 819              		.loc 1 321 12 view .LVU273
 820 0006 3220     		movs	r0, #50
 821              	.LVL81:
 321:Drivers/BSP/Components/lsm303dlhc/lsm303dlhc.c ****   
 822              		.loc 1 321 12 view .LVU274
 823 0008 FFF7FEFF 		bl	COMPASSACCELERO_IO_Read
 824              	.LVL82:
 324:Drivers/BSP/Components/lsm303dlhc/lsm303dlhc.c ****   
 825              		.loc 1 324 3 is_stmt 1 view .LVU275
 327:Drivers/BSP/Components/lsm303dlhc/lsm303dlhc.c **** }
 826              		.loc 1 327 3 view .LVU276
 324:Drivers/BSP/Components/lsm303dlhc/lsm303dlhc.c ****   
 827              		.loc 1 324 10 is_stmt 0 view .LVU277
 828 000c 2043     		orrs	r0, r0, r4
 829              	.LVL83:
 327:Drivers/BSP/Components/lsm303dlhc/lsm303dlhc.c **** }
 830              		.loc 1 327 3 view .LVU278
 831 000e C2B2     		uxtb	r2, r0
 328:Drivers/BSP/Components/lsm303dlhc/lsm303dlhc.c **** 
 832              		.loc 1 328 1 view .LVU279
 833 0010 BDE81040 		pop	{r4, lr}
 834              		.cfi_restore 14
 835              		.cfi_restore 4
 836              		.cfi_def_cfa_offset 0
 327:Drivers/BSP/Components/lsm303dlhc/lsm303dlhc.c **** }
 837              		.loc 1 327 3 view .LVU280
 838 0014 2221     		movs	r1, #34
 839 0016 3220     		movs	r0, #50
 840 0018 FFF7FEBF 		b	COMPASSACCELERO_IO_Write
 841              	.LVL84:
 842              		.cfi_endproc
 843              	.LFE8:
 845              		.section	.text.LSM303DLHC_AccIT1Disable,"ax",%progbits
 846              		.align	1
 847              		.p2align 2,,3
 848              		.global	LSM303DLHC_AccIT1Disable
 849              		.syntax unified
 850              		.thumb
 851              		.thumb_func
 853              	LSM303DLHC_AccIT1Disable:
 854              	.LVL85:
 855              	.LFB9:
 344:Drivers/BSP/Components/lsm303dlhc/lsm303dlhc.c ****   uint8_t tmpval = 0x00;
 856              		.loc 1 344 1 is_stmt 1 view -0
 857              		.cfi_startproc
 858              		@ args = 0, pretend = 0, frame = 0
 859              		@ frame_needed = 0, uses_anonymous_args = 0
 345:Drivers/BSP/Components/lsm303dlhc/lsm303dlhc.c ****   
 860              		.loc 1 345 3 view .LVU282
 348:Drivers/BSP/Components/lsm303dlhc/lsm303dlhc.c ****   
 861              		.loc 1 348 3 view .LVU283
 344:Drivers/BSP/Components/lsm303dlhc/lsm303dlhc.c ****   uint8_t tmpval = 0x00;
 862              		.loc 1 344 1 is_stmt 0 view .LVU284
 863 0000 10B5     		push	{r4, lr}
 864              		.cfi_def_cfa_offset 8
ARM GAS  /var/folders/0z/tsy30v1j4xl4_7kw94k978ww0000gn/T//ccpK988n.s 			page 29


 865              		.cfi_offset 4, -8
 866              		.cfi_offset 14, -4
 348:Drivers/BSP/Components/lsm303dlhc/lsm303dlhc.c ****   
 867              		.loc 1 348 12 view .LVU285
 868 0002 2221     		movs	r1, #34
 344:Drivers/BSP/Components/lsm303dlhc/lsm303dlhc.c ****   uint8_t tmpval = 0x00;
 869              		.loc 1 344 1 view .LVU286
 870 0004 0446     		mov	r4, r0
 348:Drivers/BSP/Components/lsm303dlhc/lsm303dlhc.c ****   
 871              		.loc 1 348 12 view .LVU287
 872 0006 3220     		movs	r0, #50
 873              	.LVL86:
 348:Drivers/BSP/Components/lsm303dlhc/lsm303dlhc.c ****   
 874              		.loc 1 348 12 view .LVU288
 875 0008 FFF7FEFF 		bl	COMPASSACCELERO_IO_Read
 876              	.LVL87:
 351:Drivers/BSP/Components/lsm303dlhc/lsm303dlhc.c ****   
 877              		.loc 1 351 3 is_stmt 1 view .LVU289
 354:Drivers/BSP/Components/lsm303dlhc/lsm303dlhc.c **** }
 878              		.loc 1 354 3 view .LVU290
 351:Drivers/BSP/Components/lsm303dlhc/lsm303dlhc.c ****   
 879              		.loc 1 351 10 is_stmt 0 view .LVU291
 880 000c 20EA0400 		bic	r0, r0, r4
 881              	.LVL88:
 354:Drivers/BSP/Components/lsm303dlhc/lsm303dlhc.c **** }
 882              		.loc 1 354 3 view .LVU292
 883 0010 C2B2     		uxtb	r2, r0
 355:Drivers/BSP/Components/lsm303dlhc/lsm303dlhc.c **** 
 884              		.loc 1 355 1 view .LVU293
 885 0012 BDE81040 		pop	{r4, lr}
 886              		.cfi_restore 14
 887              		.cfi_restore 4
 888              		.cfi_def_cfa_offset 0
 354:Drivers/BSP/Components/lsm303dlhc/lsm303dlhc.c **** }
 889              		.loc 1 354 3 view .LVU294
 890 0016 2221     		movs	r1, #34
 891 0018 3220     		movs	r0, #50
 892 001a FFF7FEBF 		b	COMPASSACCELERO_IO_Write
 893              	.LVL89:
 894              		.cfi_endproc
 895              	.LFE9:
 897 001e 00BF     		.section	.text.LSM303DLHC_AccIT2Enable,"ax",%progbits
 898              		.align	1
 899              		.p2align 2,,3
 900              		.global	LSM303DLHC_AccIT2Enable
 901              		.syntax unified
 902              		.thumb
 903              		.thumb_func
 905              	LSM303DLHC_AccIT2Enable:
 906              	.LVL90:
 907              	.LFB10:
 370:Drivers/BSP/Components/lsm303dlhc/lsm303dlhc.c ****   uint8_t tmpval = 0x00;
 908              		.loc 1 370 1 is_stmt 1 view -0
 909              		.cfi_startproc
 910              		@ args = 0, pretend = 0, frame = 0
 911              		@ frame_needed = 0, uses_anonymous_args = 0
 371:Drivers/BSP/Components/lsm303dlhc/lsm303dlhc.c ****   
ARM GAS  /var/folders/0z/tsy30v1j4xl4_7kw94k978ww0000gn/T//ccpK988n.s 			page 30


 912              		.loc 1 371 3 view .LVU296
 374:Drivers/BSP/Components/lsm303dlhc/lsm303dlhc.c ****   
 913              		.loc 1 374 3 view .LVU297
 370:Drivers/BSP/Components/lsm303dlhc/lsm303dlhc.c ****   uint8_t tmpval = 0x00;
 914              		.loc 1 370 1 is_stmt 0 view .LVU298
 915 0000 10B5     		push	{r4, lr}
 916              		.cfi_def_cfa_offset 8
 917              		.cfi_offset 4, -8
 918              		.cfi_offset 14, -4
 374:Drivers/BSP/Components/lsm303dlhc/lsm303dlhc.c ****   
 919              		.loc 1 374 12 view .LVU299
 920 0002 2521     		movs	r1, #37
 370:Drivers/BSP/Components/lsm303dlhc/lsm303dlhc.c ****   uint8_t tmpval = 0x00;
 921              		.loc 1 370 1 view .LVU300
 922 0004 0446     		mov	r4, r0
 374:Drivers/BSP/Components/lsm303dlhc/lsm303dlhc.c ****   
 923              		.loc 1 374 12 view .LVU301
 924 0006 3220     		movs	r0, #50
 925              	.LVL91:
 374:Drivers/BSP/Components/lsm303dlhc/lsm303dlhc.c ****   
 926              		.loc 1 374 12 view .LVU302
 927 0008 FFF7FEFF 		bl	COMPASSACCELERO_IO_Read
 928              	.LVL92:
 377:Drivers/BSP/Components/lsm303dlhc/lsm303dlhc.c ****   
 929              		.loc 1 377 3 is_stmt 1 view .LVU303
 380:Drivers/BSP/Components/lsm303dlhc/lsm303dlhc.c **** }
 930              		.loc 1 380 3 view .LVU304
 377:Drivers/BSP/Components/lsm303dlhc/lsm303dlhc.c ****   
 931              		.loc 1 377 10 is_stmt 0 view .LVU305
 932 000c 2043     		orrs	r0, r0, r4
 933              	.LVL93:
 380:Drivers/BSP/Components/lsm303dlhc/lsm303dlhc.c **** }
 934              		.loc 1 380 3 view .LVU306
 935 000e C2B2     		uxtb	r2, r0
 381:Drivers/BSP/Components/lsm303dlhc/lsm303dlhc.c **** 
 936              		.loc 1 381 1 view .LVU307
 937 0010 BDE81040 		pop	{r4, lr}
 938              		.cfi_restore 14
 939              		.cfi_restore 4
 940              		.cfi_def_cfa_offset 0
 380:Drivers/BSP/Components/lsm303dlhc/lsm303dlhc.c **** }
 941              		.loc 1 380 3 view .LVU308
 942 0014 2521     		movs	r1, #37
 943 0016 3220     		movs	r0, #50
 944 0018 FFF7FEBF 		b	COMPASSACCELERO_IO_Write
 945              	.LVL94:
 946              		.cfi_endproc
 947              	.LFE10:
 949              		.section	.text.LSM303DLHC_AccIT2Disable,"ax",%progbits
 950              		.align	1
 951              		.p2align 2,,3
 952              		.global	LSM303DLHC_AccIT2Disable
 953              		.syntax unified
 954              		.thumb
 955              		.thumb_func
 957              	LSM303DLHC_AccIT2Disable:
 958              	.LVL95:
ARM GAS  /var/folders/0z/tsy30v1j4xl4_7kw94k978ww0000gn/T//ccpK988n.s 			page 31


 959              	.LFB11:
 396:Drivers/BSP/Components/lsm303dlhc/lsm303dlhc.c ****   uint8_t tmpval = 0x00;
 960              		.loc 1 396 1 is_stmt 1 view -0
 961              		.cfi_startproc
 962              		@ args = 0, pretend = 0, frame = 0
 963              		@ frame_needed = 0, uses_anonymous_args = 0
 397:Drivers/BSP/Components/lsm303dlhc/lsm303dlhc.c ****   
 964              		.loc 1 397 3 view .LVU310
 400:Drivers/BSP/Components/lsm303dlhc/lsm303dlhc.c ****   
 965              		.loc 1 400 3 view .LVU311
 396:Drivers/BSP/Components/lsm303dlhc/lsm303dlhc.c ****   uint8_t tmpval = 0x00;
 966              		.loc 1 396 1 is_stmt 0 view .LVU312
 967 0000 10B5     		push	{r4, lr}
 968              		.cfi_def_cfa_offset 8
 969              		.cfi_offset 4, -8
 970              		.cfi_offset 14, -4
 400:Drivers/BSP/Components/lsm303dlhc/lsm303dlhc.c ****   
 971              		.loc 1 400 12 view .LVU313
 972 0002 2521     		movs	r1, #37
 396:Drivers/BSP/Components/lsm303dlhc/lsm303dlhc.c ****   uint8_t tmpval = 0x00;
 973              		.loc 1 396 1 view .LVU314
 974 0004 0446     		mov	r4, r0
 400:Drivers/BSP/Components/lsm303dlhc/lsm303dlhc.c ****   
 975              		.loc 1 400 12 view .LVU315
 976 0006 3220     		movs	r0, #50
 977              	.LVL96:
 400:Drivers/BSP/Components/lsm303dlhc/lsm303dlhc.c ****   
 978              		.loc 1 400 12 view .LVU316
 979 0008 FFF7FEFF 		bl	COMPASSACCELERO_IO_Read
 980              	.LVL97:
 403:Drivers/BSP/Components/lsm303dlhc/lsm303dlhc.c ****   
 981              		.loc 1 403 3 is_stmt 1 view .LVU317
 406:Drivers/BSP/Components/lsm303dlhc/lsm303dlhc.c **** }
 982              		.loc 1 406 3 view .LVU318
 403:Drivers/BSP/Components/lsm303dlhc/lsm303dlhc.c ****   
 983              		.loc 1 403 10 is_stmt 0 view .LVU319
 984 000c 20EA0400 		bic	r0, r0, r4
 985              	.LVL98:
 406:Drivers/BSP/Components/lsm303dlhc/lsm303dlhc.c **** }
 986              		.loc 1 406 3 view .LVU320
 987 0010 C2B2     		uxtb	r2, r0
 407:Drivers/BSP/Components/lsm303dlhc/lsm303dlhc.c **** 
 988              		.loc 1 407 1 view .LVU321
 989 0012 BDE81040 		pop	{r4, lr}
 990              		.cfi_restore 14
 991              		.cfi_restore 4
 992              		.cfi_def_cfa_offset 0
 406:Drivers/BSP/Components/lsm303dlhc/lsm303dlhc.c **** }
 993              		.loc 1 406 3 view .LVU322
 994 0016 2521     		movs	r1, #37
 995 0018 3220     		movs	r0, #50
 996 001a FFF7FEBF 		b	COMPASSACCELERO_IO_Write
 997              	.LVL99:
 998              		.cfi_endproc
 999              	.LFE11:
 1001 001e 00BF     		.section	.text.LSM303DLHC_AccINT1InterruptEnable,"ax",%progbits
 1002              		.align	1
ARM GAS  /var/folders/0z/tsy30v1j4xl4_7kw94k978ww0000gn/T//ccpK988n.s 			page 32


 1003              		.p2align 2,,3
 1004              		.global	LSM303DLHC_AccINT1InterruptEnable
 1005              		.syntax unified
 1006              		.thumb
 1007              		.thumb_func
 1009              	LSM303DLHC_AccINT1InterruptEnable:
 1010              	.LVL100:
 1011              	.LFB12:
 416:Drivers/BSP/Components/lsm303dlhc/lsm303dlhc.c ****   uint8_t tmpval = 0x00;
 1012              		.loc 1 416 1 is_stmt 1 view -0
 1013              		.cfi_startproc
 1014              		@ args = 0, pretend = 0, frame = 0
 1015              		@ frame_needed = 0, uses_anonymous_args = 0
 417:Drivers/BSP/Components/lsm303dlhc/lsm303dlhc.c ****   
 1016              		.loc 1 417 3 view .LVU324
 420:Drivers/BSP/Components/lsm303dlhc/lsm303dlhc.c ****   
 1017              		.loc 1 420 3 view .LVU325
 416:Drivers/BSP/Components/lsm303dlhc/lsm303dlhc.c ****   uint8_t tmpval = 0x00;
 1018              		.loc 1 416 1 is_stmt 0 view .LVU326
 1019 0000 38B5     		push	{r3, r4, r5, lr}
 1020              		.cfi_def_cfa_offset 16
 1021              		.cfi_offset 3, -16
 1022              		.cfi_offset 4, -12
 1023              		.cfi_offset 5, -8
 1024              		.cfi_offset 14, -4
 416:Drivers/BSP/Components/lsm303dlhc/lsm303dlhc.c ****   uint8_t tmpval = 0x00;
 1025              		.loc 1 416 1 view .LVU327
 1026 0002 0546     		mov	r5, r0
 1027 0004 0C46     		mov	r4, r1
 420:Drivers/BSP/Components/lsm303dlhc/lsm303dlhc.c ****   
 1028              		.loc 1 420 12 view .LVU328
 1029 0006 3220     		movs	r0, #50
 1030              	.LVL101:
 420:Drivers/BSP/Components/lsm303dlhc/lsm303dlhc.c ****   
 1031              		.loc 1 420 12 view .LVU329
 1032 0008 3021     		movs	r1, #48
 1033              	.LVL102:
 420:Drivers/BSP/Components/lsm303dlhc/lsm303dlhc.c ****   
 1034              		.loc 1 420 12 view .LVU330
 1035 000a FFF7FEFF 		bl	COMPASSACCELERO_IO_Read
 1036              	.LVL103:
 423:Drivers/BSP/Components/lsm303dlhc/lsm303dlhc.c ****   
 1037              		.loc 1 423 3 is_stmt 1 view .LVU331
 426:Drivers/BSP/Components/lsm303dlhc/lsm303dlhc.c **** }
 1038              		.loc 1 426 3 view .LVU332
 423:Drivers/BSP/Components/lsm303dlhc/lsm303dlhc.c ****   
 1039              		.loc 1 423 10 is_stmt 0 view .LVU333
 1040 000e 2C43     		orrs	r4, r4, r5
 1041              	.LVL104:
 423:Drivers/BSP/Components/lsm303dlhc/lsm303dlhc.c ****   
 1042              		.loc 1 423 10 view .LVU334
 1043 0010 2043     		orrs	r0, r0, r4
 426:Drivers/BSP/Components/lsm303dlhc/lsm303dlhc.c **** }
 1044              		.loc 1 426 3 view .LVU335
 1045 0012 C2B2     		uxtb	r2, r0
 427:Drivers/BSP/Components/lsm303dlhc/lsm303dlhc.c **** 
 1046              		.loc 1 427 1 view .LVU336
ARM GAS  /var/folders/0z/tsy30v1j4xl4_7kw94k978ww0000gn/T//ccpK988n.s 			page 33


 1047 0014 BDE83840 		pop	{r3, r4, r5, lr}
 1048              		.cfi_restore 14
 1049              		.cfi_restore 5
 1050              		.cfi_restore 4
 1051              		.cfi_restore 3
 1052              		.cfi_def_cfa_offset 0
 426:Drivers/BSP/Components/lsm303dlhc/lsm303dlhc.c **** }
 1053              		.loc 1 426 3 view .LVU337
 1054 0018 3021     		movs	r1, #48
 1055 001a 3220     		movs	r0, #50
 1056 001c FFF7FEBF 		b	COMPASSACCELERO_IO_Write
 1057              	.LVL105:
 1058              		.cfi_endproc
 1059              	.LFE12:
 1061              		.section	.text.LSM303DLHC_AccINT1InterruptDisable,"ax",%progbits
 1062              		.align	1
 1063              		.p2align 2,,3
 1064              		.global	LSM303DLHC_AccINT1InterruptDisable
 1065              		.syntax unified
 1066              		.thumb
 1067              		.thumb_func
 1069              	LSM303DLHC_AccINT1InterruptDisable:
 1070              	.LVL106:
 1071              	.LFB13:
 436:Drivers/BSP/Components/lsm303dlhc/lsm303dlhc.c ****   uint8_t tmpval = 0x00;
 1072              		.loc 1 436 1 is_stmt 1 view -0
 1073              		.cfi_startproc
 1074              		@ args = 0, pretend = 0, frame = 0
 1075              		@ frame_needed = 0, uses_anonymous_args = 0
 437:Drivers/BSP/Components/lsm303dlhc/lsm303dlhc.c ****   
 1076              		.loc 1 437 3 view .LVU339
 440:Drivers/BSP/Components/lsm303dlhc/lsm303dlhc.c ****   
 1077              		.loc 1 440 3 view .LVU340
 436:Drivers/BSP/Components/lsm303dlhc/lsm303dlhc.c ****   uint8_t tmpval = 0x00;
 1078              		.loc 1 436 1 is_stmt 0 view .LVU341
 1079 0000 38B5     		push	{r3, r4, r5, lr}
 1080              		.cfi_def_cfa_offset 16
 1081              		.cfi_offset 3, -16
 1082              		.cfi_offset 4, -12
 1083              		.cfi_offset 5, -8
 1084              		.cfi_offset 14, -4
 436:Drivers/BSP/Components/lsm303dlhc/lsm303dlhc.c ****   uint8_t tmpval = 0x00;
 1085              		.loc 1 436 1 view .LVU342
 1086 0002 0546     		mov	r5, r0
 1087 0004 0C46     		mov	r4, r1
 440:Drivers/BSP/Components/lsm303dlhc/lsm303dlhc.c ****   
 1088              		.loc 1 440 12 view .LVU343
 1089 0006 3220     		movs	r0, #50
 1090              	.LVL107:
 440:Drivers/BSP/Components/lsm303dlhc/lsm303dlhc.c ****   
 1091              		.loc 1 440 12 view .LVU344
 1092 0008 3021     		movs	r1, #48
 1093              	.LVL108:
 440:Drivers/BSP/Components/lsm303dlhc/lsm303dlhc.c ****   
 1094              		.loc 1 440 12 view .LVU345
 1095 000a FFF7FEFF 		bl	COMPASSACCELERO_IO_Read
 1096              	.LVL109:
ARM GAS  /var/folders/0z/tsy30v1j4xl4_7kw94k978ww0000gn/T//ccpK988n.s 			page 34


 443:Drivers/BSP/Components/lsm303dlhc/lsm303dlhc.c ****   
 1097              		.loc 1 443 3 is_stmt 1 view .LVU346
 446:Drivers/BSP/Components/lsm303dlhc/lsm303dlhc.c **** }
 1098              		.loc 1 446 3 view .LVU347
 443:Drivers/BSP/Components/lsm303dlhc/lsm303dlhc.c ****   
 1099              		.loc 1 443 10 is_stmt 0 view .LVU348
 1100 000e 2C43     		orrs	r4, r4, r5
 1101              	.LVL110:
 443:Drivers/BSP/Components/lsm303dlhc/lsm303dlhc.c ****   
 1102              		.loc 1 443 10 view .LVU349
 1103 0010 20EA0400 		bic	r0, r0, r4
 446:Drivers/BSP/Components/lsm303dlhc/lsm303dlhc.c **** }
 1104              		.loc 1 446 3 view .LVU350
 1105 0014 C2B2     		uxtb	r2, r0
 447:Drivers/BSP/Components/lsm303dlhc/lsm303dlhc.c **** 
 1106              		.loc 1 447 1 view .LVU351
 1107 0016 BDE83840 		pop	{r3, r4, r5, lr}
 1108              		.cfi_restore 14
 1109              		.cfi_restore 5
 1110              		.cfi_restore 4
 1111              		.cfi_restore 3
 1112              		.cfi_def_cfa_offset 0
 446:Drivers/BSP/Components/lsm303dlhc/lsm303dlhc.c **** }
 1113              		.loc 1 446 3 view .LVU352
 1114 001a 3021     		movs	r1, #48
 1115 001c 3220     		movs	r0, #50
 1116 001e FFF7FEBF 		b	COMPASSACCELERO_IO_Write
 1117              	.LVL111:
 1118              		.cfi_endproc
 1119              	.LFE13:
 1121 0022 00BF     		.section	.text.LSM303DLHC_AccINT2InterruptEnable,"ax",%progbits
 1122              		.align	1
 1123              		.p2align 2,,3
 1124              		.global	LSM303DLHC_AccINT2InterruptEnable
 1125              		.syntax unified
 1126              		.thumb
 1127              		.thumb_func
 1129              	LSM303DLHC_AccINT2InterruptEnable:
 1130              	.LVL112:
 1131              	.LFB14:
 456:Drivers/BSP/Components/lsm303dlhc/lsm303dlhc.c ****   uint8_t tmpval = 0x00;
 1132              		.loc 1 456 1 is_stmt 1 view -0
 1133              		.cfi_startproc
 1134              		@ args = 0, pretend = 0, frame = 0
 1135              		@ frame_needed = 0, uses_anonymous_args = 0
 457:Drivers/BSP/Components/lsm303dlhc/lsm303dlhc.c ****   
 1136              		.loc 1 457 3 view .LVU354
 460:Drivers/BSP/Components/lsm303dlhc/lsm303dlhc.c ****   
 1137              		.loc 1 460 3 view .LVU355
 456:Drivers/BSP/Components/lsm303dlhc/lsm303dlhc.c ****   uint8_t tmpval = 0x00;
 1138              		.loc 1 456 1 is_stmt 0 view .LVU356
 1139 0000 38B5     		push	{r3, r4, r5, lr}
 1140              		.cfi_def_cfa_offset 16
 1141              		.cfi_offset 3, -16
 1142              		.cfi_offset 4, -12
 1143              		.cfi_offset 5, -8
 1144              		.cfi_offset 14, -4
ARM GAS  /var/folders/0z/tsy30v1j4xl4_7kw94k978ww0000gn/T//ccpK988n.s 			page 35


 456:Drivers/BSP/Components/lsm303dlhc/lsm303dlhc.c ****   uint8_t tmpval = 0x00;
 1145              		.loc 1 456 1 view .LVU357
 1146 0002 0546     		mov	r5, r0
 1147 0004 0C46     		mov	r4, r1
 460:Drivers/BSP/Components/lsm303dlhc/lsm303dlhc.c ****   
 1148              		.loc 1 460 12 view .LVU358
 1149 0006 3220     		movs	r0, #50
 1150              	.LVL113:
 460:Drivers/BSP/Components/lsm303dlhc/lsm303dlhc.c ****   
 1151              		.loc 1 460 12 view .LVU359
 1152 0008 3421     		movs	r1, #52
 1153              	.LVL114:
 460:Drivers/BSP/Components/lsm303dlhc/lsm303dlhc.c ****   
 1154              		.loc 1 460 12 view .LVU360
 1155 000a FFF7FEFF 		bl	COMPASSACCELERO_IO_Read
 1156              	.LVL115:
 463:Drivers/BSP/Components/lsm303dlhc/lsm303dlhc.c ****   
 1157              		.loc 1 463 3 is_stmt 1 view .LVU361
 466:Drivers/BSP/Components/lsm303dlhc/lsm303dlhc.c **** }
 1158              		.loc 1 466 3 view .LVU362
 463:Drivers/BSP/Components/lsm303dlhc/lsm303dlhc.c ****   
 1159              		.loc 1 463 10 is_stmt 0 view .LVU363
 1160 000e 2C43     		orrs	r4, r4, r5
 1161              	.LVL116:
 463:Drivers/BSP/Components/lsm303dlhc/lsm303dlhc.c ****   
 1162              		.loc 1 463 10 view .LVU364
 1163 0010 2043     		orrs	r0, r0, r4
 466:Drivers/BSP/Components/lsm303dlhc/lsm303dlhc.c **** }
 1164              		.loc 1 466 3 view .LVU365
 1165 0012 C2B2     		uxtb	r2, r0
 467:Drivers/BSP/Components/lsm303dlhc/lsm303dlhc.c **** 
 1166              		.loc 1 467 1 view .LVU366
 1167 0014 BDE83840 		pop	{r3, r4, r5, lr}
 1168              		.cfi_restore 14
 1169              		.cfi_restore 5
 1170              		.cfi_restore 4
 1171              		.cfi_restore 3
 1172              		.cfi_def_cfa_offset 0
 466:Drivers/BSP/Components/lsm303dlhc/lsm303dlhc.c **** }
 1173              		.loc 1 466 3 view .LVU367
 1174 0018 3421     		movs	r1, #52
 1175 001a 3220     		movs	r0, #50
 1176 001c FFF7FEBF 		b	COMPASSACCELERO_IO_Write
 1177              	.LVL117:
 1178              		.cfi_endproc
 1179              	.LFE14:
 1181              		.section	.text.LSM303DLHC_AccINT2InterruptDisable,"ax",%progbits
 1182              		.align	1
 1183              		.p2align 2,,3
 1184              		.global	LSM303DLHC_AccINT2InterruptDisable
 1185              		.syntax unified
 1186              		.thumb
 1187              		.thumb_func
 1189              	LSM303DLHC_AccINT2InterruptDisable:
 1190              	.LVL118:
 1191              	.LFB15:
 476:Drivers/BSP/Components/lsm303dlhc/lsm303dlhc.c ****   uint8_t tmpval = 0x00;
ARM GAS  /var/folders/0z/tsy30v1j4xl4_7kw94k978ww0000gn/T//ccpK988n.s 			page 36


 1192              		.loc 1 476 1 is_stmt 1 view -0
 1193              		.cfi_startproc
 1194              		@ args = 0, pretend = 0, frame = 0
 1195              		@ frame_needed = 0, uses_anonymous_args = 0
 477:Drivers/BSP/Components/lsm303dlhc/lsm303dlhc.c ****   
 1196              		.loc 1 477 3 view .LVU369
 480:Drivers/BSP/Components/lsm303dlhc/lsm303dlhc.c ****   
 1197              		.loc 1 480 3 view .LVU370
 476:Drivers/BSP/Components/lsm303dlhc/lsm303dlhc.c ****   uint8_t tmpval = 0x00;
 1198              		.loc 1 476 1 is_stmt 0 view .LVU371
 1199 0000 38B5     		push	{r3, r4, r5, lr}
 1200              		.cfi_def_cfa_offset 16
 1201              		.cfi_offset 3, -16
 1202              		.cfi_offset 4, -12
 1203              		.cfi_offset 5, -8
 1204              		.cfi_offset 14, -4
 476:Drivers/BSP/Components/lsm303dlhc/lsm303dlhc.c ****   uint8_t tmpval = 0x00;
 1205              		.loc 1 476 1 view .LVU372
 1206 0002 0546     		mov	r5, r0
 1207 0004 0C46     		mov	r4, r1
 480:Drivers/BSP/Components/lsm303dlhc/lsm303dlhc.c ****   
 1208              		.loc 1 480 12 view .LVU373
 1209 0006 3220     		movs	r0, #50
 1210              	.LVL119:
 480:Drivers/BSP/Components/lsm303dlhc/lsm303dlhc.c ****   
 1211              		.loc 1 480 12 view .LVU374
 1212 0008 3421     		movs	r1, #52
 1213              	.LVL120:
 480:Drivers/BSP/Components/lsm303dlhc/lsm303dlhc.c ****   
 1214              		.loc 1 480 12 view .LVU375
 1215 000a FFF7FEFF 		bl	COMPASSACCELERO_IO_Read
 1216              	.LVL121:
 483:Drivers/BSP/Components/lsm303dlhc/lsm303dlhc.c ****   
 1217              		.loc 1 483 3 is_stmt 1 view .LVU376
 486:Drivers/BSP/Components/lsm303dlhc/lsm303dlhc.c **** }
 1218              		.loc 1 486 3 view .LVU377
 483:Drivers/BSP/Components/lsm303dlhc/lsm303dlhc.c ****   
 1219              		.loc 1 483 10 is_stmt 0 view .LVU378
 1220 000e 2C43     		orrs	r4, r4, r5
 1221              	.LVL122:
 483:Drivers/BSP/Components/lsm303dlhc/lsm303dlhc.c ****   
 1222              		.loc 1 483 10 view .LVU379
 1223 0010 20EA0400 		bic	r0, r0, r4
 486:Drivers/BSP/Components/lsm303dlhc/lsm303dlhc.c **** }
 1224              		.loc 1 486 3 view .LVU380
 1225 0014 C2B2     		uxtb	r2, r0
 487:Drivers/BSP/Components/lsm303dlhc/lsm303dlhc.c **** 
 1226              		.loc 1 487 1 view .LVU381
 1227 0016 BDE83840 		pop	{r3, r4, r5, lr}
 1228              		.cfi_restore 14
 1229              		.cfi_restore 5
 1230              		.cfi_restore 4
 1231              		.cfi_restore 3
 1232              		.cfi_def_cfa_offset 0
 486:Drivers/BSP/Components/lsm303dlhc/lsm303dlhc.c **** }
 1233              		.loc 1 486 3 view .LVU382
 1234 001a 3421     		movs	r1, #52
ARM GAS  /var/folders/0z/tsy30v1j4xl4_7kw94k978ww0000gn/T//ccpK988n.s 			page 37


 1235 001c 3220     		movs	r0, #50
 1236 001e FFF7FEBF 		b	COMPASSACCELERO_IO_Write
 1237              	.LVL123:
 1238              		.cfi_endproc
 1239              	.LFE15:
 1241 0022 00BF     		.section	.text.LSM303DLHC_AccClickITEnable,"ax",%progbits
 1242              		.align	1
 1243              		.p2align 2,,3
 1244              		.global	LSM303DLHC_AccClickITEnable
 1245              		.syntax unified
 1246              		.thumb
 1247              		.thumb_func
 1249              	LSM303DLHC_AccClickITEnable:
 1250              	.LVL124:
 1251              	.LFB16:
 495:Drivers/BSP/Components/lsm303dlhc/lsm303dlhc.c ****   uint8_t tmpval = 0x00;
 1252              		.loc 1 495 1 is_stmt 1 view -0
 1253              		.cfi_startproc
 1254              		@ args = 0, pretend = 0, frame = 0
 1255              		@ frame_needed = 0, uses_anonymous_args = 0
 496:Drivers/BSP/Components/lsm303dlhc/lsm303dlhc.c ****   
 1256              		.loc 1 496 3 view .LVU384
 499:Drivers/BSP/Components/lsm303dlhc/lsm303dlhc.c ****   
 1257              		.loc 1 499 3 view .LVU385
 495:Drivers/BSP/Components/lsm303dlhc/lsm303dlhc.c ****   uint8_t tmpval = 0x00;
 1258              		.loc 1 495 1 is_stmt 0 view .LVU386
 1259 0000 10B5     		push	{r4, lr}
 1260              		.cfi_def_cfa_offset 8
 1261              		.cfi_offset 4, -8
 1262              		.cfi_offset 14, -4
 499:Drivers/BSP/Components/lsm303dlhc/lsm303dlhc.c ****   
 1263              		.loc 1 499 12 view .LVU387
 1264 0002 3821     		movs	r1, #56
 495:Drivers/BSP/Components/lsm303dlhc/lsm303dlhc.c ****   uint8_t tmpval = 0x00;
 1265              		.loc 1 495 1 view .LVU388
 1266 0004 0446     		mov	r4, r0
 499:Drivers/BSP/Components/lsm303dlhc/lsm303dlhc.c ****   
 1267              		.loc 1 499 12 view .LVU389
 1268 0006 3220     		movs	r0, #50
 1269              	.LVL125:
 499:Drivers/BSP/Components/lsm303dlhc/lsm303dlhc.c ****   
 1270              		.loc 1 499 12 view .LVU390
 1271 0008 FFF7FEFF 		bl	COMPASSACCELERO_IO_Read
 1272              	.LVL126:
 502:Drivers/BSP/Components/lsm303dlhc/lsm303dlhc.c ****   
 1273              		.loc 1 502 3 is_stmt 1 view .LVU391
 505:Drivers/BSP/Components/lsm303dlhc/lsm303dlhc.c ****   
 1274              		.loc 1 505 3 view .LVU392
 502:Drivers/BSP/Components/lsm303dlhc/lsm303dlhc.c ****   
 1275              		.loc 1 502 10 is_stmt 0 view .LVU393
 1276 000c 2043     		orrs	r0, r0, r4
 1277              	.LVL127:
 505:Drivers/BSP/Components/lsm303dlhc/lsm303dlhc.c ****   
 1278              		.loc 1 505 3 view .LVU394
 1279 000e C2B2     		uxtb	r2, r0
 1280 0010 3821     		movs	r1, #56
 1281 0012 3220     		movs	r0, #50
ARM GAS  /var/folders/0z/tsy30v1j4xl4_7kw94k978ww0000gn/T//ccpK988n.s 			page 38


 1282 0014 FFF7FEFF 		bl	COMPASSACCELERO_IO_Write
 1283              	.LVL128:
 508:Drivers/BSP/Components/lsm303dlhc/lsm303dlhc.c ****   COMPASSACCELERO_IO_Write(ACC_I2C_ADDRESS, LSM303DLHC_CLICK_THS_A, tmpval);
 1284              		.loc 1 508 3 is_stmt 1 view .LVU395
 509:Drivers/BSP/Components/lsm303dlhc/lsm303dlhc.c ****   
 1285              		.loc 1 509 3 view .LVU396
 1286 0018 0A22     		movs	r2, #10
 1287 001a 3A21     		movs	r1, #58
 1288 001c 3220     		movs	r0, #50
 1289 001e FFF7FEFF 		bl	COMPASSACCELERO_IO_Write
 1290              	.LVL129:
 512:Drivers/BSP/Components/lsm303dlhc/lsm303dlhc.c ****   COMPASSACCELERO_IO_Write(ACC_I2C_ADDRESS, LSM303DLHC_TIME_LIMIT_A, tmpval);
 1291              		.loc 1 512 3 view .LVU397
 513:Drivers/BSP/Components/lsm303dlhc/lsm303dlhc.c ****   
 1292              		.loc 1 513 3 view .LVU398
 1293 0022 0522     		movs	r2, #5
 1294 0024 3B21     		movs	r1, #59
 1295 0026 3220     		movs	r0, #50
 1296 0028 FFF7FEFF 		bl	COMPASSACCELERO_IO_Write
 1297              	.LVL130:
 516:Drivers/BSP/Components/lsm303dlhc/lsm303dlhc.c ****   
 1298              		.loc 1 516 3 view .LVU399
 1299 002c 0522     		movs	r2, #5
 1300 002e 3C21     		movs	r1, #60
 1301 0030 3220     		movs	r0, #50
 1302 0032 FFF7FEFF 		bl	COMPASSACCELERO_IO_Write
 1303              	.LVL131:
 519:Drivers/BSP/Components/lsm303dlhc/lsm303dlhc.c ****   COMPASSACCELERO_IO_Write(ACC_I2C_ADDRESS, LSM303DLHC_TIME_WINDOW_A, tmpval);
 1304              		.loc 1 519 3 view .LVU400
 520:Drivers/BSP/Components/lsm303dlhc/lsm303dlhc.c **** }
 1305              		.loc 1 520 3 view .LVU401
 1306 0036 3222     		movs	r2, #50
 521:Drivers/BSP/Components/lsm303dlhc/lsm303dlhc.c **** 
 1307              		.loc 1 521 1 is_stmt 0 view .LVU402
 1308 0038 BDE81040 		pop	{r4, lr}
 1309              		.cfi_restore 14
 1310              		.cfi_restore 4
 1311              		.cfi_def_cfa_offset 0
 520:Drivers/BSP/Components/lsm303dlhc/lsm303dlhc.c **** }
 1312              		.loc 1 520 3 view .LVU403
 1313 003c 3D21     		movs	r1, #61
 1314 003e 1046     		mov	r0, r2
 1315 0040 FFF7FEBF 		b	COMPASSACCELERO_IO_Write
 1316              	.LVL132:
 1317              		.cfi_endproc
 1318              	.LFE16:
 1320              		.section	.text.LSM303DLHC_AccClickITDisable,"ax",%progbits
 1321              		.align	1
 1322              		.p2align 2,,3
 1323              		.global	LSM303DLHC_AccClickITDisable
 1324              		.syntax unified
 1325              		.thumb
 1326              		.thumb_func
 1328              	LSM303DLHC_AccClickITDisable:
 1329              	.LVL133:
 1330              	.LFB17:
 529:Drivers/BSP/Components/lsm303dlhc/lsm303dlhc.c ****   uint8_t tmpval = 0x00;
ARM GAS  /var/folders/0z/tsy30v1j4xl4_7kw94k978ww0000gn/T//ccpK988n.s 			page 39


 1331              		.loc 1 529 1 is_stmt 1 view -0
 1332              		.cfi_startproc
 1333              		@ args = 0, pretend = 0, frame = 0
 1334              		@ frame_needed = 0, uses_anonymous_args = 0
 530:Drivers/BSP/Components/lsm303dlhc/lsm303dlhc.c ****   
 1335              		.loc 1 530 3 view .LVU405
 533:Drivers/BSP/Components/lsm303dlhc/lsm303dlhc.c ****   
 1336              		.loc 1 533 3 view .LVU406
 529:Drivers/BSP/Components/lsm303dlhc/lsm303dlhc.c ****   uint8_t tmpval = 0x00;
 1337              		.loc 1 529 1 is_stmt 0 view .LVU407
 1338 0000 10B5     		push	{r4, lr}
 1339              		.cfi_def_cfa_offset 8
 1340              		.cfi_offset 4, -8
 1341              		.cfi_offset 14, -4
 533:Drivers/BSP/Components/lsm303dlhc/lsm303dlhc.c ****   
 1342              		.loc 1 533 12 view .LVU408
 1343 0002 3821     		movs	r1, #56
 529:Drivers/BSP/Components/lsm303dlhc/lsm303dlhc.c ****   uint8_t tmpval = 0x00;
 1344              		.loc 1 529 1 view .LVU409
 1345 0004 0446     		mov	r4, r0
 533:Drivers/BSP/Components/lsm303dlhc/lsm303dlhc.c ****   
 1346              		.loc 1 533 12 view .LVU410
 1347 0006 3220     		movs	r0, #50
 1348              	.LVL134:
 533:Drivers/BSP/Components/lsm303dlhc/lsm303dlhc.c ****   
 1349              		.loc 1 533 12 view .LVU411
 1350 0008 FFF7FEFF 		bl	COMPASSACCELERO_IO_Read
 1351              	.LVL135:
 536:Drivers/BSP/Components/lsm303dlhc/lsm303dlhc.c ****   
 1352              		.loc 1 536 3 is_stmt 1 view .LVU412
 539:Drivers/BSP/Components/lsm303dlhc/lsm303dlhc.c **** }
 1353              		.loc 1 539 3 view .LVU413
 536:Drivers/BSP/Components/lsm303dlhc/lsm303dlhc.c ****   
 1354              		.loc 1 536 10 is_stmt 0 view .LVU414
 1355 000c 20EA0400 		bic	r0, r0, r4
 1356              	.LVL136:
 539:Drivers/BSP/Components/lsm303dlhc/lsm303dlhc.c **** }
 1357              		.loc 1 539 3 view .LVU415
 1358 0010 C2B2     		uxtb	r2, r0
 540:Drivers/BSP/Components/lsm303dlhc/lsm303dlhc.c **** 
 1359              		.loc 1 540 1 view .LVU416
 1360 0012 BDE81040 		pop	{r4, lr}
 1361              		.cfi_restore 14
 1362              		.cfi_restore 4
 1363              		.cfi_def_cfa_offset 0
 539:Drivers/BSP/Components/lsm303dlhc/lsm303dlhc.c **** }
 1364              		.loc 1 539 3 view .LVU417
 1365 0016 3821     		movs	r1, #56
 1366 0018 3220     		movs	r0, #50
 1367 001a FFF7FEBF 		b	COMPASSACCELERO_IO_Write
 1368              	.LVL137:
 1369              		.cfi_endproc
 1370              	.LFE17:
 1372              		.global	Lsm303dlhcDrv
 1373 001e 00BF     		.section	.data.Lsm303dlhcDrv,"aw"
 1374              		.align	2
 1377              	Lsm303dlhcDrv:
ARM GAS  /var/folders/0z/tsy30v1j4xl4_7kw94k978ww0000gn/T//ccpK988n.s 			page 40


 1378 0000 00000000 		.word	LSM303DLHC_AccInit
 1379 0004 00000000 		.word	LSM303DLHC_AccDeInit
 1380 0008 00000000 		.word	LSM303DLHC_AccReadID
 1381 000c 00000000 		.word	LSM303DLHC_AccRebootCmd
 1382 0010 00000000 		.word	0
 1383 0014 00000000 		.word	LSM303DLHC_AccZClickITConfig
 1384 0018 00000000 		.word	0
 1385 001c 00000000 		.word	0
 1386 0020 00000000 		.word	0
 1387 0024 00000000 		.word	0
 1388 0028 00000000 		.word	LSM303DLHC_AccFilterConfig
 1389 002c 00000000 		.word	LSM303DLHC_AccFilterCmd
 1390 0030 00000000 		.word	LSM303DLHC_AccReadXYZ
 1391              		.text
 1392              	.Letext0:
 1393              		.file 2 "/Users/johannes/Library/Application Support/Code/User/globalStorage/bmd.stm32-for-vscode/
 1394              		.file 3 "/Users/johannes/Library/Application Support/Code/User/globalStorage/bmd.stm32-for-vscode/
 1395              		.file 4 "Drivers/BSP/Components/lsm303dlhc/../Common/accelero.h"
 1396              		.file 5 "Drivers/BSP/Components/lsm303dlhc/lsm303dlhc.h"
ARM GAS  /var/folders/0z/tsy30v1j4xl4_7kw94k978ww0000gn/T//ccpK988n.s 			page 41

