ARM GAS  /var/folders/0z/tsy30v1j4xl4_7kw94k978ww0000gn/T//ccCn98Rz.s 			page 1


   1              		.cpu cortex-m4
   2              		.arch armv7e-m
   3              		.fpu fpv4-sp-d16
   4              		.eabi_attribute 27, 1
   5              		.eabi_attribute 28, 1
   6              		.eabi_attribute 20, 1
   7              		.eabi_attribute 21, 1
   8              		.eabi_attribute 23, 3
   9              		.eabi_attribute 24, 1
  10              		.eabi_attribute 25, 1
  11              		.eabi_attribute 26, 1
  12              		.eabi_attribute 30, 2
  13              		.eabi_attribute 34, 1
  14              		.eabi_attribute 18, 4
  15              		.file	"lv_anim_timeline.c"
  16              		.text
  17              	.Ltext0:
  18              		.cfi_sections	.debug_frame
  19              		.section	.text.lv_anim_timeline_virtual_exec_cb,"ax",%progbits
  20              		.align	1
  21              		.p2align 2,,3
  22              		.syntax unified
  23              		.thumb
  24              		.thumb_func
  26              	lv_anim_timeline_virtual_exec_cb:
  27              	.LVL0:
  28              	.LFB31:
  29              		.file 1 "Drivers/lvgl/src/misc/lv_anim_timeline.c"
   1:Drivers/lvgl/src/misc/lv_anim_timeline.c **** /**
   2:Drivers/lvgl/src/misc/lv_anim_timeline.c ****  * @file lv_anim_timeline.c
   3:Drivers/lvgl/src/misc/lv_anim_timeline.c ****  *
   4:Drivers/lvgl/src/misc/lv_anim_timeline.c ****  */
   5:Drivers/lvgl/src/misc/lv_anim_timeline.c **** 
   6:Drivers/lvgl/src/misc/lv_anim_timeline.c **** /*********************
   7:Drivers/lvgl/src/misc/lv_anim_timeline.c ****  *      INCLUDES
   8:Drivers/lvgl/src/misc/lv_anim_timeline.c ****  *********************/
   9:Drivers/lvgl/src/misc/lv_anim_timeline.c **** #include "lv_anim_timeline.h"
  10:Drivers/lvgl/src/misc/lv_anim_timeline.c **** #include "lv_mem.h"
  11:Drivers/lvgl/src/misc/lv_anim_timeline.c **** #include "lv_assert.h"
  12:Drivers/lvgl/src/misc/lv_anim_timeline.c **** 
  13:Drivers/lvgl/src/misc/lv_anim_timeline.c **** /*********************
  14:Drivers/lvgl/src/misc/lv_anim_timeline.c ****  *      DEFINES
  15:Drivers/lvgl/src/misc/lv_anim_timeline.c ****  *********************/
  16:Drivers/lvgl/src/misc/lv_anim_timeline.c **** 
  17:Drivers/lvgl/src/misc/lv_anim_timeline.c **** /**********************
  18:Drivers/lvgl/src/misc/lv_anim_timeline.c ****  *      TYPEDEFS
  19:Drivers/lvgl/src/misc/lv_anim_timeline.c ****  **********************/
  20:Drivers/lvgl/src/misc/lv_anim_timeline.c **** 
  21:Drivers/lvgl/src/misc/lv_anim_timeline.c **** /*Data of anim_timeline_dsc*/
  22:Drivers/lvgl/src/misc/lv_anim_timeline.c **** typedef struct {
  23:Drivers/lvgl/src/misc/lv_anim_timeline.c ****     lv_anim_t anim;
  24:Drivers/lvgl/src/misc/lv_anim_timeline.c ****     uint32_t start_time;
  25:Drivers/lvgl/src/misc/lv_anim_timeline.c **** } lv_anim_timeline_dsc_t;
  26:Drivers/lvgl/src/misc/lv_anim_timeline.c **** 
  27:Drivers/lvgl/src/misc/lv_anim_timeline.c **** /*Data of anim_timeline*/
  28:Drivers/lvgl/src/misc/lv_anim_timeline.c **** struct _lv_anim_timeline_t {
  29:Drivers/lvgl/src/misc/lv_anim_timeline.c ****     lv_anim_timeline_dsc_t * anim_dsc;  /**< Dynamically allocated anim dsc array*/
ARM GAS  /var/folders/0z/tsy30v1j4xl4_7kw94k978ww0000gn/T//ccCn98Rz.s 			page 2


  30:Drivers/lvgl/src/misc/lv_anim_timeline.c ****     uint32_t anim_dsc_cnt;              /**< The length of anim dsc array*/
  31:Drivers/lvgl/src/misc/lv_anim_timeline.c ****     bool reverse;                       /**< Reverse playback*/
  32:Drivers/lvgl/src/misc/lv_anim_timeline.c **** };
  33:Drivers/lvgl/src/misc/lv_anim_timeline.c **** 
  34:Drivers/lvgl/src/misc/lv_anim_timeline.c **** /**********************
  35:Drivers/lvgl/src/misc/lv_anim_timeline.c ****  *  STATIC PROTOTYPES
  36:Drivers/lvgl/src/misc/lv_anim_timeline.c ****  **********************/
  37:Drivers/lvgl/src/misc/lv_anim_timeline.c **** static void lv_anim_timeline_virtual_exec_cb(void * var, int32_t v);
  38:Drivers/lvgl/src/misc/lv_anim_timeline.c **** 
  39:Drivers/lvgl/src/misc/lv_anim_timeline.c **** /**********************
  40:Drivers/lvgl/src/misc/lv_anim_timeline.c ****  *  STATIC VARIABLES
  41:Drivers/lvgl/src/misc/lv_anim_timeline.c ****  **********************/
  42:Drivers/lvgl/src/misc/lv_anim_timeline.c **** 
  43:Drivers/lvgl/src/misc/lv_anim_timeline.c **** /**********************
  44:Drivers/lvgl/src/misc/lv_anim_timeline.c ****  *      MACROS
  45:Drivers/lvgl/src/misc/lv_anim_timeline.c ****  **********************/
  46:Drivers/lvgl/src/misc/lv_anim_timeline.c **** 
  47:Drivers/lvgl/src/misc/lv_anim_timeline.c **** /**********************
  48:Drivers/lvgl/src/misc/lv_anim_timeline.c ****  *   GLOBAL FUNCTIONS
  49:Drivers/lvgl/src/misc/lv_anim_timeline.c ****  **********************/
  50:Drivers/lvgl/src/misc/lv_anim_timeline.c **** 
  51:Drivers/lvgl/src/misc/lv_anim_timeline.c **** lv_anim_timeline_t * lv_anim_timeline_create(void)
  52:Drivers/lvgl/src/misc/lv_anim_timeline.c **** {
  53:Drivers/lvgl/src/misc/lv_anim_timeline.c ****     lv_anim_timeline_t * at = (lv_anim_timeline_t *)lv_mem_alloc(sizeof(lv_anim_timeline_t));
  54:Drivers/lvgl/src/misc/lv_anim_timeline.c **** 
  55:Drivers/lvgl/src/misc/lv_anim_timeline.c ****     LV_ASSERT_MALLOC(at);
  56:Drivers/lvgl/src/misc/lv_anim_timeline.c **** 
  57:Drivers/lvgl/src/misc/lv_anim_timeline.c ****     if(at) lv_memset_00(at, sizeof(lv_anim_timeline_t));
  58:Drivers/lvgl/src/misc/lv_anim_timeline.c **** 
  59:Drivers/lvgl/src/misc/lv_anim_timeline.c ****     return at;
  60:Drivers/lvgl/src/misc/lv_anim_timeline.c **** }
  61:Drivers/lvgl/src/misc/lv_anim_timeline.c **** 
  62:Drivers/lvgl/src/misc/lv_anim_timeline.c **** void lv_anim_timeline_del(lv_anim_timeline_t * at)
  63:Drivers/lvgl/src/misc/lv_anim_timeline.c **** {
  64:Drivers/lvgl/src/misc/lv_anim_timeline.c ****     LV_ASSERT_NULL(at);
  65:Drivers/lvgl/src/misc/lv_anim_timeline.c **** 
  66:Drivers/lvgl/src/misc/lv_anim_timeline.c ****     lv_anim_timeline_stop(at);
  67:Drivers/lvgl/src/misc/lv_anim_timeline.c **** 
  68:Drivers/lvgl/src/misc/lv_anim_timeline.c ****     lv_mem_free(at->anim_dsc);
  69:Drivers/lvgl/src/misc/lv_anim_timeline.c ****     lv_mem_free(at);
  70:Drivers/lvgl/src/misc/lv_anim_timeline.c **** }
  71:Drivers/lvgl/src/misc/lv_anim_timeline.c **** 
  72:Drivers/lvgl/src/misc/lv_anim_timeline.c **** void lv_anim_timeline_add(lv_anim_timeline_t * at, uint32_t start_time, lv_anim_t * a)
  73:Drivers/lvgl/src/misc/lv_anim_timeline.c **** {
  74:Drivers/lvgl/src/misc/lv_anim_timeline.c ****     LV_ASSERT_NULL(at);
  75:Drivers/lvgl/src/misc/lv_anim_timeline.c **** 
  76:Drivers/lvgl/src/misc/lv_anim_timeline.c ****     at->anim_dsc_cnt++;
  77:Drivers/lvgl/src/misc/lv_anim_timeline.c ****     at->anim_dsc = lv_mem_realloc(at->anim_dsc, at->anim_dsc_cnt * sizeof(lv_anim_timeline_dsc_t));
  78:Drivers/lvgl/src/misc/lv_anim_timeline.c **** 
  79:Drivers/lvgl/src/misc/lv_anim_timeline.c ****     LV_ASSERT_MALLOC(at->anim_dsc);
  80:Drivers/lvgl/src/misc/lv_anim_timeline.c **** 
  81:Drivers/lvgl/src/misc/lv_anim_timeline.c ****     at->anim_dsc[at->anim_dsc_cnt - 1].anim = *a;
  82:Drivers/lvgl/src/misc/lv_anim_timeline.c ****     at->anim_dsc[at->anim_dsc_cnt - 1].start_time = start_time;
  83:Drivers/lvgl/src/misc/lv_anim_timeline.c **** 
  84:Drivers/lvgl/src/misc/lv_anim_timeline.c ****     /*Add default var and virtual exec_cb, used to delete animation.*/
  85:Drivers/lvgl/src/misc/lv_anim_timeline.c ****     if(a->var == NULL && a->exec_cb == NULL) {
  86:Drivers/lvgl/src/misc/lv_anim_timeline.c ****         at->anim_dsc[at->anim_dsc_cnt - 1].anim.var = at;
ARM GAS  /var/folders/0z/tsy30v1j4xl4_7kw94k978ww0000gn/T//ccCn98Rz.s 			page 3


  87:Drivers/lvgl/src/misc/lv_anim_timeline.c ****         at->anim_dsc[at->anim_dsc_cnt - 1].anim.exec_cb = lv_anim_timeline_virtual_exec_cb;
  88:Drivers/lvgl/src/misc/lv_anim_timeline.c ****     }
  89:Drivers/lvgl/src/misc/lv_anim_timeline.c **** }
  90:Drivers/lvgl/src/misc/lv_anim_timeline.c **** 
  91:Drivers/lvgl/src/misc/lv_anim_timeline.c **** uint32_t lv_anim_timeline_start(lv_anim_timeline_t * at)
  92:Drivers/lvgl/src/misc/lv_anim_timeline.c **** {
  93:Drivers/lvgl/src/misc/lv_anim_timeline.c ****     LV_ASSERT_NULL(at);
  94:Drivers/lvgl/src/misc/lv_anim_timeline.c **** 
  95:Drivers/lvgl/src/misc/lv_anim_timeline.c ****     const uint32_t playtime = lv_anim_timeline_get_playtime(at);
  96:Drivers/lvgl/src/misc/lv_anim_timeline.c ****     bool reverse = at->reverse;
  97:Drivers/lvgl/src/misc/lv_anim_timeline.c **** 
  98:Drivers/lvgl/src/misc/lv_anim_timeline.c ****     for(uint32_t i = 0; i < at->anim_dsc_cnt; i++) {
  99:Drivers/lvgl/src/misc/lv_anim_timeline.c ****         lv_anim_t a = at->anim_dsc[i].anim;
 100:Drivers/lvgl/src/misc/lv_anim_timeline.c ****         uint32_t start_time = at->anim_dsc[i].start_time;
 101:Drivers/lvgl/src/misc/lv_anim_timeline.c **** 
 102:Drivers/lvgl/src/misc/lv_anim_timeline.c ****         if(reverse) {
 103:Drivers/lvgl/src/misc/lv_anim_timeline.c ****             int32_t temp = a.start_value;
 104:Drivers/lvgl/src/misc/lv_anim_timeline.c ****             a.start_value = a.end_value;
 105:Drivers/lvgl/src/misc/lv_anim_timeline.c ****             a.end_value = temp;
 106:Drivers/lvgl/src/misc/lv_anim_timeline.c ****             lv_anim_set_delay(&a, playtime - (start_time + a.time));
 107:Drivers/lvgl/src/misc/lv_anim_timeline.c ****         }
 108:Drivers/lvgl/src/misc/lv_anim_timeline.c ****         else {
 109:Drivers/lvgl/src/misc/lv_anim_timeline.c ****             lv_anim_set_delay(&a, start_time);
 110:Drivers/lvgl/src/misc/lv_anim_timeline.c ****         }
 111:Drivers/lvgl/src/misc/lv_anim_timeline.c **** 
 112:Drivers/lvgl/src/misc/lv_anim_timeline.c ****         lv_anim_start(&a);
 113:Drivers/lvgl/src/misc/lv_anim_timeline.c ****     }
 114:Drivers/lvgl/src/misc/lv_anim_timeline.c **** 
 115:Drivers/lvgl/src/misc/lv_anim_timeline.c ****     return playtime;
 116:Drivers/lvgl/src/misc/lv_anim_timeline.c **** }
 117:Drivers/lvgl/src/misc/lv_anim_timeline.c **** 
 118:Drivers/lvgl/src/misc/lv_anim_timeline.c **** void lv_anim_timeline_stop(lv_anim_timeline_t * at)
 119:Drivers/lvgl/src/misc/lv_anim_timeline.c **** {
 120:Drivers/lvgl/src/misc/lv_anim_timeline.c ****     LV_ASSERT_NULL(at);
 121:Drivers/lvgl/src/misc/lv_anim_timeline.c **** 
 122:Drivers/lvgl/src/misc/lv_anim_timeline.c ****     for(uint32_t i = 0; i < at->anim_dsc_cnt; i++) {
 123:Drivers/lvgl/src/misc/lv_anim_timeline.c ****         lv_anim_t * a = &(at->anim_dsc[i].anim);
 124:Drivers/lvgl/src/misc/lv_anim_timeline.c ****         lv_anim_del(a->var, a->exec_cb);
 125:Drivers/lvgl/src/misc/lv_anim_timeline.c ****     }
 126:Drivers/lvgl/src/misc/lv_anim_timeline.c **** }
 127:Drivers/lvgl/src/misc/lv_anim_timeline.c **** 
 128:Drivers/lvgl/src/misc/lv_anim_timeline.c **** void lv_anim_timeline_set_reverse(lv_anim_timeline_t * at, bool reverse)
 129:Drivers/lvgl/src/misc/lv_anim_timeline.c **** {
 130:Drivers/lvgl/src/misc/lv_anim_timeline.c ****     LV_ASSERT_NULL(at);
 131:Drivers/lvgl/src/misc/lv_anim_timeline.c ****     at->reverse = reverse;
 132:Drivers/lvgl/src/misc/lv_anim_timeline.c **** }
 133:Drivers/lvgl/src/misc/lv_anim_timeline.c **** 
 134:Drivers/lvgl/src/misc/lv_anim_timeline.c **** void lv_anim_timeline_set_progress(lv_anim_timeline_t * at, uint16_t progress)
 135:Drivers/lvgl/src/misc/lv_anim_timeline.c **** {
 136:Drivers/lvgl/src/misc/lv_anim_timeline.c ****     LV_ASSERT_NULL(at);
 137:Drivers/lvgl/src/misc/lv_anim_timeline.c **** 
 138:Drivers/lvgl/src/misc/lv_anim_timeline.c ****     const uint32_t playtime = lv_anim_timeline_get_playtime(at);
 139:Drivers/lvgl/src/misc/lv_anim_timeline.c ****     const uint32_t act_time = progress * playtime / 0xFFFF;
 140:Drivers/lvgl/src/misc/lv_anim_timeline.c **** 
 141:Drivers/lvgl/src/misc/lv_anim_timeline.c ****     for(uint32_t i = 0; i < at->anim_dsc_cnt; i++) {
 142:Drivers/lvgl/src/misc/lv_anim_timeline.c ****         lv_anim_t * a = &(at->anim_dsc[i].anim);
 143:Drivers/lvgl/src/misc/lv_anim_timeline.c **** 
ARM GAS  /var/folders/0z/tsy30v1j4xl4_7kw94k978ww0000gn/T//ccCn98Rz.s 			page 4


 144:Drivers/lvgl/src/misc/lv_anim_timeline.c ****         if(a->exec_cb == NULL) {
 145:Drivers/lvgl/src/misc/lv_anim_timeline.c ****             continue;
 146:Drivers/lvgl/src/misc/lv_anim_timeline.c ****         }
 147:Drivers/lvgl/src/misc/lv_anim_timeline.c **** 
 148:Drivers/lvgl/src/misc/lv_anim_timeline.c ****         uint32_t start_time = at->anim_dsc[i].start_time;
 149:Drivers/lvgl/src/misc/lv_anim_timeline.c ****         int32_t value = 0;
 150:Drivers/lvgl/src/misc/lv_anim_timeline.c **** 
 151:Drivers/lvgl/src/misc/lv_anim_timeline.c ****         if(act_time < start_time) {
 152:Drivers/lvgl/src/misc/lv_anim_timeline.c ****             value = a->start_value;
 153:Drivers/lvgl/src/misc/lv_anim_timeline.c ****         }
 154:Drivers/lvgl/src/misc/lv_anim_timeline.c ****         else if(act_time < (start_time + a->time)) {
 155:Drivers/lvgl/src/misc/lv_anim_timeline.c ****             a->act_time = act_time - start_time;
 156:Drivers/lvgl/src/misc/lv_anim_timeline.c ****             value = a->path_cb(a);
 157:Drivers/lvgl/src/misc/lv_anim_timeline.c ****         }
 158:Drivers/lvgl/src/misc/lv_anim_timeline.c ****         else {
 159:Drivers/lvgl/src/misc/lv_anim_timeline.c ****             value = a->end_value;
 160:Drivers/lvgl/src/misc/lv_anim_timeline.c ****         }
 161:Drivers/lvgl/src/misc/lv_anim_timeline.c **** 
 162:Drivers/lvgl/src/misc/lv_anim_timeline.c ****         a->exec_cb(a->var, value);
 163:Drivers/lvgl/src/misc/lv_anim_timeline.c ****     }
 164:Drivers/lvgl/src/misc/lv_anim_timeline.c **** }
 165:Drivers/lvgl/src/misc/lv_anim_timeline.c **** 
 166:Drivers/lvgl/src/misc/lv_anim_timeline.c **** uint32_t lv_anim_timeline_get_playtime(lv_anim_timeline_t * at)
 167:Drivers/lvgl/src/misc/lv_anim_timeline.c **** {
 168:Drivers/lvgl/src/misc/lv_anim_timeline.c ****     LV_ASSERT_NULL(at);
 169:Drivers/lvgl/src/misc/lv_anim_timeline.c **** 
 170:Drivers/lvgl/src/misc/lv_anim_timeline.c ****     uint32_t playtime = 0;
 171:Drivers/lvgl/src/misc/lv_anim_timeline.c ****     for(uint32_t i = 0; i < at->anim_dsc_cnt; i++) {
 172:Drivers/lvgl/src/misc/lv_anim_timeline.c ****         uint32_t end = lv_anim_get_playtime(&at->anim_dsc[i].anim);
 173:Drivers/lvgl/src/misc/lv_anim_timeline.c ****         if(end == LV_ANIM_PLAYTIME_INFINITE)
 174:Drivers/lvgl/src/misc/lv_anim_timeline.c ****             return end;
 175:Drivers/lvgl/src/misc/lv_anim_timeline.c ****         end += at->anim_dsc[i].start_time;
 176:Drivers/lvgl/src/misc/lv_anim_timeline.c ****         if(end > playtime) {
 177:Drivers/lvgl/src/misc/lv_anim_timeline.c ****             playtime = end;
 178:Drivers/lvgl/src/misc/lv_anim_timeline.c ****         }
 179:Drivers/lvgl/src/misc/lv_anim_timeline.c ****     }
 180:Drivers/lvgl/src/misc/lv_anim_timeline.c **** 
 181:Drivers/lvgl/src/misc/lv_anim_timeline.c ****     return playtime;
 182:Drivers/lvgl/src/misc/lv_anim_timeline.c **** }
 183:Drivers/lvgl/src/misc/lv_anim_timeline.c **** 
 184:Drivers/lvgl/src/misc/lv_anim_timeline.c **** bool lv_anim_timeline_get_reverse(lv_anim_timeline_t * at)
 185:Drivers/lvgl/src/misc/lv_anim_timeline.c **** {
 186:Drivers/lvgl/src/misc/lv_anim_timeline.c ****     LV_ASSERT_NULL(at);
 187:Drivers/lvgl/src/misc/lv_anim_timeline.c ****     return at->reverse;
 188:Drivers/lvgl/src/misc/lv_anim_timeline.c **** }
 189:Drivers/lvgl/src/misc/lv_anim_timeline.c **** 
 190:Drivers/lvgl/src/misc/lv_anim_timeline.c **** /**********************
 191:Drivers/lvgl/src/misc/lv_anim_timeline.c ****  *   STATIC FUNCTIONS
 192:Drivers/lvgl/src/misc/lv_anim_timeline.c ****  **********************/
 193:Drivers/lvgl/src/misc/lv_anim_timeline.c **** 
 194:Drivers/lvgl/src/misc/lv_anim_timeline.c **** static void lv_anim_timeline_virtual_exec_cb(void * var, int32_t v)
 195:Drivers/lvgl/src/misc/lv_anim_timeline.c **** {
  30              		.loc 1 195 1 view -0
  31              		.cfi_startproc
  32              		@ args = 0, pretend = 0, frame = 0
  33              		@ frame_needed = 0, uses_anonymous_args = 0
  34              		@ link register save eliminated.
ARM GAS  /var/folders/0z/tsy30v1j4xl4_7kw94k978ww0000gn/T//ccCn98Rz.s 			page 5


 196:Drivers/lvgl/src/misc/lv_anim_timeline.c ****     LV_UNUSED(var);
  35              		.loc 1 196 5 view .LVU1
 197:Drivers/lvgl/src/misc/lv_anim_timeline.c ****     LV_UNUSED(v);
  36              		.loc 1 197 5 view .LVU2
 198:Drivers/lvgl/src/misc/lv_anim_timeline.c **** }
  37              		.loc 1 198 1 is_stmt 0 view .LVU3
  38 0000 7047     		bx	lr
  39              		.cfi_endproc
  40              	.LFE31:
  42 0002 00BF     		.section	.text.lv_anim_timeline_create,"ax",%progbits
  43              		.align	1
  44              		.p2align 2,,3
  45              		.global	lv_anim_timeline_create
  46              		.syntax unified
  47              		.thumb
  48              		.thumb_func
  50              	lv_anim_timeline_create:
  51              	.LFB22:
  52:Drivers/lvgl/src/misc/lv_anim_timeline.c ****     lv_anim_timeline_t * at = (lv_anim_timeline_t *)lv_mem_alloc(sizeof(lv_anim_timeline_t));
  52              		.loc 1 52 1 is_stmt 1 view -0
  53              		.cfi_startproc
  54              		@ args = 0, pretend = 0, frame = 0
  55              		@ frame_needed = 0, uses_anonymous_args = 0
  53:Drivers/lvgl/src/misc/lv_anim_timeline.c **** 
  56              		.loc 1 53 5 view .LVU5
  52:Drivers/lvgl/src/misc/lv_anim_timeline.c ****     lv_anim_timeline_t * at = (lv_anim_timeline_t *)lv_mem_alloc(sizeof(lv_anim_timeline_t));
  57              		.loc 1 52 1 is_stmt 0 view .LVU6
  58 0000 10B5     		push	{r4, lr}
  59              		.cfi_def_cfa_offset 8
  60              		.cfi_offset 4, -8
  61              		.cfi_offset 14, -4
  53:Drivers/lvgl/src/misc/lv_anim_timeline.c **** 
  62              		.loc 1 53 53 view .LVU7
  63 0002 0C20     		movs	r0, #12
  64 0004 FFF7FEFF 		bl	lv_mem_alloc
  65              	.LVL1:
  55:Drivers/lvgl/src/misc/lv_anim_timeline.c **** 
  66              		.loc 1 55 5 is_stmt 1 view .LVU8
  55:Drivers/lvgl/src/misc/lv_anim_timeline.c **** 
  67              		.loc 1 55 5 view .LVU9
  68 0008 28B1     		cbz	r0, .L5
  69 000a 0446     		mov	r4, r0
  55:Drivers/lvgl/src/misc/lv_anim_timeline.c **** 
  70              		.loc 1 55 5 discriminator 1 view .LVU10
  55:Drivers/lvgl/src/misc/lv_anim_timeline.c **** 
  71              		.loc 1 55 25 discriminator 1 view .LVU11
  57:Drivers/lvgl/src/misc/lv_anim_timeline.c **** 
  72              		.loc 1 57 5 discriminator 1 view .LVU12
  57:Drivers/lvgl/src/misc/lv_anim_timeline.c **** 
  73              		.loc 1 57 12 discriminator 1 view .LVU13
  74 000c 0C21     		movs	r1, #12
  75 000e FFF7FEFF 		bl	lv_memset_00
  76              	.LVL2:
  59:Drivers/lvgl/src/misc/lv_anim_timeline.c **** }
  77              		.loc 1 59 5 discriminator 1 view .LVU14
  60:Drivers/lvgl/src/misc/lv_anim_timeline.c **** 
  78              		.loc 1 60 1 is_stmt 0 discriminator 1 view .LVU15
ARM GAS  /var/folders/0z/tsy30v1j4xl4_7kw94k978ww0000gn/T//ccCn98Rz.s 			page 6


  79 0012 2046     		mov	r0, r4
  80 0014 10BD     		pop	{r4, pc}
  81              	.LVL3:
  82              	.L5:
  55:Drivers/lvgl/src/misc/lv_anim_timeline.c **** 
  83              		.loc 1 55 5 is_stmt 1 discriminator 1 view .LVU16
  55:Drivers/lvgl/src/misc/lv_anim_timeline.c **** 
  84              		.loc 1 55 5 discriminator 1 view .LVU17
  55:Drivers/lvgl/src/misc/lv_anim_timeline.c **** 
  85              		.loc 1 55 5 discriminator 1 view .LVU18
  55:Drivers/lvgl/src/misc/lv_anim_timeline.c **** 
  86              		.loc 1 55 5 discriminator 1 view .LVU19
  55:Drivers/lvgl/src/misc/lv_anim_timeline.c **** 
  87              		.loc 1 55 5 discriminator 1 view .LVU20
  55:Drivers/lvgl/src/misc/lv_anim_timeline.c **** 
  88              		.loc 1 55 5 discriminator 1 view .LVU21
  55:Drivers/lvgl/src/misc/lv_anim_timeline.c **** 
  89              		.loc 1 55 5 discriminator 1 view .LVU22
  55:Drivers/lvgl/src/misc/lv_anim_timeline.c **** 
  90              		.loc 1 55 5 discriminator 1 view .LVU23
  55:Drivers/lvgl/src/misc/lv_anim_timeline.c **** 
  91              		.loc 1 55 5 discriminator 1 view .LVU24
  55:Drivers/lvgl/src/misc/lv_anim_timeline.c **** 
  92              		.loc 1 55 5 discriminator 1 view .LVU25
  93 0016 FEE7     		b	.L5
  94              		.cfi_endproc
  95              	.LFE22:
  97              		.section	.text.lv_anim_timeline_del,"ax",%progbits
  98              		.align	1
  99              		.p2align 2,,3
 100              		.global	lv_anim_timeline_del
 101              		.syntax unified
 102              		.thumb
 103              		.thumb_func
 105              	lv_anim_timeline_del:
 106              	.LVL4:
 107              	.LFB23:
  63:Drivers/lvgl/src/misc/lv_anim_timeline.c ****     LV_ASSERT_NULL(at);
 108              		.loc 1 63 1 view -0
 109              		.cfi_startproc
 110              		@ args = 0, pretend = 0, frame = 0
 111              		@ frame_needed = 0, uses_anonymous_args = 0
  64:Drivers/lvgl/src/misc/lv_anim_timeline.c **** 
 112              		.loc 1 64 5 view .LVU27
  64:Drivers/lvgl/src/misc/lv_anim_timeline.c **** 
 113              		.loc 1 64 5 view .LVU28
 114 0000 C8B1     		cbz	r0, .L8
 115              	.LVL5:
 116              	.LBB30:
 117              	.LBB31:
 118              	.LBB32:
 122:Drivers/lvgl/src/misc/lv_anim_timeline.c ****         lv_anim_t * a = &(at->anim_dsc[i].anim);
 119              		.loc 1 122 27 view .LVU29
 120 0002 4368     		ldr	r3, [r0, #4]
 121              	.LBE32:
 122              	.LBE31:
 123              	.LBE30:
ARM GAS  /var/folders/0z/tsy30v1j4xl4_7kw94k978ww0000gn/T//ccCn98Rz.s 			page 7


  63:Drivers/lvgl/src/misc/lv_anim_timeline.c ****     LV_ASSERT_NULL(at);
 124              		.loc 1 63 1 is_stmt 0 view .LVU30
 125 0004 70B5     		push	{r4, r5, r6, lr}
 126              		.cfi_def_cfa_offset 16
 127              		.cfi_offset 4, -16
 128              		.cfi_offset 5, -12
 129              		.cfi_offset 6, -8
 130              		.cfi_offset 14, -4
 131 0006 0546     		mov	r5, r0
 132              	.LBB36:
 133              	.LBB35:
 134              	.LBB34:
 122:Drivers/lvgl/src/misc/lv_anim_timeline.c ****         lv_anim_t * a = &(at->anim_dsc[i].anim);
 135              		.loc 1 122 27 view .LVU31
 136 0008 6BB1     		cbz	r3, .L10
 137 000a 0024     		movs	r4, #0
 122:Drivers/lvgl/src/misc/lv_anim_timeline.c ****         lv_anim_t * a = &(at->anim_dsc[i].anim);
 138              		.loc 1 122 18 view .LVU32
 139 000c 2646     		mov	r6, r4
 140              	.LVL6:
 141              	.L9:
 142              	.LBB33:
 123:Drivers/lvgl/src/misc/lv_anim_timeline.c ****         lv_anim_del(a->var, a->exec_cb);
 143              		.loc 1 123 9 is_stmt 1 view .LVU33
 123:Drivers/lvgl/src/misc/lv_anim_timeline.c ****         lv_anim_del(a->var, a->exec_cb);
 144              		.loc 1 123 39 is_stmt 0 view .LVU34
 145 000e 2B68     		ldr	r3, [r5]
 146 0010 1A19     		adds	r2, r3, r4
 147              	.LVL7:
 124:Drivers/lvgl/src/misc/lv_anim_timeline.c ****     }
 148              		.loc 1 124 9 is_stmt 1 view .LVU35
 149 0012 1859     		ldr	r0, [r3, r4]
 150 0014 5168     		ldr	r1, [r2, #4]
 151 0016 FFF7FEFF 		bl	lv_anim_del
 152              	.LVL8:
 124:Drivers/lvgl/src/misc/lv_anim_timeline.c ****     }
 153              		.loc 1 124 9 is_stmt 0 view .LVU36
 154              	.LBE33:
 122:Drivers/lvgl/src/misc/lv_anim_timeline.c ****         lv_anim_t * a = &(at->anim_dsc[i].anim);
 155              		.loc 1 122 48 is_stmt 1 view .LVU37
 122:Drivers/lvgl/src/misc/lv_anim_timeline.c ****         lv_anim_t * a = &(at->anim_dsc[i].anim);
 156              		.loc 1 122 27 is_stmt 0 view .LVU38
 157 001a 6B68     		ldr	r3, [r5, #4]
 122:Drivers/lvgl/src/misc/lv_anim_timeline.c ****         lv_anim_t * a = &(at->anim_dsc[i].anim);
 158              		.loc 1 122 48 view .LVU39
 159 001c 0136     		adds	r6, r6, #1
 160              	.LVL9:
 122:Drivers/lvgl/src/misc/lv_anim_timeline.c ****         lv_anim_t * a = &(at->anim_dsc[i].anim);
 161              		.loc 1 122 27 is_stmt 1 view .LVU40
 162 001e 9E42     		cmp	r6, r3
 163 0020 04F14804 		add	r4, r4, #72
 164 0024 F3D3     		bcc	.L9
 165              	.LVL10:
 166              	.L10:
 122:Drivers/lvgl/src/misc/lv_anim_timeline.c ****         lv_anim_t * a = &(at->anim_dsc[i].anim);
 167              		.loc 1 122 27 is_stmt 0 view .LVU41
 168              	.LBE34:
ARM GAS  /var/folders/0z/tsy30v1j4xl4_7kw94k978ww0000gn/T//ccCn98Rz.s 			page 8


 169              	.LBE35:
 170              	.LBE36:
  68:Drivers/lvgl/src/misc/lv_anim_timeline.c ****     lv_mem_free(at);
 171              		.loc 1 68 5 is_stmt 1 view .LVU42
 172 0026 2868     		ldr	r0, [r5]
 173 0028 FFF7FEFF 		bl	lv_mem_free
 174              	.LVL11:
  69:Drivers/lvgl/src/misc/lv_anim_timeline.c **** }
 175              		.loc 1 69 5 view .LVU43
 176 002c 2846     		mov	r0, r5
  70:Drivers/lvgl/src/misc/lv_anim_timeline.c **** 
 177              		.loc 1 70 1 is_stmt 0 view .LVU44
 178 002e BDE87040 		pop	{r4, r5, r6, lr}
 179              		.cfi_restore 14
 180              		.cfi_restore 6
 181              		.cfi_restore 5
 182              		.cfi_restore 4
 183              		.cfi_def_cfa_offset 0
 184              	.LVL12:
  69:Drivers/lvgl/src/misc/lv_anim_timeline.c **** }
 185              		.loc 1 69 5 view .LVU45
 186 0032 FFF7FEBF 		b	lv_mem_free
 187              	.LVL13:
 188              	.L8:
  64:Drivers/lvgl/src/misc/lv_anim_timeline.c **** 
 189              		.loc 1 64 5 is_stmt 1 discriminator 1 view .LVU46
  64:Drivers/lvgl/src/misc/lv_anim_timeline.c **** 
 190              		.loc 1 64 5 discriminator 1 view .LVU47
  64:Drivers/lvgl/src/misc/lv_anim_timeline.c **** 
 191              		.loc 1 64 5 discriminator 1 view .LVU48
  64:Drivers/lvgl/src/misc/lv_anim_timeline.c **** 
 192              		.loc 1 64 5 discriminator 1 view .LVU49
  64:Drivers/lvgl/src/misc/lv_anim_timeline.c **** 
 193              		.loc 1 64 5 discriminator 1 view .LVU50
  64:Drivers/lvgl/src/misc/lv_anim_timeline.c **** 
 194              		.loc 1 64 5 discriminator 1 view .LVU51
  64:Drivers/lvgl/src/misc/lv_anim_timeline.c **** 
 195              		.loc 1 64 5 discriminator 1 view .LVU52
  64:Drivers/lvgl/src/misc/lv_anim_timeline.c **** 
 196              		.loc 1 64 5 discriminator 1 view .LVU53
  64:Drivers/lvgl/src/misc/lv_anim_timeline.c **** 
 197              		.loc 1 64 5 discriminator 1 view .LVU54
  64:Drivers/lvgl/src/misc/lv_anim_timeline.c **** 
 198              		.loc 1 64 5 discriminator 1 view .LVU55
 199 0036 FEE7     		b	.L8
 200              		.cfi_endproc
 201              	.LFE23:
 203              		.section	.text.lv_anim_timeline_add,"ax",%progbits
 204              		.align	1
 205              		.p2align 2,,3
 206              		.global	lv_anim_timeline_add
 207              		.syntax unified
 208              		.thumb
 209              		.thumb_func
 211              	lv_anim_timeline_add:
 212              	.LVL14:
 213              	.LFB24:
ARM GAS  /var/folders/0z/tsy30v1j4xl4_7kw94k978ww0000gn/T//ccCn98Rz.s 			page 9


  73:Drivers/lvgl/src/misc/lv_anim_timeline.c ****     LV_ASSERT_NULL(at);
 214              		.loc 1 73 1 view -0
 215              		.cfi_startproc
 216              		@ args = 0, pretend = 0, frame = 0
 217              		@ frame_needed = 0, uses_anonymous_args = 0
  74:Drivers/lvgl/src/misc/lv_anim_timeline.c **** 
 218              		.loc 1 74 5 view .LVU57
  74:Drivers/lvgl/src/misc/lv_anim_timeline.c **** 
 219              		.loc 1 74 5 view .LVU58
 220 0000 00B3     		cbz	r0, .L20
  74:Drivers/lvgl/src/misc/lv_anim_timeline.c **** 
 221              		.loc 1 74 5 discriminator 2 view .LVU59
  74:Drivers/lvgl/src/misc/lv_anim_timeline.c **** 
 222              		.loc 1 74 23 discriminator 2 view .LVU60
  76:Drivers/lvgl/src/misc/lv_anim_timeline.c ****     at->anim_dsc = lv_mem_realloc(at->anim_dsc, at->anim_dsc_cnt * sizeof(lv_anim_timeline_dsc_t));
 223              		.loc 1 76 5 discriminator 2 view .LVU61
  76:Drivers/lvgl/src/misc/lv_anim_timeline.c ****     at->anim_dsc = lv_mem_realloc(at->anim_dsc, at->anim_dsc_cnt * sizeof(lv_anim_timeline_dsc_t));
 224              		.loc 1 76 21 is_stmt 0 discriminator 2 view .LVU62
 225 0002 4368     		ldr	r3, [r0, #4]
 226 0004 0133     		adds	r3, r3, #1
  73:Drivers/lvgl/src/misc/lv_anim_timeline.c ****     LV_ASSERT_NULL(at);
 227              		.loc 1 73 1 discriminator 2 view .LVU63
 228 0006 2DE9F041 		push	{r4, r5, r6, r7, r8, lr}
 229              		.cfi_def_cfa_offset 24
 230              		.cfi_offset 4, -24
 231              		.cfi_offset 5, -20
 232              		.cfi_offset 6, -16
 233              		.cfi_offset 7, -12
 234              		.cfi_offset 8, -8
 235              		.cfi_offset 14, -4
 236 000a 0F46     		mov	r7, r1
  77:Drivers/lvgl/src/misc/lv_anim_timeline.c **** 
 237              		.loc 1 77 66 discriminator 2 view .LVU64
 238 000c 03EBC301 		add	r1, r3, r3, lsl #3
 239              	.LVL15:
  77:Drivers/lvgl/src/misc/lv_anim_timeline.c **** 
 240              		.loc 1 77 66 discriminator 2 view .LVU65
 241 0010 0446     		mov	r4, r0
  76:Drivers/lvgl/src/misc/lv_anim_timeline.c ****     at->anim_dsc = lv_mem_realloc(at->anim_dsc, at->anim_dsc_cnt * sizeof(lv_anim_timeline_dsc_t));
 242              		.loc 1 76 21 discriminator 2 view .LVU66
 243 0012 4360     		str	r3, [r0, #4]
  77:Drivers/lvgl/src/misc/lv_anim_timeline.c **** 
 244              		.loc 1 77 5 is_stmt 1 discriminator 2 view .LVU67
  77:Drivers/lvgl/src/misc/lv_anim_timeline.c **** 
 245              		.loc 1 77 20 is_stmt 0 discriminator 2 view .LVU68
 246 0014 C900     		lsls	r1, r1, #3
 247 0016 0068     		ldr	r0, [r0]
 248              	.LVL16:
  77:Drivers/lvgl/src/misc/lv_anim_timeline.c **** 
 249              		.loc 1 77 20 discriminator 2 view .LVU69
 250 0018 1546     		mov	r5, r2
 251 001a FFF7FEFF 		bl	lv_mem_realloc
 252              	.LVL17:
  77:Drivers/lvgl/src/misc/lv_anim_timeline.c **** 
 253              		.loc 1 77 20 discriminator 2 view .LVU70
 254 001e 8046     		mov	r8, r0
  77:Drivers/lvgl/src/misc/lv_anim_timeline.c **** 
ARM GAS  /var/folders/0z/tsy30v1j4xl4_7kw94k978ww0000gn/T//ccCn98Rz.s 			page 10


 255              		.loc 1 77 18 discriminator 2 view .LVU71
 256 0020 2060     		str	r0, [r4]
  79:Drivers/lvgl/src/misc/lv_anim_timeline.c **** 
 257              		.loc 1 79 5 is_stmt 1 discriminator 2 view .LVU72
  79:Drivers/lvgl/src/misc/lv_anim_timeline.c **** 
 258              		.loc 1 79 5 discriminator 2 view .LVU73
 259 0022 80B1     		cbz	r0, .L22
  79:Drivers/lvgl/src/misc/lv_anim_timeline.c **** 
 260              		.loc 1 79 5 discriminator 2 view .LVU74
  79:Drivers/lvgl/src/misc/lv_anim_timeline.c **** 
 261              		.loc 1 79 35 discriminator 2 view .LVU75
  81:Drivers/lvgl/src/misc/lv_anim_timeline.c ****     at->anim_dsc[at->anim_dsc_cnt - 1].start_time = start_time;
 262              		.loc 1 81 5 discriminator 2 view .LVU76
  81:Drivers/lvgl/src/misc/lv_anim_timeline.c ****     at->anim_dsc[at->anim_dsc_cnt - 1].start_time = start_time;
 263              		.loc 1 81 17 is_stmt 0 discriminator 2 view .LVU77
 264 0024 6368     		ldr	r3, [r4, #4]
 265 0026 03EBC303 		add	r3, r3, r3, lsl #3
 266 002a DE00     		lsls	r6, r3, #3
 267 002c 483E     		subs	r6, r6, #72
 268 002e 8319     		adds	r3, r0, r6
  81:Drivers/lvgl/src/misc/lv_anim_timeline.c ****     at->anim_dsc[at->anim_dsc_cnt - 1].start_time = start_time;
 269              		.loc 1 81 45 discriminator 2 view .LVU78
 270 0030 4422     		movs	r2, #68
 271 0032 2946     		mov	r1, r5
 272 0034 1846     		mov	r0, r3
 273 0036 FFF7FEFF 		bl	memcpy
 274              	.LVL18:
  82:Drivers/lvgl/src/misc/lv_anim_timeline.c **** 
 275              		.loc 1 82 5 is_stmt 1 discriminator 2 view .LVU79
  85:Drivers/lvgl/src/misc/lv_anim_timeline.c ****         at->anim_dsc[at->anim_dsc_cnt - 1].anim.var = at;
 276              		.loc 1 85 7 is_stmt 0 discriminator 2 view .LVU80
 277 003a 2A68     		ldr	r2, [r5]
  82:Drivers/lvgl/src/misc/lv_anim_timeline.c **** 
 278              		.loc 1 82 51 discriminator 2 view .LVU81
 279 003c 4764     		str	r7, [r0, #68]
  85:Drivers/lvgl/src/misc/lv_anim_timeline.c ****         at->anim_dsc[at->anim_dsc_cnt - 1].anim.var = at;
 280              		.loc 1 85 5 is_stmt 1 discriminator 2 view .LVU82
  85:Drivers/lvgl/src/misc/lv_anim_timeline.c ****         at->anim_dsc[at->anim_dsc_cnt - 1].anim.var = at;
 281              		.loc 1 85 7 is_stmt 0 discriminator 2 view .LVU83
 282 003e 1AB1     		cbz	r2, .L26
 283              	.L18:
  89:Drivers/lvgl/src/misc/lv_anim_timeline.c **** 
 284              		.loc 1 89 1 view .LVU84
 285 0040 BDE8F081 		pop	{r4, r5, r6, r7, r8, pc}
 286              	.LVL19:
 287              	.L20:
 288              		.cfi_def_cfa_offset 0
 289              		.cfi_restore 4
 290              		.cfi_restore 5
 291              		.cfi_restore 6
 292              		.cfi_restore 7
 293              		.cfi_restore 8
 294              		.cfi_restore 14
  74:Drivers/lvgl/src/misc/lv_anim_timeline.c **** 
 295              		.loc 1 74 5 is_stmt 1 discriminator 1 view .LVU85
  74:Drivers/lvgl/src/misc/lv_anim_timeline.c **** 
 296              		.loc 1 74 5 discriminator 1 view .LVU86
ARM GAS  /var/folders/0z/tsy30v1j4xl4_7kw94k978ww0000gn/T//ccCn98Rz.s 			page 11


  74:Drivers/lvgl/src/misc/lv_anim_timeline.c **** 
 297              		.loc 1 74 5 discriminator 1 view .LVU87
  74:Drivers/lvgl/src/misc/lv_anim_timeline.c **** 
 298              		.loc 1 74 5 discriminator 1 view .LVU88
  74:Drivers/lvgl/src/misc/lv_anim_timeline.c **** 
 299              		.loc 1 74 5 discriminator 1 view .LVU89
  74:Drivers/lvgl/src/misc/lv_anim_timeline.c **** 
 300              		.loc 1 74 5 discriminator 1 view .LVU90
  74:Drivers/lvgl/src/misc/lv_anim_timeline.c **** 
 301              		.loc 1 74 5 discriminator 1 view .LVU91
  74:Drivers/lvgl/src/misc/lv_anim_timeline.c **** 
 302              		.loc 1 74 5 discriminator 1 view .LVU92
  74:Drivers/lvgl/src/misc/lv_anim_timeline.c **** 
 303              		.loc 1 74 5 discriminator 1 view .LVU93
  74:Drivers/lvgl/src/misc/lv_anim_timeline.c **** 
 304              		.loc 1 74 5 discriminator 1 view .LVU94
 305 0044 FEE7     		b	.L20
 306              	.LVL20:
 307              	.L22:
 308              		.cfi_def_cfa_offset 24
 309              		.cfi_offset 4, -24
 310              		.cfi_offset 5, -20
 311              		.cfi_offset 6, -16
 312              		.cfi_offset 7, -12
 313              		.cfi_offset 8, -8
 314              		.cfi_offset 14, -4
  79:Drivers/lvgl/src/misc/lv_anim_timeline.c **** 
 315              		.loc 1 79 5 discriminator 2 view .LVU95
  79:Drivers/lvgl/src/misc/lv_anim_timeline.c **** 
 316              		.loc 1 79 5 discriminator 2 view .LVU96
  79:Drivers/lvgl/src/misc/lv_anim_timeline.c **** 
 317              		.loc 1 79 5 discriminator 2 view .LVU97
  79:Drivers/lvgl/src/misc/lv_anim_timeline.c **** 
 318              		.loc 1 79 5 discriminator 2 view .LVU98
  79:Drivers/lvgl/src/misc/lv_anim_timeline.c **** 
 319              		.loc 1 79 5 discriminator 2 view .LVU99
  79:Drivers/lvgl/src/misc/lv_anim_timeline.c **** 
 320              		.loc 1 79 5 discriminator 2 view .LVU100
  79:Drivers/lvgl/src/misc/lv_anim_timeline.c **** 
 321              		.loc 1 79 5 discriminator 2 view .LVU101
  79:Drivers/lvgl/src/misc/lv_anim_timeline.c **** 
 322              		.loc 1 79 5 discriminator 2 view .LVU102
  79:Drivers/lvgl/src/misc/lv_anim_timeline.c **** 
 323              		.loc 1 79 5 discriminator 2 view .LVU103
  79:Drivers/lvgl/src/misc/lv_anim_timeline.c **** 
 324              		.loc 1 79 5 discriminator 2 view .LVU104
 325 0046 FEE7     		b	.L22
 326              	.L26:
  85:Drivers/lvgl/src/misc/lv_anim_timeline.c ****         at->anim_dsc[at->anim_dsc_cnt - 1].anim.var = at;
 327              		.loc 1 85 23 is_stmt 0 discriminator 1 view .LVU105
 328 0048 6A68     		ldr	r2, [r5, #4]
 329 004a 002A     		cmp	r2, #0
 330 004c F8D1     		bne	.L18
  86:Drivers/lvgl/src/misc/lv_anim_timeline.c ****         at->anim_dsc[at->anim_dsc_cnt - 1].anim.exec_cb = lv_anim_timeline_virtual_exec_cb;
 331              		.loc 1 86 9 is_stmt 1 view .LVU106
  87:Drivers/lvgl/src/misc/lv_anim_timeline.c ****     }
 332              		.loc 1 87 57 is_stmt 0 view .LVU107
ARM GAS  /var/folders/0z/tsy30v1j4xl4_7kw94k978ww0000gn/T//ccCn98Rz.s 			page 12


 333 004e 024A     		ldr	r2, .L27
  86:Drivers/lvgl/src/misc/lv_anim_timeline.c ****         at->anim_dsc[at->anim_dsc_cnt - 1].anim.exec_cb = lv_anim_timeline_virtual_exec_cb;
 334              		.loc 1 86 53 view .LVU108
 335 0050 48F80640 		str	r4, [r8, r6]
  87:Drivers/lvgl/src/misc/lv_anim_timeline.c ****     }
 336              		.loc 1 87 9 is_stmt 1 view .LVU109
  87:Drivers/lvgl/src/misc/lv_anim_timeline.c ****     }
 337              		.loc 1 87 57 is_stmt 0 view .LVU110
 338 0054 4260     		str	r2, [r0, #4]
  89:Drivers/lvgl/src/misc/lv_anim_timeline.c **** 
 339              		.loc 1 89 1 view .LVU111
 340 0056 F3E7     		b	.L18
 341              	.L28:
 342              		.align	2
 343              	.L27:
 344 0058 00000000 		.word	lv_anim_timeline_virtual_exec_cb
 345              		.cfi_endproc
 346              	.LFE24:
 348              		.section	.text.lv_anim_timeline_start,"ax",%progbits
 349              		.align	1
 350              		.p2align 2,,3
 351              		.global	lv_anim_timeline_start
 352              		.syntax unified
 353              		.thumb
 354              		.thumb_func
 356              	lv_anim_timeline_start:
 357              	.LVL21:
 358              	.LFB25:
  92:Drivers/lvgl/src/misc/lv_anim_timeline.c ****     LV_ASSERT_NULL(at);
 359              		.loc 1 92 1 is_stmt 1 view -0
 360              		.cfi_startproc
 361              		@ args = 0, pretend = 0, frame = 72
 362              		@ frame_needed = 0, uses_anonymous_args = 0
  93:Drivers/lvgl/src/misc/lv_anim_timeline.c **** 
 363              		.loc 1 93 5 view .LVU113
  93:Drivers/lvgl/src/misc/lv_anim_timeline.c **** 
 364              		.loc 1 93 5 view .LVU114
 365 0000 0028     		cmp	r0, #0
 366 0002 45D0     		beq	.L30
 367              	.LVL22:
 368              	.LBB50:
 369              	.LBB51:
 370              	.LBB52:
 371              	.LBB53:
 372              	.LBB54:
 171:Drivers/lvgl/src/misc/lv_anim_timeline.c ****         uint32_t end = lv_anim_get_playtime(&at->anim_dsc[i].anim);
 373              		.loc 1 171 27 view .LVU115
 374              	.LBE54:
 375              	.LBE53:
 376              	.LBE52:
 377              	.LBE51:
 378              	.LBE50:
  92:Drivers/lvgl/src/misc/lv_anim_timeline.c ****     LV_ASSERT_NULL(at);
 379              		.loc 1 92 1 is_stmt 0 view .LVU116
 380 0004 2DE9F041 		push	{r4, r5, r6, r7, r8, lr}
 381              		.cfi_def_cfa_offset 24
 382              		.cfi_offset 4, -24
ARM GAS  /var/folders/0z/tsy30v1j4xl4_7kw94k978ww0000gn/T//ccCn98Rz.s 			page 13


 383              		.cfi_offset 5, -20
 384              		.cfi_offset 6, -16
 385              		.cfi_offset 7, -12
 386              		.cfi_offset 8, -8
 387              		.cfi_offset 14, -4
 388              	.LBB69:
 389              	.LBB67:
 390              	.LBB65:
 391              	.LBB63:
 392              	.LBB60:
 171:Drivers/lvgl/src/misc/lv_anim_timeline.c ****         uint32_t end = lv_anim_get_playtime(&at->anim_dsc[i].anim);
 393              		.loc 1 171 31 view .LVU117
 394 0008 4668     		ldr	r6, [r0, #4]
 395              	.LBE60:
 396              	.LBE63:
 397              	.LBE65:
 398              	.LBE67:
 399              	.LBE69:
  92:Drivers/lvgl/src/misc/lv_anim_timeline.c ****     LV_ASSERT_NULL(at);
 400              		.loc 1 92 1 view .LVU118
 401 000a 92B0     		sub	sp, sp, #72
 402              		.cfi_def_cfa_offset 96
 403 000c 0746     		mov	r7, r0
 404              	.LBB70:
 405              	.LBB68:
 406              	.LBB66:
 407              	.LBB64:
 408              	.LBB61:
 171:Drivers/lvgl/src/misc/lv_anim_timeline.c ****         uint32_t end = lv_anim_get_playtime(&at->anim_dsc[i].anim);
 409              		.loc 1 171 27 view .LVU119
 410 000e 002E     		cmp	r6, #0
 411 0010 3FD0     		beq	.L29
 412              	.LBE61:
 170:Drivers/lvgl/src/misc/lv_anim_timeline.c ****     for(uint32_t i = 0; i < at->anim_dsc_cnt; i++) {
 413              		.loc 1 170 14 view .LVU120
 414 0012 0026     		movs	r6, #0
 415              	.LBB62:
 416              	.LBB55:
 172:Drivers/lvgl/src/misc/lv_anim_timeline.c ****         if(end == LV_ANIM_PLAYTIME_INFINITE)
 417              		.loc 1 172 48 view .LVU121
 418 0014 0268     		ldr	r2, [r0]
 419              	.LBE55:
 171:Drivers/lvgl/src/misc/lv_anim_timeline.c ****         uint32_t end = lv_anim_get_playtime(&at->anim_dsc[i].anim);
 420              		.loc 1 171 18 view .LVU122
 421 0016 3546     		mov	r5, r6
 422 0018 09E0     		b	.L34
 423              	.LVL23:
 424              	.L49:
 171:Drivers/lvgl/src/misc/lv_anim_timeline.c ****         uint32_t end = lv_anim_get_playtime(&at->anim_dsc[i].anim);
 425              		.loc 1 171 31 view .LVU123
 426 001a D7E90021 		ldrd	r2, r1, [r7]
 427              	.LBB56:
 175:Drivers/lvgl/src/misc/lv_anim_timeline.c ****         if(end > playtime) {
 428              		.loc 1 175 31 view .LVU124
 429 001e 1319     		adds	r3, r2, r4
 175:Drivers/lvgl/src/misc/lv_anim_timeline.c ****         if(end > playtime) {
 430              		.loc 1 175 13 view .LVU125
ARM GAS  /var/folders/0z/tsy30v1j4xl4_7kw94k978ww0000gn/T//ccCn98Rz.s 			page 14


 431 0020 5B6C     		ldr	r3, [r3, #68]
 432 0022 0344     		add	r3, r3, r0
 433 0024 9E42     		cmp	r6, r3
 434 0026 38BF     		it	cc
 435 0028 1E46     		movcc	r6, r3
 436              	.LVL24:
 175:Drivers/lvgl/src/misc/lv_anim_timeline.c ****         if(end > playtime) {
 437              		.loc 1 175 13 view .LVU126
 438              	.LBE56:
 171:Drivers/lvgl/src/misc/lv_anim_timeline.c ****         uint32_t end = lv_anim_get_playtime(&at->anim_dsc[i].anim);
 439              		.loc 1 171 48 is_stmt 1 view .LVU127
 171:Drivers/lvgl/src/misc/lv_anim_timeline.c ****         uint32_t end = lv_anim_get_playtime(&at->anim_dsc[i].anim);
 440              		.loc 1 171 27 view .LVU128
 441 002a 8D42     		cmp	r5, r1
 442 002c 0CD2     		bcs	.L35
 443              	.LVL25:
 444              	.L34:
 445              	.LBB57:
 172:Drivers/lvgl/src/misc/lv_anim_timeline.c ****         if(end == LV_ANIM_PLAYTIME_INFINITE)
 446              		.loc 1 172 9 view .LVU129
 447 002e 05EBC503 		add	r3, r5, r5, lsl #3
 172:Drivers/lvgl/src/misc/lv_anim_timeline.c ****         if(end == LV_ANIM_PLAYTIME_INFINITE)
 448              		.loc 1 172 24 is_stmt 0 view .LVU130
 449 0032 02EBC300 		add	r0, r2, r3, lsl #3
 450 0036 DC00     		lsls	r4, r3, #3
 451 0038 FFF7FEFF 		bl	lv_anim_get_playtime
 452              	.LVL26:
 175:Drivers/lvgl/src/misc/lv_anim_timeline.c ****         if(end > playtime) {
 453              		.loc 1 175 9 is_stmt 1 view .LVU131
 173:Drivers/lvgl/src/misc/lv_anim_timeline.c ****             return end;
 454              		.loc 1 173 9 view .LVU132
 173:Drivers/lvgl/src/misc/lv_anim_timeline.c ****             return end;
 455              		.loc 1 173 11 is_stmt 0 view .LVU133
 456 003c 431C     		adds	r3, r0, #1
 457              	.LBE57:
 171:Drivers/lvgl/src/misc/lv_anim_timeline.c ****         uint32_t end = lv_anim_get_playtime(&at->anim_dsc[i].anim);
 458              		.loc 1 171 48 view .LVU134
 459 003e 05F10105 		add	r5, r5, #1
 460              	.LVL27:
 461              	.LBB58:
 173:Drivers/lvgl/src/misc/lv_anim_timeline.c ****             return end;
 462              		.loc 1 173 11 view .LVU135
 463 0042 EAD1     		bne	.L49
 464              	.LBE58:
 171:Drivers/lvgl/src/misc/lv_anim_timeline.c ****         uint32_t end = lv_anim_get_playtime(&at->anim_dsc[i].anim);
 465              		.loc 1 171 31 view .LVU136
 466 0044 7968     		ldr	r1, [r7, #4]
 467              	.LBB59:
 172:Drivers/lvgl/src/misc/lv_anim_timeline.c ****         if(end == LV_ANIM_PLAYTIME_INFINITE)
 468              		.loc 1 172 24 view .LVU137
 469 0046 0646     		mov	r6, r0
 470              	.LVL28:
 471              	.L35:
 172:Drivers/lvgl/src/misc/lv_anim_timeline.c ****         if(end == LV_ANIM_PLAYTIME_INFINITE)
 472              		.loc 1 172 24 view .LVU138
 473              	.LBE59:
 474              	.LBE62:
ARM GAS  /var/folders/0z/tsy30v1j4xl4_7kw94k978ww0000gn/T//ccCn98Rz.s 			page 15


 475              	.LBE64:
 476              	.LBE66:
 477              	.LBE68:
 478              	.LBE70:
  96:Drivers/lvgl/src/misc/lv_anim_timeline.c **** 
 479              		.loc 1 96 5 is_stmt 1 view .LVU139
  96:Drivers/lvgl/src/misc/lv_anim_timeline.c **** 
 480              		.loc 1 96 10 is_stmt 0 view .LVU140
 481 0048 97F80880 		ldrb	r8, [r7, #8]	@ zero_extendqisi2
 482              	.LVL29:
  98:Drivers/lvgl/src/misc/lv_anim_timeline.c ****         lv_anim_t a = at->anim_dsc[i].anim;
 483              		.loc 1 98 5 is_stmt 1 view .LVU141
 484              	.LBB71:
  98:Drivers/lvgl/src/misc/lv_anim_timeline.c ****         lv_anim_t a = at->anim_dsc[i].anim;
 485              		.loc 1 98 9 view .LVU142
  98:Drivers/lvgl/src/misc/lv_anim_timeline.c ****         lv_anim_t a = at->anim_dsc[i].anim;
 486              		.loc 1 98 27 view .LVU143
 487 004c 09B3     		cbz	r1, .L29
  98:Drivers/lvgl/src/misc/lv_anim_timeline.c ****         lv_anim_t a = at->anim_dsc[i].anim;
 488              		.loc 1 98 18 is_stmt 0 view .LVU144
 489 004e 0024     		movs	r4, #0
 490 0050 0EE0     		b	.L38
 491              	.LVL30:
 492              	.L50:
 493              	.LBB72:
 494              	.LBB73:
 106:Drivers/lvgl/src/misc/lv_anim_timeline.c ****         }
 495              		.loc 1 106 13 view .LVU145
 496 0052 0C9A     		ldr	r2, [sp, #48]
 103:Drivers/lvgl/src/misc/lv_anim_timeline.c ****             a.start_value = a.end_value;
 497              		.loc 1 103 21 view .LVU146
 498 0054 0998     		ldr	r0, [sp, #36]
 499              	.LVL31:
 104:Drivers/lvgl/src/misc/lv_anim_timeline.c ****             a.end_value = temp;
 500              		.loc 1 104 13 is_stmt 1 view .LVU147
 104:Drivers/lvgl/src/misc/lv_anim_timeline.c ****             a.end_value = temp;
 501              		.loc 1 104 27 is_stmt 0 view .LVU148
 502 0056 0B99     		ldr	r1, [sp, #44]
 503 0058 0991     		str	r1, [sp, #36]
 105:Drivers/lvgl/src/misc/lv_anim_timeline.c ****             lv_anim_set_delay(&a, playtime - (start_time + a.time));
 504              		.loc 1 105 13 is_stmt 1 view .LVU149
 106:Drivers/lvgl/src/misc/lv_anim_timeline.c ****         }
 505              		.loc 1 106 13 is_stmt 0 view .LVU150
 506 005a B21A     		subs	r2, r6, r2
 105:Drivers/lvgl/src/misc/lv_anim_timeline.c ****             lv_anim_set_delay(&a, playtime - (start_time + a.time));
 507              		.loc 1 105 25 view .LVU151
 508 005c 0B90     		str	r0, [sp, #44]
 106:Drivers/lvgl/src/misc/lv_anim_timeline.c ****         }
 509              		.loc 1 106 13 is_stmt 1 view .LVU152
 510              	.LVL32:
 511              	.LBB74:
 512              	.LBI74:
 513              		.file 2 "Drivers/lvgl/src/misc/lv_anim.h"
   1:Drivers/lvgl/src/misc/lv_anim.h **** /**
   2:Drivers/lvgl/src/misc/lv_anim.h ****  * @file lv_anim.h
   3:Drivers/lvgl/src/misc/lv_anim.h ****  *
   4:Drivers/lvgl/src/misc/lv_anim.h ****  */
ARM GAS  /var/folders/0z/tsy30v1j4xl4_7kw94k978ww0000gn/T//ccCn98Rz.s 			page 16


   5:Drivers/lvgl/src/misc/lv_anim.h **** 
   6:Drivers/lvgl/src/misc/lv_anim.h **** #ifndef LV_ANIM_H
   7:Drivers/lvgl/src/misc/lv_anim.h **** #define LV_ANIM_H
   8:Drivers/lvgl/src/misc/lv_anim.h **** 
   9:Drivers/lvgl/src/misc/lv_anim.h **** #ifdef __cplusplus
  10:Drivers/lvgl/src/misc/lv_anim.h **** extern "C" {
  11:Drivers/lvgl/src/misc/lv_anim.h **** #endif
  12:Drivers/lvgl/src/misc/lv_anim.h **** 
  13:Drivers/lvgl/src/misc/lv_anim.h **** /*********************
  14:Drivers/lvgl/src/misc/lv_anim.h ****  *      INCLUDES
  15:Drivers/lvgl/src/misc/lv_anim.h ****  *********************/
  16:Drivers/lvgl/src/misc/lv_anim.h **** #include "../lv_conf_internal.h"
  17:Drivers/lvgl/src/misc/lv_anim.h **** 
  18:Drivers/lvgl/src/misc/lv_anim.h **** #include <stdint.h>
  19:Drivers/lvgl/src/misc/lv_anim.h **** #include <stdbool.h>
  20:Drivers/lvgl/src/misc/lv_anim.h **** #include <stddef.h>
  21:Drivers/lvgl/src/misc/lv_anim.h **** 
  22:Drivers/lvgl/src/misc/lv_anim.h **** /*********************
  23:Drivers/lvgl/src/misc/lv_anim.h ****  *      DEFINES
  24:Drivers/lvgl/src/misc/lv_anim.h ****  *********************/
  25:Drivers/lvgl/src/misc/lv_anim.h **** 
  26:Drivers/lvgl/src/misc/lv_anim.h **** #define LV_ANIM_REPEAT_INFINITE      0xFFFF
  27:Drivers/lvgl/src/misc/lv_anim.h **** #define LV_ANIM_PLAYTIME_INFINITE    0xFFFFFFFF
  28:Drivers/lvgl/src/misc/lv_anim.h **** 
  29:Drivers/lvgl/src/misc/lv_anim.h **** LV_EXPORT_CONST_INT(LV_ANIM_REPEAT_INFINITE);
  30:Drivers/lvgl/src/misc/lv_anim.h **** LV_EXPORT_CONST_INT(LV_ANIM_PLAYTIME_INFINITE);
  31:Drivers/lvgl/src/misc/lv_anim.h **** 
  32:Drivers/lvgl/src/misc/lv_anim.h **** /**********************
  33:Drivers/lvgl/src/misc/lv_anim.h ****  *      TYPEDEFS
  34:Drivers/lvgl/src/misc/lv_anim.h ****  **********************/
  35:Drivers/lvgl/src/misc/lv_anim.h **** 
  36:Drivers/lvgl/src/misc/lv_anim.h **** /** Can be used to indicate if animations are enabled or disabled in a case*/
  37:Drivers/lvgl/src/misc/lv_anim.h **** typedef enum {
  38:Drivers/lvgl/src/misc/lv_anim.h ****     LV_ANIM_OFF,
  39:Drivers/lvgl/src/misc/lv_anim.h ****     LV_ANIM_ON,
  40:Drivers/lvgl/src/misc/lv_anim.h **** } lv_anim_enable_t;
  41:Drivers/lvgl/src/misc/lv_anim.h **** 
  42:Drivers/lvgl/src/misc/lv_anim.h **** struct _lv_anim_t;
  43:Drivers/lvgl/src/misc/lv_anim.h **** struct _lv_timer_t;
  44:Drivers/lvgl/src/misc/lv_anim.h **** 
  45:Drivers/lvgl/src/misc/lv_anim.h **** /** Get the current value during an animation*/
  46:Drivers/lvgl/src/misc/lv_anim.h **** typedef int32_t (*lv_anim_path_cb_t)(const struct _lv_anim_t *);
  47:Drivers/lvgl/src/misc/lv_anim.h **** 
  48:Drivers/lvgl/src/misc/lv_anim.h **** /** Generic prototype of "animator" functions.
  49:Drivers/lvgl/src/misc/lv_anim.h ****  * First parameter is the variable to animate.
  50:Drivers/lvgl/src/misc/lv_anim.h ****  * Second parameter is the value to set.
  51:Drivers/lvgl/src/misc/lv_anim.h ****  * Compatible with `lv_xxx_set_yyy(obj, value)` functions
  52:Drivers/lvgl/src/misc/lv_anim.h ****  * The `x` in `_xcb_t` means it's not a fully generic prototype because
  53:Drivers/lvgl/src/misc/lv_anim.h ****  * it doesn't receive `lv_anim_t *` as its first argument*/
  54:Drivers/lvgl/src/misc/lv_anim.h **** typedef void (*lv_anim_exec_xcb_t)(void *, int32_t);
  55:Drivers/lvgl/src/misc/lv_anim.h **** 
  56:Drivers/lvgl/src/misc/lv_anim.h **** /** Same as `lv_anim_exec_xcb_t` but receives `lv_anim_t *` as the first parameter.
  57:Drivers/lvgl/src/misc/lv_anim.h ****  * It's more consistent but less convenient. Might be used by binding generator functions.*/
  58:Drivers/lvgl/src/misc/lv_anim.h **** typedef void (*lv_anim_custom_exec_cb_t)(struct _lv_anim_t *, int32_t);
  59:Drivers/lvgl/src/misc/lv_anim.h **** 
  60:Drivers/lvgl/src/misc/lv_anim.h **** /** Callback to call when the animation is ready*/
  61:Drivers/lvgl/src/misc/lv_anim.h **** typedef void (*lv_anim_ready_cb_t)(struct _lv_anim_t *);
ARM GAS  /var/folders/0z/tsy30v1j4xl4_7kw94k978ww0000gn/T//ccCn98Rz.s 			page 17


  62:Drivers/lvgl/src/misc/lv_anim.h **** 
  63:Drivers/lvgl/src/misc/lv_anim.h **** /** Callback to call when the animation really stars (considering `delay`)*/
  64:Drivers/lvgl/src/misc/lv_anim.h **** typedef void (*lv_anim_start_cb_t)(struct _lv_anim_t *);
  65:Drivers/lvgl/src/misc/lv_anim.h **** 
  66:Drivers/lvgl/src/misc/lv_anim.h **** /** Callback used when the animation values are relative to get the current value*/
  67:Drivers/lvgl/src/misc/lv_anim.h **** typedef int32_t (*lv_anim_get_value_cb_t)(struct _lv_anim_t *);
  68:Drivers/lvgl/src/misc/lv_anim.h **** 
  69:Drivers/lvgl/src/misc/lv_anim.h **** /** Callback used when the animation is deleted*/
  70:Drivers/lvgl/src/misc/lv_anim.h **** typedef void (*lv_anim_deleted_cb_t)(struct _lv_anim_t *);
  71:Drivers/lvgl/src/misc/lv_anim.h **** 
  72:Drivers/lvgl/src/misc/lv_anim.h **** /** Describes an animation*/
  73:Drivers/lvgl/src/misc/lv_anim.h **** typedef struct _lv_anim_t {
  74:Drivers/lvgl/src/misc/lv_anim.h ****     void * var;                          /**<Variable to animate*/
  75:Drivers/lvgl/src/misc/lv_anim.h ****     lv_anim_exec_xcb_t exec_cb;          /**< Function to execute to animate*/
  76:Drivers/lvgl/src/misc/lv_anim.h ****     lv_anim_start_cb_t start_cb;         /**< Call it when the animation is starts (considering `de
  77:Drivers/lvgl/src/misc/lv_anim.h ****     lv_anim_ready_cb_t ready_cb;         /**< Call it when the animation is ready*/
  78:Drivers/lvgl/src/misc/lv_anim.h ****     lv_anim_deleted_cb_t deleted_cb;     /**< Call it when the animation is deleted*/
  79:Drivers/lvgl/src/misc/lv_anim.h ****     lv_anim_get_value_cb_t get_value_cb; /**< Get the current value in relative mode*/
  80:Drivers/lvgl/src/misc/lv_anim.h **** #if LV_USE_USER_DATA
  81:Drivers/lvgl/src/misc/lv_anim.h ****     void * user_data; /**< Custom user data*/
  82:Drivers/lvgl/src/misc/lv_anim.h **** #endif
  83:Drivers/lvgl/src/misc/lv_anim.h ****     lv_anim_path_cb_t path_cb;         /**< Describe the path (curve) of animations*/
  84:Drivers/lvgl/src/misc/lv_anim.h ****     int32_t start_value;               /**< Start value*/
  85:Drivers/lvgl/src/misc/lv_anim.h ****     int32_t current_value;             /**< Current value*/
  86:Drivers/lvgl/src/misc/lv_anim.h ****     int32_t end_value;                 /**< End value*/
  87:Drivers/lvgl/src/misc/lv_anim.h ****     int32_t time;                /**< Animation time in ms*/
  88:Drivers/lvgl/src/misc/lv_anim.h ****     int32_t act_time;            /**< Current time in animation. Set to negative to make delay.*/
  89:Drivers/lvgl/src/misc/lv_anim.h ****     uint32_t playback_delay;     /**< Wait before play back*/
  90:Drivers/lvgl/src/misc/lv_anim.h ****     uint32_t playback_time;      /**< Duration of playback animation*/
  91:Drivers/lvgl/src/misc/lv_anim.h ****     uint32_t repeat_delay;       /**< Wait before repeat*/
  92:Drivers/lvgl/src/misc/lv_anim.h ****     uint16_t repeat_cnt;         /**< Repeat count for the animation*/
  93:Drivers/lvgl/src/misc/lv_anim.h ****     uint8_t early_apply  : 1;    /**< 1: Apply start value immediately even is there is `delay`*/
  94:Drivers/lvgl/src/misc/lv_anim.h **** 
  95:Drivers/lvgl/src/misc/lv_anim.h ****     /*Animation system use these - user shouldn't set*/
  96:Drivers/lvgl/src/misc/lv_anim.h ****     uint8_t playback_now : 1; /**< Play back is in progress*/
  97:Drivers/lvgl/src/misc/lv_anim.h ****     uint8_t run_round : 1;    /**< Indicates the animation has run in this round*/
  98:Drivers/lvgl/src/misc/lv_anim.h ****     uint8_t start_cb_called : 1;    /**< Indicates that the `start_cb` was already called*/
  99:Drivers/lvgl/src/misc/lv_anim.h **** } lv_anim_t;
 100:Drivers/lvgl/src/misc/lv_anim.h **** 
 101:Drivers/lvgl/src/misc/lv_anim.h **** /**********************
 102:Drivers/lvgl/src/misc/lv_anim.h ****  * GLOBAL PROTOTYPES
 103:Drivers/lvgl/src/misc/lv_anim.h ****  **********************/
 104:Drivers/lvgl/src/misc/lv_anim.h **** 
 105:Drivers/lvgl/src/misc/lv_anim.h **** /**
 106:Drivers/lvgl/src/misc/lv_anim.h ****  * Init. the animation module
 107:Drivers/lvgl/src/misc/lv_anim.h ****  */
 108:Drivers/lvgl/src/misc/lv_anim.h **** void _lv_anim_core_init(void);
 109:Drivers/lvgl/src/misc/lv_anim.h **** 
 110:Drivers/lvgl/src/misc/lv_anim.h **** /**
 111:Drivers/lvgl/src/misc/lv_anim.h ****  * Initialize an animation variable.
 112:Drivers/lvgl/src/misc/lv_anim.h ****  * E.g.:
 113:Drivers/lvgl/src/misc/lv_anim.h ****  * lv_anim_t a;
 114:Drivers/lvgl/src/misc/lv_anim.h ****  * lv_anim_init(&a);
 115:Drivers/lvgl/src/misc/lv_anim.h ****  * lv_anim_set_...(&a);
 116:Drivers/lvgl/src/misc/lv_anim.h ****  * lv_anim_start(&a);
 117:Drivers/lvgl/src/misc/lv_anim.h ****  * @param a     pointer to an `lv_anim_t` variable to initialize
 118:Drivers/lvgl/src/misc/lv_anim.h ****  */
ARM GAS  /var/folders/0z/tsy30v1j4xl4_7kw94k978ww0000gn/T//ccCn98Rz.s 			page 18


 119:Drivers/lvgl/src/misc/lv_anim.h **** void lv_anim_init(lv_anim_t * a);
 120:Drivers/lvgl/src/misc/lv_anim.h **** 
 121:Drivers/lvgl/src/misc/lv_anim.h **** /**
 122:Drivers/lvgl/src/misc/lv_anim.h ****  * Set a variable to animate
 123:Drivers/lvgl/src/misc/lv_anim.h ****  * @param a     pointer to an initialized `lv_anim_t` variable
 124:Drivers/lvgl/src/misc/lv_anim.h ****  * @param var   pointer to a variable to animate
 125:Drivers/lvgl/src/misc/lv_anim.h ****  */
 126:Drivers/lvgl/src/misc/lv_anim.h **** static inline void lv_anim_set_var(lv_anim_t * a, void * var)
 127:Drivers/lvgl/src/misc/lv_anim.h **** {
 128:Drivers/lvgl/src/misc/lv_anim.h ****     a->var = var;
 129:Drivers/lvgl/src/misc/lv_anim.h **** }
 130:Drivers/lvgl/src/misc/lv_anim.h **** 
 131:Drivers/lvgl/src/misc/lv_anim.h **** /**
 132:Drivers/lvgl/src/misc/lv_anim.h ****  * Set a function to animate `var`
 133:Drivers/lvgl/src/misc/lv_anim.h ****  * @param a         pointer to an initialized `lv_anim_t` variable
 134:Drivers/lvgl/src/misc/lv_anim.h ****  * @param exec_cb   a function to execute during animation
 135:Drivers/lvgl/src/misc/lv_anim.h ****  *                  LVGL's built-in functions can be used.
 136:Drivers/lvgl/src/misc/lv_anim.h ****  *                  E.g. lv_obj_set_x
 137:Drivers/lvgl/src/misc/lv_anim.h ****  */
 138:Drivers/lvgl/src/misc/lv_anim.h **** static inline void lv_anim_set_exec_cb(lv_anim_t * a, lv_anim_exec_xcb_t exec_cb)
 139:Drivers/lvgl/src/misc/lv_anim.h **** {
 140:Drivers/lvgl/src/misc/lv_anim.h ****     a->exec_cb = exec_cb;
 141:Drivers/lvgl/src/misc/lv_anim.h **** }
 142:Drivers/lvgl/src/misc/lv_anim.h **** 
 143:Drivers/lvgl/src/misc/lv_anim.h **** /**
 144:Drivers/lvgl/src/misc/lv_anim.h ****  * Set the duration of an animation
 145:Drivers/lvgl/src/misc/lv_anim.h ****  * @param a         pointer to an initialized `lv_anim_t` variable
 146:Drivers/lvgl/src/misc/lv_anim.h ****  * @param duration  duration of the animation in milliseconds
 147:Drivers/lvgl/src/misc/lv_anim.h ****  */
 148:Drivers/lvgl/src/misc/lv_anim.h **** static inline void lv_anim_set_time(lv_anim_t * a, uint32_t duration)
 149:Drivers/lvgl/src/misc/lv_anim.h **** {
 150:Drivers/lvgl/src/misc/lv_anim.h ****     a->time = duration;
 151:Drivers/lvgl/src/misc/lv_anim.h **** }
 152:Drivers/lvgl/src/misc/lv_anim.h **** 
 153:Drivers/lvgl/src/misc/lv_anim.h **** /**
 154:Drivers/lvgl/src/misc/lv_anim.h ****  * Set a delay before starting the animation
 155:Drivers/lvgl/src/misc/lv_anim.h ****  * @param a         pointer to an initialized `lv_anim_t` variable
 156:Drivers/lvgl/src/misc/lv_anim.h ****  * @param delay     delay before the animation in milliseconds
 157:Drivers/lvgl/src/misc/lv_anim.h ****  */
 158:Drivers/lvgl/src/misc/lv_anim.h **** static inline void lv_anim_set_delay(lv_anim_t * a, uint32_t delay)
 514              		.loc 2 158 20 view .LVU153
 515              	.LBB75:
 159:Drivers/lvgl/src/misc/lv_anim.h **** {
 160:Drivers/lvgl/src/misc/lv_anim.h ****     a->act_time = -(int32_t)(delay);
 516              		.loc 2 160 5 view .LVU154
 517              		.loc 2 160 19 is_stmt 0 view .LVU155
 518 005e 9B1A     		subs	r3, r3, r2
 519              	.LVL33:
 520              	.L37:
 521              		.loc 2 160 19 view .LVU156
 522              	.LBE75:
 523              	.LBE74:
 524              	.LBE73:
 112:Drivers/lvgl/src/misc/lv_anim_timeline.c ****     }
 525              		.loc 1 112 9 discriminator 2 view .LVU157
 526 0060 01A8     		add	r0, sp, #4
 527              	.LVL34:
ARM GAS  /var/folders/0z/tsy30v1j4xl4_7kw94k978ww0000gn/T//ccCn98Rz.s 			page 19


 528              	.LBB78:
 529              	.LBB77:
 530              	.LBB76:
 531              		.loc 2 160 17 discriminator 2 view .LVU158
 532 0062 0D93     		str	r3, [sp, #52]
 533              	.LVL35:
 534              		.loc 2 160 17 discriminator 2 view .LVU159
 535              	.LBE76:
 536              	.LBE77:
 537              	.LBE78:
 112:Drivers/lvgl/src/misc/lv_anim_timeline.c ****     }
 538              		.loc 1 112 9 is_stmt 1 discriminator 2 view .LVU160
 539 0064 FFF7FEFF 		bl	lv_anim_start
 540              	.LVL36:
 112:Drivers/lvgl/src/misc/lv_anim_timeline.c ****     }
 541              		.loc 1 112 9 is_stmt 0 discriminator 2 view .LVU161
 542              	.LBE72:
  98:Drivers/lvgl/src/misc/lv_anim_timeline.c ****         lv_anim_t a = at->anim_dsc[i].anim;
 543              		.loc 1 98 48 is_stmt 1 discriminator 2 view .LVU162
  98:Drivers/lvgl/src/misc/lv_anim_timeline.c ****         lv_anim_t a = at->anim_dsc[i].anim;
 544              		.loc 1 98 27 is_stmt 0 discriminator 2 view .LVU163
 545 0068 7B68     		ldr	r3, [r7, #4]
  98:Drivers/lvgl/src/misc/lv_anim_timeline.c ****         lv_anim_t a = at->anim_dsc[i].anim;
 546              		.loc 1 98 48 discriminator 2 view .LVU164
 547 006a 0134     		adds	r4, r4, #1
 548              	.LVL37:
  98:Drivers/lvgl/src/misc/lv_anim_timeline.c ****         lv_anim_t a = at->anim_dsc[i].anim;
 549              		.loc 1 98 27 is_stmt 1 discriminator 2 view .LVU165
 550 006c A342     		cmp	r3, r4
 551 006e 10D9     		bls	.L29
 552              	.LVL38:
 553              	.L38:
 554              	.LBB84:
  99:Drivers/lvgl/src/misc/lv_anim_timeline.c ****         uint32_t start_time = at->anim_dsc[i].start_time;
 555              		.loc 1 99 9 view .LVU166
  99:Drivers/lvgl/src/misc/lv_anim_timeline.c ****         uint32_t start_time = at->anim_dsc[i].start_time;
 556              		.loc 1 99 35 is_stmt 0 view .LVU167
 557 0070 3D68     		ldr	r5, [r7]
 558 0072 04EBC403 		add	r3, r4, r4, lsl #3
 559 0076 05EBC305 		add	r5, r5, r3, lsl #3
  99:Drivers/lvgl/src/misc/lv_anim_timeline.c ****         uint32_t start_time = at->anim_dsc[i].start_time;
 560              		.loc 1 99 19 view .LVU168
 561 007a 4422     		movs	r2, #68
 562 007c 2946     		mov	r1, r5
 563 007e 01A8     		add	r0, sp, #4
 564 0080 FFF7FEFF 		bl	memcpy
 565              	.LVL39:
 100:Drivers/lvgl/src/misc/lv_anim_timeline.c **** 
 566              		.loc 1 100 9 is_stmt 1 view .LVU169
 567              	.LBB79:
 103:Drivers/lvgl/src/misc/lv_anim_timeline.c ****             a.start_value = a.end_value;
 568              		.loc 1 103 13 view .LVU170
 569              	.LBE79:
 109:Drivers/lvgl/src/misc/lv_anim_timeline.c ****         }
 570              		.loc 1 109 13 view .LVU171
 100:Drivers/lvgl/src/misc/lv_anim_timeline.c **** 
 571              		.loc 1 100 18 is_stmt 0 view .LVU172
ARM GAS  /var/folders/0z/tsy30v1j4xl4_7kw94k978ww0000gn/T//ccCn98Rz.s 			page 20


 572 0084 6B6C     		ldr	r3, [r5, #68]
 573              	.LVL40:
 102:Drivers/lvgl/src/misc/lv_anim_timeline.c ****             int32_t temp = a.start_value;
 574              		.loc 1 102 9 is_stmt 1 view .LVU173
 575              	.LBB80:
 576              	.LBI80:
 158:Drivers/lvgl/src/misc/lv_anim.h **** {
 577              		.loc 2 158 20 view .LVU174
 578              	.LBB81:
 579              		.loc 2 160 5 view .LVU175
 580              	.LBE81:
 581              	.LBE80:
 102:Drivers/lvgl/src/misc/lv_anim_timeline.c ****             int32_t temp = a.start_value;
 582              		.loc 1 102 11 is_stmt 0 view .LVU176
 583 0086 B8F1000F 		cmp	r8, #0
 584 008a E2D1     		bne	.L50
 585              	.LBB83:
 586              	.LBB82:
 587              		.loc 2 160 19 view .LVU177
 588 008c 5B42     		rsbs	r3, r3, #0
 589              	.LVL41:
 161:Drivers/lvgl/src/misc/lv_anim.h **** }
 590              		.loc 2 161 1 view .LVU178
 591 008e E7E7     		b	.L37
 592              	.LVL42:
 593              	.L30:
 594              		.cfi_def_cfa_offset 0
 595              		.cfi_restore 4
 596              		.cfi_restore 5
 597              		.cfi_restore 6
 598              		.cfi_restore 7
 599              		.cfi_restore 8
 600              		.cfi_restore 14
 601              		.loc 2 161 1 view .LVU179
 602              	.LBE82:
 603              	.LBE83:
 604              	.LBE84:
 605              	.LBE71:
  93:Drivers/lvgl/src/misc/lv_anim_timeline.c **** 
 606              		.loc 1 93 5 is_stmt 1 discriminator 1 view .LVU180
  93:Drivers/lvgl/src/misc/lv_anim_timeline.c **** 
 607              		.loc 1 93 5 discriminator 1 view .LVU181
  93:Drivers/lvgl/src/misc/lv_anim_timeline.c **** 
 608              		.loc 1 93 5 discriminator 1 view .LVU182
  93:Drivers/lvgl/src/misc/lv_anim_timeline.c **** 
 609              		.loc 1 93 5 discriminator 1 view .LVU183
  93:Drivers/lvgl/src/misc/lv_anim_timeline.c **** 
 610              		.loc 1 93 5 discriminator 1 view .LVU184
  93:Drivers/lvgl/src/misc/lv_anim_timeline.c **** 
 611              		.loc 1 93 5 discriminator 1 view .LVU185
  93:Drivers/lvgl/src/misc/lv_anim_timeline.c **** 
 612              		.loc 1 93 5 discriminator 1 view .LVU186
  93:Drivers/lvgl/src/misc/lv_anim_timeline.c **** 
 613              		.loc 1 93 5 discriminator 1 view .LVU187
  93:Drivers/lvgl/src/misc/lv_anim_timeline.c **** 
 614              		.loc 1 93 5 discriminator 1 view .LVU188
  93:Drivers/lvgl/src/misc/lv_anim_timeline.c **** 
ARM GAS  /var/folders/0z/tsy30v1j4xl4_7kw94k978ww0000gn/T//ccCn98Rz.s 			page 21


 615              		.loc 1 93 5 discriminator 1 view .LVU189
 616 0090 FEE7     		b	.L30
 617              	.LVL43:
 618              	.L29:
 619              		.cfi_def_cfa_offset 96
 620              		.cfi_offset 4, -24
 621              		.cfi_offset 5, -20
 622              		.cfi_offset 6, -16
 623              		.cfi_offset 7, -12
 624              		.cfi_offset 8, -8
 625              		.cfi_offset 14, -4
 116:Drivers/lvgl/src/misc/lv_anim_timeline.c **** 
 626              		.loc 1 116 1 is_stmt 0 view .LVU190
 627 0092 3046     		mov	r0, r6
 628 0094 12B0     		add	sp, sp, #72
 629              		.cfi_def_cfa_offset 24
 630              		@ sp needed
 631 0096 BDE8F081 		pop	{r4, r5, r6, r7, r8, pc}
 116:Drivers/lvgl/src/misc/lv_anim_timeline.c **** 
 632              		.loc 1 116 1 view .LVU191
 633              		.cfi_endproc
 634              	.LFE25:
 636 009a 00BF     		.section	.text.lv_anim_timeline_stop,"ax",%progbits
 637              		.align	1
 638              		.p2align 2,,3
 639              		.global	lv_anim_timeline_stop
 640              		.syntax unified
 641              		.thumb
 642              		.thumb_func
 644              	lv_anim_timeline_stop:
 645              	.LVL44:
 646              	.LFB26:
 119:Drivers/lvgl/src/misc/lv_anim_timeline.c ****     LV_ASSERT_NULL(at);
 647              		.loc 1 119 1 is_stmt 1 view -0
 648              		.cfi_startproc
 649              		@ args = 0, pretend = 0, frame = 0
 650              		@ frame_needed = 0, uses_anonymous_args = 0
 120:Drivers/lvgl/src/misc/lv_anim_timeline.c **** 
 651              		.loc 1 120 5 view .LVU193
 120:Drivers/lvgl/src/misc/lv_anim_timeline.c **** 
 652              		.loc 1 120 5 view .LVU194
 653 0000 90B1     		cbz	r0, .L52
 654              	.LVL45:
 655              	.LBB90:
 656              	.LBB91:
 122:Drivers/lvgl/src/misc/lv_anim_timeline.c ****         lv_anim_t * a = &(at->anim_dsc[i].anim);
 657              		.loc 1 122 27 view .LVU195
 658 0002 4368     		ldr	r3, [r0, #4]
 659              	.LBE91:
 660              	.LBE90:
 119:Drivers/lvgl/src/misc/lv_anim_timeline.c ****     LV_ASSERT_NULL(at);
 661              		.loc 1 119 1 is_stmt 0 view .LVU196
 662 0004 70B5     		push	{r4, r5, r6, lr}
 663              		.cfi_def_cfa_offset 16
 664              		.cfi_offset 4, -16
 665              		.cfi_offset 5, -12
 666              		.cfi_offset 6, -8
ARM GAS  /var/folders/0z/tsy30v1j4xl4_7kw94k978ww0000gn/T//ccCn98Rz.s 			page 22


 667              		.cfi_offset 14, -4
 668 0006 0646     		mov	r6, r0
 669              	.LBB94:
 670              	.LBB93:
 122:Drivers/lvgl/src/misc/lv_anim_timeline.c ****         lv_anim_t * a = &(at->anim_dsc[i].anim);
 671              		.loc 1 122 27 view .LVU197
 672 0008 6BB1     		cbz	r3, .L51
 673 000a 0024     		movs	r4, #0
 122:Drivers/lvgl/src/misc/lv_anim_timeline.c ****         lv_anim_t * a = &(at->anim_dsc[i].anim);
 674              		.loc 1 122 18 view .LVU198
 675 000c 2546     		mov	r5, r4
 676              	.LVL46:
 677              	.L53:
 678              	.LBB92:
 123:Drivers/lvgl/src/misc/lv_anim_timeline.c ****         lv_anim_del(a->var, a->exec_cb);
 679              		.loc 1 123 9 is_stmt 1 view .LVU199
 123:Drivers/lvgl/src/misc/lv_anim_timeline.c ****         lv_anim_del(a->var, a->exec_cb);
 680              		.loc 1 123 39 is_stmt 0 view .LVU200
 681 000e 3368     		ldr	r3, [r6]
 682 0010 1A19     		adds	r2, r3, r4
 683              	.LVL47:
 124:Drivers/lvgl/src/misc/lv_anim_timeline.c ****     }
 684              		.loc 1 124 9 is_stmt 1 view .LVU201
 685 0012 1859     		ldr	r0, [r3, r4]
 686 0014 5168     		ldr	r1, [r2, #4]
 687 0016 FFF7FEFF 		bl	lv_anim_del
 688              	.LVL48:
 124:Drivers/lvgl/src/misc/lv_anim_timeline.c ****     }
 689              		.loc 1 124 9 is_stmt 0 view .LVU202
 690              	.LBE92:
 122:Drivers/lvgl/src/misc/lv_anim_timeline.c ****         lv_anim_t * a = &(at->anim_dsc[i].anim);
 691              		.loc 1 122 48 is_stmt 1 view .LVU203
 122:Drivers/lvgl/src/misc/lv_anim_timeline.c ****         lv_anim_t * a = &(at->anim_dsc[i].anim);
 692              		.loc 1 122 27 is_stmt 0 view .LVU204
 693 001a 7368     		ldr	r3, [r6, #4]
 122:Drivers/lvgl/src/misc/lv_anim_timeline.c ****         lv_anim_t * a = &(at->anim_dsc[i].anim);
 694              		.loc 1 122 48 view .LVU205
 695 001c 0135     		adds	r5, r5, #1
 696              	.LVL49:
 122:Drivers/lvgl/src/misc/lv_anim_timeline.c ****         lv_anim_t * a = &(at->anim_dsc[i].anim);
 697              		.loc 1 122 27 is_stmt 1 view .LVU206
 698 001e 9D42     		cmp	r5, r3
 699 0020 04F14804 		add	r4, r4, #72
 700 0024 F3D3     		bcc	.L53
 701              	.LVL50:
 702              	.L51:
 122:Drivers/lvgl/src/misc/lv_anim_timeline.c ****         lv_anim_t * a = &(at->anim_dsc[i].anim);
 703              		.loc 1 122 27 is_stmt 0 view .LVU207
 704              	.LBE93:
 705              	.LBE94:
 126:Drivers/lvgl/src/misc/lv_anim_timeline.c **** 
 706              		.loc 1 126 1 view .LVU208
 707 0026 70BD     		pop	{r4, r5, r6, pc}
 708              	.LVL51:
 709              	.L52:
 710              		.cfi_def_cfa_offset 0
 711              		.cfi_restore 4
ARM GAS  /var/folders/0z/tsy30v1j4xl4_7kw94k978ww0000gn/T//ccCn98Rz.s 			page 23


 712              		.cfi_restore 5
 713              		.cfi_restore 6
 714              		.cfi_restore 14
 120:Drivers/lvgl/src/misc/lv_anim_timeline.c **** 
 715              		.loc 1 120 5 is_stmt 1 discriminator 1 view .LVU209
 120:Drivers/lvgl/src/misc/lv_anim_timeline.c **** 
 716              		.loc 1 120 5 discriminator 1 view .LVU210
 120:Drivers/lvgl/src/misc/lv_anim_timeline.c **** 
 717              		.loc 1 120 5 discriminator 1 view .LVU211
 120:Drivers/lvgl/src/misc/lv_anim_timeline.c **** 
 718              		.loc 1 120 5 discriminator 1 view .LVU212
 120:Drivers/lvgl/src/misc/lv_anim_timeline.c **** 
 719              		.loc 1 120 5 discriminator 1 view .LVU213
 120:Drivers/lvgl/src/misc/lv_anim_timeline.c **** 
 720              		.loc 1 120 5 discriminator 1 view .LVU214
 120:Drivers/lvgl/src/misc/lv_anim_timeline.c **** 
 721              		.loc 1 120 5 discriminator 1 view .LVU215
 120:Drivers/lvgl/src/misc/lv_anim_timeline.c **** 
 722              		.loc 1 120 5 discriminator 1 view .LVU216
 120:Drivers/lvgl/src/misc/lv_anim_timeline.c **** 
 723              		.loc 1 120 5 discriminator 1 view .LVU217
 120:Drivers/lvgl/src/misc/lv_anim_timeline.c **** 
 724              		.loc 1 120 5 discriminator 1 view .LVU218
 725 0028 FEE7     		b	.L52
 726              		.cfi_endproc
 727              	.LFE26:
 729 002a 00BF     		.section	.text.lv_anim_timeline_set_reverse,"ax",%progbits
 730              		.align	1
 731              		.p2align 2,,3
 732              		.global	lv_anim_timeline_set_reverse
 733              		.syntax unified
 734              		.thumb
 735              		.thumb_func
 737              	lv_anim_timeline_set_reverse:
 738              	.LVL52:
 739              	.LFB27:
 129:Drivers/lvgl/src/misc/lv_anim_timeline.c ****     LV_ASSERT_NULL(at);
 740              		.loc 1 129 1 view -0
 741              		.cfi_startproc
 742              		@ args = 0, pretend = 0, frame = 0
 743              		@ frame_needed = 0, uses_anonymous_args = 0
 744              		@ link register save eliminated.
 130:Drivers/lvgl/src/misc/lv_anim_timeline.c ****     at->reverse = reverse;
 745              		.loc 1 130 5 view .LVU220
 130:Drivers/lvgl/src/misc/lv_anim_timeline.c ****     at->reverse = reverse;
 746              		.loc 1 130 5 view .LVU221
 747 0000 08B1     		cbz	r0, .L64
 130:Drivers/lvgl/src/misc/lv_anim_timeline.c ****     at->reverse = reverse;
 748              		.loc 1 130 5 discriminator 2 view .LVU222
 130:Drivers/lvgl/src/misc/lv_anim_timeline.c ****     at->reverse = reverse;
 749              		.loc 1 130 23 discriminator 2 view .LVU223
 131:Drivers/lvgl/src/misc/lv_anim_timeline.c **** }
 750              		.loc 1 131 5 discriminator 2 view .LVU224
 131:Drivers/lvgl/src/misc/lv_anim_timeline.c **** }
 751              		.loc 1 131 17 is_stmt 0 discriminator 2 view .LVU225
 752 0002 0172     		strb	r1, [r0, #8]
 132:Drivers/lvgl/src/misc/lv_anim_timeline.c **** 
ARM GAS  /var/folders/0z/tsy30v1j4xl4_7kw94k978ww0000gn/T//ccCn98Rz.s 			page 24


 753              		.loc 1 132 1 discriminator 2 view .LVU226
 754 0004 7047     		bx	lr
 755              	.L64:
 130:Drivers/lvgl/src/misc/lv_anim_timeline.c ****     at->reverse = reverse;
 756              		.loc 1 130 5 is_stmt 1 discriminator 1 view .LVU227
 130:Drivers/lvgl/src/misc/lv_anim_timeline.c ****     at->reverse = reverse;
 757              		.loc 1 130 5 discriminator 1 view .LVU228
 130:Drivers/lvgl/src/misc/lv_anim_timeline.c ****     at->reverse = reverse;
 758              		.loc 1 130 5 discriminator 1 view .LVU229
 130:Drivers/lvgl/src/misc/lv_anim_timeline.c ****     at->reverse = reverse;
 759              		.loc 1 130 5 discriminator 1 view .LVU230
 130:Drivers/lvgl/src/misc/lv_anim_timeline.c ****     at->reverse = reverse;
 760              		.loc 1 130 5 discriminator 1 view .LVU231
 130:Drivers/lvgl/src/misc/lv_anim_timeline.c ****     at->reverse = reverse;
 761              		.loc 1 130 5 discriminator 1 view .LVU232
 130:Drivers/lvgl/src/misc/lv_anim_timeline.c ****     at->reverse = reverse;
 762              		.loc 1 130 5 discriminator 1 view .LVU233
 130:Drivers/lvgl/src/misc/lv_anim_timeline.c ****     at->reverse = reverse;
 763              		.loc 1 130 5 discriminator 1 view .LVU234
 130:Drivers/lvgl/src/misc/lv_anim_timeline.c ****     at->reverse = reverse;
 764              		.loc 1 130 5 discriminator 1 view .LVU235
 130:Drivers/lvgl/src/misc/lv_anim_timeline.c ****     at->reverse = reverse;
 765              		.loc 1 130 5 discriminator 1 view .LVU236
 766 0006 FEE7     		b	.L64
 767              		.cfi_endproc
 768              	.LFE27:
 770              		.section	.text.lv_anim_timeline_set_progress,"ax",%progbits
 771              		.align	1
 772              		.p2align 2,,3
 773              		.global	lv_anim_timeline_set_progress
 774              		.syntax unified
 775              		.thumb
 776              		.thumb_func
 778              	lv_anim_timeline_set_progress:
 779              	.LVL53:
 780              	.LFB28:
 135:Drivers/lvgl/src/misc/lv_anim_timeline.c ****     LV_ASSERT_NULL(at);
 781              		.loc 1 135 1 view -0
 782              		.cfi_startproc
 783              		@ args = 0, pretend = 0, frame = 0
 784              		@ frame_needed = 0, uses_anonymous_args = 0
 136:Drivers/lvgl/src/misc/lv_anim_timeline.c **** 
 785              		.loc 1 136 5 view .LVU238
 136:Drivers/lvgl/src/misc/lv_anim_timeline.c **** 
 786              		.loc 1 136 5 view .LVU239
 787 0000 0028     		cmp	r0, #0
 788 0002 4FD0     		beq	.L66
 789              	.LVL54:
 790              	.LBB103:
 791              	.LBB104:
 792              	.LBB105:
 793              	.LBB106:
 794              	.LBB107:
 171:Drivers/lvgl/src/misc/lv_anim_timeline.c ****         uint32_t end = lv_anim_get_playtime(&at->anim_dsc[i].anim);
 795              		.loc 1 171 27 view .LVU240
 796              	.LBE107:
 797              	.LBE106:
ARM GAS  /var/folders/0z/tsy30v1j4xl4_7kw94k978ww0000gn/T//ccCn98Rz.s 			page 25


 798              	.LBE105:
 799              	.LBE104:
 800              	.LBE103:
 135:Drivers/lvgl/src/misc/lv_anim_timeline.c ****     LV_ASSERT_NULL(at);
 801              		.loc 1 135 1 is_stmt 0 view .LVU241
 802 0004 2DE9F843 		push	{r3, r4, r5, r6, r7, r8, r9, lr}
 803              		.cfi_def_cfa_offset 32
 804              		.cfi_offset 3, -32
 805              		.cfi_offset 4, -28
 806              		.cfi_offset 5, -24
 807              		.cfi_offset 6, -20
 808              		.cfi_offset 7, -16
 809              		.cfi_offset 8, -12
 810              		.cfi_offset 9, -8
 811              		.cfi_offset 14, -4
 812              	.LBB118:
 813              	.LBB117:
 814              	.LBB116:
 815              	.LBB115:
 816              	.LBB113:
 171:Drivers/lvgl/src/misc/lv_anim_timeline.c ****         uint32_t end = lv_anim_get_playtime(&at->anim_dsc[i].anim);
 817              		.loc 1 171 27 view .LVU242
 818 0008 4368     		ldr	r3, [r0, #4]
 819 000a 0646     		mov	r6, r0
 820 000c 002B     		cmp	r3, #0
 821 000e 4AD0     		beq	.L65
 822              	.LBE113:
 170:Drivers/lvgl/src/misc/lv_anim_timeline.c ****     for(uint32_t i = 0; i < at->anim_dsc_cnt; i++) {
 823              		.loc 1 170 14 view .LVU243
 824 0010 4FF00008 		mov	r8, #0
 825 0014 0F46     		mov	r7, r1
 826              	.LBB114:
 171:Drivers/lvgl/src/misc/lv_anim_timeline.c ****         uint32_t end = lv_anim_get_playtime(&at->anim_dsc[i].anim);
 827              		.loc 1 171 18 view .LVU244
 828 0016 4546     		mov	r5, r8
 829              	.LBB108:
 172:Drivers/lvgl/src/misc/lv_anim_timeline.c ****         if(end == LV_ANIM_PLAYTIME_INFINITE)
 830              		.loc 1 172 48 view .LVU245
 831 0018 0168     		ldr	r1, [r0]
 832              	.LVL55:
 172:Drivers/lvgl/src/misc/lv_anim_timeline.c ****         if(end == LV_ANIM_PLAYTIME_INFINITE)
 833              		.loc 1 172 48 view .LVU246
 834 001a 09E0     		b	.L69
 835              	.LVL56:
 836              	.L90:
 172:Drivers/lvgl/src/misc/lv_anim_timeline.c ****         if(end == LV_ANIM_PLAYTIME_INFINITE)
 837              		.loc 1 172 48 view .LVU247
 838              	.LBE108:
 171:Drivers/lvgl/src/misc/lv_anim_timeline.c ****         uint32_t end = lv_anim_get_playtime(&at->anim_dsc[i].anim);
 839              		.loc 1 171 31 view .LVU248
 840 001c D6E90012 		ldrd	r1, r2, [r6]
 841              	.LBB109:
 175:Drivers/lvgl/src/misc/lv_anim_timeline.c ****         if(end > playtime) {
 842              		.loc 1 175 31 view .LVU249
 843 0020 0C44     		add	r4, r4, r1
 175:Drivers/lvgl/src/misc/lv_anim_timeline.c ****         if(end > playtime) {
 844              		.loc 1 175 13 view .LVU250
ARM GAS  /var/folders/0z/tsy30v1j4xl4_7kw94k978ww0000gn/T//ccCn98Rz.s 			page 26


 845 0022 636C     		ldr	r3, [r4, #68]
 846 0024 0344     		add	r3, r3, r0
 847 0026 9845     		cmp	r8, r3
 848 0028 38BF     		it	cc
 849 002a 9846     		movcc	r8, r3
 850              	.LVL57:
 175:Drivers/lvgl/src/misc/lv_anim_timeline.c ****         if(end > playtime) {
 851              		.loc 1 175 13 view .LVU251
 852              	.LBE109:
 171:Drivers/lvgl/src/misc/lv_anim_timeline.c ****         uint32_t end = lv_anim_get_playtime(&at->anim_dsc[i].anim);
 853              		.loc 1 171 48 is_stmt 1 view .LVU252
 171:Drivers/lvgl/src/misc/lv_anim_timeline.c ****         uint32_t end = lv_anim_get_playtime(&at->anim_dsc[i].anim);
 854              		.loc 1 171 27 view .LVU253
 855 002c 9542     		cmp	r5, r2
 856 002e 0DD2     		bcs	.L70
 857              	.LVL58:
 858              	.L69:
 859              	.LBB110:
 172:Drivers/lvgl/src/misc/lv_anim_timeline.c ****         if(end == LV_ANIM_PLAYTIME_INFINITE)
 860              		.loc 1 172 9 view .LVU254
 861 0030 05EBC504 		add	r4, r5, r5, lsl #3
 172:Drivers/lvgl/src/misc/lv_anim_timeline.c ****         if(end == LV_ANIM_PLAYTIME_INFINITE)
 862              		.loc 1 172 24 is_stmt 0 view .LVU255
 863 0034 01EBC400 		add	r0, r1, r4, lsl #3
 864 0038 FFF7FEFF 		bl	lv_anim_get_playtime
 865              	.LVL59:
 175:Drivers/lvgl/src/misc/lv_anim_timeline.c ****         if(end > playtime) {
 866              		.loc 1 175 9 is_stmt 1 view .LVU256
 173:Drivers/lvgl/src/misc/lv_anim_timeline.c ****             return end;
 867              		.loc 1 173 9 view .LVU257
 173:Drivers/lvgl/src/misc/lv_anim_timeline.c ****             return end;
 868              		.loc 1 173 11 is_stmt 0 view .LVU258
 869 003c 431C     		adds	r3, r0, #1
 870 003e 4FEAC404 		lsl	r4, r4, #3
 871              	.LBE110:
 171:Drivers/lvgl/src/misc/lv_anim_timeline.c ****         uint32_t end = lv_anim_get_playtime(&at->anim_dsc[i].anim);
 872              		.loc 1 171 48 view .LVU259
 873 0042 05F10105 		add	r5, r5, #1
 874              	.LVL60:
 875              	.LBB111:
 173:Drivers/lvgl/src/misc/lv_anim_timeline.c ****             return end;
 876              		.loc 1 173 11 view .LVU260
 877 0046 E9D1     		bne	.L90
 878              	.LBE111:
 171:Drivers/lvgl/src/misc/lv_anim_timeline.c ****         uint32_t end = lv_anim_get_playtime(&at->anim_dsc[i].anim);
 879              		.loc 1 171 31 view .LVU261
 880 0048 7268     		ldr	r2, [r6, #4]
 881              	.LBB112:
 172:Drivers/lvgl/src/misc/lv_anim_timeline.c ****         if(end == LV_ANIM_PLAYTIME_INFINITE)
 882              		.loc 1 172 24 view .LVU262
 883 004a 8046     		mov	r8, r0
 884              	.LVL61:
 885              	.L70:
 172:Drivers/lvgl/src/misc/lv_anim_timeline.c ****         if(end == LV_ANIM_PLAYTIME_INFINITE)
 886              		.loc 1 172 24 view .LVU263
 887              	.LBE112:
 888              	.LBE114:
ARM GAS  /var/folders/0z/tsy30v1j4xl4_7kw94k978ww0000gn/T//ccCn98Rz.s 			page 27


 889              	.LBE115:
 890              	.LBE116:
 891              	.LBE117:
 892              	.LBE118:
 139:Drivers/lvgl/src/misc/lv_anim_timeline.c **** 
 893              		.loc 1 139 5 is_stmt 1 view .LVU264
 139:Drivers/lvgl/src/misc/lv_anim_timeline.c **** 
 894              		.loc 1 139 20 is_stmt 0 view .LVU265
 895 004c 184B     		ldr	r3, .L92
 139:Drivers/lvgl/src/misc/lv_anim_timeline.c **** 
 896              		.loc 1 139 40 view .LVU266
 897 004e 08FB07F8 		mul	r8, r8, r7
 898              	.LVL62:
 139:Drivers/lvgl/src/misc/lv_anim_timeline.c **** 
 899              		.loc 1 139 20 view .LVU267
 900 0052 A3FB0838 		umull	r3, r8, r3, r8
 901 0056 4FEAD838 		lsr	r8, r8, #15
 902              	.LVL63:
 141:Drivers/lvgl/src/misc/lv_anim_timeline.c ****         lv_anim_t * a = &(at->anim_dsc[i].anim);
 903              		.loc 1 141 5 is_stmt 1 view .LVU268
 904              	.LBB119:
 141:Drivers/lvgl/src/misc/lv_anim_timeline.c ****         lv_anim_t * a = &(at->anim_dsc[i].anim);
 905              		.loc 1 141 9 view .LVU269
 141:Drivers/lvgl/src/misc/lv_anim_timeline.c ****         lv_anim_t * a = &(at->anim_dsc[i].anim);
 906              		.loc 1 141 27 view .LVU270
 907 005a 22B3     		cbz	r2, .L65
 908 005c 0025     		movs	r5, #0
 141:Drivers/lvgl/src/misc/lv_anim_timeline.c ****         lv_anim_t * a = &(at->anim_dsc[i].anim);
 909              		.loc 1 141 18 is_stmt 0 view .LVU271
 910 005e 2F46     		mov	r7, r5
 911 0060 08E0     		b	.L76
 912              	.LVL64:
 913              	.L91:
 914              	.LBB120:
 152:Drivers/lvgl/src/misc/lv_anim_timeline.c ****         }
 915              		.loc 1 152 19 view .LVU272
 916 0062 216A     		ldr	r1, [r4, #32]
 917              	.LVL65:
 918              	.L74:
 162:Drivers/lvgl/src/misc/lv_anim_timeline.c ****     }
 919              		.loc 1 162 9 is_stmt 1 view .LVU273
 920 0064 2068     		ldr	r0, [r4]
 921 0066 C847     		blx	r9
 922              	.LVL66:
 162:Drivers/lvgl/src/misc/lv_anim_timeline.c ****     }
 923              		.loc 1 162 9 is_stmt 0 view .LVU274
 924 0068 7268     		ldr	r2, [r6, #4]
 925              	.L72:
 162:Drivers/lvgl/src/misc/lv_anim_timeline.c ****     }
 926              		.loc 1 162 9 view .LVU275
 927              	.LBE120:
 141:Drivers/lvgl/src/misc/lv_anim_timeline.c ****         lv_anim_t * a = &(at->anim_dsc[i].anim);
 928              		.loc 1 141 48 is_stmt 1 discriminator 2 view .LVU276
 929 006a 0137     		adds	r7, r7, #1
 930              	.LVL67:
 141:Drivers/lvgl/src/misc/lv_anim_timeline.c ****         lv_anim_t * a = &(at->anim_dsc[i].anim);
 931              		.loc 1 141 27 discriminator 2 view .LVU277
ARM GAS  /var/folders/0z/tsy30v1j4xl4_7kw94k978ww0000gn/T//ccCn98Rz.s 			page 28


 932 006c BA42     		cmp	r2, r7
 933 006e 05F14805 		add	r5, r5, #72
 934 0072 18D9     		bls	.L65
 935              	.LVL68:
 936              	.L76:
 937              	.LBB121:
 142:Drivers/lvgl/src/misc/lv_anim_timeline.c **** 
 938              		.loc 1 142 9 view .LVU278
 148:Drivers/lvgl/src/misc/lv_anim_timeline.c ****         int32_t value = 0;
 939              		.loc 1 148 9 view .LVU279
 152:Drivers/lvgl/src/misc/lv_anim_timeline.c ****         }
 940              		.loc 1 152 13 view .LVU280
 154:Drivers/lvgl/src/misc/lv_anim_timeline.c ****             a->act_time = act_time - start_time;
 941              		.loc 1 154 14 view .LVU281
 142:Drivers/lvgl/src/misc/lv_anim_timeline.c **** 
 942              		.loc 1 142 39 is_stmt 0 view .LVU282
 943 0074 3468     		ldr	r4, [r6]
 944 0076 2C44     		add	r4, r4, r5
 945              	.LVL69:
 144:Drivers/lvgl/src/misc/lv_anim_timeline.c ****             continue;
 946              		.loc 1 144 9 is_stmt 1 view .LVU283
 144:Drivers/lvgl/src/misc/lv_anim_timeline.c ****             continue;
 947              		.loc 1 144 13 is_stmt 0 view .LVU284
 948 0078 D4F80490 		ldr	r9, [r4, #4]
 144:Drivers/lvgl/src/misc/lv_anim_timeline.c ****             continue;
 949              		.loc 1 144 11 view .LVU285
 950 007c B9F1000F 		cmp	r9, #0
 951 0080 F3D0     		beq	.L72
 148:Drivers/lvgl/src/misc/lv_anim_timeline.c ****         int32_t value = 0;
 952              		.loc 1 148 18 view .LVU286
 953 0082 636C     		ldr	r3, [r4, #68]
 954              	.LVL70:
 149:Drivers/lvgl/src/misc/lv_anim_timeline.c **** 
 955              		.loc 1 149 9 is_stmt 1 view .LVU287
 151:Drivers/lvgl/src/misc/lv_anim_timeline.c ****             value = a->start_value;
 956              		.loc 1 151 9 view .LVU288
 151:Drivers/lvgl/src/misc/lv_anim_timeline.c ****             value = a->start_value;
 957              		.loc 1 151 11 is_stmt 0 view .LVU289
 958 0084 9845     		cmp	r8, r3
 959 0086 ECD3     		bcc	.L91
 155:Drivers/lvgl/src/misc/lv_anim_timeline.c ****             value = a->path_cb(a);
 960              		.loc 1 155 13 is_stmt 1 view .LVU290
 159:Drivers/lvgl/src/misc/lv_anim_timeline.c ****         }
 961              		.loc 1 159 13 view .LVU291
 154:Drivers/lvgl/src/misc/lv_anim_timeline.c ****             a->act_time = act_time - start_time;
 962              		.loc 1 154 40 is_stmt 0 view .LVU292
 963 0088 E26A     		ldr	r2, [r4, #44]
 155:Drivers/lvgl/src/misc/lv_anim_timeline.c ****             value = a->path_cb(a);
 964              		.loc 1 155 36 view .LVU293
 965 008a A8EB0301 		sub	r1, r8, r3
 154:Drivers/lvgl/src/misc/lv_anim_timeline.c ****             a->act_time = act_time - start_time;
 966              		.loc 1 154 40 view .LVU294
 967 008e 1344     		add	r3, r3, r2
 968              	.LVL71:
 154:Drivers/lvgl/src/misc/lv_anim_timeline.c ****             a->act_time = act_time - start_time;
 969              		.loc 1 154 16 view .LVU295
 970 0090 4345     		cmp	r3, r8
ARM GAS  /var/folders/0z/tsy30v1j4xl4_7kw94k978ww0000gn/T//ccCn98Rz.s 			page 29


 971 0092 0AD9     		bls	.L75
 155:Drivers/lvgl/src/misc/lv_anim_timeline.c ****             value = a->path_cb(a);
 972              		.loc 1 155 25 view .LVU296
 973 0094 2163     		str	r1, [r4, #48]
 156:Drivers/lvgl/src/misc/lv_anim_timeline.c ****         }
 974              		.loc 1 156 13 is_stmt 1 view .LVU297
 156:Drivers/lvgl/src/misc/lv_anim_timeline.c ****         }
 975              		.loc 1 156 21 is_stmt 0 view .LVU298
 976 0096 E369     		ldr	r3, [r4, #28]
 977 0098 2046     		mov	r0, r4
 978 009a 9847     		blx	r3
 979              	.LVL72:
 162:Drivers/lvgl/src/misc/lv_anim_timeline.c ****     }
 980              		.loc 1 162 10 view .LVU299
 981 009c D4F80490 		ldr	r9, [r4, #4]
 156:Drivers/lvgl/src/misc/lv_anim_timeline.c ****         }
 982              		.loc 1 156 21 view .LVU300
 983 00a0 0146     		mov	r1, r0
 984              	.LVL73:
 156:Drivers/lvgl/src/misc/lv_anim_timeline.c ****         }
 985              		.loc 1 156 21 view .LVU301
 986 00a2 DFE7     		b	.L74
 987              	.LVL74:
 988              	.L66:
 989              		.cfi_def_cfa_offset 0
 990              		.cfi_restore 3
 991              		.cfi_restore 4
 992              		.cfi_restore 5
 993              		.cfi_restore 6
 994              		.cfi_restore 7
 995              		.cfi_restore 8
 996              		.cfi_restore 9
 997              		.cfi_restore 14
 156:Drivers/lvgl/src/misc/lv_anim_timeline.c ****         }
 998              		.loc 1 156 21 view .LVU302
 999              	.LBE121:
 1000              	.LBE119:
 136:Drivers/lvgl/src/misc/lv_anim_timeline.c **** 
 1001              		.loc 1 136 5 is_stmt 1 discriminator 1 view .LVU303
 136:Drivers/lvgl/src/misc/lv_anim_timeline.c **** 
 1002              		.loc 1 136 5 discriminator 1 view .LVU304
 136:Drivers/lvgl/src/misc/lv_anim_timeline.c **** 
 1003              		.loc 1 136 5 discriminator 1 view .LVU305
 136:Drivers/lvgl/src/misc/lv_anim_timeline.c **** 
 1004              		.loc 1 136 5 discriminator 1 view .LVU306
 136:Drivers/lvgl/src/misc/lv_anim_timeline.c **** 
 1005              		.loc 1 136 5 discriminator 1 view .LVU307
 136:Drivers/lvgl/src/misc/lv_anim_timeline.c **** 
 1006              		.loc 1 136 5 discriminator 1 view .LVU308
 136:Drivers/lvgl/src/misc/lv_anim_timeline.c **** 
 1007              		.loc 1 136 5 discriminator 1 view .LVU309
 136:Drivers/lvgl/src/misc/lv_anim_timeline.c **** 
 1008              		.loc 1 136 5 discriminator 1 view .LVU310
 136:Drivers/lvgl/src/misc/lv_anim_timeline.c **** 
 1009              		.loc 1 136 5 discriminator 1 view .LVU311
 136:Drivers/lvgl/src/misc/lv_anim_timeline.c **** 
 1010              		.loc 1 136 5 discriminator 1 view .LVU312
ARM GAS  /var/folders/0z/tsy30v1j4xl4_7kw94k978ww0000gn/T//ccCn98Rz.s 			page 30


 1011 00a4 FEE7     		b	.L66
 1012              	.LVL75:
 1013              	.L65:
 1014              		.cfi_def_cfa_offset 32
 1015              		.cfi_offset 3, -32
 1016              		.cfi_offset 4, -28
 1017              		.cfi_offset 5, -24
 1018              		.cfi_offset 6, -20
 1019              		.cfi_offset 7, -16
 1020              		.cfi_offset 8, -12
 1021              		.cfi_offset 9, -8
 1022              		.cfi_offset 14, -4
 164:Drivers/lvgl/src/misc/lv_anim_timeline.c **** 
 1023              		.loc 1 164 1 is_stmt 0 view .LVU313
 1024 00a6 BDE8F883 		pop	{r3, r4, r5, r6, r7, r8, r9, pc}
 1025              	.LVL76:
 1026              	.L75:
 1027              	.LBB123:
 1028              	.LBB122:
 159:Drivers/lvgl/src/misc/lv_anim_timeline.c ****         }
 1029              		.loc 1 159 19 view .LVU314
 1030 00aa A16A     		ldr	r1, [r4, #40]
 1031              	.LVL77:
 159:Drivers/lvgl/src/misc/lv_anim_timeline.c ****         }
 1032              		.loc 1 159 19 view .LVU315
 1033 00ac DAE7     		b	.L74
 1034              	.L93:
 1035 00ae 00BF     		.align	2
 1036              	.L92:
 1037 00b0 01800080 		.word	-2147450879
 1038              	.LBE122:
 1039              	.LBE123:
 1040              		.cfi_endproc
 1041              	.LFE28:
 1043              		.section	.text.lv_anim_timeline_get_playtime,"ax",%progbits
 1044              		.align	1
 1045              		.p2align 2,,3
 1046              		.global	lv_anim_timeline_get_playtime
 1047              		.syntax unified
 1048              		.thumb
 1049              		.thumb_func
 1051              	lv_anim_timeline_get_playtime:
 1052              	.LVL78:
 1053              	.LFB29:
 167:Drivers/lvgl/src/misc/lv_anim_timeline.c ****     LV_ASSERT_NULL(at);
 1054              		.loc 1 167 1 is_stmt 1 view -0
 1055              		.cfi_startproc
 1056              		@ args = 0, pretend = 0, frame = 0
 1057              		@ frame_needed = 0, uses_anonymous_args = 0
 168:Drivers/lvgl/src/misc/lv_anim_timeline.c **** 
 1058              		.loc 1 168 5 view .LVU317
 168:Drivers/lvgl/src/misc/lv_anim_timeline.c **** 
 1059              		.loc 1 168 5 view .LVU318
 1060 0000 E8B1     		cbz	r0, .L95
 1061              	.LVL79:
 1062              	.LBB129:
 1063              	.LBB130:
ARM GAS  /var/folders/0z/tsy30v1j4xl4_7kw94k978ww0000gn/T//ccCn98Rz.s 			page 31


 1064              	.LBB131:
 171:Drivers/lvgl/src/misc/lv_anim_timeline.c ****         uint32_t end = lv_anim_get_playtime(&at->anim_dsc[i].anim);
 1065              		.loc 1 171 27 view .LVU319
 1066              	.LBE131:
 1067              	.LBE130:
 1068              	.LBE129:
 167:Drivers/lvgl/src/misc/lv_anim_timeline.c ****     LV_ASSERT_NULL(at);
 1069              		.loc 1 167 1 is_stmt 0 view .LVU320
 1070 0002 F8B5     		push	{r3, r4, r5, r6, r7, lr}
 1071              		.cfi_def_cfa_offset 24
 1072              		.cfi_offset 3, -24
 1073              		.cfi_offset 4, -20
 1074              		.cfi_offset 5, -16
 1075              		.cfi_offset 6, -12
 1076              		.cfi_offset 7, -8
 1077              		.cfi_offset 14, -4
 1078 0004 0646     		mov	r6, r0
 1079              	.LBB141:
 1080              	.LBB139:
 1081              	.LBB136:
 171:Drivers/lvgl/src/misc/lv_anim_timeline.c ****         uint32_t end = lv_anim_get_playtime(&at->anim_dsc[i].anim);
 1082              		.loc 1 171 31 view .LVU321
 1083 0006 4068     		ldr	r0, [r0, #4]
 1084              	.LVL80:
 171:Drivers/lvgl/src/misc/lv_anim_timeline.c ****         uint32_t end = lv_anim_get_playtime(&at->anim_dsc[i].anim);
 1085              		.loc 1 171 27 view .LVU322
 1086 0008 C0B1     		cbz	r0, .L94
 1087              	.LBE136:
 170:Drivers/lvgl/src/misc/lv_anim_timeline.c ****     for(uint32_t i = 0; i < at->anim_dsc_cnt; i++) {
 1088              		.loc 1 170 14 view .LVU323
 1089 000a 0027     		movs	r7, #0
 1090              	.LBB137:
 1091              	.LBB132:
 172:Drivers/lvgl/src/misc/lv_anim_timeline.c ****         if(end == LV_ANIM_PLAYTIME_INFINITE)
 1092              		.loc 1 172 48 view .LVU324
 1093 000c 3268     		ldr	r2, [r6]
 1094              	.LBE132:
 171:Drivers/lvgl/src/misc/lv_anim_timeline.c ****         uint32_t end = lv_anim_get_playtime(&at->anim_dsc[i].anim);
 1095              		.loc 1 171 18 view .LVU325
 1096 000e 3D46     		mov	r5, r7
 1097 0010 09E0     		b	.L98
 1098              	.LVL81:
 1099              	.L109:
 171:Drivers/lvgl/src/misc/lv_anim_timeline.c ****         uint32_t end = lv_anim_get_playtime(&at->anim_dsc[i].anim);
 1100              		.loc 1 171 27 view .LVU326
 1101 0012 D6E90021 		ldrd	r2, r1, [r6]
 1102              	.LBB133:
 175:Drivers/lvgl/src/misc/lv_anim_timeline.c ****         if(end > playtime) {
 1103              		.loc 1 175 31 view .LVU327
 1104 0016 1319     		adds	r3, r2, r4
 175:Drivers/lvgl/src/misc/lv_anim_timeline.c ****         if(end > playtime) {
 1105              		.loc 1 175 13 view .LVU328
 1106 0018 5B6C     		ldr	r3, [r3, #68]
 1107 001a 0344     		add	r3, r3, r0
 1108 001c 9F42     		cmp	r7, r3
 1109 001e 38BF     		it	cc
 1110 0020 1F46     		movcc	r7, r3
ARM GAS  /var/folders/0z/tsy30v1j4xl4_7kw94k978ww0000gn/T//ccCn98Rz.s 			page 32


 1111              	.LVL82:
 175:Drivers/lvgl/src/misc/lv_anim_timeline.c ****         if(end > playtime) {
 1112              		.loc 1 175 13 view .LVU329
 1113              	.LBE133:
 171:Drivers/lvgl/src/misc/lv_anim_timeline.c ****         uint32_t end = lv_anim_get_playtime(&at->anim_dsc[i].anim);
 1114              		.loc 1 171 48 is_stmt 1 view .LVU330
 171:Drivers/lvgl/src/misc/lv_anim_timeline.c ****         uint32_t end = lv_anim_get_playtime(&at->anim_dsc[i].anim);
 1115              		.loc 1 171 27 view .LVU331
 1116 0022 8D42     		cmp	r5, r1
 1117 0024 0CD2     		bcs	.L108
 1118              	.LVL83:
 1119              	.L98:
 1120              	.LBB134:
 172:Drivers/lvgl/src/misc/lv_anim_timeline.c ****         if(end == LV_ANIM_PLAYTIME_INFINITE)
 1121              		.loc 1 172 9 view .LVU332
 1122 0026 05EBC503 		add	r3, r5, r5, lsl #3
 172:Drivers/lvgl/src/misc/lv_anim_timeline.c ****         if(end == LV_ANIM_PLAYTIME_INFINITE)
 1123              		.loc 1 172 24 is_stmt 0 view .LVU333
 1124 002a 02EBC300 		add	r0, r2, r3, lsl #3
 1125 002e DC00     		lsls	r4, r3, #3
 1126 0030 FFF7FEFF 		bl	lv_anim_get_playtime
 1127              	.LVL84:
 175:Drivers/lvgl/src/misc/lv_anim_timeline.c ****         if(end > playtime) {
 1128              		.loc 1 175 9 is_stmt 1 view .LVU334
 173:Drivers/lvgl/src/misc/lv_anim_timeline.c ****             return end;
 1129              		.loc 1 173 9 view .LVU335
 173:Drivers/lvgl/src/misc/lv_anim_timeline.c ****             return end;
 1130              		.loc 1 173 11 is_stmt 0 view .LVU336
 1131 0034 431C     		adds	r3, r0, #1
 1132              	.LBE134:
 171:Drivers/lvgl/src/misc/lv_anim_timeline.c ****         uint32_t end = lv_anim_get_playtime(&at->anim_dsc[i].anim);
 1133              		.loc 1 171 48 view .LVU337
 1134 0036 05F10105 		add	r5, r5, #1
 1135              	.LVL85:
 1136              	.LBB135:
 173:Drivers/lvgl/src/misc/lv_anim_timeline.c ****             return end;
 1137              		.loc 1 173 11 view .LVU338
 1138 003a EAD1     		bne	.L109
 1139              	.LVL86:
 1140              	.L94:
 173:Drivers/lvgl/src/misc/lv_anim_timeline.c ****             return end;
 1141              		.loc 1 173 11 view .LVU339
 1142              	.LBE135:
 1143              	.LBE137:
 1144              	.LBE139:
 1145              	.LBE141:
 182:Drivers/lvgl/src/misc/lv_anim_timeline.c **** 
 1146              		.loc 1 182 1 view .LVU340
 1147 003c F8BD     		pop	{r3, r4, r5, r6, r7, pc}
 1148              	.LVL87:
 1149              	.L95:
 1150              		.cfi_def_cfa_offset 0
 1151              		.cfi_restore 3
 1152              		.cfi_restore 4
 1153              		.cfi_restore 5
 1154              		.cfi_restore 6
 1155              		.cfi_restore 7
ARM GAS  /var/folders/0z/tsy30v1j4xl4_7kw94k978ww0000gn/T//ccCn98Rz.s 			page 33


 1156              		.cfi_restore 14
 168:Drivers/lvgl/src/misc/lv_anim_timeline.c **** 
 1157              		.loc 1 168 5 is_stmt 1 discriminator 1 view .LVU341
 168:Drivers/lvgl/src/misc/lv_anim_timeline.c **** 
 1158              		.loc 1 168 5 discriminator 1 view .LVU342
 168:Drivers/lvgl/src/misc/lv_anim_timeline.c **** 
 1159              		.loc 1 168 5 discriminator 1 view .LVU343
 168:Drivers/lvgl/src/misc/lv_anim_timeline.c **** 
 1160              		.loc 1 168 5 discriminator 1 view .LVU344
 168:Drivers/lvgl/src/misc/lv_anim_timeline.c **** 
 1161              		.loc 1 168 5 discriminator 1 view .LVU345
 168:Drivers/lvgl/src/misc/lv_anim_timeline.c **** 
 1162              		.loc 1 168 5 discriminator 1 view .LVU346
 168:Drivers/lvgl/src/misc/lv_anim_timeline.c **** 
 1163              		.loc 1 168 5 discriminator 1 view .LVU347
 168:Drivers/lvgl/src/misc/lv_anim_timeline.c **** 
 1164              		.loc 1 168 5 discriminator 1 view .LVU348
 168:Drivers/lvgl/src/misc/lv_anim_timeline.c **** 
 1165              		.loc 1 168 5 discriminator 1 view .LVU349
 168:Drivers/lvgl/src/misc/lv_anim_timeline.c **** 
 1166              		.loc 1 168 5 discriminator 1 view .LVU350
 1167 003e FEE7     		b	.L95
 1168              	.LVL88:
 1169              	.L108:
 1170              		.cfi_def_cfa_offset 24
 1171              		.cfi_offset 3, -24
 1172              		.cfi_offset 4, -20
 1173              		.cfi_offset 5, -16
 1174              		.cfi_offset 6, -12
 1175              		.cfi_offset 7, -8
 1176              		.cfi_offset 14, -4
 1177              	.LBB142:
 1178              	.LBB140:
 1179              	.LBB138:
 168:Drivers/lvgl/src/misc/lv_anim_timeline.c **** 
 1180              		.loc 1 168 5 is_stmt 0 discriminator 1 view .LVU351
 1181 0040 3846     		mov	r0, r7
 1182              	.LVL89:
 168:Drivers/lvgl/src/misc/lv_anim_timeline.c **** 
 1183              		.loc 1 168 5 discriminator 1 view .LVU352
 1184              	.LBE138:
 1185              	.LBE140:
 1186              	.LBE142:
 182:Drivers/lvgl/src/misc/lv_anim_timeline.c **** 
 1187              		.loc 1 182 1 view .LVU353
 1188 0042 F8BD     		pop	{r3, r4, r5, r6, r7, pc}
 182:Drivers/lvgl/src/misc/lv_anim_timeline.c **** 
 1189              		.loc 1 182 1 view .LVU354
 1190              		.cfi_endproc
 1191              	.LFE29:
 1193              		.section	.text.lv_anim_timeline_get_reverse,"ax",%progbits
 1194              		.align	1
 1195              		.p2align 2,,3
 1196              		.global	lv_anim_timeline_get_reverse
 1197              		.syntax unified
 1198              		.thumb
 1199              		.thumb_func
ARM GAS  /var/folders/0z/tsy30v1j4xl4_7kw94k978ww0000gn/T//ccCn98Rz.s 			page 34


 1201              	lv_anim_timeline_get_reverse:
 1202              	.LVL90:
 1203              	.LFB30:
 185:Drivers/lvgl/src/misc/lv_anim_timeline.c ****     LV_ASSERT_NULL(at);
 1204              		.loc 1 185 1 is_stmt 1 view -0
 1205              		.cfi_startproc
 1206              		@ args = 0, pretend = 0, frame = 0
 1207              		@ frame_needed = 0, uses_anonymous_args = 0
 1208              		@ link register save eliminated.
 186:Drivers/lvgl/src/misc/lv_anim_timeline.c ****     return at->reverse;
 1209              		.loc 1 186 5 view .LVU356
 186:Drivers/lvgl/src/misc/lv_anim_timeline.c ****     return at->reverse;
 1210              		.loc 1 186 5 view .LVU357
 1211 0000 08B1     		cbz	r0, .L112
 186:Drivers/lvgl/src/misc/lv_anim_timeline.c ****     return at->reverse;
 1212              		.loc 1 186 5 discriminator 2 view .LVU358
 186:Drivers/lvgl/src/misc/lv_anim_timeline.c ****     return at->reverse;
 1213              		.loc 1 186 23 discriminator 2 view .LVU359
 187:Drivers/lvgl/src/misc/lv_anim_timeline.c **** }
 1214              		.loc 1 187 5 discriminator 2 view .LVU360
 188:Drivers/lvgl/src/misc/lv_anim_timeline.c **** 
 1215              		.loc 1 188 1 is_stmt 0 discriminator 2 view .LVU361
 1216 0002 007A     		ldrb	r0, [r0, #8]	@ zero_extendqisi2
 1217              	.LVL91:
 188:Drivers/lvgl/src/misc/lv_anim_timeline.c **** 
 1218              		.loc 1 188 1 discriminator 2 view .LVU362
 1219 0004 7047     		bx	lr
 1220              	.LVL92:
 1221              	.L112:
 186:Drivers/lvgl/src/misc/lv_anim_timeline.c ****     return at->reverse;
 1222              		.loc 1 186 5 is_stmt 1 discriminator 1 view .LVU363
 186:Drivers/lvgl/src/misc/lv_anim_timeline.c ****     return at->reverse;
 1223              		.loc 1 186 5 discriminator 1 view .LVU364
 186:Drivers/lvgl/src/misc/lv_anim_timeline.c ****     return at->reverse;
 1224              		.loc 1 186 5 discriminator 1 view .LVU365
 186:Drivers/lvgl/src/misc/lv_anim_timeline.c ****     return at->reverse;
 1225              		.loc 1 186 5 discriminator 1 view .LVU366
 186:Drivers/lvgl/src/misc/lv_anim_timeline.c ****     return at->reverse;
 1226              		.loc 1 186 5 discriminator 1 view .LVU367
 186:Drivers/lvgl/src/misc/lv_anim_timeline.c ****     return at->reverse;
 1227              		.loc 1 186 5 discriminator 1 view .LVU368
 186:Drivers/lvgl/src/misc/lv_anim_timeline.c ****     return at->reverse;
 1228              		.loc 1 186 5 discriminator 1 view .LVU369
 186:Drivers/lvgl/src/misc/lv_anim_timeline.c ****     return at->reverse;
 1229              		.loc 1 186 5 discriminator 1 view .LVU370
 186:Drivers/lvgl/src/misc/lv_anim_timeline.c ****     return at->reverse;
 1230              		.loc 1 186 5 discriminator 1 view .LVU371
 186:Drivers/lvgl/src/misc/lv_anim_timeline.c ****     return at->reverse;
 1231              		.loc 1 186 5 discriminator 1 view .LVU372
 1232 0006 FEE7     		b	.L112
 1233              		.cfi_endproc
 1234              	.LFE30:
 1236              		.text
 1237              	.Letext0:
 1238              		.file 3 "/Users/johannes/Library/Application Support/Code/User/globalStorage/bmd.stm32-for-vscode/
 1239              		.file 4 "/Users/johannes/Library/Application Support/Code/User/globalStorage/bmd.stm32-for-vscode/
 1240              		.file 5 "/Users/johannes/Library/Application Support/Code/User/globalStorage/bmd.stm32-for-vscode/
ARM GAS  /var/folders/0z/tsy30v1j4xl4_7kw94k978ww0000gn/T//ccCn98Rz.s 			page 35


 1241              		.file 6 "Drivers/lvgl/src/misc/lv_anim_timeline.h"
 1242              		.file 7 "Drivers/lvgl/src/misc/lv_mem.h"
 1243              		.file 8 "<built-in>"
ARM GAS  /var/folders/0z/tsy30v1j4xl4_7kw94k978ww0000gn/T//ccCn98Rz.s 			page 36


DEFINED SYMBOLS
                            *ABS*:0000000000000000 lv_anim_timeline.c
/var/folders/0z/tsy30v1j4xl4_7kw94k978ww0000gn/T//ccCn98Rz.s:20     .text.lv_anim_timeline_virtual_exec_cb:0000000000000000 $t
/var/folders/0z/tsy30v1j4xl4_7kw94k978ww0000gn/T//ccCn98Rz.s:26     .text.lv_anim_timeline_virtual_exec_cb:0000000000000000 lv_anim_timeline_virtual_exec_cb
/var/folders/0z/tsy30v1j4xl4_7kw94k978ww0000gn/T//ccCn98Rz.s:43     .text.lv_anim_timeline_create:0000000000000000 $t
/var/folders/0z/tsy30v1j4xl4_7kw94k978ww0000gn/T//ccCn98Rz.s:50     .text.lv_anim_timeline_create:0000000000000000 lv_anim_timeline_create
/var/folders/0z/tsy30v1j4xl4_7kw94k978ww0000gn/T//ccCn98Rz.s:98     .text.lv_anim_timeline_del:0000000000000000 $t
/var/folders/0z/tsy30v1j4xl4_7kw94k978ww0000gn/T//ccCn98Rz.s:105    .text.lv_anim_timeline_del:0000000000000000 lv_anim_timeline_del
/var/folders/0z/tsy30v1j4xl4_7kw94k978ww0000gn/T//ccCn98Rz.s:204    .text.lv_anim_timeline_add:0000000000000000 $t
/var/folders/0z/tsy30v1j4xl4_7kw94k978ww0000gn/T//ccCn98Rz.s:211    .text.lv_anim_timeline_add:0000000000000000 lv_anim_timeline_add
/var/folders/0z/tsy30v1j4xl4_7kw94k978ww0000gn/T//ccCn98Rz.s:344    .text.lv_anim_timeline_add:0000000000000058 $d
/var/folders/0z/tsy30v1j4xl4_7kw94k978ww0000gn/T//ccCn98Rz.s:349    .text.lv_anim_timeline_start:0000000000000000 $t
/var/folders/0z/tsy30v1j4xl4_7kw94k978ww0000gn/T//ccCn98Rz.s:356    .text.lv_anim_timeline_start:0000000000000000 lv_anim_timeline_start
/var/folders/0z/tsy30v1j4xl4_7kw94k978ww0000gn/T//ccCn98Rz.s:637    .text.lv_anim_timeline_stop:0000000000000000 $t
/var/folders/0z/tsy30v1j4xl4_7kw94k978ww0000gn/T//ccCn98Rz.s:644    .text.lv_anim_timeline_stop:0000000000000000 lv_anim_timeline_stop
/var/folders/0z/tsy30v1j4xl4_7kw94k978ww0000gn/T//ccCn98Rz.s:730    .text.lv_anim_timeline_set_reverse:0000000000000000 $t
/var/folders/0z/tsy30v1j4xl4_7kw94k978ww0000gn/T//ccCn98Rz.s:737    .text.lv_anim_timeline_set_reverse:0000000000000000 lv_anim_timeline_set_reverse
/var/folders/0z/tsy30v1j4xl4_7kw94k978ww0000gn/T//ccCn98Rz.s:771    .text.lv_anim_timeline_set_progress:0000000000000000 $t
/var/folders/0z/tsy30v1j4xl4_7kw94k978ww0000gn/T//ccCn98Rz.s:778    .text.lv_anim_timeline_set_progress:0000000000000000 lv_anim_timeline_set_progress
/var/folders/0z/tsy30v1j4xl4_7kw94k978ww0000gn/T//ccCn98Rz.s:1037   .text.lv_anim_timeline_set_progress:00000000000000b0 $d
/var/folders/0z/tsy30v1j4xl4_7kw94k978ww0000gn/T//ccCn98Rz.s:1044   .text.lv_anim_timeline_get_playtime:0000000000000000 $t
/var/folders/0z/tsy30v1j4xl4_7kw94k978ww0000gn/T//ccCn98Rz.s:1051   .text.lv_anim_timeline_get_playtime:0000000000000000 lv_anim_timeline_get_playtime
/var/folders/0z/tsy30v1j4xl4_7kw94k978ww0000gn/T//ccCn98Rz.s:1194   .text.lv_anim_timeline_get_reverse:0000000000000000 $t
/var/folders/0z/tsy30v1j4xl4_7kw94k978ww0000gn/T//ccCn98Rz.s:1201   .text.lv_anim_timeline_get_reverse:0000000000000000 lv_anim_timeline_get_reverse

UNDEFINED SYMBOLS
lv_mem_alloc
lv_memset_00
lv_anim_del
lv_mem_free
lv_mem_realloc
memcpy
lv_anim_get_playtime
lv_anim_start
