ARM GAS  /var/folders/lp/x54gwt890xv47sdkqj1k04q40000gn/T//cctIFidt.s 			page 1


   1              		.cpu cortex-m4
   2              		.arch armv7e-m
   3              		.fpu fpv4-sp-d16
   4              		.eabi_attribute 27, 1
   5              		.eabi_attribute 28, 1
   6              		.eabi_attribute 20, 1
   7              		.eabi_attribute 21, 1
   8              		.eabi_attribute 23, 3
   9              		.eabi_attribute 24, 1
  10              		.eabi_attribute 25, 1
  11              		.eabi_attribute 26, 1
  12              		.eabi_attribute 30, 2
  13              		.eabi_attribute 34, 1
  14              		.eabi_attribute 18, 4
  15              		.file	"lv_animimg.c"
  16              		.text
  17              	.Ltext0:
  18              		.cfi_sections	.debug_frame
  19              		.file 1 "Drivers/lvgl/src/extra/widgets/animimg/lv_animimg.c"
  20              		.section	.text.lv_animimg_constructor,"ax",%progbits
  21              		.align	1
  22              		.p2align 2,,3
  23              		.syntax unified
  24              		.thumb
  25              		.thumb_func
  27              	lv_animimg_constructor:
  28              	.LVL0:
  29              	.LFB209:
   1:Drivers/lvgl/src/extra/widgets/animimg/lv_animimg.c **** /**
   2:Drivers/lvgl/src/extra/widgets/animimg/lv_animimg.c ****  * @file lv_animimg.c
   3:Drivers/lvgl/src/extra/widgets/animimg/lv_animimg.c ****  *
   4:Drivers/lvgl/src/extra/widgets/animimg/lv_animimg.c ****  */
   5:Drivers/lvgl/src/extra/widgets/animimg/lv_animimg.c **** 
   6:Drivers/lvgl/src/extra/widgets/animimg/lv_animimg.c **** /*********************
   7:Drivers/lvgl/src/extra/widgets/animimg/lv_animimg.c ****  *      INCLUDES
   8:Drivers/lvgl/src/extra/widgets/animimg/lv_animimg.c ****  *********************/
   9:Drivers/lvgl/src/extra/widgets/animimg/lv_animimg.c **** #include "lv_animimg.h"
  10:Drivers/lvgl/src/extra/widgets/animimg/lv_animimg.c **** #if LV_USE_ANIMIMG != 0
  11:Drivers/lvgl/src/extra/widgets/animimg/lv_animimg.c **** 
  12:Drivers/lvgl/src/extra/widgets/animimg/lv_animimg.c **** /*Testing of dependencies*/
  13:Drivers/lvgl/src/extra/widgets/animimg/lv_animimg.c **** #if LV_USE_IMG == 0
  14:Drivers/lvgl/src/extra/widgets/animimg/lv_animimg.c ****     #error "lv_animimg: lv_img is required. Enable it in lv_conf.h (LV_USE_IMG  1) "
  15:Drivers/lvgl/src/extra/widgets/animimg/lv_animimg.c **** #endif
  16:Drivers/lvgl/src/extra/widgets/animimg/lv_animimg.c **** 
  17:Drivers/lvgl/src/extra/widgets/animimg/lv_animimg.c **** #include "../../../misc/lv_assert.h"
  18:Drivers/lvgl/src/extra/widgets/animimg/lv_animimg.c **** #include "../../../draw/lv_img_decoder.h"
  19:Drivers/lvgl/src/extra/widgets/animimg/lv_animimg.c **** #include "../../../misc/lv_fs.h"
  20:Drivers/lvgl/src/extra/widgets/animimg/lv_animimg.c **** #include "../../../misc/lv_txt.h"
  21:Drivers/lvgl/src/extra/widgets/animimg/lv_animimg.c **** #include "../../../misc/lv_math.h"
  22:Drivers/lvgl/src/extra/widgets/animimg/lv_animimg.c **** #include "../../../misc/lv_log.h"
  23:Drivers/lvgl/src/extra/widgets/animimg/lv_animimg.c **** #include "../../../misc/lv_anim.h"
  24:Drivers/lvgl/src/extra/widgets/animimg/lv_animimg.c **** 
  25:Drivers/lvgl/src/extra/widgets/animimg/lv_animimg.c **** /*********************
  26:Drivers/lvgl/src/extra/widgets/animimg/lv_animimg.c ****  *      DEFINES
  27:Drivers/lvgl/src/extra/widgets/animimg/lv_animimg.c ****  *********************/
  28:Drivers/lvgl/src/extra/widgets/animimg/lv_animimg.c **** #define LV_OBJX_NAME "lv_animimg"
  29:Drivers/lvgl/src/extra/widgets/animimg/lv_animimg.c **** 
ARM GAS  /var/folders/lp/x54gwt890xv47sdkqj1k04q40000gn/T//cctIFidt.s 			page 2


  30:Drivers/lvgl/src/extra/widgets/animimg/lv_animimg.c **** #define MY_CLASS &lv_animimg_class
  31:Drivers/lvgl/src/extra/widgets/animimg/lv_animimg.c **** 
  32:Drivers/lvgl/src/extra/widgets/animimg/lv_animimg.c **** /**********************
  33:Drivers/lvgl/src/extra/widgets/animimg/lv_animimg.c ****  *      TYPEDEFS
  34:Drivers/lvgl/src/extra/widgets/animimg/lv_animimg.c ****  **********************/
  35:Drivers/lvgl/src/extra/widgets/animimg/lv_animimg.c **** 
  36:Drivers/lvgl/src/extra/widgets/animimg/lv_animimg.c **** /**********************
  37:Drivers/lvgl/src/extra/widgets/animimg/lv_animimg.c ****  *  STATIC PROTOTYPES
  38:Drivers/lvgl/src/extra/widgets/animimg/lv_animimg.c ****  **********************/
  39:Drivers/lvgl/src/extra/widgets/animimg/lv_animimg.c **** static void index_change(lv_obj_t * obj, int32_t index);
  40:Drivers/lvgl/src/extra/widgets/animimg/lv_animimg.c **** static void lv_animimg_constructor(const lv_obj_class_t * class_p, lv_obj_t * obj);
  41:Drivers/lvgl/src/extra/widgets/animimg/lv_animimg.c **** 
  42:Drivers/lvgl/src/extra/widgets/animimg/lv_animimg.c **** /**********************
  43:Drivers/lvgl/src/extra/widgets/animimg/lv_animimg.c ****  *  STATIC VARIABLES
  44:Drivers/lvgl/src/extra/widgets/animimg/lv_animimg.c ****  **********************/
  45:Drivers/lvgl/src/extra/widgets/animimg/lv_animimg.c **** const lv_obj_class_t lv_animimg_class = {
  46:Drivers/lvgl/src/extra/widgets/animimg/lv_animimg.c ****     .constructor_cb = lv_animimg_constructor,
  47:Drivers/lvgl/src/extra/widgets/animimg/lv_animimg.c ****     .instance_size = sizeof(lv_animimg_t),
  48:Drivers/lvgl/src/extra/widgets/animimg/lv_animimg.c ****     .base_class = &lv_img_class
  49:Drivers/lvgl/src/extra/widgets/animimg/lv_animimg.c **** };
  50:Drivers/lvgl/src/extra/widgets/animimg/lv_animimg.c **** 
  51:Drivers/lvgl/src/extra/widgets/animimg/lv_animimg.c **** /**********************
  52:Drivers/lvgl/src/extra/widgets/animimg/lv_animimg.c ****  *      MACROS
  53:Drivers/lvgl/src/extra/widgets/animimg/lv_animimg.c ****  **********************/
  54:Drivers/lvgl/src/extra/widgets/animimg/lv_animimg.c **** 
  55:Drivers/lvgl/src/extra/widgets/animimg/lv_animimg.c **** /**********************
  56:Drivers/lvgl/src/extra/widgets/animimg/lv_animimg.c ****  *   GLOBAL FUNCTIONS
  57:Drivers/lvgl/src/extra/widgets/animimg/lv_animimg.c ****  **********************/
  58:Drivers/lvgl/src/extra/widgets/animimg/lv_animimg.c **** 
  59:Drivers/lvgl/src/extra/widgets/animimg/lv_animimg.c **** lv_obj_t * lv_animimg_create(lv_obj_t * parent)
  60:Drivers/lvgl/src/extra/widgets/animimg/lv_animimg.c **** {
  61:Drivers/lvgl/src/extra/widgets/animimg/lv_animimg.c ****     LV_LOG_INFO("begin");
  62:Drivers/lvgl/src/extra/widgets/animimg/lv_animimg.c ****     lv_obj_t * obj = lv_obj_class_create_obj(&lv_animimg_class, parent);
  63:Drivers/lvgl/src/extra/widgets/animimg/lv_animimg.c ****     lv_obj_class_init_obj(obj);
  64:Drivers/lvgl/src/extra/widgets/animimg/lv_animimg.c ****     return obj;
  65:Drivers/lvgl/src/extra/widgets/animimg/lv_animimg.c **** }
  66:Drivers/lvgl/src/extra/widgets/animimg/lv_animimg.c **** 
  67:Drivers/lvgl/src/extra/widgets/animimg/lv_animimg.c **** void lv_animimg_set_src(lv_obj_t * obj, const void * dsc[], uint8_t num)
  68:Drivers/lvgl/src/extra/widgets/animimg/lv_animimg.c **** {
  69:Drivers/lvgl/src/extra/widgets/animimg/lv_animimg.c ****     LV_ASSERT_OBJ(obj, MY_CLASS);
  70:Drivers/lvgl/src/extra/widgets/animimg/lv_animimg.c ****     lv_animimg_t * animimg = (lv_animimg_t *)obj;
  71:Drivers/lvgl/src/extra/widgets/animimg/lv_animimg.c ****     animimg->dsc = dsc;
  72:Drivers/lvgl/src/extra/widgets/animimg/lv_animimg.c ****     animimg->pic_count = num;
  73:Drivers/lvgl/src/extra/widgets/animimg/lv_animimg.c ****     lv_anim_set_values(&animimg->anim, 0, num);
  74:Drivers/lvgl/src/extra/widgets/animimg/lv_animimg.c **** }
  75:Drivers/lvgl/src/extra/widgets/animimg/lv_animimg.c **** 
  76:Drivers/lvgl/src/extra/widgets/animimg/lv_animimg.c **** void lv_animimg_start(lv_obj_t * obj)
  77:Drivers/lvgl/src/extra/widgets/animimg/lv_animimg.c **** {
  78:Drivers/lvgl/src/extra/widgets/animimg/lv_animimg.c ****     LV_ASSERT_OBJ(obj, MY_CLASS);
  79:Drivers/lvgl/src/extra/widgets/animimg/lv_animimg.c ****     lv_animimg_t * animimg = (lv_animimg_t *)obj;
  80:Drivers/lvgl/src/extra/widgets/animimg/lv_animimg.c ****     lv_anim_start(&animimg->anim);
  81:Drivers/lvgl/src/extra/widgets/animimg/lv_animimg.c **** }
  82:Drivers/lvgl/src/extra/widgets/animimg/lv_animimg.c **** 
  83:Drivers/lvgl/src/extra/widgets/animimg/lv_animimg.c **** /*=====================
  84:Drivers/lvgl/src/extra/widgets/animimg/lv_animimg.c ****  * Setter functions
  85:Drivers/lvgl/src/extra/widgets/animimg/lv_animimg.c ****  *====================*/
  86:Drivers/lvgl/src/extra/widgets/animimg/lv_animimg.c **** 
ARM GAS  /var/folders/lp/x54gwt890xv47sdkqj1k04q40000gn/T//cctIFidt.s 			page 3


  87:Drivers/lvgl/src/extra/widgets/animimg/lv_animimg.c **** void lv_animimg_set_duration(lv_obj_t * obj, uint32_t duration)
  88:Drivers/lvgl/src/extra/widgets/animimg/lv_animimg.c **** {
  89:Drivers/lvgl/src/extra/widgets/animimg/lv_animimg.c ****     LV_ASSERT_OBJ(obj, MY_CLASS);
  90:Drivers/lvgl/src/extra/widgets/animimg/lv_animimg.c ****     lv_animimg_t * animimg = (lv_animimg_t *)obj;
  91:Drivers/lvgl/src/extra/widgets/animimg/lv_animimg.c ****     lv_anim_set_time(&animimg->anim, duration);
  92:Drivers/lvgl/src/extra/widgets/animimg/lv_animimg.c ****     lv_anim_set_playback_delay(&animimg->anim, duration);
  93:Drivers/lvgl/src/extra/widgets/animimg/lv_animimg.c **** }
  94:Drivers/lvgl/src/extra/widgets/animimg/lv_animimg.c **** 
  95:Drivers/lvgl/src/extra/widgets/animimg/lv_animimg.c **** void lv_animimg_set_repeat_count(lv_obj_t * obj, uint16_t count)
  96:Drivers/lvgl/src/extra/widgets/animimg/lv_animimg.c **** {
  97:Drivers/lvgl/src/extra/widgets/animimg/lv_animimg.c ****     LV_ASSERT_OBJ(obj, MY_CLASS);
  98:Drivers/lvgl/src/extra/widgets/animimg/lv_animimg.c ****     lv_animimg_t * animimg = (lv_animimg_t *)obj;
  99:Drivers/lvgl/src/extra/widgets/animimg/lv_animimg.c ****     lv_anim_set_repeat_count(&animimg->anim, count);
 100:Drivers/lvgl/src/extra/widgets/animimg/lv_animimg.c **** }
 101:Drivers/lvgl/src/extra/widgets/animimg/lv_animimg.c **** 
 102:Drivers/lvgl/src/extra/widgets/animimg/lv_animimg.c **** /*=====================
 103:Drivers/lvgl/src/extra/widgets/animimg/lv_animimg.c ****  * Getter functions
 104:Drivers/lvgl/src/extra/widgets/animimg/lv_animimg.c ****  *====================*/
 105:Drivers/lvgl/src/extra/widgets/animimg/lv_animimg.c **** 
 106:Drivers/lvgl/src/extra/widgets/animimg/lv_animimg.c **** /**********************
 107:Drivers/lvgl/src/extra/widgets/animimg/lv_animimg.c ****  *   STATIC FUNCTIONS
 108:Drivers/lvgl/src/extra/widgets/animimg/lv_animimg.c ****  **********************/
 109:Drivers/lvgl/src/extra/widgets/animimg/lv_animimg.c **** 
 110:Drivers/lvgl/src/extra/widgets/animimg/lv_animimg.c **** static void lv_animimg_constructor(const lv_obj_class_t * class_p, lv_obj_t * obj)
 111:Drivers/lvgl/src/extra/widgets/animimg/lv_animimg.c **** {
  30              		.loc 1 111 1 view -0
  31              		.cfi_startproc
  32              		@ args = 0, pretend = 0, frame = 0
  33              		@ frame_needed = 0, uses_anonymous_args = 0
 112:Drivers/lvgl/src/extra/widgets/animimg/lv_animimg.c ****     LV_TRACE_OBJ_CREATE("begin");
  34              		.loc 1 112 33 view .LVU1
 113:Drivers/lvgl/src/extra/widgets/animimg/lv_animimg.c **** 
 114:Drivers/lvgl/src/extra/widgets/animimg/lv_animimg.c ****     LV_UNUSED(class_p);
  35              		.loc 1 114 5 view .LVU2
 115:Drivers/lvgl/src/extra/widgets/animimg/lv_animimg.c ****     lv_animimg_t * animimg = (lv_animimg_t *)obj;
  36              		.loc 1 115 5 view .LVU3
 111:Drivers/lvgl/src/extra/widgets/animimg/lv_animimg.c ****     LV_TRACE_OBJ_CREATE("begin");
  37              		.loc 1 111 1 is_stmt 0 view .LVU4
  38 0000 38B5     		push	{r3, r4, r5, lr}
  39              		.cfi_def_cfa_offset 16
  40              		.cfi_offset 3, -16
  41              		.cfi_offset 4, -12
  42              		.cfi_offset 5, -8
  43              		.cfi_offset 14, -4
 116:Drivers/lvgl/src/extra/widgets/animimg/lv_animimg.c **** 
 117:Drivers/lvgl/src/extra/widgets/animimg/lv_animimg.c ****     animimg->dsc = NULL;
 118:Drivers/lvgl/src/extra/widgets/animimg/lv_animimg.c ****     animimg->pic_count = -1;
  44              		.loc 1 118 24 view .LVU5
  45 0002 FF23     		movs	r3, #255
 117:Drivers/lvgl/src/extra/widgets/animimg/lv_animimg.c ****     animimg->pic_count = -1;
  46              		.loc 1 117 18 view .LVU6
  47 0004 0025     		movs	r5, #0
  48              		.loc 1 118 24 view .LVU7
  49 0006 81F88430 		strb	r3, [r1, #132]
 117:Drivers/lvgl/src/extra/widgets/animimg/lv_animimg.c ****     animimg->pic_count = -1;
  50              		.loc 1 117 18 view .LVU8
  51 000a C1F88050 		str	r5, [r1, #128]
ARM GAS  /var/folders/lp/x54gwt890xv47sdkqj1k04q40000gn/T//cctIFidt.s 			page 4


 119:Drivers/lvgl/src/extra/widgets/animimg/lv_animimg.c ****     //initial animation
 120:Drivers/lvgl/src/extra/widgets/animimg/lv_animimg.c ****     lv_anim_init(&animimg->anim);
  52              		.loc 1 120 5 view .LVU9
  53 000e 01F13C00 		add	r0, r1, #60
  54              	.LVL1:
 111:Drivers/lvgl/src/extra/widgets/animimg/lv_animimg.c ****     LV_TRACE_OBJ_CREATE("begin");
  55              		.loc 1 111 1 view .LVU10
  56 0012 0C46     		mov	r4, r1
  57              	.LVL2:
 117:Drivers/lvgl/src/extra/widgets/animimg/lv_animimg.c ****     animimg->pic_count = -1;
  58              		.loc 1 117 5 is_stmt 1 view .LVU11
 118:Drivers/lvgl/src/extra/widgets/animimg/lv_animimg.c ****     //initial animation
  59              		.loc 1 118 5 view .LVU12
  60              		.loc 1 120 5 view .LVU13
  61 0014 FFF7FEFF 		bl	lv_anim_init
  62              	.LVL3:
 121:Drivers/lvgl/src/extra/widgets/animimg/lv_animimg.c ****     lv_anim_set_var(&animimg->anim, obj);
  63              		.loc 1 121 5 view .LVU14
  64              	.LBB20:
  65              	.LBI20:
  66              		.file 2 "Drivers/lvgl/src/extra/widgets/animimg/../../../../src/misc/lv_anim.h"
   1:Drivers/lvgl/src/extra/widgets/animimg/../../../../src/misc/lv_anim.h **** /**
   2:Drivers/lvgl/src/extra/widgets/animimg/../../../../src/misc/lv_anim.h ****  * @file lv_anim.h
   3:Drivers/lvgl/src/extra/widgets/animimg/../../../../src/misc/lv_anim.h ****  *
   4:Drivers/lvgl/src/extra/widgets/animimg/../../../../src/misc/lv_anim.h ****  */
   5:Drivers/lvgl/src/extra/widgets/animimg/../../../../src/misc/lv_anim.h **** 
   6:Drivers/lvgl/src/extra/widgets/animimg/../../../../src/misc/lv_anim.h **** #ifndef LV_ANIM_H
   7:Drivers/lvgl/src/extra/widgets/animimg/../../../../src/misc/lv_anim.h **** #define LV_ANIM_H
   8:Drivers/lvgl/src/extra/widgets/animimg/../../../../src/misc/lv_anim.h **** 
   9:Drivers/lvgl/src/extra/widgets/animimg/../../../../src/misc/lv_anim.h **** #ifdef __cplusplus
  10:Drivers/lvgl/src/extra/widgets/animimg/../../../../src/misc/lv_anim.h **** extern "C" {
  11:Drivers/lvgl/src/extra/widgets/animimg/../../../../src/misc/lv_anim.h **** #endif
  12:Drivers/lvgl/src/extra/widgets/animimg/../../../../src/misc/lv_anim.h **** 
  13:Drivers/lvgl/src/extra/widgets/animimg/../../../../src/misc/lv_anim.h **** /*********************
  14:Drivers/lvgl/src/extra/widgets/animimg/../../../../src/misc/lv_anim.h ****  *      INCLUDES
  15:Drivers/lvgl/src/extra/widgets/animimg/../../../../src/misc/lv_anim.h ****  *********************/
  16:Drivers/lvgl/src/extra/widgets/animimg/../../../../src/misc/lv_anim.h **** #include "../lv_conf_internal.h"
  17:Drivers/lvgl/src/extra/widgets/animimg/../../../../src/misc/lv_anim.h **** 
  18:Drivers/lvgl/src/extra/widgets/animimg/../../../../src/misc/lv_anim.h **** #include <stdint.h>
  19:Drivers/lvgl/src/extra/widgets/animimg/../../../../src/misc/lv_anim.h **** #include <stdbool.h>
  20:Drivers/lvgl/src/extra/widgets/animimg/../../../../src/misc/lv_anim.h **** #include <stddef.h>
  21:Drivers/lvgl/src/extra/widgets/animimg/../../../../src/misc/lv_anim.h **** 
  22:Drivers/lvgl/src/extra/widgets/animimg/../../../../src/misc/lv_anim.h **** /*********************
  23:Drivers/lvgl/src/extra/widgets/animimg/../../../../src/misc/lv_anim.h ****  *      DEFINES
  24:Drivers/lvgl/src/extra/widgets/animimg/../../../../src/misc/lv_anim.h ****  *********************/
  25:Drivers/lvgl/src/extra/widgets/animimg/../../../../src/misc/lv_anim.h **** 
  26:Drivers/lvgl/src/extra/widgets/animimg/../../../../src/misc/lv_anim.h **** #define LV_ANIM_REPEAT_INFINITE      0xFFFF
  27:Drivers/lvgl/src/extra/widgets/animimg/../../../../src/misc/lv_anim.h **** #define LV_ANIM_PLAYTIME_INFINITE    0xFFFFFFFF
  28:Drivers/lvgl/src/extra/widgets/animimg/../../../../src/misc/lv_anim.h **** 
  29:Drivers/lvgl/src/extra/widgets/animimg/../../../../src/misc/lv_anim.h **** LV_EXPORT_CONST_INT(LV_ANIM_REPEAT_INFINITE);
  30:Drivers/lvgl/src/extra/widgets/animimg/../../../../src/misc/lv_anim.h **** LV_EXPORT_CONST_INT(LV_ANIM_PLAYTIME_INFINITE);
  31:Drivers/lvgl/src/extra/widgets/animimg/../../../../src/misc/lv_anim.h **** 
  32:Drivers/lvgl/src/extra/widgets/animimg/../../../../src/misc/lv_anim.h **** /**********************
  33:Drivers/lvgl/src/extra/widgets/animimg/../../../../src/misc/lv_anim.h ****  *      TYPEDEFS
  34:Drivers/lvgl/src/extra/widgets/animimg/../../../../src/misc/lv_anim.h ****  **********************/
  35:Drivers/lvgl/src/extra/widgets/animimg/../../../../src/misc/lv_anim.h **** 
  36:Drivers/lvgl/src/extra/widgets/animimg/../../../../src/misc/lv_anim.h **** /** Can be used to indicate if animations are enabled or disabled in a case*/
ARM GAS  /var/folders/lp/x54gwt890xv47sdkqj1k04q40000gn/T//cctIFidt.s 			page 5


  37:Drivers/lvgl/src/extra/widgets/animimg/../../../../src/misc/lv_anim.h **** typedef enum {
  38:Drivers/lvgl/src/extra/widgets/animimg/../../../../src/misc/lv_anim.h ****     LV_ANIM_OFF,
  39:Drivers/lvgl/src/extra/widgets/animimg/../../../../src/misc/lv_anim.h ****     LV_ANIM_ON,
  40:Drivers/lvgl/src/extra/widgets/animimg/../../../../src/misc/lv_anim.h **** } lv_anim_enable_t;
  41:Drivers/lvgl/src/extra/widgets/animimg/../../../../src/misc/lv_anim.h **** 
  42:Drivers/lvgl/src/extra/widgets/animimg/../../../../src/misc/lv_anim.h **** struct _lv_anim_t;
  43:Drivers/lvgl/src/extra/widgets/animimg/../../../../src/misc/lv_anim.h **** struct _lv_timer_t;
  44:Drivers/lvgl/src/extra/widgets/animimg/../../../../src/misc/lv_anim.h **** 
  45:Drivers/lvgl/src/extra/widgets/animimg/../../../../src/misc/lv_anim.h **** /** Get the current value during an animation*/
  46:Drivers/lvgl/src/extra/widgets/animimg/../../../../src/misc/lv_anim.h **** typedef int32_t (*lv_anim_path_cb_t)(const struct _lv_anim_t *);
  47:Drivers/lvgl/src/extra/widgets/animimg/../../../../src/misc/lv_anim.h **** 
  48:Drivers/lvgl/src/extra/widgets/animimg/../../../../src/misc/lv_anim.h **** /** Generic prototype of "animator" functions.
  49:Drivers/lvgl/src/extra/widgets/animimg/../../../../src/misc/lv_anim.h ****  * First parameter is the variable to animate.
  50:Drivers/lvgl/src/extra/widgets/animimg/../../../../src/misc/lv_anim.h ****  * Second parameter is the value to set.
  51:Drivers/lvgl/src/extra/widgets/animimg/../../../../src/misc/lv_anim.h ****  * Compatible with `lv_xxx_set_yyy(obj, value)` functions
  52:Drivers/lvgl/src/extra/widgets/animimg/../../../../src/misc/lv_anim.h ****  * The `x` in `_xcb_t` means it's not a fully generic prototype because
  53:Drivers/lvgl/src/extra/widgets/animimg/../../../../src/misc/lv_anim.h ****  * it doesn't receive `lv_anim_t *` as its first argument*/
  54:Drivers/lvgl/src/extra/widgets/animimg/../../../../src/misc/lv_anim.h **** typedef void (*lv_anim_exec_xcb_t)(void *, int32_t);
  55:Drivers/lvgl/src/extra/widgets/animimg/../../../../src/misc/lv_anim.h **** 
  56:Drivers/lvgl/src/extra/widgets/animimg/../../../../src/misc/lv_anim.h **** /** Same as `lv_anim_exec_xcb_t` but receives `lv_anim_t *` as the first parameter.
  57:Drivers/lvgl/src/extra/widgets/animimg/../../../../src/misc/lv_anim.h ****  * It's more consistent but less convenient. Might be used by binding generator functions.*/
  58:Drivers/lvgl/src/extra/widgets/animimg/../../../../src/misc/lv_anim.h **** typedef void (*lv_anim_custom_exec_cb_t)(struct _lv_anim_t *, int32_t);
  59:Drivers/lvgl/src/extra/widgets/animimg/../../../../src/misc/lv_anim.h **** 
  60:Drivers/lvgl/src/extra/widgets/animimg/../../../../src/misc/lv_anim.h **** /** Callback to call when the animation is ready*/
  61:Drivers/lvgl/src/extra/widgets/animimg/../../../../src/misc/lv_anim.h **** typedef void (*lv_anim_ready_cb_t)(struct _lv_anim_t *);
  62:Drivers/lvgl/src/extra/widgets/animimg/../../../../src/misc/lv_anim.h **** 
  63:Drivers/lvgl/src/extra/widgets/animimg/../../../../src/misc/lv_anim.h **** /** Callback to call when the animation really stars (considering `delay`)*/
  64:Drivers/lvgl/src/extra/widgets/animimg/../../../../src/misc/lv_anim.h **** typedef void (*lv_anim_start_cb_t)(struct _lv_anim_t *);
  65:Drivers/lvgl/src/extra/widgets/animimg/../../../../src/misc/lv_anim.h **** 
  66:Drivers/lvgl/src/extra/widgets/animimg/../../../../src/misc/lv_anim.h **** /** Callback used when the animation values are relative to get the current value*/
  67:Drivers/lvgl/src/extra/widgets/animimg/../../../../src/misc/lv_anim.h **** typedef int32_t (*lv_anim_get_value_cb_t)(struct _lv_anim_t *);
  68:Drivers/lvgl/src/extra/widgets/animimg/../../../../src/misc/lv_anim.h **** 
  69:Drivers/lvgl/src/extra/widgets/animimg/../../../../src/misc/lv_anim.h **** /** Callback used when the animation is deleted*/
  70:Drivers/lvgl/src/extra/widgets/animimg/../../../../src/misc/lv_anim.h **** typedef void (*lv_anim_deleted_cb_t)(struct _lv_anim_t *);
  71:Drivers/lvgl/src/extra/widgets/animimg/../../../../src/misc/lv_anim.h **** 
  72:Drivers/lvgl/src/extra/widgets/animimg/../../../../src/misc/lv_anim.h **** /** Describes an animation*/
  73:Drivers/lvgl/src/extra/widgets/animimg/../../../../src/misc/lv_anim.h **** typedef struct _lv_anim_t {
  74:Drivers/lvgl/src/extra/widgets/animimg/../../../../src/misc/lv_anim.h ****     void * var;                          /**<Variable to animate*/
  75:Drivers/lvgl/src/extra/widgets/animimg/../../../../src/misc/lv_anim.h ****     lv_anim_exec_xcb_t exec_cb;          /**< Function to execute to animate*/
  76:Drivers/lvgl/src/extra/widgets/animimg/../../../../src/misc/lv_anim.h ****     lv_anim_start_cb_t start_cb;         /**< Call it when the animation is starts (considering `de
  77:Drivers/lvgl/src/extra/widgets/animimg/../../../../src/misc/lv_anim.h ****     lv_anim_ready_cb_t ready_cb;         /**< Call it when the animation is ready*/
  78:Drivers/lvgl/src/extra/widgets/animimg/../../../../src/misc/lv_anim.h ****     lv_anim_deleted_cb_t deleted_cb;     /**< Call it when the animation is deleted*/
  79:Drivers/lvgl/src/extra/widgets/animimg/../../../../src/misc/lv_anim.h ****     lv_anim_get_value_cb_t get_value_cb; /**< Get the current value in relative mode*/
  80:Drivers/lvgl/src/extra/widgets/animimg/../../../../src/misc/lv_anim.h **** #if LV_USE_USER_DATA
  81:Drivers/lvgl/src/extra/widgets/animimg/../../../../src/misc/lv_anim.h ****     void * user_data; /**< Custom user data*/
  82:Drivers/lvgl/src/extra/widgets/animimg/../../../../src/misc/lv_anim.h **** #endif
  83:Drivers/lvgl/src/extra/widgets/animimg/../../../../src/misc/lv_anim.h ****     lv_anim_path_cb_t path_cb;         /**< Describe the path (curve) of animations*/
  84:Drivers/lvgl/src/extra/widgets/animimg/../../../../src/misc/lv_anim.h ****     int32_t start_value;               /**< Start value*/
  85:Drivers/lvgl/src/extra/widgets/animimg/../../../../src/misc/lv_anim.h ****     int32_t current_value;             /**< Current value*/
  86:Drivers/lvgl/src/extra/widgets/animimg/../../../../src/misc/lv_anim.h ****     int32_t end_value;                 /**< End value*/
  87:Drivers/lvgl/src/extra/widgets/animimg/../../../../src/misc/lv_anim.h ****     int32_t time;                /**< Animation time in ms*/
  88:Drivers/lvgl/src/extra/widgets/animimg/../../../../src/misc/lv_anim.h ****     int32_t act_time;            /**< Current time in animation. Set to negative to make delay.*/
  89:Drivers/lvgl/src/extra/widgets/animimg/../../../../src/misc/lv_anim.h ****     uint32_t playback_delay;     /**< Wait before play back*/
  90:Drivers/lvgl/src/extra/widgets/animimg/../../../../src/misc/lv_anim.h ****     uint32_t playback_time;      /**< Duration of playback animation*/
  91:Drivers/lvgl/src/extra/widgets/animimg/../../../../src/misc/lv_anim.h ****     uint32_t repeat_delay;       /**< Wait before repeat*/
  92:Drivers/lvgl/src/extra/widgets/animimg/../../../../src/misc/lv_anim.h ****     uint16_t repeat_cnt;         /**< Repeat count for the animation*/
  93:Drivers/lvgl/src/extra/widgets/animimg/../../../../src/misc/lv_anim.h ****     uint8_t early_apply  : 1;    /**< 1: Apply start value immediately even is there is `delay`*/
ARM GAS  /var/folders/lp/x54gwt890xv47sdkqj1k04q40000gn/T//cctIFidt.s 			page 6


  94:Drivers/lvgl/src/extra/widgets/animimg/../../../../src/misc/lv_anim.h **** 
  95:Drivers/lvgl/src/extra/widgets/animimg/../../../../src/misc/lv_anim.h ****     /*Animation system use these - user shouldn't set*/
  96:Drivers/lvgl/src/extra/widgets/animimg/../../../../src/misc/lv_anim.h ****     uint8_t playback_now : 1; /**< Play back is in progress*/
  97:Drivers/lvgl/src/extra/widgets/animimg/../../../../src/misc/lv_anim.h ****     uint8_t run_round : 1;    /**< Indicates the animation has run in this round*/
  98:Drivers/lvgl/src/extra/widgets/animimg/../../../../src/misc/lv_anim.h ****     uint8_t start_cb_called : 1;    /**< Indicates that the `start_cb` was already called*/
  99:Drivers/lvgl/src/extra/widgets/animimg/../../../../src/misc/lv_anim.h **** } lv_anim_t;
 100:Drivers/lvgl/src/extra/widgets/animimg/../../../../src/misc/lv_anim.h **** 
 101:Drivers/lvgl/src/extra/widgets/animimg/../../../../src/misc/lv_anim.h **** /**********************
 102:Drivers/lvgl/src/extra/widgets/animimg/../../../../src/misc/lv_anim.h ****  * GLOBAL PROTOTYPES
 103:Drivers/lvgl/src/extra/widgets/animimg/../../../../src/misc/lv_anim.h ****  **********************/
 104:Drivers/lvgl/src/extra/widgets/animimg/../../../../src/misc/lv_anim.h **** 
 105:Drivers/lvgl/src/extra/widgets/animimg/../../../../src/misc/lv_anim.h **** /**
 106:Drivers/lvgl/src/extra/widgets/animimg/../../../../src/misc/lv_anim.h ****  * Init. the animation module
 107:Drivers/lvgl/src/extra/widgets/animimg/../../../../src/misc/lv_anim.h ****  */
 108:Drivers/lvgl/src/extra/widgets/animimg/../../../../src/misc/lv_anim.h **** void _lv_anim_core_init(void);
 109:Drivers/lvgl/src/extra/widgets/animimg/../../../../src/misc/lv_anim.h **** 
 110:Drivers/lvgl/src/extra/widgets/animimg/../../../../src/misc/lv_anim.h **** /**
 111:Drivers/lvgl/src/extra/widgets/animimg/../../../../src/misc/lv_anim.h ****  * Initialize an animation variable.
 112:Drivers/lvgl/src/extra/widgets/animimg/../../../../src/misc/lv_anim.h ****  * E.g.:
 113:Drivers/lvgl/src/extra/widgets/animimg/../../../../src/misc/lv_anim.h ****  * lv_anim_t a;
 114:Drivers/lvgl/src/extra/widgets/animimg/../../../../src/misc/lv_anim.h ****  * lv_anim_init(&a);
 115:Drivers/lvgl/src/extra/widgets/animimg/../../../../src/misc/lv_anim.h ****  * lv_anim_set_...(&a);
 116:Drivers/lvgl/src/extra/widgets/animimg/../../../../src/misc/lv_anim.h ****  * lv_anim_start(&a);
 117:Drivers/lvgl/src/extra/widgets/animimg/../../../../src/misc/lv_anim.h ****  * @param a     pointer to an `lv_anim_t` variable to initialize
 118:Drivers/lvgl/src/extra/widgets/animimg/../../../../src/misc/lv_anim.h ****  */
 119:Drivers/lvgl/src/extra/widgets/animimg/../../../../src/misc/lv_anim.h **** void lv_anim_init(lv_anim_t * a);
 120:Drivers/lvgl/src/extra/widgets/animimg/../../../../src/misc/lv_anim.h **** 
 121:Drivers/lvgl/src/extra/widgets/animimg/../../../../src/misc/lv_anim.h **** /**
 122:Drivers/lvgl/src/extra/widgets/animimg/../../../../src/misc/lv_anim.h ****  * Set a variable to animate
 123:Drivers/lvgl/src/extra/widgets/animimg/../../../../src/misc/lv_anim.h ****  * @param a     pointer to an initialized `lv_anim_t` variable
 124:Drivers/lvgl/src/extra/widgets/animimg/../../../../src/misc/lv_anim.h ****  * @param var   pointer to a variable to animate
 125:Drivers/lvgl/src/extra/widgets/animimg/../../../../src/misc/lv_anim.h ****  */
 126:Drivers/lvgl/src/extra/widgets/animimg/../../../../src/misc/lv_anim.h **** static inline void lv_anim_set_var(lv_anim_t * a, void * var)
  67              		.loc 2 126 20 view .LVU15
  68              	.LBB21:
 127:Drivers/lvgl/src/extra/widgets/animimg/../../../../src/misc/lv_anim.h **** {
 128:Drivers/lvgl/src/extra/widgets/animimg/../../../../src/misc/lv_anim.h ****     a->var = var;
  69              		.loc 2 128 5 view .LVU16
  70              	.LBE21:
  71              	.LBE20:
  72              	.LBB22:
  73              	.LBB23:
 129:Drivers/lvgl/src/extra/widgets/animimg/../../../../src/misc/lv_anim.h **** }
 130:Drivers/lvgl/src/extra/widgets/animimg/../../../../src/misc/lv_anim.h **** 
 131:Drivers/lvgl/src/extra/widgets/animimg/../../../../src/misc/lv_anim.h **** /**
 132:Drivers/lvgl/src/extra/widgets/animimg/../../../../src/misc/lv_anim.h ****  * Set a function to animate `var`
 133:Drivers/lvgl/src/extra/widgets/animimg/../../../../src/misc/lv_anim.h ****  * @param a         pointer to an initialized `lv_anim_t` variable
 134:Drivers/lvgl/src/extra/widgets/animimg/../../../../src/misc/lv_anim.h ****  * @param exec_cb   a function to execute during animation
 135:Drivers/lvgl/src/extra/widgets/animimg/../../../../src/misc/lv_anim.h ****  *                  LVGL's built-in functions can be used.
 136:Drivers/lvgl/src/extra/widgets/animimg/../../../../src/misc/lv_anim.h ****  *                  E.g. lv_obj_set_x
 137:Drivers/lvgl/src/extra/widgets/animimg/../../../../src/misc/lv_anim.h ****  */
 138:Drivers/lvgl/src/extra/widgets/animimg/../../../../src/misc/lv_anim.h **** static inline void lv_anim_set_exec_cb(lv_anim_t * a, lv_anim_exec_xcb_t exec_cb)
 139:Drivers/lvgl/src/extra/widgets/animimg/../../../../src/misc/lv_anim.h **** {
 140:Drivers/lvgl/src/extra/widgets/animimg/../../../../src/misc/lv_anim.h ****     a->exec_cb = exec_cb;
  74              		.loc 2 140 16 is_stmt 0 view .LVU17
  75 0018 064B     		ldr	r3, .L4
  76              	.LBE23:
ARM GAS  /var/folders/lp/x54gwt890xv47sdkqj1k04q40000gn/T//cctIFidt.s 			page 7


  77              	.LBE22:
  78              	.LBB25:
  79              	.LBB26:
 141:Drivers/lvgl/src/extra/widgets/animimg/../../../../src/misc/lv_anim.h **** }
 142:Drivers/lvgl/src/extra/widgets/animimg/../../../../src/misc/lv_anim.h **** 
 143:Drivers/lvgl/src/extra/widgets/animimg/../../../../src/misc/lv_anim.h **** /**
 144:Drivers/lvgl/src/extra/widgets/animimg/../../../../src/misc/lv_anim.h ****  * Set the duration of an animation
 145:Drivers/lvgl/src/extra/widgets/animimg/../../../../src/misc/lv_anim.h ****  * @param a         pointer to an initialized `lv_anim_t` variable
 146:Drivers/lvgl/src/extra/widgets/animimg/../../../../src/misc/lv_anim.h ****  * @param duration  duration of the animation in milliseconds
 147:Drivers/lvgl/src/extra/widgets/animimg/../../../../src/misc/lv_anim.h ****  */
 148:Drivers/lvgl/src/extra/widgets/animimg/../../../../src/misc/lv_anim.h **** static inline void lv_anim_set_time(lv_anim_t * a, uint32_t duration)
 149:Drivers/lvgl/src/extra/widgets/animimg/../../../../src/misc/lv_anim.h **** {
 150:Drivers/lvgl/src/extra/widgets/animimg/../../../../src/misc/lv_anim.h ****     a->time = duration;
 151:Drivers/lvgl/src/extra/widgets/animimg/../../../../src/misc/lv_anim.h **** }
 152:Drivers/lvgl/src/extra/widgets/animimg/../../../../src/misc/lv_anim.h **** 
 153:Drivers/lvgl/src/extra/widgets/animimg/../../../../src/misc/lv_anim.h **** /**
 154:Drivers/lvgl/src/extra/widgets/animimg/../../../../src/misc/lv_anim.h ****  * Set a delay before starting the animation
 155:Drivers/lvgl/src/extra/widgets/animimg/../../../../src/misc/lv_anim.h ****  * @param a         pointer to an initialized `lv_anim_t` variable
 156:Drivers/lvgl/src/extra/widgets/animimg/../../../../src/misc/lv_anim.h ****  * @param delay     delay before the animation in milliseconds
 157:Drivers/lvgl/src/extra/widgets/animimg/../../../../src/misc/lv_anim.h ****  */
 158:Drivers/lvgl/src/extra/widgets/animimg/../../../../src/misc/lv_anim.h **** static inline void lv_anim_set_delay(lv_anim_t * a, uint32_t delay)
 159:Drivers/lvgl/src/extra/widgets/animimg/../../../../src/misc/lv_anim.h **** {
 160:Drivers/lvgl/src/extra/widgets/animimg/../../../../src/misc/lv_anim.h ****     a->act_time = -(int32_t)(delay);
 161:Drivers/lvgl/src/extra/widgets/animimg/../../../../src/misc/lv_anim.h **** }
 162:Drivers/lvgl/src/extra/widgets/animimg/../../../../src/misc/lv_anim.h **** 
 163:Drivers/lvgl/src/extra/widgets/animimg/../../../../src/misc/lv_anim.h **** /**
 164:Drivers/lvgl/src/extra/widgets/animimg/../../../../src/misc/lv_anim.h ****  * Set the start and end values of an animation
 165:Drivers/lvgl/src/extra/widgets/animimg/../../../../src/misc/lv_anim.h ****  * @param a         pointer to an initialized `lv_anim_t` variable
 166:Drivers/lvgl/src/extra/widgets/animimg/../../../../src/misc/lv_anim.h ****  * @param start     the start value
 167:Drivers/lvgl/src/extra/widgets/animimg/../../../../src/misc/lv_anim.h ****  * @param end       the end value
 168:Drivers/lvgl/src/extra/widgets/animimg/../../../../src/misc/lv_anim.h ****  */
 169:Drivers/lvgl/src/extra/widgets/animimg/../../../../src/misc/lv_anim.h **** static inline void lv_anim_set_values(lv_anim_t * a, int32_t start, int32_t end)
 170:Drivers/lvgl/src/extra/widgets/animimg/../../../../src/misc/lv_anim.h **** {
 171:Drivers/lvgl/src/extra/widgets/animimg/../../../../src/misc/lv_anim.h ****     a->start_value = start;
  80              		.loc 2 171 20 view .LVU18
  81 001a 0121     		movs	r1, #1
  82              	.LBE26:
  83              	.LBE25:
  84              	.LBB29:
  85              	.LBB24:
 140:Drivers/lvgl/src/extra/widgets/animimg/../../../../src/misc/lv_anim.h **** }
  86              		.loc 2 140 16 view .LVU19
  87 001c C4E90F43 		strd	r4, r3, [r4, #60]
  88              	.LBE24:
  89              	.LBE29:
 122:Drivers/lvgl/src/extra/widgets/animimg/lv_animimg.c ****     lv_anim_set_time(&animimg->anim, 30);
 123:Drivers/lvgl/src/extra/widgets/animimg/lv_animimg.c ****     lv_anim_set_exec_cb(&animimg->anim, (lv_anim_exec_xcb_t)index_change);
 124:Drivers/lvgl/src/extra/widgets/animimg/lv_animimg.c ****     lv_anim_set_values(&animimg->anim, 0, 1);
  90              		.loc 1 124 5 is_stmt 1 view .LVU20
  91              	.LVL4:
  92              	.LBB30:
  93              	.LBI25:
 169:Drivers/lvgl/src/extra/widgets/animimg/../../../../src/misc/lv_anim.h **** {
  94              		.loc 2 169 20 view .LVU21
  95              	.LBB27:
  96              		.loc 2 171 5 view .LVU22
 172:Drivers/lvgl/src/extra/widgets/animimg/../../../../src/misc/lv_anim.h ****     a->current_value = start;
ARM GAS  /var/folders/lp/x54gwt890xv47sdkqj1k04q40000gn/T//cctIFidt.s 			page 8


  97              		.loc 2 172 5 view .LVU23
 173:Drivers/lvgl/src/extra/widgets/animimg/../../../../src/misc/lv_anim.h ****     a->end_value = end;
  98              		.loc 2 173 5 view .LVU24
 171:Drivers/lvgl/src/extra/widgets/animimg/../../../../src/misc/lv_anim.h ****     a->current_value = start;
  99              		.loc 2 171 20 is_stmt 0 view .LVU25
 100 0020 1E22     		movs	r2, #30
 101              	.LBE27:
 102              	.LBE30:
 103              	.LBB31:
 104              	.LBB32:
 174:Drivers/lvgl/src/extra/widgets/animimg/../../../../src/misc/lv_anim.h **** }
 175:Drivers/lvgl/src/extra/widgets/animimg/../../../../src/misc/lv_anim.h **** 
 176:Drivers/lvgl/src/extra/widgets/animimg/../../../../src/misc/lv_anim.h **** /**
 177:Drivers/lvgl/src/extra/widgets/animimg/../../../../src/misc/lv_anim.h ****  * Similar to `lv_anim_set_exec_cb` but `lv_anim_custom_exec_cb_t` receives
 178:Drivers/lvgl/src/extra/widgets/animimg/../../../../src/misc/lv_anim.h ****  * `lv_anim_t * ` as its first parameter instead of `void *`.
 179:Drivers/lvgl/src/extra/widgets/animimg/../../../../src/misc/lv_anim.h ****  * This function might be used when LVGL is bound to other languages because
 180:Drivers/lvgl/src/extra/widgets/animimg/../../../../src/misc/lv_anim.h ****  * it's more consistent to have `lv_anim_t *` as first parameter.
 181:Drivers/lvgl/src/extra/widgets/animimg/../../../../src/misc/lv_anim.h ****  * The variable to animate can be stored in the animation's `user_data`
 182:Drivers/lvgl/src/extra/widgets/animimg/../../../../src/misc/lv_anim.h ****  * @param a         pointer to an initialized `lv_anim_t` variable
 183:Drivers/lvgl/src/extra/widgets/animimg/../../../../src/misc/lv_anim.h ****  * @param exec_cb   a function to execute.
 184:Drivers/lvgl/src/extra/widgets/animimg/../../../../src/misc/lv_anim.h ****  */
 185:Drivers/lvgl/src/extra/widgets/animimg/../../../../src/misc/lv_anim.h **** static inline void lv_anim_set_custom_exec_cb(lv_anim_t * a, lv_anim_custom_exec_cb_t exec_cb)
 186:Drivers/lvgl/src/extra/widgets/animimg/../../../../src/misc/lv_anim.h **** {
 187:Drivers/lvgl/src/extra/widgets/animimg/../../../../src/misc/lv_anim.h ****     a->var     = a;
 188:Drivers/lvgl/src/extra/widgets/animimg/../../../../src/misc/lv_anim.h ****     a->exec_cb = (lv_anim_exec_xcb_t)exec_cb;
 189:Drivers/lvgl/src/extra/widgets/animimg/../../../../src/misc/lv_anim.h **** }
 190:Drivers/lvgl/src/extra/widgets/animimg/../../../../src/misc/lv_anim.h **** 
 191:Drivers/lvgl/src/extra/widgets/animimg/../../../../src/misc/lv_anim.h **** /**
 192:Drivers/lvgl/src/extra/widgets/animimg/../../../../src/misc/lv_anim.h ****  * Set the path (curve) of the animation.
 193:Drivers/lvgl/src/extra/widgets/animimg/../../../../src/misc/lv_anim.h ****  * @param a         pointer to an initialized `lv_anim_t` variable
 194:Drivers/lvgl/src/extra/widgets/animimg/../../../../src/misc/lv_anim.h ****  * @param path_cb a function to set the current value of the animation.
 195:Drivers/lvgl/src/extra/widgets/animimg/../../../../src/misc/lv_anim.h ****  */
 196:Drivers/lvgl/src/extra/widgets/animimg/../../../../src/misc/lv_anim.h **** static inline void lv_anim_set_path_cb(lv_anim_t * a, lv_anim_path_cb_t path_cb)
 197:Drivers/lvgl/src/extra/widgets/animimg/../../../../src/misc/lv_anim.h **** {
 198:Drivers/lvgl/src/extra/widgets/animimg/../../../../src/misc/lv_anim.h ****     a->path_cb = path_cb;
 199:Drivers/lvgl/src/extra/widgets/animimg/../../../../src/misc/lv_anim.h **** }
 200:Drivers/lvgl/src/extra/widgets/animimg/../../../../src/misc/lv_anim.h **** 
 201:Drivers/lvgl/src/extra/widgets/animimg/../../../../src/misc/lv_anim.h **** /**
 202:Drivers/lvgl/src/extra/widgets/animimg/../../../../src/misc/lv_anim.h ****  * Set a function call when the animation really starts (considering `delay`)
 203:Drivers/lvgl/src/extra/widgets/animimg/../../../../src/misc/lv_anim.h ****  * @param a         pointer to an initialized `lv_anim_t` variable
 204:Drivers/lvgl/src/extra/widgets/animimg/../../../../src/misc/lv_anim.h ****  * @param start_cb  a function call when the animation starts
 205:Drivers/lvgl/src/extra/widgets/animimg/../../../../src/misc/lv_anim.h ****  */
 206:Drivers/lvgl/src/extra/widgets/animimg/../../../../src/misc/lv_anim.h **** static inline void lv_anim_set_start_cb(lv_anim_t * a, lv_anim_start_cb_t start_cb)
 207:Drivers/lvgl/src/extra/widgets/animimg/../../../../src/misc/lv_anim.h **** {
 208:Drivers/lvgl/src/extra/widgets/animimg/../../../../src/misc/lv_anim.h ****     a->start_cb = start_cb;
 209:Drivers/lvgl/src/extra/widgets/animimg/../../../../src/misc/lv_anim.h **** }
 210:Drivers/lvgl/src/extra/widgets/animimg/../../../../src/misc/lv_anim.h **** 
 211:Drivers/lvgl/src/extra/widgets/animimg/../../../../src/misc/lv_anim.h **** /**
 212:Drivers/lvgl/src/extra/widgets/animimg/../../../../src/misc/lv_anim.h ****  * Set a function to use the current value of the variable and make start and end value
 213:Drivers/lvgl/src/extra/widgets/animimg/../../../../src/misc/lv_anim.h ****  * relative to the returned current value.
 214:Drivers/lvgl/src/extra/widgets/animimg/../../../../src/misc/lv_anim.h ****  * @param a             pointer to an initialized `lv_anim_t` variable
 215:Drivers/lvgl/src/extra/widgets/animimg/../../../../src/misc/lv_anim.h ****  * @param get_value_cb  a function call when the animation starts
 216:Drivers/lvgl/src/extra/widgets/animimg/../../../../src/misc/lv_anim.h ****  */
 217:Drivers/lvgl/src/extra/widgets/animimg/../../../../src/misc/lv_anim.h **** static inline void lv_anim_set_get_value_cb(lv_anim_t * a, lv_anim_get_value_cb_t get_value_cb)
 218:Drivers/lvgl/src/extra/widgets/animimg/../../../../src/misc/lv_anim.h **** {
 219:Drivers/lvgl/src/extra/widgets/animimg/../../../../src/misc/lv_anim.h ****     a->get_value_cb = get_value_cb;
 220:Drivers/lvgl/src/extra/widgets/animimg/../../../../src/misc/lv_anim.h **** }
ARM GAS  /var/folders/lp/x54gwt890xv47sdkqj1k04q40000gn/T//cctIFidt.s 			page 9


 221:Drivers/lvgl/src/extra/widgets/animimg/../../../../src/misc/lv_anim.h **** 
 222:Drivers/lvgl/src/extra/widgets/animimg/../../../../src/misc/lv_anim.h **** /**
 223:Drivers/lvgl/src/extra/widgets/animimg/../../../../src/misc/lv_anim.h ****  * Set a function call when the animation is ready
 224:Drivers/lvgl/src/extra/widgets/animimg/../../../../src/misc/lv_anim.h ****  * @param a         pointer to an initialized `lv_anim_t` variable
 225:Drivers/lvgl/src/extra/widgets/animimg/../../../../src/misc/lv_anim.h ****  * @param ready_cb  a function call when the animation is ready
 226:Drivers/lvgl/src/extra/widgets/animimg/../../../../src/misc/lv_anim.h ****  */
 227:Drivers/lvgl/src/extra/widgets/animimg/../../../../src/misc/lv_anim.h **** static inline void lv_anim_set_ready_cb(lv_anim_t * a, lv_anim_ready_cb_t ready_cb)
 228:Drivers/lvgl/src/extra/widgets/animimg/../../../../src/misc/lv_anim.h **** {
 229:Drivers/lvgl/src/extra/widgets/animimg/../../../../src/misc/lv_anim.h ****     a->ready_cb = ready_cb;
 230:Drivers/lvgl/src/extra/widgets/animimg/../../../../src/misc/lv_anim.h **** }
 231:Drivers/lvgl/src/extra/widgets/animimg/../../../../src/misc/lv_anim.h **** 
 232:Drivers/lvgl/src/extra/widgets/animimg/../../../../src/misc/lv_anim.h **** /**
 233:Drivers/lvgl/src/extra/widgets/animimg/../../../../src/misc/lv_anim.h ****  * Set a function call when the animation is deleted.
 234:Drivers/lvgl/src/extra/widgets/animimg/../../../../src/misc/lv_anim.h ****  * @param a         pointer to an initialized `lv_anim_t` variable
 235:Drivers/lvgl/src/extra/widgets/animimg/../../../../src/misc/lv_anim.h ****  * @param deleted_cb  a function call when the animation is deleted
 236:Drivers/lvgl/src/extra/widgets/animimg/../../../../src/misc/lv_anim.h ****  */
 237:Drivers/lvgl/src/extra/widgets/animimg/../../../../src/misc/lv_anim.h **** static inline void lv_anim_set_deleted_cb(lv_anim_t * a, lv_anim_deleted_cb_t deleted_cb)
 238:Drivers/lvgl/src/extra/widgets/animimg/../../../../src/misc/lv_anim.h **** {
 239:Drivers/lvgl/src/extra/widgets/animimg/../../../../src/misc/lv_anim.h ****     a->deleted_cb = deleted_cb;
 240:Drivers/lvgl/src/extra/widgets/animimg/../../../../src/misc/lv_anim.h **** }
 241:Drivers/lvgl/src/extra/widgets/animimg/../../../../src/misc/lv_anim.h **** 
 242:Drivers/lvgl/src/extra/widgets/animimg/../../../../src/misc/lv_anim.h **** /**
 243:Drivers/lvgl/src/extra/widgets/animimg/../../../../src/misc/lv_anim.h ****  * Make the animation to play back to when the forward direction is ready
 244:Drivers/lvgl/src/extra/widgets/animimg/../../../../src/misc/lv_anim.h ****  * @param a         pointer to an initialized `lv_anim_t` variable
 245:Drivers/lvgl/src/extra/widgets/animimg/../../../../src/misc/lv_anim.h ****  * @param time      the duration of the playback animation in milliseconds. 0: disable playback
 246:Drivers/lvgl/src/extra/widgets/animimg/../../../../src/misc/lv_anim.h ****  */
 247:Drivers/lvgl/src/extra/widgets/animimg/../../../../src/misc/lv_anim.h **** static inline void lv_anim_set_playback_time(lv_anim_t * a, uint32_t time)
 248:Drivers/lvgl/src/extra/widgets/animimg/../../../../src/misc/lv_anim.h **** {
 249:Drivers/lvgl/src/extra/widgets/animimg/../../../../src/misc/lv_anim.h ****     a->playback_time = time;
 250:Drivers/lvgl/src/extra/widgets/animimg/../../../../src/misc/lv_anim.h **** }
 251:Drivers/lvgl/src/extra/widgets/animimg/../../../../src/misc/lv_anim.h **** 
 252:Drivers/lvgl/src/extra/widgets/animimg/../../../../src/misc/lv_anim.h **** /**
 253:Drivers/lvgl/src/extra/widgets/animimg/../../../../src/misc/lv_anim.h ****  * Make the animation to play back to when the forward direction is ready
 254:Drivers/lvgl/src/extra/widgets/animimg/../../../../src/misc/lv_anim.h ****  * @param a         pointer to an initialized `lv_anim_t` variable
 255:Drivers/lvgl/src/extra/widgets/animimg/../../../../src/misc/lv_anim.h ****  * @param delay     delay in milliseconds before starting the playback animation.
 256:Drivers/lvgl/src/extra/widgets/animimg/../../../../src/misc/lv_anim.h ****  */
 257:Drivers/lvgl/src/extra/widgets/animimg/../../../../src/misc/lv_anim.h **** static inline void lv_anim_set_playback_delay(lv_anim_t * a, uint32_t delay)
 258:Drivers/lvgl/src/extra/widgets/animimg/../../../../src/misc/lv_anim.h **** {
 259:Drivers/lvgl/src/extra/widgets/animimg/../../../../src/misc/lv_anim.h ****     a->playback_delay = delay;
 260:Drivers/lvgl/src/extra/widgets/animimg/../../../../src/misc/lv_anim.h **** }
 261:Drivers/lvgl/src/extra/widgets/animimg/../../../../src/misc/lv_anim.h **** 
 262:Drivers/lvgl/src/extra/widgets/animimg/../../../../src/misc/lv_anim.h **** /**
 263:Drivers/lvgl/src/extra/widgets/animimg/../../../../src/misc/lv_anim.h ****  * Make the animation repeat itself.
 264:Drivers/lvgl/src/extra/widgets/animimg/../../../../src/misc/lv_anim.h ****  * @param a         pointer to an initialized `lv_anim_t` variable
 265:Drivers/lvgl/src/extra/widgets/animimg/../../../../src/misc/lv_anim.h ****  * @param cnt       repeat count or `LV_ANIM_REPEAT_INFINITE` for infinite repetition. 0: to disabl
 266:Drivers/lvgl/src/extra/widgets/animimg/../../../../src/misc/lv_anim.h ****  */
 267:Drivers/lvgl/src/extra/widgets/animimg/../../../../src/misc/lv_anim.h **** static inline void lv_anim_set_repeat_count(lv_anim_t * a, uint16_t cnt)
 268:Drivers/lvgl/src/extra/widgets/animimg/../../../../src/misc/lv_anim.h **** {
 269:Drivers/lvgl/src/extra/widgets/animimg/../../../../src/misc/lv_anim.h ****     a->repeat_cnt = cnt;
 105              		.loc 2 269 19 view .LVU26
 106 0022 4FF6FF73 		movw	r3, #65535
 107              	.LBE32:
 108              	.LBE31:
 109              	.LBB34:
 110              	.LBB28:
 171:Drivers/lvgl/src/extra/widgets/animimg/../../../../src/misc/lv_anim.h ****     a->current_value = start;
 111              		.loc 2 171 20 view .LVU27
ARM GAS  /var/folders/lp/x54gwt890xv47sdkqj1k04q40000gn/T//cctIFidt.s 			page 10


 112 0026 C4E91755 		strd	r5, r5, [r4, #92]
 113 002a C4E91912 		strd	r1, r2, [r4, #100]
 114              	.LVL5:
 171:Drivers/lvgl/src/extra/widgets/animimg/../../../../src/misc/lv_anim.h ****     a->current_value = start;
 115              		.loc 2 171 20 view .LVU28
 116              	.LBE28:
 117              	.LBE34:
 125:Drivers/lvgl/src/extra/widgets/animimg/lv_animimg.c ****     lv_anim_set_repeat_count(&animimg->anim, LV_ANIM_REPEAT_INFINITE);
 118              		.loc 1 125 5 is_stmt 1 view .LVU29
 119              	.LBB35:
 120              	.LBI31:
 267:Drivers/lvgl/src/extra/widgets/animimg/../../../../src/misc/lv_anim.h **** {
 121              		.loc 2 267 20 view .LVU30
 122              	.LBB33:
 123              		.loc 2 269 5 view .LVU31
 124              		.loc 2 269 19 is_stmt 0 view .LVU32
 125 002e A4F87C30 		strh	r3, [r4, #124]	@ movhi
 126              	.LVL6:
 127              		.loc 2 269 19 view .LVU33
 128              	.LBE33:
 129              	.LBE35:
 126:Drivers/lvgl/src/extra/widgets/animimg/lv_animimg.c **** }
 130              		.loc 1 126 1 view .LVU34
 131 0032 38BD     		pop	{r3, r4, r5, pc}
 132              	.LVL7:
 133              	.L5:
 134              		.loc 1 126 1 view .LVU35
 135              		.align	2
 136              	.L4:
 137 0034 00000000 		.word	index_change
 138              		.cfi_endproc
 139              	.LFE209:
 141              		.section	.text.index_change,"ax",%progbits
 142              		.align	1
 143              		.p2align 2,,3
 144              		.syntax unified
 145              		.thumb
 146              		.thumb_func
 148              	index_change:
 149              	.LVL8:
 150              	.LFB210:
 127:Drivers/lvgl/src/extra/widgets/animimg/lv_animimg.c **** 
 128:Drivers/lvgl/src/extra/widgets/animimg/lv_animimg.c **** static void index_change(lv_obj_t * obj, int32_t index)
 129:Drivers/lvgl/src/extra/widgets/animimg/lv_animimg.c **** {
 151              		.loc 1 129 1 is_stmt 1 view -0
 152              		.cfi_startproc
 153              		@ args = 0, pretend = 0, frame = 0
 154              		@ frame_needed = 0, uses_anonymous_args = 0
 155              		@ link register save eliminated.
 130:Drivers/lvgl/src/extra/widgets/animimg/lv_animimg.c ****     lv_coord_t idx;
 156              		.loc 1 130 5 view .LVU37
 131:Drivers/lvgl/src/extra/widgets/animimg/lv_animimg.c ****     lv_animimg_t * animimg = (lv_animimg_t *)obj;
 157              		.loc 1 131 5 view .LVU38
 132:Drivers/lvgl/src/extra/widgets/animimg/lv_animimg.c **** 
 133:Drivers/lvgl/src/extra/widgets/animimg/lv_animimg.c ****     idx = index % animimg->pic_count;
 158              		.loc 1 133 5 view .LVU39
 134:Drivers/lvgl/src/extra/widgets/animimg/lv_animimg.c **** 
ARM GAS  /var/folders/lp/x54gwt890xv47sdkqj1k04q40000gn/T//cctIFidt.s 			page 11


 135:Drivers/lvgl/src/extra/widgets/animimg/lv_animimg.c ****     lv_img_set_src(obj, animimg->dsc[idx]);
 159              		.loc 1 135 5 view .LVU40
 133:Drivers/lvgl/src/extra/widgets/animimg/lv_animimg.c **** 
 160              		.loc 1 133 26 is_stmt 0 view .LVU41
 161 0000 90F98420 		ldrsb	r2, [r0, #132]
 162              		.loc 1 135 5 view .LVU42
 163 0004 D0F88030 		ldr	r3, [r0, #128]
 133:Drivers/lvgl/src/extra/widgets/animimg/lv_animimg.c **** 
 164              		.loc 1 133 17 view .LVU43
 165 0008 91FBF2FC 		sdiv	ip, r1, r2
 166 000c 0CFB1211 		mls	r1, ip, r2, r1
 167              	.LVL9:
 168              		.loc 1 135 5 view .LVU44
 169 0010 53F82110 		ldr	r1, [r3, r1, lsl #2]
 170 0014 FFF7FEBF 		b	lv_img_set_src
 171              	.LVL10:
 172              		.loc 1 135 5 view .LVU45
 173              		.cfi_endproc
 174              	.LFE210:
 176              		.section	.text.lv_animimg_create,"ax",%progbits
 177              		.align	1
 178              		.p2align 2,,3
 179              		.global	lv_animimg_create
 180              		.syntax unified
 181              		.thumb
 182              		.thumb_func
 184              	lv_animimg_create:
 185              	.LVL11:
 186              	.LFB204:
  60:Drivers/lvgl/src/extra/widgets/animimg/lv_animimg.c ****     LV_LOG_INFO("begin");
 187              		.loc 1 60 1 is_stmt 1 view -0
 188              		.cfi_startproc
 189              		@ args = 0, pretend = 0, frame = 0
 190              		@ frame_needed = 0, uses_anonymous_args = 0
  61:Drivers/lvgl/src/extra/widgets/animimg/lv_animimg.c ****     lv_obj_t * obj = lv_obj_class_create_obj(&lv_animimg_class, parent);
 191              		.loc 1 61 5 view .LVU47
  61:Drivers/lvgl/src/extra/widgets/animimg/lv_animimg.c ****     lv_obj_t * obj = lv_obj_class_create_obj(&lv_animimg_class, parent);
 192              		.loc 1 61 5 view .LVU48
  61:Drivers/lvgl/src/extra/widgets/animimg/lv_animimg.c ****     lv_obj_t * obj = lv_obj_class_create_obj(&lv_animimg_class, parent);
 193              		.loc 1 61 5 view .LVU49
  62:Drivers/lvgl/src/extra/widgets/animimg/lv_animimg.c ****     lv_obj_class_init_obj(obj);
 194              		.loc 1 62 5 view .LVU50
  60:Drivers/lvgl/src/extra/widgets/animimg/lv_animimg.c ****     LV_LOG_INFO("begin");
 195              		.loc 1 60 1 is_stmt 0 view .LVU51
 196 0000 10B5     		push	{r4, lr}
 197              		.cfi_def_cfa_offset 8
 198              		.cfi_offset 4, -8
 199              		.cfi_offset 14, -4
  60:Drivers/lvgl/src/extra/widgets/animimg/lv_animimg.c ****     LV_LOG_INFO("begin");
 200              		.loc 1 60 1 view .LVU52
 201 0002 0146     		mov	r1, r0
  62:Drivers/lvgl/src/extra/widgets/animimg/lv_animimg.c ****     lv_obj_class_init_obj(obj);
 202              		.loc 1 62 22 view .LVU53
 203 0004 0348     		ldr	r0, .L9
 204              	.LVL12:
  62:Drivers/lvgl/src/extra/widgets/animimg/lv_animimg.c ****     lv_obj_class_init_obj(obj);
 205              		.loc 1 62 22 view .LVU54
ARM GAS  /var/folders/lp/x54gwt890xv47sdkqj1k04q40000gn/T//cctIFidt.s 			page 12


 206 0006 FFF7FEFF 		bl	lv_obj_class_create_obj
 207              	.LVL13:
  62:Drivers/lvgl/src/extra/widgets/animimg/lv_animimg.c ****     lv_obj_class_init_obj(obj);
 208              		.loc 1 62 22 view .LVU55
 209 000a 0446     		mov	r4, r0
 210              	.LVL14:
  63:Drivers/lvgl/src/extra/widgets/animimg/lv_animimg.c ****     return obj;
 211              		.loc 1 63 5 is_stmt 1 view .LVU56
 212 000c FFF7FEFF 		bl	lv_obj_class_init_obj
 213              	.LVL15:
  64:Drivers/lvgl/src/extra/widgets/animimg/lv_animimg.c **** }
 214              		.loc 1 64 5 view .LVU57
  65:Drivers/lvgl/src/extra/widgets/animimg/lv_animimg.c **** 
 215              		.loc 1 65 1 is_stmt 0 view .LVU58
 216 0010 2046     		mov	r0, r4
 217 0012 10BD     		pop	{r4, pc}
 218              	.LVL16:
 219              	.L10:
  65:Drivers/lvgl/src/extra/widgets/animimg/lv_animimg.c **** 
 220              		.loc 1 65 1 view .LVU59
 221              		.align	2
 222              	.L9:
 223 0014 00000000 		.word	lv_animimg_class
 224              		.cfi_endproc
 225              	.LFE204:
 227              		.section	.text.lv_animimg_set_src,"ax",%progbits
 228              		.align	1
 229              		.p2align 2,,3
 230              		.global	lv_animimg_set_src
 231              		.syntax unified
 232              		.thumb
 233              		.thumb_func
 235              	lv_animimg_set_src:
 236              	.LVL17:
 237              	.LFB205:
  68:Drivers/lvgl/src/extra/widgets/animimg/lv_animimg.c ****     LV_ASSERT_OBJ(obj, MY_CLASS);
 238              		.loc 1 68 1 is_stmt 1 view -0
 239              		.cfi_startproc
 240              		@ args = 0, pretend = 0, frame = 0
 241              		@ frame_needed = 0, uses_anonymous_args = 0
 242              		@ link register save eliminated.
  69:Drivers/lvgl/src/extra/widgets/animimg/lv_animimg.c ****     lv_animimg_t * animimg = (lv_animimg_t *)obj;
 243              		.loc 1 69 5 view .LVU61
  69:Drivers/lvgl/src/extra/widgets/animimg/lv_animimg.c ****     lv_animimg_t * animimg = (lv_animimg_t *)obj;
 244              		.loc 1 69 5 view .LVU62
  69:Drivers/lvgl/src/extra/widgets/animimg/lv_animimg.c ****     lv_animimg_t * animimg = (lv_animimg_t *)obj;
 245              		.loc 1 69 5 view .LVU63
  70:Drivers/lvgl/src/extra/widgets/animimg/lv_animimg.c ****     animimg->dsc = dsc;
 246              		.loc 1 70 5 view .LVU64
  71:Drivers/lvgl/src/extra/widgets/animimg/lv_animimg.c ****     animimg->pic_count = num;
 247              		.loc 1 71 5 view .LVU65
 248              	.LBB36:
 249              	.LBB37:
 171:Drivers/lvgl/src/extra/widgets/animimg/../../../../src/misc/lv_anim.h ****     a->current_value = start;
 250              		.loc 2 171 20 is_stmt 0 view .LVU66
 251 0000 0023     		movs	r3, #0
 252 0002 C0E91733 		strd	r3, r3, [r0, #92]
ARM GAS  /var/folders/lp/x54gwt890xv47sdkqj1k04q40000gn/T//cctIFidt.s 			page 13


 253              	.LBE37:
 254              	.LBE36:
  71:Drivers/lvgl/src/extra/widgets/animimg/lv_animimg.c ****     animimg->pic_count = num;
 255              		.loc 1 71 18 view .LVU67
 256 0006 C0F88010 		str	r1, [r0, #128]
  72:Drivers/lvgl/src/extra/widgets/animimg/lv_animimg.c ****     lv_anim_set_values(&animimg->anim, 0, num);
 257              		.loc 1 72 5 is_stmt 1 view .LVU68
  72:Drivers/lvgl/src/extra/widgets/animimg/lv_animimg.c ****     lv_anim_set_values(&animimg->anim, 0, num);
 258              		.loc 1 72 24 is_stmt 0 view .LVU69
 259 000a 80F88420 		strb	r2, [r0, #132]
  73:Drivers/lvgl/src/extra/widgets/animimg/lv_animimg.c **** }
 260              		.loc 1 73 5 is_stmt 1 view .LVU70
 261              	.LVL18:
 262              	.LBB39:
 263              	.LBI36:
 169:Drivers/lvgl/src/extra/widgets/animimg/../../../../src/misc/lv_anim.h **** {
 264              		.loc 2 169 20 view .LVU71
 265              	.LBB38:
 171:Drivers/lvgl/src/extra/widgets/animimg/../../../../src/misc/lv_anim.h ****     a->current_value = start;
 266              		.loc 2 171 5 view .LVU72
 172:Drivers/lvgl/src/extra/widgets/animimg/../../../../src/misc/lv_anim.h ****     a->end_value = end;
 267              		.loc 2 172 5 view .LVU73
 173:Drivers/lvgl/src/extra/widgets/animimg/../../../../src/misc/lv_anim.h **** }
 268              		.loc 2 173 5 view .LVU74
 269              	.LBE38:
 270              	.LBE39:
  73:Drivers/lvgl/src/extra/widgets/animimg/lv_animimg.c **** }
 271              		.loc 1 73 5 is_stmt 0 view .LVU75
 272 000e 4266     		str	r2, [r0, #100]
 273              	.LVL19:
  74:Drivers/lvgl/src/extra/widgets/animimg/lv_animimg.c **** 
 274              		.loc 1 74 1 view .LVU76
 275 0010 7047     		bx	lr
 276              		.cfi_endproc
 277              	.LFE205:
 279 0012 00BF     		.section	.text.lv_animimg_start,"ax",%progbits
 280              		.align	1
 281              		.p2align 2,,3
 282              		.global	lv_animimg_start
 283              		.syntax unified
 284              		.thumb
 285              		.thumb_func
 287              	lv_animimg_start:
 288              	.LVL20:
 289              	.LFB206:
  77:Drivers/lvgl/src/extra/widgets/animimg/lv_animimg.c ****     LV_ASSERT_OBJ(obj, MY_CLASS);
 290              		.loc 1 77 1 is_stmt 1 view -0
 291              		.cfi_startproc
 292              		@ args = 0, pretend = 0, frame = 0
 293              		@ frame_needed = 0, uses_anonymous_args = 0
 294              		@ link register save eliminated.
  78:Drivers/lvgl/src/extra/widgets/animimg/lv_animimg.c ****     lv_animimg_t * animimg = (lv_animimg_t *)obj;
 295              		.loc 1 78 5 view .LVU78
  78:Drivers/lvgl/src/extra/widgets/animimg/lv_animimg.c ****     lv_animimg_t * animimg = (lv_animimg_t *)obj;
 296              		.loc 1 78 5 view .LVU79
  78:Drivers/lvgl/src/extra/widgets/animimg/lv_animimg.c ****     lv_animimg_t * animimg = (lv_animimg_t *)obj;
 297              		.loc 1 78 5 view .LVU80
ARM GAS  /var/folders/lp/x54gwt890xv47sdkqj1k04q40000gn/T//cctIFidt.s 			page 14


  79:Drivers/lvgl/src/extra/widgets/animimg/lv_animimg.c ****     lv_anim_start(&animimg->anim);
 298              		.loc 1 79 5 view .LVU81
  80:Drivers/lvgl/src/extra/widgets/animimg/lv_animimg.c **** }
 299              		.loc 1 80 5 view .LVU82
 300 0000 3C30     		adds	r0, r0, #60
 301              	.LVL21:
  80:Drivers/lvgl/src/extra/widgets/animimg/lv_animimg.c **** }
 302              		.loc 1 80 5 is_stmt 0 view .LVU83
 303 0002 FFF7FEBF 		b	lv_anim_start
 304              	.LVL22:
  80:Drivers/lvgl/src/extra/widgets/animimg/lv_animimg.c **** }
 305              		.loc 1 80 5 view .LVU84
 306              		.cfi_endproc
 307              	.LFE206:
 309 0006 00BF     		.section	.text.lv_animimg_set_duration,"ax",%progbits
 310              		.align	1
 311              		.p2align 2,,3
 312              		.global	lv_animimg_set_duration
 313              		.syntax unified
 314              		.thumb
 315              		.thumb_func
 317              	lv_animimg_set_duration:
 318              	.LVL23:
 319              	.LFB207:
  88:Drivers/lvgl/src/extra/widgets/animimg/lv_animimg.c ****     LV_ASSERT_OBJ(obj, MY_CLASS);
 320              		.loc 1 88 1 is_stmt 1 view -0
 321              		.cfi_startproc
 322              		@ args = 0, pretend = 0, frame = 0
 323              		@ frame_needed = 0, uses_anonymous_args = 0
 324              		@ link register save eliminated.
  89:Drivers/lvgl/src/extra/widgets/animimg/lv_animimg.c ****     lv_animimg_t * animimg = (lv_animimg_t *)obj;
 325              		.loc 1 89 5 view .LVU86
  89:Drivers/lvgl/src/extra/widgets/animimg/lv_animimg.c ****     lv_animimg_t * animimg = (lv_animimg_t *)obj;
 326              		.loc 1 89 5 view .LVU87
  89:Drivers/lvgl/src/extra/widgets/animimg/lv_animimg.c ****     lv_animimg_t * animimg = (lv_animimg_t *)obj;
 327              		.loc 1 89 5 view .LVU88
  90:Drivers/lvgl/src/extra/widgets/animimg/lv_animimg.c ****     lv_anim_set_time(&animimg->anim, duration);
 328              		.loc 1 90 5 view .LVU89
  91:Drivers/lvgl/src/extra/widgets/animimg/lv_animimg.c ****     lv_anim_set_playback_delay(&animimg->anim, duration);
 329              		.loc 1 91 5 view .LVU90
 330              	.LBB40:
 331              	.LBI40:
 148:Drivers/lvgl/src/extra/widgets/animimg/../../../../src/misc/lv_anim.h **** {
 332              		.loc 2 148 20 view .LVU91
 333              	.LBB41:
 150:Drivers/lvgl/src/extra/widgets/animimg/../../../../src/misc/lv_anim.h **** }
 334              		.loc 2 150 5 view .LVU92
 150:Drivers/lvgl/src/extra/widgets/animimg/../../../../src/misc/lv_anim.h **** }
 335              		.loc 2 150 13 is_stmt 0 view .LVU93
 336 0000 8166     		str	r1, [r0, #104]
 337              	.LVL24:
 150:Drivers/lvgl/src/extra/widgets/animimg/../../../../src/misc/lv_anim.h **** }
 338              		.loc 2 150 13 view .LVU94
 339              	.LBE41:
 340              	.LBE40:
  92:Drivers/lvgl/src/extra/widgets/animimg/lv_animimg.c **** }
 341              		.loc 1 92 5 is_stmt 1 view .LVU95
ARM GAS  /var/folders/lp/x54gwt890xv47sdkqj1k04q40000gn/T//cctIFidt.s 			page 15


 342              	.LBB42:
 343              	.LBI42:
 257:Drivers/lvgl/src/extra/widgets/animimg/../../../../src/misc/lv_anim.h **** {
 344              		.loc 2 257 20 view .LVU96
 345              	.LBB43:
 259:Drivers/lvgl/src/extra/widgets/animimg/../../../../src/misc/lv_anim.h **** }
 346              		.loc 2 259 5 view .LVU97
 259:Drivers/lvgl/src/extra/widgets/animimg/../../../../src/misc/lv_anim.h **** }
 347              		.loc 2 259 23 is_stmt 0 view .LVU98
 348 0002 0167     		str	r1, [r0, #112]
 349              	.LVL25:
 259:Drivers/lvgl/src/extra/widgets/animimg/../../../../src/misc/lv_anim.h **** }
 350              		.loc 2 259 23 view .LVU99
 351              	.LBE43:
 352              	.LBE42:
  93:Drivers/lvgl/src/extra/widgets/animimg/lv_animimg.c **** 
 353              		.loc 1 93 1 view .LVU100
 354 0004 7047     		bx	lr
 355              		.cfi_endproc
 356              	.LFE207:
 358 0006 00BF     		.section	.text.lv_animimg_set_repeat_count,"ax",%progbits
 359              		.align	1
 360              		.p2align 2,,3
 361              		.global	lv_animimg_set_repeat_count
 362              		.syntax unified
 363              		.thumb
 364              		.thumb_func
 366              	lv_animimg_set_repeat_count:
 367              	.LVL26:
 368              	.LFB208:
  96:Drivers/lvgl/src/extra/widgets/animimg/lv_animimg.c ****     LV_ASSERT_OBJ(obj, MY_CLASS);
 369              		.loc 1 96 1 is_stmt 1 view -0
 370              		.cfi_startproc
 371              		@ args = 0, pretend = 0, frame = 0
 372              		@ frame_needed = 0, uses_anonymous_args = 0
 373              		@ link register save eliminated.
  97:Drivers/lvgl/src/extra/widgets/animimg/lv_animimg.c ****     lv_animimg_t * animimg = (lv_animimg_t *)obj;
 374              		.loc 1 97 5 view .LVU102
  97:Drivers/lvgl/src/extra/widgets/animimg/lv_animimg.c ****     lv_animimg_t * animimg = (lv_animimg_t *)obj;
 375              		.loc 1 97 5 view .LVU103
  97:Drivers/lvgl/src/extra/widgets/animimg/lv_animimg.c ****     lv_animimg_t * animimg = (lv_animimg_t *)obj;
 376              		.loc 1 97 5 view .LVU104
  98:Drivers/lvgl/src/extra/widgets/animimg/lv_animimg.c ****     lv_anim_set_repeat_count(&animimg->anim, count);
 377              		.loc 1 98 5 view .LVU105
  99:Drivers/lvgl/src/extra/widgets/animimg/lv_animimg.c **** }
 378              		.loc 1 99 5 view .LVU106
 379              	.LBB44:
 380              	.LBI44:
 267:Drivers/lvgl/src/extra/widgets/animimg/../../../../src/misc/lv_anim.h **** {
 381              		.loc 2 267 20 view .LVU107
 382              	.LBB45:
 383              		.loc 2 269 5 view .LVU108
 384              		.loc 2 269 19 is_stmt 0 view .LVU109
 385 0000 A0F87C10 		strh	r1, [r0, #124]	@ movhi
 386              	.LVL27:
 387              		.loc 2 269 19 view .LVU110
 388              	.LBE45:
ARM GAS  /var/folders/lp/x54gwt890xv47sdkqj1k04q40000gn/T//cctIFidt.s 			page 16


 389              	.LBE44:
 100:Drivers/lvgl/src/extra/widgets/animimg/lv_animimg.c **** 
 390              		.loc 1 100 1 view .LVU111
 391 0004 7047     		bx	lr
 392              		.cfi_endproc
 393              	.LFE208:
 395              		.global	lv_animimg_class
 396 0006 00BF     		.section	.rodata.lv_animimg_class,"a"
 397              		.align	2
 400              	lv_animimg_class:
 401 0000 00000000 		.word	lv_img_class
 402 0004 00000000 		.word	lv_animimg_constructor
 403 0008 00000000 		.space	16
 403      00000000 
 403      00000000 
 403      00000000 
 404 0018 80       		.byte	128
 405 0019 08       		.byte	8
 406 001a 00       		.byte	0
 407 001b 00       		.space	1
 408              		.text
 409              	.Letext0:
 410              		.file 3 "/Users/jr/Library/Application Support/Code/User/globalStorage/bmd.stm32-for-vscode/@xpack
 411              		.file 4 "/Users/jr/Library/Application Support/Code/User/globalStorage/bmd.stm32-for-vscode/@xpack
 412              		.file 5 "Drivers/lvgl/src/extra/widgets/animimg/../../../../src/hal/../draw/../misc/../font/../mis
 413              		.file 6 "Drivers/lvgl/src/extra/widgets/animimg/../../../../src/hal/../draw/../misc/lv_color.h"
 414              		.file 7 "Drivers/lvgl/src/extra/widgets/animimg/../../../../src/hal/../draw/../misc/lv_style.h"
 415              		.file 8 "Drivers/lvgl/src/extra/widgets/animimg/../../../../src/core/lv_obj.h"
 416              		.file 9 "Drivers/lvgl/src/extra/widgets/animimg/../../../../src/hal/../misc/lv_ll.h"
 417              		.file 10 "Drivers/lvgl/src/extra/widgets/animimg/../../../../src/core/lv_group.h"
 418              		.file 11 "Drivers/lvgl/src/extra/widgets/animimg/../../../../src/core/lv_obj_scroll.h"
 419              		.file 12 "Drivers/lvgl/src/extra/widgets/animimg/../../../../src/core/lv_obj_style.h"
 420              		.file 13 "Drivers/lvgl/src/extra/widgets/animimg/../../../../src/core/lv_obj_class.h"
 421              		.file 14 "Drivers/lvgl/src/extra/widgets/animimg/../../../../src/core/lv_event.h"
 422              		.file 15 "Drivers/lvgl/src/extra/widgets/animimg/../../../../src/widgets/lv_img.h"
 423              		.file 16 "Drivers/lvgl/src/extra/widgets/animimg/../../../../src/widgets/lv_bar.h"
 424              		.file 17 "Drivers/lvgl/src/extra/widgets/animimg/../../../../src/extra/widgets/imgbtn/lv_imgbtn.h"
 425              		.file 18 "Drivers/lvgl/src/extra/widgets/animimg/lv_animimg.h"
ARM GAS  /var/folders/lp/x54gwt890xv47sdkqj1k04q40000gn/T//cctIFidt.s 			page 17

