ARM GAS  /var/folders/0z/tsy30v1j4xl4_7kw94k978ww0000gn/T//ccKNJMqd.s 			page 1


   1              		.cpu cortex-m4
   2              		.arch armv7e-m
   3              		.fpu fpv4-sp-d16
   4              		.eabi_attribute 27, 1
   5              		.eabi_attribute 28, 1
   6              		.eabi_attribute 23, 1
   7              		.eabi_attribute 24, 1
   8              		.eabi_attribute 25, 1
   9              		.eabi_attribute 26, 1
  10              		.eabi_attribute 30, 2
  11              		.eabi_attribute 34, 1
  12              		.eabi_attribute 18, 4
  13              		.file	"lv_anim_timeline.c"
  14              		.text
  15              	.Ltext0:
  16              		.cfi_sections	.debug_frame
  17              		.section	.text.lv_anim_timeline_virtual_exec_cb,"ax",%progbits
  18              		.align	1
  19              		.p2align 2,,3
  20              		.syntax unified
  21              		.thumb
  22              		.thumb_func
  24              	lv_anim_timeline_virtual_exec_cb:
  25              	.LVL0:
  26              	.LFB31:
  27              		.file 1 "Drivers/lvgl/src/misc/lv_anim_timeline.c"
   1:Drivers/lvgl/src/misc/lv_anim_timeline.c **** /**
   2:Drivers/lvgl/src/misc/lv_anim_timeline.c ****  * @file lv_anim_timeline.c
   3:Drivers/lvgl/src/misc/lv_anim_timeline.c ****  *
   4:Drivers/lvgl/src/misc/lv_anim_timeline.c ****  */
   5:Drivers/lvgl/src/misc/lv_anim_timeline.c **** 
   6:Drivers/lvgl/src/misc/lv_anim_timeline.c **** /*********************
   7:Drivers/lvgl/src/misc/lv_anim_timeline.c ****  *      INCLUDES
   8:Drivers/lvgl/src/misc/lv_anim_timeline.c ****  *********************/
   9:Drivers/lvgl/src/misc/lv_anim_timeline.c **** #include "lv_anim_timeline.h"
  10:Drivers/lvgl/src/misc/lv_anim_timeline.c **** #include "lv_mem.h"
  11:Drivers/lvgl/src/misc/lv_anim_timeline.c **** #include "lv_assert.h"
  12:Drivers/lvgl/src/misc/lv_anim_timeline.c **** 
  13:Drivers/lvgl/src/misc/lv_anim_timeline.c **** /*********************
  14:Drivers/lvgl/src/misc/lv_anim_timeline.c ****  *      DEFINES
  15:Drivers/lvgl/src/misc/lv_anim_timeline.c ****  *********************/
  16:Drivers/lvgl/src/misc/lv_anim_timeline.c **** 
  17:Drivers/lvgl/src/misc/lv_anim_timeline.c **** /**********************
  18:Drivers/lvgl/src/misc/lv_anim_timeline.c ****  *      TYPEDEFS
  19:Drivers/lvgl/src/misc/lv_anim_timeline.c ****  **********************/
  20:Drivers/lvgl/src/misc/lv_anim_timeline.c **** 
  21:Drivers/lvgl/src/misc/lv_anim_timeline.c **** /*Data of anim_timeline_dsc*/
  22:Drivers/lvgl/src/misc/lv_anim_timeline.c **** typedef struct {
  23:Drivers/lvgl/src/misc/lv_anim_timeline.c ****     lv_anim_t anim;
  24:Drivers/lvgl/src/misc/lv_anim_timeline.c ****     uint32_t start_time;
  25:Drivers/lvgl/src/misc/lv_anim_timeline.c **** } lv_anim_timeline_dsc_t;
  26:Drivers/lvgl/src/misc/lv_anim_timeline.c **** 
  27:Drivers/lvgl/src/misc/lv_anim_timeline.c **** /*Data of anim_timeline*/
  28:Drivers/lvgl/src/misc/lv_anim_timeline.c **** struct _lv_anim_timeline_t {
  29:Drivers/lvgl/src/misc/lv_anim_timeline.c ****     lv_anim_timeline_dsc_t * anim_dsc;  /**< Dynamically allocated anim dsc array*/
  30:Drivers/lvgl/src/misc/lv_anim_timeline.c ****     uint32_t anim_dsc_cnt;              /**< The length of anim dsc array*/
  31:Drivers/lvgl/src/misc/lv_anim_timeline.c ****     bool reverse;                       /**< Reverse playback*/
ARM GAS  /var/folders/0z/tsy30v1j4xl4_7kw94k978ww0000gn/T//ccKNJMqd.s 			page 2


  32:Drivers/lvgl/src/misc/lv_anim_timeline.c **** };
  33:Drivers/lvgl/src/misc/lv_anim_timeline.c **** 
  34:Drivers/lvgl/src/misc/lv_anim_timeline.c **** /**********************
  35:Drivers/lvgl/src/misc/lv_anim_timeline.c ****  *  STATIC PROTOTYPES
  36:Drivers/lvgl/src/misc/lv_anim_timeline.c ****  **********************/
  37:Drivers/lvgl/src/misc/lv_anim_timeline.c **** static void lv_anim_timeline_virtual_exec_cb(void * var, int32_t v);
  38:Drivers/lvgl/src/misc/lv_anim_timeline.c **** 
  39:Drivers/lvgl/src/misc/lv_anim_timeline.c **** /**********************
  40:Drivers/lvgl/src/misc/lv_anim_timeline.c ****  *  STATIC VARIABLES
  41:Drivers/lvgl/src/misc/lv_anim_timeline.c ****  **********************/
  42:Drivers/lvgl/src/misc/lv_anim_timeline.c **** 
  43:Drivers/lvgl/src/misc/lv_anim_timeline.c **** /**********************
  44:Drivers/lvgl/src/misc/lv_anim_timeline.c ****  *      MACROS
  45:Drivers/lvgl/src/misc/lv_anim_timeline.c ****  **********************/
  46:Drivers/lvgl/src/misc/lv_anim_timeline.c **** 
  47:Drivers/lvgl/src/misc/lv_anim_timeline.c **** /**********************
  48:Drivers/lvgl/src/misc/lv_anim_timeline.c ****  *   GLOBAL FUNCTIONS
  49:Drivers/lvgl/src/misc/lv_anim_timeline.c ****  **********************/
  50:Drivers/lvgl/src/misc/lv_anim_timeline.c **** 
  51:Drivers/lvgl/src/misc/lv_anim_timeline.c **** lv_anim_timeline_t * lv_anim_timeline_create(void)
  52:Drivers/lvgl/src/misc/lv_anim_timeline.c **** {
  53:Drivers/lvgl/src/misc/lv_anim_timeline.c ****     lv_anim_timeline_t * at = (lv_anim_timeline_t *)lv_mem_alloc(sizeof(lv_anim_timeline_t));
  54:Drivers/lvgl/src/misc/lv_anim_timeline.c **** 
  55:Drivers/lvgl/src/misc/lv_anim_timeline.c ****     LV_ASSERT_MALLOC(at);
  56:Drivers/lvgl/src/misc/lv_anim_timeline.c **** 
  57:Drivers/lvgl/src/misc/lv_anim_timeline.c ****     if(at) lv_memset_00(at, sizeof(lv_anim_timeline_t));
  58:Drivers/lvgl/src/misc/lv_anim_timeline.c **** 
  59:Drivers/lvgl/src/misc/lv_anim_timeline.c ****     return at;
  60:Drivers/lvgl/src/misc/lv_anim_timeline.c **** }
  61:Drivers/lvgl/src/misc/lv_anim_timeline.c **** 
  62:Drivers/lvgl/src/misc/lv_anim_timeline.c **** void lv_anim_timeline_del(lv_anim_timeline_t * at)
  63:Drivers/lvgl/src/misc/lv_anim_timeline.c **** {
  64:Drivers/lvgl/src/misc/lv_anim_timeline.c ****     LV_ASSERT_NULL(at);
  65:Drivers/lvgl/src/misc/lv_anim_timeline.c **** 
  66:Drivers/lvgl/src/misc/lv_anim_timeline.c ****     lv_anim_timeline_stop(at);
  67:Drivers/lvgl/src/misc/lv_anim_timeline.c **** 
  68:Drivers/lvgl/src/misc/lv_anim_timeline.c ****     lv_mem_free(at->anim_dsc);
  69:Drivers/lvgl/src/misc/lv_anim_timeline.c ****     lv_mem_free(at);
  70:Drivers/lvgl/src/misc/lv_anim_timeline.c **** }
  71:Drivers/lvgl/src/misc/lv_anim_timeline.c **** 
  72:Drivers/lvgl/src/misc/lv_anim_timeline.c **** void lv_anim_timeline_add(lv_anim_timeline_t * at, uint32_t start_time, lv_anim_t * a)
  73:Drivers/lvgl/src/misc/lv_anim_timeline.c **** {
  74:Drivers/lvgl/src/misc/lv_anim_timeline.c ****     LV_ASSERT_NULL(at);
  75:Drivers/lvgl/src/misc/lv_anim_timeline.c **** 
  76:Drivers/lvgl/src/misc/lv_anim_timeline.c ****     at->anim_dsc_cnt++;
  77:Drivers/lvgl/src/misc/lv_anim_timeline.c ****     at->anim_dsc = lv_mem_realloc(at->anim_dsc, at->anim_dsc_cnt * sizeof(lv_anim_timeline_dsc_t));
  78:Drivers/lvgl/src/misc/lv_anim_timeline.c **** 
  79:Drivers/lvgl/src/misc/lv_anim_timeline.c ****     LV_ASSERT_MALLOC(at->anim_dsc);
  80:Drivers/lvgl/src/misc/lv_anim_timeline.c **** 
  81:Drivers/lvgl/src/misc/lv_anim_timeline.c ****     at->anim_dsc[at->anim_dsc_cnt - 1].anim = *a;
  82:Drivers/lvgl/src/misc/lv_anim_timeline.c ****     at->anim_dsc[at->anim_dsc_cnt - 1].start_time = start_time;
  83:Drivers/lvgl/src/misc/lv_anim_timeline.c **** 
  84:Drivers/lvgl/src/misc/lv_anim_timeline.c ****     /*Add default var and virtual exec_cb, used to delete animation.*/
  85:Drivers/lvgl/src/misc/lv_anim_timeline.c ****     if(a->var == NULL && a->exec_cb == NULL) {
  86:Drivers/lvgl/src/misc/lv_anim_timeline.c ****         at->anim_dsc[at->anim_dsc_cnt - 1].anim.var = at;
  87:Drivers/lvgl/src/misc/lv_anim_timeline.c ****         at->anim_dsc[at->anim_dsc_cnt - 1].anim.exec_cb = lv_anim_timeline_virtual_exec_cb;
  88:Drivers/lvgl/src/misc/lv_anim_timeline.c ****     }
ARM GAS  /var/folders/0z/tsy30v1j4xl4_7kw94k978ww0000gn/T//ccKNJMqd.s 			page 3


  89:Drivers/lvgl/src/misc/lv_anim_timeline.c **** }
  90:Drivers/lvgl/src/misc/lv_anim_timeline.c **** 
  91:Drivers/lvgl/src/misc/lv_anim_timeline.c **** uint32_t lv_anim_timeline_start(lv_anim_timeline_t * at)
  92:Drivers/lvgl/src/misc/lv_anim_timeline.c **** {
  93:Drivers/lvgl/src/misc/lv_anim_timeline.c ****     LV_ASSERT_NULL(at);
  94:Drivers/lvgl/src/misc/lv_anim_timeline.c **** 
  95:Drivers/lvgl/src/misc/lv_anim_timeline.c ****     const uint32_t playtime = lv_anim_timeline_get_playtime(at);
  96:Drivers/lvgl/src/misc/lv_anim_timeline.c ****     bool reverse = at->reverse;
  97:Drivers/lvgl/src/misc/lv_anim_timeline.c **** 
  98:Drivers/lvgl/src/misc/lv_anim_timeline.c ****     for(uint32_t i = 0; i < at->anim_dsc_cnt; i++) {
  99:Drivers/lvgl/src/misc/lv_anim_timeline.c ****         lv_anim_t a = at->anim_dsc[i].anim;
 100:Drivers/lvgl/src/misc/lv_anim_timeline.c ****         uint32_t start_time = at->anim_dsc[i].start_time;
 101:Drivers/lvgl/src/misc/lv_anim_timeline.c **** 
 102:Drivers/lvgl/src/misc/lv_anim_timeline.c ****         if(reverse) {
 103:Drivers/lvgl/src/misc/lv_anim_timeline.c ****             int32_t temp = a.start_value;
 104:Drivers/lvgl/src/misc/lv_anim_timeline.c ****             a.start_value = a.end_value;
 105:Drivers/lvgl/src/misc/lv_anim_timeline.c ****             a.end_value = temp;
 106:Drivers/lvgl/src/misc/lv_anim_timeline.c ****             lv_anim_set_delay(&a, playtime - (start_time + a.time));
 107:Drivers/lvgl/src/misc/lv_anim_timeline.c ****         }
 108:Drivers/lvgl/src/misc/lv_anim_timeline.c ****         else {
 109:Drivers/lvgl/src/misc/lv_anim_timeline.c ****             lv_anim_set_delay(&a, start_time);
 110:Drivers/lvgl/src/misc/lv_anim_timeline.c ****         }
 111:Drivers/lvgl/src/misc/lv_anim_timeline.c **** 
 112:Drivers/lvgl/src/misc/lv_anim_timeline.c ****         lv_anim_start(&a);
 113:Drivers/lvgl/src/misc/lv_anim_timeline.c ****     }
 114:Drivers/lvgl/src/misc/lv_anim_timeline.c **** 
 115:Drivers/lvgl/src/misc/lv_anim_timeline.c ****     return playtime;
 116:Drivers/lvgl/src/misc/lv_anim_timeline.c **** }
 117:Drivers/lvgl/src/misc/lv_anim_timeline.c **** 
 118:Drivers/lvgl/src/misc/lv_anim_timeline.c **** void lv_anim_timeline_stop(lv_anim_timeline_t * at)
 119:Drivers/lvgl/src/misc/lv_anim_timeline.c **** {
 120:Drivers/lvgl/src/misc/lv_anim_timeline.c ****     LV_ASSERT_NULL(at);
 121:Drivers/lvgl/src/misc/lv_anim_timeline.c **** 
 122:Drivers/lvgl/src/misc/lv_anim_timeline.c ****     for(uint32_t i = 0; i < at->anim_dsc_cnt; i++) {
 123:Drivers/lvgl/src/misc/lv_anim_timeline.c ****         lv_anim_t * a = &(at->anim_dsc[i].anim);
 124:Drivers/lvgl/src/misc/lv_anim_timeline.c ****         lv_anim_del(a->var, a->exec_cb);
 125:Drivers/lvgl/src/misc/lv_anim_timeline.c ****     }
 126:Drivers/lvgl/src/misc/lv_anim_timeline.c **** }
 127:Drivers/lvgl/src/misc/lv_anim_timeline.c **** 
 128:Drivers/lvgl/src/misc/lv_anim_timeline.c **** void lv_anim_timeline_set_reverse(lv_anim_timeline_t * at, bool reverse)
 129:Drivers/lvgl/src/misc/lv_anim_timeline.c **** {
 130:Drivers/lvgl/src/misc/lv_anim_timeline.c ****     LV_ASSERT_NULL(at);
 131:Drivers/lvgl/src/misc/lv_anim_timeline.c ****     at->reverse = reverse;
 132:Drivers/lvgl/src/misc/lv_anim_timeline.c **** }
 133:Drivers/lvgl/src/misc/lv_anim_timeline.c **** 
 134:Drivers/lvgl/src/misc/lv_anim_timeline.c **** void lv_anim_timeline_set_progress(lv_anim_timeline_t * at, uint16_t progress)
 135:Drivers/lvgl/src/misc/lv_anim_timeline.c **** {
 136:Drivers/lvgl/src/misc/lv_anim_timeline.c ****     LV_ASSERT_NULL(at);
 137:Drivers/lvgl/src/misc/lv_anim_timeline.c **** 
 138:Drivers/lvgl/src/misc/lv_anim_timeline.c ****     const uint32_t playtime = lv_anim_timeline_get_playtime(at);
 139:Drivers/lvgl/src/misc/lv_anim_timeline.c ****     const uint32_t act_time = progress * playtime / 0xFFFF;
 140:Drivers/lvgl/src/misc/lv_anim_timeline.c **** 
 141:Drivers/lvgl/src/misc/lv_anim_timeline.c ****     for(uint32_t i = 0; i < at->anim_dsc_cnt; i++) {
 142:Drivers/lvgl/src/misc/lv_anim_timeline.c ****         lv_anim_t * a = &(at->anim_dsc[i].anim);
 143:Drivers/lvgl/src/misc/lv_anim_timeline.c **** 
 144:Drivers/lvgl/src/misc/lv_anim_timeline.c ****         if(a->exec_cb == NULL) {
 145:Drivers/lvgl/src/misc/lv_anim_timeline.c ****             continue;
ARM GAS  /var/folders/0z/tsy30v1j4xl4_7kw94k978ww0000gn/T//ccKNJMqd.s 			page 4


 146:Drivers/lvgl/src/misc/lv_anim_timeline.c ****         }
 147:Drivers/lvgl/src/misc/lv_anim_timeline.c **** 
 148:Drivers/lvgl/src/misc/lv_anim_timeline.c ****         uint32_t start_time = at->anim_dsc[i].start_time;
 149:Drivers/lvgl/src/misc/lv_anim_timeline.c ****         int32_t value = 0;
 150:Drivers/lvgl/src/misc/lv_anim_timeline.c **** 
 151:Drivers/lvgl/src/misc/lv_anim_timeline.c ****         if(act_time < start_time) {
 152:Drivers/lvgl/src/misc/lv_anim_timeline.c ****             value = a->start_value;
 153:Drivers/lvgl/src/misc/lv_anim_timeline.c ****         }
 154:Drivers/lvgl/src/misc/lv_anim_timeline.c ****         else if(act_time < (start_time + a->time)) {
 155:Drivers/lvgl/src/misc/lv_anim_timeline.c ****             a->act_time = act_time - start_time;
 156:Drivers/lvgl/src/misc/lv_anim_timeline.c ****             value = a->path_cb(a);
 157:Drivers/lvgl/src/misc/lv_anim_timeline.c ****         }
 158:Drivers/lvgl/src/misc/lv_anim_timeline.c ****         else {
 159:Drivers/lvgl/src/misc/lv_anim_timeline.c ****             value = a->end_value;
 160:Drivers/lvgl/src/misc/lv_anim_timeline.c ****         }
 161:Drivers/lvgl/src/misc/lv_anim_timeline.c **** 
 162:Drivers/lvgl/src/misc/lv_anim_timeline.c ****         a->exec_cb(a->var, value);
 163:Drivers/lvgl/src/misc/lv_anim_timeline.c ****     }
 164:Drivers/lvgl/src/misc/lv_anim_timeline.c **** }
 165:Drivers/lvgl/src/misc/lv_anim_timeline.c **** 
 166:Drivers/lvgl/src/misc/lv_anim_timeline.c **** uint32_t lv_anim_timeline_get_playtime(lv_anim_timeline_t * at)
 167:Drivers/lvgl/src/misc/lv_anim_timeline.c **** {
 168:Drivers/lvgl/src/misc/lv_anim_timeline.c ****     LV_ASSERT_NULL(at);
 169:Drivers/lvgl/src/misc/lv_anim_timeline.c **** 
 170:Drivers/lvgl/src/misc/lv_anim_timeline.c ****     uint32_t playtime = 0;
 171:Drivers/lvgl/src/misc/lv_anim_timeline.c ****     for(uint32_t i = 0; i < at->anim_dsc_cnt; i++) {
 172:Drivers/lvgl/src/misc/lv_anim_timeline.c ****         uint32_t end = lv_anim_get_playtime(&at->anim_dsc[i].anim);
 173:Drivers/lvgl/src/misc/lv_anim_timeline.c ****         if(end == LV_ANIM_PLAYTIME_INFINITE)
 174:Drivers/lvgl/src/misc/lv_anim_timeline.c ****             return end;
 175:Drivers/lvgl/src/misc/lv_anim_timeline.c ****         end += at->anim_dsc[i].start_time;
 176:Drivers/lvgl/src/misc/lv_anim_timeline.c ****         if(end > playtime) {
 177:Drivers/lvgl/src/misc/lv_anim_timeline.c ****             playtime = end;
 178:Drivers/lvgl/src/misc/lv_anim_timeline.c ****         }
 179:Drivers/lvgl/src/misc/lv_anim_timeline.c ****     }
 180:Drivers/lvgl/src/misc/lv_anim_timeline.c **** 
 181:Drivers/lvgl/src/misc/lv_anim_timeline.c ****     return playtime;
 182:Drivers/lvgl/src/misc/lv_anim_timeline.c **** }
 183:Drivers/lvgl/src/misc/lv_anim_timeline.c **** 
 184:Drivers/lvgl/src/misc/lv_anim_timeline.c **** bool lv_anim_timeline_get_reverse(lv_anim_timeline_t * at)
 185:Drivers/lvgl/src/misc/lv_anim_timeline.c **** {
 186:Drivers/lvgl/src/misc/lv_anim_timeline.c ****     LV_ASSERT_NULL(at);
 187:Drivers/lvgl/src/misc/lv_anim_timeline.c ****     return at->reverse;
 188:Drivers/lvgl/src/misc/lv_anim_timeline.c **** }
 189:Drivers/lvgl/src/misc/lv_anim_timeline.c **** 
 190:Drivers/lvgl/src/misc/lv_anim_timeline.c **** /**********************
 191:Drivers/lvgl/src/misc/lv_anim_timeline.c ****  *   STATIC FUNCTIONS
 192:Drivers/lvgl/src/misc/lv_anim_timeline.c ****  **********************/
 193:Drivers/lvgl/src/misc/lv_anim_timeline.c **** 
 194:Drivers/lvgl/src/misc/lv_anim_timeline.c **** static void lv_anim_timeline_virtual_exec_cb(void * var, int32_t v)
 195:Drivers/lvgl/src/misc/lv_anim_timeline.c **** {
  28              		.loc 1 195 1 view -0
  29              		.cfi_startproc
  30              		@ args = 0, pretend = 0, frame = 0
  31              		@ frame_needed = 0, uses_anonymous_args = 0
  32              		@ link register save eliminated.
 196:Drivers/lvgl/src/misc/lv_anim_timeline.c ****     LV_UNUSED(var);
  33              		.loc 1 196 5 view .LVU1
ARM GAS  /var/folders/0z/tsy30v1j4xl4_7kw94k978ww0000gn/T//ccKNJMqd.s 			page 5


 197:Drivers/lvgl/src/misc/lv_anim_timeline.c ****     LV_UNUSED(v);
  34              		.loc 1 197 5 view .LVU2
 198:Drivers/lvgl/src/misc/lv_anim_timeline.c **** }
  35              		.loc 1 198 1 is_stmt 0 view .LVU3
  36 0000 7047     		bx	lr
  37              		.cfi_endproc
  38              	.LFE31:
  40 0002 00BF     		.section	.text.lv_anim_timeline_create,"ax",%progbits
  41              		.align	1
  42              		.p2align 2,,3
  43              		.global	lv_anim_timeline_create
  44              		.syntax unified
  45              		.thumb
  46              		.thumb_func
  48              	lv_anim_timeline_create:
  49              	.LFB22:
  52:Drivers/lvgl/src/misc/lv_anim_timeline.c ****     lv_anim_timeline_t * at = (lv_anim_timeline_t *)lv_mem_alloc(sizeof(lv_anim_timeline_t));
  50              		.loc 1 52 1 is_stmt 1 view -0
  51              		.cfi_startproc
  52              		@ args = 0, pretend = 0, frame = 0
  53              		@ frame_needed = 0, uses_anonymous_args = 0
  53:Drivers/lvgl/src/misc/lv_anim_timeline.c **** 
  54              		.loc 1 53 5 view .LVU5
  52:Drivers/lvgl/src/misc/lv_anim_timeline.c ****     lv_anim_timeline_t * at = (lv_anim_timeline_t *)lv_mem_alloc(sizeof(lv_anim_timeline_t));
  55              		.loc 1 52 1 is_stmt 0 view .LVU6
  56 0000 10B5     		push	{r4, lr}
  57              		.cfi_def_cfa_offset 8
  58              		.cfi_offset 4, -8
  59              		.cfi_offset 14, -4
  53:Drivers/lvgl/src/misc/lv_anim_timeline.c **** 
  60              		.loc 1 53 53 view .LVU7
  61 0002 0C20     		movs	r0, #12
  62 0004 FFF7FEFF 		bl	lv_mem_alloc
  63              	.LVL1:
  55:Drivers/lvgl/src/misc/lv_anim_timeline.c **** 
  64              		.loc 1 55 5 is_stmt 1 view .LVU8
  55:Drivers/lvgl/src/misc/lv_anim_timeline.c **** 
  65              		.loc 1 55 5 view .LVU9
  66 0008 28B1     		cbz	r0, .L5
  67 000a 0446     		mov	r4, r0
  55:Drivers/lvgl/src/misc/lv_anim_timeline.c **** 
  68              		.loc 1 55 5 discriminator 1 view .LVU10
  55:Drivers/lvgl/src/misc/lv_anim_timeline.c **** 
  69              		.loc 1 55 25 discriminator 1 view .LVU11
  57:Drivers/lvgl/src/misc/lv_anim_timeline.c **** 
  70              		.loc 1 57 5 discriminator 1 view .LVU12
  57:Drivers/lvgl/src/misc/lv_anim_timeline.c **** 
  71              		.loc 1 57 12 discriminator 1 view .LVU13
  72 000c 0C21     		movs	r1, #12
  73 000e FFF7FEFF 		bl	lv_memset_00
  74              	.LVL2:
  59:Drivers/lvgl/src/misc/lv_anim_timeline.c **** }
  75              		.loc 1 59 5 discriminator 1 view .LVU14
  60:Drivers/lvgl/src/misc/lv_anim_timeline.c **** 
  76              		.loc 1 60 1 is_stmt 0 discriminator 1 view .LVU15
  77 0012 2046     		mov	r0, r4
  78 0014 10BD     		pop	{r4, pc}
ARM GAS  /var/folders/0z/tsy30v1j4xl4_7kw94k978ww0000gn/T//ccKNJMqd.s 			page 6


  79              	.LVL3:
  80              	.L5:
  55:Drivers/lvgl/src/misc/lv_anim_timeline.c **** 
  81              		.loc 1 55 5 is_stmt 1 discriminator 1 view .LVU16
  55:Drivers/lvgl/src/misc/lv_anim_timeline.c **** 
  82              		.loc 1 55 5 discriminator 1 view .LVU17
  55:Drivers/lvgl/src/misc/lv_anim_timeline.c **** 
  83              		.loc 1 55 5 discriminator 1 view .LVU18
  55:Drivers/lvgl/src/misc/lv_anim_timeline.c **** 
  84              		.loc 1 55 5 discriminator 1 view .LVU19
  55:Drivers/lvgl/src/misc/lv_anim_timeline.c **** 
  85              		.loc 1 55 5 discriminator 1 view .LVU20
  55:Drivers/lvgl/src/misc/lv_anim_timeline.c **** 
  86              		.loc 1 55 5 discriminator 1 view .LVU21
  55:Drivers/lvgl/src/misc/lv_anim_timeline.c **** 
  87              		.loc 1 55 5 discriminator 1 view .LVU22
  55:Drivers/lvgl/src/misc/lv_anim_timeline.c **** 
  88              		.loc 1 55 5 discriminator 1 view .LVU23
  55:Drivers/lvgl/src/misc/lv_anim_timeline.c **** 
  89              		.loc 1 55 5 discriminator 1 view .LVU24
  55:Drivers/lvgl/src/misc/lv_anim_timeline.c **** 
  90              		.loc 1 55 5 discriminator 1 view .LVU25
  91 0016 FEE7     		b	.L5
  92              		.cfi_endproc
  93              	.LFE22:
  95              		.section	.text.lv_anim_timeline_del,"ax",%progbits
  96              		.align	1
  97              		.p2align 2,,3
  98              		.global	lv_anim_timeline_del
  99              		.syntax unified
 100              		.thumb
 101              		.thumb_func
 103              	lv_anim_timeline_del:
 104              	.LVL4:
 105              	.LFB23:
  63:Drivers/lvgl/src/misc/lv_anim_timeline.c ****     LV_ASSERT_NULL(at);
 106              		.loc 1 63 1 view -0
 107              		.cfi_startproc
 108              		@ args = 0, pretend = 0, frame = 0
 109              		@ frame_needed = 0, uses_anonymous_args = 0
  64:Drivers/lvgl/src/misc/lv_anim_timeline.c **** 
 110              		.loc 1 64 5 view .LVU27
  64:Drivers/lvgl/src/misc/lv_anim_timeline.c **** 
 111              		.loc 1 64 5 view .LVU28
 112 0000 C8B1     		cbz	r0, .L8
 113              	.LVL5:
 114              	.LBB30:
 115              	.LBB31:
 116              	.LBB32:
 122:Drivers/lvgl/src/misc/lv_anim_timeline.c ****         lv_anim_t * a = &(at->anim_dsc[i].anim);
 117              		.loc 1 122 27 view .LVU29
 118 0002 4368     		ldr	r3, [r0, #4]
 119              	.LBE32:
 120              	.LBE31:
 121              	.LBE30:
  63:Drivers/lvgl/src/misc/lv_anim_timeline.c ****     LV_ASSERT_NULL(at);
 122              		.loc 1 63 1 is_stmt 0 view .LVU30
ARM GAS  /var/folders/0z/tsy30v1j4xl4_7kw94k978ww0000gn/T//ccKNJMqd.s 			page 7


 123 0004 70B5     		push	{r4, r5, r6, lr}
 124              		.cfi_def_cfa_offset 16
 125              		.cfi_offset 4, -16
 126              		.cfi_offset 5, -12
 127              		.cfi_offset 6, -8
 128              		.cfi_offset 14, -4
 129 0006 0546     		mov	r5, r0
 130              	.LBB36:
 131              	.LBB35:
 132              	.LBB34:
 122:Drivers/lvgl/src/misc/lv_anim_timeline.c ****         lv_anim_t * a = &(at->anim_dsc[i].anim);
 133              		.loc 1 122 27 view .LVU31
 134 0008 6BB1     		cbz	r3, .L10
 135 000a 0024     		movs	r4, #0
 122:Drivers/lvgl/src/misc/lv_anim_timeline.c ****         lv_anim_t * a = &(at->anim_dsc[i].anim);
 136              		.loc 1 122 18 view .LVU32
 137 000c 2646     		mov	r6, r4
 138              	.LVL6:
 139              	.L9:
 140              	.LBB33:
 123:Drivers/lvgl/src/misc/lv_anim_timeline.c ****         lv_anim_del(a->var, a->exec_cb);
 141              		.loc 1 123 9 is_stmt 1 view .LVU33
 123:Drivers/lvgl/src/misc/lv_anim_timeline.c ****         lv_anim_del(a->var, a->exec_cb);
 142              		.loc 1 123 39 is_stmt 0 view .LVU34
 143 000e 2B68     		ldr	r3, [r5]
 144 0010 1A19     		adds	r2, r3, r4
 145              	.LVL7:
 124:Drivers/lvgl/src/misc/lv_anim_timeline.c ****     }
 146              		.loc 1 124 9 is_stmt 1 view .LVU35
 147 0012 1859     		ldr	r0, [r3, r4]
 148 0014 5168     		ldr	r1, [r2, #4]
 149 0016 FFF7FEFF 		bl	lv_anim_del
 150              	.LVL8:
 124:Drivers/lvgl/src/misc/lv_anim_timeline.c ****     }
 151              		.loc 1 124 9 is_stmt 0 view .LVU36
 152              	.LBE33:
 122:Drivers/lvgl/src/misc/lv_anim_timeline.c ****         lv_anim_t * a = &(at->anim_dsc[i].anim);
 153              		.loc 1 122 48 is_stmt 1 view .LVU37
 122:Drivers/lvgl/src/misc/lv_anim_timeline.c ****         lv_anim_t * a = &(at->anim_dsc[i].anim);
 154              		.loc 1 122 27 is_stmt 0 view .LVU38
 155 001a 6B68     		ldr	r3, [r5, #4]
 122:Drivers/lvgl/src/misc/lv_anim_timeline.c ****         lv_anim_t * a = &(at->anim_dsc[i].anim);
 156              		.loc 1 122 48 view .LVU39
 157 001c 0136     		adds	r6, r6, #1
 158              	.LVL9:
 122:Drivers/lvgl/src/misc/lv_anim_timeline.c ****         lv_anim_t * a = &(at->anim_dsc[i].anim);
 159              		.loc 1 122 27 is_stmt 1 view .LVU40
 160 001e 9E42     		cmp	r6, r3
 161 0020 04F14804 		add	r4, r4, #72
 162 0024 F3D3     		bcc	.L9
 163              	.LVL10:
 164              	.L10:
 122:Drivers/lvgl/src/misc/lv_anim_timeline.c ****         lv_anim_t * a = &(at->anim_dsc[i].anim);
 165              		.loc 1 122 27 is_stmt 0 view .LVU41
 166              	.LBE34:
 167              	.LBE35:
 168              	.LBE36:
ARM GAS  /var/folders/0z/tsy30v1j4xl4_7kw94k978ww0000gn/T//ccKNJMqd.s 			page 8


  68:Drivers/lvgl/src/misc/lv_anim_timeline.c ****     lv_mem_free(at);
 169              		.loc 1 68 5 is_stmt 1 view .LVU42
 170 0026 2868     		ldr	r0, [r5]
 171 0028 FFF7FEFF 		bl	lv_mem_free
 172              	.LVL11:
  69:Drivers/lvgl/src/misc/lv_anim_timeline.c **** }
 173              		.loc 1 69 5 view .LVU43
 174 002c 2846     		mov	r0, r5
  70:Drivers/lvgl/src/misc/lv_anim_timeline.c **** 
 175              		.loc 1 70 1 is_stmt 0 view .LVU44
 176 002e BDE87040 		pop	{r4, r5, r6, lr}
 177              		.cfi_restore 14
 178              		.cfi_restore 6
 179              		.cfi_restore 5
 180              		.cfi_restore 4
 181              		.cfi_def_cfa_offset 0
 182              	.LVL12:
  69:Drivers/lvgl/src/misc/lv_anim_timeline.c **** }
 183              		.loc 1 69 5 view .LVU45
 184 0032 FFF7FEBF 		b	lv_mem_free
 185              	.LVL13:
 186              	.L8:
  64:Drivers/lvgl/src/misc/lv_anim_timeline.c **** 
 187              		.loc 1 64 5 is_stmt 1 discriminator 1 view .LVU46
  64:Drivers/lvgl/src/misc/lv_anim_timeline.c **** 
 188              		.loc 1 64 5 discriminator 1 view .LVU47
  64:Drivers/lvgl/src/misc/lv_anim_timeline.c **** 
 189              		.loc 1 64 5 discriminator 1 view .LVU48
  64:Drivers/lvgl/src/misc/lv_anim_timeline.c **** 
 190              		.loc 1 64 5 discriminator 1 view .LVU49
  64:Drivers/lvgl/src/misc/lv_anim_timeline.c **** 
 191              		.loc 1 64 5 discriminator 1 view .LVU50
  64:Drivers/lvgl/src/misc/lv_anim_timeline.c **** 
 192              		.loc 1 64 5 discriminator 1 view .LVU51
  64:Drivers/lvgl/src/misc/lv_anim_timeline.c **** 
 193              		.loc 1 64 5 discriminator 1 view .LVU52
  64:Drivers/lvgl/src/misc/lv_anim_timeline.c **** 
 194              		.loc 1 64 5 discriminator 1 view .LVU53
  64:Drivers/lvgl/src/misc/lv_anim_timeline.c **** 
 195              		.loc 1 64 5 discriminator 1 view .LVU54
  64:Drivers/lvgl/src/misc/lv_anim_timeline.c **** 
 196              		.loc 1 64 5 discriminator 1 view .LVU55
 197 0036 FEE7     		b	.L8
 198              		.cfi_endproc
 199              	.LFE23:
 201              		.section	.text.lv_anim_timeline_add,"ax",%progbits
 202              		.align	1
 203              		.p2align 2,,3
 204              		.global	lv_anim_timeline_add
 205              		.syntax unified
 206              		.thumb
 207              		.thumb_func
 209              	lv_anim_timeline_add:
 210              	.LVL14:
 211              	.LFB24:
  73:Drivers/lvgl/src/misc/lv_anim_timeline.c ****     LV_ASSERT_NULL(at);
 212              		.loc 1 73 1 view -0
ARM GAS  /var/folders/0z/tsy30v1j4xl4_7kw94k978ww0000gn/T//ccKNJMqd.s 			page 9


 213              		.cfi_startproc
 214              		@ args = 0, pretend = 0, frame = 0
 215              		@ frame_needed = 0, uses_anonymous_args = 0
  74:Drivers/lvgl/src/misc/lv_anim_timeline.c **** 
 216              		.loc 1 74 5 view .LVU57
  74:Drivers/lvgl/src/misc/lv_anim_timeline.c **** 
 217              		.loc 1 74 5 view .LVU58
 218 0000 00B3     		cbz	r0, .L20
  74:Drivers/lvgl/src/misc/lv_anim_timeline.c **** 
 219              		.loc 1 74 5 discriminator 2 view .LVU59
  74:Drivers/lvgl/src/misc/lv_anim_timeline.c **** 
 220              		.loc 1 74 23 discriminator 2 view .LVU60
  76:Drivers/lvgl/src/misc/lv_anim_timeline.c ****     at->anim_dsc = lv_mem_realloc(at->anim_dsc, at->anim_dsc_cnt * sizeof(lv_anim_timeline_dsc_t));
 221              		.loc 1 76 5 discriminator 2 view .LVU61
  76:Drivers/lvgl/src/misc/lv_anim_timeline.c ****     at->anim_dsc = lv_mem_realloc(at->anim_dsc, at->anim_dsc_cnt * sizeof(lv_anim_timeline_dsc_t));
 222              		.loc 1 76 21 is_stmt 0 discriminator 2 view .LVU62
 223 0002 4368     		ldr	r3, [r0, #4]
 224 0004 0133     		adds	r3, r3, #1
  73:Drivers/lvgl/src/misc/lv_anim_timeline.c ****     LV_ASSERT_NULL(at);
 225              		.loc 1 73 1 discriminator 2 view .LVU63
 226 0006 2DE9F041 		push	{r4, r5, r6, r7, r8, lr}
 227              		.cfi_def_cfa_offset 24
 228              		.cfi_offset 4, -24
 229              		.cfi_offset 5, -20
 230              		.cfi_offset 6, -16
 231              		.cfi_offset 7, -12
 232              		.cfi_offset 8, -8
 233              		.cfi_offset 14, -4
 234 000a 0F46     		mov	r7, r1
  77:Drivers/lvgl/src/misc/lv_anim_timeline.c **** 
 235              		.loc 1 77 66 discriminator 2 view .LVU64
 236 000c 03EBC301 		add	r1, r3, r3, lsl #3
 237              	.LVL15:
  77:Drivers/lvgl/src/misc/lv_anim_timeline.c **** 
 238              		.loc 1 77 66 discriminator 2 view .LVU65
 239 0010 0446     		mov	r4, r0
  76:Drivers/lvgl/src/misc/lv_anim_timeline.c ****     at->anim_dsc = lv_mem_realloc(at->anim_dsc, at->anim_dsc_cnt * sizeof(lv_anim_timeline_dsc_t));
 240              		.loc 1 76 21 discriminator 2 view .LVU66
 241 0012 4360     		str	r3, [r0, #4]
  77:Drivers/lvgl/src/misc/lv_anim_timeline.c **** 
 242              		.loc 1 77 5 is_stmt 1 discriminator 2 view .LVU67
  77:Drivers/lvgl/src/misc/lv_anim_timeline.c **** 
 243              		.loc 1 77 20 is_stmt 0 discriminator 2 view .LVU68
 244 0014 C900     		lsls	r1, r1, #3
 245 0016 0068     		ldr	r0, [r0]
 246              	.LVL16:
  77:Drivers/lvgl/src/misc/lv_anim_timeline.c **** 
 247              		.loc 1 77 20 discriminator 2 view .LVU69
 248 0018 1546     		mov	r5, r2
 249 001a FFF7FEFF 		bl	lv_mem_realloc
 250              	.LVL17:
  77:Drivers/lvgl/src/misc/lv_anim_timeline.c **** 
 251              		.loc 1 77 20 discriminator 2 view .LVU70
 252 001e 8046     		mov	r8, r0
  77:Drivers/lvgl/src/misc/lv_anim_timeline.c **** 
 253              		.loc 1 77 18 discriminator 2 view .LVU71
 254 0020 2060     		str	r0, [r4]
ARM GAS  /var/folders/0z/tsy30v1j4xl4_7kw94k978ww0000gn/T//ccKNJMqd.s 			page 10


  79:Drivers/lvgl/src/misc/lv_anim_timeline.c **** 
 255              		.loc 1 79 5 is_stmt 1 discriminator 2 view .LVU72
  79:Drivers/lvgl/src/misc/lv_anim_timeline.c **** 
 256              		.loc 1 79 5 discriminator 2 view .LVU73
 257 0022 80B1     		cbz	r0, .L22
  79:Drivers/lvgl/src/misc/lv_anim_timeline.c **** 
 258              		.loc 1 79 5 discriminator 2 view .LVU74
  79:Drivers/lvgl/src/misc/lv_anim_timeline.c **** 
 259              		.loc 1 79 35 discriminator 2 view .LVU75
  81:Drivers/lvgl/src/misc/lv_anim_timeline.c ****     at->anim_dsc[at->anim_dsc_cnt - 1].start_time = start_time;
 260              		.loc 1 81 5 discriminator 2 view .LVU76
  81:Drivers/lvgl/src/misc/lv_anim_timeline.c ****     at->anim_dsc[at->anim_dsc_cnt - 1].start_time = start_time;
 261              		.loc 1 81 17 is_stmt 0 discriminator 2 view .LVU77
 262 0024 6368     		ldr	r3, [r4, #4]
 263 0026 03EBC303 		add	r3, r3, r3, lsl #3
 264 002a DE00     		lsls	r6, r3, #3
 265 002c 483E     		subs	r6, r6, #72
 266 002e 8319     		adds	r3, r0, r6
  81:Drivers/lvgl/src/misc/lv_anim_timeline.c ****     at->anim_dsc[at->anim_dsc_cnt - 1].start_time = start_time;
 267              		.loc 1 81 45 discriminator 2 view .LVU78
 268 0030 4422     		movs	r2, #68
 269 0032 2946     		mov	r1, r5
 270 0034 1846     		mov	r0, r3
 271 0036 FFF7FEFF 		bl	memcpy
 272              	.LVL18:
  82:Drivers/lvgl/src/misc/lv_anim_timeline.c **** 
 273              		.loc 1 82 5 is_stmt 1 discriminator 2 view .LVU79
  85:Drivers/lvgl/src/misc/lv_anim_timeline.c ****         at->anim_dsc[at->anim_dsc_cnt - 1].anim.var = at;
 274              		.loc 1 85 7 is_stmt 0 discriminator 2 view .LVU80
 275 003a 2A68     		ldr	r2, [r5]
  82:Drivers/lvgl/src/misc/lv_anim_timeline.c **** 
 276              		.loc 1 82 51 discriminator 2 view .LVU81
 277 003c 4764     		str	r7, [r0, #68]
  85:Drivers/lvgl/src/misc/lv_anim_timeline.c ****         at->anim_dsc[at->anim_dsc_cnt - 1].anim.var = at;
 278              		.loc 1 85 5 is_stmt 1 discriminator 2 view .LVU82
  85:Drivers/lvgl/src/misc/lv_anim_timeline.c ****         at->anim_dsc[at->anim_dsc_cnt - 1].anim.var = at;
 279              		.loc 1 85 7 is_stmt 0 discriminator 2 view .LVU83
 280 003e 1AB1     		cbz	r2, .L26
 281              	.L18:
  89:Drivers/lvgl/src/misc/lv_anim_timeline.c **** 
 282              		.loc 1 89 1 view .LVU84
 283 0040 BDE8F081 		pop	{r4, r5, r6, r7, r8, pc}
 284              	.LVL19:
 285              	.L20:
 286              		.cfi_def_cfa_offset 0
 287              		.cfi_restore 4
 288              		.cfi_restore 5
 289              		.cfi_restore 6
 290              		.cfi_restore 7
 291              		.cfi_restore 8
 292              		.cfi_restore 14
  74:Drivers/lvgl/src/misc/lv_anim_timeline.c **** 
 293              		.loc 1 74 5 is_stmt 1 discriminator 1 view .LVU85
  74:Drivers/lvgl/src/misc/lv_anim_timeline.c **** 
 294              		.loc 1 74 5 discriminator 1 view .LVU86
  74:Drivers/lvgl/src/misc/lv_anim_timeline.c **** 
 295              		.loc 1 74 5 discriminator 1 view .LVU87
ARM GAS  /var/folders/0z/tsy30v1j4xl4_7kw94k978ww0000gn/T//ccKNJMqd.s 			page 11


  74:Drivers/lvgl/src/misc/lv_anim_timeline.c **** 
 296              		.loc 1 74 5 discriminator 1 view .LVU88
  74:Drivers/lvgl/src/misc/lv_anim_timeline.c **** 
 297              		.loc 1 74 5 discriminator 1 view .LVU89
  74:Drivers/lvgl/src/misc/lv_anim_timeline.c **** 
 298              		.loc 1 74 5 discriminator 1 view .LVU90
  74:Drivers/lvgl/src/misc/lv_anim_timeline.c **** 
 299              		.loc 1 74 5 discriminator 1 view .LVU91
  74:Drivers/lvgl/src/misc/lv_anim_timeline.c **** 
 300              		.loc 1 74 5 discriminator 1 view .LVU92
  74:Drivers/lvgl/src/misc/lv_anim_timeline.c **** 
 301              		.loc 1 74 5 discriminator 1 view .LVU93
  74:Drivers/lvgl/src/misc/lv_anim_timeline.c **** 
 302              		.loc 1 74 5 discriminator 1 view .LVU94
 303 0044 FEE7     		b	.L20
 304              	.LVL20:
 305              	.L22:
 306              		.cfi_def_cfa_offset 24
 307              		.cfi_offset 4, -24
 308              		.cfi_offset 5, -20
 309              		.cfi_offset 6, -16
 310              		.cfi_offset 7, -12
 311              		.cfi_offset 8, -8
 312              		.cfi_offset 14, -4
  79:Drivers/lvgl/src/misc/lv_anim_timeline.c **** 
 313              		.loc 1 79 5 discriminator 2 view .LVU95
  79:Drivers/lvgl/src/misc/lv_anim_timeline.c **** 
 314              		.loc 1 79 5 discriminator 2 view .LVU96
  79:Drivers/lvgl/src/misc/lv_anim_timeline.c **** 
 315              		.loc 1 79 5 discriminator 2 view .LVU97
  79:Drivers/lvgl/src/misc/lv_anim_timeline.c **** 
 316              		.loc 1 79 5 discriminator 2 view .LVU98
  79:Drivers/lvgl/src/misc/lv_anim_timeline.c **** 
 317              		.loc 1 79 5 discriminator 2 view .LVU99
  79:Drivers/lvgl/src/misc/lv_anim_timeline.c **** 
 318              		.loc 1 79 5 discriminator 2 view .LVU100
  79:Drivers/lvgl/src/misc/lv_anim_timeline.c **** 
 319              		.loc 1 79 5 discriminator 2 view .LVU101
  79:Drivers/lvgl/src/misc/lv_anim_timeline.c **** 
 320              		.loc 1 79 5 discriminator 2 view .LVU102
  79:Drivers/lvgl/src/misc/lv_anim_timeline.c **** 
 321              		.loc 1 79 5 discriminator 2 view .LVU103
  79:Drivers/lvgl/src/misc/lv_anim_timeline.c **** 
 322              		.loc 1 79 5 discriminator 2 view .LVU104
 323 0046 FEE7     		b	.L22
 324              	.L26:
  85:Drivers/lvgl/src/misc/lv_anim_timeline.c ****         at->anim_dsc[at->anim_dsc_cnt - 1].anim.var = at;
 325              		.loc 1 85 23 is_stmt 0 discriminator 1 view .LVU105
 326 0048 6A68     		ldr	r2, [r5, #4]
 327 004a 002A     		cmp	r2, #0
 328 004c F8D1     		bne	.L18
  86:Drivers/lvgl/src/misc/lv_anim_timeline.c ****         at->anim_dsc[at->anim_dsc_cnt - 1].anim.exec_cb = lv_anim_timeline_virtual_exec_cb;
 329              		.loc 1 86 9 is_stmt 1 view .LVU106
  87:Drivers/lvgl/src/misc/lv_anim_timeline.c ****     }
 330              		.loc 1 87 57 is_stmt 0 view .LVU107
 331 004e 024A     		ldr	r2, .L27
  86:Drivers/lvgl/src/misc/lv_anim_timeline.c ****         at->anim_dsc[at->anim_dsc_cnt - 1].anim.exec_cb = lv_anim_timeline_virtual_exec_cb;
ARM GAS  /var/folders/0z/tsy30v1j4xl4_7kw94k978ww0000gn/T//ccKNJMqd.s 			page 12


 332              		.loc 1 86 53 view .LVU108
 333 0050 48F80640 		str	r4, [r8, r6]
  87:Drivers/lvgl/src/misc/lv_anim_timeline.c ****     }
 334              		.loc 1 87 9 is_stmt 1 view .LVU109
  87:Drivers/lvgl/src/misc/lv_anim_timeline.c ****     }
 335              		.loc 1 87 57 is_stmt 0 view .LVU110
 336 0054 4260     		str	r2, [r0, #4]
  89:Drivers/lvgl/src/misc/lv_anim_timeline.c **** 
 337              		.loc 1 89 1 view .LVU111
 338 0056 F3E7     		b	.L18
 339              	.L28:
 340              		.align	2
 341              	.L27:
 342 0058 00000000 		.word	lv_anim_timeline_virtual_exec_cb
 343              		.cfi_endproc
 344              	.LFE24:
 346              		.section	.text.lv_anim_timeline_start,"ax",%progbits
 347              		.align	1
 348              		.p2align 2,,3
 349              		.global	lv_anim_timeline_start
 350              		.syntax unified
 351              		.thumb
 352              		.thumb_func
 354              	lv_anim_timeline_start:
 355              	.LVL21:
 356              	.LFB25:
  92:Drivers/lvgl/src/misc/lv_anim_timeline.c ****     LV_ASSERT_NULL(at);
 357              		.loc 1 92 1 is_stmt 1 view -0
 358              		.cfi_startproc
 359              		@ args = 0, pretend = 0, frame = 72
 360              		@ frame_needed = 0, uses_anonymous_args = 0
  93:Drivers/lvgl/src/misc/lv_anim_timeline.c **** 
 361              		.loc 1 93 5 view .LVU113
  93:Drivers/lvgl/src/misc/lv_anim_timeline.c **** 
 362              		.loc 1 93 5 view .LVU114
 363 0000 0028     		cmp	r0, #0
 364 0002 3ED0     		beq	.L30
 365              	.LVL22:
 366              	.LBB50:
 367              	.LBB51:
 368              	.LBB52:
 369              	.LBB53:
 370              	.LBB54:
 171:Drivers/lvgl/src/misc/lv_anim_timeline.c ****         uint32_t end = lv_anim_get_playtime(&at->anim_dsc[i].anim);
 371              		.loc 1 171 27 view .LVU115
 372              	.LBE54:
 373              	.LBE53:
 374              	.LBE52:
 375              	.LBE51:
 376              	.LBE50:
  92:Drivers/lvgl/src/misc/lv_anim_timeline.c ****     LV_ASSERT_NULL(at);
 377              		.loc 1 92 1 is_stmt 0 view .LVU116
 378 0004 2DE9F043 		push	{r4, r5, r6, r7, r8, r9, lr}
 379              		.cfi_def_cfa_offset 28
 380              		.cfi_offset 4, -28
 381              		.cfi_offset 5, -24
 382              		.cfi_offset 6, -20
ARM GAS  /var/folders/0z/tsy30v1j4xl4_7kw94k978ww0000gn/T//ccKNJMqd.s 			page 13


 383              		.cfi_offset 7, -16
 384              		.cfi_offset 8, -12
 385              		.cfi_offset 9, -8
 386              		.cfi_offset 14, -4
 387              	.LBB69:
 388              	.LBB67:
 389              	.LBB65:
 390              	.LBB63:
 391              	.LBB60:
 171:Drivers/lvgl/src/misc/lv_anim_timeline.c ****         uint32_t end = lv_anim_get_playtime(&at->anim_dsc[i].anim);
 392              		.loc 1 171 31 view .LVU117
 393 0008 4668     		ldr	r6, [r0, #4]
 394              	.LBE60:
 395              	.LBE63:
 396              	.LBE65:
 397              	.LBE67:
 398              	.LBE69:
  92:Drivers/lvgl/src/misc/lv_anim_timeline.c ****     LV_ASSERT_NULL(at);
 399              		.loc 1 92 1 view .LVU118
 400 000a 93B0     		sub	sp, sp, #76
 401              		.cfi_def_cfa_offset 104
 402 000c 0746     		mov	r7, r0
 403              	.LBB70:
 404              	.LBB68:
 405              	.LBB66:
 406              	.LBB64:
 407              	.LBB61:
 171:Drivers/lvgl/src/misc/lv_anim_timeline.c ****         uint32_t end = lv_anim_get_playtime(&at->anim_dsc[i].anim);
 408              		.loc 1 171 27 view .LVU119
 409 000e A6B3     		cbz	r6, .L29
 410              	.LBE61:
 170:Drivers/lvgl/src/misc/lv_anim_timeline.c ****     for(uint32_t i = 0; i < at->anim_dsc_cnt; i++) {
 411              		.loc 1 170 14 view .LVU120
 412 0010 0026     		movs	r6, #0
 413              	.LBB62:
 414              	.LBB55:
 172:Drivers/lvgl/src/misc/lv_anim_timeline.c ****         if(end == LV_ANIM_PLAYTIME_INFINITE)
 415              		.loc 1 172 48 view .LVU121
 416 0012 0268     		ldr	r2, [r0]
 417              	.LBE55:
 171:Drivers/lvgl/src/misc/lv_anim_timeline.c ****         uint32_t end = lv_anim_get_playtime(&at->anim_dsc[i].anim);
 418              		.loc 1 171 18 view .LVU122
 419 0014 3546     		mov	r5, r6
 420 0016 09E0     		b	.L34
 421              	.LVL23:
 422              	.L51:
 171:Drivers/lvgl/src/misc/lv_anim_timeline.c ****         uint32_t end = lv_anim_get_playtime(&at->anim_dsc[i].anim);
 423              		.loc 1 171 31 view .LVU123
 424 0018 D7E90021 		ldrd	r2, r1, [r7]
 425              	.LBB56:
 175:Drivers/lvgl/src/misc/lv_anim_timeline.c ****         if(end > playtime) {
 426              		.loc 1 175 31 view .LVU124
 427 001c 1319     		adds	r3, r2, r4
 175:Drivers/lvgl/src/misc/lv_anim_timeline.c ****         if(end > playtime) {
 428              		.loc 1 175 13 view .LVU125
 429 001e 5B6C     		ldr	r3, [r3, #68]
 430 0020 0344     		add	r3, r3, r0
ARM GAS  /var/folders/0z/tsy30v1j4xl4_7kw94k978ww0000gn/T//ccKNJMqd.s 			page 14


 431 0022 9E42     		cmp	r6, r3
 432 0024 38BF     		it	cc
 433 0026 1E46     		movcc	r6, r3
 434              	.LVL24:
 175:Drivers/lvgl/src/misc/lv_anim_timeline.c ****         if(end > playtime) {
 435              		.loc 1 175 13 view .LVU126
 436              	.LBE56:
 171:Drivers/lvgl/src/misc/lv_anim_timeline.c ****         uint32_t end = lv_anim_get_playtime(&at->anim_dsc[i].anim);
 437              		.loc 1 171 48 is_stmt 1 view .LVU127
 171:Drivers/lvgl/src/misc/lv_anim_timeline.c ****         uint32_t end = lv_anim_get_playtime(&at->anim_dsc[i].anim);
 438              		.loc 1 171 27 view .LVU128
 439 0028 8D42     		cmp	r5, r1
 440 002a 0CD2     		bcs	.L35
 441              	.LVL25:
 442              	.L34:
 443              	.LBB57:
 172:Drivers/lvgl/src/misc/lv_anim_timeline.c ****         if(end == LV_ANIM_PLAYTIME_INFINITE)
 444              		.loc 1 172 9 view .LVU129
 445 002c 05EBC503 		add	r3, r5, r5, lsl #3
 172:Drivers/lvgl/src/misc/lv_anim_timeline.c ****         if(end == LV_ANIM_PLAYTIME_INFINITE)
 446              		.loc 1 172 24 is_stmt 0 view .LVU130
 447 0030 02EBC300 		add	r0, r2, r3, lsl #3
 448 0034 DC00     		lsls	r4, r3, #3
 449 0036 FFF7FEFF 		bl	lv_anim_get_playtime
 450              	.LVL26:
 175:Drivers/lvgl/src/misc/lv_anim_timeline.c ****         if(end > playtime) {
 451              		.loc 1 175 9 is_stmt 1 view .LVU131
 173:Drivers/lvgl/src/misc/lv_anim_timeline.c ****             return end;
 452              		.loc 1 173 9 view .LVU132
 173:Drivers/lvgl/src/misc/lv_anim_timeline.c ****             return end;
 453              		.loc 1 173 11 is_stmt 0 view .LVU133
 454 003a 431C     		adds	r3, r0, #1
 455              	.LBE57:
 171:Drivers/lvgl/src/misc/lv_anim_timeline.c ****         uint32_t end = lv_anim_get_playtime(&at->anim_dsc[i].anim);
 456              		.loc 1 171 48 view .LVU134
 457 003c 05F10105 		add	r5, r5, #1
 458              	.LVL27:
 459              	.LBB58:
 173:Drivers/lvgl/src/misc/lv_anim_timeline.c ****             return end;
 460              		.loc 1 173 11 view .LVU135
 461 0040 EAD1     		bne	.L51
 462              	.LBE58:
 171:Drivers/lvgl/src/misc/lv_anim_timeline.c ****         uint32_t end = lv_anim_get_playtime(&at->anim_dsc[i].anim);
 463              		.loc 1 171 31 view .LVU136
 464 0042 7968     		ldr	r1, [r7, #4]
 465              	.LBB59:
 172:Drivers/lvgl/src/misc/lv_anim_timeline.c ****         if(end == LV_ANIM_PLAYTIME_INFINITE)
 466              		.loc 1 172 24 view .LVU137
 467 0044 0646     		mov	r6, r0
 468              	.LVL28:
 469              	.L35:
 172:Drivers/lvgl/src/misc/lv_anim_timeline.c ****         if(end == LV_ANIM_PLAYTIME_INFINITE)
 470              		.loc 1 172 24 view .LVU138
 471              	.LBE59:
 472              	.LBE62:
 473              	.LBE64:
 474              	.LBE66:
ARM GAS  /var/folders/0z/tsy30v1j4xl4_7kw94k978ww0000gn/T//ccKNJMqd.s 			page 15


 475              	.LBE68:
 476              	.LBE70:
  96:Drivers/lvgl/src/misc/lv_anim_timeline.c **** 
 477              		.loc 1 96 5 is_stmt 1 view .LVU139
  96:Drivers/lvgl/src/misc/lv_anim_timeline.c **** 
 478              		.loc 1 96 10 is_stmt 0 view .LVU140
 479 0046 3B7A     		ldrb	r3, [r7, #8]	@ zero_extendqisi2
 480              	.LVL29:
  98:Drivers/lvgl/src/misc/lv_anim_timeline.c ****         lv_anim_t a = at->anim_dsc[i].anim;
 481              		.loc 1 98 5 is_stmt 1 view .LVU141
 482              	.LBB71:
  98:Drivers/lvgl/src/misc/lv_anim_timeline.c ****         lv_anim_t a = at->anim_dsc[i].anim;
 483              		.loc 1 98 9 view .LVU142
  98:Drivers/lvgl/src/misc/lv_anim_timeline.c ****         lv_anim_t a = at->anim_dsc[i].anim;
 484              		.loc 1 98 27 view .LVU143
 485 0048 B9B1     		cbz	r1, .L29
 486 004a DBB9     		cbnz	r3, .L39
 487 004c 9846     		mov	r8, r3
  98:Drivers/lvgl/src/misc/lv_anim_timeline.c ****         lv_anim_t a = at->anim_dsc[i].anim;
 488              		.loc 1 98 18 is_stmt 0 view .LVU144
 489 004e 9946     		mov	r9, r3
 490 0050 01AD     		add	r5, sp, #4
 491              	.LVL30:
 492              	.L37:
 493              	.LBB72:
  99:Drivers/lvgl/src/misc/lv_anim_timeline.c ****         uint32_t start_time = at->anim_dsc[i].start_time;
 494              		.loc 1 99 9 is_stmt 1 view .LVU145
  99:Drivers/lvgl/src/misc/lv_anim_timeline.c ****         uint32_t start_time = at->anim_dsc[i].start_time;
 495              		.loc 1 99 35 is_stmt 0 view .LVU146
 496 0052 3C68     		ldr	r4, [r7]
 497 0054 4444     		add	r4, r4, r8
  99:Drivers/lvgl/src/misc/lv_anim_timeline.c ****         uint32_t start_time = at->anim_dsc[i].start_time;
 498              		.loc 1 99 19 view .LVU147
 499 0056 4422     		movs	r2, #68
 500 0058 2146     		mov	r1, r4
 501 005a 2846     		mov	r0, r5
 502 005c FFF7FEFF 		bl	memcpy
 503              	.LVL31:
 100:Drivers/lvgl/src/misc/lv_anim_timeline.c **** 
 504              		.loc 1 100 9 is_stmt 1 view .LVU148
 102:Drivers/lvgl/src/misc/lv_anim_timeline.c ****             int32_t temp = a.start_value;
 505              		.loc 1 102 9 view .LVU149
 109:Drivers/lvgl/src/misc/lv_anim_timeline.c ****         }
 506              		.loc 1 109 13 view .LVU150
 507              	.LBB73:
 508              	.LBI73:
 509              		.file 2 "Drivers/lvgl/src/misc/lv_anim.h"
   1:Drivers/lvgl/src/misc/lv_anim.h **** /**
   2:Drivers/lvgl/src/misc/lv_anim.h ****  * @file lv_anim.h
   3:Drivers/lvgl/src/misc/lv_anim.h ****  *
   4:Drivers/lvgl/src/misc/lv_anim.h ****  */
   5:Drivers/lvgl/src/misc/lv_anim.h **** 
   6:Drivers/lvgl/src/misc/lv_anim.h **** #ifndef LV_ANIM_H
   7:Drivers/lvgl/src/misc/lv_anim.h **** #define LV_ANIM_H
   8:Drivers/lvgl/src/misc/lv_anim.h **** 
   9:Drivers/lvgl/src/misc/lv_anim.h **** #ifdef __cplusplus
  10:Drivers/lvgl/src/misc/lv_anim.h **** extern "C" {
ARM GAS  /var/folders/0z/tsy30v1j4xl4_7kw94k978ww0000gn/T//ccKNJMqd.s 			page 16


  11:Drivers/lvgl/src/misc/lv_anim.h **** #endif
  12:Drivers/lvgl/src/misc/lv_anim.h **** 
  13:Drivers/lvgl/src/misc/lv_anim.h **** /*********************
  14:Drivers/lvgl/src/misc/lv_anim.h ****  *      INCLUDES
  15:Drivers/lvgl/src/misc/lv_anim.h ****  *********************/
  16:Drivers/lvgl/src/misc/lv_anim.h **** #include "../lv_conf_internal.h"
  17:Drivers/lvgl/src/misc/lv_anim.h **** 
  18:Drivers/lvgl/src/misc/lv_anim.h **** #include <stdint.h>
  19:Drivers/lvgl/src/misc/lv_anim.h **** #include <stdbool.h>
  20:Drivers/lvgl/src/misc/lv_anim.h **** #include <stddef.h>
  21:Drivers/lvgl/src/misc/lv_anim.h **** 
  22:Drivers/lvgl/src/misc/lv_anim.h **** /*********************
  23:Drivers/lvgl/src/misc/lv_anim.h ****  *      DEFINES
  24:Drivers/lvgl/src/misc/lv_anim.h ****  *********************/
  25:Drivers/lvgl/src/misc/lv_anim.h **** 
  26:Drivers/lvgl/src/misc/lv_anim.h **** #define LV_ANIM_REPEAT_INFINITE      0xFFFF
  27:Drivers/lvgl/src/misc/lv_anim.h **** #define LV_ANIM_PLAYTIME_INFINITE    0xFFFFFFFF
  28:Drivers/lvgl/src/misc/lv_anim.h **** 
  29:Drivers/lvgl/src/misc/lv_anim.h **** LV_EXPORT_CONST_INT(LV_ANIM_REPEAT_INFINITE);
  30:Drivers/lvgl/src/misc/lv_anim.h **** LV_EXPORT_CONST_INT(LV_ANIM_PLAYTIME_INFINITE);
  31:Drivers/lvgl/src/misc/lv_anim.h **** 
  32:Drivers/lvgl/src/misc/lv_anim.h **** /**********************
  33:Drivers/lvgl/src/misc/lv_anim.h ****  *      TYPEDEFS
  34:Drivers/lvgl/src/misc/lv_anim.h ****  **********************/
  35:Drivers/lvgl/src/misc/lv_anim.h **** 
  36:Drivers/lvgl/src/misc/lv_anim.h **** /** Can be used to indicate if animations are enabled or disabled in a case*/
  37:Drivers/lvgl/src/misc/lv_anim.h **** typedef enum {
  38:Drivers/lvgl/src/misc/lv_anim.h ****     LV_ANIM_OFF,
  39:Drivers/lvgl/src/misc/lv_anim.h ****     LV_ANIM_ON,
  40:Drivers/lvgl/src/misc/lv_anim.h **** } lv_anim_enable_t;
  41:Drivers/lvgl/src/misc/lv_anim.h **** 
  42:Drivers/lvgl/src/misc/lv_anim.h **** struct _lv_anim_t;
  43:Drivers/lvgl/src/misc/lv_anim.h **** struct _lv_timer_t;
  44:Drivers/lvgl/src/misc/lv_anim.h **** 
  45:Drivers/lvgl/src/misc/lv_anim.h **** /** Get the current value during an animation*/
  46:Drivers/lvgl/src/misc/lv_anim.h **** typedef int32_t (*lv_anim_path_cb_t)(const struct _lv_anim_t *);
  47:Drivers/lvgl/src/misc/lv_anim.h **** 
  48:Drivers/lvgl/src/misc/lv_anim.h **** /** Generic prototype of "animator" functions.
  49:Drivers/lvgl/src/misc/lv_anim.h ****  * First parameter is the variable to animate.
  50:Drivers/lvgl/src/misc/lv_anim.h ****  * Second parameter is the value to set.
  51:Drivers/lvgl/src/misc/lv_anim.h ****  * Compatible with `lv_xxx_set_yyy(obj, value)` functions
  52:Drivers/lvgl/src/misc/lv_anim.h ****  * The `x` in `_xcb_t` means it's not a fully generic prototype because
  53:Drivers/lvgl/src/misc/lv_anim.h ****  * it doesn't receive `lv_anim_t *` as its first argument*/
  54:Drivers/lvgl/src/misc/lv_anim.h **** typedef void (*lv_anim_exec_xcb_t)(void *, int32_t);
  55:Drivers/lvgl/src/misc/lv_anim.h **** 
  56:Drivers/lvgl/src/misc/lv_anim.h **** /** Same as `lv_anim_exec_xcb_t` but receives `lv_anim_t *` as the first parameter.
  57:Drivers/lvgl/src/misc/lv_anim.h ****  * It's more consistent but less convenient. Might be used by binding generator functions.*/
  58:Drivers/lvgl/src/misc/lv_anim.h **** typedef void (*lv_anim_custom_exec_cb_t)(struct _lv_anim_t *, int32_t);
  59:Drivers/lvgl/src/misc/lv_anim.h **** 
  60:Drivers/lvgl/src/misc/lv_anim.h **** /** Callback to call when the animation is ready*/
  61:Drivers/lvgl/src/misc/lv_anim.h **** typedef void (*lv_anim_ready_cb_t)(struct _lv_anim_t *);
  62:Drivers/lvgl/src/misc/lv_anim.h **** 
  63:Drivers/lvgl/src/misc/lv_anim.h **** /** Callback to call when the animation really stars (considering `delay`)*/
  64:Drivers/lvgl/src/misc/lv_anim.h **** typedef void (*lv_anim_start_cb_t)(struct _lv_anim_t *);
  65:Drivers/lvgl/src/misc/lv_anim.h **** 
  66:Drivers/lvgl/src/misc/lv_anim.h **** /** Callback used when the animation values are relative to get the current value*/
  67:Drivers/lvgl/src/misc/lv_anim.h **** typedef int32_t (*lv_anim_get_value_cb_t)(struct _lv_anim_t *);
ARM GAS  /var/folders/0z/tsy30v1j4xl4_7kw94k978ww0000gn/T//ccKNJMqd.s 			page 17


  68:Drivers/lvgl/src/misc/lv_anim.h **** 
  69:Drivers/lvgl/src/misc/lv_anim.h **** /** Callback used when the animation is deleted*/
  70:Drivers/lvgl/src/misc/lv_anim.h **** typedef void (*lv_anim_deleted_cb_t)(struct _lv_anim_t *);
  71:Drivers/lvgl/src/misc/lv_anim.h **** 
  72:Drivers/lvgl/src/misc/lv_anim.h **** /** Describes an animation*/
  73:Drivers/lvgl/src/misc/lv_anim.h **** typedef struct _lv_anim_t {
  74:Drivers/lvgl/src/misc/lv_anim.h ****     void * var;                          /**<Variable to animate*/
  75:Drivers/lvgl/src/misc/lv_anim.h ****     lv_anim_exec_xcb_t exec_cb;          /**< Function to execute to animate*/
  76:Drivers/lvgl/src/misc/lv_anim.h ****     lv_anim_start_cb_t start_cb;         /**< Call it when the animation is starts (considering `de
  77:Drivers/lvgl/src/misc/lv_anim.h ****     lv_anim_ready_cb_t ready_cb;         /**< Call it when the animation is ready*/
  78:Drivers/lvgl/src/misc/lv_anim.h ****     lv_anim_deleted_cb_t deleted_cb;     /**< Call it when the animation is deleted*/
  79:Drivers/lvgl/src/misc/lv_anim.h ****     lv_anim_get_value_cb_t get_value_cb; /**< Get the current value in relative mode*/
  80:Drivers/lvgl/src/misc/lv_anim.h **** #if LV_USE_USER_DATA
  81:Drivers/lvgl/src/misc/lv_anim.h ****     void * user_data; /**< Custom user data*/
  82:Drivers/lvgl/src/misc/lv_anim.h **** #endif
  83:Drivers/lvgl/src/misc/lv_anim.h ****     lv_anim_path_cb_t path_cb;         /**< Describe the path (curve) of animations*/
  84:Drivers/lvgl/src/misc/lv_anim.h ****     int32_t start_value;               /**< Start value*/
  85:Drivers/lvgl/src/misc/lv_anim.h ****     int32_t current_value;             /**< Current value*/
  86:Drivers/lvgl/src/misc/lv_anim.h ****     int32_t end_value;                 /**< End value*/
  87:Drivers/lvgl/src/misc/lv_anim.h ****     int32_t time;                /**< Animation time in ms*/
  88:Drivers/lvgl/src/misc/lv_anim.h ****     int32_t act_time;            /**< Current time in animation. Set to negative to make delay.*/
  89:Drivers/lvgl/src/misc/lv_anim.h ****     uint32_t playback_delay;     /**< Wait before play back*/
  90:Drivers/lvgl/src/misc/lv_anim.h ****     uint32_t playback_time;      /**< Duration of playback animation*/
  91:Drivers/lvgl/src/misc/lv_anim.h ****     uint32_t repeat_delay;       /**< Wait before repeat*/
  92:Drivers/lvgl/src/misc/lv_anim.h ****     uint16_t repeat_cnt;         /**< Repeat count for the animation*/
  93:Drivers/lvgl/src/misc/lv_anim.h ****     uint8_t early_apply  : 1;    /**< 1: Apply start value immediately even is there is `delay`*/
  94:Drivers/lvgl/src/misc/lv_anim.h **** 
  95:Drivers/lvgl/src/misc/lv_anim.h ****     /*Animation system use these - user shouldn't set*/
  96:Drivers/lvgl/src/misc/lv_anim.h ****     uint8_t playback_now : 1; /**< Play back is in progress*/
  97:Drivers/lvgl/src/misc/lv_anim.h ****     uint8_t run_round : 1;    /**< Indicates the animation has run in this round*/
  98:Drivers/lvgl/src/misc/lv_anim.h ****     uint8_t start_cb_called : 1;    /**< Indicates that the `start_cb` was already called*/
  99:Drivers/lvgl/src/misc/lv_anim.h **** } lv_anim_t;
 100:Drivers/lvgl/src/misc/lv_anim.h **** 
 101:Drivers/lvgl/src/misc/lv_anim.h **** /**********************
 102:Drivers/lvgl/src/misc/lv_anim.h ****  * GLOBAL PROTOTYPES
 103:Drivers/lvgl/src/misc/lv_anim.h ****  **********************/
 104:Drivers/lvgl/src/misc/lv_anim.h **** 
 105:Drivers/lvgl/src/misc/lv_anim.h **** /**
 106:Drivers/lvgl/src/misc/lv_anim.h ****  * Init. the animation module
 107:Drivers/lvgl/src/misc/lv_anim.h ****  */
 108:Drivers/lvgl/src/misc/lv_anim.h **** void _lv_anim_core_init(void);
 109:Drivers/lvgl/src/misc/lv_anim.h **** 
 110:Drivers/lvgl/src/misc/lv_anim.h **** /**
 111:Drivers/lvgl/src/misc/lv_anim.h ****  * Initialize an animation variable.
 112:Drivers/lvgl/src/misc/lv_anim.h ****  * E.g.:
 113:Drivers/lvgl/src/misc/lv_anim.h ****  * lv_anim_t a;
 114:Drivers/lvgl/src/misc/lv_anim.h ****  * lv_anim_init(&a);
 115:Drivers/lvgl/src/misc/lv_anim.h ****  * lv_anim_set_...(&a);
 116:Drivers/lvgl/src/misc/lv_anim.h ****  * lv_anim_start(&a);
 117:Drivers/lvgl/src/misc/lv_anim.h ****  * @param a     pointer to an `lv_anim_t` variable to initialize
 118:Drivers/lvgl/src/misc/lv_anim.h ****  */
 119:Drivers/lvgl/src/misc/lv_anim.h **** void lv_anim_init(lv_anim_t * a);
 120:Drivers/lvgl/src/misc/lv_anim.h **** 
 121:Drivers/lvgl/src/misc/lv_anim.h **** /**
 122:Drivers/lvgl/src/misc/lv_anim.h ****  * Set a variable to animate
 123:Drivers/lvgl/src/misc/lv_anim.h ****  * @param a     pointer to an initialized `lv_anim_t` variable
 124:Drivers/lvgl/src/misc/lv_anim.h ****  * @param var   pointer to a variable to animate
ARM GAS  /var/folders/0z/tsy30v1j4xl4_7kw94k978ww0000gn/T//ccKNJMqd.s 			page 18


 125:Drivers/lvgl/src/misc/lv_anim.h ****  */
 126:Drivers/lvgl/src/misc/lv_anim.h **** static inline void lv_anim_set_var(lv_anim_t * a, void * var)
 127:Drivers/lvgl/src/misc/lv_anim.h **** {
 128:Drivers/lvgl/src/misc/lv_anim.h ****     a->var = var;
 129:Drivers/lvgl/src/misc/lv_anim.h **** }
 130:Drivers/lvgl/src/misc/lv_anim.h **** 
 131:Drivers/lvgl/src/misc/lv_anim.h **** /**
 132:Drivers/lvgl/src/misc/lv_anim.h ****  * Set a function to animate `var`
 133:Drivers/lvgl/src/misc/lv_anim.h ****  * @param a         pointer to an initialized `lv_anim_t` variable
 134:Drivers/lvgl/src/misc/lv_anim.h ****  * @param exec_cb   a function to execute during animation
 135:Drivers/lvgl/src/misc/lv_anim.h ****  *                  LVGL's built-in functions can be used.
 136:Drivers/lvgl/src/misc/lv_anim.h ****  *                  E.g. lv_obj_set_x
 137:Drivers/lvgl/src/misc/lv_anim.h ****  */
 138:Drivers/lvgl/src/misc/lv_anim.h **** static inline void lv_anim_set_exec_cb(lv_anim_t * a, lv_anim_exec_xcb_t exec_cb)
 139:Drivers/lvgl/src/misc/lv_anim.h **** {
 140:Drivers/lvgl/src/misc/lv_anim.h ****     a->exec_cb = exec_cb;
 141:Drivers/lvgl/src/misc/lv_anim.h **** }
 142:Drivers/lvgl/src/misc/lv_anim.h **** 
 143:Drivers/lvgl/src/misc/lv_anim.h **** /**
 144:Drivers/lvgl/src/misc/lv_anim.h ****  * Set the duration of an animation
 145:Drivers/lvgl/src/misc/lv_anim.h ****  * @param a         pointer to an initialized `lv_anim_t` variable
 146:Drivers/lvgl/src/misc/lv_anim.h ****  * @param duration  duration of the animation in milliseconds
 147:Drivers/lvgl/src/misc/lv_anim.h ****  */
 148:Drivers/lvgl/src/misc/lv_anim.h **** static inline void lv_anim_set_time(lv_anim_t * a, uint32_t duration)
 149:Drivers/lvgl/src/misc/lv_anim.h **** {
 150:Drivers/lvgl/src/misc/lv_anim.h ****     a->time = duration;
 151:Drivers/lvgl/src/misc/lv_anim.h **** }
 152:Drivers/lvgl/src/misc/lv_anim.h **** 
 153:Drivers/lvgl/src/misc/lv_anim.h **** /**
 154:Drivers/lvgl/src/misc/lv_anim.h ****  * Set a delay before starting the animation
 155:Drivers/lvgl/src/misc/lv_anim.h ****  * @param a         pointer to an initialized `lv_anim_t` variable
 156:Drivers/lvgl/src/misc/lv_anim.h ****  * @param delay     delay before the animation in milliseconds
 157:Drivers/lvgl/src/misc/lv_anim.h ****  */
 158:Drivers/lvgl/src/misc/lv_anim.h **** static inline void lv_anim_set_delay(lv_anim_t * a, uint32_t delay)
 510              		.loc 2 158 20 view .LVU151
 511              	.LBB74:
 159:Drivers/lvgl/src/misc/lv_anim.h **** {
 160:Drivers/lvgl/src/misc/lv_anim.h ****     a->act_time = -(int32_t)(delay);
 512              		.loc 2 160 5 view .LVU152
 513              		.loc 2 160 19 is_stmt 0 view .LVU153
 514 0060 636C     		ldr	r3, [r4, #68]
 515              	.LBE74:
 516              	.LBE73:
 112:Drivers/lvgl/src/misc/lv_anim_timeline.c ****     }
 517              		.loc 1 112 9 view .LVU154
 518 0062 2846     		mov	r0, r5
 519              	.LBB76:
 520              	.LBB75:
 521              		.loc 2 160 19 view .LVU155
 522 0064 5B42     		rsbs	r3, r3, #0
 523 0066 0D93     		str	r3, [sp, #52]
 524              	.LVL32:
 525              		.loc 2 160 19 view .LVU156
 526              	.LBE75:
 527              	.LBE76:
 112:Drivers/lvgl/src/misc/lv_anim_timeline.c ****     }
 528              		.loc 1 112 9 is_stmt 1 view .LVU157
ARM GAS  /var/folders/0z/tsy30v1j4xl4_7kw94k978ww0000gn/T//ccKNJMqd.s 			page 19


 529 0068 FFF7FEFF 		bl	lv_anim_start
 530              	.LVL33:
 112:Drivers/lvgl/src/misc/lv_anim_timeline.c ****     }
 531              		.loc 1 112 9 is_stmt 0 view .LVU158
 532              	.LBE72:
  98:Drivers/lvgl/src/misc/lv_anim_timeline.c ****         lv_anim_t a = at->anim_dsc[i].anim;
 533              		.loc 1 98 48 is_stmt 1 view .LVU159
  98:Drivers/lvgl/src/misc/lv_anim_timeline.c ****         lv_anim_t a = at->anim_dsc[i].anim;
 534              		.loc 1 98 27 is_stmt 0 view .LVU160
 535 006c 7B68     		ldr	r3, [r7, #4]
  98:Drivers/lvgl/src/misc/lv_anim_timeline.c ****         lv_anim_t a = at->anim_dsc[i].anim;
 536              		.loc 1 98 48 view .LVU161
 537 006e 09F10109 		add	r9, r9, #1
 538              	.LVL34:
  98:Drivers/lvgl/src/misc/lv_anim_timeline.c ****         lv_anim_t a = at->anim_dsc[i].anim;
 539              		.loc 1 98 27 is_stmt 1 view .LVU162
 540 0072 9945     		cmp	r9, r3
 541 0074 08F14808 		add	r8, r8, #72
 542 0078 EBD3     		bcc	.L37
 543              	.LVL35:
 544              	.L29:
  98:Drivers/lvgl/src/misc/lv_anim_timeline.c ****         lv_anim_t a = at->anim_dsc[i].anim;
 545              		.loc 1 98 27 is_stmt 0 view .LVU163
 546              	.LBE71:
 116:Drivers/lvgl/src/misc/lv_anim_timeline.c **** 
 547              		.loc 1 116 1 view .LVU164
 548 007a 3046     		mov	r0, r6
 549 007c 13B0     		add	sp, sp, #76
 550              		.cfi_def_cfa_offset 28
 551              		@ sp needed
 552 007e BDE8F083 		pop	{r4, r5, r6, r7, r8, r9, pc}
 553              	.LVL36:
 554              	.L30:
 555              		.cfi_def_cfa_offset 0
 556              		.cfi_restore 4
 557              		.cfi_restore 5
 558              		.cfi_restore 6
 559              		.cfi_restore 7
 560              		.cfi_restore 8
 561              		.cfi_restore 9
 562              		.cfi_restore 14
  93:Drivers/lvgl/src/misc/lv_anim_timeline.c **** 
 563              		.loc 1 93 5 is_stmt 1 discriminator 1 view .LVU165
  93:Drivers/lvgl/src/misc/lv_anim_timeline.c **** 
 564              		.loc 1 93 5 discriminator 1 view .LVU166
  93:Drivers/lvgl/src/misc/lv_anim_timeline.c **** 
 565              		.loc 1 93 5 discriminator 1 view .LVU167
  93:Drivers/lvgl/src/misc/lv_anim_timeline.c **** 
 566              		.loc 1 93 5 discriminator 1 view .LVU168
  93:Drivers/lvgl/src/misc/lv_anim_timeline.c **** 
 567              		.loc 1 93 5 discriminator 1 view .LVU169
  93:Drivers/lvgl/src/misc/lv_anim_timeline.c **** 
 568              		.loc 1 93 5 discriminator 1 view .LVU170
  93:Drivers/lvgl/src/misc/lv_anim_timeline.c **** 
 569              		.loc 1 93 5 discriminator 1 view .LVU171
  93:Drivers/lvgl/src/misc/lv_anim_timeline.c **** 
 570              		.loc 1 93 5 discriminator 1 view .LVU172
ARM GAS  /var/folders/0z/tsy30v1j4xl4_7kw94k978ww0000gn/T//ccKNJMqd.s 			page 20


  93:Drivers/lvgl/src/misc/lv_anim_timeline.c **** 
 571              		.loc 1 93 5 discriminator 1 view .LVU173
  93:Drivers/lvgl/src/misc/lv_anim_timeline.c **** 
 572              		.loc 1 93 5 discriminator 1 view .LVU174
 573 0082 FEE7     		b	.L30
 574              	.LVL37:
 575              	.L39:
 576              		.cfi_def_cfa_offset 104
 577              		.cfi_offset 4, -28
 578              		.cfi_offset 5, -24
 579              		.cfi_offset 6, -20
 580              		.cfi_offset 7, -16
 581              		.cfi_offset 8, -12
 582              		.cfi_offset 9, -8
 583              		.cfi_offset 14, -4
 584              	.LBB85:
  98:Drivers/lvgl/src/misc/lv_anim_timeline.c ****         lv_anim_t a = at->anim_dsc[i].anim;
 585              		.loc 1 98 27 is_stmt 0 view .LVU175
 586 0084 4FF00008 		mov	r8, #0
  98:Drivers/lvgl/src/misc/lv_anim_timeline.c ****         lv_anim_t a = at->anim_dsc[i].anim;
 587              		.loc 1 98 18 view .LVU176
 588 0088 C146     		mov	r9, r8
 589 008a 01AD     		add	r5, sp, #4
 590              	.LVL38:
 591              	.L36:
 592              	.LBB84:
  99:Drivers/lvgl/src/misc/lv_anim_timeline.c ****         uint32_t start_time = at->anim_dsc[i].start_time;
 593              		.loc 1 99 9 is_stmt 1 view .LVU177
  99:Drivers/lvgl/src/misc/lv_anim_timeline.c ****         uint32_t start_time = at->anim_dsc[i].start_time;
 594              		.loc 1 99 35 is_stmt 0 view .LVU178
 595 008c 3C68     		ldr	r4, [r7]
 596 008e 4444     		add	r4, r4, r8
  99:Drivers/lvgl/src/misc/lv_anim_timeline.c ****         uint32_t start_time = at->anim_dsc[i].start_time;
 597              		.loc 1 99 19 view .LVU179
 598 0090 2146     		mov	r1, r4
 599 0092 4422     		movs	r2, #68
 600 0094 2846     		mov	r0, r5
 601 0096 FFF7FEFF 		bl	memcpy
 602              	.LVL39:
 100:Drivers/lvgl/src/misc/lv_anim_timeline.c **** 
 603              		.loc 1 100 9 is_stmt 1 view .LVU180
 604              	.LBB77:
 106:Drivers/lvgl/src/misc/lv_anim_timeline.c ****         }
 605              		.loc 1 106 13 is_stmt 0 view .LVU181
 606 009a 0C9A     		ldr	r2, [sp, #48]
 607              	.LBE77:
 100:Drivers/lvgl/src/misc/lv_anim_timeline.c **** 
 608              		.loc 1 100 18 view .LVU182
 609 009c 636C     		ldr	r3, [r4, #68]
 610              	.LVL40:
 102:Drivers/lvgl/src/misc/lv_anim_timeline.c ****             int32_t temp = a.start_value;
 611              		.loc 1 102 9 is_stmt 1 view .LVU183
 612              	.LBB82:
 103:Drivers/lvgl/src/misc/lv_anim_timeline.c ****             a.start_value = a.end_value;
 613              		.loc 1 103 13 view .LVU184
 103:Drivers/lvgl/src/misc/lv_anim_timeline.c ****             a.start_value = a.end_value;
 614              		.loc 1 103 21 is_stmt 0 view .LVU185
ARM GAS  /var/folders/0z/tsy30v1j4xl4_7kw94k978ww0000gn/T//ccKNJMqd.s 			page 21


 615 009e 099C     		ldr	r4, [sp, #36]
 616              	.LVL41:
 104:Drivers/lvgl/src/misc/lv_anim_timeline.c ****             a.end_value = temp;
 617              		.loc 1 104 13 is_stmt 1 view .LVU186
 106:Drivers/lvgl/src/misc/lv_anim_timeline.c ****         }
 618              		.loc 1 106 13 is_stmt 0 view .LVU187
 619 00a0 B11A     		subs	r1, r6, r2
 620              	.LBB78:
 621              	.LBB79:
 622              		.loc 2 160 19 view .LVU188
 623 00a2 5B1A     		subs	r3, r3, r1
 624              	.LVL42:
 625              		.loc 2 160 19 view .LVU189
 626              	.LBE79:
 627              	.LBE78:
 104:Drivers/lvgl/src/misc/lv_anim_timeline.c ****             a.end_value = temp;
 628              		.loc 1 104 27 view .LVU190
 629 00a4 0B9A     		ldr	r2, [sp, #44]
 630 00a6 0D93     		str	r3, [sp, #52]
 631              	.LBE82:
 112:Drivers/lvgl/src/misc/lv_anim_timeline.c ****     }
 632              		.loc 1 112 9 view .LVU191
 633 00a8 2846     		mov	r0, r5
 634              	.LBB83:
 104:Drivers/lvgl/src/misc/lv_anim_timeline.c ****             a.end_value = temp;
 635              		.loc 1 104 27 view .LVU192
 636 00aa 0992     		str	r2, [sp, #36]
 105:Drivers/lvgl/src/misc/lv_anim_timeline.c ****             lv_anim_set_delay(&a, playtime - (start_time + a.time));
 637              		.loc 1 105 13 is_stmt 1 view .LVU193
 105:Drivers/lvgl/src/misc/lv_anim_timeline.c ****             lv_anim_set_delay(&a, playtime - (start_time + a.time));
 638              		.loc 1 105 25 is_stmt 0 view .LVU194
 639 00ac 0B94     		str	r4, [sp, #44]
 106:Drivers/lvgl/src/misc/lv_anim_timeline.c ****         }
 640              		.loc 1 106 13 is_stmt 1 view .LVU195
 641              	.LVL43:
 642              	.LBB81:
 643              	.LBI78:
 158:Drivers/lvgl/src/misc/lv_anim.h **** {
 644              		.loc 2 158 20 view .LVU196
 645              	.LBB80:
 646              		.loc 2 160 5 view .LVU197
 647              		.loc 2 160 5 is_stmt 0 view .LVU198
 648              	.LBE80:
 649              	.LBE81:
 650              	.LBE83:
 112:Drivers/lvgl/src/misc/lv_anim_timeline.c ****     }
 651              		.loc 1 112 9 is_stmt 1 view .LVU199
 652 00ae FFF7FEFF 		bl	lv_anim_start
 653              	.LVL44:
 112:Drivers/lvgl/src/misc/lv_anim_timeline.c ****     }
 654              		.loc 1 112 9 is_stmt 0 view .LVU200
 655              	.LBE84:
  98:Drivers/lvgl/src/misc/lv_anim_timeline.c ****         lv_anim_t a = at->anim_dsc[i].anim;
 656              		.loc 1 98 48 is_stmt 1 view .LVU201
  98:Drivers/lvgl/src/misc/lv_anim_timeline.c ****         lv_anim_t a = at->anim_dsc[i].anim;
 657              		.loc 1 98 27 is_stmt 0 view .LVU202
 658 00b2 7B68     		ldr	r3, [r7, #4]
ARM GAS  /var/folders/0z/tsy30v1j4xl4_7kw94k978ww0000gn/T//ccKNJMqd.s 			page 22


  98:Drivers/lvgl/src/misc/lv_anim_timeline.c ****         lv_anim_t a = at->anim_dsc[i].anim;
 659              		.loc 1 98 48 view .LVU203
 660 00b4 09F10109 		add	r9, r9, #1
 661              	.LVL45:
  98:Drivers/lvgl/src/misc/lv_anim_timeline.c ****         lv_anim_t a = at->anim_dsc[i].anim;
 662              		.loc 1 98 27 is_stmt 1 view .LVU204
 663 00b8 4B45     		cmp	r3, r9
 664 00ba 08F14808 		add	r8, r8, #72
 665 00be E5D8     		bhi	.L36
 666              	.LBE85:
 116:Drivers/lvgl/src/misc/lv_anim_timeline.c **** 
 667              		.loc 1 116 1 is_stmt 0 view .LVU205
 668 00c0 3046     		mov	r0, r6
 669 00c2 13B0     		add	sp, sp, #76
 670              		.cfi_def_cfa_offset 28
 671              		@ sp needed
 672 00c4 BDE8F083 		pop	{r4, r5, r6, r7, r8, r9, pc}
 116:Drivers/lvgl/src/misc/lv_anim_timeline.c **** 
 673              		.loc 1 116 1 view .LVU206
 674              		.cfi_endproc
 675              	.LFE25:
 677              		.section	.text.lv_anim_timeline_stop,"ax",%progbits
 678              		.align	1
 679              		.p2align 2,,3
 680              		.global	lv_anim_timeline_stop
 681              		.syntax unified
 682              		.thumb
 683              		.thumb_func
 685              	lv_anim_timeline_stop:
 686              	.LVL46:
 687              	.LFB26:
 119:Drivers/lvgl/src/misc/lv_anim_timeline.c ****     LV_ASSERT_NULL(at);
 688              		.loc 1 119 1 is_stmt 1 view -0
 689              		.cfi_startproc
 690              		@ args = 0, pretend = 0, frame = 0
 691              		@ frame_needed = 0, uses_anonymous_args = 0
 120:Drivers/lvgl/src/misc/lv_anim_timeline.c **** 
 692              		.loc 1 120 5 view .LVU208
 120:Drivers/lvgl/src/misc/lv_anim_timeline.c **** 
 693              		.loc 1 120 5 view .LVU209
 694 0000 90B1     		cbz	r0, .L53
 695              	.LVL47:
 696              	.LBB91:
 697              	.LBB92:
 122:Drivers/lvgl/src/misc/lv_anim_timeline.c ****         lv_anim_t * a = &(at->anim_dsc[i].anim);
 698              		.loc 1 122 27 view .LVU210
 699 0002 4368     		ldr	r3, [r0, #4]
 700              	.LBE92:
 701              	.LBE91:
 119:Drivers/lvgl/src/misc/lv_anim_timeline.c ****     LV_ASSERT_NULL(at);
 702              		.loc 1 119 1 is_stmt 0 view .LVU211
 703 0004 70B5     		push	{r4, r5, r6, lr}
 704              		.cfi_def_cfa_offset 16
 705              		.cfi_offset 4, -16
 706              		.cfi_offset 5, -12
 707              		.cfi_offset 6, -8
 708              		.cfi_offset 14, -4
ARM GAS  /var/folders/0z/tsy30v1j4xl4_7kw94k978ww0000gn/T//ccKNJMqd.s 			page 23


 709 0006 0646     		mov	r6, r0
 710              	.LBB95:
 711              	.LBB94:
 122:Drivers/lvgl/src/misc/lv_anim_timeline.c ****         lv_anim_t * a = &(at->anim_dsc[i].anim);
 712              		.loc 1 122 27 view .LVU212
 713 0008 6BB1     		cbz	r3, .L52
 714 000a 0024     		movs	r4, #0
 122:Drivers/lvgl/src/misc/lv_anim_timeline.c ****         lv_anim_t * a = &(at->anim_dsc[i].anim);
 715              		.loc 1 122 18 view .LVU213
 716 000c 2546     		mov	r5, r4
 717              	.LVL48:
 718              	.L54:
 719              	.LBB93:
 123:Drivers/lvgl/src/misc/lv_anim_timeline.c ****         lv_anim_del(a->var, a->exec_cb);
 720              		.loc 1 123 9 is_stmt 1 view .LVU214
 123:Drivers/lvgl/src/misc/lv_anim_timeline.c ****         lv_anim_del(a->var, a->exec_cb);
 721              		.loc 1 123 39 is_stmt 0 view .LVU215
 722 000e 3368     		ldr	r3, [r6]
 723 0010 1A19     		adds	r2, r3, r4
 724              	.LVL49:
 124:Drivers/lvgl/src/misc/lv_anim_timeline.c ****     }
 725              		.loc 1 124 9 is_stmt 1 view .LVU216
 726 0012 1859     		ldr	r0, [r3, r4]
 727 0014 5168     		ldr	r1, [r2, #4]
 728 0016 FFF7FEFF 		bl	lv_anim_del
 729              	.LVL50:
 124:Drivers/lvgl/src/misc/lv_anim_timeline.c ****     }
 730              		.loc 1 124 9 is_stmt 0 view .LVU217
 731              	.LBE93:
 122:Drivers/lvgl/src/misc/lv_anim_timeline.c ****         lv_anim_t * a = &(at->anim_dsc[i].anim);
 732              		.loc 1 122 48 is_stmt 1 view .LVU218
 122:Drivers/lvgl/src/misc/lv_anim_timeline.c ****         lv_anim_t * a = &(at->anim_dsc[i].anim);
 733              		.loc 1 122 27 is_stmt 0 view .LVU219
 734 001a 7368     		ldr	r3, [r6, #4]
 122:Drivers/lvgl/src/misc/lv_anim_timeline.c ****         lv_anim_t * a = &(at->anim_dsc[i].anim);
 735              		.loc 1 122 48 view .LVU220
 736 001c 0135     		adds	r5, r5, #1
 737              	.LVL51:
 122:Drivers/lvgl/src/misc/lv_anim_timeline.c ****         lv_anim_t * a = &(at->anim_dsc[i].anim);
 738              		.loc 1 122 27 is_stmt 1 view .LVU221
 739 001e 9D42     		cmp	r5, r3
 740 0020 04F14804 		add	r4, r4, #72
 741 0024 F3D3     		bcc	.L54
 742              	.LVL52:
 743              	.L52:
 122:Drivers/lvgl/src/misc/lv_anim_timeline.c ****         lv_anim_t * a = &(at->anim_dsc[i].anim);
 744              		.loc 1 122 27 is_stmt 0 view .LVU222
 745              	.LBE94:
 746              	.LBE95:
 126:Drivers/lvgl/src/misc/lv_anim_timeline.c **** 
 747              		.loc 1 126 1 view .LVU223
 748 0026 70BD     		pop	{r4, r5, r6, pc}
 749              	.LVL53:
 750              	.L53:
 751              		.cfi_def_cfa_offset 0
 752              		.cfi_restore 4
 753              		.cfi_restore 5
ARM GAS  /var/folders/0z/tsy30v1j4xl4_7kw94k978ww0000gn/T//ccKNJMqd.s 			page 24


 754              		.cfi_restore 6
 755              		.cfi_restore 14
 120:Drivers/lvgl/src/misc/lv_anim_timeline.c **** 
 756              		.loc 1 120 5 is_stmt 1 discriminator 1 view .LVU224
 120:Drivers/lvgl/src/misc/lv_anim_timeline.c **** 
 757              		.loc 1 120 5 discriminator 1 view .LVU225
 120:Drivers/lvgl/src/misc/lv_anim_timeline.c **** 
 758              		.loc 1 120 5 discriminator 1 view .LVU226
 120:Drivers/lvgl/src/misc/lv_anim_timeline.c **** 
 759              		.loc 1 120 5 discriminator 1 view .LVU227
 120:Drivers/lvgl/src/misc/lv_anim_timeline.c **** 
 760              		.loc 1 120 5 discriminator 1 view .LVU228
 120:Drivers/lvgl/src/misc/lv_anim_timeline.c **** 
 761              		.loc 1 120 5 discriminator 1 view .LVU229
 120:Drivers/lvgl/src/misc/lv_anim_timeline.c **** 
 762              		.loc 1 120 5 discriminator 1 view .LVU230
 120:Drivers/lvgl/src/misc/lv_anim_timeline.c **** 
 763              		.loc 1 120 5 discriminator 1 view .LVU231
 120:Drivers/lvgl/src/misc/lv_anim_timeline.c **** 
 764              		.loc 1 120 5 discriminator 1 view .LVU232
 120:Drivers/lvgl/src/misc/lv_anim_timeline.c **** 
 765              		.loc 1 120 5 discriminator 1 view .LVU233
 766 0028 FEE7     		b	.L53
 767              		.cfi_endproc
 768              	.LFE26:
 770 002a 00BF     		.section	.text.lv_anim_timeline_set_reverse,"ax",%progbits
 771              		.align	1
 772              		.p2align 2,,3
 773              		.global	lv_anim_timeline_set_reverse
 774              		.syntax unified
 775              		.thumb
 776              		.thumb_func
 778              	lv_anim_timeline_set_reverse:
 779              	.LVL54:
 780              	.LFB27:
 129:Drivers/lvgl/src/misc/lv_anim_timeline.c ****     LV_ASSERT_NULL(at);
 781              		.loc 1 129 1 view -0
 782              		.cfi_startproc
 783              		@ args = 0, pretend = 0, frame = 0
 784              		@ frame_needed = 0, uses_anonymous_args = 0
 785              		@ link register save eliminated.
 130:Drivers/lvgl/src/misc/lv_anim_timeline.c ****     at->reverse = reverse;
 786              		.loc 1 130 5 view .LVU235
 130:Drivers/lvgl/src/misc/lv_anim_timeline.c ****     at->reverse = reverse;
 787              		.loc 1 130 5 view .LVU236
 788 0000 08B1     		cbz	r0, .L65
 130:Drivers/lvgl/src/misc/lv_anim_timeline.c ****     at->reverse = reverse;
 789              		.loc 1 130 5 discriminator 2 view .LVU237
 130:Drivers/lvgl/src/misc/lv_anim_timeline.c ****     at->reverse = reverse;
 790              		.loc 1 130 23 discriminator 2 view .LVU238
 131:Drivers/lvgl/src/misc/lv_anim_timeline.c **** }
 791              		.loc 1 131 5 discriminator 2 view .LVU239
 131:Drivers/lvgl/src/misc/lv_anim_timeline.c **** }
 792              		.loc 1 131 17 is_stmt 0 discriminator 2 view .LVU240
 793 0002 0172     		strb	r1, [r0, #8]
 132:Drivers/lvgl/src/misc/lv_anim_timeline.c **** 
 794              		.loc 1 132 1 discriminator 2 view .LVU241
ARM GAS  /var/folders/0z/tsy30v1j4xl4_7kw94k978ww0000gn/T//ccKNJMqd.s 			page 25


 795 0004 7047     		bx	lr
 796              	.L65:
 130:Drivers/lvgl/src/misc/lv_anim_timeline.c ****     at->reverse = reverse;
 797              		.loc 1 130 5 is_stmt 1 discriminator 1 view .LVU242
 130:Drivers/lvgl/src/misc/lv_anim_timeline.c ****     at->reverse = reverse;
 798              		.loc 1 130 5 discriminator 1 view .LVU243
 130:Drivers/lvgl/src/misc/lv_anim_timeline.c ****     at->reverse = reverse;
 799              		.loc 1 130 5 discriminator 1 view .LVU244
 130:Drivers/lvgl/src/misc/lv_anim_timeline.c ****     at->reverse = reverse;
 800              		.loc 1 130 5 discriminator 1 view .LVU245
 130:Drivers/lvgl/src/misc/lv_anim_timeline.c ****     at->reverse = reverse;
 801              		.loc 1 130 5 discriminator 1 view .LVU246
 130:Drivers/lvgl/src/misc/lv_anim_timeline.c ****     at->reverse = reverse;
 802              		.loc 1 130 5 discriminator 1 view .LVU247
 130:Drivers/lvgl/src/misc/lv_anim_timeline.c ****     at->reverse = reverse;
 803              		.loc 1 130 5 discriminator 1 view .LVU248
 130:Drivers/lvgl/src/misc/lv_anim_timeline.c ****     at->reverse = reverse;
 804              		.loc 1 130 5 discriminator 1 view .LVU249
 130:Drivers/lvgl/src/misc/lv_anim_timeline.c ****     at->reverse = reverse;
 805              		.loc 1 130 5 discriminator 1 view .LVU250
 130:Drivers/lvgl/src/misc/lv_anim_timeline.c ****     at->reverse = reverse;
 806              		.loc 1 130 5 discriminator 1 view .LVU251
 807 0006 FEE7     		b	.L65
 808              		.cfi_endproc
 809              	.LFE27:
 811              		.section	.text.lv_anim_timeline_set_progress,"ax",%progbits
 812              		.align	1
 813              		.p2align 2,,3
 814              		.global	lv_anim_timeline_set_progress
 815              		.syntax unified
 816              		.thumb
 817              		.thumb_func
 819              	lv_anim_timeline_set_progress:
 820              	.LVL55:
 821              	.LFB28:
 135:Drivers/lvgl/src/misc/lv_anim_timeline.c ****     LV_ASSERT_NULL(at);
 822              		.loc 1 135 1 view -0
 823              		.cfi_startproc
 824              		@ args = 0, pretend = 0, frame = 0
 825              		@ frame_needed = 0, uses_anonymous_args = 0
 136:Drivers/lvgl/src/misc/lv_anim_timeline.c **** 
 826              		.loc 1 136 5 view .LVU253
 136:Drivers/lvgl/src/misc/lv_anim_timeline.c **** 
 827              		.loc 1 136 5 view .LVU254
 828 0000 0028     		cmp	r0, #0
 829 0002 4ED0     		beq	.L67
 830              	.LVL56:
 831              	.LBB104:
 832              	.LBB105:
 833              	.LBB106:
 834              	.LBB107:
 835              	.LBB108:
 171:Drivers/lvgl/src/misc/lv_anim_timeline.c ****         uint32_t end = lv_anim_get_playtime(&at->anim_dsc[i].anim);
 836              		.loc 1 171 27 view .LVU255
 837 0004 4368     		ldr	r3, [r0, #4]
 838              	.LBE108:
 839              	.LBE107:
ARM GAS  /var/folders/0z/tsy30v1j4xl4_7kw94k978ww0000gn/T//ccKNJMqd.s 			page 26


 840              	.LBE106:
 841              	.LBE105:
 842              	.LBE104:
 135:Drivers/lvgl/src/misc/lv_anim_timeline.c ****     LV_ASSERT_NULL(at);
 843              		.loc 1 135 1 is_stmt 0 view .LVU256
 844 0006 2DE9F047 		push	{r4, r5, r6, r7, r8, r9, r10, lr}
 845              		.cfi_def_cfa_offset 32
 846              		.cfi_offset 4, -32
 847              		.cfi_offset 5, -28
 848              		.cfi_offset 6, -24
 849              		.cfi_offset 7, -20
 850              		.cfi_offset 8, -16
 851              		.cfi_offset 9, -12
 852              		.cfi_offset 10, -8
 853              		.cfi_offset 14, -4
 854 000a 0646     		mov	r6, r0
 855              	.LBB119:
 856              	.LBB118:
 857              	.LBB117:
 858              	.LBB116:
 859              	.LBB114:
 171:Drivers/lvgl/src/misc/lv_anim_timeline.c ****         uint32_t end = lv_anim_get_playtime(&at->anim_dsc[i].anim);
 860              		.loc 1 171 27 view .LVU257
 861 000c 002B     		cmp	r3, #0
 862 000e 49D0     		beq	.L66
 863              	.LBE114:
 170:Drivers/lvgl/src/misc/lv_anim_timeline.c ****     for(uint32_t i = 0; i < at->anim_dsc_cnt; i++) {
 864              		.loc 1 170 14 view .LVU258
 865 0010 4FF00008 		mov	r8, #0
 866 0014 0F46     		mov	r7, r1
 867              	.LBB115:
 171:Drivers/lvgl/src/misc/lv_anim_timeline.c ****         uint32_t end = lv_anim_get_playtime(&at->anim_dsc[i].anim);
 868              		.loc 1 171 18 view .LVU259
 869 0016 4546     		mov	r5, r8
 870              	.LBB109:
 172:Drivers/lvgl/src/misc/lv_anim_timeline.c ****         if(end == LV_ANIM_PLAYTIME_INFINITE)
 871              		.loc 1 172 48 view .LVU260
 872 0018 0168     		ldr	r1, [r0]
 873              	.LVL57:
 172:Drivers/lvgl/src/misc/lv_anim_timeline.c ****         if(end == LV_ANIM_PLAYTIME_INFINITE)
 874              		.loc 1 172 48 view .LVU261
 875 001a 09E0     		b	.L70
 876              	.LVL58:
 877              	.L91:
 172:Drivers/lvgl/src/misc/lv_anim_timeline.c ****         if(end == LV_ANIM_PLAYTIME_INFINITE)
 878              		.loc 1 172 48 view .LVU262
 879              	.LBE109:
 171:Drivers/lvgl/src/misc/lv_anim_timeline.c ****         uint32_t end = lv_anim_get_playtime(&at->anim_dsc[i].anim);
 880              		.loc 1 171 31 view .LVU263
 881 001c D6E90012 		ldrd	r1, r2, [r6]
 882              	.LBB110:
 175:Drivers/lvgl/src/misc/lv_anim_timeline.c ****         if(end > playtime) {
 883              		.loc 1 175 31 view .LVU264
 884 0020 0C44     		add	r4, r4, r1
 175:Drivers/lvgl/src/misc/lv_anim_timeline.c ****         if(end > playtime) {
 885              		.loc 1 175 13 view .LVU265
 886 0022 636C     		ldr	r3, [r4, #68]
ARM GAS  /var/folders/0z/tsy30v1j4xl4_7kw94k978ww0000gn/T//ccKNJMqd.s 			page 27


 887 0024 0344     		add	r3, r3, r0
 888 0026 9845     		cmp	r8, r3
 889 0028 38BF     		it	cc
 890 002a 9846     		movcc	r8, r3
 891              	.LVL59:
 175:Drivers/lvgl/src/misc/lv_anim_timeline.c ****         if(end > playtime) {
 892              		.loc 1 175 13 view .LVU266
 893              	.LBE110:
 171:Drivers/lvgl/src/misc/lv_anim_timeline.c ****         uint32_t end = lv_anim_get_playtime(&at->anim_dsc[i].anim);
 894              		.loc 1 171 48 is_stmt 1 view .LVU267
 171:Drivers/lvgl/src/misc/lv_anim_timeline.c ****         uint32_t end = lv_anim_get_playtime(&at->anim_dsc[i].anim);
 895              		.loc 1 171 27 view .LVU268
 896 002c 9542     		cmp	r5, r2
 897 002e 0DD2     		bcs	.L71
 898              	.LVL60:
 899              	.L70:
 900              	.LBB111:
 172:Drivers/lvgl/src/misc/lv_anim_timeline.c ****         if(end == LV_ANIM_PLAYTIME_INFINITE)
 901              		.loc 1 172 9 view .LVU269
 902 0030 05EBC504 		add	r4, r5, r5, lsl #3
 172:Drivers/lvgl/src/misc/lv_anim_timeline.c ****         if(end == LV_ANIM_PLAYTIME_INFINITE)
 903              		.loc 1 172 24 is_stmt 0 view .LVU270
 904 0034 01EBC400 		add	r0, r1, r4, lsl #3
 905 0038 FFF7FEFF 		bl	lv_anim_get_playtime
 906              	.LVL61:
 175:Drivers/lvgl/src/misc/lv_anim_timeline.c ****         if(end > playtime) {
 907              		.loc 1 175 9 is_stmt 1 view .LVU271
 173:Drivers/lvgl/src/misc/lv_anim_timeline.c ****             return end;
 908              		.loc 1 173 9 view .LVU272
 173:Drivers/lvgl/src/misc/lv_anim_timeline.c ****             return end;
 909              		.loc 1 173 11 is_stmt 0 view .LVU273
 910 003c 431C     		adds	r3, r0, #1
 911 003e 4FEAC404 		lsl	r4, r4, #3
 912              	.LBE111:
 171:Drivers/lvgl/src/misc/lv_anim_timeline.c ****         uint32_t end = lv_anim_get_playtime(&at->anim_dsc[i].anim);
 913              		.loc 1 171 48 view .LVU274
 914 0042 05F10105 		add	r5, r5, #1
 915              	.LVL62:
 916              	.LBB112:
 173:Drivers/lvgl/src/misc/lv_anim_timeline.c ****             return end;
 917              		.loc 1 173 11 view .LVU275
 918 0046 E9D1     		bne	.L91
 919              	.LBE112:
 171:Drivers/lvgl/src/misc/lv_anim_timeline.c ****         uint32_t end = lv_anim_get_playtime(&at->anim_dsc[i].anim);
 920              		.loc 1 171 31 view .LVU276
 921 0048 7268     		ldr	r2, [r6, #4]
 922              	.LBB113:
 172:Drivers/lvgl/src/misc/lv_anim_timeline.c ****         if(end == LV_ANIM_PLAYTIME_INFINITE)
 923              		.loc 1 172 24 view .LVU277
 924 004a 8046     		mov	r8, r0
 925              	.LVL63:
 926              	.L71:
 172:Drivers/lvgl/src/misc/lv_anim_timeline.c ****         if(end == LV_ANIM_PLAYTIME_INFINITE)
 927              		.loc 1 172 24 view .LVU278
 928              	.LBE113:
 929              	.LBE115:
 930              	.LBE116:
ARM GAS  /var/folders/0z/tsy30v1j4xl4_7kw94k978ww0000gn/T//ccKNJMqd.s 			page 28


 931              	.LBE117:
 932              	.LBE118:
 933              	.LBE119:
 139:Drivers/lvgl/src/misc/lv_anim_timeline.c **** 
 934              		.loc 1 139 5 is_stmt 1 view .LVU279
 139:Drivers/lvgl/src/misc/lv_anim_timeline.c **** 
 935              		.loc 1 139 20 is_stmt 0 view .LVU280
 936 004c 174B     		ldr	r3, .L93
 139:Drivers/lvgl/src/misc/lv_anim_timeline.c **** 
 937              		.loc 1 139 40 view .LVU281
 938 004e 08FB07F8 		mul	r8, r8, r7
 939              	.LVL64:
 139:Drivers/lvgl/src/misc/lv_anim_timeline.c **** 
 940              		.loc 1 139 20 view .LVU282
 941 0052 A3FB0838 		umull	r3, r8, r3, r8
 942 0056 4FEAD838 		lsr	r8, r8, #15
 943              	.LVL65:
 141:Drivers/lvgl/src/misc/lv_anim_timeline.c ****         lv_anim_t * a = &(at->anim_dsc[i].anim);
 944              		.loc 1 141 5 is_stmt 1 view .LVU283
 945              	.LBB120:
 141:Drivers/lvgl/src/misc/lv_anim_timeline.c ****         lv_anim_t * a = &(at->anim_dsc[i].anim);
 946              		.loc 1 141 9 view .LVU284
 141:Drivers/lvgl/src/misc/lv_anim_timeline.c ****         lv_anim_t * a = &(at->anim_dsc[i].anim);
 947              		.loc 1 141 27 view .LVU285
 948 005a 1AB3     		cbz	r2, .L66
 141:Drivers/lvgl/src/misc/lv_anim_timeline.c ****         lv_anim_t * a = &(at->anim_dsc[i].anim);
 949              		.loc 1 141 18 is_stmt 0 view .LVU286
 950 005c 0024     		movs	r4, #0
 951 005e 07E0     		b	.L77
 952              	.LVL66:
 953              	.L92:
 954              	.LBB121:
 152:Drivers/lvgl/src/misc/lv_anim_timeline.c ****         }
 955              		.loc 1 152 19 view .LVU287
 956 0060 296A     		ldr	r1, [r5, #32]
 957              	.LVL67:
 958              	.L75:
 162:Drivers/lvgl/src/misc/lv_anim_timeline.c ****     }
 959              		.loc 1 162 9 is_stmt 1 view .LVU288
 960 0062 59F83A00 		ldr	r0, [r9, r10, lsl #3]
 961 0066 B847     		blx	r7
 962              	.LVL68:
 162:Drivers/lvgl/src/misc/lv_anim_timeline.c ****     }
 963              		.loc 1 162 9 is_stmt 0 view .LVU289
 964              	.LBE121:
 141:Drivers/lvgl/src/misc/lv_anim_timeline.c ****         lv_anim_t * a = &(at->anim_dsc[i].anim);
 965              		.loc 1 141 31 view .LVU290
 966 0068 7268     		ldr	r2, [r6, #4]
 967              	.L73:
 141:Drivers/lvgl/src/misc/lv_anim_timeline.c ****         lv_anim_t * a = &(at->anim_dsc[i].anim);
 968              		.loc 1 141 48 is_stmt 1 discriminator 2 view .LVU291
 969 006a 0134     		adds	r4, r4, #1
 970              	.LVL69:
 141:Drivers/lvgl/src/misc/lv_anim_timeline.c ****         lv_anim_t * a = &(at->anim_dsc[i].anim);
 971              		.loc 1 141 27 discriminator 2 view .LVU292
 972 006c 9442     		cmp	r4, r2
 973 006e 19D2     		bcs	.L66
ARM GAS  /var/folders/0z/tsy30v1j4xl4_7kw94k978ww0000gn/T//ccKNJMqd.s 			page 29


 974              	.LVL70:
 975              	.L77:
 976              	.LBB122:
 142:Drivers/lvgl/src/misc/lv_anim_timeline.c **** 
 977              		.loc 1 142 9 view .LVU293
 148:Drivers/lvgl/src/misc/lv_anim_timeline.c ****         int32_t value = 0;
 978              		.loc 1 148 9 view .LVU294
 152:Drivers/lvgl/src/misc/lv_anim_timeline.c ****         }
 979              		.loc 1 152 13 view .LVU295
 154:Drivers/lvgl/src/misc/lv_anim_timeline.c ****             a->act_time = act_time - start_time;
 980              		.loc 1 154 14 view .LVU296
 142:Drivers/lvgl/src/misc/lv_anim_timeline.c **** 
 981              		.loc 1 142 39 is_stmt 0 view .LVU297
 982 0070 D6F80090 		ldr	r9, [r6]
 983 0074 04EBC40A 		add	r10, r4, r4, lsl #3
 984 0078 09EBCA05 		add	r5, r9, r10, lsl #3
 985              	.LVL71:
 144:Drivers/lvgl/src/misc/lv_anim_timeline.c ****             continue;
 986              		.loc 1 144 9 is_stmt 1 view .LVU298
 144:Drivers/lvgl/src/misc/lv_anim_timeline.c ****             continue;
 987              		.loc 1 144 13 is_stmt 0 view .LVU299
 988 007c 6F68     		ldr	r7, [r5, #4]
 144:Drivers/lvgl/src/misc/lv_anim_timeline.c ****             continue;
 989              		.loc 1 144 11 view .LVU300
 990 007e 002F     		cmp	r7, #0
 991 0080 F3D0     		beq	.L73
 148:Drivers/lvgl/src/misc/lv_anim_timeline.c ****         int32_t value = 0;
 992              		.loc 1 148 18 view .LVU301
 993 0082 6B6C     		ldr	r3, [r5, #68]
 994              	.LVL72:
 149:Drivers/lvgl/src/misc/lv_anim_timeline.c **** 
 995              		.loc 1 149 9 is_stmt 1 view .LVU302
 151:Drivers/lvgl/src/misc/lv_anim_timeline.c ****             value = a->start_value;
 996              		.loc 1 151 9 view .LVU303
 151:Drivers/lvgl/src/misc/lv_anim_timeline.c ****             value = a->start_value;
 997              		.loc 1 151 11 is_stmt 0 view .LVU304
 998 0084 9845     		cmp	r8, r3
 999 0086 EBD3     		bcc	.L92
 155:Drivers/lvgl/src/misc/lv_anim_timeline.c ****             value = a->path_cb(a);
 1000              		.loc 1 155 13 is_stmt 1 view .LVU305
 159:Drivers/lvgl/src/misc/lv_anim_timeline.c ****         }
 1001              		.loc 1 159 13 view .LVU306
 154:Drivers/lvgl/src/misc/lv_anim_timeline.c ****             a->act_time = act_time - start_time;
 1002              		.loc 1 154 40 is_stmt 0 view .LVU307
 1003 0088 EA6A     		ldr	r2, [r5, #44]
 155:Drivers/lvgl/src/misc/lv_anim_timeline.c ****             value = a->path_cb(a);
 1004              		.loc 1 155 36 view .LVU308
 1005 008a A8EB0301 		sub	r1, r8, r3
 154:Drivers/lvgl/src/misc/lv_anim_timeline.c ****             a->act_time = act_time - start_time;
 1006              		.loc 1 154 40 view .LVU309
 1007 008e 1344     		add	r3, r3, r2
 1008              	.LVL73:
 154:Drivers/lvgl/src/misc/lv_anim_timeline.c ****             a->act_time = act_time - start_time;
 1009              		.loc 1 154 16 view .LVU310
 1010 0090 4345     		cmp	r3, r8
 1011 0092 09D9     		bls	.L76
 155:Drivers/lvgl/src/misc/lv_anim_timeline.c ****             value = a->path_cb(a);
ARM GAS  /var/folders/0z/tsy30v1j4xl4_7kw94k978ww0000gn/T//ccKNJMqd.s 			page 30


 1012              		.loc 1 155 25 view .LVU311
 1013 0094 2963     		str	r1, [r5, #48]
 156:Drivers/lvgl/src/misc/lv_anim_timeline.c ****         }
 1014              		.loc 1 156 13 is_stmt 1 view .LVU312
 156:Drivers/lvgl/src/misc/lv_anim_timeline.c ****         }
 1015              		.loc 1 156 21 is_stmt 0 view .LVU313
 1016 0096 EB69     		ldr	r3, [r5, #28]
 1017 0098 2846     		mov	r0, r5
 1018 009a 9847     		blx	r3
 1019              	.LVL74:
 162:Drivers/lvgl/src/misc/lv_anim_timeline.c ****     }
 1020              		.loc 1 162 10 view .LVU314
 1021 009c 6F68     		ldr	r7, [r5, #4]
 156:Drivers/lvgl/src/misc/lv_anim_timeline.c ****         }
 1022              		.loc 1 156 21 view .LVU315
 1023 009e 0146     		mov	r1, r0
 1024              	.LVL75:
 156:Drivers/lvgl/src/misc/lv_anim_timeline.c ****         }
 1025              		.loc 1 156 21 view .LVU316
 1026 00a0 DFE7     		b	.L75
 1027              	.LVL76:
 1028              	.L67:
 1029              		.cfi_def_cfa_offset 0
 1030              		.cfi_restore 4
 1031              		.cfi_restore 5
 1032              		.cfi_restore 6
 1033              		.cfi_restore 7
 1034              		.cfi_restore 8
 1035              		.cfi_restore 9
 1036              		.cfi_restore 10
 1037              		.cfi_restore 14
 156:Drivers/lvgl/src/misc/lv_anim_timeline.c ****         }
 1038              		.loc 1 156 21 view .LVU317
 1039              	.LBE122:
 1040              	.LBE120:
 136:Drivers/lvgl/src/misc/lv_anim_timeline.c **** 
 1041              		.loc 1 136 5 is_stmt 1 discriminator 1 view .LVU318
 136:Drivers/lvgl/src/misc/lv_anim_timeline.c **** 
 1042              		.loc 1 136 5 discriminator 1 view .LVU319
 136:Drivers/lvgl/src/misc/lv_anim_timeline.c **** 
 1043              		.loc 1 136 5 discriminator 1 view .LVU320
 136:Drivers/lvgl/src/misc/lv_anim_timeline.c **** 
 1044              		.loc 1 136 5 discriminator 1 view .LVU321
 136:Drivers/lvgl/src/misc/lv_anim_timeline.c **** 
 1045              		.loc 1 136 5 discriminator 1 view .LVU322
 136:Drivers/lvgl/src/misc/lv_anim_timeline.c **** 
 1046              		.loc 1 136 5 discriminator 1 view .LVU323
 136:Drivers/lvgl/src/misc/lv_anim_timeline.c **** 
 1047              		.loc 1 136 5 discriminator 1 view .LVU324
 136:Drivers/lvgl/src/misc/lv_anim_timeline.c **** 
 1048              		.loc 1 136 5 discriminator 1 view .LVU325
 136:Drivers/lvgl/src/misc/lv_anim_timeline.c **** 
 1049              		.loc 1 136 5 discriminator 1 view .LVU326
 136:Drivers/lvgl/src/misc/lv_anim_timeline.c **** 
 1050              		.loc 1 136 5 discriminator 1 view .LVU327
 1051 00a2 FEE7     		b	.L67
 1052              	.LVL77:
ARM GAS  /var/folders/0z/tsy30v1j4xl4_7kw94k978ww0000gn/T//ccKNJMqd.s 			page 31


 1053              	.L66:
 1054              		.cfi_def_cfa_offset 32
 1055              		.cfi_offset 4, -32
 1056              		.cfi_offset 5, -28
 1057              		.cfi_offset 6, -24
 1058              		.cfi_offset 7, -20
 1059              		.cfi_offset 8, -16
 1060              		.cfi_offset 9, -12
 1061              		.cfi_offset 10, -8
 1062              		.cfi_offset 14, -4
 164:Drivers/lvgl/src/misc/lv_anim_timeline.c **** 
 1063              		.loc 1 164 1 is_stmt 0 view .LVU328
 1064 00a4 BDE8F087 		pop	{r4, r5, r6, r7, r8, r9, r10, pc}
 1065              	.LVL78:
 1066              	.L76:
 1067              	.LBB124:
 1068              	.LBB123:
 159:Drivers/lvgl/src/misc/lv_anim_timeline.c ****         }
 1069              		.loc 1 159 19 view .LVU329
 1070 00a8 A96A     		ldr	r1, [r5, #40]
 1071              	.LVL79:
 159:Drivers/lvgl/src/misc/lv_anim_timeline.c ****         }
 1072              		.loc 1 159 19 view .LVU330
 1073 00aa DAE7     		b	.L75
 1074              	.L94:
 1075              		.align	2
 1076              	.L93:
 1077 00ac 01800080 		.word	-2147450879
 1078              	.LBE123:
 1079              	.LBE124:
 1080              		.cfi_endproc
 1081              	.LFE28:
 1083              		.section	.text.lv_anim_timeline_get_playtime,"ax",%progbits
 1084              		.align	1
 1085              		.p2align 2,,3
 1086              		.global	lv_anim_timeline_get_playtime
 1087              		.syntax unified
 1088              		.thumb
 1089              		.thumb_func
 1091              	lv_anim_timeline_get_playtime:
 1092              	.LVL80:
 1093              	.LFB29:
 167:Drivers/lvgl/src/misc/lv_anim_timeline.c ****     LV_ASSERT_NULL(at);
 1094              		.loc 1 167 1 is_stmt 1 view -0
 1095              		.cfi_startproc
 1096              		@ args = 0, pretend = 0, frame = 0
 1097              		@ frame_needed = 0, uses_anonymous_args = 0
 168:Drivers/lvgl/src/misc/lv_anim_timeline.c **** 
 1098              		.loc 1 168 5 view .LVU332
 168:Drivers/lvgl/src/misc/lv_anim_timeline.c **** 
 1099              		.loc 1 168 5 view .LVU333
 1100 0000 E8B1     		cbz	r0, .L96
 1101              	.LVL81:
 1102              	.LBB130:
 1103              	.LBB131:
 1104              	.LBB132:
 171:Drivers/lvgl/src/misc/lv_anim_timeline.c ****         uint32_t end = lv_anim_get_playtime(&at->anim_dsc[i].anim);
ARM GAS  /var/folders/0z/tsy30v1j4xl4_7kw94k978ww0000gn/T//ccKNJMqd.s 			page 32


 1105              		.loc 1 171 27 view .LVU334
 1106              	.LBE132:
 1107              	.LBE131:
 1108              	.LBE130:
 167:Drivers/lvgl/src/misc/lv_anim_timeline.c ****     LV_ASSERT_NULL(at);
 1109              		.loc 1 167 1 is_stmt 0 view .LVU335
 1110 0002 F8B5     		push	{r3, r4, r5, r6, r7, lr}
 1111              		.cfi_def_cfa_offset 24
 1112              		.cfi_offset 3, -24
 1113              		.cfi_offset 4, -20
 1114              		.cfi_offset 5, -16
 1115              		.cfi_offset 6, -12
 1116              		.cfi_offset 7, -8
 1117              		.cfi_offset 14, -4
 1118 0004 0646     		mov	r6, r0
 1119              	.LBB142:
 1120              	.LBB140:
 1121              	.LBB137:
 171:Drivers/lvgl/src/misc/lv_anim_timeline.c ****         uint32_t end = lv_anim_get_playtime(&at->anim_dsc[i].anim);
 1122              		.loc 1 171 31 view .LVU336
 1123 0006 4068     		ldr	r0, [r0, #4]
 1124              	.LVL82:
 171:Drivers/lvgl/src/misc/lv_anim_timeline.c ****         uint32_t end = lv_anim_get_playtime(&at->anim_dsc[i].anim);
 1125              		.loc 1 171 27 view .LVU337
 1126 0008 C0B1     		cbz	r0, .L95
 1127              	.LBE137:
 170:Drivers/lvgl/src/misc/lv_anim_timeline.c ****     for(uint32_t i = 0; i < at->anim_dsc_cnt; i++) {
 1128              		.loc 1 170 14 view .LVU338
 1129 000a 0027     		movs	r7, #0
 1130              	.LBB138:
 1131              	.LBB133:
 172:Drivers/lvgl/src/misc/lv_anim_timeline.c ****         if(end == LV_ANIM_PLAYTIME_INFINITE)
 1132              		.loc 1 172 48 view .LVU339
 1133 000c 3268     		ldr	r2, [r6]
 1134              	.LBE133:
 171:Drivers/lvgl/src/misc/lv_anim_timeline.c ****         uint32_t end = lv_anim_get_playtime(&at->anim_dsc[i].anim);
 1135              		.loc 1 171 18 view .LVU340
 1136 000e 3D46     		mov	r5, r7
 1137 0010 09E0     		b	.L99
 1138              	.LVL83:
 1139              	.L110:
 171:Drivers/lvgl/src/misc/lv_anim_timeline.c ****         uint32_t end = lv_anim_get_playtime(&at->anim_dsc[i].anim);
 1140              		.loc 1 171 27 view .LVU341
 1141 0012 D6E90021 		ldrd	r2, r1, [r6]
 1142              	.LBB134:
 175:Drivers/lvgl/src/misc/lv_anim_timeline.c ****         if(end > playtime) {
 1143              		.loc 1 175 31 view .LVU342
 1144 0016 1319     		adds	r3, r2, r4
 175:Drivers/lvgl/src/misc/lv_anim_timeline.c ****         if(end > playtime) {
 1145              		.loc 1 175 13 view .LVU343
 1146 0018 5B6C     		ldr	r3, [r3, #68]
 1147 001a 0344     		add	r3, r3, r0
 1148 001c 9F42     		cmp	r7, r3
 1149 001e 38BF     		it	cc
 1150 0020 1F46     		movcc	r7, r3
 1151              	.LVL84:
 175:Drivers/lvgl/src/misc/lv_anim_timeline.c ****         if(end > playtime) {
ARM GAS  /var/folders/0z/tsy30v1j4xl4_7kw94k978ww0000gn/T//ccKNJMqd.s 			page 33


 1152              		.loc 1 175 13 view .LVU344
 1153              	.LBE134:
 171:Drivers/lvgl/src/misc/lv_anim_timeline.c ****         uint32_t end = lv_anim_get_playtime(&at->anim_dsc[i].anim);
 1154              		.loc 1 171 48 is_stmt 1 view .LVU345
 171:Drivers/lvgl/src/misc/lv_anim_timeline.c ****         uint32_t end = lv_anim_get_playtime(&at->anim_dsc[i].anim);
 1155              		.loc 1 171 27 view .LVU346
 1156 0022 8D42     		cmp	r5, r1
 1157 0024 0CD2     		bcs	.L109
 1158              	.LVL85:
 1159              	.L99:
 1160              	.LBB135:
 172:Drivers/lvgl/src/misc/lv_anim_timeline.c ****         if(end == LV_ANIM_PLAYTIME_INFINITE)
 1161              		.loc 1 172 9 view .LVU347
 1162 0026 05EBC503 		add	r3, r5, r5, lsl #3
 172:Drivers/lvgl/src/misc/lv_anim_timeline.c ****         if(end == LV_ANIM_PLAYTIME_INFINITE)
 1163              		.loc 1 172 24 is_stmt 0 view .LVU348
 1164 002a 02EBC300 		add	r0, r2, r3, lsl #3
 1165 002e DC00     		lsls	r4, r3, #3
 1166 0030 FFF7FEFF 		bl	lv_anim_get_playtime
 1167              	.LVL86:
 175:Drivers/lvgl/src/misc/lv_anim_timeline.c ****         if(end > playtime) {
 1168              		.loc 1 175 9 is_stmt 1 view .LVU349
 173:Drivers/lvgl/src/misc/lv_anim_timeline.c ****             return end;
 1169              		.loc 1 173 9 view .LVU350
 173:Drivers/lvgl/src/misc/lv_anim_timeline.c ****             return end;
 1170              		.loc 1 173 11 is_stmt 0 view .LVU351
 1171 0034 431C     		adds	r3, r0, #1
 1172              	.LBE135:
 171:Drivers/lvgl/src/misc/lv_anim_timeline.c ****         uint32_t end = lv_anim_get_playtime(&at->anim_dsc[i].anim);
 1173              		.loc 1 171 48 view .LVU352
 1174 0036 05F10105 		add	r5, r5, #1
 1175              	.LVL87:
 1176              	.LBB136:
 173:Drivers/lvgl/src/misc/lv_anim_timeline.c ****             return end;
 1177              		.loc 1 173 11 view .LVU353
 1178 003a EAD1     		bne	.L110
 1179              	.LVL88:
 1180              	.L95:
 173:Drivers/lvgl/src/misc/lv_anim_timeline.c ****             return end;
 1181              		.loc 1 173 11 view .LVU354
 1182              	.LBE136:
 1183              	.LBE138:
 1184              	.LBE140:
 1185              	.LBE142:
 182:Drivers/lvgl/src/misc/lv_anim_timeline.c **** 
 1186              		.loc 1 182 1 view .LVU355
 1187 003c F8BD     		pop	{r3, r4, r5, r6, r7, pc}
 1188              	.LVL89:
 1189              	.L96:
 1190              		.cfi_def_cfa_offset 0
 1191              		.cfi_restore 3
 1192              		.cfi_restore 4
 1193              		.cfi_restore 5
 1194              		.cfi_restore 6
 1195              		.cfi_restore 7
 1196              		.cfi_restore 14
 168:Drivers/lvgl/src/misc/lv_anim_timeline.c **** 
ARM GAS  /var/folders/0z/tsy30v1j4xl4_7kw94k978ww0000gn/T//ccKNJMqd.s 			page 34


 1197              		.loc 1 168 5 is_stmt 1 discriminator 1 view .LVU356
 168:Drivers/lvgl/src/misc/lv_anim_timeline.c **** 
 1198              		.loc 1 168 5 discriminator 1 view .LVU357
 168:Drivers/lvgl/src/misc/lv_anim_timeline.c **** 
 1199              		.loc 1 168 5 discriminator 1 view .LVU358
 168:Drivers/lvgl/src/misc/lv_anim_timeline.c **** 
 1200              		.loc 1 168 5 discriminator 1 view .LVU359
 168:Drivers/lvgl/src/misc/lv_anim_timeline.c **** 
 1201              		.loc 1 168 5 discriminator 1 view .LVU360
 168:Drivers/lvgl/src/misc/lv_anim_timeline.c **** 
 1202              		.loc 1 168 5 discriminator 1 view .LVU361
 168:Drivers/lvgl/src/misc/lv_anim_timeline.c **** 
 1203              		.loc 1 168 5 discriminator 1 view .LVU362
 168:Drivers/lvgl/src/misc/lv_anim_timeline.c **** 
 1204              		.loc 1 168 5 discriminator 1 view .LVU363
 168:Drivers/lvgl/src/misc/lv_anim_timeline.c **** 
 1205              		.loc 1 168 5 discriminator 1 view .LVU364
 168:Drivers/lvgl/src/misc/lv_anim_timeline.c **** 
 1206              		.loc 1 168 5 discriminator 1 view .LVU365
 1207 003e FEE7     		b	.L96
 1208              	.LVL90:
 1209              	.L109:
 1210              		.cfi_def_cfa_offset 24
 1211              		.cfi_offset 3, -24
 1212              		.cfi_offset 4, -20
 1213              		.cfi_offset 5, -16
 1214              		.cfi_offset 6, -12
 1215              		.cfi_offset 7, -8
 1216              		.cfi_offset 14, -4
 1217              	.LBB143:
 1218              	.LBB141:
 1219              	.LBB139:
 168:Drivers/lvgl/src/misc/lv_anim_timeline.c **** 
 1220              		.loc 1 168 5 is_stmt 0 discriminator 1 view .LVU366
 1221 0040 3846     		mov	r0, r7
 1222              	.LVL91:
 168:Drivers/lvgl/src/misc/lv_anim_timeline.c **** 
 1223              		.loc 1 168 5 discriminator 1 view .LVU367
 1224              	.LBE139:
 1225              	.LBE141:
 1226              	.LBE143:
 182:Drivers/lvgl/src/misc/lv_anim_timeline.c **** 
 1227              		.loc 1 182 1 view .LVU368
 1228 0042 F8BD     		pop	{r3, r4, r5, r6, r7, pc}
 182:Drivers/lvgl/src/misc/lv_anim_timeline.c **** 
 1229              		.loc 1 182 1 view .LVU369
 1230              		.cfi_endproc
 1231              	.LFE29:
 1233              		.section	.text.lv_anim_timeline_get_reverse,"ax",%progbits
 1234              		.align	1
 1235              		.p2align 2,,3
 1236              		.global	lv_anim_timeline_get_reverse
 1237              		.syntax unified
 1238              		.thumb
 1239              		.thumb_func
 1241              	lv_anim_timeline_get_reverse:
 1242              	.LVL92:
ARM GAS  /var/folders/0z/tsy30v1j4xl4_7kw94k978ww0000gn/T//ccKNJMqd.s 			page 35


 1243              	.LFB30:
 185:Drivers/lvgl/src/misc/lv_anim_timeline.c ****     LV_ASSERT_NULL(at);
 1244              		.loc 1 185 1 is_stmt 1 view -0
 1245              		.cfi_startproc
 1246              		@ args = 0, pretend = 0, frame = 0
 1247              		@ frame_needed = 0, uses_anonymous_args = 0
 1248              		@ link register save eliminated.
 186:Drivers/lvgl/src/misc/lv_anim_timeline.c ****     return at->reverse;
 1249              		.loc 1 186 5 view .LVU371
 186:Drivers/lvgl/src/misc/lv_anim_timeline.c ****     return at->reverse;
 1250              		.loc 1 186 5 view .LVU372
 1251 0000 08B1     		cbz	r0, .L113
 186:Drivers/lvgl/src/misc/lv_anim_timeline.c ****     return at->reverse;
 1252              		.loc 1 186 5 discriminator 2 view .LVU373
 186:Drivers/lvgl/src/misc/lv_anim_timeline.c ****     return at->reverse;
 1253              		.loc 1 186 23 discriminator 2 view .LVU374
 187:Drivers/lvgl/src/misc/lv_anim_timeline.c **** }
 1254              		.loc 1 187 5 discriminator 2 view .LVU375
 188:Drivers/lvgl/src/misc/lv_anim_timeline.c **** 
 1255              		.loc 1 188 1 is_stmt 0 discriminator 2 view .LVU376
 1256 0002 007A     		ldrb	r0, [r0, #8]	@ zero_extendqisi2
 1257              	.LVL93:
 188:Drivers/lvgl/src/misc/lv_anim_timeline.c **** 
 1258              		.loc 1 188 1 discriminator 2 view .LVU377
 1259 0004 7047     		bx	lr
 1260              	.LVL94:
 1261              	.L113:
 186:Drivers/lvgl/src/misc/lv_anim_timeline.c ****     return at->reverse;
 1262              		.loc 1 186 5 is_stmt 1 discriminator 1 view .LVU378
 186:Drivers/lvgl/src/misc/lv_anim_timeline.c ****     return at->reverse;
 1263              		.loc 1 186 5 discriminator 1 view .LVU379
 186:Drivers/lvgl/src/misc/lv_anim_timeline.c ****     return at->reverse;
 1264              		.loc 1 186 5 discriminator 1 view .LVU380
 186:Drivers/lvgl/src/misc/lv_anim_timeline.c ****     return at->reverse;
 1265              		.loc 1 186 5 discriminator 1 view .LVU381
 186:Drivers/lvgl/src/misc/lv_anim_timeline.c ****     return at->reverse;
 1266              		.loc 1 186 5 discriminator 1 view .LVU382
 186:Drivers/lvgl/src/misc/lv_anim_timeline.c ****     return at->reverse;
 1267              		.loc 1 186 5 discriminator 1 view .LVU383
 186:Drivers/lvgl/src/misc/lv_anim_timeline.c ****     return at->reverse;
 1268              		.loc 1 186 5 discriminator 1 view .LVU384
 186:Drivers/lvgl/src/misc/lv_anim_timeline.c ****     return at->reverse;
 1269              		.loc 1 186 5 discriminator 1 view .LVU385
 186:Drivers/lvgl/src/misc/lv_anim_timeline.c ****     return at->reverse;
 1270              		.loc 1 186 5 discriminator 1 view .LVU386
 186:Drivers/lvgl/src/misc/lv_anim_timeline.c ****     return at->reverse;
 1271              		.loc 1 186 5 discriminator 1 view .LVU387
 1272 0006 FEE7     		b	.L113
 1273              		.cfi_endproc
 1274              	.LFE30:
 1276              		.text
 1277              	.Letext0:
 1278              		.file 3 "/Users/johannes/Library/Application Support/Code/User/globalStorage/bmd.stm32-for-vscode/
 1279              		.file 4 "/Users/johannes/Library/Application Support/Code/User/globalStorage/bmd.stm32-for-vscode/
 1280              		.file 5 "/Users/johannes/Library/Application Support/Code/User/globalStorage/bmd.stm32-for-vscode/
 1281              		.file 6 "Drivers/lvgl/src/misc/lv_anim_timeline.h"
 1282              		.file 7 "Drivers/lvgl/src/misc/lv_mem.h"
ARM GAS  /var/folders/0z/tsy30v1j4xl4_7kw94k978ww0000gn/T//ccKNJMqd.s 			page 36


 1283              		.file 8 "<built-in>"
ARM GAS  /var/folders/0z/tsy30v1j4xl4_7kw94k978ww0000gn/T//ccKNJMqd.s 			page 37

