ARM GAS  /var/folders/0z/tsy30v1j4xl4_7kw94k978ww0000gn/T//cccHpsZe.s 			page 1


   1              		.cpu cortex-m4
   2              		.arch armv7e-m
   3              		.fpu fpv4-sp-d16
   4              		.eabi_attribute 27, 1
   5              		.eabi_attribute 28, 1
   6              		.eabi_attribute 20, 1
   7              		.eabi_attribute 21, 1
   8              		.eabi_attribute 23, 3
   9              		.eabi_attribute 24, 1
  10              		.eabi_attribute 25, 1
  11              		.eabi_attribute 26, 1
  12              		.eabi_attribute 30, 2
  13              		.eabi_attribute 34, 1
  14              		.eabi_attribute 18, 4
  15              		.file	"lv_anim_timeline.c"
  16              		.text
  17              	.Ltext0:
  18              		.cfi_sections	.debug_frame
  19              		.section	.text.lv_anim_timeline_virtual_exec_cb,"ax",%progbits
  20              		.align	1
  21              		.p2align 2,,3
  22              		.syntax unified
  23              		.thumb
  24              		.thumb_func
  26              	lv_anim_timeline_virtual_exec_cb:
  27              	.LVL0:
  28              	.LFB31:
  29              		.file 1 "Drivers/lvgl/src/misc/lv_anim_timeline.c"
   1:Drivers/lvgl/src/misc/lv_anim_timeline.c **** /**
   2:Drivers/lvgl/src/misc/lv_anim_timeline.c ****  * @file lv_anim_timeline.c
   3:Drivers/lvgl/src/misc/lv_anim_timeline.c ****  *
   4:Drivers/lvgl/src/misc/lv_anim_timeline.c ****  */
   5:Drivers/lvgl/src/misc/lv_anim_timeline.c **** 
   6:Drivers/lvgl/src/misc/lv_anim_timeline.c **** /*********************
   7:Drivers/lvgl/src/misc/lv_anim_timeline.c ****  *      INCLUDES
   8:Drivers/lvgl/src/misc/lv_anim_timeline.c ****  *********************/
   9:Drivers/lvgl/src/misc/lv_anim_timeline.c **** #include "lv_anim_timeline.h"
  10:Drivers/lvgl/src/misc/lv_anim_timeline.c **** #include "lv_mem.h"
  11:Drivers/lvgl/src/misc/lv_anim_timeline.c **** #include "lv_assert.h"
  12:Drivers/lvgl/src/misc/lv_anim_timeline.c **** 
  13:Drivers/lvgl/src/misc/lv_anim_timeline.c **** /*********************
  14:Drivers/lvgl/src/misc/lv_anim_timeline.c ****  *      DEFINES
  15:Drivers/lvgl/src/misc/lv_anim_timeline.c ****  *********************/
  16:Drivers/lvgl/src/misc/lv_anim_timeline.c **** 
  17:Drivers/lvgl/src/misc/lv_anim_timeline.c **** /**********************
  18:Drivers/lvgl/src/misc/lv_anim_timeline.c ****  *      TYPEDEFS
  19:Drivers/lvgl/src/misc/lv_anim_timeline.c ****  **********************/
  20:Drivers/lvgl/src/misc/lv_anim_timeline.c **** 
  21:Drivers/lvgl/src/misc/lv_anim_timeline.c **** /*Data of anim_timeline_dsc*/
  22:Drivers/lvgl/src/misc/lv_anim_timeline.c **** typedef struct {
  23:Drivers/lvgl/src/misc/lv_anim_timeline.c ****     lv_anim_t anim;
  24:Drivers/lvgl/src/misc/lv_anim_timeline.c ****     uint32_t start_time;
  25:Drivers/lvgl/src/misc/lv_anim_timeline.c **** } lv_anim_timeline_dsc_t;
  26:Drivers/lvgl/src/misc/lv_anim_timeline.c **** 
  27:Drivers/lvgl/src/misc/lv_anim_timeline.c **** /*Data of anim_timeline*/
  28:Drivers/lvgl/src/misc/lv_anim_timeline.c **** struct _lv_anim_timeline_t {
  29:Drivers/lvgl/src/misc/lv_anim_timeline.c ****     lv_anim_timeline_dsc_t * anim_dsc;  /**< Dynamically allocated anim dsc array*/
ARM GAS  /var/folders/0z/tsy30v1j4xl4_7kw94k978ww0000gn/T//cccHpsZe.s 			page 2


  30:Drivers/lvgl/src/misc/lv_anim_timeline.c ****     uint32_t anim_dsc_cnt;              /**< The length of anim dsc array*/
  31:Drivers/lvgl/src/misc/lv_anim_timeline.c ****     bool reverse;                       /**< Reverse playback*/
  32:Drivers/lvgl/src/misc/lv_anim_timeline.c **** };
  33:Drivers/lvgl/src/misc/lv_anim_timeline.c **** 
  34:Drivers/lvgl/src/misc/lv_anim_timeline.c **** /**********************
  35:Drivers/lvgl/src/misc/lv_anim_timeline.c ****  *  STATIC PROTOTYPES
  36:Drivers/lvgl/src/misc/lv_anim_timeline.c ****  **********************/
  37:Drivers/lvgl/src/misc/lv_anim_timeline.c **** static void lv_anim_timeline_virtual_exec_cb(void * var, int32_t v);
  38:Drivers/lvgl/src/misc/lv_anim_timeline.c **** 
  39:Drivers/lvgl/src/misc/lv_anim_timeline.c **** /**********************
  40:Drivers/lvgl/src/misc/lv_anim_timeline.c ****  *  STATIC VARIABLES
  41:Drivers/lvgl/src/misc/lv_anim_timeline.c ****  **********************/
  42:Drivers/lvgl/src/misc/lv_anim_timeline.c **** 
  43:Drivers/lvgl/src/misc/lv_anim_timeline.c **** /**********************
  44:Drivers/lvgl/src/misc/lv_anim_timeline.c ****  *      MACROS
  45:Drivers/lvgl/src/misc/lv_anim_timeline.c ****  **********************/
  46:Drivers/lvgl/src/misc/lv_anim_timeline.c **** 
  47:Drivers/lvgl/src/misc/lv_anim_timeline.c **** /**********************
  48:Drivers/lvgl/src/misc/lv_anim_timeline.c ****  *   GLOBAL FUNCTIONS
  49:Drivers/lvgl/src/misc/lv_anim_timeline.c ****  **********************/
  50:Drivers/lvgl/src/misc/lv_anim_timeline.c **** 
  51:Drivers/lvgl/src/misc/lv_anim_timeline.c **** lv_anim_timeline_t * lv_anim_timeline_create(void)
  52:Drivers/lvgl/src/misc/lv_anim_timeline.c **** {
  53:Drivers/lvgl/src/misc/lv_anim_timeline.c ****     lv_anim_timeline_t * at = (lv_anim_timeline_t *)lv_mem_alloc(sizeof(lv_anim_timeline_t));
  54:Drivers/lvgl/src/misc/lv_anim_timeline.c **** 
  55:Drivers/lvgl/src/misc/lv_anim_timeline.c ****     LV_ASSERT_MALLOC(at);
  56:Drivers/lvgl/src/misc/lv_anim_timeline.c **** 
  57:Drivers/lvgl/src/misc/lv_anim_timeline.c ****     if(at) lv_memset_00(at, sizeof(lv_anim_timeline_t));
  58:Drivers/lvgl/src/misc/lv_anim_timeline.c **** 
  59:Drivers/lvgl/src/misc/lv_anim_timeline.c ****     return at;
  60:Drivers/lvgl/src/misc/lv_anim_timeline.c **** }
  61:Drivers/lvgl/src/misc/lv_anim_timeline.c **** 
  62:Drivers/lvgl/src/misc/lv_anim_timeline.c **** void lv_anim_timeline_del(lv_anim_timeline_t * at)
  63:Drivers/lvgl/src/misc/lv_anim_timeline.c **** {
  64:Drivers/lvgl/src/misc/lv_anim_timeline.c ****     LV_ASSERT_NULL(at);
  65:Drivers/lvgl/src/misc/lv_anim_timeline.c **** 
  66:Drivers/lvgl/src/misc/lv_anim_timeline.c ****     lv_anim_timeline_stop(at);
  67:Drivers/lvgl/src/misc/lv_anim_timeline.c **** 
  68:Drivers/lvgl/src/misc/lv_anim_timeline.c ****     lv_mem_free(at->anim_dsc);
  69:Drivers/lvgl/src/misc/lv_anim_timeline.c ****     lv_mem_free(at);
  70:Drivers/lvgl/src/misc/lv_anim_timeline.c **** }
  71:Drivers/lvgl/src/misc/lv_anim_timeline.c **** 
  72:Drivers/lvgl/src/misc/lv_anim_timeline.c **** void lv_anim_timeline_add(lv_anim_timeline_t * at, uint32_t start_time, lv_anim_t * a)
  73:Drivers/lvgl/src/misc/lv_anim_timeline.c **** {
  74:Drivers/lvgl/src/misc/lv_anim_timeline.c ****     LV_ASSERT_NULL(at);
  75:Drivers/lvgl/src/misc/lv_anim_timeline.c **** 
  76:Drivers/lvgl/src/misc/lv_anim_timeline.c ****     at->anim_dsc_cnt++;
  77:Drivers/lvgl/src/misc/lv_anim_timeline.c ****     at->anim_dsc = lv_mem_realloc(at->anim_dsc, at->anim_dsc_cnt * sizeof(lv_anim_timeline_dsc_t));
  78:Drivers/lvgl/src/misc/lv_anim_timeline.c **** 
  79:Drivers/lvgl/src/misc/lv_anim_timeline.c ****     LV_ASSERT_MALLOC(at->anim_dsc);
  80:Drivers/lvgl/src/misc/lv_anim_timeline.c **** 
  81:Drivers/lvgl/src/misc/lv_anim_timeline.c ****     at->anim_dsc[at->anim_dsc_cnt - 1].anim = *a;
  82:Drivers/lvgl/src/misc/lv_anim_timeline.c ****     at->anim_dsc[at->anim_dsc_cnt - 1].start_time = start_time;
  83:Drivers/lvgl/src/misc/lv_anim_timeline.c **** 
  84:Drivers/lvgl/src/misc/lv_anim_timeline.c ****     /*Add default var and virtual exec_cb, used to delete animation.*/
  85:Drivers/lvgl/src/misc/lv_anim_timeline.c ****     if(a->var == NULL && a->exec_cb == NULL) {
  86:Drivers/lvgl/src/misc/lv_anim_timeline.c ****         at->anim_dsc[at->anim_dsc_cnt - 1].anim.var = at;
ARM GAS  /var/folders/0z/tsy30v1j4xl4_7kw94k978ww0000gn/T//cccHpsZe.s 			page 3


  87:Drivers/lvgl/src/misc/lv_anim_timeline.c ****         at->anim_dsc[at->anim_dsc_cnt - 1].anim.exec_cb = lv_anim_timeline_virtual_exec_cb;
  88:Drivers/lvgl/src/misc/lv_anim_timeline.c ****     }
  89:Drivers/lvgl/src/misc/lv_anim_timeline.c **** }
  90:Drivers/lvgl/src/misc/lv_anim_timeline.c **** 
  91:Drivers/lvgl/src/misc/lv_anim_timeline.c **** uint32_t lv_anim_timeline_start(lv_anim_timeline_t * at)
  92:Drivers/lvgl/src/misc/lv_anim_timeline.c **** {
  93:Drivers/lvgl/src/misc/lv_anim_timeline.c ****     LV_ASSERT_NULL(at);
  94:Drivers/lvgl/src/misc/lv_anim_timeline.c **** 
  95:Drivers/lvgl/src/misc/lv_anim_timeline.c ****     const uint32_t playtime = lv_anim_timeline_get_playtime(at);
  96:Drivers/lvgl/src/misc/lv_anim_timeline.c ****     bool reverse = at->reverse;
  97:Drivers/lvgl/src/misc/lv_anim_timeline.c **** 
  98:Drivers/lvgl/src/misc/lv_anim_timeline.c ****     for(uint32_t i = 0; i < at->anim_dsc_cnt; i++) {
  99:Drivers/lvgl/src/misc/lv_anim_timeline.c ****         lv_anim_t a = at->anim_dsc[i].anim;
 100:Drivers/lvgl/src/misc/lv_anim_timeline.c ****         uint32_t start_time = at->anim_dsc[i].start_time;
 101:Drivers/lvgl/src/misc/lv_anim_timeline.c **** 
 102:Drivers/lvgl/src/misc/lv_anim_timeline.c ****         if(reverse) {
 103:Drivers/lvgl/src/misc/lv_anim_timeline.c ****             int32_t temp = a.start_value;
 104:Drivers/lvgl/src/misc/lv_anim_timeline.c ****             a.start_value = a.end_value;
 105:Drivers/lvgl/src/misc/lv_anim_timeline.c ****             a.end_value = temp;
 106:Drivers/lvgl/src/misc/lv_anim_timeline.c ****             lv_anim_set_delay(&a, playtime - (start_time + a.time));
 107:Drivers/lvgl/src/misc/lv_anim_timeline.c ****         }
 108:Drivers/lvgl/src/misc/lv_anim_timeline.c ****         else {
 109:Drivers/lvgl/src/misc/lv_anim_timeline.c ****             lv_anim_set_delay(&a, start_time);
 110:Drivers/lvgl/src/misc/lv_anim_timeline.c ****         }
 111:Drivers/lvgl/src/misc/lv_anim_timeline.c **** 
 112:Drivers/lvgl/src/misc/lv_anim_timeline.c ****         lv_anim_start(&a);
 113:Drivers/lvgl/src/misc/lv_anim_timeline.c ****     }
 114:Drivers/lvgl/src/misc/lv_anim_timeline.c **** 
 115:Drivers/lvgl/src/misc/lv_anim_timeline.c ****     return playtime;
 116:Drivers/lvgl/src/misc/lv_anim_timeline.c **** }
 117:Drivers/lvgl/src/misc/lv_anim_timeline.c **** 
 118:Drivers/lvgl/src/misc/lv_anim_timeline.c **** void lv_anim_timeline_stop(lv_anim_timeline_t * at)
 119:Drivers/lvgl/src/misc/lv_anim_timeline.c **** {
 120:Drivers/lvgl/src/misc/lv_anim_timeline.c ****     LV_ASSERT_NULL(at);
 121:Drivers/lvgl/src/misc/lv_anim_timeline.c **** 
 122:Drivers/lvgl/src/misc/lv_anim_timeline.c ****     for(uint32_t i = 0; i < at->anim_dsc_cnt; i++) {
 123:Drivers/lvgl/src/misc/lv_anim_timeline.c ****         lv_anim_t * a = &(at->anim_dsc[i].anim);
 124:Drivers/lvgl/src/misc/lv_anim_timeline.c ****         lv_anim_del(a->var, a->exec_cb);
 125:Drivers/lvgl/src/misc/lv_anim_timeline.c ****     }
 126:Drivers/lvgl/src/misc/lv_anim_timeline.c **** }
 127:Drivers/lvgl/src/misc/lv_anim_timeline.c **** 
 128:Drivers/lvgl/src/misc/lv_anim_timeline.c **** void lv_anim_timeline_set_reverse(lv_anim_timeline_t * at, bool reverse)
 129:Drivers/lvgl/src/misc/lv_anim_timeline.c **** {
 130:Drivers/lvgl/src/misc/lv_anim_timeline.c ****     LV_ASSERT_NULL(at);
 131:Drivers/lvgl/src/misc/lv_anim_timeline.c ****     at->reverse = reverse;
 132:Drivers/lvgl/src/misc/lv_anim_timeline.c **** }
 133:Drivers/lvgl/src/misc/lv_anim_timeline.c **** 
 134:Drivers/lvgl/src/misc/lv_anim_timeline.c **** void lv_anim_timeline_set_progress(lv_anim_timeline_t * at, uint16_t progress)
 135:Drivers/lvgl/src/misc/lv_anim_timeline.c **** {
 136:Drivers/lvgl/src/misc/lv_anim_timeline.c ****     LV_ASSERT_NULL(at);
 137:Drivers/lvgl/src/misc/lv_anim_timeline.c **** 
 138:Drivers/lvgl/src/misc/lv_anim_timeline.c ****     const uint32_t playtime = lv_anim_timeline_get_playtime(at);
 139:Drivers/lvgl/src/misc/lv_anim_timeline.c ****     const uint32_t act_time = progress * playtime / 0xFFFF;
 140:Drivers/lvgl/src/misc/lv_anim_timeline.c **** 
 141:Drivers/lvgl/src/misc/lv_anim_timeline.c ****     for(uint32_t i = 0; i < at->anim_dsc_cnt; i++) {
 142:Drivers/lvgl/src/misc/lv_anim_timeline.c ****         lv_anim_t * a = &(at->anim_dsc[i].anim);
 143:Drivers/lvgl/src/misc/lv_anim_timeline.c **** 
ARM GAS  /var/folders/0z/tsy30v1j4xl4_7kw94k978ww0000gn/T//cccHpsZe.s 			page 4


 144:Drivers/lvgl/src/misc/lv_anim_timeline.c ****         if(a->exec_cb == NULL) {
 145:Drivers/lvgl/src/misc/lv_anim_timeline.c ****             continue;
 146:Drivers/lvgl/src/misc/lv_anim_timeline.c ****         }
 147:Drivers/lvgl/src/misc/lv_anim_timeline.c **** 
 148:Drivers/lvgl/src/misc/lv_anim_timeline.c ****         uint32_t start_time = at->anim_dsc[i].start_time;
 149:Drivers/lvgl/src/misc/lv_anim_timeline.c ****         int32_t value = 0;
 150:Drivers/lvgl/src/misc/lv_anim_timeline.c **** 
 151:Drivers/lvgl/src/misc/lv_anim_timeline.c ****         if(act_time < start_time) {
 152:Drivers/lvgl/src/misc/lv_anim_timeline.c ****             value = a->start_value;
 153:Drivers/lvgl/src/misc/lv_anim_timeline.c ****         }
 154:Drivers/lvgl/src/misc/lv_anim_timeline.c ****         else if(act_time < (start_time + a->time)) {
 155:Drivers/lvgl/src/misc/lv_anim_timeline.c ****             a->act_time = act_time - start_time;
 156:Drivers/lvgl/src/misc/lv_anim_timeline.c ****             value = a->path_cb(a);
 157:Drivers/lvgl/src/misc/lv_anim_timeline.c ****         }
 158:Drivers/lvgl/src/misc/lv_anim_timeline.c ****         else {
 159:Drivers/lvgl/src/misc/lv_anim_timeline.c ****             value = a->end_value;
 160:Drivers/lvgl/src/misc/lv_anim_timeline.c ****         }
 161:Drivers/lvgl/src/misc/lv_anim_timeline.c **** 
 162:Drivers/lvgl/src/misc/lv_anim_timeline.c ****         a->exec_cb(a->var, value);
 163:Drivers/lvgl/src/misc/lv_anim_timeline.c ****     }
 164:Drivers/lvgl/src/misc/lv_anim_timeline.c **** }
 165:Drivers/lvgl/src/misc/lv_anim_timeline.c **** 
 166:Drivers/lvgl/src/misc/lv_anim_timeline.c **** uint32_t lv_anim_timeline_get_playtime(lv_anim_timeline_t * at)
 167:Drivers/lvgl/src/misc/lv_anim_timeline.c **** {
 168:Drivers/lvgl/src/misc/lv_anim_timeline.c ****     LV_ASSERT_NULL(at);
 169:Drivers/lvgl/src/misc/lv_anim_timeline.c **** 
 170:Drivers/lvgl/src/misc/lv_anim_timeline.c ****     uint32_t playtime = 0;
 171:Drivers/lvgl/src/misc/lv_anim_timeline.c ****     for(uint32_t i = 0; i < at->anim_dsc_cnt; i++) {
 172:Drivers/lvgl/src/misc/lv_anim_timeline.c ****         uint32_t end = lv_anim_get_playtime(&at->anim_dsc[i].anim);
 173:Drivers/lvgl/src/misc/lv_anim_timeline.c ****         if(end == LV_ANIM_PLAYTIME_INFINITE)
 174:Drivers/lvgl/src/misc/lv_anim_timeline.c ****             return end;
 175:Drivers/lvgl/src/misc/lv_anim_timeline.c ****         end += at->anim_dsc[i].start_time;
 176:Drivers/lvgl/src/misc/lv_anim_timeline.c ****         if(end > playtime) {
 177:Drivers/lvgl/src/misc/lv_anim_timeline.c ****             playtime = end;
 178:Drivers/lvgl/src/misc/lv_anim_timeline.c ****         }
 179:Drivers/lvgl/src/misc/lv_anim_timeline.c ****     }
 180:Drivers/lvgl/src/misc/lv_anim_timeline.c **** 
 181:Drivers/lvgl/src/misc/lv_anim_timeline.c ****     return playtime;
 182:Drivers/lvgl/src/misc/lv_anim_timeline.c **** }
 183:Drivers/lvgl/src/misc/lv_anim_timeline.c **** 
 184:Drivers/lvgl/src/misc/lv_anim_timeline.c **** bool lv_anim_timeline_get_reverse(lv_anim_timeline_t * at)
 185:Drivers/lvgl/src/misc/lv_anim_timeline.c **** {
 186:Drivers/lvgl/src/misc/lv_anim_timeline.c ****     LV_ASSERT_NULL(at);
 187:Drivers/lvgl/src/misc/lv_anim_timeline.c ****     return at->reverse;
 188:Drivers/lvgl/src/misc/lv_anim_timeline.c **** }
 189:Drivers/lvgl/src/misc/lv_anim_timeline.c **** 
 190:Drivers/lvgl/src/misc/lv_anim_timeline.c **** /**********************
 191:Drivers/lvgl/src/misc/lv_anim_timeline.c ****  *   STATIC FUNCTIONS
 192:Drivers/lvgl/src/misc/lv_anim_timeline.c ****  **********************/
 193:Drivers/lvgl/src/misc/lv_anim_timeline.c **** 
 194:Drivers/lvgl/src/misc/lv_anim_timeline.c **** static void lv_anim_timeline_virtual_exec_cb(void * var, int32_t v)
 195:Drivers/lvgl/src/misc/lv_anim_timeline.c **** {
  30              		.loc 1 195 1 view -0
  31              		.cfi_startproc
  32              		@ args = 0, pretend = 0, frame = 0
  33              		@ frame_needed = 0, uses_anonymous_args = 0
  34              		@ link register save eliminated.
ARM GAS  /var/folders/0z/tsy30v1j4xl4_7kw94k978ww0000gn/T//cccHpsZe.s 			page 5


 196:Drivers/lvgl/src/misc/lv_anim_timeline.c ****     LV_UNUSED(var);
  35              		.loc 1 196 5 view .LVU1
 197:Drivers/lvgl/src/misc/lv_anim_timeline.c ****     LV_UNUSED(v);
  36              		.loc 1 197 5 view .LVU2
 198:Drivers/lvgl/src/misc/lv_anim_timeline.c **** }
  37              		.loc 1 198 1 is_stmt 0 view .LVU3
  38 0000 7047     		bx	lr
  39              		.cfi_endproc
  40              	.LFE31:
  42 0002 00BF     		.section	.text.lv_anim_timeline_create,"ax",%progbits
  43              		.align	1
  44              		.p2align 2,,3
  45              		.global	lv_anim_timeline_create
  46              		.syntax unified
  47              		.thumb
  48              		.thumb_func
  50              	lv_anim_timeline_create:
  51              	.LFB22:
  52:Drivers/lvgl/src/misc/lv_anim_timeline.c ****     lv_anim_timeline_t * at = (lv_anim_timeline_t *)lv_mem_alloc(sizeof(lv_anim_timeline_t));
  52              		.loc 1 52 1 is_stmt 1 view -0
  53              		.cfi_startproc
  54              		@ args = 0, pretend = 0, frame = 0
  55              		@ frame_needed = 0, uses_anonymous_args = 0
  53:Drivers/lvgl/src/misc/lv_anim_timeline.c **** 
  56              		.loc 1 53 5 view .LVU5
  52:Drivers/lvgl/src/misc/lv_anim_timeline.c ****     lv_anim_timeline_t * at = (lv_anim_timeline_t *)lv_mem_alloc(sizeof(lv_anim_timeline_t));
  57              		.loc 1 52 1 is_stmt 0 view .LVU6
  58 0000 10B5     		push	{r4, lr}
  59              		.cfi_def_cfa_offset 8
  60              		.cfi_offset 4, -8
  61              		.cfi_offset 14, -4
  53:Drivers/lvgl/src/misc/lv_anim_timeline.c **** 
  62              		.loc 1 53 53 view .LVU7
  63 0002 0C20     		movs	r0, #12
  64 0004 FFF7FEFF 		bl	lv_mem_alloc
  65              	.LVL1:
  55:Drivers/lvgl/src/misc/lv_anim_timeline.c **** 
  66              		.loc 1 55 5 is_stmt 1 view .LVU8
  55:Drivers/lvgl/src/misc/lv_anim_timeline.c **** 
  67              		.loc 1 55 5 view .LVU9
  68 0008 28B1     		cbz	r0, .L5
  69 000a 0446     		mov	r4, r0
  55:Drivers/lvgl/src/misc/lv_anim_timeline.c **** 
  70              		.loc 1 55 5 discriminator 1 view .LVU10
  55:Drivers/lvgl/src/misc/lv_anim_timeline.c **** 
  71              		.loc 1 55 25 discriminator 1 view .LVU11
  57:Drivers/lvgl/src/misc/lv_anim_timeline.c **** 
  72              		.loc 1 57 5 discriminator 1 view .LVU12
  57:Drivers/lvgl/src/misc/lv_anim_timeline.c **** 
  73              		.loc 1 57 12 discriminator 1 view .LVU13
  74 000c 0C21     		movs	r1, #12
  75 000e FFF7FEFF 		bl	lv_memset_00
  76              	.LVL2:
  59:Drivers/lvgl/src/misc/lv_anim_timeline.c **** }
  77              		.loc 1 59 5 discriminator 1 view .LVU14
  60:Drivers/lvgl/src/misc/lv_anim_timeline.c **** 
  78              		.loc 1 60 1 is_stmt 0 discriminator 1 view .LVU15
ARM GAS  /var/folders/0z/tsy30v1j4xl4_7kw94k978ww0000gn/T//cccHpsZe.s 			page 6


  79 0012 2046     		mov	r0, r4
  80 0014 10BD     		pop	{r4, pc}
  81              	.LVL3:
  82              	.L5:
  55:Drivers/lvgl/src/misc/lv_anim_timeline.c **** 
  83              		.loc 1 55 5 is_stmt 1 discriminator 1 view .LVU16
  55:Drivers/lvgl/src/misc/lv_anim_timeline.c **** 
  84              		.loc 1 55 5 discriminator 1 view .LVU17
  55:Drivers/lvgl/src/misc/lv_anim_timeline.c **** 
  85              		.loc 1 55 5 discriminator 1 view .LVU18
  55:Drivers/lvgl/src/misc/lv_anim_timeline.c **** 
  86              		.loc 1 55 5 discriminator 1 view .LVU19
  55:Drivers/lvgl/src/misc/lv_anim_timeline.c **** 
  87              		.loc 1 55 5 discriminator 1 view .LVU20
  55:Drivers/lvgl/src/misc/lv_anim_timeline.c **** 
  88              		.loc 1 55 5 discriminator 1 view .LVU21
  55:Drivers/lvgl/src/misc/lv_anim_timeline.c **** 
  89              		.loc 1 55 5 discriminator 1 view .LVU22
  55:Drivers/lvgl/src/misc/lv_anim_timeline.c **** 
  90              		.loc 1 55 5 discriminator 1 view .LVU23
  55:Drivers/lvgl/src/misc/lv_anim_timeline.c **** 
  91              		.loc 1 55 5 discriminator 1 view .LVU24
  55:Drivers/lvgl/src/misc/lv_anim_timeline.c **** 
  92              		.loc 1 55 5 discriminator 1 view .LVU25
  93 0016 FEE7     		b	.L5
  94              		.cfi_endproc
  95              	.LFE22:
  97              		.section	.text.lv_anim_timeline_del,"ax",%progbits
  98              		.align	1
  99              		.p2align 2,,3
 100              		.global	lv_anim_timeline_del
 101              		.syntax unified
 102              		.thumb
 103              		.thumb_func
 105              	lv_anim_timeline_del:
 106              	.LVL4:
 107              	.LFB23:
  63:Drivers/lvgl/src/misc/lv_anim_timeline.c ****     LV_ASSERT_NULL(at);
 108              		.loc 1 63 1 view -0
 109              		.cfi_startproc
 110              		@ args = 0, pretend = 0, frame = 0
 111              		@ frame_needed = 0, uses_anonymous_args = 0
  64:Drivers/lvgl/src/misc/lv_anim_timeline.c **** 
 112              		.loc 1 64 5 view .LVU27
  64:Drivers/lvgl/src/misc/lv_anim_timeline.c **** 
 113              		.loc 1 64 5 view .LVU28
 114 0000 C8B1     		cbz	r0, .L8
 115              	.LVL5:
 116              	.LBB30:
 117              	.LBB31:
 118              	.LBB32:
 122:Drivers/lvgl/src/misc/lv_anim_timeline.c ****         lv_anim_t * a = &(at->anim_dsc[i].anim);
 119              		.loc 1 122 27 view .LVU29
 120 0002 4368     		ldr	r3, [r0, #4]
 121              	.LBE32:
 122              	.LBE31:
 123              	.LBE30:
ARM GAS  /var/folders/0z/tsy30v1j4xl4_7kw94k978ww0000gn/T//cccHpsZe.s 			page 7


  63:Drivers/lvgl/src/misc/lv_anim_timeline.c ****     LV_ASSERT_NULL(at);
 124              		.loc 1 63 1 is_stmt 0 view .LVU30
 125 0004 70B5     		push	{r4, r5, r6, lr}
 126              		.cfi_def_cfa_offset 16
 127              		.cfi_offset 4, -16
 128              		.cfi_offset 5, -12
 129              		.cfi_offset 6, -8
 130              		.cfi_offset 14, -4
 131 0006 0546     		mov	r5, r0
 132              	.LBB36:
 133              	.LBB35:
 134              	.LBB34:
 122:Drivers/lvgl/src/misc/lv_anim_timeline.c ****         lv_anim_t * a = &(at->anim_dsc[i].anim);
 135              		.loc 1 122 27 view .LVU31
 136 0008 6BB1     		cbz	r3, .L10
 137 000a 0024     		movs	r4, #0
 122:Drivers/lvgl/src/misc/lv_anim_timeline.c ****         lv_anim_t * a = &(at->anim_dsc[i].anim);
 138              		.loc 1 122 18 view .LVU32
 139 000c 2646     		mov	r6, r4
 140              	.LVL6:
 141              	.L9:
 142              	.LBB33:
 123:Drivers/lvgl/src/misc/lv_anim_timeline.c ****         lv_anim_del(a->var, a->exec_cb);
 143              		.loc 1 123 9 is_stmt 1 view .LVU33
 123:Drivers/lvgl/src/misc/lv_anim_timeline.c ****         lv_anim_del(a->var, a->exec_cb);
 144              		.loc 1 123 39 is_stmt 0 view .LVU34
 145 000e 2B68     		ldr	r3, [r5]
 146 0010 1A19     		adds	r2, r3, r4
 147              	.LVL7:
 124:Drivers/lvgl/src/misc/lv_anim_timeline.c ****     }
 148              		.loc 1 124 9 is_stmt 1 view .LVU35
 149 0012 1859     		ldr	r0, [r3, r4]
 150 0014 5168     		ldr	r1, [r2, #4]
 151 0016 FFF7FEFF 		bl	lv_anim_del
 152              	.LVL8:
 124:Drivers/lvgl/src/misc/lv_anim_timeline.c ****     }
 153              		.loc 1 124 9 is_stmt 0 view .LVU36
 154              	.LBE33:
 122:Drivers/lvgl/src/misc/lv_anim_timeline.c ****         lv_anim_t * a = &(at->anim_dsc[i].anim);
 155              		.loc 1 122 48 is_stmt 1 view .LVU37
 122:Drivers/lvgl/src/misc/lv_anim_timeline.c ****         lv_anim_t * a = &(at->anim_dsc[i].anim);
 156              		.loc 1 122 27 is_stmt 0 view .LVU38
 157 001a 6B68     		ldr	r3, [r5, #4]
 122:Drivers/lvgl/src/misc/lv_anim_timeline.c ****         lv_anim_t * a = &(at->anim_dsc[i].anim);
 158              		.loc 1 122 48 view .LVU39
 159 001c 0136     		adds	r6, r6, #1
 160              	.LVL9:
 122:Drivers/lvgl/src/misc/lv_anim_timeline.c ****         lv_anim_t * a = &(at->anim_dsc[i].anim);
 161              		.loc 1 122 27 is_stmt 1 view .LVU40
 162 001e 9E42     		cmp	r6, r3
 163 0020 04F14804 		add	r4, r4, #72
 164 0024 F3D3     		bcc	.L9
 165              	.LVL10:
 166              	.L10:
 122:Drivers/lvgl/src/misc/lv_anim_timeline.c ****         lv_anim_t * a = &(at->anim_dsc[i].anim);
 167              		.loc 1 122 27 is_stmt 0 view .LVU41
 168              	.LBE34:
ARM GAS  /var/folders/0z/tsy30v1j4xl4_7kw94k978ww0000gn/T//cccHpsZe.s 			page 8


 169              	.LBE35:
 170              	.LBE36:
  68:Drivers/lvgl/src/misc/lv_anim_timeline.c ****     lv_mem_free(at);
 171              		.loc 1 68 5 is_stmt 1 view .LVU42
 172 0026 2868     		ldr	r0, [r5]
 173 0028 FFF7FEFF 		bl	lv_mem_free
 174              	.LVL11:
  69:Drivers/lvgl/src/misc/lv_anim_timeline.c **** }
 175              		.loc 1 69 5 view .LVU43
 176 002c 2846     		mov	r0, r5
  70:Drivers/lvgl/src/misc/lv_anim_timeline.c **** 
 177              		.loc 1 70 1 is_stmt 0 view .LVU44
 178 002e BDE87040 		pop	{r4, r5, r6, lr}
 179              		.cfi_restore 14
 180              		.cfi_restore 6
 181              		.cfi_restore 5
 182              		.cfi_restore 4
 183              		.cfi_def_cfa_offset 0
 184              	.LVL12:
  69:Drivers/lvgl/src/misc/lv_anim_timeline.c **** }
 185              		.loc 1 69 5 view .LVU45
 186 0032 FFF7FEBF 		b	lv_mem_free
 187              	.LVL13:
 188              	.L8:
  64:Drivers/lvgl/src/misc/lv_anim_timeline.c **** 
 189              		.loc 1 64 5 is_stmt 1 discriminator 1 view .LVU46
  64:Drivers/lvgl/src/misc/lv_anim_timeline.c **** 
 190              		.loc 1 64 5 discriminator 1 view .LVU47
  64:Drivers/lvgl/src/misc/lv_anim_timeline.c **** 
 191              		.loc 1 64 5 discriminator 1 view .LVU48
  64:Drivers/lvgl/src/misc/lv_anim_timeline.c **** 
 192              		.loc 1 64 5 discriminator 1 view .LVU49
  64:Drivers/lvgl/src/misc/lv_anim_timeline.c **** 
 193              		.loc 1 64 5 discriminator 1 view .LVU50
  64:Drivers/lvgl/src/misc/lv_anim_timeline.c **** 
 194              		.loc 1 64 5 discriminator 1 view .LVU51
  64:Drivers/lvgl/src/misc/lv_anim_timeline.c **** 
 195              		.loc 1 64 5 discriminator 1 view .LVU52
  64:Drivers/lvgl/src/misc/lv_anim_timeline.c **** 
 196              		.loc 1 64 5 discriminator 1 view .LVU53
  64:Drivers/lvgl/src/misc/lv_anim_timeline.c **** 
 197              		.loc 1 64 5 discriminator 1 view .LVU54
  64:Drivers/lvgl/src/misc/lv_anim_timeline.c **** 
 198              		.loc 1 64 5 discriminator 1 view .LVU55
 199 0036 FEE7     		b	.L8
 200              		.cfi_endproc
 201              	.LFE23:
 203              		.section	.text.lv_anim_timeline_add,"ax",%progbits
 204              		.align	1
 205              		.p2align 2,,3
 206              		.global	lv_anim_timeline_add
 207              		.syntax unified
 208              		.thumb
 209              		.thumb_func
 211              	lv_anim_timeline_add:
 212              	.LVL14:
 213              	.LFB24:
ARM GAS  /var/folders/0z/tsy30v1j4xl4_7kw94k978ww0000gn/T//cccHpsZe.s 			page 9


  73:Drivers/lvgl/src/misc/lv_anim_timeline.c ****     LV_ASSERT_NULL(at);
 214              		.loc 1 73 1 view -0
 215              		.cfi_startproc
 216              		@ args = 0, pretend = 0, frame = 0
 217              		@ frame_needed = 0, uses_anonymous_args = 0
  74:Drivers/lvgl/src/misc/lv_anim_timeline.c **** 
 218              		.loc 1 74 5 view .LVU57
  74:Drivers/lvgl/src/misc/lv_anim_timeline.c **** 
 219              		.loc 1 74 5 view .LVU58
 220 0000 00B3     		cbz	r0, .L20
  74:Drivers/lvgl/src/misc/lv_anim_timeline.c **** 
 221              		.loc 1 74 5 discriminator 2 view .LVU59
  74:Drivers/lvgl/src/misc/lv_anim_timeline.c **** 
 222              		.loc 1 74 23 discriminator 2 view .LVU60
  76:Drivers/lvgl/src/misc/lv_anim_timeline.c ****     at->anim_dsc = lv_mem_realloc(at->anim_dsc, at->anim_dsc_cnt * sizeof(lv_anim_timeline_dsc_t));
 223              		.loc 1 76 5 discriminator 2 view .LVU61
  76:Drivers/lvgl/src/misc/lv_anim_timeline.c ****     at->anim_dsc = lv_mem_realloc(at->anim_dsc, at->anim_dsc_cnt * sizeof(lv_anim_timeline_dsc_t));
 224              		.loc 1 76 21 is_stmt 0 discriminator 2 view .LVU62
 225 0002 4368     		ldr	r3, [r0, #4]
 226 0004 0133     		adds	r3, r3, #1
  73:Drivers/lvgl/src/misc/lv_anim_timeline.c ****     LV_ASSERT_NULL(at);
 227              		.loc 1 73 1 discriminator 2 view .LVU63
 228 0006 2DE9F041 		push	{r4, r5, r6, r7, r8, lr}
 229              		.cfi_def_cfa_offset 24
 230              		.cfi_offset 4, -24
 231              		.cfi_offset 5, -20
 232              		.cfi_offset 6, -16
 233              		.cfi_offset 7, -12
 234              		.cfi_offset 8, -8
 235              		.cfi_offset 14, -4
 236 000a 0F46     		mov	r7, r1
  77:Drivers/lvgl/src/misc/lv_anim_timeline.c **** 
 237              		.loc 1 77 66 discriminator 2 view .LVU64
 238 000c 03EBC301 		add	r1, r3, r3, lsl #3
 239              	.LVL15:
  77:Drivers/lvgl/src/misc/lv_anim_timeline.c **** 
 240              		.loc 1 77 66 discriminator 2 view .LVU65
 241 0010 0446     		mov	r4, r0
  76:Drivers/lvgl/src/misc/lv_anim_timeline.c ****     at->anim_dsc = lv_mem_realloc(at->anim_dsc, at->anim_dsc_cnt * sizeof(lv_anim_timeline_dsc_t));
 242              		.loc 1 76 21 discriminator 2 view .LVU66
 243 0012 4360     		str	r3, [r0, #4]
  77:Drivers/lvgl/src/misc/lv_anim_timeline.c **** 
 244              		.loc 1 77 5 is_stmt 1 discriminator 2 view .LVU67
  77:Drivers/lvgl/src/misc/lv_anim_timeline.c **** 
 245              		.loc 1 77 20 is_stmt 0 discriminator 2 view .LVU68
 246 0014 C900     		lsls	r1, r1, #3
 247 0016 0068     		ldr	r0, [r0]
 248              	.LVL16:
  77:Drivers/lvgl/src/misc/lv_anim_timeline.c **** 
 249              		.loc 1 77 20 discriminator 2 view .LVU69
 250 0018 1546     		mov	r5, r2
 251 001a FFF7FEFF 		bl	lv_mem_realloc
 252              	.LVL17:
  77:Drivers/lvgl/src/misc/lv_anim_timeline.c **** 
 253              		.loc 1 77 20 discriminator 2 view .LVU70
 254 001e 8046     		mov	r8, r0
  77:Drivers/lvgl/src/misc/lv_anim_timeline.c **** 
ARM GAS  /var/folders/0z/tsy30v1j4xl4_7kw94k978ww0000gn/T//cccHpsZe.s 			page 10


 255              		.loc 1 77 18 discriminator 2 view .LVU71
 256 0020 2060     		str	r0, [r4]
  79:Drivers/lvgl/src/misc/lv_anim_timeline.c **** 
 257              		.loc 1 79 5 is_stmt 1 discriminator 2 view .LVU72
  79:Drivers/lvgl/src/misc/lv_anim_timeline.c **** 
 258              		.loc 1 79 5 discriminator 2 view .LVU73
 259 0022 80B1     		cbz	r0, .L22
  79:Drivers/lvgl/src/misc/lv_anim_timeline.c **** 
 260              		.loc 1 79 5 discriminator 2 view .LVU74
  79:Drivers/lvgl/src/misc/lv_anim_timeline.c **** 
 261              		.loc 1 79 35 discriminator 2 view .LVU75
  81:Drivers/lvgl/src/misc/lv_anim_timeline.c ****     at->anim_dsc[at->anim_dsc_cnt - 1].start_time = start_time;
 262              		.loc 1 81 5 discriminator 2 view .LVU76
  81:Drivers/lvgl/src/misc/lv_anim_timeline.c ****     at->anim_dsc[at->anim_dsc_cnt - 1].start_time = start_time;
 263              		.loc 1 81 17 is_stmt 0 discriminator 2 view .LVU77
 264 0024 6368     		ldr	r3, [r4, #4]
 265 0026 03EBC303 		add	r3, r3, r3, lsl #3
 266 002a DE00     		lsls	r6, r3, #3
 267 002c 483E     		subs	r6, r6, #72
 268 002e 8319     		adds	r3, r0, r6
  81:Drivers/lvgl/src/misc/lv_anim_timeline.c ****     at->anim_dsc[at->anim_dsc_cnt - 1].start_time = start_time;
 269              		.loc 1 81 45 discriminator 2 view .LVU78
 270 0030 4422     		movs	r2, #68
 271 0032 2946     		mov	r1, r5
 272 0034 1846     		mov	r0, r3
 273 0036 FFF7FEFF 		bl	memcpy
 274              	.LVL18:
  82:Drivers/lvgl/src/misc/lv_anim_timeline.c **** 
 275              		.loc 1 82 5 is_stmt 1 discriminator 2 view .LVU79
  85:Drivers/lvgl/src/misc/lv_anim_timeline.c ****         at->anim_dsc[at->anim_dsc_cnt - 1].anim.var = at;
 276              		.loc 1 85 7 is_stmt 0 discriminator 2 view .LVU80
 277 003a 2A68     		ldr	r2, [r5]
  82:Drivers/lvgl/src/misc/lv_anim_timeline.c **** 
 278              		.loc 1 82 51 discriminator 2 view .LVU81
 279 003c 4764     		str	r7, [r0, #68]
  85:Drivers/lvgl/src/misc/lv_anim_timeline.c ****         at->anim_dsc[at->anim_dsc_cnt - 1].anim.var = at;
 280              		.loc 1 85 5 is_stmt 1 discriminator 2 view .LVU82
  85:Drivers/lvgl/src/misc/lv_anim_timeline.c ****         at->anim_dsc[at->anim_dsc_cnt - 1].anim.var = at;
 281              		.loc 1 85 7 is_stmt 0 discriminator 2 view .LVU83
 282 003e 1AB1     		cbz	r2, .L26
 283              	.L18:
  89:Drivers/lvgl/src/misc/lv_anim_timeline.c **** 
 284              		.loc 1 89 1 view .LVU84
 285 0040 BDE8F081 		pop	{r4, r5, r6, r7, r8, pc}
 286              	.LVL19:
 287              	.L20:
 288              		.cfi_def_cfa_offset 0
 289              		.cfi_restore 4
 290              		.cfi_restore 5
 291              		.cfi_restore 6
 292              		.cfi_restore 7
 293              		.cfi_restore 8
 294              		.cfi_restore 14
  74:Drivers/lvgl/src/misc/lv_anim_timeline.c **** 
 295              		.loc 1 74 5 is_stmt 1 discriminator 1 view .LVU85
  74:Drivers/lvgl/src/misc/lv_anim_timeline.c **** 
 296              		.loc 1 74 5 discriminator 1 view .LVU86
ARM GAS  /var/folders/0z/tsy30v1j4xl4_7kw94k978ww0000gn/T//cccHpsZe.s 			page 11


  74:Drivers/lvgl/src/misc/lv_anim_timeline.c **** 
 297              		.loc 1 74 5 discriminator 1 view .LVU87
  74:Drivers/lvgl/src/misc/lv_anim_timeline.c **** 
 298              		.loc 1 74 5 discriminator 1 view .LVU88
  74:Drivers/lvgl/src/misc/lv_anim_timeline.c **** 
 299              		.loc 1 74 5 discriminator 1 view .LVU89
  74:Drivers/lvgl/src/misc/lv_anim_timeline.c **** 
 300              		.loc 1 74 5 discriminator 1 view .LVU90
  74:Drivers/lvgl/src/misc/lv_anim_timeline.c **** 
 301              		.loc 1 74 5 discriminator 1 view .LVU91
  74:Drivers/lvgl/src/misc/lv_anim_timeline.c **** 
 302              		.loc 1 74 5 discriminator 1 view .LVU92
  74:Drivers/lvgl/src/misc/lv_anim_timeline.c **** 
 303              		.loc 1 74 5 discriminator 1 view .LVU93
  74:Drivers/lvgl/src/misc/lv_anim_timeline.c **** 
 304              		.loc 1 74 5 discriminator 1 view .LVU94
 305 0044 FEE7     		b	.L20
 306              	.LVL20:
 307              	.L22:
 308              		.cfi_def_cfa_offset 24
 309              		.cfi_offset 4, -24
 310              		.cfi_offset 5, -20
 311              		.cfi_offset 6, -16
 312              		.cfi_offset 7, -12
 313              		.cfi_offset 8, -8
 314              		.cfi_offset 14, -4
  79:Drivers/lvgl/src/misc/lv_anim_timeline.c **** 
 315              		.loc 1 79 5 discriminator 2 view .LVU95
  79:Drivers/lvgl/src/misc/lv_anim_timeline.c **** 
 316              		.loc 1 79 5 discriminator 2 view .LVU96
  79:Drivers/lvgl/src/misc/lv_anim_timeline.c **** 
 317              		.loc 1 79 5 discriminator 2 view .LVU97
  79:Drivers/lvgl/src/misc/lv_anim_timeline.c **** 
 318              		.loc 1 79 5 discriminator 2 view .LVU98
  79:Drivers/lvgl/src/misc/lv_anim_timeline.c **** 
 319              		.loc 1 79 5 discriminator 2 view .LVU99
  79:Drivers/lvgl/src/misc/lv_anim_timeline.c **** 
 320              		.loc 1 79 5 discriminator 2 view .LVU100
  79:Drivers/lvgl/src/misc/lv_anim_timeline.c **** 
 321              		.loc 1 79 5 discriminator 2 view .LVU101
  79:Drivers/lvgl/src/misc/lv_anim_timeline.c **** 
 322              		.loc 1 79 5 discriminator 2 view .LVU102
  79:Drivers/lvgl/src/misc/lv_anim_timeline.c **** 
 323              		.loc 1 79 5 discriminator 2 view .LVU103
  79:Drivers/lvgl/src/misc/lv_anim_timeline.c **** 
 324              		.loc 1 79 5 discriminator 2 view .LVU104
 325 0046 FEE7     		b	.L22
 326              	.L26:
  85:Drivers/lvgl/src/misc/lv_anim_timeline.c ****         at->anim_dsc[at->anim_dsc_cnt - 1].anim.var = at;
 327              		.loc 1 85 23 is_stmt 0 discriminator 1 view .LVU105
 328 0048 6A68     		ldr	r2, [r5, #4]
 329 004a 002A     		cmp	r2, #0
 330 004c F8D1     		bne	.L18
  86:Drivers/lvgl/src/misc/lv_anim_timeline.c ****         at->anim_dsc[at->anim_dsc_cnt - 1].anim.exec_cb = lv_anim_timeline_virtual_exec_cb;
 331              		.loc 1 86 9 is_stmt 1 view .LVU106
  87:Drivers/lvgl/src/misc/lv_anim_timeline.c ****     }
 332              		.loc 1 87 57 is_stmt 0 view .LVU107
ARM GAS  /var/folders/0z/tsy30v1j4xl4_7kw94k978ww0000gn/T//cccHpsZe.s 			page 12


 333 004e 024A     		ldr	r2, .L27
  86:Drivers/lvgl/src/misc/lv_anim_timeline.c ****         at->anim_dsc[at->anim_dsc_cnt - 1].anim.exec_cb = lv_anim_timeline_virtual_exec_cb;
 334              		.loc 1 86 53 view .LVU108
 335 0050 48F80640 		str	r4, [r8, r6]
  87:Drivers/lvgl/src/misc/lv_anim_timeline.c ****     }
 336              		.loc 1 87 9 is_stmt 1 view .LVU109
  87:Drivers/lvgl/src/misc/lv_anim_timeline.c ****     }
 337              		.loc 1 87 57 is_stmt 0 view .LVU110
 338 0054 4260     		str	r2, [r0, #4]
  89:Drivers/lvgl/src/misc/lv_anim_timeline.c **** 
 339              		.loc 1 89 1 view .LVU111
 340 0056 F3E7     		b	.L18
 341              	.L28:
 342              		.align	2
 343              	.L27:
 344 0058 00000000 		.word	lv_anim_timeline_virtual_exec_cb
 345              		.cfi_endproc
 346              	.LFE24:
 348              		.section	.text.lv_anim_timeline_start,"ax",%progbits
 349              		.align	1
 350              		.p2align 2,,3
 351              		.global	lv_anim_timeline_start
 352              		.syntax unified
 353              		.thumb
 354              		.thumb_func
 356              	lv_anim_timeline_start:
 357              	.LVL21:
 358              	.LFB25:
  92:Drivers/lvgl/src/misc/lv_anim_timeline.c ****     LV_ASSERT_NULL(at);
 359              		.loc 1 92 1 is_stmt 1 view -0
 360              		.cfi_startproc
 361              		@ args = 0, pretend = 0, frame = 72
 362              		@ frame_needed = 0, uses_anonymous_args = 0
  93:Drivers/lvgl/src/misc/lv_anim_timeline.c **** 
 363              		.loc 1 93 5 view .LVU113
  93:Drivers/lvgl/src/misc/lv_anim_timeline.c **** 
 364              		.loc 1 93 5 view .LVU114
 365 0000 0028     		cmp	r0, #0
 366 0002 3ED0     		beq	.L30
 367              	.LVL22:
 368              	.LBB50:
 369              	.LBB51:
 370              	.LBB52:
 371              	.LBB53:
 372              	.LBB54:
 171:Drivers/lvgl/src/misc/lv_anim_timeline.c ****         uint32_t end = lv_anim_get_playtime(&at->anim_dsc[i].anim);
 373              		.loc 1 171 27 view .LVU115
 374              	.LBE54:
 375              	.LBE53:
 376              	.LBE52:
 377              	.LBE51:
 378              	.LBE50:
  92:Drivers/lvgl/src/misc/lv_anim_timeline.c ****     LV_ASSERT_NULL(at);
 379              		.loc 1 92 1 is_stmt 0 view .LVU116
 380 0004 2DE9F043 		push	{r4, r5, r6, r7, r8, r9, lr}
 381              		.cfi_def_cfa_offset 28
 382              		.cfi_offset 4, -28
ARM GAS  /var/folders/0z/tsy30v1j4xl4_7kw94k978ww0000gn/T//cccHpsZe.s 			page 13


 383              		.cfi_offset 5, -24
 384              		.cfi_offset 6, -20
 385              		.cfi_offset 7, -16
 386              		.cfi_offset 8, -12
 387              		.cfi_offset 9, -8
 388              		.cfi_offset 14, -4
 389              	.LBB69:
 390              	.LBB67:
 391              	.LBB65:
 392              	.LBB63:
 393              	.LBB60:
 171:Drivers/lvgl/src/misc/lv_anim_timeline.c ****         uint32_t end = lv_anim_get_playtime(&at->anim_dsc[i].anim);
 394              		.loc 1 171 31 view .LVU117
 395 0008 4668     		ldr	r6, [r0, #4]
 396              	.LBE60:
 397              	.LBE63:
 398              	.LBE65:
 399              	.LBE67:
 400              	.LBE69:
  92:Drivers/lvgl/src/misc/lv_anim_timeline.c ****     LV_ASSERT_NULL(at);
 401              		.loc 1 92 1 view .LVU118
 402 000a 93B0     		sub	sp, sp, #76
 403              		.cfi_def_cfa_offset 104
 404 000c 0746     		mov	r7, r0
 405              	.LBB70:
 406              	.LBB68:
 407              	.LBB66:
 408              	.LBB64:
 409              	.LBB61:
 171:Drivers/lvgl/src/misc/lv_anim_timeline.c ****         uint32_t end = lv_anim_get_playtime(&at->anim_dsc[i].anim);
 410              		.loc 1 171 27 view .LVU119
 411 000e A6B3     		cbz	r6, .L29
 412              	.LBE61:
 170:Drivers/lvgl/src/misc/lv_anim_timeline.c ****     for(uint32_t i = 0; i < at->anim_dsc_cnt; i++) {
 413              		.loc 1 170 14 view .LVU120
 414 0010 0026     		movs	r6, #0
 415              	.LBB62:
 416              	.LBB55:
 172:Drivers/lvgl/src/misc/lv_anim_timeline.c ****         if(end == LV_ANIM_PLAYTIME_INFINITE)
 417              		.loc 1 172 48 view .LVU121
 418 0012 0268     		ldr	r2, [r0]
 419              	.LBE55:
 171:Drivers/lvgl/src/misc/lv_anim_timeline.c ****         uint32_t end = lv_anim_get_playtime(&at->anim_dsc[i].anim);
 420              		.loc 1 171 18 view .LVU122
 421 0014 3546     		mov	r5, r6
 422 0016 09E0     		b	.L34
 423              	.LVL23:
 424              	.L51:
 171:Drivers/lvgl/src/misc/lv_anim_timeline.c ****         uint32_t end = lv_anim_get_playtime(&at->anim_dsc[i].anim);
 425              		.loc 1 171 31 view .LVU123
 426 0018 D7E90021 		ldrd	r2, r1, [r7]
 427              	.LBB56:
 175:Drivers/lvgl/src/misc/lv_anim_timeline.c ****         if(end > playtime) {
 428              		.loc 1 175 31 view .LVU124
 429 001c 1319     		adds	r3, r2, r4
 175:Drivers/lvgl/src/misc/lv_anim_timeline.c ****         if(end > playtime) {
 430              		.loc 1 175 13 view .LVU125
ARM GAS  /var/folders/0z/tsy30v1j4xl4_7kw94k978ww0000gn/T//cccHpsZe.s 			page 14


 431 001e 5B6C     		ldr	r3, [r3, #68]
 432 0020 0344     		add	r3, r3, r0
 433 0022 9E42     		cmp	r6, r3
 434 0024 38BF     		it	cc
 435 0026 1E46     		movcc	r6, r3
 436              	.LVL24:
 175:Drivers/lvgl/src/misc/lv_anim_timeline.c ****         if(end > playtime) {
 437              		.loc 1 175 13 view .LVU126
 438              	.LBE56:
 171:Drivers/lvgl/src/misc/lv_anim_timeline.c ****         uint32_t end = lv_anim_get_playtime(&at->anim_dsc[i].anim);
 439              		.loc 1 171 48 is_stmt 1 view .LVU127
 171:Drivers/lvgl/src/misc/lv_anim_timeline.c ****         uint32_t end = lv_anim_get_playtime(&at->anim_dsc[i].anim);
 440              		.loc 1 171 27 view .LVU128
 441 0028 8D42     		cmp	r5, r1
 442 002a 0CD2     		bcs	.L35
 443              	.LVL25:
 444              	.L34:
 445              	.LBB57:
 172:Drivers/lvgl/src/misc/lv_anim_timeline.c ****         if(end == LV_ANIM_PLAYTIME_INFINITE)
 446              		.loc 1 172 9 view .LVU129
 447 002c 05EBC503 		add	r3, r5, r5, lsl #3
 172:Drivers/lvgl/src/misc/lv_anim_timeline.c ****         if(end == LV_ANIM_PLAYTIME_INFINITE)
 448              		.loc 1 172 24 is_stmt 0 view .LVU130
 449 0030 02EBC300 		add	r0, r2, r3, lsl #3
 450 0034 DC00     		lsls	r4, r3, #3
 451 0036 FFF7FEFF 		bl	lv_anim_get_playtime
 452              	.LVL26:
 175:Drivers/lvgl/src/misc/lv_anim_timeline.c ****         if(end > playtime) {
 453              		.loc 1 175 9 is_stmt 1 view .LVU131
 173:Drivers/lvgl/src/misc/lv_anim_timeline.c ****             return end;
 454              		.loc 1 173 9 view .LVU132
 173:Drivers/lvgl/src/misc/lv_anim_timeline.c ****             return end;
 455              		.loc 1 173 11 is_stmt 0 view .LVU133
 456 003a 431C     		adds	r3, r0, #1
 457              	.LBE57:
 171:Drivers/lvgl/src/misc/lv_anim_timeline.c ****         uint32_t end = lv_anim_get_playtime(&at->anim_dsc[i].anim);
 458              		.loc 1 171 48 view .LVU134
 459 003c 05F10105 		add	r5, r5, #1
 460              	.LVL27:
 461              	.LBB58:
 173:Drivers/lvgl/src/misc/lv_anim_timeline.c ****             return end;
 462              		.loc 1 173 11 view .LVU135
 463 0040 EAD1     		bne	.L51
 464              	.LBE58:
 171:Drivers/lvgl/src/misc/lv_anim_timeline.c ****         uint32_t end = lv_anim_get_playtime(&at->anim_dsc[i].anim);
 465              		.loc 1 171 31 view .LVU136
 466 0042 7968     		ldr	r1, [r7, #4]
 467              	.LBB59:
 172:Drivers/lvgl/src/misc/lv_anim_timeline.c ****         if(end == LV_ANIM_PLAYTIME_INFINITE)
 468              		.loc 1 172 24 view .LVU137
 469 0044 0646     		mov	r6, r0
 470              	.LVL28:
 471              	.L35:
 172:Drivers/lvgl/src/misc/lv_anim_timeline.c ****         if(end == LV_ANIM_PLAYTIME_INFINITE)
 472              		.loc 1 172 24 view .LVU138
 473              	.LBE59:
 474              	.LBE62:
ARM GAS  /var/folders/0z/tsy30v1j4xl4_7kw94k978ww0000gn/T//cccHpsZe.s 			page 15


 475              	.LBE64:
 476              	.LBE66:
 477              	.LBE68:
 478              	.LBE70:
  96:Drivers/lvgl/src/misc/lv_anim_timeline.c **** 
 479              		.loc 1 96 5 is_stmt 1 view .LVU139
  96:Drivers/lvgl/src/misc/lv_anim_timeline.c **** 
 480              		.loc 1 96 10 is_stmt 0 view .LVU140
 481 0046 3B7A     		ldrb	r3, [r7, #8]	@ zero_extendqisi2
 482              	.LVL29:
  98:Drivers/lvgl/src/misc/lv_anim_timeline.c ****         lv_anim_t a = at->anim_dsc[i].anim;
 483              		.loc 1 98 5 is_stmt 1 view .LVU141
 484              	.LBB71:
  98:Drivers/lvgl/src/misc/lv_anim_timeline.c ****         lv_anim_t a = at->anim_dsc[i].anim;
 485              		.loc 1 98 9 view .LVU142
  98:Drivers/lvgl/src/misc/lv_anim_timeline.c ****         lv_anim_t a = at->anim_dsc[i].anim;
 486              		.loc 1 98 27 view .LVU143
 487 0048 B9B1     		cbz	r1, .L29
 488 004a DBB9     		cbnz	r3, .L39
 489 004c 9846     		mov	r8, r3
  98:Drivers/lvgl/src/misc/lv_anim_timeline.c ****         lv_anim_t a = at->anim_dsc[i].anim;
 490              		.loc 1 98 18 is_stmt 0 view .LVU144
 491 004e 9946     		mov	r9, r3
 492 0050 01AD     		add	r5, sp, #4
 493              	.LVL30:
 494              	.L37:
 495              	.LBB72:
  99:Drivers/lvgl/src/misc/lv_anim_timeline.c ****         uint32_t start_time = at->anim_dsc[i].start_time;
 496              		.loc 1 99 9 is_stmt 1 view .LVU145
  99:Drivers/lvgl/src/misc/lv_anim_timeline.c ****         uint32_t start_time = at->anim_dsc[i].start_time;
 497              		.loc 1 99 35 is_stmt 0 view .LVU146
 498 0052 3C68     		ldr	r4, [r7]
 499 0054 4444     		add	r4, r4, r8
  99:Drivers/lvgl/src/misc/lv_anim_timeline.c ****         uint32_t start_time = at->anim_dsc[i].start_time;
 500              		.loc 1 99 19 view .LVU147
 501 0056 4422     		movs	r2, #68
 502 0058 2146     		mov	r1, r4
 503 005a 2846     		mov	r0, r5
 504 005c FFF7FEFF 		bl	memcpy
 505              	.LVL31:
 100:Drivers/lvgl/src/misc/lv_anim_timeline.c **** 
 506              		.loc 1 100 9 is_stmt 1 view .LVU148
 102:Drivers/lvgl/src/misc/lv_anim_timeline.c ****             int32_t temp = a.start_value;
 507              		.loc 1 102 9 view .LVU149
 109:Drivers/lvgl/src/misc/lv_anim_timeline.c ****         }
 508              		.loc 1 109 13 view .LVU150
 509              	.LBB73:
 510              	.LBI73:
 511              		.file 2 "Drivers/lvgl/src/misc/lv_anim.h"
   1:Drivers/lvgl/src/misc/lv_anim.h **** /**
   2:Drivers/lvgl/src/misc/lv_anim.h ****  * @file lv_anim.h
   3:Drivers/lvgl/src/misc/lv_anim.h ****  *
   4:Drivers/lvgl/src/misc/lv_anim.h ****  */
   5:Drivers/lvgl/src/misc/lv_anim.h **** 
   6:Drivers/lvgl/src/misc/lv_anim.h **** #ifndef LV_ANIM_H
   7:Drivers/lvgl/src/misc/lv_anim.h **** #define LV_ANIM_H
   8:Drivers/lvgl/src/misc/lv_anim.h **** 
ARM GAS  /var/folders/0z/tsy30v1j4xl4_7kw94k978ww0000gn/T//cccHpsZe.s 			page 16


   9:Drivers/lvgl/src/misc/lv_anim.h **** #ifdef __cplusplus
  10:Drivers/lvgl/src/misc/lv_anim.h **** extern "C" {
  11:Drivers/lvgl/src/misc/lv_anim.h **** #endif
  12:Drivers/lvgl/src/misc/lv_anim.h **** 
  13:Drivers/lvgl/src/misc/lv_anim.h **** /*********************
  14:Drivers/lvgl/src/misc/lv_anim.h ****  *      INCLUDES
  15:Drivers/lvgl/src/misc/lv_anim.h ****  *********************/
  16:Drivers/lvgl/src/misc/lv_anim.h **** #include "../lv_conf_internal.h"
  17:Drivers/lvgl/src/misc/lv_anim.h **** 
  18:Drivers/lvgl/src/misc/lv_anim.h **** #include <stdint.h>
  19:Drivers/lvgl/src/misc/lv_anim.h **** #include <stdbool.h>
  20:Drivers/lvgl/src/misc/lv_anim.h **** #include <stddef.h>
  21:Drivers/lvgl/src/misc/lv_anim.h **** 
  22:Drivers/lvgl/src/misc/lv_anim.h **** /*********************
  23:Drivers/lvgl/src/misc/lv_anim.h ****  *      DEFINES
  24:Drivers/lvgl/src/misc/lv_anim.h ****  *********************/
  25:Drivers/lvgl/src/misc/lv_anim.h **** 
  26:Drivers/lvgl/src/misc/lv_anim.h **** #define LV_ANIM_REPEAT_INFINITE      0xFFFF
  27:Drivers/lvgl/src/misc/lv_anim.h **** #define LV_ANIM_PLAYTIME_INFINITE    0xFFFFFFFF
  28:Drivers/lvgl/src/misc/lv_anim.h **** 
  29:Drivers/lvgl/src/misc/lv_anim.h **** LV_EXPORT_CONST_INT(LV_ANIM_REPEAT_INFINITE);
  30:Drivers/lvgl/src/misc/lv_anim.h **** LV_EXPORT_CONST_INT(LV_ANIM_PLAYTIME_INFINITE);
  31:Drivers/lvgl/src/misc/lv_anim.h **** 
  32:Drivers/lvgl/src/misc/lv_anim.h **** /**********************
  33:Drivers/lvgl/src/misc/lv_anim.h ****  *      TYPEDEFS
  34:Drivers/lvgl/src/misc/lv_anim.h ****  **********************/
  35:Drivers/lvgl/src/misc/lv_anim.h **** 
  36:Drivers/lvgl/src/misc/lv_anim.h **** /** Can be used to indicate if animations are enabled or disabled in a case*/
  37:Drivers/lvgl/src/misc/lv_anim.h **** typedef enum {
  38:Drivers/lvgl/src/misc/lv_anim.h ****     LV_ANIM_OFF,
  39:Drivers/lvgl/src/misc/lv_anim.h ****     LV_ANIM_ON,
  40:Drivers/lvgl/src/misc/lv_anim.h **** } lv_anim_enable_t;
  41:Drivers/lvgl/src/misc/lv_anim.h **** 
  42:Drivers/lvgl/src/misc/lv_anim.h **** struct _lv_anim_t;
  43:Drivers/lvgl/src/misc/lv_anim.h **** struct _lv_timer_t;
  44:Drivers/lvgl/src/misc/lv_anim.h **** 
  45:Drivers/lvgl/src/misc/lv_anim.h **** /** Get the current value during an animation*/
  46:Drivers/lvgl/src/misc/lv_anim.h **** typedef int32_t (*lv_anim_path_cb_t)(const struct _lv_anim_t *);
  47:Drivers/lvgl/src/misc/lv_anim.h **** 
  48:Drivers/lvgl/src/misc/lv_anim.h **** /** Generic prototype of "animator" functions.
  49:Drivers/lvgl/src/misc/lv_anim.h ****  * First parameter is the variable to animate.
  50:Drivers/lvgl/src/misc/lv_anim.h ****  * Second parameter is the value to set.
  51:Drivers/lvgl/src/misc/lv_anim.h ****  * Compatible with `lv_xxx_set_yyy(obj, value)` functions
  52:Drivers/lvgl/src/misc/lv_anim.h ****  * The `x` in `_xcb_t` means it's not a fully generic prototype because
  53:Drivers/lvgl/src/misc/lv_anim.h ****  * it doesn't receive `lv_anim_t *` as its first argument*/
  54:Drivers/lvgl/src/misc/lv_anim.h **** typedef void (*lv_anim_exec_xcb_t)(void *, int32_t);
  55:Drivers/lvgl/src/misc/lv_anim.h **** 
  56:Drivers/lvgl/src/misc/lv_anim.h **** /** Same as `lv_anim_exec_xcb_t` but receives `lv_anim_t *` as the first parameter.
  57:Drivers/lvgl/src/misc/lv_anim.h ****  * It's more consistent but less convenient. Might be used by binding generator functions.*/
  58:Drivers/lvgl/src/misc/lv_anim.h **** typedef void (*lv_anim_custom_exec_cb_t)(struct _lv_anim_t *, int32_t);
  59:Drivers/lvgl/src/misc/lv_anim.h **** 
  60:Drivers/lvgl/src/misc/lv_anim.h **** /** Callback to call when the animation is ready*/
  61:Drivers/lvgl/src/misc/lv_anim.h **** typedef void (*lv_anim_ready_cb_t)(struct _lv_anim_t *);
  62:Drivers/lvgl/src/misc/lv_anim.h **** 
  63:Drivers/lvgl/src/misc/lv_anim.h **** /** Callback to call when the animation really stars (considering `delay`)*/
  64:Drivers/lvgl/src/misc/lv_anim.h **** typedef void (*lv_anim_start_cb_t)(struct _lv_anim_t *);
  65:Drivers/lvgl/src/misc/lv_anim.h **** 
ARM GAS  /var/folders/0z/tsy30v1j4xl4_7kw94k978ww0000gn/T//cccHpsZe.s 			page 17


  66:Drivers/lvgl/src/misc/lv_anim.h **** /** Callback used when the animation values are relative to get the current value*/
  67:Drivers/lvgl/src/misc/lv_anim.h **** typedef int32_t (*lv_anim_get_value_cb_t)(struct _lv_anim_t *);
  68:Drivers/lvgl/src/misc/lv_anim.h **** 
  69:Drivers/lvgl/src/misc/lv_anim.h **** /** Callback used when the animation is deleted*/
  70:Drivers/lvgl/src/misc/lv_anim.h **** typedef void (*lv_anim_deleted_cb_t)(struct _lv_anim_t *);
  71:Drivers/lvgl/src/misc/lv_anim.h **** 
  72:Drivers/lvgl/src/misc/lv_anim.h **** /** Describes an animation*/
  73:Drivers/lvgl/src/misc/lv_anim.h **** typedef struct _lv_anim_t {
  74:Drivers/lvgl/src/misc/lv_anim.h ****     void * var;                          /**<Variable to animate*/
  75:Drivers/lvgl/src/misc/lv_anim.h ****     lv_anim_exec_xcb_t exec_cb;          /**< Function to execute to animate*/
  76:Drivers/lvgl/src/misc/lv_anim.h ****     lv_anim_start_cb_t start_cb;         /**< Call it when the animation is starts (considering `de
  77:Drivers/lvgl/src/misc/lv_anim.h ****     lv_anim_ready_cb_t ready_cb;         /**< Call it when the animation is ready*/
  78:Drivers/lvgl/src/misc/lv_anim.h ****     lv_anim_deleted_cb_t deleted_cb;     /**< Call it when the animation is deleted*/
  79:Drivers/lvgl/src/misc/lv_anim.h ****     lv_anim_get_value_cb_t get_value_cb; /**< Get the current value in relative mode*/
  80:Drivers/lvgl/src/misc/lv_anim.h **** #if LV_USE_USER_DATA
  81:Drivers/lvgl/src/misc/lv_anim.h ****     void * user_data; /**< Custom user data*/
  82:Drivers/lvgl/src/misc/lv_anim.h **** #endif
  83:Drivers/lvgl/src/misc/lv_anim.h ****     lv_anim_path_cb_t path_cb;         /**< Describe the path (curve) of animations*/
  84:Drivers/lvgl/src/misc/lv_anim.h ****     int32_t start_value;               /**< Start value*/
  85:Drivers/lvgl/src/misc/lv_anim.h ****     int32_t current_value;             /**< Current value*/
  86:Drivers/lvgl/src/misc/lv_anim.h ****     int32_t end_value;                 /**< End value*/
  87:Drivers/lvgl/src/misc/lv_anim.h ****     int32_t time;                /**< Animation time in ms*/
  88:Drivers/lvgl/src/misc/lv_anim.h ****     int32_t act_time;            /**< Current time in animation. Set to negative to make delay.*/
  89:Drivers/lvgl/src/misc/lv_anim.h ****     uint32_t playback_delay;     /**< Wait before play back*/
  90:Drivers/lvgl/src/misc/lv_anim.h ****     uint32_t playback_time;      /**< Duration of playback animation*/
  91:Drivers/lvgl/src/misc/lv_anim.h ****     uint32_t repeat_delay;       /**< Wait before repeat*/
  92:Drivers/lvgl/src/misc/lv_anim.h ****     uint16_t repeat_cnt;         /**< Repeat count for the animation*/
  93:Drivers/lvgl/src/misc/lv_anim.h ****     uint8_t early_apply  : 1;    /**< 1: Apply start value immediately even is there is `delay`*/
  94:Drivers/lvgl/src/misc/lv_anim.h **** 
  95:Drivers/lvgl/src/misc/lv_anim.h ****     /*Animation system use these - user shouldn't set*/
  96:Drivers/lvgl/src/misc/lv_anim.h ****     uint8_t playback_now : 1; /**< Play back is in progress*/
  97:Drivers/lvgl/src/misc/lv_anim.h ****     uint8_t run_round : 1;    /**< Indicates the animation has run in this round*/
  98:Drivers/lvgl/src/misc/lv_anim.h ****     uint8_t start_cb_called : 1;    /**< Indicates that the `start_cb` was already called*/
  99:Drivers/lvgl/src/misc/lv_anim.h **** } lv_anim_t;
 100:Drivers/lvgl/src/misc/lv_anim.h **** 
 101:Drivers/lvgl/src/misc/lv_anim.h **** /**********************
 102:Drivers/lvgl/src/misc/lv_anim.h ****  * GLOBAL PROTOTYPES
 103:Drivers/lvgl/src/misc/lv_anim.h ****  **********************/
 104:Drivers/lvgl/src/misc/lv_anim.h **** 
 105:Drivers/lvgl/src/misc/lv_anim.h **** /**
 106:Drivers/lvgl/src/misc/lv_anim.h ****  * Init. the animation module
 107:Drivers/lvgl/src/misc/lv_anim.h ****  */
 108:Drivers/lvgl/src/misc/lv_anim.h **** void _lv_anim_core_init(void);
 109:Drivers/lvgl/src/misc/lv_anim.h **** 
 110:Drivers/lvgl/src/misc/lv_anim.h **** /**
 111:Drivers/lvgl/src/misc/lv_anim.h ****  * Initialize an animation variable.
 112:Drivers/lvgl/src/misc/lv_anim.h ****  * E.g.:
 113:Drivers/lvgl/src/misc/lv_anim.h ****  * lv_anim_t a;
 114:Drivers/lvgl/src/misc/lv_anim.h ****  * lv_anim_init(&a);
 115:Drivers/lvgl/src/misc/lv_anim.h ****  * lv_anim_set_...(&a);
 116:Drivers/lvgl/src/misc/lv_anim.h ****  * lv_anim_start(&a);
 117:Drivers/lvgl/src/misc/lv_anim.h ****  * @param a     pointer to an `lv_anim_t` variable to initialize
 118:Drivers/lvgl/src/misc/lv_anim.h ****  */
 119:Drivers/lvgl/src/misc/lv_anim.h **** void lv_anim_init(lv_anim_t * a);
 120:Drivers/lvgl/src/misc/lv_anim.h **** 
 121:Drivers/lvgl/src/misc/lv_anim.h **** /**
 122:Drivers/lvgl/src/misc/lv_anim.h ****  * Set a variable to animate
ARM GAS  /var/folders/0z/tsy30v1j4xl4_7kw94k978ww0000gn/T//cccHpsZe.s 			page 18


 123:Drivers/lvgl/src/misc/lv_anim.h ****  * @param a     pointer to an initialized `lv_anim_t` variable
 124:Drivers/lvgl/src/misc/lv_anim.h ****  * @param var   pointer to a variable to animate
 125:Drivers/lvgl/src/misc/lv_anim.h ****  */
 126:Drivers/lvgl/src/misc/lv_anim.h **** static inline void lv_anim_set_var(lv_anim_t * a, void * var)
 127:Drivers/lvgl/src/misc/lv_anim.h **** {
 128:Drivers/lvgl/src/misc/lv_anim.h ****     a->var = var;
 129:Drivers/lvgl/src/misc/lv_anim.h **** }
 130:Drivers/lvgl/src/misc/lv_anim.h **** 
 131:Drivers/lvgl/src/misc/lv_anim.h **** /**
 132:Drivers/lvgl/src/misc/lv_anim.h ****  * Set a function to animate `var`
 133:Drivers/lvgl/src/misc/lv_anim.h ****  * @param a         pointer to an initialized `lv_anim_t` variable
 134:Drivers/lvgl/src/misc/lv_anim.h ****  * @param exec_cb   a function to execute during animation
 135:Drivers/lvgl/src/misc/lv_anim.h ****  *                  LVGL's built-in functions can be used.
 136:Drivers/lvgl/src/misc/lv_anim.h ****  *                  E.g. lv_obj_set_x
 137:Drivers/lvgl/src/misc/lv_anim.h ****  */
 138:Drivers/lvgl/src/misc/lv_anim.h **** static inline void lv_anim_set_exec_cb(lv_anim_t * a, lv_anim_exec_xcb_t exec_cb)
 139:Drivers/lvgl/src/misc/lv_anim.h **** {
 140:Drivers/lvgl/src/misc/lv_anim.h ****     a->exec_cb = exec_cb;
 141:Drivers/lvgl/src/misc/lv_anim.h **** }
 142:Drivers/lvgl/src/misc/lv_anim.h **** 
 143:Drivers/lvgl/src/misc/lv_anim.h **** /**
 144:Drivers/lvgl/src/misc/lv_anim.h ****  * Set the duration of an animation
 145:Drivers/lvgl/src/misc/lv_anim.h ****  * @param a         pointer to an initialized `lv_anim_t` variable
 146:Drivers/lvgl/src/misc/lv_anim.h ****  * @param duration  duration of the animation in milliseconds
 147:Drivers/lvgl/src/misc/lv_anim.h ****  */
 148:Drivers/lvgl/src/misc/lv_anim.h **** static inline void lv_anim_set_time(lv_anim_t * a, uint32_t duration)
 149:Drivers/lvgl/src/misc/lv_anim.h **** {
 150:Drivers/lvgl/src/misc/lv_anim.h ****     a->time = duration;
 151:Drivers/lvgl/src/misc/lv_anim.h **** }
 152:Drivers/lvgl/src/misc/lv_anim.h **** 
 153:Drivers/lvgl/src/misc/lv_anim.h **** /**
 154:Drivers/lvgl/src/misc/lv_anim.h ****  * Set a delay before starting the animation
 155:Drivers/lvgl/src/misc/lv_anim.h ****  * @param a         pointer to an initialized `lv_anim_t` variable
 156:Drivers/lvgl/src/misc/lv_anim.h ****  * @param delay     delay before the animation in milliseconds
 157:Drivers/lvgl/src/misc/lv_anim.h ****  */
 158:Drivers/lvgl/src/misc/lv_anim.h **** static inline void lv_anim_set_delay(lv_anim_t * a, uint32_t delay)
 512              		.loc 2 158 20 view .LVU151
 513              	.LBB74:
 159:Drivers/lvgl/src/misc/lv_anim.h **** {
 160:Drivers/lvgl/src/misc/lv_anim.h ****     a->act_time = -(int32_t)(delay);
 514              		.loc 2 160 5 view .LVU152
 515              		.loc 2 160 19 is_stmt 0 view .LVU153
 516 0060 636C     		ldr	r3, [r4, #68]
 517              	.LBE74:
 518              	.LBE73:
 112:Drivers/lvgl/src/misc/lv_anim_timeline.c ****     }
 519              		.loc 1 112 9 view .LVU154
 520 0062 2846     		mov	r0, r5
 521              	.LBB76:
 522              	.LBB75:
 523              		.loc 2 160 19 view .LVU155
 524 0064 5B42     		rsbs	r3, r3, #0
 525 0066 0D93     		str	r3, [sp, #52]
 526              	.LVL32:
 527              		.loc 2 160 19 view .LVU156
 528              	.LBE75:
 529              	.LBE76:
ARM GAS  /var/folders/0z/tsy30v1j4xl4_7kw94k978ww0000gn/T//cccHpsZe.s 			page 19


 112:Drivers/lvgl/src/misc/lv_anim_timeline.c ****     }
 530              		.loc 1 112 9 is_stmt 1 view .LVU157
 531 0068 FFF7FEFF 		bl	lv_anim_start
 532              	.LVL33:
 112:Drivers/lvgl/src/misc/lv_anim_timeline.c ****     }
 533              		.loc 1 112 9 is_stmt 0 view .LVU158
 534              	.LBE72:
  98:Drivers/lvgl/src/misc/lv_anim_timeline.c ****         lv_anim_t a = at->anim_dsc[i].anim;
 535              		.loc 1 98 48 is_stmt 1 view .LVU159
  98:Drivers/lvgl/src/misc/lv_anim_timeline.c ****         lv_anim_t a = at->anim_dsc[i].anim;
 536              		.loc 1 98 27 is_stmt 0 view .LVU160
 537 006c 7B68     		ldr	r3, [r7, #4]
  98:Drivers/lvgl/src/misc/lv_anim_timeline.c ****         lv_anim_t a = at->anim_dsc[i].anim;
 538              		.loc 1 98 48 view .LVU161
 539 006e 09F10109 		add	r9, r9, #1
 540              	.LVL34:
  98:Drivers/lvgl/src/misc/lv_anim_timeline.c ****         lv_anim_t a = at->anim_dsc[i].anim;
 541              		.loc 1 98 27 is_stmt 1 view .LVU162
 542 0072 9945     		cmp	r9, r3
 543 0074 08F14808 		add	r8, r8, #72
 544 0078 EBD3     		bcc	.L37
 545              	.LVL35:
 546              	.L29:
  98:Drivers/lvgl/src/misc/lv_anim_timeline.c ****         lv_anim_t a = at->anim_dsc[i].anim;
 547              		.loc 1 98 27 is_stmt 0 view .LVU163
 548              	.LBE71:
 116:Drivers/lvgl/src/misc/lv_anim_timeline.c **** 
 549              		.loc 1 116 1 view .LVU164
 550 007a 3046     		mov	r0, r6
 551 007c 13B0     		add	sp, sp, #76
 552              		.cfi_def_cfa_offset 28
 553              		@ sp needed
 554 007e BDE8F083 		pop	{r4, r5, r6, r7, r8, r9, pc}
 555              	.LVL36:
 556              	.L30:
 557              		.cfi_def_cfa_offset 0
 558              		.cfi_restore 4
 559              		.cfi_restore 5
 560              		.cfi_restore 6
 561              		.cfi_restore 7
 562              		.cfi_restore 8
 563              		.cfi_restore 9
 564              		.cfi_restore 14
  93:Drivers/lvgl/src/misc/lv_anim_timeline.c **** 
 565              		.loc 1 93 5 is_stmt 1 discriminator 1 view .LVU165
  93:Drivers/lvgl/src/misc/lv_anim_timeline.c **** 
 566              		.loc 1 93 5 discriminator 1 view .LVU166
  93:Drivers/lvgl/src/misc/lv_anim_timeline.c **** 
 567              		.loc 1 93 5 discriminator 1 view .LVU167
  93:Drivers/lvgl/src/misc/lv_anim_timeline.c **** 
 568              		.loc 1 93 5 discriminator 1 view .LVU168
  93:Drivers/lvgl/src/misc/lv_anim_timeline.c **** 
 569              		.loc 1 93 5 discriminator 1 view .LVU169
  93:Drivers/lvgl/src/misc/lv_anim_timeline.c **** 
 570              		.loc 1 93 5 discriminator 1 view .LVU170
  93:Drivers/lvgl/src/misc/lv_anim_timeline.c **** 
 571              		.loc 1 93 5 discriminator 1 view .LVU171
ARM GAS  /var/folders/0z/tsy30v1j4xl4_7kw94k978ww0000gn/T//cccHpsZe.s 			page 20


  93:Drivers/lvgl/src/misc/lv_anim_timeline.c **** 
 572              		.loc 1 93 5 discriminator 1 view .LVU172
  93:Drivers/lvgl/src/misc/lv_anim_timeline.c **** 
 573              		.loc 1 93 5 discriminator 1 view .LVU173
  93:Drivers/lvgl/src/misc/lv_anim_timeline.c **** 
 574              		.loc 1 93 5 discriminator 1 view .LVU174
 575 0082 FEE7     		b	.L30
 576              	.LVL37:
 577              	.L39:
 578              		.cfi_def_cfa_offset 104
 579              		.cfi_offset 4, -28
 580              		.cfi_offset 5, -24
 581              		.cfi_offset 6, -20
 582              		.cfi_offset 7, -16
 583              		.cfi_offset 8, -12
 584              		.cfi_offset 9, -8
 585              		.cfi_offset 14, -4
 586              	.LBB85:
  98:Drivers/lvgl/src/misc/lv_anim_timeline.c ****         lv_anim_t a = at->anim_dsc[i].anim;
 587              		.loc 1 98 27 is_stmt 0 view .LVU175
 588 0084 4FF00008 		mov	r8, #0
  98:Drivers/lvgl/src/misc/lv_anim_timeline.c ****         lv_anim_t a = at->anim_dsc[i].anim;
 589              		.loc 1 98 18 view .LVU176
 590 0088 C146     		mov	r9, r8
 591 008a 01AD     		add	r5, sp, #4
 592              	.LVL38:
 593              	.L36:
 594              	.LBB84:
  99:Drivers/lvgl/src/misc/lv_anim_timeline.c ****         uint32_t start_time = at->anim_dsc[i].start_time;
 595              		.loc 1 99 9 is_stmt 1 view .LVU177
  99:Drivers/lvgl/src/misc/lv_anim_timeline.c ****         uint32_t start_time = at->anim_dsc[i].start_time;
 596              		.loc 1 99 35 is_stmt 0 view .LVU178
 597 008c 3C68     		ldr	r4, [r7]
 598 008e 4444     		add	r4, r4, r8
  99:Drivers/lvgl/src/misc/lv_anim_timeline.c ****         uint32_t start_time = at->anim_dsc[i].start_time;
 599              		.loc 1 99 19 view .LVU179
 600 0090 2146     		mov	r1, r4
 601 0092 4422     		movs	r2, #68
 602 0094 2846     		mov	r0, r5
 603 0096 FFF7FEFF 		bl	memcpy
 604              	.LVL39:
 100:Drivers/lvgl/src/misc/lv_anim_timeline.c **** 
 605              		.loc 1 100 9 is_stmt 1 view .LVU180
 606              	.LBB77:
 106:Drivers/lvgl/src/misc/lv_anim_timeline.c ****         }
 607              		.loc 1 106 13 is_stmt 0 view .LVU181
 608 009a 0C9A     		ldr	r2, [sp, #48]
 609              	.LBE77:
 100:Drivers/lvgl/src/misc/lv_anim_timeline.c **** 
 610              		.loc 1 100 18 view .LVU182
 611 009c 636C     		ldr	r3, [r4, #68]
 612              	.LVL40:
 102:Drivers/lvgl/src/misc/lv_anim_timeline.c ****             int32_t temp = a.start_value;
 613              		.loc 1 102 9 is_stmt 1 view .LVU183
 614              	.LBB82:
 103:Drivers/lvgl/src/misc/lv_anim_timeline.c ****             a.start_value = a.end_value;
 615              		.loc 1 103 13 view .LVU184
ARM GAS  /var/folders/0z/tsy30v1j4xl4_7kw94k978ww0000gn/T//cccHpsZe.s 			page 21


 103:Drivers/lvgl/src/misc/lv_anim_timeline.c ****             a.start_value = a.end_value;
 616              		.loc 1 103 21 is_stmt 0 view .LVU185
 617 009e 099C     		ldr	r4, [sp, #36]
 618              	.LVL41:
 104:Drivers/lvgl/src/misc/lv_anim_timeline.c ****             a.end_value = temp;
 619              		.loc 1 104 13 is_stmt 1 view .LVU186
 106:Drivers/lvgl/src/misc/lv_anim_timeline.c ****         }
 620              		.loc 1 106 13 is_stmt 0 view .LVU187
 621 00a0 B11A     		subs	r1, r6, r2
 622              	.LBB78:
 623              	.LBB79:
 624              		.loc 2 160 19 view .LVU188
 625 00a2 5B1A     		subs	r3, r3, r1
 626              	.LVL42:
 627              		.loc 2 160 19 view .LVU189
 628              	.LBE79:
 629              	.LBE78:
 104:Drivers/lvgl/src/misc/lv_anim_timeline.c ****             a.end_value = temp;
 630              		.loc 1 104 27 view .LVU190
 631 00a4 0B9A     		ldr	r2, [sp, #44]
 632 00a6 0D93     		str	r3, [sp, #52]
 633              	.LBE82:
 112:Drivers/lvgl/src/misc/lv_anim_timeline.c ****     }
 634              		.loc 1 112 9 view .LVU191
 635 00a8 2846     		mov	r0, r5
 636              	.LBB83:
 104:Drivers/lvgl/src/misc/lv_anim_timeline.c ****             a.end_value = temp;
 637              		.loc 1 104 27 view .LVU192
 638 00aa 0992     		str	r2, [sp, #36]
 105:Drivers/lvgl/src/misc/lv_anim_timeline.c ****             lv_anim_set_delay(&a, playtime - (start_time + a.time));
 639              		.loc 1 105 13 is_stmt 1 view .LVU193
 105:Drivers/lvgl/src/misc/lv_anim_timeline.c ****             lv_anim_set_delay(&a, playtime - (start_time + a.time));
 640              		.loc 1 105 25 is_stmt 0 view .LVU194
 641 00ac 0B94     		str	r4, [sp, #44]
 106:Drivers/lvgl/src/misc/lv_anim_timeline.c ****         }
 642              		.loc 1 106 13 is_stmt 1 view .LVU195
 643              	.LVL43:
 644              	.LBB81:
 645              	.LBI78:
 158:Drivers/lvgl/src/misc/lv_anim.h **** {
 646              		.loc 2 158 20 view .LVU196
 647              	.LBB80:
 648              		.loc 2 160 5 view .LVU197
 649              		.loc 2 160 5 is_stmt 0 view .LVU198
 650              	.LBE80:
 651              	.LBE81:
 652              	.LBE83:
 112:Drivers/lvgl/src/misc/lv_anim_timeline.c ****     }
 653              		.loc 1 112 9 is_stmt 1 view .LVU199
 654 00ae FFF7FEFF 		bl	lv_anim_start
 655              	.LVL44:
 112:Drivers/lvgl/src/misc/lv_anim_timeline.c ****     }
 656              		.loc 1 112 9 is_stmt 0 view .LVU200
 657              	.LBE84:
  98:Drivers/lvgl/src/misc/lv_anim_timeline.c ****         lv_anim_t a = at->anim_dsc[i].anim;
 658              		.loc 1 98 48 is_stmt 1 view .LVU201
  98:Drivers/lvgl/src/misc/lv_anim_timeline.c ****         lv_anim_t a = at->anim_dsc[i].anim;
ARM GAS  /var/folders/0z/tsy30v1j4xl4_7kw94k978ww0000gn/T//cccHpsZe.s 			page 22


 659              		.loc 1 98 27 is_stmt 0 view .LVU202
 660 00b2 7B68     		ldr	r3, [r7, #4]
  98:Drivers/lvgl/src/misc/lv_anim_timeline.c ****         lv_anim_t a = at->anim_dsc[i].anim;
 661              		.loc 1 98 48 view .LVU203
 662 00b4 09F10109 		add	r9, r9, #1
 663              	.LVL45:
  98:Drivers/lvgl/src/misc/lv_anim_timeline.c ****         lv_anim_t a = at->anim_dsc[i].anim;
 664              		.loc 1 98 27 is_stmt 1 view .LVU204
 665 00b8 4B45     		cmp	r3, r9
 666 00ba 08F14808 		add	r8, r8, #72
 667 00be E5D8     		bhi	.L36
 668              	.LBE85:
 116:Drivers/lvgl/src/misc/lv_anim_timeline.c **** 
 669              		.loc 1 116 1 is_stmt 0 view .LVU205
 670 00c0 3046     		mov	r0, r6
 671 00c2 13B0     		add	sp, sp, #76
 672              		.cfi_def_cfa_offset 28
 673              		@ sp needed
 674 00c4 BDE8F083 		pop	{r4, r5, r6, r7, r8, r9, pc}
 116:Drivers/lvgl/src/misc/lv_anim_timeline.c **** 
 675              		.loc 1 116 1 view .LVU206
 676              		.cfi_endproc
 677              	.LFE25:
 679              		.section	.text.lv_anim_timeline_stop,"ax",%progbits
 680              		.align	1
 681              		.p2align 2,,3
 682              		.global	lv_anim_timeline_stop
 683              		.syntax unified
 684              		.thumb
 685              		.thumb_func
 687              	lv_anim_timeline_stop:
 688              	.LVL46:
 689              	.LFB26:
 119:Drivers/lvgl/src/misc/lv_anim_timeline.c ****     LV_ASSERT_NULL(at);
 690              		.loc 1 119 1 is_stmt 1 view -0
 691              		.cfi_startproc
 692              		@ args = 0, pretend = 0, frame = 0
 693              		@ frame_needed = 0, uses_anonymous_args = 0
 120:Drivers/lvgl/src/misc/lv_anim_timeline.c **** 
 694              		.loc 1 120 5 view .LVU208
 120:Drivers/lvgl/src/misc/lv_anim_timeline.c **** 
 695              		.loc 1 120 5 view .LVU209
 696 0000 90B1     		cbz	r0, .L53
 697              	.LVL47:
 698              	.LBB91:
 699              	.LBB92:
 122:Drivers/lvgl/src/misc/lv_anim_timeline.c ****         lv_anim_t * a = &(at->anim_dsc[i].anim);
 700              		.loc 1 122 27 view .LVU210
 701 0002 4368     		ldr	r3, [r0, #4]
 702              	.LBE92:
 703              	.LBE91:
 119:Drivers/lvgl/src/misc/lv_anim_timeline.c ****     LV_ASSERT_NULL(at);
 704              		.loc 1 119 1 is_stmt 0 view .LVU211
 705 0004 70B5     		push	{r4, r5, r6, lr}
 706              		.cfi_def_cfa_offset 16
 707              		.cfi_offset 4, -16
 708              		.cfi_offset 5, -12
ARM GAS  /var/folders/0z/tsy30v1j4xl4_7kw94k978ww0000gn/T//cccHpsZe.s 			page 23


 709              		.cfi_offset 6, -8
 710              		.cfi_offset 14, -4
 711 0006 0646     		mov	r6, r0
 712              	.LBB95:
 713              	.LBB94:
 122:Drivers/lvgl/src/misc/lv_anim_timeline.c ****         lv_anim_t * a = &(at->anim_dsc[i].anim);
 714              		.loc 1 122 27 view .LVU212
 715 0008 6BB1     		cbz	r3, .L52
 716 000a 0024     		movs	r4, #0
 122:Drivers/lvgl/src/misc/lv_anim_timeline.c ****         lv_anim_t * a = &(at->anim_dsc[i].anim);
 717              		.loc 1 122 18 view .LVU213
 718 000c 2546     		mov	r5, r4
 719              	.LVL48:
 720              	.L54:
 721              	.LBB93:
 123:Drivers/lvgl/src/misc/lv_anim_timeline.c ****         lv_anim_del(a->var, a->exec_cb);
 722              		.loc 1 123 9 is_stmt 1 view .LVU214
 123:Drivers/lvgl/src/misc/lv_anim_timeline.c ****         lv_anim_del(a->var, a->exec_cb);
 723              		.loc 1 123 39 is_stmt 0 view .LVU215
 724 000e 3368     		ldr	r3, [r6]
 725 0010 1A19     		adds	r2, r3, r4
 726              	.LVL49:
 124:Drivers/lvgl/src/misc/lv_anim_timeline.c ****     }
 727              		.loc 1 124 9 is_stmt 1 view .LVU216
 728 0012 1859     		ldr	r0, [r3, r4]
 729 0014 5168     		ldr	r1, [r2, #4]
 730 0016 FFF7FEFF 		bl	lv_anim_del
 731              	.LVL50:
 124:Drivers/lvgl/src/misc/lv_anim_timeline.c ****     }
 732              		.loc 1 124 9 is_stmt 0 view .LVU217
 733              	.LBE93:
 122:Drivers/lvgl/src/misc/lv_anim_timeline.c ****         lv_anim_t * a = &(at->anim_dsc[i].anim);
 734              		.loc 1 122 48 is_stmt 1 view .LVU218
 122:Drivers/lvgl/src/misc/lv_anim_timeline.c ****         lv_anim_t * a = &(at->anim_dsc[i].anim);
 735              		.loc 1 122 27 is_stmt 0 view .LVU219
 736 001a 7368     		ldr	r3, [r6, #4]
 122:Drivers/lvgl/src/misc/lv_anim_timeline.c ****         lv_anim_t * a = &(at->anim_dsc[i].anim);
 737              		.loc 1 122 48 view .LVU220
 738 001c 0135     		adds	r5, r5, #1
 739              	.LVL51:
 122:Drivers/lvgl/src/misc/lv_anim_timeline.c ****         lv_anim_t * a = &(at->anim_dsc[i].anim);
 740              		.loc 1 122 27 is_stmt 1 view .LVU221
 741 001e 9D42     		cmp	r5, r3
 742 0020 04F14804 		add	r4, r4, #72
 743 0024 F3D3     		bcc	.L54
 744              	.LVL52:
 745              	.L52:
 122:Drivers/lvgl/src/misc/lv_anim_timeline.c ****         lv_anim_t * a = &(at->anim_dsc[i].anim);
 746              		.loc 1 122 27 is_stmt 0 view .LVU222
 747              	.LBE94:
 748              	.LBE95:
 126:Drivers/lvgl/src/misc/lv_anim_timeline.c **** 
 749              		.loc 1 126 1 view .LVU223
 750 0026 70BD     		pop	{r4, r5, r6, pc}
 751              	.LVL53:
 752              	.L53:
 753              		.cfi_def_cfa_offset 0
ARM GAS  /var/folders/0z/tsy30v1j4xl4_7kw94k978ww0000gn/T//cccHpsZe.s 			page 24


 754              		.cfi_restore 4
 755              		.cfi_restore 5
 756              		.cfi_restore 6
 757              		.cfi_restore 14
 120:Drivers/lvgl/src/misc/lv_anim_timeline.c **** 
 758              		.loc 1 120 5 is_stmt 1 discriminator 1 view .LVU224
 120:Drivers/lvgl/src/misc/lv_anim_timeline.c **** 
 759              		.loc 1 120 5 discriminator 1 view .LVU225
 120:Drivers/lvgl/src/misc/lv_anim_timeline.c **** 
 760              		.loc 1 120 5 discriminator 1 view .LVU226
 120:Drivers/lvgl/src/misc/lv_anim_timeline.c **** 
 761              		.loc 1 120 5 discriminator 1 view .LVU227
 120:Drivers/lvgl/src/misc/lv_anim_timeline.c **** 
 762              		.loc 1 120 5 discriminator 1 view .LVU228
 120:Drivers/lvgl/src/misc/lv_anim_timeline.c **** 
 763              		.loc 1 120 5 discriminator 1 view .LVU229
 120:Drivers/lvgl/src/misc/lv_anim_timeline.c **** 
 764              		.loc 1 120 5 discriminator 1 view .LVU230
 120:Drivers/lvgl/src/misc/lv_anim_timeline.c **** 
 765              		.loc 1 120 5 discriminator 1 view .LVU231
 120:Drivers/lvgl/src/misc/lv_anim_timeline.c **** 
 766              		.loc 1 120 5 discriminator 1 view .LVU232
 120:Drivers/lvgl/src/misc/lv_anim_timeline.c **** 
 767              		.loc 1 120 5 discriminator 1 view .LVU233
 768 0028 FEE7     		b	.L53
 769              		.cfi_endproc
 770              	.LFE26:
 772 002a 00BF     		.section	.text.lv_anim_timeline_set_reverse,"ax",%progbits
 773              		.align	1
 774              		.p2align 2,,3
 775              		.global	lv_anim_timeline_set_reverse
 776              		.syntax unified
 777              		.thumb
 778              		.thumb_func
 780              	lv_anim_timeline_set_reverse:
 781              	.LVL54:
 782              	.LFB27:
 129:Drivers/lvgl/src/misc/lv_anim_timeline.c ****     LV_ASSERT_NULL(at);
 783              		.loc 1 129 1 view -0
 784              		.cfi_startproc
 785              		@ args = 0, pretend = 0, frame = 0
 786              		@ frame_needed = 0, uses_anonymous_args = 0
 787              		@ link register save eliminated.
 130:Drivers/lvgl/src/misc/lv_anim_timeline.c ****     at->reverse = reverse;
 788              		.loc 1 130 5 view .LVU235
 130:Drivers/lvgl/src/misc/lv_anim_timeline.c ****     at->reverse = reverse;
 789              		.loc 1 130 5 view .LVU236
 790 0000 08B1     		cbz	r0, .L65
 130:Drivers/lvgl/src/misc/lv_anim_timeline.c ****     at->reverse = reverse;
 791              		.loc 1 130 5 discriminator 2 view .LVU237
 130:Drivers/lvgl/src/misc/lv_anim_timeline.c ****     at->reverse = reverse;
 792              		.loc 1 130 23 discriminator 2 view .LVU238
 131:Drivers/lvgl/src/misc/lv_anim_timeline.c **** }
 793              		.loc 1 131 5 discriminator 2 view .LVU239
 131:Drivers/lvgl/src/misc/lv_anim_timeline.c **** }
 794              		.loc 1 131 17 is_stmt 0 discriminator 2 view .LVU240
 795 0002 0172     		strb	r1, [r0, #8]
ARM GAS  /var/folders/0z/tsy30v1j4xl4_7kw94k978ww0000gn/T//cccHpsZe.s 			page 25


 132:Drivers/lvgl/src/misc/lv_anim_timeline.c **** 
 796              		.loc 1 132 1 discriminator 2 view .LVU241
 797 0004 7047     		bx	lr
 798              	.L65:
 130:Drivers/lvgl/src/misc/lv_anim_timeline.c ****     at->reverse = reverse;
 799              		.loc 1 130 5 is_stmt 1 discriminator 1 view .LVU242
 130:Drivers/lvgl/src/misc/lv_anim_timeline.c ****     at->reverse = reverse;
 800              		.loc 1 130 5 discriminator 1 view .LVU243
 130:Drivers/lvgl/src/misc/lv_anim_timeline.c ****     at->reverse = reverse;
 801              		.loc 1 130 5 discriminator 1 view .LVU244
 130:Drivers/lvgl/src/misc/lv_anim_timeline.c ****     at->reverse = reverse;
 802              		.loc 1 130 5 discriminator 1 view .LVU245
 130:Drivers/lvgl/src/misc/lv_anim_timeline.c ****     at->reverse = reverse;
 803              		.loc 1 130 5 discriminator 1 view .LVU246
 130:Drivers/lvgl/src/misc/lv_anim_timeline.c ****     at->reverse = reverse;
 804              		.loc 1 130 5 discriminator 1 view .LVU247
 130:Drivers/lvgl/src/misc/lv_anim_timeline.c ****     at->reverse = reverse;
 805              		.loc 1 130 5 discriminator 1 view .LVU248
 130:Drivers/lvgl/src/misc/lv_anim_timeline.c ****     at->reverse = reverse;
 806              		.loc 1 130 5 discriminator 1 view .LVU249
 130:Drivers/lvgl/src/misc/lv_anim_timeline.c ****     at->reverse = reverse;
 807              		.loc 1 130 5 discriminator 1 view .LVU250
 130:Drivers/lvgl/src/misc/lv_anim_timeline.c ****     at->reverse = reverse;
 808              		.loc 1 130 5 discriminator 1 view .LVU251
 809 0006 FEE7     		b	.L65
 810              		.cfi_endproc
 811              	.LFE27:
 813              		.section	.text.lv_anim_timeline_set_progress,"ax",%progbits
 814              		.align	1
 815              		.p2align 2,,3
 816              		.global	lv_anim_timeline_set_progress
 817              		.syntax unified
 818              		.thumb
 819              		.thumb_func
 821              	lv_anim_timeline_set_progress:
 822              	.LVL55:
 823              	.LFB28:
 135:Drivers/lvgl/src/misc/lv_anim_timeline.c ****     LV_ASSERT_NULL(at);
 824              		.loc 1 135 1 view -0
 825              		.cfi_startproc
 826              		@ args = 0, pretend = 0, frame = 0
 827              		@ frame_needed = 0, uses_anonymous_args = 0
 136:Drivers/lvgl/src/misc/lv_anim_timeline.c **** 
 828              		.loc 1 136 5 view .LVU253
 136:Drivers/lvgl/src/misc/lv_anim_timeline.c **** 
 829              		.loc 1 136 5 view .LVU254
 830 0000 0028     		cmp	r0, #0
 831 0002 4ED0     		beq	.L67
 832              	.LVL56:
 833              	.LBB104:
 834              	.LBB105:
 835              	.LBB106:
 836              	.LBB107:
 837              	.LBB108:
 171:Drivers/lvgl/src/misc/lv_anim_timeline.c ****         uint32_t end = lv_anim_get_playtime(&at->anim_dsc[i].anim);
 838              		.loc 1 171 27 view .LVU255
 839 0004 4368     		ldr	r3, [r0, #4]
ARM GAS  /var/folders/0z/tsy30v1j4xl4_7kw94k978ww0000gn/T//cccHpsZe.s 			page 26


 840              	.LBE108:
 841              	.LBE107:
 842              	.LBE106:
 843              	.LBE105:
 844              	.LBE104:
 135:Drivers/lvgl/src/misc/lv_anim_timeline.c ****     LV_ASSERT_NULL(at);
 845              		.loc 1 135 1 is_stmt 0 view .LVU256
 846 0006 2DE9F047 		push	{r4, r5, r6, r7, r8, r9, r10, lr}
 847              		.cfi_def_cfa_offset 32
 848              		.cfi_offset 4, -32
 849              		.cfi_offset 5, -28
 850              		.cfi_offset 6, -24
 851              		.cfi_offset 7, -20
 852              		.cfi_offset 8, -16
 853              		.cfi_offset 9, -12
 854              		.cfi_offset 10, -8
 855              		.cfi_offset 14, -4
 856 000a 0646     		mov	r6, r0
 857              	.LBB119:
 858              	.LBB118:
 859              	.LBB117:
 860              	.LBB116:
 861              	.LBB114:
 171:Drivers/lvgl/src/misc/lv_anim_timeline.c ****         uint32_t end = lv_anim_get_playtime(&at->anim_dsc[i].anim);
 862              		.loc 1 171 27 view .LVU257
 863 000c 002B     		cmp	r3, #0
 864 000e 49D0     		beq	.L66
 865              	.LBE114:
 170:Drivers/lvgl/src/misc/lv_anim_timeline.c ****     for(uint32_t i = 0; i < at->anim_dsc_cnt; i++) {
 866              		.loc 1 170 14 view .LVU258
 867 0010 4FF00008 		mov	r8, #0
 868 0014 0F46     		mov	r7, r1
 869              	.LBB115:
 171:Drivers/lvgl/src/misc/lv_anim_timeline.c ****         uint32_t end = lv_anim_get_playtime(&at->anim_dsc[i].anim);
 870              		.loc 1 171 18 view .LVU259
 871 0016 4546     		mov	r5, r8
 872              	.LBB109:
 172:Drivers/lvgl/src/misc/lv_anim_timeline.c ****         if(end == LV_ANIM_PLAYTIME_INFINITE)
 873              		.loc 1 172 48 view .LVU260
 874 0018 0168     		ldr	r1, [r0]
 875              	.LVL57:
 172:Drivers/lvgl/src/misc/lv_anim_timeline.c ****         if(end == LV_ANIM_PLAYTIME_INFINITE)
 876              		.loc 1 172 48 view .LVU261
 877 001a 09E0     		b	.L70
 878              	.LVL58:
 879              	.L91:
 172:Drivers/lvgl/src/misc/lv_anim_timeline.c ****         if(end == LV_ANIM_PLAYTIME_INFINITE)
 880              		.loc 1 172 48 view .LVU262
 881              	.LBE109:
 171:Drivers/lvgl/src/misc/lv_anim_timeline.c ****         uint32_t end = lv_anim_get_playtime(&at->anim_dsc[i].anim);
 882              		.loc 1 171 31 view .LVU263
 883 001c D6E90012 		ldrd	r1, r2, [r6]
 884              	.LBB110:
 175:Drivers/lvgl/src/misc/lv_anim_timeline.c ****         if(end > playtime) {
 885              		.loc 1 175 31 view .LVU264
 886 0020 0C44     		add	r4, r4, r1
 175:Drivers/lvgl/src/misc/lv_anim_timeline.c ****         if(end > playtime) {
ARM GAS  /var/folders/0z/tsy30v1j4xl4_7kw94k978ww0000gn/T//cccHpsZe.s 			page 27


 887              		.loc 1 175 13 view .LVU265
 888 0022 636C     		ldr	r3, [r4, #68]
 889 0024 0344     		add	r3, r3, r0
 890 0026 9845     		cmp	r8, r3
 891 0028 38BF     		it	cc
 892 002a 9846     		movcc	r8, r3
 893              	.LVL59:
 175:Drivers/lvgl/src/misc/lv_anim_timeline.c ****         if(end > playtime) {
 894              		.loc 1 175 13 view .LVU266
 895              	.LBE110:
 171:Drivers/lvgl/src/misc/lv_anim_timeline.c ****         uint32_t end = lv_anim_get_playtime(&at->anim_dsc[i].anim);
 896              		.loc 1 171 48 is_stmt 1 view .LVU267
 171:Drivers/lvgl/src/misc/lv_anim_timeline.c ****         uint32_t end = lv_anim_get_playtime(&at->anim_dsc[i].anim);
 897              		.loc 1 171 27 view .LVU268
 898 002c 9542     		cmp	r5, r2
 899 002e 0DD2     		bcs	.L71
 900              	.LVL60:
 901              	.L70:
 902              	.LBB111:
 172:Drivers/lvgl/src/misc/lv_anim_timeline.c ****         if(end == LV_ANIM_PLAYTIME_INFINITE)
 903              		.loc 1 172 9 view .LVU269
 904 0030 05EBC504 		add	r4, r5, r5, lsl #3
 172:Drivers/lvgl/src/misc/lv_anim_timeline.c ****         if(end == LV_ANIM_PLAYTIME_INFINITE)
 905              		.loc 1 172 24 is_stmt 0 view .LVU270
 906 0034 01EBC400 		add	r0, r1, r4, lsl #3
 907 0038 FFF7FEFF 		bl	lv_anim_get_playtime
 908              	.LVL61:
 175:Drivers/lvgl/src/misc/lv_anim_timeline.c ****         if(end > playtime) {
 909              		.loc 1 175 9 is_stmt 1 view .LVU271
 173:Drivers/lvgl/src/misc/lv_anim_timeline.c ****             return end;
 910              		.loc 1 173 9 view .LVU272
 173:Drivers/lvgl/src/misc/lv_anim_timeline.c ****             return end;
 911              		.loc 1 173 11 is_stmt 0 view .LVU273
 912 003c 431C     		adds	r3, r0, #1
 913 003e 4FEAC404 		lsl	r4, r4, #3
 914              	.LBE111:
 171:Drivers/lvgl/src/misc/lv_anim_timeline.c ****         uint32_t end = lv_anim_get_playtime(&at->anim_dsc[i].anim);
 915              		.loc 1 171 48 view .LVU274
 916 0042 05F10105 		add	r5, r5, #1
 917              	.LVL62:
 918              	.LBB112:
 173:Drivers/lvgl/src/misc/lv_anim_timeline.c ****             return end;
 919              		.loc 1 173 11 view .LVU275
 920 0046 E9D1     		bne	.L91
 921              	.LBE112:
 171:Drivers/lvgl/src/misc/lv_anim_timeline.c ****         uint32_t end = lv_anim_get_playtime(&at->anim_dsc[i].anim);
 922              		.loc 1 171 31 view .LVU276
 923 0048 7268     		ldr	r2, [r6, #4]
 924              	.LBB113:
 172:Drivers/lvgl/src/misc/lv_anim_timeline.c ****         if(end == LV_ANIM_PLAYTIME_INFINITE)
 925              		.loc 1 172 24 view .LVU277
 926 004a 8046     		mov	r8, r0
 927              	.LVL63:
 928              	.L71:
 172:Drivers/lvgl/src/misc/lv_anim_timeline.c ****         if(end == LV_ANIM_PLAYTIME_INFINITE)
 929              		.loc 1 172 24 view .LVU278
 930              	.LBE113:
ARM GAS  /var/folders/0z/tsy30v1j4xl4_7kw94k978ww0000gn/T//cccHpsZe.s 			page 28


 931              	.LBE115:
 932              	.LBE116:
 933              	.LBE117:
 934              	.LBE118:
 935              	.LBE119:
 139:Drivers/lvgl/src/misc/lv_anim_timeline.c **** 
 936              		.loc 1 139 5 is_stmt 1 view .LVU279
 139:Drivers/lvgl/src/misc/lv_anim_timeline.c **** 
 937              		.loc 1 139 20 is_stmt 0 view .LVU280
 938 004c 174B     		ldr	r3, .L93
 139:Drivers/lvgl/src/misc/lv_anim_timeline.c **** 
 939              		.loc 1 139 40 view .LVU281
 940 004e 08FB07F8 		mul	r8, r8, r7
 941              	.LVL64:
 139:Drivers/lvgl/src/misc/lv_anim_timeline.c **** 
 942              		.loc 1 139 20 view .LVU282
 943 0052 A3FB0838 		umull	r3, r8, r3, r8
 944 0056 4FEAD838 		lsr	r8, r8, #15
 945              	.LVL65:
 141:Drivers/lvgl/src/misc/lv_anim_timeline.c ****         lv_anim_t * a = &(at->anim_dsc[i].anim);
 946              		.loc 1 141 5 is_stmt 1 view .LVU283
 947              	.LBB120:
 141:Drivers/lvgl/src/misc/lv_anim_timeline.c ****         lv_anim_t * a = &(at->anim_dsc[i].anim);
 948              		.loc 1 141 9 view .LVU284
 141:Drivers/lvgl/src/misc/lv_anim_timeline.c ****         lv_anim_t * a = &(at->anim_dsc[i].anim);
 949              		.loc 1 141 27 view .LVU285
 950 005a 1AB3     		cbz	r2, .L66
 141:Drivers/lvgl/src/misc/lv_anim_timeline.c ****         lv_anim_t * a = &(at->anim_dsc[i].anim);
 951              		.loc 1 141 18 is_stmt 0 view .LVU286
 952 005c 0024     		movs	r4, #0
 953 005e 07E0     		b	.L77
 954              	.LVL66:
 955              	.L92:
 956              	.LBB121:
 152:Drivers/lvgl/src/misc/lv_anim_timeline.c ****         }
 957              		.loc 1 152 19 view .LVU287
 958 0060 296A     		ldr	r1, [r5, #32]
 959              	.LVL67:
 960              	.L75:
 162:Drivers/lvgl/src/misc/lv_anim_timeline.c ****     }
 961              		.loc 1 162 9 is_stmt 1 view .LVU288
 962 0062 59F83A00 		ldr	r0, [r9, r10, lsl #3]
 963 0066 B847     		blx	r7
 964              	.LVL68:
 162:Drivers/lvgl/src/misc/lv_anim_timeline.c ****     }
 965              		.loc 1 162 9 is_stmt 0 view .LVU289
 966              	.LBE121:
 141:Drivers/lvgl/src/misc/lv_anim_timeline.c ****         lv_anim_t * a = &(at->anim_dsc[i].anim);
 967              		.loc 1 141 31 view .LVU290
 968 0068 7268     		ldr	r2, [r6, #4]
 969              	.L73:
 141:Drivers/lvgl/src/misc/lv_anim_timeline.c ****         lv_anim_t * a = &(at->anim_dsc[i].anim);
 970              		.loc 1 141 48 is_stmt 1 discriminator 2 view .LVU291
 971 006a 0134     		adds	r4, r4, #1
 972              	.LVL69:
 141:Drivers/lvgl/src/misc/lv_anim_timeline.c ****         lv_anim_t * a = &(at->anim_dsc[i].anim);
 973              		.loc 1 141 27 discriminator 2 view .LVU292
ARM GAS  /var/folders/0z/tsy30v1j4xl4_7kw94k978ww0000gn/T//cccHpsZe.s 			page 29


 974 006c 9442     		cmp	r4, r2
 975 006e 19D2     		bcs	.L66
 976              	.LVL70:
 977              	.L77:
 978              	.LBB122:
 142:Drivers/lvgl/src/misc/lv_anim_timeline.c **** 
 979              		.loc 1 142 9 view .LVU293
 148:Drivers/lvgl/src/misc/lv_anim_timeline.c ****         int32_t value = 0;
 980              		.loc 1 148 9 view .LVU294
 152:Drivers/lvgl/src/misc/lv_anim_timeline.c ****         }
 981              		.loc 1 152 13 view .LVU295
 154:Drivers/lvgl/src/misc/lv_anim_timeline.c ****             a->act_time = act_time - start_time;
 982              		.loc 1 154 14 view .LVU296
 142:Drivers/lvgl/src/misc/lv_anim_timeline.c **** 
 983              		.loc 1 142 39 is_stmt 0 view .LVU297
 984 0070 D6F80090 		ldr	r9, [r6]
 985 0074 04EBC40A 		add	r10, r4, r4, lsl #3
 986 0078 09EBCA05 		add	r5, r9, r10, lsl #3
 987              	.LVL71:
 144:Drivers/lvgl/src/misc/lv_anim_timeline.c ****             continue;
 988              		.loc 1 144 9 is_stmt 1 view .LVU298
 144:Drivers/lvgl/src/misc/lv_anim_timeline.c ****             continue;
 989              		.loc 1 144 13 is_stmt 0 view .LVU299
 990 007c 6F68     		ldr	r7, [r5, #4]
 144:Drivers/lvgl/src/misc/lv_anim_timeline.c ****             continue;
 991              		.loc 1 144 11 view .LVU300
 992 007e 002F     		cmp	r7, #0
 993 0080 F3D0     		beq	.L73
 148:Drivers/lvgl/src/misc/lv_anim_timeline.c ****         int32_t value = 0;
 994              		.loc 1 148 18 view .LVU301
 995 0082 6B6C     		ldr	r3, [r5, #68]
 996              	.LVL72:
 149:Drivers/lvgl/src/misc/lv_anim_timeline.c **** 
 997              		.loc 1 149 9 is_stmt 1 view .LVU302
 151:Drivers/lvgl/src/misc/lv_anim_timeline.c ****             value = a->start_value;
 998              		.loc 1 151 9 view .LVU303
 151:Drivers/lvgl/src/misc/lv_anim_timeline.c ****             value = a->start_value;
 999              		.loc 1 151 11 is_stmt 0 view .LVU304
 1000 0084 9845     		cmp	r8, r3
 1001 0086 EBD3     		bcc	.L92
 155:Drivers/lvgl/src/misc/lv_anim_timeline.c ****             value = a->path_cb(a);
 1002              		.loc 1 155 13 is_stmt 1 view .LVU305
 159:Drivers/lvgl/src/misc/lv_anim_timeline.c ****         }
 1003              		.loc 1 159 13 view .LVU306
 154:Drivers/lvgl/src/misc/lv_anim_timeline.c ****             a->act_time = act_time - start_time;
 1004              		.loc 1 154 40 is_stmt 0 view .LVU307
 1005 0088 EA6A     		ldr	r2, [r5, #44]
 155:Drivers/lvgl/src/misc/lv_anim_timeline.c ****             value = a->path_cb(a);
 1006              		.loc 1 155 36 view .LVU308
 1007 008a A8EB0301 		sub	r1, r8, r3
 154:Drivers/lvgl/src/misc/lv_anim_timeline.c ****             a->act_time = act_time - start_time;
 1008              		.loc 1 154 40 view .LVU309
 1009 008e 1344     		add	r3, r3, r2
 1010              	.LVL73:
 154:Drivers/lvgl/src/misc/lv_anim_timeline.c ****             a->act_time = act_time - start_time;
 1011              		.loc 1 154 16 view .LVU310
 1012 0090 4345     		cmp	r3, r8
ARM GAS  /var/folders/0z/tsy30v1j4xl4_7kw94k978ww0000gn/T//cccHpsZe.s 			page 30


 1013 0092 09D9     		bls	.L76
 155:Drivers/lvgl/src/misc/lv_anim_timeline.c ****             value = a->path_cb(a);
 1014              		.loc 1 155 25 view .LVU311
 1015 0094 2963     		str	r1, [r5, #48]
 156:Drivers/lvgl/src/misc/lv_anim_timeline.c ****         }
 1016              		.loc 1 156 13 is_stmt 1 view .LVU312
 156:Drivers/lvgl/src/misc/lv_anim_timeline.c ****         }
 1017              		.loc 1 156 21 is_stmt 0 view .LVU313
 1018 0096 EB69     		ldr	r3, [r5, #28]
 1019 0098 2846     		mov	r0, r5
 1020 009a 9847     		blx	r3
 1021              	.LVL74:
 162:Drivers/lvgl/src/misc/lv_anim_timeline.c ****     }
 1022              		.loc 1 162 10 view .LVU314
 1023 009c 6F68     		ldr	r7, [r5, #4]
 156:Drivers/lvgl/src/misc/lv_anim_timeline.c ****         }
 1024              		.loc 1 156 21 view .LVU315
 1025 009e 0146     		mov	r1, r0
 1026              	.LVL75:
 156:Drivers/lvgl/src/misc/lv_anim_timeline.c ****         }
 1027              		.loc 1 156 21 view .LVU316
 1028 00a0 DFE7     		b	.L75
 1029              	.LVL76:
 1030              	.L67:
 1031              		.cfi_def_cfa_offset 0
 1032              		.cfi_restore 4
 1033              		.cfi_restore 5
 1034              		.cfi_restore 6
 1035              		.cfi_restore 7
 1036              		.cfi_restore 8
 1037              		.cfi_restore 9
 1038              		.cfi_restore 10
 1039              		.cfi_restore 14
 156:Drivers/lvgl/src/misc/lv_anim_timeline.c ****         }
 1040              		.loc 1 156 21 view .LVU317
 1041              	.LBE122:
 1042              	.LBE120:
 136:Drivers/lvgl/src/misc/lv_anim_timeline.c **** 
 1043              		.loc 1 136 5 is_stmt 1 discriminator 1 view .LVU318
 136:Drivers/lvgl/src/misc/lv_anim_timeline.c **** 
 1044              		.loc 1 136 5 discriminator 1 view .LVU319
 136:Drivers/lvgl/src/misc/lv_anim_timeline.c **** 
 1045              		.loc 1 136 5 discriminator 1 view .LVU320
 136:Drivers/lvgl/src/misc/lv_anim_timeline.c **** 
 1046              		.loc 1 136 5 discriminator 1 view .LVU321
 136:Drivers/lvgl/src/misc/lv_anim_timeline.c **** 
 1047              		.loc 1 136 5 discriminator 1 view .LVU322
 136:Drivers/lvgl/src/misc/lv_anim_timeline.c **** 
 1048              		.loc 1 136 5 discriminator 1 view .LVU323
 136:Drivers/lvgl/src/misc/lv_anim_timeline.c **** 
 1049              		.loc 1 136 5 discriminator 1 view .LVU324
 136:Drivers/lvgl/src/misc/lv_anim_timeline.c **** 
 1050              		.loc 1 136 5 discriminator 1 view .LVU325
 136:Drivers/lvgl/src/misc/lv_anim_timeline.c **** 
 1051              		.loc 1 136 5 discriminator 1 view .LVU326
 136:Drivers/lvgl/src/misc/lv_anim_timeline.c **** 
 1052              		.loc 1 136 5 discriminator 1 view .LVU327
ARM GAS  /var/folders/0z/tsy30v1j4xl4_7kw94k978ww0000gn/T//cccHpsZe.s 			page 31


 1053 00a2 FEE7     		b	.L67
 1054              	.LVL77:
 1055              	.L66:
 1056              		.cfi_def_cfa_offset 32
 1057              		.cfi_offset 4, -32
 1058              		.cfi_offset 5, -28
 1059              		.cfi_offset 6, -24
 1060              		.cfi_offset 7, -20
 1061              		.cfi_offset 8, -16
 1062              		.cfi_offset 9, -12
 1063              		.cfi_offset 10, -8
 1064              		.cfi_offset 14, -4
 164:Drivers/lvgl/src/misc/lv_anim_timeline.c **** 
 1065              		.loc 1 164 1 is_stmt 0 view .LVU328
 1066 00a4 BDE8F087 		pop	{r4, r5, r6, r7, r8, r9, r10, pc}
 1067              	.LVL78:
 1068              	.L76:
 1069              	.LBB124:
 1070              	.LBB123:
 159:Drivers/lvgl/src/misc/lv_anim_timeline.c ****         }
 1071              		.loc 1 159 19 view .LVU329
 1072 00a8 A96A     		ldr	r1, [r5, #40]
 1073              	.LVL79:
 159:Drivers/lvgl/src/misc/lv_anim_timeline.c ****         }
 1074              		.loc 1 159 19 view .LVU330
 1075 00aa DAE7     		b	.L75
 1076              	.L94:
 1077              		.align	2
 1078              	.L93:
 1079 00ac 01800080 		.word	-2147450879
 1080              	.LBE123:
 1081              	.LBE124:
 1082              		.cfi_endproc
 1083              	.LFE28:
 1085              		.section	.text.lv_anim_timeline_get_playtime,"ax",%progbits
 1086              		.align	1
 1087              		.p2align 2,,3
 1088              		.global	lv_anim_timeline_get_playtime
 1089              		.syntax unified
 1090              		.thumb
 1091              		.thumb_func
 1093              	lv_anim_timeline_get_playtime:
 1094              	.LVL80:
 1095              	.LFB29:
 167:Drivers/lvgl/src/misc/lv_anim_timeline.c ****     LV_ASSERT_NULL(at);
 1096              		.loc 1 167 1 is_stmt 1 view -0
 1097              		.cfi_startproc
 1098              		@ args = 0, pretend = 0, frame = 0
 1099              		@ frame_needed = 0, uses_anonymous_args = 0
 168:Drivers/lvgl/src/misc/lv_anim_timeline.c **** 
 1100              		.loc 1 168 5 view .LVU332
 168:Drivers/lvgl/src/misc/lv_anim_timeline.c **** 
 1101              		.loc 1 168 5 view .LVU333
 1102 0000 E8B1     		cbz	r0, .L96
 1103              	.LVL81:
 1104              	.LBB130:
 1105              	.LBB131:
ARM GAS  /var/folders/0z/tsy30v1j4xl4_7kw94k978ww0000gn/T//cccHpsZe.s 			page 32


 1106              	.LBB132:
 171:Drivers/lvgl/src/misc/lv_anim_timeline.c ****         uint32_t end = lv_anim_get_playtime(&at->anim_dsc[i].anim);
 1107              		.loc 1 171 27 view .LVU334
 1108              	.LBE132:
 1109              	.LBE131:
 1110              	.LBE130:
 167:Drivers/lvgl/src/misc/lv_anim_timeline.c ****     LV_ASSERT_NULL(at);
 1111              		.loc 1 167 1 is_stmt 0 view .LVU335
 1112 0002 F8B5     		push	{r3, r4, r5, r6, r7, lr}
 1113              		.cfi_def_cfa_offset 24
 1114              		.cfi_offset 3, -24
 1115              		.cfi_offset 4, -20
 1116              		.cfi_offset 5, -16
 1117              		.cfi_offset 6, -12
 1118              		.cfi_offset 7, -8
 1119              		.cfi_offset 14, -4
 1120 0004 0646     		mov	r6, r0
 1121              	.LBB142:
 1122              	.LBB140:
 1123              	.LBB137:
 171:Drivers/lvgl/src/misc/lv_anim_timeline.c ****         uint32_t end = lv_anim_get_playtime(&at->anim_dsc[i].anim);
 1124              		.loc 1 171 31 view .LVU336
 1125 0006 4068     		ldr	r0, [r0, #4]
 1126              	.LVL82:
 171:Drivers/lvgl/src/misc/lv_anim_timeline.c ****         uint32_t end = lv_anim_get_playtime(&at->anim_dsc[i].anim);
 1127              		.loc 1 171 27 view .LVU337
 1128 0008 C0B1     		cbz	r0, .L95
 1129              	.LBE137:
 170:Drivers/lvgl/src/misc/lv_anim_timeline.c ****     for(uint32_t i = 0; i < at->anim_dsc_cnt; i++) {
 1130              		.loc 1 170 14 view .LVU338
 1131 000a 0027     		movs	r7, #0
 1132              	.LBB138:
 1133              	.LBB133:
 172:Drivers/lvgl/src/misc/lv_anim_timeline.c ****         if(end == LV_ANIM_PLAYTIME_INFINITE)
 1134              		.loc 1 172 48 view .LVU339
 1135 000c 3268     		ldr	r2, [r6]
 1136              	.LBE133:
 171:Drivers/lvgl/src/misc/lv_anim_timeline.c ****         uint32_t end = lv_anim_get_playtime(&at->anim_dsc[i].anim);
 1137              		.loc 1 171 18 view .LVU340
 1138 000e 3D46     		mov	r5, r7
 1139 0010 09E0     		b	.L99
 1140              	.LVL83:
 1141              	.L110:
 171:Drivers/lvgl/src/misc/lv_anim_timeline.c ****         uint32_t end = lv_anim_get_playtime(&at->anim_dsc[i].anim);
 1142              		.loc 1 171 27 view .LVU341
 1143 0012 D6E90021 		ldrd	r2, r1, [r6]
 1144              	.LBB134:
 175:Drivers/lvgl/src/misc/lv_anim_timeline.c ****         if(end > playtime) {
 1145              		.loc 1 175 31 view .LVU342
 1146 0016 1319     		adds	r3, r2, r4
 175:Drivers/lvgl/src/misc/lv_anim_timeline.c ****         if(end > playtime) {
 1147              		.loc 1 175 13 view .LVU343
 1148 0018 5B6C     		ldr	r3, [r3, #68]
 1149 001a 0344     		add	r3, r3, r0
 1150 001c 9F42     		cmp	r7, r3
 1151 001e 38BF     		it	cc
 1152 0020 1F46     		movcc	r7, r3
ARM GAS  /var/folders/0z/tsy30v1j4xl4_7kw94k978ww0000gn/T//cccHpsZe.s 			page 33


 1153              	.LVL84:
 175:Drivers/lvgl/src/misc/lv_anim_timeline.c ****         if(end > playtime) {
 1154              		.loc 1 175 13 view .LVU344
 1155              	.LBE134:
 171:Drivers/lvgl/src/misc/lv_anim_timeline.c ****         uint32_t end = lv_anim_get_playtime(&at->anim_dsc[i].anim);
 1156              		.loc 1 171 48 is_stmt 1 view .LVU345
 171:Drivers/lvgl/src/misc/lv_anim_timeline.c ****         uint32_t end = lv_anim_get_playtime(&at->anim_dsc[i].anim);
 1157              		.loc 1 171 27 view .LVU346
 1158 0022 8D42     		cmp	r5, r1
 1159 0024 0CD2     		bcs	.L109
 1160              	.LVL85:
 1161              	.L99:
 1162              	.LBB135:
 172:Drivers/lvgl/src/misc/lv_anim_timeline.c ****         if(end == LV_ANIM_PLAYTIME_INFINITE)
 1163              		.loc 1 172 9 view .LVU347
 1164 0026 05EBC503 		add	r3, r5, r5, lsl #3
 172:Drivers/lvgl/src/misc/lv_anim_timeline.c ****         if(end == LV_ANIM_PLAYTIME_INFINITE)
 1165              		.loc 1 172 24 is_stmt 0 view .LVU348
 1166 002a 02EBC300 		add	r0, r2, r3, lsl #3
 1167 002e DC00     		lsls	r4, r3, #3
 1168 0030 FFF7FEFF 		bl	lv_anim_get_playtime
 1169              	.LVL86:
 175:Drivers/lvgl/src/misc/lv_anim_timeline.c ****         if(end > playtime) {
 1170              		.loc 1 175 9 is_stmt 1 view .LVU349
 173:Drivers/lvgl/src/misc/lv_anim_timeline.c ****             return end;
 1171              		.loc 1 173 9 view .LVU350
 173:Drivers/lvgl/src/misc/lv_anim_timeline.c ****             return end;
 1172              		.loc 1 173 11 is_stmt 0 view .LVU351
 1173 0034 431C     		adds	r3, r0, #1
 1174              	.LBE135:
 171:Drivers/lvgl/src/misc/lv_anim_timeline.c ****         uint32_t end = lv_anim_get_playtime(&at->anim_dsc[i].anim);
 1175              		.loc 1 171 48 view .LVU352
 1176 0036 05F10105 		add	r5, r5, #1
 1177              	.LVL87:
 1178              	.LBB136:
 173:Drivers/lvgl/src/misc/lv_anim_timeline.c ****             return end;
 1179              		.loc 1 173 11 view .LVU353
 1180 003a EAD1     		bne	.L110
 1181              	.LVL88:
 1182              	.L95:
 173:Drivers/lvgl/src/misc/lv_anim_timeline.c ****             return end;
 1183              		.loc 1 173 11 view .LVU354
 1184              	.LBE136:
 1185              	.LBE138:
 1186              	.LBE140:
 1187              	.LBE142:
 182:Drivers/lvgl/src/misc/lv_anim_timeline.c **** 
 1188              		.loc 1 182 1 view .LVU355
 1189 003c F8BD     		pop	{r3, r4, r5, r6, r7, pc}
 1190              	.LVL89:
 1191              	.L96:
 1192              		.cfi_def_cfa_offset 0
 1193              		.cfi_restore 3
 1194              		.cfi_restore 4
 1195              		.cfi_restore 5
 1196              		.cfi_restore 6
 1197              		.cfi_restore 7
ARM GAS  /var/folders/0z/tsy30v1j4xl4_7kw94k978ww0000gn/T//cccHpsZe.s 			page 34


 1198              		.cfi_restore 14
 168:Drivers/lvgl/src/misc/lv_anim_timeline.c **** 
 1199              		.loc 1 168 5 is_stmt 1 discriminator 1 view .LVU356
 168:Drivers/lvgl/src/misc/lv_anim_timeline.c **** 
 1200              		.loc 1 168 5 discriminator 1 view .LVU357
 168:Drivers/lvgl/src/misc/lv_anim_timeline.c **** 
 1201              		.loc 1 168 5 discriminator 1 view .LVU358
 168:Drivers/lvgl/src/misc/lv_anim_timeline.c **** 
 1202              		.loc 1 168 5 discriminator 1 view .LVU359
 168:Drivers/lvgl/src/misc/lv_anim_timeline.c **** 
 1203              		.loc 1 168 5 discriminator 1 view .LVU360
 168:Drivers/lvgl/src/misc/lv_anim_timeline.c **** 
 1204              		.loc 1 168 5 discriminator 1 view .LVU361
 168:Drivers/lvgl/src/misc/lv_anim_timeline.c **** 
 1205              		.loc 1 168 5 discriminator 1 view .LVU362
 168:Drivers/lvgl/src/misc/lv_anim_timeline.c **** 
 1206              		.loc 1 168 5 discriminator 1 view .LVU363
 168:Drivers/lvgl/src/misc/lv_anim_timeline.c **** 
 1207              		.loc 1 168 5 discriminator 1 view .LVU364
 168:Drivers/lvgl/src/misc/lv_anim_timeline.c **** 
 1208              		.loc 1 168 5 discriminator 1 view .LVU365
 1209 003e FEE7     		b	.L96
 1210              	.LVL90:
 1211              	.L109:
 1212              		.cfi_def_cfa_offset 24
 1213              		.cfi_offset 3, -24
 1214              		.cfi_offset 4, -20
 1215              		.cfi_offset 5, -16
 1216              		.cfi_offset 6, -12
 1217              		.cfi_offset 7, -8
 1218              		.cfi_offset 14, -4
 1219              	.LBB143:
 1220              	.LBB141:
 1221              	.LBB139:
 168:Drivers/lvgl/src/misc/lv_anim_timeline.c **** 
 1222              		.loc 1 168 5 is_stmt 0 discriminator 1 view .LVU366
 1223 0040 3846     		mov	r0, r7
 1224              	.LVL91:
 168:Drivers/lvgl/src/misc/lv_anim_timeline.c **** 
 1225              		.loc 1 168 5 discriminator 1 view .LVU367
 1226              	.LBE139:
 1227              	.LBE141:
 1228              	.LBE143:
 182:Drivers/lvgl/src/misc/lv_anim_timeline.c **** 
 1229              		.loc 1 182 1 view .LVU368
 1230 0042 F8BD     		pop	{r3, r4, r5, r6, r7, pc}
 182:Drivers/lvgl/src/misc/lv_anim_timeline.c **** 
 1231              		.loc 1 182 1 view .LVU369
 1232              		.cfi_endproc
 1233              	.LFE29:
 1235              		.section	.text.lv_anim_timeline_get_reverse,"ax",%progbits
 1236              		.align	1
 1237              		.p2align 2,,3
 1238              		.global	lv_anim_timeline_get_reverse
 1239              		.syntax unified
 1240              		.thumb
 1241              		.thumb_func
ARM GAS  /var/folders/0z/tsy30v1j4xl4_7kw94k978ww0000gn/T//cccHpsZe.s 			page 35


 1243              	lv_anim_timeline_get_reverse:
 1244              	.LVL92:
 1245              	.LFB30:
 185:Drivers/lvgl/src/misc/lv_anim_timeline.c ****     LV_ASSERT_NULL(at);
 1246              		.loc 1 185 1 is_stmt 1 view -0
 1247              		.cfi_startproc
 1248              		@ args = 0, pretend = 0, frame = 0
 1249              		@ frame_needed = 0, uses_anonymous_args = 0
 1250              		@ link register save eliminated.
 186:Drivers/lvgl/src/misc/lv_anim_timeline.c ****     return at->reverse;
 1251              		.loc 1 186 5 view .LVU371
 186:Drivers/lvgl/src/misc/lv_anim_timeline.c ****     return at->reverse;
 1252              		.loc 1 186 5 view .LVU372
 1253 0000 08B1     		cbz	r0, .L113
 186:Drivers/lvgl/src/misc/lv_anim_timeline.c ****     return at->reverse;
 1254              		.loc 1 186 5 discriminator 2 view .LVU373
 186:Drivers/lvgl/src/misc/lv_anim_timeline.c ****     return at->reverse;
 1255              		.loc 1 186 23 discriminator 2 view .LVU374
 187:Drivers/lvgl/src/misc/lv_anim_timeline.c **** }
 1256              		.loc 1 187 5 discriminator 2 view .LVU375
 188:Drivers/lvgl/src/misc/lv_anim_timeline.c **** 
 1257              		.loc 1 188 1 is_stmt 0 discriminator 2 view .LVU376
 1258 0002 007A     		ldrb	r0, [r0, #8]	@ zero_extendqisi2
 1259              	.LVL93:
 188:Drivers/lvgl/src/misc/lv_anim_timeline.c **** 
 1260              		.loc 1 188 1 discriminator 2 view .LVU377
 1261 0004 7047     		bx	lr
 1262              	.LVL94:
 1263              	.L113:
 186:Drivers/lvgl/src/misc/lv_anim_timeline.c ****     return at->reverse;
 1264              		.loc 1 186 5 is_stmt 1 discriminator 1 view .LVU378
 186:Drivers/lvgl/src/misc/lv_anim_timeline.c ****     return at->reverse;
 1265              		.loc 1 186 5 discriminator 1 view .LVU379
 186:Drivers/lvgl/src/misc/lv_anim_timeline.c ****     return at->reverse;
 1266              		.loc 1 186 5 discriminator 1 view .LVU380
 186:Drivers/lvgl/src/misc/lv_anim_timeline.c ****     return at->reverse;
 1267              		.loc 1 186 5 discriminator 1 view .LVU381
 186:Drivers/lvgl/src/misc/lv_anim_timeline.c ****     return at->reverse;
 1268              		.loc 1 186 5 discriminator 1 view .LVU382
 186:Drivers/lvgl/src/misc/lv_anim_timeline.c ****     return at->reverse;
 1269              		.loc 1 186 5 discriminator 1 view .LVU383
 186:Drivers/lvgl/src/misc/lv_anim_timeline.c ****     return at->reverse;
 1270              		.loc 1 186 5 discriminator 1 view .LVU384
 186:Drivers/lvgl/src/misc/lv_anim_timeline.c ****     return at->reverse;
 1271              		.loc 1 186 5 discriminator 1 view .LVU385
 186:Drivers/lvgl/src/misc/lv_anim_timeline.c ****     return at->reverse;
 1272              		.loc 1 186 5 discriminator 1 view .LVU386
 186:Drivers/lvgl/src/misc/lv_anim_timeline.c ****     return at->reverse;
 1273              		.loc 1 186 5 discriminator 1 view .LVU387
 1274 0006 FEE7     		b	.L113
 1275              		.cfi_endproc
 1276              	.LFE30:
 1278              		.text
 1279              	.Letext0:
 1280              		.file 3 "/Users/johannes/Library/Application Support/Code/User/globalStorage/bmd.stm32-for-vscode/
 1281              		.file 4 "/Users/johannes/Library/Application Support/Code/User/globalStorage/bmd.stm32-for-vscode/
 1282              		.file 5 "/Users/johannes/Library/Application Support/Code/User/globalStorage/bmd.stm32-for-vscode/
ARM GAS  /var/folders/0z/tsy30v1j4xl4_7kw94k978ww0000gn/T//cccHpsZe.s 			page 36


 1283              		.file 6 "Drivers/lvgl/src/misc/lv_anim_timeline.h"
 1284              		.file 7 "Drivers/lvgl/src/misc/lv_mem.h"
 1285              		.file 8 "<built-in>"
ARM GAS  /var/folders/0z/tsy30v1j4xl4_7kw94k978ww0000gn/T//cccHpsZe.s 			page 37


DEFINED SYMBOLS
                            *ABS*:0000000000000000 lv_anim_timeline.c
/var/folders/0z/tsy30v1j4xl4_7kw94k978ww0000gn/T//cccHpsZe.s:20     .text.lv_anim_timeline_virtual_exec_cb:0000000000000000 $t
/var/folders/0z/tsy30v1j4xl4_7kw94k978ww0000gn/T//cccHpsZe.s:26     .text.lv_anim_timeline_virtual_exec_cb:0000000000000000 lv_anim_timeline_virtual_exec_cb
/var/folders/0z/tsy30v1j4xl4_7kw94k978ww0000gn/T//cccHpsZe.s:43     .text.lv_anim_timeline_create:0000000000000000 $t
/var/folders/0z/tsy30v1j4xl4_7kw94k978ww0000gn/T//cccHpsZe.s:50     .text.lv_anim_timeline_create:0000000000000000 lv_anim_timeline_create
/var/folders/0z/tsy30v1j4xl4_7kw94k978ww0000gn/T//cccHpsZe.s:98     .text.lv_anim_timeline_del:0000000000000000 $t
/var/folders/0z/tsy30v1j4xl4_7kw94k978ww0000gn/T//cccHpsZe.s:105    .text.lv_anim_timeline_del:0000000000000000 lv_anim_timeline_del
/var/folders/0z/tsy30v1j4xl4_7kw94k978ww0000gn/T//cccHpsZe.s:204    .text.lv_anim_timeline_add:0000000000000000 $t
/var/folders/0z/tsy30v1j4xl4_7kw94k978ww0000gn/T//cccHpsZe.s:211    .text.lv_anim_timeline_add:0000000000000000 lv_anim_timeline_add
/var/folders/0z/tsy30v1j4xl4_7kw94k978ww0000gn/T//cccHpsZe.s:344    .text.lv_anim_timeline_add:0000000000000058 $d
/var/folders/0z/tsy30v1j4xl4_7kw94k978ww0000gn/T//cccHpsZe.s:349    .text.lv_anim_timeline_start:0000000000000000 $t
/var/folders/0z/tsy30v1j4xl4_7kw94k978ww0000gn/T//cccHpsZe.s:356    .text.lv_anim_timeline_start:0000000000000000 lv_anim_timeline_start
/var/folders/0z/tsy30v1j4xl4_7kw94k978ww0000gn/T//cccHpsZe.s:680    .text.lv_anim_timeline_stop:0000000000000000 $t
/var/folders/0z/tsy30v1j4xl4_7kw94k978ww0000gn/T//cccHpsZe.s:687    .text.lv_anim_timeline_stop:0000000000000000 lv_anim_timeline_stop
/var/folders/0z/tsy30v1j4xl4_7kw94k978ww0000gn/T//cccHpsZe.s:773    .text.lv_anim_timeline_set_reverse:0000000000000000 $t
/var/folders/0z/tsy30v1j4xl4_7kw94k978ww0000gn/T//cccHpsZe.s:780    .text.lv_anim_timeline_set_reverse:0000000000000000 lv_anim_timeline_set_reverse
/var/folders/0z/tsy30v1j4xl4_7kw94k978ww0000gn/T//cccHpsZe.s:814    .text.lv_anim_timeline_set_progress:0000000000000000 $t
/var/folders/0z/tsy30v1j4xl4_7kw94k978ww0000gn/T//cccHpsZe.s:821    .text.lv_anim_timeline_set_progress:0000000000000000 lv_anim_timeline_set_progress
/var/folders/0z/tsy30v1j4xl4_7kw94k978ww0000gn/T//cccHpsZe.s:1079   .text.lv_anim_timeline_set_progress:00000000000000ac $d
/var/folders/0z/tsy30v1j4xl4_7kw94k978ww0000gn/T//cccHpsZe.s:1086   .text.lv_anim_timeline_get_playtime:0000000000000000 $t
/var/folders/0z/tsy30v1j4xl4_7kw94k978ww0000gn/T//cccHpsZe.s:1093   .text.lv_anim_timeline_get_playtime:0000000000000000 lv_anim_timeline_get_playtime
/var/folders/0z/tsy30v1j4xl4_7kw94k978ww0000gn/T//cccHpsZe.s:1236   .text.lv_anim_timeline_get_reverse:0000000000000000 $t
/var/folders/0z/tsy30v1j4xl4_7kw94k978ww0000gn/T//cccHpsZe.s:1243   .text.lv_anim_timeline_get_reverse:0000000000000000 lv_anim_timeline_get_reverse

UNDEFINED SYMBOLS
lv_mem_alloc
lv_memset_00
lv_anim_del
lv_mem_free
lv_mem_realloc
memcpy
lv_anim_get_playtime
lv_anim_start
