ARM GAS  /var/folders/0z/tsy30v1j4xl4_7kw94k978ww0000gn/T//ccyrzG1p.s 			page 1


   1              		.cpu cortex-m4
   2              		.arch armv7e-m
   3              		.fpu fpv4-sp-d16
   4              		.eabi_attribute 27, 1
   5              		.eabi_attribute 28, 1
   6              		.eabi_attribute 23, 1
   7              		.eabi_attribute 24, 1
   8              		.eabi_attribute 25, 1
   9              		.eabi_attribute 26, 1
  10              		.eabi_attribute 30, 2
  11              		.eabi_attribute 34, 1
  12              		.eabi_attribute 18, 4
  13              		.file	"lv_btnmatrix.c"
  14              		.text
  15              	.Ltext0:
  16              		.cfi_sections	.debug_frame
  17              		.section	.text.get_button_from_point,"ax",%progbits
  18              		.align	1
  19              		.p2align 2,,3
  20              		.syntax unified
  21              		.thumb
  22              		.thumb_func
  24              	get_button_from_point:
  25              	.LVL0:
  26              	.LFB191:
  27              		.file 1 "Drivers/lvgl/src/widgets/lv_btnmatrix.c"
   1:Drivers/lvgl/src/widgets/lv_btnmatrix.c **** /**
   2:Drivers/lvgl/src/widgets/lv_btnmatrix.c ****  * @file lv_btnmatrix.c
   3:Drivers/lvgl/src/widgets/lv_btnmatrix.c ****  *
   4:Drivers/lvgl/src/widgets/lv_btnmatrix.c ****  */
   5:Drivers/lvgl/src/widgets/lv_btnmatrix.c **** 
   6:Drivers/lvgl/src/widgets/lv_btnmatrix.c **** /*********************
   7:Drivers/lvgl/src/widgets/lv_btnmatrix.c ****  *      INCLUDES
   8:Drivers/lvgl/src/widgets/lv_btnmatrix.c ****  *********************/
   9:Drivers/lvgl/src/widgets/lv_btnmatrix.c **** #include "lv_btnmatrix.h"
  10:Drivers/lvgl/src/widgets/lv_btnmatrix.c **** #if LV_USE_BTNMATRIX != 0
  11:Drivers/lvgl/src/widgets/lv_btnmatrix.c **** 
  12:Drivers/lvgl/src/widgets/lv_btnmatrix.c **** #include "../misc/lv_assert.h"
  13:Drivers/lvgl/src/widgets/lv_btnmatrix.c **** #include "../core/lv_indev.h"
  14:Drivers/lvgl/src/widgets/lv_btnmatrix.c **** #include "../core/lv_group.h"
  15:Drivers/lvgl/src/widgets/lv_btnmatrix.c **** #include "../draw/lv_draw.h"
  16:Drivers/lvgl/src/widgets/lv_btnmatrix.c **** #include "../core/lv_refr.h"
  17:Drivers/lvgl/src/widgets/lv_btnmatrix.c **** #include "../misc/lv_txt.h"
  18:Drivers/lvgl/src/widgets/lv_btnmatrix.c **** #include "../misc/lv_txt_ap.h"
  19:Drivers/lvgl/src/widgets/lv_btnmatrix.c **** 
  20:Drivers/lvgl/src/widgets/lv_btnmatrix.c **** /*********************
  21:Drivers/lvgl/src/widgets/lv_btnmatrix.c ****  *      DEFINES
  22:Drivers/lvgl/src/widgets/lv_btnmatrix.c ****  *********************/
  23:Drivers/lvgl/src/widgets/lv_btnmatrix.c **** #define MY_CLASS &lv_btnmatrix_class
  24:Drivers/lvgl/src/widgets/lv_btnmatrix.c **** 
  25:Drivers/lvgl/src/widgets/lv_btnmatrix.c **** #define BTN_EXTRA_CLICK_AREA_MAX (LV_DPI_DEF / 10)
  26:Drivers/lvgl/src/widgets/lv_btnmatrix.c **** #define LV_BTNMATRIX_WIDTH_MASK 0x000F
  27:Drivers/lvgl/src/widgets/lv_btnmatrix.c **** 
  28:Drivers/lvgl/src/widgets/lv_btnmatrix.c **** /**********************
  29:Drivers/lvgl/src/widgets/lv_btnmatrix.c ****  *      TYPEDEFS
  30:Drivers/lvgl/src/widgets/lv_btnmatrix.c ****  **********************/
  31:Drivers/lvgl/src/widgets/lv_btnmatrix.c **** 
ARM GAS  /var/folders/0z/tsy30v1j4xl4_7kw94k978ww0000gn/T//ccyrzG1p.s 			page 2


  32:Drivers/lvgl/src/widgets/lv_btnmatrix.c **** /**********************
  33:Drivers/lvgl/src/widgets/lv_btnmatrix.c ****  *  STATIC PROTOTYPES
  34:Drivers/lvgl/src/widgets/lv_btnmatrix.c ****  **********************/
  35:Drivers/lvgl/src/widgets/lv_btnmatrix.c **** static void lv_btnmatrix_constructor(const lv_obj_class_t * class_p, lv_obj_t * obj);
  36:Drivers/lvgl/src/widgets/lv_btnmatrix.c **** static void lv_btnmatrix_destructor(const lv_obj_class_t * class_p, lv_obj_t * obj);
  37:Drivers/lvgl/src/widgets/lv_btnmatrix.c **** static void lv_btnmatrix_event(const lv_obj_class_t * class_p, lv_event_t * e);
  38:Drivers/lvgl/src/widgets/lv_btnmatrix.c **** static void draw_main(lv_event_t * e);
  39:Drivers/lvgl/src/widgets/lv_btnmatrix.c **** 
  40:Drivers/lvgl/src/widgets/lv_btnmatrix.c **** static uint8_t get_button_width(lv_btnmatrix_ctrl_t ctrl_bits);
  41:Drivers/lvgl/src/widgets/lv_btnmatrix.c **** static bool button_is_hidden(lv_btnmatrix_ctrl_t ctrl_bits);
  42:Drivers/lvgl/src/widgets/lv_btnmatrix.c **** static bool button_is_checked(lv_btnmatrix_ctrl_t ctrl_bits);
  43:Drivers/lvgl/src/widgets/lv_btnmatrix.c **** static bool button_is_repeat_disabled(lv_btnmatrix_ctrl_t ctrl_bits);
  44:Drivers/lvgl/src/widgets/lv_btnmatrix.c **** static bool button_is_inactive(lv_btnmatrix_ctrl_t ctrl_bits);
  45:Drivers/lvgl/src/widgets/lv_btnmatrix.c **** static bool button_is_click_trig(lv_btnmatrix_ctrl_t ctrl_bits);
  46:Drivers/lvgl/src/widgets/lv_btnmatrix.c **** static bool button_is_popover(lv_btnmatrix_ctrl_t ctrl_bits);
  47:Drivers/lvgl/src/widgets/lv_btnmatrix.c **** static bool button_is_checkable(lv_btnmatrix_ctrl_t ctrl_bits);
  48:Drivers/lvgl/src/widgets/lv_btnmatrix.c **** static bool button_is_recolor(lv_btnmatrix_ctrl_t ctrl_bits);
  49:Drivers/lvgl/src/widgets/lv_btnmatrix.c **** static bool button_get_checked(lv_btnmatrix_ctrl_t ctrl_bits);
  50:Drivers/lvgl/src/widgets/lv_btnmatrix.c **** static uint16_t get_button_from_point(lv_obj_t * obj, lv_point_t * p);
  51:Drivers/lvgl/src/widgets/lv_btnmatrix.c **** static void allocate_btn_areas_and_controls(const lv_obj_t * obj, const char ** map);
  52:Drivers/lvgl/src/widgets/lv_btnmatrix.c **** static void invalidate_button_area(const lv_obj_t * obj, uint16_t btn_idx);
  53:Drivers/lvgl/src/widgets/lv_btnmatrix.c **** static void make_one_button_checked(lv_obj_t * obj, uint16_t btn_idx);
  54:Drivers/lvgl/src/widgets/lv_btnmatrix.c **** static bool has_popovers_in_top_row(lv_obj_t * obj);
  55:Drivers/lvgl/src/widgets/lv_btnmatrix.c **** 
  56:Drivers/lvgl/src/widgets/lv_btnmatrix.c **** /**********************
  57:Drivers/lvgl/src/widgets/lv_btnmatrix.c ****  *  STATIC VARIABLES
  58:Drivers/lvgl/src/widgets/lv_btnmatrix.c ****  **********************/
  59:Drivers/lvgl/src/widgets/lv_btnmatrix.c **** static const char * lv_btnmatrix_def_map[] = {"Btn1", "Btn2", "Btn3", "\n", "Btn4", "Btn5", ""};
  60:Drivers/lvgl/src/widgets/lv_btnmatrix.c **** 
  61:Drivers/lvgl/src/widgets/lv_btnmatrix.c **** const lv_obj_class_t lv_btnmatrix_class = {
  62:Drivers/lvgl/src/widgets/lv_btnmatrix.c ****     .constructor_cb = lv_btnmatrix_constructor,
  63:Drivers/lvgl/src/widgets/lv_btnmatrix.c ****     .destructor_cb = lv_btnmatrix_destructor,
  64:Drivers/lvgl/src/widgets/lv_btnmatrix.c ****     .event_cb = lv_btnmatrix_event,
  65:Drivers/lvgl/src/widgets/lv_btnmatrix.c ****     .width_def = LV_DPI_DEF * 2,
  66:Drivers/lvgl/src/widgets/lv_btnmatrix.c ****     .height_def = LV_DPI_DEF,
  67:Drivers/lvgl/src/widgets/lv_btnmatrix.c ****     .instance_size = sizeof(lv_btnmatrix_t),
  68:Drivers/lvgl/src/widgets/lv_btnmatrix.c ****     .editable = LV_OBJ_CLASS_EDITABLE_TRUE,
  69:Drivers/lvgl/src/widgets/lv_btnmatrix.c ****     .group_def = LV_OBJ_CLASS_GROUP_DEF_TRUE,
  70:Drivers/lvgl/src/widgets/lv_btnmatrix.c ****     .base_class = &lv_obj_class
  71:Drivers/lvgl/src/widgets/lv_btnmatrix.c **** };
  72:Drivers/lvgl/src/widgets/lv_btnmatrix.c **** 
  73:Drivers/lvgl/src/widgets/lv_btnmatrix.c **** /**********************
  74:Drivers/lvgl/src/widgets/lv_btnmatrix.c ****  *      MACROS
  75:Drivers/lvgl/src/widgets/lv_btnmatrix.c ****  **********************/
  76:Drivers/lvgl/src/widgets/lv_btnmatrix.c **** 
  77:Drivers/lvgl/src/widgets/lv_btnmatrix.c **** /**********************
  78:Drivers/lvgl/src/widgets/lv_btnmatrix.c ****  *   GLOBAL FUNCTIONS
  79:Drivers/lvgl/src/widgets/lv_btnmatrix.c ****  **********************/
  80:Drivers/lvgl/src/widgets/lv_btnmatrix.c **** 
  81:Drivers/lvgl/src/widgets/lv_btnmatrix.c **** lv_obj_t * lv_btnmatrix_create(lv_obj_t * parent)
  82:Drivers/lvgl/src/widgets/lv_btnmatrix.c **** {
  83:Drivers/lvgl/src/widgets/lv_btnmatrix.c ****     LV_LOG_INFO("begin");
  84:Drivers/lvgl/src/widgets/lv_btnmatrix.c ****     lv_obj_t * obj = lv_obj_class_create_obj(MY_CLASS, parent);
  85:Drivers/lvgl/src/widgets/lv_btnmatrix.c ****     lv_obj_class_init_obj(obj);
  86:Drivers/lvgl/src/widgets/lv_btnmatrix.c ****     return obj;
  87:Drivers/lvgl/src/widgets/lv_btnmatrix.c **** }
  88:Drivers/lvgl/src/widgets/lv_btnmatrix.c **** 
ARM GAS  /var/folders/0z/tsy30v1j4xl4_7kw94k978ww0000gn/T//ccyrzG1p.s 			page 3


  89:Drivers/lvgl/src/widgets/lv_btnmatrix.c **** /*=====================
  90:Drivers/lvgl/src/widgets/lv_btnmatrix.c ****  * Setter functions
  91:Drivers/lvgl/src/widgets/lv_btnmatrix.c ****  *====================*/
  92:Drivers/lvgl/src/widgets/lv_btnmatrix.c **** 
  93:Drivers/lvgl/src/widgets/lv_btnmatrix.c **** void lv_btnmatrix_set_map(lv_obj_t * obj, const char * map[])
  94:Drivers/lvgl/src/widgets/lv_btnmatrix.c **** {
  95:Drivers/lvgl/src/widgets/lv_btnmatrix.c ****     LV_ASSERT_OBJ(obj, MY_CLASS);
  96:Drivers/lvgl/src/widgets/lv_btnmatrix.c ****     if(map == NULL) return;
  97:Drivers/lvgl/src/widgets/lv_btnmatrix.c **** 
  98:Drivers/lvgl/src/widgets/lv_btnmatrix.c ****     lv_btnmatrix_t * btnm = (lv_btnmatrix_t *)obj;
  99:Drivers/lvgl/src/widgets/lv_btnmatrix.c **** 
 100:Drivers/lvgl/src/widgets/lv_btnmatrix.c ****     /*Analyze the map and create the required number of buttons*/
 101:Drivers/lvgl/src/widgets/lv_btnmatrix.c ****     allocate_btn_areas_and_controls(obj, map);
 102:Drivers/lvgl/src/widgets/lv_btnmatrix.c ****     btnm->map_p = map;
 103:Drivers/lvgl/src/widgets/lv_btnmatrix.c **** 
 104:Drivers/lvgl/src/widgets/lv_btnmatrix.c ****     lv_base_dir_t base_dir = lv_obj_get_style_base_dir(obj, LV_PART_MAIN);
 105:Drivers/lvgl/src/widgets/lv_btnmatrix.c **** 
 106:Drivers/lvgl/src/widgets/lv_btnmatrix.c ****     /*Set size and positions of the buttons*/
 107:Drivers/lvgl/src/widgets/lv_btnmatrix.c ****     lv_coord_t pleft = lv_obj_get_style_pad_left(obj, LV_PART_MAIN);
 108:Drivers/lvgl/src/widgets/lv_btnmatrix.c ****     lv_coord_t ptop = lv_obj_get_style_pad_top(obj, LV_PART_MAIN);
 109:Drivers/lvgl/src/widgets/lv_btnmatrix.c ****     lv_coord_t prow = lv_obj_get_style_pad_row(obj, LV_PART_MAIN);
 110:Drivers/lvgl/src/widgets/lv_btnmatrix.c ****     lv_coord_t pcol = lv_obj_get_style_pad_column(obj, LV_PART_MAIN);
 111:Drivers/lvgl/src/widgets/lv_btnmatrix.c **** 
 112:Drivers/lvgl/src/widgets/lv_btnmatrix.c ****     lv_coord_t max_w            = lv_obj_get_content_width(obj);
 113:Drivers/lvgl/src/widgets/lv_btnmatrix.c ****     lv_coord_t max_h            = lv_obj_get_content_height(obj);
 114:Drivers/lvgl/src/widgets/lv_btnmatrix.c **** 
 115:Drivers/lvgl/src/widgets/lv_btnmatrix.c ****     /*Calculate the position of each row*/
 116:Drivers/lvgl/src/widgets/lv_btnmatrix.c ****     lv_coord_t max_h_no_gap = max_h - (prow * (btnm->row_cnt - 1));
 117:Drivers/lvgl/src/widgets/lv_btnmatrix.c **** 
 118:Drivers/lvgl/src/widgets/lv_btnmatrix.c ****     /*Count the units and the buttons in a line
 119:Drivers/lvgl/src/widgets/lv_btnmatrix.c ****      *(A button can be 1,2,3... unit wide)*/
 120:Drivers/lvgl/src/widgets/lv_btnmatrix.c ****     uint32_t txt_tot_i = 0; /*Act. index in the str map*/
 121:Drivers/lvgl/src/widgets/lv_btnmatrix.c ****     uint32_t btn_tot_i = 0; /*Act. index of button areas*/
 122:Drivers/lvgl/src/widgets/lv_btnmatrix.c ****     const char ** map_row = map;
 123:Drivers/lvgl/src/widgets/lv_btnmatrix.c **** 
 124:Drivers/lvgl/src/widgets/lv_btnmatrix.c ****     /*Count the units and the buttons in a line*/
 125:Drivers/lvgl/src/widgets/lv_btnmatrix.c ****     uint32_t row;
 126:Drivers/lvgl/src/widgets/lv_btnmatrix.c ****     for(row = 0; row < btnm->row_cnt; row++) {
 127:Drivers/lvgl/src/widgets/lv_btnmatrix.c ****         uint16_t unit_cnt = 0;           /*Number of units in a row*/
 128:Drivers/lvgl/src/widgets/lv_btnmatrix.c ****         uint16_t btn_cnt = 0;            /*Number of buttons in a row*/
 129:Drivers/lvgl/src/widgets/lv_btnmatrix.c ****         /*Count the buttons and units in this row*/
 130:Drivers/lvgl/src/widgets/lv_btnmatrix.c ****         while(map_row[btn_cnt] && strcmp(map_row[btn_cnt], "\n") != 0 && map_row[btn_cnt][0] != '\0
 131:Drivers/lvgl/src/widgets/lv_btnmatrix.c ****             unit_cnt += get_button_width(btnm->ctrl_bits[btn_tot_i + btn_cnt]);
 132:Drivers/lvgl/src/widgets/lv_btnmatrix.c ****             btn_cnt++;
 133:Drivers/lvgl/src/widgets/lv_btnmatrix.c ****         }
 134:Drivers/lvgl/src/widgets/lv_btnmatrix.c **** 
 135:Drivers/lvgl/src/widgets/lv_btnmatrix.c ****         /*Only deal with the non empty lines*/
 136:Drivers/lvgl/src/widgets/lv_btnmatrix.c ****         if(btn_cnt == 0) {
 137:Drivers/lvgl/src/widgets/lv_btnmatrix.c ****             map_row = &map_row[btn_cnt + 1];       /*Set the map to the next row*/
 138:Drivers/lvgl/src/widgets/lv_btnmatrix.c ****             continue;
 139:Drivers/lvgl/src/widgets/lv_btnmatrix.c ****         }
 140:Drivers/lvgl/src/widgets/lv_btnmatrix.c **** 
 141:Drivers/lvgl/src/widgets/lv_btnmatrix.c ****         lv_coord_t row_y1 = ptop + (max_h_no_gap * row) / btnm->row_cnt + row * prow;
 142:Drivers/lvgl/src/widgets/lv_btnmatrix.c ****         lv_coord_t row_y2 = ptop + (max_h_no_gap * (row + 1)) / btnm->row_cnt + row * prow - 1;
 143:Drivers/lvgl/src/widgets/lv_btnmatrix.c **** 
 144:Drivers/lvgl/src/widgets/lv_btnmatrix.c ****         /*Set the button size and positions*/
 145:Drivers/lvgl/src/widgets/lv_btnmatrix.c ****         lv_coord_t max_w_no_gap = max_w - (pcol * (btn_cnt - 1));
ARM GAS  /var/folders/0z/tsy30v1j4xl4_7kw94k978ww0000gn/T//ccyrzG1p.s 			page 4


 146:Drivers/lvgl/src/widgets/lv_btnmatrix.c ****         if(max_w_no_gap < 0) max_w_no_gap = 0;
 147:Drivers/lvgl/src/widgets/lv_btnmatrix.c **** 
 148:Drivers/lvgl/src/widgets/lv_btnmatrix.c ****         uint32_t row_unit_cnt = 0;  /*The current unit position in the row*/
 149:Drivers/lvgl/src/widgets/lv_btnmatrix.c ****         uint32_t btn;
 150:Drivers/lvgl/src/widgets/lv_btnmatrix.c ****         for(btn = 0; btn < btn_cnt; btn++, btn_tot_i++, txt_tot_i++) {
 151:Drivers/lvgl/src/widgets/lv_btnmatrix.c ****             uint32_t btn_u = get_button_width(btnm->ctrl_bits[btn_tot_i]);
 152:Drivers/lvgl/src/widgets/lv_btnmatrix.c **** 
 153:Drivers/lvgl/src/widgets/lv_btnmatrix.c ****             lv_coord_t btn_x1 = (max_w_no_gap * row_unit_cnt) / unit_cnt + btn * pcol;
 154:Drivers/lvgl/src/widgets/lv_btnmatrix.c ****             lv_coord_t btn_x2 = (max_w_no_gap * (row_unit_cnt + btn_u)) / unit_cnt + btn * pcol - 1
 155:Drivers/lvgl/src/widgets/lv_btnmatrix.c **** 
 156:Drivers/lvgl/src/widgets/lv_btnmatrix.c ****             /*If RTL start from the right*/
 157:Drivers/lvgl/src/widgets/lv_btnmatrix.c ****             if(base_dir == LV_BASE_DIR_RTL) {
 158:Drivers/lvgl/src/widgets/lv_btnmatrix.c ****                 lv_coord_t tmp = btn_x1;
 159:Drivers/lvgl/src/widgets/lv_btnmatrix.c ****                 btn_x1 = btn_x2;
 160:Drivers/lvgl/src/widgets/lv_btnmatrix.c ****                 btn_x2 = tmp;
 161:Drivers/lvgl/src/widgets/lv_btnmatrix.c **** 
 162:Drivers/lvgl/src/widgets/lv_btnmatrix.c ****                 btn_x1 = max_w - btn_x1;
 163:Drivers/lvgl/src/widgets/lv_btnmatrix.c ****                 btn_x2 = max_w - btn_x2;
 164:Drivers/lvgl/src/widgets/lv_btnmatrix.c ****             }
 165:Drivers/lvgl/src/widgets/lv_btnmatrix.c **** 
 166:Drivers/lvgl/src/widgets/lv_btnmatrix.c ****             btn_x1 += pleft;
 167:Drivers/lvgl/src/widgets/lv_btnmatrix.c ****             btn_x2 += pleft;
 168:Drivers/lvgl/src/widgets/lv_btnmatrix.c **** 
 169:Drivers/lvgl/src/widgets/lv_btnmatrix.c ****             lv_area_set(&btnm->button_areas[btn_tot_i], btn_x1, row_y1, btn_x2, row_y2);
 170:Drivers/lvgl/src/widgets/lv_btnmatrix.c **** 
 171:Drivers/lvgl/src/widgets/lv_btnmatrix.c ****             row_unit_cnt += btn_u;
 172:Drivers/lvgl/src/widgets/lv_btnmatrix.c ****         }
 173:Drivers/lvgl/src/widgets/lv_btnmatrix.c **** 
 174:Drivers/lvgl/src/widgets/lv_btnmatrix.c ****         map_row = &map_row[btn_cnt + 1];       /*Set the map to the next line*/
 175:Drivers/lvgl/src/widgets/lv_btnmatrix.c ****     }
 176:Drivers/lvgl/src/widgets/lv_btnmatrix.c **** 
 177:Drivers/lvgl/src/widgets/lv_btnmatrix.c ****     /*Popovers in the top row will draw outside the widget and the extended draw size depends on
 178:Drivers/lvgl/src/widgets/lv_btnmatrix.c ****      *the row height which may have changed when setting the new map*/
 179:Drivers/lvgl/src/widgets/lv_btnmatrix.c ****     lv_obj_refresh_ext_draw_size(obj);
 180:Drivers/lvgl/src/widgets/lv_btnmatrix.c **** 
 181:Drivers/lvgl/src/widgets/lv_btnmatrix.c ****     lv_obj_invalidate(obj);
 182:Drivers/lvgl/src/widgets/lv_btnmatrix.c **** }
 183:Drivers/lvgl/src/widgets/lv_btnmatrix.c **** 
 184:Drivers/lvgl/src/widgets/lv_btnmatrix.c **** void lv_btnmatrix_set_ctrl_map(lv_obj_t * obj, const lv_btnmatrix_ctrl_t ctrl_map[])
 185:Drivers/lvgl/src/widgets/lv_btnmatrix.c **** {
 186:Drivers/lvgl/src/widgets/lv_btnmatrix.c ****     LV_ASSERT_OBJ(obj, MY_CLASS);
 187:Drivers/lvgl/src/widgets/lv_btnmatrix.c **** 
 188:Drivers/lvgl/src/widgets/lv_btnmatrix.c ****     lv_btnmatrix_t * btnm = (lv_btnmatrix_t *)obj;
 189:Drivers/lvgl/src/widgets/lv_btnmatrix.c ****     lv_memcpy(btnm->ctrl_bits, ctrl_map, sizeof(lv_btnmatrix_ctrl_t) * btnm->btn_cnt);
 190:Drivers/lvgl/src/widgets/lv_btnmatrix.c **** 
 191:Drivers/lvgl/src/widgets/lv_btnmatrix.c ****     lv_btnmatrix_set_map(obj, btnm->map_p);
 192:Drivers/lvgl/src/widgets/lv_btnmatrix.c **** }
 193:Drivers/lvgl/src/widgets/lv_btnmatrix.c **** 
 194:Drivers/lvgl/src/widgets/lv_btnmatrix.c **** void lv_btnmatrix_set_selected_btn(lv_obj_t * obj, uint16_t btn_id)
 195:Drivers/lvgl/src/widgets/lv_btnmatrix.c **** {
 196:Drivers/lvgl/src/widgets/lv_btnmatrix.c ****     LV_ASSERT_OBJ(obj, MY_CLASS);
 197:Drivers/lvgl/src/widgets/lv_btnmatrix.c **** 
 198:Drivers/lvgl/src/widgets/lv_btnmatrix.c ****     lv_btnmatrix_t * btnm = (lv_btnmatrix_t *)obj;
 199:Drivers/lvgl/src/widgets/lv_btnmatrix.c **** 
 200:Drivers/lvgl/src/widgets/lv_btnmatrix.c ****     if(btn_id >= btnm->btn_cnt && btn_id != LV_BTNMATRIX_BTN_NONE) return;
 201:Drivers/lvgl/src/widgets/lv_btnmatrix.c **** 
 202:Drivers/lvgl/src/widgets/lv_btnmatrix.c ****     invalidate_button_area(obj, btnm->btn_id_sel);
ARM GAS  /var/folders/0z/tsy30v1j4xl4_7kw94k978ww0000gn/T//ccyrzG1p.s 			page 5


 203:Drivers/lvgl/src/widgets/lv_btnmatrix.c ****     btnm->btn_id_sel = btn_id;
 204:Drivers/lvgl/src/widgets/lv_btnmatrix.c ****     invalidate_button_area(obj, btn_id);
 205:Drivers/lvgl/src/widgets/lv_btnmatrix.c **** }
 206:Drivers/lvgl/src/widgets/lv_btnmatrix.c **** 
 207:Drivers/lvgl/src/widgets/lv_btnmatrix.c **** void lv_btnmatrix_set_btn_ctrl(lv_obj_t * obj, uint16_t btn_id, lv_btnmatrix_ctrl_t ctrl)
 208:Drivers/lvgl/src/widgets/lv_btnmatrix.c **** {
 209:Drivers/lvgl/src/widgets/lv_btnmatrix.c ****     LV_ASSERT_OBJ(obj, MY_CLASS);
 210:Drivers/lvgl/src/widgets/lv_btnmatrix.c **** 
 211:Drivers/lvgl/src/widgets/lv_btnmatrix.c ****     lv_btnmatrix_t * btnm = (lv_btnmatrix_t *)obj;
 212:Drivers/lvgl/src/widgets/lv_btnmatrix.c **** 
 213:Drivers/lvgl/src/widgets/lv_btnmatrix.c ****     if(btn_id >= btnm->btn_cnt) return;
 214:Drivers/lvgl/src/widgets/lv_btnmatrix.c **** 
 215:Drivers/lvgl/src/widgets/lv_btnmatrix.c ****     if(btnm->one_check && (ctrl & LV_BTNMATRIX_CTRL_CHECKED)) {
 216:Drivers/lvgl/src/widgets/lv_btnmatrix.c ****         lv_btnmatrix_clear_btn_ctrl_all(obj, LV_BTNMATRIX_CTRL_CHECKED);
 217:Drivers/lvgl/src/widgets/lv_btnmatrix.c ****     }
 218:Drivers/lvgl/src/widgets/lv_btnmatrix.c **** 
 219:Drivers/lvgl/src/widgets/lv_btnmatrix.c ****     /* If we hide a button if all buttons are now hidden hide the whole button matrix to make focus
 220:Drivers/lvgl/src/widgets/lv_btnmatrix.c ****     if(ctrl & LV_BTNMATRIX_CTRL_HIDDEN) {
 221:Drivers/lvgl/src/widgets/lv_btnmatrix.c ****         bool all_buttons_hidden = true;
 222:Drivers/lvgl/src/widgets/lv_btnmatrix.c ****         if(btnm->btn_cnt > 1) {
 223:Drivers/lvgl/src/widgets/lv_btnmatrix.c ****             for(uint16_t btn_idx = 0; btn_idx < btnm->btn_cnt; btn_idx++) {
 224:Drivers/lvgl/src/widgets/lv_btnmatrix.c ****                 if(btn_idx == btn_id) continue;
 225:Drivers/lvgl/src/widgets/lv_btnmatrix.c ****                 if(!(btnm->ctrl_bits[btn_idx] & LV_BTNMATRIX_CTRL_HIDDEN)) all_buttons_hidden = fal
 226:Drivers/lvgl/src/widgets/lv_btnmatrix.c ****             }
 227:Drivers/lvgl/src/widgets/lv_btnmatrix.c **** 
 228:Drivers/lvgl/src/widgets/lv_btnmatrix.c ****         }
 229:Drivers/lvgl/src/widgets/lv_btnmatrix.c ****         if(all_buttons_hidden) lv_obj_add_flag(obj, LV_OBJ_FLAG_HIDDEN);
 230:Drivers/lvgl/src/widgets/lv_btnmatrix.c ****     }
 231:Drivers/lvgl/src/widgets/lv_btnmatrix.c **** 
 232:Drivers/lvgl/src/widgets/lv_btnmatrix.c ****     btnm->ctrl_bits[btn_id] |= ctrl;
 233:Drivers/lvgl/src/widgets/lv_btnmatrix.c ****     invalidate_button_area(obj, btn_id);
 234:Drivers/lvgl/src/widgets/lv_btnmatrix.c **** 
 235:Drivers/lvgl/src/widgets/lv_btnmatrix.c ****     if(ctrl & LV_BTNMATRIX_CTRL_POPOVER) {
 236:Drivers/lvgl/src/widgets/lv_btnmatrix.c ****         lv_obj_refresh_ext_draw_size(obj);
 237:Drivers/lvgl/src/widgets/lv_btnmatrix.c ****     }
 238:Drivers/lvgl/src/widgets/lv_btnmatrix.c **** }
 239:Drivers/lvgl/src/widgets/lv_btnmatrix.c **** 
 240:Drivers/lvgl/src/widgets/lv_btnmatrix.c **** void lv_btnmatrix_clear_btn_ctrl(lv_obj_t * obj, uint16_t btn_id, lv_btnmatrix_ctrl_t ctrl)
 241:Drivers/lvgl/src/widgets/lv_btnmatrix.c **** {
 242:Drivers/lvgl/src/widgets/lv_btnmatrix.c ****     LV_ASSERT_OBJ(obj, MY_CLASS);
 243:Drivers/lvgl/src/widgets/lv_btnmatrix.c **** 
 244:Drivers/lvgl/src/widgets/lv_btnmatrix.c ****     lv_btnmatrix_t * btnm = (lv_btnmatrix_t *)obj;
 245:Drivers/lvgl/src/widgets/lv_btnmatrix.c **** 
 246:Drivers/lvgl/src/widgets/lv_btnmatrix.c ****     if(btn_id >= btnm->btn_cnt) return;
 247:Drivers/lvgl/src/widgets/lv_btnmatrix.c **** 
 248:Drivers/lvgl/src/widgets/lv_btnmatrix.c ****     /* If all buttons were hidden the whole button matrix is hidden so we need to check and remove 
 249:Drivers/lvgl/src/widgets/lv_btnmatrix.c ****     if(ctrl & LV_BTNMATRIX_CTRL_HIDDEN) {
 250:Drivers/lvgl/src/widgets/lv_btnmatrix.c ****         if(lv_obj_has_flag(obj, LV_OBJ_FLAG_HIDDEN)) lv_obj_clear_flag(obj, LV_OBJ_FLAG_HIDDEN);
 251:Drivers/lvgl/src/widgets/lv_btnmatrix.c ****     }
 252:Drivers/lvgl/src/widgets/lv_btnmatrix.c **** 
 253:Drivers/lvgl/src/widgets/lv_btnmatrix.c ****     btnm->ctrl_bits[btn_id] &= (~ctrl);
 254:Drivers/lvgl/src/widgets/lv_btnmatrix.c ****     invalidate_button_area(obj, btn_id);
 255:Drivers/lvgl/src/widgets/lv_btnmatrix.c **** 
 256:Drivers/lvgl/src/widgets/lv_btnmatrix.c ****     if(ctrl & LV_BTNMATRIX_CTRL_POPOVER) {
 257:Drivers/lvgl/src/widgets/lv_btnmatrix.c ****         lv_obj_refresh_ext_draw_size(obj);
 258:Drivers/lvgl/src/widgets/lv_btnmatrix.c ****     }
 259:Drivers/lvgl/src/widgets/lv_btnmatrix.c **** }
ARM GAS  /var/folders/0z/tsy30v1j4xl4_7kw94k978ww0000gn/T//ccyrzG1p.s 			page 6


 260:Drivers/lvgl/src/widgets/lv_btnmatrix.c **** 
 261:Drivers/lvgl/src/widgets/lv_btnmatrix.c **** void lv_btnmatrix_set_btn_ctrl_all(lv_obj_t * obj, lv_btnmatrix_ctrl_t ctrl)
 262:Drivers/lvgl/src/widgets/lv_btnmatrix.c **** {
 263:Drivers/lvgl/src/widgets/lv_btnmatrix.c ****     LV_ASSERT_OBJ(obj, MY_CLASS);
 264:Drivers/lvgl/src/widgets/lv_btnmatrix.c **** 
 265:Drivers/lvgl/src/widgets/lv_btnmatrix.c ****     lv_btnmatrix_t * btnm = (lv_btnmatrix_t *)obj;;
 266:Drivers/lvgl/src/widgets/lv_btnmatrix.c ****     uint16_t i;
 267:Drivers/lvgl/src/widgets/lv_btnmatrix.c ****     for(i = 0; i < btnm->btn_cnt; i++) {
 268:Drivers/lvgl/src/widgets/lv_btnmatrix.c ****         lv_btnmatrix_set_btn_ctrl(obj, i, ctrl);
 269:Drivers/lvgl/src/widgets/lv_btnmatrix.c ****     }
 270:Drivers/lvgl/src/widgets/lv_btnmatrix.c **** }
 271:Drivers/lvgl/src/widgets/lv_btnmatrix.c **** 
 272:Drivers/lvgl/src/widgets/lv_btnmatrix.c **** void lv_btnmatrix_clear_btn_ctrl_all(lv_obj_t * obj, lv_btnmatrix_ctrl_t ctrl)
 273:Drivers/lvgl/src/widgets/lv_btnmatrix.c **** {
 274:Drivers/lvgl/src/widgets/lv_btnmatrix.c ****     LV_ASSERT_OBJ(obj, MY_CLASS);
 275:Drivers/lvgl/src/widgets/lv_btnmatrix.c **** 
 276:Drivers/lvgl/src/widgets/lv_btnmatrix.c ****     lv_btnmatrix_t * btnm = (lv_btnmatrix_t *)obj;;
 277:Drivers/lvgl/src/widgets/lv_btnmatrix.c ****     uint16_t i;
 278:Drivers/lvgl/src/widgets/lv_btnmatrix.c ****     for(i = 0; i < btnm->btn_cnt; i++) {
 279:Drivers/lvgl/src/widgets/lv_btnmatrix.c ****         lv_btnmatrix_clear_btn_ctrl(obj, i, ctrl);
 280:Drivers/lvgl/src/widgets/lv_btnmatrix.c ****     }
 281:Drivers/lvgl/src/widgets/lv_btnmatrix.c **** }
 282:Drivers/lvgl/src/widgets/lv_btnmatrix.c **** 
 283:Drivers/lvgl/src/widgets/lv_btnmatrix.c **** void lv_btnmatrix_set_btn_width(lv_obj_t * obj, uint16_t btn_id, uint8_t width)
 284:Drivers/lvgl/src/widgets/lv_btnmatrix.c **** {
 285:Drivers/lvgl/src/widgets/lv_btnmatrix.c ****     LV_ASSERT_OBJ(obj, MY_CLASS);
 286:Drivers/lvgl/src/widgets/lv_btnmatrix.c **** 
 287:Drivers/lvgl/src/widgets/lv_btnmatrix.c ****     lv_btnmatrix_t * btnm = (lv_btnmatrix_t *)obj;;
 288:Drivers/lvgl/src/widgets/lv_btnmatrix.c ****     if(btn_id >= btnm->btn_cnt) return;
 289:Drivers/lvgl/src/widgets/lv_btnmatrix.c ****     btnm->ctrl_bits[btn_id] &= (~LV_BTNMATRIX_WIDTH_MASK);
 290:Drivers/lvgl/src/widgets/lv_btnmatrix.c ****     btnm->ctrl_bits[btn_id] |= (LV_BTNMATRIX_WIDTH_MASK & width);
 291:Drivers/lvgl/src/widgets/lv_btnmatrix.c **** 
 292:Drivers/lvgl/src/widgets/lv_btnmatrix.c ****     lv_btnmatrix_set_map(obj, btnm->map_p);
 293:Drivers/lvgl/src/widgets/lv_btnmatrix.c **** }
 294:Drivers/lvgl/src/widgets/lv_btnmatrix.c **** 
 295:Drivers/lvgl/src/widgets/lv_btnmatrix.c **** void lv_btnmatrix_set_one_checked(lv_obj_t * obj, bool en)
 296:Drivers/lvgl/src/widgets/lv_btnmatrix.c **** {
 297:Drivers/lvgl/src/widgets/lv_btnmatrix.c ****     LV_ASSERT_OBJ(obj, MY_CLASS);
 298:Drivers/lvgl/src/widgets/lv_btnmatrix.c **** 
 299:Drivers/lvgl/src/widgets/lv_btnmatrix.c ****     lv_btnmatrix_t * btnm = (lv_btnmatrix_t *)obj;;
 300:Drivers/lvgl/src/widgets/lv_btnmatrix.c ****     btnm->one_check     = en;
 301:Drivers/lvgl/src/widgets/lv_btnmatrix.c **** 
 302:Drivers/lvgl/src/widgets/lv_btnmatrix.c ****     /*If more than one button is toggled only the first one should be*/
 303:Drivers/lvgl/src/widgets/lv_btnmatrix.c ****     make_one_button_checked(obj, 0);
 304:Drivers/lvgl/src/widgets/lv_btnmatrix.c **** }
 305:Drivers/lvgl/src/widgets/lv_btnmatrix.c **** 
 306:Drivers/lvgl/src/widgets/lv_btnmatrix.c **** /*=====================
 307:Drivers/lvgl/src/widgets/lv_btnmatrix.c ****  * Getter functions
 308:Drivers/lvgl/src/widgets/lv_btnmatrix.c ****  *====================*/
 309:Drivers/lvgl/src/widgets/lv_btnmatrix.c **** 
 310:Drivers/lvgl/src/widgets/lv_btnmatrix.c **** const char ** lv_btnmatrix_get_map(const lv_obj_t * obj)
 311:Drivers/lvgl/src/widgets/lv_btnmatrix.c **** {
 312:Drivers/lvgl/src/widgets/lv_btnmatrix.c ****     LV_ASSERT_OBJ(obj, MY_CLASS);
 313:Drivers/lvgl/src/widgets/lv_btnmatrix.c **** 
 314:Drivers/lvgl/src/widgets/lv_btnmatrix.c ****     lv_btnmatrix_t * btnm = (lv_btnmatrix_t *)obj;;
 315:Drivers/lvgl/src/widgets/lv_btnmatrix.c ****     return btnm->map_p;
 316:Drivers/lvgl/src/widgets/lv_btnmatrix.c **** }
ARM GAS  /var/folders/0z/tsy30v1j4xl4_7kw94k978ww0000gn/T//ccyrzG1p.s 			page 7


 317:Drivers/lvgl/src/widgets/lv_btnmatrix.c **** 
 318:Drivers/lvgl/src/widgets/lv_btnmatrix.c **** uint16_t lv_btnmatrix_get_selected_btn(const lv_obj_t * obj)
 319:Drivers/lvgl/src/widgets/lv_btnmatrix.c **** {
 320:Drivers/lvgl/src/widgets/lv_btnmatrix.c ****     LV_ASSERT_OBJ(obj, MY_CLASS);
 321:Drivers/lvgl/src/widgets/lv_btnmatrix.c **** 
 322:Drivers/lvgl/src/widgets/lv_btnmatrix.c ****     lv_btnmatrix_t * btnm = (lv_btnmatrix_t *)obj;;
 323:Drivers/lvgl/src/widgets/lv_btnmatrix.c ****     return btnm->btn_id_sel;
 324:Drivers/lvgl/src/widgets/lv_btnmatrix.c **** }
 325:Drivers/lvgl/src/widgets/lv_btnmatrix.c **** 
 326:Drivers/lvgl/src/widgets/lv_btnmatrix.c **** const char * lv_btnmatrix_get_btn_text(const lv_obj_t * obj, uint16_t btn_id)
 327:Drivers/lvgl/src/widgets/lv_btnmatrix.c **** {
 328:Drivers/lvgl/src/widgets/lv_btnmatrix.c ****     LV_ASSERT_OBJ(obj, MY_CLASS);
 329:Drivers/lvgl/src/widgets/lv_btnmatrix.c **** 
 330:Drivers/lvgl/src/widgets/lv_btnmatrix.c ****     if(btn_id == LV_BTNMATRIX_BTN_NONE) return NULL;
 331:Drivers/lvgl/src/widgets/lv_btnmatrix.c **** 
 332:Drivers/lvgl/src/widgets/lv_btnmatrix.c ****     lv_btnmatrix_t * btnm = (lv_btnmatrix_t *)obj;
 333:Drivers/lvgl/src/widgets/lv_btnmatrix.c ****     if(btn_id > btnm->btn_cnt) return NULL;
 334:Drivers/lvgl/src/widgets/lv_btnmatrix.c **** 
 335:Drivers/lvgl/src/widgets/lv_btnmatrix.c ****     uint16_t txt_i = 0;
 336:Drivers/lvgl/src/widgets/lv_btnmatrix.c ****     uint16_t btn_i = 0;
 337:Drivers/lvgl/src/widgets/lv_btnmatrix.c **** 
 338:Drivers/lvgl/src/widgets/lv_btnmatrix.c ****     /*Search the text of btnm->btn_pr the buttons text in the map
 339:Drivers/lvgl/src/widgets/lv_btnmatrix.c ****      *Skip "\n"-s*/
 340:Drivers/lvgl/src/widgets/lv_btnmatrix.c ****     while(btn_i != btn_id) {
 341:Drivers/lvgl/src/widgets/lv_btnmatrix.c ****         btn_i++;
 342:Drivers/lvgl/src/widgets/lv_btnmatrix.c ****         txt_i++;
 343:Drivers/lvgl/src/widgets/lv_btnmatrix.c ****         if(strcmp(btnm->map_p[txt_i], "\n") == 0) txt_i++;
 344:Drivers/lvgl/src/widgets/lv_btnmatrix.c ****     }
 345:Drivers/lvgl/src/widgets/lv_btnmatrix.c **** 
 346:Drivers/lvgl/src/widgets/lv_btnmatrix.c ****     if(btn_i == btnm->btn_cnt) return NULL;
 347:Drivers/lvgl/src/widgets/lv_btnmatrix.c **** 
 348:Drivers/lvgl/src/widgets/lv_btnmatrix.c ****     return btnm->map_p[txt_i];
 349:Drivers/lvgl/src/widgets/lv_btnmatrix.c **** }
 350:Drivers/lvgl/src/widgets/lv_btnmatrix.c **** 
 351:Drivers/lvgl/src/widgets/lv_btnmatrix.c **** bool lv_btnmatrix_has_btn_ctrl(lv_obj_t * obj, uint16_t btn_id, lv_btnmatrix_ctrl_t ctrl)
 352:Drivers/lvgl/src/widgets/lv_btnmatrix.c **** {
 353:Drivers/lvgl/src/widgets/lv_btnmatrix.c ****     LV_ASSERT_OBJ(obj, MY_CLASS);
 354:Drivers/lvgl/src/widgets/lv_btnmatrix.c **** 
 355:Drivers/lvgl/src/widgets/lv_btnmatrix.c ****     lv_btnmatrix_t * btnm = (lv_btnmatrix_t *)obj;;
 356:Drivers/lvgl/src/widgets/lv_btnmatrix.c ****     if(btn_id >= btnm->btn_cnt) return false;
 357:Drivers/lvgl/src/widgets/lv_btnmatrix.c **** 
 358:Drivers/lvgl/src/widgets/lv_btnmatrix.c ****     return ((btnm->ctrl_bits[btn_id] & ctrl) == ctrl) ? true : false;
 359:Drivers/lvgl/src/widgets/lv_btnmatrix.c **** }
 360:Drivers/lvgl/src/widgets/lv_btnmatrix.c **** 
 361:Drivers/lvgl/src/widgets/lv_btnmatrix.c **** bool lv_btnmatrix_get_one_checked(const lv_obj_t * obj)
 362:Drivers/lvgl/src/widgets/lv_btnmatrix.c **** {
 363:Drivers/lvgl/src/widgets/lv_btnmatrix.c ****     LV_ASSERT_OBJ(obj, MY_CLASS);
 364:Drivers/lvgl/src/widgets/lv_btnmatrix.c **** 
 365:Drivers/lvgl/src/widgets/lv_btnmatrix.c ****     lv_btnmatrix_t * btnm = (lv_btnmatrix_t *)obj;;
 366:Drivers/lvgl/src/widgets/lv_btnmatrix.c **** 
 367:Drivers/lvgl/src/widgets/lv_btnmatrix.c ****     return btnm->one_check;
 368:Drivers/lvgl/src/widgets/lv_btnmatrix.c **** }
 369:Drivers/lvgl/src/widgets/lv_btnmatrix.c **** 
 370:Drivers/lvgl/src/widgets/lv_btnmatrix.c **** /**********************
 371:Drivers/lvgl/src/widgets/lv_btnmatrix.c ****  *   STATIC FUNCTIONS
 372:Drivers/lvgl/src/widgets/lv_btnmatrix.c ****  **********************/
 373:Drivers/lvgl/src/widgets/lv_btnmatrix.c **** 
ARM GAS  /var/folders/0z/tsy30v1j4xl4_7kw94k978ww0000gn/T//ccyrzG1p.s 			page 8


 374:Drivers/lvgl/src/widgets/lv_btnmatrix.c **** static void lv_btnmatrix_constructor(const lv_obj_class_t * class_p, lv_obj_t * obj)
 375:Drivers/lvgl/src/widgets/lv_btnmatrix.c **** {
 376:Drivers/lvgl/src/widgets/lv_btnmatrix.c ****     LV_UNUSED(class_p);
 377:Drivers/lvgl/src/widgets/lv_btnmatrix.c ****     LV_TRACE_OBJ_CREATE("begin");
 378:Drivers/lvgl/src/widgets/lv_btnmatrix.c ****     lv_btnmatrix_t * btnm = (lv_btnmatrix_t *)obj;
 379:Drivers/lvgl/src/widgets/lv_btnmatrix.c ****     btnm->btn_cnt        = 0;
 380:Drivers/lvgl/src/widgets/lv_btnmatrix.c ****     btnm->row_cnt        = 0;
 381:Drivers/lvgl/src/widgets/lv_btnmatrix.c ****     btnm->btn_id_sel     = LV_BTNMATRIX_BTN_NONE;
 382:Drivers/lvgl/src/widgets/lv_btnmatrix.c ****     btnm->button_areas   = NULL;
 383:Drivers/lvgl/src/widgets/lv_btnmatrix.c ****     btnm->ctrl_bits      = NULL;
 384:Drivers/lvgl/src/widgets/lv_btnmatrix.c ****     btnm->map_p          = NULL;
 385:Drivers/lvgl/src/widgets/lv_btnmatrix.c ****     btnm->one_check      = 0;
 386:Drivers/lvgl/src/widgets/lv_btnmatrix.c **** 
 387:Drivers/lvgl/src/widgets/lv_btnmatrix.c ****     lv_btnmatrix_set_map(obj, lv_btnmatrix_def_map);
 388:Drivers/lvgl/src/widgets/lv_btnmatrix.c **** 
 389:Drivers/lvgl/src/widgets/lv_btnmatrix.c ****     LV_TRACE_OBJ_CREATE("finished");
 390:Drivers/lvgl/src/widgets/lv_btnmatrix.c **** }
 391:Drivers/lvgl/src/widgets/lv_btnmatrix.c **** 
 392:Drivers/lvgl/src/widgets/lv_btnmatrix.c **** static void lv_btnmatrix_destructor(const lv_obj_class_t * class_p, lv_obj_t * obj)
 393:Drivers/lvgl/src/widgets/lv_btnmatrix.c **** {
 394:Drivers/lvgl/src/widgets/lv_btnmatrix.c ****     LV_TRACE_OBJ_CREATE("begin");
 395:Drivers/lvgl/src/widgets/lv_btnmatrix.c ****     LV_UNUSED(class_p);
 396:Drivers/lvgl/src/widgets/lv_btnmatrix.c ****     lv_btnmatrix_t * btnm = (lv_btnmatrix_t *)obj;
 397:Drivers/lvgl/src/widgets/lv_btnmatrix.c ****     lv_mem_free(btnm->button_areas);
 398:Drivers/lvgl/src/widgets/lv_btnmatrix.c ****     lv_mem_free(btnm->ctrl_bits);
 399:Drivers/lvgl/src/widgets/lv_btnmatrix.c ****     btnm->button_areas = NULL;
 400:Drivers/lvgl/src/widgets/lv_btnmatrix.c ****     btnm->ctrl_bits = NULL;
 401:Drivers/lvgl/src/widgets/lv_btnmatrix.c ****     LV_TRACE_OBJ_CREATE("finished");
 402:Drivers/lvgl/src/widgets/lv_btnmatrix.c **** }
 403:Drivers/lvgl/src/widgets/lv_btnmatrix.c **** 
 404:Drivers/lvgl/src/widgets/lv_btnmatrix.c **** static void lv_btnmatrix_event(const lv_obj_class_t * class_p, lv_event_t * e)
 405:Drivers/lvgl/src/widgets/lv_btnmatrix.c **** {
 406:Drivers/lvgl/src/widgets/lv_btnmatrix.c ****     LV_UNUSED(class_p);
 407:Drivers/lvgl/src/widgets/lv_btnmatrix.c **** 
 408:Drivers/lvgl/src/widgets/lv_btnmatrix.c ****     lv_res_t res;
 409:Drivers/lvgl/src/widgets/lv_btnmatrix.c **** 
 410:Drivers/lvgl/src/widgets/lv_btnmatrix.c ****     /*Call the ancestor's event handler*/
 411:Drivers/lvgl/src/widgets/lv_btnmatrix.c ****     res = lv_obj_event_base(MY_CLASS, e);
 412:Drivers/lvgl/src/widgets/lv_btnmatrix.c ****     if(res != LV_RES_OK) return;
 413:Drivers/lvgl/src/widgets/lv_btnmatrix.c **** 
 414:Drivers/lvgl/src/widgets/lv_btnmatrix.c ****     lv_event_code_t code = lv_event_get_code(e);
 415:Drivers/lvgl/src/widgets/lv_btnmatrix.c ****     lv_obj_t * obj = lv_event_get_target(e);
 416:Drivers/lvgl/src/widgets/lv_btnmatrix.c ****     lv_btnmatrix_t * btnm = (lv_btnmatrix_t *)obj;
 417:Drivers/lvgl/src/widgets/lv_btnmatrix.c ****     lv_point_t p;
 418:Drivers/lvgl/src/widgets/lv_btnmatrix.c **** 
 419:Drivers/lvgl/src/widgets/lv_btnmatrix.c ****     if(code == LV_EVENT_REFR_EXT_DRAW_SIZE) {
 420:Drivers/lvgl/src/widgets/lv_btnmatrix.c ****         if(has_popovers_in_top_row(obj)) {
 421:Drivers/lvgl/src/widgets/lv_btnmatrix.c ****             /*reserve one row worth of extra space to account for popovers in the top row*/
 422:Drivers/lvgl/src/widgets/lv_btnmatrix.c ****             lv_coord_t s = btnm->row_cnt > 0 ? lv_obj_get_content_height(obj) / btnm->row_cnt : 0;
 423:Drivers/lvgl/src/widgets/lv_btnmatrix.c ****             lv_event_set_ext_draw_size(e, s);
 424:Drivers/lvgl/src/widgets/lv_btnmatrix.c ****         }
 425:Drivers/lvgl/src/widgets/lv_btnmatrix.c ****     }
 426:Drivers/lvgl/src/widgets/lv_btnmatrix.c ****     if(code == LV_EVENT_STYLE_CHANGED) {
 427:Drivers/lvgl/src/widgets/lv_btnmatrix.c ****         lv_btnmatrix_set_map(obj, btnm->map_p);
 428:Drivers/lvgl/src/widgets/lv_btnmatrix.c ****     }
 429:Drivers/lvgl/src/widgets/lv_btnmatrix.c ****     else if(code == LV_EVENT_SIZE_CHANGED) {
 430:Drivers/lvgl/src/widgets/lv_btnmatrix.c ****         lv_btnmatrix_set_map(obj, btnm->map_p);
ARM GAS  /var/folders/0z/tsy30v1j4xl4_7kw94k978ww0000gn/T//ccyrzG1p.s 			page 9


 431:Drivers/lvgl/src/widgets/lv_btnmatrix.c ****     }
 432:Drivers/lvgl/src/widgets/lv_btnmatrix.c ****     else if(code == LV_EVENT_PRESSED) {
 433:Drivers/lvgl/src/widgets/lv_btnmatrix.c ****         void * param = lv_event_get_param(e);
 434:Drivers/lvgl/src/widgets/lv_btnmatrix.c ****         invalidate_button_area(obj, btnm->btn_id_sel);
 435:Drivers/lvgl/src/widgets/lv_btnmatrix.c **** 
 436:Drivers/lvgl/src/widgets/lv_btnmatrix.c ****         lv_indev_type_t indev_type = lv_indev_get_type(lv_indev_get_act());
 437:Drivers/lvgl/src/widgets/lv_btnmatrix.c ****         if(indev_type == LV_INDEV_TYPE_POINTER || indev_type == LV_INDEV_TYPE_BUTTON) {
 438:Drivers/lvgl/src/widgets/lv_btnmatrix.c ****             uint16_t btn_pr;
 439:Drivers/lvgl/src/widgets/lv_btnmatrix.c ****             /*Search the pressed area*/
 440:Drivers/lvgl/src/widgets/lv_btnmatrix.c ****             lv_indev_get_point(param, &p);
 441:Drivers/lvgl/src/widgets/lv_btnmatrix.c ****             btn_pr = get_button_from_point(obj, &p);
 442:Drivers/lvgl/src/widgets/lv_btnmatrix.c ****             /*Handle the case where there is no button there*/
 443:Drivers/lvgl/src/widgets/lv_btnmatrix.c ****             btnm->btn_id_sel = LV_BTNMATRIX_BTN_NONE;
 444:Drivers/lvgl/src/widgets/lv_btnmatrix.c ****             if(btn_pr != LV_BTNMATRIX_BTN_NONE) {
 445:Drivers/lvgl/src/widgets/lv_btnmatrix.c ****                 if(button_is_inactive(btnm->ctrl_bits[btn_pr]) == false &&
 446:Drivers/lvgl/src/widgets/lv_btnmatrix.c ****                    button_is_hidden(btnm->ctrl_bits[btn_pr]) == false) {
 447:Drivers/lvgl/src/widgets/lv_btnmatrix.c ****                     btnm->btn_id_sel = btn_pr;
 448:Drivers/lvgl/src/widgets/lv_btnmatrix.c ****                     invalidate_button_area(obj, btnm->btn_id_sel); /*Invalidate the new area*/
 449:Drivers/lvgl/src/widgets/lv_btnmatrix.c ****                 }
 450:Drivers/lvgl/src/widgets/lv_btnmatrix.c ****             }
 451:Drivers/lvgl/src/widgets/lv_btnmatrix.c ****             else {
 452:Drivers/lvgl/src/widgets/lv_btnmatrix.c ****                 btnm->btn_id_sel = LV_BTNMATRIX_BTN_NONE;
 453:Drivers/lvgl/src/widgets/lv_btnmatrix.c ****             }
 454:Drivers/lvgl/src/widgets/lv_btnmatrix.c ****         }
 455:Drivers/lvgl/src/widgets/lv_btnmatrix.c **** 
 456:Drivers/lvgl/src/widgets/lv_btnmatrix.c ****         if(btnm->btn_id_sel != LV_BTNMATRIX_BTN_NONE) {
 457:Drivers/lvgl/src/widgets/lv_btnmatrix.c ****             if(button_is_click_trig(btnm->ctrl_bits[btnm->btn_id_sel]) == false &&
 458:Drivers/lvgl/src/widgets/lv_btnmatrix.c ****                button_is_popover(btnm->ctrl_bits[btnm->btn_id_sel]) == false &&
 459:Drivers/lvgl/src/widgets/lv_btnmatrix.c ****                button_is_inactive(btnm->ctrl_bits[btnm->btn_id_sel]) == false &&
 460:Drivers/lvgl/src/widgets/lv_btnmatrix.c ****                button_is_hidden(btnm->ctrl_bits[btnm->btn_id_sel]) == false) {
 461:Drivers/lvgl/src/widgets/lv_btnmatrix.c ****                 uint32_t b = btnm->btn_id_sel;
 462:Drivers/lvgl/src/widgets/lv_btnmatrix.c ****                 res        = lv_event_send(obj, LV_EVENT_VALUE_CHANGED, &b);
 463:Drivers/lvgl/src/widgets/lv_btnmatrix.c ****                 if(res != LV_RES_OK) return;
 464:Drivers/lvgl/src/widgets/lv_btnmatrix.c ****             }
 465:Drivers/lvgl/src/widgets/lv_btnmatrix.c ****         }
 466:Drivers/lvgl/src/widgets/lv_btnmatrix.c ****     }
 467:Drivers/lvgl/src/widgets/lv_btnmatrix.c ****     else if(code == LV_EVENT_PRESSING) {
 468:Drivers/lvgl/src/widgets/lv_btnmatrix.c ****         void * param = lv_event_get_param(e);
 469:Drivers/lvgl/src/widgets/lv_btnmatrix.c ****         uint16_t btn_pr = LV_BTNMATRIX_BTN_NONE;
 470:Drivers/lvgl/src/widgets/lv_btnmatrix.c ****         /*Search the pressed area*/
 471:Drivers/lvgl/src/widgets/lv_btnmatrix.c ****         lv_indev_t * indev = lv_indev_get_act();
 472:Drivers/lvgl/src/widgets/lv_btnmatrix.c ****         lv_indev_type_t indev_type = lv_indev_get_type(indev);
 473:Drivers/lvgl/src/widgets/lv_btnmatrix.c ****         if(indev_type == LV_INDEV_TYPE_ENCODER || indev_type == LV_INDEV_TYPE_KEYPAD) return;
 474:Drivers/lvgl/src/widgets/lv_btnmatrix.c **** 
 475:Drivers/lvgl/src/widgets/lv_btnmatrix.c ****         lv_indev_get_point(indev, &p);
 476:Drivers/lvgl/src/widgets/lv_btnmatrix.c ****         btn_pr = get_button_from_point(obj, &p);
 477:Drivers/lvgl/src/widgets/lv_btnmatrix.c ****         /*Invalidate to old and the new areas*/
 478:Drivers/lvgl/src/widgets/lv_btnmatrix.c ****         if(btn_pr != btnm->btn_id_sel) {
 479:Drivers/lvgl/src/widgets/lv_btnmatrix.c ****             if(btnm->btn_id_sel != LV_BTNMATRIX_BTN_NONE) {
 480:Drivers/lvgl/src/widgets/lv_btnmatrix.c ****                 invalidate_button_area(obj, btnm->btn_id_sel);
 481:Drivers/lvgl/src/widgets/lv_btnmatrix.c ****             }
 482:Drivers/lvgl/src/widgets/lv_btnmatrix.c **** 
 483:Drivers/lvgl/src/widgets/lv_btnmatrix.c ****             btnm->btn_id_sel = btn_pr;
 484:Drivers/lvgl/src/widgets/lv_btnmatrix.c **** 
 485:Drivers/lvgl/src/widgets/lv_btnmatrix.c ****             lv_indev_reset_long_press(param); /*Start the log press time again on the new button*/
 486:Drivers/lvgl/src/widgets/lv_btnmatrix.c ****             if(btn_pr != LV_BTNMATRIX_BTN_NONE &&
 487:Drivers/lvgl/src/widgets/lv_btnmatrix.c ****                button_is_inactive(btnm->ctrl_bits[btn_pr]) == false &&
ARM GAS  /var/folders/0z/tsy30v1j4xl4_7kw94k978ww0000gn/T//ccyrzG1p.s 			page 10


 488:Drivers/lvgl/src/widgets/lv_btnmatrix.c ****                button_is_hidden(btnm->ctrl_bits[btn_pr]) == false) {
 489:Drivers/lvgl/src/widgets/lv_btnmatrix.c ****                 invalidate_button_area(obj, btn_pr);
 490:Drivers/lvgl/src/widgets/lv_btnmatrix.c ****                 /*Send VALUE_CHANGED for the newly pressed button*/
 491:Drivers/lvgl/src/widgets/lv_btnmatrix.c ****                 if(button_is_click_trig(btnm->ctrl_bits[btn_pr]) == false &&
 492:Drivers/lvgl/src/widgets/lv_btnmatrix.c ****                    button_is_popover(btnm->ctrl_bits[btnm->btn_id_sel]) == false) {
 493:Drivers/lvgl/src/widgets/lv_btnmatrix.c ****                     uint32_t b = btn_pr;
 494:Drivers/lvgl/src/widgets/lv_btnmatrix.c ****                     res = lv_event_send(obj, LV_EVENT_VALUE_CHANGED, &b);
 495:Drivers/lvgl/src/widgets/lv_btnmatrix.c ****                     if(res != LV_RES_OK) return;
 496:Drivers/lvgl/src/widgets/lv_btnmatrix.c ****                 }
 497:Drivers/lvgl/src/widgets/lv_btnmatrix.c ****             }
 498:Drivers/lvgl/src/widgets/lv_btnmatrix.c ****         }
 499:Drivers/lvgl/src/widgets/lv_btnmatrix.c ****     }
 500:Drivers/lvgl/src/widgets/lv_btnmatrix.c ****     else if(code == LV_EVENT_RELEASED) {
 501:Drivers/lvgl/src/widgets/lv_btnmatrix.c ****         if(btnm->btn_id_sel != LV_BTNMATRIX_BTN_NONE) {
 502:Drivers/lvgl/src/widgets/lv_btnmatrix.c ****             /*Toggle the button if enabled*/
 503:Drivers/lvgl/src/widgets/lv_btnmatrix.c ****             if(button_is_checkable(btnm->ctrl_bits[btnm->btn_id_sel]) &&
 504:Drivers/lvgl/src/widgets/lv_btnmatrix.c ****                !button_is_inactive(btnm->ctrl_bits[btnm->btn_id_sel])) {
 505:Drivers/lvgl/src/widgets/lv_btnmatrix.c ****                 if(button_get_checked(btnm->ctrl_bits[btnm->btn_id_sel]) && !btnm->one_check) {
 506:Drivers/lvgl/src/widgets/lv_btnmatrix.c ****                     btnm->ctrl_bits[btnm->btn_id_sel] &= (~LV_BTNMATRIX_CTRL_CHECKED);
 507:Drivers/lvgl/src/widgets/lv_btnmatrix.c ****                 }
 508:Drivers/lvgl/src/widgets/lv_btnmatrix.c ****                 else {
 509:Drivers/lvgl/src/widgets/lv_btnmatrix.c ****                     btnm->ctrl_bits[btnm->btn_id_sel] |= LV_BTNMATRIX_CTRL_CHECKED;
 510:Drivers/lvgl/src/widgets/lv_btnmatrix.c ****                 }
 511:Drivers/lvgl/src/widgets/lv_btnmatrix.c ****                 if(btnm->one_check) make_one_button_checked(obj, btnm->btn_id_sel);
 512:Drivers/lvgl/src/widgets/lv_btnmatrix.c ****             }
 513:Drivers/lvgl/src/widgets/lv_btnmatrix.c **** 
 514:Drivers/lvgl/src/widgets/lv_btnmatrix.c **** 
 515:Drivers/lvgl/src/widgets/lv_btnmatrix.c ****             if((button_is_click_trig(btnm->ctrl_bits[btnm->btn_id_sel]) == true ||
 516:Drivers/lvgl/src/widgets/lv_btnmatrix.c ****                 button_is_popover(btnm->ctrl_bits[btnm->btn_id_sel]) == true) &&
 517:Drivers/lvgl/src/widgets/lv_btnmatrix.c ****                button_is_inactive(btnm->ctrl_bits[btnm->btn_id_sel]) == false &&
 518:Drivers/lvgl/src/widgets/lv_btnmatrix.c ****                button_is_hidden(btnm->ctrl_bits[btnm->btn_id_sel]) == false) {
 519:Drivers/lvgl/src/widgets/lv_btnmatrix.c ****                 uint32_t b = btnm->btn_id_sel;
 520:Drivers/lvgl/src/widgets/lv_btnmatrix.c ****                 res        = lv_event_send(obj, LV_EVENT_VALUE_CHANGED, &b);
 521:Drivers/lvgl/src/widgets/lv_btnmatrix.c ****                 if(res != LV_RES_OK) return;
 522:Drivers/lvgl/src/widgets/lv_btnmatrix.c ****             }
 523:Drivers/lvgl/src/widgets/lv_btnmatrix.c ****         }
 524:Drivers/lvgl/src/widgets/lv_btnmatrix.c **** 
 525:Drivers/lvgl/src/widgets/lv_btnmatrix.c ****         /*Invalidate to old pressed area*/;
 526:Drivers/lvgl/src/widgets/lv_btnmatrix.c ****         invalidate_button_area(obj, btnm->btn_id_sel);
 527:Drivers/lvgl/src/widgets/lv_btnmatrix.c **** 
 528:Drivers/lvgl/src/widgets/lv_btnmatrix.c ****     }
 529:Drivers/lvgl/src/widgets/lv_btnmatrix.c ****     else if(code == LV_EVENT_LONG_PRESSED_REPEAT) {
 530:Drivers/lvgl/src/widgets/lv_btnmatrix.c ****         if(btnm->btn_id_sel != LV_BTNMATRIX_BTN_NONE) {
 531:Drivers/lvgl/src/widgets/lv_btnmatrix.c ****             if(button_is_repeat_disabled(btnm->ctrl_bits[btnm->btn_id_sel]) == false &&
 532:Drivers/lvgl/src/widgets/lv_btnmatrix.c ****                button_is_inactive(btnm->ctrl_bits[btnm->btn_id_sel]) == false &&
 533:Drivers/lvgl/src/widgets/lv_btnmatrix.c ****                button_is_hidden(btnm->ctrl_bits[btnm->btn_id_sel]) == false) {
 534:Drivers/lvgl/src/widgets/lv_btnmatrix.c ****                 uint32_t b = btnm->btn_id_sel;
 535:Drivers/lvgl/src/widgets/lv_btnmatrix.c ****                 res        = lv_event_send(obj, LV_EVENT_VALUE_CHANGED, &b);
 536:Drivers/lvgl/src/widgets/lv_btnmatrix.c ****                 if(res != LV_RES_OK) return;
 537:Drivers/lvgl/src/widgets/lv_btnmatrix.c ****             }
 538:Drivers/lvgl/src/widgets/lv_btnmatrix.c ****         }
 539:Drivers/lvgl/src/widgets/lv_btnmatrix.c ****     }
 540:Drivers/lvgl/src/widgets/lv_btnmatrix.c ****     else if(code == LV_EVENT_PRESS_LOST) {
 541:Drivers/lvgl/src/widgets/lv_btnmatrix.c ****         invalidate_button_area(obj, btnm->btn_id_sel);
 542:Drivers/lvgl/src/widgets/lv_btnmatrix.c ****         btnm->btn_id_sel = LV_BTNMATRIX_BTN_NONE;
 543:Drivers/lvgl/src/widgets/lv_btnmatrix.c ****     }
 544:Drivers/lvgl/src/widgets/lv_btnmatrix.c ****     else if(code == LV_EVENT_FOCUSED) {
ARM GAS  /var/folders/0z/tsy30v1j4xl4_7kw94k978ww0000gn/T//ccyrzG1p.s 			page 11


 545:Drivers/lvgl/src/widgets/lv_btnmatrix.c ****         if(btnm->btn_cnt == 0) return;
 546:Drivers/lvgl/src/widgets/lv_btnmatrix.c **** 
 547:Drivers/lvgl/src/widgets/lv_btnmatrix.c ****         lv_indev_t * indev = lv_event_get_param(e);
 548:Drivers/lvgl/src/widgets/lv_btnmatrix.c ****         lv_indev_type_t indev_type = lv_indev_get_type(indev);
 549:Drivers/lvgl/src/widgets/lv_btnmatrix.c **** 
 550:Drivers/lvgl/src/widgets/lv_btnmatrix.c ****         /*If not focused by an input device assume the last input device*/
 551:Drivers/lvgl/src/widgets/lv_btnmatrix.c ****         if(indev == NULL) {
 552:Drivers/lvgl/src/widgets/lv_btnmatrix.c ****             indev = lv_indev_get_next(NULL);
 553:Drivers/lvgl/src/widgets/lv_btnmatrix.c ****             indev_type = lv_indev_get_type(indev);
 554:Drivers/lvgl/src/widgets/lv_btnmatrix.c ****         }
 555:Drivers/lvgl/src/widgets/lv_btnmatrix.c **** 
 556:Drivers/lvgl/src/widgets/lv_btnmatrix.c ****         bool editing = lv_group_get_editing(lv_obj_get_group(obj));
 557:Drivers/lvgl/src/widgets/lv_btnmatrix.c ****         /*Focus the first button if there is not selected button*/
 558:Drivers/lvgl/src/widgets/lv_btnmatrix.c ****         if(btnm->btn_id_sel == LV_BTNMATRIX_BTN_NONE) {
 559:Drivers/lvgl/src/widgets/lv_btnmatrix.c ****             if(indev_type == LV_INDEV_TYPE_KEYPAD || (indev_type == LV_INDEV_TYPE_ENCODER && editin
 560:Drivers/lvgl/src/widgets/lv_btnmatrix.c ****                 uint32_t b = 0;
 561:Drivers/lvgl/src/widgets/lv_btnmatrix.c ****                 if(btnm->one_check) {
 562:Drivers/lvgl/src/widgets/lv_btnmatrix.c ****                     while(button_is_hidden(btnm->ctrl_bits[b]) || button_is_inactive(btnm->ctrl_bit
 563:Drivers/lvgl/src/widgets/lv_btnmatrix.c ****                           button_is_checked(btnm->ctrl_bits[b]) == false) b++;
 564:Drivers/lvgl/src/widgets/lv_btnmatrix.c ****                 }
 565:Drivers/lvgl/src/widgets/lv_btnmatrix.c ****                 else {
 566:Drivers/lvgl/src/widgets/lv_btnmatrix.c ****                     while(button_is_hidden(btnm->ctrl_bits[b]) || button_is_inactive(btnm->ctrl_bit
 567:Drivers/lvgl/src/widgets/lv_btnmatrix.c ****                 }
 568:Drivers/lvgl/src/widgets/lv_btnmatrix.c **** 
 569:Drivers/lvgl/src/widgets/lv_btnmatrix.c ****                 btnm->btn_id_sel = b;
 570:Drivers/lvgl/src/widgets/lv_btnmatrix.c ****             }
 571:Drivers/lvgl/src/widgets/lv_btnmatrix.c ****             else {
 572:Drivers/lvgl/src/widgets/lv_btnmatrix.c ****                 btnm->btn_id_sel = LV_BTNMATRIX_BTN_NONE;
 573:Drivers/lvgl/src/widgets/lv_btnmatrix.c ****             }
 574:Drivers/lvgl/src/widgets/lv_btnmatrix.c ****         }
 575:Drivers/lvgl/src/widgets/lv_btnmatrix.c ****     }
 576:Drivers/lvgl/src/widgets/lv_btnmatrix.c ****     else if(code == LV_EVENT_DEFOCUSED || code == LV_EVENT_LEAVE) {
 577:Drivers/lvgl/src/widgets/lv_btnmatrix.c ****         if(btnm->btn_id_sel != LV_BTNMATRIX_BTN_NONE) invalidate_button_area(obj, btnm->btn_id_sel)
 578:Drivers/lvgl/src/widgets/lv_btnmatrix.c ****         btnm->btn_id_sel = LV_BTNMATRIX_BTN_NONE;
 579:Drivers/lvgl/src/widgets/lv_btnmatrix.c ****     }
 580:Drivers/lvgl/src/widgets/lv_btnmatrix.c ****     else if(code == LV_EVENT_KEY) {
 581:Drivers/lvgl/src/widgets/lv_btnmatrix.c **** 
 582:Drivers/lvgl/src/widgets/lv_btnmatrix.c ****         invalidate_button_area(obj, btnm->btn_id_sel);
 583:Drivers/lvgl/src/widgets/lv_btnmatrix.c **** 
 584:Drivers/lvgl/src/widgets/lv_btnmatrix.c ****         char c = *((char *)lv_event_get_param(e));
 585:Drivers/lvgl/src/widgets/lv_btnmatrix.c ****         if(c == LV_KEY_RIGHT) {
 586:Drivers/lvgl/src/widgets/lv_btnmatrix.c ****             if(btnm->btn_id_sel == LV_BTNMATRIX_BTN_NONE)  btnm->btn_id_sel = 0;
 587:Drivers/lvgl/src/widgets/lv_btnmatrix.c ****             else btnm->btn_id_sel++;
 588:Drivers/lvgl/src/widgets/lv_btnmatrix.c ****             if(btnm->btn_id_sel >= btnm->btn_cnt) btnm->btn_id_sel = 0;
 589:Drivers/lvgl/src/widgets/lv_btnmatrix.c **** 
 590:Drivers/lvgl/src/widgets/lv_btnmatrix.c ****             uint16_t btn_id_start = btnm->btn_id_sel;
 591:Drivers/lvgl/src/widgets/lv_btnmatrix.c ****             while(button_is_hidden(btnm->ctrl_bits[btnm->btn_id_sel]) || button_is_inactive(btnm->c
 592:Drivers/lvgl/src/widgets/lv_btnmatrix.c ****                 btnm->btn_id_sel++;
 593:Drivers/lvgl/src/widgets/lv_btnmatrix.c ****                 if(btnm->btn_id_sel >= btnm->btn_cnt) btnm->btn_id_sel = 0;
 594:Drivers/lvgl/src/widgets/lv_btnmatrix.c **** 
 595:Drivers/lvgl/src/widgets/lv_btnmatrix.c ****                 if(btnm->btn_id_sel == btn_id_start) {
 596:Drivers/lvgl/src/widgets/lv_btnmatrix.c ****                     btnm->btn_id_sel = LV_BTNMATRIX_BTN_NONE;
 597:Drivers/lvgl/src/widgets/lv_btnmatrix.c ****                     break;
 598:Drivers/lvgl/src/widgets/lv_btnmatrix.c ****                 }
 599:Drivers/lvgl/src/widgets/lv_btnmatrix.c ****             }
 600:Drivers/lvgl/src/widgets/lv_btnmatrix.c ****         }
 601:Drivers/lvgl/src/widgets/lv_btnmatrix.c ****         else if(c == LV_KEY_LEFT) {
ARM GAS  /var/folders/0z/tsy30v1j4xl4_7kw94k978ww0000gn/T//ccyrzG1p.s 			page 12


 602:Drivers/lvgl/src/widgets/lv_btnmatrix.c ****             if(btnm->btn_id_sel == LV_BTNMATRIX_BTN_NONE) btnm->btn_id_sel = 0;
 603:Drivers/lvgl/src/widgets/lv_btnmatrix.c **** 
 604:Drivers/lvgl/src/widgets/lv_btnmatrix.c ****             if(btnm->btn_id_sel == 0) btnm->btn_id_sel = btnm->btn_cnt - 1;
 605:Drivers/lvgl/src/widgets/lv_btnmatrix.c ****             else if(btnm->btn_id_sel > 0) btnm->btn_id_sel--;
 606:Drivers/lvgl/src/widgets/lv_btnmatrix.c **** 
 607:Drivers/lvgl/src/widgets/lv_btnmatrix.c ****             uint16_t btn_id_start = btnm->btn_id_sel;
 608:Drivers/lvgl/src/widgets/lv_btnmatrix.c ****             while(button_is_hidden(btnm->ctrl_bits[btnm->btn_id_sel]) || button_is_inactive(btnm->c
 609:Drivers/lvgl/src/widgets/lv_btnmatrix.c ****                 if(btnm->btn_id_sel > 0) btnm->btn_id_sel--;
 610:Drivers/lvgl/src/widgets/lv_btnmatrix.c ****                 else btnm->btn_id_sel = btnm->btn_cnt - 1;
 611:Drivers/lvgl/src/widgets/lv_btnmatrix.c **** 
 612:Drivers/lvgl/src/widgets/lv_btnmatrix.c ****                 if(btnm->btn_id_sel == btn_id_start) {
 613:Drivers/lvgl/src/widgets/lv_btnmatrix.c ****                     btnm->btn_id_sel = LV_BTNMATRIX_BTN_NONE;
 614:Drivers/lvgl/src/widgets/lv_btnmatrix.c ****                     break;
 615:Drivers/lvgl/src/widgets/lv_btnmatrix.c ****                 }
 616:Drivers/lvgl/src/widgets/lv_btnmatrix.c ****             }
 617:Drivers/lvgl/src/widgets/lv_btnmatrix.c ****         }
 618:Drivers/lvgl/src/widgets/lv_btnmatrix.c ****         else if(c == LV_KEY_DOWN) {
 619:Drivers/lvgl/src/widgets/lv_btnmatrix.c ****             lv_coord_t col_gap = lv_obj_get_style_pad_column(obj, LV_PART_MAIN);
 620:Drivers/lvgl/src/widgets/lv_btnmatrix.c ****             /*Find the area below the current*/
 621:Drivers/lvgl/src/widgets/lv_btnmatrix.c ****             if(btnm->btn_id_sel == LV_BTNMATRIX_BTN_NONE) {
 622:Drivers/lvgl/src/widgets/lv_btnmatrix.c ****                 btnm->btn_id_sel = 0;
 623:Drivers/lvgl/src/widgets/lv_btnmatrix.c ****                 while(button_is_hidden(btnm->ctrl_bits[btnm->btn_id_sel]) || button_is_inactive(btn
 624:Drivers/lvgl/src/widgets/lv_btnmatrix.c ****                     btnm->btn_id_sel++;
 625:Drivers/lvgl/src/widgets/lv_btnmatrix.c ****                     if(btnm->btn_id_sel >= btnm->btn_cnt) {
 626:Drivers/lvgl/src/widgets/lv_btnmatrix.c ****                         btnm->btn_id_sel = LV_BTNMATRIX_BTN_NONE;
 627:Drivers/lvgl/src/widgets/lv_btnmatrix.c ****                         break;
 628:Drivers/lvgl/src/widgets/lv_btnmatrix.c ****                     }
 629:Drivers/lvgl/src/widgets/lv_btnmatrix.c ****                 }
 630:Drivers/lvgl/src/widgets/lv_btnmatrix.c ****             }
 631:Drivers/lvgl/src/widgets/lv_btnmatrix.c ****             else {
 632:Drivers/lvgl/src/widgets/lv_btnmatrix.c ****                 uint16_t area_below;
 633:Drivers/lvgl/src/widgets/lv_btnmatrix.c ****                 lv_coord_t pr_center =
 634:Drivers/lvgl/src/widgets/lv_btnmatrix.c ****                     btnm->button_areas[btnm->btn_id_sel].x1 + (lv_area_get_width(&btnm->button_area
 635:Drivers/lvgl/src/widgets/lv_btnmatrix.c **** 
 636:Drivers/lvgl/src/widgets/lv_btnmatrix.c ****                 for(area_below = btnm->btn_id_sel; area_below < btnm->btn_cnt; area_below++) {
 637:Drivers/lvgl/src/widgets/lv_btnmatrix.c ****                     if(btnm->button_areas[area_below].y1 > btnm->button_areas[btnm->btn_id_sel].y1 
 638:Drivers/lvgl/src/widgets/lv_btnmatrix.c ****                        pr_center >= btnm->button_areas[area_below].x1 &&
 639:Drivers/lvgl/src/widgets/lv_btnmatrix.c ****                        pr_center <= btnm->button_areas[area_below].x2 + col_gap &&
 640:Drivers/lvgl/src/widgets/lv_btnmatrix.c ****                        button_is_inactive(btnm->ctrl_bits[area_below]) == false &&
 641:Drivers/lvgl/src/widgets/lv_btnmatrix.c ****                        button_is_hidden(btnm->ctrl_bits[area_below]) == false) {
 642:Drivers/lvgl/src/widgets/lv_btnmatrix.c ****                         break;
 643:Drivers/lvgl/src/widgets/lv_btnmatrix.c ****                     }
 644:Drivers/lvgl/src/widgets/lv_btnmatrix.c ****                 }
 645:Drivers/lvgl/src/widgets/lv_btnmatrix.c **** 
 646:Drivers/lvgl/src/widgets/lv_btnmatrix.c ****                 if(area_below < btnm->btn_cnt) btnm->btn_id_sel = area_below;
 647:Drivers/lvgl/src/widgets/lv_btnmatrix.c ****             }
 648:Drivers/lvgl/src/widgets/lv_btnmatrix.c ****         }
 649:Drivers/lvgl/src/widgets/lv_btnmatrix.c ****         else if(c == LV_KEY_UP) {
 650:Drivers/lvgl/src/widgets/lv_btnmatrix.c ****             lv_coord_t col_gap = lv_obj_get_style_pad_column(obj, LV_PART_MAIN);
 651:Drivers/lvgl/src/widgets/lv_btnmatrix.c ****             /*Find the area below the current*/
 652:Drivers/lvgl/src/widgets/lv_btnmatrix.c ****             if(btnm->btn_id_sel == LV_BTNMATRIX_BTN_NONE) {
 653:Drivers/lvgl/src/widgets/lv_btnmatrix.c ****                 btnm->btn_id_sel = 0;
 654:Drivers/lvgl/src/widgets/lv_btnmatrix.c ****                 while(button_is_hidden(btnm->ctrl_bits[btnm->btn_id_sel]) || button_is_inactive(btn
 655:Drivers/lvgl/src/widgets/lv_btnmatrix.c ****                     btnm->btn_id_sel++;
 656:Drivers/lvgl/src/widgets/lv_btnmatrix.c ****                     if(btnm->btn_id_sel >= btnm->btn_cnt) {
 657:Drivers/lvgl/src/widgets/lv_btnmatrix.c ****                         btnm->btn_id_sel = LV_BTNMATRIX_BTN_NONE;
 658:Drivers/lvgl/src/widgets/lv_btnmatrix.c ****                         break;
ARM GAS  /var/folders/0z/tsy30v1j4xl4_7kw94k978ww0000gn/T//ccyrzG1p.s 			page 13


 659:Drivers/lvgl/src/widgets/lv_btnmatrix.c ****                     }
 660:Drivers/lvgl/src/widgets/lv_btnmatrix.c ****                 }
 661:Drivers/lvgl/src/widgets/lv_btnmatrix.c ****             }
 662:Drivers/lvgl/src/widgets/lv_btnmatrix.c ****             else {
 663:Drivers/lvgl/src/widgets/lv_btnmatrix.c ****                 int16_t area_above;
 664:Drivers/lvgl/src/widgets/lv_btnmatrix.c ****                 lv_coord_t pr_center =
 665:Drivers/lvgl/src/widgets/lv_btnmatrix.c ****                     btnm->button_areas[btnm->btn_id_sel].x1 + (lv_area_get_width(&btnm->button_area
 666:Drivers/lvgl/src/widgets/lv_btnmatrix.c **** 
 667:Drivers/lvgl/src/widgets/lv_btnmatrix.c ****                 for(area_above = btnm->btn_id_sel; area_above >= 0; area_above--) {
 668:Drivers/lvgl/src/widgets/lv_btnmatrix.c ****                     if(btnm->button_areas[area_above].y1 < btnm->button_areas[btnm->btn_id_sel].y1 
 669:Drivers/lvgl/src/widgets/lv_btnmatrix.c ****                        pr_center >= btnm->button_areas[area_above].x1 - col_gap &&
 670:Drivers/lvgl/src/widgets/lv_btnmatrix.c ****                        pr_center <= btnm->button_areas[area_above].x2 &&
 671:Drivers/lvgl/src/widgets/lv_btnmatrix.c ****                        button_is_inactive(btnm->ctrl_bits[area_above]) == false &&
 672:Drivers/lvgl/src/widgets/lv_btnmatrix.c ****                        button_is_hidden(btnm->ctrl_bits[area_above]) == false) {
 673:Drivers/lvgl/src/widgets/lv_btnmatrix.c ****                         break;
 674:Drivers/lvgl/src/widgets/lv_btnmatrix.c ****                     }
 675:Drivers/lvgl/src/widgets/lv_btnmatrix.c ****                 }
 676:Drivers/lvgl/src/widgets/lv_btnmatrix.c ****                 if(area_above >= 0) btnm->btn_id_sel = area_above;
 677:Drivers/lvgl/src/widgets/lv_btnmatrix.c ****             }
 678:Drivers/lvgl/src/widgets/lv_btnmatrix.c ****         }
 679:Drivers/lvgl/src/widgets/lv_btnmatrix.c **** 
 680:Drivers/lvgl/src/widgets/lv_btnmatrix.c ****         invalidate_button_area(obj, btnm->btn_id_sel);
 681:Drivers/lvgl/src/widgets/lv_btnmatrix.c ****     }
 682:Drivers/lvgl/src/widgets/lv_btnmatrix.c ****     else if(code == LV_EVENT_DRAW_MAIN) {
 683:Drivers/lvgl/src/widgets/lv_btnmatrix.c ****         draw_main(e);
 684:Drivers/lvgl/src/widgets/lv_btnmatrix.c ****     }
 685:Drivers/lvgl/src/widgets/lv_btnmatrix.c **** 
 686:Drivers/lvgl/src/widgets/lv_btnmatrix.c **** }
 687:Drivers/lvgl/src/widgets/lv_btnmatrix.c **** 
 688:Drivers/lvgl/src/widgets/lv_btnmatrix.c **** static void draw_main(lv_event_t * e)
 689:Drivers/lvgl/src/widgets/lv_btnmatrix.c **** {
 690:Drivers/lvgl/src/widgets/lv_btnmatrix.c ****     lv_obj_t * obj = lv_event_get_target(e);
 691:Drivers/lvgl/src/widgets/lv_btnmatrix.c ****     lv_btnmatrix_t * btnm = (lv_btnmatrix_t *)obj;
 692:Drivers/lvgl/src/widgets/lv_btnmatrix.c ****     if(btnm->btn_cnt == 0) return;
 693:Drivers/lvgl/src/widgets/lv_btnmatrix.c **** 
 694:Drivers/lvgl/src/widgets/lv_btnmatrix.c ****     lv_draw_ctx_t * draw_ctx = lv_event_get_draw_ctx(e);
 695:Drivers/lvgl/src/widgets/lv_btnmatrix.c ****     obj->skip_trans = 1;
 696:Drivers/lvgl/src/widgets/lv_btnmatrix.c **** 
 697:Drivers/lvgl/src/widgets/lv_btnmatrix.c ****     lv_area_t area_obj;
 698:Drivers/lvgl/src/widgets/lv_btnmatrix.c ****     lv_obj_get_coords(obj, &area_obj);
 699:Drivers/lvgl/src/widgets/lv_btnmatrix.c **** 
 700:Drivers/lvgl/src/widgets/lv_btnmatrix.c ****     lv_area_t btn_area;
 701:Drivers/lvgl/src/widgets/lv_btnmatrix.c **** 
 702:Drivers/lvgl/src/widgets/lv_btnmatrix.c ****     uint16_t btn_i = 0;
 703:Drivers/lvgl/src/widgets/lv_btnmatrix.c ****     uint16_t txt_i = 0;
 704:Drivers/lvgl/src/widgets/lv_btnmatrix.c **** 
 705:Drivers/lvgl/src/widgets/lv_btnmatrix.c ****     lv_draw_rect_dsc_t draw_rect_dsc_act;
 706:Drivers/lvgl/src/widgets/lv_btnmatrix.c ****     lv_draw_label_dsc_t draw_label_dsc_act;
 707:Drivers/lvgl/src/widgets/lv_btnmatrix.c **** 
 708:Drivers/lvgl/src/widgets/lv_btnmatrix.c ****     lv_draw_rect_dsc_t draw_rect_dsc_def;
 709:Drivers/lvgl/src/widgets/lv_btnmatrix.c ****     lv_draw_label_dsc_t draw_label_dsc_def;
 710:Drivers/lvgl/src/widgets/lv_btnmatrix.c **** 
 711:Drivers/lvgl/src/widgets/lv_btnmatrix.c ****     lv_state_t state_ori = obj->state;
 712:Drivers/lvgl/src/widgets/lv_btnmatrix.c ****     obj->state = LV_STATE_DEFAULT;
 713:Drivers/lvgl/src/widgets/lv_btnmatrix.c ****     obj->skip_trans = 1;
 714:Drivers/lvgl/src/widgets/lv_btnmatrix.c ****     lv_draw_rect_dsc_init(&draw_rect_dsc_def);
 715:Drivers/lvgl/src/widgets/lv_btnmatrix.c ****     lv_draw_label_dsc_init(&draw_label_dsc_def);
ARM GAS  /var/folders/0z/tsy30v1j4xl4_7kw94k978ww0000gn/T//ccyrzG1p.s 			page 14


 716:Drivers/lvgl/src/widgets/lv_btnmatrix.c ****     lv_obj_init_draw_rect_dsc(obj, LV_PART_ITEMS, &draw_rect_dsc_def);
 717:Drivers/lvgl/src/widgets/lv_btnmatrix.c ****     lv_obj_init_draw_label_dsc(obj, LV_PART_ITEMS, &draw_label_dsc_def);
 718:Drivers/lvgl/src/widgets/lv_btnmatrix.c ****     obj->skip_trans = 0;
 719:Drivers/lvgl/src/widgets/lv_btnmatrix.c ****     obj->state = state_ori;
 720:Drivers/lvgl/src/widgets/lv_btnmatrix.c **** 
 721:Drivers/lvgl/src/widgets/lv_btnmatrix.c ****     lv_coord_t ptop = lv_obj_get_style_pad_top(obj, LV_PART_MAIN);
 722:Drivers/lvgl/src/widgets/lv_btnmatrix.c ****     lv_coord_t pbottom = lv_obj_get_style_pad_bottom(obj, LV_PART_MAIN);
 723:Drivers/lvgl/src/widgets/lv_btnmatrix.c ****     lv_coord_t pleft = lv_obj_get_style_pad_left(obj, LV_PART_MAIN);
 724:Drivers/lvgl/src/widgets/lv_btnmatrix.c ****     lv_coord_t pright = lv_obj_get_style_pad_right(obj, LV_PART_MAIN);
 725:Drivers/lvgl/src/widgets/lv_btnmatrix.c **** 
 726:Drivers/lvgl/src/widgets/lv_btnmatrix.c **** #if LV_USE_ARABIC_PERSIAN_CHARS
 727:Drivers/lvgl/src/widgets/lv_btnmatrix.c ****     const size_t txt_ap_size = 256 ;
 728:Drivers/lvgl/src/widgets/lv_btnmatrix.c ****     char * txt_ap = lv_mem_buf_get(txt_ap_size);
 729:Drivers/lvgl/src/widgets/lv_btnmatrix.c **** #endif
 730:Drivers/lvgl/src/widgets/lv_btnmatrix.c **** 
 731:Drivers/lvgl/src/widgets/lv_btnmatrix.c ****     lv_obj_draw_part_dsc_t part_draw_dsc;
 732:Drivers/lvgl/src/widgets/lv_btnmatrix.c ****     lv_obj_draw_dsc_init(&part_draw_dsc, draw_ctx);
 733:Drivers/lvgl/src/widgets/lv_btnmatrix.c ****     part_draw_dsc.part = LV_PART_ITEMS;
 734:Drivers/lvgl/src/widgets/lv_btnmatrix.c ****     part_draw_dsc.class_p = MY_CLASS;
 735:Drivers/lvgl/src/widgets/lv_btnmatrix.c ****     part_draw_dsc.type = LV_BTNMATRIX_DRAW_PART_BTN;
 736:Drivers/lvgl/src/widgets/lv_btnmatrix.c ****     part_draw_dsc.rect_dsc = &draw_rect_dsc_act;
 737:Drivers/lvgl/src/widgets/lv_btnmatrix.c ****     part_draw_dsc.label_dsc = &draw_label_dsc_act;
 738:Drivers/lvgl/src/widgets/lv_btnmatrix.c **** 
 739:Drivers/lvgl/src/widgets/lv_btnmatrix.c ****     for(btn_i = 0; btn_i < btnm->btn_cnt; btn_i++, txt_i++) {
 740:Drivers/lvgl/src/widgets/lv_btnmatrix.c ****         /*Search the next valid text in the map*/
 741:Drivers/lvgl/src/widgets/lv_btnmatrix.c ****         while(strcmp(btnm->map_p[txt_i], "\n") == 0) {
 742:Drivers/lvgl/src/widgets/lv_btnmatrix.c ****             txt_i++;
 743:Drivers/lvgl/src/widgets/lv_btnmatrix.c ****         }
 744:Drivers/lvgl/src/widgets/lv_btnmatrix.c **** 
 745:Drivers/lvgl/src/widgets/lv_btnmatrix.c ****         /*Skip hidden buttons*/
 746:Drivers/lvgl/src/widgets/lv_btnmatrix.c ****         if(button_is_hidden(btnm->ctrl_bits[btn_i])) continue;
 747:Drivers/lvgl/src/widgets/lv_btnmatrix.c **** 
 748:Drivers/lvgl/src/widgets/lv_btnmatrix.c ****         /*Get the state of the button*/
 749:Drivers/lvgl/src/widgets/lv_btnmatrix.c ****         lv_state_t btn_state = LV_STATE_DEFAULT;
 750:Drivers/lvgl/src/widgets/lv_btnmatrix.c ****         if(button_get_checked(btnm->ctrl_bits[btn_i])) btn_state |= LV_STATE_CHECKED;
 751:Drivers/lvgl/src/widgets/lv_btnmatrix.c **** 
 752:Drivers/lvgl/src/widgets/lv_btnmatrix.c ****         if(button_is_inactive(btnm->ctrl_bits[btn_i])) btn_state |= LV_STATE_DISABLED;
 753:Drivers/lvgl/src/widgets/lv_btnmatrix.c ****         else if(btn_i == btnm->btn_id_sel) {
 754:Drivers/lvgl/src/widgets/lv_btnmatrix.c ****             if(state_ori & LV_STATE_PRESSED) btn_state |= LV_STATE_PRESSED;
 755:Drivers/lvgl/src/widgets/lv_btnmatrix.c ****             if(state_ori & LV_STATE_FOCUSED) btn_state |= LV_STATE_FOCUSED;
 756:Drivers/lvgl/src/widgets/lv_btnmatrix.c ****             if(state_ori & LV_STATE_FOCUS_KEY) btn_state |= LV_STATE_FOCUS_KEY;
 757:Drivers/lvgl/src/widgets/lv_btnmatrix.c ****             if(state_ori & LV_STATE_EDITED) btn_state |= LV_STATE_EDITED;
 758:Drivers/lvgl/src/widgets/lv_btnmatrix.c ****         }
 759:Drivers/lvgl/src/widgets/lv_btnmatrix.c **** 
 760:Drivers/lvgl/src/widgets/lv_btnmatrix.c ****         /*Get the button's area*/
 761:Drivers/lvgl/src/widgets/lv_btnmatrix.c ****         lv_area_copy(&btn_area, &btnm->button_areas[btn_i]);
 762:Drivers/lvgl/src/widgets/lv_btnmatrix.c ****         btn_area.x1 += area_obj.x1;
 763:Drivers/lvgl/src/widgets/lv_btnmatrix.c ****         btn_area.y1 += area_obj.y1;
 764:Drivers/lvgl/src/widgets/lv_btnmatrix.c ****         btn_area.x2 += area_obj.x1;
 765:Drivers/lvgl/src/widgets/lv_btnmatrix.c ****         btn_area.y2 += area_obj.y1;
 766:Drivers/lvgl/src/widgets/lv_btnmatrix.c **** 
 767:Drivers/lvgl/src/widgets/lv_btnmatrix.c ****         /*Set up the draw descriptors*/
 768:Drivers/lvgl/src/widgets/lv_btnmatrix.c ****         if(btn_state == LV_STATE_DEFAULT) {
 769:Drivers/lvgl/src/widgets/lv_btnmatrix.c ****             lv_memcpy(&draw_rect_dsc_act, &draw_rect_dsc_def, sizeof(lv_draw_rect_dsc_t));
 770:Drivers/lvgl/src/widgets/lv_btnmatrix.c ****             lv_memcpy(&draw_label_dsc_act, &draw_label_dsc_def, sizeof(lv_draw_label_dsc_t));
 771:Drivers/lvgl/src/widgets/lv_btnmatrix.c ****         }
 772:Drivers/lvgl/src/widgets/lv_btnmatrix.c ****         /*In other cases get the styles directly without caching them*/
ARM GAS  /var/folders/0z/tsy30v1j4xl4_7kw94k978ww0000gn/T//ccyrzG1p.s 			page 15


 773:Drivers/lvgl/src/widgets/lv_btnmatrix.c ****         else {
 774:Drivers/lvgl/src/widgets/lv_btnmatrix.c ****             obj->state = btn_state;
 775:Drivers/lvgl/src/widgets/lv_btnmatrix.c ****             obj->skip_trans = 1;
 776:Drivers/lvgl/src/widgets/lv_btnmatrix.c ****             lv_draw_rect_dsc_init(&draw_rect_dsc_act);
 777:Drivers/lvgl/src/widgets/lv_btnmatrix.c ****             lv_draw_label_dsc_init(&draw_label_dsc_act);
 778:Drivers/lvgl/src/widgets/lv_btnmatrix.c ****             lv_obj_init_draw_rect_dsc(obj, LV_PART_ITEMS, &draw_rect_dsc_act);
 779:Drivers/lvgl/src/widgets/lv_btnmatrix.c ****             lv_obj_init_draw_label_dsc(obj, LV_PART_ITEMS, &draw_label_dsc_act);
 780:Drivers/lvgl/src/widgets/lv_btnmatrix.c ****             obj->state = state_ori;
 781:Drivers/lvgl/src/widgets/lv_btnmatrix.c ****             obj->skip_trans = 0;
 782:Drivers/lvgl/src/widgets/lv_btnmatrix.c ****         }
 783:Drivers/lvgl/src/widgets/lv_btnmatrix.c **** 
 784:Drivers/lvgl/src/widgets/lv_btnmatrix.c ****         bool recolor = button_is_recolor(btnm->ctrl_bits[btn_i]);
 785:Drivers/lvgl/src/widgets/lv_btnmatrix.c ****         if(recolor) draw_label_dsc_act.flag |= LV_TEXT_FLAG_RECOLOR;
 786:Drivers/lvgl/src/widgets/lv_btnmatrix.c ****         else draw_label_dsc_act.flag &= ~LV_TEXT_FLAG_RECOLOR;
 787:Drivers/lvgl/src/widgets/lv_btnmatrix.c **** 
 788:Drivers/lvgl/src/widgets/lv_btnmatrix.c **** 
 789:Drivers/lvgl/src/widgets/lv_btnmatrix.c ****         part_draw_dsc.draw_area = &btn_area;
 790:Drivers/lvgl/src/widgets/lv_btnmatrix.c ****         part_draw_dsc.id = btn_i;
 791:Drivers/lvgl/src/widgets/lv_btnmatrix.c ****         lv_event_send(obj, LV_EVENT_DRAW_PART_BEGIN, &part_draw_dsc);
 792:Drivers/lvgl/src/widgets/lv_btnmatrix.c **** 
 793:Drivers/lvgl/src/widgets/lv_btnmatrix.c ****         /*Remove borders on the edges if `LV_BORDER_SIDE_INTERNAL`*/
 794:Drivers/lvgl/src/widgets/lv_btnmatrix.c ****         if(draw_rect_dsc_act.border_side & LV_BORDER_SIDE_INTERNAL) {
 795:Drivers/lvgl/src/widgets/lv_btnmatrix.c ****             draw_rect_dsc_act.border_side = LV_BORDER_SIDE_FULL;
 796:Drivers/lvgl/src/widgets/lv_btnmatrix.c ****             if(btn_area.x1 == obj->coords.x1 + pleft) draw_rect_dsc_act.border_side &= ~LV_BORDER_S
 797:Drivers/lvgl/src/widgets/lv_btnmatrix.c ****             if(btn_area.x2 == obj->coords.x2 - pright) draw_rect_dsc_act.border_side &= ~LV_BORDER_
 798:Drivers/lvgl/src/widgets/lv_btnmatrix.c ****             if(btn_area.y1 == obj->coords.y1 + ptop) draw_rect_dsc_act.border_side &= ~LV_BORDER_SI
 799:Drivers/lvgl/src/widgets/lv_btnmatrix.c ****             if(btn_area.y2 == obj->coords.y2 - pbottom) draw_rect_dsc_act.border_side &= ~LV_BORDER
 800:Drivers/lvgl/src/widgets/lv_btnmatrix.c ****         }
 801:Drivers/lvgl/src/widgets/lv_btnmatrix.c **** 
 802:Drivers/lvgl/src/widgets/lv_btnmatrix.c ****         lv_coord_t btn_height = lv_area_get_height(&btn_area);
 803:Drivers/lvgl/src/widgets/lv_btnmatrix.c **** 
 804:Drivers/lvgl/src/widgets/lv_btnmatrix.c ****         if((btn_state & LV_STATE_PRESSED) && (btnm->ctrl_bits[btn_i] & LV_BTNMATRIX_CTRL_POPOVER)) 
 805:Drivers/lvgl/src/widgets/lv_btnmatrix.c ****             /*Push up the upper boundary of the btn area to create the popover*/
 806:Drivers/lvgl/src/widgets/lv_btnmatrix.c ****             btn_area.y1 -= btn_height;
 807:Drivers/lvgl/src/widgets/lv_btnmatrix.c ****         }
 808:Drivers/lvgl/src/widgets/lv_btnmatrix.c **** 
 809:Drivers/lvgl/src/widgets/lv_btnmatrix.c ****         /*Draw the background*/
 810:Drivers/lvgl/src/widgets/lv_btnmatrix.c ****         lv_draw_rect(draw_ctx, &draw_rect_dsc_act, &btn_area);
 811:Drivers/lvgl/src/widgets/lv_btnmatrix.c **** 
 812:Drivers/lvgl/src/widgets/lv_btnmatrix.c ****         /*Calculate the size of the text*/
 813:Drivers/lvgl/src/widgets/lv_btnmatrix.c ****         const lv_font_t * font = draw_label_dsc_act.font;
 814:Drivers/lvgl/src/widgets/lv_btnmatrix.c ****         lv_coord_t letter_space = draw_label_dsc_act.letter_space;
 815:Drivers/lvgl/src/widgets/lv_btnmatrix.c ****         lv_coord_t line_space = draw_label_dsc_act.line_space;
 816:Drivers/lvgl/src/widgets/lv_btnmatrix.c ****         const char * txt = btnm->map_p[txt_i];
 817:Drivers/lvgl/src/widgets/lv_btnmatrix.c **** 
 818:Drivers/lvgl/src/widgets/lv_btnmatrix.c **** #if LV_USE_ARABIC_PERSIAN_CHARS
 819:Drivers/lvgl/src/widgets/lv_btnmatrix.c ****         /*Get the size of the Arabic text and process it*/
 820:Drivers/lvgl/src/widgets/lv_btnmatrix.c ****         size_t len_ap = _lv_txt_ap_calc_bytes_cnt(txt);
 821:Drivers/lvgl/src/widgets/lv_btnmatrix.c ****         if(len_ap < txt_ap_size) {
 822:Drivers/lvgl/src/widgets/lv_btnmatrix.c ****             _lv_txt_ap_proc(txt, txt_ap);
 823:Drivers/lvgl/src/widgets/lv_btnmatrix.c ****             txt = txt_ap;
 824:Drivers/lvgl/src/widgets/lv_btnmatrix.c ****         }
 825:Drivers/lvgl/src/widgets/lv_btnmatrix.c **** #endif
 826:Drivers/lvgl/src/widgets/lv_btnmatrix.c ****         lv_point_t txt_size;
 827:Drivers/lvgl/src/widgets/lv_btnmatrix.c ****         lv_txt_get_size(&txt_size, txt, font, letter_space,
 828:Drivers/lvgl/src/widgets/lv_btnmatrix.c ****                         line_space, lv_area_get_width(&area_obj), draw_label_dsc_act.flag);
 829:Drivers/lvgl/src/widgets/lv_btnmatrix.c **** 
ARM GAS  /var/folders/0z/tsy30v1j4xl4_7kw94k978ww0000gn/T//ccyrzG1p.s 			page 16


 830:Drivers/lvgl/src/widgets/lv_btnmatrix.c ****         btn_area.x1 += (lv_area_get_width(&btn_area) - txt_size.x) / 2;
 831:Drivers/lvgl/src/widgets/lv_btnmatrix.c ****         btn_area.y1 += (lv_area_get_height(&btn_area) - txt_size.y) / 2;
 832:Drivers/lvgl/src/widgets/lv_btnmatrix.c ****         btn_area.x2 = btn_area.x1 + txt_size.x;
 833:Drivers/lvgl/src/widgets/lv_btnmatrix.c ****         btn_area.y2 = btn_area.y1 + txt_size.y;
 834:Drivers/lvgl/src/widgets/lv_btnmatrix.c **** 
 835:Drivers/lvgl/src/widgets/lv_btnmatrix.c ****         if((btn_state & LV_STATE_PRESSED) && (btnm->ctrl_bits[btn_i] & LV_BTNMATRIX_CTRL_POPOVER)) 
 836:Drivers/lvgl/src/widgets/lv_btnmatrix.c ****             /*Push up the button text into the popover*/
 837:Drivers/lvgl/src/widgets/lv_btnmatrix.c ****             btn_area.y1 -= btn_height / 2;
 838:Drivers/lvgl/src/widgets/lv_btnmatrix.c ****             btn_area.y2 -= btn_height / 2;
 839:Drivers/lvgl/src/widgets/lv_btnmatrix.c ****         }
 840:Drivers/lvgl/src/widgets/lv_btnmatrix.c **** 
 841:Drivers/lvgl/src/widgets/lv_btnmatrix.c ****         /*Draw the text*/
 842:Drivers/lvgl/src/widgets/lv_btnmatrix.c ****         lv_draw_label(draw_ctx, &draw_label_dsc_act, &btn_area, txt, NULL);
 843:Drivers/lvgl/src/widgets/lv_btnmatrix.c **** 
 844:Drivers/lvgl/src/widgets/lv_btnmatrix.c ****         lv_event_send(obj, LV_EVENT_DRAW_PART_END, &part_draw_dsc);
 845:Drivers/lvgl/src/widgets/lv_btnmatrix.c ****     }
 846:Drivers/lvgl/src/widgets/lv_btnmatrix.c **** 
 847:Drivers/lvgl/src/widgets/lv_btnmatrix.c ****     obj->skip_trans = 0;
 848:Drivers/lvgl/src/widgets/lv_btnmatrix.c **** #if LV_USE_ARABIC_PERSIAN_CHARS
 849:Drivers/lvgl/src/widgets/lv_btnmatrix.c ****     lv_mem_buf_release(txt_ap);
 850:Drivers/lvgl/src/widgets/lv_btnmatrix.c **** #endif
 851:Drivers/lvgl/src/widgets/lv_btnmatrix.c **** }
 852:Drivers/lvgl/src/widgets/lv_btnmatrix.c **** /**
 853:Drivers/lvgl/src/widgets/lv_btnmatrix.c ****  * Create the required number of buttons and control bytes according to a map
 854:Drivers/lvgl/src/widgets/lv_btnmatrix.c ****  * @param obj pointer to button matrix object
 855:Drivers/lvgl/src/widgets/lv_btnmatrix.c ****  * @param map_p pointer to a string array
 856:Drivers/lvgl/src/widgets/lv_btnmatrix.c ****  */
 857:Drivers/lvgl/src/widgets/lv_btnmatrix.c **** static void allocate_btn_areas_and_controls(const lv_obj_t * obj, const char ** map)
 858:Drivers/lvgl/src/widgets/lv_btnmatrix.c **** {
 859:Drivers/lvgl/src/widgets/lv_btnmatrix.c ****     lv_btnmatrix_t * btnm = (lv_btnmatrix_t *)obj;
 860:Drivers/lvgl/src/widgets/lv_btnmatrix.c ****     btnm->row_cnt = 1;
 861:Drivers/lvgl/src/widgets/lv_btnmatrix.c ****     /*Count the buttons in the map*/
 862:Drivers/lvgl/src/widgets/lv_btnmatrix.c ****     uint16_t btn_cnt = 0;
 863:Drivers/lvgl/src/widgets/lv_btnmatrix.c ****     uint16_t i       = 0;
 864:Drivers/lvgl/src/widgets/lv_btnmatrix.c ****     while(map[i] && map[i][0] != '\0') {
 865:Drivers/lvgl/src/widgets/lv_btnmatrix.c ****         if(strcmp(map[i], "\n") != 0) { /*Do not count line breaks*/
 866:Drivers/lvgl/src/widgets/lv_btnmatrix.c ****             btn_cnt++;
 867:Drivers/lvgl/src/widgets/lv_btnmatrix.c ****         }
 868:Drivers/lvgl/src/widgets/lv_btnmatrix.c ****         else {
 869:Drivers/lvgl/src/widgets/lv_btnmatrix.c ****             btnm->row_cnt++;
 870:Drivers/lvgl/src/widgets/lv_btnmatrix.c ****         }
 871:Drivers/lvgl/src/widgets/lv_btnmatrix.c ****         i++;
 872:Drivers/lvgl/src/widgets/lv_btnmatrix.c ****     }
 873:Drivers/lvgl/src/widgets/lv_btnmatrix.c **** 
 874:Drivers/lvgl/src/widgets/lv_btnmatrix.c ****     /*Do not allocate memory for the same amount of buttons*/
 875:Drivers/lvgl/src/widgets/lv_btnmatrix.c ****     if(btn_cnt == btnm->btn_cnt) return;
 876:Drivers/lvgl/src/widgets/lv_btnmatrix.c **** 
 877:Drivers/lvgl/src/widgets/lv_btnmatrix.c ****     if(btnm->button_areas != NULL) {
 878:Drivers/lvgl/src/widgets/lv_btnmatrix.c ****         lv_mem_free(btnm->button_areas);
 879:Drivers/lvgl/src/widgets/lv_btnmatrix.c ****         btnm->button_areas = NULL;
 880:Drivers/lvgl/src/widgets/lv_btnmatrix.c ****     }
 881:Drivers/lvgl/src/widgets/lv_btnmatrix.c ****     if(btnm->ctrl_bits != NULL) {
 882:Drivers/lvgl/src/widgets/lv_btnmatrix.c ****         lv_mem_free(btnm->ctrl_bits);
 883:Drivers/lvgl/src/widgets/lv_btnmatrix.c ****         btnm->ctrl_bits = NULL;
 884:Drivers/lvgl/src/widgets/lv_btnmatrix.c ****     }
 885:Drivers/lvgl/src/widgets/lv_btnmatrix.c **** 
 886:Drivers/lvgl/src/widgets/lv_btnmatrix.c ****     btnm->button_areas = lv_mem_alloc(sizeof(lv_area_t) * btn_cnt);
ARM GAS  /var/folders/0z/tsy30v1j4xl4_7kw94k978ww0000gn/T//ccyrzG1p.s 			page 17


 887:Drivers/lvgl/src/widgets/lv_btnmatrix.c ****     LV_ASSERT_MALLOC(btnm->button_areas);
 888:Drivers/lvgl/src/widgets/lv_btnmatrix.c ****     btnm->ctrl_bits = lv_mem_alloc(sizeof(lv_btnmatrix_ctrl_t) * btn_cnt);
 889:Drivers/lvgl/src/widgets/lv_btnmatrix.c ****     LV_ASSERT_MALLOC(btnm->ctrl_bits);
 890:Drivers/lvgl/src/widgets/lv_btnmatrix.c ****     if(btnm->button_areas == NULL || btnm->ctrl_bits == NULL) btn_cnt = 0;
 891:Drivers/lvgl/src/widgets/lv_btnmatrix.c **** 
 892:Drivers/lvgl/src/widgets/lv_btnmatrix.c ****     lv_memset_00(btnm->ctrl_bits, sizeof(lv_btnmatrix_ctrl_t) * btn_cnt);
 893:Drivers/lvgl/src/widgets/lv_btnmatrix.c **** 
 894:Drivers/lvgl/src/widgets/lv_btnmatrix.c ****     btnm->btn_cnt = btn_cnt;
 895:Drivers/lvgl/src/widgets/lv_btnmatrix.c **** }
 896:Drivers/lvgl/src/widgets/lv_btnmatrix.c **** 
 897:Drivers/lvgl/src/widgets/lv_btnmatrix.c **** /**
 898:Drivers/lvgl/src/widgets/lv_btnmatrix.c ****  * Get the width of a button in units (default is 1).
 899:Drivers/lvgl/src/widgets/lv_btnmatrix.c ****  * @param ctrl_bits least significant 3 bits used (1..7 valid values)
 900:Drivers/lvgl/src/widgets/lv_btnmatrix.c ****  * @return the width of the button in units
 901:Drivers/lvgl/src/widgets/lv_btnmatrix.c ****  */
 902:Drivers/lvgl/src/widgets/lv_btnmatrix.c **** static uint8_t get_button_width(lv_btnmatrix_ctrl_t ctrl_bits)
 903:Drivers/lvgl/src/widgets/lv_btnmatrix.c **** {
 904:Drivers/lvgl/src/widgets/lv_btnmatrix.c ****     uint8_t w = ctrl_bits & LV_BTNMATRIX_WIDTH_MASK;
 905:Drivers/lvgl/src/widgets/lv_btnmatrix.c ****     return w != 0 ? w : 1;
 906:Drivers/lvgl/src/widgets/lv_btnmatrix.c **** }
 907:Drivers/lvgl/src/widgets/lv_btnmatrix.c **** 
 908:Drivers/lvgl/src/widgets/lv_btnmatrix.c **** static bool button_is_hidden(lv_btnmatrix_ctrl_t ctrl_bits)
 909:Drivers/lvgl/src/widgets/lv_btnmatrix.c **** {
 910:Drivers/lvgl/src/widgets/lv_btnmatrix.c ****     return (ctrl_bits & LV_BTNMATRIX_CTRL_HIDDEN) ? true : false;
 911:Drivers/lvgl/src/widgets/lv_btnmatrix.c **** }
 912:Drivers/lvgl/src/widgets/lv_btnmatrix.c **** 
 913:Drivers/lvgl/src/widgets/lv_btnmatrix.c **** static bool button_is_checked(lv_btnmatrix_ctrl_t ctrl_bits)
 914:Drivers/lvgl/src/widgets/lv_btnmatrix.c **** {
 915:Drivers/lvgl/src/widgets/lv_btnmatrix.c ****     return (ctrl_bits & LV_BTNMATRIX_CTRL_CHECKED) ? true : false;
 916:Drivers/lvgl/src/widgets/lv_btnmatrix.c **** }
 917:Drivers/lvgl/src/widgets/lv_btnmatrix.c **** 
 918:Drivers/lvgl/src/widgets/lv_btnmatrix.c **** static bool button_is_repeat_disabled(lv_btnmatrix_ctrl_t ctrl_bits)
 919:Drivers/lvgl/src/widgets/lv_btnmatrix.c **** {
 920:Drivers/lvgl/src/widgets/lv_btnmatrix.c ****     return (ctrl_bits & LV_BTNMATRIX_CTRL_NO_REPEAT) ? true : false;
 921:Drivers/lvgl/src/widgets/lv_btnmatrix.c **** }
 922:Drivers/lvgl/src/widgets/lv_btnmatrix.c **** 
 923:Drivers/lvgl/src/widgets/lv_btnmatrix.c **** static bool button_is_inactive(lv_btnmatrix_ctrl_t ctrl_bits)
 924:Drivers/lvgl/src/widgets/lv_btnmatrix.c **** {
 925:Drivers/lvgl/src/widgets/lv_btnmatrix.c ****     return (ctrl_bits & LV_BTNMATRIX_CTRL_DISABLED) ? true : false;
 926:Drivers/lvgl/src/widgets/lv_btnmatrix.c **** }
 927:Drivers/lvgl/src/widgets/lv_btnmatrix.c **** 
 928:Drivers/lvgl/src/widgets/lv_btnmatrix.c **** static bool button_is_click_trig(lv_btnmatrix_ctrl_t ctrl_bits)
 929:Drivers/lvgl/src/widgets/lv_btnmatrix.c **** {
 930:Drivers/lvgl/src/widgets/lv_btnmatrix.c ****     return (ctrl_bits & LV_BTNMATRIX_CTRL_CLICK_TRIG) ? true : false;
 931:Drivers/lvgl/src/widgets/lv_btnmatrix.c **** }
 932:Drivers/lvgl/src/widgets/lv_btnmatrix.c **** 
 933:Drivers/lvgl/src/widgets/lv_btnmatrix.c **** static bool button_is_popover(lv_btnmatrix_ctrl_t ctrl_bits)
 934:Drivers/lvgl/src/widgets/lv_btnmatrix.c **** {
 935:Drivers/lvgl/src/widgets/lv_btnmatrix.c ****     return (ctrl_bits & LV_BTNMATRIX_CTRL_POPOVER) ? true : false;
 936:Drivers/lvgl/src/widgets/lv_btnmatrix.c **** }
 937:Drivers/lvgl/src/widgets/lv_btnmatrix.c **** 
 938:Drivers/lvgl/src/widgets/lv_btnmatrix.c **** static bool button_is_checkable(lv_btnmatrix_ctrl_t ctrl_bits)
 939:Drivers/lvgl/src/widgets/lv_btnmatrix.c **** {
 940:Drivers/lvgl/src/widgets/lv_btnmatrix.c ****     return (ctrl_bits & LV_BTNMATRIX_CTRL_CHECKABLE) ? true : false;
 941:Drivers/lvgl/src/widgets/lv_btnmatrix.c **** }
 942:Drivers/lvgl/src/widgets/lv_btnmatrix.c **** 
 943:Drivers/lvgl/src/widgets/lv_btnmatrix.c **** static bool button_get_checked(lv_btnmatrix_ctrl_t ctrl_bits)
ARM GAS  /var/folders/0z/tsy30v1j4xl4_7kw94k978ww0000gn/T//ccyrzG1p.s 			page 18


 944:Drivers/lvgl/src/widgets/lv_btnmatrix.c **** {
 945:Drivers/lvgl/src/widgets/lv_btnmatrix.c ****     return (ctrl_bits & LV_BTNMATRIX_CTRL_CHECKED) ? true : false;
 946:Drivers/lvgl/src/widgets/lv_btnmatrix.c **** }
 947:Drivers/lvgl/src/widgets/lv_btnmatrix.c **** 
 948:Drivers/lvgl/src/widgets/lv_btnmatrix.c **** static bool button_is_recolor(lv_btnmatrix_ctrl_t ctrl_bits)
 949:Drivers/lvgl/src/widgets/lv_btnmatrix.c **** {
 950:Drivers/lvgl/src/widgets/lv_btnmatrix.c ****     return (ctrl_bits & LV_BTNMATRIX_CTRL_RECOLOR) ? true : false;
 951:Drivers/lvgl/src/widgets/lv_btnmatrix.c **** }
 952:Drivers/lvgl/src/widgets/lv_btnmatrix.c **** /**
 953:Drivers/lvgl/src/widgets/lv_btnmatrix.c ****  * Gives the button id of a button under a given point
 954:Drivers/lvgl/src/widgets/lv_btnmatrix.c ****  * @param obj pointer to a button matrix object
 955:Drivers/lvgl/src/widgets/lv_btnmatrix.c ****  * @param p a point with absolute coordinates
 956:Drivers/lvgl/src/widgets/lv_btnmatrix.c ****  * @return the id of the button or LV_BTNMATRIX_BTN_NONE.
 957:Drivers/lvgl/src/widgets/lv_btnmatrix.c ****  */
 958:Drivers/lvgl/src/widgets/lv_btnmatrix.c **** static uint16_t get_button_from_point(lv_obj_t * obj, lv_point_t * p)
 959:Drivers/lvgl/src/widgets/lv_btnmatrix.c **** {
  28              		.loc 1 959 1 view -0
  29              		.cfi_startproc
  30              		@ args = 0, pretend = 0, frame = 40
  31              		@ frame_needed = 0, uses_anonymous_args = 0
 960:Drivers/lvgl/src/widgets/lv_btnmatrix.c ****     lv_area_t obj_cords;
  32              		.loc 1 960 5 view .LVU1
 961:Drivers/lvgl/src/widgets/lv_btnmatrix.c ****     lv_area_t btn_area;
  33              		.loc 1 961 5 view .LVU2
 962:Drivers/lvgl/src/widgets/lv_btnmatrix.c ****     lv_btnmatrix_t * btnm = (lv_btnmatrix_t *)obj;;
  34              		.loc 1 962 5 view .LVU3
 959:Drivers/lvgl/src/widgets/lv_btnmatrix.c ****     lv_area_t obj_cords;
  35              		.loc 1 959 1 is_stmt 0 view .LVU4
  36 0000 2DE9F04F 		push	{r4, r5, r6, r7, r8, r9, r10, fp, lr}
  37              		.cfi_def_cfa_offset 36
  38              		.cfi_offset 4, -36
  39              		.cfi_offset 5, -32
  40              		.cfi_offset 6, -28
  41              		.cfi_offset 7, -24
  42              		.cfi_offset 8, -20
  43              		.cfi_offset 9, -16
  44              		.cfi_offset 10, -12
  45              		.cfi_offset 11, -8
  46              		.cfi_offset 14, -4
  47 0004 8BB0     		sub	sp, sp, #44
  48              		.cfi_def_cfa_offset 80
 959:Drivers/lvgl/src/widgets/lv_btnmatrix.c ****     lv_area_t obj_cords;
  49              		.loc 1 959 1 view .LVU5
  50 0006 8346     		mov	fp, r0
  51              	.LVL1:
  52              		.loc 1 962 51 is_stmt 1 view .LVU6
 963:Drivers/lvgl/src/widgets/lv_btnmatrix.c ****     uint16_t i;
  53              		.loc 1 963 5 view .LVU7
 964:Drivers/lvgl/src/widgets/lv_btnmatrix.c ****     lv_obj_get_coords(obj, &obj_cords);
  54              		.loc 1 964 5 view .LVU8
 959:Drivers/lvgl/src/widgets/lv_btnmatrix.c ****     lv_area_t obj_cords;
  55              		.loc 1 959 1 is_stmt 0 view .LVU9
  56 0008 8A46     		mov	r10, r1
  57              		.loc 1 964 5 view .LVU10
  58 000a 06A9     		add	r1, sp, #24
  59              	.LVL2:
  60              		.loc 1 964 5 view .LVU11
ARM GAS  /var/folders/0z/tsy30v1j4xl4_7kw94k978ww0000gn/T//ccyrzG1p.s 			page 19


  61 000c FFF7FEFF 		bl	lv_obj_get_coords
  62              	.LVL3:
 965:Drivers/lvgl/src/widgets/lv_btnmatrix.c **** 
 966:Drivers/lvgl/src/widgets/lv_btnmatrix.c ****     lv_coord_t w = lv_obj_get_width(obj);
  63              		.loc 1 966 5 is_stmt 1 view .LVU12
  64              		.loc 1 966 20 is_stmt 0 view .LVU13
  65 0010 5846     		mov	r0, fp
  66 0012 FFF7FEFF 		bl	lv_obj_get_width
  67              	.LVL4:
  68 0016 8046     		mov	r8, r0
 967:Drivers/lvgl/src/widgets/lv_btnmatrix.c ****     lv_coord_t h = lv_obj_get_height(obj);
  69              		.loc 1 967 20 view .LVU14
  70 0018 5846     		mov	r0, fp
  71              	.LVL5:
  72              		.loc 1 967 5 is_stmt 1 view .LVU15
  73              		.loc 1 967 20 is_stmt 0 view .LVU16
  74 001a FFF7FEFF 		bl	lv_obj_get_height
  75              	.LVL6:
  76              	.LBB258:
  77              	.LBB259:
  78              		.file 2 "Drivers/lvgl/src/widgets/../core/lv_obj_style_gen.h"
   1:Drivers/lvgl/src/widgets/../core/lv_obj_style_gen.h **** static inline lv_coord_t lv_obj_get_style_width(const struct _lv_obj_t * obj, uint32_t part)
   2:Drivers/lvgl/src/widgets/../core/lv_obj_style_gen.h **** {
   3:Drivers/lvgl/src/widgets/../core/lv_obj_style_gen.h ****     lv_style_value_t v = lv_obj_get_style_prop(obj, part, LV_STYLE_WIDTH);
   4:Drivers/lvgl/src/widgets/../core/lv_obj_style_gen.h ****     return (lv_coord_t)v.num;
   5:Drivers/lvgl/src/widgets/../core/lv_obj_style_gen.h **** }
   6:Drivers/lvgl/src/widgets/../core/lv_obj_style_gen.h **** 
   7:Drivers/lvgl/src/widgets/../core/lv_obj_style_gen.h **** static inline lv_coord_t lv_obj_get_style_min_width(const struct _lv_obj_t * obj, uint32_t part)
   8:Drivers/lvgl/src/widgets/../core/lv_obj_style_gen.h **** {
   9:Drivers/lvgl/src/widgets/../core/lv_obj_style_gen.h ****     lv_style_value_t v = lv_obj_get_style_prop(obj, part, LV_STYLE_MIN_WIDTH);
  10:Drivers/lvgl/src/widgets/../core/lv_obj_style_gen.h ****     return (lv_coord_t)v.num;
  11:Drivers/lvgl/src/widgets/../core/lv_obj_style_gen.h **** }
  12:Drivers/lvgl/src/widgets/../core/lv_obj_style_gen.h **** 
  13:Drivers/lvgl/src/widgets/../core/lv_obj_style_gen.h **** static inline lv_coord_t lv_obj_get_style_max_width(const struct _lv_obj_t * obj, uint32_t part)
  14:Drivers/lvgl/src/widgets/../core/lv_obj_style_gen.h **** {
  15:Drivers/lvgl/src/widgets/../core/lv_obj_style_gen.h ****     lv_style_value_t v = lv_obj_get_style_prop(obj, part, LV_STYLE_MAX_WIDTH);
  16:Drivers/lvgl/src/widgets/../core/lv_obj_style_gen.h ****     return (lv_coord_t)v.num;
  17:Drivers/lvgl/src/widgets/../core/lv_obj_style_gen.h **** }
  18:Drivers/lvgl/src/widgets/../core/lv_obj_style_gen.h **** 
  19:Drivers/lvgl/src/widgets/../core/lv_obj_style_gen.h **** static inline lv_coord_t lv_obj_get_style_height(const struct _lv_obj_t * obj, uint32_t part)
  20:Drivers/lvgl/src/widgets/../core/lv_obj_style_gen.h **** {
  21:Drivers/lvgl/src/widgets/../core/lv_obj_style_gen.h ****     lv_style_value_t v = lv_obj_get_style_prop(obj, part, LV_STYLE_HEIGHT);
  22:Drivers/lvgl/src/widgets/../core/lv_obj_style_gen.h ****     return (lv_coord_t)v.num;
  23:Drivers/lvgl/src/widgets/../core/lv_obj_style_gen.h **** }
  24:Drivers/lvgl/src/widgets/../core/lv_obj_style_gen.h **** 
  25:Drivers/lvgl/src/widgets/../core/lv_obj_style_gen.h **** static inline lv_coord_t lv_obj_get_style_min_height(const struct _lv_obj_t * obj, uint32_t part)
  26:Drivers/lvgl/src/widgets/../core/lv_obj_style_gen.h **** {
  27:Drivers/lvgl/src/widgets/../core/lv_obj_style_gen.h ****     lv_style_value_t v = lv_obj_get_style_prop(obj, part, LV_STYLE_MIN_HEIGHT);
  28:Drivers/lvgl/src/widgets/../core/lv_obj_style_gen.h ****     return (lv_coord_t)v.num;
  29:Drivers/lvgl/src/widgets/../core/lv_obj_style_gen.h **** }
  30:Drivers/lvgl/src/widgets/../core/lv_obj_style_gen.h **** 
  31:Drivers/lvgl/src/widgets/../core/lv_obj_style_gen.h **** static inline lv_coord_t lv_obj_get_style_max_height(const struct _lv_obj_t * obj, uint32_t part)
  32:Drivers/lvgl/src/widgets/../core/lv_obj_style_gen.h **** {
  33:Drivers/lvgl/src/widgets/../core/lv_obj_style_gen.h ****     lv_style_value_t v = lv_obj_get_style_prop(obj, part, LV_STYLE_MAX_HEIGHT);
  34:Drivers/lvgl/src/widgets/../core/lv_obj_style_gen.h ****     return (lv_coord_t)v.num;
  35:Drivers/lvgl/src/widgets/../core/lv_obj_style_gen.h **** }
  36:Drivers/lvgl/src/widgets/../core/lv_obj_style_gen.h **** 
ARM GAS  /var/folders/0z/tsy30v1j4xl4_7kw94k978ww0000gn/T//ccyrzG1p.s 			page 20


  37:Drivers/lvgl/src/widgets/../core/lv_obj_style_gen.h **** static inline lv_coord_t lv_obj_get_style_x(const struct _lv_obj_t * obj, uint32_t part)
  38:Drivers/lvgl/src/widgets/../core/lv_obj_style_gen.h **** {
  39:Drivers/lvgl/src/widgets/../core/lv_obj_style_gen.h ****     lv_style_value_t v = lv_obj_get_style_prop(obj, part, LV_STYLE_X);
  40:Drivers/lvgl/src/widgets/../core/lv_obj_style_gen.h ****     return (lv_coord_t)v.num;
  41:Drivers/lvgl/src/widgets/../core/lv_obj_style_gen.h **** }
  42:Drivers/lvgl/src/widgets/../core/lv_obj_style_gen.h **** 
  43:Drivers/lvgl/src/widgets/../core/lv_obj_style_gen.h **** static inline lv_coord_t lv_obj_get_style_y(const struct _lv_obj_t * obj, uint32_t part)
  44:Drivers/lvgl/src/widgets/../core/lv_obj_style_gen.h **** {
  45:Drivers/lvgl/src/widgets/../core/lv_obj_style_gen.h ****     lv_style_value_t v = lv_obj_get_style_prop(obj, part, LV_STYLE_Y);
  46:Drivers/lvgl/src/widgets/../core/lv_obj_style_gen.h ****     return (lv_coord_t)v.num;
  47:Drivers/lvgl/src/widgets/../core/lv_obj_style_gen.h **** }
  48:Drivers/lvgl/src/widgets/../core/lv_obj_style_gen.h **** 
  49:Drivers/lvgl/src/widgets/../core/lv_obj_style_gen.h **** static inline lv_align_t lv_obj_get_style_align(const struct _lv_obj_t * obj, uint32_t part)
  50:Drivers/lvgl/src/widgets/../core/lv_obj_style_gen.h **** {
  51:Drivers/lvgl/src/widgets/../core/lv_obj_style_gen.h ****     lv_style_value_t v = lv_obj_get_style_prop(obj, part, LV_STYLE_ALIGN);
  52:Drivers/lvgl/src/widgets/../core/lv_obj_style_gen.h ****     return (lv_align_t)v.num;
  53:Drivers/lvgl/src/widgets/../core/lv_obj_style_gen.h **** }
  54:Drivers/lvgl/src/widgets/../core/lv_obj_style_gen.h **** 
  55:Drivers/lvgl/src/widgets/../core/lv_obj_style_gen.h **** static inline lv_coord_t lv_obj_get_style_transform_width(const struct _lv_obj_t * obj, uint32_t pa
  56:Drivers/lvgl/src/widgets/../core/lv_obj_style_gen.h **** {
  57:Drivers/lvgl/src/widgets/../core/lv_obj_style_gen.h ****     lv_style_value_t v = lv_obj_get_style_prop(obj, part, LV_STYLE_TRANSFORM_WIDTH);
  58:Drivers/lvgl/src/widgets/../core/lv_obj_style_gen.h ****     return (lv_coord_t)v.num;
  59:Drivers/lvgl/src/widgets/../core/lv_obj_style_gen.h **** }
  60:Drivers/lvgl/src/widgets/../core/lv_obj_style_gen.h **** 
  61:Drivers/lvgl/src/widgets/../core/lv_obj_style_gen.h **** static inline lv_coord_t lv_obj_get_style_transform_height(const struct _lv_obj_t * obj, uint32_t p
  62:Drivers/lvgl/src/widgets/../core/lv_obj_style_gen.h **** {
  63:Drivers/lvgl/src/widgets/../core/lv_obj_style_gen.h ****     lv_style_value_t v = lv_obj_get_style_prop(obj, part, LV_STYLE_TRANSFORM_HEIGHT);
  64:Drivers/lvgl/src/widgets/../core/lv_obj_style_gen.h ****     return (lv_coord_t)v.num;
  65:Drivers/lvgl/src/widgets/../core/lv_obj_style_gen.h **** }
  66:Drivers/lvgl/src/widgets/../core/lv_obj_style_gen.h **** 
  67:Drivers/lvgl/src/widgets/../core/lv_obj_style_gen.h **** static inline lv_coord_t lv_obj_get_style_translate_x(const struct _lv_obj_t * obj, uint32_t part)
  68:Drivers/lvgl/src/widgets/../core/lv_obj_style_gen.h **** {
  69:Drivers/lvgl/src/widgets/../core/lv_obj_style_gen.h ****     lv_style_value_t v = lv_obj_get_style_prop(obj, part, LV_STYLE_TRANSLATE_X);
  70:Drivers/lvgl/src/widgets/../core/lv_obj_style_gen.h ****     return (lv_coord_t)v.num;
  71:Drivers/lvgl/src/widgets/../core/lv_obj_style_gen.h **** }
  72:Drivers/lvgl/src/widgets/../core/lv_obj_style_gen.h **** 
  73:Drivers/lvgl/src/widgets/../core/lv_obj_style_gen.h **** static inline lv_coord_t lv_obj_get_style_translate_y(const struct _lv_obj_t * obj, uint32_t part)
  74:Drivers/lvgl/src/widgets/../core/lv_obj_style_gen.h **** {
  75:Drivers/lvgl/src/widgets/../core/lv_obj_style_gen.h ****     lv_style_value_t v = lv_obj_get_style_prop(obj, part, LV_STYLE_TRANSLATE_Y);
  76:Drivers/lvgl/src/widgets/../core/lv_obj_style_gen.h ****     return (lv_coord_t)v.num;
  77:Drivers/lvgl/src/widgets/../core/lv_obj_style_gen.h **** }
  78:Drivers/lvgl/src/widgets/../core/lv_obj_style_gen.h **** 
  79:Drivers/lvgl/src/widgets/../core/lv_obj_style_gen.h **** static inline lv_coord_t lv_obj_get_style_transform_zoom(const struct _lv_obj_t * obj, uint32_t par
  80:Drivers/lvgl/src/widgets/../core/lv_obj_style_gen.h **** {
  81:Drivers/lvgl/src/widgets/../core/lv_obj_style_gen.h ****     lv_style_value_t v = lv_obj_get_style_prop(obj, part, LV_STYLE_TRANSFORM_ZOOM);
  82:Drivers/lvgl/src/widgets/../core/lv_obj_style_gen.h ****     return (lv_coord_t)v.num;
  83:Drivers/lvgl/src/widgets/../core/lv_obj_style_gen.h **** }
  84:Drivers/lvgl/src/widgets/../core/lv_obj_style_gen.h **** 
  85:Drivers/lvgl/src/widgets/../core/lv_obj_style_gen.h **** static inline lv_coord_t lv_obj_get_style_transform_angle(const struct _lv_obj_t * obj, uint32_t pa
  86:Drivers/lvgl/src/widgets/../core/lv_obj_style_gen.h **** {
  87:Drivers/lvgl/src/widgets/../core/lv_obj_style_gen.h ****     lv_style_value_t v = lv_obj_get_style_prop(obj, part, LV_STYLE_TRANSFORM_ANGLE);
  88:Drivers/lvgl/src/widgets/../core/lv_obj_style_gen.h ****     return (lv_coord_t)v.num;
  89:Drivers/lvgl/src/widgets/../core/lv_obj_style_gen.h **** }
  90:Drivers/lvgl/src/widgets/../core/lv_obj_style_gen.h **** 
  91:Drivers/lvgl/src/widgets/../core/lv_obj_style_gen.h **** static inline lv_coord_t lv_obj_get_style_transform_pivot_x(const struct _lv_obj_t * obj, uint32_t 
  92:Drivers/lvgl/src/widgets/../core/lv_obj_style_gen.h **** {
  93:Drivers/lvgl/src/widgets/../core/lv_obj_style_gen.h ****     lv_style_value_t v = lv_obj_get_style_prop(obj, part, LV_STYLE_TRANSFORM_PIVOT_X);
ARM GAS  /var/folders/0z/tsy30v1j4xl4_7kw94k978ww0000gn/T//ccyrzG1p.s 			page 21


  94:Drivers/lvgl/src/widgets/../core/lv_obj_style_gen.h ****     return (lv_coord_t)v.num;
  95:Drivers/lvgl/src/widgets/../core/lv_obj_style_gen.h **** }
  96:Drivers/lvgl/src/widgets/../core/lv_obj_style_gen.h **** 
  97:Drivers/lvgl/src/widgets/../core/lv_obj_style_gen.h **** static inline lv_coord_t lv_obj_get_style_transform_pivot_y(const struct _lv_obj_t * obj, uint32_t 
  98:Drivers/lvgl/src/widgets/../core/lv_obj_style_gen.h **** {
  99:Drivers/lvgl/src/widgets/../core/lv_obj_style_gen.h ****     lv_style_value_t v = lv_obj_get_style_prop(obj, part, LV_STYLE_TRANSFORM_PIVOT_Y);
 100:Drivers/lvgl/src/widgets/../core/lv_obj_style_gen.h ****     return (lv_coord_t)v.num;
 101:Drivers/lvgl/src/widgets/../core/lv_obj_style_gen.h **** }
 102:Drivers/lvgl/src/widgets/../core/lv_obj_style_gen.h **** 
 103:Drivers/lvgl/src/widgets/../core/lv_obj_style_gen.h **** static inline lv_coord_t lv_obj_get_style_pad_top(const struct _lv_obj_t * obj, uint32_t part)
 104:Drivers/lvgl/src/widgets/../core/lv_obj_style_gen.h **** {
 105:Drivers/lvgl/src/widgets/../core/lv_obj_style_gen.h ****     lv_style_value_t v = lv_obj_get_style_prop(obj, part, LV_STYLE_PAD_TOP);
 106:Drivers/lvgl/src/widgets/../core/lv_obj_style_gen.h ****     return (lv_coord_t)v.num;
 107:Drivers/lvgl/src/widgets/../core/lv_obj_style_gen.h **** }
 108:Drivers/lvgl/src/widgets/../core/lv_obj_style_gen.h **** 
 109:Drivers/lvgl/src/widgets/../core/lv_obj_style_gen.h **** static inline lv_coord_t lv_obj_get_style_pad_bottom(const struct _lv_obj_t * obj, uint32_t part)
 110:Drivers/lvgl/src/widgets/../core/lv_obj_style_gen.h **** {
 111:Drivers/lvgl/src/widgets/../core/lv_obj_style_gen.h ****     lv_style_value_t v = lv_obj_get_style_prop(obj, part, LV_STYLE_PAD_BOTTOM);
 112:Drivers/lvgl/src/widgets/../core/lv_obj_style_gen.h ****     return (lv_coord_t)v.num;
 113:Drivers/lvgl/src/widgets/../core/lv_obj_style_gen.h **** }
 114:Drivers/lvgl/src/widgets/../core/lv_obj_style_gen.h **** 
 115:Drivers/lvgl/src/widgets/../core/lv_obj_style_gen.h **** static inline lv_coord_t lv_obj_get_style_pad_left(const struct _lv_obj_t * obj, uint32_t part)
 116:Drivers/lvgl/src/widgets/../core/lv_obj_style_gen.h **** {
 117:Drivers/lvgl/src/widgets/../core/lv_obj_style_gen.h ****     lv_style_value_t v = lv_obj_get_style_prop(obj, part, LV_STYLE_PAD_LEFT);
  79              		.loc 2 117 26 view .LVU17
  80 001e 1222     		movs	r2, #18
  81 0020 0021     		movs	r1, #0
  82              	.LBE259:
  83              	.LBE258:
  84              		.loc 1 967 20 view .LVU18
  85 0022 0446     		mov	r4, r0
  86              	.LVL7:
 968:Drivers/lvgl/src/widgets/lv_btnmatrix.c ****     lv_coord_t pleft = lv_obj_get_style_pad_left(obj, LV_PART_MAIN);
  87              		.loc 1 968 5 is_stmt 1 view .LVU19
  88              	.LBB262:
  89              	.LBI258:
 115:Drivers/lvgl/src/widgets/../core/lv_obj_style_gen.h **** {
  90              		.loc 2 115 26 view .LVU20
  91              	.LBB260:
  92              		.loc 2 117 5 view .LVU21
  93              		.loc 2 117 26 is_stmt 0 view .LVU22
  94 0024 5846     		mov	r0, fp
  95 0026 FFF7FEFF 		bl	lv_obj_get_style_prop
  96              	.LVL8:
 118:Drivers/lvgl/src/widgets/../core/lv_obj_style_gen.h ****     return (lv_coord_t)v.num;
  97              		.loc 2 118 5 is_stmt 1 view .LVU23
  98              	.LBE260:
  99              	.LBE262:
 100              	.LBB263:
 101              	.LBB264:
 119:Drivers/lvgl/src/widgets/../core/lv_obj_style_gen.h **** }
 120:Drivers/lvgl/src/widgets/../core/lv_obj_style_gen.h **** 
 121:Drivers/lvgl/src/widgets/../core/lv_obj_style_gen.h **** static inline lv_coord_t lv_obj_get_style_pad_right(const struct _lv_obj_t * obj, uint32_t part)
 122:Drivers/lvgl/src/widgets/../core/lv_obj_style_gen.h **** {
 123:Drivers/lvgl/src/widgets/../core/lv_obj_style_gen.h ****     lv_style_value_t v = lv_obj_get_style_prop(obj, part, LV_STYLE_PAD_RIGHT);
 102              		.loc 2 123 26 is_stmt 0 view .LVU24
 103 002a 1322     		movs	r2, #19
ARM GAS  /var/folders/0z/tsy30v1j4xl4_7kw94k978ww0000gn/T//ccyrzG1p.s 			page 22


 104 002c 0021     		movs	r1, #0
 105              	.LBE264:
 106              	.LBE263:
 107              	.LBB266:
 108              	.LBB261:
 118:Drivers/lvgl/src/widgets/../core/lv_obj_style_gen.h ****     return (lv_coord_t)v.num;
 109              		.loc 2 118 12 view .LVU25
 110 002e 0FFA80F9 		sxth	r9, r0
 111              	.LVL9:
 118:Drivers/lvgl/src/widgets/../core/lv_obj_style_gen.h ****     return (lv_coord_t)v.num;
 112              		.loc 2 118 12 view .LVU26
 113              	.LBE261:
 114              	.LBE266:
 969:Drivers/lvgl/src/widgets/lv_btnmatrix.c ****     lv_coord_t pright = lv_obj_get_style_pad_right(obj, LV_PART_MAIN);
 115              		.loc 1 969 5 is_stmt 1 view .LVU27
 116              	.LBB267:
 117              	.LBI263:
 121:Drivers/lvgl/src/widgets/../core/lv_obj_style_gen.h **** {
 118              		.loc 2 121 26 view .LVU28
 119              	.LBB265:
 120              		.loc 2 123 5 view .LVU29
 121              		.loc 2 123 26 is_stmt 0 view .LVU30
 122 0032 5846     		mov	r0, fp
 123 0034 FFF7FEFF 		bl	lv_obj_get_style_prop
 124              	.LVL10:
 124:Drivers/lvgl/src/widgets/../core/lv_obj_style_gen.h ****     return (lv_coord_t)v.num;
 125              		.loc 2 124 5 is_stmt 1 view .LVU31
 126              		.loc 2 124 12 is_stmt 0 view .LVU32
 127 0038 00B2     		sxth	r0, r0
 128              	.LVL11:
 129              		.loc 2 124 12 view .LVU33
 130              	.LBE265:
 131              	.LBE267:
 970:Drivers/lvgl/src/widgets/lv_btnmatrix.c ****     lv_coord_t ptop = lv_obj_get_style_pad_top(obj, LV_PART_MAIN);
 132              		.loc 1 970 5 is_stmt 1 view .LVU34
 133              	.LBB268:
 134              	.LBI268:
 103:Drivers/lvgl/src/widgets/../core/lv_obj_style_gen.h **** {
 135              		.loc 2 103 26 view .LVU35
 136              	.LBB269:
 105:Drivers/lvgl/src/widgets/../core/lv_obj_style_gen.h ****     return (lv_coord_t)v.num;
 137              		.loc 2 105 5 view .LVU36
 138              	.LBE269:
 139              	.LBE268:
 971:Drivers/lvgl/src/widgets/lv_btnmatrix.c ****     lv_coord_t pbottom = lv_obj_get_style_pad_bottom(obj, LV_PART_MAIN);
 972:Drivers/lvgl/src/widgets/lv_btnmatrix.c ****     lv_coord_t prow = lv_obj_get_style_pad_row(obj, LV_PART_MAIN);
 973:Drivers/lvgl/src/widgets/lv_btnmatrix.c ****     lv_coord_t pcol = lv_obj_get_style_pad_column(obj, LV_PART_MAIN);
 974:Drivers/lvgl/src/widgets/lv_btnmatrix.c **** 
 975:Drivers/lvgl/src/widgets/lv_btnmatrix.c ****     /*Get the half gap. Button look larger with this value. (+1 for rounding error)*/
 976:Drivers/lvgl/src/widgets/lv_btnmatrix.c ****     prow = (prow / 2) + 1 + (prow & 1);
 977:Drivers/lvgl/src/widgets/lv_btnmatrix.c ****     pcol = (pcol / 2) + 1 + (pcol & 1);
 978:Drivers/lvgl/src/widgets/lv_btnmatrix.c **** 
 979:Drivers/lvgl/src/widgets/lv_btnmatrix.c ****     prow = LV_MIN(prow, BTN_EXTRA_CLICK_AREA_MAX);
 980:Drivers/lvgl/src/widgets/lv_btnmatrix.c ****     pcol = LV_MIN(pcol, BTN_EXTRA_CLICK_AREA_MAX);
 981:Drivers/lvgl/src/widgets/lv_btnmatrix.c ****     pright = LV_MIN(pright, BTN_EXTRA_CLICK_AREA_MAX);
 140              		.loc 1 981 12 is_stmt 0 view .LVU37
 141 003a 0D28     		cmp	r0, #13
ARM GAS  /var/folders/0z/tsy30v1j4xl4_7kw94k978ww0000gn/T//ccyrzG1p.s 			page 23


 142 003c A8BF     		it	ge
 143 003e 0D20     		movge	r0, #13
 144              	.LVL12:
 145              		.loc 1 981 12 view .LVU38
 146 0040 0390     		str	r0, [sp, #12]
 147              	.LBB271:
 148              	.LBB270:
 105:Drivers/lvgl/src/widgets/../core/lv_obj_style_gen.h ****     return (lv_coord_t)v.num;
 149              		.loc 2 105 26 view .LVU39
 150 0042 1022     		movs	r2, #16
 151 0044 0021     		movs	r1, #0
 152 0046 5846     		mov	r0, fp
 153 0048 FFF7FEFF 		bl	lv_obj_get_style_prop
 154              	.LVL13:
 106:Drivers/lvgl/src/widgets/../core/lv_obj_style_gen.h **** }
 155              		.loc 2 106 5 is_stmt 1 view .LVU40
 106:Drivers/lvgl/src/widgets/../core/lv_obj_style_gen.h **** }
 156              		.loc 2 106 12 is_stmt 0 view .LVU41
 157 004c 05B2     		sxth	r5, r0
 158              	.LVL14:
 106:Drivers/lvgl/src/widgets/../core/lv_obj_style_gen.h **** }
 159              		.loc 2 106 12 view .LVU42
 160              	.LBE270:
 161              	.LBE271:
 971:Drivers/lvgl/src/widgets/lv_btnmatrix.c ****     lv_coord_t pbottom = lv_obj_get_style_pad_bottom(obj, LV_PART_MAIN);
 162              		.loc 1 971 5 is_stmt 1 view .LVU43
 163              	.LBB272:
 164              	.LBI272:
 109:Drivers/lvgl/src/widgets/../core/lv_obj_style_gen.h **** {
 165              		.loc 2 109 26 view .LVU44
 166              	.LBB273:
 111:Drivers/lvgl/src/widgets/../core/lv_obj_style_gen.h ****     return (lv_coord_t)v.num;
 167              		.loc 2 111 5 view .LVU45
 168              	.LBE273:
 169              	.LBE272:
 982:Drivers/lvgl/src/widgets/lv_btnmatrix.c ****     ptop = LV_MIN(ptop, BTN_EXTRA_CLICK_AREA_MAX);
 170              		.loc 1 982 10 is_stmt 0 view .LVU46
 171 004e 0D2D     		cmp	r5, #13
 172              	.LBB276:
 173              	.LBB274:
 111:Drivers/lvgl/src/widgets/../core/lv_obj_style_gen.h ****     return (lv_coord_t)v.num;
 174              		.loc 2 111 26 view .LVU47
 175 0050 4FF01102 		mov	r2, #17
 176 0054 4FF00001 		mov	r1, #0
 177 0058 5846     		mov	r0, fp
 178              	.LBE274:
 179              	.LBE276:
 180              		.loc 1 982 10 view .LVU48
 181 005a A8BF     		it	ge
 182 005c 0D25     		movge	r5, #13
 183              	.LVL15:
 184              	.LBB277:
 185              	.LBB275:
 111:Drivers/lvgl/src/widgets/../core/lv_obj_style_gen.h ****     return (lv_coord_t)v.num;
 186              		.loc 2 111 26 view .LVU49
 187 005e FFF7FEFF 		bl	lv_obj_get_style_prop
 188              	.LVL16:
ARM GAS  /var/folders/0z/tsy30v1j4xl4_7kw94k978ww0000gn/T//ccyrzG1p.s 			page 24


 112:Drivers/lvgl/src/widgets/../core/lv_obj_style_gen.h **** }
 189              		.loc 2 112 5 is_stmt 1 view .LVU50
 112:Drivers/lvgl/src/widgets/../core/lv_obj_style_gen.h **** }
 190              		.loc 2 112 12 is_stmt 0 view .LVU51
 191 0062 00B2     		sxth	r0, r0
 192              	.LVL17:
 112:Drivers/lvgl/src/widgets/../core/lv_obj_style_gen.h **** }
 193              		.loc 2 112 12 view .LVU52
 194              	.LBE275:
 195              	.LBE277:
 972:Drivers/lvgl/src/widgets/lv_btnmatrix.c ****     lv_coord_t pcol = lv_obj_get_style_pad_column(obj, LV_PART_MAIN);
 196              		.loc 1 972 5 is_stmt 1 view .LVU53
 197              	.LBB278:
 198              	.LBI278:
 125:Drivers/lvgl/src/widgets/../core/lv_obj_style_gen.h **** }
 126:Drivers/lvgl/src/widgets/../core/lv_obj_style_gen.h **** 
 127:Drivers/lvgl/src/widgets/../core/lv_obj_style_gen.h **** static inline lv_coord_t lv_obj_get_style_pad_row(const struct _lv_obj_t * obj, uint32_t part)
 199              		.loc 2 127 26 view .LVU54
 200              	.LBB279:
 128:Drivers/lvgl/src/widgets/../core/lv_obj_style_gen.h **** {
 129:Drivers/lvgl/src/widgets/../core/lv_obj_style_gen.h ****     lv_style_value_t v = lv_obj_get_style_prop(obj, part, LV_STYLE_PAD_ROW);
 201              		.loc 2 129 5 view .LVU55
 202              	.LBE279:
 203              	.LBE278:
 983:Drivers/lvgl/src/widgets/lv_btnmatrix.c ****     pbottom = LV_MIN(pbottom, BTN_EXTRA_CLICK_AREA_MAX);
 204              		.loc 1 983 13 is_stmt 0 view .LVU56
 205 0064 0D28     		cmp	r0, #13
 206 0066 0346     		mov	r3, r0
 207              	.LBB284:
 208              	.LBB280:
 209              		.loc 2 129 26 view .LVU57
 210 0068 4FF01402 		mov	r2, #20
 211              	.LBE280:
 212              	.LBE284:
 213              		.loc 1 983 13 view .LVU58
 214 006c A8BF     		it	ge
 215 006e 0D23     		movge	r3, #13
 216              	.LBB285:
 217              	.LBB281:
 218              		.loc 2 129 26 view .LVU59
 219 0070 0021     		movs	r1, #0
 220 0072 5846     		mov	r0, fp
 221              	.LVL18:
 222              		.loc 2 129 26 view .LVU60
 223              	.LBE281:
 224              	.LBE285:
 225              		.loc 1 983 13 view .LVU61
 226 0074 0493     		str	r3, [sp, #16]
 227              	.LBB286:
 228              	.LBB282:
 229              		.loc 2 129 26 view .LVU62
 230 0076 FFF7FEFF 		bl	lv_obj_get_style_prop
 231              	.LVL19:
 232              	.LBE282:
 233              	.LBE286:
 234              	.LBB287:
 235              	.LBB288:
ARM GAS  /var/folders/0z/tsy30v1j4xl4_7kw94k978ww0000gn/T//ccyrzG1p.s 			page 25


 130:Drivers/lvgl/src/widgets/../core/lv_obj_style_gen.h ****     return (lv_coord_t)v.num;
 131:Drivers/lvgl/src/widgets/../core/lv_obj_style_gen.h **** }
 132:Drivers/lvgl/src/widgets/../core/lv_obj_style_gen.h **** 
 133:Drivers/lvgl/src/widgets/../core/lv_obj_style_gen.h **** static inline lv_coord_t lv_obj_get_style_pad_column(const struct _lv_obj_t * obj, uint32_t part)
 134:Drivers/lvgl/src/widgets/../core/lv_obj_style_gen.h **** {
 135:Drivers/lvgl/src/widgets/../core/lv_obj_style_gen.h ****     lv_style_value_t v = lv_obj_get_style_prop(obj, part, LV_STYLE_PAD_COLUMN);
 236              		.loc 2 135 26 view .LVU63
 237 007a 1522     		movs	r2, #21
 238              	.LBE288:
 239              	.LBE287:
 240              	.LBB290:
 241              	.LBB283:
 129:Drivers/lvgl/src/widgets/../core/lv_obj_style_gen.h ****     return (lv_coord_t)v.num;
 242              		.loc 2 129 26 view .LVU64
 243 007c 0746     		mov	r7, r0
 244              	.LVL20:
 130:Drivers/lvgl/src/widgets/../core/lv_obj_style_gen.h ****     return (lv_coord_t)v.num;
 245              		.loc 2 130 5 is_stmt 1 view .LVU65
 130:Drivers/lvgl/src/widgets/../core/lv_obj_style_gen.h ****     return (lv_coord_t)v.num;
 246              		.loc 2 130 5 is_stmt 0 view .LVU66
 247              	.LBE283:
 248              	.LBE290:
 973:Drivers/lvgl/src/widgets/lv_btnmatrix.c **** 
 249              		.loc 1 973 5 is_stmt 1 view .LVU67
 250              	.LBB291:
 251              	.LBI287:
 133:Drivers/lvgl/src/widgets/../core/lv_obj_style_gen.h **** {
 252              		.loc 2 133 26 view .LVU68
 253              	.LBB289:
 254              		.loc 2 135 5 view .LVU69
 255              		.loc 2 135 26 is_stmt 0 view .LVU70
 256 007e 0021     		movs	r1, #0
 257 0080 5846     		mov	r0, fp
 258 0082 FFF7FEFF 		bl	lv_obj_get_style_prop
 259              	.LVL21:
 136:Drivers/lvgl/src/widgets/../core/lv_obj_style_gen.h ****     return (lv_coord_t)v.num;
 260              		.loc 2 136 5 is_stmt 1 view .LVU71
 261              		.loc 2 136 5 is_stmt 0 view .LVU72
 262              	.LBE289:
 263              	.LBE291:
 976:Drivers/lvgl/src/widgets/lv_btnmatrix.c ****     pcol = (pcol / 2) + 1 + (pcol & 1);
 264              		.loc 1 976 5 is_stmt 1 view .LVU73
 976:Drivers/lvgl/src/widgets/lv_btnmatrix.c ****     pcol = (pcol / 2) + 1 + (pcol & 1);
 265              		.loc 1 976 35 is_stmt 0 view .LVU74
 266 0086 07F00106 		and	r6, r7, #1
 976:Drivers/lvgl/src/widgets/lv_btnmatrix.c ****     pcol = (pcol / 2) + 1 + (pcol & 1);
 267              		.loc 1 976 27 view .LVU75
 268 008a C7F3C033 		ubfx	r3, r7, #15, #1
 269 008e 03FA87F7 		sxtah	r7, r3, r7
 270              	.LVL22:
 976:Drivers/lvgl/src/widgets/lv_btnmatrix.c ****     pcol = (pcol / 2) + 1 + (pcol & 1);
 271              		.loc 1 976 27 view .LVU76
 272 0092 0136     		adds	r6, r6, #1
 273 0094 06EB6706 		add	r6, r6, r7, asr #1
 977:Drivers/lvgl/src/widgets/lv_btnmatrix.c **** 
 274              		.loc 1 977 27 view .LVU77
 275 0098 C0F3C033 		ubfx	r3, r0, #15, #1
ARM GAS  /var/folders/0z/tsy30v1j4xl4_7kw94k978ww0000gn/T//ccyrzG1p.s 			page 26


 977:Drivers/lvgl/src/widgets/lv_btnmatrix.c **** 
 276              		.loc 1 977 35 view .LVU78
 277 009c 00F00107 		and	r7, r0, #1
 977:Drivers/lvgl/src/widgets/lv_btnmatrix.c **** 
 278              		.loc 1 977 27 view .LVU79
 279 00a0 0137     		adds	r7, r7, #1
 280 00a2 03FA80F0 		sxtah	r0, r3, r0
 281              	.LVL23:
 976:Drivers/lvgl/src/widgets/lv_btnmatrix.c ****     pcol = (pcol / 2) + 1 + (pcol & 1);
 282              		.loc 1 976 10 view .LVU80
 283 00a6 36B2     		sxth	r6, r6
 284              	.LVL24:
 977:Drivers/lvgl/src/widgets/lv_btnmatrix.c **** 
 285              		.loc 1 977 5 is_stmt 1 view .LVU81
 977:Drivers/lvgl/src/widgets/lv_btnmatrix.c **** 
 286              		.loc 1 977 27 is_stmt 0 view .LVU82
 287 00a8 07EB6007 		add	r7, r7, r0, asr #1
 979:Drivers/lvgl/src/widgets/lv_btnmatrix.c ****     pcol = LV_MIN(pcol, BTN_EXTRA_CLICK_AREA_MAX);
 288              		.loc 1 979 10 view .LVU83
 289 00ac 0D2E     		cmp	r6, #13
 977:Drivers/lvgl/src/widgets/lv_btnmatrix.c **** 
 290              		.loc 1 977 10 view .LVU84
 291 00ae 3FB2     		sxth	r7, r7
 292              	.LVL25:
 979:Drivers/lvgl/src/widgets/lv_btnmatrix.c ****     pcol = LV_MIN(pcol, BTN_EXTRA_CLICK_AREA_MAX);
 293              		.loc 1 979 5 is_stmt 1 view .LVU85
 984:Drivers/lvgl/src/widgets/lv_btnmatrix.c **** 
 985:Drivers/lvgl/src/widgets/lv_btnmatrix.c ****     for(i = 0; i < btnm->btn_cnt; i++) {
 294              		.loc 1 985 18 is_stmt 0 view .LVU86
 295 00b0 BBF83030 		ldrh	r3, [fp, #48]
 979:Drivers/lvgl/src/widgets/lv_btnmatrix.c ****     pcol = LV_MIN(pcol, BTN_EXTRA_CLICK_AREA_MAX);
 296              		.loc 1 979 10 view .LVU87
 297 00b4 A8BF     		it	ge
 298 00b6 0D26     		movge	r6, #13
 299              	.LVL26:
 980:Drivers/lvgl/src/widgets/lv_btnmatrix.c ****     pright = LV_MIN(pright, BTN_EXTRA_CLICK_AREA_MAX);
 300              		.loc 1 980 5 is_stmt 1 view .LVU88
 980:Drivers/lvgl/src/widgets/lv_btnmatrix.c ****     pright = LV_MIN(pright, BTN_EXTRA_CLICK_AREA_MAX);
 301              		.loc 1 980 10 is_stmt 0 view .LVU89
 302 00b8 0D2F     		cmp	r7, #13
 303 00ba A8BF     		it	ge
 304 00bc 0D27     		movge	r7, #13
 305              	.LVL27:
 981:Drivers/lvgl/src/widgets/lv_btnmatrix.c ****     ptop = LV_MIN(ptop, BTN_EXTRA_CLICK_AREA_MAX);
 306              		.loc 1 981 5 is_stmt 1 view .LVU90
 982:Drivers/lvgl/src/widgets/lv_btnmatrix.c ****     pbottom = LV_MIN(pbottom, BTN_EXTRA_CLICK_AREA_MAX);
 307              		.loc 1 982 5 view .LVU91
 983:Drivers/lvgl/src/widgets/lv_btnmatrix.c **** 
 308              		.loc 1 983 5 view .LVU92
 309              		.loc 1 985 5 view .LVU93
 310              		.loc 1 985 18 view .LVU94
 311 00be 002B     		cmp	r3, #0
 312 00c0 6BD0     		beq	.L2
 986:Drivers/lvgl/src/widgets/lv_btnmatrix.c ****         lv_area_copy(&btn_area, &btnm->button_areas[i]);
 987:Drivers/lvgl/src/widgets/lv_btnmatrix.c ****         if(btn_area.x1 <= pleft) btn_area.x1 += obj_cords.x1 - LV_MIN(pleft, BTN_EXTRA_CLICK_AREA_M
 988:Drivers/lvgl/src/widgets/lv_btnmatrix.c ****         else btn_area.x1 += obj_cords.x1 - pcol;
 989:Drivers/lvgl/src/widgets/lv_btnmatrix.c **** 
ARM GAS  /var/folders/0z/tsy30v1j4xl4_7kw94k978ww0000gn/T//ccyrzG1p.s 			page 27


 990:Drivers/lvgl/src/widgets/lv_btnmatrix.c ****         if(btn_area.y1 <= ptop) btn_area.y1 += obj_cords.y1 - LV_MIN(ptop, BTN_EXTRA_CLICK_AREA_MAX
 991:Drivers/lvgl/src/widgets/lv_btnmatrix.c ****         else btn_area.y1 += obj_cords.y1 - prow;
 992:Drivers/lvgl/src/widgets/lv_btnmatrix.c **** 
 993:Drivers/lvgl/src/widgets/lv_btnmatrix.c ****         if(btn_area.x2 >= w - pright - 2) btn_area.x2 += obj_cords.x1 + LV_MIN(pright,
 994:Drivers/lvgl/src/widgets/lv_btnmatrix.c ****                                                                                    BTN_EXTRA_CLICK_
 995:Drivers/lvgl/src/widgets/lv_btnmatrix.c ****         else btn_area.x2 += obj_cords.x1 + pcol;
 996:Drivers/lvgl/src/widgets/lv_btnmatrix.c **** 
 997:Drivers/lvgl/src/widgets/lv_btnmatrix.c ****         if(btn_area.y2 >= h - pbottom - 2) btn_area.y2 += obj_cords.y1 + LV_MIN(pbottom,
 313              		.loc 1 997 29 is_stmt 0 view .LVU95
 314 00c2 049B     		ldr	r3, [sp, #16]
 993:Drivers/lvgl/src/widgets/lv_btnmatrix.c ****                                                                                    BTN_EXTRA_CLICK_
 315              		.loc 1 993 29 view .LVU96
 316 00c4 0398     		ldr	r0, [sp, #12]
 987:Drivers/lvgl/src/widgets/lv_btnmatrix.c ****         else btn_area.x1 += obj_cords.x1 - pcol;
 317              		.loc 1 987 64 view .LVU97
 318 00c6 0296     		str	r6, [sp, #8]
 319              		.loc 1 997 29 view .LVU98
 320 00c8 E41A     		subs	r4, r4, r3
 321              	.LVL28:
 322              		.loc 1 997 39 view .LVU99
 323 00ca A31E     		subs	r3, r4, #2
 324 00cc 0193     		str	r3, [sp, #4]
 987:Drivers/lvgl/src/widgets/lv_btnmatrix.c ****         else btn_area.x1 += obj_cords.x1 - pcol;
 325              		.loc 1 987 64 view .LVU100
 326 00ce 4B46     		mov	r3, r9
 327 00d0 0D2B     		cmp	r3, #13
 993:Drivers/lvgl/src/widgets/lv_btnmatrix.c ****                                                                                    BTN_EXTRA_CLICK_
 328              		.loc 1 993 29 view .LVU101
 329 00d2 A8EB0008 		sub	r8, r8, r0
 330              	.LVL29:
 987:Drivers/lvgl/src/widgets/lv_btnmatrix.c ****         else btn_area.x1 += obj_cords.x1 - pcol;
 331              		.loc 1 987 64 view .LVU102
 332 00d6 A8BF     		it	ge
 333 00d8 0D23     		movge	r3, #13
 993:Drivers/lvgl/src/widgets/lv_btnmatrix.c ****                                                                                    BTN_EXTRA_CLICK_
 334              		.loc 1 993 38 view .LVU103
 335 00da A8F10208 		sub	r8, r8, #2
 985:Drivers/lvgl/src/widgets/lv_btnmatrix.c ****         lv_area_copy(&btn_area, &btnm->button_areas[i]);
 336              		.loc 1 985 11 view .LVU104
 337 00de 0024     		movs	r4, #0
 987:Drivers/lvgl/src/widgets/lv_btnmatrix.c ****         else btn_area.x1 += obj_cords.x1 - pcol;
 338              		.loc 1 987 64 view .LVU105
 339 00e0 0593     		str	r3, [sp, #20]
 340 00e2 1BE0     		b	.L12
 341              	.LVL30:
 342              	.L21:
 993:Drivers/lvgl/src/widgets/lv_btnmatrix.c ****                                                                                    BTN_EXTRA_CLICK_
 343              		.loc 1 993 43 is_stmt 1 discriminator 1 view .LVU106
 993:Drivers/lvgl/src/widgets/lv_btnmatrix.c ****                                                                                    BTN_EXTRA_CLICK_
 344              		.loc 1 993 55 is_stmt 0 discriminator 1 view .LVU107
 345 00e4 039E     		ldr	r6, [sp, #12]
 346 00e6 3244     		add	r2, r2, r6
 347 00e8 0244     		add	r2, r2, r0
 348 00ea 10B2     		sxth	r0, r2
 349              		.loc 1 997 11 discriminator 1 view .LVU108
 350 00ec 019A     		ldr	r2, [sp, #4]
 351 00ee ADF82400 		strh	r0, [sp, #36]	@ movhi
ARM GAS  /var/folders/0z/tsy30v1j4xl4_7kw94k978ww0000gn/T//ccyrzG1p.s 			page 28


 352              		.loc 1 997 9 is_stmt 1 discriminator 1 view .LVU109
 353              		.loc 1 997 11 is_stmt 0 discriminator 1 view .LVU110
 354 00f2 9342     		cmp	r3, r2
 355 00f4 44DB     		blt	.L9
 356              	.L22:
 357              		.loc 1 997 44 is_stmt 1 discriminator 1 view .LVU111
 358              		.loc 1 997 56 is_stmt 0 discriminator 1 view .LVU112
 359 00f6 049A     		ldr	r2, [sp, #16]
 360 00f8 1344     		add	r3, r3, r2
 361 00fa 0B44     		add	r3, r3, r1
 362 00fc 19B2     		sxth	r1, r3
 363              	.L10:
 364 00fe ADF82610 		strh	r1, [sp, #38]	@ movhi
 998:Drivers/lvgl/src/widgets/lv_btnmatrix.c ****                                                                                     BTN_EXTRA_CLICK
 999:Drivers/lvgl/src/widgets/lv_btnmatrix.c ****         else btn_area.y2 += obj_cords.y1 + prow;
1000:Drivers/lvgl/src/widgets/lv_btnmatrix.c **** 
1001:Drivers/lvgl/src/widgets/lv_btnmatrix.c ****         if(_lv_area_is_point_on(&btn_area, p, 0) != false) {
 365              		.loc 1 1001 9 is_stmt 1 view .LVU113
 366              		.loc 1 1001 12 is_stmt 0 view .LVU114
 367 0102 0022     		movs	r2, #0
 368 0104 5146     		mov	r1, r10
 369 0106 08A8     		add	r0, sp, #32
 370 0108 FFF7FEFF 		bl	_lv_area_is_point_on
 371              	.LVL31:
 372              		.loc 1 1001 11 view .LVU115
 373 010c 0028     		cmp	r0, #0
 374 010e 3CD1     		bne	.L11
 985:Drivers/lvgl/src/widgets/lv_btnmatrix.c ****         lv_area_copy(&btn_area, &btnm->button_areas[i]);
 375              		.loc 1 985 36 is_stmt 1 discriminator 2 view .LVU116
 985:Drivers/lvgl/src/widgets/lv_btnmatrix.c ****         lv_area_copy(&btn_area, &btnm->button_areas[i]);
 376              		.loc 1 985 24 is_stmt 0 discriminator 2 view .LVU117
 377 0110 BBF83030 		ldrh	r3, [fp, #48]
 985:Drivers/lvgl/src/widgets/lv_btnmatrix.c ****         lv_area_copy(&btn_area, &btnm->button_areas[i]);
 378              		.loc 1 985 36 discriminator 2 view .LVU118
 379 0114 0134     		adds	r4, r4, #1
 380              	.LVL32:
 985:Drivers/lvgl/src/widgets/lv_btnmatrix.c ****         lv_area_copy(&btn_area, &btnm->button_areas[i]);
 381              		.loc 1 985 36 discriminator 2 view .LVU119
 382 0116 A4B2     		uxth	r4, r4
 383              	.LVL33:
 985:Drivers/lvgl/src/widgets/lv_btnmatrix.c ****         lv_area_copy(&btn_area, &btnm->button_areas[i]);
 384              		.loc 1 985 18 is_stmt 1 discriminator 2 view .LVU120
 385 0118 A342     		cmp	r3, r4
 386 011a 38D9     		bls	.L13
 387              	.LVL34:
 388              	.L12:
 986:Drivers/lvgl/src/widgets/lv_btnmatrix.c ****         if(btn_area.x1 <= pleft) btn_area.x1 += obj_cords.x1 - LV_MIN(pleft, BTN_EXTRA_CLICK_AREA_M
 389              		.loc 1 986 9 view .LVU121
 986:Drivers/lvgl/src/widgets/lv_btnmatrix.c ****         if(btn_area.x1 <= pleft) btn_area.x1 += obj_cords.x1 - LV_MIN(pleft, BTN_EXTRA_CLICK_AREA_M
 390              		.loc 1 986 33 is_stmt 0 view .LVU122
 391 011c DBF82820 		ldr	r2, [fp, #40]
 987:Drivers/lvgl/src/widgets/lv_btnmatrix.c ****         else btn_area.x1 += obj_cords.x1 - pcol;
 392              		.loc 1 987 58 view .LVU123
 393 0120 BDF81800 		ldrh	r0, [sp, #24]
 394              	.LBB292:
 395              	.LBB293:
 396              		.file 3 "Drivers/lvgl/src/widgets/../core/../misc/../font/../misc/lv_area.h"
ARM GAS  /var/folders/0z/tsy30v1j4xl4_7kw94k978ww0000gn/T//ccyrzG1p.s 			page 29


   1:Drivers/lvgl/src/widgets/../core/../misc/../font/../misc/lv_area.h **** /**
   2:Drivers/lvgl/src/widgets/../core/../misc/../font/../misc/lv_area.h ****  * @file lv_area.h
   3:Drivers/lvgl/src/widgets/../core/../misc/../font/../misc/lv_area.h ****  *
   4:Drivers/lvgl/src/widgets/../core/../misc/../font/../misc/lv_area.h ****  */
   5:Drivers/lvgl/src/widgets/../core/../misc/../font/../misc/lv_area.h **** 
   6:Drivers/lvgl/src/widgets/../core/../misc/../font/../misc/lv_area.h **** #ifndef LV_AREA_H
   7:Drivers/lvgl/src/widgets/../core/../misc/../font/../misc/lv_area.h **** #define LV_AREA_H
   8:Drivers/lvgl/src/widgets/../core/../misc/../font/../misc/lv_area.h **** 
   9:Drivers/lvgl/src/widgets/../core/../misc/../font/../misc/lv_area.h **** #ifdef __cplusplus
  10:Drivers/lvgl/src/widgets/../core/../misc/../font/../misc/lv_area.h **** extern "C" {
  11:Drivers/lvgl/src/widgets/../core/../misc/../font/../misc/lv_area.h **** #endif
  12:Drivers/lvgl/src/widgets/../core/../misc/../font/../misc/lv_area.h **** 
  13:Drivers/lvgl/src/widgets/../core/../misc/../font/../misc/lv_area.h **** /*********************
  14:Drivers/lvgl/src/widgets/../core/../misc/../font/../misc/lv_area.h ****  *      INCLUDES
  15:Drivers/lvgl/src/widgets/../core/../misc/../font/../misc/lv_area.h ****  *********************/
  16:Drivers/lvgl/src/widgets/../core/../misc/../font/../misc/lv_area.h **** #include "../lv_conf_internal.h"
  17:Drivers/lvgl/src/widgets/../core/../misc/../font/../misc/lv_area.h **** #include <stdbool.h>
  18:Drivers/lvgl/src/widgets/../core/../misc/../font/../misc/lv_area.h **** #include <stdint.h>
  19:Drivers/lvgl/src/widgets/../core/../misc/../font/../misc/lv_area.h **** 
  20:Drivers/lvgl/src/widgets/../core/../misc/../font/../misc/lv_area.h **** /*********************
  21:Drivers/lvgl/src/widgets/../core/../misc/../font/../misc/lv_area.h ****  *      DEFINES
  22:Drivers/lvgl/src/widgets/../core/../misc/../font/../misc/lv_area.h ****  *********************/
  23:Drivers/lvgl/src/widgets/../core/../misc/../font/../misc/lv_area.h **** 
  24:Drivers/lvgl/src/widgets/../core/../misc/../font/../misc/lv_area.h **** #if LV_USE_LARGE_COORD
  25:Drivers/lvgl/src/widgets/../core/../misc/../font/../misc/lv_area.h **** typedef int32_t lv_coord_t;
  26:Drivers/lvgl/src/widgets/../core/../misc/../font/../misc/lv_area.h **** #else
  27:Drivers/lvgl/src/widgets/../core/../misc/../font/../misc/lv_area.h **** typedef int16_t lv_coord_t;
  28:Drivers/lvgl/src/widgets/../core/../misc/../font/../misc/lv_area.h **** #endif
  29:Drivers/lvgl/src/widgets/../core/../misc/../font/../misc/lv_area.h **** 
  30:Drivers/lvgl/src/widgets/../core/../misc/../font/../misc/lv_area.h **** /**********************
  31:Drivers/lvgl/src/widgets/../core/../misc/../font/../misc/lv_area.h ****  *      TYPEDEFS
  32:Drivers/lvgl/src/widgets/../core/../misc/../font/../misc/lv_area.h ****  **********************/
  33:Drivers/lvgl/src/widgets/../core/../misc/../font/../misc/lv_area.h **** 
  34:Drivers/lvgl/src/widgets/../core/../misc/../font/../misc/lv_area.h **** /**
  35:Drivers/lvgl/src/widgets/../core/../misc/../font/../misc/lv_area.h ****  * Represents a point on the screen.
  36:Drivers/lvgl/src/widgets/../core/../misc/../font/../misc/lv_area.h ****  */
  37:Drivers/lvgl/src/widgets/../core/../misc/../font/../misc/lv_area.h **** typedef struct {
  38:Drivers/lvgl/src/widgets/../core/../misc/../font/../misc/lv_area.h ****     lv_coord_t x;
  39:Drivers/lvgl/src/widgets/../core/../misc/../font/../misc/lv_area.h ****     lv_coord_t y;
  40:Drivers/lvgl/src/widgets/../core/../misc/../font/../misc/lv_area.h **** } lv_point_t;
  41:Drivers/lvgl/src/widgets/../core/../misc/../font/../misc/lv_area.h **** 
  42:Drivers/lvgl/src/widgets/../core/../misc/../font/../misc/lv_area.h **** /** Represents an area of the screen.*/
  43:Drivers/lvgl/src/widgets/../core/../misc/../font/../misc/lv_area.h **** typedef struct {
  44:Drivers/lvgl/src/widgets/../core/../misc/../font/../misc/lv_area.h ****     lv_coord_t x1;
  45:Drivers/lvgl/src/widgets/../core/../misc/../font/../misc/lv_area.h ****     lv_coord_t y1;
  46:Drivers/lvgl/src/widgets/../core/../misc/../font/../misc/lv_area.h ****     lv_coord_t x2;
  47:Drivers/lvgl/src/widgets/../core/../misc/../font/../misc/lv_area.h ****     lv_coord_t y2;
  48:Drivers/lvgl/src/widgets/../core/../misc/../font/../misc/lv_area.h **** } lv_area_t;
  49:Drivers/lvgl/src/widgets/../core/../misc/../font/../misc/lv_area.h **** 
  50:Drivers/lvgl/src/widgets/../core/../misc/../font/../misc/lv_area.h **** /** Alignments*/
  51:Drivers/lvgl/src/widgets/../core/../misc/../font/../misc/lv_area.h **** enum {
  52:Drivers/lvgl/src/widgets/../core/../misc/../font/../misc/lv_area.h ****     LV_ALIGN_DEFAULT = 0,
  53:Drivers/lvgl/src/widgets/../core/../misc/../font/../misc/lv_area.h ****     LV_ALIGN_TOP_LEFT,
  54:Drivers/lvgl/src/widgets/../core/../misc/../font/../misc/lv_area.h ****     LV_ALIGN_TOP_MID,
  55:Drivers/lvgl/src/widgets/../core/../misc/../font/../misc/lv_area.h ****     LV_ALIGN_TOP_RIGHT,
  56:Drivers/lvgl/src/widgets/../core/../misc/../font/../misc/lv_area.h ****     LV_ALIGN_BOTTOM_LEFT,
  57:Drivers/lvgl/src/widgets/../core/../misc/../font/../misc/lv_area.h ****     LV_ALIGN_BOTTOM_MID,
ARM GAS  /var/folders/0z/tsy30v1j4xl4_7kw94k978ww0000gn/T//ccyrzG1p.s 			page 30


  58:Drivers/lvgl/src/widgets/../core/../misc/../font/../misc/lv_area.h ****     LV_ALIGN_BOTTOM_RIGHT,
  59:Drivers/lvgl/src/widgets/../core/../misc/../font/../misc/lv_area.h ****     LV_ALIGN_LEFT_MID,
  60:Drivers/lvgl/src/widgets/../core/../misc/../font/../misc/lv_area.h ****     LV_ALIGN_RIGHT_MID,
  61:Drivers/lvgl/src/widgets/../core/../misc/../font/../misc/lv_area.h ****     LV_ALIGN_CENTER,
  62:Drivers/lvgl/src/widgets/../core/../misc/../font/../misc/lv_area.h **** 
  63:Drivers/lvgl/src/widgets/../core/../misc/../font/../misc/lv_area.h ****     LV_ALIGN_OUT_TOP_LEFT,
  64:Drivers/lvgl/src/widgets/../core/../misc/../font/../misc/lv_area.h ****     LV_ALIGN_OUT_TOP_MID,
  65:Drivers/lvgl/src/widgets/../core/../misc/../font/../misc/lv_area.h ****     LV_ALIGN_OUT_TOP_RIGHT,
  66:Drivers/lvgl/src/widgets/../core/../misc/../font/../misc/lv_area.h ****     LV_ALIGN_OUT_BOTTOM_LEFT,
  67:Drivers/lvgl/src/widgets/../core/../misc/../font/../misc/lv_area.h ****     LV_ALIGN_OUT_BOTTOM_MID,
  68:Drivers/lvgl/src/widgets/../core/../misc/../font/../misc/lv_area.h ****     LV_ALIGN_OUT_BOTTOM_RIGHT,
  69:Drivers/lvgl/src/widgets/../core/../misc/../font/../misc/lv_area.h ****     LV_ALIGN_OUT_LEFT_TOP,
  70:Drivers/lvgl/src/widgets/../core/../misc/../font/../misc/lv_area.h ****     LV_ALIGN_OUT_LEFT_MID,
  71:Drivers/lvgl/src/widgets/../core/../misc/../font/../misc/lv_area.h ****     LV_ALIGN_OUT_LEFT_BOTTOM,
  72:Drivers/lvgl/src/widgets/../core/../misc/../font/../misc/lv_area.h ****     LV_ALIGN_OUT_RIGHT_TOP,
  73:Drivers/lvgl/src/widgets/../core/../misc/../font/../misc/lv_area.h ****     LV_ALIGN_OUT_RIGHT_MID,
  74:Drivers/lvgl/src/widgets/../core/../misc/../font/../misc/lv_area.h ****     LV_ALIGN_OUT_RIGHT_BOTTOM,
  75:Drivers/lvgl/src/widgets/../core/../misc/../font/../misc/lv_area.h **** };
  76:Drivers/lvgl/src/widgets/../core/../misc/../font/../misc/lv_area.h **** typedef uint8_t lv_align_t;
  77:Drivers/lvgl/src/widgets/../core/../misc/../font/../misc/lv_area.h **** 
  78:Drivers/lvgl/src/widgets/../core/../misc/../font/../misc/lv_area.h **** enum {
  79:Drivers/lvgl/src/widgets/../core/../misc/../font/../misc/lv_area.h ****     LV_DIR_NONE     = 0x00,
  80:Drivers/lvgl/src/widgets/../core/../misc/../font/../misc/lv_area.h ****     LV_DIR_LEFT     = (1 << 0),
  81:Drivers/lvgl/src/widgets/../core/../misc/../font/../misc/lv_area.h ****     LV_DIR_RIGHT    = (1 << 1),
  82:Drivers/lvgl/src/widgets/../core/../misc/../font/../misc/lv_area.h ****     LV_DIR_TOP      = (1 << 2),
  83:Drivers/lvgl/src/widgets/../core/../misc/../font/../misc/lv_area.h ****     LV_DIR_BOTTOM   = (1 << 3),
  84:Drivers/lvgl/src/widgets/../core/../misc/../font/../misc/lv_area.h ****     LV_DIR_HOR      = LV_DIR_LEFT | LV_DIR_RIGHT,
  85:Drivers/lvgl/src/widgets/../core/../misc/../font/../misc/lv_area.h ****     LV_DIR_VER      = LV_DIR_TOP | LV_DIR_BOTTOM,
  86:Drivers/lvgl/src/widgets/../core/../misc/../font/../misc/lv_area.h ****     LV_DIR_ALL      = LV_DIR_HOR | LV_DIR_VER,
  87:Drivers/lvgl/src/widgets/../core/../misc/../font/../misc/lv_area.h **** };
  88:Drivers/lvgl/src/widgets/../core/../misc/../font/../misc/lv_area.h **** 
  89:Drivers/lvgl/src/widgets/../core/../misc/../font/../misc/lv_area.h **** typedef uint8_t lv_dir_t;
  90:Drivers/lvgl/src/widgets/../core/../misc/../font/../misc/lv_area.h **** 
  91:Drivers/lvgl/src/widgets/../core/../misc/../font/../misc/lv_area.h **** /**********************
  92:Drivers/lvgl/src/widgets/../core/../misc/../font/../misc/lv_area.h ****  * GLOBAL PROTOTYPES
  93:Drivers/lvgl/src/widgets/../core/../misc/../font/../misc/lv_area.h ****  **********************/
  94:Drivers/lvgl/src/widgets/../core/../misc/../font/../misc/lv_area.h **** 
  95:Drivers/lvgl/src/widgets/../core/../misc/../font/../misc/lv_area.h **** /**
  96:Drivers/lvgl/src/widgets/../core/../misc/../font/../misc/lv_area.h ****  * Initialize an area
  97:Drivers/lvgl/src/widgets/../core/../misc/../font/../misc/lv_area.h ****  * @param area_p pointer to an area
  98:Drivers/lvgl/src/widgets/../core/../misc/../font/../misc/lv_area.h ****  * @param x1 left coordinate of the area
  99:Drivers/lvgl/src/widgets/../core/../misc/../font/../misc/lv_area.h ****  * @param y1 top coordinate of the area
 100:Drivers/lvgl/src/widgets/../core/../misc/../font/../misc/lv_area.h ****  * @param x2 right coordinate of the area
 101:Drivers/lvgl/src/widgets/../core/../misc/../font/../misc/lv_area.h ****  * @param y2 bottom coordinate of the area
 102:Drivers/lvgl/src/widgets/../core/../misc/../font/../misc/lv_area.h ****  */
 103:Drivers/lvgl/src/widgets/../core/../misc/../font/../misc/lv_area.h **** void lv_area_set(lv_area_t * area_p, lv_coord_t x1, lv_coord_t y1, lv_coord_t x2, lv_coord_t y2);
 104:Drivers/lvgl/src/widgets/../core/../misc/../font/../misc/lv_area.h **** 
 105:Drivers/lvgl/src/widgets/../core/../misc/../font/../misc/lv_area.h **** /**
 106:Drivers/lvgl/src/widgets/../core/../misc/../font/../misc/lv_area.h ****  * Copy an area
 107:Drivers/lvgl/src/widgets/../core/../misc/../font/../misc/lv_area.h ****  * @param dest pointer to the destination area
 108:Drivers/lvgl/src/widgets/../core/../misc/../font/../misc/lv_area.h ****  * @param src pointer to the source area
 109:Drivers/lvgl/src/widgets/../core/../misc/../font/../misc/lv_area.h ****  */
 110:Drivers/lvgl/src/widgets/../core/../misc/../font/../misc/lv_area.h **** inline static void lv_area_copy(lv_area_t * dest, const lv_area_t * src)
 111:Drivers/lvgl/src/widgets/../core/../misc/../font/../misc/lv_area.h **** {
 112:Drivers/lvgl/src/widgets/../core/../misc/../font/../misc/lv_area.h ****     dest->x1 = src->x1;
 397              		.loc 3 112 19 view .LVU124
 398 0124 32F934C0 		ldrsh	ip, [r2, r4, lsl #3]
ARM GAS  /var/folders/0z/tsy30v1j4xl4_7kw94k978ww0000gn/T//ccyrzG1p.s 			page 31


 399              	.LBE293:
 400              	.LBE292:
 987:Drivers/lvgl/src/widgets/lv_btnmatrix.c ****         else btn_area.x1 += obj_cords.x1 - pcol;
 401              		.loc 1 987 11 view .LVU125
 402 0128 E145     		cmp	r9, ip
 987:Drivers/lvgl/src/widgets/lv_btnmatrix.c ****         else btn_area.x1 += obj_cords.x1 - pcol;
 403              		.loc 1 987 62 view .LVU126
 404 012a A8BF     		it	ge
 405 012c 0599     		ldrge	r1, [sp, #20]
 986:Drivers/lvgl/src/widgets/lv_btnmatrix.c ****         if(btn_area.x1 <= pleft) btn_area.x1 += obj_cords.x1 - LV_MIN(pleft, BTN_EXTRA_CLICK_AREA_M
 406              		.loc 1 986 33 view .LVU127
 407 012e 02EBC403 		add	r3, r2, r4, lsl #3
 408              	.LVL35:
 409              	.LBB296:
 410              	.LBI292:
 110:Drivers/lvgl/src/widgets/../core/../misc/../font/../misc/lv_area.h **** {
 411              		.loc 3 110 20 is_stmt 1 view .LVU128
 412              	.LBB294:
 413              		.loc 3 112 5 view .LVU129
 113:Drivers/lvgl/src/widgets/../core/../misc/../font/../misc/lv_area.h ****     dest->y1 = src->y1;
 414              		.loc 3 113 5 view .LVU130
 415              	.LBE294:
 416              	.LBE296:
 987:Drivers/lvgl/src/widgets/lv_btnmatrix.c ****         else btn_area.x1 += obj_cords.x1 - pcol;
 417              		.loc 1 987 62 is_stmt 0 view .LVU131
 418 0132 A8BF     		it	ge
 419 0134 411A     		subge	r1, r0, r1
 420              	.LBB297:
 421              	.LBB295:
 422              		.loc 3 113 19 view .LVU132
 423 0136 B3F902E0 		ldrsh	lr, [r3, #2]
 114:Drivers/lvgl/src/widgets/../core/../misc/../font/../misc/lv_area.h ****     dest->x2 = src->x2;
 424              		.loc 3 114 5 is_stmt 1 view .LVU133
 425              		.loc 3 114 19 is_stmt 0 view .LVU134
 426 013a B3F90420 		ldrsh	r2, [r3, #4]
 115:Drivers/lvgl/src/widgets/../core/../misc/../font/../misc/lv_area.h ****     dest->y2 = src->y2;
 427              		.loc 3 115 5 is_stmt 1 view .LVU135
 428              		.loc 3 115 19 is_stmt 0 view .LVU136
 429 013e B3F90630 		ldrsh	r3, [r3, #6]
 430              	.LVL36:
 431              		.loc 3 115 19 view .LVU137
 432              	.LBE295:
 433              	.LBE297:
 987:Drivers/lvgl/src/widgets/lv_btnmatrix.c ****         else btn_area.x1 += obj_cords.x1 - pcol;
 434              		.loc 1 987 9 is_stmt 1 view .LVU138
 987:Drivers/lvgl/src/widgets/lv_btnmatrix.c ****         else btn_area.x1 += obj_cords.x1 - pcol;
 435              		.loc 1 987 34 view .LVU139
 988:Drivers/lvgl/src/widgets/lv_btnmatrix.c **** 
 436              		.loc 1 988 14 view .LVU140
 988:Drivers/lvgl/src/widgets/lv_btnmatrix.c **** 
 437              		.loc 1 988 42 is_stmt 0 view .LVU141
 438 0142 B8BF     		it	lt
 439 0144 C11B     		sublt	r1, r0, r7
 988:Drivers/lvgl/src/widgets/lv_btnmatrix.c **** 
 440              		.loc 1 988 26 view .LVU142
 441 0146 6144     		add	r1, r1, ip
 990:Drivers/lvgl/src/widgets/lv_btnmatrix.c ****         else btn_area.y1 += obj_cords.y1 - prow;
ARM GAS  /var/folders/0z/tsy30v1j4xl4_7kw94k978ww0000gn/T//ccyrzG1p.s 			page 32


 442              		.loc 1 990 11 view .LVU143
 443 0148 7545     		cmp	r5, lr
 988:Drivers/lvgl/src/widgets/lv_btnmatrix.c **** 
 444              		.loc 1 988 26 view .LVU144
 445 014a 09B2     		sxth	r1, r1
 991:Drivers/lvgl/src/widgets/lv_btnmatrix.c **** 
 446              		.loc 1 991 42 view .LVU145
 447 014c B8BF     		it	lt
 448 014e 029E     		ldrlt	r6, [sp, #8]
 449 0150 ADF82010 		strh	r1, [sp, #32]	@ movhi
 990:Drivers/lvgl/src/widgets/lv_btnmatrix.c ****         else btn_area.y1 += obj_cords.y1 - prow;
 450              		.loc 1 990 9 is_stmt 1 view .LVU146
 990:Drivers/lvgl/src/widgets/lv_btnmatrix.c ****         else btn_area.y1 += obj_cords.y1 - prow;
 451              		.loc 1 990 33 view .LVU147
 990:Drivers/lvgl/src/widgets/lv_btnmatrix.c ****         else btn_area.y1 += obj_cords.y1 - prow;
 452              		.loc 1 990 57 is_stmt 0 view .LVU148
 453 0154 BDF81A10 		ldrh	r1, [sp, #26]
 990:Drivers/lvgl/src/widgets/lv_btnmatrix.c ****         else btn_area.y1 += obj_cords.y1 - prow;
 454              		.loc 1 990 61 view .LVU149
 455 0158 ACBF     		ite	ge
 456 015a A1EB050C 		subge	ip, r1, r5
 991:Drivers/lvgl/src/widgets/lv_btnmatrix.c **** 
 457              		.loc 1 991 14 is_stmt 1 view .LVU150
 991:Drivers/lvgl/src/widgets/lv_btnmatrix.c **** 
 458              		.loc 1 991 42 is_stmt 0 view .LVU151
 459 015e A1EB060C 		sublt	ip, r1, r6
 991:Drivers/lvgl/src/widgets/lv_btnmatrix.c **** 
 460              		.loc 1 991 26 view .LVU152
 461 0162 F444     		add	ip, ip, lr
 462 0164 0FFA8CFC 		sxth	ip, ip
 993:Drivers/lvgl/src/widgets/lv_btnmatrix.c ****                                                                                    BTN_EXTRA_CLICK_
 463              		.loc 1 993 11 view .LVU153
 464 0168 4245     		cmp	r2, r8
 465 016a ADF822C0 		strh	ip, [sp, #34]	@ movhi
 993:Drivers/lvgl/src/widgets/lv_btnmatrix.c ****                                                                                    BTN_EXTRA_CLICK_
 466              		.loc 1 993 9 is_stmt 1 view .LVU154
 993:Drivers/lvgl/src/widgets/lv_btnmatrix.c ****                                                                                    BTN_EXTRA_CLICK_
 467              		.loc 1 993 11 is_stmt 0 view .LVU155
 468 016e B9DA     		bge	.L21
 995:Drivers/lvgl/src/widgets/lv_btnmatrix.c **** 
 469              		.loc 1 995 14 is_stmt 1 view .LVU156
 995:Drivers/lvgl/src/widgets/lv_btnmatrix.c **** 
 470              		.loc 1 995 26 is_stmt 0 view .LVU157
 471 0170 3A44     		add	r2, r2, r7
 472 0172 1044     		add	r0, r0, r2
 997:Drivers/lvgl/src/widgets/lv_btnmatrix.c ****                                                                                     BTN_EXTRA_CLICK
 473              		.loc 1 997 11 view .LVU158
 474 0174 019A     		ldr	r2, [sp, #4]
 995:Drivers/lvgl/src/widgets/lv_btnmatrix.c **** 
 475              		.loc 1 995 26 view .LVU159
 476 0176 00B2     		sxth	r0, r0
 997:Drivers/lvgl/src/widgets/lv_btnmatrix.c ****                                                                                     BTN_EXTRA_CLICK
 477              		.loc 1 997 11 view .LVU160
 478 0178 9342     		cmp	r3, r2
 479 017a ADF82400 		strh	r0, [sp, #36]	@ movhi
 997:Drivers/lvgl/src/widgets/lv_btnmatrix.c ****                                                                                     BTN_EXTRA_CLICK
 480              		.loc 1 997 9 is_stmt 1 view .LVU161
ARM GAS  /var/folders/0z/tsy30v1j4xl4_7kw94k978ww0000gn/T//ccyrzG1p.s 			page 33


 997:Drivers/lvgl/src/widgets/lv_btnmatrix.c ****                                                                                     BTN_EXTRA_CLICK
 481              		.loc 1 997 11 is_stmt 0 view .LVU162
 482 017e BADA     		bge	.L22
 483              	.L9:
 999:Drivers/lvgl/src/widgets/lv_btnmatrix.c **** 
 484              		.loc 1 999 14 is_stmt 1 view .LVU163
 999:Drivers/lvgl/src/widgets/lv_btnmatrix.c **** 
 485              		.loc 1 999 26 is_stmt 0 view .LVU164
 486 0180 029A     		ldr	r2, [sp, #8]
 487 0182 1344     		add	r3, r3, r2
 488 0184 1944     		add	r1, r1, r3
 489 0186 09B2     		sxth	r1, r1
 490 0188 B9E7     		b	.L10
 491              	.L11:
 985:Drivers/lvgl/src/widgets/lv_btnmatrix.c ****         lv_area_copy(&btn_area, &btnm->button_areas[i]);
 492              		.loc 1 985 24 view .LVU165
 493 018a BBF83030 		ldrh	r3, [fp, #48]
 494              	.L13:
1002:Drivers/lvgl/src/widgets/lv_btnmatrix.c ****             break;
1003:Drivers/lvgl/src/widgets/lv_btnmatrix.c ****         }
1004:Drivers/lvgl/src/widgets/lv_btnmatrix.c ****     }
1005:Drivers/lvgl/src/widgets/lv_btnmatrix.c **** 
1006:Drivers/lvgl/src/widgets/lv_btnmatrix.c ****     if(i == btnm->btn_cnt) i = LV_BTNMATRIX_BTN_NONE;
 495              		.loc 1 1006 5 is_stmt 1 view .LVU166
 496              		.loc 1 1006 7 is_stmt 0 view .LVU167
 497 018e 9C42     		cmp	r4, r3
 498 0190 03D0     		beq	.L2
1007:Drivers/lvgl/src/widgets/lv_btnmatrix.c **** 
1008:Drivers/lvgl/src/widgets/lv_btnmatrix.c ****     return i;
 499              		.loc 1 1008 5 is_stmt 1 view .LVU168
1009:Drivers/lvgl/src/widgets/lv_btnmatrix.c **** }
 500              		.loc 1 1009 1 is_stmt 0 view .LVU169
 501 0192 2046     		mov	r0, r4
 502 0194 0BB0     		add	sp, sp, #44
 503              		.cfi_remember_state
 504              		.cfi_def_cfa_offset 36
 505              		@ sp needed
 506 0196 BDE8F08F 		pop	{r4, r5, r6, r7, r8, r9, r10, fp, pc}
 507              	.LVL37:
 508              	.L2:
 509              		.cfi_restore_state
1006:Drivers/lvgl/src/widgets/lv_btnmatrix.c **** 
 510              		.loc 1 1006 30 view .LVU170
 511 019a 4FF6FF74 		movw	r4, #65535
 512              	.LVL38:
1008:Drivers/lvgl/src/widgets/lv_btnmatrix.c **** }
 513              		.loc 1 1008 5 is_stmt 1 view .LVU171
 514              		.loc 1 1009 1 is_stmt 0 view .LVU172
 515 019e 2046     		mov	r0, r4
 516 01a0 0BB0     		add	sp, sp, #44
 517              		.cfi_def_cfa_offset 36
 518              		@ sp needed
 519 01a2 BDE8F08F 		pop	{r4, r5, r6, r7, r8, r9, r10, fp, pc}
 520              		.loc 1 1009 1 view .LVU173
 521              		.cfi_endproc
 522              	.LFE191:
 524 01a6 00BF     		.section	.text.draw_main,"ax",%progbits
ARM GAS  /var/folders/0z/tsy30v1j4xl4_7kw94k978ww0000gn/T//ccyrzG1p.s 			page 34


 525              		.align	1
 526              		.p2align 2,,3
 527              		.syntax unified
 528              		.thumb
 529              		.thumb_func
 531              	draw_main:
 532              	.LVL39:
 533              	.LFB179:
 689:Drivers/lvgl/src/widgets/lv_btnmatrix.c ****     lv_obj_t * obj = lv_event_get_target(e);
 534              		.loc 1 689 1 is_stmt 1 view -0
 535              		.cfi_startproc
 536              		@ args = 0, pretend = 0, frame = 320
 537              		@ frame_needed = 0, uses_anonymous_args = 0
 690:Drivers/lvgl/src/widgets/lv_btnmatrix.c ****     lv_btnmatrix_t * btnm = (lv_btnmatrix_t *)obj;
 538              		.loc 1 690 5 view .LVU175
 689:Drivers/lvgl/src/widgets/lv_btnmatrix.c ****     lv_obj_t * obj = lv_event_get_target(e);
 539              		.loc 1 689 1 is_stmt 0 view .LVU176
 540 0000 2DE9F04F 		push	{r4, r5, r6, r7, r8, r9, r10, fp, lr}
 541              		.cfi_def_cfa_offset 36
 542              		.cfi_offset 4, -36
 543              		.cfi_offset 5, -32
 544              		.cfi_offset 6, -28
 545              		.cfi_offset 7, -24
 546              		.cfi_offset 8, -20
 547              		.cfi_offset 9, -16
 548              		.cfi_offset 10, -12
 549              		.cfi_offset 11, -8
 550              		.cfi_offset 14, -4
 551 0004 2DED028B 		vpush.64	{d8}
 552              		.cfi_def_cfa_offset 44
 553              		.cfi_offset 80, -44
 554              		.cfi_offset 81, -40
 555 0008 D5B0     		sub	sp, sp, #340
 556              		.cfi_def_cfa_offset 384
 689:Drivers/lvgl/src/widgets/lv_btnmatrix.c ****     lv_obj_t * obj = lv_event_get_target(e);
 557              		.loc 1 689 1 view .LVU177
 558 000a 0446     		mov	r4, r0
 690:Drivers/lvgl/src/widgets/lv_btnmatrix.c ****     lv_btnmatrix_t * btnm = (lv_btnmatrix_t *)obj;
 559              		.loc 1 690 22 view .LVU178
 560 000c FFF7FEFF 		bl	lv_event_get_target
 561              	.LVL40:
 691:Drivers/lvgl/src/widgets/lv_btnmatrix.c ****     if(btnm->btn_cnt == 0) return;
 562              		.loc 1 691 5 is_stmt 1 view .LVU179
 692:Drivers/lvgl/src/widgets/lv_btnmatrix.c **** 
 563              		.loc 1 692 5 view .LVU180
 692:Drivers/lvgl/src/widgets/lv_btnmatrix.c **** 
 564              		.loc 1 692 7 is_stmt 0 view .LVU181
 565 0010 038E     		ldrh	r3, [r0, #48]
 566 0012 23B9     		cbnz	r3, .L81
 851:Drivers/lvgl/src/widgets/lv_btnmatrix.c **** /**
 567              		.loc 1 851 1 view .LVU182
 568 0014 55B0     		add	sp, sp, #340
 569              		.cfi_remember_state
 570              		.cfi_def_cfa_offset 44
 571              		@ sp needed
 572 0016 BDEC028B 		vldm	sp!, {d8}
 573              		.cfi_restore 80
ARM GAS  /var/folders/0z/tsy30v1j4xl4_7kw94k978ww0000gn/T//ccyrzG1p.s 			page 35


 574              		.cfi_restore 81
 575              		.cfi_def_cfa_offset 36
 576 001a BDE8F08F 		pop	{r4, r5, r6, r7, r8, r9, r10, fp, pc}
 577              	.LVL41:
 578              	.L81:
 579              		.cfi_restore_state
 694:Drivers/lvgl/src/widgets/lv_btnmatrix.c ****     obj->skip_trans = 1;
 580              		.loc 1 694 5 is_stmt 1 view .LVU183
 581 001e 0546     		mov	r5, r0
 694:Drivers/lvgl/src/widgets/lv_btnmatrix.c ****     obj->skip_trans = 1;
 582              		.loc 1 694 32 is_stmt 0 view .LVU184
 583 0020 2046     		mov	r0, r4
 584              	.LVL42:
 694:Drivers/lvgl/src/widgets/lv_btnmatrix.c ****     obj->skip_trans = 1;
 585              		.loc 1 694 32 view .LVU185
 586 0022 FFF7FEFF 		bl	lv_event_get_draw_ctx
 587              	.LVL43:
 695:Drivers/lvgl/src/widgets/lv_btnmatrix.c **** 
 588              		.loc 1 695 21 view .LVU186
 589 0026 95F82230 		ldrb	r3, [r5, #34]	@ zero_extendqisi2
 590 002a 43F00803 		orr	r3, r3, #8
 698:Drivers/lvgl/src/widgets/lv_btnmatrix.c **** 
 591              		.loc 1 698 5 view .LVU187
 592 002e 14A9     		add	r1, sp, #80
 695:Drivers/lvgl/src/widgets/lv_btnmatrix.c **** 
 593              		.loc 1 695 21 view .LVU188
 594 0030 85F82230 		strb	r3, [r5, #34]
 694:Drivers/lvgl/src/widgets/lv_btnmatrix.c ****     obj->skip_trans = 1;
 595              		.loc 1 694 32 view .LVU189
 596 0034 0646     		mov	r6, r0
 597 0036 08EE100A 		vmov	s16, r0	@ int
 598              	.LVL44:
 695:Drivers/lvgl/src/widgets/lv_btnmatrix.c **** 
 599              		.loc 1 695 5 is_stmt 1 view .LVU190
 697:Drivers/lvgl/src/widgets/lv_btnmatrix.c ****     lv_obj_get_coords(obj, &area_obj);
 600              		.loc 1 697 5 view .LVU191
 698:Drivers/lvgl/src/widgets/lv_btnmatrix.c **** 
 601              		.loc 1 698 5 view .LVU192
 602 003a 2846     		mov	r0, r5
 603              	.LVL45:
 698:Drivers/lvgl/src/widgets/lv_btnmatrix.c **** 
 604              		.loc 1 698 5 is_stmt 0 view .LVU193
 605 003c FFF7FEFF 		bl	lv_obj_get_coords
 606              	.LVL46:
 700:Drivers/lvgl/src/widgets/lv_btnmatrix.c **** 
 607              		.loc 1 700 5 is_stmt 1 view .LVU194
 702:Drivers/lvgl/src/widgets/lv_btnmatrix.c ****     uint16_t txt_i = 0;
 608              		.loc 1 702 5 view .LVU195
 703:Drivers/lvgl/src/widgets/lv_btnmatrix.c **** 
 609              		.loc 1 703 5 view .LVU196
 705:Drivers/lvgl/src/widgets/lv_btnmatrix.c ****     lv_draw_label_dsc_t draw_label_dsc_act;
 610              		.loc 1 705 5 view .LVU197
 706:Drivers/lvgl/src/widgets/lv_btnmatrix.c **** 
 611              		.loc 1 706 5 view .LVU198
 708:Drivers/lvgl/src/widgets/lv_btnmatrix.c ****     lv_draw_label_dsc_t draw_label_dsc_def;
 612              		.loc 1 708 5 view .LVU199
 709:Drivers/lvgl/src/widgets/lv_btnmatrix.c **** 
ARM GAS  /var/folders/0z/tsy30v1j4xl4_7kw94k978ww0000gn/T//ccyrzG1p.s 			page 36


 613              		.loc 1 709 5 view .LVU200
 711:Drivers/lvgl/src/widgets/lv_btnmatrix.c ****     obj->state = LV_STATE_DEFAULT;
 614              		.loc 1 711 5 view .LVU201
 712:Drivers/lvgl/src/widgets/lv_btnmatrix.c ****     obj->skip_trans = 1;
 615              		.loc 1 712 16 is_stmt 0 view .LVU202
 616 0040 2A6A     		ldr	r2, [r5, #32]
 617 0042 BA4B     		ldr	r3, .L82
 711:Drivers/lvgl/src/widgets/lv_btnmatrix.c ****     obj->state = LV_STATE_DEFAULT;
 618              		.loc 1 711 16 view .LVU203
 619 0044 2C8C     		ldrh	r4, [r5, #32]
 620              	.LVL47:
 711:Drivers/lvgl/src/widgets/lv_btnmatrix.c ****     obj->state = LV_STATE_DEFAULT;
 621              		.loc 1 711 16 view .LVU204
 622 0046 0694     		str	r4, [sp, #24]
 623              	.LVL48:
 712:Drivers/lvgl/src/widgets/lv_btnmatrix.c ****     obj->skip_trans = 1;
 624              		.loc 1 712 5 is_stmt 1 view .LVU205
 713:Drivers/lvgl/src/widgets/lv_btnmatrix.c ****     lv_draw_rect_dsc_init(&draw_rect_dsc_def);
 625              		.loc 1 713 5 view .LVU206
 712:Drivers/lvgl/src/widgets/lv_btnmatrix.c ****     obj->skip_trans = 1;
 626              		.loc 1 712 16 is_stmt 0 view .LVU207
 627 0048 1340     		ands	r3, r3, r2
 628 004a 43F40023 		orr	r3, r3, #524288
 629 004e 2B62     		str	r3, [r5, #32]
 714:Drivers/lvgl/src/widgets/lv_btnmatrix.c ****     lv_draw_label_dsc_init(&draw_label_dsc_def);
 630              		.loc 1 714 5 is_stmt 1 view .LVU208
 631 0050 34AB     		add	r3, sp, #208
 632 0052 1846     		mov	r0, r3
 633 0054 FFF7FEFF 		bl	lv_draw_rect_dsc_init
 634              	.LVL49:
 715:Drivers/lvgl/src/widgets/lv_btnmatrix.c ****     lv_obj_init_draw_rect_dsc(obj, LV_PART_ITEMS, &draw_rect_dsc_def);
 635              		.loc 1 715 5 view .LVU209
 636 0058 1EAB     		add	r3, sp, #120
 637 005a 1846     		mov	r0, r3
 638 005c FFF7FEFF 		bl	lv_draw_label_dsc_init
 639              	.LVL50:
 716:Drivers/lvgl/src/widgets/lv_btnmatrix.c ****     lv_obj_init_draw_label_dsc(obj, LV_PART_ITEMS, &draw_label_dsc_def);
 640              		.loc 1 716 5 view .LVU210
 641 0060 34AA     		add	r2, sp, #208
 642 0062 4FF4A021 		mov	r1, #327680
 643 0066 2846     		mov	r0, r5
 644 0068 FFF7FEFF 		bl	lv_obj_init_draw_rect_dsc
 645              	.LVL51:
 717:Drivers/lvgl/src/widgets/lv_btnmatrix.c ****     obj->skip_trans = 0;
 646              		.loc 1 717 5 view .LVU211
 647 006c 1EAA     		add	r2, sp, #120
 648 006e 4FF4A021 		mov	r1, #327680
 649 0072 2846     		mov	r0, r5
 650 0074 FFF7FEFF 		bl	lv_obj_init_draw_label_dsc
 651              	.LVL52:
 718:Drivers/lvgl/src/widgets/lv_btnmatrix.c ****     obj->state = state_ori;
 652              		.loc 1 718 5 view .LVU212
 718:Drivers/lvgl/src/widgets/lv_btnmatrix.c ****     obj->state = state_ori;
 653              		.loc 1 718 21 is_stmt 0 view .LVU213
 654 0078 95F82230 		ldrb	r3, [r5, #34]	@ zero_extendqisi2
 719:Drivers/lvgl/src/widgets/lv_btnmatrix.c **** 
 655              		.loc 1 719 16 view .LVU214
ARM GAS  /var/folders/0z/tsy30v1j4xl4_7kw94k978ww0000gn/T//ccyrzG1p.s 			page 37


 656 007c 2C84     		strh	r4, [r5, #32]	@ movhi
 718:Drivers/lvgl/src/widgets/lv_btnmatrix.c ****     obj->state = state_ori;
 657              		.loc 1 718 21 view .LVU215
 658 007e 6FF3C303 		bfc	r3, #3, #1
 659 0082 85F82230 		strb	r3, [r5, #34]
 719:Drivers/lvgl/src/widgets/lv_btnmatrix.c **** 
 660              		.loc 1 719 5 is_stmt 1 view .LVU216
 721:Drivers/lvgl/src/widgets/lv_btnmatrix.c ****     lv_coord_t pbottom = lv_obj_get_style_pad_bottom(obj, LV_PART_MAIN);
 661              		.loc 1 721 5 view .LVU217
 662              	.LVL53:
 663              	.LBB298:
 664              	.LBI298:
 103:Drivers/lvgl/src/widgets/../core/lv_obj_style_gen.h **** {
 665              		.loc 2 103 26 view .LVU218
 666              	.LBB299:
 105:Drivers/lvgl/src/widgets/../core/lv_obj_style_gen.h ****     return (lv_coord_t)v.num;
 667              		.loc 2 105 5 view .LVU219
 105:Drivers/lvgl/src/widgets/../core/lv_obj_style_gen.h ****     return (lv_coord_t)v.num;
 668              		.loc 2 105 26 is_stmt 0 view .LVU220
 669 0086 1022     		movs	r2, #16
 670 0088 0021     		movs	r1, #0
 671 008a 2846     		mov	r0, r5
 672 008c FFF7FEFF 		bl	lv_obj_get_style_prop
 673              	.LVL54:
 106:Drivers/lvgl/src/widgets/../core/lv_obj_style_gen.h **** }
 674              		.loc 2 106 5 is_stmt 1 view .LVU221
 675              	.LBE299:
 676              	.LBE298:
 677              	.LBB302:
 678              	.LBB303:
 111:Drivers/lvgl/src/widgets/../core/lv_obj_style_gen.h ****     return (lv_coord_t)v.num;
 679              		.loc 2 111 26 is_stmt 0 view .LVU222
 680 0090 1122     		movs	r2, #17
 681              	.LBE303:
 682              	.LBE302:
 683              	.LBB308:
 684              	.LBB300:
 106:Drivers/lvgl/src/widgets/../core/lv_obj_style_gen.h **** }
 685              		.loc 2 106 12 view .LVU223
 686 0092 03B2     		sxth	r3, r0
 687              	.LBE300:
 688              	.LBE308:
 689              	.LBB309:
 690              	.LBB304:
 111:Drivers/lvgl/src/widgets/../core/lv_obj_style_gen.h ****     return (lv_coord_t)v.num;
 691              		.loc 2 111 26 view .LVU224
 692 0094 0021     		movs	r1, #0
 693 0096 2846     		mov	r0, r5
 694              	.LBE304:
 695              	.LBE309:
 696              	.LBB310:
 697              	.LBB301:
 106:Drivers/lvgl/src/widgets/../core/lv_obj_style_gen.h **** }
 698              		.loc 2 106 12 view .LVU225
 699 0098 0793     		str	r3, [sp, #28]
 700              	.LVL55:
 106:Drivers/lvgl/src/widgets/../core/lv_obj_style_gen.h **** }
ARM GAS  /var/folders/0z/tsy30v1j4xl4_7kw94k978ww0000gn/T//ccyrzG1p.s 			page 38


 701              		.loc 2 106 12 view .LVU226
 702              	.LBE301:
 703              	.LBE310:
 722:Drivers/lvgl/src/widgets/lv_btnmatrix.c ****     lv_coord_t pleft = lv_obj_get_style_pad_left(obj, LV_PART_MAIN);
 704              		.loc 1 722 5 is_stmt 1 view .LVU227
 705              	.LBB311:
 706              	.LBI302:
 109:Drivers/lvgl/src/widgets/../core/lv_obj_style_gen.h **** {
 707              		.loc 2 109 26 view .LVU228
 708              	.LBB305:
 111:Drivers/lvgl/src/widgets/../core/lv_obj_style_gen.h ****     return (lv_coord_t)v.num;
 709              		.loc 2 111 5 view .LVU229
 111:Drivers/lvgl/src/widgets/../core/lv_obj_style_gen.h ****     return (lv_coord_t)v.num;
 710              		.loc 2 111 26 is_stmt 0 view .LVU230
 711 009a FFF7FEFF 		bl	lv_obj_get_style_prop
 712              	.LVL56:
 112:Drivers/lvgl/src/widgets/../core/lv_obj_style_gen.h **** }
 713              		.loc 2 112 5 is_stmt 1 view .LVU231
 714              	.LBE305:
 715              	.LBE311:
 716              	.LBB312:
 717              	.LBB313:
 117:Drivers/lvgl/src/widgets/../core/lv_obj_style_gen.h ****     return (lv_coord_t)v.num;
 718              		.loc 2 117 26 is_stmt 0 view .LVU232
 719 009e 1222     		movs	r2, #18
 720              	.LBE313:
 721              	.LBE312:
 722              	.LBB318:
 723              	.LBB306:
 112:Drivers/lvgl/src/widgets/../core/lv_obj_style_gen.h **** }
 724              		.loc 2 112 12 view .LVU233
 725 00a0 03B2     		sxth	r3, r0
 726              	.LBE306:
 727              	.LBE318:
 728              	.LBB319:
 729              	.LBB314:
 117:Drivers/lvgl/src/widgets/../core/lv_obj_style_gen.h ****     return (lv_coord_t)v.num;
 730              		.loc 2 117 26 view .LVU234
 731 00a2 0021     		movs	r1, #0
 732 00a4 2846     		mov	r0, r5
 733              	.LBE314:
 734              	.LBE319:
 735              	.LBB320:
 736              	.LBB307:
 112:Drivers/lvgl/src/widgets/../core/lv_obj_style_gen.h **** }
 737              		.loc 2 112 12 view .LVU235
 738 00a6 0893     		str	r3, [sp, #32]
 739              	.LVL57:
 112:Drivers/lvgl/src/widgets/../core/lv_obj_style_gen.h **** }
 740              		.loc 2 112 12 view .LVU236
 741              	.LBE307:
 742              	.LBE320:
 723:Drivers/lvgl/src/widgets/lv_btnmatrix.c ****     lv_coord_t pright = lv_obj_get_style_pad_right(obj, LV_PART_MAIN);
 743              		.loc 1 723 5 is_stmt 1 view .LVU237
 744              	.LBB321:
 745              	.LBI312:
 115:Drivers/lvgl/src/widgets/../core/lv_obj_style_gen.h **** {
ARM GAS  /var/folders/0z/tsy30v1j4xl4_7kw94k978ww0000gn/T//ccyrzG1p.s 			page 39


 746              		.loc 2 115 26 view .LVU238
 747              	.LBB315:
 117:Drivers/lvgl/src/widgets/../core/lv_obj_style_gen.h ****     return (lv_coord_t)v.num;
 748              		.loc 2 117 5 view .LVU239
 117:Drivers/lvgl/src/widgets/../core/lv_obj_style_gen.h ****     return (lv_coord_t)v.num;
 749              		.loc 2 117 26 is_stmt 0 view .LVU240
 750 00a8 FFF7FEFF 		bl	lv_obj_get_style_prop
 751              	.LVL58:
 118:Drivers/lvgl/src/widgets/../core/lv_obj_style_gen.h **** }
 752              		.loc 2 118 5 is_stmt 1 view .LVU241
 753              	.LBE315:
 754              	.LBE321:
 755              	.LBB322:
 756              	.LBB323:
 123:Drivers/lvgl/src/widgets/../core/lv_obj_style_gen.h ****     return (lv_coord_t)v.num;
 757              		.loc 2 123 26 is_stmt 0 view .LVU242
 758 00ac 1322     		movs	r2, #19
 759              	.LBE323:
 760              	.LBE322:
 761              	.LBB328:
 762              	.LBB316:
 118:Drivers/lvgl/src/widgets/../core/lv_obj_style_gen.h **** }
 763              		.loc 2 118 12 view .LVU243
 764 00ae 03B2     		sxth	r3, r0
 765              	.LBE316:
 766              	.LBE328:
 767              	.LBB329:
 768              	.LBB324:
 123:Drivers/lvgl/src/widgets/../core/lv_obj_style_gen.h ****     return (lv_coord_t)v.num;
 769              		.loc 2 123 26 view .LVU244
 770 00b0 0021     		movs	r1, #0
 771 00b2 2846     		mov	r0, r5
 772              	.LBE324:
 773              	.LBE329:
 774              	.LBB330:
 775              	.LBB317:
 118:Drivers/lvgl/src/widgets/../core/lv_obj_style_gen.h **** }
 776              		.loc 2 118 12 view .LVU245
 777 00b4 0993     		str	r3, [sp, #36]
 778              	.LVL59:
 118:Drivers/lvgl/src/widgets/../core/lv_obj_style_gen.h **** }
 779              		.loc 2 118 12 view .LVU246
 780              	.LBE317:
 781              	.LBE330:
 724:Drivers/lvgl/src/widgets/lv_btnmatrix.c **** 
 782              		.loc 1 724 5 is_stmt 1 view .LVU247
 783              	.LBB331:
 784              	.LBI322:
 121:Drivers/lvgl/src/widgets/../core/lv_obj_style_gen.h **** {
 785              		.loc 2 121 26 view .LVU248
 786              	.LBB325:
 123:Drivers/lvgl/src/widgets/../core/lv_obj_style_gen.h ****     return (lv_coord_t)v.num;
 787              		.loc 2 123 5 view .LVU249
 123:Drivers/lvgl/src/widgets/../core/lv_obj_style_gen.h ****     return (lv_coord_t)v.num;
 788              		.loc 2 123 26 is_stmt 0 view .LVU250
 789 00b6 FFF7FEFF 		bl	lv_obj_get_style_prop
 790              	.LVL60:
ARM GAS  /var/folders/0z/tsy30v1j4xl4_7kw94k978ww0000gn/T//ccyrzG1p.s 			page 40


 124:Drivers/lvgl/src/widgets/../core/lv_obj_style_gen.h **** }
 791              		.loc 2 124 5 is_stmt 1 view .LVU251
 792              	.LBE325:
 793              	.LBE331:
 732:Drivers/lvgl/src/widgets/lv_btnmatrix.c ****     part_draw_dsc.part = LV_PART_ITEMS;
 794              		.loc 1 732 5 is_stmt 0 view .LVU252
 795 00ba 3146     		mov	r1, r6
 796              	.LBB332:
 797              	.LBB326:
 124:Drivers/lvgl/src/widgets/../core/lv_obj_style_gen.h **** }
 798              		.loc 2 124 12 view .LVU253
 799 00bc 03B2     		sxth	r3, r0
 800              	.LBE326:
 801              	.LBE332:
 732:Drivers/lvgl/src/widgets/lv_btnmatrix.c ****     part_draw_dsc.part = LV_PART_ITEMS;
 802              		.loc 1 732 5 view .LVU254
 803 00be 42A8     		add	r0, sp, #264
 804              	.LBB333:
 805              	.LBB327:
 124:Drivers/lvgl/src/widgets/../core/lv_obj_style_gen.h **** }
 806              		.loc 2 124 12 view .LVU255
 807 00c0 0A93     		str	r3, [sp, #40]
 808              	.LVL61:
 124:Drivers/lvgl/src/widgets/../core/lv_obj_style_gen.h **** }
 809              		.loc 2 124 12 view .LVU256
 810              	.LBE327:
 811              	.LBE333:
 731:Drivers/lvgl/src/widgets/lv_btnmatrix.c ****     lv_obj_draw_dsc_init(&part_draw_dsc, draw_ctx);
 812              		.loc 1 731 5 is_stmt 1 view .LVU257
 732:Drivers/lvgl/src/widgets/lv_btnmatrix.c ****     part_draw_dsc.part = LV_PART_ITEMS;
 813              		.loc 1 732 5 view .LVU258
 814 00c2 FFF7FEFF 		bl	lv_obj_draw_dsc_init
 815              	.LVL62:
 733:Drivers/lvgl/src/widgets/lv_btnmatrix.c ****     part_draw_dsc.class_p = MY_CLASS;
 816              		.loc 1 733 5 view .LVU259
 734:Drivers/lvgl/src/widgets/lv_btnmatrix.c ****     part_draw_dsc.type = LV_BTNMATRIX_DRAW_PART_BTN;
 817              		.loc 1 734 27 is_stmt 0 view .LVU260
 818 00c6 9A4B     		ldr	r3, .L82+4
 739:Drivers/lvgl/src/widgets/lv_btnmatrix.c ****         /*Search the next valid text in the map*/
 819              		.loc 1 739 26 view .LVU261
 820 00c8 2F8E     		ldrh	r7, [r5, #48]
 734:Drivers/lvgl/src/widgets/lv_btnmatrix.c ****     part_draw_dsc.type = LV_BTNMATRIX_DRAW_PART_BTN;
 821              		.loc 1 734 27 view .LVU262
 822 00ca 4393     		str	r3, [sp, #268]
 733:Drivers/lvgl/src/widgets/lv_btnmatrix.c ****     part_draw_dsc.class_p = MY_CLASS;
 823              		.loc 1 733 24 view .LVU263
 824 00cc 4FF4A023 		mov	r3, #327680
 825 00d0 4F93     		str	r3, [sp, #316]
 734:Drivers/lvgl/src/widgets/lv_btnmatrix.c ****     part_draw_dsc.type = LV_BTNMATRIX_DRAW_PART_BTN;
 826              		.loc 1 734 5 is_stmt 1 view .LVU264
 735:Drivers/lvgl/src/widgets/lv_btnmatrix.c ****     part_draw_dsc.rect_dsc = &draw_rect_dsc_act;
 827              		.loc 1 735 5 view .LVU265
 736:Drivers/lvgl/src/widgets/lv_btnmatrix.c ****     part_draw_dsc.label_dsc = &draw_label_dsc_act;
 828              		.loc 1 736 28 is_stmt 0 view .LVU266
 829 00d2 26AA     		add	r2, sp, #152
 735:Drivers/lvgl/src/widgets/lv_btnmatrix.c ****     part_draw_dsc.rect_dsc = &draw_rect_dsc_act;
 830              		.loc 1 735 24 view .LVU267
ARM GAS  /var/folders/0z/tsy30v1j4xl4_7kw94k978ww0000gn/T//ccyrzG1p.s 			page 41


 831 00d4 0023     		movs	r3, #0
 737:Drivers/lvgl/src/widgets/lv_btnmatrix.c **** 
 832              		.loc 1 737 29 view .LVU268
 833 00d6 0DF1580A 		add	r10, sp, #88
 735:Drivers/lvgl/src/widgets/lv_btnmatrix.c ****     part_draw_dsc.rect_dsc = &draw_rect_dsc_act;
 834              		.loc 1 735 24 view .LVU269
 835 00da 4493     		str	r3, [sp, #272]
 736:Drivers/lvgl/src/widgets/lv_btnmatrix.c ****     part_draw_dsc.label_dsc = &draw_label_dsc_act;
 836              		.loc 1 736 5 is_stmt 1 view .LVU270
 736:Drivers/lvgl/src/widgets/lv_btnmatrix.c ****     part_draw_dsc.label_dsc = &draw_label_dsc_act;
 837              		.loc 1 736 28 is_stmt 0 view .LVU271
 838 00dc 4692     		str	r2, [sp, #280]
 737:Drivers/lvgl/src/widgets/lv_btnmatrix.c **** 
 839              		.loc 1 737 5 is_stmt 1 view .LVU272
 737:Drivers/lvgl/src/widgets/lv_btnmatrix.c **** 
 840              		.loc 1 737 29 is_stmt 0 view .LVU273
 841 00de CDF81CA1 		str	r10, [sp, #284]
 739:Drivers/lvgl/src/widgets/lv_btnmatrix.c ****         /*Search the next valid text in the map*/
 842              		.loc 1 739 5 is_stmt 1 view .LVU274
 739:Drivers/lvgl/src/widgets/lv_btnmatrix.c ****         /*Search the next valid text in the map*/
 843              		.loc 1 739 26 view .LVU275
 844 00e2 002F     		cmp	r7, #0
 845 00e4 00F0A581 		beq	.L25
 739:Drivers/lvgl/src/widgets/lv_btnmatrix.c ****         /*Search the next valid text in the map*/
 846              		.loc 1 739 26 is_stmt 0 view .LVU276
 847 00e8 9B46     		mov	fp, r3
 848 00ea 04F02003 		and	r3, r4, #32
 849 00ee 0C93     		str	r3, [sp, #48]
 850 00f0 04F00203 		and	r3, r4, #2
 851 00f4 0D93     		str	r3, [sp, #52]
 852 00f6 04F00403 		and	r3, r4, #4
 853 00fa 0E93     		str	r3, [sp, #56]
 854 00fc 04F00803 		and	r3, r4, #8
 855 0100 0F93     		str	r3, [sp, #60]
 703:Drivers/lvgl/src/widgets/lv_btnmatrix.c **** 
 856              		.loc 1 703 14 view .LVU277
 857 0102 5C46     		mov	r4, fp
 858              	.LVL63:
 703:Drivers/lvgl/src/widgets/lv_btnmatrix.c **** 
 859              		.loc 1 703 14 view .LVU278
 860 0104 5846     		mov	r0, fp
 861 0106 E7E0     		b	.L26
 862              	.LVL64:
 863              	.L48:
 864              	.LBB334:
 746:Drivers/lvgl/src/widgets/lv_btnmatrix.c **** 
 865              		.loc 1 746 9 is_stmt 1 view .LVU279
 746:Drivers/lvgl/src/widgets/lv_btnmatrix.c **** 
 866              		.loc 1 746 12 is_stmt 0 view .LVU280
 867 0108 EB6A     		ldr	r3, [r5, #44]
 868 010a 1FFA8BF8 		uxth	r8, fp
 869              	.LVL65:
 870              	.LBB335:
 871              	.LBI335:
 908:Drivers/lvgl/src/widgets/lv_btnmatrix.c **** {
 872              		.loc 1 908 13 is_stmt 1 view .LVU281
 873              	.LBB336:
ARM GAS  /var/folders/0z/tsy30v1j4xl4_7kw94k978ww0000gn/T//ccyrzG1p.s 			page 42


 910:Drivers/lvgl/src/widgets/lv_btnmatrix.c **** }
 874              		.loc 1 910 5 view .LVU282
 910:Drivers/lvgl/src/widgets/lv_btnmatrix.c **** }
 875              		.loc 1 910 58 is_stmt 0 view .LVU283
 876 010e 33F81830 		ldrh	r3, [r3, r8, lsl #1]
 877              	.LVL66:
 910:Drivers/lvgl/src/widgets/lv_btnmatrix.c **** }
 878              		.loc 1 910 58 view .LVU284
 879              	.LBE336:
 880              	.LBE335:
 746:Drivers/lvgl/src/widgets/lv_btnmatrix.c **** 
 881              		.loc 1 746 11 view .LVU285
 882 0112 DA06     		lsls	r2, r3, #27
 883 0114 00F1D780 		bmi	.L29
 749:Drivers/lvgl/src/widgets/lv_btnmatrix.c ****         if(button_get_checked(btnm->ctrl_bits[btn_i])) btn_state |= LV_STATE_CHECKED;
 884              		.loc 1 749 9 is_stmt 1 view .LVU286
 885              	.LVL67:
 750:Drivers/lvgl/src/widgets/lv_btnmatrix.c **** 
 886              		.loc 1 750 9 view .LVU287
 887              	.LBB337:
 888              	.LBI337:
 943:Drivers/lvgl/src/widgets/lv_btnmatrix.c **** {
 889              		.loc 1 943 13 view .LVU288
 890              	.LBB338:
 945:Drivers/lvgl/src/widgets/lv_btnmatrix.c **** }
 891              		.loc 1 945 5 view .LVU289
 945:Drivers/lvgl/src/widgets/lv_btnmatrix.c **** }
 892              		.loc 1 945 5 is_stmt 0 view .LVU290
 893              	.LBE338:
 894              	.LBE337:
 752:Drivers/lvgl/src/widgets/lv_btnmatrix.c ****         else if(btn_i == btnm->btn_id_sel) {
 895              		.loc 1 752 11 view .LVU291
 896 0118 5906     		lsls	r1, r3, #25
 749:Drivers/lvgl/src/widgets/lv_btnmatrix.c ****         if(button_get_checked(btnm->ctrl_bits[btn_i])) btn_state |= LV_STATE_CHECKED;
 897              		.loc 1 749 20 view .LVU292
 898 011a C3F30027 		ubfx	r7, r3, #8, #1
 899              	.LVL68:
 752:Drivers/lvgl/src/widgets/lv_btnmatrix.c ****         else if(btn_i == btnm->btn_id_sel) {
 900              		.loc 1 752 9 is_stmt 1 view .LVU293
 901              	.LBB339:
 902              	.LBI339:
 923:Drivers/lvgl/src/widgets/lv_btnmatrix.c **** {
 903              		.loc 1 923 13 view .LVU294
 904              	.LBB340:
 925:Drivers/lvgl/src/widgets/lv_btnmatrix.c **** }
 905              		.loc 1 925 5 view .LVU295
 925:Drivers/lvgl/src/widgets/lv_btnmatrix.c **** }
 906              		.loc 1 925 5 is_stmt 0 view .LVU296
 907              	.LBE340:
 908              	.LBE339:
 752:Drivers/lvgl/src/widgets/lv_btnmatrix.c ****         else if(btn_i == btnm->btn_id_sel) {
 909              		.loc 1 752 11 view .LVU297
 910 011e 40F1ED80 		bpl	.L30
 752:Drivers/lvgl/src/widgets/lv_btnmatrix.c ****         else if(btn_i == btnm->btn_id_sel) {
 911              		.loc 1 752 56 is_stmt 1 discriminator 1 view .LVU298
 752:Drivers/lvgl/src/widgets/lv_btnmatrix.c ****         else if(btn_i == btnm->btn_id_sel) {
 912              		.loc 1 752 66 is_stmt 0 discriminator 1 view .LVU299
ARM GAS  /var/folders/0z/tsy30v1j4xl4_7kw94k978ww0000gn/T//ccyrzG1p.s 			page 43


 913 0122 47F08007 		orr	r7, r7, #128
 914              	.LVL69:
 915              	.L31:
 761:Drivers/lvgl/src/widgets/lv_btnmatrix.c ****         btn_area.x1 += area_obj.x1;
 916              		.loc 1 761 9 is_stmt 1 view .LVU300
 761:Drivers/lvgl/src/widgets/lv_btnmatrix.c ****         btn_area.x1 += area_obj.x1;
 917              		.loc 1 761 33 is_stmt 0 view .LVU301
 918 0126 AA6A     		ldr	r2, [r5, #40]
 762:Drivers/lvgl/src/widgets/lv_btnmatrix.c ****         btn_area.y1 += area_obj.y1;
 919              		.loc 1 762 32 view .LVU302
 920 0128 BDF85010 		ldrh	r1, [sp, #80]
 762:Drivers/lvgl/src/widgets/lv_btnmatrix.c ****         btn_area.y1 += area_obj.y1;
 921              		.loc 1 762 21 view .LVU303
 922 012c 32F838E0 		ldrh	lr, [r2, r8, lsl #3]
 761:Drivers/lvgl/src/widgets/lv_btnmatrix.c ****         btn_area.x1 += area_obj.x1;
 923              		.loc 1 761 33 view .LVU304
 924 0130 02EBC803 		add	r3, r2, r8, lsl #3
 925              	.LVL70:
 926              	.LBB341:
 927              	.LBI341:
 110:Drivers/lvgl/src/widgets/../core/../misc/../font/../misc/lv_area.h **** {
 928              		.loc 3 110 20 is_stmt 1 view .LVU305
 929              	.LBB342:
 112:Drivers/lvgl/src/widgets/../core/../misc/../font/../misc/lv_area.h ****     dest->y1 = src->y1;
 930              		.loc 3 112 5 view .LVU306
 113:Drivers/lvgl/src/widgets/../core/../misc/../font/../misc/lv_area.h ****     dest->x2 = src->x2;
 931              		.loc 3 113 5 view .LVU307
 114:Drivers/lvgl/src/widgets/../core/../misc/../font/../misc/lv_area.h ****     dest->y2 = src->y2;
 932              		.loc 3 114 5 view .LVU308
 933              		.loc 3 115 5 view .LVU309
 934              		.loc 3 115 5 is_stmt 0 view .LVU310
 935              	.LBE342:
 936              	.LBE341:
 762:Drivers/lvgl/src/widgets/lv_btnmatrix.c ****         btn_area.y1 += area_obj.y1;
 937              		.loc 1 762 9 is_stmt 1 view .LVU311
 763:Drivers/lvgl/src/widgets/lv_btnmatrix.c ****         btn_area.x2 += area_obj.x1;
 938              		.loc 1 763 9 view .LVU312
 762:Drivers/lvgl/src/widgets/lv_btnmatrix.c ****         btn_area.y1 += area_obj.y1;
 939              		.loc 1 762 21 is_stmt 0 view .LVU313
 940 0134 8E44     		add	lr, lr, r1
 764:Drivers/lvgl/src/widgets/lv_btnmatrix.c ****         btn_area.y2 += area_obj.y1;
 941              		.loc 1 764 21 view .LVU314
 942 0136 9A88     		ldrh	r2, [r3, #4]
 763:Drivers/lvgl/src/widgets/lv_btnmatrix.c ****         btn_area.x2 += area_obj.x1;
 943              		.loc 1 763 21 view .LVU315
 944 0138 B3F802C0 		ldrh	ip, [r3, #2]
 765:Drivers/lvgl/src/widgets/lv_btnmatrix.c **** 
 945              		.loc 1 765 21 view .LVU316
 946 013c DB88     		ldrh	r3, [r3, #6]
 764:Drivers/lvgl/src/widgets/lv_btnmatrix.c ****         btn_area.y2 += area_obj.y1;
 947              		.loc 1 764 21 view .LVU317
 948 013e 1144     		add	r1, r1, r2
 763:Drivers/lvgl/src/widgets/lv_btnmatrix.c ****         btn_area.x2 += area_obj.x1;
 949              		.loc 1 763 32 view .LVU318
 950 0140 BDF85220 		ldrh	r2, [sp, #82]
 764:Drivers/lvgl/src/widgets/lv_btnmatrix.c ****         btn_area.y2 += area_obj.y1;
 951              		.loc 1 764 9 is_stmt 1 view .LVU319
ARM GAS  /var/folders/0z/tsy30v1j4xl4_7kw94k978ww0000gn/T//ccyrzG1p.s 			page 44


 765:Drivers/lvgl/src/widgets/lv_btnmatrix.c **** 
 952              		.loc 1 765 9 view .LVU320
 763:Drivers/lvgl/src/widgets/lv_btnmatrix.c ****         btn_area.x2 += area_obj.x1;
 953              		.loc 1 763 21 is_stmt 0 view .LVU321
 954 0144 9444     		add	ip, ip, r2
 765:Drivers/lvgl/src/widgets/lv_btnmatrix.c **** 
 955              		.loc 1 765 21 view .LVU322
 956 0146 1A44     		add	r2, r2, r3
 762:Drivers/lvgl/src/widgets/lv_btnmatrix.c ****         btn_area.y1 += area_obj.y1;
 957              		.loc 1 762 21 view .LVU323
 958 0148 0023     		movs	r3, #0
 959 014a 1846     		mov	r0, r3
 960 014c 61F30F00 		bfi	r0, r1, #0, #16
 961 0150 6EF30F03 		bfi	r3, lr, #0, #16
 962 0154 6CF31F43 		bfi	r3, ip, #16, #16
 963 0158 62F31F40 		bfi	r0, r2, #16, #16
 964 015c CDE91230 		strd	r3, r0, [sp, #72]
 768:Drivers/lvgl/src/widgets/lv_btnmatrix.c ****             lv_memcpy(&draw_rect_dsc_act, &draw_rect_dsc_def, sizeof(lv_draw_rect_dsc_t));
 965              		.loc 1 768 9 is_stmt 1 view .LVU324
 768:Drivers/lvgl/src/widgets/lv_btnmatrix.c ****             lv_memcpy(&draw_rect_dsc_act, &draw_rect_dsc_def, sizeof(lv_draw_rect_dsc_t));
 966              		.loc 1 768 11 is_stmt 0 view .LVU325
 967 0160 002F     		cmp	r7, #0
 968 0162 40F04481 		bne	.L35
 769:Drivers/lvgl/src/widgets/lv_btnmatrix.c ****             lv_memcpy(&draw_label_dsc_act, &draw_label_dsc_def, sizeof(lv_draw_label_dsc_t));
 969              		.loc 1 769 13 is_stmt 1 view .LVU326
 970 0166 34A9     		add	r1, sp, #208
 971 0168 3822     		movs	r2, #56
 972 016a 26A8     		add	r0, sp, #152
 973 016c FFF7FEFF 		bl	lv_memcpy
 974              	.LVL71:
 770:Drivers/lvgl/src/widgets/lv_btnmatrix.c ****         }
 975              		.loc 1 770 13 view .LVU327
 976 0170 2022     		movs	r2, #32
 977 0172 1EA9     		add	r1, sp, #120
 978 0174 5046     		mov	r0, r10
 979 0176 FFF7FEFF 		bl	lv_memcpy
 980              	.LVL72:
 981              	.L36:
 784:Drivers/lvgl/src/widgets/lv_btnmatrix.c ****         if(recolor) draw_label_dsc_act.flag |= LV_TEXT_FLAG_RECOLOR;
 982              		.loc 1 784 9 view .LVU328
 983              	.LBB343:
 984              	.LBI343:
 948:Drivers/lvgl/src/widgets/lv_btnmatrix.c **** {
 985              		.loc 1 948 13 view .LVU329
 986              	.LBB344:
 950:Drivers/lvgl/src/widgets/lv_btnmatrix.c **** }
 987              		.loc 1 950 5 view .LVU330
 950:Drivers/lvgl/src/widgets/lv_btnmatrix.c **** }
 988              		.loc 1 950 5 is_stmt 0 view .LVU331
 989              	.LBE344:
 990              	.LBE343:
 785:Drivers/lvgl/src/widgets/lv_btnmatrix.c ****         else draw_label_dsc_act.flag &= ~LV_TEXT_FLAG_RECOLOR;
 991              		.loc 1 785 9 is_stmt 1 view .LVU332
 785:Drivers/lvgl/src/widgets/lv_btnmatrix.c ****         else draw_label_dsc_act.flag &= ~LV_TEXT_FLAG_RECOLOR;
 992              		.loc 1 785 21 view .LVU333
 786:Drivers/lvgl/src/widgets/lv_btnmatrix.c **** 
 993              		.loc 1 786 14 view .LVU334
ARM GAS  /var/folders/0z/tsy30v1j4xl4_7kw94k978ww0000gn/T//ccyrzG1p.s 			page 45


 784:Drivers/lvgl/src/widgets/lv_btnmatrix.c ****         if(recolor) draw_label_dsc_act.flag |= LV_TEXT_FLAG_RECOLOR;
 994              		.loc 1 784 24 is_stmt 0 view .LVU335
 995 017a EB6A     		ldr	r3, [r5, #44]
 996              	.LBB346:
 997              	.LBB345:
 950:Drivers/lvgl/src/widgets/lv_btnmatrix.c **** }
 998              		.loc 1 950 59 view .LVU336
 999 017c 33F81830 		ldrh	r3, [r3, r8, lsl #1]
 1000              	.LBE345:
 1001              	.LBE346:
 790:Drivers/lvgl/src/widgets/lv_btnmatrix.c ****         lv_event_send(obj, LV_EVENT_DRAW_PART_BEGIN, &part_draw_dsc);
 1002              		.loc 1 790 26 view .LVU337
 1003 0180 CDF84081 		str	r8, [sp, #320]
 785:Drivers/lvgl/src/widgets/lv_btnmatrix.c ****         else draw_label_dsc_act.flag &= ~LV_TEXT_FLAG_RECOLOR;
 1004              		.loc 1 785 11 view .LVU338
 1005 0184 13F4006F 		tst	r3, #2048
 785:Drivers/lvgl/src/widgets/lv_btnmatrix.c ****         else draw_label_dsc_act.flag &= ~LV_TEXT_FLAG_RECOLOR;
 1006              		.loc 1 785 45 view .LVU339
 1007 0188 9DF87530 		ldrb	r3, [sp, #117]	@ zero_extendqisi2
 1008 018c 14BF     		ite	ne
 1009 018e 43F00103 		orrne	r3, r3, #1
 786:Drivers/lvgl/src/widgets/lv_btnmatrix.c **** 
 1010              		.loc 1 786 38 view .LVU340
 1011 0192 03F0FE03 		andeq	r3, r3, #254
 1012 0196 8DF87530 		strb	r3, [sp, #117]
 1013              	.LVL73:
 789:Drivers/lvgl/src/widgets/lv_btnmatrix.c ****         part_draw_dsc.id = btn_i;
 1014              		.loc 1 789 9 is_stmt 1 view .LVU341
 791:Drivers/lvgl/src/widgets/lv_btnmatrix.c **** 
 1015              		.loc 1 791 9 is_stmt 0 view .LVU342
 1016 019a 42AA     		add	r2, sp, #264
 789:Drivers/lvgl/src/widgets/lv_btnmatrix.c ****         part_draw_dsc.id = btn_i;
 1017              		.loc 1 789 33 view .LVU343
 1018 019c 12AB     		add	r3, sp, #72
 791:Drivers/lvgl/src/widgets/lv_btnmatrix.c **** 
 1019              		.loc 1 791 9 view .LVU344
 1020 019e 1A21     		movs	r1, #26
 1021 01a0 2846     		mov	r0, r5
 789:Drivers/lvgl/src/widgets/lv_btnmatrix.c ****         part_draw_dsc.id = btn_i;
 1022              		.loc 1 789 33 view .LVU345
 1023 01a2 4593     		str	r3, [sp, #276]
 790:Drivers/lvgl/src/widgets/lv_btnmatrix.c ****         lv_event_send(obj, LV_EVENT_DRAW_PART_BEGIN, &part_draw_dsc);
 1024              		.loc 1 790 9 is_stmt 1 view .LVU346
 791:Drivers/lvgl/src/widgets/lv_btnmatrix.c **** 
 1025              		.loc 1 791 9 view .LVU347
 1026 01a4 FFF7FEFF 		bl	lv_event_send
 1027              	.LVL74:
 794:Drivers/lvgl/src/widgets/lv_btnmatrix.c ****             draw_rect_dsc_act.border_side = LV_BORDER_SIDE_FULL;
 1028              		.loc 1 794 9 view .LVU348
 794:Drivers/lvgl/src/widgets/lv_btnmatrix.c ****             draw_rect_dsc_act.border_side = LV_BORDER_SIDE_FULL;
 1029              		.loc 1 794 29 is_stmt 0 view .LVU349
 1030 01a8 9DF8BB30 		ldrb	r3, [sp, #187]	@ zero_extendqisi2
 1031 01ac C3F34402 		ubfx	r2, r3, #1, #5
 794:Drivers/lvgl/src/widgets/lv_btnmatrix.c ****             draw_rect_dsc_act.border_side = LV_BORDER_SIDE_FULL;
 1032              		.loc 1 794 11 view .LVU350
 1033 01b0 D206     		lsls	r2, r2, #27
 1034 01b2 00F1BF80 		bmi	.L39
ARM GAS  /var/folders/0z/tsy30v1j4xl4_7kw94k978ww0000gn/T//ccyrzG1p.s 			page 46


 798:Drivers/lvgl/src/widgets/lv_btnmatrix.c ****             if(btn_area.y2 == obj->coords.y2 - pbottom) draw_rect_dsc_act.border_side &= ~LV_BORDER
 1035              		.loc 1 798 24 view .LVU351
 1036 01b6 BDF94A30 		ldrsh	r3, [sp, #74]
 799:Drivers/lvgl/src/widgets/lv_btnmatrix.c ****         }
 1037              		.loc 1 799 24 view .LVU352
 1038 01ba BDF94E90 		ldrsh	r9, [sp, #78]
 1039              	.L40:
 802:Drivers/lvgl/src/widgets/lv_btnmatrix.c **** 
 1040              		.loc 1 802 9 is_stmt 1 view .LVU353
 1041              	.LVL75:
 1042              	.LBB347:
 1043              	.LBI347:
 116:Drivers/lvgl/src/widgets/../core/../misc/../font/../misc/lv_area.h **** }
 117:Drivers/lvgl/src/widgets/../core/../misc/../font/../misc/lv_area.h **** 
 118:Drivers/lvgl/src/widgets/../core/../misc/../font/../misc/lv_area.h **** /**
 119:Drivers/lvgl/src/widgets/../core/../misc/../font/../misc/lv_area.h ****  * Get the width of an area
 120:Drivers/lvgl/src/widgets/../core/../misc/../font/../misc/lv_area.h ****  * @param area_p pointer to an area
 121:Drivers/lvgl/src/widgets/../core/../misc/../font/../misc/lv_area.h ****  * @return the width of the area (if x1 == x2 -> width = 1)
 122:Drivers/lvgl/src/widgets/../core/../misc/../font/../misc/lv_area.h ****  */
 123:Drivers/lvgl/src/widgets/../core/../misc/../font/../misc/lv_area.h **** static inline lv_coord_t lv_area_get_width(const lv_area_t * area_p)
 124:Drivers/lvgl/src/widgets/../core/../misc/../font/../misc/lv_area.h **** {
 125:Drivers/lvgl/src/widgets/../core/../misc/../font/../misc/lv_area.h ****     return (lv_coord_t)(area_p->x2 - area_p->x1 + 1);
 126:Drivers/lvgl/src/widgets/../core/../misc/../font/../misc/lv_area.h **** }
 127:Drivers/lvgl/src/widgets/../core/../misc/../font/../misc/lv_area.h **** 
 128:Drivers/lvgl/src/widgets/../core/../misc/../font/../misc/lv_area.h **** /**
 129:Drivers/lvgl/src/widgets/../core/../misc/../font/../misc/lv_area.h ****  * Get the height of an area
 130:Drivers/lvgl/src/widgets/../core/../misc/../font/../misc/lv_area.h ****  * @param area_p pointer to an area
 131:Drivers/lvgl/src/widgets/../core/../misc/../font/../misc/lv_area.h ****  * @return the height of the area (if y1 == y2 -> height = 1)
 132:Drivers/lvgl/src/widgets/../core/../misc/../font/../misc/lv_area.h ****  */
 133:Drivers/lvgl/src/widgets/../core/../misc/../font/../misc/lv_area.h **** static inline lv_coord_t lv_area_get_height(const lv_area_t * area_p)
 1044              		.loc 3 133 26 view .LVU354
 1045              	.LBB348:
 134:Drivers/lvgl/src/widgets/../core/../misc/../font/../misc/lv_area.h **** {
 135:Drivers/lvgl/src/widgets/../core/../misc/../font/../misc/lv_area.h ****     return (lv_coord_t)(area_p->y2 - area_p->y1 + 1);
 1046              		.loc 3 135 5 view .LVU355
 1047 01be 09F10109 		add	r9, r9, #1
 1048              		.loc 3 135 44 is_stmt 0 view .LVU356
 1049 01c2 9AB2     		uxth	r2, r3
 1050              	.LBE348:
 1051              	.LBE347:
 804:Drivers/lvgl/src/widgets/lv_btnmatrix.c ****             /*Push up the upper boundary of the btn area to create the popover*/
 1052              		.loc 1 804 11 view .LVU357
 1053 01c4 17F02007 		ands	r7, r7, #32
 1054              	.LVL76:
 1055              	.LBB351:
 1056              	.LBB349:
 1057              		.loc 3 135 44 view .LVU358
 1058 01c8 0592     		str	r2, [sp, #20]
 1059 01ca 1FFA89F9 		uxth	r9, r9
 1060              	.LVL77:
 1061              		.loc 3 135 44 view .LVU359
 1062              	.LBE349:
 1063              	.LBE351:
 804:Drivers/lvgl/src/widgets/lv_btnmatrix.c ****             /*Push up the upper boundary of the btn area to create the popover*/
 1064              		.loc 1 804 9 is_stmt 1 view .LVU360
 804:Drivers/lvgl/src/widgets/lv_btnmatrix.c ****             /*Push up the upper boundary of the btn area to create the popover*/
 1065              		.loc 1 804 11 is_stmt 0 view .LVU361
ARM GAS  /var/folders/0z/tsy30v1j4xl4_7kw94k978ww0000gn/T//ccyrzG1p.s 			page 47


 1066 01ce 08D0     		beq	.L44
 806:Drivers/lvgl/src/widgets/lv_btnmatrix.c ****         }
 1067              		.loc 1 806 13 is_stmt 1 discriminator 1 view .LVU362
 804:Drivers/lvgl/src/widgets/lv_btnmatrix.c ****             /*Push up the upper boundary of the btn area to create the popover*/
 1068              		.loc 1 804 62 is_stmt 0 discriminator 1 view .LVU363
 1069 01d0 EB6A     		ldr	r3, [r5, #44]
 804:Drivers/lvgl/src/widgets/lv_btnmatrix.c ****             /*Push up the upper boundary of the btn area to create the popover*/
 1070              		.loc 1 804 43 discriminator 1 view .LVU364
 1071 01d2 33F81830 		ldrh	r3, [r3, r8, lsl #1]
 1072 01d6 5905     		lsls	r1, r3, #21
 806:Drivers/lvgl/src/widgets/lv_btnmatrix.c ****         }
 1073              		.loc 1 806 25 discriminator 1 view .LVU365
 1074 01d8 44BF     		itt	mi
 1075 01da C9EB4203 		rsbmi	r3, r9, r2, lsl #1
 1076 01de ADF84A30 		strhmi	r3, [sp, #74]	@ movhi
 1077              	.L44:
 810:Drivers/lvgl/src/widgets/lv_btnmatrix.c **** 
 1078              		.loc 1 810 9 is_stmt 1 view .LVU366
 1079 01e2 18EE100A 		vmov	r0, s16	@ int
 1080 01e6 12AA     		add	r2, sp, #72
 1081              	.LVL78:
 810:Drivers/lvgl/src/widgets/lv_btnmatrix.c **** 
 1082              		.loc 1 810 9 is_stmt 0 view .LVU367
 1083 01e8 26A9     		add	r1, sp, #152
 1084 01ea FFF7FEFF 		bl	lv_draw_rect
 1085              	.LVL79:
 813:Drivers/lvgl/src/widgets/lv_btnmatrix.c ****         lv_coord_t letter_space = draw_label_dsc_act.letter_space;
 1086              		.loc 1 813 9 is_stmt 1 view .LVU368
 814:Drivers/lvgl/src/widgets/lv_btnmatrix.c ****         lv_coord_t line_space = draw_label_dsc_act.line_space;
 1087              		.loc 1 814 9 view .LVU369
 815:Drivers/lvgl/src/widgets/lv_btnmatrix.c ****         const char * txt = btnm->map_p[txt_i];
 1088              		.loc 1 815 9 view .LVU370
 816:Drivers/lvgl/src/widgets/lv_btnmatrix.c **** 
 1089              		.loc 1 816 9 view .LVU371
 816:Drivers/lvgl/src/widgets/lv_btnmatrix.c **** 
 1090              		.loc 1 816 22 is_stmt 0 view .LVU372
 1091 01ee 6A6A     		ldr	r2, [r5, #36]
 1092              	.LBB352:
 1093              	.LBB353:
 125:Drivers/lvgl/src/widgets/../core/../misc/../font/../misc/lv_area.h **** }
 1094              		.loc 3 125 49 view .LVU373
 1095 01f0 BDF85430 		ldrh	r3, [sp, #84]
 1096              	.LBE353:
 1097              	.LBE352:
 816:Drivers/lvgl/src/widgets/lv_btnmatrix.c **** 
 1098              		.loc 1 816 22 view .LVU374
 1099 01f4 9659     		ldr	r6, [r2, r6]
 1100              	.LVL80:
 826:Drivers/lvgl/src/widgets/lv_btnmatrix.c ****         lv_txt_get_size(&txt_size, txt, font, letter_space,
 1101              		.loc 1 826 9 is_stmt 1 view .LVU375
 827:Drivers/lvgl/src/widgets/lv_btnmatrix.c ****                         line_space, lv_area_get_width(&area_obj), draw_label_dsc_act.flag);
 1102              		.loc 1 827 9 view .LVU376
 1103              	.LBB355:
 1104              	.LBI352:
 123:Drivers/lvgl/src/widgets/../core/../misc/../font/../misc/lv_area.h **** {
 1105              		.loc 3 123 26 view .LVU377
 1106              	.LBB354:
ARM GAS  /var/folders/0z/tsy30v1j4xl4_7kw94k978ww0000gn/T//ccyrzG1p.s 			page 48


 125:Drivers/lvgl/src/widgets/../core/../misc/../font/../misc/lv_area.h **** }
 1107              		.loc 3 125 5 view .LVU378
 125:Drivers/lvgl/src/widgets/../core/../misc/../font/../misc/lv_area.h **** }
 1108              		.loc 3 125 49 is_stmt 0 view .LVU379
 1109 01f6 BDF85020 		ldrh	r2, [sp, #80]
 1110 01fa 0133     		adds	r3, r3, #1
 1111 01fc 9B1A     		subs	r3, r3, r2
 1112              	.LBE354:
 1113              	.LBE355:
 827:Drivers/lvgl/src/widgets/lv_btnmatrix.c ****                         line_space, lv_area_get_width(&area_obj), draw_label_dsc_act.flag);
 1114              		.loc 1 827 9 view .LVU380
 1115 01fe 1BB2     		sxth	r3, r3
 1116 0200 0193     		str	r3, [sp, #4]
 1117 0202 9DF87530 		ldrb	r3, [sp, #117]	@ zero_extendqisi2
 1118 0206 0293     		str	r3, [sp, #8]
 1119 0208 BDF96A30 		ldrsh	r3, [sp, #106]
 1120 020c 169A     		ldr	r2, [sp, #88]
 1121 020e 0093     		str	r3, [sp]
 1122 0210 3146     		mov	r1, r6
 1123 0212 BDF96C30 		ldrsh	r3, [sp, #108]
 1124 0216 11A8     		add	r0, sp, #68
 1125 0218 FFF7FEFF 		bl	lv_txt_get_size
 1126              	.LVL81:
 830:Drivers/lvgl/src/widgets/lv_btnmatrix.c ****         btn_area.y1 += (lv_area_get_height(&btn_area) - txt_size.y) / 2;
 1127              		.loc 1 830 9 is_stmt 1 view .LVU381
 1128              	.LBB356:
 1129              	.LBI356:
 123:Drivers/lvgl/src/widgets/../core/../misc/../font/../misc/lv_area.h **** {
 1130              		.loc 3 123 26 view .LVU382
 1131              	.LBB357:
 125:Drivers/lvgl/src/widgets/../core/../misc/../font/../misc/lv_area.h **** }
 1132              		.loc 3 125 5 view .LVU383
 125:Drivers/lvgl/src/widgets/../core/../misc/../font/../misc/lv_area.h **** }
 1133              		.loc 3 125 49 is_stmt 0 view .LVU384
 1134 021c BDF84C30 		ldrh	r3, [sp, #76]
 125:Drivers/lvgl/src/widgets/../core/../misc/../font/../misc/lv_area.h **** }
 1135              		.loc 3 125 44 view .LVU385
 1136 0220 BDF848E0 		ldrh	lr, [sp, #72]
 1137              	.LVL82:
 125:Drivers/lvgl/src/widgets/../core/../misc/../font/../misc/lv_area.h **** }
 1138              		.loc 3 125 44 view .LVU386
 1139              	.LBE357:
 1140              	.LBE356:
 1141              	.LBB359:
 1142              	.LBB360:
 1143              		.loc 3 135 49 view .LVU387
 1144 0224 BDF84E20 		ldrh	r2, [sp, #78]
 1145              		.loc 3 135 44 view .LVU388
 1146 0228 BDF84AC0 		ldrh	ip, [sp, #74]
 1147              	.LBE360:
 1148              	.LBE359:
 830:Drivers/lvgl/src/widgets/lv_btnmatrix.c ****         btn_area.y1 += (lv_area_get_height(&btn_area) - txt_size.y) / 2;
 1149              		.loc 1 830 64 view .LVU389
 1150 022c BDF94400 		ldrsh	r0, [sp, #68]
 831:Drivers/lvgl/src/widgets/lv_btnmatrix.c ****         btn_area.x2 = btn_area.x1 + txt_size.x;
 1151              		.loc 1 831 65 view .LVU390
 1152 0230 BDF94610 		ldrsh	r1, [sp, #70]
ARM GAS  /var/folders/0z/tsy30v1j4xl4_7kw94k978ww0000gn/T//ccyrzG1p.s 			page 49


 1153              	.LBB363:
 1154              	.LBB358:
 125:Drivers/lvgl/src/widgets/../core/../misc/../font/../misc/lv_area.h **** }
 1155              		.loc 3 125 49 view .LVU391
 1156 0234 0133     		adds	r3, r3, #1
 1157 0236 A3EB0E03 		sub	r3, r3, lr
 1158              	.LBE358:
 1159              	.LBE363:
 1160              	.LBB364:
 1161              	.LBB361:
 1162              		.loc 3 135 49 view .LVU392
 1163 023a 0132     		adds	r2, r2, #1
 1164 023c A2EB0C02 		sub	r2, r2, ip
 1165              	.LBE361:
 1166              	.LBE364:
 830:Drivers/lvgl/src/widgets/lv_btnmatrix.c ****         btn_area.y1 += (lv_area_get_height(&btn_area) - txt_size.y) / 2;
 1167              		.loc 1 830 25 view .LVU393
 1168 0240 1BB2     		sxth	r3, r3
 830:Drivers/lvgl/src/widgets/lv_btnmatrix.c ****         btn_area.y1 += (lv_area_get_height(&btn_area) - txt_size.y) / 2;
 1169              		.loc 1 830 54 view .LVU394
 1170 0242 1B1A     		subs	r3, r3, r0
 831:Drivers/lvgl/src/widgets/lv_btnmatrix.c ****         btn_area.x2 = btn_area.x1 + txt_size.x;
 1171              		.loc 1 831 25 view .LVU395
 1172 0244 12B2     		sxth	r2, r2
 831:Drivers/lvgl/src/widgets/lv_btnmatrix.c ****         btn_area.x2 = btn_area.x1 + txt_size.x;
 1173              		.loc 1 831 55 view .LVU396
 1174 0246 521A     		subs	r2, r2, r1
 830:Drivers/lvgl/src/widgets/lv_btnmatrix.c ****         btn_area.y1 += (lv_area_get_height(&btn_area) - txt_size.y) / 2;
 1175              		.loc 1 830 68 view .LVU397
 1176 0248 03EBD373 		add	r3, r3, r3, lsr #31
 830:Drivers/lvgl/src/widgets/lv_btnmatrix.c ****         btn_area.y1 += (lv_area_get_height(&btn_area) - txt_size.y) / 2;
 1177              		.loc 1 830 21 view .LVU398
 1178 024c 0EEB6303 		add	r3, lr, r3, asr #1
 831:Drivers/lvgl/src/widgets/lv_btnmatrix.c ****         btn_area.x2 = btn_area.x1 + txt_size.x;
 1179              		.loc 1 831 69 view .LVU399
 1180 0250 02EBD272 		add	r2, r2, r2, lsr #31
 831:Drivers/lvgl/src/widgets/lv_btnmatrix.c ****         btn_area.x2 = btn_area.x1 + txt_size.x;
 1181              		.loc 1 831 21 view .LVU400
 1182 0254 0CEB6202 		add	r2, ip, r2, asr #1
 830:Drivers/lvgl/src/widgets/lv_btnmatrix.c ****         btn_area.y1 += (lv_area_get_height(&btn_area) - txt_size.y) / 2;
 1183              		.loc 1 830 21 view .LVU401
 1184 0258 9BB2     		uxth	r3, r3
 831:Drivers/lvgl/src/widgets/lv_btnmatrix.c ****         btn_area.x2 = btn_area.x1 + txt_size.x;
 1185              		.loc 1 831 9 is_stmt 1 view .LVU402
 1186              	.LVL83:
 1187              	.LBB365:
 1188              	.LBI359:
 133:Drivers/lvgl/src/widgets/../core/../misc/../font/../misc/lv_area.h **** {
 1189              		.loc 3 133 26 view .LVU403
 1190              	.LBB362:
 1191              		.loc 3 135 5 view .LVU404
 1192              		.loc 3 135 5 is_stmt 0 view .LVU405
 1193              	.LBE362:
 1194              	.LBE365:
 831:Drivers/lvgl/src/widgets/lv_btnmatrix.c ****         btn_area.x2 = btn_area.x1 + txt_size.x;
 1195              		.loc 1 831 21 view .LVU406
 1196 025a 92B2     		uxth	r2, r2
ARM GAS  /var/folders/0z/tsy30v1j4xl4_7kw94k978ww0000gn/T//ccyrzG1p.s 			page 50


 832:Drivers/lvgl/src/widgets/lv_btnmatrix.c ****         btn_area.y2 = btn_area.y1 + txt_size.y;
 1197              		.loc 1 832 9 is_stmt 1 view .LVU407
 833:Drivers/lvgl/src/widgets/lv_btnmatrix.c **** 
 1198              		.loc 1 833 9 view .LVU408
 832:Drivers/lvgl/src/widgets/lv_btnmatrix.c ****         btn_area.y2 = btn_area.y1 + txt_size.y;
 1199              		.loc 1 832 35 is_stmt 0 view .LVU409
 1200 025c 03EB000C 		add	ip, r3, r0
 830:Drivers/lvgl/src/widgets/lv_btnmatrix.c ****         btn_area.y1 += (lv_area_get_height(&btn_area) - txt_size.y) / 2;
 1201              		.loc 1 830 21 view .LVU410
 1202 0260 0020     		movs	r0, #0
 1203 0262 8646     		mov	lr, r0
 833:Drivers/lvgl/src/widgets/lv_btnmatrix.c **** 
 1204              		.loc 1 833 35 view .LVU411
 1205 0264 1144     		add	r1, r1, r2
 1206 0266 89B2     		uxth	r1, r1
 830:Drivers/lvgl/src/widgets/lv_btnmatrix.c ****         btn_area.y1 += (lv_area_get_height(&btn_area) - txt_size.y) / 2;
 1207              		.loc 1 830 21 view .LVU412
 1208 0268 6CF30F0E 		bfi	lr, ip, #0, #16
 1209 026c 63F30F00 		bfi	r0, r3, #0, #16
 1210 0270 62F31F40 		bfi	r0, r2, #16, #16
 1211 0274 61F31F4E 		bfi	lr, r1, #16, #16
 1212 0278 1290     		str	r0, [sp, #72]
 1213 027a CDF84CE0 		str	lr, [sp, #76]
 835:Drivers/lvgl/src/widgets/lv_btnmatrix.c ****             /*Push up the button text into the popover*/
 1214              		.loc 1 835 9 is_stmt 1 view .LVU413
 835:Drivers/lvgl/src/widgets/lv_btnmatrix.c ****             /*Push up the button text into the popover*/
 1215              		.loc 1 835 11 is_stmt 0 view .LVU414
 1216 027e 9FB1     		cbz	r7, .L45
 835:Drivers/lvgl/src/widgets/lv_btnmatrix.c ****             /*Push up the button text into the popover*/
 1217              		.loc 1 835 62 discriminator 1 view .LVU415
 1218 0280 EB6A     		ldr	r3, [r5, #44]
 835:Drivers/lvgl/src/widgets/lv_btnmatrix.c ****             /*Push up the button text into the popover*/
 1219              		.loc 1 835 43 discriminator 1 view .LVU416
 1220 0282 33F81830 		ldrh	r3, [r3, r8, lsl #1]
 1221 0286 5B05     		lsls	r3, r3, #21
 1222 0288 0ED5     		bpl	.L45
 837:Drivers/lvgl/src/widgets/lv_btnmatrix.c ****             btn_area.y2 -= btn_height / 2;
 1223              		.loc 1 837 13 is_stmt 1 view .LVU417
 1224              	.LBB366:
 1225              	.LBB350:
 1226              		.loc 3 135 49 is_stmt 0 view .LVU418
 1227 028a 059B     		ldr	r3, [sp, #20]
 1228 028c A9EB0309 		sub	r9, r9, r3
 1229              	.LVL84:
 1230              		.loc 3 135 49 view .LVU419
 1231              	.LBE350:
 1232              	.LBE366:
 837:Drivers/lvgl/src/widgets/lv_btnmatrix.c ****             btn_area.y2 -= btn_height / 2;
 1233              		.loc 1 837 25 view .LVU420
 1234 0290 C9F3C033 		ubfx	r3, r9, #15, #1
 1235 0294 03FA89F9 		sxtah	r9, r3, r9
 1236 0298 C9F34F03 		ubfx	r3, r9, #1, #16
 1237 029c D21A     		subs	r2, r2, r3
 838:Drivers/lvgl/src/widgets/lv_btnmatrix.c ****         }
 1238              		.loc 1 838 25 view .LVU421
 1239 029e C91A     		subs	r1, r1, r3
 837:Drivers/lvgl/src/widgets/lv_btnmatrix.c ****             btn_area.y2 -= btn_height / 2;
ARM GAS  /var/folders/0z/tsy30v1j4xl4_7kw94k978ww0000gn/T//ccyrzG1p.s 			page 51


 1240              		.loc 1 837 25 view .LVU422
 1241 02a0 ADF84A20 		strh	r2, [sp, #74]	@ movhi
 838:Drivers/lvgl/src/widgets/lv_btnmatrix.c ****         }
 1242              		.loc 1 838 13 is_stmt 1 view .LVU423
 838:Drivers/lvgl/src/widgets/lv_btnmatrix.c ****         }
 1243              		.loc 1 838 25 is_stmt 0 view .LVU424
 1244 02a4 ADF84E10 		strh	r1, [sp, #78]	@ movhi
 1245              	.L45:
 842:Drivers/lvgl/src/widgets/lv_btnmatrix.c **** 
 1246              		.loc 1 842 9 is_stmt 1 view .LVU425
 1247 02a8 0022     		movs	r2, #0
 1248 02aa 18EE100A 		vmov	r0, s16	@ int
 1249 02ae 3346     		mov	r3, r6
 1250 02b0 0092     		str	r2, [sp]
 1251 02b2 5146     		mov	r1, r10
 1252 02b4 12AA     		add	r2, sp, #72
 1253 02b6 FFF7FEFF 		bl	lv_draw_label
 1254              	.LVL85:
 844:Drivers/lvgl/src/widgets/lv_btnmatrix.c ****     }
 1255              		.loc 1 844 9 view .LVU426
 1256 02ba 42AA     		add	r2, sp, #264
 1257 02bc 1B21     		movs	r1, #27
 1258 02be 2846     		mov	r0, r5
 1259 02c0 FFF7FEFF 		bl	lv_event_send
 1260              	.LVL86:
 1261 02c4 2F8E     		ldrh	r7, [r5, #48]
 1262              	.LVL87:
 1263              	.L29:
 844:Drivers/lvgl/src/widgets/lv_btnmatrix.c ****     }
 1264              		.loc 1 844 9 is_stmt 0 view .LVU427
 1265              	.LBE334:
 739:Drivers/lvgl/src/widgets/lv_btnmatrix.c ****         /*Search the next valid text in the map*/
 1266              		.loc 1 739 50 is_stmt 1 discriminator 2 view .LVU428
 739:Drivers/lvgl/src/widgets/lv_btnmatrix.c ****         /*Search the next valid text in the map*/
 1267              		.loc 1 739 26 is_stmt 0 discriminator 2 view .LVU429
 1268 02c6 0BF1010B 		add	fp, fp, #1
 1269              	.LVL88:
 739:Drivers/lvgl/src/widgets/lv_btnmatrix.c ****         /*Search the next valid text in the map*/
 1270              		.loc 1 739 26 discriminator 2 view .LVU430
 1271 02ca 1FFA8BF0 		uxth	r0, fp
 739:Drivers/lvgl/src/widgets/lv_btnmatrix.c ****         /*Search the next valid text in the map*/
 1272              		.loc 1 739 57 discriminator 2 view .LVU431
 1273 02ce 0134     		adds	r4, r4, #1
 1274              	.LVL89:
 739:Drivers/lvgl/src/widgets/lv_btnmatrix.c ****         /*Search the next valid text in the map*/
 1275              		.loc 1 739 26 discriminator 2 view .LVU432
 1276 02d0 8742     		cmp	r7, r0
 739:Drivers/lvgl/src/widgets/lv_btnmatrix.c ****         /*Search the next valid text in the map*/
 1277              		.loc 1 739 57 discriminator 2 view .LVU433
 1278 02d2 A4B2     		uxth	r4, r4
 1279              	.LVL90:
 739:Drivers/lvgl/src/widgets/lv_btnmatrix.c ****         /*Search the next valid text in the map*/
 1280              		.loc 1 739 26 is_stmt 1 discriminator 2 view .LVU434
 1281 02d4 40F2AD80 		bls	.L25
 1282              	.LVL91:
 1283              	.L26:
 1284              	.LBB367:
ARM GAS  /var/folders/0z/tsy30v1j4xl4_7kw94k978ww0000gn/T//ccyrzG1p.s 			page 52


 741:Drivers/lvgl/src/widgets/lv_btnmatrix.c ****             txt_i++;
 1285              		.loc 1 741 26 is_stmt 0 view .LVU435
 1286 02d8 D5F824C0 		ldr	ip, [r5, #36]
 1287              	.L46:
 742:Drivers/lvgl/src/widgets/lv_btnmatrix.c ****         }
 1288              		.loc 1 742 13 is_stmt 1 view .LVU436
 741:Drivers/lvgl/src/widgets/lv_btnmatrix.c ****             txt_i++;
 1289              		.loc 1 741 48 view .LVU437
 741:Drivers/lvgl/src/widgets/lv_btnmatrix.c ****             txt_i++;
 1290              		.loc 1 741 15 is_stmt 0 view .LVU438
 1291 02dc 5CF82430 		ldr	r3, [ip, r4, lsl #2]
 1292 02e0 1A78     		ldrb	r2, [r3]	@ zero_extendqisi2
 1293 02e2 0A2A     		cmp	r2, #10
 741:Drivers/lvgl/src/widgets/lv_btnmatrix.c ****             txt_i++;
 1294              		.loc 1 741 33 view .LVU439
 1295 02e4 4FEA8406 		lsl	r6, r4, #2
 742:Drivers/lvgl/src/widgets/lv_btnmatrix.c ****         }
 1296              		.loc 1 742 18 view .LVU440
 1297 02e8 04F10101 		add	r1, r4, #1
 741:Drivers/lvgl/src/widgets/lv_btnmatrix.c ****             txt_i++;
 1298              		.loc 1 741 15 view .LVU441
 1299 02ec 7FF40CAF 		bne	.L48
 741:Drivers/lvgl/src/widgets/lv_btnmatrix.c ****             txt_i++;
 1300              		.loc 1 741 15 view .LVU442
 1301 02f0 5B78     		ldrb	r3, [r3, #1]	@ zero_extendqisi2
 741:Drivers/lvgl/src/widgets/lv_btnmatrix.c ****             txt_i++;
 1302              		.loc 1 741 48 view .LVU443
 1303 02f2 002B     		cmp	r3, #0
 1304 02f4 7FF408AF 		bne	.L48
 742:Drivers/lvgl/src/widgets/lv_btnmatrix.c ****         }
 1305              		.loc 1 742 18 view .LVU444
 1306 02f8 8CB2     		uxth	r4, r1
 1307              	.LVL92:
 742:Drivers/lvgl/src/widgets/lv_btnmatrix.c ****         }
 1308              		.loc 1 742 18 view .LVU445
 1309 02fa EFE7     		b	.L46
 1310              	.LVL93:
 1311              	.L30:
 753:Drivers/lvgl/src/widgets/lv_btnmatrix.c ****             if(state_ori & LV_STATE_PRESSED) btn_state |= LV_STATE_PRESSED;
 1312              		.loc 1 753 14 is_stmt 1 view .LVU446
 753:Drivers/lvgl/src/widgets/lv_btnmatrix.c ****             if(state_ori & LV_STATE_PRESSED) btn_state |= LV_STATE_PRESSED;
 1313              		.loc 1 753 16 is_stmt 0 view .LVU447
 1314 02fc AB8E     		ldrh	r3, [r5, #52]
 1315 02fe 8342     		cmp	r3, r0
 1316 0300 7FF411AF 		bne	.L31
 754:Drivers/lvgl/src/widgets/lv_btnmatrix.c ****             if(state_ori & LV_STATE_FOCUSED) btn_state |= LV_STATE_FOCUSED;
 1317              		.loc 1 754 13 is_stmt 1 view .LVU448
 754:Drivers/lvgl/src/widgets/lv_btnmatrix.c ****             if(state_ori & LV_STATE_FOCUSED) btn_state |= LV_STATE_FOCUSED;
 1318              		.loc 1 754 15 is_stmt 0 view .LVU449
 1319 0304 0C9B     		ldr	r3, [sp, #48]
 1320 0306 0BB1     		cbz	r3, .L32
 754:Drivers/lvgl/src/widgets/lv_btnmatrix.c ****             if(state_ori & LV_STATE_FOCUSED) btn_state |= LV_STATE_FOCUSED;
 1321              		.loc 1 754 46 is_stmt 1 discriminator 1 view .LVU450
 754:Drivers/lvgl/src/widgets/lv_btnmatrix.c ****             if(state_ori & LV_STATE_FOCUSED) btn_state |= LV_STATE_FOCUSED;
 1322              		.loc 1 754 56 is_stmt 0 discriminator 1 view .LVU451
 1323 0308 47F02007 		orr	r7, r7, #32
 1324              	.LVL94:
ARM GAS  /var/folders/0z/tsy30v1j4xl4_7kw94k978ww0000gn/T//ccyrzG1p.s 			page 53


 1325              	.L32:
 755:Drivers/lvgl/src/widgets/lv_btnmatrix.c ****             if(state_ori & LV_STATE_FOCUS_KEY) btn_state |= LV_STATE_FOCUS_KEY;
 1326              		.loc 1 755 13 is_stmt 1 view .LVU452
 755:Drivers/lvgl/src/widgets/lv_btnmatrix.c ****             if(state_ori & LV_STATE_FOCUS_KEY) btn_state |= LV_STATE_FOCUS_KEY;
 1327              		.loc 1 755 15 is_stmt 0 view .LVU453
 1328 030c 0D9B     		ldr	r3, [sp, #52]
 1329 030e 0BB1     		cbz	r3, .L33
 755:Drivers/lvgl/src/widgets/lv_btnmatrix.c ****             if(state_ori & LV_STATE_FOCUS_KEY) btn_state |= LV_STATE_FOCUS_KEY;
 1330              		.loc 1 755 46 is_stmt 1 discriminator 1 view .LVU454
 755:Drivers/lvgl/src/widgets/lv_btnmatrix.c ****             if(state_ori & LV_STATE_FOCUS_KEY) btn_state |= LV_STATE_FOCUS_KEY;
 1331              		.loc 1 755 56 is_stmt 0 discriminator 1 view .LVU455
 1332 0310 47F00207 		orr	r7, r7, #2
 1333              	.LVL95:
 1334              	.L33:
 756:Drivers/lvgl/src/widgets/lv_btnmatrix.c ****             if(state_ori & LV_STATE_EDITED) btn_state |= LV_STATE_EDITED;
 1335              		.loc 1 756 13 is_stmt 1 view .LVU456
 756:Drivers/lvgl/src/widgets/lv_btnmatrix.c ****             if(state_ori & LV_STATE_EDITED) btn_state |= LV_STATE_EDITED;
 1336              		.loc 1 756 15 is_stmt 0 view .LVU457
 1337 0314 0E9B     		ldr	r3, [sp, #56]
 1338 0316 0BB1     		cbz	r3, .L34
 756:Drivers/lvgl/src/widgets/lv_btnmatrix.c ****             if(state_ori & LV_STATE_EDITED) btn_state |= LV_STATE_EDITED;
 1339              		.loc 1 756 48 is_stmt 1 discriminator 1 view .LVU458
 756:Drivers/lvgl/src/widgets/lv_btnmatrix.c ****             if(state_ori & LV_STATE_EDITED) btn_state |= LV_STATE_EDITED;
 1340              		.loc 1 756 58 is_stmt 0 discriminator 1 view .LVU459
 1341 0318 47F00407 		orr	r7, r7, #4
 1342              	.LVL96:
 1343              	.L34:
 757:Drivers/lvgl/src/widgets/lv_btnmatrix.c ****         }
 1344              		.loc 1 757 13 is_stmt 1 view .LVU460
 757:Drivers/lvgl/src/widgets/lv_btnmatrix.c ****         }
 1345              		.loc 1 757 15 is_stmt 0 view .LVU461
 1346 031c 0F9B     		ldr	r3, [sp, #60]
 1347 031e 002B     		cmp	r3, #0
 1348 0320 3FF401AF 		beq	.L31
 757:Drivers/lvgl/src/widgets/lv_btnmatrix.c ****         }
 1349              		.loc 1 757 45 is_stmt 1 discriminator 1 view .LVU462
 757:Drivers/lvgl/src/widgets/lv_btnmatrix.c ****         }
 1350              		.loc 1 757 55 is_stmt 0 discriminator 1 view .LVU463
 1351 0324 47F00807 		orr	r7, r7, #8
 1352              	.LVL97:
 757:Drivers/lvgl/src/widgets/lv_btnmatrix.c ****         }
 1353              		.loc 1 757 55 discriminator 1 view .LVU464
 1354 0328 FDE6     		b	.L31
 1355              	.L83:
 1356 032a 00BF     		.align	2
 1357              	.L82:
 1358 032c 0000F7FF 		.word	-589824
 1359 0330 00000000 		.word	.LANCHOR0
 1360              	.L39:
 795:Drivers/lvgl/src/widgets/lv_btnmatrix.c ****             if(btn_area.x1 == obj->coords.x1 + pleft) draw_rect_dsc_act.border_side &= ~LV_BORDER_S
 1361              		.loc 1 795 13 is_stmt 1 view .LVU465
 796:Drivers/lvgl/src/widgets/lv_btnmatrix.c ****             if(btn_area.x2 == obj->coords.x2 - pright) draw_rect_dsc_act.border_side &= ~LV_BORDER_
 1362              		.loc 1 796 13 view .LVU466
 796:Drivers/lvgl/src/widgets/lv_btnmatrix.c ****             if(btn_area.x2 == obj->coords.x2 - pright) draw_rect_dsc_act.border_side &= ~LV_BORDER_
 1363              		.loc 1 796 42 is_stmt 0 view .LVU467
 1364 0334 B5F91420 		ldrsh	r2, [r5, #20]
 796:Drivers/lvgl/src/widgets/lv_btnmatrix.c ****             if(btn_area.x2 == obj->coords.x2 - pright) draw_rect_dsc_act.border_side &= ~LV_BORDER_
ARM GAS  /var/folders/0z/tsy30v1j4xl4_7kw94k978ww0000gn/T//ccyrzG1p.s 			page 54


 1365              		.loc 1 796 46 view .LVU468
 1366 0338 0999     		ldr	r1, [sp, #36]
 1367 033a 0A44     		add	r2, r2, r1
 796:Drivers/lvgl/src/widgets/lv_btnmatrix.c ****             if(btn_area.x2 == obj->coords.x2 - pright) draw_rect_dsc_act.border_side &= ~LV_BORDER_
 1368              		.loc 1 796 24 view .LVU469
 1369 033c BDF94810 		ldrsh	r1, [sp, #72]
 796:Drivers/lvgl/src/widgets/lv_btnmatrix.c ****             if(btn_area.x2 == obj->coords.x2 - pright) draw_rect_dsc_act.border_side &= ~LV_BORDER_
 1370              		.loc 1 796 15 view .LVU470
 1371 0340 9142     		cmp	r1, r2
 1372 0342 0CBF     		ite	eq
 1373 0344 0B22     		moveq	r2, #11
 1374 0346 0F22     		movne	r2, #15
 1375 0348 62F34503 		bfi	r3, r2, #1, #5
 1376 034c 8DF8BB30 		strb	r3, [sp, #187]
 797:Drivers/lvgl/src/widgets/lv_btnmatrix.c ****             if(btn_area.y1 == obj->coords.y1 + ptop) draw_rect_dsc_act.border_side &= ~LV_BORDER_SI
 1377              		.loc 1 797 13 is_stmt 1 view .LVU471
 797:Drivers/lvgl/src/widgets/lv_btnmatrix.c ****             if(btn_area.y1 == obj->coords.y1 + ptop) draw_rect_dsc_act.border_side &= ~LV_BORDER_SI
 1378              		.loc 1 797 46 is_stmt 0 view .LVU472
 1379 0350 0A9A     		ldr	r2, [sp, #40]
 797:Drivers/lvgl/src/widgets/lv_btnmatrix.c ****             if(btn_area.y1 == obj->coords.y1 + ptop) draw_rect_dsc_act.border_side &= ~LV_BORDER_SI
 1380              		.loc 1 797 42 view .LVU473
 1381 0352 B5F91830 		ldrsh	r3, [r5, #24]
 796:Drivers/lvgl/src/widgets/lv_btnmatrix.c ****             if(btn_area.x2 == obj->coords.x2 - pright) draw_rect_dsc_act.border_side &= ~LV_BORDER_
 1382              		.loc 1 796 15 view .LVU474
 1383 0356 0CBF     		ite	eq
 1384 0358 0921     		moveq	r1, #9
 1385 035a 0D21     		movne	r1, #13
 797:Drivers/lvgl/src/widgets/lv_btnmatrix.c ****             if(btn_area.y1 == obj->coords.y1 + ptop) draw_rect_dsc_act.border_side &= ~LV_BORDER_SI
 1386              		.loc 1 797 46 view .LVU475
 1387 035c A3EB0203 		sub	r3, r3, r2
 797:Drivers/lvgl/src/widgets/lv_btnmatrix.c ****             if(btn_area.y1 == obj->coords.y1 + ptop) draw_rect_dsc_act.border_side &= ~LV_BORDER_SI
 1388              		.loc 1 797 24 view .LVU476
 1389 0360 BDF94C20 		ldrsh	r2, [sp, #76]
 796:Drivers/lvgl/src/widgets/lv_btnmatrix.c ****             if(btn_area.x2 == obj->coords.x2 - pright) draw_rect_dsc_act.border_side &= ~LV_BORDER_
 1390              		.loc 1 796 15 view .LVU477
 1391 0364 0591     		str	r1, [sp, #20]
 1392 0366 0CBF     		ite	eq
 1393 0368 0221     		moveq	r1, #2
 1394 036a 0621     		movne	r1, #6
 1395 036c 0B91     		str	r1, [sp, #44]
 1396 036e 0BBF     		itete	eq
 1397 0370 4FF00A0C 		moveq	ip, #10
 1398 0374 4FF00E0C 		movne	ip, #14
 1399 0378 0820     		moveq	r0, #8
 1400 037a 0C20     		movne	r0, #12
 1401 037c 0BBF     		itete	eq
 1402 037e 4FF00009 		moveq	r9, #0
 1403 0382 4FF00409 		movne	r9, #4
 1404 0386 4FF0010E 		moveq	lr, #1
 1405 038a 4FF0050E 		movne	lr, #5
 1406 038e 0CBF     		ite	eq
 1407 0390 0321     		moveq	r1, #3
 1408 0392 0721     		movne	r1, #7
 797:Drivers/lvgl/src/widgets/lv_btnmatrix.c ****             if(btn_area.y1 == obj->coords.y1 + ptop) draw_rect_dsc_act.border_side &= ~LV_BORDER_SI
 1409              		.loc 1 797 15 view .LVU478
 1410 0394 9A42     		cmp	r2, r3
 1411 0396 0AD1     		bne	.L42
ARM GAS  /var/folders/0z/tsy30v1j4xl4_7kw94k978ww0000gn/T//ccyrzG1p.s 			page 55


 797:Drivers/lvgl/src/widgets/lv_btnmatrix.c ****             if(btn_area.y1 == obj->coords.y1 + ptop) draw_rect_dsc_act.border_side &= ~LV_BORDER_SI
 1412              		.loc 1 797 56 is_stmt 1 discriminator 1 view .LVU479
 797:Drivers/lvgl/src/widgets/lv_btnmatrix.c ****             if(btn_area.y1 == obj->coords.y1 + ptop) draw_rect_dsc_act.border_side &= ~LV_BORDER_SI
 1413              		.loc 1 797 86 is_stmt 0 discriminator 1 view .LVU480
 1414 0398 9DF8BB30 		ldrb	r3, [sp, #187]	@ zero_extendqisi2
 1415 039c DDF82CC0 		ldr	ip, [sp, #44]
 1416 03a0 CDF814E0 		str	lr, [sp, #20]
 1417 03a4 61F34503 		bfi	r3, r1, #1, #5
 1418 03a8 4846     		mov	r0, r9
 1419 03aa 8DF8BB30 		strb	r3, [sp, #187]
 1420              	.L42:
 798:Drivers/lvgl/src/widgets/lv_btnmatrix.c ****             if(btn_area.y2 == obj->coords.y2 - pbottom) draw_rect_dsc_act.border_side &= ~LV_BORDER
 1421              		.loc 1 798 13 is_stmt 1 view .LVU481
 798:Drivers/lvgl/src/widgets/lv_btnmatrix.c ****             if(btn_area.y2 == obj->coords.y2 - pbottom) draw_rect_dsc_act.border_side &= ~LV_BORDER
 1422              		.loc 1 798 46 is_stmt 0 view .LVU482
 1423 03ae 079B     		ldr	r3, [sp, #28]
 798:Drivers/lvgl/src/widgets/lv_btnmatrix.c ****             if(btn_area.y2 == obj->coords.y2 - pbottom) draw_rect_dsc_act.border_side &= ~LV_BORDER
 1424              		.loc 1 798 42 view .LVU483
 1425 03b0 B5F91620 		ldrsh	r2, [r5, #22]
 798:Drivers/lvgl/src/widgets/lv_btnmatrix.c ****             if(btn_area.y2 == obj->coords.y2 - pbottom) draw_rect_dsc_act.border_side &= ~LV_BORDER
 1426              		.loc 1 798 46 view .LVU484
 1427 03b4 1A44     		add	r2, r2, r3
 798:Drivers/lvgl/src/widgets/lv_btnmatrix.c ****             if(btn_area.y2 == obj->coords.y2 - pbottom) draw_rect_dsc_act.border_side &= ~LV_BORDER
 1428              		.loc 1 798 24 view .LVU485
 1429 03b6 BDF94A30 		ldrsh	r3, [sp, #74]
 798:Drivers/lvgl/src/widgets/lv_btnmatrix.c ****             if(btn_area.y2 == obj->coords.y2 - pbottom) draw_rect_dsc_act.border_side &= ~LV_BORDER
 1430              		.loc 1 798 15 view .LVU486
 1431 03ba 9342     		cmp	r3, r2
 1432 03bc 07D1     		bne	.L43
 798:Drivers/lvgl/src/widgets/lv_btnmatrix.c ****             if(btn_area.y2 == obj->coords.y2 - pbottom) draw_rect_dsc_act.border_side &= ~LV_BORDER
 1433              		.loc 1 798 54 is_stmt 1 discriminator 1 view .LVU487
 798:Drivers/lvgl/src/widgets/lv_btnmatrix.c ****             if(btn_area.y2 == obj->coords.y2 - pbottom) draw_rect_dsc_act.border_side &= ~LV_BORDER
 1434              		.loc 1 798 84 is_stmt 0 discriminator 1 view .LVU488
 1435 03be 9DF8BB20 		ldrb	r2, [sp, #187]	@ zero_extendqisi2
 1436 03c2 0599     		ldr	r1, [sp, #20]
 1437 03c4 61F34502 		bfi	r2, r1, #1, #5
 1438 03c8 8446     		mov	ip, r0
 1439 03ca 8DF8BB20 		strb	r2, [sp, #187]
 1440              	.L43:
 799:Drivers/lvgl/src/widgets/lv_btnmatrix.c ****         }
 1441              		.loc 1 799 13 is_stmt 1 view .LVU489
 799:Drivers/lvgl/src/widgets/lv_btnmatrix.c ****         }
 1442              		.loc 1 799 42 is_stmt 0 view .LVU490
 1443 03ce B5F91A20 		ldrsh	r2, [r5, #26]
 799:Drivers/lvgl/src/widgets/lv_btnmatrix.c ****         }
 1444              		.loc 1 799 46 view .LVU491
 1445 03d2 0899     		ldr	r1, [sp, #32]
 799:Drivers/lvgl/src/widgets/lv_btnmatrix.c ****         }
 1446              		.loc 1 799 24 view .LVU492
 1447 03d4 BDF94E90 		ldrsh	r9, [sp, #78]
 799:Drivers/lvgl/src/widgets/lv_btnmatrix.c ****         }
 1448              		.loc 1 799 46 view .LVU493
 1449 03d8 521A     		subs	r2, r2, r1
 799:Drivers/lvgl/src/widgets/lv_btnmatrix.c ****         }
 1450              		.loc 1 799 15 view .LVU494
 1451 03da 9145     		cmp	r9, r2
 1452 03dc 7FF4EFAE 		bne	.L40
ARM GAS  /var/folders/0z/tsy30v1j4xl4_7kw94k978ww0000gn/T//ccyrzG1p.s 			page 56


 799:Drivers/lvgl/src/widgets/lv_btnmatrix.c ****         }
 1453              		.loc 1 799 57 is_stmt 1 discriminator 1 view .LVU495
 799:Drivers/lvgl/src/widgets/lv_btnmatrix.c ****         }
 1454              		.loc 1 799 87 is_stmt 0 discriminator 1 view .LVU496
 1455 03e0 9DF8BB20 		ldrb	r2, [sp, #187]	@ zero_extendqisi2
 1456 03e4 6CF34502 		bfi	r2, ip, #1, #5
 1457 03e8 8DF8BB20 		strb	r2, [sp, #187]
 1458 03ec E7E6     		b	.L40
 1459              	.L35:
 774:Drivers/lvgl/src/widgets/lv_btnmatrix.c ****             obj->skip_trans = 1;
 1460              		.loc 1 774 13 is_stmt 1 view .LVU497
 775:Drivers/lvgl/src/widgets/lv_btnmatrix.c ****             lv_draw_rect_dsc_init(&draw_rect_dsc_act);
 1461              		.loc 1 775 29 is_stmt 0 view .LVU498
 1462 03ee 95F82230 		ldrb	r3, [r5, #34]	@ zero_extendqisi2
 774:Drivers/lvgl/src/widgets/lv_btnmatrix.c ****             obj->skip_trans = 1;
 1463              		.loc 1 774 24 view .LVU499
 1464 03f2 2F84     		strh	r7, [r5, #32]	@ movhi
 775:Drivers/lvgl/src/widgets/lv_btnmatrix.c ****             lv_draw_rect_dsc_init(&draw_rect_dsc_act);
 1465              		.loc 1 775 13 is_stmt 1 view .LVU500
 775:Drivers/lvgl/src/widgets/lv_btnmatrix.c ****             lv_draw_rect_dsc_init(&draw_rect_dsc_act);
 1466              		.loc 1 775 29 is_stmt 0 view .LVU501
 1467 03f4 43F00803 		orr	r3, r3, #8
 1468 03f8 85F82230 		strb	r3, [r5, #34]
 776:Drivers/lvgl/src/widgets/lv_btnmatrix.c ****             lv_draw_label_dsc_init(&draw_label_dsc_act);
 1469              		.loc 1 776 13 is_stmt 1 view .LVU502
 1470 03fc 26A8     		add	r0, sp, #152
 1471 03fe FFF7FEFF 		bl	lv_draw_rect_dsc_init
 1472              	.LVL98:
 777:Drivers/lvgl/src/widgets/lv_btnmatrix.c ****             lv_obj_init_draw_rect_dsc(obj, LV_PART_ITEMS, &draw_rect_dsc_act);
 1473              		.loc 1 777 13 view .LVU503
 1474 0402 5046     		mov	r0, r10
 1475 0404 FFF7FEFF 		bl	lv_draw_label_dsc_init
 1476              	.LVL99:
 778:Drivers/lvgl/src/widgets/lv_btnmatrix.c ****             lv_obj_init_draw_label_dsc(obj, LV_PART_ITEMS, &draw_label_dsc_act);
 1477              		.loc 1 778 13 view .LVU504
 1478 0408 26AA     		add	r2, sp, #152
 1479 040a 4FF4A021 		mov	r1, #327680
 1480 040e 2846     		mov	r0, r5
 1481 0410 FFF7FEFF 		bl	lv_obj_init_draw_rect_dsc
 1482              	.LVL100:
 779:Drivers/lvgl/src/widgets/lv_btnmatrix.c ****             obj->state = state_ori;
 1483              		.loc 1 779 13 view .LVU505
 1484 0414 5246     		mov	r2, r10
 1485 0416 4FF4A021 		mov	r1, #327680
 1486 041a 2846     		mov	r0, r5
 1487 041c FFF7FEFF 		bl	lv_obj_init_draw_label_dsc
 1488              	.LVL101:
 780:Drivers/lvgl/src/widgets/lv_btnmatrix.c ****             obj->skip_trans = 0;
 1489              		.loc 1 780 13 view .LVU506
 780:Drivers/lvgl/src/widgets/lv_btnmatrix.c ****             obj->skip_trans = 0;
 1490              		.loc 1 780 24 is_stmt 0 view .LVU507
 1491 0420 069B     		ldr	r3, [sp, #24]
 1492 0422 2B84     		strh	r3, [r5, #32]	@ movhi
 781:Drivers/lvgl/src/widgets/lv_btnmatrix.c ****         }
 1493              		.loc 1 781 13 is_stmt 1 view .LVU508
 781:Drivers/lvgl/src/widgets/lv_btnmatrix.c ****         }
 1494              		.loc 1 781 29 is_stmt 0 view .LVU509
ARM GAS  /var/folders/0z/tsy30v1j4xl4_7kw94k978ww0000gn/T//ccyrzG1p.s 			page 57


 1495 0424 95F82230 		ldrb	r3, [r5, #34]	@ zero_extendqisi2
 1496 0428 6FF3C303 		bfc	r3, #3, #1
 1497 042c 85F82230 		strb	r3, [r5, #34]
 1498 0430 A3E6     		b	.L36
 1499              	.LVL102:
 1500              	.L25:
 781:Drivers/lvgl/src/widgets/lv_btnmatrix.c ****         }
 1501              		.loc 1 781 29 view .LVU510
 1502              	.LBE367:
 847:Drivers/lvgl/src/widgets/lv_btnmatrix.c **** #if LV_USE_ARABIC_PERSIAN_CHARS
 1503              		.loc 1 847 5 is_stmt 1 view .LVU511
 847:Drivers/lvgl/src/widgets/lv_btnmatrix.c **** #if LV_USE_ARABIC_PERSIAN_CHARS
 1504              		.loc 1 847 21 is_stmt 0 view .LVU512
 1505 0432 95F82230 		ldrb	r3, [r5, #34]	@ zero_extendqisi2
 1506 0436 6FF3C303 		bfc	r3, #3, #1
 1507 043a 85F82230 		strb	r3, [r5, #34]
 851:Drivers/lvgl/src/widgets/lv_btnmatrix.c **** /**
 1508              		.loc 1 851 1 view .LVU513
 1509 043e 55B0     		add	sp, sp, #340
 1510              		.cfi_def_cfa_offset 44
 1511              		@ sp needed
 1512 0440 BDEC028B 		vldm	sp!, {d8}
 1513              		.cfi_restore 80
 1514              		.cfi_restore 81
 1515              		.cfi_def_cfa_offset 36
 1516              	.LVL103:
 851:Drivers/lvgl/src/widgets/lv_btnmatrix.c **** /**
 1517              		.loc 1 851 1 view .LVU514
 1518 0444 BDE8F08F 		pop	{r4, r5, r6, r7, r8, r9, r10, fp, pc}
 851:Drivers/lvgl/src/widgets/lv_btnmatrix.c **** /**
 1519              		.loc 1 851 1 view .LVU515
 1520              		.cfi_endproc
 1521              	.LFE179:
 1523              		.section	.text.lv_btnmatrix_destructor,"ax",%progbits
 1524              		.align	1
 1525              		.p2align 2,,3
 1526              		.syntax unified
 1527              		.thumb
 1528              		.thumb_func
 1530              	lv_btnmatrix_destructor:
 1531              	.LVL104:
 1532              	.LFB177:
 393:Drivers/lvgl/src/widgets/lv_btnmatrix.c ****     LV_TRACE_OBJ_CREATE("begin");
 1533              		.loc 1 393 1 is_stmt 1 view -0
 1534              		.cfi_startproc
 1535              		@ args = 0, pretend = 0, frame = 0
 1536              		@ frame_needed = 0, uses_anonymous_args = 0
 394:Drivers/lvgl/src/widgets/lv_btnmatrix.c ****     LV_UNUSED(class_p);
 1537              		.loc 1 394 33 view .LVU517
 395:Drivers/lvgl/src/widgets/lv_btnmatrix.c ****     lv_btnmatrix_t * btnm = (lv_btnmatrix_t *)obj;
 1538              		.loc 1 395 5 view .LVU518
 396:Drivers/lvgl/src/widgets/lv_btnmatrix.c ****     lv_mem_free(btnm->button_areas);
 1539              		.loc 1 396 5 view .LVU519
 393:Drivers/lvgl/src/widgets/lv_btnmatrix.c ****     LV_TRACE_OBJ_CREATE("begin");
 1540              		.loc 1 393 1 is_stmt 0 view .LVU520
 1541 0000 10B5     		push	{r4, lr}
 1542              		.cfi_def_cfa_offset 8
ARM GAS  /var/folders/0z/tsy30v1j4xl4_7kw94k978ww0000gn/T//ccyrzG1p.s 			page 58


 1543              		.cfi_offset 4, -8
 1544              		.cfi_offset 14, -4
 393:Drivers/lvgl/src/widgets/lv_btnmatrix.c ****     LV_TRACE_OBJ_CREATE("begin");
 1545              		.loc 1 393 1 view .LVU521
 1546 0002 0C46     		mov	r4, r1
 1547              	.LVL105:
 397:Drivers/lvgl/src/widgets/lv_btnmatrix.c ****     lv_mem_free(btnm->ctrl_bits);
 1548              		.loc 1 397 5 is_stmt 1 view .LVU522
 1549 0004 886A     		ldr	r0, [r1, #40]
 1550              	.LVL106:
 397:Drivers/lvgl/src/widgets/lv_btnmatrix.c ****     lv_mem_free(btnm->ctrl_bits);
 1551              		.loc 1 397 5 is_stmt 0 view .LVU523
 1552 0006 FFF7FEFF 		bl	lv_mem_free
 1553              	.LVL107:
 398:Drivers/lvgl/src/widgets/lv_btnmatrix.c ****     btnm->button_areas = NULL;
 1554              		.loc 1 398 5 is_stmt 1 view .LVU524
 1555 000a E06A     		ldr	r0, [r4, #44]
 1556 000c FFF7FEFF 		bl	lv_mem_free
 1557              	.LVL108:
 399:Drivers/lvgl/src/widgets/lv_btnmatrix.c ****     btnm->ctrl_bits = NULL;
 1558              		.loc 1 399 5 view .LVU525
 399:Drivers/lvgl/src/widgets/lv_btnmatrix.c ****     btnm->ctrl_bits = NULL;
 1559              		.loc 1 399 24 is_stmt 0 view .LVU526
 1560 0010 0023     		movs	r3, #0
 400:Drivers/lvgl/src/widgets/lv_btnmatrix.c ****     LV_TRACE_OBJ_CREATE("finished");
 1561              		.loc 1 400 21 view .LVU527
 1562 0012 C4E90A33 		strd	r3, r3, [r4, #40]
 401:Drivers/lvgl/src/widgets/lv_btnmatrix.c **** }
 1563              		.loc 1 401 36 is_stmt 1 view .LVU528
 402:Drivers/lvgl/src/widgets/lv_btnmatrix.c **** 
 1564              		.loc 1 402 1 is_stmt 0 view .LVU529
 1565 0016 10BD     		pop	{r4, pc}
 402:Drivers/lvgl/src/widgets/lv_btnmatrix.c **** 
 1566              		.loc 1 402 1 view .LVU530
 1567              		.cfi_endproc
 1568              	.LFE177:
 1570              		.section	.text.invalidate_button_area.part.0,"ax",%progbits
 1571              		.align	1
 1572              		.p2align 2,,3
 1573              		.syntax unified
 1574              		.thumb
 1575              		.thumb_func
 1577              	invalidate_button_area.part.0:
 1578              	.LVL109:
 1579              	.LFB195:
1010:Drivers/lvgl/src/widgets/lv_btnmatrix.c **** 
1011:Drivers/lvgl/src/widgets/lv_btnmatrix.c **** static void invalidate_button_area(const lv_obj_t * obj, uint16_t btn_idx)
 1580              		.loc 1 1011 13 is_stmt 1 view -0
 1581              		.cfi_startproc
 1582              		@ args = 0, pretend = 0, frame = 16
 1583              		@ frame_needed = 0, uses_anonymous_args = 0
1012:Drivers/lvgl/src/widgets/lv_btnmatrix.c **** {
1013:Drivers/lvgl/src/widgets/lv_btnmatrix.c ****     if(btn_idx == LV_BTNMATRIX_BTN_NONE) return;
1014:Drivers/lvgl/src/widgets/lv_btnmatrix.c **** 
1015:Drivers/lvgl/src/widgets/lv_btnmatrix.c ****     lv_area_t btn_area;
1016:Drivers/lvgl/src/widgets/lv_btnmatrix.c ****     lv_area_t obj_area;
1017:Drivers/lvgl/src/widgets/lv_btnmatrix.c **** 
ARM GAS  /var/folders/0z/tsy30v1j4xl4_7kw94k978ww0000gn/T//ccyrzG1p.s 			page 59


1018:Drivers/lvgl/src/widgets/lv_btnmatrix.c ****     lv_btnmatrix_t * btnm = (lv_btnmatrix_t *)obj;;
1019:Drivers/lvgl/src/widgets/lv_btnmatrix.c ****     if(btn_idx >= btnm->btn_cnt) return;
1020:Drivers/lvgl/src/widgets/lv_btnmatrix.c **** 
1021:Drivers/lvgl/src/widgets/lv_btnmatrix.c ****     lv_area_copy(&btn_area, &btnm->button_areas[btn_idx]);
 1584              		.loc 1 1021 5 view .LVU532
1011:Drivers/lvgl/src/widgets/lv_btnmatrix.c **** {
 1585              		.loc 1 1011 13 is_stmt 0 view .LVU533
 1586 0000 F0B5     		push	{r4, r5, r6, r7, lr}
 1587              		.cfi_def_cfa_offset 20
 1588              		.cfi_offset 4, -20
 1589              		.cfi_offset 5, -16
 1590              		.cfi_offset 6, -12
 1591              		.cfi_offset 7, -8
 1592              		.cfi_offset 14, -4
 1593              		.loc 1 1021 29 view .LVU534
 1594 0002 836A     		ldr	r3, [r0, #40]
1011:Drivers/lvgl/src/widgets/lv_btnmatrix.c **** {
 1595              		.loc 1 1011 13 view .LVU535
 1596 0004 85B0     		sub	sp, sp, #20
 1597              		.cfi_def_cfa_offset 40
 1598              		.loc 1 1021 29 view .LVU536
 1599 0006 03EBC102 		add	r2, r3, r1, lsl #3
 1600              	.LVL110:
 1601              	.LBB368:
 1602              	.LBI368:
 110:Drivers/lvgl/src/widgets/../core/../misc/../font/../misc/lv_area.h **** {
 1603              		.loc 3 110 20 is_stmt 1 view .LVU537
 1604              	.LBB369:
 112:Drivers/lvgl/src/widgets/../core/../misc/../font/../misc/lv_area.h ****     dest->y1 = src->y1;
 1605              		.loc 3 112 5 view .LVU538
 112:Drivers/lvgl/src/widgets/../core/../misc/../font/../misc/lv_area.h ****     dest->y1 = src->y1;
 1606              		.loc 3 112 19 is_stmt 0 view .LVU539
 1607 000a 53F83130 		ldr	r3, [r3, r1, lsl #3]	@ unaligned
 112:Drivers/lvgl/src/widgets/../core/../misc/../font/../misc/lv_area.h ****     dest->y1 = src->y1;
 1608              		.loc 3 112 14 view .LVU540
 1609 000e 0093     		str	r3, [sp]
 1610              	.LBE369:
 1611              	.LBE368:
1011:Drivers/lvgl/src/widgets/lv_btnmatrix.c **** {
 1612              		.loc 1 1011 13 view .LVU541
 1613 0010 0446     		mov	r4, r0
 1614              	.LBB371:
 1615              	.LBB370:
 112:Drivers/lvgl/src/widgets/../core/../misc/../font/../misc/lv_area.h ****     dest->y1 = src->y1;
 1616              		.loc 3 112 19 view .LVU542
 1617 0012 5368     		ldr	r3, [r2, #4]	@ unaligned
 113:Drivers/lvgl/src/widgets/../core/../misc/../font/../misc/lv_area.h ****     dest->x2 = src->x2;
 1618              		.loc 3 113 5 is_stmt 1 view .LVU543
 114:Drivers/lvgl/src/widgets/../core/../misc/../font/../misc/lv_area.h ****     dest->y2 = src->y2;
 1619              		.loc 3 114 5 view .LVU544
 115:Drivers/lvgl/src/widgets/../core/../misc/../font/../misc/lv_area.h **** }
 1620              		.loc 3 115 5 view .LVU545
 112:Drivers/lvgl/src/widgets/../core/../misc/../font/../misc/lv_area.h ****     dest->y1 = src->y1;
 1621              		.loc 3 112 14 is_stmt 0 view .LVU546
 1622 0014 0193     		str	r3, [sp, #4]
 1623              	.LVL111:
 112:Drivers/lvgl/src/widgets/../core/../misc/../font/../misc/lv_area.h ****     dest->y1 = src->y1;
ARM GAS  /var/folders/0z/tsy30v1j4xl4_7kw94k978ww0000gn/T//ccyrzG1p.s 			page 60


 1624              		.loc 3 112 14 view .LVU547
 1625              	.LBE370:
 1626              	.LBE371:
1022:Drivers/lvgl/src/widgets/lv_btnmatrix.c ****     lv_obj_get_coords(obj, &obj_area);
 1627              		.loc 1 1022 5 is_stmt 1 view .LVU548
1011:Drivers/lvgl/src/widgets/lv_btnmatrix.c **** {
 1628              		.loc 1 1011 13 is_stmt 0 view .LVU549
 1629 0016 0D46     		mov	r5, r1
 1630              		.loc 1 1022 5 view .LVU550
 1631 0018 02A9     		add	r1, sp, #8
 1632              	.LVL112:
 1633              		.loc 1 1022 5 view .LVU551
 1634 001a FFF7FEFF 		bl	lv_obj_get_coords
 1635              	.LVL113:
1023:Drivers/lvgl/src/widgets/lv_btnmatrix.c **** 
1024:Drivers/lvgl/src/widgets/lv_btnmatrix.c ****     /*The buttons might have outline and shadow so make the invalidation larger with the gaps betwe
1025:Drivers/lvgl/src/widgets/lv_btnmatrix.c ****      *It assumes that the outline or shadow is smaller than the gaps*/
1026:Drivers/lvgl/src/widgets/lv_btnmatrix.c ****     lv_coord_t row_gap = lv_obj_get_style_pad_row(obj, LV_PART_MAIN);
 1636              		.loc 1 1026 5 is_stmt 1 view .LVU552
 1637              	.LBB372:
 1638              	.LBI372:
 127:Drivers/lvgl/src/widgets/../core/lv_obj_style_gen.h **** {
 1639              		.loc 2 127 26 view .LVU553
 1640              	.LBB373:
 129:Drivers/lvgl/src/widgets/../core/lv_obj_style_gen.h ****     return (lv_coord_t)v.num;
 1641              		.loc 2 129 5 view .LVU554
 129:Drivers/lvgl/src/widgets/../core/lv_obj_style_gen.h ****     return (lv_coord_t)v.num;
 1642              		.loc 2 129 26 is_stmt 0 view .LVU555
 1643 001e 1422     		movs	r2, #20
 1644 0020 0021     		movs	r1, #0
 1645 0022 2046     		mov	r0, r4
 1646 0024 FFF7FEFF 		bl	lv_obj_get_style_prop
 1647              	.LVL114:
 130:Drivers/lvgl/src/widgets/../core/lv_obj_style_gen.h **** }
 1648              		.loc 2 130 5 is_stmt 1 view .LVU556
 1649              	.LBE373:
 1650              	.LBE372:
 1651              	.LBB375:
 1652              	.LBB376:
 135:Drivers/lvgl/src/widgets/../core/lv_obj_style_gen.h ****     return (lv_coord_t)v.num;
 1653              		.loc 2 135 26 is_stmt 0 view .LVU557
 1654 0028 1522     		movs	r2, #21
 1655 002a 0021     		movs	r1, #0
 1656              	.LBE376:
 1657              	.LBE375:
 1658              	.LBB379:
 1659              	.LBB374:
 130:Drivers/lvgl/src/widgets/../core/lv_obj_style_gen.h **** }
 1660              		.loc 2 130 12 view .LVU558
 1661 002c 07B2     		sxth	r7, r0
 1662              	.LVL115:
 130:Drivers/lvgl/src/widgets/../core/lv_obj_style_gen.h **** }
 1663              		.loc 2 130 12 view .LVU559
 1664              	.LBE374:
 1665              	.LBE379:
1027:Drivers/lvgl/src/widgets/lv_btnmatrix.c ****     lv_coord_t col_gap = lv_obj_get_style_pad_column(obj, LV_PART_MAIN);
 1666              		.loc 1 1027 5 is_stmt 1 view .LVU560
ARM GAS  /var/folders/0z/tsy30v1j4xl4_7kw94k978ww0000gn/T//ccyrzG1p.s 			page 61


 1667              	.LBB380:
 1668              	.LBI375:
 133:Drivers/lvgl/src/widgets/../core/lv_obj_style_gen.h **** {
 1669              		.loc 2 133 26 view .LVU561
 1670              	.LBB377:
 135:Drivers/lvgl/src/widgets/../core/lv_obj_style_gen.h ****     return (lv_coord_t)v.num;
 1671              		.loc 2 135 5 view .LVU562
 135:Drivers/lvgl/src/widgets/../core/lv_obj_style_gen.h ****     return (lv_coord_t)v.num;
 1672              		.loc 2 135 26 is_stmt 0 view .LVU563
 1673 002e 2046     		mov	r0, r4
 1674 0030 FFF7FEFF 		bl	lv_obj_get_style_prop
 1675              	.LVL116:
 1676              		.loc 2 136 5 is_stmt 1 view .LVU564
 135:Drivers/lvgl/src/widgets/../core/lv_obj_style_gen.h ****     return (lv_coord_t)v.num;
 1677              		.loc 2 135 26 is_stmt 0 view .LVU565
 1678 0034 0646     		mov	r6, r0
 1679              	.LBE377:
 1680              	.LBE380:
1028:Drivers/lvgl/src/widgets/lv_btnmatrix.c **** 
1029:Drivers/lvgl/src/widgets/lv_btnmatrix.c ****     /*Be sure to have a minimal extra space if row/col_gap is small*/
1030:Drivers/lvgl/src/widgets/lv_btnmatrix.c ****     lv_coord_t dpi = lv_disp_get_dpi(lv_obj_get_disp(obj));
 1681              		.loc 1 1030 38 view .LVU566
 1682 0036 2046     		mov	r0, r4
 1683 0038 FFF7FEFF 		bl	lv_obj_get_disp
 1684              	.LVL117:
 1685              		.loc 1 1030 22 view .LVU567
 1686 003c FFF7FEFF 		bl	lv_disp_get_dpi
 1687              	.LVL118:
1031:Drivers/lvgl/src/widgets/lv_btnmatrix.c ****     row_gap = LV_MAX(row_gap, dpi / 10);
 1688              		.loc 1 1031 15 view .LVU568
 1689 0040 234A     		ldr	r2, .L93
1032:Drivers/lvgl/src/widgets/lv_btnmatrix.c ****     col_gap = LV_MAX(col_gap, dpi / 10);
1033:Drivers/lvgl/src/widgets/lv_btnmatrix.c **** 
1034:Drivers/lvgl/src/widgets/lv_btnmatrix.c ****     /*Convert relative coordinates to absolute*/
1035:Drivers/lvgl/src/widgets/lv_btnmatrix.c ****     btn_area.x1 += obj_area.x1 - row_gap;
 1690              		.loc 1 1035 17 view .LVU569
 1691 0042 BDF80010 		ldrh	r1, [sp]
1031:Drivers/lvgl/src/widgets/lv_btnmatrix.c ****     row_gap = LV_MAX(row_gap, dpi / 10);
 1692              		.loc 1 1031 15 view .LVU570
 1693 0046 82FB0032 		smull	r3, r2, r2, r0
 1694 004a C317     		asrs	r3, r0, #31
 1695 004c C3EBA203 		rsb	r3, r3, r2, asr #2
 1696 0050 1BB2     		sxth	r3, r3
 1697              	.LBB381:
 1698              	.LBB378:
 1699              		.loc 2 136 12 view .LVU571
 1700 0052 36B2     		sxth	r6, r6
 1701              	.LVL119:
 1702              		.loc 2 136 12 view .LVU572
 1703              	.LBE378:
 1704              	.LBE381:
1030:Drivers/lvgl/src/widgets/lv_btnmatrix.c ****     row_gap = LV_MAX(row_gap, dpi / 10);
 1705              		.loc 1 1030 5 is_stmt 1 view .LVU573
1031:Drivers/lvgl/src/widgets/lv_btnmatrix.c ****     row_gap = LV_MAX(row_gap, dpi / 10);
 1706              		.loc 1 1031 5 view .LVU574
1032:Drivers/lvgl/src/widgets/lv_btnmatrix.c ****     col_gap = LV_MAX(col_gap, dpi / 10);
 1707              		.loc 1 1032 5 view .LVU575
ARM GAS  /var/folders/0z/tsy30v1j4xl4_7kw94k978ww0000gn/T//ccyrzG1p.s 			page 62


 1708              		.loc 1 1035 5 view .LVU576
1032:Drivers/lvgl/src/widgets/lv_btnmatrix.c ****     col_gap = LV_MAX(col_gap, dpi / 10);
 1709              		.loc 1 1032 13 is_stmt 0 view .LVU577
 1710 0054 9E42     		cmp	r6, r3
 1711 0056 B8BF     		it	lt
 1712 0058 1E46     		movlt	r6, r3
 1713              	.LVL120:
1031:Drivers/lvgl/src/widgets/lv_btnmatrix.c ****     row_gap = LV_MAX(row_gap, dpi / 10);
 1714              		.loc 1 1031 13 view .LVU578
 1715 005a 9F42     		cmp	r7, r3
 1716 005c B8BF     		it	lt
 1717 005e 1F46     		movlt	r7, r3
 1718              	.LVL121:
1036:Drivers/lvgl/src/widgets/lv_btnmatrix.c ****     btn_area.y1 += obj_area.y1 - col_gap;
 1719              		.loc 1 1036 28 view .LVU579
 1720 0060 BDF80A00 		ldrh	r0, [sp, #10]
 1721              	.LVL122:
 1722              		.loc 1 1036 17 view .LVU580
 1723 0064 BDF80220 		ldrh	r2, [sp, #2]
 1724              		.loc 1 1036 32 view .LVU581
 1725 0068 B3B2     		uxth	r3, r6
1037:Drivers/lvgl/src/widgets/lv_btnmatrix.c ****     btn_area.x2 += obj_area.x1 + row_gap;
1038:Drivers/lvgl/src/widgets/lv_btnmatrix.c ****     btn_area.y2 += obj_area.y1 + col_gap;
 1726              		.loc 1 1038 17 view .LVU582
 1727 006a BDF80660 		ldrh	r6, [sp, #6]
1036:Drivers/lvgl/src/widgets/lv_btnmatrix.c ****     btn_area.y1 += obj_area.y1 - col_gap;
 1728              		.loc 1 1036 17 view .LVU583
 1729 006e 0244     		add	r2, r2, r0
 1730              		.loc 1 1038 17 view .LVU584
 1731 0070 3044     		add	r0, r0, r6
1036:Drivers/lvgl/src/widgets/lv_btnmatrix.c ****     btn_area.y1 += obj_area.y1 - col_gap;
 1732              		.loc 1 1036 17 view .LVU585
 1733 0072 D21A     		subs	r2, r2, r3
 1734              		.loc 1 1038 17 view .LVU586
 1735 0074 0344     		add	r3, r3, r0
1035:Drivers/lvgl/src/widgets/lv_btnmatrix.c ****     btn_area.y1 += obj_area.y1 - col_gap;
 1736              		.loc 1 1035 28 view .LVU587
 1737 0076 BDF80800 		ldrh	r0, [sp, #8]
1035:Drivers/lvgl/src/widgets/lv_btnmatrix.c ****     btn_area.y1 += obj_area.y1 - col_gap;
 1738              		.loc 1 1035 32 view .LVU588
 1739 007a BFB2     		uxth	r7, r7
1035:Drivers/lvgl/src/widgets/lv_btnmatrix.c ****     btn_area.y1 += obj_area.y1 - col_gap;
 1740              		.loc 1 1035 17 view .LVU589
 1741 007c 0144     		add	r1, r1, r0
 1742 007e C91B     		subs	r1, r1, r7
 1743 0080 ADF80010 		strh	r1, [sp]	@ movhi
1036:Drivers/lvgl/src/widgets/lv_btnmatrix.c ****     btn_area.y1 += obj_area.y1 - col_gap;
 1744              		.loc 1 1036 5 is_stmt 1 view .LVU590
1037:Drivers/lvgl/src/widgets/lv_btnmatrix.c ****     btn_area.x2 += obj_area.x1 + row_gap;
 1745              		.loc 1 1037 5 view .LVU591
1037:Drivers/lvgl/src/widgets/lv_btnmatrix.c ****     btn_area.x2 += obj_area.x1 + row_gap;
 1746              		.loc 1 1037 17 is_stmt 0 view .LVU592
 1747 0084 BDF80410 		ldrh	r1, [sp, #4]
 1748 0088 0844     		add	r0, r0, r1
1039:Drivers/lvgl/src/widgets/lv_btnmatrix.c **** 
1040:Drivers/lvgl/src/widgets/lv_btnmatrix.c ****     if((btn_idx == btnm->btn_id_sel) && (btnm->ctrl_bits[btn_idx] & LV_BTNMATRIX_CTRL_POPOVER)) {
 1749              		.loc 1 1040 7 view .LVU593
ARM GAS  /var/folders/0z/tsy30v1j4xl4_7kw94k978ww0000gn/T//ccyrzG1p.s 			page 63


 1750 008a A18E     		ldrh	r1, [r4, #52]
1036:Drivers/lvgl/src/widgets/lv_btnmatrix.c ****     btn_area.x2 += obj_area.x1 + row_gap;
 1751              		.loc 1 1036 17 view .LVU594
 1752 008c 92B2     		uxth	r2, r2
1038:Drivers/lvgl/src/widgets/lv_btnmatrix.c **** 
 1753              		.loc 1 1038 17 view .LVU595
 1754 008e 9BB2     		uxth	r3, r3
1037:Drivers/lvgl/src/widgets/lv_btnmatrix.c ****     btn_area.y2 += obj_area.y1 + col_gap;
 1755              		.loc 1 1037 17 view .LVU596
 1756 0090 0744     		add	r7, r7, r0
 1757              		.loc 1 1040 7 view .LVU597
 1758 0092 A942     		cmp	r1, r5
1036:Drivers/lvgl/src/widgets/lv_btnmatrix.c ****     btn_area.x2 += obj_area.x1 + row_gap;
 1759              		.loc 1 1036 17 view .LVU598
 1760 0094 ADF80220 		strh	r2, [sp, #2]	@ movhi
1038:Drivers/lvgl/src/widgets/lv_btnmatrix.c **** 
 1761              		.loc 1 1038 17 view .LVU599
 1762 0098 ADF80630 		strh	r3, [sp, #6]	@ movhi
1037:Drivers/lvgl/src/widgets/lv_btnmatrix.c ****     btn_area.y2 += obj_area.y1 + col_gap;
 1763              		.loc 1 1037 17 view .LVU600
 1764 009c ADF80470 		strh	r7, [sp, #4]	@ movhi
1038:Drivers/lvgl/src/widgets/lv_btnmatrix.c **** 
 1765              		.loc 1 1038 5 is_stmt 1 view .LVU601
 1766              		.loc 1 1040 5 view .LVU602
 1767              		.loc 1 1040 7 is_stmt 0 view .LVU603
 1768 00a0 05D0     		beq	.L92
 1769              	.L87:
1041:Drivers/lvgl/src/widgets/lv_btnmatrix.c ****         /*Push up the upper boundary of the btn area to also invalidate the popover*/
1042:Drivers/lvgl/src/widgets/lv_btnmatrix.c ****         btn_area.y1 -= lv_area_get_height(&btn_area);
1043:Drivers/lvgl/src/widgets/lv_btnmatrix.c ****     }
1044:Drivers/lvgl/src/widgets/lv_btnmatrix.c **** 
1045:Drivers/lvgl/src/widgets/lv_btnmatrix.c ****     lv_obj_invalidate_area(obj, &btn_area);
 1770              		.loc 1 1045 5 is_stmt 1 view .LVU604
 1771 00a2 6946     		mov	r1, sp
 1772 00a4 2046     		mov	r0, r4
 1773 00a6 FFF7FEFF 		bl	lv_obj_invalidate_area
 1774              	.LVL123:
1046:Drivers/lvgl/src/widgets/lv_btnmatrix.c **** }
 1775              		.loc 1 1046 1 is_stmt 0 view .LVU605
 1776 00aa 05B0     		add	sp, sp, #20
 1777              		.cfi_remember_state
 1778              		.cfi_def_cfa_offset 20
 1779              		@ sp needed
 1780 00ac F0BD     		pop	{r4, r5, r6, r7, pc}
 1781              	.LVL124:
 1782              	.L92:
 1783              		.cfi_restore_state
1040:Drivers/lvgl/src/widgets/lv_btnmatrix.c ****         /*Push up the upper boundary of the btn area to also invalidate the popover*/
 1784              		.loc 1 1040 57 view .LVU606
 1785 00ae E06A     		ldr	r0, [r4, #44]
1040:Drivers/lvgl/src/widgets/lv_btnmatrix.c ****         /*Push up the upper boundary of the btn area to also invalidate the popover*/
 1786              		.loc 1 1040 38 view .LVU607
 1787 00b0 30F81110 		ldrh	r1, [r0, r1, lsl #1]
 1788 00b4 4905     		lsls	r1, r1, #21
 1789 00b6 F4D5     		bpl	.L87
1042:Drivers/lvgl/src/widgets/lv_btnmatrix.c ****     }
 1790              		.loc 1 1042 9 is_stmt 1 view .LVU608
ARM GAS  /var/folders/0z/tsy30v1j4xl4_7kw94k978ww0000gn/T//ccyrzG1p.s 			page 64


1042:Drivers/lvgl/src/widgets/lv_btnmatrix.c ****     }
 1791              		.loc 1 1042 21 is_stmt 0 view .LVU609
 1792 00b8 DB43     		mvns	r3, r3
 1793 00ba 03EB4203 		add	r3, r3, r2, lsl #1
1045:Drivers/lvgl/src/widgets/lv_btnmatrix.c **** }
 1794              		.loc 1 1045 5 view .LVU610
 1795 00be 6946     		mov	r1, sp
 1796 00c0 2046     		mov	r0, r4
1042:Drivers/lvgl/src/widgets/lv_btnmatrix.c ****     }
 1797              		.loc 1 1042 21 view .LVU611
 1798 00c2 ADF80230 		strh	r3, [sp, #2]	@ movhi
1045:Drivers/lvgl/src/widgets/lv_btnmatrix.c **** }
 1799              		.loc 1 1045 5 is_stmt 1 view .LVU612
 1800 00c6 FFF7FEFF 		bl	lv_obj_invalidate_area
 1801              	.LVL125:
 1802              		.loc 1 1046 1 is_stmt 0 view .LVU613
 1803 00ca 05B0     		add	sp, sp, #20
 1804              		.cfi_def_cfa_offset 20
 1805              		@ sp needed
 1806 00cc F0BD     		pop	{r4, r5, r6, r7, pc}
 1807              	.LVL126:
 1808              	.L94:
 1809              		.loc 1 1046 1 view .LVU614
 1810 00ce 00BF     		.align	2
 1811              	.L93:
 1812 00d0 67666666 		.word	1717986919
 1813              		.cfi_endproc
 1814              	.LFE195:
 1816              		.section	.text.lv_btnmatrix_set_map.part.0,"ax",%progbits
 1817              		.align	1
 1818              		.p2align 2,,3
 1819              		.syntax unified
 1820              		.thumb
 1821              		.thumb_func
 1823              	lv_btnmatrix_set_map.part.0:
 1824              	.LVL127:
 1825              	.LFB196:
  93:Drivers/lvgl/src/widgets/lv_btnmatrix.c **** {
 1826              		.loc 1 93 6 is_stmt 1 view -0
 1827              		.cfi_startproc
 1828              		@ args = 0, pretend = 0, frame = 72
 1829              		@ frame_needed = 0, uses_anonymous_args = 0
  98:Drivers/lvgl/src/widgets/lv_btnmatrix.c **** 
 1830              		.loc 1 98 5 view .LVU616
  93:Drivers/lvgl/src/widgets/lv_btnmatrix.c **** {
 1831              		.loc 1 93 6 is_stmt 0 view .LVU617
 1832 0000 2DE9F04F 		push	{r4, r5, r6, r7, r8, r9, r10, fp, lr}
 1833              		.cfi_def_cfa_offset 36
 1834              		.cfi_offset 4, -36
 1835              		.cfi_offset 5, -32
 1836              		.cfi_offset 6, -28
 1837              		.cfi_offset 7, -24
 1838              		.cfi_offset 8, -20
 1839              		.cfi_offset 9, -16
 1840              		.cfi_offset 10, -12
 1841              		.cfi_offset 11, -8
 1842              		.cfi_offset 14, -4
ARM GAS  /var/folders/0z/tsy30v1j4xl4_7kw94k978ww0000gn/T//ccyrzG1p.s 			page 65


 1843              	.LBB401:
 1844              	.LBB402:
 864:Drivers/lvgl/src/widgets/lv_btnmatrix.c ****         if(strcmp(map[i], "\n") != 0) { /*Do not count line breaks*/
 1845              		.loc 1 864 14 view .LVU618
 1846 0004 0A68     		ldr	r2, [r1]
 860:Drivers/lvgl/src/widgets/lv_btnmatrix.c ****     /*Count the buttons in the map*/
 1847              		.loc 1 860 19 view .LVU619
 1848 0006 0123     		movs	r3, #1
 1849              	.LBE402:
 1850              	.LBE401:
  93:Drivers/lvgl/src/widgets/lv_btnmatrix.c **** {
 1851              		.loc 1 93 6 view .LVU620
 1852 0008 95B0     		sub	sp, sp, #84
 1853              		.cfi_def_cfa_offset 120
  93:Drivers/lvgl/src/widgets/lv_btnmatrix.c **** {
 1854              		.loc 1 93 6 view .LVU621
 1855 000a 8A46     		mov	r10, r1
 1856 000c 8346     		mov	fp, r0
 1857              	.LVL128:
 101:Drivers/lvgl/src/widgets/lv_btnmatrix.c ****     btnm->map_p = map;
 1858              		.loc 1 101 5 is_stmt 1 view .LVU622
 1859              	.LBB407:
 1860              	.LBI401:
 857:Drivers/lvgl/src/widgets/lv_btnmatrix.c **** {
 1861              		.loc 1 857 13 view .LVU623
 1862              	.LBB403:
 859:Drivers/lvgl/src/widgets/lv_btnmatrix.c ****     btnm->row_cnt = 1;
 1863              		.loc 1 859 5 view .LVU624
 860:Drivers/lvgl/src/widgets/lv_btnmatrix.c ****     /*Count the buttons in the map*/
 1864              		.loc 1 860 5 view .LVU625
 860:Drivers/lvgl/src/widgets/lv_btnmatrix.c ****     /*Count the buttons in the map*/
 1865              		.loc 1 860 19 is_stmt 0 view .LVU626
 1866 000e 4386     		strh	r3, [r0, #50]	@ movhi
 862:Drivers/lvgl/src/widgets/lv_btnmatrix.c ****     uint16_t i       = 0;
 1867              		.loc 1 862 5 is_stmt 1 view .LVU627
 1868              	.LVL129:
 863:Drivers/lvgl/src/widgets/lv_btnmatrix.c ****     while(map[i] && map[i][0] != '\0') {
 1869              		.loc 1 863 5 view .LVU628
 864:Drivers/lvgl/src/widgets/lv_btnmatrix.c ****         if(strcmp(map[i], "\n") != 0) { /*Do not count line breaks*/
 1870              		.loc 1 864 5 view .LVU629
 864:Drivers/lvgl/src/widgets/lv_btnmatrix.c ****         if(strcmp(map[i], "\n") != 0) { /*Do not count line breaks*/
 1871              		.loc 1 864 18 view .LVU630
 862:Drivers/lvgl/src/widgets/lv_btnmatrix.c ****     uint16_t i       = 0;
 1872              		.loc 1 862 14 is_stmt 0 view .LVU631
 1873 0010 1446     		mov	r4, r2
 864:Drivers/lvgl/src/widgets/lv_btnmatrix.c ****         if(strcmp(map[i], "\n") != 0) { /*Do not count line breaks*/
 1874              		.loc 1 864 18 view .LVU632
 1875 0012 C2B1     		cbz	r2, .L97
 863:Drivers/lvgl/src/widgets/lv_btnmatrix.c ****     while(map[i] && map[i][0] != '\0') {
 1876              		.loc 1 863 14 view .LVU633
 1877 0014 0023     		movs	r3, #0
 862:Drivers/lvgl/src/widgets/lv_btnmatrix.c ****     uint16_t i       = 0;
 1878              		.loc 1 862 14 view .LVU634
 1879 0016 1C46     		mov	r4, r3
 1880              	.LVL130:
 1881              	.L96:
 865:Drivers/lvgl/src/widgets/lv_btnmatrix.c ****             btn_cnt++;
ARM GAS  /var/folders/0z/tsy30v1j4xl4_7kw94k978ww0000gn/T//ccyrzG1p.s 			page 66


 1882              		.loc 1 865 9 is_stmt 1 view .LVU635
 866:Drivers/lvgl/src/widgets/lv_btnmatrix.c ****         }
 1883              		.loc 1 866 13 view .LVU636
 864:Drivers/lvgl/src/widgets/lv_btnmatrix.c ****         if(strcmp(map[i], "\n") != 0) { /*Do not count line breaks*/
 1884              		.loc 1 864 18 is_stmt 0 view .LVU637
 1885 0018 1178     		ldrb	r1, [r2]	@ zero_extendqisi2
 871:Drivers/lvgl/src/widgets/lv_btnmatrix.c ****     }
 1886              		.loc 1 871 10 view .LVU638
 1887 001a 5D1C     		adds	r5, r3, #1
 866:Drivers/lvgl/src/widgets/lv_btnmatrix.c ****         }
 1888              		.loc 1 866 20 view .LVU639
 1889 001c 601C     		adds	r0, r4, #1
 864:Drivers/lvgl/src/widgets/lv_btnmatrix.c ****         if(strcmp(map[i], "\n") != 0) { /*Do not count line breaks*/
 1890              		.loc 1 864 18 view .LVU640
 1891 001e 91B1     		cbz	r1, .L97
 869:Drivers/lvgl/src/widgets/lv_btnmatrix.c ****         }
 1892              		.loc 1 869 13 is_stmt 1 view .LVU641
 865:Drivers/lvgl/src/widgets/lv_btnmatrix.c ****             btn_cnt++;
 1893              		.loc 1 865 12 is_stmt 0 view .LVU642
 1894 0020 0A29     		cmp	r1, #10
 871:Drivers/lvgl/src/widgets/lv_btnmatrix.c ****     }
 1895              		.loc 1 871 10 view .LVU643
 1896 0022 03F10103 		add	r3, r3, #1
 1897              	.LVL131:
 865:Drivers/lvgl/src/widgets/lv_btnmatrix.c ****             btn_cnt++;
 1898              		.loc 1 865 12 view .LVU644
 1899 0026 40F0C080 		bne	.L126
 1900 002a 5278     		ldrb	r2, [r2, #1]	@ zero_extendqisi2
 865:Drivers/lvgl/src/widgets/lv_btnmatrix.c ****             btn_cnt++;
 1901              		.loc 1 865 11 view .LVU645
 1902 002c 002A     		cmp	r2, #0
 1903 002e 40F0BC80 		bne	.L126
 871:Drivers/lvgl/src/widgets/lv_btnmatrix.c ****     }
 1904              		.loc 1 871 10 view .LVU646
 1905 0032 9BB2     		uxth	r3, r3
 869:Drivers/lvgl/src/widgets/lv_btnmatrix.c ****         }
 1906              		.loc 1 869 26 view .LVU647
 1907 0034 BBF83210 		ldrh	r1, [fp, #50]
 864:Drivers/lvgl/src/widgets/lv_btnmatrix.c ****         if(strcmp(map[i], "\n") != 0) { /*Do not count line breaks*/
 1908              		.loc 1 864 14 view .LVU648
 1909 0038 5AF82320 		ldr	r2, [r10, r3, lsl #2]
 869:Drivers/lvgl/src/widgets/lv_btnmatrix.c ****         }
 1910              		.loc 1 869 26 view .LVU649
 1911 003c 0131     		adds	r1, r1, #1
 1912 003e ABF83210 		strh	r1, [fp, #50]	@ movhi
 871:Drivers/lvgl/src/widgets/lv_btnmatrix.c ****     }
 1913              		.loc 1 871 9 is_stmt 1 view .LVU650
 1914              	.LVL132:
 864:Drivers/lvgl/src/widgets/lv_btnmatrix.c ****         if(strcmp(map[i], "\n") != 0) { /*Do not count line breaks*/
 1915              		.loc 1 864 18 view .LVU651
 1916 0042 002A     		cmp	r2, #0
 1917 0044 E8D1     		bne	.L96
 1918              	.LVL133:
 1919              	.L97:
 875:Drivers/lvgl/src/widgets/lv_btnmatrix.c **** 
 1920              		.loc 1 875 5 view .LVU652
 875:Drivers/lvgl/src/widgets/lv_btnmatrix.c **** 
ARM GAS  /var/folders/0z/tsy30v1j4xl4_7kw94k978ww0000gn/T//ccyrzG1p.s 			page 67


 1921              		.loc 1 875 7 is_stmt 0 view .LVU653
 1922 0046 BBF83030 		ldrh	r3, [fp, #48]
 1923 004a A342     		cmp	r3, r4
 1924 004c 2BD0     		beq	.L102
 877:Drivers/lvgl/src/widgets/lv_btnmatrix.c ****         lv_mem_free(btnm->button_areas);
 1925              		.loc 1 877 5 is_stmt 1 view .LVU654
 877:Drivers/lvgl/src/widgets/lv_btnmatrix.c ****         lv_mem_free(btnm->button_areas);
 1926              		.loc 1 877 12 is_stmt 0 view .LVU655
 1927 004e DBF82800 		ldr	r0, [fp, #40]
 877:Drivers/lvgl/src/widgets/lv_btnmatrix.c ****         lv_mem_free(btnm->button_areas);
 1928              		.loc 1 877 7 view .LVU656
 1929 0052 20B1     		cbz	r0, .L103
 878:Drivers/lvgl/src/widgets/lv_btnmatrix.c ****         btnm->button_areas = NULL;
 1930              		.loc 1 878 9 is_stmt 1 view .LVU657
 1931 0054 FFF7FEFF 		bl	lv_mem_free
 1932              	.LVL134:
 879:Drivers/lvgl/src/widgets/lv_btnmatrix.c ****     }
 1933              		.loc 1 879 9 view .LVU658
 879:Drivers/lvgl/src/widgets/lv_btnmatrix.c ****     }
 1934              		.loc 1 879 28 is_stmt 0 view .LVU659
 1935 0058 0023     		movs	r3, #0
 1936 005a CBF82830 		str	r3, [fp, #40]
 1937              	.L103:
 881:Drivers/lvgl/src/widgets/lv_btnmatrix.c ****         lv_mem_free(btnm->ctrl_bits);
 1938              		.loc 1 881 5 is_stmt 1 view .LVU660
 881:Drivers/lvgl/src/widgets/lv_btnmatrix.c ****         lv_mem_free(btnm->ctrl_bits);
 1939              		.loc 1 881 12 is_stmt 0 view .LVU661
 1940 005e DBF82C00 		ldr	r0, [fp, #44]
 881:Drivers/lvgl/src/widgets/lv_btnmatrix.c ****         lv_mem_free(btnm->ctrl_bits);
 1941              		.loc 1 881 7 view .LVU662
 1942 0062 20B1     		cbz	r0, .L104
 882:Drivers/lvgl/src/widgets/lv_btnmatrix.c ****         btnm->ctrl_bits = NULL;
 1943              		.loc 1 882 9 is_stmt 1 view .LVU663
 1944 0064 FFF7FEFF 		bl	lv_mem_free
 1945              	.LVL135:
 883:Drivers/lvgl/src/widgets/lv_btnmatrix.c ****     }
 1946              		.loc 1 883 9 view .LVU664
 883:Drivers/lvgl/src/widgets/lv_btnmatrix.c ****     }
 1947              		.loc 1 883 25 is_stmt 0 view .LVU665
 1948 0068 0023     		movs	r3, #0
 1949 006a CBF82C30 		str	r3, [fp, #44]
 1950              	.L104:
 886:Drivers/lvgl/src/widgets/lv_btnmatrix.c ****     LV_ASSERT_MALLOC(btnm->button_areas);
 1951              		.loc 1 886 5 is_stmt 1 view .LVU666
 886:Drivers/lvgl/src/widgets/lv_btnmatrix.c ****     LV_ASSERT_MALLOC(btnm->button_areas);
 1952              		.loc 1 886 26 is_stmt 0 view .LVU667
 1953 006e E000     		lsls	r0, r4, #3
 1954 0070 FFF7FEFF 		bl	lv_mem_alloc
 1955              	.LVL136:
