ARM GAS  /var/folders/lp/x54gwt890xv47sdkqj1k04q40000gn/T//ccHp6gFA.s 			page 1


   1              		.cpu cortex-m4
   2              		.arch armv7e-m
   3              		.fpu fpv4-sp-d16
   4              		.eabi_attribute 27, 1
   5              		.eabi_attribute 28, 1
   6              		.eabi_attribute 20, 1
   7              		.eabi_attribute 21, 1
   8              		.eabi_attribute 23, 3
   9              		.eabi_attribute 24, 1
  10              		.eabi_attribute 25, 1
  11              		.eabi_attribute 26, 1
  12              		.eabi_attribute 30, 2
  13              		.eabi_attribute 34, 1
  14              		.eabi_attribute 18, 4
  15              		.file	"lv_calendar_header_dropdown.c"
  16              		.text
  17              	.Ltext0:
  18              		.cfi_sections	.debug_frame
  19              		.file 1 "Drivers/lvgl/src/extra/widgets/calendar/lv_calendar_header_dropdown.c"
  20              		.section	.rodata.my_constructor.str1.4,"aMS",%progbits,1
  21              		.align	2
  22              	.LC0:
  23 0000 32303233 		.ascii	"2023\0122022\0122021\0122020\0122019\0122018\012201"
  23      0A323032 
  23      320A3230 
  23      32310A32 
  23      3032300A 
  24 0021 370A3230 		.ascii	"7\0122016\0122015\0122014\0122013\0122012\0122011\012"
  24      31360A32 
  24      3031350A 
  24      32303134 
  24      0A323031 
  25 0041 32303130 		.ascii	"2010\0122009\0122008\0122007\0122006\0122005\012200"
  25      0A323030 
  25      390A3230 
  25      30380A32 
  25      3030370A 
  26 0062 340A3230 		.ascii	"4\0122003\0122002\0122001\0122000\0121999\0121998\012"
  26      30330A32 
  26      3030320A 
  26      32303031 
  26      0A323030 
  27 0082 31393937 		.ascii	"1997\0121996\0121995\0121994\0121993\0121992\012199"
  27      0A313939 
  27      360A3139 
  27      39350A31 
  27      3939340A 
  28 00a3 310A3139 		.ascii	"1\0121990\0121989\0121988\0121987\0121986\0121985\012"
  28      39300A31 
  28      3938390A 
  28      31393838 
  28      0A313938 
  29 00c3 31393834 		.ascii	"1984\0121983\0121982\0121981\0121980\0121979\012197"
  29      0A313938 
  29      330A3139 
  29      38320A31 
  29      3938310A 
ARM GAS  /var/folders/lp/x54gwt890xv47sdkqj1k04q40000gn/T//ccHp6gFA.s 			page 2


  30 00e4 380A3139 		.ascii	"8\0121977\0121976\0121975\0121974\0121973\0121972\012"
  30      37370A31 
  30      3937360A 
  30      31393735 
  30      0A313937 
  31 0104 31393731 		.ascii	"1971\0121970\0121969\0121968\0121967\0121966\012196"
  31      0A313937 
  31      300A3139 
  31      36390A31 
  31      3936380A 
  32 0125 350A3139 		.ascii	"5\0121964\0121963\0121962\0121961\0121960\0121959\012"
  32      36340A31 
  32      3936330A 
  32      31393632 
  32      0A313936 
  33 0145 31393538 		.ascii	"1958\0121957\0121956\0121955\0121954\0121953\012195"
  33      0A313935 
  33      370A3139 
  33      35360A31 
  33      3935350A 
  34 0166 320A3139 		.ascii	"2\0121951\0121950\0121949\0121948\0121947\0121946\012"
  34      35310A31 
  34      3935300A 
  34      31393439 
  34      0A313934 
  35 0186 31393435 		.ascii	"1945\0121944\0121943\0121942\0121941\0121940\012193"
  35      0A313934 
  35      340A3139 
  35      34330A31 
  35      3934320A 
  36 01a7 390A3139 		.ascii	"9\0121938\0121937\0121936\0121935\0121934\0121933\012"
  36      33380A31 
  36      3933370A 
  36      31393336 
  36      0A313933 
  37 01c7 31393332 		.ascii	"1932\0121931\0121930\0121929\0121928\0121927\012192"
  37      0A313933 
  37      310A3139 
  37      33300A31 
  37      3932390A 
  38 01e8 360A3139 		.ascii	"6\0121925\0121924\0121923\0121922\0121921\0121920\012"
  38      32350A31 
  38      3932340A 
  38      31393233 
  38      0A313932 
  39 0208 31393139 		.ascii	"1919\0121918\0121917\0121916\0121915\0121914\012191"
  39      0A313931 
  39      380A3139 
  39      31370A31 
  39      3931360A 
  40 0229 330A3139 		.ascii	"3\0121912\0121911\0121910\0121909\0121908\0121907\012"
  40      31320A31 
  40      3931310A 
  40      31393130 
  40      0A313930 
  41 0249 31393036 		.ascii	"1906\0121905\0121904\0121903\0121902\0121901\000"
  41      0A313930 
ARM GAS  /var/folders/lp/x54gwt890xv47sdkqj1k04q40000gn/T//ccHp6gFA.s 			page 3


  41      350A3139 
  41      30340A31 
  41      3930330A 
  42 0267 00       		.align	2
  43              	.LC1:
  44 0268 30310A30 		.ascii	"01\01202\01203\01204\01205\01206\01207\01208\01209\012"
  44      320A3033 
  44      0A30340A 
  44      30350A30 
  44      360A3037 
  45 0283 31300A31 		.ascii	"10\01211\01212\000"
  45      310A3132 
  45      00
  46              		.section	.text.my_constructor,"ax",%progbits
  47              		.align	1
  48              		.p2align 2,,3
  49              		.syntax unified
  50              		.thumb
  51              		.thumb_func
  53              	my_constructor:
  54              	.LVL0:
  55              	.LFB167:
   1:Drivers/lvgl/src/extra/widgets/calendar/lv_calendar_header_dropdown.c **** /**
   2:Drivers/lvgl/src/extra/widgets/calendar/lv_calendar_header_dropdown.c ****  * @file lv_calendar_obj_dropdown.c
   3:Drivers/lvgl/src/extra/widgets/calendar/lv_calendar_header_dropdown.c ****  *
   4:Drivers/lvgl/src/extra/widgets/calendar/lv_calendar_header_dropdown.c ****  */
   5:Drivers/lvgl/src/extra/widgets/calendar/lv_calendar_header_dropdown.c **** 
   6:Drivers/lvgl/src/extra/widgets/calendar/lv_calendar_header_dropdown.c **** /*********************
   7:Drivers/lvgl/src/extra/widgets/calendar/lv_calendar_header_dropdown.c ****  *      INCLUDES
   8:Drivers/lvgl/src/extra/widgets/calendar/lv_calendar_header_dropdown.c ****  *********************/
   9:Drivers/lvgl/src/extra/widgets/calendar/lv_calendar_header_dropdown.c **** #include "lv_calendar_header_dropdown.h"
  10:Drivers/lvgl/src/extra/widgets/calendar/lv_calendar_header_dropdown.c **** #if LV_USE_CALENDAR_HEADER_DROPDOWN
  11:Drivers/lvgl/src/extra/widgets/calendar/lv_calendar_header_dropdown.c **** 
  12:Drivers/lvgl/src/extra/widgets/calendar/lv_calendar_header_dropdown.c **** #include "lv_calendar.h"
  13:Drivers/lvgl/src/extra/widgets/calendar/lv_calendar_header_dropdown.c **** #include "../../../widgets/lv_dropdown.h"
  14:Drivers/lvgl/src/extra/widgets/calendar/lv_calendar_header_dropdown.c **** #include "../../layouts/flex/lv_flex.h"
  15:Drivers/lvgl/src/extra/widgets/calendar/lv_calendar_header_dropdown.c **** 
  16:Drivers/lvgl/src/extra/widgets/calendar/lv_calendar_header_dropdown.c **** /*********************
  17:Drivers/lvgl/src/extra/widgets/calendar/lv_calendar_header_dropdown.c ****  *      DEFINES
  18:Drivers/lvgl/src/extra/widgets/calendar/lv_calendar_header_dropdown.c ****  *********************/
  19:Drivers/lvgl/src/extra/widgets/calendar/lv_calendar_header_dropdown.c **** 
  20:Drivers/lvgl/src/extra/widgets/calendar/lv_calendar_header_dropdown.c **** /**********************
  21:Drivers/lvgl/src/extra/widgets/calendar/lv_calendar_header_dropdown.c ****  *      TYPEDEFS
  22:Drivers/lvgl/src/extra/widgets/calendar/lv_calendar_header_dropdown.c ****  **********************/
  23:Drivers/lvgl/src/extra/widgets/calendar/lv_calendar_header_dropdown.c **** 
  24:Drivers/lvgl/src/extra/widgets/calendar/lv_calendar_header_dropdown.c **** /**********************
  25:Drivers/lvgl/src/extra/widgets/calendar/lv_calendar_header_dropdown.c ****  *  STATIC PROTOTYPES
  26:Drivers/lvgl/src/extra/widgets/calendar/lv_calendar_header_dropdown.c ****  **********************/
  27:Drivers/lvgl/src/extra/widgets/calendar/lv_calendar_header_dropdown.c **** static void my_constructor(const lv_obj_class_t * class_p, lv_obj_t * obj);
  28:Drivers/lvgl/src/extra/widgets/calendar/lv_calendar_header_dropdown.c **** static void year_event_cb(lv_event_t * e);
  29:Drivers/lvgl/src/extra/widgets/calendar/lv_calendar_header_dropdown.c **** static void month_event_cb(lv_event_t * e);
  30:Drivers/lvgl/src/extra/widgets/calendar/lv_calendar_header_dropdown.c **** static void value_changed_event_cb(lv_event_t * e);
  31:Drivers/lvgl/src/extra/widgets/calendar/lv_calendar_header_dropdown.c **** 
  32:Drivers/lvgl/src/extra/widgets/calendar/lv_calendar_header_dropdown.c **** /**********************
  33:Drivers/lvgl/src/extra/widgets/calendar/lv_calendar_header_dropdown.c ****  *  STATIC VARIABLES
  34:Drivers/lvgl/src/extra/widgets/calendar/lv_calendar_header_dropdown.c ****  **********************/
  35:Drivers/lvgl/src/extra/widgets/calendar/lv_calendar_header_dropdown.c **** const lv_obj_class_t lv_calendar_header_dropdown_class = {
ARM GAS  /var/folders/lp/x54gwt890xv47sdkqj1k04q40000gn/T//ccHp6gFA.s 			page 4


  36:Drivers/lvgl/src/extra/widgets/calendar/lv_calendar_header_dropdown.c ****     .base_class = &lv_obj_class,
  37:Drivers/lvgl/src/extra/widgets/calendar/lv_calendar_header_dropdown.c ****     .width_def = LV_PCT(100),
  38:Drivers/lvgl/src/extra/widgets/calendar/lv_calendar_header_dropdown.c ****     .height_def = LV_SIZE_CONTENT,
  39:Drivers/lvgl/src/extra/widgets/calendar/lv_calendar_header_dropdown.c ****     .constructor_cb = my_constructor
  40:Drivers/lvgl/src/extra/widgets/calendar/lv_calendar_header_dropdown.c **** };
  41:Drivers/lvgl/src/extra/widgets/calendar/lv_calendar_header_dropdown.c **** 
  42:Drivers/lvgl/src/extra/widgets/calendar/lv_calendar_header_dropdown.c **** static const char * month_list = "01\n02\n03\n04\n05\n06\n07\n08\n09\n10\n11\n12";
  43:Drivers/lvgl/src/extra/widgets/calendar/lv_calendar_header_dropdown.c **** static const char * year_list = {
  44:Drivers/lvgl/src/extra/widgets/calendar/lv_calendar_header_dropdown.c ****     "2023\n2022\n2021\n"
  45:Drivers/lvgl/src/extra/widgets/calendar/lv_calendar_header_dropdown.c ****     "2020\n2019\n2018\n2017\n2016\n2015\n2014\n2013\n2012\n2011\n2010\n2009\n2008\n2007\n2006\n2005
  46:Drivers/lvgl/src/extra/widgets/calendar/lv_calendar_header_dropdown.c ****     "2000\n1999\n1998\n1997\n1996\n1995\n1994\n1993\n1992\n1991\n1990\n1989\n1988\n1987\n1986\n1985
  47:Drivers/lvgl/src/extra/widgets/calendar/lv_calendar_header_dropdown.c ****     "1980\n1979\n1978\n1977\n1976\n1975\n1974\n1973\n1972\n1971\n1970\n1969\n1968\n1967\n1966\n1965
  48:Drivers/lvgl/src/extra/widgets/calendar/lv_calendar_header_dropdown.c ****     "1960\n1959\n1958\n1957\n1956\n1955\n1954\n1953\n1952\n1951\n1950\n1949\n1948\n1947\n1946\n1945
  49:Drivers/lvgl/src/extra/widgets/calendar/lv_calendar_header_dropdown.c ****     "1940\n1939\n1938\n1937\n1936\n1935\n1934\n1933\n1932\n1931\n1930\n1929\n1928\n1927\n1926\n1925
  50:Drivers/lvgl/src/extra/widgets/calendar/lv_calendar_header_dropdown.c ****     "1920\n1919\n1918\n1917\n1916\n1915\n1914\n1913\n1912\n1911\n1910\n1909\n1908\n1907\n1906\n1905
  51:Drivers/lvgl/src/extra/widgets/calendar/lv_calendar_header_dropdown.c **** };
  52:Drivers/lvgl/src/extra/widgets/calendar/lv_calendar_header_dropdown.c **** 
  53:Drivers/lvgl/src/extra/widgets/calendar/lv_calendar_header_dropdown.c **** /**********************
  54:Drivers/lvgl/src/extra/widgets/calendar/lv_calendar_header_dropdown.c ****  *      MACROS
  55:Drivers/lvgl/src/extra/widgets/calendar/lv_calendar_header_dropdown.c ****  **********************/
  56:Drivers/lvgl/src/extra/widgets/calendar/lv_calendar_header_dropdown.c **** 
  57:Drivers/lvgl/src/extra/widgets/calendar/lv_calendar_header_dropdown.c **** /**********************
  58:Drivers/lvgl/src/extra/widgets/calendar/lv_calendar_header_dropdown.c ****  *   GLOBAL FUNCTIONS
  59:Drivers/lvgl/src/extra/widgets/calendar/lv_calendar_header_dropdown.c ****  **********************/
  60:Drivers/lvgl/src/extra/widgets/calendar/lv_calendar_header_dropdown.c **** 
  61:Drivers/lvgl/src/extra/widgets/calendar/lv_calendar_header_dropdown.c **** lv_obj_t * lv_calendar_header_dropdown_create(lv_obj_t * parent)
  62:Drivers/lvgl/src/extra/widgets/calendar/lv_calendar_header_dropdown.c **** {
  63:Drivers/lvgl/src/extra/widgets/calendar/lv_calendar_header_dropdown.c ****     lv_obj_t * obj = lv_obj_class_create_obj(&lv_calendar_header_dropdown_class, parent);
  64:Drivers/lvgl/src/extra/widgets/calendar/lv_calendar_header_dropdown.c ****     lv_obj_class_init_obj(obj);
  65:Drivers/lvgl/src/extra/widgets/calendar/lv_calendar_header_dropdown.c **** 
  66:Drivers/lvgl/src/extra/widgets/calendar/lv_calendar_header_dropdown.c ****     return obj;
  67:Drivers/lvgl/src/extra/widgets/calendar/lv_calendar_header_dropdown.c **** }
  68:Drivers/lvgl/src/extra/widgets/calendar/lv_calendar_header_dropdown.c **** 
  69:Drivers/lvgl/src/extra/widgets/calendar/lv_calendar_header_dropdown.c **** /**********************
  70:Drivers/lvgl/src/extra/widgets/calendar/lv_calendar_header_dropdown.c ****  *  STATIC FUNCTIONS
  71:Drivers/lvgl/src/extra/widgets/calendar/lv_calendar_header_dropdown.c ****  **********************/
  72:Drivers/lvgl/src/extra/widgets/calendar/lv_calendar_header_dropdown.c **** 
  73:Drivers/lvgl/src/extra/widgets/calendar/lv_calendar_header_dropdown.c **** static void my_constructor(const lv_obj_class_t * class_p, lv_obj_t * obj)
  74:Drivers/lvgl/src/extra/widgets/calendar/lv_calendar_header_dropdown.c **** {
  56              		.loc 1 74 1 view -0
  57              		.cfi_startproc
  58              		@ args = 0, pretend = 0, frame = 0
  59              		@ frame_needed = 0, uses_anonymous_args = 0
  75:Drivers/lvgl/src/extra/widgets/calendar/lv_calendar_header_dropdown.c ****     LV_TRACE_OBJ_CREATE("begin");
  60              		.loc 1 75 33 view .LVU1
  76:Drivers/lvgl/src/extra/widgets/calendar/lv_calendar_header_dropdown.c **** 
  77:Drivers/lvgl/src/extra/widgets/calendar/lv_calendar_header_dropdown.c ****     LV_UNUSED(class_p);
  61              		.loc 1 77 5 view .LVU2
  78:Drivers/lvgl/src/extra/widgets/calendar/lv_calendar_header_dropdown.c **** 
  79:Drivers/lvgl/src/extra/widgets/calendar/lv_calendar_header_dropdown.c ****     lv_obj_t * calendar = lv_obj_get_parent(obj);
  62              		.loc 1 79 5 view .LVU3
  74:Drivers/lvgl/src/extra/widgets/calendar/lv_calendar_header_dropdown.c ****     LV_TRACE_OBJ_CREATE("begin");
  63              		.loc 1 74 1 is_stmt 0 view .LVU4
  64 0000 70B5     		push	{r4, r5, r6, lr}
  65              		.cfi_def_cfa_offset 16
  66              		.cfi_offset 4, -16
  67              		.cfi_offset 5, -12
ARM GAS  /var/folders/lp/x54gwt890xv47sdkqj1k04q40000gn/T//ccHp6gFA.s 			page 5


  68              		.cfi_offset 6, -8
  69              		.cfi_offset 14, -4
  70              		.loc 1 79 27 view .LVU5
  71 0002 0846     		mov	r0, r1
  72              	.LVL1:
  74:Drivers/lvgl/src/extra/widgets/calendar/lv_calendar_header_dropdown.c ****     LV_TRACE_OBJ_CREATE("begin");
  73              		.loc 1 74 1 view .LVU6
  74 0004 0C46     		mov	r4, r1
  75              		.loc 1 79 27 view .LVU7
  76 0006 FFF7FEFF 		bl	lv_obj_get_parent
  77              	.LVL2:
  80:Drivers/lvgl/src/extra/widgets/calendar/lv_calendar_header_dropdown.c ****     lv_obj_move_to_index(obj, 0);
  78              		.loc 1 80 5 view .LVU8
  79 000a 0021     		movs	r1, #0
  79:Drivers/lvgl/src/extra/widgets/calendar/lv_calendar_header_dropdown.c ****     lv_obj_move_to_index(obj, 0);
  80              		.loc 1 79 27 view .LVU9
  81 000c 0646     		mov	r6, r0
  82              		.loc 1 80 5 view .LVU10
  83 000e 2046     		mov	r0, r4
  84              	.LVL3:
  85              		.loc 1 80 5 is_stmt 1 view .LVU11
  86 0010 FFF7FEFF 		bl	lv_obj_move_to_index
  87              	.LVL4:
  81:Drivers/lvgl/src/extra/widgets/calendar/lv_calendar_header_dropdown.c ****     lv_obj_set_flex_flow(obj, LV_FLEX_FLOW_ROW);
  88              		.loc 1 81 5 view .LVU12
  89 0014 0021     		movs	r1, #0
  90 0016 2046     		mov	r0, r4
  91 0018 FFF7FEFF 		bl	lv_obj_set_flex_flow
  92              	.LVL5:
  82:Drivers/lvgl/src/extra/widgets/calendar/lv_calendar_header_dropdown.c **** 
  83:Drivers/lvgl/src/extra/widgets/calendar/lv_calendar_header_dropdown.c ****     lv_obj_t * year_dd = lv_dropdown_create(obj);
  93              		.loc 1 83 5 view .LVU13
  94              		.loc 1 83 26 is_stmt 0 view .LVU14
  95 001c 2046     		mov	r0, r4
  96 001e FFF7FEFF 		bl	lv_dropdown_create
  97              	.LVL6:
  84:Drivers/lvgl/src/extra/widgets/calendar/lv_calendar_header_dropdown.c ****     lv_dropdown_set_options(year_dd, year_list);
  98              		.loc 1 84 5 view .LVU15
  99 0022 1649     		ldr	r1, .L4
  83:Drivers/lvgl/src/extra/widgets/calendar/lv_calendar_header_dropdown.c ****     lv_dropdown_set_options(year_dd, year_list);
 100              		.loc 1 83 26 view .LVU16
 101 0024 0546     		mov	r5, r0
 102              	.LVL7:
 103              		.loc 1 84 5 is_stmt 1 view .LVU17
 104 0026 FFF7FEFF 		bl	lv_dropdown_set_options
 105              	.LVL8:
  85:Drivers/lvgl/src/extra/widgets/calendar/lv_calendar_header_dropdown.c ****     lv_obj_add_event_cb(year_dd, year_event_cb, LV_EVENT_VALUE_CHANGED, calendar);
 106              		.loc 1 85 5 view .LVU18
 107 002a 3346     		mov	r3, r6
 108 002c 1C22     		movs	r2, #28
 109 002e 1449     		ldr	r1, .L4+4
 110 0030 2846     		mov	r0, r5
 111 0032 FFF7FEFF 		bl	lv_obj_add_event_cb
 112              	.LVL9:
  86:Drivers/lvgl/src/extra/widgets/calendar/lv_calendar_header_dropdown.c ****     lv_obj_set_flex_grow(year_dd, 1);
 113              		.loc 1 86 5 view .LVU19
 114 0036 0121     		movs	r1, #1
ARM GAS  /var/folders/lp/x54gwt890xv47sdkqj1k04q40000gn/T//ccHp6gFA.s 			page 6


 115 0038 2846     		mov	r0, r5
 116 003a FFF7FEFF 		bl	lv_obj_set_flex_grow
 117              	.LVL10:
  87:Drivers/lvgl/src/extra/widgets/calendar/lv_calendar_header_dropdown.c **** 
  88:Drivers/lvgl/src/extra/widgets/calendar/lv_calendar_header_dropdown.c ****     lv_obj_t * month_dd = lv_dropdown_create(obj);
 118              		.loc 1 88 5 view .LVU20
 119              		.loc 1 88 27 is_stmt 0 view .LVU21
 120 003e 2046     		mov	r0, r4
 121 0040 FFF7FEFF 		bl	lv_dropdown_create
 122              	.LVL11:
  89:Drivers/lvgl/src/extra/widgets/calendar/lv_calendar_header_dropdown.c ****     lv_dropdown_set_options(month_dd, month_list);
 123              		.loc 1 89 5 view .LVU22
 124 0044 0F49     		ldr	r1, .L4+8
  88:Drivers/lvgl/src/extra/widgets/calendar/lv_calendar_header_dropdown.c ****     lv_dropdown_set_options(month_dd, month_list);
 125              		.loc 1 88 27 view .LVU23
 126 0046 0546     		mov	r5, r0
 127              	.LVL12:
 128              		.loc 1 89 5 is_stmt 1 view .LVU24
 129 0048 FFF7FEFF 		bl	lv_dropdown_set_options
 130              	.LVL13:
  90:Drivers/lvgl/src/extra/widgets/calendar/lv_calendar_header_dropdown.c ****     lv_obj_add_event_cb(month_dd, month_event_cb, LV_EVENT_VALUE_CHANGED, calendar);
 131              		.loc 1 90 5 view .LVU25
 132 004c 3346     		mov	r3, r6
 133 004e 1C22     		movs	r2, #28
 134 0050 0D49     		ldr	r1, .L4+12
 135 0052 2846     		mov	r0, r5
 136 0054 FFF7FEFF 		bl	lv_obj_add_event_cb
 137              	.LVL14:
  91:Drivers/lvgl/src/extra/widgets/calendar/lv_calendar_header_dropdown.c ****     lv_obj_set_flex_grow(month_dd, 1);
 138              		.loc 1 91 5 view .LVU26
 139 0058 2846     		mov	r0, r5
 140 005a 0121     		movs	r1, #1
 141 005c FFF7FEFF 		bl	lv_obj_set_flex_grow
 142              	.LVL15:
  92:Drivers/lvgl/src/extra/widgets/calendar/lv_calendar_header_dropdown.c **** 
  93:Drivers/lvgl/src/extra/widgets/calendar/lv_calendar_header_dropdown.c ****     lv_obj_add_event_cb(obj, value_changed_event_cb, LV_EVENT_VALUE_CHANGED, NULL);
 143              		.loc 1 93 5 view .LVU27
 144 0060 0A49     		ldr	r1, .L4+16
 145 0062 1C22     		movs	r2, #28
 146 0064 2046     		mov	r0, r4
 147 0066 0023     		movs	r3, #0
 148 0068 FFF7FEFF 		bl	lv_obj_add_event_cb
 149              	.LVL16:
  94:Drivers/lvgl/src/extra/widgets/calendar/lv_calendar_header_dropdown.c ****     /*Refresh the drop downs*/
  95:Drivers/lvgl/src/extra/widgets/calendar/lv_calendar_header_dropdown.c ****     lv_event_send(obj, LV_EVENT_VALUE_CHANGED, NULL);
 150              		.loc 1 95 5 view .LVU28
 151 006c 2046     		mov	r0, r4
 152 006e 0022     		movs	r2, #0
  96:Drivers/lvgl/src/extra/widgets/calendar/lv_calendar_header_dropdown.c **** }
 153              		.loc 1 96 1 is_stmt 0 view .LVU29
 154 0070 BDE87040 		pop	{r4, r5, r6, lr}
 155              		.cfi_restore 14
 156              		.cfi_restore 6
 157              		.cfi_restore 5
 158              		.cfi_restore 4
 159              		.cfi_def_cfa_offset 0
 160              	.LVL17:
ARM GAS  /var/folders/lp/x54gwt890xv47sdkqj1k04q40000gn/T//ccHp6gFA.s 			page 7


  95:Drivers/lvgl/src/extra/widgets/calendar/lv_calendar_header_dropdown.c **** }
 161              		.loc 1 95 5 view .LVU30
 162 0074 1C21     		movs	r1, #28
 163 0076 FFF7FEBF 		b	lv_event_send
 164              	.LVL18:
 165              	.L5:
  95:Drivers/lvgl/src/extra/widgets/calendar/lv_calendar_header_dropdown.c **** }
 166              		.loc 1 95 5 view .LVU31
 167 007a 00BF     		.align	2
 168              	.L4:
 169 007c 00000000 		.word	.LC0
 170 0080 00000000 		.word	year_event_cb
 171 0084 68020000 		.word	.LC1
 172 0088 00000000 		.word	month_event_cb
 173 008c 00000000 		.word	value_changed_event_cb
 174              		.cfi_endproc
 175              	.LFE167:
 177              		.section	.text.value_changed_event_cb,"ax",%progbits
 178              		.align	1
 179              		.p2align 2,,3
 180              		.syntax unified
 181              		.thumb
 182              		.thumb_func
 184              	value_changed_event_cb:
 185              	.LVL19:
 186              	.LFB170:
  97:Drivers/lvgl/src/extra/widgets/calendar/lv_calendar_header_dropdown.c **** 
  98:Drivers/lvgl/src/extra/widgets/calendar/lv_calendar_header_dropdown.c **** static void month_event_cb(lv_event_t * e)
  99:Drivers/lvgl/src/extra/widgets/calendar/lv_calendar_header_dropdown.c **** {
 100:Drivers/lvgl/src/extra/widgets/calendar/lv_calendar_header_dropdown.c ****     lv_obj_t * dropdown = lv_event_get_target(e);
 101:Drivers/lvgl/src/extra/widgets/calendar/lv_calendar_header_dropdown.c ****     lv_obj_t * calendar = lv_event_get_user_data(e);
 102:Drivers/lvgl/src/extra/widgets/calendar/lv_calendar_header_dropdown.c **** 
 103:Drivers/lvgl/src/extra/widgets/calendar/lv_calendar_header_dropdown.c ****     uint16_t sel = lv_dropdown_get_selected(dropdown);
 104:Drivers/lvgl/src/extra/widgets/calendar/lv_calendar_header_dropdown.c **** 
 105:Drivers/lvgl/src/extra/widgets/calendar/lv_calendar_header_dropdown.c ****     const lv_calendar_date_t * d;
 106:Drivers/lvgl/src/extra/widgets/calendar/lv_calendar_header_dropdown.c ****     d = lv_calendar_get_showed_date(calendar);
 107:Drivers/lvgl/src/extra/widgets/calendar/lv_calendar_header_dropdown.c ****     lv_calendar_date_t newd = *d;
 108:Drivers/lvgl/src/extra/widgets/calendar/lv_calendar_header_dropdown.c ****     newd.month = sel + 1;
 109:Drivers/lvgl/src/extra/widgets/calendar/lv_calendar_header_dropdown.c **** 
 110:Drivers/lvgl/src/extra/widgets/calendar/lv_calendar_header_dropdown.c ****     lv_calendar_set_showed_date(calendar, newd.year, newd.month);
 111:Drivers/lvgl/src/extra/widgets/calendar/lv_calendar_header_dropdown.c **** }
 112:Drivers/lvgl/src/extra/widgets/calendar/lv_calendar_header_dropdown.c **** 
 113:Drivers/lvgl/src/extra/widgets/calendar/lv_calendar_header_dropdown.c **** static void year_event_cb(lv_event_t * e)
 114:Drivers/lvgl/src/extra/widgets/calendar/lv_calendar_header_dropdown.c **** {
 115:Drivers/lvgl/src/extra/widgets/calendar/lv_calendar_header_dropdown.c ****     lv_obj_t * dropdown = lv_event_get_target(e);
 116:Drivers/lvgl/src/extra/widgets/calendar/lv_calendar_header_dropdown.c ****     lv_obj_t * calendar = lv_event_get_user_data(e);
 117:Drivers/lvgl/src/extra/widgets/calendar/lv_calendar_header_dropdown.c **** 
 118:Drivers/lvgl/src/extra/widgets/calendar/lv_calendar_header_dropdown.c ****     uint16_t sel = lv_dropdown_get_selected(dropdown);
 119:Drivers/lvgl/src/extra/widgets/calendar/lv_calendar_header_dropdown.c **** 
 120:Drivers/lvgl/src/extra/widgets/calendar/lv_calendar_header_dropdown.c ****     const lv_calendar_date_t * d;
 121:Drivers/lvgl/src/extra/widgets/calendar/lv_calendar_header_dropdown.c ****     d = lv_calendar_get_showed_date(calendar);
 122:Drivers/lvgl/src/extra/widgets/calendar/lv_calendar_header_dropdown.c ****     lv_calendar_date_t newd = *d;
 123:Drivers/lvgl/src/extra/widgets/calendar/lv_calendar_header_dropdown.c ****     newd.year = 2023 - sel;
 124:Drivers/lvgl/src/extra/widgets/calendar/lv_calendar_header_dropdown.c **** 
 125:Drivers/lvgl/src/extra/widgets/calendar/lv_calendar_header_dropdown.c ****     lv_calendar_set_showed_date(calendar, newd.year, newd.month);
 126:Drivers/lvgl/src/extra/widgets/calendar/lv_calendar_header_dropdown.c **** }
 127:Drivers/lvgl/src/extra/widgets/calendar/lv_calendar_header_dropdown.c **** 
ARM GAS  /var/folders/lp/x54gwt890xv47sdkqj1k04q40000gn/T//ccHp6gFA.s 			page 8


 128:Drivers/lvgl/src/extra/widgets/calendar/lv_calendar_header_dropdown.c **** static void value_changed_event_cb(lv_event_t * e)
 129:Drivers/lvgl/src/extra/widgets/calendar/lv_calendar_header_dropdown.c **** {
 187              		.loc 1 129 1 is_stmt 1 view -0
 188              		.cfi_startproc
 189              		@ args = 0, pretend = 0, frame = 0
 190              		@ frame_needed = 0, uses_anonymous_args = 0
 130:Drivers/lvgl/src/extra/widgets/calendar/lv_calendar_header_dropdown.c ****     lv_obj_t * header = lv_event_get_target(e);
 191              		.loc 1 130 5 view .LVU33
 129:Drivers/lvgl/src/extra/widgets/calendar/lv_calendar_header_dropdown.c ****     lv_obj_t * header = lv_event_get_target(e);
 192              		.loc 1 129 1 is_stmt 0 view .LVU34
 193 0000 38B5     		push	{r3, r4, r5, lr}
 194              		.cfi_def_cfa_offset 16
 195              		.cfi_offset 3, -16
 196              		.cfi_offset 4, -12
 197              		.cfi_offset 5, -8
 198              		.cfi_offset 14, -4
 199              		.loc 1 130 25 view .LVU35
 200 0002 FFF7FEFF 		bl	lv_event_get_target
 201              	.LVL20:
 202              		.loc 1 130 25 view .LVU36
 203 0006 0546     		mov	r5, r0
 204              	.LVL21:
 131:Drivers/lvgl/src/extra/widgets/calendar/lv_calendar_header_dropdown.c ****     lv_obj_t * calendar = lv_obj_get_parent(header);
 205              		.loc 1 131 5 is_stmt 1 view .LVU37
 206              		.loc 1 131 27 is_stmt 0 view .LVU38
 207 0008 FFF7FEFF 		bl	lv_obj_get_parent
 208              	.LVL22:
 132:Drivers/lvgl/src/extra/widgets/calendar/lv_calendar_header_dropdown.c ****     const lv_calendar_date_t * cur_date = lv_calendar_get_showed_date(calendar);
 209              		.loc 1 132 5 is_stmt 1 view .LVU39
 210              		.loc 1 132 43 is_stmt 0 view .LVU40
 211 000c FFF7FEFF 		bl	lv_calendar_get_showed_date
 212              	.LVL23:
 213              		.loc 1 132 43 view .LVU41
 214 0010 0446     		mov	r4, r0
 133:Drivers/lvgl/src/extra/widgets/calendar/lv_calendar_header_dropdown.c **** 
 134:Drivers/lvgl/src/extra/widgets/calendar/lv_calendar_header_dropdown.c ****     lv_obj_t * year_dd = lv_obj_get_child(header, 0);
 215              		.loc 1 134 26 view .LVU42
 216 0012 0021     		movs	r1, #0
 217 0014 2846     		mov	r0, r5
 218              	.LVL24:
 219              		.loc 1 134 5 is_stmt 1 view .LVU43
 220              		.loc 1 134 26 is_stmt 0 view .LVU44
 221 0016 FFF7FEFF 		bl	lv_obj_get_child
 222              	.LVL25:
 135:Drivers/lvgl/src/extra/widgets/calendar/lv_calendar_header_dropdown.c ****     lv_dropdown_set_selected(year_dd, 2023 - cur_date->year);
 223              		.loc 1 135 5 is_stmt 1 view .LVU45
 224 001a 2188     		ldrh	r1, [r4]
 225 001c C1F5FC61 		rsb	r1, r1, #2016
 226 0020 0731     		adds	r1, r1, #7
 227 0022 89B2     		uxth	r1, r1
 228 0024 FFF7FEFF 		bl	lv_dropdown_set_selected
 229              	.LVL26:
 136:Drivers/lvgl/src/extra/widgets/calendar/lv_calendar_header_dropdown.c **** 
 137:Drivers/lvgl/src/extra/widgets/calendar/lv_calendar_header_dropdown.c ****     lv_obj_t * month_dd = lv_obj_get_child(header, 1);
 230              		.loc 1 137 5 view .LVU46
 231              		.loc 1 137 27 is_stmt 0 view .LVU47
 232 0028 0121     		movs	r1, #1
ARM GAS  /var/folders/lp/x54gwt890xv47sdkqj1k04q40000gn/T//ccHp6gFA.s 			page 9


 233 002a 2846     		mov	r0, r5
 234 002c FFF7FEFF 		bl	lv_obj_get_child
 235              	.LVL27:
 138:Drivers/lvgl/src/extra/widgets/calendar/lv_calendar_header_dropdown.c ****     lv_dropdown_set_selected(month_dd, cur_date->month - 1);
 236              		.loc 1 138 5 is_stmt 1 view .LVU48
 237              		.loc 1 138 48 is_stmt 0 view .LVU49
 238 0030 94F90210 		ldrsb	r1, [r4, #2]
 239              		.loc 1 138 5 view .LVU50
 240 0034 0139     		subs	r1, r1, #1
 139:Drivers/lvgl/src/extra/widgets/calendar/lv_calendar_header_dropdown.c **** }
 241              		.loc 1 139 1 view .LVU51
 242 0036 BDE83840 		pop	{r3, r4, r5, lr}
 243              		.cfi_restore 14
 244              		.cfi_restore 5
 245              		.cfi_restore 4
 246              		.cfi_restore 3
 247              		.cfi_def_cfa_offset 0
 248              	.LVL28:
 138:Drivers/lvgl/src/extra/widgets/calendar/lv_calendar_header_dropdown.c ****     lv_dropdown_set_selected(month_dd, cur_date->month - 1);
 249              		.loc 1 138 5 view .LVU52
 250 003a 89B2     		uxth	r1, r1
 251 003c FFF7FEBF 		b	lv_dropdown_set_selected
 252              	.LVL29:
 138:Drivers/lvgl/src/extra/widgets/calendar/lv_calendar_header_dropdown.c ****     lv_dropdown_set_selected(month_dd, cur_date->month - 1);
 253              		.loc 1 138 5 view .LVU53
 254              		.cfi_endproc
 255              	.LFE170:
 257              		.section	.text.month_event_cb,"ax",%progbits
 258              		.align	1
 259              		.p2align 2,,3
 260              		.syntax unified
 261              		.thumb
 262              		.thumb_func
 264              	month_event_cb:
 265              	.LVL30:
 266              	.LFB168:
  99:Drivers/lvgl/src/extra/widgets/calendar/lv_calendar_header_dropdown.c ****     lv_obj_t * dropdown = lv_event_get_target(e);
 267              		.loc 1 99 1 is_stmt 1 view -0
 268              		.cfi_startproc
 269              		@ args = 0, pretend = 0, frame = 0
 270              		@ frame_needed = 0, uses_anonymous_args = 0
 100:Drivers/lvgl/src/extra/widgets/calendar/lv_calendar_header_dropdown.c ****     lv_obj_t * calendar = lv_event_get_user_data(e);
 271              		.loc 1 100 5 view .LVU55
  99:Drivers/lvgl/src/extra/widgets/calendar/lv_calendar_header_dropdown.c ****     lv_obj_t * dropdown = lv_event_get_target(e);
 272              		.loc 1 99 1 is_stmt 0 view .LVU56
 273 0000 38B5     		push	{r3, r4, r5, lr}
 274              		.cfi_def_cfa_offset 16
 275              		.cfi_offset 3, -16
 276              		.cfi_offset 4, -12
 277              		.cfi_offset 5, -8
 278              		.cfi_offset 14, -4
  99:Drivers/lvgl/src/extra/widgets/calendar/lv_calendar_header_dropdown.c ****     lv_obj_t * dropdown = lv_event_get_target(e);
 279              		.loc 1 99 1 view .LVU57
 280 0002 0546     		mov	r5, r0
 100:Drivers/lvgl/src/extra/widgets/calendar/lv_calendar_header_dropdown.c ****     lv_obj_t * calendar = lv_event_get_user_data(e);
 281              		.loc 1 100 27 view .LVU58
 282 0004 FFF7FEFF 		bl	lv_event_get_target
ARM GAS  /var/folders/lp/x54gwt890xv47sdkqj1k04q40000gn/T//ccHp6gFA.s 			page 10


 283              	.LVL31:
 100:Drivers/lvgl/src/extra/widgets/calendar/lv_calendar_header_dropdown.c ****     lv_obj_t * calendar = lv_event_get_user_data(e);
 284              		.loc 1 100 27 view .LVU59
 285 0008 0446     		mov	r4, r0
 286              	.LVL32:
 101:Drivers/lvgl/src/extra/widgets/calendar/lv_calendar_header_dropdown.c **** 
 287              		.loc 1 101 5 is_stmt 1 view .LVU60
 101:Drivers/lvgl/src/extra/widgets/calendar/lv_calendar_header_dropdown.c **** 
 288              		.loc 1 101 27 is_stmt 0 view .LVU61
 289 000a 2846     		mov	r0, r5
 290              	.LVL33:
 101:Drivers/lvgl/src/extra/widgets/calendar/lv_calendar_header_dropdown.c **** 
 291              		.loc 1 101 27 view .LVU62
 292 000c FFF7FEFF 		bl	lv_event_get_user_data
 293              	.LVL34:
 294 0010 0546     		mov	r5, r0
 295              	.LVL35:
 103:Drivers/lvgl/src/extra/widgets/calendar/lv_calendar_header_dropdown.c **** 
 296              		.loc 1 103 5 is_stmt 1 view .LVU63
 103:Drivers/lvgl/src/extra/widgets/calendar/lv_calendar_header_dropdown.c **** 
 297              		.loc 1 103 20 is_stmt 0 view .LVU64
 298 0012 2046     		mov	r0, r4
 299              	.LVL36:
 103:Drivers/lvgl/src/extra/widgets/calendar/lv_calendar_header_dropdown.c **** 
 300              		.loc 1 103 20 view .LVU65
 301 0014 FFF7FEFF 		bl	lv_dropdown_get_selected
 302              	.LVL37:
 303 0018 0446     		mov	r4, r0
 304              	.LVL38:
 105:Drivers/lvgl/src/extra/widgets/calendar/lv_calendar_header_dropdown.c ****     d = lv_calendar_get_showed_date(calendar);
 305              		.loc 1 105 5 is_stmt 1 view .LVU66
 106:Drivers/lvgl/src/extra/widgets/calendar/lv_calendar_header_dropdown.c ****     lv_calendar_date_t newd = *d;
 306              		.loc 1 106 5 view .LVU67
 106:Drivers/lvgl/src/extra/widgets/calendar/lv_calendar_header_dropdown.c ****     lv_calendar_date_t newd = *d;
 307              		.loc 1 106 9 is_stmt 0 view .LVU68
 308 001a 2846     		mov	r0, r5
 309 001c FFF7FEFF 		bl	lv_calendar_get_showed_date
 310              	.LVL39:
 107:Drivers/lvgl/src/extra/widgets/calendar/lv_calendar_header_dropdown.c ****     newd.month = sel + 1;
 311              		.loc 1 107 5 is_stmt 1 view .LVU69
 108:Drivers/lvgl/src/extra/widgets/calendar/lv_calendar_header_dropdown.c **** 
 312              		.loc 1 108 5 view .LVU70
 110:Drivers/lvgl/src/extra/widgets/calendar/lv_calendar_header_dropdown.c **** }
 313              		.loc 1 110 5 view .LVU71
 108:Drivers/lvgl/src/extra/widgets/calendar/lv_calendar_header_dropdown.c **** 
 314              		.loc 1 108 22 is_stmt 0 view .LVU72
 315 0020 621C     		adds	r2, r4, #1
 110:Drivers/lvgl/src/extra/widgets/calendar/lv_calendar_header_dropdown.c **** }
 316              		.loc 1 110 5 view .LVU73
 317 0022 0188     		ldrh	r1, [r0]
 318 0024 52B2     		sxtb	r2, r2
 319 0026 2846     		mov	r0, r5
 320              	.LVL40:
 111:Drivers/lvgl/src/extra/widgets/calendar/lv_calendar_header_dropdown.c **** 
 321              		.loc 1 111 1 view .LVU74
 322 0028 BDE83840 		pop	{r3, r4, r5, lr}
 323              		.cfi_restore 14
ARM GAS  /var/folders/lp/x54gwt890xv47sdkqj1k04q40000gn/T//ccHp6gFA.s 			page 11


 324              		.cfi_restore 5
 325              		.cfi_restore 4
 326              		.cfi_restore 3
 327              		.cfi_def_cfa_offset 0
 328              	.LVL41:
 110:Drivers/lvgl/src/extra/widgets/calendar/lv_calendar_header_dropdown.c **** }
 329              		.loc 1 110 5 view .LVU75
 330 002c FFF7FEBF 		b	lv_calendar_set_showed_date
 331              	.LVL42:
 110:Drivers/lvgl/src/extra/widgets/calendar/lv_calendar_header_dropdown.c **** }
 332              		.loc 1 110 5 view .LVU76
 333              		.cfi_endproc
 334              	.LFE168:
 336              		.section	.text.year_event_cb,"ax",%progbits
 337              		.align	1
 338              		.p2align 2,,3
 339              		.syntax unified
 340              		.thumb
 341              		.thumb_func
 343              	year_event_cb:
 344              	.LVL43:
 345              	.LFB169:
 114:Drivers/lvgl/src/extra/widgets/calendar/lv_calendar_header_dropdown.c ****     lv_obj_t * dropdown = lv_event_get_target(e);
 346              		.loc 1 114 1 is_stmt 1 view -0
 347              		.cfi_startproc
 348              		@ args = 0, pretend = 0, frame = 0
 349              		@ frame_needed = 0, uses_anonymous_args = 0
 115:Drivers/lvgl/src/extra/widgets/calendar/lv_calendar_header_dropdown.c ****     lv_obj_t * calendar = lv_event_get_user_data(e);
 350              		.loc 1 115 5 view .LVU78
 114:Drivers/lvgl/src/extra/widgets/calendar/lv_calendar_header_dropdown.c ****     lv_obj_t * dropdown = lv_event_get_target(e);
 351              		.loc 1 114 1 is_stmt 0 view .LVU79
 352 0000 38B5     		push	{r3, r4, r5, lr}
 353              		.cfi_def_cfa_offset 16
 354              		.cfi_offset 3, -16
 355              		.cfi_offset 4, -12
 356              		.cfi_offset 5, -8
 357              		.cfi_offset 14, -4
 114:Drivers/lvgl/src/extra/widgets/calendar/lv_calendar_header_dropdown.c ****     lv_obj_t * dropdown = lv_event_get_target(e);
 358              		.loc 1 114 1 view .LVU80
 359 0002 0546     		mov	r5, r0
 115:Drivers/lvgl/src/extra/widgets/calendar/lv_calendar_header_dropdown.c ****     lv_obj_t * calendar = lv_event_get_user_data(e);
 360              		.loc 1 115 27 view .LVU81
 361 0004 FFF7FEFF 		bl	lv_event_get_target
 362              	.LVL44:
 115:Drivers/lvgl/src/extra/widgets/calendar/lv_calendar_header_dropdown.c ****     lv_obj_t * calendar = lv_event_get_user_data(e);
 363              		.loc 1 115 27 view .LVU82
 364 0008 0446     		mov	r4, r0
 365              	.LVL45:
 116:Drivers/lvgl/src/extra/widgets/calendar/lv_calendar_header_dropdown.c **** 
 366              		.loc 1 116 5 is_stmt 1 view .LVU83
 116:Drivers/lvgl/src/extra/widgets/calendar/lv_calendar_header_dropdown.c **** 
 367              		.loc 1 116 27 is_stmt 0 view .LVU84
 368 000a 2846     		mov	r0, r5
 369              	.LVL46:
 116:Drivers/lvgl/src/extra/widgets/calendar/lv_calendar_header_dropdown.c **** 
 370              		.loc 1 116 27 view .LVU85
 371 000c FFF7FEFF 		bl	lv_event_get_user_data
ARM GAS  /var/folders/lp/x54gwt890xv47sdkqj1k04q40000gn/T//ccHp6gFA.s 			page 12


 372              	.LVL47:
 373 0010 0546     		mov	r5, r0
 374              	.LVL48:
 118:Drivers/lvgl/src/extra/widgets/calendar/lv_calendar_header_dropdown.c **** 
 375              		.loc 1 118 5 is_stmt 1 view .LVU86
 118:Drivers/lvgl/src/extra/widgets/calendar/lv_calendar_header_dropdown.c **** 
 376              		.loc 1 118 20 is_stmt 0 view .LVU87
 377 0012 2046     		mov	r0, r4
 378              	.LVL49:
 118:Drivers/lvgl/src/extra/widgets/calendar/lv_calendar_header_dropdown.c **** 
 379              		.loc 1 118 20 view .LVU88
 380 0014 FFF7FEFF 		bl	lv_dropdown_get_selected
 381              	.LVL50:
 382 0018 0446     		mov	r4, r0
 383              	.LVL51:
 120:Drivers/lvgl/src/extra/widgets/calendar/lv_calendar_header_dropdown.c ****     d = lv_calendar_get_showed_date(calendar);
 384              		.loc 1 120 5 is_stmt 1 view .LVU89
 121:Drivers/lvgl/src/extra/widgets/calendar/lv_calendar_header_dropdown.c ****     lv_calendar_date_t newd = *d;
 385              		.loc 1 121 5 view .LVU90
 121:Drivers/lvgl/src/extra/widgets/calendar/lv_calendar_header_dropdown.c ****     lv_calendar_date_t newd = *d;
 386              		.loc 1 121 9 is_stmt 0 view .LVU91
 387 001a 2846     		mov	r0, r5
 388 001c FFF7FEFF 		bl	lv_calendar_get_showed_date
 389              	.LVL52:
 122:Drivers/lvgl/src/extra/widgets/calendar/lv_calendar_header_dropdown.c ****     newd.year = 2023 - sel;
 390              		.loc 1 122 5 is_stmt 1 view .LVU92
 123:Drivers/lvgl/src/extra/widgets/calendar/lv_calendar_header_dropdown.c **** 
 391              		.loc 1 123 5 view .LVU93
 125:Drivers/lvgl/src/extra/widgets/calendar/lv_calendar_header_dropdown.c **** }
 392              		.loc 1 125 5 view .LVU94
 123:Drivers/lvgl/src/extra/widgets/calendar/lv_calendar_header_dropdown.c **** 
 393              		.loc 1 123 22 is_stmt 0 view .LVU95
 394 0020 C4F5FC61 		rsb	r1, r4, #2016
 395 0024 0731     		adds	r1, r1, #7
 125:Drivers/lvgl/src/extra/widgets/calendar/lv_calendar_header_dropdown.c **** }
 396              		.loc 1 125 5 view .LVU96
 397 0026 90F90220 		ldrsb	r2, [r0, #2]
 398 002a 89B2     		uxth	r1, r1
 399 002c 2846     		mov	r0, r5
 400              	.LVL53:
 126:Drivers/lvgl/src/extra/widgets/calendar/lv_calendar_header_dropdown.c **** 
 401              		.loc 1 126 1 view .LVU97
 402 002e BDE83840 		pop	{r3, r4, r5, lr}
 403              		.cfi_restore 14
 404              		.cfi_restore 5
 405              		.cfi_restore 4
 406              		.cfi_restore 3
 407              		.cfi_def_cfa_offset 0
 408              	.LVL54:
 125:Drivers/lvgl/src/extra/widgets/calendar/lv_calendar_header_dropdown.c **** }
 409              		.loc 1 125 5 view .LVU98
 410 0032 FFF7FEBF 		b	lv_calendar_set_showed_date
 411              	.LVL55:
 125:Drivers/lvgl/src/extra/widgets/calendar/lv_calendar_header_dropdown.c **** }
 412              		.loc 1 125 5 view .LVU99
 413              		.cfi_endproc
 414              	.LFE169:
ARM GAS  /var/folders/lp/x54gwt890xv47sdkqj1k04q40000gn/T//ccHp6gFA.s 			page 13


 416 0036 00BF     		.section	.text.lv_calendar_header_dropdown_create,"ax",%progbits
 417              		.align	1
 418              		.p2align 2,,3
 419              		.global	lv_calendar_header_dropdown_create
 420              		.syntax unified
 421              		.thumb
 422              		.thumb_func
 424              	lv_calendar_header_dropdown_create:
 425              	.LVL56:
 426              	.LFB166:
  62:Drivers/lvgl/src/extra/widgets/calendar/lv_calendar_header_dropdown.c ****     lv_obj_t * obj = lv_obj_class_create_obj(&lv_calendar_header_dropdown_class, parent);
 427              		.loc 1 62 1 is_stmt 1 view -0
 428              		.cfi_startproc
 429              		@ args = 0, pretend = 0, frame = 0
 430              		@ frame_needed = 0, uses_anonymous_args = 0
  63:Drivers/lvgl/src/extra/widgets/calendar/lv_calendar_header_dropdown.c ****     lv_obj_class_init_obj(obj);
 431              		.loc 1 63 5 view .LVU101
  62:Drivers/lvgl/src/extra/widgets/calendar/lv_calendar_header_dropdown.c ****     lv_obj_t * obj = lv_obj_class_create_obj(&lv_calendar_header_dropdown_class, parent);
 432              		.loc 1 62 1 is_stmt 0 view .LVU102
 433 0000 10B5     		push	{r4, lr}
 434              		.cfi_def_cfa_offset 8
 435              		.cfi_offset 4, -8
 436              		.cfi_offset 14, -4
  62:Drivers/lvgl/src/extra/widgets/calendar/lv_calendar_header_dropdown.c ****     lv_obj_t * obj = lv_obj_class_create_obj(&lv_calendar_header_dropdown_class, parent);
 437              		.loc 1 62 1 view .LVU103
 438 0002 0146     		mov	r1, r0
  63:Drivers/lvgl/src/extra/widgets/calendar/lv_calendar_header_dropdown.c ****     lv_obj_class_init_obj(obj);
 439              		.loc 1 63 22 view .LVU104
 440 0004 0348     		ldr	r0, .L14
 441              	.LVL57:
  63:Drivers/lvgl/src/extra/widgets/calendar/lv_calendar_header_dropdown.c ****     lv_obj_class_init_obj(obj);
 442              		.loc 1 63 22 view .LVU105
 443 0006 FFF7FEFF 		bl	lv_obj_class_create_obj
 444              	.LVL58:
  63:Drivers/lvgl/src/extra/widgets/calendar/lv_calendar_header_dropdown.c ****     lv_obj_class_init_obj(obj);
 445              		.loc 1 63 22 view .LVU106
 446 000a 0446     		mov	r4, r0
 447              	.LVL59:
  64:Drivers/lvgl/src/extra/widgets/calendar/lv_calendar_header_dropdown.c **** 
 448              		.loc 1 64 5 is_stmt 1 view .LVU107
 449 000c FFF7FEFF 		bl	lv_obj_class_init_obj
 450              	.LVL60:
  66:Drivers/lvgl/src/extra/widgets/calendar/lv_calendar_header_dropdown.c **** }
 451              		.loc 1 66 5 view .LVU108
  67:Drivers/lvgl/src/extra/widgets/calendar/lv_calendar_header_dropdown.c **** 
 452              		.loc 1 67 1 is_stmt 0 view .LVU109
 453 0010 2046     		mov	r0, r4
 454 0012 10BD     		pop	{r4, pc}
 455              	.LVL61:
 456              	.L15:
  67:Drivers/lvgl/src/extra/widgets/calendar/lv_calendar_header_dropdown.c **** 
 457              		.loc 1 67 1 view .LVU110
 458              		.align	2
 459              	.L14:
 460 0014 00000000 		.word	lv_calendar_header_dropdown_class
 461              		.cfi_endproc
 462              	.LFE166:
ARM GAS  /var/folders/lp/x54gwt890xv47sdkqj1k04q40000gn/T//ccHp6gFA.s 			page 14


 464              		.global	lv_calendar_header_dropdown_class
 465              		.section	.rodata.lv_calendar_header_dropdown_class,"a"
 466              		.align	2
 469              	lv_calendar_header_dropdown_class:
 470 0000 00000000 		.word	lv_obj_class
 471 0004 00000000 		.word	my_constructor
 472 0008 00000000 		.space	12
 472      00000000 
 472      00000000 
 473 0014 6420     		.short	8292
 474 0016 D127     		.short	10193
 475 0018 00000000 		.space	4
 476              		.text
 477              	.Letext0:
 478              		.file 2 "/Users/jr/Library/Application Support/Code/User/globalStorage/bmd.stm32-for-vscode/@xpack
 479              		.file 3 "/Users/jr/Library/Application Support/Code/User/globalStorage/bmd.stm32-for-vscode/@xpack
 480              		.file 4 "Drivers/lvgl/src/extra/widgets/calendar/../../../core/../misc/../font/../misc/lv_area.h"
 481              		.file 5 "Drivers/lvgl/src/extra/widgets/calendar/../../../core/../misc/lv_types.h"
 482              		.file 6 "Drivers/lvgl/src/extra/widgets/calendar/../../../core/../misc/lv_color.h"
 483              		.file 7 "Drivers/lvgl/src/extra/widgets/calendar/../../../core/../misc/lv_style.h"
 484              		.file 8 "Drivers/lvgl/src/extra/widgets/calendar/../../../core/lv_obj.h"
 485              		.file 9 "Drivers/lvgl/src/extra/widgets/calendar/../../../core/../hal/../misc/lv_ll.h"
 486              		.file 10 "Drivers/lvgl/src/extra/widgets/calendar/../../../core/lv_group.h"
 487              		.file 11 "Drivers/lvgl/src/extra/widgets/calendar/../../../core/lv_obj_scroll.h"
 488              		.file 12 "Drivers/lvgl/src/extra/widgets/calendar/../../../core/lv_obj_style.h"
 489              		.file 13 "Drivers/lvgl/src/extra/widgets/calendar/../../../core/lv_obj_class.h"
 490              		.file 14 "Drivers/lvgl/src/extra/widgets/calendar/../../../core/lv_event.h"
 491              		.file 15 "Drivers/lvgl/src/extra/widgets/calendar/lv_calendar_header_dropdown.h"
 492              		.file 16 "Drivers/lvgl/src/extra/widgets/calendar/lv_calendar.h"
 493              		.file 17 "Drivers/lvgl/src/extra/widgets/calendar/../../layouts/flex/lv_flex.h"
 494              		.file 18 "Drivers/lvgl/src/extra/widgets/calendar/../../../widgets/lv_dropdown.h"
 495              		.file 19 "Drivers/lvgl/src/extra/widgets/calendar/../../../core/lv_obj_tree.h"
ARM GAS  /var/folders/lp/x54gwt890xv47sdkqj1k04q40000gn/T//ccHp6gFA.s 			page 15

