ARM GAS  /var/folders/lp/x54gwt890xv47sdkqj1k04q40000gn/T//ccueOQ8a.s 			page 1


   1              		.cpu cortex-m4
   2              		.arch armv7e-m
   3              		.fpu fpv4-sp-d16
   4              		.eabi_attribute 27, 1
   5              		.eabi_attribute 28, 1
   6              		.eabi_attribute 20, 1
   7              		.eabi_attribute 21, 1
   8              		.eabi_attribute 23, 3
   9              		.eabi_attribute 24, 1
  10              		.eabi_attribute 25, 1
  11              		.eabi_attribute 26, 1
  12              		.eabi_attribute 30, 2
  13              		.eabi_attribute 34, 1
  14              		.eabi_attribute 18, 4
  15              		.file	"lv_colorwheel.c"
  16              		.text
  17              	.Ltext0:
  18              		.cfi_sections	.debug_frame
  19              		.file 1 "Drivers/lvgl/src/extra/widgets/colorwheel/lv_colorwheel.c"
  20              		.section	.text.get_knob_area,"ax",%progbits
  21              		.align	1
  22              		.p2align 2,,3
  23              		.syntax unified
  24              		.thumb
  25              		.thumb_func
  27              	get_knob_area:
  28              	.LVL0:
  29              	.LFB217:
   1:Drivers/lvgl/src/extra/widgets/colorwheel/lv_colorwheel.c **** /**
   2:Drivers/lvgl/src/extra/widgets/colorwheel/lv_colorwheel.c ****  * @file lv_colorwheel.c
   3:Drivers/lvgl/src/extra/widgets/colorwheel/lv_colorwheel.c ****  *
   4:Drivers/lvgl/src/extra/widgets/colorwheel/lv_colorwheel.c ****  * Based on the work of @AloyseTech and @paulpv.
   5:Drivers/lvgl/src/extra/widgets/colorwheel/lv_colorwheel.c ****  */
   6:Drivers/lvgl/src/extra/widgets/colorwheel/lv_colorwheel.c **** 
   7:Drivers/lvgl/src/extra/widgets/colorwheel/lv_colorwheel.c **** /*********************
   8:Drivers/lvgl/src/extra/widgets/colorwheel/lv_colorwheel.c ****  *      INCLUDES
   9:Drivers/lvgl/src/extra/widgets/colorwheel/lv_colorwheel.c ****  *********************/
  10:Drivers/lvgl/src/extra/widgets/colorwheel/lv_colorwheel.c **** #include "lv_colorwheel.h"
  11:Drivers/lvgl/src/extra/widgets/colorwheel/lv_colorwheel.c **** #if LV_USE_COLORWHEEL
  12:Drivers/lvgl/src/extra/widgets/colorwheel/lv_colorwheel.c **** 
  13:Drivers/lvgl/src/extra/widgets/colorwheel/lv_colorwheel.c **** #include "../../../misc/lv_assert.h"
  14:Drivers/lvgl/src/extra/widgets/colorwheel/lv_colorwheel.c **** 
  15:Drivers/lvgl/src/extra/widgets/colorwheel/lv_colorwheel.c **** /*********************
  16:Drivers/lvgl/src/extra/widgets/colorwheel/lv_colorwheel.c ****  *      DEFINES
  17:Drivers/lvgl/src/extra/widgets/colorwheel/lv_colorwheel.c ****  *********************/
  18:Drivers/lvgl/src/extra/widgets/colorwheel/lv_colorwheel.c **** #define MY_CLASS &lv_colorwheel_class
  19:Drivers/lvgl/src/extra/widgets/colorwheel/lv_colorwheel.c **** 
  20:Drivers/lvgl/src/extra/widgets/colorwheel/lv_colorwheel.c **** #define LV_CPICKER_DEF_QF 3
  21:Drivers/lvgl/src/extra/widgets/colorwheel/lv_colorwheel.c **** 
  22:Drivers/lvgl/src/extra/widgets/colorwheel/lv_colorwheel.c **** /**
  23:Drivers/lvgl/src/extra/widgets/colorwheel/lv_colorwheel.c ****  * The OUTER_MASK_WIDTH define is required to assist with the placing of a mask over the outer ring
  24:Drivers/lvgl/src/extra/widgets/colorwheel/lv_colorwheel.c ****  * multicoloured radial lines are calculated for the outer ring of the widget their lengths are jit
  25:Drivers/lvgl/src/extra/widgets/colorwheel/lv_colorwheel.c ****  * integer based arithmetic. From tests the maximum delta was found to be 2 so the current value is
  26:Drivers/lvgl/src/extra/widgets/colorwheel/lv_colorwheel.c ****  * appropriate masking.
  27:Drivers/lvgl/src/extra/widgets/colorwheel/lv_colorwheel.c ****  */
  28:Drivers/lvgl/src/extra/widgets/colorwheel/lv_colorwheel.c **** #define OUTER_MASK_WIDTH 3
  29:Drivers/lvgl/src/extra/widgets/colorwheel/lv_colorwheel.c **** 
ARM GAS  /var/folders/lp/x54gwt890xv47sdkqj1k04q40000gn/T//ccueOQ8a.s 			page 2


  30:Drivers/lvgl/src/extra/widgets/colorwheel/lv_colorwheel.c **** /**********************
  31:Drivers/lvgl/src/extra/widgets/colorwheel/lv_colorwheel.c ****  *      TYPEDEFS
  32:Drivers/lvgl/src/extra/widgets/colorwheel/lv_colorwheel.c ****  **********************/
  33:Drivers/lvgl/src/extra/widgets/colorwheel/lv_colorwheel.c **** 
  34:Drivers/lvgl/src/extra/widgets/colorwheel/lv_colorwheel.c **** /**********************
  35:Drivers/lvgl/src/extra/widgets/colorwheel/lv_colorwheel.c ****  *  STATIC PROTOTYPES
  36:Drivers/lvgl/src/extra/widgets/colorwheel/lv_colorwheel.c ****  **********************/
  37:Drivers/lvgl/src/extra/widgets/colorwheel/lv_colorwheel.c **** static void lv_colorwheel_constructor(const lv_obj_class_t * class_p, lv_obj_t * obj);
  38:Drivers/lvgl/src/extra/widgets/colorwheel/lv_colorwheel.c **** static void lv_colorwheel_event(const lv_obj_class_t * class_p, lv_event_t * e);
  39:Drivers/lvgl/src/extra/widgets/colorwheel/lv_colorwheel.c **** 
  40:Drivers/lvgl/src/extra/widgets/colorwheel/lv_colorwheel.c **** static void draw_disc_grad(lv_event_t * e);
  41:Drivers/lvgl/src/extra/widgets/colorwheel/lv_colorwheel.c **** static void draw_knob(lv_event_t * e);
  42:Drivers/lvgl/src/extra/widgets/colorwheel/lv_colorwheel.c **** static void invalidate_knob(lv_obj_t * obj);
  43:Drivers/lvgl/src/extra/widgets/colorwheel/lv_colorwheel.c **** static lv_area_t get_knob_area(lv_obj_t * obj);
  44:Drivers/lvgl/src/extra/widgets/colorwheel/lv_colorwheel.c **** 
  45:Drivers/lvgl/src/extra/widgets/colorwheel/lv_colorwheel.c **** static void next_color_mode(lv_obj_t * obj);
  46:Drivers/lvgl/src/extra/widgets/colorwheel/lv_colorwheel.c **** static lv_res_t double_click_reset(lv_obj_t * obj);
  47:Drivers/lvgl/src/extra/widgets/colorwheel/lv_colorwheel.c **** static void refr_knob_pos(lv_obj_t * obj);
  48:Drivers/lvgl/src/extra/widgets/colorwheel/lv_colorwheel.c **** static lv_color_t angle_to_mode_color_fast(lv_obj_t * obj, uint16_t angle);
  49:Drivers/lvgl/src/extra/widgets/colorwheel/lv_colorwheel.c **** static uint16_t get_angle(lv_obj_t * obj);
  50:Drivers/lvgl/src/extra/widgets/colorwheel/lv_colorwheel.c **** 
  51:Drivers/lvgl/src/extra/widgets/colorwheel/lv_colorwheel.c **** /**********************
  52:Drivers/lvgl/src/extra/widgets/colorwheel/lv_colorwheel.c ****  *  STATIC VARIABLES
  53:Drivers/lvgl/src/extra/widgets/colorwheel/lv_colorwheel.c ****  **********************/
  54:Drivers/lvgl/src/extra/widgets/colorwheel/lv_colorwheel.c **** const lv_obj_class_t lv_colorwheel_class = {.instance_size = sizeof(lv_colorwheel_t), .base_class =
  55:Drivers/lvgl/src/extra/widgets/colorwheel/lv_colorwheel.c ****                                             .constructor_cb = lv_colorwheel_constructor,
  56:Drivers/lvgl/src/extra/widgets/colorwheel/lv_colorwheel.c ****                                             .event_cb = lv_colorwheel_event,
  57:Drivers/lvgl/src/extra/widgets/colorwheel/lv_colorwheel.c ****                                             .width_def = LV_DPI_DEF * 2,
  58:Drivers/lvgl/src/extra/widgets/colorwheel/lv_colorwheel.c ****                                             .height_def = LV_DPI_DEF * 2,
  59:Drivers/lvgl/src/extra/widgets/colorwheel/lv_colorwheel.c ****                                             .editable = LV_OBJ_CLASS_EDITABLE_TRUE,
  60:Drivers/lvgl/src/extra/widgets/colorwheel/lv_colorwheel.c ****                                            };
  61:Drivers/lvgl/src/extra/widgets/colorwheel/lv_colorwheel.c **** 
  62:Drivers/lvgl/src/extra/widgets/colorwheel/lv_colorwheel.c **** static bool create_knob_recolor;
  63:Drivers/lvgl/src/extra/widgets/colorwheel/lv_colorwheel.c **** 
  64:Drivers/lvgl/src/extra/widgets/colorwheel/lv_colorwheel.c **** /**********************
  65:Drivers/lvgl/src/extra/widgets/colorwheel/lv_colorwheel.c ****  *      MACROS
  66:Drivers/lvgl/src/extra/widgets/colorwheel/lv_colorwheel.c ****  **********************/
  67:Drivers/lvgl/src/extra/widgets/colorwheel/lv_colorwheel.c **** 
  68:Drivers/lvgl/src/extra/widgets/colorwheel/lv_colorwheel.c **** /**********************
  69:Drivers/lvgl/src/extra/widgets/colorwheel/lv_colorwheel.c ****  *   GLOBAL FUNCTIONS
  70:Drivers/lvgl/src/extra/widgets/colorwheel/lv_colorwheel.c ****  **********************/
  71:Drivers/lvgl/src/extra/widgets/colorwheel/lv_colorwheel.c **** 
  72:Drivers/lvgl/src/extra/widgets/colorwheel/lv_colorwheel.c **** /**
  73:Drivers/lvgl/src/extra/widgets/colorwheel/lv_colorwheel.c ****  * Create a color_picker object
  74:Drivers/lvgl/src/extra/widgets/colorwheel/lv_colorwheel.c ****  * @param parent pointer to an object, it will be the parent of the new color_picker
  75:Drivers/lvgl/src/extra/widgets/colorwheel/lv_colorwheel.c ****  * @return pointer to the created color_picker
  76:Drivers/lvgl/src/extra/widgets/colorwheel/lv_colorwheel.c ****  */
  77:Drivers/lvgl/src/extra/widgets/colorwheel/lv_colorwheel.c **** lv_obj_t * lv_colorwheel_create(lv_obj_t * parent, bool knob_recolor)
  78:Drivers/lvgl/src/extra/widgets/colorwheel/lv_colorwheel.c **** {
  79:Drivers/lvgl/src/extra/widgets/colorwheel/lv_colorwheel.c ****     LV_LOG_INFO("begin");
  80:Drivers/lvgl/src/extra/widgets/colorwheel/lv_colorwheel.c ****     create_knob_recolor = knob_recolor;
  81:Drivers/lvgl/src/extra/widgets/colorwheel/lv_colorwheel.c **** 
  82:Drivers/lvgl/src/extra/widgets/colorwheel/lv_colorwheel.c ****     lv_obj_t * obj = lv_obj_class_create_obj(MY_CLASS, parent);
  83:Drivers/lvgl/src/extra/widgets/colorwheel/lv_colorwheel.c ****     lv_obj_class_init_obj(obj);
  84:Drivers/lvgl/src/extra/widgets/colorwheel/lv_colorwheel.c ****     return obj;
  85:Drivers/lvgl/src/extra/widgets/colorwheel/lv_colorwheel.c **** }
  86:Drivers/lvgl/src/extra/widgets/colorwheel/lv_colorwheel.c **** 
ARM GAS  /var/folders/lp/x54gwt890xv47sdkqj1k04q40000gn/T//ccueOQ8a.s 			page 3


  87:Drivers/lvgl/src/extra/widgets/colorwheel/lv_colorwheel.c **** /*=====================
  88:Drivers/lvgl/src/extra/widgets/colorwheel/lv_colorwheel.c ****  * Setter functions
  89:Drivers/lvgl/src/extra/widgets/colorwheel/lv_colorwheel.c ****  *====================*/
  90:Drivers/lvgl/src/extra/widgets/colorwheel/lv_colorwheel.c **** 
  91:Drivers/lvgl/src/extra/widgets/colorwheel/lv_colorwheel.c **** /**
  92:Drivers/lvgl/src/extra/widgets/colorwheel/lv_colorwheel.c ****  * Set the current hsv of a color wheel.
  93:Drivers/lvgl/src/extra/widgets/colorwheel/lv_colorwheel.c ****  * @param colorwheel pointer to color wheel object
  94:Drivers/lvgl/src/extra/widgets/colorwheel/lv_colorwheel.c ****  * @param color current selected hsv
  95:Drivers/lvgl/src/extra/widgets/colorwheel/lv_colorwheel.c ****  * @return true if changed, otherwise false
  96:Drivers/lvgl/src/extra/widgets/colorwheel/lv_colorwheel.c ****  */
  97:Drivers/lvgl/src/extra/widgets/colorwheel/lv_colorwheel.c **** bool lv_colorwheel_set_hsv(lv_obj_t * obj, lv_color_hsv_t hsv)
  98:Drivers/lvgl/src/extra/widgets/colorwheel/lv_colorwheel.c **** {
  99:Drivers/lvgl/src/extra/widgets/colorwheel/lv_colorwheel.c ****     if(hsv.h > 360) hsv.h %= 360;
 100:Drivers/lvgl/src/extra/widgets/colorwheel/lv_colorwheel.c ****     if(hsv.s > 100) hsv.s = 100;
 101:Drivers/lvgl/src/extra/widgets/colorwheel/lv_colorwheel.c ****     if(hsv.v > 100) hsv.v = 100;
 102:Drivers/lvgl/src/extra/widgets/colorwheel/lv_colorwheel.c **** 
 103:Drivers/lvgl/src/extra/widgets/colorwheel/lv_colorwheel.c ****     LV_ASSERT_OBJ(obj, MY_CLASS);
 104:Drivers/lvgl/src/extra/widgets/colorwheel/lv_colorwheel.c ****     lv_colorwheel_t * colorwheel = (lv_colorwheel_t *)obj;
 105:Drivers/lvgl/src/extra/widgets/colorwheel/lv_colorwheel.c **** 
 106:Drivers/lvgl/src/extra/widgets/colorwheel/lv_colorwheel.c ****     if(colorwheel->hsv.h == hsv.h && colorwheel->hsv.s == hsv.s && colorwheel->hsv.v == hsv.v) retu
 107:Drivers/lvgl/src/extra/widgets/colorwheel/lv_colorwheel.c **** 
 108:Drivers/lvgl/src/extra/widgets/colorwheel/lv_colorwheel.c ****     colorwheel->hsv = hsv;
 109:Drivers/lvgl/src/extra/widgets/colorwheel/lv_colorwheel.c **** 
 110:Drivers/lvgl/src/extra/widgets/colorwheel/lv_colorwheel.c ****     refr_knob_pos(obj);
 111:Drivers/lvgl/src/extra/widgets/colorwheel/lv_colorwheel.c **** 
 112:Drivers/lvgl/src/extra/widgets/colorwheel/lv_colorwheel.c ****     lv_obj_invalidate(obj);
 113:Drivers/lvgl/src/extra/widgets/colorwheel/lv_colorwheel.c **** 
 114:Drivers/lvgl/src/extra/widgets/colorwheel/lv_colorwheel.c ****     return true;
 115:Drivers/lvgl/src/extra/widgets/colorwheel/lv_colorwheel.c **** }
 116:Drivers/lvgl/src/extra/widgets/colorwheel/lv_colorwheel.c **** 
 117:Drivers/lvgl/src/extra/widgets/colorwheel/lv_colorwheel.c **** /**
 118:Drivers/lvgl/src/extra/widgets/colorwheel/lv_colorwheel.c ****  * Set the current color of a color wheel.
 119:Drivers/lvgl/src/extra/widgets/colorwheel/lv_colorwheel.c ****  * @param colorwheel pointer to color wheel object
 120:Drivers/lvgl/src/extra/widgets/colorwheel/lv_colorwheel.c ****  * @param color current selected color
 121:Drivers/lvgl/src/extra/widgets/colorwheel/lv_colorwheel.c ****  * @return true if changed, otherwise false
 122:Drivers/lvgl/src/extra/widgets/colorwheel/lv_colorwheel.c ****  */
 123:Drivers/lvgl/src/extra/widgets/colorwheel/lv_colorwheel.c **** bool lv_colorwheel_set_rgb(lv_obj_t * obj, lv_color_t color)
 124:Drivers/lvgl/src/extra/widgets/colorwheel/lv_colorwheel.c **** {
 125:Drivers/lvgl/src/extra/widgets/colorwheel/lv_colorwheel.c ****     lv_color32_t c32;
 126:Drivers/lvgl/src/extra/widgets/colorwheel/lv_colorwheel.c ****     c32.full = lv_color_to32(color);
 127:Drivers/lvgl/src/extra/widgets/colorwheel/lv_colorwheel.c **** 
 128:Drivers/lvgl/src/extra/widgets/colorwheel/lv_colorwheel.c ****     return lv_colorwheel_set_hsv(obj,  lv_color_rgb_to_hsv(c32.ch.red, c32.ch.green, c32.ch.blue));
 129:Drivers/lvgl/src/extra/widgets/colorwheel/lv_colorwheel.c **** }
 130:Drivers/lvgl/src/extra/widgets/colorwheel/lv_colorwheel.c **** 
 131:Drivers/lvgl/src/extra/widgets/colorwheel/lv_colorwheel.c **** /**
 132:Drivers/lvgl/src/extra/widgets/colorwheel/lv_colorwheel.c ****  * Set the current color mode.
 133:Drivers/lvgl/src/extra/widgets/colorwheel/lv_colorwheel.c ****  * @param colorwheel pointer to color wheel object
 134:Drivers/lvgl/src/extra/widgets/colorwheel/lv_colorwheel.c ****  * @param mode color mode (hue/sat/val)
 135:Drivers/lvgl/src/extra/widgets/colorwheel/lv_colorwheel.c ****  */
 136:Drivers/lvgl/src/extra/widgets/colorwheel/lv_colorwheel.c **** void lv_colorwheel_set_mode(lv_obj_t * obj, lv_colorwheel_mode_t mode)
 137:Drivers/lvgl/src/extra/widgets/colorwheel/lv_colorwheel.c **** {
 138:Drivers/lvgl/src/extra/widgets/colorwheel/lv_colorwheel.c ****     LV_ASSERT_OBJ(obj, MY_CLASS);
 139:Drivers/lvgl/src/extra/widgets/colorwheel/lv_colorwheel.c ****     lv_colorwheel_t * colorwheel = (lv_colorwheel_t *)obj;
 140:Drivers/lvgl/src/extra/widgets/colorwheel/lv_colorwheel.c **** 
 141:Drivers/lvgl/src/extra/widgets/colorwheel/lv_colorwheel.c ****     colorwheel->mode = mode;
 142:Drivers/lvgl/src/extra/widgets/colorwheel/lv_colorwheel.c ****     refr_knob_pos(obj);
 143:Drivers/lvgl/src/extra/widgets/colorwheel/lv_colorwheel.c ****     lv_obj_invalidate(obj);
ARM GAS  /var/folders/lp/x54gwt890xv47sdkqj1k04q40000gn/T//ccueOQ8a.s 			page 4


 144:Drivers/lvgl/src/extra/widgets/colorwheel/lv_colorwheel.c **** }
 145:Drivers/lvgl/src/extra/widgets/colorwheel/lv_colorwheel.c **** 
 146:Drivers/lvgl/src/extra/widgets/colorwheel/lv_colorwheel.c **** /**
 147:Drivers/lvgl/src/extra/widgets/colorwheel/lv_colorwheel.c ****  * Set if the color mode is changed on long press on center
 148:Drivers/lvgl/src/extra/widgets/colorwheel/lv_colorwheel.c ****  * @param colorwheel pointer to color wheel object
 149:Drivers/lvgl/src/extra/widgets/colorwheel/lv_colorwheel.c ****  * @param fixed color mode cannot be changed on long press
 150:Drivers/lvgl/src/extra/widgets/colorwheel/lv_colorwheel.c ****  */
 151:Drivers/lvgl/src/extra/widgets/colorwheel/lv_colorwheel.c **** void lv_colorwheel_set_mode_fixed(lv_obj_t * obj, bool fixed)
 152:Drivers/lvgl/src/extra/widgets/colorwheel/lv_colorwheel.c **** {
 153:Drivers/lvgl/src/extra/widgets/colorwheel/lv_colorwheel.c ****     LV_ASSERT_OBJ(obj, MY_CLASS);
 154:Drivers/lvgl/src/extra/widgets/colorwheel/lv_colorwheel.c ****     lv_colorwheel_t * colorwheel = (lv_colorwheel_t *)obj;
 155:Drivers/lvgl/src/extra/widgets/colorwheel/lv_colorwheel.c **** 
 156:Drivers/lvgl/src/extra/widgets/colorwheel/lv_colorwheel.c ****     colorwheel->mode_fixed = fixed;
 157:Drivers/lvgl/src/extra/widgets/colorwheel/lv_colorwheel.c **** }
 158:Drivers/lvgl/src/extra/widgets/colorwheel/lv_colorwheel.c **** 
 159:Drivers/lvgl/src/extra/widgets/colorwheel/lv_colorwheel.c **** /*=====================
 160:Drivers/lvgl/src/extra/widgets/colorwheel/lv_colorwheel.c ****  * Getter functions
 161:Drivers/lvgl/src/extra/widgets/colorwheel/lv_colorwheel.c ****  *====================*/
 162:Drivers/lvgl/src/extra/widgets/colorwheel/lv_colorwheel.c **** 
 163:Drivers/lvgl/src/extra/widgets/colorwheel/lv_colorwheel.c **** 
 164:Drivers/lvgl/src/extra/widgets/colorwheel/lv_colorwheel.c **** /**
 165:Drivers/lvgl/src/extra/widgets/colorwheel/lv_colorwheel.c ****  * Get the current selected hsv of a color wheel.
 166:Drivers/lvgl/src/extra/widgets/colorwheel/lv_colorwheel.c ****  * @param colorwheel pointer to color wheel object
 167:Drivers/lvgl/src/extra/widgets/colorwheel/lv_colorwheel.c ****  * @return current selected hsv
 168:Drivers/lvgl/src/extra/widgets/colorwheel/lv_colorwheel.c ****  */
 169:Drivers/lvgl/src/extra/widgets/colorwheel/lv_colorwheel.c **** lv_color_hsv_t lv_colorwheel_get_hsv(lv_obj_t * obj)
 170:Drivers/lvgl/src/extra/widgets/colorwheel/lv_colorwheel.c **** {
 171:Drivers/lvgl/src/extra/widgets/colorwheel/lv_colorwheel.c ****     LV_ASSERT_OBJ(obj, MY_CLASS);
 172:Drivers/lvgl/src/extra/widgets/colorwheel/lv_colorwheel.c ****     lv_colorwheel_t * colorwheel = (lv_colorwheel_t *)obj;
 173:Drivers/lvgl/src/extra/widgets/colorwheel/lv_colorwheel.c **** 
 174:Drivers/lvgl/src/extra/widgets/colorwheel/lv_colorwheel.c ****     return colorwheel->hsv;
 175:Drivers/lvgl/src/extra/widgets/colorwheel/lv_colorwheel.c **** }
 176:Drivers/lvgl/src/extra/widgets/colorwheel/lv_colorwheel.c **** 
 177:Drivers/lvgl/src/extra/widgets/colorwheel/lv_colorwheel.c **** /**
 178:Drivers/lvgl/src/extra/widgets/colorwheel/lv_colorwheel.c ****  * Get the current selected color of a color wheel.
 179:Drivers/lvgl/src/extra/widgets/colorwheel/lv_colorwheel.c ****  * @param colorwheel pointer to color wheel object
 180:Drivers/lvgl/src/extra/widgets/colorwheel/lv_colorwheel.c ****  * @return color current selected color
 181:Drivers/lvgl/src/extra/widgets/colorwheel/lv_colorwheel.c ****  */
 182:Drivers/lvgl/src/extra/widgets/colorwheel/lv_colorwheel.c **** lv_color_t lv_colorwheel_get_rgb(lv_obj_t * obj)
 183:Drivers/lvgl/src/extra/widgets/colorwheel/lv_colorwheel.c **** {
 184:Drivers/lvgl/src/extra/widgets/colorwheel/lv_colorwheel.c ****     LV_ASSERT_OBJ(obj, MY_CLASS);
 185:Drivers/lvgl/src/extra/widgets/colorwheel/lv_colorwheel.c ****     lv_colorwheel_t * colorwheel = (lv_colorwheel_t *)obj;
 186:Drivers/lvgl/src/extra/widgets/colorwheel/lv_colorwheel.c **** 
 187:Drivers/lvgl/src/extra/widgets/colorwheel/lv_colorwheel.c ****     return lv_color_hsv_to_rgb(colorwheel->hsv.h, colorwheel->hsv.s, colorwheel->hsv.v);
 188:Drivers/lvgl/src/extra/widgets/colorwheel/lv_colorwheel.c **** }
 189:Drivers/lvgl/src/extra/widgets/colorwheel/lv_colorwheel.c **** 
 190:Drivers/lvgl/src/extra/widgets/colorwheel/lv_colorwheel.c **** /**
 191:Drivers/lvgl/src/extra/widgets/colorwheel/lv_colorwheel.c ****  * Get the current color mode.
 192:Drivers/lvgl/src/extra/widgets/colorwheel/lv_colorwheel.c ****  * @param colorwheel pointer to color wheel object
 193:Drivers/lvgl/src/extra/widgets/colorwheel/lv_colorwheel.c ****  * @return color mode (hue/sat/val)
 194:Drivers/lvgl/src/extra/widgets/colorwheel/lv_colorwheel.c ****  */
 195:Drivers/lvgl/src/extra/widgets/colorwheel/lv_colorwheel.c **** lv_colorwheel_mode_t lv_colorwheel_get_color_mode(lv_obj_t * obj)
 196:Drivers/lvgl/src/extra/widgets/colorwheel/lv_colorwheel.c **** {
 197:Drivers/lvgl/src/extra/widgets/colorwheel/lv_colorwheel.c ****     LV_ASSERT_OBJ(obj, MY_CLASS);
 198:Drivers/lvgl/src/extra/widgets/colorwheel/lv_colorwheel.c ****     lv_colorwheel_t * colorwheel = (lv_colorwheel_t *)obj;
 199:Drivers/lvgl/src/extra/widgets/colorwheel/lv_colorwheel.c **** 
 200:Drivers/lvgl/src/extra/widgets/colorwheel/lv_colorwheel.c ****     return colorwheel->mode;
ARM GAS  /var/folders/lp/x54gwt890xv47sdkqj1k04q40000gn/T//ccueOQ8a.s 			page 5


 201:Drivers/lvgl/src/extra/widgets/colorwheel/lv_colorwheel.c **** }
 202:Drivers/lvgl/src/extra/widgets/colorwheel/lv_colorwheel.c **** 
 203:Drivers/lvgl/src/extra/widgets/colorwheel/lv_colorwheel.c **** /**
 204:Drivers/lvgl/src/extra/widgets/colorwheel/lv_colorwheel.c ****  * Get if the color mode is changed on long press on center
 205:Drivers/lvgl/src/extra/widgets/colorwheel/lv_colorwheel.c ****  * @param colorwheel pointer to color wheel object
 206:Drivers/lvgl/src/extra/widgets/colorwheel/lv_colorwheel.c ****  * @return mode cannot be changed on long press
 207:Drivers/lvgl/src/extra/widgets/colorwheel/lv_colorwheel.c ****  */
 208:Drivers/lvgl/src/extra/widgets/colorwheel/lv_colorwheel.c **** bool lv_colorwheel_get_color_mode_fixed(lv_obj_t * obj)
 209:Drivers/lvgl/src/extra/widgets/colorwheel/lv_colorwheel.c **** {
 210:Drivers/lvgl/src/extra/widgets/colorwheel/lv_colorwheel.c ****     LV_ASSERT_OBJ(obj, MY_CLASS);
 211:Drivers/lvgl/src/extra/widgets/colorwheel/lv_colorwheel.c ****     lv_colorwheel_t * colorwheel = (lv_colorwheel_t *)obj;
 212:Drivers/lvgl/src/extra/widgets/colorwheel/lv_colorwheel.c **** 
 213:Drivers/lvgl/src/extra/widgets/colorwheel/lv_colorwheel.c ****     return colorwheel->mode_fixed;
 214:Drivers/lvgl/src/extra/widgets/colorwheel/lv_colorwheel.c **** }
 215:Drivers/lvgl/src/extra/widgets/colorwheel/lv_colorwheel.c **** 
 216:Drivers/lvgl/src/extra/widgets/colorwheel/lv_colorwheel.c **** /*=====================
 217:Drivers/lvgl/src/extra/widgets/colorwheel/lv_colorwheel.c ****  * Other functions
 218:Drivers/lvgl/src/extra/widgets/colorwheel/lv_colorwheel.c ****  *====================*/
 219:Drivers/lvgl/src/extra/widgets/colorwheel/lv_colorwheel.c **** 
 220:Drivers/lvgl/src/extra/widgets/colorwheel/lv_colorwheel.c **** /**********************
 221:Drivers/lvgl/src/extra/widgets/colorwheel/lv_colorwheel.c ****  *   STATIC FUNCTIONS
 222:Drivers/lvgl/src/extra/widgets/colorwheel/lv_colorwheel.c ****  **********************/
 223:Drivers/lvgl/src/extra/widgets/colorwheel/lv_colorwheel.c **** 
 224:Drivers/lvgl/src/extra/widgets/colorwheel/lv_colorwheel.c **** static void lv_colorwheel_constructor(const lv_obj_class_t * class_p, lv_obj_t * obj)
 225:Drivers/lvgl/src/extra/widgets/colorwheel/lv_colorwheel.c **** {
 226:Drivers/lvgl/src/extra/widgets/colorwheel/lv_colorwheel.c ****     LV_UNUSED(class_p);
 227:Drivers/lvgl/src/extra/widgets/colorwheel/lv_colorwheel.c ****     lv_colorwheel_t * colorwheel = (lv_colorwheel_t *)obj;
 228:Drivers/lvgl/src/extra/widgets/colorwheel/lv_colorwheel.c ****     colorwheel->hsv.h = 0;
 229:Drivers/lvgl/src/extra/widgets/colorwheel/lv_colorwheel.c ****     colorwheel->hsv.s = 100;
 230:Drivers/lvgl/src/extra/widgets/colorwheel/lv_colorwheel.c ****     colorwheel->hsv.v = 100;
 231:Drivers/lvgl/src/extra/widgets/colorwheel/lv_colorwheel.c ****     colorwheel->mode = LV_COLORWHEEL_MODE_HUE;
 232:Drivers/lvgl/src/extra/widgets/colorwheel/lv_colorwheel.c ****     colorwheel->mode_fixed = 0;
 233:Drivers/lvgl/src/extra/widgets/colorwheel/lv_colorwheel.c ****     colorwheel->last_click_time = 0;
 234:Drivers/lvgl/src/extra/widgets/colorwheel/lv_colorwheel.c ****     colorwheel->last_change_time = 0;
 235:Drivers/lvgl/src/extra/widgets/colorwheel/lv_colorwheel.c ****     colorwheel->knob.recolor = create_knob_recolor;
 236:Drivers/lvgl/src/extra/widgets/colorwheel/lv_colorwheel.c **** 
 237:Drivers/lvgl/src/extra/widgets/colorwheel/lv_colorwheel.c ****     lv_obj_add_flag(obj, LV_OBJ_FLAG_ADV_HITTEST);
 238:Drivers/lvgl/src/extra/widgets/colorwheel/lv_colorwheel.c ****     lv_obj_clear_flag(obj, LV_OBJ_FLAG_SCROLL_CHAIN);
 239:Drivers/lvgl/src/extra/widgets/colorwheel/lv_colorwheel.c ****     refr_knob_pos(obj);
 240:Drivers/lvgl/src/extra/widgets/colorwheel/lv_colorwheel.c **** }
 241:Drivers/lvgl/src/extra/widgets/colorwheel/lv_colorwheel.c **** 
 242:Drivers/lvgl/src/extra/widgets/colorwheel/lv_colorwheel.c **** static void draw_disc_grad(lv_event_t * e)
 243:Drivers/lvgl/src/extra/widgets/colorwheel/lv_colorwheel.c **** {
 244:Drivers/lvgl/src/extra/widgets/colorwheel/lv_colorwheel.c ****     lv_obj_t * obj = lv_event_get_target(e);
 245:Drivers/lvgl/src/extra/widgets/colorwheel/lv_colorwheel.c ****     lv_draw_ctx_t * draw_ctx = lv_event_get_draw_ctx(e);
 246:Drivers/lvgl/src/extra/widgets/colorwheel/lv_colorwheel.c ****     lv_coord_t w = lv_obj_get_width(obj);
 247:Drivers/lvgl/src/extra/widgets/colorwheel/lv_colorwheel.c ****     lv_coord_t h = lv_obj_get_height(obj);
 248:Drivers/lvgl/src/extra/widgets/colorwheel/lv_colorwheel.c ****     lv_coord_t cx = obj->coords.x1 + w / 2;
 249:Drivers/lvgl/src/extra/widgets/colorwheel/lv_colorwheel.c ****     lv_coord_t cy = obj->coords.y1 + h / 2;
 250:Drivers/lvgl/src/extra/widgets/colorwheel/lv_colorwheel.c ****     lv_coord_t r = w / 2;
 251:Drivers/lvgl/src/extra/widgets/colorwheel/lv_colorwheel.c **** 
 252:Drivers/lvgl/src/extra/widgets/colorwheel/lv_colorwheel.c ****     lv_draw_line_dsc_t line_dsc;
 253:Drivers/lvgl/src/extra/widgets/colorwheel/lv_colorwheel.c ****     lv_draw_line_dsc_init(&line_dsc);
 254:Drivers/lvgl/src/extra/widgets/colorwheel/lv_colorwheel.c ****     lv_obj_init_draw_line_dsc(obj, LV_PART_MAIN, &line_dsc);
 255:Drivers/lvgl/src/extra/widgets/colorwheel/lv_colorwheel.c **** 
 256:Drivers/lvgl/src/extra/widgets/colorwheel/lv_colorwheel.c ****     line_dsc.width = (r * 628 / (256 / LV_CPICKER_DEF_QF)) / 100;
 257:Drivers/lvgl/src/extra/widgets/colorwheel/lv_colorwheel.c ****     line_dsc.width += 2;
ARM GAS  /var/folders/lp/x54gwt890xv47sdkqj1k04q40000gn/T//ccueOQ8a.s 			page 6


 258:Drivers/lvgl/src/extra/widgets/colorwheel/lv_colorwheel.c ****     uint16_t i;
 259:Drivers/lvgl/src/extra/widgets/colorwheel/lv_colorwheel.c ****     uint32_t a = 0;
 260:Drivers/lvgl/src/extra/widgets/colorwheel/lv_colorwheel.c ****     lv_coord_t cir_w = lv_obj_get_style_arc_width(obj, LV_PART_MAIN);
 261:Drivers/lvgl/src/extra/widgets/colorwheel/lv_colorwheel.c **** 
 262:Drivers/lvgl/src/extra/widgets/colorwheel/lv_colorwheel.c **** #if LV_DRAW_COMPLEX
 263:Drivers/lvgl/src/extra/widgets/colorwheel/lv_colorwheel.c ****     /*Mask outer and inner ring of widget to tidy up ragged edges of lines while drawing outer ring
 264:Drivers/lvgl/src/extra/widgets/colorwheel/lv_colorwheel.c ****     lv_draw_mask_radius_param_t mask_out_param;
 265:Drivers/lvgl/src/extra/widgets/colorwheel/lv_colorwheel.c ****     lv_draw_mask_radius_init(&mask_out_param, &obj->coords, LV_RADIUS_CIRCLE, false);
 266:Drivers/lvgl/src/extra/widgets/colorwheel/lv_colorwheel.c ****     int16_t mask_out_id = lv_draw_mask_add(&mask_out_param, 0);
 267:Drivers/lvgl/src/extra/widgets/colorwheel/lv_colorwheel.c **** 
 268:Drivers/lvgl/src/extra/widgets/colorwheel/lv_colorwheel.c ****     lv_area_t mask_area;
 269:Drivers/lvgl/src/extra/widgets/colorwheel/lv_colorwheel.c ****     lv_area_copy(&mask_area, &obj->coords);
 270:Drivers/lvgl/src/extra/widgets/colorwheel/lv_colorwheel.c ****     mask_area.x1 += cir_w;
 271:Drivers/lvgl/src/extra/widgets/colorwheel/lv_colorwheel.c ****     mask_area.x2 -= cir_w;
 272:Drivers/lvgl/src/extra/widgets/colorwheel/lv_colorwheel.c ****     mask_area.y1 += cir_w;
 273:Drivers/lvgl/src/extra/widgets/colorwheel/lv_colorwheel.c ****     mask_area.y2 -= cir_w;
 274:Drivers/lvgl/src/extra/widgets/colorwheel/lv_colorwheel.c ****     lv_draw_mask_radius_param_t mask_in_param;
 275:Drivers/lvgl/src/extra/widgets/colorwheel/lv_colorwheel.c ****     lv_draw_mask_radius_init(&mask_in_param, &mask_area, LV_RADIUS_CIRCLE, true);
 276:Drivers/lvgl/src/extra/widgets/colorwheel/lv_colorwheel.c ****     int16_t mask_in_id = lv_draw_mask_add(&mask_in_param, 0);
 277:Drivers/lvgl/src/extra/widgets/colorwheel/lv_colorwheel.c **** 
 278:Drivers/lvgl/src/extra/widgets/colorwheel/lv_colorwheel.c ****     /*The inner and outer line ends will be masked out.
 279:Drivers/lvgl/src/extra/widgets/colorwheel/lv_colorwheel.c ****      *So make lines a little bit longer because the masking makes a more even result*/
 280:Drivers/lvgl/src/extra/widgets/colorwheel/lv_colorwheel.c ****     lv_coord_t cir_w_extra = line_dsc.width;
 281:Drivers/lvgl/src/extra/widgets/colorwheel/lv_colorwheel.c **** #else
 282:Drivers/lvgl/src/extra/widgets/colorwheel/lv_colorwheel.c ****     lv_coord_t cir_w_extra = 0;
 283:Drivers/lvgl/src/extra/widgets/colorwheel/lv_colorwheel.c **** #endif
 284:Drivers/lvgl/src/extra/widgets/colorwheel/lv_colorwheel.c **** 
 285:Drivers/lvgl/src/extra/widgets/colorwheel/lv_colorwheel.c ****     for(i = 0; i <= 256; i += LV_CPICKER_DEF_QF, a += 360 * LV_CPICKER_DEF_QF) {
 286:Drivers/lvgl/src/extra/widgets/colorwheel/lv_colorwheel.c ****         line_dsc.color = angle_to_mode_color_fast(obj, i);
 287:Drivers/lvgl/src/extra/widgets/colorwheel/lv_colorwheel.c ****         uint16_t angle_trigo = (uint16_t)(a >> 8); /*i * 360 / 256 is the scale to apply, but we ca
 288:Drivers/lvgl/src/extra/widgets/colorwheel/lv_colorwheel.c **** 
 289:Drivers/lvgl/src/extra/widgets/colorwheel/lv_colorwheel.c ****         lv_point_t p[2];
 290:Drivers/lvgl/src/extra/widgets/colorwheel/lv_colorwheel.c ****         p[0].x = cx + ((r + cir_w_extra) * lv_trigo_sin(angle_trigo) >> LV_TRIGO_SHIFT);
 291:Drivers/lvgl/src/extra/widgets/colorwheel/lv_colorwheel.c ****         p[0].y = cy + ((r + cir_w_extra) * lv_trigo_cos(angle_trigo) >> LV_TRIGO_SHIFT);
 292:Drivers/lvgl/src/extra/widgets/colorwheel/lv_colorwheel.c ****         p[1].x = cx + ((r - cir_w - cir_w_extra) * lv_trigo_sin(angle_trigo) >> LV_TRIGO_SHIFT);
 293:Drivers/lvgl/src/extra/widgets/colorwheel/lv_colorwheel.c ****         p[1].y = cy + ((r - cir_w - cir_w_extra) * lv_trigo_cos(angle_trigo) >> LV_TRIGO_SHIFT);
 294:Drivers/lvgl/src/extra/widgets/colorwheel/lv_colorwheel.c **** 
 295:Drivers/lvgl/src/extra/widgets/colorwheel/lv_colorwheel.c ****         lv_draw_line(draw_ctx, &line_dsc, &p[0], &p[1]);
 296:Drivers/lvgl/src/extra/widgets/colorwheel/lv_colorwheel.c ****     }
 297:Drivers/lvgl/src/extra/widgets/colorwheel/lv_colorwheel.c **** 
 298:Drivers/lvgl/src/extra/widgets/colorwheel/lv_colorwheel.c **** #if LV_DRAW_COMPLEX
 299:Drivers/lvgl/src/extra/widgets/colorwheel/lv_colorwheel.c ****     lv_draw_mask_free_param(&mask_out_param);
 300:Drivers/lvgl/src/extra/widgets/colorwheel/lv_colorwheel.c ****     lv_draw_mask_free_param(&mask_in_param);
 301:Drivers/lvgl/src/extra/widgets/colorwheel/lv_colorwheel.c ****     lv_draw_mask_remove_id(mask_out_id);
 302:Drivers/lvgl/src/extra/widgets/colorwheel/lv_colorwheel.c ****     lv_draw_mask_remove_id(mask_in_id);
 303:Drivers/lvgl/src/extra/widgets/colorwheel/lv_colorwheel.c **** #endif
 304:Drivers/lvgl/src/extra/widgets/colorwheel/lv_colorwheel.c **** }
 305:Drivers/lvgl/src/extra/widgets/colorwheel/lv_colorwheel.c **** 
 306:Drivers/lvgl/src/extra/widgets/colorwheel/lv_colorwheel.c **** static void draw_knob(lv_event_t * e)
 307:Drivers/lvgl/src/extra/widgets/colorwheel/lv_colorwheel.c **** {
 308:Drivers/lvgl/src/extra/widgets/colorwheel/lv_colorwheel.c ****     lv_obj_t * obj = lv_event_get_target(e);
 309:Drivers/lvgl/src/extra/widgets/colorwheel/lv_colorwheel.c ****     lv_draw_ctx_t * draw_ctx = lv_event_get_draw_ctx(e);
 310:Drivers/lvgl/src/extra/widgets/colorwheel/lv_colorwheel.c ****     lv_colorwheel_t * colorwheel = (lv_colorwheel_t *)obj;
 311:Drivers/lvgl/src/extra/widgets/colorwheel/lv_colorwheel.c **** 
 312:Drivers/lvgl/src/extra/widgets/colorwheel/lv_colorwheel.c ****     lv_draw_rect_dsc_t cir_dsc;
 313:Drivers/lvgl/src/extra/widgets/colorwheel/lv_colorwheel.c ****     lv_draw_rect_dsc_init(&cir_dsc);
 314:Drivers/lvgl/src/extra/widgets/colorwheel/lv_colorwheel.c ****     lv_obj_init_draw_rect_dsc(obj, LV_PART_KNOB, &cir_dsc);
ARM GAS  /var/folders/lp/x54gwt890xv47sdkqj1k04q40000gn/T//ccueOQ8a.s 			page 7


 315:Drivers/lvgl/src/extra/widgets/colorwheel/lv_colorwheel.c **** 
 316:Drivers/lvgl/src/extra/widgets/colorwheel/lv_colorwheel.c ****     cir_dsc.radius = LV_RADIUS_CIRCLE;
 317:Drivers/lvgl/src/extra/widgets/colorwheel/lv_colorwheel.c **** 
 318:Drivers/lvgl/src/extra/widgets/colorwheel/lv_colorwheel.c ****     if(colorwheel->knob.recolor) {
 319:Drivers/lvgl/src/extra/widgets/colorwheel/lv_colorwheel.c ****         cir_dsc.bg_color = lv_colorwheel_get_rgb(obj);
 320:Drivers/lvgl/src/extra/widgets/colorwheel/lv_colorwheel.c ****     }
 321:Drivers/lvgl/src/extra/widgets/colorwheel/lv_colorwheel.c **** 
 322:Drivers/lvgl/src/extra/widgets/colorwheel/lv_colorwheel.c ****     lv_area_t knob_area = get_knob_area(obj);
 323:Drivers/lvgl/src/extra/widgets/colorwheel/lv_colorwheel.c **** 
 324:Drivers/lvgl/src/extra/widgets/colorwheel/lv_colorwheel.c ****     lv_draw_rect(draw_ctx, &cir_dsc, &knob_area);
 325:Drivers/lvgl/src/extra/widgets/colorwheel/lv_colorwheel.c **** }
 326:Drivers/lvgl/src/extra/widgets/colorwheel/lv_colorwheel.c **** 
 327:Drivers/lvgl/src/extra/widgets/colorwheel/lv_colorwheel.c **** static void invalidate_knob(lv_obj_t * obj)
 328:Drivers/lvgl/src/extra/widgets/colorwheel/lv_colorwheel.c **** {
 329:Drivers/lvgl/src/extra/widgets/colorwheel/lv_colorwheel.c ****     lv_area_t knob_area = get_knob_area(obj);
 330:Drivers/lvgl/src/extra/widgets/colorwheel/lv_colorwheel.c **** 
 331:Drivers/lvgl/src/extra/widgets/colorwheel/lv_colorwheel.c ****     lv_obj_invalidate_area(obj, &knob_area);
 332:Drivers/lvgl/src/extra/widgets/colorwheel/lv_colorwheel.c **** }
 333:Drivers/lvgl/src/extra/widgets/colorwheel/lv_colorwheel.c **** 
 334:Drivers/lvgl/src/extra/widgets/colorwheel/lv_colorwheel.c **** static lv_area_t get_knob_area(lv_obj_t * obj)
 335:Drivers/lvgl/src/extra/widgets/colorwheel/lv_colorwheel.c **** {
  30              		.loc 1 335 1 view -0
  31              		.cfi_startproc
  32              		@ args = 0, pretend = 0, frame = 0
  33              		@ frame_needed = 0, uses_anonymous_args = 0
 336:Drivers/lvgl/src/extra/widgets/colorwheel/lv_colorwheel.c ****     lv_colorwheel_t * colorwheel = (lv_colorwheel_t *)obj;
  34              		.loc 1 336 5 view .LVU1
 335:Drivers/lvgl/src/extra/widgets/colorwheel/lv_colorwheel.c ****     lv_colorwheel_t * colorwheel = (lv_colorwheel_t *)obj;
  35              		.loc 1 335 1 is_stmt 0 view .LVU2
  36 0000 2DE9F843 		push	{r3, r4, r5, r6, r7, r8, r9, lr}
  37              		.cfi_def_cfa_offset 32
  38              		.cfi_offset 3, -32
  39              		.cfi_offset 4, -28
  40              		.cfi_offset 5, -24
  41              		.cfi_offset 6, -20
  42              		.cfi_offset 7, -16
  43              		.cfi_offset 8, -12
  44              		.cfi_offset 9, -8
  45              		.cfi_offset 14, -4
 335:Drivers/lvgl/src/extra/widgets/colorwheel/lv_colorwheel.c ****     lv_colorwheel_t * colorwheel = (lv_colorwheel_t *)obj;
  46              		.loc 1 335 1 view .LVU3
  47 0004 0C46     		mov	r4, r1
  48              	.LVL1:
 337:Drivers/lvgl/src/extra/widgets/colorwheel/lv_colorwheel.c **** 
 338:Drivers/lvgl/src/extra/widgets/colorwheel/lv_colorwheel.c ****     /*Get knob's radius*/
 339:Drivers/lvgl/src/extra/widgets/colorwheel/lv_colorwheel.c ****     uint16_t r = 0;
  49              		.loc 1 339 5 is_stmt 1 view .LVU4
 340:Drivers/lvgl/src/extra/widgets/colorwheel/lv_colorwheel.c ****     r = lv_obj_get_style_arc_width(obj, LV_PART_MAIN) / 2;
  50              		.loc 1 340 5 view .LVU5
  51              	.LBB77:
  52              	.LBI77:
  53              		.file 2 "Drivers/lvgl/src/extra/widgets/colorwheel/../../../../src/core/lv_obj_style_gen.h"
   1:Drivers/lvgl/src/extra/widgets/colorwheel/../../../../src/core/lv_obj_style_gen.h **** static inline lv_coord_t lv_obj_get_style_width(const struct _lv_obj_t * obj, uint32_t part)
   2:Drivers/lvgl/src/extra/widgets/colorwheel/../../../../src/core/lv_obj_style_gen.h **** {
   3:Drivers/lvgl/src/extra/widgets/colorwheel/../../../../src/core/lv_obj_style_gen.h ****     lv_style_value_t v = lv_obj_get_style_prop(obj, part, LV_STYLE_WIDTH);
   4:Drivers/lvgl/src/extra/widgets/colorwheel/../../../../src/core/lv_obj_style_gen.h ****     return (lv_coord_t)v.num;
   5:Drivers/lvgl/src/extra/widgets/colorwheel/../../../../src/core/lv_obj_style_gen.h **** }
ARM GAS  /var/folders/lp/x54gwt890xv47sdkqj1k04q40000gn/T//ccueOQ8a.s 			page 8


   6:Drivers/lvgl/src/extra/widgets/colorwheel/../../../../src/core/lv_obj_style_gen.h **** 
   7:Drivers/lvgl/src/extra/widgets/colorwheel/../../../../src/core/lv_obj_style_gen.h **** static inline lv_coord_t lv_obj_get_style_min_width(const struct _lv_obj_t * obj, uint32_t part)
   8:Drivers/lvgl/src/extra/widgets/colorwheel/../../../../src/core/lv_obj_style_gen.h **** {
   9:Drivers/lvgl/src/extra/widgets/colorwheel/../../../../src/core/lv_obj_style_gen.h ****     lv_style_value_t v = lv_obj_get_style_prop(obj, part, LV_STYLE_MIN_WIDTH);
  10:Drivers/lvgl/src/extra/widgets/colorwheel/../../../../src/core/lv_obj_style_gen.h ****     return (lv_coord_t)v.num;
  11:Drivers/lvgl/src/extra/widgets/colorwheel/../../../../src/core/lv_obj_style_gen.h **** }
  12:Drivers/lvgl/src/extra/widgets/colorwheel/../../../../src/core/lv_obj_style_gen.h **** 
  13:Drivers/lvgl/src/extra/widgets/colorwheel/../../../../src/core/lv_obj_style_gen.h **** static inline lv_coord_t lv_obj_get_style_max_width(const struct _lv_obj_t * obj, uint32_t part)
  14:Drivers/lvgl/src/extra/widgets/colorwheel/../../../../src/core/lv_obj_style_gen.h **** {
  15:Drivers/lvgl/src/extra/widgets/colorwheel/../../../../src/core/lv_obj_style_gen.h ****     lv_style_value_t v = lv_obj_get_style_prop(obj, part, LV_STYLE_MAX_WIDTH);
  16:Drivers/lvgl/src/extra/widgets/colorwheel/../../../../src/core/lv_obj_style_gen.h ****     return (lv_coord_t)v.num;
  17:Drivers/lvgl/src/extra/widgets/colorwheel/../../../../src/core/lv_obj_style_gen.h **** }
  18:Drivers/lvgl/src/extra/widgets/colorwheel/../../../../src/core/lv_obj_style_gen.h **** 
  19:Drivers/lvgl/src/extra/widgets/colorwheel/../../../../src/core/lv_obj_style_gen.h **** static inline lv_coord_t lv_obj_get_style_height(const struct _lv_obj_t * obj, uint32_t part)
  20:Drivers/lvgl/src/extra/widgets/colorwheel/../../../../src/core/lv_obj_style_gen.h **** {
  21:Drivers/lvgl/src/extra/widgets/colorwheel/../../../../src/core/lv_obj_style_gen.h ****     lv_style_value_t v = lv_obj_get_style_prop(obj, part, LV_STYLE_HEIGHT);
  22:Drivers/lvgl/src/extra/widgets/colorwheel/../../../../src/core/lv_obj_style_gen.h ****     return (lv_coord_t)v.num;
  23:Drivers/lvgl/src/extra/widgets/colorwheel/../../../../src/core/lv_obj_style_gen.h **** }
  24:Drivers/lvgl/src/extra/widgets/colorwheel/../../../../src/core/lv_obj_style_gen.h **** 
  25:Drivers/lvgl/src/extra/widgets/colorwheel/../../../../src/core/lv_obj_style_gen.h **** static inline lv_coord_t lv_obj_get_style_min_height(const struct _lv_obj_t * obj, uint32_t part)
  26:Drivers/lvgl/src/extra/widgets/colorwheel/../../../../src/core/lv_obj_style_gen.h **** {
  27:Drivers/lvgl/src/extra/widgets/colorwheel/../../../../src/core/lv_obj_style_gen.h ****     lv_style_value_t v = lv_obj_get_style_prop(obj, part, LV_STYLE_MIN_HEIGHT);
  28:Drivers/lvgl/src/extra/widgets/colorwheel/../../../../src/core/lv_obj_style_gen.h ****     return (lv_coord_t)v.num;
  29:Drivers/lvgl/src/extra/widgets/colorwheel/../../../../src/core/lv_obj_style_gen.h **** }
  30:Drivers/lvgl/src/extra/widgets/colorwheel/../../../../src/core/lv_obj_style_gen.h **** 
  31:Drivers/lvgl/src/extra/widgets/colorwheel/../../../../src/core/lv_obj_style_gen.h **** static inline lv_coord_t lv_obj_get_style_max_height(const struct _lv_obj_t * obj, uint32_t part)
  32:Drivers/lvgl/src/extra/widgets/colorwheel/../../../../src/core/lv_obj_style_gen.h **** {
  33:Drivers/lvgl/src/extra/widgets/colorwheel/../../../../src/core/lv_obj_style_gen.h ****     lv_style_value_t v = lv_obj_get_style_prop(obj, part, LV_STYLE_MAX_HEIGHT);
  34:Drivers/lvgl/src/extra/widgets/colorwheel/../../../../src/core/lv_obj_style_gen.h ****     return (lv_coord_t)v.num;
  35:Drivers/lvgl/src/extra/widgets/colorwheel/../../../../src/core/lv_obj_style_gen.h **** }
  36:Drivers/lvgl/src/extra/widgets/colorwheel/../../../../src/core/lv_obj_style_gen.h **** 
  37:Drivers/lvgl/src/extra/widgets/colorwheel/../../../../src/core/lv_obj_style_gen.h **** static inline lv_coord_t lv_obj_get_style_x(const struct _lv_obj_t * obj, uint32_t part)
  38:Drivers/lvgl/src/extra/widgets/colorwheel/../../../../src/core/lv_obj_style_gen.h **** {
  39:Drivers/lvgl/src/extra/widgets/colorwheel/../../../../src/core/lv_obj_style_gen.h ****     lv_style_value_t v = lv_obj_get_style_prop(obj, part, LV_STYLE_X);
  40:Drivers/lvgl/src/extra/widgets/colorwheel/../../../../src/core/lv_obj_style_gen.h ****     return (lv_coord_t)v.num;
  41:Drivers/lvgl/src/extra/widgets/colorwheel/../../../../src/core/lv_obj_style_gen.h **** }
  42:Drivers/lvgl/src/extra/widgets/colorwheel/../../../../src/core/lv_obj_style_gen.h **** 
  43:Drivers/lvgl/src/extra/widgets/colorwheel/../../../../src/core/lv_obj_style_gen.h **** static inline lv_coord_t lv_obj_get_style_y(const struct _lv_obj_t * obj, uint32_t part)
  44:Drivers/lvgl/src/extra/widgets/colorwheel/../../../../src/core/lv_obj_style_gen.h **** {
  45:Drivers/lvgl/src/extra/widgets/colorwheel/../../../../src/core/lv_obj_style_gen.h ****     lv_style_value_t v = lv_obj_get_style_prop(obj, part, LV_STYLE_Y);
  46:Drivers/lvgl/src/extra/widgets/colorwheel/../../../../src/core/lv_obj_style_gen.h ****     return (lv_coord_t)v.num;
  47:Drivers/lvgl/src/extra/widgets/colorwheel/../../../../src/core/lv_obj_style_gen.h **** }
  48:Drivers/lvgl/src/extra/widgets/colorwheel/../../../../src/core/lv_obj_style_gen.h **** 
  49:Drivers/lvgl/src/extra/widgets/colorwheel/../../../../src/core/lv_obj_style_gen.h **** static inline lv_align_t lv_obj_get_style_align(const struct _lv_obj_t * obj, uint32_t part)
  50:Drivers/lvgl/src/extra/widgets/colorwheel/../../../../src/core/lv_obj_style_gen.h **** {
  51:Drivers/lvgl/src/extra/widgets/colorwheel/../../../../src/core/lv_obj_style_gen.h ****     lv_style_value_t v = lv_obj_get_style_prop(obj, part, LV_STYLE_ALIGN);
  52:Drivers/lvgl/src/extra/widgets/colorwheel/../../../../src/core/lv_obj_style_gen.h ****     return (lv_align_t)v.num;
  53:Drivers/lvgl/src/extra/widgets/colorwheel/../../../../src/core/lv_obj_style_gen.h **** }
  54:Drivers/lvgl/src/extra/widgets/colorwheel/../../../../src/core/lv_obj_style_gen.h **** 
  55:Drivers/lvgl/src/extra/widgets/colorwheel/../../../../src/core/lv_obj_style_gen.h **** static inline lv_coord_t lv_obj_get_style_transform_width(const struct _lv_obj_t * obj, uint32_t pa
  56:Drivers/lvgl/src/extra/widgets/colorwheel/../../../../src/core/lv_obj_style_gen.h **** {
  57:Drivers/lvgl/src/extra/widgets/colorwheel/../../../../src/core/lv_obj_style_gen.h ****     lv_style_value_t v = lv_obj_get_style_prop(obj, part, LV_STYLE_TRANSFORM_WIDTH);
  58:Drivers/lvgl/src/extra/widgets/colorwheel/../../../../src/core/lv_obj_style_gen.h ****     return (lv_coord_t)v.num;
  59:Drivers/lvgl/src/extra/widgets/colorwheel/../../../../src/core/lv_obj_style_gen.h **** }
  60:Drivers/lvgl/src/extra/widgets/colorwheel/../../../../src/core/lv_obj_style_gen.h **** 
  61:Drivers/lvgl/src/extra/widgets/colorwheel/../../../../src/core/lv_obj_style_gen.h **** static inline lv_coord_t lv_obj_get_style_transform_height(const struct _lv_obj_t * obj, uint32_t p
  62:Drivers/lvgl/src/extra/widgets/colorwheel/../../../../src/core/lv_obj_style_gen.h **** {
ARM GAS  /var/folders/lp/x54gwt890xv47sdkqj1k04q40000gn/T//ccueOQ8a.s 			page 9


  63:Drivers/lvgl/src/extra/widgets/colorwheel/../../../../src/core/lv_obj_style_gen.h ****     lv_style_value_t v = lv_obj_get_style_prop(obj, part, LV_STYLE_TRANSFORM_HEIGHT);
  64:Drivers/lvgl/src/extra/widgets/colorwheel/../../../../src/core/lv_obj_style_gen.h ****     return (lv_coord_t)v.num;
  65:Drivers/lvgl/src/extra/widgets/colorwheel/../../../../src/core/lv_obj_style_gen.h **** }
  66:Drivers/lvgl/src/extra/widgets/colorwheel/../../../../src/core/lv_obj_style_gen.h **** 
  67:Drivers/lvgl/src/extra/widgets/colorwheel/../../../../src/core/lv_obj_style_gen.h **** static inline lv_coord_t lv_obj_get_style_translate_x(const struct _lv_obj_t * obj, uint32_t part)
  68:Drivers/lvgl/src/extra/widgets/colorwheel/../../../../src/core/lv_obj_style_gen.h **** {
  69:Drivers/lvgl/src/extra/widgets/colorwheel/../../../../src/core/lv_obj_style_gen.h ****     lv_style_value_t v = lv_obj_get_style_prop(obj, part, LV_STYLE_TRANSLATE_X);
  70:Drivers/lvgl/src/extra/widgets/colorwheel/../../../../src/core/lv_obj_style_gen.h ****     return (lv_coord_t)v.num;
  71:Drivers/lvgl/src/extra/widgets/colorwheel/../../../../src/core/lv_obj_style_gen.h **** }
  72:Drivers/lvgl/src/extra/widgets/colorwheel/../../../../src/core/lv_obj_style_gen.h **** 
  73:Drivers/lvgl/src/extra/widgets/colorwheel/../../../../src/core/lv_obj_style_gen.h **** static inline lv_coord_t lv_obj_get_style_translate_y(const struct _lv_obj_t * obj, uint32_t part)
  74:Drivers/lvgl/src/extra/widgets/colorwheel/../../../../src/core/lv_obj_style_gen.h **** {
  75:Drivers/lvgl/src/extra/widgets/colorwheel/../../../../src/core/lv_obj_style_gen.h ****     lv_style_value_t v = lv_obj_get_style_prop(obj, part, LV_STYLE_TRANSLATE_Y);
  76:Drivers/lvgl/src/extra/widgets/colorwheel/../../../../src/core/lv_obj_style_gen.h ****     return (lv_coord_t)v.num;
  77:Drivers/lvgl/src/extra/widgets/colorwheel/../../../../src/core/lv_obj_style_gen.h **** }
  78:Drivers/lvgl/src/extra/widgets/colorwheel/../../../../src/core/lv_obj_style_gen.h **** 
  79:Drivers/lvgl/src/extra/widgets/colorwheel/../../../../src/core/lv_obj_style_gen.h **** static inline lv_coord_t lv_obj_get_style_transform_zoom(const struct _lv_obj_t * obj, uint32_t par
  80:Drivers/lvgl/src/extra/widgets/colorwheel/../../../../src/core/lv_obj_style_gen.h **** {
  81:Drivers/lvgl/src/extra/widgets/colorwheel/../../../../src/core/lv_obj_style_gen.h ****     lv_style_value_t v = lv_obj_get_style_prop(obj, part, LV_STYLE_TRANSFORM_ZOOM);
  82:Drivers/lvgl/src/extra/widgets/colorwheel/../../../../src/core/lv_obj_style_gen.h ****     return (lv_coord_t)v.num;
  83:Drivers/lvgl/src/extra/widgets/colorwheel/../../../../src/core/lv_obj_style_gen.h **** }
  84:Drivers/lvgl/src/extra/widgets/colorwheel/../../../../src/core/lv_obj_style_gen.h **** 
  85:Drivers/lvgl/src/extra/widgets/colorwheel/../../../../src/core/lv_obj_style_gen.h **** static inline lv_coord_t lv_obj_get_style_transform_angle(const struct _lv_obj_t * obj, uint32_t pa
  86:Drivers/lvgl/src/extra/widgets/colorwheel/../../../../src/core/lv_obj_style_gen.h **** {
  87:Drivers/lvgl/src/extra/widgets/colorwheel/../../../../src/core/lv_obj_style_gen.h ****     lv_style_value_t v = lv_obj_get_style_prop(obj, part, LV_STYLE_TRANSFORM_ANGLE);
  88:Drivers/lvgl/src/extra/widgets/colorwheel/../../../../src/core/lv_obj_style_gen.h ****     return (lv_coord_t)v.num;
  89:Drivers/lvgl/src/extra/widgets/colorwheel/../../../../src/core/lv_obj_style_gen.h **** }
  90:Drivers/lvgl/src/extra/widgets/colorwheel/../../../../src/core/lv_obj_style_gen.h **** 
  91:Drivers/lvgl/src/extra/widgets/colorwheel/../../../../src/core/lv_obj_style_gen.h **** static inline lv_coord_t lv_obj_get_style_transform_pivot_x(const struct _lv_obj_t * obj, uint32_t 
  92:Drivers/lvgl/src/extra/widgets/colorwheel/../../../../src/core/lv_obj_style_gen.h **** {
  93:Drivers/lvgl/src/extra/widgets/colorwheel/../../../../src/core/lv_obj_style_gen.h ****     lv_style_value_t v = lv_obj_get_style_prop(obj, part, LV_STYLE_TRANSFORM_PIVOT_X);
  94:Drivers/lvgl/src/extra/widgets/colorwheel/../../../../src/core/lv_obj_style_gen.h ****     return (lv_coord_t)v.num;
  95:Drivers/lvgl/src/extra/widgets/colorwheel/../../../../src/core/lv_obj_style_gen.h **** }
  96:Drivers/lvgl/src/extra/widgets/colorwheel/../../../../src/core/lv_obj_style_gen.h **** 
  97:Drivers/lvgl/src/extra/widgets/colorwheel/../../../../src/core/lv_obj_style_gen.h **** static inline lv_coord_t lv_obj_get_style_transform_pivot_y(const struct _lv_obj_t * obj, uint32_t 
  98:Drivers/lvgl/src/extra/widgets/colorwheel/../../../../src/core/lv_obj_style_gen.h **** {
  99:Drivers/lvgl/src/extra/widgets/colorwheel/../../../../src/core/lv_obj_style_gen.h ****     lv_style_value_t v = lv_obj_get_style_prop(obj, part, LV_STYLE_TRANSFORM_PIVOT_Y);
 100:Drivers/lvgl/src/extra/widgets/colorwheel/../../../../src/core/lv_obj_style_gen.h ****     return (lv_coord_t)v.num;
 101:Drivers/lvgl/src/extra/widgets/colorwheel/../../../../src/core/lv_obj_style_gen.h **** }
 102:Drivers/lvgl/src/extra/widgets/colorwheel/../../../../src/core/lv_obj_style_gen.h **** 
 103:Drivers/lvgl/src/extra/widgets/colorwheel/../../../../src/core/lv_obj_style_gen.h **** static inline lv_coord_t lv_obj_get_style_pad_top(const struct _lv_obj_t * obj, uint32_t part)
 104:Drivers/lvgl/src/extra/widgets/colorwheel/../../../../src/core/lv_obj_style_gen.h **** {
 105:Drivers/lvgl/src/extra/widgets/colorwheel/../../../../src/core/lv_obj_style_gen.h ****     lv_style_value_t v = lv_obj_get_style_prop(obj, part, LV_STYLE_PAD_TOP);
 106:Drivers/lvgl/src/extra/widgets/colorwheel/../../../../src/core/lv_obj_style_gen.h ****     return (lv_coord_t)v.num;
 107:Drivers/lvgl/src/extra/widgets/colorwheel/../../../../src/core/lv_obj_style_gen.h **** }
 108:Drivers/lvgl/src/extra/widgets/colorwheel/../../../../src/core/lv_obj_style_gen.h **** 
 109:Drivers/lvgl/src/extra/widgets/colorwheel/../../../../src/core/lv_obj_style_gen.h **** static inline lv_coord_t lv_obj_get_style_pad_bottom(const struct _lv_obj_t * obj, uint32_t part)
 110:Drivers/lvgl/src/extra/widgets/colorwheel/../../../../src/core/lv_obj_style_gen.h **** {
 111:Drivers/lvgl/src/extra/widgets/colorwheel/../../../../src/core/lv_obj_style_gen.h ****     lv_style_value_t v = lv_obj_get_style_prop(obj, part, LV_STYLE_PAD_BOTTOM);
 112:Drivers/lvgl/src/extra/widgets/colorwheel/../../../../src/core/lv_obj_style_gen.h ****     return (lv_coord_t)v.num;
 113:Drivers/lvgl/src/extra/widgets/colorwheel/../../../../src/core/lv_obj_style_gen.h **** }
 114:Drivers/lvgl/src/extra/widgets/colorwheel/../../../../src/core/lv_obj_style_gen.h **** 
 115:Drivers/lvgl/src/extra/widgets/colorwheel/../../../../src/core/lv_obj_style_gen.h **** static inline lv_coord_t lv_obj_get_style_pad_left(const struct _lv_obj_t * obj, uint32_t part)
 116:Drivers/lvgl/src/extra/widgets/colorwheel/../../../../src/core/lv_obj_style_gen.h **** {
 117:Drivers/lvgl/src/extra/widgets/colorwheel/../../../../src/core/lv_obj_style_gen.h ****     lv_style_value_t v = lv_obj_get_style_prop(obj, part, LV_STYLE_PAD_LEFT);
 118:Drivers/lvgl/src/extra/widgets/colorwheel/../../../../src/core/lv_obj_style_gen.h ****     return (lv_coord_t)v.num;
 119:Drivers/lvgl/src/extra/widgets/colorwheel/../../../../src/core/lv_obj_style_gen.h **** }
ARM GAS  /var/folders/lp/x54gwt890xv47sdkqj1k04q40000gn/T//ccueOQ8a.s 			page 10


 120:Drivers/lvgl/src/extra/widgets/colorwheel/../../../../src/core/lv_obj_style_gen.h **** 
 121:Drivers/lvgl/src/extra/widgets/colorwheel/../../../../src/core/lv_obj_style_gen.h **** static inline lv_coord_t lv_obj_get_style_pad_right(const struct _lv_obj_t * obj, uint32_t part)
 122:Drivers/lvgl/src/extra/widgets/colorwheel/../../../../src/core/lv_obj_style_gen.h **** {
 123:Drivers/lvgl/src/extra/widgets/colorwheel/../../../../src/core/lv_obj_style_gen.h ****     lv_style_value_t v = lv_obj_get_style_prop(obj, part, LV_STYLE_PAD_RIGHT);
 124:Drivers/lvgl/src/extra/widgets/colorwheel/../../../../src/core/lv_obj_style_gen.h ****     return (lv_coord_t)v.num;
 125:Drivers/lvgl/src/extra/widgets/colorwheel/../../../../src/core/lv_obj_style_gen.h **** }
 126:Drivers/lvgl/src/extra/widgets/colorwheel/../../../../src/core/lv_obj_style_gen.h **** 
 127:Drivers/lvgl/src/extra/widgets/colorwheel/../../../../src/core/lv_obj_style_gen.h **** static inline lv_coord_t lv_obj_get_style_pad_row(const struct _lv_obj_t * obj, uint32_t part)
 128:Drivers/lvgl/src/extra/widgets/colorwheel/../../../../src/core/lv_obj_style_gen.h **** {
 129:Drivers/lvgl/src/extra/widgets/colorwheel/../../../../src/core/lv_obj_style_gen.h ****     lv_style_value_t v = lv_obj_get_style_prop(obj, part, LV_STYLE_PAD_ROW);
 130:Drivers/lvgl/src/extra/widgets/colorwheel/../../../../src/core/lv_obj_style_gen.h ****     return (lv_coord_t)v.num;
 131:Drivers/lvgl/src/extra/widgets/colorwheel/../../../../src/core/lv_obj_style_gen.h **** }
 132:Drivers/lvgl/src/extra/widgets/colorwheel/../../../../src/core/lv_obj_style_gen.h **** 
 133:Drivers/lvgl/src/extra/widgets/colorwheel/../../../../src/core/lv_obj_style_gen.h **** static inline lv_coord_t lv_obj_get_style_pad_column(const struct _lv_obj_t * obj, uint32_t part)
 134:Drivers/lvgl/src/extra/widgets/colorwheel/../../../../src/core/lv_obj_style_gen.h **** {
 135:Drivers/lvgl/src/extra/widgets/colorwheel/../../../../src/core/lv_obj_style_gen.h ****     lv_style_value_t v = lv_obj_get_style_prop(obj, part, LV_STYLE_PAD_COLUMN);
 136:Drivers/lvgl/src/extra/widgets/colorwheel/../../../../src/core/lv_obj_style_gen.h ****     return (lv_coord_t)v.num;
 137:Drivers/lvgl/src/extra/widgets/colorwheel/../../../../src/core/lv_obj_style_gen.h **** }
 138:Drivers/lvgl/src/extra/widgets/colorwheel/../../../../src/core/lv_obj_style_gen.h **** 
 139:Drivers/lvgl/src/extra/widgets/colorwheel/../../../../src/core/lv_obj_style_gen.h **** static inline lv_color_t lv_obj_get_style_bg_color(const struct _lv_obj_t * obj, uint32_t part)
 140:Drivers/lvgl/src/extra/widgets/colorwheel/../../../../src/core/lv_obj_style_gen.h **** {
 141:Drivers/lvgl/src/extra/widgets/colorwheel/../../../../src/core/lv_obj_style_gen.h ****     lv_style_value_t v = lv_obj_get_style_prop(obj, part, LV_STYLE_BG_COLOR);
 142:Drivers/lvgl/src/extra/widgets/colorwheel/../../../../src/core/lv_obj_style_gen.h ****     return v.color;
 143:Drivers/lvgl/src/extra/widgets/colorwheel/../../../../src/core/lv_obj_style_gen.h **** }
 144:Drivers/lvgl/src/extra/widgets/colorwheel/../../../../src/core/lv_obj_style_gen.h **** 
 145:Drivers/lvgl/src/extra/widgets/colorwheel/../../../../src/core/lv_obj_style_gen.h **** static inline lv_color_t lv_obj_get_style_bg_color_filtered(const struct _lv_obj_t * obj, uint32_t 
 146:Drivers/lvgl/src/extra/widgets/colorwheel/../../../../src/core/lv_obj_style_gen.h **** {
 147:Drivers/lvgl/src/extra/widgets/colorwheel/../../../../src/core/lv_obj_style_gen.h ****     lv_style_value_t v = _lv_obj_style_apply_color_filter(obj, part, lv_obj_get_style_prop(obj, par
 148:Drivers/lvgl/src/extra/widgets/colorwheel/../../../../src/core/lv_obj_style_gen.h ****     return v.color;
 149:Drivers/lvgl/src/extra/widgets/colorwheel/../../../../src/core/lv_obj_style_gen.h **** }
 150:Drivers/lvgl/src/extra/widgets/colorwheel/../../../../src/core/lv_obj_style_gen.h **** 
 151:Drivers/lvgl/src/extra/widgets/colorwheel/../../../../src/core/lv_obj_style_gen.h **** static inline lv_opa_t lv_obj_get_style_bg_opa(const struct _lv_obj_t * obj, uint32_t part)
 152:Drivers/lvgl/src/extra/widgets/colorwheel/../../../../src/core/lv_obj_style_gen.h **** {
 153:Drivers/lvgl/src/extra/widgets/colorwheel/../../../../src/core/lv_obj_style_gen.h ****     lv_style_value_t v = lv_obj_get_style_prop(obj, part, LV_STYLE_BG_OPA);
 154:Drivers/lvgl/src/extra/widgets/colorwheel/../../../../src/core/lv_obj_style_gen.h ****     return (lv_opa_t)v.num;
 155:Drivers/lvgl/src/extra/widgets/colorwheel/../../../../src/core/lv_obj_style_gen.h **** }
 156:Drivers/lvgl/src/extra/widgets/colorwheel/../../../../src/core/lv_obj_style_gen.h **** 
 157:Drivers/lvgl/src/extra/widgets/colorwheel/../../../../src/core/lv_obj_style_gen.h **** static inline lv_color_t lv_obj_get_style_bg_grad_color(const struct _lv_obj_t * obj, uint32_t part
 158:Drivers/lvgl/src/extra/widgets/colorwheel/../../../../src/core/lv_obj_style_gen.h **** {
 159:Drivers/lvgl/src/extra/widgets/colorwheel/../../../../src/core/lv_obj_style_gen.h ****     lv_style_value_t v = lv_obj_get_style_prop(obj, part, LV_STYLE_BG_GRAD_COLOR);
 160:Drivers/lvgl/src/extra/widgets/colorwheel/../../../../src/core/lv_obj_style_gen.h ****     return v.color;
 161:Drivers/lvgl/src/extra/widgets/colorwheel/../../../../src/core/lv_obj_style_gen.h **** }
 162:Drivers/lvgl/src/extra/widgets/colorwheel/../../../../src/core/lv_obj_style_gen.h **** 
 163:Drivers/lvgl/src/extra/widgets/colorwheel/../../../../src/core/lv_obj_style_gen.h **** static inline lv_color_t lv_obj_get_style_bg_grad_color_filtered(const struct _lv_obj_t * obj, uint
 164:Drivers/lvgl/src/extra/widgets/colorwheel/../../../../src/core/lv_obj_style_gen.h **** {
 165:Drivers/lvgl/src/extra/widgets/colorwheel/../../../../src/core/lv_obj_style_gen.h ****     lv_style_value_t v = _lv_obj_style_apply_color_filter(obj, part, lv_obj_get_style_prop(obj, par
 166:Drivers/lvgl/src/extra/widgets/colorwheel/../../../../src/core/lv_obj_style_gen.h ****     return v.color;
 167:Drivers/lvgl/src/extra/widgets/colorwheel/../../../../src/core/lv_obj_style_gen.h **** }
 168:Drivers/lvgl/src/extra/widgets/colorwheel/../../../../src/core/lv_obj_style_gen.h **** 
 169:Drivers/lvgl/src/extra/widgets/colorwheel/../../../../src/core/lv_obj_style_gen.h **** static inline lv_grad_dir_t lv_obj_get_style_bg_grad_dir(const struct _lv_obj_t * obj, uint32_t par
 170:Drivers/lvgl/src/extra/widgets/colorwheel/../../../../src/core/lv_obj_style_gen.h **** {
 171:Drivers/lvgl/src/extra/widgets/colorwheel/../../../../src/core/lv_obj_style_gen.h ****     lv_style_value_t v = lv_obj_get_style_prop(obj, part, LV_STYLE_BG_GRAD_DIR);
 172:Drivers/lvgl/src/extra/widgets/colorwheel/../../../../src/core/lv_obj_style_gen.h ****     return (lv_grad_dir_t)v.num;
 173:Drivers/lvgl/src/extra/widgets/colorwheel/../../../../src/core/lv_obj_style_gen.h **** }
 174:Drivers/lvgl/src/extra/widgets/colorwheel/../../../../src/core/lv_obj_style_gen.h **** 
 175:Drivers/lvgl/src/extra/widgets/colorwheel/../../../../src/core/lv_obj_style_gen.h **** static inline lv_coord_t lv_obj_get_style_bg_main_stop(const struct _lv_obj_t * obj, uint32_t part)
 176:Drivers/lvgl/src/extra/widgets/colorwheel/../../../../src/core/lv_obj_style_gen.h **** {
ARM GAS  /var/folders/lp/x54gwt890xv47sdkqj1k04q40000gn/T//ccueOQ8a.s 			page 11


 177:Drivers/lvgl/src/extra/widgets/colorwheel/../../../../src/core/lv_obj_style_gen.h ****     lv_style_value_t v = lv_obj_get_style_prop(obj, part, LV_STYLE_BG_MAIN_STOP);
 178:Drivers/lvgl/src/extra/widgets/colorwheel/../../../../src/core/lv_obj_style_gen.h ****     return (lv_coord_t)v.num;
 179:Drivers/lvgl/src/extra/widgets/colorwheel/../../../../src/core/lv_obj_style_gen.h **** }
 180:Drivers/lvgl/src/extra/widgets/colorwheel/../../../../src/core/lv_obj_style_gen.h **** 
 181:Drivers/lvgl/src/extra/widgets/colorwheel/../../../../src/core/lv_obj_style_gen.h **** static inline lv_coord_t lv_obj_get_style_bg_grad_stop(const struct _lv_obj_t * obj, uint32_t part)
 182:Drivers/lvgl/src/extra/widgets/colorwheel/../../../../src/core/lv_obj_style_gen.h **** {
 183:Drivers/lvgl/src/extra/widgets/colorwheel/../../../../src/core/lv_obj_style_gen.h ****     lv_style_value_t v = lv_obj_get_style_prop(obj, part, LV_STYLE_BG_GRAD_STOP);
 184:Drivers/lvgl/src/extra/widgets/colorwheel/../../../../src/core/lv_obj_style_gen.h ****     return (lv_coord_t)v.num;
 185:Drivers/lvgl/src/extra/widgets/colorwheel/../../../../src/core/lv_obj_style_gen.h **** }
 186:Drivers/lvgl/src/extra/widgets/colorwheel/../../../../src/core/lv_obj_style_gen.h **** 
 187:Drivers/lvgl/src/extra/widgets/colorwheel/../../../../src/core/lv_obj_style_gen.h **** static inline const lv_grad_dsc_t * lv_obj_get_style_bg_grad(const struct _lv_obj_t * obj, uint32_t
 188:Drivers/lvgl/src/extra/widgets/colorwheel/../../../../src/core/lv_obj_style_gen.h **** {
 189:Drivers/lvgl/src/extra/widgets/colorwheel/../../../../src/core/lv_obj_style_gen.h ****     lv_style_value_t v = lv_obj_get_style_prop(obj, part, LV_STYLE_BG_GRAD);
 190:Drivers/lvgl/src/extra/widgets/colorwheel/../../../../src/core/lv_obj_style_gen.h ****     return (const lv_grad_dsc_t *)v.ptr;
 191:Drivers/lvgl/src/extra/widgets/colorwheel/../../../../src/core/lv_obj_style_gen.h **** }
 192:Drivers/lvgl/src/extra/widgets/colorwheel/../../../../src/core/lv_obj_style_gen.h **** 
 193:Drivers/lvgl/src/extra/widgets/colorwheel/../../../../src/core/lv_obj_style_gen.h **** static inline lv_dither_mode_t lv_obj_get_style_bg_dither_mode(const struct _lv_obj_t * obj, uint32
 194:Drivers/lvgl/src/extra/widgets/colorwheel/../../../../src/core/lv_obj_style_gen.h **** {
 195:Drivers/lvgl/src/extra/widgets/colorwheel/../../../../src/core/lv_obj_style_gen.h ****     lv_style_value_t v = lv_obj_get_style_prop(obj, part, LV_STYLE_BG_DITHER_MODE);
 196:Drivers/lvgl/src/extra/widgets/colorwheel/../../../../src/core/lv_obj_style_gen.h ****     return (lv_dither_mode_t)v.num;
 197:Drivers/lvgl/src/extra/widgets/colorwheel/../../../../src/core/lv_obj_style_gen.h **** }
 198:Drivers/lvgl/src/extra/widgets/colorwheel/../../../../src/core/lv_obj_style_gen.h **** 
 199:Drivers/lvgl/src/extra/widgets/colorwheel/../../../../src/core/lv_obj_style_gen.h **** static inline const void * lv_obj_get_style_bg_img_src(const struct _lv_obj_t * obj, uint32_t part)
 200:Drivers/lvgl/src/extra/widgets/colorwheel/../../../../src/core/lv_obj_style_gen.h **** {
 201:Drivers/lvgl/src/extra/widgets/colorwheel/../../../../src/core/lv_obj_style_gen.h ****     lv_style_value_t v = lv_obj_get_style_prop(obj, part, LV_STYLE_BG_IMG_SRC);
 202:Drivers/lvgl/src/extra/widgets/colorwheel/../../../../src/core/lv_obj_style_gen.h ****     return (const void *)v.ptr;
 203:Drivers/lvgl/src/extra/widgets/colorwheel/../../../../src/core/lv_obj_style_gen.h **** }
 204:Drivers/lvgl/src/extra/widgets/colorwheel/../../../../src/core/lv_obj_style_gen.h **** 
 205:Drivers/lvgl/src/extra/widgets/colorwheel/../../../../src/core/lv_obj_style_gen.h **** static inline lv_opa_t lv_obj_get_style_bg_img_opa(const struct _lv_obj_t * obj, uint32_t part)
 206:Drivers/lvgl/src/extra/widgets/colorwheel/../../../../src/core/lv_obj_style_gen.h **** {
 207:Drivers/lvgl/src/extra/widgets/colorwheel/../../../../src/core/lv_obj_style_gen.h ****     lv_style_value_t v = lv_obj_get_style_prop(obj, part, LV_STYLE_BG_IMG_OPA);
 208:Drivers/lvgl/src/extra/widgets/colorwheel/../../../../src/core/lv_obj_style_gen.h ****     return (lv_opa_t)v.num;
 209:Drivers/lvgl/src/extra/widgets/colorwheel/../../../../src/core/lv_obj_style_gen.h **** }
 210:Drivers/lvgl/src/extra/widgets/colorwheel/../../../../src/core/lv_obj_style_gen.h **** 
 211:Drivers/lvgl/src/extra/widgets/colorwheel/../../../../src/core/lv_obj_style_gen.h **** static inline lv_color_t lv_obj_get_style_bg_img_recolor(const struct _lv_obj_t * obj, uint32_t par
 212:Drivers/lvgl/src/extra/widgets/colorwheel/../../../../src/core/lv_obj_style_gen.h **** {
 213:Drivers/lvgl/src/extra/widgets/colorwheel/../../../../src/core/lv_obj_style_gen.h ****     lv_style_value_t v = lv_obj_get_style_prop(obj, part, LV_STYLE_BG_IMG_RECOLOR);
 214:Drivers/lvgl/src/extra/widgets/colorwheel/../../../../src/core/lv_obj_style_gen.h ****     return v.color;
 215:Drivers/lvgl/src/extra/widgets/colorwheel/../../../../src/core/lv_obj_style_gen.h **** }
 216:Drivers/lvgl/src/extra/widgets/colorwheel/../../../../src/core/lv_obj_style_gen.h **** 
 217:Drivers/lvgl/src/extra/widgets/colorwheel/../../../../src/core/lv_obj_style_gen.h **** static inline lv_color_t lv_obj_get_style_bg_img_recolor_filtered(const struct _lv_obj_t * obj, uin
 218:Drivers/lvgl/src/extra/widgets/colorwheel/../../../../src/core/lv_obj_style_gen.h **** {
 219:Drivers/lvgl/src/extra/widgets/colorwheel/../../../../src/core/lv_obj_style_gen.h ****     lv_style_value_t v = _lv_obj_style_apply_color_filter(obj, part, lv_obj_get_style_prop(obj, par
 220:Drivers/lvgl/src/extra/widgets/colorwheel/../../../../src/core/lv_obj_style_gen.h ****     return v.color;
 221:Drivers/lvgl/src/extra/widgets/colorwheel/../../../../src/core/lv_obj_style_gen.h **** }
 222:Drivers/lvgl/src/extra/widgets/colorwheel/../../../../src/core/lv_obj_style_gen.h **** 
 223:Drivers/lvgl/src/extra/widgets/colorwheel/../../../../src/core/lv_obj_style_gen.h **** static inline lv_opa_t lv_obj_get_style_bg_img_recolor_opa(const struct _lv_obj_t * obj, uint32_t p
 224:Drivers/lvgl/src/extra/widgets/colorwheel/../../../../src/core/lv_obj_style_gen.h **** {
 225:Drivers/lvgl/src/extra/widgets/colorwheel/../../../../src/core/lv_obj_style_gen.h ****     lv_style_value_t v = lv_obj_get_style_prop(obj, part, LV_STYLE_BG_IMG_RECOLOR_OPA);
 226:Drivers/lvgl/src/extra/widgets/colorwheel/../../../../src/core/lv_obj_style_gen.h ****     return (lv_opa_t)v.num;
 227:Drivers/lvgl/src/extra/widgets/colorwheel/../../../../src/core/lv_obj_style_gen.h **** }
 228:Drivers/lvgl/src/extra/widgets/colorwheel/../../../../src/core/lv_obj_style_gen.h **** 
 229:Drivers/lvgl/src/extra/widgets/colorwheel/../../../../src/core/lv_obj_style_gen.h **** static inline bool lv_obj_get_style_bg_img_tiled(const struct _lv_obj_t * obj, uint32_t part)
 230:Drivers/lvgl/src/extra/widgets/colorwheel/../../../../src/core/lv_obj_style_gen.h **** {
 231:Drivers/lvgl/src/extra/widgets/colorwheel/../../../../src/core/lv_obj_style_gen.h ****     lv_style_value_t v = lv_obj_get_style_prop(obj, part, LV_STYLE_BG_IMG_TILED);
 232:Drivers/lvgl/src/extra/widgets/colorwheel/../../../../src/core/lv_obj_style_gen.h ****     return (bool)v.num;
 233:Drivers/lvgl/src/extra/widgets/colorwheel/../../../../src/core/lv_obj_style_gen.h **** }
ARM GAS  /var/folders/lp/x54gwt890xv47sdkqj1k04q40000gn/T//ccueOQ8a.s 			page 12


 234:Drivers/lvgl/src/extra/widgets/colorwheel/../../../../src/core/lv_obj_style_gen.h **** 
 235:Drivers/lvgl/src/extra/widgets/colorwheel/../../../../src/core/lv_obj_style_gen.h **** static inline lv_color_t lv_obj_get_style_border_color(const struct _lv_obj_t * obj, uint32_t part)
 236:Drivers/lvgl/src/extra/widgets/colorwheel/../../../../src/core/lv_obj_style_gen.h **** {
 237:Drivers/lvgl/src/extra/widgets/colorwheel/../../../../src/core/lv_obj_style_gen.h ****     lv_style_value_t v = lv_obj_get_style_prop(obj, part, LV_STYLE_BORDER_COLOR);
 238:Drivers/lvgl/src/extra/widgets/colorwheel/../../../../src/core/lv_obj_style_gen.h ****     return v.color;
 239:Drivers/lvgl/src/extra/widgets/colorwheel/../../../../src/core/lv_obj_style_gen.h **** }
 240:Drivers/lvgl/src/extra/widgets/colorwheel/../../../../src/core/lv_obj_style_gen.h **** 
 241:Drivers/lvgl/src/extra/widgets/colorwheel/../../../../src/core/lv_obj_style_gen.h **** static inline lv_color_t lv_obj_get_style_border_color_filtered(const struct _lv_obj_t * obj, uint3
 242:Drivers/lvgl/src/extra/widgets/colorwheel/../../../../src/core/lv_obj_style_gen.h **** {
 243:Drivers/lvgl/src/extra/widgets/colorwheel/../../../../src/core/lv_obj_style_gen.h ****     lv_style_value_t v = _lv_obj_style_apply_color_filter(obj, part, lv_obj_get_style_prop(obj, par
 244:Drivers/lvgl/src/extra/widgets/colorwheel/../../../../src/core/lv_obj_style_gen.h ****     return v.color;
 245:Drivers/lvgl/src/extra/widgets/colorwheel/../../../../src/core/lv_obj_style_gen.h **** }
 246:Drivers/lvgl/src/extra/widgets/colorwheel/../../../../src/core/lv_obj_style_gen.h **** 
 247:Drivers/lvgl/src/extra/widgets/colorwheel/../../../../src/core/lv_obj_style_gen.h **** static inline lv_opa_t lv_obj_get_style_border_opa(const struct _lv_obj_t * obj, uint32_t part)
 248:Drivers/lvgl/src/extra/widgets/colorwheel/../../../../src/core/lv_obj_style_gen.h **** {
 249:Drivers/lvgl/src/extra/widgets/colorwheel/../../../../src/core/lv_obj_style_gen.h ****     lv_style_value_t v = lv_obj_get_style_prop(obj, part, LV_STYLE_BORDER_OPA);
 250:Drivers/lvgl/src/extra/widgets/colorwheel/../../../../src/core/lv_obj_style_gen.h ****     return (lv_opa_t)v.num;
 251:Drivers/lvgl/src/extra/widgets/colorwheel/../../../../src/core/lv_obj_style_gen.h **** }
 252:Drivers/lvgl/src/extra/widgets/colorwheel/../../../../src/core/lv_obj_style_gen.h **** 
 253:Drivers/lvgl/src/extra/widgets/colorwheel/../../../../src/core/lv_obj_style_gen.h **** static inline lv_coord_t lv_obj_get_style_border_width(const struct _lv_obj_t * obj, uint32_t part)
 254:Drivers/lvgl/src/extra/widgets/colorwheel/../../../../src/core/lv_obj_style_gen.h **** {
 255:Drivers/lvgl/src/extra/widgets/colorwheel/../../../../src/core/lv_obj_style_gen.h ****     lv_style_value_t v = lv_obj_get_style_prop(obj, part, LV_STYLE_BORDER_WIDTH);
 256:Drivers/lvgl/src/extra/widgets/colorwheel/../../../../src/core/lv_obj_style_gen.h ****     return (lv_coord_t)v.num;
 257:Drivers/lvgl/src/extra/widgets/colorwheel/../../../../src/core/lv_obj_style_gen.h **** }
 258:Drivers/lvgl/src/extra/widgets/colorwheel/../../../../src/core/lv_obj_style_gen.h **** 
 259:Drivers/lvgl/src/extra/widgets/colorwheel/../../../../src/core/lv_obj_style_gen.h **** static inline lv_border_side_t lv_obj_get_style_border_side(const struct _lv_obj_t * obj, uint32_t 
 260:Drivers/lvgl/src/extra/widgets/colorwheel/../../../../src/core/lv_obj_style_gen.h **** {
 261:Drivers/lvgl/src/extra/widgets/colorwheel/../../../../src/core/lv_obj_style_gen.h ****     lv_style_value_t v = lv_obj_get_style_prop(obj, part, LV_STYLE_BORDER_SIDE);
 262:Drivers/lvgl/src/extra/widgets/colorwheel/../../../../src/core/lv_obj_style_gen.h ****     return (lv_border_side_t)v.num;
 263:Drivers/lvgl/src/extra/widgets/colorwheel/../../../../src/core/lv_obj_style_gen.h **** }
 264:Drivers/lvgl/src/extra/widgets/colorwheel/../../../../src/core/lv_obj_style_gen.h **** 
 265:Drivers/lvgl/src/extra/widgets/colorwheel/../../../../src/core/lv_obj_style_gen.h **** static inline bool lv_obj_get_style_border_post(const struct _lv_obj_t * obj, uint32_t part)
 266:Drivers/lvgl/src/extra/widgets/colorwheel/../../../../src/core/lv_obj_style_gen.h **** {
 267:Drivers/lvgl/src/extra/widgets/colorwheel/../../../../src/core/lv_obj_style_gen.h ****     lv_style_value_t v = lv_obj_get_style_prop(obj, part, LV_STYLE_BORDER_POST);
 268:Drivers/lvgl/src/extra/widgets/colorwheel/../../../../src/core/lv_obj_style_gen.h ****     return (bool)v.num;
 269:Drivers/lvgl/src/extra/widgets/colorwheel/../../../../src/core/lv_obj_style_gen.h **** }
 270:Drivers/lvgl/src/extra/widgets/colorwheel/../../../../src/core/lv_obj_style_gen.h **** 
 271:Drivers/lvgl/src/extra/widgets/colorwheel/../../../../src/core/lv_obj_style_gen.h **** static inline lv_coord_t lv_obj_get_style_outline_width(const struct _lv_obj_t * obj, uint32_t part
 272:Drivers/lvgl/src/extra/widgets/colorwheel/../../../../src/core/lv_obj_style_gen.h **** {
 273:Drivers/lvgl/src/extra/widgets/colorwheel/../../../../src/core/lv_obj_style_gen.h ****     lv_style_value_t v = lv_obj_get_style_prop(obj, part, LV_STYLE_OUTLINE_WIDTH);
 274:Drivers/lvgl/src/extra/widgets/colorwheel/../../../../src/core/lv_obj_style_gen.h ****     return (lv_coord_t)v.num;
 275:Drivers/lvgl/src/extra/widgets/colorwheel/../../../../src/core/lv_obj_style_gen.h **** }
 276:Drivers/lvgl/src/extra/widgets/colorwheel/../../../../src/core/lv_obj_style_gen.h **** 
 277:Drivers/lvgl/src/extra/widgets/colorwheel/../../../../src/core/lv_obj_style_gen.h **** static inline lv_color_t lv_obj_get_style_outline_color(const struct _lv_obj_t * obj, uint32_t part
 278:Drivers/lvgl/src/extra/widgets/colorwheel/../../../../src/core/lv_obj_style_gen.h **** {
 279:Drivers/lvgl/src/extra/widgets/colorwheel/../../../../src/core/lv_obj_style_gen.h ****     lv_style_value_t v = lv_obj_get_style_prop(obj, part, LV_STYLE_OUTLINE_COLOR);
 280:Drivers/lvgl/src/extra/widgets/colorwheel/../../../../src/core/lv_obj_style_gen.h ****     return v.color;
 281:Drivers/lvgl/src/extra/widgets/colorwheel/../../../../src/core/lv_obj_style_gen.h **** }
 282:Drivers/lvgl/src/extra/widgets/colorwheel/../../../../src/core/lv_obj_style_gen.h **** 
 283:Drivers/lvgl/src/extra/widgets/colorwheel/../../../../src/core/lv_obj_style_gen.h **** static inline lv_color_t lv_obj_get_style_outline_color_filtered(const struct _lv_obj_t * obj, uint
 284:Drivers/lvgl/src/extra/widgets/colorwheel/../../../../src/core/lv_obj_style_gen.h **** {
 285:Drivers/lvgl/src/extra/widgets/colorwheel/../../../../src/core/lv_obj_style_gen.h ****     lv_style_value_t v = _lv_obj_style_apply_color_filter(obj, part, lv_obj_get_style_prop(obj, par
 286:Drivers/lvgl/src/extra/widgets/colorwheel/../../../../src/core/lv_obj_style_gen.h ****     return v.color;
 287:Drivers/lvgl/src/extra/widgets/colorwheel/../../../../src/core/lv_obj_style_gen.h **** }
 288:Drivers/lvgl/src/extra/widgets/colorwheel/../../../../src/core/lv_obj_style_gen.h **** 
 289:Drivers/lvgl/src/extra/widgets/colorwheel/../../../../src/core/lv_obj_style_gen.h **** static inline lv_opa_t lv_obj_get_style_outline_opa(const struct _lv_obj_t * obj, uint32_t part)
 290:Drivers/lvgl/src/extra/widgets/colorwheel/../../../../src/core/lv_obj_style_gen.h **** {
ARM GAS  /var/folders/lp/x54gwt890xv47sdkqj1k04q40000gn/T//ccueOQ8a.s 			page 13


 291:Drivers/lvgl/src/extra/widgets/colorwheel/../../../../src/core/lv_obj_style_gen.h ****     lv_style_value_t v = lv_obj_get_style_prop(obj, part, LV_STYLE_OUTLINE_OPA);
 292:Drivers/lvgl/src/extra/widgets/colorwheel/../../../../src/core/lv_obj_style_gen.h ****     return (lv_opa_t)v.num;
 293:Drivers/lvgl/src/extra/widgets/colorwheel/../../../../src/core/lv_obj_style_gen.h **** }
 294:Drivers/lvgl/src/extra/widgets/colorwheel/../../../../src/core/lv_obj_style_gen.h **** 
 295:Drivers/lvgl/src/extra/widgets/colorwheel/../../../../src/core/lv_obj_style_gen.h **** static inline lv_coord_t lv_obj_get_style_outline_pad(const struct _lv_obj_t * obj, uint32_t part)
 296:Drivers/lvgl/src/extra/widgets/colorwheel/../../../../src/core/lv_obj_style_gen.h **** {
 297:Drivers/lvgl/src/extra/widgets/colorwheel/../../../../src/core/lv_obj_style_gen.h ****     lv_style_value_t v = lv_obj_get_style_prop(obj, part, LV_STYLE_OUTLINE_PAD);
 298:Drivers/lvgl/src/extra/widgets/colorwheel/../../../../src/core/lv_obj_style_gen.h ****     return (lv_coord_t)v.num;
 299:Drivers/lvgl/src/extra/widgets/colorwheel/../../../../src/core/lv_obj_style_gen.h **** }
 300:Drivers/lvgl/src/extra/widgets/colorwheel/../../../../src/core/lv_obj_style_gen.h **** 
 301:Drivers/lvgl/src/extra/widgets/colorwheel/../../../../src/core/lv_obj_style_gen.h **** static inline lv_coord_t lv_obj_get_style_shadow_width(const struct _lv_obj_t * obj, uint32_t part)
 302:Drivers/lvgl/src/extra/widgets/colorwheel/../../../../src/core/lv_obj_style_gen.h **** {
 303:Drivers/lvgl/src/extra/widgets/colorwheel/../../../../src/core/lv_obj_style_gen.h ****     lv_style_value_t v = lv_obj_get_style_prop(obj, part, LV_STYLE_SHADOW_WIDTH);
 304:Drivers/lvgl/src/extra/widgets/colorwheel/../../../../src/core/lv_obj_style_gen.h ****     return (lv_coord_t)v.num;
 305:Drivers/lvgl/src/extra/widgets/colorwheel/../../../../src/core/lv_obj_style_gen.h **** }
 306:Drivers/lvgl/src/extra/widgets/colorwheel/../../../../src/core/lv_obj_style_gen.h **** 
 307:Drivers/lvgl/src/extra/widgets/colorwheel/../../../../src/core/lv_obj_style_gen.h **** static inline lv_coord_t lv_obj_get_style_shadow_ofs_x(const struct _lv_obj_t * obj, uint32_t part)
 308:Drivers/lvgl/src/extra/widgets/colorwheel/../../../../src/core/lv_obj_style_gen.h **** {
 309:Drivers/lvgl/src/extra/widgets/colorwheel/../../../../src/core/lv_obj_style_gen.h ****     lv_style_value_t v = lv_obj_get_style_prop(obj, part, LV_STYLE_SHADOW_OFS_X);
 310:Drivers/lvgl/src/extra/widgets/colorwheel/../../../../src/core/lv_obj_style_gen.h ****     return (lv_coord_t)v.num;
 311:Drivers/lvgl/src/extra/widgets/colorwheel/../../../../src/core/lv_obj_style_gen.h **** }
 312:Drivers/lvgl/src/extra/widgets/colorwheel/../../../../src/core/lv_obj_style_gen.h **** 
 313:Drivers/lvgl/src/extra/widgets/colorwheel/../../../../src/core/lv_obj_style_gen.h **** static inline lv_coord_t lv_obj_get_style_shadow_ofs_y(const struct _lv_obj_t * obj, uint32_t part)
 314:Drivers/lvgl/src/extra/widgets/colorwheel/../../../../src/core/lv_obj_style_gen.h **** {
 315:Drivers/lvgl/src/extra/widgets/colorwheel/../../../../src/core/lv_obj_style_gen.h ****     lv_style_value_t v = lv_obj_get_style_prop(obj, part, LV_STYLE_SHADOW_OFS_Y);
 316:Drivers/lvgl/src/extra/widgets/colorwheel/../../../../src/core/lv_obj_style_gen.h ****     return (lv_coord_t)v.num;
 317:Drivers/lvgl/src/extra/widgets/colorwheel/../../../../src/core/lv_obj_style_gen.h **** }
 318:Drivers/lvgl/src/extra/widgets/colorwheel/../../../../src/core/lv_obj_style_gen.h **** 
 319:Drivers/lvgl/src/extra/widgets/colorwheel/../../../../src/core/lv_obj_style_gen.h **** static inline lv_coord_t lv_obj_get_style_shadow_spread(const struct _lv_obj_t * obj, uint32_t part
 320:Drivers/lvgl/src/extra/widgets/colorwheel/../../../../src/core/lv_obj_style_gen.h **** {
 321:Drivers/lvgl/src/extra/widgets/colorwheel/../../../../src/core/lv_obj_style_gen.h ****     lv_style_value_t v = lv_obj_get_style_prop(obj, part, LV_STYLE_SHADOW_SPREAD);
 322:Drivers/lvgl/src/extra/widgets/colorwheel/../../../../src/core/lv_obj_style_gen.h ****     return (lv_coord_t)v.num;
 323:Drivers/lvgl/src/extra/widgets/colorwheel/../../../../src/core/lv_obj_style_gen.h **** }
 324:Drivers/lvgl/src/extra/widgets/colorwheel/../../../../src/core/lv_obj_style_gen.h **** 
 325:Drivers/lvgl/src/extra/widgets/colorwheel/../../../../src/core/lv_obj_style_gen.h **** static inline lv_color_t lv_obj_get_style_shadow_color(const struct _lv_obj_t * obj, uint32_t part)
 326:Drivers/lvgl/src/extra/widgets/colorwheel/../../../../src/core/lv_obj_style_gen.h **** {
 327:Drivers/lvgl/src/extra/widgets/colorwheel/../../../../src/core/lv_obj_style_gen.h ****     lv_style_value_t v = lv_obj_get_style_prop(obj, part, LV_STYLE_SHADOW_COLOR);
 328:Drivers/lvgl/src/extra/widgets/colorwheel/../../../../src/core/lv_obj_style_gen.h ****     return v.color;
 329:Drivers/lvgl/src/extra/widgets/colorwheel/../../../../src/core/lv_obj_style_gen.h **** }
 330:Drivers/lvgl/src/extra/widgets/colorwheel/../../../../src/core/lv_obj_style_gen.h **** 
 331:Drivers/lvgl/src/extra/widgets/colorwheel/../../../../src/core/lv_obj_style_gen.h **** static inline lv_color_t lv_obj_get_style_shadow_color_filtered(const struct _lv_obj_t * obj, uint3
 332:Drivers/lvgl/src/extra/widgets/colorwheel/../../../../src/core/lv_obj_style_gen.h **** {
 333:Drivers/lvgl/src/extra/widgets/colorwheel/../../../../src/core/lv_obj_style_gen.h ****     lv_style_value_t v = _lv_obj_style_apply_color_filter(obj, part, lv_obj_get_style_prop(obj, par
 334:Drivers/lvgl/src/extra/widgets/colorwheel/../../../../src/core/lv_obj_style_gen.h ****     return v.color;
 335:Drivers/lvgl/src/extra/widgets/colorwheel/../../../../src/core/lv_obj_style_gen.h **** }
 336:Drivers/lvgl/src/extra/widgets/colorwheel/../../../../src/core/lv_obj_style_gen.h **** 
 337:Drivers/lvgl/src/extra/widgets/colorwheel/../../../../src/core/lv_obj_style_gen.h **** static inline lv_opa_t lv_obj_get_style_shadow_opa(const struct _lv_obj_t * obj, uint32_t part)
 338:Drivers/lvgl/src/extra/widgets/colorwheel/../../../../src/core/lv_obj_style_gen.h **** {
 339:Drivers/lvgl/src/extra/widgets/colorwheel/../../../../src/core/lv_obj_style_gen.h ****     lv_style_value_t v = lv_obj_get_style_prop(obj, part, LV_STYLE_SHADOW_OPA);
 340:Drivers/lvgl/src/extra/widgets/colorwheel/../../../../src/core/lv_obj_style_gen.h ****     return (lv_opa_t)v.num;
 341:Drivers/lvgl/src/extra/widgets/colorwheel/../../../../src/core/lv_obj_style_gen.h **** }
 342:Drivers/lvgl/src/extra/widgets/colorwheel/../../../../src/core/lv_obj_style_gen.h **** 
 343:Drivers/lvgl/src/extra/widgets/colorwheel/../../../../src/core/lv_obj_style_gen.h **** static inline lv_opa_t lv_obj_get_style_img_opa(const struct _lv_obj_t * obj, uint32_t part)
 344:Drivers/lvgl/src/extra/widgets/colorwheel/../../../../src/core/lv_obj_style_gen.h **** {
 345:Drivers/lvgl/src/extra/widgets/colorwheel/../../../../src/core/lv_obj_style_gen.h ****     lv_style_value_t v = lv_obj_get_style_prop(obj, part, LV_STYLE_IMG_OPA);
 346:Drivers/lvgl/src/extra/widgets/colorwheel/../../../../src/core/lv_obj_style_gen.h ****     return (lv_opa_t)v.num;
 347:Drivers/lvgl/src/extra/widgets/colorwheel/../../../../src/core/lv_obj_style_gen.h **** }
ARM GAS  /var/folders/lp/x54gwt890xv47sdkqj1k04q40000gn/T//ccueOQ8a.s 			page 14


 348:Drivers/lvgl/src/extra/widgets/colorwheel/../../../../src/core/lv_obj_style_gen.h **** 
 349:Drivers/lvgl/src/extra/widgets/colorwheel/../../../../src/core/lv_obj_style_gen.h **** static inline lv_color_t lv_obj_get_style_img_recolor(const struct _lv_obj_t * obj, uint32_t part)
 350:Drivers/lvgl/src/extra/widgets/colorwheel/../../../../src/core/lv_obj_style_gen.h **** {
 351:Drivers/lvgl/src/extra/widgets/colorwheel/../../../../src/core/lv_obj_style_gen.h ****     lv_style_value_t v = lv_obj_get_style_prop(obj, part, LV_STYLE_IMG_RECOLOR);
 352:Drivers/lvgl/src/extra/widgets/colorwheel/../../../../src/core/lv_obj_style_gen.h ****     return v.color;
 353:Drivers/lvgl/src/extra/widgets/colorwheel/../../../../src/core/lv_obj_style_gen.h **** }
 354:Drivers/lvgl/src/extra/widgets/colorwheel/../../../../src/core/lv_obj_style_gen.h **** 
 355:Drivers/lvgl/src/extra/widgets/colorwheel/../../../../src/core/lv_obj_style_gen.h **** static inline lv_color_t lv_obj_get_style_img_recolor_filtered(const struct _lv_obj_t * obj, uint32
 356:Drivers/lvgl/src/extra/widgets/colorwheel/../../../../src/core/lv_obj_style_gen.h **** {
 357:Drivers/lvgl/src/extra/widgets/colorwheel/../../../../src/core/lv_obj_style_gen.h ****     lv_style_value_t v = _lv_obj_style_apply_color_filter(obj, part, lv_obj_get_style_prop(obj, par
 358:Drivers/lvgl/src/extra/widgets/colorwheel/../../../../src/core/lv_obj_style_gen.h ****     return v.color;
 359:Drivers/lvgl/src/extra/widgets/colorwheel/../../../../src/core/lv_obj_style_gen.h **** }
 360:Drivers/lvgl/src/extra/widgets/colorwheel/../../../../src/core/lv_obj_style_gen.h **** 
 361:Drivers/lvgl/src/extra/widgets/colorwheel/../../../../src/core/lv_obj_style_gen.h **** static inline lv_opa_t lv_obj_get_style_img_recolor_opa(const struct _lv_obj_t * obj, uint32_t part
 362:Drivers/lvgl/src/extra/widgets/colorwheel/../../../../src/core/lv_obj_style_gen.h **** {
 363:Drivers/lvgl/src/extra/widgets/colorwheel/../../../../src/core/lv_obj_style_gen.h ****     lv_style_value_t v = lv_obj_get_style_prop(obj, part, LV_STYLE_IMG_RECOLOR_OPA);
 364:Drivers/lvgl/src/extra/widgets/colorwheel/../../../../src/core/lv_obj_style_gen.h ****     return (lv_opa_t)v.num;
 365:Drivers/lvgl/src/extra/widgets/colorwheel/../../../../src/core/lv_obj_style_gen.h **** }
 366:Drivers/lvgl/src/extra/widgets/colorwheel/../../../../src/core/lv_obj_style_gen.h **** 
 367:Drivers/lvgl/src/extra/widgets/colorwheel/../../../../src/core/lv_obj_style_gen.h **** static inline lv_coord_t lv_obj_get_style_line_width(const struct _lv_obj_t * obj, uint32_t part)
 368:Drivers/lvgl/src/extra/widgets/colorwheel/../../../../src/core/lv_obj_style_gen.h **** {
 369:Drivers/lvgl/src/extra/widgets/colorwheel/../../../../src/core/lv_obj_style_gen.h ****     lv_style_value_t v = lv_obj_get_style_prop(obj, part, LV_STYLE_LINE_WIDTH);
 370:Drivers/lvgl/src/extra/widgets/colorwheel/../../../../src/core/lv_obj_style_gen.h ****     return (lv_coord_t)v.num;
 371:Drivers/lvgl/src/extra/widgets/colorwheel/../../../../src/core/lv_obj_style_gen.h **** }
 372:Drivers/lvgl/src/extra/widgets/colorwheel/../../../../src/core/lv_obj_style_gen.h **** 
 373:Drivers/lvgl/src/extra/widgets/colorwheel/../../../../src/core/lv_obj_style_gen.h **** static inline lv_coord_t lv_obj_get_style_line_dash_width(const struct _lv_obj_t * obj, uint32_t pa
 374:Drivers/lvgl/src/extra/widgets/colorwheel/../../../../src/core/lv_obj_style_gen.h **** {
 375:Drivers/lvgl/src/extra/widgets/colorwheel/../../../../src/core/lv_obj_style_gen.h ****     lv_style_value_t v = lv_obj_get_style_prop(obj, part, LV_STYLE_LINE_DASH_WIDTH);
 376:Drivers/lvgl/src/extra/widgets/colorwheel/../../../../src/core/lv_obj_style_gen.h ****     return (lv_coord_t)v.num;
 377:Drivers/lvgl/src/extra/widgets/colorwheel/../../../../src/core/lv_obj_style_gen.h **** }
 378:Drivers/lvgl/src/extra/widgets/colorwheel/../../../../src/core/lv_obj_style_gen.h **** 
 379:Drivers/lvgl/src/extra/widgets/colorwheel/../../../../src/core/lv_obj_style_gen.h **** static inline lv_coord_t lv_obj_get_style_line_dash_gap(const struct _lv_obj_t * obj, uint32_t part
 380:Drivers/lvgl/src/extra/widgets/colorwheel/../../../../src/core/lv_obj_style_gen.h **** {
 381:Drivers/lvgl/src/extra/widgets/colorwheel/../../../../src/core/lv_obj_style_gen.h ****     lv_style_value_t v = lv_obj_get_style_prop(obj, part, LV_STYLE_LINE_DASH_GAP);
 382:Drivers/lvgl/src/extra/widgets/colorwheel/../../../../src/core/lv_obj_style_gen.h ****     return (lv_coord_t)v.num;
 383:Drivers/lvgl/src/extra/widgets/colorwheel/../../../../src/core/lv_obj_style_gen.h **** }
 384:Drivers/lvgl/src/extra/widgets/colorwheel/../../../../src/core/lv_obj_style_gen.h **** 
 385:Drivers/lvgl/src/extra/widgets/colorwheel/../../../../src/core/lv_obj_style_gen.h **** static inline bool lv_obj_get_style_line_rounded(const struct _lv_obj_t * obj, uint32_t part)
 386:Drivers/lvgl/src/extra/widgets/colorwheel/../../../../src/core/lv_obj_style_gen.h **** {
 387:Drivers/lvgl/src/extra/widgets/colorwheel/../../../../src/core/lv_obj_style_gen.h ****     lv_style_value_t v = lv_obj_get_style_prop(obj, part, LV_STYLE_LINE_ROUNDED);
 388:Drivers/lvgl/src/extra/widgets/colorwheel/../../../../src/core/lv_obj_style_gen.h ****     return (bool)v.num;
 389:Drivers/lvgl/src/extra/widgets/colorwheel/../../../../src/core/lv_obj_style_gen.h **** }
 390:Drivers/lvgl/src/extra/widgets/colorwheel/../../../../src/core/lv_obj_style_gen.h **** 
 391:Drivers/lvgl/src/extra/widgets/colorwheel/../../../../src/core/lv_obj_style_gen.h **** static inline lv_color_t lv_obj_get_style_line_color(const struct _lv_obj_t * obj, uint32_t part)
 392:Drivers/lvgl/src/extra/widgets/colorwheel/../../../../src/core/lv_obj_style_gen.h **** {
 393:Drivers/lvgl/src/extra/widgets/colorwheel/../../../../src/core/lv_obj_style_gen.h ****     lv_style_value_t v = lv_obj_get_style_prop(obj, part, LV_STYLE_LINE_COLOR);
 394:Drivers/lvgl/src/extra/widgets/colorwheel/../../../../src/core/lv_obj_style_gen.h ****     return v.color;
 395:Drivers/lvgl/src/extra/widgets/colorwheel/../../../../src/core/lv_obj_style_gen.h **** }
 396:Drivers/lvgl/src/extra/widgets/colorwheel/../../../../src/core/lv_obj_style_gen.h **** 
 397:Drivers/lvgl/src/extra/widgets/colorwheel/../../../../src/core/lv_obj_style_gen.h **** static inline lv_color_t lv_obj_get_style_line_color_filtered(const struct _lv_obj_t * obj, uint32_
 398:Drivers/lvgl/src/extra/widgets/colorwheel/../../../../src/core/lv_obj_style_gen.h **** {
 399:Drivers/lvgl/src/extra/widgets/colorwheel/../../../../src/core/lv_obj_style_gen.h ****     lv_style_value_t v = _lv_obj_style_apply_color_filter(obj, part, lv_obj_get_style_prop(obj, par
 400:Drivers/lvgl/src/extra/widgets/colorwheel/../../../../src/core/lv_obj_style_gen.h ****     return v.color;
 401:Drivers/lvgl/src/extra/widgets/colorwheel/../../../../src/core/lv_obj_style_gen.h **** }
 402:Drivers/lvgl/src/extra/widgets/colorwheel/../../../../src/core/lv_obj_style_gen.h **** 
 403:Drivers/lvgl/src/extra/widgets/colorwheel/../../../../src/core/lv_obj_style_gen.h **** static inline lv_opa_t lv_obj_get_style_line_opa(const struct _lv_obj_t * obj, uint32_t part)
 404:Drivers/lvgl/src/extra/widgets/colorwheel/../../../../src/core/lv_obj_style_gen.h **** {
ARM GAS  /var/folders/lp/x54gwt890xv47sdkqj1k04q40000gn/T//ccueOQ8a.s 			page 15


 405:Drivers/lvgl/src/extra/widgets/colorwheel/../../../../src/core/lv_obj_style_gen.h ****     lv_style_value_t v = lv_obj_get_style_prop(obj, part, LV_STYLE_LINE_OPA);
 406:Drivers/lvgl/src/extra/widgets/colorwheel/../../../../src/core/lv_obj_style_gen.h ****     return (lv_opa_t)v.num;
 407:Drivers/lvgl/src/extra/widgets/colorwheel/../../../../src/core/lv_obj_style_gen.h **** }
 408:Drivers/lvgl/src/extra/widgets/colorwheel/../../../../src/core/lv_obj_style_gen.h **** 
 409:Drivers/lvgl/src/extra/widgets/colorwheel/../../../../src/core/lv_obj_style_gen.h **** static inline lv_coord_t lv_obj_get_style_arc_width(const struct _lv_obj_t * obj, uint32_t part)
  54              		.loc 2 409 26 view .LVU6
  55              	.LBB78:
 410:Drivers/lvgl/src/extra/widgets/colorwheel/../../../../src/core/lv_obj_style_gen.h **** {
 411:Drivers/lvgl/src/extra/widgets/colorwheel/../../../../src/core/lv_obj_style_gen.h ****     lv_style_value_t v = lv_obj_get_style_prop(obj, part, LV_STYLE_ARC_WIDTH);
  56              		.loc 2 411 5 view .LVU7
  57              	.LBE78:
  58              	.LBE77:
 335:Drivers/lvgl/src/extra/widgets/colorwheel/lv_colorwheel.c ****     lv_colorwheel_t * colorwheel = (lv_colorwheel_t *)obj;
  59              		.loc 1 335 1 is_stmt 0 view .LVU8
  60 0006 0646     		mov	r6, r0
  61              	.LBB80:
  62              	.LBB79:
  63              		.loc 2 411 26 view .LVU9
  64 0008 5022     		movs	r2, #80
  65 000a 0021     		movs	r1, #0
  66              	.LVL2:
  67              		.loc 2 411 26 view .LVU10
  68 000c 2046     		mov	r0, r4
  69              	.LVL3:
  70              		.loc 2 411 26 view .LVU11
  71 000e FFF7FEFF 		bl	lv_obj_get_style_prop
  72              	.LVL4:
 412:Drivers/lvgl/src/extra/widgets/colorwheel/../../../../src/core/lv_obj_style_gen.h ****     return (lv_coord_t)v.num;
  73              		.loc 2 412 5 is_stmt 1 view .LVU12
  74              		.loc 2 412 5 is_stmt 0 view .LVU13
  75              	.LBE79:
  76              	.LBE80:
  77              		.loc 1 340 7 discriminator 1 view .LVU14
  78 0012 C0F3C033 		ubfx	r3, r0, #15, #1
  79 0016 03FA80F0 		sxtah	r0, r3, r0
  80 001a C0F34F05 		ubfx	r5, r0, #1, #16
  81              	.LVL5:
 341:Drivers/lvgl/src/extra/widgets/colorwheel/lv_colorwheel.c **** 
 342:Drivers/lvgl/src/extra/widgets/colorwheel/lv_colorwheel.c ****     lv_coord_t left = lv_obj_get_style_pad_left(obj, LV_PART_KNOB);
  82              		.loc 1 342 5 is_stmt 1 view .LVU15
  83              	.LBB81:
  84              	.LBI81:
 115:Drivers/lvgl/src/extra/widgets/colorwheel/../../../../src/core/lv_obj_style_gen.h **** {
  85              		.loc 2 115 26 view .LVU16
  86              	.LBB82:
 117:Drivers/lvgl/src/extra/widgets/colorwheel/../../../../src/core/lv_obj_style_gen.h ****     return (lv_coord_t)v.num;
  87              		.loc 2 117 5 view .LVU17
 117:Drivers/lvgl/src/extra/widgets/colorwheel/../../../../src/core/lv_obj_style_gen.h ****     return (lv_coord_t)v.num;
  88              		.loc 2 117 26 is_stmt 0 view .LVU18
  89 001e 1222     		movs	r2, #18
  90 0020 4FF44031 		mov	r1, #196608
  91 0024 2046     		mov	r0, r4
  92 0026 FFF7FEFF 		bl	lv_obj_get_style_prop
  93              	.LVL6:
  94              	.LBE82:
  95              	.LBE81:
  96              	.LBB84:
ARM GAS  /var/folders/lp/x54gwt890xv47sdkqj1k04q40000gn/T//ccueOQ8a.s 			page 16


  97              	.LBB85:
 123:Drivers/lvgl/src/extra/widgets/colorwheel/../../../../src/core/lv_obj_style_gen.h ****     return (lv_coord_t)v.num;
  98              		.loc 2 123 26 view .LVU19
  99 002a 1322     		movs	r2, #19
 100              	.LBE85:
 101              	.LBE84:
 102              	.LBB88:
 103              	.LBB83:
 117:Drivers/lvgl/src/extra/widgets/colorwheel/../../../../src/core/lv_obj_style_gen.h ****     return (lv_coord_t)v.num;
 104              		.loc 2 117 26 view .LVU20
 105 002c 8046     		mov	r8, r0
 106              	.LVL7:
 118:Drivers/lvgl/src/extra/widgets/colorwheel/../../../../src/core/lv_obj_style_gen.h **** }
 107              		.loc 2 118 5 is_stmt 1 view .LVU21
 118:Drivers/lvgl/src/extra/widgets/colorwheel/../../../../src/core/lv_obj_style_gen.h **** }
 108              		.loc 2 118 5 is_stmt 0 view .LVU22
 109              	.LBE83:
 110              	.LBE88:
 343:Drivers/lvgl/src/extra/widgets/colorwheel/lv_colorwheel.c ****     lv_coord_t right = lv_obj_get_style_pad_right(obj, LV_PART_KNOB);
 111              		.loc 1 343 5 is_stmt 1 view .LVU23
 112              	.LBB89:
 113              	.LBI84:
 121:Drivers/lvgl/src/extra/widgets/colorwheel/../../../../src/core/lv_obj_style_gen.h **** {
 114              		.loc 2 121 26 view .LVU24
 115              	.LBB86:
 123:Drivers/lvgl/src/extra/widgets/colorwheel/../../../../src/core/lv_obj_style_gen.h ****     return (lv_coord_t)v.num;
 116              		.loc 2 123 5 view .LVU25
 123:Drivers/lvgl/src/extra/widgets/colorwheel/../../../../src/core/lv_obj_style_gen.h ****     return (lv_coord_t)v.num;
 117              		.loc 2 123 26 is_stmt 0 view .LVU26
 118 002e 4FF44031 		mov	r1, #196608
 119 0032 2046     		mov	r0, r4
 120 0034 FFF7FEFF 		bl	lv_obj_get_style_prop
 121              	.LVL8:
 122              	.LBE86:
 123              	.LBE89:
 124              	.LBB90:
 125              	.LBB91:
 105:Drivers/lvgl/src/extra/widgets/colorwheel/../../../../src/core/lv_obj_style_gen.h ****     return (lv_coord_t)v.num;
 126              		.loc 2 105 26 view .LVU27
 127 0038 1022     		movs	r2, #16
 128              	.LBE91:
 129              	.LBE90:
 130              	.LBB94:
 131              	.LBB87:
 123:Drivers/lvgl/src/extra/widgets/colorwheel/../../../../src/core/lv_obj_style_gen.h ****     return (lv_coord_t)v.num;
 132              		.loc 2 123 26 view .LVU28
 133 003a 8146     		mov	r9, r0
 134              	.LVL9:
 124:Drivers/lvgl/src/extra/widgets/colorwheel/../../../../src/core/lv_obj_style_gen.h **** }
 135              		.loc 2 124 5 is_stmt 1 view .LVU29
 124:Drivers/lvgl/src/extra/widgets/colorwheel/../../../../src/core/lv_obj_style_gen.h **** }
 136              		.loc 2 124 5 is_stmt 0 view .LVU30
 137              	.LBE87:
 138              	.LBE94:
 344:Drivers/lvgl/src/extra/widgets/colorwheel/lv_colorwheel.c ****     lv_coord_t top = lv_obj_get_style_pad_top(obj, LV_PART_KNOB);
 139              		.loc 1 344 5 is_stmt 1 view .LVU31
 140              	.LBB95:
ARM GAS  /var/folders/lp/x54gwt890xv47sdkqj1k04q40000gn/T//ccueOQ8a.s 			page 17


 141              	.LBI90:
 103:Drivers/lvgl/src/extra/widgets/colorwheel/../../../../src/core/lv_obj_style_gen.h **** {
 142              		.loc 2 103 26 view .LVU32
 143              	.LBB92:
 105:Drivers/lvgl/src/extra/widgets/colorwheel/../../../../src/core/lv_obj_style_gen.h ****     return (lv_coord_t)v.num;
 144              		.loc 2 105 5 view .LVU33
 105:Drivers/lvgl/src/extra/widgets/colorwheel/../../../../src/core/lv_obj_style_gen.h ****     return (lv_coord_t)v.num;
 145              		.loc 2 105 26 is_stmt 0 view .LVU34
 146 003c 4FF44031 		mov	r1, #196608
 147 0040 2046     		mov	r0, r4
 148 0042 FFF7FEFF 		bl	lv_obj_get_style_prop
 149              	.LVL10:
 150              	.LBE92:
 151              	.LBE95:
 152              	.LBB96:
 153              	.LBB97:
 111:Drivers/lvgl/src/extra/widgets/colorwheel/../../../../src/core/lv_obj_style_gen.h ****     return (lv_coord_t)v.num;
 154              		.loc 2 111 26 view .LVU35
 155 0046 1122     		movs	r2, #17
 156              	.LBE97:
 157              	.LBE96:
 158              	.LBB99:
 159              	.LBB93:
 105:Drivers/lvgl/src/extra/widgets/colorwheel/../../../../src/core/lv_obj_style_gen.h ****     return (lv_coord_t)v.num;
 160              		.loc 2 105 26 view .LVU36
 161 0048 0746     		mov	r7, r0
 162              	.LVL11:
 106:Drivers/lvgl/src/extra/widgets/colorwheel/../../../../src/core/lv_obj_style_gen.h **** }
 163              		.loc 2 106 5 is_stmt 1 view .LVU37
 106:Drivers/lvgl/src/extra/widgets/colorwheel/../../../../src/core/lv_obj_style_gen.h **** }
 164              		.loc 2 106 5 is_stmt 0 view .LVU38
 165              	.LBE93:
 166              	.LBE99:
 345:Drivers/lvgl/src/extra/widgets/colorwheel/lv_colorwheel.c ****     lv_coord_t bottom = lv_obj_get_style_pad_bottom(obj, LV_PART_KNOB);
 167              		.loc 1 345 5 is_stmt 1 view .LVU39
 168              	.LBB100:
 169              	.LBI96:
 109:Drivers/lvgl/src/extra/widgets/colorwheel/../../../../src/core/lv_obj_style_gen.h **** {
 170              		.loc 2 109 26 view .LVU40
 171              	.LBB98:
 111:Drivers/lvgl/src/extra/widgets/colorwheel/../../../../src/core/lv_obj_style_gen.h ****     return (lv_coord_t)v.num;
 172              		.loc 2 111 5 view .LVU41
 111:Drivers/lvgl/src/extra/widgets/colorwheel/../../../../src/core/lv_obj_style_gen.h ****     return (lv_coord_t)v.num;
 173              		.loc 2 111 26 is_stmt 0 view .LVU42
 174 004a 4FF44031 		mov	r1, #196608
 175 004e 2046     		mov	r0, r4
 176 0050 FFF7FEFF 		bl	lv_obj_get_style_prop
 177              	.LVL12:
 112:Drivers/lvgl/src/extra/widgets/colorwheel/../../../../src/core/lv_obj_style_gen.h **** }
 178              		.loc 2 112 5 is_stmt 1 view .LVU43
 112:Drivers/lvgl/src/extra/widgets/colorwheel/../../../../src/core/lv_obj_style_gen.h **** }
 179              		.loc 2 112 5 is_stmt 0 view .LVU44
 180              	.LBE98:
 181              	.LBE100:
 346:Drivers/lvgl/src/extra/widgets/colorwheel/lv_colorwheel.c **** 
 347:Drivers/lvgl/src/extra/widgets/colorwheel/lv_colorwheel.c ****     lv_area_t knob_area;
 182              		.loc 1 347 5 is_stmt 1 view .LVU45
ARM GAS  /var/folders/lp/x54gwt890xv47sdkqj1k04q40000gn/T//ccueOQ8a.s 			page 18


 348:Drivers/lvgl/src/extra/widgets/colorwheel/lv_colorwheel.c ****     knob_area.x1 = obj->coords.x1 + colorwheel->knob.pos.x - r - left;
 183              		.loc 1 348 5 view .LVU46
 184              		.loc 1 348 35 is_stmt 0 view .LVU47
 185 0054 228D     		ldrh	r2, [r4, #40]
 186 0056 A38A     		ldrh	r3, [r4, #20]
 187 0058 1344     		add	r3, r3, r2
 188 005a 9BB2     		uxth	r3, r3
 189              		.loc 1 348 64 view .LVU48
 190 005c A844     		add	r8, r8, r5
 191              	.LVL13:
 349:Drivers/lvgl/src/extra/widgets/colorwheel/lv_colorwheel.c ****     knob_area.y1 = obj->coords.y1 + colorwheel->knob.pos.y - r - right;
 350:Drivers/lvgl/src/extra/widgets/colorwheel/lv_colorwheel.c ****     knob_area.x2 = obj->coords.x1 + colorwheel->knob.pos.x + r + top;
 192              		.loc 1 350 64 view .LVU49
 193 005e 2F44     		add	r7, r7, r5
 194              	.LVL14:
 348:Drivers/lvgl/src/extra/widgets/colorwheel/lv_colorwheel.c ****     knob_area.x1 = obj->coords.x1 + colorwheel->knob.pos.x - r - left;
 195              		.loc 1 348 64 view .LVU50
 196 0060 A3EB0808 		sub	r8, r3, r8
 197              		.loc 1 350 64 view .LVU51
 198 0064 DA19     		adds	r2, r3, r7
 349:Drivers/lvgl/src/extra/widgets/colorwheel/lv_colorwheel.c ****     knob_area.y1 = obj->coords.y1 + colorwheel->knob.pos.y - r - right;
 199              		.loc 1 349 35 view .LVU52
 200 0066 E38A     		ldrh	r3, [r4, #22]
 201 0068 648D     		ldrh	r4, [r4, #42]
 202              	.LVL15:
 349:Drivers/lvgl/src/extra/widgets/colorwheel/lv_colorwheel.c ****     knob_area.y1 = obj->coords.y1 + colorwheel->knob.pos.y - r - right;
 203              		.loc 1 349 35 view .LVU53
 204 006a 2344     		add	r3, r3, r4
 351:Drivers/lvgl/src/extra/widgets/colorwheel/lv_colorwheel.c ****     knob_area.y2 = obj->coords.y1 + colorwheel->knob.pos.y + r + bottom;
 205              		.loc 1 351 64 view .LVU54
 206 006c 2844     		add	r0, r0, r5
 207              	.LVL16:
 349:Drivers/lvgl/src/extra/widgets/colorwheel/lv_colorwheel.c ****     knob_area.y1 = obj->coords.y1 + colorwheel->knob.pos.y - r - right;
 208              		.loc 1 349 64 view .LVU55
 209 006e 05EB0901 		add	r1, r5, r9
 349:Drivers/lvgl/src/extra/widgets/colorwheel/lv_colorwheel.c ****     knob_area.y1 = obj->coords.y1 + colorwheel->knob.pos.y - r - right;
 210              		.loc 1 349 5 is_stmt 1 view .LVU56
 349:Drivers/lvgl/src/extra/widgets/colorwheel/lv_colorwheel.c ****     knob_area.y1 = obj->coords.y1 + colorwheel->knob.pos.y - r - right;
 211              		.loc 1 349 35 is_stmt 0 view .LVU57
 212 0072 9BB2     		uxth	r3, r3
 213              	.LVL17:
 350:Drivers/lvgl/src/extra/widgets/colorwheel/lv_colorwheel.c ****     knob_area.y2 = obj->coords.y1 + colorwheel->knob.pos.y + r + bottom;
 214              		.loc 1 350 5 is_stmt 1 view .LVU58
 215              		.loc 1 351 5 view .LVU59
 352:Drivers/lvgl/src/extra/widgets/colorwheel/lv_colorwheel.c **** 
 353:Drivers/lvgl/src/extra/widgets/colorwheel/lv_colorwheel.c ****     return knob_area;
 216              		.loc 1 353 5 view .LVU60
 349:Drivers/lvgl/src/extra/widgets/colorwheel/lv_colorwheel.c ****     knob_area.x2 = obj->coords.x1 + colorwheel->knob.pos.x + r + top;
 217              		.loc 1 349 64 is_stmt 0 view .LVU61
 218 0074 591A     		subs	r1, r3, r1
 351:Drivers/lvgl/src/extra/widgets/colorwheel/lv_colorwheel.c **** 
 219              		.loc 1 351 64 view .LVU62
 220 0076 0344     		add	r3, r3, r0
 221              	.LVL18:
 348:Drivers/lvgl/src/extra/widgets/colorwheel/lv_colorwheel.c ****     knob_area.y1 = obj->coords.y1 + colorwheel->knob.pos.y - r - right;
 222              		.loc 1 348 64 view .LVU63
 223 0078 0020     		movs	r0, #0
ARM GAS  /var/folders/lp/x54gwt890xv47sdkqj1k04q40000gn/T//ccueOQ8a.s 			page 19


 224 007a 0446     		mov	r4, r0
 225              	.LVL19:
 348:Drivers/lvgl/src/extra/widgets/colorwheel/lv_colorwheel.c ****     knob_area.y1 = obj->coords.y1 + colorwheel->knob.pos.y - r - right;
 226              		.loc 1 348 64 view .LVU64
 227 007c 62F30F04 		bfi	r4, r2, #0, #16
 228 0080 68F30F00 		bfi	r0, r8, #0, #16
 229 0084 61F31F40 		bfi	r0, r1, #16, #16
 230 0088 63F31F44 		bfi	r4, r3, #16, #16
 231              		.loc 1 353 12 view .LVU65
 232 008c 3060     		str	r0, [r6]	@ unaligned
 233 008e 7460     		str	r4, [r6, #4]	@ unaligned
 234              	.LVL20:
 354:Drivers/lvgl/src/extra/widgets/colorwheel/lv_colorwheel.c **** }
 235              		.loc 1 354 1 view .LVU66
 236 0090 3046     		mov	r0, r6
 237 0092 BDE8F883 		pop	{r3, r4, r5, r6, r7, r8, r9, pc}
 238              		.loc 1 354 1 view .LVU67
 239              		.cfi_endproc
 240              	.LFE217:
 242 0096 00BF     		.section	.text.fast_hsv2rgb.part.0.constprop.0,"ax",%progbits
 243              		.align	1
 244              		.p2align 2,,3
 245              		.syntax unified
 246              		.thumb
 247              		.thumb_func
 249              	fast_hsv2rgb.part.0.constprop.0:
 250              	.LVL21:
 251              	.LFB227:
 355:Drivers/lvgl/src/extra/widgets/colorwheel/lv_colorwheel.c **** 
 356:Drivers/lvgl/src/extra/widgets/colorwheel/lv_colorwheel.c **** static void lv_colorwheel_event(const lv_obj_class_t * class_p, lv_event_t * e)
 357:Drivers/lvgl/src/extra/widgets/colorwheel/lv_colorwheel.c **** {
 358:Drivers/lvgl/src/extra/widgets/colorwheel/lv_colorwheel.c ****     LV_UNUSED(class_p);
 359:Drivers/lvgl/src/extra/widgets/colorwheel/lv_colorwheel.c **** 
 360:Drivers/lvgl/src/extra/widgets/colorwheel/lv_colorwheel.c ****     /*Call the ancestor's event handler*/
 361:Drivers/lvgl/src/extra/widgets/colorwheel/lv_colorwheel.c ****     lv_res_t res = lv_obj_event_base(MY_CLASS, e);
 362:Drivers/lvgl/src/extra/widgets/colorwheel/lv_colorwheel.c **** 
 363:Drivers/lvgl/src/extra/widgets/colorwheel/lv_colorwheel.c ****     if(res != LV_RES_OK) return;
 364:Drivers/lvgl/src/extra/widgets/colorwheel/lv_colorwheel.c **** 
 365:Drivers/lvgl/src/extra/widgets/colorwheel/lv_colorwheel.c ****     lv_event_code_t code = lv_event_get_code(e);
 366:Drivers/lvgl/src/extra/widgets/colorwheel/lv_colorwheel.c ****     lv_obj_t * obj = lv_event_get_target(e);
 367:Drivers/lvgl/src/extra/widgets/colorwheel/lv_colorwheel.c ****     lv_colorwheel_t * colorwheel = (lv_colorwheel_t *)obj;
 368:Drivers/lvgl/src/extra/widgets/colorwheel/lv_colorwheel.c **** 
 369:Drivers/lvgl/src/extra/widgets/colorwheel/lv_colorwheel.c ****     if(code == LV_EVENT_REFR_EXT_DRAW_SIZE) {
 370:Drivers/lvgl/src/extra/widgets/colorwheel/lv_colorwheel.c ****         lv_coord_t left = lv_obj_get_style_pad_left(obj, LV_PART_KNOB);
 371:Drivers/lvgl/src/extra/widgets/colorwheel/lv_colorwheel.c ****         lv_coord_t right = lv_obj_get_style_pad_right(obj, LV_PART_KNOB);
 372:Drivers/lvgl/src/extra/widgets/colorwheel/lv_colorwheel.c ****         lv_coord_t top = lv_obj_get_style_pad_top(obj, LV_PART_KNOB);
 373:Drivers/lvgl/src/extra/widgets/colorwheel/lv_colorwheel.c ****         lv_coord_t bottom = lv_obj_get_style_pad_bottom(obj, LV_PART_KNOB);
 374:Drivers/lvgl/src/extra/widgets/colorwheel/lv_colorwheel.c **** 
 375:Drivers/lvgl/src/extra/widgets/colorwheel/lv_colorwheel.c ****         lv_coord_t knob_pad = LV_MAX4(left, right, top, bottom) + 2;
 376:Drivers/lvgl/src/extra/widgets/colorwheel/lv_colorwheel.c ****         lv_coord_t * s = lv_event_get_param(e);
 377:Drivers/lvgl/src/extra/widgets/colorwheel/lv_colorwheel.c ****         *s = LV_MAX(*s, knob_pad);
 378:Drivers/lvgl/src/extra/widgets/colorwheel/lv_colorwheel.c ****     }
 379:Drivers/lvgl/src/extra/widgets/colorwheel/lv_colorwheel.c ****     else if(code == LV_EVENT_SIZE_CHANGED) {
 380:Drivers/lvgl/src/extra/widgets/colorwheel/lv_colorwheel.c ****         void * param = lv_event_get_param(e);
 381:Drivers/lvgl/src/extra/widgets/colorwheel/lv_colorwheel.c ****         /*Refresh extended draw area to make knob visible*/
 382:Drivers/lvgl/src/extra/widgets/colorwheel/lv_colorwheel.c ****         if(lv_obj_get_width(obj) != lv_area_get_width(param) ||
 383:Drivers/lvgl/src/extra/widgets/colorwheel/lv_colorwheel.c ****            lv_obj_get_height(obj) != lv_area_get_height(param)) {
ARM GAS  /var/folders/lp/x54gwt890xv47sdkqj1k04q40000gn/T//ccueOQ8a.s 			page 20


 384:Drivers/lvgl/src/extra/widgets/colorwheel/lv_colorwheel.c ****             refr_knob_pos(obj);
 385:Drivers/lvgl/src/extra/widgets/colorwheel/lv_colorwheel.c ****         }
 386:Drivers/lvgl/src/extra/widgets/colorwheel/lv_colorwheel.c ****     }
 387:Drivers/lvgl/src/extra/widgets/colorwheel/lv_colorwheel.c ****     else if(code == LV_EVENT_STYLE_CHANGED) {
 388:Drivers/lvgl/src/extra/widgets/colorwheel/lv_colorwheel.c ****         /*Refresh extended draw area to make knob visible*/
 389:Drivers/lvgl/src/extra/widgets/colorwheel/lv_colorwheel.c ****         refr_knob_pos(obj);
 390:Drivers/lvgl/src/extra/widgets/colorwheel/lv_colorwheel.c ****     }
 391:Drivers/lvgl/src/extra/widgets/colorwheel/lv_colorwheel.c ****     else if(code == LV_EVENT_KEY) {
 392:Drivers/lvgl/src/extra/widgets/colorwheel/lv_colorwheel.c ****         uint32_t c = *((uint32_t *)lv_event_get_param(e)); /*uint32_t because can be UTF-8*/
 393:Drivers/lvgl/src/extra/widgets/colorwheel/lv_colorwheel.c **** 
 394:Drivers/lvgl/src/extra/widgets/colorwheel/lv_colorwheel.c ****         if(c == LV_KEY_RIGHT || c == LV_KEY_UP) {
 395:Drivers/lvgl/src/extra/widgets/colorwheel/lv_colorwheel.c ****             lv_color_hsv_t hsv_cur;
 396:Drivers/lvgl/src/extra/widgets/colorwheel/lv_colorwheel.c ****             hsv_cur = colorwheel->hsv;
 397:Drivers/lvgl/src/extra/widgets/colorwheel/lv_colorwheel.c **** 
 398:Drivers/lvgl/src/extra/widgets/colorwheel/lv_colorwheel.c ****             switch(colorwheel->mode) {
 399:Drivers/lvgl/src/extra/widgets/colorwheel/lv_colorwheel.c ****                 case LV_COLORWHEEL_MODE_HUE:
 400:Drivers/lvgl/src/extra/widgets/colorwheel/lv_colorwheel.c ****                     hsv_cur.h = (colorwheel->hsv.h + 1) % 360;
 401:Drivers/lvgl/src/extra/widgets/colorwheel/lv_colorwheel.c ****                     break;
 402:Drivers/lvgl/src/extra/widgets/colorwheel/lv_colorwheel.c ****                 case LV_COLORWHEEL_MODE_SATURATION:
 403:Drivers/lvgl/src/extra/widgets/colorwheel/lv_colorwheel.c ****                     hsv_cur.s = (colorwheel->hsv.s + 1) % 100;
 404:Drivers/lvgl/src/extra/widgets/colorwheel/lv_colorwheel.c ****                     break;
 405:Drivers/lvgl/src/extra/widgets/colorwheel/lv_colorwheel.c ****                 case LV_COLORWHEEL_MODE_VALUE:
 406:Drivers/lvgl/src/extra/widgets/colorwheel/lv_colorwheel.c ****                     hsv_cur.v = (colorwheel->hsv.v + 1) % 100;
 407:Drivers/lvgl/src/extra/widgets/colorwheel/lv_colorwheel.c ****                     break;
 408:Drivers/lvgl/src/extra/widgets/colorwheel/lv_colorwheel.c ****             }
 409:Drivers/lvgl/src/extra/widgets/colorwheel/lv_colorwheel.c **** 
 410:Drivers/lvgl/src/extra/widgets/colorwheel/lv_colorwheel.c ****             if(lv_colorwheel_set_hsv(obj, hsv_cur)) {
 411:Drivers/lvgl/src/extra/widgets/colorwheel/lv_colorwheel.c ****                 res = lv_event_send(obj, LV_EVENT_VALUE_CHANGED, NULL);
 412:Drivers/lvgl/src/extra/widgets/colorwheel/lv_colorwheel.c ****                 if(res != LV_RES_OK) return;
 413:Drivers/lvgl/src/extra/widgets/colorwheel/lv_colorwheel.c ****             }
 414:Drivers/lvgl/src/extra/widgets/colorwheel/lv_colorwheel.c ****         }
 415:Drivers/lvgl/src/extra/widgets/colorwheel/lv_colorwheel.c ****         else if(c == LV_KEY_LEFT || c == LV_KEY_DOWN) {
 416:Drivers/lvgl/src/extra/widgets/colorwheel/lv_colorwheel.c ****             lv_color_hsv_t hsv_cur;
 417:Drivers/lvgl/src/extra/widgets/colorwheel/lv_colorwheel.c ****             hsv_cur = colorwheel->hsv;
 418:Drivers/lvgl/src/extra/widgets/colorwheel/lv_colorwheel.c **** 
 419:Drivers/lvgl/src/extra/widgets/colorwheel/lv_colorwheel.c ****             switch(colorwheel->mode) {
 420:Drivers/lvgl/src/extra/widgets/colorwheel/lv_colorwheel.c ****                 case LV_COLORWHEEL_MODE_HUE:
 421:Drivers/lvgl/src/extra/widgets/colorwheel/lv_colorwheel.c ****                     hsv_cur.h = colorwheel->hsv.h > 0 ? (colorwheel->hsv.h - 1) : 360;
 422:Drivers/lvgl/src/extra/widgets/colorwheel/lv_colorwheel.c ****                     break;
 423:Drivers/lvgl/src/extra/widgets/colorwheel/lv_colorwheel.c ****                 case LV_COLORWHEEL_MODE_SATURATION:
 424:Drivers/lvgl/src/extra/widgets/colorwheel/lv_colorwheel.c ****                     hsv_cur.s = colorwheel->hsv.s > 0 ? (colorwheel->hsv.s - 1) : 100;
 425:Drivers/lvgl/src/extra/widgets/colorwheel/lv_colorwheel.c ****                     break;
 426:Drivers/lvgl/src/extra/widgets/colorwheel/lv_colorwheel.c ****                 case LV_COLORWHEEL_MODE_VALUE:
 427:Drivers/lvgl/src/extra/widgets/colorwheel/lv_colorwheel.c ****                     hsv_cur.v = colorwheel->hsv.v > 0 ? (colorwheel->hsv.v - 1) : 100;
 428:Drivers/lvgl/src/extra/widgets/colorwheel/lv_colorwheel.c ****                     break;
 429:Drivers/lvgl/src/extra/widgets/colorwheel/lv_colorwheel.c ****             }
 430:Drivers/lvgl/src/extra/widgets/colorwheel/lv_colorwheel.c **** 
 431:Drivers/lvgl/src/extra/widgets/colorwheel/lv_colorwheel.c ****             if(lv_colorwheel_set_hsv(obj, hsv_cur)) {
 432:Drivers/lvgl/src/extra/widgets/colorwheel/lv_colorwheel.c ****                 res = lv_event_send(obj, LV_EVENT_VALUE_CHANGED, NULL);
 433:Drivers/lvgl/src/extra/widgets/colorwheel/lv_colorwheel.c ****                 if(res != LV_RES_OK) return;
 434:Drivers/lvgl/src/extra/widgets/colorwheel/lv_colorwheel.c ****             }
 435:Drivers/lvgl/src/extra/widgets/colorwheel/lv_colorwheel.c ****         }
 436:Drivers/lvgl/src/extra/widgets/colorwheel/lv_colorwheel.c ****     }
 437:Drivers/lvgl/src/extra/widgets/colorwheel/lv_colorwheel.c ****     else if(code == LV_EVENT_PRESSED) {
 438:Drivers/lvgl/src/extra/widgets/colorwheel/lv_colorwheel.c ****         colorwheel->last_change_time = lv_tick_get();
 439:Drivers/lvgl/src/extra/widgets/colorwheel/lv_colorwheel.c ****         lv_indev_get_point(lv_indev_get_act(), &colorwheel->last_press_point);
 440:Drivers/lvgl/src/extra/widgets/colorwheel/lv_colorwheel.c ****         res = double_click_reset(obj);
ARM GAS  /var/folders/lp/x54gwt890xv47sdkqj1k04q40000gn/T//ccueOQ8a.s 			page 21


 441:Drivers/lvgl/src/extra/widgets/colorwheel/lv_colorwheel.c ****         if(res != LV_RES_OK) return;
 442:Drivers/lvgl/src/extra/widgets/colorwheel/lv_colorwheel.c ****     }
 443:Drivers/lvgl/src/extra/widgets/colorwheel/lv_colorwheel.c ****     else if(code == LV_EVENT_PRESSING) {
 444:Drivers/lvgl/src/extra/widgets/colorwheel/lv_colorwheel.c ****         lv_indev_t * indev = lv_indev_get_act();
 445:Drivers/lvgl/src/extra/widgets/colorwheel/lv_colorwheel.c ****         if(indev == NULL) return;
 446:Drivers/lvgl/src/extra/widgets/colorwheel/lv_colorwheel.c **** 
 447:Drivers/lvgl/src/extra/widgets/colorwheel/lv_colorwheel.c ****         lv_indev_type_t indev_type = lv_indev_get_type(indev);
 448:Drivers/lvgl/src/extra/widgets/colorwheel/lv_colorwheel.c ****         lv_point_t p;
 449:Drivers/lvgl/src/extra/widgets/colorwheel/lv_colorwheel.c ****         if(indev_type == LV_INDEV_TYPE_ENCODER || indev_type == LV_INDEV_TYPE_KEYPAD) {
 450:Drivers/lvgl/src/extra/widgets/colorwheel/lv_colorwheel.c ****             p.x = obj->coords.x1 + lv_obj_get_width(obj) / 2;
 451:Drivers/lvgl/src/extra/widgets/colorwheel/lv_colorwheel.c ****             p.y = obj->coords.y1 + lv_obj_get_height(obj) / 2;
 452:Drivers/lvgl/src/extra/widgets/colorwheel/lv_colorwheel.c ****         }
 453:Drivers/lvgl/src/extra/widgets/colorwheel/lv_colorwheel.c ****         else {
 454:Drivers/lvgl/src/extra/widgets/colorwheel/lv_colorwheel.c ****             lv_indev_get_point(indev, &p);
 455:Drivers/lvgl/src/extra/widgets/colorwheel/lv_colorwheel.c ****         }
 456:Drivers/lvgl/src/extra/widgets/colorwheel/lv_colorwheel.c **** 
 457:Drivers/lvgl/src/extra/widgets/colorwheel/lv_colorwheel.c ****         lv_coord_t drag_limit = indev->driver->scroll_limit;
 458:Drivers/lvgl/src/extra/widgets/colorwheel/lv_colorwheel.c ****         if((LV_ABS(p.x - colorwheel->last_press_point.x) > drag_limit) ||
 459:Drivers/lvgl/src/extra/widgets/colorwheel/lv_colorwheel.c ****            (LV_ABS(p.y - colorwheel->last_press_point.y) > drag_limit)) {
 460:Drivers/lvgl/src/extra/widgets/colorwheel/lv_colorwheel.c ****             colorwheel->last_change_time = lv_tick_get();
 461:Drivers/lvgl/src/extra/widgets/colorwheel/lv_colorwheel.c ****             colorwheel->last_press_point.x = p.x;
 462:Drivers/lvgl/src/extra/widgets/colorwheel/lv_colorwheel.c ****             colorwheel->last_press_point.y = p.y;
 463:Drivers/lvgl/src/extra/widgets/colorwheel/lv_colorwheel.c ****         }
 464:Drivers/lvgl/src/extra/widgets/colorwheel/lv_colorwheel.c **** 
 465:Drivers/lvgl/src/extra/widgets/colorwheel/lv_colorwheel.c ****         p.x -= obj->coords.x1;
 466:Drivers/lvgl/src/extra/widgets/colorwheel/lv_colorwheel.c ****         p.y -= obj->coords.y1;
 467:Drivers/lvgl/src/extra/widgets/colorwheel/lv_colorwheel.c **** 
 468:Drivers/lvgl/src/extra/widgets/colorwheel/lv_colorwheel.c ****         /*Ignore pressing in the inner area*/
 469:Drivers/lvgl/src/extra/widgets/colorwheel/lv_colorwheel.c ****         uint16_t w = lv_obj_get_width(obj);
 470:Drivers/lvgl/src/extra/widgets/colorwheel/lv_colorwheel.c **** 
 471:Drivers/lvgl/src/extra/widgets/colorwheel/lv_colorwheel.c ****         int16_t angle = 0;
 472:Drivers/lvgl/src/extra/widgets/colorwheel/lv_colorwheel.c ****         lv_coord_t cir_w = lv_obj_get_style_arc_width(obj, LV_PART_MAIN);
 473:Drivers/lvgl/src/extra/widgets/colorwheel/lv_colorwheel.c **** 
 474:Drivers/lvgl/src/extra/widgets/colorwheel/lv_colorwheel.c ****         lv_coord_t r_in = w / 2;
 475:Drivers/lvgl/src/extra/widgets/colorwheel/lv_colorwheel.c ****         p.x -= r_in;
 476:Drivers/lvgl/src/extra/widgets/colorwheel/lv_colorwheel.c ****         p.y -= r_in;
 477:Drivers/lvgl/src/extra/widgets/colorwheel/lv_colorwheel.c ****         bool on_ring = true;
 478:Drivers/lvgl/src/extra/widgets/colorwheel/lv_colorwheel.c ****         r_in -= cir_w;
 479:Drivers/lvgl/src/extra/widgets/colorwheel/lv_colorwheel.c ****         if(r_in > LV_DPI_DEF / 2) {
 480:Drivers/lvgl/src/extra/widgets/colorwheel/lv_colorwheel.c ****             lv_coord_t inner = cir_w / 2;
 481:Drivers/lvgl/src/extra/widgets/colorwheel/lv_colorwheel.c ****             r_in -= inner;
 482:Drivers/lvgl/src/extra/widgets/colorwheel/lv_colorwheel.c **** 
 483:Drivers/lvgl/src/extra/widgets/colorwheel/lv_colorwheel.c ****             if(r_in < LV_DPI_DEF / 2) r_in = LV_DPI_DEF / 2;
 484:Drivers/lvgl/src/extra/widgets/colorwheel/lv_colorwheel.c ****         }
 485:Drivers/lvgl/src/extra/widgets/colorwheel/lv_colorwheel.c **** 
 486:Drivers/lvgl/src/extra/widgets/colorwheel/lv_colorwheel.c ****         if(p.x * p.x + p.y * p.y < r_in * r_in) {
 487:Drivers/lvgl/src/extra/widgets/colorwheel/lv_colorwheel.c ****             on_ring = false;
 488:Drivers/lvgl/src/extra/widgets/colorwheel/lv_colorwheel.c ****         }
 489:Drivers/lvgl/src/extra/widgets/colorwheel/lv_colorwheel.c **** 
 490:Drivers/lvgl/src/extra/widgets/colorwheel/lv_colorwheel.c ****         /*If the inner area is being pressed, go to the next color mode on long press*/
 491:Drivers/lvgl/src/extra/widgets/colorwheel/lv_colorwheel.c ****         uint32_t diff = lv_tick_elaps(colorwheel->last_change_time);
 492:Drivers/lvgl/src/extra/widgets/colorwheel/lv_colorwheel.c ****         if(!on_ring && diff > indev->driver->long_press_time && !colorwheel->mode_fixed) {
 493:Drivers/lvgl/src/extra/widgets/colorwheel/lv_colorwheel.c ****             next_color_mode(obj);
 494:Drivers/lvgl/src/extra/widgets/colorwheel/lv_colorwheel.c ****             lv_indev_wait_release(lv_indev_get_act());
 495:Drivers/lvgl/src/extra/widgets/colorwheel/lv_colorwheel.c ****             return;
 496:Drivers/lvgl/src/extra/widgets/colorwheel/lv_colorwheel.c ****         }
 497:Drivers/lvgl/src/extra/widgets/colorwheel/lv_colorwheel.c **** 
ARM GAS  /var/folders/lp/x54gwt890xv47sdkqj1k04q40000gn/T//ccueOQ8a.s 			page 22


 498:Drivers/lvgl/src/extra/widgets/colorwheel/lv_colorwheel.c ****         /*Set the angle only if pressed on the ring*/
 499:Drivers/lvgl/src/extra/widgets/colorwheel/lv_colorwheel.c ****         if(!on_ring) return;
 500:Drivers/lvgl/src/extra/widgets/colorwheel/lv_colorwheel.c **** 
 501:Drivers/lvgl/src/extra/widgets/colorwheel/lv_colorwheel.c ****         angle = lv_atan2(p.x, p.y) % 360;
 502:Drivers/lvgl/src/extra/widgets/colorwheel/lv_colorwheel.c **** 
 503:Drivers/lvgl/src/extra/widgets/colorwheel/lv_colorwheel.c ****         lv_color_hsv_t hsv_cur;
 504:Drivers/lvgl/src/extra/widgets/colorwheel/lv_colorwheel.c ****         hsv_cur = colorwheel->hsv;
 505:Drivers/lvgl/src/extra/widgets/colorwheel/lv_colorwheel.c **** 
 506:Drivers/lvgl/src/extra/widgets/colorwheel/lv_colorwheel.c ****         switch(colorwheel->mode) {
 507:Drivers/lvgl/src/extra/widgets/colorwheel/lv_colorwheel.c ****             case LV_COLORWHEEL_MODE_HUE:
 508:Drivers/lvgl/src/extra/widgets/colorwheel/lv_colorwheel.c ****                 hsv_cur.h = angle;
 509:Drivers/lvgl/src/extra/widgets/colorwheel/lv_colorwheel.c ****                 break;
 510:Drivers/lvgl/src/extra/widgets/colorwheel/lv_colorwheel.c ****             case LV_COLORWHEEL_MODE_SATURATION:
 511:Drivers/lvgl/src/extra/widgets/colorwheel/lv_colorwheel.c ****                 hsv_cur.s = (angle * 100) / 360;
 512:Drivers/lvgl/src/extra/widgets/colorwheel/lv_colorwheel.c ****                 break;
 513:Drivers/lvgl/src/extra/widgets/colorwheel/lv_colorwheel.c ****             case LV_COLORWHEEL_MODE_VALUE:
 514:Drivers/lvgl/src/extra/widgets/colorwheel/lv_colorwheel.c ****                 hsv_cur.v = (angle * 100) / 360;
 515:Drivers/lvgl/src/extra/widgets/colorwheel/lv_colorwheel.c ****                 break;
 516:Drivers/lvgl/src/extra/widgets/colorwheel/lv_colorwheel.c ****         }
 517:Drivers/lvgl/src/extra/widgets/colorwheel/lv_colorwheel.c **** 
 518:Drivers/lvgl/src/extra/widgets/colorwheel/lv_colorwheel.c ****         if(lv_colorwheel_set_hsv(obj, hsv_cur)) {
 519:Drivers/lvgl/src/extra/widgets/colorwheel/lv_colorwheel.c ****             res = lv_event_send(obj, LV_EVENT_VALUE_CHANGED, NULL);
 520:Drivers/lvgl/src/extra/widgets/colorwheel/lv_colorwheel.c ****             if(res != LV_RES_OK) return;
 521:Drivers/lvgl/src/extra/widgets/colorwheel/lv_colorwheel.c ****         }
 522:Drivers/lvgl/src/extra/widgets/colorwheel/lv_colorwheel.c ****     }
 523:Drivers/lvgl/src/extra/widgets/colorwheel/lv_colorwheel.c ****     else if(code == LV_EVENT_HIT_TEST) {
 524:Drivers/lvgl/src/extra/widgets/colorwheel/lv_colorwheel.c ****         lv_hit_test_info_t * info = lv_event_get_param(e);;
 525:Drivers/lvgl/src/extra/widgets/colorwheel/lv_colorwheel.c **** 
 526:Drivers/lvgl/src/extra/widgets/colorwheel/lv_colorwheel.c ****         /*Valid clicks can be only in the circle*/
 527:Drivers/lvgl/src/extra/widgets/colorwheel/lv_colorwheel.c ****         info->res = _lv_area_is_point_on(&obj->coords, info->point, LV_RADIUS_CIRCLE);
 528:Drivers/lvgl/src/extra/widgets/colorwheel/lv_colorwheel.c ****     }
 529:Drivers/lvgl/src/extra/widgets/colorwheel/lv_colorwheel.c ****     else if(code == LV_EVENT_DRAW_MAIN) {
 530:Drivers/lvgl/src/extra/widgets/colorwheel/lv_colorwheel.c ****         draw_disc_grad(e);
 531:Drivers/lvgl/src/extra/widgets/colorwheel/lv_colorwheel.c ****         draw_knob(e);
 532:Drivers/lvgl/src/extra/widgets/colorwheel/lv_colorwheel.c ****     }
 533:Drivers/lvgl/src/extra/widgets/colorwheel/lv_colorwheel.c ****     else if(code == LV_EVENT_COVER_CHECK) {
 534:Drivers/lvgl/src/extra/widgets/colorwheel/lv_colorwheel.c ****         lv_cover_check_info_t * info = lv_event_get_param(e);
 535:Drivers/lvgl/src/extra/widgets/colorwheel/lv_colorwheel.c ****         if(info->res != LV_COVER_RES_MASKED) info->res = LV_COVER_RES_NOT_COVER;
 536:Drivers/lvgl/src/extra/widgets/colorwheel/lv_colorwheel.c ****     }
 537:Drivers/lvgl/src/extra/widgets/colorwheel/lv_colorwheel.c **** }
 538:Drivers/lvgl/src/extra/widgets/colorwheel/lv_colorwheel.c **** 
 539:Drivers/lvgl/src/extra/widgets/colorwheel/lv_colorwheel.c **** 
 540:Drivers/lvgl/src/extra/widgets/colorwheel/lv_colorwheel.c **** 
 541:Drivers/lvgl/src/extra/widgets/colorwheel/lv_colorwheel.c **** static void next_color_mode(lv_obj_t * obj)
 542:Drivers/lvgl/src/extra/widgets/colorwheel/lv_colorwheel.c **** {
 543:Drivers/lvgl/src/extra/widgets/colorwheel/lv_colorwheel.c ****     lv_colorwheel_t * colorwheel = (lv_colorwheel_t *)obj;
 544:Drivers/lvgl/src/extra/widgets/colorwheel/lv_colorwheel.c ****     colorwheel->mode = (colorwheel->mode + 1) % 3;
 545:Drivers/lvgl/src/extra/widgets/colorwheel/lv_colorwheel.c ****     refr_knob_pos(obj);
 546:Drivers/lvgl/src/extra/widgets/colorwheel/lv_colorwheel.c ****     lv_obj_invalidate(obj);
 547:Drivers/lvgl/src/extra/widgets/colorwheel/lv_colorwheel.c **** }
 548:Drivers/lvgl/src/extra/widgets/colorwheel/lv_colorwheel.c **** 
 549:Drivers/lvgl/src/extra/widgets/colorwheel/lv_colorwheel.c **** static void refr_knob_pos(lv_obj_t * obj)
 550:Drivers/lvgl/src/extra/widgets/colorwheel/lv_colorwheel.c **** {
 551:Drivers/lvgl/src/extra/widgets/colorwheel/lv_colorwheel.c ****     invalidate_knob(obj);
 552:Drivers/lvgl/src/extra/widgets/colorwheel/lv_colorwheel.c **** 
 553:Drivers/lvgl/src/extra/widgets/colorwheel/lv_colorwheel.c ****     lv_colorwheel_t * colorwheel = (lv_colorwheel_t *)obj;
 554:Drivers/lvgl/src/extra/widgets/colorwheel/lv_colorwheel.c ****     lv_coord_t w = lv_obj_get_width(obj);
ARM GAS  /var/folders/lp/x54gwt890xv47sdkqj1k04q40000gn/T//ccueOQ8a.s 			page 23


 555:Drivers/lvgl/src/extra/widgets/colorwheel/lv_colorwheel.c **** 
 556:Drivers/lvgl/src/extra/widgets/colorwheel/lv_colorwheel.c ****     lv_coord_t scale_w = lv_obj_get_style_arc_width(obj, LV_PART_MAIN);
 557:Drivers/lvgl/src/extra/widgets/colorwheel/lv_colorwheel.c ****     lv_coord_t r = (w - scale_w) / 2;
 558:Drivers/lvgl/src/extra/widgets/colorwheel/lv_colorwheel.c ****     uint16_t angle = get_angle(obj);
 559:Drivers/lvgl/src/extra/widgets/colorwheel/lv_colorwheel.c ****     colorwheel->knob.pos.x = (((int32_t)r * lv_trigo_sin(angle)) >> LV_TRIGO_SHIFT);
 560:Drivers/lvgl/src/extra/widgets/colorwheel/lv_colorwheel.c ****     colorwheel->knob.pos.y = (((int32_t)r * lv_trigo_cos(angle)) >> LV_TRIGO_SHIFT);
 561:Drivers/lvgl/src/extra/widgets/colorwheel/lv_colorwheel.c ****     colorwheel->knob.pos.x = colorwheel->knob.pos.x + w / 2;
 562:Drivers/lvgl/src/extra/widgets/colorwheel/lv_colorwheel.c ****     colorwheel->knob.pos.y = colorwheel->knob.pos.y + w / 2;
 563:Drivers/lvgl/src/extra/widgets/colorwheel/lv_colorwheel.c **** 
 564:Drivers/lvgl/src/extra/widgets/colorwheel/lv_colorwheel.c ****     invalidate_knob(obj);
 565:Drivers/lvgl/src/extra/widgets/colorwheel/lv_colorwheel.c **** }
 566:Drivers/lvgl/src/extra/widgets/colorwheel/lv_colorwheel.c **** 
 567:Drivers/lvgl/src/extra/widgets/colorwheel/lv_colorwheel.c **** static lv_res_t double_click_reset(lv_obj_t * obj)
 568:Drivers/lvgl/src/extra/widgets/colorwheel/lv_colorwheel.c **** {
 569:Drivers/lvgl/src/extra/widgets/colorwheel/lv_colorwheel.c ****     lv_colorwheel_t * colorwheel = (lv_colorwheel_t *)obj;
 570:Drivers/lvgl/src/extra/widgets/colorwheel/lv_colorwheel.c ****     lv_indev_t * indev = lv_indev_get_act();
 571:Drivers/lvgl/src/extra/widgets/colorwheel/lv_colorwheel.c ****     /*Double clicked? Use long press time as double click time out*/
 572:Drivers/lvgl/src/extra/widgets/colorwheel/lv_colorwheel.c ****     if(lv_tick_elaps(colorwheel->last_click_time) < indev->driver->long_press_time) {
 573:Drivers/lvgl/src/extra/widgets/colorwheel/lv_colorwheel.c ****         lv_color_hsv_t hsv_cur;
 574:Drivers/lvgl/src/extra/widgets/colorwheel/lv_colorwheel.c ****         hsv_cur = colorwheel->hsv;
 575:Drivers/lvgl/src/extra/widgets/colorwheel/lv_colorwheel.c **** 
 576:Drivers/lvgl/src/extra/widgets/colorwheel/lv_colorwheel.c ****         switch(colorwheel->mode) {
 577:Drivers/lvgl/src/extra/widgets/colorwheel/lv_colorwheel.c ****             case LV_COLORWHEEL_MODE_HUE:
 578:Drivers/lvgl/src/extra/widgets/colorwheel/lv_colorwheel.c ****                 hsv_cur.h = 0;
 579:Drivers/lvgl/src/extra/widgets/colorwheel/lv_colorwheel.c ****                 break;
 580:Drivers/lvgl/src/extra/widgets/colorwheel/lv_colorwheel.c ****             case LV_COLORWHEEL_MODE_SATURATION:
 581:Drivers/lvgl/src/extra/widgets/colorwheel/lv_colorwheel.c ****                 hsv_cur.s = 100;
 582:Drivers/lvgl/src/extra/widgets/colorwheel/lv_colorwheel.c ****                 break;
 583:Drivers/lvgl/src/extra/widgets/colorwheel/lv_colorwheel.c ****             case LV_COLORWHEEL_MODE_VALUE:
 584:Drivers/lvgl/src/extra/widgets/colorwheel/lv_colorwheel.c ****                 hsv_cur.v = 100;
 585:Drivers/lvgl/src/extra/widgets/colorwheel/lv_colorwheel.c ****                 break;
 586:Drivers/lvgl/src/extra/widgets/colorwheel/lv_colorwheel.c ****         }
 587:Drivers/lvgl/src/extra/widgets/colorwheel/lv_colorwheel.c **** 
 588:Drivers/lvgl/src/extra/widgets/colorwheel/lv_colorwheel.c ****         lv_indev_wait_release(indev);
 589:Drivers/lvgl/src/extra/widgets/colorwheel/lv_colorwheel.c **** 
 590:Drivers/lvgl/src/extra/widgets/colorwheel/lv_colorwheel.c ****         if(lv_colorwheel_set_hsv(obj, hsv_cur)) {
 591:Drivers/lvgl/src/extra/widgets/colorwheel/lv_colorwheel.c ****             lv_res_t res = lv_event_send(obj, LV_EVENT_VALUE_CHANGED, NULL);
 592:Drivers/lvgl/src/extra/widgets/colorwheel/lv_colorwheel.c ****             if(res != LV_RES_OK) return res;
 593:Drivers/lvgl/src/extra/widgets/colorwheel/lv_colorwheel.c ****         }
 594:Drivers/lvgl/src/extra/widgets/colorwheel/lv_colorwheel.c ****     }
 595:Drivers/lvgl/src/extra/widgets/colorwheel/lv_colorwheel.c ****     colorwheel->last_click_time = lv_tick_get();
 596:Drivers/lvgl/src/extra/widgets/colorwheel/lv_colorwheel.c **** 
 597:Drivers/lvgl/src/extra/widgets/colorwheel/lv_colorwheel.c ****     return LV_RES_OK;
 598:Drivers/lvgl/src/extra/widgets/colorwheel/lv_colorwheel.c **** }
 599:Drivers/lvgl/src/extra/widgets/colorwheel/lv_colorwheel.c **** 
 600:Drivers/lvgl/src/extra/widgets/colorwheel/lv_colorwheel.c **** #define SWAPPTR(A, B) do { uint8_t * t = A; A = B; B = t; } while(0)
 601:Drivers/lvgl/src/extra/widgets/colorwheel/lv_colorwheel.c **** #define HSV_PTR_SWAP(sextant,r,g,b)     if((sextant) & 2) { SWAPPTR((r), (b)); } if((sextant) & 4) 
 602:Drivers/lvgl/src/extra/widgets/colorwheel/lv_colorwheel.c ****         if(!((sextant) & 1)) { SWAPPTR((r), (g)); } } else { if((sextant) & 1) { SWAPPTR((r), (g));
 603:Drivers/lvgl/src/extra/widgets/colorwheel/lv_colorwheel.c **** 
 604:Drivers/lvgl/src/extra/widgets/colorwheel/lv_colorwheel.c **** /**
 605:Drivers/lvgl/src/extra/widgets/colorwheel/lv_colorwheel.c ****  * Based on the idea from https://www.vagrearg.org/content/hsvrgb
 606:Drivers/lvgl/src/extra/widgets/colorwheel/lv_colorwheel.c ****  * Here we want to compute an approximate RGB value from a HSV input color space. We don't want to 
 607:Drivers/lvgl/src/extra/widgets/colorwheel/lv_colorwheel.c ****  * (for that, there's lv_color_hsv_to_rgb), but we want to be fast.
 608:Drivers/lvgl/src/extra/widgets/colorwheel/lv_colorwheel.c ****  *
 609:Drivers/lvgl/src/extra/widgets/colorwheel/lv_colorwheel.c ****  * Few tricks are used here: Hue is in range [0; 6 * 256] (so that the sextant is in the high byte 
 610:Drivers/lvgl/src/extra/widgets/colorwheel/lv_colorwheel.c ****  * both s and v are in [0; 255] range (very convenient to avoid divisions).
 611:Drivers/lvgl/src/extra/widgets/colorwheel/lv_colorwheel.c ****  *
ARM GAS  /var/folders/lp/x54gwt890xv47sdkqj1k04q40000gn/T//ccueOQ8a.s 			page 24


 612:Drivers/lvgl/src/extra/widgets/colorwheel/lv_colorwheel.c ****  * We fold all symmetry by swapping the R, G, B pointers so that the code is the same for all sexta
 613:Drivers/lvgl/src/extra/widgets/colorwheel/lv_colorwheel.c ****  * We replace division by 255 by a division by 256, a.k.a a shift right by 8 bits.
 614:Drivers/lvgl/src/extra/widgets/colorwheel/lv_colorwheel.c ****  * This is wrong, but since this is only used to compute the pixels on the screen and not the final
 615:Drivers/lvgl/src/extra/widgets/colorwheel/lv_colorwheel.c ****  */
 616:Drivers/lvgl/src/extra/widgets/colorwheel/lv_colorwheel.c **** static void fast_hsv2rgb(uint16_t h, uint8_t s, uint8_t v, uint8_t * r, uint8_t * g, uint8_t * b)
 252              		.loc 1 616 13 is_stmt 1 view -0
 253              		.cfi_startproc
 254              		@ args = 8, pretend = 0, frame = 0
 255              		@ frame_needed = 0, uses_anonymous_args = 0
 256              		@ link register save eliminated.
 257              		.loc 1 616 13 is_stmt 0 view .LVU69
 258 0000 9446     		mov	ip, r2
 617:Drivers/lvgl/src/extra/widgets/colorwheel/lv_colorwheel.c **** {
 618:Drivers/lvgl/src/extra/widgets/colorwheel/lv_colorwheel.c ****     if(!s) {
 619:Drivers/lvgl/src/extra/widgets/colorwheel/lv_colorwheel.c ****         *r = *g = *b = v;
 620:Drivers/lvgl/src/extra/widgets/colorwheel/lv_colorwheel.c ****         return;
 621:Drivers/lvgl/src/extra/widgets/colorwheel/lv_colorwheel.c ****     }
 622:Drivers/lvgl/src/extra/widgets/colorwheel/lv_colorwheel.c **** 
 623:Drivers/lvgl/src/extra/widgets/colorwheel/lv_colorwheel.c ****     uint8_t sextant = h >> 8;
 259              		.loc 1 623 13 view .LVU70
 260 0002 020A     		lsrs	r2, r0, #8
 261              	.LVL22:
 616:Drivers/lvgl/src/extra/widgets/colorwheel/lv_colorwheel.c **** {
 262              		.loc 1 616 13 view .LVU71
 263 0004 30B4     		push	{r4, r5}
 264              		.cfi_def_cfa_offset 8
 265              		.cfi_offset 4, -8
 266              		.cfi_offset 5, -4
 267              		.loc 1 623 5 is_stmt 1 view .LVU72
 268              	.LVL23:
 624:Drivers/lvgl/src/extra/widgets/colorwheel/lv_colorwheel.c ****     HSV_PTR_SWAP(sextant, r, g, b); /*Swap pointers so the conversion code is the same*/
 269              		.loc 1 624 5 view .LVU73
 270 0006 12F0020F 		tst	r2, #2
 616:Drivers/lvgl/src/extra/widgets/colorwheel/lv_colorwheel.c **** {
 271              		.loc 1 616 13 is_stmt 0 view .LVU74
 272 000a 029C     		ldr	r4, [sp, #8]
 273 000c 02F00405 		and	r5, r2, #4
 274              		.loc 1 624 5 view .LVU75
 275 0010 13D0     		beq	.L5
 276              		.loc 1 624 5 is_stmt 1 discriminator 1 view .LVU76
 277              		.loc 1 624 5 discriminator 1 view .LVU77
 278              	.LVL24:
 279              		.loc 1 624 5 discriminator 1 view .LVU78
 280              		.loc 1 624 5 discriminator 1 view .LVU79
 281              		.loc 1 624 5 discriminator 3 view .LVU80
 282              		.loc 1 624 5 discriminator 3 view .LVU81
 283 0012 002D     		cmp	r5, #0
 284 0014 1D46     		mov	r5, r3
 285 0016 04BF     		itt	eq
 286 0018 2346     		moveq	r3, r4
 287              	.LVL25:
 288              		.loc 1 624 5 is_stmt 0 discriminator 3 view .LVU82
 289 001a 2C46     		moveq	r4, r5
 290              	.LVL26:
 291              	.L6:
 292              		.loc 1 624 5 is_stmt 1 discriminator 6 view .LVU83
 293              		.loc 1 624 5 discriminator 6 view .LVU84
ARM GAS  /var/folders/lp/x54gwt890xv47sdkqj1k04q40000gn/T//ccueOQ8a.s 			page 25


 294 001c 12F0060F 		tst	r2, #6
 295 0020 10D0     		beq	.L17
 296              		.loc 1 624 5 discriminator 8 view .LVU85
 297 0022 D207     		lsls	r2, r2, #31
 298              	.LVL27:
 299              		.loc 1 624 5 is_stmt 0 discriminator 8 view .LVU86
 300 0024 36D5     		bpl	.L24
 301              	.LVL28:
 302              		.loc 1 624 5 is_stmt 1 discriminator 14 view .LVU87
 303              		.loc 1 624 35 discriminator 14 view .LVU88
 625:Drivers/lvgl/src/extra/widgets/colorwheel/lv_colorwheel.c **** 
 626:Drivers/lvgl/src/extra/widgets/colorwheel/lv_colorwheel.c ****     *g = v;
 304              		.loc 1 626 5 view .LVU89
 305              		.loc 1 626 8 is_stmt 0 view .LVU90
 306 0026 039A     		ldr	r2, [sp, #12]
 307 0028 82F800C0 		strb	ip, [r2]
 627:Drivers/lvgl/src/extra/widgets/colorwheel/lv_colorwheel.c **** 
 628:Drivers/lvgl/src/extra/widgets/colorwheel/lv_colorwheel.c ****     uint8_t bb = ~s;
 308              		.loc 1 628 5 is_stmt 1 view .LVU91
 309              	.LVL29:
 629:Drivers/lvgl/src/extra/widgets/colorwheel/lv_colorwheel.c ****     uint16_t ww = v * bb; /*Don't try to be precise, but instead, be fast*/
 310              		.loc 1 629 5 view .LVU92
 630:Drivers/lvgl/src/extra/widgets/colorwheel/lv_colorwheel.c ****     *b = ww >> 8;
 311              		.loc 1 630 5 view .LVU93
 628:Drivers/lvgl/src/extra/widgets/colorwheel/lv_colorwheel.c ****     uint16_t ww = v * bb; /*Don't try to be precise, but instead, be fast*/
 312              		.loc 1 628 13 is_stmt 0 view .LVU94
 313 002c CA43     		mvns	r2, r1
 629:Drivers/lvgl/src/extra/widgets/colorwheel/lv_colorwheel.c ****     uint16_t ww = v * bb; /*Don't try to be precise, but instead, be fast*/
 314              		.loc 1 629 21 view .LVU95
 315 002e D2B2     		uxtb	r2, r2
 316              		.loc 1 630 8 view .LVU96
 317 0030 02FB0CF2 		mul	r2, r2, ip
 318 0034 120A     		lsrs	r2, r2, #8
 319 0036 2270     		strb	r2, [r4]
 631:Drivers/lvgl/src/extra/widgets/colorwheel/lv_colorwheel.c **** 
 632:Drivers/lvgl/src/extra/widgets/colorwheel/lv_colorwheel.c ****     uint8_t h_frac = h & 0xff;
 320              		.loc 1 632 5 is_stmt 1 view .LVU97
 321              	.LVL30:
 633:Drivers/lvgl/src/extra/widgets/colorwheel/lv_colorwheel.c **** 
 634:Drivers/lvgl/src/extra/widgets/colorwheel/lv_colorwheel.c ****     if(!(sextant & 1)) {
 322              		.loc 1 634 5 view .LVU98
 323 0038 0FE0     		b	.L14
 324              	.LVL31:
 325              	.L5:
 624:Drivers/lvgl/src/extra/widgets/colorwheel/lv_colorwheel.c **** 
 326              		.loc 1 624 5 discriminator 3 view .LVU99
 624:Drivers/lvgl/src/extra/widgets/colorwheel/lv_colorwheel.c **** 
 327              		.loc 1 624 5 discriminator 3 view .LVU100
 328 003a D5B9     		cbnz	r5, .L19
 329 003c 2546     		mov	r5, r4
 330 003e 039C     		ldr	r4, [sp, #12]
 331              	.LVL32:
 624:Drivers/lvgl/src/extra/widgets/colorwheel/lv_colorwheel.c **** 
 332              		.loc 1 624 5 is_stmt 0 discriminator 3 view .LVU101
 333 0040 0393     		str	r3, [sp, #12]
 334 0042 2B46     		mov	r3, r5
 335              	.LVL33:
ARM GAS  /var/folders/lp/x54gwt890xv47sdkqj1k04q40000gn/T//ccueOQ8a.s 			page 26


 336              	.L17:
 624:Drivers/lvgl/src/extra/widgets/colorwheel/lv_colorwheel.c **** 
 337              		.loc 1 624 5 is_stmt 1 discriminator 7 view .LVU102
 338 0044 D507     		lsls	r5, r2, #31
 339 0046 18D5     		bpl	.L8
 340              	.LVL34:
 624:Drivers/lvgl/src/extra/widgets/colorwheel/lv_colorwheel.c **** 
 341              		.loc 1 624 5 discriminator 14 view .LVU103
 624:Drivers/lvgl/src/extra/widgets/colorwheel/lv_colorwheel.c **** 
 342              		.loc 1 624 35 discriminator 14 view .LVU104
 626:Drivers/lvgl/src/extra/widgets/colorwheel/lv_colorwheel.c **** 
 343              		.loc 1 626 5 view .LVU105
 626:Drivers/lvgl/src/extra/widgets/colorwheel/lv_colorwheel.c **** 
 344              		.loc 1 626 8 is_stmt 0 view .LVU106
 345 0048 83F800C0 		strb	ip, [r3]
 628:Drivers/lvgl/src/extra/widgets/colorwheel/lv_colorwheel.c ****     uint16_t ww = v * bb; /*Don't try to be precise, but instead, be fast*/
 346              		.loc 1 628 5 is_stmt 1 view .LVU107
 347              	.LVL35:
 629:Drivers/lvgl/src/extra/widgets/colorwheel/lv_colorwheel.c ****     *b = ww >> 8;
 348              		.loc 1 629 5 view .LVU108
 630:Drivers/lvgl/src/extra/widgets/colorwheel/lv_colorwheel.c **** 
 349              		.loc 1 630 5 view .LVU109
 628:Drivers/lvgl/src/extra/widgets/colorwheel/lv_colorwheel.c ****     uint16_t ww = v * bb; /*Don't try to be precise, but instead, be fast*/
 350              		.loc 1 628 13 is_stmt 0 view .LVU110
 351 004c CB43     		mvns	r3, r1
 352              	.LVL36:
 629:Drivers/lvgl/src/extra/widgets/colorwheel/lv_colorwheel.c ****     *b = ww >> 8;
 353              		.loc 1 629 21 view .LVU111
 354 004e DBB2     		uxtb	r3, r3
 630:Drivers/lvgl/src/extra/widgets/colorwheel/lv_colorwheel.c **** 
 355              		.loc 1 630 8 view .LVU112
 356 0050 03FB0CF3 		mul	r3, r3, ip
 357 0054 1B0A     		lsrs	r3, r3, #8
 358 0056 2370     		strb	r3, [r4]
 632:Drivers/lvgl/src/extra/widgets/colorwheel/lv_colorwheel.c **** 
 359              		.loc 1 632 5 is_stmt 1 view .LVU113
 360              	.LVL37:
 361              		.loc 1 634 5 view .LVU114
 630:Drivers/lvgl/src/extra/widgets/colorwheel/lv_colorwheel.c **** 
 362              		.loc 1 630 8 is_stmt 0 view .LVU115
 363 0058 039B     		ldr	r3, [sp, #12]
 364              	.LVL38:
 365              	.L14:
 635:Drivers/lvgl/src/extra/widgets/colorwheel/lv_colorwheel.c ****         /*Up slope*/
 636:Drivers/lvgl/src/extra/widgets/colorwheel/lv_colorwheel.c ****         ww = !h_frac ? ((uint16_t)s << 8) : (s * (uint8_t)(-h_frac)); /*Skip multiply if not requir
 637:Drivers/lvgl/src/extra/widgets/colorwheel/lv_colorwheel.c ****     }
 638:Drivers/lvgl/src/extra/widgets/colorwheel/lv_colorwheel.c ****     else {
 639:Drivers/lvgl/src/extra/widgets/colorwheel/lv_colorwheel.c ****         /*Down slope*/
 640:Drivers/lvgl/src/extra/widgets/colorwheel/lv_colorwheel.c ****         ww = s * h_frac;
 366              		.loc 1 640 9 is_stmt 1 view .LVU116
 367              		.loc 1 640 12 is_stmt 0 view .LVU117
 368 005a C0B2     		uxtb	r0, r0
 369              	.LVL39:
 370              		.loc 1 640 12 view .LVU118
 371 005c 00FB01F2 		mul	r2, r0, r1
 372              	.LVL40:
 373              	.L13:
ARM GAS  /var/folders/lp/x54gwt890xv47sdkqj1k04q40000gn/T//ccueOQ8a.s 			page 27


 641:Drivers/lvgl/src/extra/widgets/colorwheel/lv_colorwheel.c ****     }
 642:Drivers/lvgl/src/extra/widgets/colorwheel/lv_colorwheel.c ****     bb = ww >> 8;
 374              		.loc 1 642 5 is_stmt 1 view .LVU119
 643:Drivers/lvgl/src/extra/widgets/colorwheel/lv_colorwheel.c ****     bb = ~bb;
 375              		.loc 1 643 5 view .LVU120
 644:Drivers/lvgl/src/extra/widgets/colorwheel/lv_colorwheel.c ****     ww = v * bb;
 376              		.loc 1 644 5 view .LVU121
 645:Drivers/lvgl/src/extra/widgets/colorwheel/lv_colorwheel.c ****     *r = ww >> 8;
 377              		.loc 1 645 5 view .LVU122
 643:Drivers/lvgl/src/extra/widgets/colorwheel/lv_colorwheel.c ****     bb = ~bb;
 378              		.loc 1 643 8 is_stmt 0 view .LVU123
 379 0060 6FEA1222 		mvn	r2, r2, lsr #8
 380              	.LVL41:
 644:Drivers/lvgl/src/extra/widgets/colorwheel/lv_colorwheel.c ****     ww = v * bb;
 381              		.loc 1 644 12 view .LVU124
 382 0064 D2B2     		uxtb	r2, r2
 383              		.loc 1 645 8 view .LVU125
 384 0066 02FB0CF2 		mul	r2, r2, ip
 385 006a 120A     		lsrs	r2, r2, #8
 386 006c 1A70     		strb	r2, [r3]
 646:Drivers/lvgl/src/extra/widgets/colorwheel/lv_colorwheel.c **** }
 387              		.loc 1 646 1 view .LVU126
 388 006e 30BC     		pop	{r4, r5}
 389              		.cfi_remember_state
 390              		.cfi_restore 5
 391              		.cfi_restore 4
 392              		.cfi_def_cfa_offset 0
 393              	.LVL42:
 394              		.loc 1 646 1 view .LVU127
 395 0070 7047     		bx	lr
 396              	.LVL43:
 397              	.L19:
 398              		.cfi_restore_state
 624:Drivers/lvgl/src/extra/widgets/colorwheel/lv_colorwheel.c **** 
 399              		.loc 1 624 5 discriminator 3 view .LVU128
 400 0072 039D     		ldr	r5, [sp, #12]
 401              	.LVL44:
 624:Drivers/lvgl/src/extra/widgets/colorwheel/lv_colorwheel.c **** 
 402              		.loc 1 624 5 discriminator 3 view .LVU129
 403 0074 0393     		str	r3, [sp, #12]
 404 0076 2B46     		mov	r3, r5
 405              	.LVL45:
 624:Drivers/lvgl/src/extra/widgets/colorwheel/lv_colorwheel.c **** 
 406              		.loc 1 624 5 is_stmt 1 discriminator 4 view .LVU130
 407              	.LBB105:
 624:Drivers/lvgl/src/extra/widgets/colorwheel/lv_colorwheel.c **** 
 408              		.loc 1 624 5 discriminator 4 view .LVU131
 624:Drivers/lvgl/src/extra/widgets/colorwheel/lv_colorwheel.c **** 
 409              		.loc 1 624 5 discriminator 4 view .LVU132
 624:Drivers/lvgl/src/extra/widgets/colorwheel/lv_colorwheel.c **** 
 410              		.loc 1 624 5 discriminator 4 view .LVU133
 624:Drivers/lvgl/src/extra/widgets/colorwheel/lv_colorwheel.c **** 
 411              		.loc 1 624 5 is_stmt 0 discriminator 4 view .LVU134
 412 0078 D0E7     		b	.L6
 413              	.LVL46:
 414              	.L8:
 624:Drivers/lvgl/src/extra/widgets/colorwheel/lv_colorwheel.c **** 
ARM GAS  /var/folders/lp/x54gwt890xv47sdkqj1k04q40000gn/T//ccueOQ8a.s 			page 28


 415              		.loc 1 624 5 discriminator 4 view .LVU135
 416              	.LBE105:
 624:Drivers/lvgl/src/extra/widgets/colorwheel/lv_colorwheel.c **** 
 417              		.loc 1 624 5 is_stmt 1 discriminator 14 view .LVU136
 624:Drivers/lvgl/src/extra/widgets/colorwheel/lv_colorwheel.c **** 
 418              		.loc 1 624 35 discriminator 14 view .LVU137
 626:Drivers/lvgl/src/extra/widgets/colorwheel/lv_colorwheel.c **** 
 419              		.loc 1 626 5 view .LVU138
 626:Drivers/lvgl/src/extra/widgets/colorwheel/lv_colorwheel.c **** 
 420              		.loc 1 626 8 is_stmt 0 view .LVU139
 421 007a 039A     		ldr	r2, [sp, #12]
 422              	.LVL47:
 626:Drivers/lvgl/src/extra/widgets/colorwheel/lv_colorwheel.c **** 
 423              		.loc 1 626 8 view .LVU140
 424 007c 82F800C0 		strb	ip, [r2]
 628:Drivers/lvgl/src/extra/widgets/colorwheel/lv_colorwheel.c ****     uint16_t ww = v * bb; /*Don't try to be precise, but instead, be fast*/
 425              		.loc 1 628 5 is_stmt 1 view .LVU141
 426              	.LVL48:
 629:Drivers/lvgl/src/extra/widgets/colorwheel/lv_colorwheel.c ****     *b = ww >> 8;
 427              		.loc 1 629 5 view .LVU142
 630:Drivers/lvgl/src/extra/widgets/colorwheel/lv_colorwheel.c **** 
 428              		.loc 1 630 5 view .LVU143
 628:Drivers/lvgl/src/extra/widgets/colorwheel/lv_colorwheel.c ****     uint16_t ww = v * bb; /*Don't try to be precise, but instead, be fast*/
 429              		.loc 1 628 13 is_stmt 0 view .LVU144
 430 0080 CA43     		mvns	r2, r1
 629:Drivers/lvgl/src/extra/widgets/colorwheel/lv_colorwheel.c ****     *b = ww >> 8;
 431              		.loc 1 629 21 view .LVU145
 432 0082 D2B2     		uxtb	r2, r2
 630:Drivers/lvgl/src/extra/widgets/colorwheel/lv_colorwheel.c **** 
 433              		.loc 1 630 8 view .LVU146
 434 0084 02FB0CF2 		mul	r2, r2, ip
 435 0088 120A     		lsrs	r2, r2, #8
 632:Drivers/lvgl/src/extra/widgets/colorwheel/lv_colorwheel.c **** 
 436              		.loc 1 632 13 view .LVU147
 437 008a C0B2     		uxtb	r0, r0
 438              	.LVL49:
 630:Drivers/lvgl/src/extra/widgets/colorwheel/lv_colorwheel.c **** 
 439              		.loc 1 630 8 view .LVU148
 440 008c 2270     		strb	r2, [r4]
 632:Drivers/lvgl/src/extra/widgets/colorwheel/lv_colorwheel.c **** 
 441              		.loc 1 632 5 is_stmt 1 view .LVU149
 442              	.LVL50:
 634:Drivers/lvgl/src/extra/widgets/colorwheel/lv_colorwheel.c ****         /*Up slope*/
 443              		.loc 1 634 5 view .LVU150
 636:Drivers/lvgl/src/extra/widgets/colorwheel/lv_colorwheel.c ****     }
 444              		.loc 1 636 9 view .LVU151
 636:Drivers/lvgl/src/extra/widgets/colorwheel/lv_colorwheel.c ****     }
 445              		.loc 1 636 12 is_stmt 0 view .LVU152
 446 008e 68B9     		cbnz	r0, .L12
 447              	.L25:
 636:Drivers/lvgl/src/extra/widgets/colorwheel/lv_colorwheel.c ****     }
 448              		.loc 1 636 12 discriminator 1 view .LVU153
 449 0090 0A02     		lsls	r2, r1, #8
 450 0092 E5E7     		b	.L13
 451              	.LVL51:
 452              	.L24:
 626:Drivers/lvgl/src/extra/widgets/colorwheel/lv_colorwheel.c **** 
ARM GAS  /var/folders/lp/x54gwt890xv47sdkqj1k04q40000gn/T//ccueOQ8a.s 			page 29


 453              		.loc 1 626 8 view .LVU154
 454 0094 83F800C0 		strb	ip, [r3]
 628:Drivers/lvgl/src/extra/widgets/colorwheel/lv_colorwheel.c ****     uint16_t ww = v * bb; /*Don't try to be precise, but instead, be fast*/
 455              		.loc 1 628 13 view .LVU155
 456 0098 CB43     		mvns	r3, r1
 457              	.LVL52:
 629:Drivers/lvgl/src/extra/widgets/colorwheel/lv_colorwheel.c ****     *b = ww >> 8;
 458              		.loc 1 629 21 view .LVU156
 459 009a DBB2     		uxtb	r3, r3
 630:Drivers/lvgl/src/extra/widgets/colorwheel/lv_colorwheel.c **** 
 460              		.loc 1 630 8 view .LVU157
 461 009c 03FB0CF3 		mul	r3, r3, ip
 462 00a0 1B0A     		lsrs	r3, r3, #8
 632:Drivers/lvgl/src/extra/widgets/colorwheel/lv_colorwheel.c **** 
 463              		.loc 1 632 13 view .LVU158
 464 00a2 C0B2     		uxtb	r0, r0
 465              	.LVL53:
 624:Drivers/lvgl/src/extra/widgets/colorwheel/lv_colorwheel.c **** 
 466              		.loc 1 624 5 is_stmt 1 discriminator 14 view .LVU159
 624:Drivers/lvgl/src/extra/widgets/colorwheel/lv_colorwheel.c **** 
 467              		.loc 1 624 35 discriminator 14 view .LVU160
 626:Drivers/lvgl/src/extra/widgets/colorwheel/lv_colorwheel.c **** 
 468              		.loc 1 626 5 view .LVU161
 628:Drivers/lvgl/src/extra/widgets/colorwheel/lv_colorwheel.c ****     uint16_t ww = v * bb; /*Don't try to be precise, but instead, be fast*/
 469              		.loc 1 628 5 view .LVU162
 629:Drivers/lvgl/src/extra/widgets/colorwheel/lv_colorwheel.c ****     *b = ww >> 8;
 470              		.loc 1 629 5 view .LVU163
 630:Drivers/lvgl/src/extra/widgets/colorwheel/lv_colorwheel.c **** 
 471              		.loc 1 630 5 view .LVU164
 630:Drivers/lvgl/src/extra/widgets/colorwheel/lv_colorwheel.c **** 
 472              		.loc 1 630 8 is_stmt 0 view .LVU165
 473 00a4 2370     		strb	r3, [r4]
 632:Drivers/lvgl/src/extra/widgets/colorwheel/lv_colorwheel.c **** 
 474              		.loc 1 632 5 is_stmt 1 view .LVU166
 475              	.LVL54:
 634:Drivers/lvgl/src/extra/widgets/colorwheel/lv_colorwheel.c ****         /*Up slope*/
 476              		.loc 1 634 5 view .LVU167
 630:Drivers/lvgl/src/extra/widgets/colorwheel/lv_colorwheel.c **** 
 477              		.loc 1 630 8 is_stmt 0 view .LVU168
 478 00a6 039B     		ldr	r3, [sp, #12]
 479              	.LVL55:
 636:Drivers/lvgl/src/extra/widgets/colorwheel/lv_colorwheel.c ****     }
 480              		.loc 1 636 9 is_stmt 1 view .LVU169
 636:Drivers/lvgl/src/extra/widgets/colorwheel/lv_colorwheel.c ****     }
 481              		.loc 1 636 12 is_stmt 0 view .LVU170
 482 00a8 0028     		cmp	r0, #0
 483 00aa F1D0     		beq	.L25
 484              	.L12:
 636:Drivers/lvgl/src/extra/widgets/colorwheel/lv_colorwheel.c ****     }
 485              		.loc 1 636 50 discriminator 2 view .LVU171
 486 00ac 4042     		rsbs	r0, r0, #0
 487              	.LVL56:
 636:Drivers/lvgl/src/extra/widgets/colorwheel/lv_colorwheel.c ****     }
 488              		.loc 1 636 50 discriminator 2 view .LVU172
 489 00ae C0B2     		uxtb	r0, r0
 636:Drivers/lvgl/src/extra/widgets/colorwheel/lv_colorwheel.c ****     }
 490              		.loc 1 636 12 discriminator 2 view .LVU173
ARM GAS  /var/folders/lp/x54gwt890xv47sdkqj1k04q40000gn/T//ccueOQ8a.s 			page 30


 491 00b0 00FB01F2 		mul	r2, r0, r1
 492 00b4 D4E7     		b	.L13
 493              		.cfi_endproc
 494              	.LFE227:
 496 00b6 00BF     		.section	.text.refr_knob_pos,"ax",%progbits
 497              		.align	1
 498              		.p2align 2,,3
 499              		.syntax unified
 500              		.thumb
 501              		.thumb_func
 503              	refr_knob_pos:
 504              	.LVL57:
 505              	.LFB220:
 550:Drivers/lvgl/src/extra/widgets/colorwheel/lv_colorwheel.c ****     invalidate_knob(obj);
 506              		.loc 1 550 1 is_stmt 1 view -0
 507              		.cfi_startproc
 508              		@ args = 0, pretend = 0, frame = 8
 509              		@ frame_needed = 0, uses_anonymous_args = 0
 551:Drivers/lvgl/src/extra/widgets/colorwheel/lv_colorwheel.c **** 
 510              		.loc 1 551 5 view .LVU175
 550:Drivers/lvgl/src/extra/widgets/colorwheel/lv_colorwheel.c ****     invalidate_knob(obj);
 511              		.loc 1 550 1 is_stmt 0 view .LVU176
 512 0000 F0B5     		push	{r4, r5, r6, r7, lr}
 513              		.cfi_def_cfa_offset 20
 514              		.cfi_offset 4, -20
 515              		.cfi_offset 5, -16
 516              		.cfi_offset 6, -12
 517              		.cfi_offset 7, -8
 518              		.cfi_offset 14, -4
 519 0002 83B0     		sub	sp, sp, #12
 520              		.cfi_def_cfa_offset 32
 550:Drivers/lvgl/src/extra/widgets/colorwheel/lv_colorwheel.c ****     invalidate_knob(obj);
 521              		.loc 1 550 1 view .LVU177
 522 0004 0446     		mov	r4, r0
 523              	.LVL58:
 524              	.LBB116:
 525              	.LBI116:
 327:Drivers/lvgl/src/extra/widgets/colorwheel/lv_colorwheel.c **** {
 526              		.loc 1 327 13 is_stmt 1 view .LVU178
 527              	.LBB117:
 329:Drivers/lvgl/src/extra/widgets/colorwheel/lv_colorwheel.c **** 
 528              		.loc 1 329 5 view .LVU179
 329:Drivers/lvgl/src/extra/widgets/colorwheel/lv_colorwheel.c **** 
 529              		.loc 1 329 27 is_stmt 0 view .LVU180
 530 0006 0146     		mov	r1, r0
 531 0008 6846     		mov	r0, sp
 532              	.LVL59:
 329:Drivers/lvgl/src/extra/widgets/colorwheel/lv_colorwheel.c **** 
 533              		.loc 1 329 27 view .LVU181
 534 000a FFF7FEFF 		bl	get_knob_area
 535              	.LVL60:
 331:Drivers/lvgl/src/extra/widgets/colorwheel/lv_colorwheel.c **** }
 536              		.loc 1 331 5 is_stmt 1 view .LVU182
 537 000e 6946     		mov	r1, sp
 538 0010 2046     		mov	r0, r4
 539 0012 FFF7FEFF 		bl	lv_obj_invalidate_area
 540              	.LVL61:
ARM GAS  /var/folders/lp/x54gwt890xv47sdkqj1k04q40000gn/T//ccueOQ8a.s 			page 31


 331:Drivers/lvgl/src/extra/widgets/colorwheel/lv_colorwheel.c **** }
 541              		.loc 1 331 5 is_stmt 0 view .LVU183
 542              	.LBE117:
 543              	.LBE116:
 553:Drivers/lvgl/src/extra/widgets/colorwheel/lv_colorwheel.c ****     lv_coord_t w = lv_obj_get_width(obj);
 544              		.loc 1 553 5 is_stmt 1 view .LVU184
 554:Drivers/lvgl/src/extra/widgets/colorwheel/lv_colorwheel.c **** 
 545              		.loc 1 554 5 view .LVU185
 554:Drivers/lvgl/src/extra/widgets/colorwheel/lv_colorwheel.c **** 
 546              		.loc 1 554 20 is_stmt 0 view .LVU186
 547 0016 2046     		mov	r0, r4
 548 0018 FFF7FEFF 		bl	lv_obj_get_width
 549              	.LVL62:
 550              	.LBB118:
 551              	.LBB119:
 411:Drivers/lvgl/src/extra/widgets/colorwheel/../../../../src/core/lv_obj_style_gen.h ****     return (lv_coord_t)v.num;
 552              		.loc 2 411 26 view .LVU187
 553 001c 5022     		movs	r2, #80
 554              	.LBE119:
 555              	.LBE118:
 554:Drivers/lvgl/src/extra/widgets/colorwheel/lv_colorwheel.c **** 
 556              		.loc 1 554 20 view .LVU188
 557 001e 0546     		mov	r5, r0
 558              	.LVL63:
 556:Drivers/lvgl/src/extra/widgets/colorwheel/lv_colorwheel.c ****     lv_coord_t r = (w - scale_w) / 2;
 559              		.loc 1 556 5 is_stmt 1 view .LVU189
 560              	.LBB122:
 561              	.LBI118:
 409:Drivers/lvgl/src/extra/widgets/colorwheel/../../../../src/core/lv_obj_style_gen.h **** {
 562              		.loc 2 409 26 view .LVU190
 563              	.LBB120:
 411:Drivers/lvgl/src/extra/widgets/colorwheel/../../../../src/core/lv_obj_style_gen.h ****     return (lv_coord_t)v.num;
 564              		.loc 2 411 5 view .LVU191
 411:Drivers/lvgl/src/extra/widgets/colorwheel/../../../../src/core/lv_obj_style_gen.h ****     return (lv_coord_t)v.num;
 565              		.loc 2 411 26 is_stmt 0 view .LVU192
 566 0020 0021     		movs	r1, #0
 567 0022 2046     		mov	r0, r4
 568 0024 FFF7FEFF 		bl	lv_obj_get_style_prop
 569              	.LVL64:
 570              		.loc 2 412 5 is_stmt 1 view .LVU193
 571              	.LBE120:
 572              	.LBE122:
 573              	.LBB123:
 574              	.LBB124:
 647:Drivers/lvgl/src/extra/widgets/colorwheel/lv_colorwheel.c **** 
 648:Drivers/lvgl/src/extra/widgets/colorwheel/lv_colorwheel.c **** static lv_color_t angle_to_mode_color_fast(lv_obj_t * obj, uint16_t angle)
 649:Drivers/lvgl/src/extra/widgets/colorwheel/lv_colorwheel.c **** {
 650:Drivers/lvgl/src/extra/widgets/colorwheel/lv_colorwheel.c ****     lv_colorwheel_t * ext = (lv_colorwheel_t *)obj;
 651:Drivers/lvgl/src/extra/widgets/colorwheel/lv_colorwheel.c ****     uint8_t r = 0, g = 0, b = 0;
 652:Drivers/lvgl/src/extra/widgets/colorwheel/lv_colorwheel.c ****     static uint16_t h = 0;
 653:Drivers/lvgl/src/extra/widgets/colorwheel/lv_colorwheel.c ****     static uint8_t s = 0, v = 0, m = 255;
 654:Drivers/lvgl/src/extra/widgets/colorwheel/lv_colorwheel.c ****     static uint16_t angle_saved = 0xffff;
 655:Drivers/lvgl/src/extra/widgets/colorwheel/lv_colorwheel.c **** 
 656:Drivers/lvgl/src/extra/widgets/colorwheel/lv_colorwheel.c ****     /*If the angle is different recalculate scaling*/
 657:Drivers/lvgl/src/extra/widgets/colorwheel/lv_colorwheel.c ****     if(angle_saved != angle) m = 255;
 658:Drivers/lvgl/src/extra/widgets/colorwheel/lv_colorwheel.c ****     angle_saved = angle;
 659:Drivers/lvgl/src/extra/widgets/colorwheel/lv_colorwheel.c **** 
ARM GAS  /var/folders/lp/x54gwt890xv47sdkqj1k04q40000gn/T//ccueOQ8a.s 			page 32


 660:Drivers/lvgl/src/extra/widgets/colorwheel/lv_colorwheel.c ****     switch(ext->mode) {
 661:Drivers/lvgl/src/extra/widgets/colorwheel/lv_colorwheel.c ****         default:
 662:Drivers/lvgl/src/extra/widgets/colorwheel/lv_colorwheel.c ****         case LV_COLORWHEEL_MODE_HUE:
 663:Drivers/lvgl/src/extra/widgets/colorwheel/lv_colorwheel.c ****             /*Don't recompute costly scaling if it does not change*/
 664:Drivers/lvgl/src/extra/widgets/colorwheel/lv_colorwheel.c ****             if(m != ext->mode) {
 665:Drivers/lvgl/src/extra/widgets/colorwheel/lv_colorwheel.c ****                 s = (uint8_t)(((uint16_t)ext->hsv.s * 51) / 20);
 666:Drivers/lvgl/src/extra/widgets/colorwheel/lv_colorwheel.c ****                 v = (uint8_t)(((uint16_t)ext->hsv.v * 51) / 20);
 667:Drivers/lvgl/src/extra/widgets/colorwheel/lv_colorwheel.c ****                 m = ext->mode;
 668:Drivers/lvgl/src/extra/widgets/colorwheel/lv_colorwheel.c ****             }
 669:Drivers/lvgl/src/extra/widgets/colorwheel/lv_colorwheel.c ****             fast_hsv2rgb(angle * 6, s, v, &r, &g,
 670:Drivers/lvgl/src/extra/widgets/colorwheel/lv_colorwheel.c ****                          &b); /*A smart compiler will replace x * 6 by (x << 2) + (x << 1) if it's 
 671:Drivers/lvgl/src/extra/widgets/colorwheel/lv_colorwheel.c ****             break;
 672:Drivers/lvgl/src/extra/widgets/colorwheel/lv_colorwheel.c ****         case LV_COLORWHEEL_MODE_SATURATION:
 673:Drivers/lvgl/src/extra/widgets/colorwheel/lv_colorwheel.c ****             /*Don't recompute costly scaling if it does not change*/
 674:Drivers/lvgl/src/extra/widgets/colorwheel/lv_colorwheel.c ****             if(m != ext->mode) {
 675:Drivers/lvgl/src/extra/widgets/colorwheel/lv_colorwheel.c ****                 h = (uint16_t)(((uint32_t)ext->hsv.h * 6 * 256) / 360);
 676:Drivers/lvgl/src/extra/widgets/colorwheel/lv_colorwheel.c ****                 v = (uint8_t)(((uint16_t)ext->hsv.v * 51) / 20);
 677:Drivers/lvgl/src/extra/widgets/colorwheel/lv_colorwheel.c ****                 m = ext->mode;
 678:Drivers/lvgl/src/extra/widgets/colorwheel/lv_colorwheel.c ****             }
 679:Drivers/lvgl/src/extra/widgets/colorwheel/lv_colorwheel.c ****             fast_hsv2rgb(h, angle, v, &r, &g, &b);
 680:Drivers/lvgl/src/extra/widgets/colorwheel/lv_colorwheel.c ****             break;
 681:Drivers/lvgl/src/extra/widgets/colorwheel/lv_colorwheel.c ****         case LV_COLORWHEEL_MODE_VALUE:
 682:Drivers/lvgl/src/extra/widgets/colorwheel/lv_colorwheel.c ****             /*Don't recompute costly scaling if it does not change*/
 683:Drivers/lvgl/src/extra/widgets/colorwheel/lv_colorwheel.c ****             if(m != ext->mode) {
 684:Drivers/lvgl/src/extra/widgets/colorwheel/lv_colorwheel.c ****                 h = (uint16_t)(((uint32_t)ext->hsv.h * 6 * 256) / 360);
 685:Drivers/lvgl/src/extra/widgets/colorwheel/lv_colorwheel.c ****                 s = (uint8_t)(((uint16_t)ext->hsv.s * 51) / 20);
 686:Drivers/lvgl/src/extra/widgets/colorwheel/lv_colorwheel.c ****                 m = ext->mode;
 687:Drivers/lvgl/src/extra/widgets/colorwheel/lv_colorwheel.c ****             }
 688:Drivers/lvgl/src/extra/widgets/colorwheel/lv_colorwheel.c ****             fast_hsv2rgb(h, s, angle, &r, &g, &b);
 689:Drivers/lvgl/src/extra/widgets/colorwheel/lv_colorwheel.c ****             break;
 690:Drivers/lvgl/src/extra/widgets/colorwheel/lv_colorwheel.c ****     }
 691:Drivers/lvgl/src/extra/widgets/colorwheel/lv_colorwheel.c ****     return lv_color_make(r, g, b);
 692:Drivers/lvgl/src/extra/widgets/colorwheel/lv_colorwheel.c **** }
 693:Drivers/lvgl/src/extra/widgets/colorwheel/lv_colorwheel.c **** 
 694:Drivers/lvgl/src/extra/widgets/colorwheel/lv_colorwheel.c **** static uint16_t get_angle(lv_obj_t * obj)
 695:Drivers/lvgl/src/extra/widgets/colorwheel/lv_colorwheel.c **** {
 696:Drivers/lvgl/src/extra/widgets/colorwheel/lv_colorwheel.c ****     lv_colorwheel_t * colorwheel = (lv_colorwheel_t *)obj;
 697:Drivers/lvgl/src/extra/widgets/colorwheel/lv_colorwheel.c ****     uint16_t angle;
 698:Drivers/lvgl/src/extra/widgets/colorwheel/lv_colorwheel.c ****     switch(colorwheel->mode) {
 575              		.loc 1 698 22 is_stmt 0 view .LVU194
 576 0028 94F83C30 		ldrb	r3, [r4, #60]	@ zero_extendqisi2
 577              	.LBE124:
 578              	.LBE123:
 579              	.LBB129:
 580              	.LBB121:
 581              		.loc 2 412 12 view .LVU195
 582 002c 06B2     		sxth	r6, r0
 583              	.LVL65:
 584              		.loc 2 412 12 view .LVU196
 585              	.LBE121:
 586              	.LBE129:
 557:Drivers/lvgl/src/extra/widgets/colorwheel/lv_colorwheel.c ****     uint16_t angle = get_angle(obj);
 587              		.loc 1 557 5 is_stmt 1 view .LVU197
 557:Drivers/lvgl/src/extra/widgets/colorwheel/lv_colorwheel.c ****     uint16_t angle = get_angle(obj);
 588              		.loc 1 557 23 is_stmt 0 view .LVU198
 589 002e AE1B     		subs	r6, r5, r6
 590              	.LVL66:
ARM GAS  /var/folders/lp/x54gwt890xv47sdkqj1k04q40000gn/T//ccueOQ8a.s 			page 33


 591              	.LBB130:
 592              	.LBB125:
 593              		.loc 1 698 22 view .LVU199
 594 0030 03F00303 		and	r3, r3, #3
 595              	.LBE125:
 596              	.LBE130:
 557:Drivers/lvgl/src/extra/widgets/colorwheel/lv_colorwheel.c ****     uint16_t angle = get_angle(obj);
 597              		.loc 1 557 34 view .LVU200
 598 0034 06EBD676 		add	r6, r6, r6, lsr #31
 599              	.LBB131:
 600              	.LBB126:
 601              		.loc 1 698 5 view .LVU201
 602 0038 012B     		cmp	r3, #1
 603              	.LBE126:
 604              	.LBE131:
 557:Drivers/lvgl/src/extra/widgets/colorwheel/lv_colorwheel.c ****     uint16_t angle = get_angle(obj);
 605              		.loc 1 557 34 view .LVU202
 606 003a 4FEA6606 		asr	r6, r6, #1
 607              	.LVL67:
 558:Drivers/lvgl/src/extra/widgets/colorwheel/lv_colorwheel.c ****     colorwheel->knob.pos.x = (((int32_t)r * lv_trigo_sin(angle)) >> LV_TRIGO_SHIFT);
 608              		.loc 1 558 5 is_stmt 1 view .LVU203
 609              	.LBB132:
 610              	.LBI123:
 694:Drivers/lvgl/src/extra/widgets/colorwheel/lv_colorwheel.c **** {
 611              		.loc 1 694 17 view .LVU204
 612              	.LBB127:
 696:Drivers/lvgl/src/extra/widgets/colorwheel/lv_colorwheel.c ****     uint16_t angle;
 613              		.loc 1 696 5 view .LVU205
 697:Drivers/lvgl/src/extra/widgets/colorwheel/lv_colorwheel.c ****     switch(colorwheel->mode) {
 614              		.loc 1 697 5 view .LVU206
 615              		.loc 1 698 5 view .LVU207
 616 003e 2FD0     		beq	.L27
 617 0040 022B     		cmp	r3, #2
 618 0042 2BD1     		bne	.L32
 699:Drivers/lvgl/src/extra/widgets/colorwheel/lv_colorwheel.c ****         default:
 700:Drivers/lvgl/src/extra/widgets/colorwheel/lv_colorwheel.c ****         case LV_COLORWHEEL_MODE_HUE:
 701:Drivers/lvgl/src/extra/widgets/colorwheel/lv_colorwheel.c ****             angle = colorwheel->hsv.h;
 702:Drivers/lvgl/src/extra/widgets/colorwheel/lv_colorwheel.c ****             break;
 703:Drivers/lvgl/src/extra/widgets/colorwheel/lv_colorwheel.c ****         case LV_COLORWHEEL_MODE_SATURATION:
 704:Drivers/lvgl/src/extra/widgets/colorwheel/lv_colorwheel.c ****             angle = (colorwheel->hsv.s * 360) / 100;
 705:Drivers/lvgl/src/extra/widgets/colorwheel/lv_colorwheel.c ****             break;
 706:Drivers/lvgl/src/extra/widgets/colorwheel/lv_colorwheel.c ****         case LV_COLORWHEEL_MODE_VALUE:
 707:Drivers/lvgl/src/extra/widgets/colorwheel/lv_colorwheel.c ****             angle = (colorwheel->hsv.v * 360) / 100 ;
 619              		.loc 1 707 13 view .LVU208
 620              		.loc 1 707 37 is_stmt 0 view .LVU209
 621 0044 94F82770 		ldrb	r7, [r4, #39]	@ zero_extendqisi2
 622              	.L31:
 623              		.loc 1 707 47 view .LVU210
 624 0048 174B     		ldr	r3, .L33
 625              		.loc 1 707 40 view .LVU211
 626 004a 4FF4B472 		mov	r2, #360
 627 004e 02FB07F7 		mul	r7, r2, r7
 628              		.loc 1 707 47 view .LVU212
 629 0052 A3FB0737 		umull	r3, r7, r3, r7
 630              		.loc 1 707 19 view .LVU213
 631 0056 7F09     		lsrs	r7, r7, #5
 632              	.LVL68:
ARM GAS  /var/folders/lp/x54gwt890xv47sdkqj1k04q40000gn/T//ccueOQ8a.s 			page 34


 708:Drivers/lvgl/src/extra/widgets/colorwheel/lv_colorwheel.c ****             break;
 633              		.loc 1 708 13 is_stmt 1 view .LVU214
 634              	.L29:
 709:Drivers/lvgl/src/extra/widgets/colorwheel/lv_colorwheel.c ****     }
 710:Drivers/lvgl/src/extra/widgets/colorwheel/lv_colorwheel.c ****     return angle;
 635              		.loc 1 710 5 view .LVU215
 636              		.loc 1 710 5 is_stmt 0 view .LVU216
 637              	.LBE127:
 638              	.LBE132:
 559:Drivers/lvgl/src/extra/widgets/colorwheel/lv_colorwheel.c ****     colorwheel->knob.pos.y = (((int32_t)r * lv_trigo_cos(angle)) >> LV_TRIGO_SHIFT);
 639              		.loc 1 559 5 is_stmt 1 view .LVU217
 559:Drivers/lvgl/src/extra/widgets/colorwheel/lv_colorwheel.c ****     colorwheel->knob.pos.y = (((int32_t)r * lv_trigo_cos(angle)) >> LV_TRIGO_SHIFT);
 640              		.loc 1 559 45 is_stmt 0 view .LVU218
 641 0058 38B2     		sxth	r0, r7
 642              	.LVL69:
 559:Drivers/lvgl/src/extra/widgets/colorwheel/lv_colorwheel.c ****     colorwheel->knob.pos.y = (((int32_t)r * lv_trigo_cos(angle)) >> LV_TRIGO_SHIFT);
 643              		.loc 1 559 45 view .LVU219
 644 005a FFF7FEFF 		bl	lv_trigo_sin
 645              	.LVL70:
 559:Drivers/lvgl/src/extra/widgets/colorwheel/lv_colorwheel.c ****     colorwheel->knob.pos.y = (((int32_t)r * lv_trigo_cos(angle)) >> LV_TRIGO_SHIFT);
 646              		.loc 1 559 43 discriminator 1 view .LVU220
 647 005e 06FB00F0 		mul	r0, r6, r0
 559:Drivers/lvgl/src/extra/widgets/colorwheel/lv_colorwheel.c ****     colorwheel->knob.pos.y = (((int32_t)r * lv_trigo_cos(angle)) >> LV_TRIGO_SHIFT);
 648              		.loc 1 559 66 discriminator 1 view .LVU221
 649 0062 C013     		asrs	r0, r0, #15
 559:Drivers/lvgl/src/extra/widgets/colorwheel/lv_colorwheel.c ****     colorwheel->knob.pos.y = (((int32_t)r * lv_trigo_cos(angle)) >> LV_TRIGO_SHIFT);
 650              		.loc 1 559 28 discriminator 1 view .LVU222
 651 0064 2085     		strh	r0, [r4, #40]	@ movhi
 560:Drivers/lvgl/src/extra/widgets/colorwheel/lv_colorwheel.c ****     colorwheel->knob.pos.x = colorwheel->knob.pos.x + w / 2;
 652              		.loc 1 560 5 is_stmt 1 view .LVU223
 653              	.LVL71:
 654              	.LBB133:
 655              	.LBI133:
 656              		.file 3 "Drivers/lvgl/src/extra/widgets/colorwheel/../../../../src/misc/lv_math.h"
   1:Drivers/lvgl/src/extra/widgets/colorwheel/../../../../src/misc/lv_math.h **** /**
   2:Drivers/lvgl/src/extra/widgets/colorwheel/../../../../src/misc/lv_math.h ****  * @file lv_math.h
   3:Drivers/lvgl/src/extra/widgets/colorwheel/../../../../src/misc/lv_math.h ****  *
   4:Drivers/lvgl/src/extra/widgets/colorwheel/../../../../src/misc/lv_math.h ****  */
   5:Drivers/lvgl/src/extra/widgets/colorwheel/../../../../src/misc/lv_math.h **** 
   6:Drivers/lvgl/src/extra/widgets/colorwheel/../../../../src/misc/lv_math.h **** #ifndef LV_MATH_H
   7:Drivers/lvgl/src/extra/widgets/colorwheel/../../../../src/misc/lv_math.h **** #define LV_MATH_H
   8:Drivers/lvgl/src/extra/widgets/colorwheel/../../../../src/misc/lv_math.h **** 
   9:Drivers/lvgl/src/extra/widgets/colorwheel/../../../../src/misc/lv_math.h **** #ifdef __cplusplus
  10:Drivers/lvgl/src/extra/widgets/colorwheel/../../../../src/misc/lv_math.h **** extern "C" {
  11:Drivers/lvgl/src/extra/widgets/colorwheel/../../../../src/misc/lv_math.h **** #endif
  12:Drivers/lvgl/src/extra/widgets/colorwheel/../../../../src/misc/lv_math.h **** 
  13:Drivers/lvgl/src/extra/widgets/colorwheel/../../../../src/misc/lv_math.h **** /*********************
  14:Drivers/lvgl/src/extra/widgets/colorwheel/../../../../src/misc/lv_math.h ****  *      INCLUDES
  15:Drivers/lvgl/src/extra/widgets/colorwheel/../../../../src/misc/lv_math.h ****  *********************/
  16:Drivers/lvgl/src/extra/widgets/colorwheel/../../../../src/misc/lv_math.h **** #include "../lv_conf_internal.h"
  17:Drivers/lvgl/src/extra/widgets/colorwheel/../../../../src/misc/lv_math.h **** #include <stdint.h>
  18:Drivers/lvgl/src/extra/widgets/colorwheel/../../../../src/misc/lv_math.h **** 
  19:Drivers/lvgl/src/extra/widgets/colorwheel/../../../../src/misc/lv_math.h **** /*********************
  20:Drivers/lvgl/src/extra/widgets/colorwheel/../../../../src/misc/lv_math.h ****  *      DEFINES
  21:Drivers/lvgl/src/extra/widgets/colorwheel/../../../../src/misc/lv_math.h ****  *********************/
  22:Drivers/lvgl/src/extra/widgets/colorwheel/../../../../src/misc/lv_math.h **** #define LV_TRIGO_SIN_MAX 32767
  23:Drivers/lvgl/src/extra/widgets/colorwheel/../../../../src/misc/lv_math.h **** #define LV_TRIGO_SHIFT 15 /**<  >> LV_TRIGO_SHIFT to normalize*/
ARM GAS  /var/folders/lp/x54gwt890xv47sdkqj1k04q40000gn/T//ccueOQ8a.s 			page 35


  24:Drivers/lvgl/src/extra/widgets/colorwheel/../../../../src/misc/lv_math.h **** 
  25:Drivers/lvgl/src/extra/widgets/colorwheel/../../../../src/misc/lv_math.h **** #define LV_BEZIER_VAL_MAX 1024 /**< Max time in Bezier functions (not [0..1] to use integers)*/
  26:Drivers/lvgl/src/extra/widgets/colorwheel/../../../../src/misc/lv_math.h **** #define LV_BEZIER_VAL_SHIFT 10 /**< log2(LV_BEZIER_VAL_MAX): used to normalize up scaled values*/
  27:Drivers/lvgl/src/extra/widgets/colorwheel/../../../../src/misc/lv_math.h **** 
  28:Drivers/lvgl/src/extra/widgets/colorwheel/../../../../src/misc/lv_math.h **** /**********************
  29:Drivers/lvgl/src/extra/widgets/colorwheel/../../../../src/misc/lv_math.h ****  *      TYPEDEFS
  30:Drivers/lvgl/src/extra/widgets/colorwheel/../../../../src/misc/lv_math.h ****  **********************/
  31:Drivers/lvgl/src/extra/widgets/colorwheel/../../../../src/misc/lv_math.h **** 
  32:Drivers/lvgl/src/extra/widgets/colorwheel/../../../../src/misc/lv_math.h **** typedef struct {
  33:Drivers/lvgl/src/extra/widgets/colorwheel/../../../../src/misc/lv_math.h ****     uint16_t i;
  34:Drivers/lvgl/src/extra/widgets/colorwheel/../../../../src/misc/lv_math.h ****     uint16_t f;
  35:Drivers/lvgl/src/extra/widgets/colorwheel/../../../../src/misc/lv_math.h **** } lv_sqrt_res_t;
  36:Drivers/lvgl/src/extra/widgets/colorwheel/../../../../src/misc/lv_math.h **** 
  37:Drivers/lvgl/src/extra/widgets/colorwheel/../../../../src/misc/lv_math.h **** /**********************
  38:Drivers/lvgl/src/extra/widgets/colorwheel/../../../../src/misc/lv_math.h ****  * GLOBAL PROTOTYPES
  39:Drivers/lvgl/src/extra/widgets/colorwheel/../../../../src/misc/lv_math.h ****  **********************/
  40:Drivers/lvgl/src/extra/widgets/colorwheel/../../../../src/misc/lv_math.h **** 
  41:Drivers/lvgl/src/extra/widgets/colorwheel/../../../../src/misc/lv_math.h **** //! @cond Doxygen_Suppress
  42:Drivers/lvgl/src/extra/widgets/colorwheel/../../../../src/misc/lv_math.h **** /**
  43:Drivers/lvgl/src/extra/widgets/colorwheel/../../../../src/misc/lv_math.h ****  * Return with sinus of an angle
  44:Drivers/lvgl/src/extra/widgets/colorwheel/../../../../src/misc/lv_math.h ****  * @param angle
  45:Drivers/lvgl/src/extra/widgets/colorwheel/../../../../src/misc/lv_math.h ****  * @return sinus of 'angle'. sin(-90) = -32767, sin(90) = 32767
  46:Drivers/lvgl/src/extra/widgets/colorwheel/../../../../src/misc/lv_math.h ****  */
  47:Drivers/lvgl/src/extra/widgets/colorwheel/../../../../src/misc/lv_math.h **** int16_t /* LV_ATTRIBUTE_FAST_MEM */ lv_trigo_sin(int16_t angle);
  48:Drivers/lvgl/src/extra/widgets/colorwheel/../../../../src/misc/lv_math.h **** 
  49:Drivers/lvgl/src/extra/widgets/colorwheel/../../../../src/misc/lv_math.h **** static inline int16_t LV_ATTRIBUTE_FAST_MEM lv_trigo_cos(int16_t angle)
 657              		.loc 3 49 45 view .LVU224
 658              	.LBB134:
  50:Drivers/lvgl/src/extra/widgets/colorwheel/../../../../src/misc/lv_math.h **** {
  51:Drivers/lvgl/src/extra/widgets/colorwheel/../../../../src/misc/lv_math.h ****     return lv_trigo_sin(angle + 90);
 659              		.loc 3 51 5 view .LVU225
 660              		.loc 3 51 31 is_stmt 0 view .LVU226
 661 0066 07F15A00 		add	r0, r7, #90
 662              		.loc 3 51 12 view .LVU227
 663 006a 00B2     		sxth	r0, r0
 664 006c FFF7FEFF 		bl	lv_trigo_sin
 665              	.LVL72:
 666              		.loc 3 51 12 view .LVU228
 667              	.LBE134:
 668              	.LBE133:
 561:Drivers/lvgl/src/extra/widgets/colorwheel/lv_colorwheel.c ****     colorwheel->knob.pos.y = colorwheel->knob.pos.y + w / 2;
 669              		.loc 1 561 5 is_stmt 1 view .LVU229
 561:Drivers/lvgl/src/extra/widgets/colorwheel/lv_colorwheel.c ****     colorwheel->knob.pos.y = colorwheel->knob.pos.y + w / 2;
 670              		.loc 1 561 53 is_stmt 0 view .LVU230
 671 0070 05EBD575 		add	r5, r5, r5, lsr #31
 672              	.LVL73:
 561:Drivers/lvgl/src/extra/widgets/colorwheel/lv_colorwheel.c ****     colorwheel->knob.pos.y = colorwheel->knob.pos.y + w / 2;
 673              		.loc 1 561 53 view .LVU231
 674 0074 238D     		ldrh	r3, [r4, #40]
 560:Drivers/lvgl/src/extra/widgets/colorwheel/lv_colorwheel.c ****     colorwheel->knob.pos.x = colorwheel->knob.pos.x + w / 2;
 675              		.loc 1 560 43 discriminator 1 view .LVU232
 676 0076 06FB00F0 		mul	r0, r6, r0
 561:Drivers/lvgl/src/extra/widgets/colorwheel/lv_colorwheel.c ****     colorwheel->knob.pos.y = colorwheel->knob.pos.y + w / 2;
 677              		.loc 1 561 53 view .LVU233
 678 007a C5F34F05 		ubfx	r5, r5, #1, #16
 562:Drivers/lvgl/src/extra/widgets/colorwheel/lv_colorwheel.c **** 
 679              		.loc 1 562 53 view .LVU234
ARM GAS  /var/folders/lp/x54gwt890xv47sdkqj1k04q40000gn/T//ccueOQ8a.s 			page 36


 680 007e 05EBE030 		add	r0, r5, r0, asr #15
 561:Drivers/lvgl/src/extra/widgets/colorwheel/lv_colorwheel.c ****     colorwheel->knob.pos.y = colorwheel->knob.pos.y + w / 2;
 681              		.loc 1 561 53 view .LVU235
 682 0082 1D44     		add	r5, r5, r3
 562:Drivers/lvgl/src/extra/widgets/colorwheel/lv_colorwheel.c **** 
 683              		.loc 1 562 28 view .LVU236
 684 0084 6085     		strh	r0, [r4, #42]	@ movhi
 685              	.LBB135:
 686              	.LBB136:
 329:Drivers/lvgl/src/extra/widgets/colorwheel/lv_colorwheel.c **** 
 687              		.loc 1 329 27 view .LVU237
 688 0086 2146     		mov	r1, r4
 689 0088 6846     		mov	r0, sp
 690              	.LBE136:
 691              	.LBE135:
 561:Drivers/lvgl/src/extra/widgets/colorwheel/lv_colorwheel.c ****     colorwheel->knob.pos.y = colorwheel->knob.pos.y + w / 2;
 692              		.loc 1 561 28 view .LVU238
 693 008a 2585     		strh	r5, [r4, #40]	@ movhi
 562:Drivers/lvgl/src/extra/widgets/colorwheel/lv_colorwheel.c **** 
 694              		.loc 1 562 5 is_stmt 1 view .LVU239
 564:Drivers/lvgl/src/extra/widgets/colorwheel/lv_colorwheel.c **** }
 695              		.loc 1 564 5 view .LVU240
 696              	.LVL74:
 697              	.LBB138:
 698              	.LBI135:
 327:Drivers/lvgl/src/extra/widgets/colorwheel/lv_colorwheel.c **** {
 699              		.loc 1 327 13 view .LVU241
 700              	.LBB137:
 329:Drivers/lvgl/src/extra/widgets/colorwheel/lv_colorwheel.c **** 
 701              		.loc 1 329 5 view .LVU242
 329:Drivers/lvgl/src/extra/widgets/colorwheel/lv_colorwheel.c **** 
 702              		.loc 1 329 27 is_stmt 0 view .LVU243
 703 008c FFF7FEFF 		bl	get_knob_area
 704              	.LVL75:
 331:Drivers/lvgl/src/extra/widgets/colorwheel/lv_colorwheel.c **** }
 705              		.loc 1 331 5 is_stmt 1 view .LVU244
 706 0090 6946     		mov	r1, sp
 707 0092 2046     		mov	r0, r4
 708 0094 FFF7FEFF 		bl	lv_obj_invalidate_area
 709              	.LVL76:
 331:Drivers/lvgl/src/extra/widgets/colorwheel/lv_colorwheel.c **** }
 710              		.loc 1 331 5 is_stmt 0 view .LVU245
 711              	.LBE137:
 712              	.LBE138:
 565:Drivers/lvgl/src/extra/widgets/colorwheel/lv_colorwheel.c **** 
 713              		.loc 1 565 1 view .LVU246
 714 0098 03B0     		add	sp, sp, #12
 715              		.cfi_remember_state
 716              		.cfi_def_cfa_offset 20
 717              		@ sp needed
 718 009a F0BD     		pop	{r4, r5, r6, r7, pc}
 719              	.LVL77:
 720              	.L32:
 721              		.cfi_restore_state
 722              	.LBB139:
 723              	.LBB128:
 701:Drivers/lvgl/src/extra/widgets/colorwheel/lv_colorwheel.c ****             break;
ARM GAS  /var/folders/lp/x54gwt890xv47sdkqj1k04q40000gn/T//ccueOQ8a.s 			page 37


 724              		.loc 1 701 13 is_stmt 1 view .LVU247
 701:Drivers/lvgl/src/extra/widgets/colorwheel/lv_colorwheel.c ****             break;
 725              		.loc 1 701 19 is_stmt 0 view .LVU248
 726 009c A78C     		ldrh	r7, [r4, #36]
 727              	.LVL78:
 702:Drivers/lvgl/src/extra/widgets/colorwheel/lv_colorwheel.c ****         case LV_COLORWHEEL_MODE_SATURATION:
 728              		.loc 1 702 13 is_stmt 1 view .LVU249
 729 009e DBE7     		b	.L29
 730              	.LVL79:
 731              	.L27:
 704:Drivers/lvgl/src/extra/widgets/colorwheel/lv_colorwheel.c ****             break;
 732              		.loc 1 704 13 view .LVU250
 704:Drivers/lvgl/src/extra/widgets/colorwheel/lv_colorwheel.c ****             break;
 733              		.loc 1 704 37 is_stmt 0 view .LVU251
 734 00a0 94F82670 		ldrb	r7, [r4, #38]	@ zero_extendqisi2
 735 00a4 D0E7     		b	.L31
 736              	.L34:
 737 00a6 00BF     		.align	2
 738              	.L33:
 739 00a8 1F85EB51 		.word	1374389535
 740              	.LBE128:
 741              	.LBE139:
 742              		.cfi_endproc
 743              	.LFE220:
 745              		.section	.text.lv_colorwheel_constructor,"ax",%progbits
 746              		.align	1
 747              		.p2align 2,,3
 748              		.syntax unified
 749              		.thumb
 750              		.thumb_func
 752              	lv_colorwheel_constructor:
 753              	.LVL80:
 754              	.LFB213:
 225:Drivers/lvgl/src/extra/widgets/colorwheel/lv_colorwheel.c ****     LV_UNUSED(class_p);
 755              		.loc 1 225 1 is_stmt 1 view -0
 756              		.cfi_startproc
 757              		@ args = 0, pretend = 0, frame = 0
 758              		@ frame_needed = 0, uses_anonymous_args = 0
 226:Drivers/lvgl/src/extra/widgets/colorwheel/lv_colorwheel.c ****     lv_colorwheel_t * colorwheel = (lv_colorwheel_t *)obj;
 759              		.loc 1 226 5 view .LVU253
 227:Drivers/lvgl/src/extra/widgets/colorwheel/lv_colorwheel.c ****     colorwheel->hsv.h = 0;
 760              		.loc 1 227 5 view .LVU254
 225:Drivers/lvgl/src/extra/widgets/colorwheel/lv_colorwheel.c ****     LV_UNUSED(class_p);
 761              		.loc 1 225 1 is_stmt 0 view .LVU255
 762 0000 10B5     		push	{r4, lr}
 763              		.cfi_def_cfa_offset 8
 764              		.cfi_offset 4, -8
 765              		.cfi_offset 14, -4
 225:Drivers/lvgl/src/extra/widgets/colorwheel/lv_colorwheel.c ****     LV_UNUSED(class_p);
 766              		.loc 1 225 1 view .LVU256
 767 0002 0C46     		mov	r4, r1
 768              	.LVL81:
 228:Drivers/lvgl/src/extra/widgets/colorwheel/lv_colorwheel.c ****     colorwheel->hsv.s = 100;
 769              		.loc 1 228 5 is_stmt 1 view .LVU257
 229:Drivers/lvgl/src/extra/widgets/colorwheel/lv_colorwheel.c ****     colorwheel->hsv.v = 100;
 770              		.loc 1 229 5 view .LVU258
 230:Drivers/lvgl/src/extra/widgets/colorwheel/lv_colorwheel.c ****     colorwheel->mode = LV_COLORWHEEL_MODE_HUE;
ARM GAS  /var/folders/lp/x54gwt890xv47sdkqj1k04q40000gn/T//ccueOQ8a.s 			page 38


 771              		.loc 1 230 5 view .LVU259
 235:Drivers/lvgl/src/extra/widgets/colorwheel/lv_colorwheel.c **** 
 772              		.loc 1 235 30 is_stmt 0 view .LVU260
 773 0004 1049     		ldr	r1, .L37
 774              	.LVL82:
 231:Drivers/lvgl/src/extra/widgets/colorwheel/lv_colorwheel.c ****     colorwheel->mode_fixed = 0;
 775              		.loc 1 231 22 view .LVU261
 776 0006 94F83C30 		ldrb	r3, [r4, #60]	@ zero_extendqisi2
 235:Drivers/lvgl/src/extra/widgets/colorwheel/lv_colorwheel.c **** 
 777              		.loc 1 235 30 view .LVU262
 778 000a 94F82C20 		ldrb	r2, [r4, #44]	@ zero_extendqisi2
 779 000e 0878     		ldrb	r0, [r1]	@ zero_extendqisi2
 780              	.LVL83:
 231:Drivers/lvgl/src/extra/widgets/colorwheel/lv_colorwheel.c ****     colorwheel->mode_fixed = 0;
 781              		.loc 1 231 22 view .LVU263
 782 0010 23F00703 		bic	r3, r3, #7
 235:Drivers/lvgl/src/extra/widgets/colorwheel/lv_colorwheel.c **** 
 783              		.loc 1 235 30 view .LVU264
 784 0014 60F30002 		bfi	r2, r0, #0, #1
 233:Drivers/lvgl/src/extra/widgets/colorwheel/lv_colorwheel.c ****     colorwheel->last_change_time = 0;
 785              		.loc 1 233 33 view .LVU265
 786 0018 0021     		movs	r1, #0
 228:Drivers/lvgl/src/extra/widgets/colorwheel/lv_colorwheel.c ****     colorwheel->hsv.s = 100;
 787              		.loc 1 228 23 view .LVU266
 788 001a 0C48     		ldr	r0, .L37+4
 789 001c 6062     		str	r0, [r4, #36]
 231:Drivers/lvgl/src/extra/widgets/colorwheel/lv_colorwheel.c ****     colorwheel->mode_fixed = 0;
 790              		.loc 1 231 5 is_stmt 1 view .LVU267
 232:Drivers/lvgl/src/extra/widgets/colorwheel/lv_colorwheel.c ****     colorwheel->last_click_time = 0;
 791              		.loc 1 232 5 view .LVU268
 234:Drivers/lvgl/src/extra/widgets/colorwheel/lv_colorwheel.c ****     colorwheel->knob.recolor = create_knob_recolor;
 792              		.loc 1 234 34 is_stmt 0 view .LVU269
 793 001e C4E90C11 		strd	r1, r1, [r4, #48]
 231:Drivers/lvgl/src/extra/widgets/colorwheel/lv_colorwheel.c ****     colorwheel->mode_fixed = 0;
 794              		.loc 1 231 22 view .LVU270
 795 0022 84F83C30 		strb	r3, [r4, #60]
 233:Drivers/lvgl/src/extra/widgets/colorwheel/lv_colorwheel.c ****     colorwheel->last_change_time = 0;
 796              		.loc 1 233 5 is_stmt 1 view .LVU271
 235:Drivers/lvgl/src/extra/widgets/colorwheel/lv_colorwheel.c **** 
 797              		.loc 1 235 5 view .LVU272
 235:Drivers/lvgl/src/extra/widgets/colorwheel/lv_colorwheel.c **** 
 798              		.loc 1 235 30 is_stmt 0 view .LVU273
 799 0026 84F82C20 		strb	r2, [r4, #44]
 237:Drivers/lvgl/src/extra/widgets/colorwheel/lv_colorwheel.c ****     lv_obj_clear_flag(obj, LV_OBJ_FLAG_SCROLL_CHAIN);
 800              		.loc 1 237 5 is_stmt 1 view .LVU274
 801 002a 2046     		mov	r0, r4
 802 002c 4FF48031 		mov	r1, #65536
 803 0030 FFF7FEFF 		bl	lv_obj_add_flag
 804              	.LVL84:
 238:Drivers/lvgl/src/extra/widgets/colorwheel/lv_colorwheel.c ****     refr_knob_pos(obj);
 805              		.loc 1 238 5 view .LVU275
 806 0034 2046     		mov	r0, r4
 807 0036 4FF44071 		mov	r1, #768
 808 003a FFF7FEFF 		bl	lv_obj_clear_flag
 809              	.LVL85:
 239:Drivers/lvgl/src/extra/widgets/colorwheel/lv_colorwheel.c **** }
 810              		.loc 1 239 5 view .LVU276
ARM GAS  /var/folders/lp/x54gwt890xv47sdkqj1k04q40000gn/T//ccueOQ8a.s 			page 39


 811 003e 2046     		mov	r0, r4
 240:Drivers/lvgl/src/extra/widgets/colorwheel/lv_colorwheel.c **** 
 812              		.loc 1 240 1 is_stmt 0 view .LVU277
 813 0040 BDE81040 		pop	{r4, lr}
 814              		.cfi_restore 14
 815              		.cfi_restore 4
 816              		.cfi_def_cfa_offset 0
 817              	.LVL86:
 239:Drivers/lvgl/src/extra/widgets/colorwheel/lv_colorwheel.c **** }
 818              		.loc 1 239 5 view .LVU278
 819 0044 FFF7FEBF 		b	refr_knob_pos
 820              	.LVL87:
 821              	.L38:
 239:Drivers/lvgl/src/extra/widgets/colorwheel/lv_colorwheel.c **** }
 822              		.loc 1 239 5 view .LVU279
 823              		.align	2
 824              	.L37:
 825 0048 00000000 		.word	create_knob_recolor
 826 004c 00006464 		.word	1684275200
 827              		.cfi_endproc
 828              	.LFE213:
 830              		.section	.text.lv_colorwheel_event,"ax",%progbits
 831              		.align	1
 832              		.p2align 2,,3
 833              		.syntax unified
 834              		.thumb
 835              		.thumb_func
 837              	lv_colorwheel_event:
 838              	.LVL88:
 839              	.LFB218:
 357:Drivers/lvgl/src/extra/widgets/colorwheel/lv_colorwheel.c ****     LV_UNUSED(class_p);
 840              		.loc 1 357 1 is_stmt 1 view -0
 841              		.cfi_startproc
 842              		@ args = 0, pretend = 0, frame = 136
 843              		@ frame_needed = 0, uses_anonymous_args = 0
 358:Drivers/lvgl/src/extra/widgets/colorwheel/lv_colorwheel.c **** 
 844              		.loc 1 358 5 view .LVU281
 361:Drivers/lvgl/src/extra/widgets/colorwheel/lv_colorwheel.c **** 
 845              		.loc 1 361 5 view .LVU282
 357:Drivers/lvgl/src/extra/widgets/colorwheel/lv_colorwheel.c ****     LV_UNUSED(class_p);
 846              		.loc 1 357 1 is_stmt 0 view .LVU283
 847 0000 2DE9F04F 		push	{r4, r5, r6, r7, r8, r9, r10, fp, lr}
 848              		.cfi_def_cfa_offset 36
 849              		.cfi_offset 4, -36
 850              		.cfi_offset 5, -32
 851              		.cfi_offset 6, -28
 852              		.cfi_offset 7, -24
 853              		.cfi_offset 8, -20
 854              		.cfi_offset 9, -16
 855              		.cfi_offset 10, -12
 856              		.cfi_offset 11, -8
 857              		.cfi_offset 14, -4
 858 0004 A5B0     		sub	sp, sp, #148
 859              		.cfi_def_cfa_offset 184
 361:Drivers/lvgl/src/extra/widgets/colorwheel/lv_colorwheel.c **** 
 860              		.loc 1 361 20 view .LVU284
 861 0006 CD48     		ldr	r0, .L158
ARM GAS  /var/folders/lp/x54gwt890xv47sdkqj1k04q40000gn/T//ccueOQ8a.s 			page 40


 862              	.LVL89:
 357:Drivers/lvgl/src/extra/widgets/colorwheel/lv_colorwheel.c ****     LV_UNUSED(class_p);
 863              		.loc 1 357 1 view .LVU285
 864 0008 0591     		str	r1, [sp, #20]
 361:Drivers/lvgl/src/extra/widgets/colorwheel/lv_colorwheel.c **** 
 865              		.loc 1 361 20 view .LVU286
 866 000a FFF7FEFF 		bl	lv_obj_event_base
 867              	.LVL90:
 363:Drivers/lvgl/src/extra/widgets/colorwheel/lv_colorwheel.c **** 
 868              		.loc 1 363 5 is_stmt 1 view .LVU287
 363:Drivers/lvgl/src/extra/widgets/colorwheel/lv_colorwheel.c **** 
 869              		.loc 1 363 7 is_stmt 0 view .LVU288
 870 000e 0128     		cmp	r0, #1
 871 0010 02D0     		beq	.L148
 872              	.LVL91:
 873              	.L39:
 537:Drivers/lvgl/src/extra/widgets/colorwheel/lv_colorwheel.c **** 
 874              		.loc 1 537 1 view .LVU289
 875 0012 25B0     		add	sp, sp, #148
 876              		.cfi_remember_state
 877              		.cfi_def_cfa_offset 36
 878              		@ sp needed
 879 0014 BDE8F08F 		pop	{r4, r5, r6, r7, r8, r9, r10, fp, pc}
 880              	.LVL92:
 881              	.L148:
 882              		.cfi_restore_state
 883              	.LBB206:
 884              	.LBI206:
 356:Drivers/lvgl/src/extra/widgets/colorwheel/lv_colorwheel.c **** {
 885              		.loc 1 356 13 is_stmt 1 view .LVU290
 886              	.LBB207:
 365:Drivers/lvgl/src/extra/widgets/colorwheel/lv_colorwheel.c ****     lv_obj_t * obj = lv_event_get_target(e);
 887              		.loc 1 365 5 view .LVU291
 365:Drivers/lvgl/src/extra/widgets/colorwheel/lv_colorwheel.c ****     lv_obj_t * obj = lv_event_get_target(e);
 888              		.loc 1 365 28 is_stmt 0 view .LVU292
 889 0018 059D     		ldr	r5, [sp, #20]
 890 001a 2846     		mov	r0, r5
 891              	.LVL93:
 365:Drivers/lvgl/src/extra/widgets/colorwheel/lv_colorwheel.c ****     lv_obj_t * obj = lv_event_get_target(e);
 892              		.loc 1 365 28 view .LVU293
 893 001c FFF7FEFF 		bl	lv_event_get_code
 894              	.LVL94:
 895 0020 0446     		mov	r4, r0
 896              	.LVL95:
 366:Drivers/lvgl/src/extra/widgets/colorwheel/lv_colorwheel.c ****     lv_colorwheel_t * colorwheel = (lv_colorwheel_t *)obj;
 897              		.loc 1 366 5 is_stmt 1 view .LVU294
 366:Drivers/lvgl/src/extra/widgets/colorwheel/lv_colorwheel.c ****     lv_colorwheel_t * colorwheel = (lv_colorwheel_t *)obj;
 898              		.loc 1 366 22 is_stmt 0 view .LVU295
 899 0022 2846     		mov	r0, r5
 900 0024 FFF7FEFF 		bl	lv_event_get_target
 901              	.LVL96:
 902 0028 631E     		subs	r3, r4, #1
 903 002a 0546     		mov	r5, r0
 904              	.LVL97:
 367:Drivers/lvgl/src/extra/widgets/colorwheel/lv_colorwheel.c **** 
 905              		.loc 1 367 5 is_stmt 1 view .LVU296
 369:Drivers/lvgl/src/extra/widgets/colorwheel/lv_colorwheel.c ****         lv_coord_t left = lv_obj_get_style_pad_left(obj, LV_PART_KNOB);
ARM GAS  /var/folders/lp/x54gwt890xv47sdkqj1k04q40000gn/T//ccueOQ8a.s 			page 41


 906              		.loc 1 369 5 view .LVU297
 907 002c 292B     		cmp	r3, #41
 908 002e F0D8     		bhi	.L39
 909 0030 01A2     		adr	r2, .L43
 910 0032 52F823F0 		ldr	pc, [r2, r3, lsl #2]
 911 0036 00BF     		.p2align 2
 912              	.L43:
 913 0038 1D010000 		.word	.L51+1
 914 003c E1010000 		.word	.L50+1
 915 0040 13000000 		.word	.L39+1
 916 0044 13000000 		.word	.L39+1
 917 0048 13000000 		.word	.L39+1
 918 004c 13000000 		.word	.L39+1
 919 0050 13000000 		.word	.L39+1
 920 0054 13000000 		.word	.L39+1
 921 0058 13000000 		.word	.L39+1
 922 005c 13000000 		.word	.L39+1
 923 0060 13000000 		.word	.L39+1
 924 0064 13000000 		.word	.L39+1
 925 0068 45030000 		.word	.L49+1
 926 006c 13000000 		.word	.L39+1
 927 0070 13000000 		.word	.L39+1
 928 0074 13000000 		.word	.L39+1
 929 0078 35040000 		.word	.L48+1
 930 007c 4F040000 		.word	.L47+1
 931 0080 63040000 		.word	.L46+1
 932 0084 13000000 		.word	.L39+1
 933 0088 C5040000 		.word	.L45+1
 934 008c 13000000 		.word	.L39+1
 935 0090 13000000 		.word	.L39+1
 936 0094 13000000 		.word	.L39+1
 937 0098 13000000 		.word	.L39+1
 938 009c 13000000 		.word	.L39+1
 939 00a0 13000000 		.word	.L39+1
 940 00a4 13000000 		.word	.L39+1
 941 00a8 13000000 		.word	.L39+1
 942 00ac 13000000 		.word	.L39+1
 943 00b0 13000000 		.word	.L39+1
 944 00b4 13000000 		.word	.L39+1
 945 00b8 13000000 		.word	.L39+1
 946 00bc 13000000 		.word	.L39+1
 947 00c0 13000000 		.word	.L39+1
 948 00c4 13000000 		.word	.L39+1
 949 00c8 13000000 		.word	.L39+1
 950 00cc 13000000 		.word	.L39+1
 951 00d0 13000000 		.word	.L39+1
 952 00d4 13000000 		.word	.L39+1
 953 00d8 E1000000 		.word	.L44+1
 954 00dc 11010000 		.word	.L42+1
 955              		.p2align 1
 956              	.L44:
 957              	.LBB208:
 380:Drivers/lvgl/src/extra/widgets/colorwheel/lv_colorwheel.c ****         /*Refresh extended draw area to make knob visible*/
 958              		.loc 1 380 9 view .LVU298
 380:Drivers/lvgl/src/extra/widgets/colorwheel/lv_colorwheel.c ****         /*Refresh extended draw area to make knob visible*/
 959              		.loc 1 380 24 is_stmt 0 view .LVU299
 960 00e0 0598     		ldr	r0, [sp, #20]
ARM GAS  /var/folders/lp/x54gwt890xv47sdkqj1k04q40000gn/T//ccueOQ8a.s 			page 42


 961              	.LVL98:
 380:Drivers/lvgl/src/extra/widgets/colorwheel/lv_colorwheel.c ****         /*Refresh extended draw area to make knob visible*/
 962              		.loc 1 380 24 view .LVU300
 963 00e2 FFF7FEFF 		bl	lv_event_get_param
 964              	.LVL99:
 965 00e6 0446     		mov	r4, r0
 966              	.LVL100:
 382:Drivers/lvgl/src/extra/widgets/colorwheel/lv_colorwheel.c ****            lv_obj_get_height(obj) != lv_area_get_height(param)) {
 967              		.loc 1 382 9 is_stmt 1 view .LVU301
 382:Drivers/lvgl/src/extra/widgets/colorwheel/lv_colorwheel.c ****            lv_obj_get_height(obj) != lv_area_get_height(param)) {
 968              		.loc 1 382 12 is_stmt 0 view .LVU302
 969 00e8 2846     		mov	r0, r5
 970              	.LVL101:
 382:Drivers/lvgl/src/extra/widgets/colorwheel/lv_colorwheel.c ****            lv_obj_get_height(obj) != lv_area_get_height(param)) {
 971              		.loc 1 382 12 view .LVU303
 972 00ea FFF7FEFF 		bl	lv_obj_get_width
 973              	.LVL102:
 974              	.LBB209:
 975              	.LBI209:
 976              		.file 4 "Drivers/lvgl/src/extra/widgets/colorwheel/../../../../src/hal/../draw/../misc/../font/../
   1:Drivers/lvgl/src/extra/widgets/colorwheel/../../../../src/hal/../draw/../misc/../font/../misc/lv_area.h **** /**
   2:Drivers/lvgl/src/extra/widgets/colorwheel/../../../../src/hal/../draw/../misc/../font/../misc/lv_area.h ****  * @file lv_area.h
   3:Drivers/lvgl/src/extra/widgets/colorwheel/../../../../src/hal/../draw/../misc/../font/../misc/lv_area.h ****  *
   4:Drivers/lvgl/src/extra/widgets/colorwheel/../../../../src/hal/../draw/../misc/../font/../misc/lv_area.h ****  */
   5:Drivers/lvgl/src/extra/widgets/colorwheel/../../../../src/hal/../draw/../misc/../font/../misc/lv_area.h **** 
   6:Drivers/lvgl/src/extra/widgets/colorwheel/../../../../src/hal/../draw/../misc/../font/../misc/lv_area.h **** #ifndef LV_AREA_H
   7:Drivers/lvgl/src/extra/widgets/colorwheel/../../../../src/hal/../draw/../misc/../font/../misc/lv_area.h **** #define LV_AREA_H
   8:Drivers/lvgl/src/extra/widgets/colorwheel/../../../../src/hal/../draw/../misc/../font/../misc/lv_area.h **** 
   9:Drivers/lvgl/src/extra/widgets/colorwheel/../../../../src/hal/../draw/../misc/../font/../misc/lv_area.h **** #ifdef __cplusplus
  10:Drivers/lvgl/src/extra/widgets/colorwheel/../../../../src/hal/../draw/../misc/../font/../misc/lv_area.h **** extern "C" {
  11:Drivers/lvgl/src/extra/widgets/colorwheel/../../../../src/hal/../draw/../misc/../font/../misc/lv_area.h **** #endif
  12:Drivers/lvgl/src/extra/widgets/colorwheel/../../../../src/hal/../draw/../misc/../font/../misc/lv_area.h **** 
  13:Drivers/lvgl/src/extra/widgets/colorwheel/../../../../src/hal/../draw/../misc/../font/../misc/lv_area.h **** /*********************
  14:Drivers/lvgl/src/extra/widgets/colorwheel/../../../../src/hal/../draw/../misc/../font/../misc/lv_area.h ****  *      INCLUDES
  15:Drivers/lvgl/src/extra/widgets/colorwheel/../../../../src/hal/../draw/../misc/../font/../misc/lv_area.h ****  *********************/
  16:Drivers/lvgl/src/extra/widgets/colorwheel/../../../../src/hal/../draw/../misc/../font/../misc/lv_area.h **** #include "../lv_conf_internal.h"
  17:Drivers/lvgl/src/extra/widgets/colorwheel/../../../../src/hal/../draw/../misc/../font/../misc/lv_area.h **** #include <stdbool.h>
  18:Drivers/lvgl/src/extra/widgets/colorwheel/../../../../src/hal/../draw/../misc/../font/../misc/lv_area.h **** #include <stdint.h>
  19:Drivers/lvgl/src/extra/widgets/colorwheel/../../../../src/hal/../draw/../misc/../font/../misc/lv_area.h **** 
  20:Drivers/lvgl/src/extra/widgets/colorwheel/../../../../src/hal/../draw/../misc/../font/../misc/lv_area.h **** /*********************
  21:Drivers/lvgl/src/extra/widgets/colorwheel/../../../../src/hal/../draw/../misc/../font/../misc/lv_area.h ****  *      DEFINES
  22:Drivers/lvgl/src/extra/widgets/colorwheel/../../../../src/hal/../draw/../misc/../font/../misc/lv_area.h ****  *********************/
  23:Drivers/lvgl/src/extra/widgets/colorwheel/../../../../src/hal/../draw/../misc/../font/../misc/lv_area.h **** 
  24:Drivers/lvgl/src/extra/widgets/colorwheel/../../../../src/hal/../draw/../misc/../font/../misc/lv_area.h **** #if LV_USE_LARGE_COORD
  25:Drivers/lvgl/src/extra/widgets/colorwheel/../../../../src/hal/../draw/../misc/../font/../misc/lv_area.h **** typedef int32_t lv_coord_t;
  26:Drivers/lvgl/src/extra/widgets/colorwheel/../../../../src/hal/../draw/../misc/../font/../misc/lv_area.h **** #else
  27:Drivers/lvgl/src/extra/widgets/colorwheel/../../../../src/hal/../draw/../misc/../font/../misc/lv_area.h **** typedef int16_t lv_coord_t;
  28:Drivers/lvgl/src/extra/widgets/colorwheel/../../../../src/hal/../draw/../misc/../font/../misc/lv_area.h **** #endif
  29:Drivers/lvgl/src/extra/widgets/colorwheel/../../../../src/hal/../draw/../misc/../font/../misc/lv_area.h **** 
  30:Drivers/lvgl/src/extra/widgets/colorwheel/../../../../src/hal/../draw/../misc/../font/../misc/lv_area.h **** /**********************
  31:Drivers/lvgl/src/extra/widgets/colorwheel/../../../../src/hal/../draw/../misc/../font/../misc/lv_area.h ****  *      TYPEDEFS
  32:Drivers/lvgl/src/extra/widgets/colorwheel/../../../../src/hal/../draw/../misc/../font/../misc/lv_area.h ****  **********************/
  33:Drivers/lvgl/src/extra/widgets/colorwheel/../../../../src/hal/../draw/../misc/../font/../misc/lv_area.h **** 
  34:Drivers/lvgl/src/extra/widgets/colorwheel/../../../../src/hal/../draw/../misc/../font/../misc/lv_area.h **** /**
  35:Drivers/lvgl/src/extra/widgets/colorwheel/../../../../src/hal/../draw/../misc/../font/../misc/lv_area.h ****  * Represents a point on the screen.
  36:Drivers/lvgl/src/extra/widgets/colorwheel/../../../../src/hal/../draw/../misc/../font/../misc/lv_area.h ****  */
  37:Drivers/lvgl/src/extra/widgets/colorwheel/../../../../src/hal/../draw/../misc/../font/../misc/lv_area.h **** typedef struct {
ARM GAS  /var/folders/lp/x54gwt890xv47sdkqj1k04q40000gn/T//ccueOQ8a.s 			page 43


  38:Drivers/lvgl/src/extra/widgets/colorwheel/../../../../src/hal/../draw/../misc/../font/../misc/lv_area.h ****     lv_coord_t x;
  39:Drivers/lvgl/src/extra/widgets/colorwheel/../../../../src/hal/../draw/../misc/../font/../misc/lv_area.h ****     lv_coord_t y;
  40:Drivers/lvgl/src/extra/widgets/colorwheel/../../../../src/hal/../draw/../misc/../font/../misc/lv_area.h **** } lv_point_t;
  41:Drivers/lvgl/src/extra/widgets/colorwheel/../../../../src/hal/../draw/../misc/../font/../misc/lv_area.h **** 
  42:Drivers/lvgl/src/extra/widgets/colorwheel/../../../../src/hal/../draw/../misc/../font/../misc/lv_area.h **** /** Represents an area of the screen.*/
  43:Drivers/lvgl/src/extra/widgets/colorwheel/../../../../src/hal/../draw/../misc/../font/../misc/lv_area.h **** typedef struct {
  44:Drivers/lvgl/src/extra/widgets/colorwheel/../../../../src/hal/../draw/../misc/../font/../misc/lv_area.h ****     lv_coord_t x1;
  45:Drivers/lvgl/src/extra/widgets/colorwheel/../../../../src/hal/../draw/../misc/../font/../misc/lv_area.h ****     lv_coord_t y1;
  46:Drivers/lvgl/src/extra/widgets/colorwheel/../../../../src/hal/../draw/../misc/../font/../misc/lv_area.h ****     lv_coord_t x2;
  47:Drivers/lvgl/src/extra/widgets/colorwheel/../../../../src/hal/../draw/../misc/../font/../misc/lv_area.h ****     lv_coord_t y2;
  48:Drivers/lvgl/src/extra/widgets/colorwheel/../../../../src/hal/../draw/../misc/../font/../misc/lv_area.h **** } lv_area_t;
  49:Drivers/lvgl/src/extra/widgets/colorwheel/../../../../src/hal/../draw/../misc/../font/../misc/lv_area.h **** 
  50:Drivers/lvgl/src/extra/widgets/colorwheel/../../../../src/hal/../draw/../misc/../font/../misc/lv_area.h **** /** Alignments*/
  51:Drivers/lvgl/src/extra/widgets/colorwheel/../../../../src/hal/../draw/../misc/../font/../misc/lv_area.h **** enum {
  52:Drivers/lvgl/src/extra/widgets/colorwheel/../../../../src/hal/../draw/../misc/../font/../misc/lv_area.h ****     LV_ALIGN_DEFAULT = 0,
  53:Drivers/lvgl/src/extra/widgets/colorwheel/../../../../src/hal/../draw/../misc/../font/../misc/lv_area.h ****     LV_ALIGN_TOP_LEFT,
  54:Drivers/lvgl/src/extra/widgets/colorwheel/../../../../src/hal/../draw/../misc/../font/../misc/lv_area.h ****     LV_ALIGN_TOP_MID,
  55:Drivers/lvgl/src/extra/widgets/colorwheel/../../../../src/hal/../draw/../misc/../font/../misc/lv_area.h ****     LV_ALIGN_TOP_RIGHT,
  56:Drivers/lvgl/src/extra/widgets/colorwheel/../../../../src/hal/../draw/../misc/../font/../misc/lv_area.h ****     LV_ALIGN_BOTTOM_LEFT,
  57:Drivers/lvgl/src/extra/widgets/colorwheel/../../../../src/hal/../draw/../misc/../font/../misc/lv_area.h ****     LV_ALIGN_BOTTOM_MID,
  58:Drivers/lvgl/src/extra/widgets/colorwheel/../../../../src/hal/../draw/../misc/../font/../misc/lv_area.h ****     LV_ALIGN_BOTTOM_RIGHT,
  59:Drivers/lvgl/src/extra/widgets/colorwheel/../../../../src/hal/../draw/../misc/../font/../misc/lv_area.h ****     LV_ALIGN_LEFT_MID,
  60:Drivers/lvgl/src/extra/widgets/colorwheel/../../../../src/hal/../draw/../misc/../font/../misc/lv_area.h ****     LV_ALIGN_RIGHT_MID,
  61:Drivers/lvgl/src/extra/widgets/colorwheel/../../../../src/hal/../draw/../misc/../font/../misc/lv_area.h ****     LV_ALIGN_CENTER,
  62:Drivers/lvgl/src/extra/widgets/colorwheel/../../../../src/hal/../draw/../misc/../font/../misc/lv_area.h **** 
  63:Drivers/lvgl/src/extra/widgets/colorwheel/../../../../src/hal/../draw/../misc/../font/../misc/lv_area.h ****     LV_ALIGN_OUT_TOP_LEFT,
  64:Drivers/lvgl/src/extra/widgets/colorwheel/../../../../src/hal/../draw/../misc/../font/../misc/lv_area.h ****     LV_ALIGN_OUT_TOP_MID,
  65:Drivers/lvgl/src/extra/widgets/colorwheel/../../../../src/hal/../draw/../misc/../font/../misc/lv_area.h ****     LV_ALIGN_OUT_TOP_RIGHT,
  66:Drivers/lvgl/src/extra/widgets/colorwheel/../../../../src/hal/../draw/../misc/../font/../misc/lv_area.h ****     LV_ALIGN_OUT_BOTTOM_LEFT,
  67:Drivers/lvgl/src/extra/widgets/colorwheel/../../../../src/hal/../draw/../misc/../font/../misc/lv_area.h ****     LV_ALIGN_OUT_BOTTOM_MID,
  68:Drivers/lvgl/src/extra/widgets/colorwheel/../../../../src/hal/../draw/../misc/../font/../misc/lv_area.h ****     LV_ALIGN_OUT_BOTTOM_RIGHT,
  69:Drivers/lvgl/src/extra/widgets/colorwheel/../../../../src/hal/../draw/../misc/../font/../misc/lv_area.h ****     LV_ALIGN_OUT_LEFT_TOP,
  70:Drivers/lvgl/src/extra/widgets/colorwheel/../../../../src/hal/../draw/../misc/../font/../misc/lv_area.h ****     LV_ALIGN_OUT_LEFT_MID,
  71:Drivers/lvgl/src/extra/widgets/colorwheel/../../../../src/hal/../draw/../misc/../font/../misc/lv_area.h ****     LV_ALIGN_OUT_LEFT_BOTTOM,
  72:Drivers/lvgl/src/extra/widgets/colorwheel/../../../../src/hal/../draw/../misc/../font/../misc/lv_area.h ****     LV_ALIGN_OUT_RIGHT_TOP,
  73:Drivers/lvgl/src/extra/widgets/colorwheel/../../../../src/hal/../draw/../misc/../font/../misc/lv_area.h ****     LV_ALIGN_OUT_RIGHT_MID,
  74:Drivers/lvgl/src/extra/widgets/colorwheel/../../../../src/hal/../draw/../misc/../font/../misc/lv_area.h ****     LV_ALIGN_OUT_RIGHT_BOTTOM,
  75:Drivers/lvgl/src/extra/widgets/colorwheel/../../../../src/hal/../draw/../misc/../font/../misc/lv_area.h **** };
  76:Drivers/lvgl/src/extra/widgets/colorwheel/../../../../src/hal/../draw/../misc/../font/../misc/lv_area.h **** typedef uint8_t lv_align_t;
  77:Drivers/lvgl/src/extra/widgets/colorwheel/../../../../src/hal/../draw/../misc/../font/../misc/lv_area.h **** 
  78:Drivers/lvgl/src/extra/widgets/colorwheel/../../../../src/hal/../draw/../misc/../font/../misc/lv_area.h **** enum {
  79:Drivers/lvgl/src/extra/widgets/colorwheel/../../../../src/hal/../draw/../misc/../font/../misc/lv_area.h ****     LV_DIR_NONE     = 0x00,
  80:Drivers/lvgl/src/extra/widgets/colorwheel/../../../../src/hal/../draw/../misc/../font/../misc/lv_area.h ****     LV_DIR_LEFT     = (1 << 0),
  81:Drivers/lvgl/src/extra/widgets/colorwheel/../../../../src/hal/../draw/../misc/../font/../misc/lv_area.h ****     LV_DIR_RIGHT    = (1 << 1),
  82:Drivers/lvgl/src/extra/widgets/colorwheel/../../../../src/hal/../draw/../misc/../font/../misc/lv_area.h ****     LV_DIR_TOP      = (1 << 2),
  83:Drivers/lvgl/src/extra/widgets/colorwheel/../../../../src/hal/../draw/../misc/../font/../misc/lv_area.h ****     LV_DIR_BOTTOM   = (1 << 3),
  84:Drivers/lvgl/src/extra/widgets/colorwheel/../../../../src/hal/../draw/../misc/../font/../misc/lv_area.h ****     LV_DIR_HOR      = LV_DIR_LEFT | LV_DIR_RIGHT,
  85:Drivers/lvgl/src/extra/widgets/colorwheel/../../../../src/hal/../draw/../misc/../font/../misc/lv_area.h ****     LV_DIR_VER      = LV_DIR_TOP | LV_DIR_BOTTOM,
  86:Drivers/lvgl/src/extra/widgets/colorwheel/../../../../src/hal/../draw/../misc/../font/../misc/lv_area.h ****     LV_DIR_ALL      = LV_DIR_HOR | LV_DIR_VER,
  87:Drivers/lvgl/src/extra/widgets/colorwheel/../../../../src/hal/../draw/../misc/../font/../misc/lv_area.h **** };
  88:Drivers/lvgl/src/extra/widgets/colorwheel/../../../../src/hal/../draw/../misc/../font/../misc/lv_area.h **** 
  89:Drivers/lvgl/src/extra/widgets/colorwheel/../../../../src/hal/../draw/../misc/../font/../misc/lv_area.h **** typedef uint8_t lv_dir_t;
  90:Drivers/lvgl/src/extra/widgets/colorwheel/../../../../src/hal/../draw/../misc/../font/../misc/lv_area.h **** 
  91:Drivers/lvgl/src/extra/widgets/colorwheel/../../../../src/hal/../draw/../misc/../font/../misc/lv_area.h **** /**********************
  92:Drivers/lvgl/src/extra/widgets/colorwheel/../../../../src/hal/../draw/../misc/../font/../misc/lv_area.h ****  * GLOBAL PROTOTYPES
  93:Drivers/lvgl/src/extra/widgets/colorwheel/../../../../src/hal/../draw/../misc/../font/../misc/lv_area.h ****  **********************/
  94:Drivers/lvgl/src/extra/widgets/colorwheel/../../../../src/hal/../draw/../misc/../font/../misc/lv_area.h **** 
ARM GAS  /var/folders/lp/x54gwt890xv47sdkqj1k04q40000gn/T//ccueOQ8a.s 			page 44


  95:Drivers/lvgl/src/extra/widgets/colorwheel/../../../../src/hal/../draw/../misc/../font/../misc/lv_area.h **** /**
  96:Drivers/lvgl/src/extra/widgets/colorwheel/../../../../src/hal/../draw/../misc/../font/../misc/lv_area.h ****  * Initialize an area
  97:Drivers/lvgl/src/extra/widgets/colorwheel/../../../../src/hal/../draw/../misc/../font/../misc/lv_area.h ****  * @param area_p pointer to an area
  98:Drivers/lvgl/src/extra/widgets/colorwheel/../../../../src/hal/../draw/../misc/../font/../misc/lv_area.h ****  * @param x1 left coordinate of the area
  99:Drivers/lvgl/src/extra/widgets/colorwheel/../../../../src/hal/../draw/../misc/../font/../misc/lv_area.h ****  * @param y1 top coordinate of the area
 100:Drivers/lvgl/src/extra/widgets/colorwheel/../../../../src/hal/../draw/../misc/../font/../misc/lv_area.h ****  * @param x2 right coordinate of the area
 101:Drivers/lvgl/src/extra/widgets/colorwheel/../../../../src/hal/../draw/../misc/../font/../misc/lv_area.h ****  * @param y2 bottom coordinate of the area
 102:Drivers/lvgl/src/extra/widgets/colorwheel/../../../../src/hal/../draw/../misc/../font/../misc/lv_area.h ****  */
 103:Drivers/lvgl/src/extra/widgets/colorwheel/../../../../src/hal/../draw/../misc/../font/../misc/lv_area.h **** void lv_area_set(lv_area_t * area_p, lv_coord_t x1, lv_coord_t y1, lv_coord_t x2, lv_coord_t y2);
 104:Drivers/lvgl/src/extra/widgets/colorwheel/../../../../src/hal/../draw/../misc/../font/../misc/lv_area.h **** 
 105:Drivers/lvgl/src/extra/widgets/colorwheel/../../../../src/hal/../draw/../misc/../font/../misc/lv_area.h **** /**
 106:Drivers/lvgl/src/extra/widgets/colorwheel/../../../../src/hal/../draw/../misc/../font/../misc/lv_area.h ****  * Copy an area
 107:Drivers/lvgl/src/extra/widgets/colorwheel/../../../../src/hal/../draw/../misc/../font/../misc/lv_area.h ****  * @param dest pointer to the destination area
 108:Drivers/lvgl/src/extra/widgets/colorwheel/../../../../src/hal/../draw/../misc/../font/../misc/lv_area.h ****  * @param src pointer to the source area
 109:Drivers/lvgl/src/extra/widgets/colorwheel/../../../../src/hal/../draw/../misc/../font/../misc/lv_area.h ****  */
 110:Drivers/lvgl/src/extra/widgets/colorwheel/../../../../src/hal/../draw/../misc/../font/../misc/lv_area.h **** inline static void lv_area_copy(lv_area_t * dest, const lv_area_t * src)
 111:Drivers/lvgl/src/extra/widgets/colorwheel/../../../../src/hal/../draw/../misc/../font/../misc/lv_area.h **** {
 112:Drivers/lvgl/src/extra/widgets/colorwheel/../../../../src/hal/../draw/../misc/../font/../misc/lv_area.h ****     dest->x1 = src->x1;
 113:Drivers/lvgl/src/extra/widgets/colorwheel/../../../../src/hal/../draw/../misc/../font/../misc/lv_area.h ****     dest->y1 = src->y1;
 114:Drivers/lvgl/src/extra/widgets/colorwheel/../../../../src/hal/../draw/../misc/../font/../misc/lv_area.h ****     dest->x2 = src->x2;
 115:Drivers/lvgl/src/extra/widgets/colorwheel/../../../../src/hal/../draw/../misc/../font/../misc/lv_area.h ****     dest->y2 = src->y2;
 116:Drivers/lvgl/src/extra/widgets/colorwheel/../../../../src/hal/../draw/../misc/../font/../misc/lv_area.h **** }
 117:Drivers/lvgl/src/extra/widgets/colorwheel/../../../../src/hal/../draw/../misc/../font/../misc/lv_area.h **** 
 118:Drivers/lvgl/src/extra/widgets/colorwheel/../../../../src/hal/../draw/../misc/../font/../misc/lv_area.h **** /**
 119:Drivers/lvgl/src/extra/widgets/colorwheel/../../../../src/hal/../draw/../misc/../font/../misc/lv_area.h ****  * Get the width of an area
 120:Drivers/lvgl/src/extra/widgets/colorwheel/../../../../src/hal/../draw/../misc/../font/../misc/lv_area.h ****  * @param area_p pointer to an area
 121:Drivers/lvgl/src/extra/widgets/colorwheel/../../../../src/hal/../draw/../misc/../font/../misc/lv_area.h ****  * @return the width of the area (if x1 == x2 -> width = 1)
 122:Drivers/lvgl/src/extra/widgets/colorwheel/../../../../src/hal/../draw/../misc/../font/../misc/lv_area.h ****  */
 123:Drivers/lvgl/src/extra/widgets/colorwheel/../../../../src/hal/../draw/../misc/../font/../misc/lv_area.h **** static inline lv_coord_t lv_area_get_width(const lv_area_t * area_p)
 977              		.loc 4 123 26 is_stmt 1 view .LVU304
 978              	.LBB210:
 124:Drivers/lvgl/src/extra/widgets/colorwheel/../../../../src/hal/../draw/../misc/../font/../misc/lv_area.h **** {
 125:Drivers/lvgl/src/extra/widgets/colorwheel/../../../../src/hal/../draw/../misc/../font/../misc/lv_area.h ****     return (lv_coord_t)(area_p->x2 - area_p->x1 + 1);
 979              		.loc 4 125 5 view .LVU305
 980              		.loc 4 125 49 is_stmt 0 view .LVU306
 981 00ee A388     		ldrh	r3, [r4, #4]
 982 00f0 2288     		ldrh	r2, [r4]
 983 00f2 0133     		adds	r3, r3, #1
 984 00f4 9B1A     		subs	r3, r3, r2
 985              	.LBE210:
 986              	.LBE209:
 382:Drivers/lvgl/src/extra/widgets/colorwheel/lv_colorwheel.c ****            lv_obj_get_height(obj) != lv_area_get_height(param)) {
 987              		.loc 1 382 11 discriminator 2 view .LVU307
 988 00f6 1BB2     		sxth	r3, r3
 989 00f8 9842     		cmp	r0, r3
 990 00fa 09D1     		bne	.L42
 383:Drivers/lvgl/src/extra/widgets/colorwheel/lv_colorwheel.c ****             refr_knob_pos(obj);
 991              		.loc 1 383 12 view .LVU308
 992 00fc 2846     		mov	r0, r5
 993 00fe FFF7FEFF 		bl	lv_obj_get_height
 994              	.LVL103:
 995              	.LBB211:
 996              	.LBI211:
 126:Drivers/lvgl/src/extra/widgets/colorwheel/../../../../src/hal/../draw/../misc/../font/../misc/lv_area.h **** }
 127:Drivers/lvgl/src/extra/widgets/colorwheel/../../../../src/hal/../draw/../misc/../font/../misc/lv_area.h **** 
 128:Drivers/lvgl/src/extra/widgets/colorwheel/../../../../src/hal/../draw/../misc/../font/../misc/lv_area.h **** /**
 129:Drivers/lvgl/src/extra/widgets/colorwheel/../../../../src/hal/../draw/../misc/../font/../misc/lv_area.h ****  * Get the height of an area
ARM GAS  /var/folders/lp/x54gwt890xv47sdkqj1k04q40000gn/T//ccueOQ8a.s 			page 45


 130:Drivers/lvgl/src/extra/widgets/colorwheel/../../../../src/hal/../draw/../misc/../font/../misc/lv_area.h ****  * @param area_p pointer to an area
 131:Drivers/lvgl/src/extra/widgets/colorwheel/../../../../src/hal/../draw/../misc/../font/../misc/lv_area.h ****  * @return the height of the area (if y1 == y2 -> height = 1)
 132:Drivers/lvgl/src/extra/widgets/colorwheel/../../../../src/hal/../draw/../misc/../font/../misc/lv_area.h ****  */
 133:Drivers/lvgl/src/extra/widgets/colorwheel/../../../../src/hal/../draw/../misc/../font/../misc/lv_area.h **** static inline lv_coord_t lv_area_get_height(const lv_area_t * area_p)
 997              		.loc 4 133 26 is_stmt 1 view .LVU309
 998              	.LBB212:
 134:Drivers/lvgl/src/extra/widgets/colorwheel/../../../../src/hal/../draw/../misc/../font/../misc/lv_area.h **** {
 135:Drivers/lvgl/src/extra/widgets/colorwheel/../../../../src/hal/../draw/../misc/../font/../misc/lv_area.h ****     return (lv_coord_t)(area_p->y2 - area_p->y1 + 1);
 999              		.loc 4 135 5 view .LVU310
 1000              		.loc 4 135 49 is_stmt 0 view .LVU311
 1001 0102 E388     		ldrh	r3, [r4, #6]
 1002 0104 6288     		ldrh	r2, [r4, #2]
 1003 0106 0133     		adds	r3, r3, #1
 1004 0108 9B1A     		subs	r3, r3, r2
 1005              	.LBE212:
 1006              	.LBE211:
 382:Drivers/lvgl/src/extra/widgets/colorwheel/lv_colorwheel.c ****            lv_obj_get_height(obj) != lv_area_get_height(param)) {
 1007              		.loc 1 382 62 discriminator 1 view .LVU312
 1008 010a 1BB2     		sxth	r3, r3
 1009 010c 9842     		cmp	r0, r3
 1010 010e 80D0     		beq	.L39
 1011              	.LVL104:
 1012              	.L42:
 382:Drivers/lvgl/src/extra/widgets/colorwheel/lv_colorwheel.c ****            lv_obj_get_height(obj) != lv_area_get_height(param)) {
 1013              		.loc 1 382 62 discriminator 1 view .LVU313
 1014              	.LBE208:
 389:Drivers/lvgl/src/extra/widgets/colorwheel/lv_colorwheel.c ****     }
 1015              		.loc 1 389 9 is_stmt 1 view .LVU314
 1016 0110 2846     		mov	r0, r5
 1017              	.LBE207:
 1018              	.LBE206:
 537:Drivers/lvgl/src/extra/widgets/colorwheel/lv_colorwheel.c **** 
 1019              		.loc 1 537 1 is_stmt 0 view .LVU315
 1020 0112 25B0     		add	sp, sp, #148
 1021              		.cfi_remember_state
 1022              		.cfi_def_cfa_offset 36
 1023              		@ sp needed
 1024 0114 BDE8F04F 		pop	{r4, r5, r6, r7, r8, r9, r10, fp, lr}
 1025              		.cfi_restore 14
 1026              		.cfi_restore 11
 1027              		.cfi_restore 10
 1028              		.cfi_restore 9
 1029              		.cfi_restore 8
 1030              		.cfi_restore 7
 1031              		.cfi_restore 6
 1032              		.cfi_restore 5
 1033              		.cfi_restore 4
 1034              		.cfi_def_cfa_offset 0
 1035              	.LVL105:
 1036              	.LBB372:
 1037              	.LBB370:
 389:Drivers/lvgl/src/extra/widgets/colorwheel/lv_colorwheel.c ****     }
 1038              		.loc 1 389 9 view .LVU316
 1039 0118 FFF7FEBF 		b	refr_knob_pos
 1040              	.LVL106:
 1041              	.L51:
 1042              		.cfi_restore_state
ARM GAS  /var/folders/lp/x54gwt890xv47sdkqj1k04q40000gn/T//ccueOQ8a.s 			page 46


 438:Drivers/lvgl/src/extra/widgets/colorwheel/lv_colorwheel.c ****         lv_indev_get_point(lv_indev_get_act(), &colorwheel->last_press_point);
 1043              		.loc 1 438 9 is_stmt 1 view .LVU317
 438:Drivers/lvgl/src/extra/widgets/colorwheel/lv_colorwheel.c ****         lv_indev_get_point(lv_indev_get_act(), &colorwheel->last_press_point);
 1044              		.loc 1 438 40 is_stmt 0 view .LVU318
 1045 011c FFF7FEFF 		bl	lv_tick_get
 1046              	.LVL107:
 438:Drivers/lvgl/src/extra/widgets/colorwheel/lv_colorwheel.c ****         lv_indev_get_point(lv_indev_get_act(), &colorwheel->last_press_point);
 1047              		.loc 1 438 38 discriminator 1 view .LVU319
 1048 0120 6863     		str	r0, [r5, #52]
 439:Drivers/lvgl/src/extra/widgets/colorwheel/lv_colorwheel.c ****         res = double_click_reset(obj);
 1049              		.loc 1 439 9 is_stmt 1 view .LVU320
 439:Drivers/lvgl/src/extra/widgets/colorwheel/lv_colorwheel.c ****         res = double_click_reset(obj);
 1050              		.loc 1 439 28 is_stmt 0 view .LVU321
 1051 0122 FFF7FEFF 		bl	lv_indev_get_act
 1052              	.LVL108:
 439:Drivers/lvgl/src/extra/widgets/colorwheel/lv_colorwheel.c ****         res = double_click_reset(obj);
 1053              		.loc 1 439 9 discriminator 1 view .LVU322
 1054 0126 05F13801 		add	r1, r5, #56
 1055 012a FFF7FEFF 		bl	lv_indev_get_point
 1056              	.LVL109:
 440:Drivers/lvgl/src/extra/widgets/colorwheel/lv_colorwheel.c ****         if(res != LV_RES_OK) return;
 1057              		.loc 1 440 9 is_stmt 1 view .LVU323
 1058              	.LBB213:
 1059              	.LBI213:
 567:Drivers/lvgl/src/extra/widgets/colorwheel/lv_colorwheel.c **** {
 1060              		.loc 1 567 17 view .LVU324
 1061              	.LBB214:
 569:Drivers/lvgl/src/extra/widgets/colorwheel/lv_colorwheel.c ****     lv_indev_t * indev = lv_indev_get_act();
 1062              		.loc 1 569 5 view .LVU325
 570:Drivers/lvgl/src/extra/widgets/colorwheel/lv_colorwheel.c ****     /*Double clicked? Use long press time as double click time out*/
 1063              		.loc 1 570 5 view .LVU326
 570:Drivers/lvgl/src/extra/widgets/colorwheel/lv_colorwheel.c ****     /*Double clicked? Use long press time as double click time out*/
 1064              		.loc 1 570 26 is_stmt 0 view .LVU327
 1065 012e FFF7FEFF 		bl	lv_indev_get_act
 1066              	.LVL110:
 1067 0132 0446     		mov	r4, r0
 1068              	.LVL111:
 572:Drivers/lvgl/src/extra/widgets/colorwheel/lv_colorwheel.c ****         lv_color_hsv_t hsv_cur;
 1069              		.loc 1 572 5 is_stmt 1 view .LVU328
 572:Drivers/lvgl/src/extra/widgets/colorwheel/lv_colorwheel.c ****         lv_color_hsv_t hsv_cur;
 1070              		.loc 1 572 8 is_stmt 0 view .LVU329
 1071 0134 286B     		ldr	r0, [r5, #48]
 1072              	.LVL112:
 572:Drivers/lvgl/src/extra/widgets/colorwheel/lv_colorwheel.c ****         lv_color_hsv_t hsv_cur;
 1073              		.loc 1 572 8 view .LVU330
 1074 0136 FFF7FEFF 		bl	lv_tick_elaps
 1075              	.LVL113:
 572:Drivers/lvgl/src/extra/widgets/colorwheel/lv_colorwheel.c ****         lv_color_hsv_t hsv_cur;
 1076              		.loc 1 572 66 discriminator 1 view .LVU331
 1077 013a 2368     		ldr	r3, [r4]
 572:Drivers/lvgl/src/extra/widgets/colorwheel/lv_colorwheel.c ****         lv_color_hsv_t hsv_cur;
 1078              		.loc 1 572 51 discriminator 1 view .LVU332
 1079 013c 9B8B     		ldrh	r3, [r3, #28]
 572:Drivers/lvgl/src/extra/widgets/colorwheel/lv_colorwheel.c ****         lv_color_hsv_t hsv_cur;
 1080              		.loc 1 572 7 discriminator 1 view .LVU333
 1081 013e 9842     		cmp	r0, r3
 1082 0140 4AD2     		bcs	.L73
ARM GAS  /var/folders/lp/x54gwt890xv47sdkqj1k04q40000gn/T//ccueOQ8a.s 			page 47


 1083              	.LBB215:
 573:Drivers/lvgl/src/extra/widgets/colorwheel/lv_colorwheel.c ****         hsv_cur = colorwheel->hsv;
 1084              		.loc 1 573 9 is_stmt 1 view .LVU334
 574:Drivers/lvgl/src/extra/widgets/colorwheel/lv_colorwheel.c **** 
 1085              		.loc 1 574 9 view .LVU335
 576:Drivers/lvgl/src/extra/widgets/colorwheel/lv_colorwheel.c ****             case LV_COLORWHEEL_MODE_HUE:
 1086              		.loc 1 576 26 is_stmt 0 view .LVU336
 1087 0142 95F83C60 		ldrb	r6, [r5, #60]	@ zero_extendqisi2
 574:Drivers/lvgl/src/extra/widgets/colorwheel/lv_colorwheel.c **** 
 1088              		.loc 1 574 17 view .LVU337
 1089 0146 AF8C     		ldrh	r7, [r5, #36]
 1090              	.LVL114:
 574:Drivers/lvgl/src/extra/widgets/colorwheel/lv_colorwheel.c **** 
 1091              		.loc 1 574 17 view .LVU338
 1092 0148 95F82690 		ldrb	r9, [r5, #38]	@ zero_extendqisi2
 1093              	.LVL115:
 574:Drivers/lvgl/src/extra/widgets/colorwheel/lv_colorwheel.c **** 
 1094              		.loc 1 574 17 view .LVU339
 1095 014c 95F82780 		ldrb	r8, [r5, #39]	@ zero_extendqisi2
 1096              	.LVL116:
 576:Drivers/lvgl/src/extra/widgets/colorwheel/lv_colorwheel.c ****             case LV_COLORWHEEL_MODE_HUE:
 1097              		.loc 1 576 9 is_stmt 1 view .LVU340
 576:Drivers/lvgl/src/extra/widgets/colorwheel/lv_colorwheel.c ****             case LV_COLORWHEEL_MODE_HUE:
 1098              		.loc 1 576 26 is_stmt 0 view .LVU341
 1099 0150 06F00306 		and	r6, r6, #3
 576:Drivers/lvgl/src/extra/widgets/colorwheel/lv_colorwheel.c ****             case LV_COLORWHEEL_MODE_HUE:
 1100              		.loc 1 576 9 view .LVU342
 1101 0154 012E     		cmp	r6, #1
 1102 0156 00F04484 		beq	.L74
 1103 015a 022E     		cmp	r6, #2
 1104 015c 00F03884 		beq	.L75
 1105 0160 002E     		cmp	r6, #0
 1106 0162 00F02584 		beq	.L76
 1107              	.LBB216:
 1108              	.LBB217:
 100:Drivers/lvgl/src/extra/widgets/colorwheel/lv_colorwheel.c ****     if(hsv.v > 100) hsv.v = 100;
 1109              		.loc 1 100 7 view .LVU343
 1110 0166 B9F1640F 		cmp	r9, #100
 1111 016a 28BF     		it	cs
 1112 016c 4FF06409 		movcs	r9, #100
 1113              	.LVL117:
 101:Drivers/lvgl/src/extra/widgets/colorwheel/lv_colorwheel.c **** 
 1114              		.loc 1 101 7 view .LVU344
 1115 0170 B8F1640F 		cmp	r8, #100
 1116 0174 28BF     		it	cs
 1117 0176 4FF06408 		movcs	r8, #100
 1118              	.LVL118:
 1119              	.L77:
 101:Drivers/lvgl/src/extra/widgets/colorwheel/lv_colorwheel.c **** 
 1120              		.loc 1 101 7 view .LVU345
 1121              	.LBE217:
 1122              	.LBE216:
 588:Drivers/lvgl/src/extra/widgets/colorwheel/lv_colorwheel.c **** 
 1123              		.loc 1 588 9 is_stmt 1 view .LVU346
 1124 017a 2046     		mov	r0, r4
 1125 017c FFF7FEFF 		bl	lv_indev_wait_release
 1126              	.LVL119:
ARM GAS  /var/folders/lp/x54gwt890xv47sdkqj1k04q40000gn/T//ccueOQ8a.s 			page 48


 590:Drivers/lvgl/src/extra/widgets/colorwheel/lv_colorwheel.c ****             lv_res_t res = lv_event_send(obj, LV_EVENT_VALUE_CHANGED, NULL);
 1127              		.loc 1 590 9 view .LVU347
 1128              	.LBB222:
 1129              	.LBI216:
  97:Drivers/lvgl/src/extra/widgets/colorwheel/lv_colorwheel.c **** {
 1130              		.loc 1 97 6 view .LVU348
 1131              	.LBB218:
  99:Drivers/lvgl/src/extra/widgets/colorwheel/lv_colorwheel.c ****     if(hsv.s > 100) hsv.s = 100;
 1132              		.loc 1 99 5 view .LVU349
  99:Drivers/lvgl/src/extra/widgets/colorwheel/lv_colorwheel.c ****     if(hsv.s > 100) hsv.s = 100;
 1133              		.loc 1 99 7 is_stmt 0 view .LVU350
 1134 0180 B7F5B47F 		cmp	r7, #360
 1135 0184 09D9     		bls	.L78
  99:Drivers/lvgl/src/extra/widgets/colorwheel/lv_colorwheel.c ****     if(hsv.s > 100) hsv.s = 100;
 1136              		.loc 1 99 21 is_stmt 1 discriminator 1 view .LVU351
  99:Drivers/lvgl/src/extra/widgets/colorwheel/lv_colorwheel.c ****     if(hsv.s > 100) hsv.s = 100;
 1137              		.loc 1 99 27 is_stmt 0 discriminator 1 view .LVU352
 1138 0186 6E4A     		ldr	r2, .L158+4
 1139 0188 FB08     		lsrs	r3, r7, #3
 1140 018a A2FB0323 		umull	r2, r3, r2, r3
 1141 018e 9B08     		lsrs	r3, r3, #2
 1142 0190 4FF4B472 		mov	r2, #360
 1143 0194 02FB1373 		mls	r3, r2, r3, r7
 1144 0198 9FB2     		uxth	r7, r3
 1145              	.LVL120:
 1146              	.L78:
 100:Drivers/lvgl/src/extra/widgets/colorwheel/lv_colorwheel.c ****     if(hsv.v > 100) hsv.v = 100;
 1147              		.loc 1 100 5 is_stmt 1 view .LVU353
 101:Drivers/lvgl/src/extra/widgets/colorwheel/lv_colorwheel.c **** 
 1148              		.loc 1 101 5 view .LVU354
 103:Drivers/lvgl/src/extra/widgets/colorwheel/lv_colorwheel.c ****     lv_colorwheel_t * colorwheel = (lv_colorwheel_t *)obj;
 1149              		.loc 1 103 5 view .LVU355
 103:Drivers/lvgl/src/extra/widgets/colorwheel/lv_colorwheel.c ****     lv_colorwheel_t * colorwheel = (lv_colorwheel_t *)obj;
 1150              		.loc 1 103 5 view .LVU356
 103:Drivers/lvgl/src/extra/widgets/colorwheel/lv_colorwheel.c ****     lv_colorwheel_t * colorwheel = (lv_colorwheel_t *)obj;
 1151              		.loc 1 103 5 view .LVU357
 104:Drivers/lvgl/src/extra/widgets/colorwheel/lv_colorwheel.c **** 
 1152              		.loc 1 104 5 view .LVU358
 106:Drivers/lvgl/src/extra/widgets/colorwheel/lv_colorwheel.c **** 
 1153              		.loc 1 106 5 view .LVU359
 106:Drivers/lvgl/src/extra/widgets/colorwheel/lv_colorwheel.c **** 
 1154              		.loc 1 106 7 is_stmt 0 view .LVU360
 1155 019a AB8C     		ldrh	r3, [r5, #36]
 1156 019c BB42     		cmp	r3, r7
 1157 019e 08D1     		bne	.L81
 106:Drivers/lvgl/src/extra/widgets/colorwheel/lv_colorwheel.c **** 
 1158              		.loc 1 106 65 discriminator 1 view .LVU361
 1159 01a0 EB8C     		ldrh	r3, [r5, #38]
 106:Drivers/lvgl/src/extra/widgets/colorwheel/lv_colorwheel.c **** 
 1160              		.loc 1 106 65 discriminator 1 view .LVU362
 1161 01a2 8DF85A90 		strb	r9, [sp, #90]
 1162 01a6 8DF85B80 		strb	r8, [sp, #91]
 1163 01aa BDF85A20 		ldrh	r2, [sp, #90]
 1164 01ae 9A42     		cmp	r2, r3
 1165 01b0 12D0     		beq	.L73
 1166              	.LVL121:
 1167              	.L81:
ARM GAS  /var/folders/lp/x54gwt890xv47sdkqj1k04q40000gn/T//ccueOQ8a.s 			page 49


 108:Drivers/lvgl/src/extra/widgets/colorwheel/lv_colorwheel.c **** 
 1168              		.loc 1 108 5 is_stmt 1 view .LVU363
 110:Drivers/lvgl/src/extra/widgets/colorwheel/lv_colorwheel.c **** 
 1169              		.loc 1 110 5 is_stmt 0 view .LVU364
 1170 01b2 2846     		mov	r0, r5
 108:Drivers/lvgl/src/extra/widgets/colorwheel/lv_colorwheel.c **** 
 1171              		.loc 1 108 21 view .LVU365
 1172 01b4 AF84     		strh	r7, [r5, #36]	@ movhi
 1173 01b6 85F82690 		strb	r9, [r5, #38]
 1174 01ba 85F82780 		strb	r8, [r5, #39]
 110:Drivers/lvgl/src/extra/widgets/colorwheel/lv_colorwheel.c **** 
 1175              		.loc 1 110 5 is_stmt 1 view .LVU366
 1176 01be FFF7FEFF 		bl	refr_knob_pos
 1177              	.LVL122:
 112:Drivers/lvgl/src/extra/widgets/colorwheel/lv_colorwheel.c **** 
 1178              		.loc 1 112 5 view .LVU367
 1179 01c2 2846     		mov	r0, r5
 1180 01c4 FFF7FEFF 		bl	lv_obj_invalidate
 1181              	.LVL123:
 114:Drivers/lvgl/src/extra/widgets/colorwheel/lv_colorwheel.c **** }
 1182              		.loc 1 114 5 view .LVU368
 114:Drivers/lvgl/src/extra/widgets/colorwheel/lv_colorwheel.c **** }
 1183              		.loc 1 114 5 is_stmt 0 view .LVU369
 1184              	.LBE218:
 1185              	.LBE222:
 1186              	.LBB223:
 591:Drivers/lvgl/src/extra/widgets/colorwheel/lv_colorwheel.c ****             if(res != LV_RES_OK) return res;
 1187              		.loc 1 591 13 is_stmt 1 view .LVU370
 591:Drivers/lvgl/src/extra/widgets/colorwheel/lv_colorwheel.c ****             if(res != LV_RES_OK) return res;
 1188              		.loc 1 591 28 is_stmt 0 view .LVU371
 1189 01c8 0022     		movs	r2, #0
 1190 01ca 1C21     		movs	r1, #28
 1191 01cc 2846     		mov	r0, r5
 1192 01ce FFF7FEFF 		bl	lv_event_send
 1193              	.LVL124:
 592:Drivers/lvgl/src/extra/widgets/colorwheel/lv_colorwheel.c ****         }
 1194              		.loc 1 592 13 is_stmt 1 view .LVU372
 592:Drivers/lvgl/src/extra/widgets/colorwheel/lv_colorwheel.c ****         }
 1195              		.loc 1 592 15 is_stmt 0 view .LVU373
 1196 01d2 0128     		cmp	r0, #1
 1197 01d4 7FF41DAF 		bne	.L39
 1198              	.LVL125:
 1199              	.L73:
 592:Drivers/lvgl/src/extra/widgets/colorwheel/lv_colorwheel.c ****         }
 1200              		.loc 1 592 15 view .LVU374
 1201              	.LBE223:
 1202              	.LBE215:
 595:Drivers/lvgl/src/extra/widgets/colorwheel/lv_colorwheel.c **** 
 1203              		.loc 1 595 5 is_stmt 1 view .LVU375
 595:Drivers/lvgl/src/extra/widgets/colorwheel/lv_colorwheel.c **** 
 1204              		.loc 1 595 35 is_stmt 0 view .LVU376
 1205 01d8 FFF7FEFF 		bl	lv_tick_get
 1206              	.LVL126:
 595:Drivers/lvgl/src/extra/widgets/colorwheel/lv_colorwheel.c **** 
 1207              		.loc 1 595 33 discriminator 1 view .LVU377
 1208 01dc 2863     		str	r0, [r5, #48]
 597:Drivers/lvgl/src/extra/widgets/colorwheel/lv_colorwheel.c **** }
ARM GAS  /var/folders/lp/x54gwt890xv47sdkqj1k04q40000gn/T//ccueOQ8a.s 			page 50


 1209              		.loc 1 597 5 is_stmt 1 view .LVU378
 597:Drivers/lvgl/src/extra/widgets/colorwheel/lv_colorwheel.c **** }
 1210              		.loc 1 597 12 is_stmt 0 view .LVU379
 1211 01de 18E7     		b	.L39
 1212              	.LVL127:
 1213              	.L50:
 597:Drivers/lvgl/src/extra/widgets/colorwheel/lv_colorwheel.c **** }
 1214              		.loc 1 597 12 view .LVU380
 1215              	.LBE214:
 1216              	.LBE213:
 1217              	.LBB229:
 444:Drivers/lvgl/src/extra/widgets/colorwheel/lv_colorwheel.c ****         if(indev == NULL) return;
 1218              		.loc 1 444 9 is_stmt 1 view .LVU381
 444:Drivers/lvgl/src/extra/widgets/colorwheel/lv_colorwheel.c ****         if(indev == NULL) return;
 1219              		.loc 1 444 30 is_stmt 0 view .LVU382
 1220 01e0 FFF7FEFF 		bl	lv_indev_get_act
 1221              	.LVL128:
 445:Drivers/lvgl/src/extra/widgets/colorwheel/lv_colorwheel.c **** 
 1222              		.loc 1 445 9 is_stmt 1 view .LVU383
 445:Drivers/lvgl/src/extra/widgets/colorwheel/lv_colorwheel.c **** 
 1223              		.loc 1 445 11 is_stmt 0 view .LVU384
 1224 01e4 0646     		mov	r6, r0
 1225 01e6 0028     		cmp	r0, #0
 1226 01e8 3FF413AF 		beq	.L39
 447:Drivers/lvgl/src/extra/widgets/colorwheel/lv_colorwheel.c ****         lv_point_t p;
 1227              		.loc 1 447 9 is_stmt 1 view .LVU385
 447:Drivers/lvgl/src/extra/widgets/colorwheel/lv_colorwheel.c ****         lv_point_t p;
 1228              		.loc 1 447 38 is_stmt 0 view .LVU386
 1229 01ec FFF7FEFF 		bl	lv_indev_get_type
 1230              	.LVL129:
 448:Drivers/lvgl/src/extra/widgets/colorwheel/lv_colorwheel.c ****         if(indev_type == LV_INDEV_TYPE_ENCODER || indev_type == LV_INDEV_TYPE_KEYPAD) {
 1231              		.loc 1 448 9 is_stmt 1 view .LVU387
 449:Drivers/lvgl/src/extra/widgets/colorwheel/lv_colorwheel.c ****             p.x = obj->coords.x1 + lv_obj_get_width(obj) / 2;
 1232              		.loc 1 449 9 view .LVU388
 449:Drivers/lvgl/src/extra/widgets/colorwheel/lv_colorwheel.c ****             p.x = obj->coords.x1 + lv_obj_get_width(obj) / 2;
 1233              		.loc 1 449 11 is_stmt 0 view .LVU389
 1234 01f0 0428     		cmp	r0, #4
 1235 01f2 00F05083 		beq	.L83
 449:Drivers/lvgl/src/extra/widgets/colorwheel/lv_colorwheel.c ****             p.x = obj->coords.x1 + lv_obj_get_width(obj) / 2;
 1236              		.loc 1 449 48 discriminator 1 view .LVU390
 1237 01f6 0228     		cmp	r0, #2
 1238 01f8 00F04D83 		beq	.L83
 454:Drivers/lvgl/src/extra/widgets/colorwheel/lv_colorwheel.c ****         }
 1239              		.loc 1 454 13 is_stmt 1 view .LVU391
 1240 01fc 16A9     		add	r1, sp, #88
 1241 01fe 3046     		mov	r0, r6
 1242              	.LVL130:
 454:Drivers/lvgl/src/extra/widgets/colorwheel/lv_colorwheel.c ****         }
 1243              		.loc 1 454 13 is_stmt 0 view .LVU392
 1244 0200 FFF7FEFF 		bl	lv_indev_get_point
 1245              	.LVL131:
 1246              	.L85:
 457:Drivers/lvgl/src/extra/widgets/colorwheel/lv_colorwheel.c ****         if((LV_ABS(p.x - colorwheel->last_press_point.x) > drag_limit) ||
 1247              		.loc 1 457 9 is_stmt 1 view .LVU393
 458:Drivers/lvgl/src/extra/widgets/colorwheel/lv_colorwheel.c ****            (LV_ABS(p.y - colorwheel->last_press_point.y) > drag_limit)) {
 1248              		.loc 1 458 9 view .LVU394
 458:Drivers/lvgl/src/extra/widgets/colorwheel/lv_colorwheel.c ****            (LV_ABS(p.y - colorwheel->last_press_point.y) > drag_limit)) {
ARM GAS  /var/folders/lp/x54gwt890xv47sdkqj1k04q40000gn/T//ccueOQ8a.s 			page 51


 1249              		.loc 1 458 13 is_stmt 0 view .LVU395
 1250 0204 BDF95840 		ldrsh	r4, [sp, #88]
 1251 0208 B5F93830 		ldrsh	r3, [r5, #56]
 457:Drivers/lvgl/src/extra/widgets/colorwheel/lv_colorwheel.c ****         if((LV_ABS(p.x - colorwheel->last_press_point.x) > drag_limit) ||
 1252              		.loc 1 457 46 view .LVU396
 1253 020c 3268     		ldr	r2, [r6]
 458:Drivers/lvgl/src/extra/widgets/colorwheel/lv_colorwheel.c ****            (LV_ABS(p.y - colorwheel->last_press_point.y) > drag_limit)) {
 1254              		.loc 1 458 13 view .LVU397
 1255 020e E31A     		subs	r3, r4, r3
 1256 0210 002B     		cmp	r3, #0
 458:Drivers/lvgl/src/extra/widgets/colorwheel/lv_colorwheel.c ****            (LV_ABS(p.y - colorwheel->last_press_point.y) > drag_limit)) {
 1257              		.loc 1 458 58 view .LVU398
 1258 0212 107E     		ldrb	r0, [r2, #24]	@ zero_extendqisi2
 458:Drivers/lvgl/src/extra/widgets/colorwheel/lv_colorwheel.c ****            (LV_ABS(p.y - colorwheel->last_press_point.y) > drag_limit)) {
 1259              		.loc 1 458 13 view .LVU399
 1260 0214 B8BF     		it	lt
 1261 0216 5B42     		rsblt	r3, r3, #0
 458:Drivers/lvgl/src/extra/widgets/colorwheel/lv_colorwheel.c ****            (LV_ABS(p.y - colorwheel->last_press_point.y) > drag_limit)) {
 1262              		.loc 1 458 11 view .LVU400
 1263 0218 8342     		cmp	r3, r0
 1264 021a 09DC     		bgt	.L86
 459:Drivers/lvgl/src/extra/widgets/colorwheel/lv_colorwheel.c ****             colorwheel->last_change_time = lv_tick_get();
 1265              		.loc 1 459 13 view .LVU401
 1266 021c BDF95A20 		ldrsh	r2, [sp, #90]
 1267 0220 B5F93A10 		ldrsh	r1, [r5, #58]
 1268 0224 511A     		subs	r1, r2, r1
 1269 0226 0029     		cmp	r1, #0
 1270 0228 B8BF     		it	lt
 1271 022a 4942     		rsblt	r1, r1, #0
 458:Drivers/lvgl/src/extra/widgets/colorwheel/lv_colorwheel.c ****            (LV_ABS(p.y - colorwheel->last_press_point.y) > drag_limit)) {
 1272              		.loc 1 458 72 discriminator 1 view .LVU402
 1273 022c 8842     		cmp	r0, r1
 1274 022e 08DA     		bge	.L87
 1275              	.L86:
 460:Drivers/lvgl/src/extra/widgets/colorwheel/lv_colorwheel.c ****             colorwheel->last_press_point.x = p.x;
 1276              		.loc 1 460 13 is_stmt 1 view .LVU403
 460:Drivers/lvgl/src/extra/widgets/colorwheel/lv_colorwheel.c ****             colorwheel->last_press_point.x = p.x;
 1277              		.loc 1 460 44 is_stmt 0 view .LVU404
 1278 0230 FFF7FEFF 		bl	lv_tick_get
 1279              	.LVL132:
 461:Drivers/lvgl/src/extra/widgets/colorwheel/lv_colorwheel.c ****             colorwheel->last_press_point.y = p.y;
 1280              		.loc 1 461 44 view .LVU405
 1281 0234 169B     		ldr	r3, [sp, #88]
 461:Drivers/lvgl/src/extra/widgets/colorwheel/lv_colorwheel.c ****             colorwheel->last_press_point.y = p.y;
 1282              		.loc 1 461 47 view .LVU406
 1283 0236 BDF95840 		ldrsh	r4, [sp, #88]
 462:Drivers/lvgl/src/extra/widgets/colorwheel/lv_colorwheel.c ****         }
 1284              		.loc 1 462 47 view .LVU407
 1285 023a BDF95A20 		ldrsh	r2, [sp, #90]
 460:Drivers/lvgl/src/extra/widgets/colorwheel/lv_colorwheel.c ****             colorwheel->last_press_point.x = p.x;
 1286              		.loc 1 460 42 discriminator 1 view .LVU408
 1287 023e 6863     		str	r0, [r5, #52]
 461:Drivers/lvgl/src/extra/widgets/colorwheel/lv_colorwheel.c ****             colorwheel->last_press_point.y = p.y;
 1288              		.loc 1 461 13 is_stmt 1 view .LVU409
 462:Drivers/lvgl/src/extra/widgets/colorwheel/lv_colorwheel.c ****         }
 1289              		.loc 1 462 13 view .LVU410
 461:Drivers/lvgl/src/extra/widgets/colorwheel/lv_colorwheel.c ****             colorwheel->last_press_point.y = p.y;
ARM GAS  /var/folders/lp/x54gwt890xv47sdkqj1k04q40000gn/T//ccueOQ8a.s 			page 52


 1290              		.loc 1 461 44 is_stmt 0 view .LVU411
 1291 0240 AB63     		str	r3, [r5, #56]
 1292              	.L87:
 465:Drivers/lvgl/src/extra/widgets/colorwheel/lv_colorwheel.c ****         p.y -= obj->coords.y1;
 1293              		.loc 1 465 9 is_stmt 1 view .LVU412
 466:Drivers/lvgl/src/extra/widgets/colorwheel/lv_colorwheel.c **** 
 1294              		.loc 1 466 13 is_stmt 0 view .LVU413
 1295 0242 E98A     		ldrh	r1, [r5, #22]
 465:Drivers/lvgl/src/extra/widgets/colorwheel/lv_colorwheel.c ****         p.y -= obj->coords.y1;
 1296              		.loc 1 465 13 view .LVU414
 1297 0244 AB8A     		ldrh	r3, [r5, #20]
 466:Drivers/lvgl/src/extra/widgets/colorwheel/lv_colorwheel.c **** 
 1298              		.loc 1 466 13 view .LVU415
 1299 0246 521A     		subs	r2, r2, r1
 465:Drivers/lvgl/src/extra/widgets/colorwheel/lv_colorwheel.c ****         p.y -= obj->coords.y1;
 1300              		.loc 1 465 13 view .LVU416
 1301 0248 E31A     		subs	r3, r4, r3
 469:Drivers/lvgl/src/extra/widgets/colorwheel/lv_colorwheel.c **** 
 1302              		.loc 1 469 22 view .LVU417
 1303 024a 2846     		mov	r0, r5
 465:Drivers/lvgl/src/extra/widgets/colorwheel/lv_colorwheel.c ****         p.y -= obj->coords.y1;
 1304              		.loc 1 465 13 view .LVU418
 1305 024c ADF85830 		strh	r3, [sp, #88]	@ movhi
 466:Drivers/lvgl/src/extra/widgets/colorwheel/lv_colorwheel.c **** 
 1306              		.loc 1 466 9 is_stmt 1 view .LVU419
 466:Drivers/lvgl/src/extra/widgets/colorwheel/lv_colorwheel.c **** 
 1307              		.loc 1 466 13 is_stmt 0 view .LVU420
 1308 0250 ADF85A20 		strh	r2, [sp, #90]	@ movhi
 469:Drivers/lvgl/src/extra/widgets/colorwheel/lv_colorwheel.c **** 
 1309              		.loc 1 469 9 is_stmt 1 view .LVU421
 469:Drivers/lvgl/src/extra/widgets/colorwheel/lv_colorwheel.c **** 
 1310              		.loc 1 469 22 is_stmt 0 view .LVU422
 1311 0254 FFF7FEFF 		bl	lv_obj_get_width
 1312              	.LVL133:
 1313              	.LBB230:
 1314              	.LBB231:
 411:Drivers/lvgl/src/extra/widgets/colorwheel/../../../../src/core/lv_obj_style_gen.h ****     return (lv_coord_t)v.num;
 1315              		.loc 2 411 26 view .LVU423
 1316 0258 5022     		movs	r2, #80
 1317              	.LBE231:
 1318              	.LBE230:
 469:Drivers/lvgl/src/extra/widgets/colorwheel/lv_colorwheel.c **** 
 1319              		.loc 1 469 22 view .LVU424
 1320 025a 0446     		mov	r4, r0
 1321              	.LVL134:
 471:Drivers/lvgl/src/extra/widgets/colorwheel/lv_colorwheel.c ****         lv_coord_t cir_w = lv_obj_get_style_arc_width(obj, LV_PART_MAIN);
 1322              		.loc 1 471 9 is_stmt 1 view .LVU425
 472:Drivers/lvgl/src/extra/widgets/colorwheel/lv_colorwheel.c **** 
 1323              		.loc 1 472 9 view .LVU426
 1324              	.LBB233:
 1325              	.LBI230:
 409:Drivers/lvgl/src/extra/widgets/colorwheel/../../../../src/core/lv_obj_style_gen.h **** {
 1326              		.loc 2 409 26 view .LVU427
 1327              	.LBB232:
 411:Drivers/lvgl/src/extra/widgets/colorwheel/../../../../src/core/lv_obj_style_gen.h ****     return (lv_coord_t)v.num;
 1328              		.loc 2 411 5 view .LVU428
 411:Drivers/lvgl/src/extra/widgets/colorwheel/../../../../src/core/lv_obj_style_gen.h ****     return (lv_coord_t)v.num;
ARM GAS  /var/folders/lp/x54gwt890xv47sdkqj1k04q40000gn/T//ccueOQ8a.s 			page 53


 1329              		.loc 2 411 26 is_stmt 0 view .LVU429
 1330 025c 0021     		movs	r1, #0
 1331 025e 2846     		mov	r0, r5
 1332 0260 FFF7FEFF 		bl	lv_obj_get_style_prop
 1333              	.LVL135:
 1334              		.loc 2 412 5 is_stmt 1 view .LVU430
 1335              		.loc 2 412 5 is_stmt 0 view .LVU431
 1336              	.LBE232:
 1337              	.LBE233:
 474:Drivers/lvgl/src/extra/widgets/colorwheel/lv_colorwheel.c ****         p.x -= r_in;
 1338              		.loc 1 474 9 is_stmt 1 view .LVU432
 475:Drivers/lvgl/src/extra/widgets/colorwheel/lv_colorwheel.c ****         p.y -= r_in;
 1339              		.loc 1 475 13 is_stmt 0 view .LVU433
 1340 0264 BDF85820 		ldrh	r2, [sp, #88]
 476:Drivers/lvgl/src/extra/widgets/colorwheel/lv_colorwheel.c ****         bool on_ring = true;
 1341              		.loc 1 476 13 view .LVU434
 1342 0268 BDF85A10 		ldrh	r1, [sp, #90]
 474:Drivers/lvgl/src/extra/widgets/colorwheel/lv_colorwheel.c ****         p.x -= r_in;
 1343              		.loc 1 474 20 view .LVU435
 1344 026c C4F34E03 		ubfx	r3, r4, #1, #15
 1345              	.LVL136:
 475:Drivers/lvgl/src/extra/widgets/colorwheel/lv_colorwheel.c ****         p.y -= r_in;
 1346              		.loc 1 475 9 is_stmt 1 view .LVU436
 475:Drivers/lvgl/src/extra/widgets/colorwheel/lv_colorwheel.c ****         p.y -= r_in;
 1347              		.loc 1 475 13 is_stmt 0 view .LVU437
 1348 0270 D21A     		subs	r2, r2, r3
 476:Drivers/lvgl/src/extra/widgets/colorwheel/lv_colorwheel.c ****         bool on_ring = true;
 1349              		.loc 1 476 13 view .LVU438
 1350 0272 C91A     		subs	r1, r1, r3
 478:Drivers/lvgl/src/extra/widgets/colorwheel/lv_colorwheel.c ****         if(r_in > LV_DPI_DEF / 2) {
 1351              		.loc 1 478 14 view .LVU439
 1352 0274 1B1A     		subs	r3, r3, r0
 1353              	.LVL137:
 478:Drivers/lvgl/src/extra/widgets/colorwheel/lv_colorwheel.c ****         if(r_in > LV_DPI_DEF / 2) {
 1354              		.loc 1 478 14 view .LVU440
 1355 0276 1CB2     		sxth	r4, r3
 1356              	.LVL138:
 475:Drivers/lvgl/src/extra/widgets/colorwheel/lv_colorwheel.c ****         p.y -= r_in;
 1357              		.loc 1 475 13 view .LVU441
 1358 0278 12B2     		sxth	r2, r2
 476:Drivers/lvgl/src/extra/widgets/colorwheel/lv_colorwheel.c ****         bool on_ring = true;
 1359              		.loc 1 476 13 view .LVU442
 1360 027a 09B2     		sxth	r1, r1
 479:Drivers/lvgl/src/extra/widgets/colorwheel/lv_colorwheel.c ****             lv_coord_t inner = cir_w / 2;
 1361              		.loc 1 479 11 view .LVU443
 1362 027c 412C     		cmp	r4, #65
 475:Drivers/lvgl/src/extra/widgets/colorwheel/lv_colorwheel.c ****         p.y -= r_in;
 1363              		.loc 1 475 13 view .LVU444
 1364 027e ADF85820 		strh	r2, [sp, #88]	@ movhi
 476:Drivers/lvgl/src/extra/widgets/colorwheel/lv_colorwheel.c ****         bool on_ring = true;
 1365              		.loc 1 476 9 is_stmt 1 view .LVU445
 476:Drivers/lvgl/src/extra/widgets/colorwheel/lv_colorwheel.c ****         bool on_ring = true;
 1366              		.loc 1 476 13 is_stmt 0 view .LVU446
 1367 0282 ADF85A10 		strh	r1, [sp, #90]	@ movhi
 477:Drivers/lvgl/src/extra/widgets/colorwheel/lv_colorwheel.c ****         r_in -= cir_w;
 1368              		.loc 1 477 9 is_stmt 1 view .LVU447
 1369              	.LVL139:
ARM GAS  /var/folders/lp/x54gwt890xv47sdkqj1k04q40000gn/T//ccueOQ8a.s 			page 54


 478:Drivers/lvgl/src/extra/widgets/colorwheel/lv_colorwheel.c ****         if(r_in > LV_DPI_DEF / 2) {
 1370              		.loc 1 478 9 view .LVU448
 479:Drivers/lvgl/src/extra/widgets/colorwheel/lv_colorwheel.c ****             lv_coord_t inner = cir_w / 2;
 1371              		.loc 1 479 9 view .LVU449
 478:Drivers/lvgl/src/extra/widgets/colorwheel/lv_colorwheel.c ****         if(r_in > LV_DPI_DEF / 2) {
 1372              		.loc 1 478 14 is_stmt 0 view .LVU450
 1373 0286 9BB2     		uxth	r3, r3
 479:Drivers/lvgl/src/extra/widgets/colorwheel/lv_colorwheel.c ****             lv_coord_t inner = cir_w / 2;
 1374              		.loc 1 479 11 view .LVU451
 1375 0288 09DD     		ble	.L88
 1376              	.LBB234:
 480:Drivers/lvgl/src/extra/widgets/colorwheel/lv_colorwheel.c ****             r_in -= inner;
 1377              		.loc 1 480 13 is_stmt 1 view .LVU452
 1378              	.LVL140:
 481:Drivers/lvgl/src/extra/widgets/colorwheel/lv_colorwheel.c **** 
 1379              		.loc 1 481 13 view .LVU453
 483:Drivers/lvgl/src/extra/widgets/colorwheel/lv_colorwheel.c ****         }
 1380              		.loc 1 483 13 view .LVU454
 480:Drivers/lvgl/src/extra/widgets/colorwheel/lv_colorwheel.c ****             r_in -= inner;
 1381              		.loc 1 480 24 is_stmt 0 view .LVU455
 1382 028a C0F3C034 		ubfx	r4, r0, #15, #1
 1383 028e 04FA80F0 		sxtah	r0, r4, r0
 1384              	.LVL141:
 481:Drivers/lvgl/src/extra/widgets/colorwheel/lv_colorwheel.c **** 
 1385              		.loc 1 481 18 view .LVU456
 1386 0292 A3EB6003 		sub	r3, r3, r0, asr #1
 483:Drivers/lvgl/src/extra/widgets/colorwheel/lv_colorwheel.c ****         }
 1387              		.loc 1 483 15 view .LVU457
 1388 0296 1CB2     		sxth	r4, r3
 1389 0298 412C     		cmp	r4, #65
 1390 029a B8BF     		it	lt
 1391 029c 4124     		movlt	r4, #65
 1392              	.LVL142:
 1393              	.L88:
 483:Drivers/lvgl/src/extra/widgets/colorwheel/lv_colorwheel.c ****         }
 1394              		.loc 1 483 15 view .LVU458
 1395              	.LBE234:
 486:Drivers/lvgl/src/extra/widgets/colorwheel/lv_colorwheel.c ****             on_ring = false;
 1396              		.loc 1 486 9 is_stmt 1 view .LVU459
 486:Drivers/lvgl/src/extra/widgets/colorwheel/lv_colorwheel.c ****             on_ring = false;
 1397              		.loc 1 486 28 is_stmt 0 view .LVU460
 1398 029e 01FB01F1 		mul	r1, r1, r1
 486:Drivers/lvgl/src/extra/widgets/colorwheel/lv_colorwheel.c ****             on_ring = false;
 1399              		.loc 1 486 22 view .LVU461
 1400 02a2 02FB0212 		mla	r2, r2, r2, r1
 486:Drivers/lvgl/src/extra/widgets/colorwheel/lv_colorwheel.c ****             on_ring = false;
 1401              		.loc 1 486 41 view .LVU462
 1402 02a6 04FB04F4 		mul	r4, r4, r4
 1403              	.LVL143:
 486:Drivers/lvgl/src/extra/widgets/colorwheel/lv_colorwheel.c ****             on_ring = false;
 1404              		.loc 1 486 11 view .LVU463
 1405 02aa A242     		cmp	r2, r4
 491:Drivers/lvgl/src/extra/widgets/colorwheel/lv_colorwheel.c ****         if(!on_ring && diff > indev->driver->long_press_time && !colorwheel->mode_fixed) {
 1406              		.loc 1 491 25 view .LVU464
 1407 02ac 686B     		ldr	r0, [r5, #52]
 486:Drivers/lvgl/src/extra/widgets/colorwheel/lv_colorwheel.c ****             on_ring = false;
 1408              		.loc 1 486 11 view .LVU465
ARM GAS  /var/folders/lp/x54gwt890xv47sdkqj1k04q40000gn/T//ccueOQ8a.s 			page 55


 1409 02ae C0F2CB82 		blt	.L149
 491:Drivers/lvgl/src/extra/widgets/colorwheel/lv_colorwheel.c ****         if(!on_ring && diff > indev->driver->long_press_time && !colorwheel->mode_fixed) {
 1410              		.loc 1 491 9 is_stmt 1 view .LVU466
 491:Drivers/lvgl/src/extra/widgets/colorwheel/lv_colorwheel.c ****         if(!on_ring && diff > indev->driver->long_press_time && !colorwheel->mode_fixed) {
 1411              		.loc 1 491 25 is_stmt 0 view .LVU467
 1412 02b2 FFF7FEFF 		bl	lv_tick_elaps
 1413              	.LVL144:
 492:Drivers/lvgl/src/extra/widgets/colorwheel/lv_colorwheel.c ****             next_color_mode(obj);
 1414              		.loc 1 492 9 is_stmt 1 view .LVU468
 499:Drivers/lvgl/src/extra/widgets/colorwheel/lv_colorwheel.c **** 
 1415              		.loc 1 499 9 view .LVU469
 501:Drivers/lvgl/src/extra/widgets/colorwheel/lv_colorwheel.c **** 
 1416              		.loc 1 501 9 view .LVU470
 501:Drivers/lvgl/src/extra/widgets/colorwheel/lv_colorwheel.c **** 
 1417              		.loc 1 501 17 is_stmt 0 view .LVU471
 1418 02b6 BDF95A10 		ldrsh	r1, [sp, #90]
 1419 02ba BDF95800 		ldrsh	r0, [sp, #88]
 501:Drivers/lvgl/src/extra/widgets/colorwheel/lv_colorwheel.c **** 
 1420              		.loc 1 501 15 discriminator 1 view .LVU472
 1421 02be 204C     		ldr	r4, .L158+4
 501:Drivers/lvgl/src/extra/widgets/colorwheel/lv_colorwheel.c **** 
 1422              		.loc 1 501 17 view .LVU473
 1423 02c0 FFF7FEFF 		bl	lv_atan2
 1424              	.LVL145:
 501:Drivers/lvgl/src/extra/widgets/colorwheel/lv_colorwheel.c **** 
 1425              		.loc 1 501 15 discriminator 1 view .LVU474
 1426 02c4 C308     		lsrs	r3, r0, #3
 1427 02c6 A4FB0323 		umull	r2, r3, r4, r3
 1428 02ca 9B08     		lsrs	r3, r3, #2
 1429 02cc 4FF4B472 		mov	r2, #360
 1430 02d0 02FB1303 		mls	r3, r2, r3, r0
 506:Drivers/lvgl/src/extra/widgets/colorwheel/lv_colorwheel.c ****             case LV_COLORWHEEL_MODE_HUE:
 1431              		.loc 1 506 26 view .LVU475
 1432 02d4 95F83C20 		ldrb	r2, [r5, #60]	@ zero_extendqisi2
 504:Drivers/lvgl/src/extra/widgets/colorwheel/lv_colorwheel.c **** 
 1433              		.loc 1 504 17 view .LVU476
 1434 02d8 A98C     		ldrh	r1, [r5, #36]
 1435 02da 95F82660 		ldrb	r6, [r5, #38]	@ zero_extendqisi2
 1436              	.LVL146:
 504:Drivers/lvgl/src/extra/widgets/colorwheel/lv_colorwheel.c **** 
 1437              		.loc 1 504 17 view .LVU477
 1438 02de 95F82700 		ldrb	r0, [r5, #39]	@ zero_extendqisi2
 506:Drivers/lvgl/src/extra/widgets/colorwheel/lv_colorwheel.c ****             case LV_COLORWHEEL_MODE_HUE:
 1439              		.loc 1 506 26 view .LVU478
 1440 02e2 02F00302 		and	r2, r2, #3
 506:Drivers/lvgl/src/extra/widgets/colorwheel/lv_colorwheel.c ****             case LV_COLORWHEEL_MODE_HUE:
 1441              		.loc 1 506 9 view .LVU479
 1442 02e6 012A     		cmp	r2, #1
 501:Drivers/lvgl/src/extra/widgets/colorwheel/lv_colorwheel.c **** 
 1443              		.loc 1 501 15 discriminator 1 view .LVU480
 1444 02e8 9BB2     		uxth	r3, r3
 1445              	.LVL147:
 503:Drivers/lvgl/src/extra/widgets/colorwheel/lv_colorwheel.c ****         hsv_cur = colorwheel->hsv;
 1446              		.loc 1 503 9 is_stmt 1 view .LVU481
 504:Drivers/lvgl/src/extra/widgets/colorwheel/lv_colorwheel.c **** 
 1447              		.loc 1 504 9 view .LVU482
 506:Drivers/lvgl/src/extra/widgets/colorwheel/lv_colorwheel.c ****             case LV_COLORWHEEL_MODE_HUE:
ARM GAS  /var/folders/lp/x54gwt890xv47sdkqj1k04q40000gn/T//ccueOQ8a.s 			page 56


 1448              		.loc 1 506 9 view .LVU483
 1449 02ea 00F0A683 		beq	.L91
 1450 02ee 022A     		cmp	r2, #2
 1451 02f0 00F02F83 		beq	.L92
 1452 02f4 002A     		cmp	r2, #0
 1453 02f6 40F03483 		bne	.L94
 1454              	.LVL148:
 1455              	.LBB235:
 1456              	.LBB236:
 100:Drivers/lvgl/src/extra/widgets/colorwheel/lv_colorwheel.c ****     if(hsv.v > 100) hsv.v = 100;
 1457              		.loc 1 100 5 view .LVU484
 101:Drivers/lvgl/src/extra/widgets/colorwheel/lv_colorwheel.c **** 
 1458              		.loc 1 101 5 view .LVU485
 100:Drivers/lvgl/src/extra/widgets/colorwheel/lv_colorwheel.c ****     if(hsv.v > 100) hsv.v = 100;
 1459              		.loc 1 100 7 is_stmt 0 view .LVU486
 1460 02fa 642E     		cmp	r6, #100
 1461 02fc 3446     		mov	r4, r6
 1462 02fe 28BF     		it	cs
 1463 0300 6424     		movcs	r4, #100
 101:Drivers/lvgl/src/extra/widgets/colorwheel/lv_colorwheel.c **** 
 1464              		.loc 1 101 7 view .LVU487
 1465 0302 6428     		cmp	r0, #100
 1466 0304 28BF     		it	cs
 1467 0306 6420     		movcs	r0, #100
 1468 0308 64F30702 		bfi	r2, r4, #0, #8
 106:Drivers/lvgl/src/extra/widgets/colorwheel/lv_colorwheel.c **** 
 1469              		.loc 1 106 7 view .LVU488
 1470 030c 8B42     		cmp	r3, r1
 1471 030e 60F30F22 		bfi	r2, r0, #8, #8
 1472              	.LVL149:
 103:Drivers/lvgl/src/extra/widgets/colorwheel/lv_colorwheel.c ****     lv_colorwheel_t * colorwheel = (lv_colorwheel_t *)obj;
 1473              		.loc 1 103 5 is_stmt 1 view .LVU489
 103:Drivers/lvgl/src/extra/widgets/colorwheel/lv_colorwheel.c ****     lv_colorwheel_t * colorwheel = (lv_colorwheel_t *)obj;
