ARM GAS  /var/folders/lp/x54gwt890xv47sdkqj1k04q40000gn/T//cc4JFZNj.s 			page 1


   1              		.cpu cortex-m4
   2              		.arch armv7e-m
   3              		.fpu fpv4-sp-d16
   4              		.eabi_attribute 27, 1
   5              		.eabi_attribute 28, 1
   6              		.eabi_attribute 20, 1
   7              		.eabi_attribute 21, 1
   8              		.eabi_attribute 23, 3
   9              		.eabi_attribute 24, 1
  10              		.eabi_attribute 25, 1
  11              		.eabi_attribute 26, 1
  12              		.eabi_attribute 30, 2
  13              		.eabi_attribute 34, 1
  14              		.eabi_attribute 18, 4
  15              		.file	"lv_checkbox.c"
  16              		.text
  17              	.Ltext0:
  18              		.cfi_sections	.debug_frame
  19              		.file 1 "Drivers/lvgl/src/widgets/lv_checkbox.c"
  20              		.section	.rodata.lv_checkbox_constructor.str1.4,"aMS",%progbits,1
  21              		.align	2
  22              	.LC0:
  23 0000 43686563 		.ascii	"Check box\000"
  23      6B20626F 
  23      7800
  24              		.section	.text.lv_checkbox_constructor,"ax",%progbits
  25              		.align	1
  26              		.p2align 2,,3
  27              		.syntax unified
  28              		.thumb
  29              		.thumb_func
  31              	lv_checkbox_constructor:
  32              	.LVL0:
  33              	.LFB165:
   1:Drivers/lvgl/src/widgets/lv_checkbox.c **** /**
   2:Drivers/lvgl/src/widgets/lv_checkbox.c ****  * @file lv_cb.c
   3:Drivers/lvgl/src/widgets/lv_checkbox.c ****  *
   4:Drivers/lvgl/src/widgets/lv_checkbox.c ****  */
   5:Drivers/lvgl/src/widgets/lv_checkbox.c **** 
   6:Drivers/lvgl/src/widgets/lv_checkbox.c **** /*********************
   7:Drivers/lvgl/src/widgets/lv_checkbox.c ****  *      INCLUDES
   8:Drivers/lvgl/src/widgets/lv_checkbox.c ****  *********************/
   9:Drivers/lvgl/src/widgets/lv_checkbox.c **** #include "lv_checkbox.h"
  10:Drivers/lvgl/src/widgets/lv_checkbox.c **** #if LV_USE_CHECKBOX != 0
  11:Drivers/lvgl/src/widgets/lv_checkbox.c **** 
  12:Drivers/lvgl/src/widgets/lv_checkbox.c **** #include "../misc/lv_assert.h"
  13:Drivers/lvgl/src/widgets/lv_checkbox.c **** #include "../misc/lv_txt_ap.h"
  14:Drivers/lvgl/src/widgets/lv_checkbox.c **** #include "../core/lv_group.h"
  15:Drivers/lvgl/src/widgets/lv_checkbox.c **** #include "../draw/lv_draw.h"
  16:Drivers/lvgl/src/widgets/lv_checkbox.c **** 
  17:Drivers/lvgl/src/widgets/lv_checkbox.c **** /*********************
  18:Drivers/lvgl/src/widgets/lv_checkbox.c ****  *      DEFINES
  19:Drivers/lvgl/src/widgets/lv_checkbox.c ****  *********************/
  20:Drivers/lvgl/src/widgets/lv_checkbox.c **** #define MY_CLASS &lv_checkbox_class
  21:Drivers/lvgl/src/widgets/lv_checkbox.c **** 
  22:Drivers/lvgl/src/widgets/lv_checkbox.c **** /**********************
  23:Drivers/lvgl/src/widgets/lv_checkbox.c ****  *      TYPEDEFS
ARM GAS  /var/folders/lp/x54gwt890xv47sdkqj1k04q40000gn/T//cc4JFZNj.s 			page 2


  24:Drivers/lvgl/src/widgets/lv_checkbox.c ****  **********************/
  25:Drivers/lvgl/src/widgets/lv_checkbox.c **** 
  26:Drivers/lvgl/src/widgets/lv_checkbox.c **** /**********************
  27:Drivers/lvgl/src/widgets/lv_checkbox.c ****  *  STATIC PROTOTYPES
  28:Drivers/lvgl/src/widgets/lv_checkbox.c ****  **********************/
  29:Drivers/lvgl/src/widgets/lv_checkbox.c **** static void lv_checkbox_constructor(const lv_obj_class_t * class_p, lv_obj_t * obj);
  30:Drivers/lvgl/src/widgets/lv_checkbox.c **** static void lv_checkbox_destructor(const lv_obj_class_t * class_p, lv_obj_t * obj);
  31:Drivers/lvgl/src/widgets/lv_checkbox.c **** static void lv_checkbox_event(const lv_obj_class_t * class_p, lv_event_t * e);
  32:Drivers/lvgl/src/widgets/lv_checkbox.c **** static void lv_checkbox_draw(lv_event_t * e);
  33:Drivers/lvgl/src/widgets/lv_checkbox.c **** 
  34:Drivers/lvgl/src/widgets/lv_checkbox.c **** /**********************
  35:Drivers/lvgl/src/widgets/lv_checkbox.c ****  *  STATIC VARIABLES
  36:Drivers/lvgl/src/widgets/lv_checkbox.c ****  **********************/
  37:Drivers/lvgl/src/widgets/lv_checkbox.c **** const lv_obj_class_t lv_checkbox_class = {
  38:Drivers/lvgl/src/widgets/lv_checkbox.c ****     .constructor_cb = lv_checkbox_constructor,
  39:Drivers/lvgl/src/widgets/lv_checkbox.c ****     .destructor_cb = lv_checkbox_destructor,
  40:Drivers/lvgl/src/widgets/lv_checkbox.c ****     .event_cb = lv_checkbox_event,
  41:Drivers/lvgl/src/widgets/lv_checkbox.c ****     .width_def = LV_SIZE_CONTENT,
  42:Drivers/lvgl/src/widgets/lv_checkbox.c ****     .height_def = LV_SIZE_CONTENT,
  43:Drivers/lvgl/src/widgets/lv_checkbox.c ****     .group_def = LV_OBJ_CLASS_GROUP_DEF_TRUE,
  44:Drivers/lvgl/src/widgets/lv_checkbox.c ****     .instance_size = sizeof(lv_checkbox_t),
  45:Drivers/lvgl/src/widgets/lv_checkbox.c ****     .base_class = &lv_obj_class
  46:Drivers/lvgl/src/widgets/lv_checkbox.c **** };
  47:Drivers/lvgl/src/widgets/lv_checkbox.c **** 
  48:Drivers/lvgl/src/widgets/lv_checkbox.c **** /**********************
  49:Drivers/lvgl/src/widgets/lv_checkbox.c ****  *      MACROS
  50:Drivers/lvgl/src/widgets/lv_checkbox.c ****  **********************/
  51:Drivers/lvgl/src/widgets/lv_checkbox.c **** 
  52:Drivers/lvgl/src/widgets/lv_checkbox.c **** /**********************
  53:Drivers/lvgl/src/widgets/lv_checkbox.c ****  *   GLOBAL FUNCTIONS
  54:Drivers/lvgl/src/widgets/lv_checkbox.c ****  **********************/
  55:Drivers/lvgl/src/widgets/lv_checkbox.c **** 
  56:Drivers/lvgl/src/widgets/lv_checkbox.c **** lv_obj_t * lv_checkbox_create(lv_obj_t * parent)
  57:Drivers/lvgl/src/widgets/lv_checkbox.c **** {
  58:Drivers/lvgl/src/widgets/lv_checkbox.c ****     LV_LOG_INFO("begin");
  59:Drivers/lvgl/src/widgets/lv_checkbox.c ****     lv_obj_t * obj = lv_obj_class_create_obj(MY_CLASS, parent);
  60:Drivers/lvgl/src/widgets/lv_checkbox.c ****     lv_obj_class_init_obj(obj);
  61:Drivers/lvgl/src/widgets/lv_checkbox.c ****     return obj;
  62:Drivers/lvgl/src/widgets/lv_checkbox.c **** }
  63:Drivers/lvgl/src/widgets/lv_checkbox.c **** 
  64:Drivers/lvgl/src/widgets/lv_checkbox.c **** /*=====================
  65:Drivers/lvgl/src/widgets/lv_checkbox.c ****  * Setter functions
  66:Drivers/lvgl/src/widgets/lv_checkbox.c ****  *====================*/
  67:Drivers/lvgl/src/widgets/lv_checkbox.c **** 
  68:Drivers/lvgl/src/widgets/lv_checkbox.c **** void lv_checkbox_set_text(lv_obj_t * obj, const char * txt)
  69:Drivers/lvgl/src/widgets/lv_checkbox.c **** {
  70:Drivers/lvgl/src/widgets/lv_checkbox.c ****     lv_checkbox_t * cb = (lv_checkbox_t *)obj;
  71:Drivers/lvgl/src/widgets/lv_checkbox.c **** #if LV_USE_ARABIC_PERSIAN_CHARS
  72:Drivers/lvgl/src/widgets/lv_checkbox.c ****     size_t len = _lv_txt_ap_calc_bytes_cnt(txt);
  73:Drivers/lvgl/src/widgets/lv_checkbox.c **** #else
  74:Drivers/lvgl/src/widgets/lv_checkbox.c ****     size_t len = strlen(txt);
  75:Drivers/lvgl/src/widgets/lv_checkbox.c **** #endif
  76:Drivers/lvgl/src/widgets/lv_checkbox.c **** 
  77:Drivers/lvgl/src/widgets/lv_checkbox.c ****     char * _txt = (char *)cb->txt;
  78:Drivers/lvgl/src/widgets/lv_checkbox.c ****     if(!cb->static_txt) _txt = lv_mem_realloc(_txt, len + 1);
  79:Drivers/lvgl/src/widgets/lv_checkbox.c ****     else _txt = lv_mem_alloc(len + 1);
  80:Drivers/lvgl/src/widgets/lv_checkbox.c **** #if LV_USE_ARABIC_PERSIAN_CHARS
ARM GAS  /var/folders/lp/x54gwt890xv47sdkqj1k04q40000gn/T//cc4JFZNj.s 			page 3


  81:Drivers/lvgl/src/widgets/lv_checkbox.c ****     _lv_txt_ap_proc(txt, _txt);
  82:Drivers/lvgl/src/widgets/lv_checkbox.c **** #else
  83:Drivers/lvgl/src/widgets/lv_checkbox.c ****     strcpy(_txt, txt);
  84:Drivers/lvgl/src/widgets/lv_checkbox.c **** #endif
  85:Drivers/lvgl/src/widgets/lv_checkbox.c **** 
  86:Drivers/lvgl/src/widgets/lv_checkbox.c ****     cb->txt = _txt;
  87:Drivers/lvgl/src/widgets/lv_checkbox.c ****     cb->static_txt = 0;
  88:Drivers/lvgl/src/widgets/lv_checkbox.c **** 
  89:Drivers/lvgl/src/widgets/lv_checkbox.c ****     lv_obj_refresh_self_size(obj);
  90:Drivers/lvgl/src/widgets/lv_checkbox.c ****     lv_obj_invalidate(obj);
  91:Drivers/lvgl/src/widgets/lv_checkbox.c **** }
  92:Drivers/lvgl/src/widgets/lv_checkbox.c **** 
  93:Drivers/lvgl/src/widgets/lv_checkbox.c **** void lv_checkbox_set_text_static(lv_obj_t * obj, const char * txt)
  94:Drivers/lvgl/src/widgets/lv_checkbox.c **** {
  95:Drivers/lvgl/src/widgets/lv_checkbox.c ****     lv_checkbox_t * cb = (lv_checkbox_t *)obj;
  96:Drivers/lvgl/src/widgets/lv_checkbox.c **** 
  97:Drivers/lvgl/src/widgets/lv_checkbox.c ****     if(!cb->static_txt) lv_mem_free((void *)cb->txt);
  98:Drivers/lvgl/src/widgets/lv_checkbox.c **** 
  99:Drivers/lvgl/src/widgets/lv_checkbox.c ****     cb->txt = (char *)txt;
 100:Drivers/lvgl/src/widgets/lv_checkbox.c ****     cb->static_txt = 1;
 101:Drivers/lvgl/src/widgets/lv_checkbox.c **** 
 102:Drivers/lvgl/src/widgets/lv_checkbox.c ****     lv_obj_refresh_self_size(obj);
 103:Drivers/lvgl/src/widgets/lv_checkbox.c ****     lv_obj_invalidate(obj);
 104:Drivers/lvgl/src/widgets/lv_checkbox.c **** }
 105:Drivers/lvgl/src/widgets/lv_checkbox.c **** 
 106:Drivers/lvgl/src/widgets/lv_checkbox.c **** /*=====================
 107:Drivers/lvgl/src/widgets/lv_checkbox.c ****  * Getter functions
 108:Drivers/lvgl/src/widgets/lv_checkbox.c ****  *====================*/
 109:Drivers/lvgl/src/widgets/lv_checkbox.c **** 
 110:Drivers/lvgl/src/widgets/lv_checkbox.c **** const char * lv_checkbox_get_text(const lv_obj_t * obj)
 111:Drivers/lvgl/src/widgets/lv_checkbox.c **** {
 112:Drivers/lvgl/src/widgets/lv_checkbox.c ****     lv_checkbox_t * cb = (lv_checkbox_t *)obj;
 113:Drivers/lvgl/src/widgets/lv_checkbox.c ****     return cb->txt;
 114:Drivers/lvgl/src/widgets/lv_checkbox.c **** }
 115:Drivers/lvgl/src/widgets/lv_checkbox.c **** 
 116:Drivers/lvgl/src/widgets/lv_checkbox.c **** /**********************
 117:Drivers/lvgl/src/widgets/lv_checkbox.c ****  *   STATIC FUNCTIONS
 118:Drivers/lvgl/src/widgets/lv_checkbox.c ****  **********************/
 119:Drivers/lvgl/src/widgets/lv_checkbox.c **** 
 120:Drivers/lvgl/src/widgets/lv_checkbox.c **** static void lv_checkbox_constructor(const lv_obj_class_t * class_p, lv_obj_t * obj)
 121:Drivers/lvgl/src/widgets/lv_checkbox.c **** {
  34              		.loc 1 121 1 view -0
  35              		.cfi_startproc
  36              		@ args = 0, pretend = 0, frame = 0
  37              		@ frame_needed = 0, uses_anonymous_args = 0
 122:Drivers/lvgl/src/widgets/lv_checkbox.c ****     LV_UNUSED(class_p);
  38              		.loc 1 122 5 view .LVU1
 123:Drivers/lvgl/src/widgets/lv_checkbox.c ****     LV_TRACE_OBJ_CREATE("begin");
  39              		.loc 1 123 33 view .LVU2
 124:Drivers/lvgl/src/widgets/lv_checkbox.c **** 
 125:Drivers/lvgl/src/widgets/lv_checkbox.c ****     lv_checkbox_t * cb = (lv_checkbox_t *)obj;
  40              		.loc 1 125 5 view .LVU3
 121:Drivers/lvgl/src/widgets/lv_checkbox.c ****     LV_UNUSED(class_p);
  41              		.loc 1 121 1 is_stmt 0 view .LVU4
  42 0000 10B5     		push	{r4, lr}
  43              		.cfi_def_cfa_offset 8
  44              		.cfi_offset 4, -8
ARM GAS  /var/folders/lp/x54gwt890xv47sdkqj1k04q40000gn/T//cc4JFZNj.s 			page 4


  45              		.cfi_offset 14, -4
 126:Drivers/lvgl/src/widgets/lv_checkbox.c **** 
 127:Drivers/lvgl/src/widgets/lv_checkbox.c ****     cb->txt = "Check box";
 128:Drivers/lvgl/src/widgets/lv_checkbox.c ****     cb->static_txt = 1;
  46              		.loc 1 128 20 view .LVU5
  47 0002 91F82830 		ldrb	r3, [r1, #40]	@ zero_extendqisi2
 127:Drivers/lvgl/src/widgets/lv_checkbox.c ****     cb->static_txt = 1;
  48              		.loc 1 127 13 view .LVU6
  49 0006 0B4A     		ldr	r2, .L4
  50 0008 4A62     		str	r2, [r1, #36]
 121:Drivers/lvgl/src/widgets/lv_checkbox.c ****     LV_UNUSED(class_p);
  51              		.loc 1 121 1 view .LVU7
  52 000a 0C46     		mov	r4, r1
  53              	.LVL1:
 127:Drivers/lvgl/src/widgets/lv_checkbox.c ****     cb->static_txt = 1;
  54              		.loc 1 127 5 is_stmt 1 view .LVU8
  55              		.loc 1 128 5 view .LVU9
  56              		.loc 1 128 20 is_stmt 0 view .LVU10
  57 000c 43F00103 		orr	r3, r3, #1
  58 0010 81F82830 		strb	r3, [r1, #40]
 129:Drivers/lvgl/src/widgets/lv_checkbox.c ****     lv_obj_add_flag(obj, LV_OBJ_FLAG_CLICKABLE);
  59              		.loc 1 129 5 is_stmt 1 view .LVU11
  60 0014 2046     		mov	r0, r4
  61              	.LVL2:
  62              		.loc 1 129 5 is_stmt 0 view .LVU12
  63 0016 0221     		movs	r1, #2
  64              	.LVL3:
  65              		.loc 1 129 5 view .LVU13
  66 0018 FFF7FEFF 		bl	lv_obj_add_flag
  67              	.LVL4:
 130:Drivers/lvgl/src/widgets/lv_checkbox.c ****     lv_obj_add_flag(obj, LV_OBJ_FLAG_CHECKABLE);
  68              		.loc 1 130 5 is_stmt 1 view .LVU14
  69 001c 2046     		mov	r0, r4
  70 001e 0821     		movs	r1, #8
  71 0020 FFF7FEFF 		bl	lv_obj_add_flag
  72              	.LVL5:
 131:Drivers/lvgl/src/widgets/lv_checkbox.c ****     lv_obj_add_flag(obj, LV_OBJ_FLAG_SCROLL_ON_FOCUS);
  73              		.loc 1 131 5 view .LVU15
  74 0024 2046     		mov	r0, r4
  75 0026 4FF48061 		mov	r1, #1024
 132:Drivers/lvgl/src/widgets/lv_checkbox.c **** 
 133:Drivers/lvgl/src/widgets/lv_checkbox.c ****     LV_TRACE_OBJ_CREATE("finished");
 134:Drivers/lvgl/src/widgets/lv_checkbox.c **** }
  76              		.loc 1 134 1 is_stmt 0 view .LVU16
  77 002a BDE81040 		pop	{r4, lr}
  78              		.cfi_restore 14
  79              		.cfi_restore 4
  80              		.cfi_def_cfa_offset 0
  81              	.LVL6:
 131:Drivers/lvgl/src/widgets/lv_checkbox.c ****     lv_obj_add_flag(obj, LV_OBJ_FLAG_SCROLL_ON_FOCUS);
  82              		.loc 1 131 5 view .LVU17
  83 002e FFF7FEBF 		b	lv_obj_add_flag
  84              	.LVL7:
  85              	.L5:
 131:Drivers/lvgl/src/widgets/lv_checkbox.c ****     lv_obj_add_flag(obj, LV_OBJ_FLAG_SCROLL_ON_FOCUS);
  86              		.loc 1 131 5 view .LVU18
  87 0032 00BF     		.align	2
ARM GAS  /var/folders/lp/x54gwt890xv47sdkqj1k04q40000gn/T//cc4JFZNj.s 			page 5


  88              	.L4:
  89 0034 00000000 		.word	.LC0
  90              		.cfi_endproc
  91              	.LFE165:
  93              		.section	.text.lv_checkbox_event,"ax",%progbits
  94              		.align	1
  95              		.p2align 2,,3
  96              		.syntax unified
  97              		.thumb
  98              		.thumb_func
 100              	lv_checkbox_event:
 101              	.LVL8:
 102              	.LFB167:
 135:Drivers/lvgl/src/widgets/lv_checkbox.c **** 
 136:Drivers/lvgl/src/widgets/lv_checkbox.c **** static void lv_checkbox_destructor(const lv_obj_class_t * class_p, lv_obj_t * obj)
 137:Drivers/lvgl/src/widgets/lv_checkbox.c **** {
 138:Drivers/lvgl/src/widgets/lv_checkbox.c ****     LV_UNUSED(class_p);
 139:Drivers/lvgl/src/widgets/lv_checkbox.c ****     LV_TRACE_OBJ_CREATE("begin");
 140:Drivers/lvgl/src/widgets/lv_checkbox.c **** 
 141:Drivers/lvgl/src/widgets/lv_checkbox.c ****     lv_checkbox_t * cb = (lv_checkbox_t *)obj;
 142:Drivers/lvgl/src/widgets/lv_checkbox.c ****     if(!cb->static_txt) {
 143:Drivers/lvgl/src/widgets/lv_checkbox.c ****         lv_mem_free((void *)cb->txt);
 144:Drivers/lvgl/src/widgets/lv_checkbox.c ****         cb->txt = NULL;
 145:Drivers/lvgl/src/widgets/lv_checkbox.c ****     }
 146:Drivers/lvgl/src/widgets/lv_checkbox.c ****     LV_TRACE_OBJ_CREATE("finished");
 147:Drivers/lvgl/src/widgets/lv_checkbox.c **** }
 148:Drivers/lvgl/src/widgets/lv_checkbox.c **** 
 149:Drivers/lvgl/src/widgets/lv_checkbox.c **** static void lv_checkbox_event(const lv_obj_class_t * class_p, lv_event_t * e)
 150:Drivers/lvgl/src/widgets/lv_checkbox.c **** {
 103              		.loc 1 150 1 is_stmt 1 view -0
 104              		.cfi_startproc
 105              		@ args = 0, pretend = 0, frame = 216
 106              		@ frame_needed = 0, uses_anonymous_args = 0
 151:Drivers/lvgl/src/widgets/lv_checkbox.c ****     LV_UNUSED(class_p);
 107              		.loc 1 151 5 view .LVU20
 152:Drivers/lvgl/src/widgets/lv_checkbox.c **** 
 153:Drivers/lvgl/src/widgets/lv_checkbox.c ****     lv_res_t res;
 108              		.loc 1 153 5 view .LVU21
 154:Drivers/lvgl/src/widgets/lv_checkbox.c ****     /*Call the ancestor's event handler*/
 155:Drivers/lvgl/src/widgets/lv_checkbox.c ****     res = lv_obj_event_base(MY_CLASS, e);
 109              		.loc 1 155 5 view .LVU22
 150:Drivers/lvgl/src/widgets/lv_checkbox.c ****     LV_UNUSED(class_p);
 110              		.loc 1 150 1 is_stmt 0 view .LVU23
 111 0000 2DE9F04F 		push	{r4, r5, r6, r7, r8, r9, r10, fp, lr}
 112              		.cfi_def_cfa_offset 36
 113              		.cfi_offset 4, -36
 114              		.cfi_offset 5, -32
 115              		.cfi_offset 6, -28
 116              		.cfi_offset 7, -24
 117              		.cfi_offset 8, -20
 118              		.cfi_offset 9, -16
 119              		.cfi_offset 10, -12
 120              		.cfi_offset 11, -8
 121              		.cfi_offset 14, -4
 122              		.loc 1 155 11 view .LVU24
 123 0004 BA4C     		ldr	r4, .L16
 150:Drivers/lvgl/src/widgets/lv_checkbox.c ****     LV_UNUSED(class_p);
ARM GAS  /var/folders/lp/x54gwt890xv47sdkqj1k04q40000gn/T//cc4JFZNj.s 			page 6


 124              		.loc 1 150 1 view .LVU25
 125 0006 BBB0     		sub	sp, sp, #236
 126              		.cfi_def_cfa_offset 272
 127              		.loc 1 155 11 view .LVU26
 128 0008 2046     		mov	r0, r4
 129              	.LVL9:
 150:Drivers/lvgl/src/widgets/lv_checkbox.c ****     LV_UNUSED(class_p);
 130              		.loc 1 150 1 view .LVU27
 131 000a 0E46     		mov	r6, r1
 132              		.loc 1 155 11 view .LVU28
 133 000c FFF7FEFF 		bl	lv_obj_event_base
 134              	.LVL10:
 156:Drivers/lvgl/src/widgets/lv_checkbox.c ****     if(res != LV_RES_OK) return;
 135              		.loc 1 156 5 is_stmt 1 view .LVU29
 136              		.loc 1 156 7 is_stmt 0 view .LVU30
 137 0010 0128     		cmp	r0, #1
 138 0012 02D0     		beq	.L13
 139              	.LVL11:
 140              	.L6:
 157:Drivers/lvgl/src/widgets/lv_checkbox.c **** 
 158:Drivers/lvgl/src/widgets/lv_checkbox.c ****     lv_event_code_t code = lv_event_get_code(e);
 159:Drivers/lvgl/src/widgets/lv_checkbox.c ****     lv_obj_t * obj = lv_event_get_target(e);
 160:Drivers/lvgl/src/widgets/lv_checkbox.c **** 
 161:Drivers/lvgl/src/widgets/lv_checkbox.c ****     if(code == LV_EVENT_GET_SELF_SIZE) {
 162:Drivers/lvgl/src/widgets/lv_checkbox.c ****         lv_point_t * p = lv_event_get_param(e);
 163:Drivers/lvgl/src/widgets/lv_checkbox.c ****         lv_checkbox_t * cb = (lv_checkbox_t *)obj;
 164:Drivers/lvgl/src/widgets/lv_checkbox.c **** 
 165:Drivers/lvgl/src/widgets/lv_checkbox.c ****         const lv_font_t * font = lv_obj_get_style_text_font(obj, LV_PART_MAIN);
 166:Drivers/lvgl/src/widgets/lv_checkbox.c ****         lv_coord_t font_h = lv_font_get_line_height(font);
 167:Drivers/lvgl/src/widgets/lv_checkbox.c ****         lv_coord_t line_space = lv_obj_get_style_text_line_space(obj, LV_PART_MAIN);
 168:Drivers/lvgl/src/widgets/lv_checkbox.c ****         lv_coord_t letter_space = lv_obj_get_style_text_letter_space(obj, LV_PART_MAIN);
 169:Drivers/lvgl/src/widgets/lv_checkbox.c **** 
 170:Drivers/lvgl/src/widgets/lv_checkbox.c ****         lv_point_t txt_size;
 171:Drivers/lvgl/src/widgets/lv_checkbox.c ****         lv_txt_get_size(&txt_size, cb->txt, font, letter_space, line_space, LV_COORD_MAX, LV_TEXT_F
 172:Drivers/lvgl/src/widgets/lv_checkbox.c **** 
 173:Drivers/lvgl/src/widgets/lv_checkbox.c ****         lv_coord_t bg_colp = lv_obj_get_style_pad_column(obj, LV_PART_MAIN);
 174:Drivers/lvgl/src/widgets/lv_checkbox.c ****         lv_coord_t marker_leftp = lv_obj_get_style_pad_left(obj, LV_PART_INDICATOR);
 175:Drivers/lvgl/src/widgets/lv_checkbox.c ****         lv_coord_t marker_rightp = lv_obj_get_style_pad_right(obj, LV_PART_INDICATOR);
 176:Drivers/lvgl/src/widgets/lv_checkbox.c ****         lv_coord_t marker_topp = lv_obj_get_style_pad_top(obj, LV_PART_INDICATOR);
 177:Drivers/lvgl/src/widgets/lv_checkbox.c ****         lv_coord_t marker_bottomp = lv_obj_get_style_pad_bottom(obj, LV_PART_INDICATOR);
 178:Drivers/lvgl/src/widgets/lv_checkbox.c ****         lv_point_t marker_size;
 179:Drivers/lvgl/src/widgets/lv_checkbox.c ****         marker_size.x = font_h + marker_leftp + marker_rightp;
 180:Drivers/lvgl/src/widgets/lv_checkbox.c ****         marker_size.y = font_h + marker_topp + marker_bottomp;
 181:Drivers/lvgl/src/widgets/lv_checkbox.c **** 
 182:Drivers/lvgl/src/widgets/lv_checkbox.c ****         p->x = marker_size.x + txt_size.x + bg_colp;
 183:Drivers/lvgl/src/widgets/lv_checkbox.c ****         p->y = LV_MAX(marker_size.y, txt_size.y);
 184:Drivers/lvgl/src/widgets/lv_checkbox.c ****     }
 185:Drivers/lvgl/src/widgets/lv_checkbox.c ****     else if(code == LV_EVENT_REFR_EXT_DRAW_SIZE) {
 186:Drivers/lvgl/src/widgets/lv_checkbox.c ****         lv_coord_t * s = lv_event_get_param(e);
 187:Drivers/lvgl/src/widgets/lv_checkbox.c ****         lv_coord_t m = lv_obj_calculate_ext_draw_size(obj, LV_PART_INDICATOR);
 188:Drivers/lvgl/src/widgets/lv_checkbox.c ****         *s = LV_MAX(*s, m);
 189:Drivers/lvgl/src/widgets/lv_checkbox.c ****     }
 190:Drivers/lvgl/src/widgets/lv_checkbox.c ****     else if(code == LV_EVENT_DRAW_MAIN) {
 191:Drivers/lvgl/src/widgets/lv_checkbox.c ****         lv_checkbox_draw(e);
 192:Drivers/lvgl/src/widgets/lv_checkbox.c ****     }
 193:Drivers/lvgl/src/widgets/lv_checkbox.c **** }
 141              		.loc 1 193 1 view .LVU31
ARM GAS  /var/folders/lp/x54gwt890xv47sdkqj1k04q40000gn/T//cc4JFZNj.s 			page 7


 142 0014 3BB0     		add	sp, sp, #236
 143              		.cfi_remember_state
 144              		.cfi_def_cfa_offset 36
 145              		@ sp needed
 146 0016 BDE8F08F 		pop	{r4, r5, r6, r7, r8, r9, r10, fp, pc}
 147              	.LVL12:
 148              	.L13:
 149              		.cfi_restore_state
 150              	.LBB128:
 151              	.LBI128:
 149:Drivers/lvgl/src/widgets/lv_checkbox.c **** {
 152              		.loc 1 149 13 is_stmt 1 view .LVU32
 153              	.LBB129:
 158:Drivers/lvgl/src/widgets/lv_checkbox.c ****     lv_obj_t * obj = lv_event_get_target(e);
 154              		.loc 1 158 5 view .LVU33
 158:Drivers/lvgl/src/widgets/lv_checkbox.c ****     lv_obj_t * obj = lv_event_get_target(e);
 155              		.loc 1 158 28 is_stmt 0 view .LVU34
 156 001a 3046     		mov	r0, r6
 157              	.LVL13:
 158:Drivers/lvgl/src/widgets/lv_checkbox.c ****     lv_obj_t * obj = lv_event_get_target(e);
 158              		.loc 1 158 28 view .LVU35
 159 001c FFF7FEFF 		bl	lv_event_get_code
 160              	.LVL14:
 161 0020 0746     		mov	r7, r0
 162              	.LVL15:
 159:Drivers/lvgl/src/widgets/lv_checkbox.c **** 
 163              		.loc 1 159 5 is_stmt 1 view .LVU36
 159:Drivers/lvgl/src/widgets/lv_checkbox.c **** 
 164              		.loc 1 159 22 is_stmt 0 view .LVU37
 165 0022 3046     		mov	r0, r6
 166 0024 FFF7FEFF 		bl	lv_event_get_target
 167              	.LVL16:
 161:Drivers/lvgl/src/widgets/lv_checkbox.c ****         lv_point_t * p = lv_event_get_param(e);
 168              		.loc 1 161 7 view .LVU38
 169 0028 2C2F     		cmp	r7, #44
 159:Drivers/lvgl/src/widgets/lv_checkbox.c **** 
 170              		.loc 1 159 22 view .LVU39
 171 002a 0546     		mov	r5, r0
 172              	.LVL17:
 161:Drivers/lvgl/src/widgets/lv_checkbox.c ****         lv_point_t * p = lv_event_get_param(e);
 173              		.loc 1 161 5 is_stmt 1 view .LVU40
 161:Drivers/lvgl/src/widgets/lv_checkbox.c ****         lv_point_t * p = lv_event_get_param(e);
 174              		.loc 1 161 7 is_stmt 0 view .LVU41
 175 002c 00F0F780 		beq	.L14
 185:Drivers/lvgl/src/widgets/lv_checkbox.c ****         lv_coord_t * s = lv_event_get_param(e);
 176              		.loc 1 185 10 is_stmt 1 view .LVU42
 185:Drivers/lvgl/src/widgets/lv_checkbox.c ****         lv_coord_t * s = lv_event_get_param(e);
 177              		.loc 1 185 12 is_stmt 0 view .LVU43
 178 0030 132F     		cmp	r7, #19
 179 0032 00F04C81 		beq	.L15
 190:Drivers/lvgl/src/widgets/lv_checkbox.c ****         lv_checkbox_draw(e);
 180              		.loc 1 190 10 is_stmt 1 view .LVU44
 190:Drivers/lvgl/src/widgets/lv_checkbox.c ****         lv_checkbox_draw(e);
 181              		.loc 1 190 12 is_stmt 0 view .LVU45
 182 0036 152F     		cmp	r7, #21
 183 0038 ECD1     		bne	.L6
 191:Drivers/lvgl/src/widgets/lv_checkbox.c ****     }
ARM GAS  /var/folders/lp/x54gwt890xv47sdkqj1k04q40000gn/T//cc4JFZNj.s 			page 8


 184              		.loc 1 191 9 is_stmt 1 view .LVU46
 185              	.LVL18:
 186              	.LBB130:
 187              	.LBI130:
 194:Drivers/lvgl/src/widgets/lv_checkbox.c **** 
 195:Drivers/lvgl/src/widgets/lv_checkbox.c **** static void lv_checkbox_draw(lv_event_t * e)
 188              		.loc 1 195 13 view .LVU47
 189              	.LBB131:
 196:Drivers/lvgl/src/widgets/lv_checkbox.c **** {
 197:Drivers/lvgl/src/widgets/lv_checkbox.c ****     lv_obj_t * obj = lv_event_get_target(e);
 190              		.loc 1 197 5 view .LVU48
 191              		.loc 1 197 22 is_stmt 0 view .LVU49
 192 003a 3046     		mov	r0, r6
 193              	.LVL19:
 194              		.loc 1 197 22 view .LVU50
 195 003c FFF7FEFF 		bl	lv_event_get_target
 196              	.LVL20:
 197 0040 0546     		mov	r5, r0
 198              	.LVL21:
 198:Drivers/lvgl/src/widgets/lv_checkbox.c ****     lv_checkbox_t * cb = (lv_checkbox_t *)obj;
 199              		.loc 1 198 5 is_stmt 1 view .LVU51
 199:Drivers/lvgl/src/widgets/lv_checkbox.c **** 
 200:Drivers/lvgl/src/widgets/lv_checkbox.c ****     lv_draw_ctx_t * draw_ctx = lv_event_get_draw_ctx(e);
 200              		.loc 1 200 5 view .LVU52
 201              		.loc 1 200 32 is_stmt 0 view .LVU53
 202 0042 3046     		mov	r0, r6
 203              	.LVL22:
 204              		.loc 1 200 32 view .LVU54
 205 0044 FFF7FEFF 		bl	lv_event_get_draw_ctx
 206              	.LVL23:
 207              	.LBB132:
 208              	.LBB133:
 209              		.file 2 "Drivers/lvgl/src/widgets/../core/lv_obj_style_gen.h"
   1:Drivers/lvgl/src/widgets/../core/lv_obj_style_gen.h **** static inline lv_coord_t lv_obj_get_style_width(const struct _lv_obj_t * obj, uint32_t part)
   2:Drivers/lvgl/src/widgets/../core/lv_obj_style_gen.h **** {
   3:Drivers/lvgl/src/widgets/../core/lv_obj_style_gen.h ****     lv_style_value_t v = lv_obj_get_style_prop(obj, part, LV_STYLE_WIDTH);
   4:Drivers/lvgl/src/widgets/../core/lv_obj_style_gen.h ****     return (lv_coord_t)v.num;
   5:Drivers/lvgl/src/widgets/../core/lv_obj_style_gen.h **** }
   6:Drivers/lvgl/src/widgets/../core/lv_obj_style_gen.h **** 
   7:Drivers/lvgl/src/widgets/../core/lv_obj_style_gen.h **** static inline lv_coord_t lv_obj_get_style_min_width(const struct _lv_obj_t * obj, uint32_t part)
   8:Drivers/lvgl/src/widgets/../core/lv_obj_style_gen.h **** {
   9:Drivers/lvgl/src/widgets/../core/lv_obj_style_gen.h ****     lv_style_value_t v = lv_obj_get_style_prop(obj, part, LV_STYLE_MIN_WIDTH);
  10:Drivers/lvgl/src/widgets/../core/lv_obj_style_gen.h ****     return (lv_coord_t)v.num;
  11:Drivers/lvgl/src/widgets/../core/lv_obj_style_gen.h **** }
  12:Drivers/lvgl/src/widgets/../core/lv_obj_style_gen.h **** 
  13:Drivers/lvgl/src/widgets/../core/lv_obj_style_gen.h **** static inline lv_coord_t lv_obj_get_style_max_width(const struct _lv_obj_t * obj, uint32_t part)
  14:Drivers/lvgl/src/widgets/../core/lv_obj_style_gen.h **** {
  15:Drivers/lvgl/src/widgets/../core/lv_obj_style_gen.h ****     lv_style_value_t v = lv_obj_get_style_prop(obj, part, LV_STYLE_MAX_WIDTH);
  16:Drivers/lvgl/src/widgets/../core/lv_obj_style_gen.h ****     return (lv_coord_t)v.num;
  17:Drivers/lvgl/src/widgets/../core/lv_obj_style_gen.h **** }
  18:Drivers/lvgl/src/widgets/../core/lv_obj_style_gen.h **** 
  19:Drivers/lvgl/src/widgets/../core/lv_obj_style_gen.h **** static inline lv_coord_t lv_obj_get_style_height(const struct _lv_obj_t * obj, uint32_t part)
  20:Drivers/lvgl/src/widgets/../core/lv_obj_style_gen.h **** {
  21:Drivers/lvgl/src/widgets/../core/lv_obj_style_gen.h ****     lv_style_value_t v = lv_obj_get_style_prop(obj, part, LV_STYLE_HEIGHT);
  22:Drivers/lvgl/src/widgets/../core/lv_obj_style_gen.h ****     return (lv_coord_t)v.num;
  23:Drivers/lvgl/src/widgets/../core/lv_obj_style_gen.h **** }
  24:Drivers/lvgl/src/widgets/../core/lv_obj_style_gen.h **** 
ARM GAS  /var/folders/lp/x54gwt890xv47sdkqj1k04q40000gn/T//cc4JFZNj.s 			page 9


  25:Drivers/lvgl/src/widgets/../core/lv_obj_style_gen.h **** static inline lv_coord_t lv_obj_get_style_min_height(const struct _lv_obj_t * obj, uint32_t part)
  26:Drivers/lvgl/src/widgets/../core/lv_obj_style_gen.h **** {
  27:Drivers/lvgl/src/widgets/../core/lv_obj_style_gen.h ****     lv_style_value_t v = lv_obj_get_style_prop(obj, part, LV_STYLE_MIN_HEIGHT);
  28:Drivers/lvgl/src/widgets/../core/lv_obj_style_gen.h ****     return (lv_coord_t)v.num;
  29:Drivers/lvgl/src/widgets/../core/lv_obj_style_gen.h **** }
  30:Drivers/lvgl/src/widgets/../core/lv_obj_style_gen.h **** 
  31:Drivers/lvgl/src/widgets/../core/lv_obj_style_gen.h **** static inline lv_coord_t lv_obj_get_style_max_height(const struct _lv_obj_t * obj, uint32_t part)
  32:Drivers/lvgl/src/widgets/../core/lv_obj_style_gen.h **** {
  33:Drivers/lvgl/src/widgets/../core/lv_obj_style_gen.h ****     lv_style_value_t v = lv_obj_get_style_prop(obj, part, LV_STYLE_MAX_HEIGHT);
  34:Drivers/lvgl/src/widgets/../core/lv_obj_style_gen.h ****     return (lv_coord_t)v.num;
  35:Drivers/lvgl/src/widgets/../core/lv_obj_style_gen.h **** }
  36:Drivers/lvgl/src/widgets/../core/lv_obj_style_gen.h **** 
  37:Drivers/lvgl/src/widgets/../core/lv_obj_style_gen.h **** static inline lv_coord_t lv_obj_get_style_x(const struct _lv_obj_t * obj, uint32_t part)
  38:Drivers/lvgl/src/widgets/../core/lv_obj_style_gen.h **** {
  39:Drivers/lvgl/src/widgets/../core/lv_obj_style_gen.h ****     lv_style_value_t v = lv_obj_get_style_prop(obj, part, LV_STYLE_X);
  40:Drivers/lvgl/src/widgets/../core/lv_obj_style_gen.h ****     return (lv_coord_t)v.num;
  41:Drivers/lvgl/src/widgets/../core/lv_obj_style_gen.h **** }
  42:Drivers/lvgl/src/widgets/../core/lv_obj_style_gen.h **** 
  43:Drivers/lvgl/src/widgets/../core/lv_obj_style_gen.h **** static inline lv_coord_t lv_obj_get_style_y(const struct _lv_obj_t * obj, uint32_t part)
  44:Drivers/lvgl/src/widgets/../core/lv_obj_style_gen.h **** {
  45:Drivers/lvgl/src/widgets/../core/lv_obj_style_gen.h ****     lv_style_value_t v = lv_obj_get_style_prop(obj, part, LV_STYLE_Y);
  46:Drivers/lvgl/src/widgets/../core/lv_obj_style_gen.h ****     return (lv_coord_t)v.num;
  47:Drivers/lvgl/src/widgets/../core/lv_obj_style_gen.h **** }
  48:Drivers/lvgl/src/widgets/../core/lv_obj_style_gen.h **** 
  49:Drivers/lvgl/src/widgets/../core/lv_obj_style_gen.h **** static inline lv_align_t lv_obj_get_style_align(const struct _lv_obj_t * obj, uint32_t part)
  50:Drivers/lvgl/src/widgets/../core/lv_obj_style_gen.h **** {
  51:Drivers/lvgl/src/widgets/../core/lv_obj_style_gen.h ****     lv_style_value_t v = lv_obj_get_style_prop(obj, part, LV_STYLE_ALIGN);
  52:Drivers/lvgl/src/widgets/../core/lv_obj_style_gen.h ****     return (lv_align_t)v.num;
  53:Drivers/lvgl/src/widgets/../core/lv_obj_style_gen.h **** }
  54:Drivers/lvgl/src/widgets/../core/lv_obj_style_gen.h **** 
  55:Drivers/lvgl/src/widgets/../core/lv_obj_style_gen.h **** static inline lv_coord_t lv_obj_get_style_transform_width(const struct _lv_obj_t * obj, uint32_t pa
  56:Drivers/lvgl/src/widgets/../core/lv_obj_style_gen.h **** {
  57:Drivers/lvgl/src/widgets/../core/lv_obj_style_gen.h ****     lv_style_value_t v = lv_obj_get_style_prop(obj, part, LV_STYLE_TRANSFORM_WIDTH);
  58:Drivers/lvgl/src/widgets/../core/lv_obj_style_gen.h ****     return (lv_coord_t)v.num;
  59:Drivers/lvgl/src/widgets/../core/lv_obj_style_gen.h **** }
  60:Drivers/lvgl/src/widgets/../core/lv_obj_style_gen.h **** 
  61:Drivers/lvgl/src/widgets/../core/lv_obj_style_gen.h **** static inline lv_coord_t lv_obj_get_style_transform_height(const struct _lv_obj_t * obj, uint32_t p
  62:Drivers/lvgl/src/widgets/../core/lv_obj_style_gen.h **** {
  63:Drivers/lvgl/src/widgets/../core/lv_obj_style_gen.h ****     lv_style_value_t v = lv_obj_get_style_prop(obj, part, LV_STYLE_TRANSFORM_HEIGHT);
  64:Drivers/lvgl/src/widgets/../core/lv_obj_style_gen.h ****     return (lv_coord_t)v.num;
  65:Drivers/lvgl/src/widgets/../core/lv_obj_style_gen.h **** }
  66:Drivers/lvgl/src/widgets/../core/lv_obj_style_gen.h **** 
  67:Drivers/lvgl/src/widgets/../core/lv_obj_style_gen.h **** static inline lv_coord_t lv_obj_get_style_translate_x(const struct _lv_obj_t * obj, uint32_t part)
  68:Drivers/lvgl/src/widgets/../core/lv_obj_style_gen.h **** {
  69:Drivers/lvgl/src/widgets/../core/lv_obj_style_gen.h ****     lv_style_value_t v = lv_obj_get_style_prop(obj, part, LV_STYLE_TRANSLATE_X);
  70:Drivers/lvgl/src/widgets/../core/lv_obj_style_gen.h ****     return (lv_coord_t)v.num;
  71:Drivers/lvgl/src/widgets/../core/lv_obj_style_gen.h **** }
  72:Drivers/lvgl/src/widgets/../core/lv_obj_style_gen.h **** 
  73:Drivers/lvgl/src/widgets/../core/lv_obj_style_gen.h **** static inline lv_coord_t lv_obj_get_style_translate_y(const struct _lv_obj_t * obj, uint32_t part)
  74:Drivers/lvgl/src/widgets/../core/lv_obj_style_gen.h **** {
  75:Drivers/lvgl/src/widgets/../core/lv_obj_style_gen.h ****     lv_style_value_t v = lv_obj_get_style_prop(obj, part, LV_STYLE_TRANSLATE_Y);
  76:Drivers/lvgl/src/widgets/../core/lv_obj_style_gen.h ****     return (lv_coord_t)v.num;
  77:Drivers/lvgl/src/widgets/../core/lv_obj_style_gen.h **** }
  78:Drivers/lvgl/src/widgets/../core/lv_obj_style_gen.h **** 
  79:Drivers/lvgl/src/widgets/../core/lv_obj_style_gen.h **** static inline lv_coord_t lv_obj_get_style_transform_zoom(const struct _lv_obj_t * obj, uint32_t par
  80:Drivers/lvgl/src/widgets/../core/lv_obj_style_gen.h **** {
  81:Drivers/lvgl/src/widgets/../core/lv_obj_style_gen.h ****     lv_style_value_t v = lv_obj_get_style_prop(obj, part, LV_STYLE_TRANSFORM_ZOOM);
ARM GAS  /var/folders/lp/x54gwt890xv47sdkqj1k04q40000gn/T//cc4JFZNj.s 			page 10


  82:Drivers/lvgl/src/widgets/../core/lv_obj_style_gen.h ****     return (lv_coord_t)v.num;
  83:Drivers/lvgl/src/widgets/../core/lv_obj_style_gen.h **** }
  84:Drivers/lvgl/src/widgets/../core/lv_obj_style_gen.h **** 
  85:Drivers/lvgl/src/widgets/../core/lv_obj_style_gen.h **** static inline lv_coord_t lv_obj_get_style_transform_angle(const struct _lv_obj_t * obj, uint32_t pa
  86:Drivers/lvgl/src/widgets/../core/lv_obj_style_gen.h **** {
  87:Drivers/lvgl/src/widgets/../core/lv_obj_style_gen.h ****     lv_style_value_t v = lv_obj_get_style_prop(obj, part, LV_STYLE_TRANSFORM_ANGLE);
  88:Drivers/lvgl/src/widgets/../core/lv_obj_style_gen.h ****     return (lv_coord_t)v.num;
  89:Drivers/lvgl/src/widgets/../core/lv_obj_style_gen.h **** }
  90:Drivers/lvgl/src/widgets/../core/lv_obj_style_gen.h **** 
  91:Drivers/lvgl/src/widgets/../core/lv_obj_style_gen.h **** static inline lv_coord_t lv_obj_get_style_transform_pivot_x(const struct _lv_obj_t * obj, uint32_t 
  92:Drivers/lvgl/src/widgets/../core/lv_obj_style_gen.h **** {
  93:Drivers/lvgl/src/widgets/../core/lv_obj_style_gen.h ****     lv_style_value_t v = lv_obj_get_style_prop(obj, part, LV_STYLE_TRANSFORM_PIVOT_X);
  94:Drivers/lvgl/src/widgets/../core/lv_obj_style_gen.h ****     return (lv_coord_t)v.num;
  95:Drivers/lvgl/src/widgets/../core/lv_obj_style_gen.h **** }
  96:Drivers/lvgl/src/widgets/../core/lv_obj_style_gen.h **** 
  97:Drivers/lvgl/src/widgets/../core/lv_obj_style_gen.h **** static inline lv_coord_t lv_obj_get_style_transform_pivot_y(const struct _lv_obj_t * obj, uint32_t 
  98:Drivers/lvgl/src/widgets/../core/lv_obj_style_gen.h **** {
  99:Drivers/lvgl/src/widgets/../core/lv_obj_style_gen.h ****     lv_style_value_t v = lv_obj_get_style_prop(obj, part, LV_STYLE_TRANSFORM_PIVOT_Y);
 100:Drivers/lvgl/src/widgets/../core/lv_obj_style_gen.h ****     return (lv_coord_t)v.num;
 101:Drivers/lvgl/src/widgets/../core/lv_obj_style_gen.h **** }
 102:Drivers/lvgl/src/widgets/../core/lv_obj_style_gen.h **** 
 103:Drivers/lvgl/src/widgets/../core/lv_obj_style_gen.h **** static inline lv_coord_t lv_obj_get_style_pad_top(const struct _lv_obj_t * obj, uint32_t part)
 104:Drivers/lvgl/src/widgets/../core/lv_obj_style_gen.h **** {
 105:Drivers/lvgl/src/widgets/../core/lv_obj_style_gen.h ****     lv_style_value_t v = lv_obj_get_style_prop(obj, part, LV_STYLE_PAD_TOP);
 106:Drivers/lvgl/src/widgets/../core/lv_obj_style_gen.h ****     return (lv_coord_t)v.num;
 107:Drivers/lvgl/src/widgets/../core/lv_obj_style_gen.h **** }
 108:Drivers/lvgl/src/widgets/../core/lv_obj_style_gen.h **** 
 109:Drivers/lvgl/src/widgets/../core/lv_obj_style_gen.h **** static inline lv_coord_t lv_obj_get_style_pad_bottom(const struct _lv_obj_t * obj, uint32_t part)
 110:Drivers/lvgl/src/widgets/../core/lv_obj_style_gen.h **** {
 111:Drivers/lvgl/src/widgets/../core/lv_obj_style_gen.h ****     lv_style_value_t v = lv_obj_get_style_prop(obj, part, LV_STYLE_PAD_BOTTOM);
 112:Drivers/lvgl/src/widgets/../core/lv_obj_style_gen.h ****     return (lv_coord_t)v.num;
 113:Drivers/lvgl/src/widgets/../core/lv_obj_style_gen.h **** }
 114:Drivers/lvgl/src/widgets/../core/lv_obj_style_gen.h **** 
 115:Drivers/lvgl/src/widgets/../core/lv_obj_style_gen.h **** static inline lv_coord_t lv_obj_get_style_pad_left(const struct _lv_obj_t * obj, uint32_t part)
 116:Drivers/lvgl/src/widgets/../core/lv_obj_style_gen.h **** {
 117:Drivers/lvgl/src/widgets/../core/lv_obj_style_gen.h ****     lv_style_value_t v = lv_obj_get_style_prop(obj, part, LV_STYLE_PAD_LEFT);
 118:Drivers/lvgl/src/widgets/../core/lv_obj_style_gen.h ****     return (lv_coord_t)v.num;
 119:Drivers/lvgl/src/widgets/../core/lv_obj_style_gen.h **** }
 120:Drivers/lvgl/src/widgets/../core/lv_obj_style_gen.h **** 
 121:Drivers/lvgl/src/widgets/../core/lv_obj_style_gen.h **** static inline lv_coord_t lv_obj_get_style_pad_right(const struct _lv_obj_t * obj, uint32_t part)
 122:Drivers/lvgl/src/widgets/../core/lv_obj_style_gen.h **** {
 123:Drivers/lvgl/src/widgets/../core/lv_obj_style_gen.h ****     lv_style_value_t v = lv_obj_get_style_prop(obj, part, LV_STYLE_PAD_RIGHT);
 124:Drivers/lvgl/src/widgets/../core/lv_obj_style_gen.h ****     return (lv_coord_t)v.num;
 125:Drivers/lvgl/src/widgets/../core/lv_obj_style_gen.h **** }
 126:Drivers/lvgl/src/widgets/../core/lv_obj_style_gen.h **** 
 127:Drivers/lvgl/src/widgets/../core/lv_obj_style_gen.h **** static inline lv_coord_t lv_obj_get_style_pad_row(const struct _lv_obj_t * obj, uint32_t part)
 128:Drivers/lvgl/src/widgets/../core/lv_obj_style_gen.h **** {
 129:Drivers/lvgl/src/widgets/../core/lv_obj_style_gen.h ****     lv_style_value_t v = lv_obj_get_style_prop(obj, part, LV_STYLE_PAD_ROW);
 130:Drivers/lvgl/src/widgets/../core/lv_obj_style_gen.h ****     return (lv_coord_t)v.num;
 131:Drivers/lvgl/src/widgets/../core/lv_obj_style_gen.h **** }
 132:Drivers/lvgl/src/widgets/../core/lv_obj_style_gen.h **** 
 133:Drivers/lvgl/src/widgets/../core/lv_obj_style_gen.h **** static inline lv_coord_t lv_obj_get_style_pad_column(const struct _lv_obj_t * obj, uint32_t part)
 134:Drivers/lvgl/src/widgets/../core/lv_obj_style_gen.h **** {
 135:Drivers/lvgl/src/widgets/../core/lv_obj_style_gen.h ****     lv_style_value_t v = lv_obj_get_style_prop(obj, part, LV_STYLE_PAD_COLUMN);
 136:Drivers/lvgl/src/widgets/../core/lv_obj_style_gen.h ****     return (lv_coord_t)v.num;
 137:Drivers/lvgl/src/widgets/../core/lv_obj_style_gen.h **** }
 138:Drivers/lvgl/src/widgets/../core/lv_obj_style_gen.h **** 
ARM GAS  /var/folders/lp/x54gwt890xv47sdkqj1k04q40000gn/T//cc4JFZNj.s 			page 11


 139:Drivers/lvgl/src/widgets/../core/lv_obj_style_gen.h **** static inline lv_color_t lv_obj_get_style_bg_color(const struct _lv_obj_t * obj, uint32_t part)
 140:Drivers/lvgl/src/widgets/../core/lv_obj_style_gen.h **** {
 141:Drivers/lvgl/src/widgets/../core/lv_obj_style_gen.h ****     lv_style_value_t v = lv_obj_get_style_prop(obj, part, LV_STYLE_BG_COLOR);
 142:Drivers/lvgl/src/widgets/../core/lv_obj_style_gen.h ****     return v.color;
 143:Drivers/lvgl/src/widgets/../core/lv_obj_style_gen.h **** }
 144:Drivers/lvgl/src/widgets/../core/lv_obj_style_gen.h **** 
 145:Drivers/lvgl/src/widgets/../core/lv_obj_style_gen.h **** static inline lv_color_t lv_obj_get_style_bg_color_filtered(const struct _lv_obj_t * obj, uint32_t 
 146:Drivers/lvgl/src/widgets/../core/lv_obj_style_gen.h **** {
 147:Drivers/lvgl/src/widgets/../core/lv_obj_style_gen.h ****     lv_style_value_t v = _lv_obj_style_apply_color_filter(obj, part, lv_obj_get_style_prop(obj, par
 148:Drivers/lvgl/src/widgets/../core/lv_obj_style_gen.h ****     return v.color;
 149:Drivers/lvgl/src/widgets/../core/lv_obj_style_gen.h **** }
 150:Drivers/lvgl/src/widgets/../core/lv_obj_style_gen.h **** 
 151:Drivers/lvgl/src/widgets/../core/lv_obj_style_gen.h **** static inline lv_opa_t lv_obj_get_style_bg_opa(const struct _lv_obj_t * obj, uint32_t part)
 152:Drivers/lvgl/src/widgets/../core/lv_obj_style_gen.h **** {
 153:Drivers/lvgl/src/widgets/../core/lv_obj_style_gen.h ****     lv_style_value_t v = lv_obj_get_style_prop(obj, part, LV_STYLE_BG_OPA);
 154:Drivers/lvgl/src/widgets/../core/lv_obj_style_gen.h ****     return (lv_opa_t)v.num;
 155:Drivers/lvgl/src/widgets/../core/lv_obj_style_gen.h **** }
 156:Drivers/lvgl/src/widgets/../core/lv_obj_style_gen.h **** 
 157:Drivers/lvgl/src/widgets/../core/lv_obj_style_gen.h **** static inline lv_color_t lv_obj_get_style_bg_grad_color(const struct _lv_obj_t * obj, uint32_t part
 158:Drivers/lvgl/src/widgets/../core/lv_obj_style_gen.h **** {
 159:Drivers/lvgl/src/widgets/../core/lv_obj_style_gen.h ****     lv_style_value_t v = lv_obj_get_style_prop(obj, part, LV_STYLE_BG_GRAD_COLOR);
 160:Drivers/lvgl/src/widgets/../core/lv_obj_style_gen.h ****     return v.color;
 161:Drivers/lvgl/src/widgets/../core/lv_obj_style_gen.h **** }
 162:Drivers/lvgl/src/widgets/../core/lv_obj_style_gen.h **** 
 163:Drivers/lvgl/src/widgets/../core/lv_obj_style_gen.h **** static inline lv_color_t lv_obj_get_style_bg_grad_color_filtered(const struct _lv_obj_t * obj, uint
 164:Drivers/lvgl/src/widgets/../core/lv_obj_style_gen.h **** {
 165:Drivers/lvgl/src/widgets/../core/lv_obj_style_gen.h ****     lv_style_value_t v = _lv_obj_style_apply_color_filter(obj, part, lv_obj_get_style_prop(obj, par
 166:Drivers/lvgl/src/widgets/../core/lv_obj_style_gen.h ****     return v.color;
 167:Drivers/lvgl/src/widgets/../core/lv_obj_style_gen.h **** }
 168:Drivers/lvgl/src/widgets/../core/lv_obj_style_gen.h **** 
 169:Drivers/lvgl/src/widgets/../core/lv_obj_style_gen.h **** static inline lv_grad_dir_t lv_obj_get_style_bg_grad_dir(const struct _lv_obj_t * obj, uint32_t par
 170:Drivers/lvgl/src/widgets/../core/lv_obj_style_gen.h **** {
 171:Drivers/lvgl/src/widgets/../core/lv_obj_style_gen.h ****     lv_style_value_t v = lv_obj_get_style_prop(obj, part, LV_STYLE_BG_GRAD_DIR);
 172:Drivers/lvgl/src/widgets/../core/lv_obj_style_gen.h ****     return (lv_grad_dir_t)v.num;
 173:Drivers/lvgl/src/widgets/../core/lv_obj_style_gen.h **** }
 174:Drivers/lvgl/src/widgets/../core/lv_obj_style_gen.h **** 
 175:Drivers/lvgl/src/widgets/../core/lv_obj_style_gen.h **** static inline lv_coord_t lv_obj_get_style_bg_main_stop(const struct _lv_obj_t * obj, uint32_t part)
 176:Drivers/lvgl/src/widgets/../core/lv_obj_style_gen.h **** {
 177:Drivers/lvgl/src/widgets/../core/lv_obj_style_gen.h ****     lv_style_value_t v = lv_obj_get_style_prop(obj, part, LV_STYLE_BG_MAIN_STOP);
 178:Drivers/lvgl/src/widgets/../core/lv_obj_style_gen.h ****     return (lv_coord_t)v.num;
 179:Drivers/lvgl/src/widgets/../core/lv_obj_style_gen.h **** }
 180:Drivers/lvgl/src/widgets/../core/lv_obj_style_gen.h **** 
 181:Drivers/lvgl/src/widgets/../core/lv_obj_style_gen.h **** static inline lv_coord_t lv_obj_get_style_bg_grad_stop(const struct _lv_obj_t * obj, uint32_t part)
 182:Drivers/lvgl/src/widgets/../core/lv_obj_style_gen.h **** {
 183:Drivers/lvgl/src/widgets/../core/lv_obj_style_gen.h ****     lv_style_value_t v = lv_obj_get_style_prop(obj, part, LV_STYLE_BG_GRAD_STOP);
 184:Drivers/lvgl/src/widgets/../core/lv_obj_style_gen.h ****     return (lv_coord_t)v.num;
 185:Drivers/lvgl/src/widgets/../core/lv_obj_style_gen.h **** }
 186:Drivers/lvgl/src/widgets/../core/lv_obj_style_gen.h **** 
 187:Drivers/lvgl/src/widgets/../core/lv_obj_style_gen.h **** static inline const lv_grad_dsc_t * lv_obj_get_style_bg_grad(const struct _lv_obj_t * obj, uint32_t
 188:Drivers/lvgl/src/widgets/../core/lv_obj_style_gen.h **** {
 189:Drivers/lvgl/src/widgets/../core/lv_obj_style_gen.h ****     lv_style_value_t v = lv_obj_get_style_prop(obj, part, LV_STYLE_BG_GRAD);
 190:Drivers/lvgl/src/widgets/../core/lv_obj_style_gen.h ****     return (const lv_grad_dsc_t *)v.ptr;
 191:Drivers/lvgl/src/widgets/../core/lv_obj_style_gen.h **** }
 192:Drivers/lvgl/src/widgets/../core/lv_obj_style_gen.h **** 
 193:Drivers/lvgl/src/widgets/../core/lv_obj_style_gen.h **** static inline lv_dither_mode_t lv_obj_get_style_bg_dither_mode(const struct _lv_obj_t * obj, uint32
 194:Drivers/lvgl/src/widgets/../core/lv_obj_style_gen.h **** {
 195:Drivers/lvgl/src/widgets/../core/lv_obj_style_gen.h ****     lv_style_value_t v = lv_obj_get_style_prop(obj, part, LV_STYLE_BG_DITHER_MODE);
ARM GAS  /var/folders/lp/x54gwt890xv47sdkqj1k04q40000gn/T//cc4JFZNj.s 			page 12


 196:Drivers/lvgl/src/widgets/../core/lv_obj_style_gen.h ****     return (lv_dither_mode_t)v.num;
 197:Drivers/lvgl/src/widgets/../core/lv_obj_style_gen.h **** }
 198:Drivers/lvgl/src/widgets/../core/lv_obj_style_gen.h **** 
 199:Drivers/lvgl/src/widgets/../core/lv_obj_style_gen.h **** static inline const void * lv_obj_get_style_bg_img_src(const struct _lv_obj_t * obj, uint32_t part)
 200:Drivers/lvgl/src/widgets/../core/lv_obj_style_gen.h **** {
 201:Drivers/lvgl/src/widgets/../core/lv_obj_style_gen.h ****     lv_style_value_t v = lv_obj_get_style_prop(obj, part, LV_STYLE_BG_IMG_SRC);
 202:Drivers/lvgl/src/widgets/../core/lv_obj_style_gen.h ****     return (const void *)v.ptr;
 203:Drivers/lvgl/src/widgets/../core/lv_obj_style_gen.h **** }
 204:Drivers/lvgl/src/widgets/../core/lv_obj_style_gen.h **** 
 205:Drivers/lvgl/src/widgets/../core/lv_obj_style_gen.h **** static inline lv_opa_t lv_obj_get_style_bg_img_opa(const struct _lv_obj_t * obj, uint32_t part)
 206:Drivers/lvgl/src/widgets/../core/lv_obj_style_gen.h **** {
 207:Drivers/lvgl/src/widgets/../core/lv_obj_style_gen.h ****     lv_style_value_t v = lv_obj_get_style_prop(obj, part, LV_STYLE_BG_IMG_OPA);
 208:Drivers/lvgl/src/widgets/../core/lv_obj_style_gen.h ****     return (lv_opa_t)v.num;
 209:Drivers/lvgl/src/widgets/../core/lv_obj_style_gen.h **** }
 210:Drivers/lvgl/src/widgets/../core/lv_obj_style_gen.h **** 
 211:Drivers/lvgl/src/widgets/../core/lv_obj_style_gen.h **** static inline lv_color_t lv_obj_get_style_bg_img_recolor(const struct _lv_obj_t * obj, uint32_t par
 212:Drivers/lvgl/src/widgets/../core/lv_obj_style_gen.h **** {
 213:Drivers/lvgl/src/widgets/../core/lv_obj_style_gen.h ****     lv_style_value_t v = lv_obj_get_style_prop(obj, part, LV_STYLE_BG_IMG_RECOLOR);
 214:Drivers/lvgl/src/widgets/../core/lv_obj_style_gen.h ****     return v.color;
 215:Drivers/lvgl/src/widgets/../core/lv_obj_style_gen.h **** }
 216:Drivers/lvgl/src/widgets/../core/lv_obj_style_gen.h **** 
 217:Drivers/lvgl/src/widgets/../core/lv_obj_style_gen.h **** static inline lv_color_t lv_obj_get_style_bg_img_recolor_filtered(const struct _lv_obj_t * obj, uin
 218:Drivers/lvgl/src/widgets/../core/lv_obj_style_gen.h **** {
 219:Drivers/lvgl/src/widgets/../core/lv_obj_style_gen.h ****     lv_style_value_t v = _lv_obj_style_apply_color_filter(obj, part, lv_obj_get_style_prop(obj, par
 220:Drivers/lvgl/src/widgets/../core/lv_obj_style_gen.h ****     return v.color;
 221:Drivers/lvgl/src/widgets/../core/lv_obj_style_gen.h **** }
 222:Drivers/lvgl/src/widgets/../core/lv_obj_style_gen.h **** 
 223:Drivers/lvgl/src/widgets/../core/lv_obj_style_gen.h **** static inline lv_opa_t lv_obj_get_style_bg_img_recolor_opa(const struct _lv_obj_t * obj, uint32_t p
 224:Drivers/lvgl/src/widgets/../core/lv_obj_style_gen.h **** {
 225:Drivers/lvgl/src/widgets/../core/lv_obj_style_gen.h ****     lv_style_value_t v = lv_obj_get_style_prop(obj, part, LV_STYLE_BG_IMG_RECOLOR_OPA);
 226:Drivers/lvgl/src/widgets/../core/lv_obj_style_gen.h ****     return (lv_opa_t)v.num;
 227:Drivers/lvgl/src/widgets/../core/lv_obj_style_gen.h **** }
 228:Drivers/lvgl/src/widgets/../core/lv_obj_style_gen.h **** 
 229:Drivers/lvgl/src/widgets/../core/lv_obj_style_gen.h **** static inline bool lv_obj_get_style_bg_img_tiled(const struct _lv_obj_t * obj, uint32_t part)
 230:Drivers/lvgl/src/widgets/../core/lv_obj_style_gen.h **** {
 231:Drivers/lvgl/src/widgets/../core/lv_obj_style_gen.h ****     lv_style_value_t v = lv_obj_get_style_prop(obj, part, LV_STYLE_BG_IMG_TILED);
 232:Drivers/lvgl/src/widgets/../core/lv_obj_style_gen.h ****     return (bool)v.num;
 233:Drivers/lvgl/src/widgets/../core/lv_obj_style_gen.h **** }
 234:Drivers/lvgl/src/widgets/../core/lv_obj_style_gen.h **** 
 235:Drivers/lvgl/src/widgets/../core/lv_obj_style_gen.h **** static inline lv_color_t lv_obj_get_style_border_color(const struct _lv_obj_t * obj, uint32_t part)
 236:Drivers/lvgl/src/widgets/../core/lv_obj_style_gen.h **** {
 237:Drivers/lvgl/src/widgets/../core/lv_obj_style_gen.h ****     lv_style_value_t v = lv_obj_get_style_prop(obj, part, LV_STYLE_BORDER_COLOR);
 238:Drivers/lvgl/src/widgets/../core/lv_obj_style_gen.h ****     return v.color;
 239:Drivers/lvgl/src/widgets/../core/lv_obj_style_gen.h **** }
 240:Drivers/lvgl/src/widgets/../core/lv_obj_style_gen.h **** 
 241:Drivers/lvgl/src/widgets/../core/lv_obj_style_gen.h **** static inline lv_color_t lv_obj_get_style_border_color_filtered(const struct _lv_obj_t * obj, uint3
 242:Drivers/lvgl/src/widgets/../core/lv_obj_style_gen.h **** {
 243:Drivers/lvgl/src/widgets/../core/lv_obj_style_gen.h ****     lv_style_value_t v = _lv_obj_style_apply_color_filter(obj, part, lv_obj_get_style_prop(obj, par
 244:Drivers/lvgl/src/widgets/../core/lv_obj_style_gen.h ****     return v.color;
 245:Drivers/lvgl/src/widgets/../core/lv_obj_style_gen.h **** }
 246:Drivers/lvgl/src/widgets/../core/lv_obj_style_gen.h **** 
 247:Drivers/lvgl/src/widgets/../core/lv_obj_style_gen.h **** static inline lv_opa_t lv_obj_get_style_border_opa(const struct _lv_obj_t * obj, uint32_t part)
 248:Drivers/lvgl/src/widgets/../core/lv_obj_style_gen.h **** {
 249:Drivers/lvgl/src/widgets/../core/lv_obj_style_gen.h ****     lv_style_value_t v = lv_obj_get_style_prop(obj, part, LV_STYLE_BORDER_OPA);
 250:Drivers/lvgl/src/widgets/../core/lv_obj_style_gen.h ****     return (lv_opa_t)v.num;
 251:Drivers/lvgl/src/widgets/../core/lv_obj_style_gen.h **** }
 252:Drivers/lvgl/src/widgets/../core/lv_obj_style_gen.h **** 
ARM GAS  /var/folders/lp/x54gwt890xv47sdkqj1k04q40000gn/T//cc4JFZNj.s 			page 13


 253:Drivers/lvgl/src/widgets/../core/lv_obj_style_gen.h **** static inline lv_coord_t lv_obj_get_style_border_width(const struct _lv_obj_t * obj, uint32_t part)
 254:Drivers/lvgl/src/widgets/../core/lv_obj_style_gen.h **** {
 255:Drivers/lvgl/src/widgets/../core/lv_obj_style_gen.h ****     lv_style_value_t v = lv_obj_get_style_prop(obj, part, LV_STYLE_BORDER_WIDTH);
 256:Drivers/lvgl/src/widgets/../core/lv_obj_style_gen.h ****     return (lv_coord_t)v.num;
 257:Drivers/lvgl/src/widgets/../core/lv_obj_style_gen.h **** }
 258:Drivers/lvgl/src/widgets/../core/lv_obj_style_gen.h **** 
 259:Drivers/lvgl/src/widgets/../core/lv_obj_style_gen.h **** static inline lv_border_side_t lv_obj_get_style_border_side(const struct _lv_obj_t * obj, uint32_t 
 260:Drivers/lvgl/src/widgets/../core/lv_obj_style_gen.h **** {
 261:Drivers/lvgl/src/widgets/../core/lv_obj_style_gen.h ****     lv_style_value_t v = lv_obj_get_style_prop(obj, part, LV_STYLE_BORDER_SIDE);
 262:Drivers/lvgl/src/widgets/../core/lv_obj_style_gen.h ****     return (lv_border_side_t)v.num;
 263:Drivers/lvgl/src/widgets/../core/lv_obj_style_gen.h **** }
 264:Drivers/lvgl/src/widgets/../core/lv_obj_style_gen.h **** 
 265:Drivers/lvgl/src/widgets/../core/lv_obj_style_gen.h **** static inline bool lv_obj_get_style_border_post(const struct _lv_obj_t * obj, uint32_t part)
 266:Drivers/lvgl/src/widgets/../core/lv_obj_style_gen.h **** {
 267:Drivers/lvgl/src/widgets/../core/lv_obj_style_gen.h ****     lv_style_value_t v = lv_obj_get_style_prop(obj, part, LV_STYLE_BORDER_POST);
 268:Drivers/lvgl/src/widgets/../core/lv_obj_style_gen.h ****     return (bool)v.num;
 269:Drivers/lvgl/src/widgets/../core/lv_obj_style_gen.h **** }
 270:Drivers/lvgl/src/widgets/../core/lv_obj_style_gen.h **** 
 271:Drivers/lvgl/src/widgets/../core/lv_obj_style_gen.h **** static inline lv_coord_t lv_obj_get_style_outline_width(const struct _lv_obj_t * obj, uint32_t part
 272:Drivers/lvgl/src/widgets/../core/lv_obj_style_gen.h **** {
 273:Drivers/lvgl/src/widgets/../core/lv_obj_style_gen.h ****     lv_style_value_t v = lv_obj_get_style_prop(obj, part, LV_STYLE_OUTLINE_WIDTH);
 274:Drivers/lvgl/src/widgets/../core/lv_obj_style_gen.h ****     return (lv_coord_t)v.num;
 275:Drivers/lvgl/src/widgets/../core/lv_obj_style_gen.h **** }
 276:Drivers/lvgl/src/widgets/../core/lv_obj_style_gen.h **** 
 277:Drivers/lvgl/src/widgets/../core/lv_obj_style_gen.h **** static inline lv_color_t lv_obj_get_style_outline_color(const struct _lv_obj_t * obj, uint32_t part
 278:Drivers/lvgl/src/widgets/../core/lv_obj_style_gen.h **** {
 279:Drivers/lvgl/src/widgets/../core/lv_obj_style_gen.h ****     lv_style_value_t v = lv_obj_get_style_prop(obj, part, LV_STYLE_OUTLINE_COLOR);
 280:Drivers/lvgl/src/widgets/../core/lv_obj_style_gen.h ****     return v.color;
 281:Drivers/lvgl/src/widgets/../core/lv_obj_style_gen.h **** }
 282:Drivers/lvgl/src/widgets/../core/lv_obj_style_gen.h **** 
 283:Drivers/lvgl/src/widgets/../core/lv_obj_style_gen.h **** static inline lv_color_t lv_obj_get_style_outline_color_filtered(const struct _lv_obj_t * obj, uint
 284:Drivers/lvgl/src/widgets/../core/lv_obj_style_gen.h **** {
 285:Drivers/lvgl/src/widgets/../core/lv_obj_style_gen.h ****     lv_style_value_t v = _lv_obj_style_apply_color_filter(obj, part, lv_obj_get_style_prop(obj, par
 286:Drivers/lvgl/src/widgets/../core/lv_obj_style_gen.h ****     return v.color;
 287:Drivers/lvgl/src/widgets/../core/lv_obj_style_gen.h **** }
 288:Drivers/lvgl/src/widgets/../core/lv_obj_style_gen.h **** 
 289:Drivers/lvgl/src/widgets/../core/lv_obj_style_gen.h **** static inline lv_opa_t lv_obj_get_style_outline_opa(const struct _lv_obj_t * obj, uint32_t part)
 290:Drivers/lvgl/src/widgets/../core/lv_obj_style_gen.h **** {
 291:Drivers/lvgl/src/widgets/../core/lv_obj_style_gen.h ****     lv_style_value_t v = lv_obj_get_style_prop(obj, part, LV_STYLE_OUTLINE_OPA);
 292:Drivers/lvgl/src/widgets/../core/lv_obj_style_gen.h ****     return (lv_opa_t)v.num;
 293:Drivers/lvgl/src/widgets/../core/lv_obj_style_gen.h **** }
 294:Drivers/lvgl/src/widgets/../core/lv_obj_style_gen.h **** 
 295:Drivers/lvgl/src/widgets/../core/lv_obj_style_gen.h **** static inline lv_coord_t lv_obj_get_style_outline_pad(const struct _lv_obj_t * obj, uint32_t part)
 296:Drivers/lvgl/src/widgets/../core/lv_obj_style_gen.h **** {
 297:Drivers/lvgl/src/widgets/../core/lv_obj_style_gen.h ****     lv_style_value_t v = lv_obj_get_style_prop(obj, part, LV_STYLE_OUTLINE_PAD);
 298:Drivers/lvgl/src/widgets/../core/lv_obj_style_gen.h ****     return (lv_coord_t)v.num;
 299:Drivers/lvgl/src/widgets/../core/lv_obj_style_gen.h **** }
 300:Drivers/lvgl/src/widgets/../core/lv_obj_style_gen.h **** 
 301:Drivers/lvgl/src/widgets/../core/lv_obj_style_gen.h **** static inline lv_coord_t lv_obj_get_style_shadow_width(const struct _lv_obj_t * obj, uint32_t part)
 302:Drivers/lvgl/src/widgets/../core/lv_obj_style_gen.h **** {
 303:Drivers/lvgl/src/widgets/../core/lv_obj_style_gen.h ****     lv_style_value_t v = lv_obj_get_style_prop(obj, part, LV_STYLE_SHADOW_WIDTH);
 304:Drivers/lvgl/src/widgets/../core/lv_obj_style_gen.h ****     return (lv_coord_t)v.num;
 305:Drivers/lvgl/src/widgets/../core/lv_obj_style_gen.h **** }
 306:Drivers/lvgl/src/widgets/../core/lv_obj_style_gen.h **** 
 307:Drivers/lvgl/src/widgets/../core/lv_obj_style_gen.h **** static inline lv_coord_t lv_obj_get_style_shadow_ofs_x(const struct _lv_obj_t * obj, uint32_t part)
 308:Drivers/lvgl/src/widgets/../core/lv_obj_style_gen.h **** {
 309:Drivers/lvgl/src/widgets/../core/lv_obj_style_gen.h ****     lv_style_value_t v = lv_obj_get_style_prop(obj, part, LV_STYLE_SHADOW_OFS_X);
ARM GAS  /var/folders/lp/x54gwt890xv47sdkqj1k04q40000gn/T//cc4JFZNj.s 			page 14


 310:Drivers/lvgl/src/widgets/../core/lv_obj_style_gen.h ****     return (lv_coord_t)v.num;
 311:Drivers/lvgl/src/widgets/../core/lv_obj_style_gen.h **** }
 312:Drivers/lvgl/src/widgets/../core/lv_obj_style_gen.h **** 
 313:Drivers/lvgl/src/widgets/../core/lv_obj_style_gen.h **** static inline lv_coord_t lv_obj_get_style_shadow_ofs_y(const struct _lv_obj_t * obj, uint32_t part)
 314:Drivers/lvgl/src/widgets/../core/lv_obj_style_gen.h **** {
 315:Drivers/lvgl/src/widgets/../core/lv_obj_style_gen.h ****     lv_style_value_t v = lv_obj_get_style_prop(obj, part, LV_STYLE_SHADOW_OFS_Y);
 316:Drivers/lvgl/src/widgets/../core/lv_obj_style_gen.h ****     return (lv_coord_t)v.num;
 317:Drivers/lvgl/src/widgets/../core/lv_obj_style_gen.h **** }
 318:Drivers/lvgl/src/widgets/../core/lv_obj_style_gen.h **** 
 319:Drivers/lvgl/src/widgets/../core/lv_obj_style_gen.h **** static inline lv_coord_t lv_obj_get_style_shadow_spread(const struct _lv_obj_t * obj, uint32_t part
 320:Drivers/lvgl/src/widgets/../core/lv_obj_style_gen.h **** {
 321:Drivers/lvgl/src/widgets/../core/lv_obj_style_gen.h ****     lv_style_value_t v = lv_obj_get_style_prop(obj, part, LV_STYLE_SHADOW_SPREAD);
 322:Drivers/lvgl/src/widgets/../core/lv_obj_style_gen.h ****     return (lv_coord_t)v.num;
 323:Drivers/lvgl/src/widgets/../core/lv_obj_style_gen.h **** }
 324:Drivers/lvgl/src/widgets/../core/lv_obj_style_gen.h **** 
 325:Drivers/lvgl/src/widgets/../core/lv_obj_style_gen.h **** static inline lv_color_t lv_obj_get_style_shadow_color(const struct _lv_obj_t * obj, uint32_t part)
 326:Drivers/lvgl/src/widgets/../core/lv_obj_style_gen.h **** {
 327:Drivers/lvgl/src/widgets/../core/lv_obj_style_gen.h ****     lv_style_value_t v = lv_obj_get_style_prop(obj, part, LV_STYLE_SHADOW_COLOR);
 328:Drivers/lvgl/src/widgets/../core/lv_obj_style_gen.h ****     return v.color;
 329:Drivers/lvgl/src/widgets/../core/lv_obj_style_gen.h **** }
 330:Drivers/lvgl/src/widgets/../core/lv_obj_style_gen.h **** 
 331:Drivers/lvgl/src/widgets/../core/lv_obj_style_gen.h **** static inline lv_color_t lv_obj_get_style_shadow_color_filtered(const struct _lv_obj_t * obj, uint3
 332:Drivers/lvgl/src/widgets/../core/lv_obj_style_gen.h **** {
 333:Drivers/lvgl/src/widgets/../core/lv_obj_style_gen.h ****     lv_style_value_t v = _lv_obj_style_apply_color_filter(obj, part, lv_obj_get_style_prop(obj, par
 334:Drivers/lvgl/src/widgets/../core/lv_obj_style_gen.h ****     return v.color;
 335:Drivers/lvgl/src/widgets/../core/lv_obj_style_gen.h **** }
 336:Drivers/lvgl/src/widgets/../core/lv_obj_style_gen.h **** 
 337:Drivers/lvgl/src/widgets/../core/lv_obj_style_gen.h **** static inline lv_opa_t lv_obj_get_style_shadow_opa(const struct _lv_obj_t * obj, uint32_t part)
 338:Drivers/lvgl/src/widgets/../core/lv_obj_style_gen.h **** {
 339:Drivers/lvgl/src/widgets/../core/lv_obj_style_gen.h ****     lv_style_value_t v = lv_obj_get_style_prop(obj, part, LV_STYLE_SHADOW_OPA);
 340:Drivers/lvgl/src/widgets/../core/lv_obj_style_gen.h ****     return (lv_opa_t)v.num;
 341:Drivers/lvgl/src/widgets/../core/lv_obj_style_gen.h **** }
 342:Drivers/lvgl/src/widgets/../core/lv_obj_style_gen.h **** 
 343:Drivers/lvgl/src/widgets/../core/lv_obj_style_gen.h **** static inline lv_opa_t lv_obj_get_style_img_opa(const struct _lv_obj_t * obj, uint32_t part)
 344:Drivers/lvgl/src/widgets/../core/lv_obj_style_gen.h **** {
 345:Drivers/lvgl/src/widgets/../core/lv_obj_style_gen.h ****     lv_style_value_t v = lv_obj_get_style_prop(obj, part, LV_STYLE_IMG_OPA);
 346:Drivers/lvgl/src/widgets/../core/lv_obj_style_gen.h ****     return (lv_opa_t)v.num;
 347:Drivers/lvgl/src/widgets/../core/lv_obj_style_gen.h **** }
 348:Drivers/lvgl/src/widgets/../core/lv_obj_style_gen.h **** 
 349:Drivers/lvgl/src/widgets/../core/lv_obj_style_gen.h **** static inline lv_color_t lv_obj_get_style_img_recolor(const struct _lv_obj_t * obj, uint32_t part)
 350:Drivers/lvgl/src/widgets/../core/lv_obj_style_gen.h **** {
 351:Drivers/lvgl/src/widgets/../core/lv_obj_style_gen.h ****     lv_style_value_t v = lv_obj_get_style_prop(obj, part, LV_STYLE_IMG_RECOLOR);
 352:Drivers/lvgl/src/widgets/../core/lv_obj_style_gen.h ****     return v.color;
 353:Drivers/lvgl/src/widgets/../core/lv_obj_style_gen.h **** }
 354:Drivers/lvgl/src/widgets/../core/lv_obj_style_gen.h **** 
 355:Drivers/lvgl/src/widgets/../core/lv_obj_style_gen.h **** static inline lv_color_t lv_obj_get_style_img_recolor_filtered(const struct _lv_obj_t * obj, uint32
 356:Drivers/lvgl/src/widgets/../core/lv_obj_style_gen.h **** {
 357:Drivers/lvgl/src/widgets/../core/lv_obj_style_gen.h ****     lv_style_value_t v = _lv_obj_style_apply_color_filter(obj, part, lv_obj_get_style_prop(obj, par
 358:Drivers/lvgl/src/widgets/../core/lv_obj_style_gen.h ****     return v.color;
 359:Drivers/lvgl/src/widgets/../core/lv_obj_style_gen.h **** }
 360:Drivers/lvgl/src/widgets/../core/lv_obj_style_gen.h **** 
 361:Drivers/lvgl/src/widgets/../core/lv_obj_style_gen.h **** static inline lv_opa_t lv_obj_get_style_img_recolor_opa(const struct _lv_obj_t * obj, uint32_t part
 362:Drivers/lvgl/src/widgets/../core/lv_obj_style_gen.h **** {
 363:Drivers/lvgl/src/widgets/../core/lv_obj_style_gen.h ****     lv_style_value_t v = lv_obj_get_style_prop(obj, part, LV_STYLE_IMG_RECOLOR_OPA);
 364:Drivers/lvgl/src/widgets/../core/lv_obj_style_gen.h ****     return (lv_opa_t)v.num;
 365:Drivers/lvgl/src/widgets/../core/lv_obj_style_gen.h **** }
 366:Drivers/lvgl/src/widgets/../core/lv_obj_style_gen.h **** 
ARM GAS  /var/folders/lp/x54gwt890xv47sdkqj1k04q40000gn/T//cc4JFZNj.s 			page 15


 367:Drivers/lvgl/src/widgets/../core/lv_obj_style_gen.h **** static inline lv_coord_t lv_obj_get_style_line_width(const struct _lv_obj_t * obj, uint32_t part)
 368:Drivers/lvgl/src/widgets/../core/lv_obj_style_gen.h **** {
 369:Drivers/lvgl/src/widgets/../core/lv_obj_style_gen.h ****     lv_style_value_t v = lv_obj_get_style_prop(obj, part, LV_STYLE_LINE_WIDTH);
 370:Drivers/lvgl/src/widgets/../core/lv_obj_style_gen.h ****     return (lv_coord_t)v.num;
 371:Drivers/lvgl/src/widgets/../core/lv_obj_style_gen.h **** }
 372:Drivers/lvgl/src/widgets/../core/lv_obj_style_gen.h **** 
 373:Drivers/lvgl/src/widgets/../core/lv_obj_style_gen.h **** static inline lv_coord_t lv_obj_get_style_line_dash_width(const struct _lv_obj_t * obj, uint32_t pa
 374:Drivers/lvgl/src/widgets/../core/lv_obj_style_gen.h **** {
 375:Drivers/lvgl/src/widgets/../core/lv_obj_style_gen.h ****     lv_style_value_t v = lv_obj_get_style_prop(obj, part, LV_STYLE_LINE_DASH_WIDTH);
 376:Drivers/lvgl/src/widgets/../core/lv_obj_style_gen.h ****     return (lv_coord_t)v.num;
 377:Drivers/lvgl/src/widgets/../core/lv_obj_style_gen.h **** }
 378:Drivers/lvgl/src/widgets/../core/lv_obj_style_gen.h **** 
 379:Drivers/lvgl/src/widgets/../core/lv_obj_style_gen.h **** static inline lv_coord_t lv_obj_get_style_line_dash_gap(const struct _lv_obj_t * obj, uint32_t part
 380:Drivers/lvgl/src/widgets/../core/lv_obj_style_gen.h **** {
 381:Drivers/lvgl/src/widgets/../core/lv_obj_style_gen.h ****     lv_style_value_t v = lv_obj_get_style_prop(obj, part, LV_STYLE_LINE_DASH_GAP);
 382:Drivers/lvgl/src/widgets/../core/lv_obj_style_gen.h ****     return (lv_coord_t)v.num;
 383:Drivers/lvgl/src/widgets/../core/lv_obj_style_gen.h **** }
 384:Drivers/lvgl/src/widgets/../core/lv_obj_style_gen.h **** 
 385:Drivers/lvgl/src/widgets/../core/lv_obj_style_gen.h **** static inline bool lv_obj_get_style_line_rounded(const struct _lv_obj_t * obj, uint32_t part)
 386:Drivers/lvgl/src/widgets/../core/lv_obj_style_gen.h **** {
 387:Drivers/lvgl/src/widgets/../core/lv_obj_style_gen.h ****     lv_style_value_t v = lv_obj_get_style_prop(obj, part, LV_STYLE_LINE_ROUNDED);
 388:Drivers/lvgl/src/widgets/../core/lv_obj_style_gen.h ****     return (bool)v.num;
 389:Drivers/lvgl/src/widgets/../core/lv_obj_style_gen.h **** }
 390:Drivers/lvgl/src/widgets/../core/lv_obj_style_gen.h **** 
 391:Drivers/lvgl/src/widgets/../core/lv_obj_style_gen.h **** static inline lv_color_t lv_obj_get_style_line_color(const struct _lv_obj_t * obj, uint32_t part)
 392:Drivers/lvgl/src/widgets/../core/lv_obj_style_gen.h **** {
 393:Drivers/lvgl/src/widgets/../core/lv_obj_style_gen.h ****     lv_style_value_t v = lv_obj_get_style_prop(obj, part, LV_STYLE_LINE_COLOR);
 394:Drivers/lvgl/src/widgets/../core/lv_obj_style_gen.h ****     return v.color;
 395:Drivers/lvgl/src/widgets/../core/lv_obj_style_gen.h **** }
 396:Drivers/lvgl/src/widgets/../core/lv_obj_style_gen.h **** 
 397:Drivers/lvgl/src/widgets/../core/lv_obj_style_gen.h **** static inline lv_color_t lv_obj_get_style_line_color_filtered(const struct _lv_obj_t * obj, uint32_
 398:Drivers/lvgl/src/widgets/../core/lv_obj_style_gen.h **** {
 399:Drivers/lvgl/src/widgets/../core/lv_obj_style_gen.h ****     lv_style_value_t v = _lv_obj_style_apply_color_filter(obj, part, lv_obj_get_style_prop(obj, par
 400:Drivers/lvgl/src/widgets/../core/lv_obj_style_gen.h ****     return v.color;
 401:Drivers/lvgl/src/widgets/../core/lv_obj_style_gen.h **** }
 402:Drivers/lvgl/src/widgets/../core/lv_obj_style_gen.h **** 
 403:Drivers/lvgl/src/widgets/../core/lv_obj_style_gen.h **** static inline lv_opa_t lv_obj_get_style_line_opa(const struct _lv_obj_t * obj, uint32_t part)
 404:Drivers/lvgl/src/widgets/../core/lv_obj_style_gen.h **** {
 405:Drivers/lvgl/src/widgets/../core/lv_obj_style_gen.h ****     lv_style_value_t v = lv_obj_get_style_prop(obj, part, LV_STYLE_LINE_OPA);
 406:Drivers/lvgl/src/widgets/../core/lv_obj_style_gen.h ****     return (lv_opa_t)v.num;
 407:Drivers/lvgl/src/widgets/../core/lv_obj_style_gen.h **** }
 408:Drivers/lvgl/src/widgets/../core/lv_obj_style_gen.h **** 
 409:Drivers/lvgl/src/widgets/../core/lv_obj_style_gen.h **** static inline lv_coord_t lv_obj_get_style_arc_width(const struct _lv_obj_t * obj, uint32_t part)
 410:Drivers/lvgl/src/widgets/../core/lv_obj_style_gen.h **** {
 411:Drivers/lvgl/src/widgets/../core/lv_obj_style_gen.h ****     lv_style_value_t v = lv_obj_get_style_prop(obj, part, LV_STYLE_ARC_WIDTH);
 412:Drivers/lvgl/src/widgets/../core/lv_obj_style_gen.h ****     return (lv_coord_t)v.num;
 413:Drivers/lvgl/src/widgets/../core/lv_obj_style_gen.h **** }
 414:Drivers/lvgl/src/widgets/../core/lv_obj_style_gen.h **** 
 415:Drivers/lvgl/src/widgets/../core/lv_obj_style_gen.h **** static inline bool lv_obj_get_style_arc_rounded(const struct _lv_obj_t * obj, uint32_t part)
 416:Drivers/lvgl/src/widgets/../core/lv_obj_style_gen.h **** {
 417:Drivers/lvgl/src/widgets/../core/lv_obj_style_gen.h ****     lv_style_value_t v = lv_obj_get_style_prop(obj, part, LV_STYLE_ARC_ROUNDED);
 418:Drivers/lvgl/src/widgets/../core/lv_obj_style_gen.h ****     return (bool)v.num;
 419:Drivers/lvgl/src/widgets/../core/lv_obj_style_gen.h **** }
 420:Drivers/lvgl/src/widgets/../core/lv_obj_style_gen.h **** 
 421:Drivers/lvgl/src/widgets/../core/lv_obj_style_gen.h **** static inline lv_color_t lv_obj_get_style_arc_color(const struct _lv_obj_t * obj, uint32_t part)
 422:Drivers/lvgl/src/widgets/../core/lv_obj_style_gen.h **** {
 423:Drivers/lvgl/src/widgets/../core/lv_obj_style_gen.h ****     lv_style_value_t v = lv_obj_get_style_prop(obj, part, LV_STYLE_ARC_COLOR);
ARM GAS  /var/folders/lp/x54gwt890xv47sdkqj1k04q40000gn/T//cc4JFZNj.s 			page 16


 424:Drivers/lvgl/src/widgets/../core/lv_obj_style_gen.h ****     return v.color;
 425:Drivers/lvgl/src/widgets/../core/lv_obj_style_gen.h **** }
 426:Drivers/lvgl/src/widgets/../core/lv_obj_style_gen.h **** 
 427:Drivers/lvgl/src/widgets/../core/lv_obj_style_gen.h **** static inline lv_color_t lv_obj_get_style_arc_color_filtered(const struct _lv_obj_t * obj, uint32_t
 428:Drivers/lvgl/src/widgets/../core/lv_obj_style_gen.h **** {
 429:Drivers/lvgl/src/widgets/../core/lv_obj_style_gen.h ****     lv_style_value_t v = _lv_obj_style_apply_color_filter(obj, part, lv_obj_get_style_prop(obj, par
 430:Drivers/lvgl/src/widgets/../core/lv_obj_style_gen.h ****     return v.color;
 431:Drivers/lvgl/src/widgets/../core/lv_obj_style_gen.h **** }
 432:Drivers/lvgl/src/widgets/../core/lv_obj_style_gen.h **** 
 433:Drivers/lvgl/src/widgets/../core/lv_obj_style_gen.h **** static inline lv_opa_t lv_obj_get_style_arc_opa(const struct _lv_obj_t * obj, uint32_t part)
 434:Drivers/lvgl/src/widgets/../core/lv_obj_style_gen.h **** {
 435:Drivers/lvgl/src/widgets/../core/lv_obj_style_gen.h ****     lv_style_value_t v = lv_obj_get_style_prop(obj, part, LV_STYLE_ARC_OPA);
 436:Drivers/lvgl/src/widgets/../core/lv_obj_style_gen.h ****     return (lv_opa_t)v.num;
 437:Drivers/lvgl/src/widgets/../core/lv_obj_style_gen.h **** }
 438:Drivers/lvgl/src/widgets/../core/lv_obj_style_gen.h **** 
 439:Drivers/lvgl/src/widgets/../core/lv_obj_style_gen.h **** static inline const void * lv_obj_get_style_arc_img_src(const struct _lv_obj_t * obj, uint32_t part
 440:Drivers/lvgl/src/widgets/../core/lv_obj_style_gen.h **** {
 441:Drivers/lvgl/src/widgets/../core/lv_obj_style_gen.h ****     lv_style_value_t v = lv_obj_get_style_prop(obj, part, LV_STYLE_ARC_IMG_SRC);
 442:Drivers/lvgl/src/widgets/../core/lv_obj_style_gen.h ****     return (const void *)v.ptr;
 443:Drivers/lvgl/src/widgets/../core/lv_obj_style_gen.h **** }
 444:Drivers/lvgl/src/widgets/../core/lv_obj_style_gen.h **** 
 445:Drivers/lvgl/src/widgets/../core/lv_obj_style_gen.h **** static inline lv_color_t lv_obj_get_style_text_color(const struct _lv_obj_t * obj, uint32_t part)
 446:Drivers/lvgl/src/widgets/../core/lv_obj_style_gen.h **** {
 447:Drivers/lvgl/src/widgets/../core/lv_obj_style_gen.h ****     lv_style_value_t v = lv_obj_get_style_prop(obj, part, LV_STYLE_TEXT_COLOR);
 448:Drivers/lvgl/src/widgets/../core/lv_obj_style_gen.h ****     return v.color;
 449:Drivers/lvgl/src/widgets/../core/lv_obj_style_gen.h **** }
 450:Drivers/lvgl/src/widgets/../core/lv_obj_style_gen.h **** 
 451:Drivers/lvgl/src/widgets/../core/lv_obj_style_gen.h **** static inline lv_color_t lv_obj_get_style_text_color_filtered(const struct _lv_obj_t * obj, uint32_
 452:Drivers/lvgl/src/widgets/../core/lv_obj_style_gen.h **** {
 453:Drivers/lvgl/src/widgets/../core/lv_obj_style_gen.h ****     lv_style_value_t v = _lv_obj_style_apply_color_filter(obj, part, lv_obj_get_style_prop(obj, par
 454:Drivers/lvgl/src/widgets/../core/lv_obj_style_gen.h ****     return v.color;
 455:Drivers/lvgl/src/widgets/../core/lv_obj_style_gen.h **** }
 456:Drivers/lvgl/src/widgets/../core/lv_obj_style_gen.h **** 
 457:Drivers/lvgl/src/widgets/../core/lv_obj_style_gen.h **** static inline lv_opa_t lv_obj_get_style_text_opa(const struct _lv_obj_t * obj, uint32_t part)
 458:Drivers/lvgl/src/widgets/../core/lv_obj_style_gen.h **** {
 459:Drivers/lvgl/src/widgets/../core/lv_obj_style_gen.h ****     lv_style_value_t v = lv_obj_get_style_prop(obj, part, LV_STYLE_TEXT_OPA);
 460:Drivers/lvgl/src/widgets/../core/lv_obj_style_gen.h ****     return (lv_opa_t)v.num;
 461:Drivers/lvgl/src/widgets/../core/lv_obj_style_gen.h **** }
 462:Drivers/lvgl/src/widgets/../core/lv_obj_style_gen.h **** 
 463:Drivers/lvgl/src/widgets/../core/lv_obj_style_gen.h **** static inline const lv_font_t * lv_obj_get_style_text_font(const struct _lv_obj_t * obj, uint32_t p
 464:Drivers/lvgl/src/widgets/../core/lv_obj_style_gen.h **** {
 465:Drivers/lvgl/src/widgets/../core/lv_obj_style_gen.h ****     lv_style_value_t v = lv_obj_get_style_prop(obj, part, LV_STYLE_TEXT_FONT);
 210              		.loc 2 465 26 view .LVU55
 211 0048 5722     		movs	r2, #87
 212              	.LBE133:
 213              	.LBE132:
 214              		.loc 1 200 32 view .LVU56
 215 004a 8146     		mov	r9, r0
 216              	.LVL24:
 201:Drivers/lvgl/src/widgets/lv_checkbox.c ****     const lv_font_t * font = lv_obj_get_style_text_font(obj, LV_PART_MAIN);
 217              		.loc 1 201 5 is_stmt 1 view .LVU57
 218              	.LBB135:
 219              	.LBI132:
 463:Drivers/lvgl/src/widgets/../core/lv_obj_style_gen.h **** {
 220              		.loc 2 463 33 view .LVU58
 221              	.LBB134:
 222              		.loc 2 465 5 view .LVU59
ARM GAS  /var/folders/lp/x54gwt890xv47sdkqj1k04q40000gn/T//cc4JFZNj.s 			page 17


 223              		.loc 2 465 26 is_stmt 0 view .LVU60
 224 004c 0021     		movs	r1, #0
 225 004e 2846     		mov	r0, r5
 226              	.LVL25:
 227              		.loc 2 465 26 view .LVU61
 228 0050 FFF7FEFF 		bl	lv_obj_get_style_prop
 229              	.LVL26:
 466:Drivers/lvgl/src/widgets/../core/lv_obj_style_gen.h ****     return (const lv_font_t *)v.ptr;
 230              		.loc 2 466 5 is_stmt 1 view .LVU62
 465:Drivers/lvgl/src/widgets/../core/lv_obj_style_gen.h ****     return (const lv_font_t *)v.ptr;
 231              		.loc 2 465 26 is_stmt 0 view .LVU63
 232 0054 0346     		mov	r3, r0
 233              	.LVL27:
 465:Drivers/lvgl/src/widgets/../core/lv_obj_style_gen.h ****     return (const lv_font_t *)v.ptr;
 234              		.loc 2 465 26 view .LVU64
 235              	.LBE134:
 236              	.LBE135:
 202:Drivers/lvgl/src/widgets/lv_checkbox.c ****     lv_coord_t font_h = lv_font_get_line_height(font);
 237              		.loc 1 202 5 is_stmt 1 view .LVU65
 238              	.LBB136:
 239              	.LBI136:
 240              		.file 3 "Drivers/lvgl/src/widgets/../core/../misc/../font/lv_font.h"
   1:Drivers/lvgl/src/widgets/../core/../misc/../font/lv_font.h **** /**
   2:Drivers/lvgl/src/widgets/../core/../misc/../font/lv_font.h ****  * @file lv_font.h
   3:Drivers/lvgl/src/widgets/../core/../misc/../font/lv_font.h ****  *
   4:Drivers/lvgl/src/widgets/../core/../misc/../font/lv_font.h ****  */
   5:Drivers/lvgl/src/widgets/../core/../misc/../font/lv_font.h **** 
   6:Drivers/lvgl/src/widgets/../core/../misc/../font/lv_font.h **** #ifndef LV_FONT_H
   7:Drivers/lvgl/src/widgets/../core/../misc/../font/lv_font.h **** #define LV_FONT_H
   8:Drivers/lvgl/src/widgets/../core/../misc/../font/lv_font.h **** 
   9:Drivers/lvgl/src/widgets/../core/../misc/../font/lv_font.h **** #ifdef __cplusplus
  10:Drivers/lvgl/src/widgets/../core/../misc/../font/lv_font.h **** extern "C" {
  11:Drivers/lvgl/src/widgets/../core/../misc/../font/lv_font.h **** #endif
  12:Drivers/lvgl/src/widgets/../core/../misc/../font/lv_font.h **** 
  13:Drivers/lvgl/src/widgets/../core/../misc/../font/lv_font.h **** /*********************
  14:Drivers/lvgl/src/widgets/../core/../misc/../font/lv_font.h ****  *      INCLUDES
  15:Drivers/lvgl/src/widgets/../core/../misc/../font/lv_font.h ****  *********************/
  16:Drivers/lvgl/src/widgets/../core/../misc/../font/lv_font.h **** #include "../lv_conf_internal.h"
  17:Drivers/lvgl/src/widgets/../core/../misc/../font/lv_font.h **** #include <stdint.h>
  18:Drivers/lvgl/src/widgets/../core/../misc/../font/lv_font.h **** #include <stddef.h>
  19:Drivers/lvgl/src/widgets/../core/../misc/../font/lv_font.h **** #include <stdbool.h>
  20:Drivers/lvgl/src/widgets/../core/../misc/../font/lv_font.h **** 
  21:Drivers/lvgl/src/widgets/../core/../misc/../font/lv_font.h **** #include "lv_symbol_def.h"
  22:Drivers/lvgl/src/widgets/../core/../misc/../font/lv_font.h **** #include "../misc/lv_area.h"
  23:Drivers/lvgl/src/widgets/../core/../misc/../font/lv_font.h **** 
  24:Drivers/lvgl/src/widgets/../core/../misc/../font/lv_font.h **** /*********************
  25:Drivers/lvgl/src/widgets/../core/../misc/../font/lv_font.h ****  *      DEFINES
  26:Drivers/lvgl/src/widgets/../core/../misc/../font/lv_font.h ****  *********************/
  27:Drivers/lvgl/src/widgets/../core/../misc/../font/lv_font.h **** 
  28:Drivers/lvgl/src/widgets/../core/../misc/../font/lv_font.h **** /* imgfont identifier */
  29:Drivers/lvgl/src/widgets/../core/../misc/../font/lv_font.h **** #define LV_IMGFONT_BPP 9
  30:Drivers/lvgl/src/widgets/../core/../misc/../font/lv_font.h **** 
  31:Drivers/lvgl/src/widgets/../core/../misc/../font/lv_font.h **** /**********************
  32:Drivers/lvgl/src/widgets/../core/../misc/../font/lv_font.h ****  *      TYPEDEFS
  33:Drivers/lvgl/src/widgets/../core/../misc/../font/lv_font.h ****  **********************/
  34:Drivers/lvgl/src/widgets/../core/../misc/../font/lv_font.h **** 
  35:Drivers/lvgl/src/widgets/../core/../misc/../font/lv_font.h **** /*------------------
ARM GAS  /var/folders/lp/x54gwt890xv47sdkqj1k04q40000gn/T//cc4JFZNj.s 			page 18


  36:Drivers/lvgl/src/widgets/../core/../misc/../font/lv_font.h ****  * General types
  37:Drivers/lvgl/src/widgets/../core/../misc/../font/lv_font.h ****  *-----------------*/
  38:Drivers/lvgl/src/widgets/../core/../misc/../font/lv_font.h **** 
  39:Drivers/lvgl/src/widgets/../core/../misc/../font/lv_font.h **** struct _lv_font_t;
  40:Drivers/lvgl/src/widgets/../core/../misc/../font/lv_font.h **** /** Describes the properties of a glyph.*/
  41:Drivers/lvgl/src/widgets/../core/../misc/../font/lv_font.h **** typedef struct {
  42:Drivers/lvgl/src/widgets/../core/../misc/../font/lv_font.h ****     const struct _lv_font_t *
  43:Drivers/lvgl/src/widgets/../core/../misc/../font/lv_font.h ****         resolved_font; /**< Pointer to a font where the glyph was actually found after handling fal
  44:Drivers/lvgl/src/widgets/../core/../misc/../font/lv_font.h ****     uint16_t adv_w; /**< The glyph needs this space. Draw the next glyph after this width.*/
  45:Drivers/lvgl/src/widgets/../core/../misc/../font/lv_font.h ****     uint16_t box_w; /**< Width of the glyph's bounding box*/
  46:Drivers/lvgl/src/widgets/../core/../misc/../font/lv_font.h ****     uint16_t box_h; /**< Height of the glyph's bounding box*/
  47:Drivers/lvgl/src/widgets/../core/../misc/../font/lv_font.h ****     int16_t ofs_x;  /**< x offset of the bounding box*/
  48:Drivers/lvgl/src/widgets/../core/../misc/../font/lv_font.h ****     int16_t ofs_y;  /**< y offset of the bounding box*/
  49:Drivers/lvgl/src/widgets/../core/../misc/../font/lv_font.h ****     uint8_t bpp: 4;  /**< Bit-per-pixel: 1, 2, 4, 8*/
  50:Drivers/lvgl/src/widgets/../core/../misc/../font/lv_font.h ****     uint8_t is_placeholder: 1; /** Glyph is missing. But placeholder will still be displayed */
  51:Drivers/lvgl/src/widgets/../core/../misc/../font/lv_font.h **** } lv_font_glyph_dsc_t;
  52:Drivers/lvgl/src/widgets/../core/../misc/../font/lv_font.h **** 
  53:Drivers/lvgl/src/widgets/../core/../misc/../font/lv_font.h **** /** The bitmaps might be upscaled by 3 to achieve subpixel rendering.*/
  54:Drivers/lvgl/src/widgets/../core/../misc/../font/lv_font.h **** enum {
  55:Drivers/lvgl/src/widgets/../core/../misc/../font/lv_font.h ****     LV_FONT_SUBPX_NONE,
  56:Drivers/lvgl/src/widgets/../core/../misc/../font/lv_font.h ****     LV_FONT_SUBPX_HOR,
  57:Drivers/lvgl/src/widgets/../core/../misc/../font/lv_font.h ****     LV_FONT_SUBPX_VER,
  58:Drivers/lvgl/src/widgets/../core/../misc/../font/lv_font.h ****     LV_FONT_SUBPX_BOTH,
  59:Drivers/lvgl/src/widgets/../core/../misc/../font/lv_font.h **** };
  60:Drivers/lvgl/src/widgets/../core/../misc/../font/lv_font.h **** 
  61:Drivers/lvgl/src/widgets/../core/../misc/../font/lv_font.h **** typedef uint8_t lv_font_subpx_t;
  62:Drivers/lvgl/src/widgets/../core/../misc/../font/lv_font.h **** 
  63:Drivers/lvgl/src/widgets/../core/../misc/../font/lv_font.h **** /** Describe the properties of a font*/
  64:Drivers/lvgl/src/widgets/../core/../misc/../font/lv_font.h **** typedef struct _lv_font_t {
  65:Drivers/lvgl/src/widgets/../core/../misc/../font/lv_font.h ****     /** Get a glyph's descriptor from a font*/
  66:Drivers/lvgl/src/widgets/../core/../misc/../font/lv_font.h ****     bool (*get_glyph_dsc)(const struct _lv_font_t *, lv_font_glyph_dsc_t *, uint32_t letter, uint32
  67:Drivers/lvgl/src/widgets/../core/../misc/../font/lv_font.h **** 
  68:Drivers/lvgl/src/widgets/../core/../misc/../font/lv_font.h ****     /** Get a glyph's bitmap from a font*/
  69:Drivers/lvgl/src/widgets/../core/../misc/../font/lv_font.h ****     const uint8_t * (*get_glyph_bitmap)(const struct _lv_font_t *, uint32_t);
  70:Drivers/lvgl/src/widgets/../core/../misc/../font/lv_font.h **** 
  71:Drivers/lvgl/src/widgets/../core/../misc/../font/lv_font.h ****     /*Pointer to the font in a font pack (must have the same line height)*/
  72:Drivers/lvgl/src/widgets/../core/../misc/../font/lv_font.h ****     lv_coord_t line_height;         /**< The real line height where any text fits*/
  73:Drivers/lvgl/src/widgets/../core/../misc/../font/lv_font.h ****     lv_coord_t base_line;           /**< Base line measured from the top of the line_height*/
  74:Drivers/lvgl/src/widgets/../core/../misc/../font/lv_font.h ****     uint8_t subpx  : 2;             /**< An element of `lv_font_subpx_t`*/
  75:Drivers/lvgl/src/widgets/../core/../misc/../font/lv_font.h **** 
  76:Drivers/lvgl/src/widgets/../core/../misc/../font/lv_font.h ****     int8_t underline_position;      /**< Distance between the top of the underline and base line (<
  77:Drivers/lvgl/src/widgets/../core/../misc/../font/lv_font.h ****     int8_t underline_thickness;     /**< Thickness of the underline*/
  78:Drivers/lvgl/src/widgets/../core/../misc/../font/lv_font.h **** 
  79:Drivers/lvgl/src/widgets/../core/../misc/../font/lv_font.h ****     const void * dsc;               /**< Store implementation specific or run_time data or caching 
  80:Drivers/lvgl/src/widgets/../core/../misc/../font/lv_font.h ****     const struct _lv_font_t * fallback;   /**< Fallback font for missing glyph. Resolved recursivel
  81:Drivers/lvgl/src/widgets/../core/../misc/../font/lv_font.h **** #if LV_USE_USER_DATA
  82:Drivers/lvgl/src/widgets/../core/../misc/../font/lv_font.h ****     void * user_data;               /**< Custom user data for font.*/
  83:Drivers/lvgl/src/widgets/../core/../misc/../font/lv_font.h **** #endif
  84:Drivers/lvgl/src/widgets/../core/../misc/../font/lv_font.h **** } lv_font_t;
  85:Drivers/lvgl/src/widgets/../core/../misc/../font/lv_font.h **** 
  86:Drivers/lvgl/src/widgets/../core/../misc/../font/lv_font.h **** /**********************
  87:Drivers/lvgl/src/widgets/../core/../misc/../font/lv_font.h ****  * GLOBAL PROTOTYPES
  88:Drivers/lvgl/src/widgets/../core/../misc/../font/lv_font.h ****  **********************/
  89:Drivers/lvgl/src/widgets/../core/../misc/../font/lv_font.h **** 
  90:Drivers/lvgl/src/widgets/../core/../misc/../font/lv_font.h **** /**
  91:Drivers/lvgl/src/widgets/../core/../misc/../font/lv_font.h ****  * Return with the bitmap of a font.
  92:Drivers/lvgl/src/widgets/../core/../misc/../font/lv_font.h ****  * @param font_p pointer to a font
ARM GAS  /var/folders/lp/x54gwt890xv47sdkqj1k04q40000gn/T//cc4JFZNj.s 			page 19


  93:Drivers/lvgl/src/widgets/../core/../misc/../font/lv_font.h ****  * @param letter a UNICODE character code
  94:Drivers/lvgl/src/widgets/../core/../misc/../font/lv_font.h ****  * @return pointer to the bitmap of the letter
  95:Drivers/lvgl/src/widgets/../core/../misc/../font/lv_font.h ****  */
  96:Drivers/lvgl/src/widgets/../core/../misc/../font/lv_font.h **** const uint8_t * lv_font_get_glyph_bitmap(const lv_font_t * font_p, uint32_t letter);
  97:Drivers/lvgl/src/widgets/../core/../misc/../font/lv_font.h **** 
  98:Drivers/lvgl/src/widgets/../core/../misc/../font/lv_font.h **** /**
  99:Drivers/lvgl/src/widgets/../core/../misc/../font/lv_font.h ****  * Get the descriptor of a glyph
 100:Drivers/lvgl/src/widgets/../core/../misc/../font/lv_font.h ****  * @param font_p pointer to font
 101:Drivers/lvgl/src/widgets/../core/../misc/../font/lv_font.h ****  * @param dsc_out store the result descriptor here
 102:Drivers/lvgl/src/widgets/../core/../misc/../font/lv_font.h ****  * @param letter a UNICODE letter code
 103:Drivers/lvgl/src/widgets/../core/../misc/../font/lv_font.h ****  * @param letter_next the next letter after `letter`. Used for kerning
 104:Drivers/lvgl/src/widgets/../core/../misc/../font/lv_font.h ****  * @return true: descriptor is successfully loaded into `dsc_out`.
 105:Drivers/lvgl/src/widgets/../core/../misc/../font/lv_font.h ****  *         false: the letter was not found, no data is loaded to `dsc_out`
 106:Drivers/lvgl/src/widgets/../core/../misc/../font/lv_font.h ****  */
 107:Drivers/lvgl/src/widgets/../core/../misc/../font/lv_font.h **** bool lv_font_get_glyph_dsc(const lv_font_t * font_p, lv_font_glyph_dsc_t * dsc_out, uint32_t letter
 108:Drivers/lvgl/src/widgets/../core/../misc/../font/lv_font.h ****                            uint32_t letter_next);
 109:Drivers/lvgl/src/widgets/../core/../misc/../font/lv_font.h **** 
 110:Drivers/lvgl/src/widgets/../core/../misc/../font/lv_font.h **** /**
 111:Drivers/lvgl/src/widgets/../core/../misc/../font/lv_font.h ****  * Get the width of a glyph with kerning
 112:Drivers/lvgl/src/widgets/../core/../misc/../font/lv_font.h ****  * @param font pointer to a font
 113:Drivers/lvgl/src/widgets/../core/../misc/../font/lv_font.h ****  * @param letter a UNICODE letter
 114:Drivers/lvgl/src/widgets/../core/../misc/../font/lv_font.h ****  * @param letter_next the next letter after `letter`. Used for kerning
 115:Drivers/lvgl/src/widgets/../core/../misc/../font/lv_font.h ****  * @return the width of the glyph
 116:Drivers/lvgl/src/widgets/../core/../misc/../font/lv_font.h ****  */
 117:Drivers/lvgl/src/widgets/../core/../misc/../font/lv_font.h **** uint16_t lv_font_get_glyph_width(const lv_font_t * font, uint32_t letter, uint32_t letter_next);
 118:Drivers/lvgl/src/widgets/../core/../misc/../font/lv_font.h **** 
 119:Drivers/lvgl/src/widgets/../core/../misc/../font/lv_font.h **** /**
 120:Drivers/lvgl/src/widgets/../core/../misc/../font/lv_font.h ****  * Get the line height of a font. All characters fit into this height
 121:Drivers/lvgl/src/widgets/../core/../misc/../font/lv_font.h ****  * @param font_p pointer to a font
 122:Drivers/lvgl/src/widgets/../core/../misc/../font/lv_font.h ****  * @return the height of a font
 123:Drivers/lvgl/src/widgets/../core/../misc/../font/lv_font.h ****  */
 124:Drivers/lvgl/src/widgets/../core/../misc/../font/lv_font.h **** static inline lv_coord_t lv_font_get_line_height(const lv_font_t * font_p)
 241              		.loc 3 124 26 view .LVU66
 242              	.LBB137:
 125:Drivers/lvgl/src/widgets/../core/../misc/../font/lv_font.h **** {
 126:Drivers/lvgl/src/widgets/../core/../misc/../font/lv_font.h ****     return font_p->line_height;
 243              		.loc 3 126 5 view .LVU67
 244              		.loc 3 126 5 is_stmt 0 view .LVU68
 245              	.LBE137:
 246              	.LBE136:
 203:Drivers/lvgl/src/widgets/lv_checkbox.c **** 
 204:Drivers/lvgl/src/widgets/lv_checkbox.c ****     lv_coord_t bg_border = lv_obj_get_style_border_width(obj, LV_PART_MAIN);
 247              		.loc 1 204 5 is_stmt 1 view .LVU69
 248              	.LBB140:
 249              	.LBI140:
 253:Drivers/lvgl/src/widgets/../core/lv_obj_style_gen.h **** {
 250              		.loc 2 253 26 view .LVU70
 251              	.LBB141:
 255:Drivers/lvgl/src/widgets/../core/lv_obj_style_gen.h ****     return (lv_coord_t)v.num;
 252              		.loc 2 255 5 view .LVU71
 255:Drivers/lvgl/src/widgets/../core/lv_obj_style_gen.h ****     return (lv_coord_t)v.num;
 253              		.loc 2 255 26 is_stmt 0 view .LVU72
 254 0056 3222     		movs	r2, #50
 255              	.LBE141:
 256              	.LBE140:
 257              	.LBB145:
 258              	.LBB138:
ARM GAS  /var/folders/lp/x54gwt890xv47sdkqj1k04q40000gn/T//cc4JFZNj.s 			page 20


 259              		.loc 3 126 18 view .LVU73
 260 0058 B3F90860 		ldrsh	r6, [r3, #8]
 261              	.LVL28:
 262              		.loc 3 126 18 view .LVU74
 263 005c 0693     		str	r3, [sp, #24]
 264              	.LBE138:
 265              	.LBE145:
 266              	.LBB146:
 267              	.LBB142:
 255:Drivers/lvgl/src/widgets/../core/lv_obj_style_gen.h ****     return (lv_coord_t)v.num;
 268              		.loc 2 255 26 view .LVU75
 269 005e 0021     		movs	r1, #0
 270 0060 2846     		mov	r0, r5
 271              	.LVL29:
 255:Drivers/lvgl/src/widgets/../core/lv_obj_style_gen.h ****     return (lv_coord_t)v.num;
 272              		.loc 2 255 26 view .LVU76
 273              	.LBE142:
 274              	.LBE146:
 275              	.LBB147:
 276              	.LBB139:
 277              		.loc 3 126 18 view .LVU77
 278 0062 0596     		str	r6, [sp, #20]
 279              	.LVL30:
 280              		.loc 3 126 18 view .LVU78
 281              	.LBE139:
 282              	.LBE147:
 283              	.LBB148:
 284              	.LBB143:
 255:Drivers/lvgl/src/widgets/../core/lv_obj_style_gen.h ****     return (lv_coord_t)v.num;
 285              		.loc 2 255 26 view .LVU79
 286 0064 FFF7FEFF 		bl	lv_obj_get_style_prop
 287              	.LVL31:
 255:Drivers/lvgl/src/widgets/../core/lv_obj_style_gen.h ****     return (lv_coord_t)v.num;
 288              		.loc 2 255 26 view .LVU80
 289              	.LBE143:
 290              	.LBE148:
 291              	.LBB149:
 292              	.LBB150:
 105:Drivers/lvgl/src/widgets/../core/lv_obj_style_gen.h ****     return (lv_coord_t)v.num;
 293              		.loc 2 105 26 view .LVU81
 294 0068 1022     		movs	r2, #16
 295              	.LBE150:
 296              	.LBE149:
 297              	.LBB152:
 298              	.LBB144:
 255:Drivers/lvgl/src/widgets/../core/lv_obj_style_gen.h ****     return (lv_coord_t)v.num;
 299              		.loc 2 255 26 view .LVU82
 300 006a 0646     		mov	r6, r0
 301              	.LVL32:
 256:Drivers/lvgl/src/widgets/../core/lv_obj_style_gen.h **** }
 302              		.loc 2 256 5 is_stmt 1 view .LVU83
 256:Drivers/lvgl/src/widgets/../core/lv_obj_style_gen.h **** }
 303              		.loc 2 256 5 is_stmt 0 view .LVU84
 304              	.LBE144:
 305              	.LBE152:
 205:Drivers/lvgl/src/widgets/lv_checkbox.c ****     lv_coord_t bg_topp = lv_obj_get_style_pad_top(obj, LV_PART_MAIN) + bg_border;
 306              		.loc 1 205 5 is_stmt 1 view .LVU85
ARM GAS  /var/folders/lp/x54gwt890xv47sdkqj1k04q40000gn/T//cc4JFZNj.s 			page 21


 307              	.LBB153:
 308              	.LBI149:
 103:Drivers/lvgl/src/widgets/../core/lv_obj_style_gen.h **** {
 309              		.loc 2 103 26 view .LVU86
 310              	.LBB151:
 105:Drivers/lvgl/src/widgets/../core/lv_obj_style_gen.h ****     return (lv_coord_t)v.num;
 311              		.loc 2 105 5 view .LVU87
 105:Drivers/lvgl/src/widgets/../core/lv_obj_style_gen.h ****     return (lv_coord_t)v.num;
 312              		.loc 2 105 26 is_stmt 0 view .LVU88
 313 006c 0021     		movs	r1, #0
 314 006e 2846     		mov	r0, r5
 315 0070 FFF7FEFF 		bl	lv_obj_get_style_prop
 316              	.LVL33:
 106:Drivers/lvgl/src/widgets/../core/lv_obj_style_gen.h **** }
 317              		.loc 2 106 5 is_stmt 1 view .LVU89
 106:Drivers/lvgl/src/widgets/../core/lv_obj_style_gen.h **** }
 318              		.loc 2 106 5 is_stmt 0 view .LVU90
 319              	.LBE151:
 320              	.LBE153:
 321              		.loc 1 205 70 discriminator 1 view .LVU91
 322 0074 B6B2     		uxth	r6, r6
 323              		.loc 1 205 70 discriminator 1 view .LVU92
 324 0076 3044     		add	r0, r0, r6
 325 0078 1FFA80FA 		uxth	r10, r0
 326              	.LVL34:
 206:Drivers/lvgl/src/widgets/lv_checkbox.c ****     lv_coord_t bg_leftp = lv_obj_get_style_pad_left(obj, LV_PART_MAIN) + bg_border;
 327              		.loc 1 206 5 is_stmt 1 view .LVU93
 328              	.LBB154:
 329              	.LBI154:
 115:Drivers/lvgl/src/widgets/../core/lv_obj_style_gen.h **** {
 330              		.loc 2 115 26 view .LVU94
 331              	.LBB155:
 117:Drivers/lvgl/src/widgets/../core/lv_obj_style_gen.h ****     return (lv_coord_t)v.num;
 332              		.loc 2 117 5 view .LVU95
 117:Drivers/lvgl/src/widgets/../core/lv_obj_style_gen.h ****     return (lv_coord_t)v.num;
 333              		.loc 2 117 26 is_stmt 0 view .LVU96
 334 007c 1222     		movs	r2, #18
 335 007e 0021     		movs	r1, #0
 336 0080 2846     		mov	r0, r5
 337 0082 FFF7FEFF 		bl	lv_obj_get_style_prop
 338              	.LVL35:
 118:Drivers/lvgl/src/widgets/../core/lv_obj_style_gen.h **** }
 339              		.loc 2 118 5 is_stmt 1 view .LVU97
 118:Drivers/lvgl/src/widgets/../core/lv_obj_style_gen.h **** }
 340              		.loc 2 118 5 is_stmt 0 view .LVU98
 341              	.LBE155:
 342              	.LBE154:
 343              	.LBB156:
 344              	.LBB157:
 135:Drivers/lvgl/src/widgets/../core/lv_obj_style_gen.h ****     return (lv_coord_t)v.num;
 345              		.loc 2 135 26 view .LVU99
 346 0086 3A46     		mov	r2, r7
 347              	.LBE157:
 348              	.LBE156:
 349              		.loc 1 206 72 discriminator 1 view .LVU100
 350 0088 0644     		add	r6, r6, r0
 351              	.LVL36:
ARM GAS  /var/folders/lp/x54gwt890xv47sdkqj1k04q40000gn/T//cc4JFZNj.s 			page 22


 352              	.LBB161:
 353              	.LBB158:
 135:Drivers/lvgl/src/widgets/../core/lv_obj_style_gen.h ****     return (lv_coord_t)v.num;
 354              		.loc 2 135 26 view .LVU101
 355 008a 0021     		movs	r1, #0
 356 008c 2846     		mov	r0, r5
 357 008e FFF7FEFF 		bl	lv_obj_get_style_prop
 358              	.LVL37:
 359              	.LBE158:
 360              	.LBE161:
 361              	.LBB162:
 362              	.LBB163:
 117:Drivers/lvgl/src/widgets/../core/lv_obj_style_gen.h ****     return (lv_coord_t)v.num;
 363              		.loc 2 117 26 view .LVU102
 364 0092 1222     		movs	r2, #18
 365              	.LBE163:
 366              	.LBE162:
 367              	.LBB167:
 368              	.LBB159:
 135:Drivers/lvgl/src/widgets/../core/lv_obj_style_gen.h ****     return (lv_coord_t)v.num;
 369              		.loc 2 135 26 view .LVU103
 370 0094 0790     		str	r0, [sp, #28]
 371              	.LBE159:
 372              	.LBE167:
 373              	.LBB168:
 374              	.LBB164:
 117:Drivers/lvgl/src/widgets/../core/lv_obj_style_gen.h ****     return (lv_coord_t)v.num;
 375              		.loc 2 117 26 view .LVU104
 376 0096 4FF40031 		mov	r1, #131072
 377 009a 2846     		mov	r0, r5
 378 009c FFF7FEFF 		bl	lv_obj_get_style_prop
 379              	.LVL38:
 380              	.LBE164:
 381              	.LBE168:
 382              	.LBB169:
 383              	.LBB170:
 123:Drivers/lvgl/src/widgets/../core/lv_obj_style_gen.h ****     return (lv_coord_t)v.num;
 384              		.loc 2 123 26 view .LVU105
 385 00a0 1322     		movs	r2, #19
 386              	.LBE170:
 387              	.LBE169:
 388              	.LBB174:
 389              	.LBB165:
 117:Drivers/lvgl/src/widgets/../core/lv_obj_style_gen.h ****     return (lv_coord_t)v.num;
 390              		.loc 2 117 26 view .LVU106
 391 00a2 0890     		str	r0, [sp, #32]
 392              	.LBE165:
 393              	.LBE174:
 394              	.LBB175:
 395              	.LBB171:
 123:Drivers/lvgl/src/widgets/../core/lv_obj_style_gen.h ****     return (lv_coord_t)v.num;
 396              		.loc 2 123 26 view .LVU107
 397 00a4 4FF40031 		mov	r1, #131072
 398 00a8 2846     		mov	r0, r5
 399 00aa FFF7FEFF 		bl	lv_obj_get_style_prop
 400              	.LVL39:
 401              	.LBE171:
ARM GAS  /var/folders/lp/x54gwt890xv47sdkqj1k04q40000gn/T//cc4JFZNj.s 			page 23


 402              	.LBE175:
 403              	.LBB176:
 404              	.LBB177:
 105:Drivers/lvgl/src/widgets/../core/lv_obj_style_gen.h ****     return (lv_coord_t)v.num;
 405              		.loc 2 105 26 view .LVU108
 406 00ae 1022     		movs	r2, #16
 407              	.LBE177:
 408              	.LBE176:
 409              	.LBB181:
 410              	.LBB172:
 123:Drivers/lvgl/src/widgets/../core/lv_obj_style_gen.h ****     return (lv_coord_t)v.num;
 411              		.loc 2 123 26 view .LVU109
 412 00b0 0990     		str	r0, [sp, #36]
 413              	.LBE172:
 414              	.LBE181:
 415              	.LBB182:
 416              	.LBB178:
 105:Drivers/lvgl/src/widgets/../core/lv_obj_style_gen.h ****     return (lv_coord_t)v.num;
 417              		.loc 2 105 26 view .LVU110
 418 00b2 4FF40031 		mov	r1, #131072
 419 00b6 2846     		mov	r0, r5
 420 00b8 FFF7FEFF 		bl	lv_obj_get_style_prop
 421              	.LVL40:
 422              	.LBE178:
 423              	.LBE182:
 424              	.LBB183:
 425              	.LBB184:
 111:Drivers/lvgl/src/widgets/../core/lv_obj_style_gen.h ****     return (lv_coord_t)v.num;
 426              		.loc 2 111 26 view .LVU111
 427 00bc 1122     		movs	r2, #17
 428              	.LBE184:
 429              	.LBE183:
 430              	.LBB188:
 431              	.LBB179:
 105:Drivers/lvgl/src/widgets/../core/lv_obj_style_gen.h ****     return (lv_coord_t)v.num;
 432              		.loc 2 105 26 view .LVU112
 433 00be 8046     		mov	r8, r0
 434              	.LVL41:
 105:Drivers/lvgl/src/widgets/../core/lv_obj_style_gen.h ****     return (lv_coord_t)v.num;
 435              		.loc 2 105 26 view .LVU113
 436              	.LBE179:
 437              	.LBE188:
 438              	.LBB189:
 439              	.LBB185:
 111:Drivers/lvgl/src/widgets/../core/lv_obj_style_gen.h ****     return (lv_coord_t)v.num;
 440              		.loc 2 111 26 view .LVU114
 441 00c0 4FF40031 		mov	r1, #131072
 442 00c4 2846     		mov	r0, r5
 443 00c6 FFF7FEFF 		bl	lv_obj_get_style_prop
 444              	.LVL42:
 445              	.LBE185:
 446              	.LBE189:
 447              	.LBB190:
 448              	.LBB191:
  57:Drivers/lvgl/src/widgets/../core/lv_obj_style_gen.h ****     return (lv_coord_t)v.num;
 449              		.loc 2 57 26 view .LVU115
 450 00ca 6922     		movs	r2, #105
ARM GAS  /var/folders/lp/x54gwt890xv47sdkqj1k04q40000gn/T//cc4JFZNj.s 			page 24


 451              	.LVL43:
  57:Drivers/lvgl/src/widgets/../core/lv_obj_style_gen.h ****     return (lv_coord_t)v.num;
 452              		.loc 2 57 26 view .LVU116
 453              	.LBE191:
 454              	.LBE190:
 455              	.LBB195:
 456              	.LBB186:
 111:Drivers/lvgl/src/widgets/../core/lv_obj_style_gen.h ****     return (lv_coord_t)v.num;
 457              		.loc 2 111 26 view .LVU117
 458 00cc 0B90     		str	r0, [sp, #44]
 459              	.LBE186:
 460              	.LBE195:
 461              	.LBB196:
 462              	.LBB192:
  57:Drivers/lvgl/src/widgets/../core/lv_obj_style_gen.h ****     return (lv_coord_t)v.num;
 463              		.loc 2 57 26 view .LVU118
 464 00ce 4FF40031 		mov	r1, #131072
 465 00d2 2846     		mov	r0, r5
 466              	.LVL44:
  57:Drivers/lvgl/src/widgets/../core/lv_obj_style_gen.h ****     return (lv_coord_t)v.num;
 467              		.loc 2 57 26 view .LVU119
 468 00d4 FFF7FEFF 		bl	lv_obj_get_style_prop
 469              	.LVL45:
 470              	.LBE192:
 471              	.LBE196:
 472              	.LBB197:
 473              	.LBB198:
  63:Drivers/lvgl/src/widgets/../core/lv_obj_style_gen.h ****     return (lv_coord_t)v.num;
 474              		.loc 2 63 26 view .LVU120
 475 00d8 6A22     		movs	r2, #106
 476 00da 4FF40031 		mov	r1, #131072
 477              	.LBE198:
 478              	.LBE197:
 479              	.LBB202:
 480              	.LBB193:
  57:Drivers/lvgl/src/widgets/../core/lv_obj_style_gen.h ****     return (lv_coord_t)v.num;
 481              		.loc 2 57 26 view .LVU121
 482 00de 0746     		mov	r7, r0
 483              	.LVL46:
  57:Drivers/lvgl/src/widgets/../core/lv_obj_style_gen.h ****     return (lv_coord_t)v.num;
 484              		.loc 2 57 26 view .LVU122
 485              	.LBE193:
 486              	.LBE202:
 487              	.LBB203:
 488              	.LBB199:
  63:Drivers/lvgl/src/widgets/../core/lv_obj_style_gen.h ****     return (lv_coord_t)v.num;
 489              		.loc 2 63 26 view .LVU123
 490 00e0 2846     		mov	r0, r5
 491 00e2 FFF7FEFF 		bl	lv_obj_get_style_prop
 492              	.LVL47:
 493              	.LBE199:
 494              	.LBE203:
 207:Drivers/lvgl/src/widgets/lv_checkbox.c ****     lv_coord_t bg_colp = lv_obj_get_style_pad_column(obj, LV_PART_MAIN);
 208:Drivers/lvgl/src/widgets/lv_checkbox.c **** 
 209:Drivers/lvgl/src/widgets/lv_checkbox.c ****     lv_coord_t marker_leftp = lv_obj_get_style_pad_left(obj, LV_PART_INDICATOR);
 210:Drivers/lvgl/src/widgets/lv_checkbox.c ****     lv_coord_t marker_rightp = lv_obj_get_style_pad_right(obj, LV_PART_INDICATOR);
 211:Drivers/lvgl/src/widgets/lv_checkbox.c ****     lv_coord_t marker_topp = lv_obj_get_style_pad_top(obj, LV_PART_INDICATOR);
ARM GAS  /var/folders/lp/x54gwt890xv47sdkqj1k04q40000gn/T//cc4JFZNj.s 			page 25


 212:Drivers/lvgl/src/widgets/lv_checkbox.c ****     lv_coord_t marker_bottomp = lv_obj_get_style_pad_bottom(obj, LV_PART_INDICATOR);
 213:Drivers/lvgl/src/widgets/lv_checkbox.c **** 
 214:Drivers/lvgl/src/widgets/lv_checkbox.c ****     lv_coord_t transf_w = lv_obj_get_style_transform_width(obj, LV_PART_INDICATOR);
 215:Drivers/lvgl/src/widgets/lv_checkbox.c ****     lv_coord_t transf_h = lv_obj_get_style_transform_height(obj, LV_PART_INDICATOR);
 216:Drivers/lvgl/src/widgets/lv_checkbox.c **** 
 217:Drivers/lvgl/src/widgets/lv_checkbox.c ****     lv_draw_rect_dsc_t indic_dsc;
 218:Drivers/lvgl/src/widgets/lv_checkbox.c ****     lv_draw_rect_dsc_init(&indic_dsc);
 495              		.loc 1 218 5 view .LVU124
 496 00e6 0DF1680B 		add	fp, sp, #104
 497              	.LBB204:
 498              	.LBB200:
  63:Drivers/lvgl/src/widgets/../core/lv_obj_style_gen.h ****     return (lv_coord_t)v.num;
 499              		.loc 2 63 26 view .LVU125
 500 00ea 0A90     		str	r0, [sp, #40]
 501              	.LBE200:
 502              	.LBE204:
 503              		.loc 1 218 5 view .LVU126
 504 00ec 5846     		mov	r0, fp
 505 00ee FFF7FEFF 		bl	lv_draw_rect_dsc_init
 506              	.LVL48:
 219:Drivers/lvgl/src/widgets/lv_checkbox.c ****     lv_obj_init_draw_rect_dsc(obj, LV_PART_INDICATOR, &indic_dsc);
 507              		.loc 1 219 5 view .LVU127
 508 00f2 5A46     		mov	r2, fp
 509 00f4 2846     		mov	r0, r5
 510 00f6 4FF40031 		mov	r1, #131072
 511 00fa FFF7FEFF 		bl	lv_obj_init_draw_rect_dsc
 512              	.LVL49:
 220:Drivers/lvgl/src/widgets/lv_checkbox.c ****     lv_area_t marker_area;
 221:Drivers/lvgl/src/widgets/lv_checkbox.c ****     marker_area.x1 = obj->coords.x1 + bg_leftp;
 222:Drivers/lvgl/src/widgets/lv_checkbox.c ****     marker_area.x2 = marker_area.x1 + font_h + marker_leftp + marker_rightp - 1;
 513              		.loc 1 222 77 view .LVU128
 514 00fe DDE90821 		ldrd	r2, r1, [sp, #32]
 515              	.LVL50:
 516              		.loc 1 222 77 view .LVU129
 517 0102 0B9B     		ldr	r3, [sp, #44]
 223:Drivers/lvgl/src/widgets/lv_checkbox.c ****     marker_area.y1 = obj->coords.y1 + bg_topp;
 224:Drivers/lvgl/src/widgets/lv_checkbox.c ****     marker_area.y2 = marker_area.y1 + font_h + marker_topp + marker_bottomp - 1;
 225:Drivers/lvgl/src/widgets/lv_checkbox.c **** 
 226:Drivers/lvgl/src/widgets/lv_checkbox.c ****     lv_area_t marker_area_transf;
 227:Drivers/lvgl/src/widgets/lv_checkbox.c ****     lv_area_copy(&marker_area_transf, &marker_area);
 228:Drivers/lvgl/src/widgets/lv_checkbox.c ****     marker_area_transf.x1 -= transf_w;
 229:Drivers/lvgl/src/widgets/lv_checkbox.c ****     marker_area_transf.x2 += transf_w;
 230:Drivers/lvgl/src/widgets/lv_checkbox.c ****     marker_area_transf.y1 -= transf_h;
 518              		.loc 1 230 27 view .LVU130
 519 0104 BDF82800 		ldrh	r0, [sp, #40]
 520              	.LVL51:
 222:Drivers/lvgl/src/widgets/lv_checkbox.c ****     marker_area.y1 = obj->coords.y1 + bg_topp;
 521              		.loc 1 222 77 view .LVU131
 522 0108 0A44     		add	r2, r2, r1
 523              	.LVL52:
 222:Drivers/lvgl/src/widgets/lv_checkbox.c ****     marker_area.y1 = obj->coords.y1 + bg_topp;
 524              		.loc 1 222 77 view .LVU132
 525 010a 9844     		add	r8, r8, r3
 526              	.LVL53:
 222:Drivers/lvgl/src/widgets/lv_checkbox.c ****     marker_area.y1 = obj->coords.y1 + bg_topp;
 527              		.loc 1 222 77 view .LVU133
 528 010c 531E     		subs	r3, r2, #1
ARM GAS  /var/folders/lp/x54gwt890xv47sdkqj1k04q40000gn/T//cc4JFZNj.s 			page 26


 529              	.LVL54:
 221:Drivers/lvgl/src/widgets/lv_checkbox.c ****     marker_area.x2 = marker_area.x1 + font_h + marker_leftp + marker_rightp - 1;
 530              		.loc 1 221 37 view .LVU134
 531 010e AA8A     		ldrh	r2, [r5, #20]
 206:Drivers/lvgl/src/widgets/lv_checkbox.c ****     lv_coord_t bg_colp = lv_obj_get_style_pad_column(obj, LV_PART_MAIN);
 532              		.loc 1 206 72 discriminator 1 view .LVU135
 533 0110 B6B2     		uxth	r6, r6
 534              	.LVL55:
 207:Drivers/lvgl/src/widgets/lv_checkbox.c **** 
 535              		.loc 1 207 5 is_stmt 1 view .LVU136
 536              	.LBB205:
 537              	.LBI156:
 133:Drivers/lvgl/src/widgets/../core/lv_obj_style_gen.h **** {
 538              		.loc 2 133 26 view .LVU137
 539              	.LBB160:
 135:Drivers/lvgl/src/widgets/../core/lv_obj_style_gen.h ****     return (lv_coord_t)v.num;
 540              		.loc 2 135 5 view .LVU138
 136:Drivers/lvgl/src/widgets/../core/lv_obj_style_gen.h **** }
 541              		.loc 2 136 5 view .LVU139
 136:Drivers/lvgl/src/widgets/../core/lv_obj_style_gen.h **** }
 542              		.loc 2 136 5 is_stmt 0 view .LVU140
 543              	.LBE160:
 544              	.LBE205:
 209:Drivers/lvgl/src/widgets/lv_checkbox.c ****     lv_coord_t marker_rightp = lv_obj_get_style_pad_right(obj, LV_PART_INDICATOR);
 545              		.loc 1 209 5 is_stmt 1 view .LVU141
 546              	.LBB206:
 547              	.LBI162:
 115:Drivers/lvgl/src/widgets/../core/lv_obj_style_gen.h **** {
 548              		.loc 2 115 26 view .LVU142
 549              	.LBB166:
 117:Drivers/lvgl/src/widgets/../core/lv_obj_style_gen.h ****     return (lv_coord_t)v.num;
 550              		.loc 2 117 5 view .LVU143
 118:Drivers/lvgl/src/widgets/../core/lv_obj_style_gen.h **** }
 551              		.loc 2 118 5 view .LVU144
 118:Drivers/lvgl/src/widgets/../core/lv_obj_style_gen.h **** }
 552              		.loc 2 118 5 is_stmt 0 view .LVU145
 553              	.LBE166:
 554              	.LBE206:
 210:Drivers/lvgl/src/widgets/lv_checkbox.c ****     lv_coord_t marker_topp = lv_obj_get_style_pad_top(obj, LV_PART_INDICATOR);
 555              		.loc 1 210 5 is_stmt 1 view .LVU146
 556              	.LBB207:
 557              	.LBI169:
 121:Drivers/lvgl/src/widgets/../core/lv_obj_style_gen.h **** {
 558              		.loc 2 121 26 view .LVU147
 559              	.LBB173:
 123:Drivers/lvgl/src/widgets/../core/lv_obj_style_gen.h ****     return (lv_coord_t)v.num;
 560              		.loc 2 123 5 view .LVU148
 124:Drivers/lvgl/src/widgets/../core/lv_obj_style_gen.h **** }
 561              		.loc 2 124 5 view .LVU149
 124:Drivers/lvgl/src/widgets/../core/lv_obj_style_gen.h **** }
 562              		.loc 2 124 5 is_stmt 0 view .LVU150
 563              	.LBE173:
 564              	.LBE207:
 211:Drivers/lvgl/src/widgets/lv_checkbox.c ****     lv_coord_t marker_bottomp = lv_obj_get_style_pad_bottom(obj, LV_PART_INDICATOR);
 565              		.loc 1 211 5 is_stmt 1 view .LVU151
 566              	.LBB208:
 567              	.LBI176:
ARM GAS  /var/folders/lp/x54gwt890xv47sdkqj1k04q40000gn/T//cc4JFZNj.s 			page 27


 103:Drivers/lvgl/src/widgets/../core/lv_obj_style_gen.h **** {
 568              		.loc 2 103 26 view .LVU152
 569              	.LBB180:
 105:Drivers/lvgl/src/widgets/../core/lv_obj_style_gen.h ****     return (lv_coord_t)v.num;
 570              		.loc 2 105 5 view .LVU153
 106:Drivers/lvgl/src/widgets/../core/lv_obj_style_gen.h **** }
 571              		.loc 2 106 5 view .LVU154
 106:Drivers/lvgl/src/widgets/../core/lv_obj_style_gen.h **** }
 572              		.loc 2 106 5 is_stmt 0 view .LVU155
 573              	.LBE180:
 574              	.LBE208:
 212:Drivers/lvgl/src/widgets/lv_checkbox.c **** 
 575              		.loc 1 212 5 is_stmt 1 view .LVU156
 576              	.LBB209:
 577              	.LBI183:
 109:Drivers/lvgl/src/widgets/../core/lv_obj_style_gen.h **** {
 578              		.loc 2 109 26 view .LVU157
 579              	.LBB187:
 111:Drivers/lvgl/src/widgets/../core/lv_obj_style_gen.h ****     return (lv_coord_t)v.num;
 580              		.loc 2 111 5 view .LVU158
 112:Drivers/lvgl/src/widgets/../core/lv_obj_style_gen.h **** }
 581              		.loc 2 112 5 view .LVU159
 112:Drivers/lvgl/src/widgets/../core/lv_obj_style_gen.h **** }
 582              		.loc 2 112 5 is_stmt 0 view .LVU160
 583              	.LBE187:
 584              	.LBE209:
 214:Drivers/lvgl/src/widgets/lv_checkbox.c ****     lv_coord_t transf_h = lv_obj_get_style_transform_height(obj, LV_PART_INDICATOR);
 585              		.loc 1 214 5 is_stmt 1 view .LVU161
 586              	.LBB210:
 587              	.LBI190:
  55:Drivers/lvgl/src/widgets/../core/lv_obj_style_gen.h **** {
 588              		.loc 2 55 26 view .LVU162
 589              	.LBB194:
  57:Drivers/lvgl/src/widgets/../core/lv_obj_style_gen.h ****     return (lv_coord_t)v.num;
 590              		.loc 2 57 5 view .LVU163
  58:Drivers/lvgl/src/widgets/../core/lv_obj_style_gen.h **** }
 591              		.loc 2 58 5 view .LVU164
  58:Drivers/lvgl/src/widgets/../core/lv_obj_style_gen.h **** }
 592              		.loc 2 58 5 is_stmt 0 view .LVU165
 593              	.LBE194:
 594              	.LBE210:
 215:Drivers/lvgl/src/widgets/lv_checkbox.c **** 
 595              		.loc 1 215 5 is_stmt 1 view .LVU166
 596              	.LBB211:
 597              	.LBI197:
  61:Drivers/lvgl/src/widgets/../core/lv_obj_style_gen.h **** {
 598              		.loc 2 61 26 view .LVU167
 599              	.LBB201:
  63:Drivers/lvgl/src/widgets/../core/lv_obj_style_gen.h ****     return (lv_coord_t)v.num;
 600              		.loc 2 63 5 view .LVU168
  64:Drivers/lvgl/src/widgets/../core/lv_obj_style_gen.h **** }
 601              		.loc 2 64 5 view .LVU169
  64:Drivers/lvgl/src/widgets/../core/lv_obj_style_gen.h **** }
 602              		.loc 2 64 5 is_stmt 0 view .LVU170
 603              	.LBE201:
 604              	.LBE211:
 217:Drivers/lvgl/src/widgets/lv_checkbox.c ****     lv_draw_rect_dsc_init(&indic_dsc);
ARM GAS  /var/folders/lp/x54gwt890xv47sdkqj1k04q40000gn/T//cc4JFZNj.s 			page 28


 605              		.loc 1 217 5 is_stmt 1 view .LVU171
 218:Drivers/lvgl/src/widgets/lv_checkbox.c ****     lv_obj_init_draw_rect_dsc(obj, LV_PART_INDICATOR, &indic_dsc);
 606              		.loc 1 218 5 view .LVU172
 219:Drivers/lvgl/src/widgets/lv_checkbox.c ****     lv_area_t marker_area;
 607              		.loc 1 219 5 view .LVU173
 220:Drivers/lvgl/src/widgets/lv_checkbox.c ****     marker_area.x1 = obj->coords.x1 + bg_leftp;
 608              		.loc 1 220 5 view .LVU174
 221:Drivers/lvgl/src/widgets/lv_checkbox.c ****     marker_area.x2 = marker_area.x1 + font_h + marker_leftp + marker_rightp - 1;
 609              		.loc 1 221 5 view .LVU175
 221:Drivers/lvgl/src/widgets/lv_checkbox.c ****     marker_area.x2 = marker_area.x1 + font_h + marker_leftp + marker_rightp - 1;
 610              		.loc 1 221 37 is_stmt 0 view .LVU176
 611 0112 3244     		add	r2, r2, r6
 222:Drivers/lvgl/src/widgets/lv_checkbox.c ****     marker_area.y1 = obj->coords.y1 + bg_topp;
 612              		.loc 1 222 37 view .LVU177
 613 0114 BDF81460 		ldrh	r6, [sp, #20]
 614              	.LVL56:
 221:Drivers/lvgl/src/widgets/lv_checkbox.c ****     marker_area.x2 = marker_area.x1 + font_h + marker_leftp + marker_rightp - 1;
 615              		.loc 1 221 37 view .LVU178
 616 0118 92B2     		uxth	r2, r2
 617              	.LVL57:
 222:Drivers/lvgl/src/widgets/lv_checkbox.c ****     marker_area.y1 = obj->coords.y1 + bg_topp;
 618              		.loc 1 222 5 is_stmt 1 view .LVU179
 222:Drivers/lvgl/src/widgets/lv_checkbox.c ****     marker_area.y1 = obj->coords.y1 + bg_topp;
 619              		.loc 1 222 77 is_stmt 0 view .LVU180
 620 011a 3344     		add	r3, r3, r6
 621 011c 1344     		add	r3, r3, r2
 622 011e 08F1FF31 		add	r1, r8, #-1
 623              	.LVL58:
 222:Drivers/lvgl/src/widgets/lv_checkbox.c ****     marker_area.y1 = obj->coords.y1 + bg_topp;
 624              		.loc 1 222 77 view .LVU181
 625 0122 1FFA83F8 		uxth	r8, r3
 626              	.LVL59:
 223:Drivers/lvgl/src/widgets/lv_checkbox.c ****     marker_area.y2 = marker_area.y1 + font_h + marker_topp + marker_bottomp - 1;
 627              		.loc 1 223 5 is_stmt 1 view .LVU182
 223:Drivers/lvgl/src/widgets/lv_checkbox.c ****     marker_area.y2 = marker_area.y1 + font_h + marker_topp + marker_bottomp - 1;
 628              		.loc 1 223 37 is_stmt 0 view .LVU183
 629 0126 EB8A     		ldrh	r3, [r5, #22]
 228:Drivers/lvgl/src/widgets/lv_checkbox.c ****     marker_area_transf.x2 += transf_w;
 630              		.loc 1 228 27 view .LVU184
 631 0128 BFB2     		uxth	r7, r7
 228:Drivers/lvgl/src/widgets/lv_checkbox.c ****     marker_area_transf.x2 += transf_w;
 632              		.loc 1 228 27 view .LVU185
 633 012a 0E44     		add	r6, r6, r1
 634 012c 0021     		movs	r1, #0
 635 012e A2EB070C 		sub	ip, r2, r7
 636 0132 B6B2     		uxth	r6, r6
 229:Drivers/lvgl/src/widgets/lv_checkbox.c ****     marker_area_transf.y1 -= transf_h;
 637              		.loc 1 229 27 view .LVU186
 638 0134 4744     		add	r7, r7, r8
 639              	.LVL60:
 223:Drivers/lvgl/src/widgets/lv_checkbox.c ****     marker_area.y2 = marker_area.y1 + font_h + marker_topp + marker_bottomp - 1;
 640              		.loc 1 223 37 view .LVU187
 641 0136 5344     		add	r3, r3, r10
 228:Drivers/lvgl/src/widgets/lv_checkbox.c ****     marker_area_transf.x2 += transf_w;
 642              		.loc 1 228 27 view .LVU188
 643 0138 0A46     		mov	r2, r1
 644              	.LVL61:
ARM GAS  /var/folders/lp/x54gwt890xv47sdkqj1k04q40000gn/T//cc4JFZNj.s 			page 29


 223:Drivers/lvgl/src/widgets/lv_checkbox.c ****     marker_area.y2 = marker_area.y1 + font_h + marker_topp + marker_bottomp - 1;
 645              		.loc 1 223 37 view .LVU189
 646 013a 9BB2     		uxth	r3, r3
 647              	.LVL62:
 224:Drivers/lvgl/src/widgets/lv_checkbox.c **** 
 648              		.loc 1 224 5 is_stmt 1 view .LVU190
 226:Drivers/lvgl/src/widgets/lv_checkbox.c ****     lv_area_copy(&marker_area_transf, &marker_area);
 649              		.loc 1 226 5 view .LVU191
 227:Drivers/lvgl/src/widgets/lv_checkbox.c ****     marker_area_transf.x1 -= transf_w;
 650              		.loc 1 227 5 view .LVU192
 228:Drivers/lvgl/src/widgets/lv_checkbox.c ****     marker_area_transf.x2 += transf_w;
 651              		.loc 1 228 5 view .LVU193
 229:Drivers/lvgl/src/widgets/lv_checkbox.c ****     marker_area_transf.y1 -= transf_h;
 652              		.loc 1 229 5 view .LVU194
 653              		.loc 1 230 5 view .LVU195
 231:Drivers/lvgl/src/widgets/lv_checkbox.c ****     marker_area_transf.y2 += transf_h;
 654              		.loc 1 231 5 view .LVU196
 228:Drivers/lvgl/src/widgets/lv_checkbox.c ****     marker_area_transf.x2 += transf_w;
 655              		.loc 1 228 27 is_stmt 0 view .LVU197
 656 013c 67F30F02 		bfi	r2, r7, #0, #16
 657              		.loc 1 231 27 view .LVU198
 658 0140 8719     		adds	r7, r0, r6
 228:Drivers/lvgl/src/widgets/lv_checkbox.c ****     marker_area_transf.x2 += transf_w;
 659              		.loc 1 228 27 view .LVU199
 660 0142 6CF30F01 		bfi	r1, ip, #0, #16
 230:Drivers/lvgl/src/widgets/lv_checkbox.c ****     marker_area_transf.y2 += transf_h;
 661              		.loc 1 230 27 view .LVU200
 662 0146 181A     		subs	r0, r3, r0
 663              		.loc 1 231 27 view .LVU201
 664 0148 3B44     		add	r3, r3, r7
 665              	.LVL63:
 228:Drivers/lvgl/src/widgets/lv_checkbox.c ****     marker_area_transf.x2 += transf_w;
 666              		.loc 1 228 27 view .LVU202
 667 014a 63F31F42 		bfi	r2, r3, #16, #16
 668 014e 60F31F41 		bfi	r1, r0, #16, #16
 669 0152 CDE90E12 		strd	r1, r2, [sp, #56]
 232:Drivers/lvgl/src/widgets/lv_checkbox.c **** 
 233:Drivers/lvgl/src/widgets/lv_checkbox.c ****     lv_obj_draw_part_dsc_t part_draw_dsc;
 670              		.loc 1 233 5 is_stmt 1 view .LVU203
 234:Drivers/lvgl/src/widgets/lv_checkbox.c ****     lv_obj_draw_dsc_init(&part_draw_dsc, draw_ctx);
 671              		.loc 1 234 5 view .LVU204
 672 0156 28A8     		add	r0, sp, #160
 673 0158 4946     		mov	r1, r9
 674 015a FFF7FEFF 		bl	lv_obj_draw_dsc_init
 675              	.LVL64:
 235:Drivers/lvgl/src/widgets/lv_checkbox.c ****     part_draw_dsc.rect_dsc = &indic_dsc;
 676              		.loc 1 235 5 view .LVU205
 236:Drivers/lvgl/src/widgets/lv_checkbox.c ****     part_draw_dsc.class_p = MY_CLASS;
 237:Drivers/lvgl/src/widgets/lv_checkbox.c ****     part_draw_dsc.type = LV_CHECKBOX_DRAW_PART_BOX;
 238:Drivers/lvgl/src/widgets/lv_checkbox.c ****     part_draw_dsc.draw_area = &marker_area_transf;
 677              		.loc 1 238 29 is_stmt 0 view .LVU206
 678 015e 0EAF     		add	r7, sp, #56
 239:Drivers/lvgl/src/widgets/lv_checkbox.c ****     part_draw_dsc.part = LV_PART_INDICATOR;
 679              		.loc 1 239 24 view .LVU207
 680 0160 4FF40033 		mov	r3, #131072
 236:Drivers/lvgl/src/widgets/lv_checkbox.c ****     part_draw_dsc.class_p = MY_CLASS;
 681              		.loc 1 236 27 view .LVU208
ARM GAS  /var/folders/lp/x54gwt890xv47sdkqj1k04q40000gn/T//cc4JFZNj.s 			page 30


 682 0164 2994     		str	r4, [sp, #164]
 240:Drivers/lvgl/src/widgets/lv_checkbox.c **** 
 241:Drivers/lvgl/src/widgets/lv_checkbox.c ****     lv_event_send(obj, LV_EVENT_DRAW_PART_BEGIN, &part_draw_dsc);
 683              		.loc 1 241 5 view .LVU209
 684 0166 28AA     		add	r2, sp, #160
 237:Drivers/lvgl/src/widgets/lv_checkbox.c ****     part_draw_dsc.draw_area = &marker_area_transf;
 685              		.loc 1 237 24 view .LVU210
 686 0168 0024     		movs	r4, #0
 687              		.loc 1 241 5 view .LVU211
 688 016a 1A21     		movs	r1, #26
 689 016c 2846     		mov	r0, r5
 239:Drivers/lvgl/src/widgets/lv_checkbox.c ****     part_draw_dsc.part = LV_PART_INDICATOR;
 690              		.loc 1 239 24 view .LVU212
 691 016e 3593     		str	r3, [sp, #212]
 237:Drivers/lvgl/src/widgets/lv_checkbox.c ****     part_draw_dsc.draw_area = &marker_area_transf;
 692              		.loc 1 237 24 view .LVU213
 693 0170 2A94     		str	r4, [sp, #168]
 238:Drivers/lvgl/src/widgets/lv_checkbox.c ****     part_draw_dsc.part = LV_PART_INDICATOR;
 694              		.loc 1 238 29 view .LVU214
 695 0172 2B97     		str	r7, [sp, #172]
 235:Drivers/lvgl/src/widgets/lv_checkbox.c ****     part_draw_dsc.class_p = MY_CLASS;
 696              		.loc 1 235 28 view .LVU215
 697 0174 CDF8B0B0 		str	fp, [sp, #176]
 236:Drivers/lvgl/src/widgets/lv_checkbox.c ****     part_draw_dsc.type = LV_CHECKBOX_DRAW_PART_BOX;
 698              		.loc 1 236 5 is_stmt 1 view .LVU216
 237:Drivers/lvgl/src/widgets/lv_checkbox.c ****     part_draw_dsc.draw_area = &marker_area_transf;
 699              		.loc 1 237 5 view .LVU217
 238:Drivers/lvgl/src/widgets/lv_checkbox.c ****     part_draw_dsc.part = LV_PART_INDICATOR;
 700              		.loc 1 238 5 view .LVU218
 239:Drivers/lvgl/src/widgets/lv_checkbox.c **** 
 701              		.loc 1 239 5 view .LVU219
 702              		.loc 1 241 5 view .LVU220
 703 0178 FFF7FEFF 		bl	lv_event_send
 704              	.LVL65:
 242:Drivers/lvgl/src/widgets/lv_checkbox.c ****     lv_draw_rect(draw_ctx, &indic_dsc, &marker_area_transf);
 705              		.loc 1 242 5 view .LVU221
 706 017c 3A46     		mov	r2, r7
 707 017e 5946     		mov	r1, fp
 708 0180 4846     		mov	r0, r9
 709 0182 FFF7FEFF 		bl	lv_draw_rect
 710              	.LVL66:
 243:Drivers/lvgl/src/widgets/lv_checkbox.c ****     lv_event_send(obj, LV_EVENT_DRAW_PART_END, &part_draw_dsc);
 711              		.loc 1 243 5 view .LVU222
 712 0186 28AA     		add	r2, sp, #160
 713 0188 1B21     		movs	r1, #27
 714 018a 2846     		mov	r0, r5
 715 018c FFF7FEFF 		bl	lv_event_send
 716              	.LVL67:
 244:Drivers/lvgl/src/widgets/lv_checkbox.c **** 
 245:Drivers/lvgl/src/widgets/lv_checkbox.c ****     lv_coord_t line_space = lv_obj_get_style_text_line_space(obj, LV_PART_MAIN);
 717              		.loc 1 245 5 view .LVU223
 718              	.LBB212:
 719              	.LBI212:
 467:Drivers/lvgl/src/widgets/../core/lv_obj_style_gen.h **** }
 468:Drivers/lvgl/src/widgets/../core/lv_obj_style_gen.h **** 
 469:Drivers/lvgl/src/widgets/../core/lv_obj_style_gen.h **** static inline lv_coord_t lv_obj_get_style_text_letter_space(const struct _lv_obj_t * obj, uint32_t 
 470:Drivers/lvgl/src/widgets/../core/lv_obj_style_gen.h **** {
ARM GAS  /var/folders/lp/x54gwt890xv47sdkqj1k04q40000gn/T//cc4JFZNj.s 			page 31


 471:Drivers/lvgl/src/widgets/../core/lv_obj_style_gen.h ****     lv_style_value_t v = lv_obj_get_style_prop(obj, part, LV_STYLE_TEXT_LETTER_SPACE);
 472:Drivers/lvgl/src/widgets/../core/lv_obj_style_gen.h ****     return (lv_coord_t)v.num;
 473:Drivers/lvgl/src/widgets/../core/lv_obj_style_gen.h **** }
 474:Drivers/lvgl/src/widgets/../core/lv_obj_style_gen.h **** 
 475:Drivers/lvgl/src/widgets/../core/lv_obj_style_gen.h **** static inline lv_coord_t lv_obj_get_style_text_line_space(const struct _lv_obj_t * obj, uint32_t pa
 720              		.loc 2 475 26 view .LVU224
 721              	.LBB213:
 476:Drivers/lvgl/src/widgets/../core/lv_obj_style_gen.h **** {
 477:Drivers/lvgl/src/widgets/../core/lv_obj_style_gen.h ****     lv_style_value_t v = lv_obj_get_style_prop(obj, part, LV_STYLE_TEXT_LINE_SPACE);
 722              		.loc 2 477 5 view .LVU225
 723              		.loc 2 477 26 is_stmt 0 view .LVU226
 724 0190 2146     		mov	r1, r4
 725 0192 5922     		movs	r2, #89
 726 0194 2846     		mov	r0, r5
 727 0196 FFF7FEFF 		bl	lv_obj_get_style_prop
 728              	.LVL68:
 478:Drivers/lvgl/src/widgets/../core/lv_obj_style_gen.h ****     return (lv_coord_t)v.num;
 729              		.loc 2 478 5 is_stmt 1 view .LVU227
 730              	.LBE213:
 731              	.LBE212:
 732              	.LBB215:
 733              	.LBB216:
 471:Drivers/lvgl/src/widgets/../core/lv_obj_style_gen.h ****     return (lv_coord_t)v.num;
 734              		.loc 2 471 26 is_stmt 0 view .LVU228
 735 019a 2146     		mov	r1, r4
 736              	.LBE216:
 737              	.LBE215:
 738              	.LBB218:
 739              	.LBB214:
 740              		.loc 2 478 12 view .LVU229
 741 019c 07B2     		sxth	r7, r0
 742              	.LVL69:
 743              		.loc 2 478 12 view .LVU230
 744              	.LBE214:
 745              	.LBE218:
 246:Drivers/lvgl/src/widgets/lv_checkbox.c ****     lv_coord_t letter_space = lv_obj_get_style_text_letter_space(obj, LV_PART_MAIN);
 746              		.loc 1 246 5 is_stmt 1 view .LVU231
 747              	.LBB219:
 748              	.LBI215:
 469:Drivers/lvgl/src/widgets/../core/lv_obj_style_gen.h **** {
 749              		.loc 2 469 26 view .LVU232
 750              	.LBB217:
 471:Drivers/lvgl/src/widgets/../core/lv_obj_style_gen.h ****     return (lv_coord_t)v.num;
 751              		.loc 2 471 5 view .LVU233
 471:Drivers/lvgl/src/widgets/../core/lv_obj_style_gen.h ****     return (lv_coord_t)v.num;
 752              		.loc 2 471 26 is_stmt 0 view .LVU234
 753 019e 5822     		movs	r2, #88
 754 01a0 2846     		mov	r0, r5
 755 01a2 FFF7FEFF 		bl	lv_obj_get_style_prop
 756              	.LVL70:
 472:Drivers/lvgl/src/widgets/../core/lv_obj_style_gen.h **** }
 757              		.loc 2 472 5 is_stmt 1 view .LVU235
 472:Drivers/lvgl/src/widgets/../core/lv_obj_style_gen.h **** }
 758              		.loc 2 472 5 is_stmt 0 view .LVU236
 759              	.LBE217:
 760              	.LBE219:
 247:Drivers/lvgl/src/widgets/lv_checkbox.c **** 
ARM GAS  /var/folders/lp/x54gwt890xv47sdkqj1k04q40000gn/T//cc4JFZNj.s 			page 32


 248:Drivers/lvgl/src/widgets/lv_checkbox.c ****     lv_point_t txt_size;
 761              		.loc 1 248 5 is_stmt 1 view .LVU237
 249:Drivers/lvgl/src/widgets/lv_checkbox.c ****     lv_txt_get_size(&txt_size, cb->txt, font, letter_space, line_space, LV_COORD_MAX, LV_TEXT_FLAG_
 762              		.loc 1 249 5 view .LVU238
 763 01a6 03B2     		sxth	r3, r0
 764 01a8 41F6FF70 		movw	r0, #8191
 765              	.LVL71:
 766              		.loc 1 249 5 is_stmt 0 view .LVU239
 767 01ac 696A     		ldr	r1, [r5, #36]
 768 01ae 069A     		ldr	r2, [sp, #24]
 769 01b0 0097     		str	r7, [sp]
 770 01b2 0294     		str	r4, [sp, #8]
 771 01b4 0190     		str	r0, [sp, #4]
 772 01b6 0DA8     		add	r0, sp, #52
 773 01b8 FFF7FEFF 		bl	lv_txt_get_size
 774              	.LVL72:
 250:Drivers/lvgl/src/widgets/lv_checkbox.c **** 
 251:Drivers/lvgl/src/widgets/lv_checkbox.c ****     lv_draw_label_dsc_t txt_dsc;
 775              		.loc 1 251 5 is_stmt 1 view .LVU240
 252:Drivers/lvgl/src/widgets/lv_checkbox.c ****     lv_draw_label_dsc_init(&txt_dsc);
 776              		.loc 1 252 5 view .LVU241
 777 01bc 12AA     		add	r2, sp, #72
 778 01be 1046     		mov	r0, r2
 779 01c0 FFF7FEFF 		bl	lv_draw_label_dsc_init
 780              	.LVL73:
 253:Drivers/lvgl/src/widgets/lv_checkbox.c ****     lv_obj_init_draw_label_dsc(obj, LV_PART_MAIN, &txt_dsc);
 781              		.loc 1 253 5 view .LVU242
 782 01c4 12AA     		add	r2, sp, #72
 783 01c6 2146     		mov	r1, r4
 784 01c8 2846     		mov	r0, r5
 785 01ca FFF7FEFF 		bl	lv_obj_init_draw_label_dsc
 786              	.LVL74:
 254:Drivers/lvgl/src/widgets/lv_checkbox.c **** 
 255:Drivers/lvgl/src/widgets/lv_checkbox.c ****     lv_coord_t y_ofs = (lv_area_get_height(&marker_area) - font_h) / 2;
 787              		.loc 1 255 5 view .LVU243
 788              	.LBB220:
 789              	.LBI220:
 790              		.file 4 "Drivers/lvgl/src/widgets/../core/../misc/../font/../misc/lv_area.h"
   1:Drivers/lvgl/src/widgets/../core/../misc/../font/../misc/lv_area.h **** /**
   2:Drivers/lvgl/src/widgets/../core/../misc/../font/../misc/lv_area.h ****  * @file lv_area.h
   3:Drivers/lvgl/src/widgets/../core/../misc/../font/../misc/lv_area.h ****  *
   4:Drivers/lvgl/src/widgets/../core/../misc/../font/../misc/lv_area.h ****  */
   5:Drivers/lvgl/src/widgets/../core/../misc/../font/../misc/lv_area.h **** 
   6:Drivers/lvgl/src/widgets/../core/../misc/../font/../misc/lv_area.h **** #ifndef LV_AREA_H
   7:Drivers/lvgl/src/widgets/../core/../misc/../font/../misc/lv_area.h **** #define LV_AREA_H
   8:Drivers/lvgl/src/widgets/../core/../misc/../font/../misc/lv_area.h **** 
   9:Drivers/lvgl/src/widgets/../core/../misc/../font/../misc/lv_area.h **** #ifdef __cplusplus
  10:Drivers/lvgl/src/widgets/../core/../misc/../font/../misc/lv_area.h **** extern "C" {
  11:Drivers/lvgl/src/widgets/../core/../misc/../font/../misc/lv_area.h **** #endif
  12:Drivers/lvgl/src/widgets/../core/../misc/../font/../misc/lv_area.h **** 
  13:Drivers/lvgl/src/widgets/../core/../misc/../font/../misc/lv_area.h **** /*********************
  14:Drivers/lvgl/src/widgets/../core/../misc/../font/../misc/lv_area.h ****  *      INCLUDES
  15:Drivers/lvgl/src/widgets/../core/../misc/../font/../misc/lv_area.h ****  *********************/
  16:Drivers/lvgl/src/widgets/../core/../misc/../font/../misc/lv_area.h **** #include "../lv_conf_internal.h"
  17:Drivers/lvgl/src/widgets/../core/../misc/../font/../misc/lv_area.h **** #include <stdbool.h>
  18:Drivers/lvgl/src/widgets/../core/../misc/../font/../misc/lv_area.h **** #include <stdint.h>
  19:Drivers/lvgl/src/widgets/../core/../misc/../font/../misc/lv_area.h **** 
ARM GAS  /var/folders/lp/x54gwt890xv47sdkqj1k04q40000gn/T//cc4JFZNj.s 			page 33


  20:Drivers/lvgl/src/widgets/../core/../misc/../font/../misc/lv_area.h **** /*********************
  21:Drivers/lvgl/src/widgets/../core/../misc/../font/../misc/lv_area.h ****  *      DEFINES
  22:Drivers/lvgl/src/widgets/../core/../misc/../font/../misc/lv_area.h ****  *********************/
  23:Drivers/lvgl/src/widgets/../core/../misc/../font/../misc/lv_area.h **** 
  24:Drivers/lvgl/src/widgets/../core/../misc/../font/../misc/lv_area.h **** #if LV_USE_LARGE_COORD
  25:Drivers/lvgl/src/widgets/../core/../misc/../font/../misc/lv_area.h **** typedef int32_t lv_coord_t;
  26:Drivers/lvgl/src/widgets/../core/../misc/../font/../misc/lv_area.h **** #else
  27:Drivers/lvgl/src/widgets/../core/../misc/../font/../misc/lv_area.h **** typedef int16_t lv_coord_t;
  28:Drivers/lvgl/src/widgets/../core/../misc/../font/../misc/lv_area.h **** #endif
  29:Drivers/lvgl/src/widgets/../core/../misc/../font/../misc/lv_area.h **** 
  30:Drivers/lvgl/src/widgets/../core/../misc/../font/../misc/lv_area.h **** /**********************
  31:Drivers/lvgl/src/widgets/../core/../misc/../font/../misc/lv_area.h ****  *      TYPEDEFS
  32:Drivers/lvgl/src/widgets/../core/../misc/../font/../misc/lv_area.h ****  **********************/
  33:Drivers/lvgl/src/widgets/../core/../misc/../font/../misc/lv_area.h **** 
  34:Drivers/lvgl/src/widgets/../core/../misc/../font/../misc/lv_area.h **** /**
  35:Drivers/lvgl/src/widgets/../core/../misc/../font/../misc/lv_area.h ****  * Represents a point on the screen.
  36:Drivers/lvgl/src/widgets/../core/../misc/../font/../misc/lv_area.h ****  */
  37:Drivers/lvgl/src/widgets/../core/../misc/../font/../misc/lv_area.h **** typedef struct {
  38:Drivers/lvgl/src/widgets/../core/../misc/../font/../misc/lv_area.h ****     lv_coord_t x;
  39:Drivers/lvgl/src/widgets/../core/../misc/../font/../misc/lv_area.h ****     lv_coord_t y;
  40:Drivers/lvgl/src/widgets/../core/../misc/../font/../misc/lv_area.h **** } lv_point_t;
  41:Drivers/lvgl/src/widgets/../core/../misc/../font/../misc/lv_area.h **** 
  42:Drivers/lvgl/src/widgets/../core/../misc/../font/../misc/lv_area.h **** /** Represents an area of the screen.*/
  43:Drivers/lvgl/src/widgets/../core/../misc/../font/../misc/lv_area.h **** typedef struct {
  44:Drivers/lvgl/src/widgets/../core/../misc/../font/../misc/lv_area.h ****     lv_coord_t x1;
  45:Drivers/lvgl/src/widgets/../core/../misc/../font/../misc/lv_area.h ****     lv_coord_t y1;
  46:Drivers/lvgl/src/widgets/../core/../misc/../font/../misc/lv_area.h ****     lv_coord_t x2;
  47:Drivers/lvgl/src/widgets/../core/../misc/../font/../misc/lv_area.h ****     lv_coord_t y2;
  48:Drivers/lvgl/src/widgets/../core/../misc/../font/../misc/lv_area.h **** } lv_area_t;
  49:Drivers/lvgl/src/widgets/../core/../misc/../font/../misc/lv_area.h **** 
  50:Drivers/lvgl/src/widgets/../core/../misc/../font/../misc/lv_area.h **** /** Alignments*/
  51:Drivers/lvgl/src/widgets/../core/../misc/../font/../misc/lv_area.h **** enum {
  52:Drivers/lvgl/src/widgets/../core/../misc/../font/../misc/lv_area.h ****     LV_ALIGN_DEFAULT = 0,
  53:Drivers/lvgl/src/widgets/../core/../misc/../font/../misc/lv_area.h ****     LV_ALIGN_TOP_LEFT,
  54:Drivers/lvgl/src/widgets/../core/../misc/../font/../misc/lv_area.h ****     LV_ALIGN_TOP_MID,
  55:Drivers/lvgl/src/widgets/../core/../misc/../font/../misc/lv_area.h ****     LV_ALIGN_TOP_RIGHT,
  56:Drivers/lvgl/src/widgets/../core/../misc/../font/../misc/lv_area.h ****     LV_ALIGN_BOTTOM_LEFT,
  57:Drivers/lvgl/src/widgets/../core/../misc/../font/../misc/lv_area.h ****     LV_ALIGN_BOTTOM_MID,
  58:Drivers/lvgl/src/widgets/../core/../misc/../font/../misc/lv_area.h ****     LV_ALIGN_BOTTOM_RIGHT,
  59:Drivers/lvgl/src/widgets/../core/../misc/../font/../misc/lv_area.h ****     LV_ALIGN_LEFT_MID,
  60:Drivers/lvgl/src/widgets/../core/../misc/../font/../misc/lv_area.h ****     LV_ALIGN_RIGHT_MID,
  61:Drivers/lvgl/src/widgets/../core/../misc/../font/../misc/lv_area.h ****     LV_ALIGN_CENTER,
  62:Drivers/lvgl/src/widgets/../core/../misc/../font/../misc/lv_area.h **** 
  63:Drivers/lvgl/src/widgets/../core/../misc/../font/../misc/lv_area.h ****     LV_ALIGN_OUT_TOP_LEFT,
  64:Drivers/lvgl/src/widgets/../core/../misc/../font/../misc/lv_area.h ****     LV_ALIGN_OUT_TOP_MID,
  65:Drivers/lvgl/src/widgets/../core/../misc/../font/../misc/lv_area.h ****     LV_ALIGN_OUT_TOP_RIGHT,
  66:Drivers/lvgl/src/widgets/../core/../misc/../font/../misc/lv_area.h ****     LV_ALIGN_OUT_BOTTOM_LEFT,
  67:Drivers/lvgl/src/widgets/../core/../misc/../font/../misc/lv_area.h ****     LV_ALIGN_OUT_BOTTOM_MID,
  68:Drivers/lvgl/src/widgets/../core/../misc/../font/../misc/lv_area.h ****     LV_ALIGN_OUT_BOTTOM_RIGHT,
  69:Drivers/lvgl/src/widgets/../core/../misc/../font/../misc/lv_area.h ****     LV_ALIGN_OUT_LEFT_TOP,
  70:Drivers/lvgl/src/widgets/../core/../misc/../font/../misc/lv_area.h ****     LV_ALIGN_OUT_LEFT_MID,
  71:Drivers/lvgl/src/widgets/../core/../misc/../font/../misc/lv_area.h ****     LV_ALIGN_OUT_LEFT_BOTTOM,
  72:Drivers/lvgl/src/widgets/../core/../misc/../font/../misc/lv_area.h ****     LV_ALIGN_OUT_RIGHT_TOP,
  73:Drivers/lvgl/src/widgets/../core/../misc/../font/../misc/lv_area.h ****     LV_ALIGN_OUT_RIGHT_MID,
  74:Drivers/lvgl/src/widgets/../core/../misc/../font/../misc/lv_area.h ****     LV_ALIGN_OUT_RIGHT_BOTTOM,
  75:Drivers/lvgl/src/widgets/../core/../misc/../font/../misc/lv_area.h **** };
  76:Drivers/lvgl/src/widgets/../core/../misc/../font/../misc/lv_area.h **** typedef uint8_t lv_align_t;
ARM GAS  /var/folders/lp/x54gwt890xv47sdkqj1k04q40000gn/T//cc4JFZNj.s 			page 34


  77:Drivers/lvgl/src/widgets/../core/../misc/../font/../misc/lv_area.h **** 
  78:Drivers/lvgl/src/widgets/../core/../misc/../font/../misc/lv_area.h **** enum {
  79:Drivers/lvgl/src/widgets/../core/../misc/../font/../misc/lv_area.h ****     LV_DIR_NONE     = 0x00,
  80:Drivers/lvgl/src/widgets/../core/../misc/../font/../misc/lv_area.h ****     LV_DIR_LEFT     = (1 << 0),
  81:Drivers/lvgl/src/widgets/../core/../misc/../font/../misc/lv_area.h ****     LV_DIR_RIGHT    = (1 << 1),
  82:Drivers/lvgl/src/widgets/../core/../misc/../font/../misc/lv_area.h ****     LV_DIR_TOP      = (1 << 2),
  83:Drivers/lvgl/src/widgets/../core/../misc/../font/../misc/lv_area.h ****     LV_DIR_BOTTOM   = (1 << 3),
  84:Drivers/lvgl/src/widgets/../core/../misc/../font/../misc/lv_area.h ****     LV_DIR_HOR      = LV_DIR_LEFT | LV_DIR_RIGHT,
  85:Drivers/lvgl/src/widgets/../core/../misc/../font/../misc/lv_area.h ****     LV_DIR_VER      = LV_DIR_TOP | LV_DIR_BOTTOM,
  86:Drivers/lvgl/src/widgets/../core/../misc/../font/../misc/lv_area.h ****     LV_DIR_ALL      = LV_DIR_HOR | LV_DIR_VER,
  87:Drivers/lvgl/src/widgets/../core/../misc/../font/../misc/lv_area.h **** };
  88:Drivers/lvgl/src/widgets/../core/../misc/../font/../misc/lv_area.h **** 
  89:Drivers/lvgl/src/widgets/../core/../misc/../font/../misc/lv_area.h **** typedef uint8_t lv_dir_t;
  90:Drivers/lvgl/src/widgets/../core/../misc/../font/../misc/lv_area.h **** 
  91:Drivers/lvgl/src/widgets/../core/../misc/../font/../misc/lv_area.h **** /**********************
  92:Drivers/lvgl/src/widgets/../core/../misc/../font/../misc/lv_area.h ****  * GLOBAL PROTOTYPES
  93:Drivers/lvgl/src/widgets/../core/../misc/../font/../misc/lv_area.h ****  **********************/
  94:Drivers/lvgl/src/widgets/../core/../misc/../font/../misc/lv_area.h **** 
  95:Drivers/lvgl/src/widgets/../core/../misc/../font/../misc/lv_area.h **** /**
  96:Drivers/lvgl/src/widgets/../core/../misc/../font/../misc/lv_area.h ****  * Initialize an area
  97:Drivers/lvgl/src/widgets/../core/../misc/../font/../misc/lv_area.h ****  * @param area_p pointer to an area
  98:Drivers/lvgl/src/widgets/../core/../misc/../font/../misc/lv_area.h ****  * @param x1 left coordinate of the area
  99:Drivers/lvgl/src/widgets/../core/../misc/../font/../misc/lv_area.h ****  * @param y1 top coordinate of the area
 100:Drivers/lvgl/src/widgets/../core/../misc/../font/../misc/lv_area.h ****  * @param x2 right coordinate of the area
 101:Drivers/lvgl/src/widgets/../core/../misc/../font/../misc/lv_area.h ****  * @param y2 bottom coordinate of the area
 102:Drivers/lvgl/src/widgets/../core/../misc/../font/../misc/lv_area.h ****  */
 103:Drivers/lvgl/src/widgets/../core/../misc/../font/../misc/lv_area.h **** void lv_area_set(lv_area_t * area_p, lv_coord_t x1, lv_coord_t y1, lv_coord_t x2, lv_coord_t y2);
 104:Drivers/lvgl/src/widgets/../core/../misc/../font/../misc/lv_area.h **** 
 105:Drivers/lvgl/src/widgets/../core/../misc/../font/../misc/lv_area.h **** /**
 106:Drivers/lvgl/src/widgets/../core/../misc/../font/../misc/lv_area.h ****  * Copy an area
 107:Drivers/lvgl/src/widgets/../core/../misc/../font/../misc/lv_area.h ****  * @param dest pointer to the destination area
 108:Drivers/lvgl/src/widgets/../core/../misc/../font/../misc/lv_area.h ****  * @param src pointer to the source area
 109:Drivers/lvgl/src/widgets/../core/../misc/../font/../misc/lv_area.h ****  */
 110:Drivers/lvgl/src/widgets/../core/../misc/../font/../misc/lv_area.h **** inline static void lv_area_copy(lv_area_t * dest, const lv_area_t * src)
 111:Drivers/lvgl/src/widgets/../core/../misc/../font/../misc/lv_area.h **** {
 112:Drivers/lvgl/src/widgets/../core/../misc/../font/../misc/lv_area.h ****     dest->x1 = src->x1;
 113:Drivers/lvgl/src/widgets/../core/../misc/../font/../misc/lv_area.h ****     dest->y1 = src->y1;
 114:Drivers/lvgl/src/widgets/../core/../misc/../font/../misc/lv_area.h ****     dest->x2 = src->x2;
 115:Drivers/lvgl/src/widgets/../core/../misc/../font/../misc/lv_area.h ****     dest->y2 = src->y2;
 116:Drivers/lvgl/src/widgets/../core/../misc/../font/../misc/lv_area.h **** }
 117:Drivers/lvgl/src/widgets/../core/../misc/../font/../misc/lv_area.h **** 
 118:Drivers/lvgl/src/widgets/../core/../misc/../font/../misc/lv_area.h **** /**
 119:Drivers/lvgl/src/widgets/../core/../misc/../font/../misc/lv_area.h ****  * Get the width of an area
 120:Drivers/lvgl/src/widgets/../core/../misc/../font/../misc/lv_area.h ****  * @param area_p pointer to an area
 121:Drivers/lvgl/src/widgets/../core/../misc/../font/../misc/lv_area.h ****  * @return the width of the area (if x1 == x2 -> width = 1)
 122:Drivers/lvgl/src/widgets/../core/../misc/../font/../misc/lv_area.h ****  */
 123:Drivers/lvgl/src/widgets/../core/../misc/../font/../misc/lv_area.h **** static inline lv_coord_t lv_area_get_width(const lv_area_t * area_p)
 124:Drivers/lvgl/src/widgets/../core/../misc/../font/../misc/lv_area.h **** {
 125:Drivers/lvgl/src/widgets/../core/../misc/../font/../misc/lv_area.h ****     return (lv_coord_t)(area_p->x2 - area_p->x1 + 1);
 126:Drivers/lvgl/src/widgets/../core/../misc/../font/../misc/lv_area.h **** }
 127:Drivers/lvgl/src/widgets/../core/../misc/../font/../misc/lv_area.h **** 
 128:Drivers/lvgl/src/widgets/../core/../misc/../font/../misc/lv_area.h **** /**
 129:Drivers/lvgl/src/widgets/../core/../misc/../font/../misc/lv_area.h ****  * Get the height of an area
 130:Drivers/lvgl/src/widgets/../core/../misc/../font/../misc/lv_area.h ****  * @param area_p pointer to an area
 131:Drivers/lvgl/src/widgets/../core/../misc/../font/../misc/lv_area.h ****  * @return the height of the area (if y1 == y2 -> height = 1)
 132:Drivers/lvgl/src/widgets/../core/../misc/../font/../misc/lv_area.h ****  */
 133:Drivers/lvgl/src/widgets/../core/../misc/../font/../misc/lv_area.h **** static inline lv_coord_t lv_area_get_height(const lv_area_t * area_p)
ARM GAS  /var/folders/lp/x54gwt890xv47sdkqj1k04q40000gn/T//cc4JFZNj.s 			page 35


 791              		.loc 4 133 26 view .LVU244
 792              	.LBB221:
 134:Drivers/lvgl/src/widgets/../core/../misc/../font/../misc/lv_area.h **** {
 135:Drivers/lvgl/src/widgets/../core/../misc/../font/../misc/lv_area.h ****     return (lv_coord_t)(area_p->y2 - area_p->y1 + 1);
 793              		.loc 4 135 5 view .LVU245
 794              		.loc 4 135 5 is_stmt 0 view .LVU246
 795              	.LBE221:
 796              	.LBE220:
 256:Drivers/lvgl/src/widgets/lv_checkbox.c ****     lv_area_t txt_area;
 797              		.loc 1 256 5 is_stmt 1 view .LVU247
 257:Drivers/lvgl/src/widgets/lv_checkbox.c ****     txt_area.x1 = marker_area.x2 + bg_colp;
 798              		.loc 1 257 5 view .LVU248
 799              		.loc 1 257 34 is_stmt 0 view .LVU249
 800 01ce 079B     		ldr	r3, [sp, #28]
 801              	.LVL75:
 802              		.loc 1 257 34 view .LVU250
 803 01d0 9844     		add	r8, r8, r3
 804              	.LVL76:
 805              	.LBB223:
 806              	.LBB222:
 807              		.loc 4 135 49 view .LVU251
 808 01d2 731C     		adds	r3, r6, #1
 809              	.LVL77:
 810              		.loc 4 135 49 view .LVU252
 811              	.LBE222:
 812              	.LBE223:
 255:Drivers/lvgl/src/widgets/lv_checkbox.c ****     lv_area_t txt_area;
 813              		.loc 1 255 58 discriminator 1 view .LVU253
 814 01d4 059E     		ldr	r6, [sp, #20]
 815              	.LVL78:
 255:Drivers/lvgl/src/widgets/lv_checkbox.c ****     lv_area_t txt_area;
 816              		.loc 1 255 25 discriminator 1 view .LVU254
 817 01d6 1BB2     		sxth	r3, r3
 818              	.LVL79:
 255:Drivers/lvgl/src/widgets/lv_checkbox.c ****     lv_area_t txt_area;
 819              		.loc 1 255 58 discriminator 1 view .LVU255
 820 01d8 9B1B     		subs	r3, r3, r6
 255:Drivers/lvgl/src/widgets/lv_checkbox.c ****     lv_area_t txt_area;
 821              		.loc 1 255 68 discriminator 1 view .LVU256
 822 01da 03EBD373 		add	r3, r3, r3, lsr #31
 258:Drivers/lvgl/src/widgets/lv_checkbox.c ****     txt_area.x2 = txt_area.x1 + txt_size.x;
 259:Drivers/lvgl/src/widgets/lv_checkbox.c ****     txt_area.y1 = obj->coords.y1 + bg_topp + y_ofs;
 823              		.loc 1 259 44 view .LVU257
 824 01de 0AEB6302 		add	r2, r10, r3, asr #1
 825 01e2 EB8A     		ldrh	r3, [r5, #22]
 258:Drivers/lvgl/src/widgets/lv_checkbox.c ****     txt_area.x2 = txt_area.x1 + txt_size.x;
 826              		.loc 1 258 31 view .LVU258
 827 01e4 BDF83460 		ldrh	r6, [sp, #52]
 257:Drivers/lvgl/src/widgets/lv_checkbox.c ****     txt_area.x2 = txt_area.x1 + txt_size.x;
 828              		.loc 1 257 34 view .LVU259
 829 01e8 1FFA88F8 		uxth	r8, r8
 258:Drivers/lvgl/src/widgets/lv_checkbox.c ****     txt_area.x2 = txt_area.x1 + txt_size.x;
 830              		.loc 1 258 5 is_stmt 1 view .LVU260
 831              		.loc 1 259 5 view .LVU261
 832              		.loc 1 259 44 is_stmt 0 view .LVU262
 833 01ec 1A44     		add	r2, r2, r3
 260:Drivers/lvgl/src/widgets/lv_checkbox.c ****     txt_area.y2 = txt_area.y1 + txt_size.y;
ARM GAS  /var/folders/lp/x54gwt890xv47sdkqj1k04q40000gn/T//cc4JFZNj.s 			page 36


 261:Drivers/lvgl/src/widgets/lv_checkbox.c **** 
 262:Drivers/lvgl/src/widgets/lv_checkbox.c ****     lv_draw_label(draw_ctx, &txt_dsc, &txt_area, cb->txt, NULL);
 834              		.loc 1 262 5 view .LVU263
 835 01ee 6B6A     		ldr	r3, [r5, #36]
 260:Drivers/lvgl/src/widgets/lv_checkbox.c ****     txt_area.y2 = txt_area.y1 + txt_size.y;
 836              		.loc 1 260 31 view .LVU264
 837 01f0 BDF83650 		ldrh	r5, [sp, #54]
 838              	.LVL80:
 839              		.loc 1 262 5 view .LVU265
 840 01f4 0094     		str	r4, [sp]
 259:Drivers/lvgl/src/widgets/lv_checkbox.c ****     txt_area.y2 = txt_area.y1 + txt_size.y;
 841              		.loc 1 259 44 view .LVU266
 842 01f6 92B2     		uxth	r2, r2
 260:Drivers/lvgl/src/widgets/lv_checkbox.c ****     txt_area.y2 = txt_area.y1 + txt_size.y;
 843              		.loc 1 260 5 is_stmt 1 view .LVU267
 258:Drivers/lvgl/src/widgets/lv_checkbox.c ****     txt_area.y1 = obj->coords.y1 + bg_topp + y_ofs;
 844              		.loc 1 258 31 is_stmt 0 view .LVU268
 845 01f8 4644     		add	r6, r6, r8
 257:Drivers/lvgl/src/widgets/lv_checkbox.c ****     txt_area.x2 = txt_area.x1 + txt_size.x;
 846              		.loc 1 257 34 view .LVU269
 847 01fa 2746     		mov	r7, r4
 848              	.LVL81:
 260:Drivers/lvgl/src/widgets/lv_checkbox.c **** 
 849              		.loc 1 260 31 view .LVU270
 850 01fc 1544     		add	r5, r5, r2
 257:Drivers/lvgl/src/widgets/lv_checkbox.c ****     txt_area.x2 = txt_area.x1 + txt_size.x;
 851              		.loc 1 257 34 view .LVU271
 852 01fe 68F30F07 		bfi	r7, r8, #0, #16
 853 0202 66F30F04 		bfi	r4, r6, #0, #16
 854 0206 62F31F47 		bfi	r7, r2, #16, #16
 855 020a 65F31F44 		bfi	r4, r5, #16, #16
 856              		.loc 1 262 5 view .LVU272
 857 020e 12A9     		add	r1, sp, #72
 858 0210 4846     		mov	r0, r9
 859 0212 10AA     		add	r2, sp, #64
 257:Drivers/lvgl/src/widgets/lv_checkbox.c ****     txt_area.x2 = txt_area.x1 + txt_size.x;
 860              		.loc 1 257 17 view .LVU273
 861 0214 1097     		str	r7, [sp, #64]
 862 0216 1194     		str	r4, [sp, #68]
 863              		.loc 1 262 5 is_stmt 1 view .LVU274
 864 0218 FFF7FEFF 		bl	lv_draw_label
 865              	.LVL82:
 263:Drivers/lvgl/src/widgets/lv_checkbox.c **** }
 866              		.loc 1 263 1 is_stmt 0 view .LVU275
 867 021c FAE6     		b	.L6
 868              	.LVL83:
 869              	.L14:
 870              		.loc 1 263 1 view .LVU276
 871              	.LBE131:
 872              	.LBE130:
 873              	.LBB224:
 162:Drivers/lvgl/src/widgets/lv_checkbox.c ****         lv_checkbox_t * cb = (lv_checkbox_t *)obj;
 874              		.loc 1 162 9 is_stmt 1 view .LVU277
 162:Drivers/lvgl/src/widgets/lv_checkbox.c ****         lv_checkbox_t * cb = (lv_checkbox_t *)obj;
 875              		.loc 1 162 26 is_stmt 0 view .LVU278
 876 021e 3046     		mov	r0, r6
 877              	.LVL84:
ARM GAS  /var/folders/lp/x54gwt890xv47sdkqj1k04q40000gn/T//cc4JFZNj.s 			page 37


 162:Drivers/lvgl/src/widgets/lv_checkbox.c ****         lv_checkbox_t * cb = (lv_checkbox_t *)obj;
 878              		.loc 1 162 26 view .LVU279
 879 0220 FFF7FEFF 		bl	lv_event_get_param
 880              	.LVL85:
 881              	.LBB225:
 882              	.LBB226:
 465:Drivers/lvgl/src/widgets/../core/lv_obj_style_gen.h ****     return (const lv_font_t *)v.ptr;
 883              		.loc 2 465 26 view .LVU280
 884 0224 5722     		movs	r2, #87
 885              	.LBE226:
 886              	.LBE225:
 162:Drivers/lvgl/src/widgets/lv_checkbox.c ****         lv_checkbox_t * cb = (lv_checkbox_t *)obj;
 887              		.loc 1 162 26 view .LVU281
 888 0226 0646     		mov	r6, r0
 889              	.LVL86:
 890              	.LBB230:
 891              	.LBB227:
 465:Drivers/lvgl/src/widgets/../core/lv_obj_style_gen.h ****     return (const lv_font_t *)v.ptr;
 892              		.loc 2 465 26 view .LVU282
 893 0228 0021     		movs	r1, #0
 894 022a 2846     		mov	r0, r5
 895              	.LVL87:
 465:Drivers/lvgl/src/widgets/../core/lv_obj_style_gen.h ****     return (const lv_font_t *)v.ptr;
 896              		.loc 2 465 26 view .LVU283
 897              	.LBE227:
 898              	.LBE230:
 163:Drivers/lvgl/src/widgets/lv_checkbox.c **** 
 899              		.loc 1 163 9 is_stmt 1 view .LVU284
 165:Drivers/lvgl/src/widgets/lv_checkbox.c ****         lv_coord_t font_h = lv_font_get_line_height(font);
 900              		.loc 1 165 9 view .LVU285
 901              	.LBB231:
 902              	.LBI225:
 463:Drivers/lvgl/src/widgets/../core/lv_obj_style_gen.h **** {
 903              		.loc 2 463 33 view .LVU286
 904              	.LBB228:
 465:Drivers/lvgl/src/widgets/../core/lv_obj_style_gen.h ****     return (const lv_font_t *)v.ptr;
 905              		.loc 2 465 5 view .LVU287
 465:Drivers/lvgl/src/widgets/../core/lv_obj_style_gen.h ****     return (const lv_font_t *)v.ptr;
 906              		.loc 2 465 26 is_stmt 0 view .LVU288
 907 022c FFF7FEFF 		bl	lv_obj_get_style_prop
 908              	.LVL88:
 465:Drivers/lvgl/src/widgets/../core/lv_obj_style_gen.h ****     return (const lv_font_t *)v.ptr;
 909              		.loc 2 465 26 view .LVU289
 910              	.LBE228:
 911              	.LBE231:
 912              	.LBB232:
 913              	.LBB233:
 477:Drivers/lvgl/src/widgets/../core/lv_obj_style_gen.h ****     return (lv_coord_t)v.num;
 914              		.loc 2 477 26 view .LVU290
 915 0230 5922     		movs	r2, #89
 916              	.LVL89:
 477:Drivers/lvgl/src/widgets/../core/lv_obj_style_gen.h ****     return (lv_coord_t)v.num;
 917              		.loc 2 477 26 view .LVU291
 918              	.LBE233:
 919              	.LBE232:
 920              	.LBB236:
 921              	.LBB237:
ARM GAS  /var/folders/lp/x54gwt890xv47sdkqj1k04q40000gn/T//cc4JFZNj.s 			page 38


 922              		.loc 3 126 18 view .LVU292
 923 0232 B0F90890 		ldrsh	r9, [r0, #8]
 924              	.LBE237:
 925              	.LBE236:
 926              	.LBB239:
 927              	.LBB229:
 465:Drivers/lvgl/src/widgets/../core/lv_obj_style_gen.h ****     return (const lv_font_t *)v.ptr;
 928              		.loc 2 465 26 view .LVU293
 929 0236 0446     		mov	r4, r0
 930              	.LVL90:
 466:Drivers/lvgl/src/widgets/../core/lv_obj_style_gen.h **** }
 931              		.loc 2 466 5 is_stmt 1 view .LVU294
 466:Drivers/lvgl/src/widgets/../core/lv_obj_style_gen.h **** }
 932              		.loc 2 466 5 is_stmt 0 view .LVU295
 933              	.LBE229:
 934              	.LBE239:
 166:Drivers/lvgl/src/widgets/lv_checkbox.c ****         lv_coord_t line_space = lv_obj_get_style_text_line_space(obj, LV_PART_MAIN);
 935              		.loc 1 166 9 is_stmt 1 view .LVU296
 936              	.LBB240:
 937              	.LBI236:
 124:Drivers/lvgl/src/widgets/../core/../misc/../font/lv_font.h **** {
 938              		.loc 3 124 26 view .LVU297
 939              	.LBB238:
 940              		.loc 3 126 5 view .LVU298
 941              		.loc 3 126 5 is_stmt 0 view .LVU299
 942              	.LBE238:
 943              	.LBE240:
 167:Drivers/lvgl/src/widgets/lv_checkbox.c ****         lv_coord_t letter_space = lv_obj_get_style_text_letter_space(obj, LV_PART_MAIN);
 944              		.loc 1 167 9 is_stmt 1 view .LVU300
 945              	.LBB241:
 946              	.LBI232:
 475:Drivers/lvgl/src/widgets/../core/lv_obj_style_gen.h **** {
 947              		.loc 2 475 26 view .LVU301
 948              	.LBB234:
 477:Drivers/lvgl/src/widgets/../core/lv_obj_style_gen.h ****     return (lv_coord_t)v.num;
 949              		.loc 2 477 5 view .LVU302
 477:Drivers/lvgl/src/widgets/../core/lv_obj_style_gen.h ****     return (lv_coord_t)v.num;
 950              		.loc 2 477 26 is_stmt 0 view .LVU303
 951 0238 0021     		movs	r1, #0
 952 023a 2846     		mov	r0, r5
 953              	.LVL91:
 477:Drivers/lvgl/src/widgets/../core/lv_obj_style_gen.h ****     return (lv_coord_t)v.num;
 954              		.loc 2 477 26 view .LVU304
 955 023c FFF7FEFF 		bl	lv_obj_get_style_prop
 956              	.LVL92:
 957              		.loc 2 478 5 is_stmt 1 view .LVU305
 958              	.LBE234:
 959              	.LBE241:
 960              	.LBB242:
 961              	.LBB243:
 471:Drivers/lvgl/src/widgets/../core/lv_obj_style_gen.h ****     return (lv_coord_t)v.num;
 962              		.loc 2 471 26 is_stmt 0 view .LVU306
 963 0240 5822     		movs	r2, #88
 964              	.LBE243:
 965              	.LBE242:
 966              	.LBB245:
 967              	.LBB235:
ARM GAS  /var/folders/lp/x54gwt890xv47sdkqj1k04q40000gn/T//cc4JFZNj.s 			page 39


 968              		.loc 2 478 12 view .LVU307
 969 0242 07B2     		sxth	r7, r0
 970              	.LVL93:
 971              		.loc 2 478 12 view .LVU308
 972              	.LBE235:
 973              	.LBE245:
 168:Drivers/lvgl/src/widgets/lv_checkbox.c **** 
 974              		.loc 1 168 9 is_stmt 1 view .LVU309
 975              	.LBB246:
 976              	.LBI242:
 469:Drivers/lvgl/src/widgets/../core/lv_obj_style_gen.h **** {
 977              		.loc 2 469 26 view .LVU310
 978              	.LBB244:
 471:Drivers/lvgl/src/widgets/../core/lv_obj_style_gen.h ****     return (lv_coord_t)v.num;
 979              		.loc 2 471 5 view .LVU311
 471:Drivers/lvgl/src/widgets/../core/lv_obj_style_gen.h ****     return (lv_coord_t)v.num;
 980              		.loc 2 471 26 is_stmt 0 view .LVU312
 981 0244 0021     		movs	r1, #0
 982 0246 2846     		mov	r0, r5
 983 0248 FFF7FEFF 		bl	lv_obj_get_style_prop
 984              	.LVL94:
 472:Drivers/lvgl/src/widgets/../core/lv_obj_style_gen.h **** }
 985              		.loc 2 472 5 is_stmt 1 view .LVU313
 472:Drivers/lvgl/src/widgets/../core/lv_obj_style_gen.h **** }
 986              		.loc 2 472 5 is_stmt 0 view .LVU314
 987              	.LBE244:
 988              	.LBE246:
 170:Drivers/lvgl/src/widgets/lv_checkbox.c ****         lv_txt_get_size(&txt_size, cb->txt, font, letter_space, line_space, LV_COORD_MAX, LV_TEXT_F
 989              		.loc 1 170 9 is_stmt 1 view .LVU315
 171:Drivers/lvgl/src/widgets/lv_checkbox.c **** 
 990              		.loc 1 171 9 view .LVU316
 991 024c 2246     		mov	r2, r4
 992 024e 03B2     		sxth	r3, r0
 993 0250 0024     		movs	r4, #0
 994              	.LVL95:
 171:Drivers/lvgl/src/widgets/lv_checkbox.c **** 
 995              		.loc 1 171 9 is_stmt 0 view .LVU317
 996 0252 41F6FF70 		movw	r0, #8191
 997              	.LVL96:
 171:Drivers/lvgl/src/widgets/lv_checkbox.c **** 
 998              		.loc 1 171 9 view .LVU318
 999 0256 696A     		ldr	r1, [r5, #36]
 1000 0258 0097     		str	r7, [sp]
 1001 025a CDE90104 		strd	r0, r4, [sp, #4]
 1002 025e 28A8     		add	r0, sp, #160
 1003 0260 FFF7FEFF 		bl	lv_txt_get_size
 1004              	.LVL97:
 173:Drivers/lvgl/src/widgets/lv_checkbox.c ****         lv_coord_t marker_leftp = lv_obj_get_style_pad_left(obj, LV_PART_INDICATOR);
 1005              		.loc 1 173 9 is_stmt 1 view .LVU319
 1006              	.LBB247:
 1007              	.LBI247:
 133:Drivers/lvgl/src/widgets/../core/lv_obj_style_gen.h **** {
 1008              		.loc 2 133 26 view .LVU320
 1009              	.LBB248:
 135:Drivers/lvgl/src/widgets/../core/lv_obj_style_gen.h ****     return (lv_coord_t)v.num;
 1010              		.loc 2 135 5 view .LVU321
 135:Drivers/lvgl/src/widgets/../core/lv_obj_style_gen.h ****     return (lv_coord_t)v.num;
ARM GAS  /var/folders/lp/x54gwt890xv47sdkqj1k04q40000gn/T//cc4JFZNj.s 			page 40


 1011              		.loc 2 135 26 is_stmt 0 view .LVU322
 1012 0264 2146     		mov	r1, r4
 1013 0266 1522     		movs	r2, #21
 1014 0268 2846     		mov	r0, r5
 1015 026a FFF7FEFF 		bl	lv_obj_get_style_prop
 1016              	.LVL98:
 1017              	.LBE248:
 1018              	.LBE247:
 1019              	.LBB250:
 1020              	.LBB251:
 117:Drivers/lvgl/src/widgets/../core/lv_obj_style_gen.h ****     return (lv_coord_t)v.num;
 1021              		.loc 2 117 26 view .LVU323
 1022 026e 1222     		movs	r2, #18
 1023              	.LBE251:
 1024              	.LBE250:
 1025              	.LBB254:
 1026              	.LBB249:
 135:Drivers/lvgl/src/widgets/../core/lv_obj_style_gen.h ****     return (lv_coord_t)v.num;
 1027              		.loc 2 135 26 view .LVU324
 1028 0270 8046     		mov	r8, r0
 136:Drivers/lvgl/src/widgets/../core/lv_obj_style_gen.h **** }
 1029              		.loc 2 136 5 is_stmt 1 view .LVU325
 1030              	.LVL99:
 136:Drivers/lvgl/src/widgets/../core/lv_obj_style_gen.h **** }
 1031              		.loc 2 136 5 is_stmt 0 view .LVU326
 1032              	.LBE249:
 1033              	.LBE254:
 174:Drivers/lvgl/src/widgets/lv_checkbox.c ****         lv_coord_t marker_rightp = lv_obj_get_style_pad_right(obj, LV_PART_INDICATOR);
 1034              		.loc 1 174 9 is_stmt 1 view .LVU327
 1035              	.LBB255:
 1036              	.LBI250:
 115:Drivers/lvgl/src/widgets/../core/lv_obj_style_gen.h **** {
 1037              		.loc 2 115 26 view .LVU328
 1038              	.LBB252:
 117:Drivers/lvgl/src/widgets/../core/lv_obj_style_gen.h ****     return (lv_coord_t)v.num;
 1039              		.loc 2 117 5 view .LVU329
 117:Drivers/lvgl/src/widgets/../core/lv_obj_style_gen.h ****     return (lv_coord_t)v.num;
 1040              		.loc 2 117 26 is_stmt 0 view .LVU330
 1041 0272 4FF40031 		mov	r1, #131072
 1042 0276 2846     		mov	r0, r5
 1043 0278 FFF7FEFF 		bl	lv_obj_get_style_prop
 1044              	.LVL100:
 1045              	.LBE252:
 1046              	.LBE255:
 1047              	.LBB256:
 1048              	.LBB257:
 123:Drivers/lvgl/src/widgets/../core/lv_obj_style_gen.h ****     return (lv_coord_t)v.num;
 1049              		.loc 2 123 26 view .LVU331
 1050 027c 1322     		movs	r2, #19
 1051              	.LBE257:
 1052              	.LBE256:
 1053              	.LBB260:
 1054              	.LBB253:
 117:Drivers/lvgl/src/widgets/../core/lv_obj_style_gen.h ****     return (lv_coord_t)v.num;
 1055              		.loc 2 117 26 view .LVU332
 1056 027e 0746     		mov	r7, r0
 1057              	.LVL101:
ARM GAS  /var/folders/lp/x54gwt890xv47sdkqj1k04q40000gn/T//cc4JFZNj.s 			page 41


 118:Drivers/lvgl/src/widgets/../core/lv_obj_style_gen.h **** }
 1058              		.loc 2 118 5 is_stmt 1 view .LVU333
 118:Drivers/lvgl/src/widgets/../core/lv_obj_style_gen.h **** }
 1059              		.loc 2 118 5 is_stmt 0 view .LVU334
 1060              	.LBE253:
 1061              	.LBE260:
 175:Drivers/lvgl/src/widgets/lv_checkbox.c ****         lv_coord_t marker_topp = lv_obj_get_style_pad_top(obj, LV_PART_INDICATOR);
 1062              		.loc 1 175 9 is_stmt 1 view .LVU335
 1063              	.LBB261:
 1064              	.LBI256:
 121:Drivers/lvgl/src/widgets/../core/lv_obj_style_gen.h **** {
 1065              		.loc 2 121 26 view .LVU336
 1066              	.LBB258:
 123:Drivers/lvgl/src/widgets/../core/lv_obj_style_gen.h ****     return (lv_coord_t)v.num;
 1067              		.loc 2 123 5 view .LVU337
 123:Drivers/lvgl/src/widgets/../core/lv_obj_style_gen.h ****     return (lv_coord_t)v.num;
 1068              		.loc 2 123 26 is_stmt 0 view .LVU338
 1069 0280 4FF40031 		mov	r1, #131072
 1070 0284 2846     		mov	r0, r5
 1071 0286 FFF7FEFF 		bl	lv_obj_get_style_prop
 1072              	.LVL102:
 1073              	.LBE258:
 1074              	.LBE261:
 1075              	.LBB262:
 1076              	.LBB263:
 105:Drivers/lvgl/src/widgets/../core/lv_obj_style_gen.h ****     return (lv_coord_t)v.num;
 1077              		.loc 2 105 26 view .LVU339
 1078 028a 1022     		movs	r2, #16
 1079              	.LBE263:
 1080              	.LBE262:
 1081              	.LBB266:
 1082              	.LBB259:
 123:Drivers/lvgl/src/widgets/../core/lv_obj_style_gen.h ****     return (lv_coord_t)v.num;
 1083              		.loc 2 123 26 view .LVU340
 1084 028c 8246     		mov	r10, r0
 124:Drivers/lvgl/src/widgets/../core/lv_obj_style_gen.h **** }
 1085              		.loc 2 124 5 is_stmt 1 view .LVU341
 1086              	.LVL103:
 124:Drivers/lvgl/src/widgets/../core/lv_obj_style_gen.h **** }
 1087              		.loc 2 124 5 is_stmt 0 view .LVU342
 1088              	.LBE259:
 1089              	.LBE266:
 176:Drivers/lvgl/src/widgets/lv_checkbox.c ****         lv_coord_t marker_bottomp = lv_obj_get_style_pad_bottom(obj, LV_PART_INDICATOR);
 1090              		.loc 1 176 9 is_stmt 1 view .LVU343
 1091              	.LBB267:
 1092              	.LBI262:
 103:Drivers/lvgl/src/widgets/../core/lv_obj_style_gen.h **** {
 1093              		.loc 2 103 26 view .LVU344
 1094              	.LBB264:
 105:Drivers/lvgl/src/widgets/../core/lv_obj_style_gen.h ****     return (lv_coord_t)v.num;
 1095              		.loc 2 105 5 view .LVU345
 105:Drivers/lvgl/src/widgets/../core/lv_obj_style_gen.h ****     return (lv_coord_t)v.num;
 1096              		.loc 2 105 26 is_stmt 0 view .LVU346
 1097 028e 4FF40031 		mov	r1, #131072
 1098 0292 2846     		mov	r0, r5
 1099 0294 FFF7FEFF 		bl	lv_obj_get_style_prop
 1100              	.LVL104:
ARM GAS  /var/folders/lp/x54gwt890xv47sdkqj1k04q40000gn/T//cc4JFZNj.s 			page 42


 1101              	.LBE264:
 1102              	.LBE267:
 1103              	.LBB268:
 1104              	.LBB269:
 111:Drivers/lvgl/src/widgets/../core/lv_obj_style_gen.h ****     return (lv_coord_t)v.num;
 1105              		.loc 2 111 26 view .LVU347
 1106 0298 1122     		movs	r2, #17
 1107              	.LBE269:
 1108              	.LBE268:
 1109              	.LBB271:
 1110              	.LBB265:
 105:Drivers/lvgl/src/widgets/../core/lv_obj_style_gen.h ****     return (lv_coord_t)v.num;
 1111              		.loc 2 105 26 view .LVU348
 1112 029a 0446     		mov	r4, r0
 1113              	.LVL105:
 106:Drivers/lvgl/src/widgets/../core/lv_obj_style_gen.h **** }
 1114              		.loc 2 106 5 is_stmt 1 view .LVU349
 106:Drivers/lvgl/src/widgets/../core/lv_obj_style_gen.h **** }
 1115              		.loc 2 106 5 is_stmt 0 view .LVU350
 1116              	.LBE265:
 1117              	.LBE271:
 177:Drivers/lvgl/src/widgets/lv_checkbox.c ****         lv_point_t marker_size;
 1118              		.loc 1 177 9 is_stmt 1 view .LVU351
 1119              	.LBB272:
 1120              	.LBI268:
 109:Drivers/lvgl/src/widgets/../core/lv_obj_style_gen.h **** {
 1121              		.loc 2 109 26 view .LVU352
 1122              	.LBB270:
 111:Drivers/lvgl/src/widgets/../core/lv_obj_style_gen.h ****     return (lv_coord_t)v.num;
 1123              		.loc 2 111 5 view .LVU353
 111:Drivers/lvgl/src/widgets/../core/lv_obj_style_gen.h ****     return (lv_coord_t)v.num;
 1124              		.loc 2 111 26 is_stmt 0 view .LVU354
 1125 029c 4FF40031 		mov	r1, #131072
 1126 02a0 2846     		mov	r0, r5
 1127 02a2 FFF7FEFF 		bl	lv_obj_get_style_prop
 1128              	.LVL106:
 112:Drivers/lvgl/src/widgets/../core/lv_obj_style_gen.h **** }
 1129              		.loc 2 112 5 is_stmt 1 view .LVU355
 112:Drivers/lvgl/src/widgets/../core/lv_obj_style_gen.h **** }
 1130              		.loc 2 112 5 is_stmt 0 view .LVU356
 1131              	.LBE270:
 1132              	.LBE272:
 178:Drivers/lvgl/src/widgets/lv_checkbox.c ****         marker_size.x = font_h + marker_leftp + marker_rightp;
 1133              		.loc 1 178 9 is_stmt 1 view .LVU357
 179:Drivers/lvgl/src/widgets/lv_checkbox.c ****         marker_size.y = font_h + marker_topp + marker_bottomp;
 1134              		.loc 1 179 9 view .LVU358
 182:Drivers/lvgl/src/widgets/lv_checkbox.c ****         p->y = LV_MAX(marker_size.y, txt_size.y);
 1135              		.loc 1 182 43 is_stmt 0 view .LVU359
 1136 02a6 BDF8A030 		ldrh	r3, [sp, #160]
 179:Drivers/lvgl/src/widgets/lv_checkbox.c ****         marker_size.y = font_h + marker_topp + marker_bottomp;
 1137              		.loc 1 179 32 view .LVU360
 1138 02aa 1FFA89F9 		uxth	r9, r9
 1139              	.LVL107:
 182:Drivers/lvgl/src/widgets/lv_checkbox.c ****         p->y = LV_MAX(marker_size.y, txt_size.y);
 1140              		.loc 1 182 43 view .LVU361
 1141 02ae 5744     		add	r7, r7, r10
 1142              	.LVL108:
ARM GAS  /var/folders/lp/x54gwt890xv47sdkqj1k04q40000gn/T//cc4JFZNj.s 			page 43


 180:Drivers/lvgl/src/widgets/lv_checkbox.c **** 
 1143              		.loc 1 180 9 is_stmt 1 view .LVU362
 182:Drivers/lvgl/src/widgets/lv_checkbox.c ****         p->y = LV_MAX(marker_size.y, txt_size.y);
 1144              		.loc 1 182 9 view .LVU363
 180:Drivers/lvgl/src/widgets/lv_checkbox.c **** 
 1145              		.loc 1 180 46 is_stmt 0 view .LVU364
 1146 02b0 0444     		add	r4, r4, r0
 1147              	.LVL109:
 180:Drivers/lvgl/src/widgets/lv_checkbox.c **** 
 1148              		.loc 1 180 46 view .LVU365
 1149 02b2 4C44     		add	r4, r4, r9
 182:Drivers/lvgl/src/widgets/lv_checkbox.c ****         p->y = LV_MAX(marker_size.y, txt_size.y);
 1150              		.loc 1 182 43 view .LVU366
 1151 02b4 1F44     		add	r7, r7, r3
 183:Drivers/lvgl/src/widgets/lv_checkbox.c ****     }
 1152              		.loc 1 183 16 view .LVU367
 1153 02b6 BDF9A230 		ldrsh	r3, [sp, #162]
 1154 02ba 24B2     		sxth	r4, r4
 182:Drivers/lvgl/src/widgets/lv_checkbox.c ****         p->y = LV_MAX(marker_size.y, txt_size.y);
 1155              		.loc 1 182 43 view .LVU368
 1156 02bc 4744     		add	r7, r7, r8
 183:Drivers/lvgl/src/widgets/lv_checkbox.c ****     }
 1157              		.loc 1 183 16 view .LVU369
 1158 02be 9C42     		cmp	r4, r3
 182:Drivers/lvgl/src/widgets/lv_checkbox.c ****         p->y = LV_MAX(marker_size.y, txt_size.y);
 1159              		.loc 1 182 43 view .LVU370
 1160 02c0 B944     		add	r9, r9, r7
 183:Drivers/lvgl/src/widgets/lv_checkbox.c ****     }
 1161              		.loc 1 183 16 view .LVU371
 1162 02c2 B8BF     		it	lt
 1163 02c4 1C46     		movlt	r4, r3
 182:Drivers/lvgl/src/widgets/lv_checkbox.c ****         p->y = LV_MAX(marker_size.y, txt_size.y);
 1164              		.loc 1 182 14 view .LVU372
 1165 02c6 A6F80090 		strh	r9, [r6]	@ movhi
 183:Drivers/lvgl/src/widgets/lv_checkbox.c ****     }
 1166              		.loc 1 183 9 is_stmt 1 view .LVU373
 183:Drivers/lvgl/src/widgets/lv_checkbox.c ****     }
 1167              		.loc 1 183 14 is_stmt 0 view .LVU374
 1168 02ca 7480     		strh	r4, [r6, #2]	@ movhi
 1169              	.LBE224:
 1170 02cc A2E6     		b	.L6
 1171              	.LVL110:
 1172              	.L15:
 1173              	.LBB273:
 186:Drivers/lvgl/src/widgets/lv_checkbox.c ****         lv_coord_t m = lv_obj_calculate_ext_draw_size(obj, LV_PART_INDICATOR);
 1174              		.loc 1 186 9 is_stmt 1 view .LVU375
 186:Drivers/lvgl/src/widgets/lv_checkbox.c ****         lv_coord_t m = lv_obj_calculate_ext_draw_size(obj, LV_PART_INDICATOR);
 1175              		.loc 1 186 26 is_stmt 0 view .LVU376
 1176 02ce 3046     		mov	r0, r6
 1177              	.LVL111:
 186:Drivers/lvgl/src/widgets/lv_checkbox.c ****         lv_coord_t m = lv_obj_calculate_ext_draw_size(obj, LV_PART_INDICATOR);
 1178              		.loc 1 186 26 view .LVU377
 1179 02d0 FFF7FEFF 		bl	lv_event_get_param
 1180              	.LVL112:
 187:Drivers/lvgl/src/widgets/lv_checkbox.c ****         *s = LV_MAX(*s, m);
 1181              		.loc 1 187 24 view .LVU378
 1182 02d4 4FF40031 		mov	r1, #131072
ARM GAS  /var/folders/lp/x54gwt890xv47sdkqj1k04q40000gn/T//cc4JFZNj.s 			page 44


 186:Drivers/lvgl/src/widgets/lv_checkbox.c ****         lv_coord_t m = lv_obj_calculate_ext_draw_size(obj, LV_PART_INDICATOR);
 1183              		.loc 1 186 26 view .LVU379
 1184 02d8 0446     		mov	r4, r0
 187:Drivers/lvgl/src/widgets/lv_checkbox.c ****         *s = LV_MAX(*s, m);
 1185              		.loc 1 187 24 view .LVU380
 1186 02da 2846     		mov	r0, r5
 1187              	.LVL113:
 187:Drivers/lvgl/src/widgets/lv_checkbox.c ****         *s = LV_MAX(*s, m);
 1188              		.loc 1 187 9 is_stmt 1 view .LVU381
 187:Drivers/lvgl/src/widgets/lv_checkbox.c ****         *s = LV_MAX(*s, m);
 1189              		.loc 1 187 24 is_stmt 0 view .LVU382
 1190 02dc FFF7FEFF 		bl	lv_obj_calculate_ext_draw_size
 1191              	.LVL114:
 188:Drivers/lvgl/src/widgets/lv_checkbox.c ****     }
 1192              		.loc 1 188 9 is_stmt 1 view .LVU383
 188:Drivers/lvgl/src/widgets/lv_checkbox.c ****     }
 1193              		.loc 1 188 14 is_stmt 0 view .LVU384
 1194 02e0 B4F90030 		ldrsh	r3, [r4]
 1195 02e4 8342     		cmp	r3, r0
 1196 02e6 B8BF     		it	lt
 1197 02e8 0346     		movlt	r3, r0
 188:Drivers/lvgl/src/widgets/lv_checkbox.c ****     }
 1198              		.loc 1 188 12 view .LVU385
 1199 02ea 2380     		strh	r3, [r4]	@ movhi
 1200              	.LBE273:
 1201 02ec 92E6     		b	.L6
 1202              	.L17:
 1203 02ee 00BF     		.align	2
 1204              	.L16:
 1205 02f0 00000000 		.word	lv_checkbox_class
 1206              	.LBE129:
 1207              	.LBE128:
 1208              		.cfi_endproc
 1209              	.LFE167:
 1211              		.section	.text.lv_checkbox_destructor,"ax",%progbits
 1212              		.align	1
 1213              		.p2align 2,,3
 1214              		.syntax unified
 1215              		.thumb
 1216              		.thumb_func
 1218              	lv_checkbox_destructor:
 1219              	.LVL115:
 1220              	.LFB166:
 137:Drivers/lvgl/src/widgets/lv_checkbox.c ****     LV_UNUSED(class_p);
 1221              		.loc 1 137 1 is_stmt 1 view -0
 1222              		.cfi_startproc
 1223              		@ args = 0, pretend = 0, frame = 0
 1224              		@ frame_needed = 0, uses_anonymous_args = 0
 138:Drivers/lvgl/src/widgets/lv_checkbox.c ****     LV_TRACE_OBJ_CREATE("begin");
 1225              		.loc 1 138 5 view .LVU387
 139:Drivers/lvgl/src/widgets/lv_checkbox.c **** 
 1226              		.loc 1 139 33 view .LVU388
 141:Drivers/lvgl/src/widgets/lv_checkbox.c ****     if(!cb->static_txt) {
 1227              		.loc 1 141 5 view .LVU389
 142:Drivers/lvgl/src/widgets/lv_checkbox.c ****         lv_mem_free((void *)cb->txt);
 1228              		.loc 1 142 5 view .LVU390
 137:Drivers/lvgl/src/widgets/lv_checkbox.c ****     LV_UNUSED(class_p);
ARM GAS  /var/folders/lp/x54gwt890xv47sdkqj1k04q40000gn/T//cc4JFZNj.s 			page 45


 1229              		.loc 1 137 1 is_stmt 0 view .LVU391
 1230 0000 38B5     		push	{r3, r4, r5, lr}
 1231              		.cfi_def_cfa_offset 16
 1232              		.cfi_offset 3, -16
 1233              		.cfi_offset 4, -12
 1234              		.cfi_offset 5, -8
 1235              		.cfi_offset 14, -4
 142:Drivers/lvgl/src/widgets/lv_checkbox.c ****         lv_mem_free((void *)cb->txt);
 1236              		.loc 1 142 8 view .LVU392
 1237 0002 91F82830 		ldrb	r3, [r1, #40]	@ zero_extendqisi2
 142:Drivers/lvgl/src/widgets/lv_checkbox.c ****         lv_mem_free((void *)cb->txt);
 1238              		.loc 1 142 7 view .LVU393
 1239 0006 13F00105 		ands	r5, r3, #1
 1240 000a 00D0     		beq	.L21
 147:Drivers/lvgl/src/widgets/lv_checkbox.c **** 
 1241              		.loc 1 147 1 view .LVU394
 1242 000c 38BD     		pop	{r3, r4, r5, pc}
 1243              	.L21:
 1244              	.LVL116:
 1245              	.LBB276:
 1246              	.LBI276:
 136:Drivers/lvgl/src/widgets/lv_checkbox.c **** {
 1247              		.loc 1 136 13 is_stmt 1 view .LVU395
 1248              	.LBB277:
 143:Drivers/lvgl/src/widgets/lv_checkbox.c ****         cb->txt = NULL;
 1249              		.loc 1 143 9 view .LVU396
 1250 000e 0C46     		mov	r4, r1
 1251 0010 486A     		ldr	r0, [r1, #36]
 1252              	.LVL117:
 143:Drivers/lvgl/src/widgets/lv_checkbox.c ****         cb->txt = NULL;
 1253              		.loc 1 143 9 is_stmt 0 view .LVU397
 1254 0012 FFF7FEFF 		bl	lv_mem_free
 1255              	.LVL118:
 144:Drivers/lvgl/src/widgets/lv_checkbox.c ****     }
 1256              		.loc 1 144 9 is_stmt 1 view .LVU398
 144:Drivers/lvgl/src/widgets/lv_checkbox.c ****     }
 1257              		.loc 1 144 17 is_stmt 0 view .LVU399
 1258 0016 6562     		str	r5, [r4, #36]
 146:Drivers/lvgl/src/widgets/lv_checkbox.c **** }
 1259              		.loc 1 146 36 is_stmt 1 view .LVU400
 1260              	.LVL119:
 146:Drivers/lvgl/src/widgets/lv_checkbox.c **** }
 1261              		.loc 1 146 36 is_stmt 0 view .LVU401
 1262              	.LBE277:
 1263              	.LBE276:
 146:Drivers/lvgl/src/widgets/lv_checkbox.c **** }
 1264              		.loc 1 146 36 is_stmt 1 view .LVU402
 147:Drivers/lvgl/src/widgets/lv_checkbox.c **** 
 1265              		.loc 1 147 1 is_stmt 0 view .LVU403
 1266 0018 38BD     		pop	{r3, r4, r5, pc}
 147:Drivers/lvgl/src/widgets/lv_checkbox.c **** 
 1267              		.loc 1 147 1 view .LVU404
 1268              		.cfi_endproc
 1269              	.LFE166:
 1271 001a 00BF     		.section	.text.lv_checkbox_create,"ax",%progbits
 1272              		.align	1
 1273              		.p2align 2,,3
ARM GAS  /var/folders/lp/x54gwt890xv47sdkqj1k04q40000gn/T//cc4JFZNj.s 			page 46


 1274              		.global	lv_checkbox_create
 1275              		.syntax unified
 1276              		.thumb
 1277              		.thumb_func
 1279              	lv_checkbox_create:
 1280              	.LVL120:
 1281              	.LFB161:
  57:Drivers/lvgl/src/widgets/lv_checkbox.c ****     LV_LOG_INFO("begin");
 1282              		.loc 1 57 1 is_stmt 1 view -0
 1283              		.cfi_startproc
 1284              		@ args = 0, pretend = 0, frame = 0
 1285              		@ frame_needed = 0, uses_anonymous_args = 0
  58:Drivers/lvgl/src/widgets/lv_checkbox.c ****     lv_obj_t * obj = lv_obj_class_create_obj(MY_CLASS, parent);
 1286              		.loc 1 58 5 view .LVU406
  58:Drivers/lvgl/src/widgets/lv_checkbox.c ****     lv_obj_t * obj = lv_obj_class_create_obj(MY_CLASS, parent);
 1287              		.loc 1 58 5 view .LVU407
  58:Drivers/lvgl/src/widgets/lv_checkbox.c ****     lv_obj_t * obj = lv_obj_class_create_obj(MY_CLASS, parent);
 1288              		.loc 1 58 5 view .LVU408
  59:Drivers/lvgl/src/widgets/lv_checkbox.c ****     lv_obj_class_init_obj(obj);
 1289              		.loc 1 59 5 view .LVU409
  57:Drivers/lvgl/src/widgets/lv_checkbox.c ****     LV_LOG_INFO("begin");
 1290              		.loc 1 57 1 is_stmt 0 view .LVU410
 1291 0000 10B5     		push	{r4, lr}
 1292              		.cfi_def_cfa_offset 8
 1293              		.cfi_offset 4, -8
 1294              		.cfi_offset 14, -4
  57:Drivers/lvgl/src/widgets/lv_checkbox.c ****     LV_LOG_INFO("begin");
 1295              		.loc 1 57 1 view .LVU411
 1296 0002 0146     		mov	r1, r0
  59:Drivers/lvgl/src/widgets/lv_checkbox.c ****     lv_obj_class_init_obj(obj);
 1297              		.loc 1 59 22 view .LVU412
 1298 0004 0348     		ldr	r0, .L24
 1299              	.LVL121:
  59:Drivers/lvgl/src/widgets/lv_checkbox.c ****     lv_obj_class_init_obj(obj);
 1300              		.loc 1 59 22 view .LVU413
 1301 0006 FFF7FEFF 		bl	lv_obj_class_create_obj
 1302              	.LVL122:
  59:Drivers/lvgl/src/widgets/lv_checkbox.c ****     lv_obj_class_init_obj(obj);
 1303              		.loc 1 59 22 view .LVU414
 1304 000a 0446     		mov	r4, r0
 1305              	.LVL123:
  60:Drivers/lvgl/src/widgets/lv_checkbox.c ****     return obj;
 1306              		.loc 1 60 5 is_stmt 1 view .LVU415
 1307 000c FFF7FEFF 		bl	lv_obj_class_init_obj
 1308              	.LVL124:
  61:Drivers/lvgl/src/widgets/lv_checkbox.c **** }
 1309              		.loc 1 61 5 view .LVU416
  62:Drivers/lvgl/src/widgets/lv_checkbox.c **** 
 1310              		.loc 1 62 1 is_stmt 0 view .LVU417
 1311 0010 2046     		mov	r0, r4
 1312 0012 10BD     		pop	{r4, pc}
 1313              	.LVL125:
 1314              	.L25:
  62:Drivers/lvgl/src/widgets/lv_checkbox.c **** 
 1315              		.loc 1 62 1 view .LVU418
 1316              		.align	2
 1317              	.L24:
ARM GAS  /var/folders/lp/x54gwt890xv47sdkqj1k04q40000gn/T//cc4JFZNj.s 			page 47


 1318 0014 00000000 		.word	lv_checkbox_class
 1319              		.cfi_endproc
 1320              	.LFE161:
 1322              		.section	.text.lv_checkbox_set_text,"ax",%progbits
 1323              		.align	1
 1324              		.p2align 2,,3
 1325              		.global	lv_checkbox_set_text
 1326              		.syntax unified
 1327              		.thumb
 1328              		.thumb_func
 1330              	lv_checkbox_set_text:
 1331              	.LVL126:
 1332              	.LFB162:
  69:Drivers/lvgl/src/widgets/lv_checkbox.c ****     lv_checkbox_t * cb = (lv_checkbox_t *)obj;
 1333              		.loc 1 69 1 is_stmt 1 view -0
 1334              		.cfi_startproc
 1335              		@ args = 0, pretend = 0, frame = 0
 1336              		@ frame_needed = 0, uses_anonymous_args = 0
  70:Drivers/lvgl/src/widgets/lv_checkbox.c **** #if LV_USE_ARABIC_PERSIAN_CHARS
 1337              		.loc 1 70 5 view .LVU420
  69:Drivers/lvgl/src/widgets/lv_checkbox.c ****     lv_checkbox_t * cb = (lv_checkbox_t *)obj;
 1338              		.loc 1 69 1 is_stmt 0 view .LVU421
 1339 0000 38B5     		push	{r3, r4, r5, lr}
 1340              		.cfi_def_cfa_offset 16
 1341              		.cfi_offset 3, -16
 1342              		.cfi_offset 4, -12
 1343              		.cfi_offset 5, -8
 1344              		.cfi_offset 14, -4
  69:Drivers/lvgl/src/widgets/lv_checkbox.c ****     lv_checkbox_t * cb = (lv_checkbox_t *)obj;
 1345              		.loc 1 69 1 view .LVU422
 1346 0002 0446     		mov	r4, r0
  74:Drivers/lvgl/src/widgets/lv_checkbox.c **** #endif
 1347              		.loc 1 74 18 view .LVU423
 1348 0004 0846     		mov	r0, r1
 1349              	.LVL127:
  74:Drivers/lvgl/src/widgets/lv_checkbox.c **** #endif
 1350              		.loc 1 74 5 is_stmt 1 view .LVU424
  69:Drivers/lvgl/src/widgets/lv_checkbox.c ****     lv_checkbox_t * cb = (lv_checkbox_t *)obj;
 1351              		.loc 1 69 1 is_stmt 0 view .LVU425
 1352 0006 0D46     		mov	r5, r1
  74:Drivers/lvgl/src/widgets/lv_checkbox.c **** #endif
 1353              		.loc 1 74 18 view .LVU426
 1354 0008 FFF7FEFF 		bl	strlen
 1355              	.LVL128:
  77:Drivers/lvgl/src/widgets/lv_checkbox.c ****     if(!cb->static_txt) _txt = lv_mem_realloc(_txt, len + 1);
 1356              		.loc 1 77 5 is_stmt 1 view .LVU427
  78:Drivers/lvgl/src/widgets/lv_checkbox.c ****     else _txt = lv_mem_alloc(len + 1);
 1357              		.loc 1 78 8 is_stmt 0 view .LVU428
 1358 000c 94F82830 		ldrb	r3, [r4, #40]	@ zero_extendqisi2
  78:Drivers/lvgl/src/widgets/lv_checkbox.c ****     else _txt = lv_mem_alloc(len + 1);
 1359              		.loc 1 78 7 view .LVU429
 1360 0010 DB07     		lsls	r3, r3, #31
  78:Drivers/lvgl/src/widgets/lv_checkbox.c ****     else _txt = lv_mem_alloc(len + 1);
 1361              		.loc 1 78 32 discriminator 1 view .LVU430
 1362 0012 00F10101 		add	r1, r0, #1
  77:Drivers/lvgl/src/widgets/lv_checkbox.c ****     if(!cb->static_txt) _txt = lv_mem_realloc(_txt, len + 1);
 1363              		.loc 1 77 12 view .LVU431
ARM GAS  /var/folders/lp/x54gwt890xv47sdkqj1k04q40000gn/T//cc4JFZNj.s 			page 48


 1364 0016 606A     		ldr	r0, [r4, #36]
 1365              	.LVL129:
  78:Drivers/lvgl/src/widgets/lv_checkbox.c ****     else _txt = lv_mem_alloc(len + 1);
 1366              		.loc 1 78 5 is_stmt 1 view .LVU432
  78:Drivers/lvgl/src/widgets/lv_checkbox.c ****     else _txt = lv_mem_alloc(len + 1);
 1367              		.loc 1 78 7 is_stmt 0 view .LVU433
 1368 0018 15D4     		bmi	.L27
  78:Drivers/lvgl/src/widgets/lv_checkbox.c ****     else _txt = lv_mem_alloc(len + 1);
 1369              		.loc 1 78 25 is_stmt 1 discriminator 1 view .LVU434
  78:Drivers/lvgl/src/widgets/lv_checkbox.c ****     else _txt = lv_mem_alloc(len + 1);
 1370              		.loc 1 78 32 is_stmt 0 discriminator 1 view .LVU435
 1371 001a FFF7FEFF 		bl	lv_mem_realloc
 1372              	.LVL130:
  78:Drivers/lvgl/src/widgets/lv_checkbox.c ****     else _txt = lv_mem_alloc(len + 1);
 1373              		.loc 1 78 32 discriminator 1 view .LVU436
 1374 001e 0346     		mov	r3, r0
 1375              	.LVL131:
 1376              	.L28:
  83:Drivers/lvgl/src/widgets/lv_checkbox.c **** #endif
 1377              		.loc 1 83 5 is_stmt 1 view .LVU437
 1378 0020 2946     		mov	r1, r5
 1379 0022 1846     		mov	r0, r3
  83:Drivers/lvgl/src/widgets/lv_checkbox.c **** #endif
 1380              		.loc 1 83 5 is_stmt 0 view .LVU438
 1381 0024 FFF7FEFF 		bl	strcpy
 1382              	.LVL132:
  86:Drivers/lvgl/src/widgets/lv_checkbox.c ****     cb->static_txt = 0;
 1383              		.loc 1 86 5 is_stmt 1 view .LVU439
  87:Drivers/lvgl/src/widgets/lv_checkbox.c **** 
 1384              		.loc 1 87 20 is_stmt 0 view .LVU440
 1385 0028 94F82820 		ldrb	r2, [r4, #40]	@ zero_extendqisi2
  86:Drivers/lvgl/src/widgets/lv_checkbox.c ****     cb->static_txt = 0;
 1386              		.loc 1 86 13 view .LVU441
 1387 002c 6062     		str	r0, [r4, #36]
  87:Drivers/lvgl/src/widgets/lv_checkbox.c **** 
 1388              		.loc 1 87 5 is_stmt 1 view .LVU442
  87:Drivers/lvgl/src/widgets/lv_checkbox.c **** 
 1389              		.loc 1 87 20 is_stmt 0 view .LVU443
 1390 002e 22F00102 		bic	r2, r2, #1
 1391 0032 84F82820 		strb	r2, [r4, #40]
  89:Drivers/lvgl/src/widgets/lv_checkbox.c ****     lv_obj_invalidate(obj);
 1392              		.loc 1 89 5 is_stmt 1 view .LVU444
 1393 0036 2046     		mov	r0, r4
 1394 0038 FFF7FEFF 		bl	lv_obj_refresh_self_size
 1395              	.LVL133:
  90:Drivers/lvgl/src/widgets/lv_checkbox.c **** }
 1396              		.loc 1 90 5 view .LVU445
 1397 003c 2046     		mov	r0, r4
  91:Drivers/lvgl/src/widgets/lv_checkbox.c **** 
 1398              		.loc 1 91 1 is_stmt 0 view .LVU446
 1399 003e BDE83840 		pop	{r3, r4, r5, lr}
 1400              		.cfi_remember_state
 1401              		.cfi_restore 14
 1402              		.cfi_restore 5
 1403              		.cfi_restore 4
 1404              		.cfi_restore 3
 1405              		.cfi_def_cfa_offset 0
ARM GAS  /var/folders/lp/x54gwt890xv47sdkqj1k04q40000gn/T//cc4JFZNj.s 			page 49


 1406              	.LVL134:
  90:Drivers/lvgl/src/widgets/lv_checkbox.c **** }
 1407              		.loc 1 90 5 view .LVU447
 1408 0042 FFF7FEBF 		b	lv_obj_invalidate
 1409              	.LVL135:
 1410              	.L27:
 1411              		.cfi_restore_state
  79:Drivers/lvgl/src/widgets/lv_checkbox.c **** #if LV_USE_ARABIC_PERSIAN_CHARS
 1412              		.loc 1 79 10 is_stmt 1 view .LVU448
  79:Drivers/lvgl/src/widgets/lv_checkbox.c **** #if LV_USE_ARABIC_PERSIAN_CHARS
 1413              		.loc 1 79 17 is_stmt 0 view .LVU449
 1414 0046 0846     		mov	r0, r1
 1415              	.LVL136:
  79:Drivers/lvgl/src/widgets/lv_checkbox.c **** #if LV_USE_ARABIC_PERSIAN_CHARS
 1416              		.loc 1 79 17 view .LVU450
 1417 0048 FFF7FEFF 		bl	lv_mem_alloc
 1418              	.LVL137:
  79:Drivers/lvgl/src/widgets/lv_checkbox.c **** #if LV_USE_ARABIC_PERSIAN_CHARS
 1419              		.loc 1 79 17 view .LVU451
 1420 004c 0346     		mov	r3, r0
 1421              	.LVL138:
  79:Drivers/lvgl/src/widgets/lv_checkbox.c **** #if LV_USE_ARABIC_PERSIAN_CHARS
 1422              		.loc 1 79 17 view .LVU452
 1423 004e E7E7     		b	.L28
 1424              		.cfi_endproc
 1425              	.LFE162:
 1427              		.section	.text.lv_checkbox_set_text_static,"ax",%progbits
 1428              		.align	1
 1429              		.p2align 2,,3
 1430              		.global	lv_checkbox_set_text_static
 1431              		.syntax unified
 1432              		.thumb
 1433              		.thumb_func
 1435              	lv_checkbox_set_text_static:
 1436              	.LVL139:
 1437              	.LFB163:
  94:Drivers/lvgl/src/widgets/lv_checkbox.c ****     lv_checkbox_t * cb = (lv_checkbox_t *)obj;
 1438              		.loc 1 94 1 is_stmt 1 view -0
 1439              		.cfi_startproc
 1440              		@ args = 0, pretend = 0, frame = 0
 1441              		@ frame_needed = 0, uses_anonymous_args = 0
  95:Drivers/lvgl/src/widgets/lv_checkbox.c **** 
 1442              		.loc 1 95 5 view .LVU454
  94:Drivers/lvgl/src/widgets/lv_checkbox.c ****     lv_checkbox_t * cb = (lv_checkbox_t *)obj;
 1443              		.loc 1 94 1 is_stmt 0 view .LVU455
 1444 0000 38B5     		push	{r3, r4, r5, lr}
 1445              		.cfi_def_cfa_offset 16
 1446              		.cfi_offset 3, -16
 1447              		.cfi_offset 4, -12
 1448              		.cfi_offset 5, -8
 1449              		.cfi_offset 14, -4
  97:Drivers/lvgl/src/widgets/lv_checkbox.c **** 
 1450              		.loc 1 97 8 view .LVU456
 1451 0002 90F82830 		ldrb	r3, [r0, #40]	@ zero_extendqisi2
  97:Drivers/lvgl/src/widgets/lv_checkbox.c **** 
 1452              		.loc 1 97 7 view .LVU457
 1453 0006 DB07     		lsls	r3, r3, #31
ARM GAS  /var/folders/lp/x54gwt890xv47sdkqj1k04q40000gn/T//cc4JFZNj.s 			page 50


  94:Drivers/lvgl/src/widgets/lv_checkbox.c ****     lv_checkbox_t * cb = (lv_checkbox_t *)obj;
 1454              		.loc 1 94 1 view .LVU458
 1455 0008 0446     		mov	r4, r0
 1456              	.LVL140:
  97:Drivers/lvgl/src/widgets/lv_checkbox.c **** 
 1457              		.loc 1 97 5 is_stmt 1 view .LVU459
  94:Drivers/lvgl/src/widgets/lv_checkbox.c ****     lv_checkbox_t * cb = (lv_checkbox_t *)obj;
 1458              		.loc 1 94 1 is_stmt 0 view .LVU460
 1459 000a 0D46     		mov	r5, r1
  97:Drivers/lvgl/src/widgets/lv_checkbox.c **** 
 1460              		.loc 1 97 7 view .LVU461
 1461 000c 0ED5     		bpl	.L33
 1462              	.LVL141:
 1463              	.L31:
  99:Drivers/lvgl/src/widgets/lv_checkbox.c ****     cb->static_txt = 1;
 1464              		.loc 1 99 5 is_stmt 1 view .LVU462
 100:Drivers/lvgl/src/widgets/lv_checkbox.c **** 
 1465              		.loc 1 100 20 is_stmt 0 view .LVU463
 1466 000e 94F82830 		ldrb	r3, [r4, #40]	@ zero_extendqisi2
  99:Drivers/lvgl/src/widgets/lv_checkbox.c ****     cb->static_txt = 1;
 1467              		.loc 1 99 13 view .LVU464
 1468 0012 6562     		str	r5, [r4, #36]
 100:Drivers/lvgl/src/widgets/lv_checkbox.c **** 
 1469              		.loc 1 100 5 is_stmt 1 view .LVU465
 100:Drivers/lvgl/src/widgets/lv_checkbox.c **** 
 1470              		.loc 1 100 20 is_stmt 0 view .LVU466
 1471 0014 43F00103 		orr	r3, r3, #1
 1472 0018 84F82830 		strb	r3, [r4, #40]
 102:Drivers/lvgl/src/widgets/lv_checkbox.c ****     lv_obj_invalidate(obj);
 1473              		.loc 1 102 5 is_stmt 1 view .LVU467
 1474 001c 2046     		mov	r0, r4
 1475 001e FFF7FEFF 		bl	lv_obj_refresh_self_size
 1476              	.LVL142:
 103:Drivers/lvgl/src/widgets/lv_checkbox.c **** }
 1477              		.loc 1 103 5 view .LVU468
 1478 0022 2046     		mov	r0, r4
 104:Drivers/lvgl/src/widgets/lv_checkbox.c **** 
 1479              		.loc 1 104 1 is_stmt 0 view .LVU469
 1480 0024 BDE83840 		pop	{r3, r4, r5, lr}
 1481              		.cfi_remember_state
 1482              		.cfi_restore 14
 1483              		.cfi_restore 5
 1484              		.cfi_restore 4
 1485              		.cfi_restore 3
 1486              		.cfi_def_cfa_offset 0
 1487              	.LVL143:
 103:Drivers/lvgl/src/widgets/lv_checkbox.c **** }
 1488              		.loc 1 103 5 view .LVU470
 1489 0028 FFF7FEBF 		b	lv_obj_invalidate
 1490              	.LVL144:
 1491              	.L33:
 1492              		.cfi_restore_state
  97:Drivers/lvgl/src/widgets/lv_checkbox.c **** 
 1493              		.loc 1 97 25 is_stmt 1 discriminator 1 view .LVU471
 1494 002c 406A     		ldr	r0, [r0, #36]
 1495              	.LVL145:
  97:Drivers/lvgl/src/widgets/lv_checkbox.c **** 
ARM GAS  /var/folders/lp/x54gwt890xv47sdkqj1k04q40000gn/T//cc4JFZNj.s 			page 51


 1496              		.loc 1 97 25 is_stmt 0 discriminator 1 view .LVU472
 1497 002e FFF7FEFF 		bl	lv_mem_free
 1498              	.LVL146:
  97:Drivers/lvgl/src/widgets/lv_checkbox.c **** 
 1499              		.loc 1 97 25 discriminator 1 view .LVU473
 1500 0032 ECE7     		b	.L31
 1501              		.cfi_endproc
 1502              	.LFE163:
 1504              		.section	.text.lv_checkbox_get_text,"ax",%progbits
 1505              		.align	1
 1506              		.p2align 2,,3
 1507              		.global	lv_checkbox_get_text
 1508              		.syntax unified
 1509              		.thumb
 1510              		.thumb_func
 1512              	lv_checkbox_get_text:
 1513              	.LVL147:
 1514              	.LFB164:
 111:Drivers/lvgl/src/widgets/lv_checkbox.c ****     lv_checkbox_t * cb = (lv_checkbox_t *)obj;
 1515              		.loc 1 111 1 is_stmt 1 view -0
 1516              		.cfi_startproc
 1517              		@ args = 0, pretend = 0, frame = 0
 1518              		@ frame_needed = 0, uses_anonymous_args = 0
 1519              		@ link register save eliminated.
 112:Drivers/lvgl/src/widgets/lv_checkbox.c ****     return cb->txt;
 1520              		.loc 1 112 5 view .LVU475
 113:Drivers/lvgl/src/widgets/lv_checkbox.c **** }
 1521              		.loc 1 113 5 view .LVU476
 114:Drivers/lvgl/src/widgets/lv_checkbox.c **** 
 1522              		.loc 1 114 1 is_stmt 0 view .LVU477
 1523 0000 406A     		ldr	r0, [r0, #36]
 1524              	.LVL148:
 114:Drivers/lvgl/src/widgets/lv_checkbox.c **** 
 1525              		.loc 1 114 1 view .LVU478
 1526 0002 7047     		bx	lr
 1527              		.cfi_endproc
 1528              	.LFE164:
 1530              		.global	lv_checkbox_class
 1531              		.section	.rodata.lv_checkbox_class,"a"
 1532              		.align	2
 1535              	lv_checkbox_class:
 1536 0000 00000000 		.word	lv_obj_class
 1537 0004 00000000 		.word	lv_checkbox_constructor
 1538 0008 00000000 		.word	lv_checkbox_destructor
 1539 000c 00000000 		.space	4
 1540 0010 00000000 		.word	lv_checkbox_event
 1541 0014 D127     		.short	10193
 1542 0016 D127     		.short	10193
 1543 0018 C4       		.byte	196
 1544 0019 02       		.byte	2
 1545 001a 00       		.byte	0
 1546 001b 00       		.space	1
 1547              		.text
 1548              	.Letext0:
 1549              		.file 5 "/Users/jr/Library/Application Support/Code/User/globalStorage/bmd.stm32-for-vscode/@xpack
 1550              		.file 6 "/Users/jr/Library/Application Support/Code/User/globalStorage/bmd.stm32-for-vscode/@xpack
 1551              		.file 7 "/Users/jr/Library/Application Support/Code/User/globalStorage/bmd.stm32-for-vscode/@xpack
ARM GAS  /var/folders/lp/x54gwt890xv47sdkqj1k04q40000gn/T//cc4JFZNj.s 			page 52


 1552              		.file 8 "Drivers/lvgl/src/widgets/../core/../misc/lv_types.h"
 1553              		.file 9 "Drivers/lvgl/src/widgets/../core/../misc/lv_color.h"
 1554              		.file 10 "Drivers/lvgl/src/widgets/../core/../misc/lv_txt.h"
 1555              		.file 11 "Drivers/lvgl/src/widgets/../core/../misc/lv_bidi.h"
 1556              		.file 12 "Drivers/lvgl/src/widgets/../core/../misc/lv_style.h"
 1557              		.file 13 "Drivers/lvgl/src/widgets/../core/../hal/../draw/lv_img_buf.h"
 1558              		.file 14 "Drivers/lvgl/src/widgets/../core/lv_obj.h"
 1559              		.file 15 "Drivers/lvgl/src/widgets/../core/../hal/../draw/lv_draw_rect.h"
 1560              		.file 16 "Drivers/lvgl/src/widgets/../core/../hal/../draw/lv_draw_label.h"
 1561              		.file 17 "Drivers/lvgl/src/widgets/../core/../hal/../draw/lv_draw_img.h"
 1562              		.file 18 "Drivers/lvgl/src/widgets/../core/../hal/../draw/lv_draw_line.h"
 1563              		.file 19 "Drivers/lvgl/src/widgets/../core/../hal/../draw/lv_draw_arc.h"
 1564              		.file 20 "Drivers/lvgl/src/widgets/../core/../hal/../draw/lv_draw_layer.h"
 1565              		.file 21 "Drivers/lvgl/src/widgets/../core/../hal/../draw/lv_draw.h"
 1566              		.file 22 "Drivers/lvgl/src/widgets/../core/../hal/../misc/lv_ll.h"
 1567              		.file 23 "Drivers/lvgl/src/widgets/../core/lv_group.h"
 1568              		.file 24 "Drivers/lvgl/src/widgets/../core/lv_obj_scroll.h"
 1569              		.file 25 "Drivers/lvgl/src/widgets/../core/lv_obj_style.h"
 1570              		.file 26 "Drivers/lvgl/src/widgets/../core/lv_obj_draw.h"
 1571              		.file 27 "Drivers/lvgl/src/widgets/../core/lv_obj_class.h"
 1572              		.file 28 "Drivers/lvgl/src/widgets/../core/lv_event.h"
 1573              		.file 29 "Drivers/lvgl/src/widgets/lv_checkbox.h"
 1574              		.file 30 "Drivers/lvgl/src/widgets/../core/../hal/../draw/sw/../../core/lv_obj_pos.h"
 1575              		.file 31 "/Users/jr/Library/Application Support/Code/User/globalStorage/bmd.stm32-for-vscode/@xpac
 1576              		.file 32 "Drivers/lvgl/src/widgets/../core/../misc/lv_mem.h"
ARM GAS  /var/folders/lp/x54gwt890xv47sdkqj1k04q40000gn/T//cc4JFZNj.s 			page 53

